 lib_angelscript

 Timestamp is 52d55508 (Tue Jan 14 18:17:28 2014)

 Preferred load address is 10000000

 Start         Length     Name                   Class
 0001:00000000 0005caeaH .text                   CODE
 0001:0005caf0 0000401aH .text$x                 CODE
 0001:00060b10 0000001bH .text$yc                CODE
 0001:00060b30 0000000dH .text$yd                CODE
 0002:00000000 000000f4H .idata$5                DATA
 0002:000000f4 00000004H .CRT$XCA                DATA
 0002:000000f8 00000008H .CRT$XCL                DATA
 0002:00000100 00000004H .CRT$XCZ                DATA
 0002:00000104 00000004H .CRT$XIA                DATA
 0002:00000108 00000004H .CRT$XIAA               DATA
 0002:0000010c 00000004H .CRT$XIC                DATA
 0002:00000110 00000004H .CRT$XIZ                DATA
 0002:00000118 00009940H .rdata                  DATA
 0002:00009a58 000006dcH .rdata$r                DATA
 0002:0000a140 00000524H .rdata$sxdata           DATA
 0002:0000a664 00000004H .rtc$IAA                DATA
 0002:0000a668 00000004H .rtc$IZZ                DATA
 0002:0000a66c 00000004H .rtc$TAA                DATA
 0002:0000a670 00000004H .rtc$TZZ                DATA
 0002:0000a678 00005794H .xdata$x                DATA
 0002:0000fe0c 00000028H .idata$2                DATA
 0002:0000fe34 00000014H .idata$3                DATA
 0002:0000fe48 000000f4H .idata$4                DATA
 0002:0000ff3c 00000466H .idata$6                DATA
 0002:000103b0 00000246H .edata                  DATA
 0003:00000000 000003a0H .data                   DATA
 0003:000003a0 00000374H .bss                    DATA

  Address         Publics by Value              Rva+Base       Lib:Object

 0000:00000000       __except_list              00000000     <absolute>
 0000:00000149       ___safe_se_handler_count   00000149     <absolute>
 0000:00009876       __fltused                  00009876     <absolute>
 0000:00009876       __ldused                   00009876     <absolute>
 0000:00000000       ___ImageBase               10000000     <linker-defined>
 0001:00000000       ??3@YAXPAX0@Z              10001000 f i as_builder.obj
 0001:00000010       ??0asSSystemFunctionInterface@@QAE@ABU0@@Z 10001010 f i as_builder.obj
 0001:00000060       ??4asSSystemFunctionInterface@@QAEAAU0@ABU0@@Z 10001060 f i as_builder.obj
 0001:000000c0       ??RasCCompGlobVarType@@UBE_NPBX@Z 100010c0 f i as_builder.obj
 0001:000000e0       ??1preMessage_t@asCBuilder@@QAE@XZ 100010e0 f i as_builder.obj
 0001:00000130       ??0sFunctionDescription@@QAE@XZ 10001130 f i as_builder.obj
 0001:00000150       ??4asSTypeBehaviour@@QAEAAU0@ABU0@@Z 10001150 f i as_builder.obj
 0001:000001e0       ??1asSSystemFunctionInterface@@QAE@XZ 100011e0 f i as_builder.obj
 0001:000001f0       ??1?$asCSymbolTable@UsGlobalVariableDescription@@@@QAE@XZ 100011f0 f i as_builder.obj
 0001:000001f0       ??1?$asCSymbolTable@VasCGlobalProperty@@@@QAE@XZ 100011f0 f i as_builder.obj
 0001:000001f0       ??1?$asCSymbolTable@VasCScriptFunction@@@@QAE@XZ 100011f0 f i as_module.obj
 0001:00000240       ??1sPropertyInitializer@@QAE@XZ 10001240 f i as_builder.obj
 0001:00000250       ??1?$asCMap@VasCString@@V?$asCArray@I@@@@QAE@XZ 10001250 f i as_builder.obj
 0001:000002c0       ??1?$asCArray@VasCDataType@@@@QAE@XZ 100012c0 f i as_builder.obj
 0001:000002d0       ?Allocate@?$asCArray@VasCDataType@@@@QAEXI_N@Z 100012d0 f i as_builder.obj
 0001:00000410       ?PushLast@?$asCArray@VasCDataType@@@@QAEXABVasCDataType@@@Z 10001410 f i as_builder.obj
 0001:00000460       ??4?$asCArray@VasCDataType@@@@QAEAAV0@ABV0@@Z 10001460 f i as_builder.obj
 0001:00000480       ??A?$asCArray@VasCString@@@@QAEAAVasCString@@I@Z 10001480 f i as_compiler.obj
 0001:00000480       ??A?$asCArray@VasCDataType@@@@QBEABVasCDataType@@I@Z 10001480 f i as_module.obj
 0001:00000480       ??A?$asCArray@VasCDataType@@@@QAEAAVasCDataType@@I@Z 10001480 f i as_builder.obj
 0001:00000490       ??9?$asCArray@VasCDataType@@@@QBE_NABV0@@Z 10001490 f i as_builder.obj
 0001:000004a0       ??9?$asCArray@W4asETypeModifiers@@@@QBE_NABV0@@Z 100014a0 f i as_builder.obj
 0001:000004b0       ?IndexOf@?$asCArray@PAVasCScriptFunction@@@@QBEHABQAVasCScriptFunction@@@Z 100014b0 f i as_builder.obj
 0001:000004b0       ?IndexOf@?$asCArray@PAX@@QBEHABQAX@Z 100014b0 f i as_restore.obj
 0001:000004b0       ?IndexOf@?$asCArray@PAVasCByteInstruction@@@@QBEHABQAVasCByteInstruction@@@Z 100014b0 f i as_bytecode.obj
 0001:000004b0       ?IndexOf@?$asCArray@H@@QBEHABH@Z 100014b0 f i as_bytecode.obj
 0001:000004b0       ?IndexOf@?$asCArray@PAVasCObjectType@@@@QBEHABQAVasCObjectType@@@Z 100014b0 f i as_configgroup.obj
 0001:000004e0       ??0?$asCArray@H@@QAE@ABV0@@Z 100014e0 f i as_builder.obj
 0001:00000500       ?Get@?$asCSymbolTable@VasCScriptFunction@@@@QAEPAVasCScriptFunction@@I@Z 10001500 f i as_builder.obj
 0001:00000500       ?Get@?$asCSymbolTable@UsGlobalVariableDescription@@@@QAEPAUsGlobalVariableDescription@@I@Z 10001500 f i as_builder.obj
 0001:00000500       ?Get@?$asCSymbolTable@VasCGlobalProperty@@@@QAEPAVasCGlobalProperty@@I@Z 10001500 f i as_builder.obj
 0001:00000520       ?GetIndexes@?$asCSymbolTable@VasCScriptFunction@@@@QBEABV?$asCArray@I@@PBUasSNameSpace@@ABVasCString@@@Z 10001520 f i as_builder.obj
 0001:000005f0       ?Put@?$asCSymbolTable@VasCScriptFunction@@@@QAEHPAVasCScriptFunction@@@Z 100015f0 f i as_builder.obj
 0001:000006e0       ?Erase@?$asCSymbolTable@VasCScriptFunction@@@@QAE_NI@Z 100016e0 f i as_builder.obj
 0001:000007e0       ?GetFirst@?$asCSymbolTable@VasCGlobalProperty@@@@QAEPAVasCGlobalProperty@@PBUasSNameSpace@@ABVasCString@@@Z 100017e0 f i as_builder.obj
 0001:000007e0       ?GetFirst@?$asCSymbolTable@UsGlobalVariableDescription@@@@QAEPAUsGlobalVariableDescription@@PBUasSNameSpace@@ABVasCString@@@Z 100017e0 f i as_builder.obj
 0001:00000800       ?Put@?$asCSymbolTable@VasCGlobalProperty@@@@QAEHPAVasCGlobalProperty@@@Z 10001800 f i as_builder.obj
 0001:000008f0       ?GetSize@?$asCSymbolTable@VasCGlobalProperty@@@@QBEIXZ 100018f0 f i as_builder.obj
 0001:000008f0       ?GetSize@?$asCSymbolTable@UsGlobalVariableDescription@@@@QBEIXZ 100018f0 f i as_builder.obj
 0001:000008f0       ?GetSize@?$asCSymbolTable@VasCScriptFunction@@@@QBEIXZ 100018f0 f i as_module.obj
 0001:00000900       ?SwapWith@?$asCSymbolTable@VasCGlobalProperty@@@@QAEXAAV1@@Z 10001900 f i as_builder.obj
 0001:00000930       ??0?$asCArray@D@@QAE@I@Z   10001930 f i as_compiler.obj
 0001:00000930       ??0?$asCArray@_N@@QAE@I@Z  10001930 f i as_builder.obj
 0001:00000950       ??1?$asCArray@_N@@QAE@XZ   10001950 f i as_builder.obj
 0001:00000950       ??1?$asCArray@D@@QAE@XZ    10001950 f i as_compiler.obj
 0001:00000960       ?Allocate@?$asCArray@D@@QAEXI_N@Z 10001960 f i as_compiler.obj
 0001:00000960       ?Allocate@?$asCArray@_N@@QAEXI_N@Z 10001960 f i as_builder.obj
 0001:00000a50       ??4?$asCArray@_N@@QAEAAV0@ABV0@@Z 10001a50 f i as_builder.obj
 0001:00000a70       ??A?$asCArray@_N@@QAEAA_NI@Z 10001a70 f i as_builder.obj
 0001:00000a80       ??1?$asCArray@VasCString@@@@QAE@XZ 10001a80 f i as_builder.obj
 0001:00000a90       ?Allocate@?$asCArray@VasCString@@@@QAEXI_N@Z 10001a90 f i as_builder.obj
 0001:00000c00       ?PushLast@?$asCArray@VasCString@@@@QAEXABVasCString@@@Z 10001c00 f i as_builder.obj
 0001:00000c50       ??4?$asCArray@VasCString@@@@QAEAAV0@ABV0@@Z 10001c50 f i as_builder.obj
 0001:00000c70       ??1?$asCArray@UsPropertyInitializer@@@@QAE@XZ 10001c70 f i as_builder.obj
 0001:00000c80       ?PushLast@?$asCArray@UsPropertyInitializer@@@@QAEXABUsPropertyInitializer@@@Z 10001c80 f i as_builder.obj
 0001:00000ce0       ?PushLast@?$asCArray@PAUasSEnumValue@@@@QAEXABQAUasSEnumValue@@@Z 10001ce0 f i as_builder.obj
 0001:00000ce0       ?PushLast@?$asCArray@PAUsFunctionDescription@@@@QAEXABQAUsFunctionDescription@@@Z 10001ce0 f i as_builder.obj
 0001:00000ce0       ?PushLast@?$asCArray@I@@QAEXABI@Z 10001ce0 f i as_builder.obj
 0001:00000ce0       ?PushLast@?$asCArray@PAVasCObjectType@@@@QAEXABQAVasCObjectType@@@Z 10001ce0 f i as_builder.obj
 0001:00000ce0       ?PushLast@?$asCArray@PAUsClassDeclaration@@@@QAEXABQAUsClassDeclaration@@@Z 10001ce0 f i as_builder.obj
 0001:00000ce0       ?PushLast@?$asCArray@PAVasCObjectProperty@@@@QAEXABQAVasCObjectProperty@@@Z 10001ce0 f i as_objecttype.obj
 0001:00000ce0       ?PushLast@?$asCArray@PAVasCByteInstruction@@@@QAEXABQAVasCByteInstruction@@@Z 10001ce0 f i as_bytecode.obj
 0001:00000ce0       ?PushLast@?$asCArray@PAVasCScriptFunction@@@@QAEXABQAVasCScriptFunction@@@Z 10001ce0 f i as_builder.obj
 0001:00000ce0       ?PushLast@?$asCArray@W4asETypeModifiers@@@@QAEXABW4asETypeModifiers@@@Z 10001ce0 f i as_builder.obj
 0001:00000ce0       ?PushLast@?$asCArray@PAVasCString@@@@QAEXABQAVasCString@@@Z 10001ce0 f i as_builder.obj
 0001:00000ce0       ?PushLast@?$asCArray@PAU?$asSMapNode@PAXUasSIntTypePair@asCGarbageCollector@@@@@@QAEXABQAU?$asSMapNode@PAXUasSIntTypePair@asCGarbageCollector@@@@@Z 10001ce0 f i as_gc.obj
 0001:00000ce0       ?PushLast@?$asCArray@PAVasCScriptCode@@@@QAEXABQAVasCScriptCode@@@Z 10001ce0 f i as_builder.obj
 0001:00000ce0       ?PushLast@?$asCArray@PAVasIScriptContext@@@@QAEXABQAVasIScriptContext@@@Z 10001ce0 f i as_context.obj
 0001:00000ce0       ?PushLast@?$asCArray@H@@QAEXABH@Z 10001ce0 f i as_builder.obj
 0001:00000ce0       ?PushLast@?$asCArray@PAUsFuncDef@@@@QAEXABQAUsFuncDef@@@Z 10001ce0 f i as_builder.obj
 0001:00000ce0       ?PushLast@?$asCArray@PAUmessage_t@asCOutputBuffer@@@@QAEXABQAUmessage_t@asCOutputBuffer@@@Z 10001ce0 f i as_outputbuffer.obj
 0001:00000ce0       ?PushLast@?$asCArray@PAVasCGlobalProperty@@@@QAEXABQAVasCGlobalProperty@@@Z 10001ce0 f i as_builder.obj
 0001:00000ce0       ?PushLast@?$asCArray@PAUasSScriptVariable@@@@QAEXABQAUasSScriptVariable@@@Z 10001ce0 f i as_restore.obj
 0001:00000ce0       ?PushLast@?$asCArray@PAUasSExprContext@@@@QAEXABQAUasSExprContext@@@Z 10001ce0 f i as_compiler.obj
 0001:00000ce0       ?PushLast@?$asCArray@PAUsBindInfo@@@@QAEXABQAUsBindInfo@@@Z 10001ce0 f i as_module.obj
 0001:00000ce0       ?PushLast@?$asCArray@PAVasCScriptNode@@@@QAEXABQAVasCScriptNode@@@Z 10001ce0 f i as_compiler.obj
 0001:00000ce0       ?PushLast@?$asCArray@PAUSListAdjuster@asCReader@@@@QAEXABQAUSListAdjuster@asCReader@@@Z 10001ce0 f i as_restore.obj
 0001:00000ce0       ?PushLast@?$asCArray@PAVasCParser@@@@QAEXABQAVasCParser@@@Z 10001ce0 f i as_builder.obj
 0001:00000ce0       ?PushLast@?$asCArray@PAVasCModule@@@@QAEXABQAVasCModule@@@Z 10001ce0 f i as_scriptengine.obj
 0001:00000ce0       ?PushLast@?$asCArray@PAUsGlobalVariableDescription@@@@QAEXABQAUsGlobalVariableDescription@@@Z 10001ce0 f i as_builder.obj
 0001:00000ce0       ?PushLast@?$asCArray@PAUSListAdjuster@asCWriter@@@@QAEXABQAUSListAdjuster@asCWriter@@@Z 10001ce0 f i as_restore.obj
 0001:00000ce0       ?PushLast@?$asCArray@PAX@@QAEXABQAX@Z 10001ce0 f i as_gc.obj
 0001:00000ce0       ?PushLast@?$asCArray@PAUsMixinClass@@@@QAEXABQAUsMixinClass@@@Z 10001ce0 f i as_builder.obj
 0001:00000ce0       ?PushLast@?$asCArray@PAVasCConfigGroup@@@@QAEXABQAVasCConfigGroup@@@Z 10001ce0 f i as_configgroup.obj
 0001:00000d20       ?GetFirst@?$asCSymbolTable@UsGlobalVariableDescription@@@@QBEPAUsGlobalVariableDescription@@PBUasSNameSpace@@ABVasCString@@ABUasIFilter@@@Z 10001d20 f i as_builder.obj
 0001:00000d50       ?Put@?$asCSymbolTable@UsGlobalVariableDescription@@@@QAEHPAUsGlobalVariableDescription@@@Z 10001d50 f i as_builder.obj
 0001:00000e40       ?Erase@?$asCSymbolTable@UsGlobalVariableDescription@@@@QAE_NI@Z 10001e40 f i as_builder.obj
 0001:00000f40       ??1?$asCArray@PAUsGlobalVariableDescription@@@@QAE@XZ 10001f40 f i as_builder.obj
 0001:00000f40       ??1?$asCArray@PAUsMixinClass@@@@QAE@XZ 10001f40 f i as_builder.obj
 0001:00000f40       ??1?$asCArray@PAUasSScriptVariable@@@@QAE@XZ 10001f40 f i as_scriptfunction.obj
 0001:00000f40       ??1?$asCArray@PAUsFuncDef@@@@QAE@XZ 10001f40 f i as_builder.obj
 0001:00000f40       ??1?$asCArray@PAUSListAdjuster@asCWriter@@@@QAE@XZ 10001f40 f i as_module.obj
 0001:00000f40       ??1?$asCArray@PAUsBindInfo@@@@QAE@XZ 10001f40 f i as_module.obj
 0001:00000f40       ??1?$asCArray@PAVasIScriptContext@@@@QAE@XZ 10001f40 f i as_thread.obj
 0001:00000f40       ??1?$asCArray@PAU?$asSMapNode@PAXUasSIntTypePair@asCGarbageCollector@@@@@@QAE@XZ 10001f40 f i as_gc.obj
 0001:00000f40       ??1?$asCArray@I@@QAE@XZ    10001f40 f i as_builder.obj
 0001:00000f40       ??1?$asCArray@PAVasCScriptNode@@@@QAE@XZ 10001f40 f i as_compiler.obj
 0001:00000f40       ??1?$asCArray@H@@QAE@XZ    10001f40 f i as_builder.obj
 0001:00000f40       ??1?$asCArray@PAVasCModule@@@@QAE@XZ 10001f40 f i as_scriptengine.obj
 0001:00000f40       ??1?$asCArray@PAUSListAdjuster@asCReader@@@@QAE@XZ 10001f40 f i as_module.obj
 0001:00000f40       ??1?$asCArray@PAUsClassDeclaration@@@@QAE@XZ 10001f40 f i as_builder.obj
 0001:00000f40       ??1?$asCArray@PAVasCScriptFunction@@@@QAE@XZ 10001f40 f i as_configgroup.obj
 0001:00000f40       ??1?$asCArray@K@@QAE@XZ    10001f40 f i as_scriptfunction.obj
 0001:00000f40       ??1?$asCArray@PAVasCObjectProperty@@@@QAE@XZ 10001f40 f i as_objecttype.obj
 0001:00000f40       ??1?$asCArray@W4asETypeModifiers@@@@QAE@XZ 10001f40 f i as_builder.obj
 0001:00000f40       ??1?$asCArray@PAVasCGlobalProperty@@@@QAE@XZ 10001f40 f i as_builder.obj
 0001:00000f40       ??1?$asCArray@PAUsFunctionDescription@@@@QAE@XZ 10001f40 f i as_builder.obj
 0001:00000f40       ??1?$asCArray@PAVasCByteInstruction@@@@QAE@XZ 10001f40 f i as_bytecode.obj
 0001:00000f40       ??1?$asCArray@PAVasCObjectType@@@@QAE@XZ 10001f40 f i as_configgroup.obj
 0001:00000f40       ??1?$asCArray@PAUasSExprContext@@@@QAE@XZ 10001f40 f i as_compiler.obj
 0001:00000f40       ??1?$asCArray@PAX@@QAE@XZ  10001f40 f i as_gc.obj
 0001:00000f40       ??1?$asCArray@PAUasSEnumValue@@@@QAE@XZ 10001f40 f i as_objecttype.obj
 0001:00000f40       ??1?$asCArray@PAUsVariable@@@@QAE@XZ 10001f40 f i as_variablescope.obj
 0001:00000f40       ??1?$asCArray@PAVasCParser@@@@QAE@XZ 10001f40 f i as_builder.obj
 0001:00000f40       ??1?$asCArray@PAK@@QAE@XZ  10001f40 f i as_context.obj
 0001:00000f40       ??1?$asCArray@PAVasCConfigGroup@@@@QAE@XZ 10001f40 f i as_configgroup.obj
 0001:00000f40       ??1?$asCArray@PAUasSNameSpace@@@@QAE@XZ 10001f40 f i as_scriptengine.obj
 0001:00000f40       ??1?$asCArray@PAUmessage_t@asCOutputBuffer@@@@QAE@XZ 10001f40 f i as_builder.obj
 0001:00000f40       ??1?$asCArray@PAVasCString@@@@QAE@XZ 10001f40 f i as_builder.obj
 0001:00000f40       ??1?$asCArray@PAVasCScriptCode@@@@QAE@XZ 10001f40 f i as_builder.obj
 0001:00000f50       ?RemoveIndex@?$asCArray@I@@QAEXI@Z 10001f50 f i as_builder.obj
 0001:00000f50       ?RemoveIndex@?$asCArray@H@@QAEXI@Z 10001f50 f i as_builder.obj
 0001:00000f50       ?RemoveIndex@?$asCArray@PAVasCScriptFunction@@@@QAEXI@Z 10001f50 f i as_builder.obj
 0001:00000f50       ?RemoveIndex@?$asCArray@PAVasCObjectType@@@@QAEXI@Z 10001f50 f i as_configgroup.obj
 0001:00000f50       ?RemoveIndex@?$asCArray@PAVasCModule@@@@QAEXI@Z 10001f50 f i as_module.obj
 0001:00000f50       ?RemoveIndex@?$asCArray@PAUsClassDeclaration@@@@QAEXI@Z 10001f50 f i as_builder.obj
 0001:00000f80       ??F?$asCSymbolTableIterator@UsGlobalVariableDescription@@U1@@@QAEAAV0@H@Z 10001f80 f i as_builder.obj
 0001:00000f90       ??B?$asCSymbolTableIterator@VasCGlobalProperty@@V1@@@QBE_NXZ 10001f90 f i as_module.obj
 0001:00000f90       ??B?$asCSymbolTableIterator@UsGlobalVariableDescription@@U1@@@QBE_NXZ 10001f90 f i as_builder.obj
 0001:00000f90       ??B?$asCSymbolTableIterator@VasCScriptFunction@@V1@@@QBE_NXZ 10001f90 f i as_module.obj
 0001:00000fc0       ??1?$asSMapNode@VasCString@@V?$asCArray@I@@@@QAE@XZ 10001fc0 f i as_builder.obj
 0001:00001010       ??0?$asCArray@PAVasCParser@@@@QAE@I@Z 10002010 f i as_builder.obj
 0001:00001010       ??0?$asCArray@I@@QAE@I@Z   10002010 f i as_builder.obj
 0001:00001010       ??0?$asCArray@PAUsClassDeclaration@@@@QAE@I@Z 10002010 f i as_builder.obj
 0001:00001010       ??0?$asCArray@PAVasCScriptNode@@@@QAE@I@Z 10002010 f i as_compiler.obj
 0001:00001030       ??0?$asCMap@VasCString@@V?$asCArray@I@@@@QAE@XZ 10002030 f i as_builder.obj
 0001:00001060       ?Insert@?$asCMap@VasCString@@V?$asCArray@I@@@@QAEHABVasCString@@ABV?$asCArray@I@@@Z 10002060 f i as_builder.obj
 0001:000010d0       ?GetValue@?$asCMap@VasCString@@V?$asCArray@I@@@@QBEABV?$asCArray@I@@PBU?$asSMapNode@VasCString@@V?$asCArray@I@@@@@Z 100020d0 f i as_builder.obj
 0001:000010d0       ?GetValue@?$asCMap@VasCString@@V?$asCArray@I@@@@QAEAAV?$asCArray@I@@PAU?$asSMapNode@VasCString@@V?$asCArray@I@@@@@Z 100020d0 f i as_builder.obj
 0001:000010f0       ?Erase@?$asCMap@VasCString@@V?$asCArray@I@@@@QAEXPAU?$asSMapNode@VasCString@@V?$asCArray@I@@@@@Z 100020f0 f i as_builder.obj
 0001:00001160       ?EraseAll@?$asCMap@VasCString@@V?$asCArray@I@@@@QAEXXZ 10002160 f i as_builder.obj
 0001:00001180       ?SwapWith@?$asCMap@VasCString@@V?$asCArray@I@@@@QAEXAAV1@@Z 10002180 f i as_builder.obj
 0001:000011a0       ?MoveTo@?$asCMap@VasCString@@V?$asCArray@I@@@@QBE_NPAPAU?$asSMapNode@VasCString@@V?$asCArray@I@@@@ABVasCString@@@Z 100021a0 f i as_builder.obj
 0001:00001200       ?Copy@?$asCArray@VasCDataType@@@@QAEXPBVasCDataType@@I@Z 10002200 f i as_builder.obj
 0001:00001250       ??8?$asCArray@VasCDataType@@@@QBE_NABV0@@Z 10002250 f i as_builder.obj
 0001:000012a0       ??8?$asCArray@W4asETypeModifiers@@@@QBE_NABV0@@Z 100022a0 f i as_builder.obj
 0001:000012e0       ?GetKey@?$asCSymbolTable@VasCScriptFunction@@@@ABEXPBVasCScriptFunction@@AAVasCString@@@Z 100022e0 f i as_builder.obj
 0001:00001300       ?CheckIdx@?$asCSymbolTable@VasCScriptFunction@@@@ABE_NI@Z 10002300 f i as_builder.obj
 0001:00001300       ?CheckIdx@?$asCSymbolTable@VasCGlobalProperty@@@@ABE_NI@Z 10002300 f i as_builder.obj
 0001:00001300       ?CheckIdx@?$asCSymbolTable@UsGlobalVariableDescription@@@@ABE_NI@Z 10002300 f i as_builder.obj
 0001:00001320       ?SwapWith@?$asCArray@PAVasCGlobalProperty@@@@QAEXAAV1@@Z 10002320 f i as_builder.obj
 0001:00001390       ?GetFirstIndex@?$asCSymbolTable@VasCGlobalProperty@@@@QBEHPBUasSNameSpace@@ABVasCString@@@Z 10002390 f i as_builder.obj
 0001:00001390       ?GetFirstIndex@?$asCSymbolTable@UsGlobalVariableDescription@@@@QBEHPBUasSNameSpace@@ABVasCString@@@Z 10002390 f i as_builder.obj
 0001:00001440       ?GetKey@?$asCSymbolTable@VasCGlobalProperty@@@@ABEXPBVasCGlobalProperty@@AAVasCString@@@Z 10002440 f i as_builder.obj
 0001:00001450       ?Copy@?$asCArray@_N@@QAEXPB_NI@Z 10002450 f i as_builder.obj
 0001:00001490       ?Copy@?$asCArray@VasCString@@@@QAEXPBVasCString@@I@Z 10002490 f i as_builder.obj
 0001:000014e0       ?Allocate@?$asCArray@UsPropertyInitializer@@@@QAEXI_N@Z 100024e0 f i as_builder.obj
 0001:000016c0       ?Previous@?$asCSymbolTableIterator@UsGlobalVariableDescription@@U1@@@AAEXXZ 100026c0 f i as_builder.obj
 0001:00001700       ?Allocate@?$asCArray@PAVasCScriptCode@@@@QAEXI_N@Z 10002700 f i as_builder.obj
 0001:00001700       ?Allocate@?$asCArray@PAUsFuncDef@@@@QAEXI_N@Z 10002700 f i as_builder.obj
 0001:00001700       ?Allocate@?$asCArray@PAVasCScriptFunction@@@@QAEXI_N@Z 10002700 f i as_builder.obj
 0001:00001700       ?Allocate@?$asCArray@PAK@@QAEXI_N@Z 10002700 f i as_context.obj
 0001:00001700       ?Allocate@?$asCArray@PAVasCGlobalProperty@@@@QAEXI_N@Z 10002700 f i as_builder.obj
 0001:00001700       ?Allocate@?$asCArray@PAU?$asSMapNode@PAXUasSIntTypePair@asCGarbageCollector@@@@@@QAEXI_N@Z 10002700 f i as_gc.obj
 0001:00001700       ?Allocate@?$asCArray@PAVasCObjectProperty@@@@QAEXI_N@Z 10002700 f i as_objecttype.obj
 0001:00001700       ?Allocate@?$asCArray@PAUSListAdjuster@asCReader@@@@QAEXI_N@Z 10002700 f i as_module.obj
 0001:00001700       ?Allocate@?$asCArray@PAVasCObjectType@@@@QAEXI_N@Z 10002700 f i as_builder.obj
 0001:00001700       ?Allocate@?$asCArray@PAUasSEnumValue@@@@QAEXI_N@Z 10002700 f i as_builder.obj
 0001:00001700       ?Allocate@?$asCArray@I@@QAEXI_N@Z 10002700 f i as_builder.obj
 0001:00001700       ?Allocate@?$asCArray@PAVasCModule@@@@QAEXI_N@Z 10002700 f i as_scriptengine.obj
 0001:00001700       ?Allocate@?$asCArray@PAVasCByteInstruction@@@@QAEXI_N@Z 10002700 f i as_bytecode.obj
 0001:00001700       ?Allocate@?$asCArray@PAUmessage_t@asCOutputBuffer@@@@QAEXI_N@Z 10002700 f i as_builder.obj
 0001:00001700       ?Allocate@?$asCArray@PAX@@QAEXI_N@Z 10002700 f i as_gc.obj
 0001:00001700       ?Allocate@?$asCArray@PAVasCString@@@@QAEXI_N@Z 10002700 f i as_builder.obj
 0001:00001700       ?Allocate@?$asCArray@PAUasSScriptVariable@@@@QAEXI_N@Z 10002700 f i as_restore.obj
 0001:00001700       ?Allocate@?$asCArray@PAUsMixinClass@@@@QAEXI_N@Z 10002700 f i as_builder.obj
 0001:00001700       ?Allocate@?$asCArray@W4asETypeModifiers@@@@QAEXI_N@Z 10002700 f i as_builder.obj
 0001:00001700       ?Allocate@?$asCArray@PAVasCScriptNode@@@@QAEXI_N@Z 10002700 f i as_compiler.obj
 0001:00001700       ?Allocate@?$asCArray@K@@QAEXI_N@Z 10002700 f i as_compiler.obj
 0001:00001700       ?Allocate@?$asCArray@PAUsBindInfo@@@@QAEXI_N@Z 10002700 f i as_module.obj
 0001:00001700       ?Allocate@?$asCArray@PAVasCParser@@@@QAEXI_N@Z 10002700 f i as_builder.obj
 0001:00001700       ?Allocate@?$asCArray@PAUasSExprContext@@@@QAEXI_N@Z 10002700 f i as_compiler.obj
 0001:00001700       ?Allocate@?$asCArray@PAUasSNameSpace@@@@QAEXI_N@Z 10002700 f i as_scriptengine.obj
 0001:00001700       ?Allocate@?$asCArray@PAUsClassDeclaration@@@@QAEXI_N@Z 10002700 f i as_builder.obj
 0001:00001700       ?Allocate@?$asCArray@PAUsVariable@@@@QAEXI_N@Z 10002700 f i as_variablescope.obj
 0001:00001700       ?Allocate@?$asCArray@H@@QAEXI_N@Z 10002700 f i as_builder.obj
 0001:00001700       ?Allocate@?$asCArray@PAUsGlobalVariableDescription@@@@QAEXI_N@Z 10002700 f i as_builder.obj
 0001:00001700       ?Allocate@?$asCArray@PAVasIScriptContext@@@@QAEXI_N@Z 10002700 f i as_context.obj
 0001:00001700       ?Allocate@?$asCArray@PAVasCConfigGroup@@@@QAEXI_N@Z 10002700 f i as_configgroup.obj
 0001:00001700       ?Allocate@?$asCArray@PAUsFunctionDescription@@@@QAEXI_N@Z 10002700 f i as_builder.obj
 0001:00001700       ?Allocate@?$asCArray@PAUSListAdjuster@asCWriter@@@@QAEXI_N@Z 10002700 f i as_module.obj
 0001:00001800       ??_G?$asSMapNode@VasCString@@V?$asCArray@I@@@@QAEPAXI@Z 10002800 f i as_builder.obj
 0001:00001850       ?Insert@?$asCMap@VasCString@@V?$asCArray@I@@@@QAEHPAU?$asSMapNode@VasCString@@V?$asCArray@I@@@@@Z 10002850 f i as_builder.obj
 0001:000018c0       ?Remove@?$asCMap@VasCString@@V?$asCArray@I@@@@QAEPAU?$asSMapNode@VasCString@@V?$asCArray@I@@@@PAU2@@Z 100028c0 f i as_builder.obj
 0001:00001970       ?EraseAll@?$asCMap@VasCString@@V?$asCArray@I@@@@IAEHPAU?$asSMapNode@VasCString@@V?$asCArray@I@@@@@Z 10002970 f i as_builder.obj
 0001:000019c0       ?BuildKey@?$asCSymbolTable@VasCScriptFunction@@@@ABEXPBUasSNameSpace@@ABVasCString@@AAV3@@Z 100029c0 f i as_builder.obj
 0001:000019c0       ?BuildKey@?$asCSymbolTable@VasCGlobalProperty@@@@ABEXPBUasSNameSpace@@ABVasCString@@AAV3@@Z 100029c0 f i as_builder.obj
 0001:000019c0       ?BuildKey@?$asCSymbolTable@UsGlobalVariableDescription@@@@ABEXPBUasSNameSpace@@ABVasCString@@AAV3@@Z 100029c0 f i as_builder.obj
 0001:00001a40       ?RotateLeft@?$asCMap@VasCString@@V?$asCArray@I@@@@IAEHPAU?$asSMapNode@VasCString@@V?$asCArray@I@@@@@Z 10002a40 f i as_builder.obj
 0001:00001a40       ?RotateLeft@?$asCMap@PAXPAVasCGlobalProperty@@@@IAEHPAU?$asSMapNode@PAXPAVasCGlobalProperty@@@@@Z 10002a40 f i as_module.obj
 0001:00001a40       ?RotateLeft@?$asCMap@PAX_N@@IAEHPAU?$asSMapNode@PAX_N@@@Z 10002a40 f i as_restore.obj
 0001:00001a40       ?RotateLeft@?$asCMap@PAXUasSIntTypePair@asCGarbageCollector@@@@IAEHPAU?$asSMapNode@PAXUasSIntTypePair@asCGarbageCollector@@@@@Z 10002a40 f i as_gc.obj
 0001:00001a40       ?RotateLeft@?$asCMap@VasCStringPointer@@H@@IAEHPAU?$asSMapNode@VasCStringPointer@@H@@@Z 10002a40 f i as_restore.obj
 0001:00001a40       ?RotateLeft@?$asCMap@PAVasCScriptFunction@@_N@@IAEHPAU?$asSMapNode@PAVasCScriptFunction@@_N@@@Z 10002a40 f i as_restore.obj
 0001:00001a40       ?RotateLeft@?$asCMap@HPAVasCDataType@@@@IAEHPAU?$asSMapNode@HPAVasCDataType@@@@@Z 10002a40 f i as_scriptengine.obj
 0001:00001a40       ?RotateLeft@?$asCMap@HH@@IAEHPAU?$asSMapNode@HH@@@Z 10002a40 f i as_restore.obj
 0001:00001a90       ?RotateRight@?$asCMap@VasCStringPointer@@H@@IAEHPAU?$asSMapNode@VasCStringPointer@@H@@@Z 10002a90 f i as_restore.obj
 0001:00001a90       ?RotateRight@?$asCMap@PAXPAVasCGlobalProperty@@@@IAEHPAU?$asSMapNode@PAXPAVasCGlobalProperty@@@@@Z 10002a90 f i as_module.obj
 0001:00001a90       ?RotateRight@?$asCMap@VasCString@@V?$asCArray@I@@@@IAEHPAU?$asSMapNode@VasCString@@V?$asCArray@I@@@@@Z 10002a90 f i as_builder.obj
 0001:00001a90       ?RotateRight@?$asCMap@HH@@IAEHPAU?$asSMapNode@HH@@@Z 10002a90 f i as_restore.obj
 0001:00001a90       ?RotateRight@?$asCMap@PAVasCScriptFunction@@_N@@IAEHPAU?$asSMapNode@PAVasCScriptFunction@@_N@@@Z 10002a90 f i as_restore.obj
 0001:00001a90       ?RotateRight@?$asCMap@PAX_N@@IAEHPAU?$asSMapNode@PAX_N@@@Z 10002a90 f i as_restore.obj
 0001:00001a90       ?RotateRight@?$asCMap@PAXUasSIntTypePair@asCGarbageCollector@@@@IAEHPAU?$asSMapNode@PAXUasSIntTypePair@asCGarbageCollector@@@@@Z 10002a90 f i as_gc.obj
 0001:00001a90       ?RotateRight@?$asCMap@HPAVasCDataType@@@@IAEHPAU?$asSMapNode@HPAVasCDataType@@@@@Z 10002a90 f i as_scriptengine.obj
 0001:00001ae0       ?Exists@?$asCArray@PAVasCScriptFunction@@@@QBE_NABQAVasCScriptFunction@@@Z 10002ae0 f i as_scriptengine.obj
 0001:00001ae0       ?Exists@?$asCArray@H@@QBE_NABH@Z 10002ae0 f i as_bytecode.obj
 0001:00001ae0       ?Exists@?$asCArray@PAVasCObjectType@@@@QBE_NABQAVasCObjectType@@@Z 10002ae0 f i as_scriptengine.obj
 0001:00001ae0       ?Exists@?$asCArray@PAX@@QBE_NABQAX@Z 10002ae0 f i as_scriptfunction.obj
 0001:00001ae0       ?Exists@?$asCArray@PAVasCByteInstruction@@@@QBE_NABQAVasCByteInstruction@@@Z 10002ae0 f i as_bytecode.obj
 0001:00001af0       ?PushLast@?$asCArray@UasSObjectVariableInfo@@@@QAEXABUasSObjectVariableInfo@@@Z 10002af0 f i as_bytecode.obj
 0001:00001b40       ?PopLast@?$asCArray@UasSObjectVariableInfo@@@@QAE?AUasSObjectVariableInfo@@XZ 10002b40 f i as_bytecode.obj
 0001:00001b40       ?PopLast@?$asCArray@UasSObjTypePair@asCGarbageCollector@@@@QAE?AUasSObjTypePair@asCGarbageCollector@@XZ 10002b40 f i as_gc.obj
 0001:00001b60       ??1?$asCArray@F@@QAE@XZ    10002b60 f i as_bytecode.obj
 0001:00001b70       ?PushLast@?$asCArray@F@@QAEXABF@Z 10002b70 f i as_bytecode.obj
 0001:00001bb0       ?Exists@?$asCArray@F@@QBE_NABF@Z 10002bb0 f i as_bytecode.obj
 0001:00001bc0       ?Allocate@?$asCArray@F@@QAEXI_N@Z 10002bc0 f i as_bytecode.obj
 0001:00001cc0       ?IndexOf@?$asCArray@F@@QBEHABF@Z 10002cc0 f i as_bytecode.obj
 0001:00001cf0       ??0asSDeferredParam@@QAE@XZ 10002cf0 f i as_compiler.obj
 0001:00001d10       ??0asSExprContext@@QAE@PAVasCScriptEngine@@@Z 10002d10 f i as_compiler.obj
 0001:00001d60       ??1asSExprContext@@QAE@XZ  10002d60 f i as_compiler.obj
 0001:00001de0       ?Clear@asSExprContext@@QAEXXZ 10002de0 f i as_compiler.obj
 0001:00001e50       ?IsClassMethod@asSExprContext@@QAE_NXZ 10002e50 f i as_compiler.obj
 0001:00001e90       ??4asCTypeInfo@@QAEAAU0@ABU0@@Z 10002e90 f i as_compiler.obj
 0001:00001f50       ??0asCTypeInfo@@QAE@ABU0@@Z 10002f50 f i as_compiler.obj
 0001:00002010       ?SetLength@?$asCArray@I@@QAE_NI@Z 10003010 f i as_context.obj
 0001:00002010       ?SetLength@?$asCArray@W4asETypeModifiers@@@@QAE_NI@Z 10003010 f i as_scriptengine.obj
 0001:00002010       ?SetLength@?$asCArray@PAVasCScriptFunction@@@@QAE_NI@Z 10003010 f i as_configgroup.obj
 0001:00002010       ?SetLength@?$asCArray@PAVasCString@@@@QAE_NI@Z 10003010 f i as_restore.obj
 0001:00002010       ?SetLength@?$asCArray@PAUasSExprContext@@@@QAE_NI@Z 10003010 f i as_compiler.obj
 0001:00002010       ?SetLength@?$asCArray@H@@QAE_NI@Z 10003010 f i as_bytecode.obj
 0001:00002010       ?SetLength@?$asCArray@K@@QAE_NI@Z 10003010 f i as_compiler.obj
 0001:00002030       ?Concatenate@?$asCArray@PAVasCObjectType@@@@QAEXABV1@@Z 10003030 f i as_scriptengine.obj
 0001:00002030       ?Concatenate@?$asCArray@H@@QAEXABV1@@Z 10003030 f i as_compiler.obj
 0001:00002080       ??A?$asCArray@UsPropertyInitializer@@@@QAEAAUsPropertyInitializer@@I@Z 10003080 f i as_compiler.obj
 0001:00002090       ??1?$asCArray@UasSDeferredParam@@@@QAE@XZ 10003090 f i as_compiler.obj
 0001:000020a0       ?PushLast@?$asCArray@UasSDeferredParam@@@@QAEXABUasSDeferredParam@@@Z 100030a0 f i as_compiler.obj
 0001:00002100       ?SetLength@?$asCArray@PAVasCObjectType@@@@QAE_NI@Z 10003100 f i as_configgroup.obj
 0001:00002100       ?SetLength@?$asCArray@PAK@@QAE_NI@Z 10003100 f i as_context.obj
 0001:00002100       ?SetLength@?$asCArray@PAX@@QAE_NI@Z 10003100 f i as_gc.obj
 0001:00002100       ?SetLength@?$asCArray@PAVasCObjectProperty@@@@QAE_NI@Z 10003100 f i as_objecttype.obj
 0001:00002100       ?SetLength@?$asCArray@PAUasSNameSpace@@@@QAE_NI@Z 10003100 f i as_scriptengine.obj
 0001:00002100       ?SetLength@?$asCArray@PAUsBindInfo@@@@QAE_NI@Z 10003100 f i as_module.obj
 0001:00002100       ?SetLength@?$asCArray@PAVasCConfigGroup@@@@QAE_NI@Z 10003100 f i as_configgroup.obj
 0001:00002100       ?SetLength@?$asCArray@PAUasSScriptVariable@@@@QAE_NI@Z 10003100 f i as_scriptfunction.obj
 0001:00002100       ?SetLength@?$asCArray@PAUmessage_t@asCOutputBuffer@@@@QAE_NI@Z 10003100 f i as_outputbuffer.obj
 0001:00002100       ?SetLength@?$asCArray@UasSOverloadCandidate@@@@QAE_NI@Z 10003100 f i as_compiler.obj
 0001:00002100       ?SetLength@?$asCArray@PAUsClassDeclaration@@@@QAE_NI@Z 10003100 f i as_builder.obj
 0001:00002100       ?SetLength@?$asCArray@PAVasCModule@@@@QAE_NI@Z 10003100 f i as_scriptengine.obj
 0001:00002100       ?SetLength@?$asCArray@PAVasCGlobalProperty@@@@QAE_NI@Z 10003100 f i as_configgroup.obj
 0001:00002100       ?SetLength@?$asCArray@PAU?$asSMapNode@PAXUasSIntTypePair@asCGarbageCollector@@@@@@QAE_NI@Z 10003100 f i as_gc.obj
 0001:00002100       ?SetLength@?$asCArray@PAUasSEnumValue@@@@QAE_NI@Z 10003100 f i as_objecttype.obj
 0001:00002100       ?SetLength@?$asCArray@PAUsVariable@@@@QAE_NI@Z 10003100 f i as_variablescope.obj
 0001:00002100       ?SetLength@?$asCArray@PAUsGlobalVariableDescription@@@@QAE_NI@Z 10003100 f i as_builder.obj
 0001:00002100       ?SetLength@?$asCArray@UasSDeferredParam@@@@QAE_NI@Z 10003100 f i as_compiler.obj
 0001:00002110       ??A?$asCArray@UasSDeferredParam@@@@QAEAAUasSDeferredParam@@I@Z 10003110 f i as_compiler.obj
 0001:00002120       ??0?$asCArray@VasCDataType@@@@QAE@XZ 10003120 f i as_builder.obj
 0001:00002120       ??0?$asCArray@UsPropertyInitializer@@@@QAE@XZ 10003120 f i as_builder.obj
 0001:00002120       ??0?$asCArray@H@@QAE@XZ    10003120 f i as_builder.obj
 0001:00002120       ??0?$asCArray@PAUsClassDeclaration@@@@QAE@XZ 10003120 f i as_builder.obj
 0001:00002120       ??0?$asCArray@PAVasCGlobalProperty@@@@QAE@XZ 10003120 f i as_configgroup.obj
 0001:00002120       ??0?$asCArray@I@@QAE@XZ    10003120 f i as_builder.obj
 0001:00002120       ??0?$asCArray@UasSObjTypePair@asCGarbageCollector@@@@QAE@XZ 10003120 f i as_gc.obj
 0001:00002120       ??0?$asCArray@PAUasSEnumValue@@@@QAE@XZ 10003120 f i as_objecttype.obj
 0001:00002120       ??0?$asCArray@PAUSListAdjuster@asCWriter@@@@QAE@XZ 10003120 f i as_restore.obj
 0001:00002120       ??0?$asCArray@PAUsFunctionDescription@@@@QAE@XZ 10003120 f i as_builder.obj
 0001:00002120       ??0?$asCArray@PAUsMixinClass@@@@QAE@XZ 10003120 f i as_builder.obj
 0001:00002120       ??0?$asCArray@PAVasCModule@@@@QAE@XZ 10003120 f i as_scriptengine.obj
 0001:00002120       ??0?$asCArray@PAX@@QAE@XZ  10003120 f i as_gc.obj
 0001:00002120       ??0?$asCArray@UasSDeferredParam@@@@QAE@XZ 10003120 f i as_compiler.obj
 0001:00002120       ??0?$asCArray@VasCString@@@@QAE@XZ 10003120 f i as_builder.obj
 0001:00002120       ??0?$asCArray@PAVasCScriptCode@@@@QAE@XZ 10003120 f i as_builder.obj
 0001:00002120       ??0?$asCArray@USObjProp@asCReader@@@@QAE@XZ 10003120 f i as_restore.obj
 0001:00002120       ??0?$asCArray@PAVasCByteInstruction@@@@QAE@XZ 10003120 f i as_bytecode.obj
 0001:00002120       ??0?$asCArray@PAUsFuncDef@@@@QAE@XZ 10003120 f i as_builder.obj
 0001:00002120       ??0?$asCArray@K@@QAE@XZ    10003120 f i as_scriptfunction.obj
 0001:00002120       ??0?$asCArray@PAU?$asSMapNode@PAXUasSIntTypePair@asCGarbageCollector@@@@@@QAE@XZ 10003120 f i as_gc.obj
 0001:00002120       ??0?$asCArray@PAUsVariable@@@@QAE@XZ 10003120 f i as_variablescope.obj
 0001:00002120       ??0?$asCArray@USObjProp@asCWriter@@@@QAE@XZ 10003120 f i as_restore.obj
 0001:00002120       ??0?$asCArray@F@@QAE@XZ    10003120 f i as_bytecode.obj
 0001:00002120       ??0?$asCArray@PAUasSNameSpace@@@@QAE@XZ 10003120 f i as_scriptengine.obj
 0001:00002120       ??0?$asCArray@PAVasCObjectProperty@@@@QAE@XZ 10003120 f i as_objecttype.obj
 0001:00002120       ??0?$asCArray@PAUasSScriptVariable@@@@QAE@XZ 10003120 f i as_scriptfunction.obj
 0001:00002120       ??0?$asCArray@PAVasCScriptFunction@@@@QAE@XZ 10003120 f i as_configgroup.obj
 0001:00002120       ??0?$asCArray@UasSObjectVariableInfo@@@@QAE@XZ 10003120 f i as_scriptfunction.obj
 0001:00002120       ??0?$asCArray@W4asETypeModifiers@@@@QAE@XZ 10003120 f i as_builder.obj
 0001:00002120       ??0?$asCArray@PAUasSExprContext@@@@QAE@XZ 10003120 f i as_compiler.obj
 0001:00002120       ??0?$asCArray@USEngineClean@asCScriptEngine@@@@QAE@XZ 10003120 f i as_scriptengine.obj
 0001:00002120       ??0?$asCArray@USInfo@SListAdjuster@asCReader@@@@QAE@XZ 10003120 f i as_restore.obj
 0001:00002120       ??0?$asCArray@USInfo@SListAdjuster@asCWriter@@@@QAE@XZ 10003120 f i as_restore.obj
 0001:00002120       ??0?$asCArray@PAUsBindInfo@@@@QAE@XZ 10003120 f i as_module.obj
 0001:00002120       ??0?$asCArray@PAVasCObjectType@@@@QAE@XZ 10003120 f i as_configgroup.obj
 0001:00002120       ??0?$asCArray@USObjTypeClean@asCScriptEngine@@@@QAE@XZ 10003120 f i as_scriptengine.obj
 0001:00002120       ??0?$asCArray@UasSOverloadCandidate@@@@QAE@XZ 10003120 f i as_compiler.obj
 0001:00002120       ??0?$asCArray@PAUSListAdjuster@asCReader@@@@QAE@XZ 10003120 f i as_restore.obj
 0001:00002120       ??0?$asCArray@_N@@QAE@XZ   10003120 f i as_builder.obj
 0001:00002120       ??0?$asCArray@PAK@@QAE@XZ  10003120 f i as_context.obj
 0001:00002120       ??0?$asCArray@PAVasIScriptContext@@@@QAE@XZ 10003120 f i as_thread.obj
 0001:00002120       ??0?$asCArray@PAVasCString@@@@QAE@XZ 10003120 f i as_builder.obj
 0001:00002120       ??0?$asCArray@PAVasCConfigGroup@@@@QAE@XZ 10003120 f i as_configgroup.obj
 0001:00002120       ??0?$asCArray@UasCTypeInfo@@@@QAE@XZ 10003120 f i as_compiler.obj
 0001:00002120       ??0?$asCArray@PAUmessage_t@asCOutputBuffer@@@@QAE@XZ 10003120 f i as_builder.obj
 0001:00002130       ??1?$asCArray@UasSOverloadCandidate@@@@QAE@XZ 10003130 f i as_compiler.obj
 0001:00002140       ?PushLast@?$asCArray@UasSOverloadCandidate@@@@QAEXABUasSOverloadCandidate@@@Z 10003140 f i as_compiler.obj
 0001:00002180       ?SetLengthNoConstruct@?$asCArray@UasSOverloadCandidate@@@@QAE_NI@Z 10003180 f i as_compiler.obj
 0001:000021b0       ?PushLast@?$asCArray@D@@QAEXABD@Z 100031b0 f i as_compiler.obj
 0001:000021b0       ?PushLast@?$asCArray@_N@@QAEXAB_N@Z 100031b0 f i as_builder.obj
 0001:000021f0       ?AddressOf@?$asCArray@I@@QAEPAIXZ 100031f0 f i as_context.obj
 0001:000021f0       ?AddressOf@?$asCArray@K@@QAEPAKXZ 100031f0 f i as_compiler.obj
 0001:000021f0       ?AddressOf@?$asCArray@D@@QAEPADXZ 100031f0 f i as_compiler.obj
 0001:000021f0       ?AddressOf@?$asCArray@PAVasCString@@@@QAEPAPAVasCString@@XZ 100031f0 f i as_restore.obj
 0001:000021f0       ?AddressOf@?$asCArray@H@@QAEPAHXZ 100031f0 f i as_context.obj
 0001:000021f0       ?AddressOf@?$asCArray@PAVasCScriptFunction@@@@QAEPAPAVasCScriptFunction@@XZ 100031f0 f i as_restore.obj
 0001:000021f0       ?AddressOf@?$asCArray@I@@QBEPBIXZ 100031f0 f i as_context.obj
 0001:00002200       ?Concatenate@?$asCArray@D@@QAEXPADI@Z 10003200 f i as_compiler.obj
 0001:00002230       ??1?$asCArray@UasCTypeInfo@@@@QAE@XZ 10003230 f i as_compiler.obj
 0001:00002240       ?Allocate@?$asCArray@UasSDeferredParam@@@@QAEXI_N@Z 10003240 f i as_compiler.obj
 0001:000023b0       ?Allocate@?$asCArray@UasSOverloadCandidate@@@@QAEXI_N@Z 100033b0 f i as_compiler.obj
 0001:000024b0       ?AllocateNoConstruct@?$asCArray@UasSOverloadCandidate@@@@QAEXI_N@Z 100034b0 f i as_compiler.obj
 0001:00002530       ?Allocate@?$asCArray@UasCTypeInfo@@@@QAEXI_N@Z 10003530 f i as_compiler.obj
 0001:00002560       ?GetIndex@?$asCSymbolTable@VasCScriptFunction@@@@QBEHPBVasCScriptFunction@@@Z 10003560 f i as_builder.obj
 0001:00002560       ?GetIndex@?$asCSymbolTable@VasCGlobalProperty@@@@QBEHPBVasCGlobalProperty@@@Z 10003560 f i as_configgroup.obj
 0001:000025b0       ?Erase@?$asCSymbolTable@VasCGlobalProperty@@@@QAE_NI@Z 100035b0 f i as_configgroup.obj
 0001:000026b0       ??1asIScriptContext@@MAE@XZ 100036b0 f i as_context.obj
 0001:000026c0       ??_EasIScriptContext@@MAEPAXI@Z 100036c0 f i  CIL library: CIL module
 0001:000026c0       ??_GasIScriptContext@@MAEPAXI@Z 100036c0 f i as_context.obj
 0001:000026e0       ??_EasCContext@@UAEPAXI@Z  100036e0 f i  CIL library: CIL module
 0001:000026e0       ??_GasCContext@@UAEPAXI@Z  100036e0 f i as_context.obj
 0001:00002700       ?AllocateNoConstruct@?$asCArray@I@@QAEXI_N@Z 10003700 f i as_context.obj
 0001:00002780       ?SetLengthNoConstruct@?$asCArray@I@@QAE_NI@Z 10003780 f i as_context.obj
 0001:000027b0       ?PushLast@?$asCArray@PAK@@QAEXABQAK@Z 100037b0 f i as_context.obj
 0001:000027b0       ?PushLast@?$asCArray@PAUsVariable@@@@QAEXABQAUsVariable@@@Z 100037b0 f i as_variablescope.obj
 0001:000027b0       ?PushLast@?$asCArray@PAUasSNameSpace@@@@QAEXABQAUasSNameSpace@@@Z 100037b0 f i as_scriptengine.obj
 0001:000027f0       ?GetLength@?$asCArray@_N@@QBEIXZ 100037f0 f i as_builder.obj
 0001:000027f0       ?GetLength@?$asCArray@PAVasCObjectType@@@@QBEIXZ 100037f0 f i as_builder.obj
 0001:000027f0       ?GetLength@?$asCArray@VasCString@@@@QBEIXZ 100037f0 f i as_compiler.obj
 0001:000027f0       ?GetLength@?$asCArray@PAUasSEnumValue@@@@QBEIXZ 100037f0 f i as_builder.obj
 0001:000027f0       ?GetLength@?$asCArray@UsPropertyInitializer@@@@QBEIXZ 100037f0 f i as_compiler.obj
 0001:000027f0       ?GetLength@?$asCArray@K@@QBEIXZ 100037f0 f i as_builder.obj
 0001:000027f0       ?GetLength@?$asCArray@PAUSListAdjuster@asCWriter@@@@QBEIXZ 100037f0 f i as_restore.obj
 0001:000027f0       ?GetLength@?$asCArray@PAVasCScriptNode@@@@QBEIXZ 100037f0 f i as_compiler.obj
 0001:000027f0       ?GetLength@?$asCArray@PAUasSExprContext@@@@QBEIXZ 100037f0 f i as_compiler.obj
 0001:000027f0       ?GetLength@?$asCArray@PAVasCScriptFunction@@@@QBEIXZ 100037f0 f i as_builder.obj
 0001:000027f0       ?GetLength@?$asCArray@PAUsFuncDef@@@@QBEIXZ 100037f0 f i as_builder.obj
 0001:000027f0       ?GetLength@?$asCArray@UasSOverloadCandidate@@@@QBEIXZ 100037f0 f i as_compiler.obj
 0001:000027f0       ?GetLength@?$asCArray@PAU?$asSMapNode@PAXUasSIntTypePair@asCGarbageCollector@@@@@@QBEIXZ 100037f0 f i as_gc.obj
 0001:000027f0       ?GetLength@?$asCArray@D@@QBEIXZ 100037f0 f i as_compiler.obj
 0001:000027f0       ?GetLength@?$asCArray@UasSObjTypePair@asCGarbageCollector@@@@QBEIXZ 100037f0 f i as_gc.obj
 0001:000027f0       ?GetLength@?$asCArray@PAUSListAdjuster@asCReader@@@@QBEIXZ 100037f0 f i as_restore.obj
 0001:000027f0       ?GetLength@?$asCArray@VasCDataType@@@@QBEIXZ 100037f0 f i as_builder.obj
 0001:000027f0       ?GetLength@?$asCArray@UasSDeferredParam@@@@QBEIXZ 100037f0 f i as_compiler.obj
 0001:000027f0       ?GetLength@?$asCArray@PAK@@QBEIXZ 100037f0 f i as_context.obj
 0001:000027f0       ?GetLength@?$asCArray@PAUasSNameSpace@@@@QBEIXZ 100037f0 f i as_scriptengine.obj
 0001:000027f0       ?GetLength@?$asCArray@PAUsGlobalVariableDescription@@@@QBEIXZ 100037f0 f i as_builder.obj
 0001:000027f0       ?GetLength@?$asCArray@PAVasCObjectProperty@@@@QBEIXZ 100037f0 f i as_builder.obj
 0001:000027f0       ?GetLength@?$asCArray@UasSObjectVariableInfo@@@@QBEIXZ 100037f0 f i as_bytecode.obj
 0001:000027f0       ?GetLength@?$asCArray@PAUsFunctionDescription@@@@QBEIXZ 100037f0 f i as_builder.obj
 0001:000027f0       ?GetLength@?$asCArray@PAUsMixinClass@@@@QBEIXZ 100037f0 f i as_builder.obj
 0001:000027f0       ?GetLength@?$asCArray@USObjProp@asCReader@@@@QBEIXZ 100037f0 f i as_restore.obj
 0001:000027f0       ?GetLength@?$asCArray@I@@QBEIXZ 100037f0 f i as_builder.obj
 0001:000027f0       ?GetLength@?$asCArray@PAVasCString@@@@QBEIXZ 100037f0 f i as_builder.obj
 0001:000027f0       ?GetLength@?$asCArray@PAVasCGlobalProperty@@@@QBEIXZ 100037f0 f i as_builder.obj
 0001:000027f0       ?GetLength@?$asCArray@PAVasIScriptContext@@@@QBEIXZ 100037f0 f i as_context.obj
 0001:000027f0       ?GetLength@?$asCArray@W4asETypeModifiers@@@@QBEIXZ 100037f0 f i as_restore.obj
 0001:000027f0       ?GetLength@?$asCArray@PAVasCScriptCode@@@@QBEIXZ 100037f0 f i as_builder.obj
 0001:000027f0       ?GetLength@?$asCArray@H@@QBEIXZ 100037f0 f i as_builder.obj
 0001:000027f0       ?GetLength@?$asCArray@PAX@@QBEIXZ 100037f0 f i as_gc.obj
 0001:000027f0       ?GetLength@?$asCArray@PAVasCModule@@@@QBEIXZ 100037f0 f i as_scriptengine.obj
 0001:000027f0       ?GetLength@?$asCArray@USEngineClean@asCScriptEngine@@@@QBEIXZ 100037f0 f i as_scriptengine.obj
 0001:000027f0       ?GetLength@?$asCArray@USObjProp@asCWriter@@@@QBEIXZ 100037f0 f i as_restore.obj
 0001:000027f0       ?GetLength@?$asCArray@PAUasSScriptVariable@@@@QBEIXZ 100037f0 f i as_compiler.obj
 0001:000027f0       ?GetLength@?$asCArray@PAVasCParser@@@@QBEIXZ 100037f0 f i as_builder.obj
 0001:000027f0       ?GetLength@?$asCArray@PAUsClassDeclaration@@@@QBEIXZ 100037f0 f i as_builder.obj
 0001:000027f0       ?GetLength@?$asCArray@PAUsVariable@@@@QBEIXZ 100037f0 f i as_compiler.obj
 0001:000027f0       ?GetLength@?$asCArray@USObjTypeClean@asCScriptEngine@@@@QBEIXZ 100037f0 f i as_objecttype.obj
 0001:000027f0       ?GetLength@?$asCArray@PAVasCConfigGroup@@@@QBEIXZ 100037f0 f i as_configgroup.obj
 0001:000027f0       ?GetLength@?$asCArray@PAUmessage_t@asCOutputBuffer@@@@QBEIXZ 100037f0 f i as_outputbuffer.obj
 0001:000027f0       ?GetLength@?$asCArray@PAVasCByteInstruction@@@@QBEIXZ 100037f0 f i as_bytecode.obj
 0001:000027f0       ?GetLength@?$asCArray@PAUsBindInfo@@@@QBEIXZ 100037f0 f i as_builder.obj
 0001:00002800       ??1?$asCArray@UasSObjectVariableInfo@@@@QAE@XZ 10003800 f i as_scriptfunction.obj
 0001:00002800       ??1?$asCArray@UasSObjTypePair@asCGarbageCollector@@@@QAE@XZ 10003800 f i as_gc.obj
 0001:00002810       ?PushLast@?$asCArray@UasSObjTypePair@asCGarbageCollector@@@@QAEXABUasSObjTypePair@asCGarbageCollector@@@Z 10003810 f i as_gc.obj
 0001:00002860       ??A?$asCArray@UasSObjTypePair@asCGarbageCollector@@@@QAEAAUasSObjTypePair@asCGarbageCollector@@I@Z 10003860 f i as_gc.obj
 0001:00002860       ??A?$asCArray@UasSObjectVariableInfo@@@@QAEAAUasSObjectVariableInfo@@I@Z 10003860 f i as_bytecode.obj
 0001:00002870       ??0?$asCMap@PAXUasSIntTypePair@asCGarbageCollector@@@@QAE@XZ 10003870 f i as_gc.obj
 0001:00002890       ??1?$asCMap@PAXUasSIntTypePair@asCGarbageCollector@@@@QAE@XZ 10003890 f i as_gc.obj
 0001:000028a0       ?Insert@?$asCMap@PAXUasSIntTypePair@asCGarbageCollector@@@@QAEHPAU?$asSMapNode@PAXUasSIntTypePair@asCGarbageCollector@@@@@Z 100038a0 f i as_gc.obj
 0001:00002900       ?GetKey@?$asCMap@HPAVasCDataType@@@@QBEABHPBU?$asSMapNode@HPAVasCDataType@@@@@Z 10003900 f i as_scriptengine.obj
 0001:00002900       ?GetKey@?$asCMap@PAXUasSIntTypePair@asCGarbageCollector@@@@QBEABQAXPBU?$asSMapNode@PAXUasSIntTypePair@asCGarbageCollector@@@@@Z 10003900 f i as_gc.obj
 0001:00002920       ?Remove@?$asCMap@PAXUasSIntTypePair@asCGarbageCollector@@@@QAEPAU?$asSMapNode@PAXUasSIntTypePair@asCGarbageCollector@@@@PAU2@@Z 10003920 f i as_gc.obj
 0001:000029d0       ?MoveTo@?$asCMap@PAXUasSIntTypePair@asCGarbageCollector@@@@QBE_NPAPAU?$asSMapNode@PAXUasSIntTypePair@asCGarbageCollector@@@@ABQAX@Z 100039d0 f i as_gc.obj
 0001:000029d0       ?MoveTo@?$asCMap@PAXPAVasCGlobalProperty@@@@QBE_NPAPAU?$asSMapNode@PAXPAVasCGlobalProperty@@@@ABQAX@Z 100039d0 f i as_scriptengine.obj
 0001:00002a10       ?MoveFirst@?$asCMap@PAXUasSIntTypePair@asCGarbageCollector@@@@QBE_NPAPAU?$asSMapNode@PAXUasSIntTypePair@asCGarbageCollector@@@@@Z 10003a10 f i as_gc.obj
 0001:00002a10       ?MoveFirst@?$asCMap@HPAVasCDataType@@@@QBE_NPAPAU?$asSMapNode@HPAVasCDataType@@@@@Z 10003a10 f i as_scriptengine.obj
 0001:00002a40       ?MoveNext@?$asCMap@PAXUasSIntTypePair@asCGarbageCollector@@@@QBE_NPAPAU?$asSMapNode@PAXUasSIntTypePair@asCGarbageCollector@@@@PAU2@@Z 10003a40 f i as_gc.obj
 0001:00002a40       ?MoveNext@?$asCMap@HPAVasCDataType@@@@QBE_NPAPAU?$asSMapNode@HPAVasCDataType@@@@PAU2@@Z 10003a40 f i as_scriptengine.obj
 0001:00002a90       ?Allocate@?$asCArray@UasSObjectVariableInfo@@@@QAEXI_N@Z 10003a90 f i as_bytecode.obj
 0001:00002a90       ?Allocate@?$asCArray@UasSObjTypePair@asCGarbageCollector@@@@QAEXI_N@Z 10003a90 f i as_gc.obj
 0001:00002bb0       ?EraseAll@?$asCMap@PAXUasSIntTypePair@asCGarbageCollector@@@@QAEXXZ 10003bb0 f i as_gc.obj
 0001:00002bd0       ?EraseAll@?$asCMap@PAXUasSIntTypePair@asCGarbageCollector@@@@IAEHPAU?$asSMapNode@PAXUasSIntTypePair@asCGarbageCollector@@@@@Z 10003bd0 f i as_gc.obj
 0001:00002c10       ??_EasIScriptGeneric@@MAEPAXI@Z 10003c10 f i  CIL library: CIL module
 0001:00002c10       ??_GasIScriptGeneric@@MAEPAXI@Z 10003c10 f i as_generic.obj
 0001:00002c30       ??_EasCGeneric@@UAEPAXI@Z  10003c30 f i  CIL library: CIL module
 0001:00002c30       ??_GasCGeneric@@UAEPAXI@Z  10003c30 f i as_generic.obj
 0001:00002c50       ??1asIScriptModule@@MAE@XZ 10003c50 f i as_module.obj
 0001:00002c60       ??_EasIScriptModule@@MAEPAXI@Z 10003c60 f i  CIL library: CIL module
 0001:00002c60       ??_GasIScriptModule@@MAEPAXI@Z 10003c60 f i as_module.obj
 0001:00002c80       ??RasCCompGlobPropType@@UBE_NPBX@Z 10003c80 f i as_module.obj
 0001:00002ca0       ??_GasCModule@@UAEPAXI@Z   10003ca0 f i as_module.obj
 0001:00002ca0       ??_EasCModule@@UAEPAXI@Z   10003ca0 f i  CIL library: CIL module
 0001:00002cc0       ??1asCWriter@@QAE@XZ       10003cc0 f i as_module.obj
 0001:00002de0       ??1asCReader@@QAE@XZ       10003de0 f i as_module.obj
 0001:00002ef0       ??A?$asCArray@PAUsBindInfo@@@@QAEAAPAUsBindInfo@@I@Z 10003ef0 f i as_builder.obj
 0001:00002ef0       ??A?$asCArray@PAVasCGlobalProperty@@@@QAEAAPAVasCGlobalProperty@@I@Z 10003ef0 f i as_builder.obj
 0001:00002ef0       ??A?$asCArray@W4asETypeModifiers@@@@QAEAAW4asETypeModifiers@@I@Z 10003ef0 f i as_builder.obj
 0001:00002ef0       ??A?$asCArray@PAK@@QAEAAPAKI@Z 10003ef0 f i as_context.obj
 0001:00002ef0       ??A?$asCArray@PAUsBindInfo@@@@QBEABQAUsBindInfo@@I@Z 10003ef0 f i as_module.obj
 0001:00002ef0       ??A?$asCArray@PAUSListAdjuster@asCReader@@@@QAEAAPAUSListAdjuster@asCReader@@I@Z 10003ef0 f i as_restore.obj
 0001:00002ef0       ??A?$asCArray@PAUsGlobalVariableDescription@@@@QBEABQAUsGlobalVariableDescription@@I@Z 10003ef0 f i as_builder.obj
 0001:00002ef0       ??A?$asCArray@PAUSListAdjuster@asCWriter@@@@QAEAAPAUSListAdjuster@asCWriter@@I@Z 10003ef0 f i as_restore.obj
 0001:00002ef0       ??A?$asCArray@PAVasIScriptContext@@@@QAEAAPAVasIScriptContext@@I@Z 10003ef0 f i as_context.obj
 0001:00002ef0       ??A?$asCArray@PAVasCObjectType@@@@QAEAAPAVasCObjectType@@I@Z 10003ef0 f i as_builder.obj
 0001:00002ef0       ??A?$asCArray@H@@QBEABHI@Z 10003ef0 f i as_objecttype.obj
 0001:00002ef0       ??A?$asCArray@PAVasCString@@@@QAEAAPAVasCString@@I@Z 10003ef0 f i as_builder.obj
 0001:00002ef0       ??A?$asCArray@PAX@@QAEAAPAXI@Z 10003ef0 f i as_memory.obj
 0001:00002ef0       ??A?$asCArray@PAUsFunctionDescription@@@@QAEAAPAUsFunctionDescription@@I@Z 10003ef0 f i as_builder.obj
 0001:00002ef0       ??A?$asCArray@PAUasSEnumValue@@@@QAEAAPAUasSEnumValue@@I@Z 10003ef0 f i as_builder.obj
 0001:00002ef0       ??A?$asCArray@PAUmessage_t@asCOutputBuffer@@@@QAEAAPAUmessage_t@asCOutputBuffer@@I@Z 10003ef0 f i as_outputbuffer.obj
 0001:00002ef0       ??A?$asCArray@PAU?$asSMapNode@PAXUasSIntTypePair@asCGarbageCollector@@@@@@QAEAAPAU?$asSMapNode@PAXUasSIntTypePair@asCGarbageCollector@@@@I@Z 10003ef0 f i as_gc.obj
 0001:00002ef0       ??A?$asCArray@PAVasCGlobalProperty@@@@QBEABQAVasCGlobalProperty@@I@Z 10003ef0 f i as_configgroup.obj
 0001:00002ef0       ??A?$asCArray@PAVasCModule@@@@QBEABQAVasCModule@@I@Z 10003ef0 f i as_scriptengine.obj
 0001:00002ef0       ??A?$asCArray@PAUasSExprContext@@@@QAEAAPAUasSExprContext@@I@Z 10003ef0 f i as_compiler.obj
 0001:00002ef0       ??A?$asCArray@PAUsVariable@@@@QAEAAPAUsVariable@@I@Z 10003ef0 f i as_compiler.obj
 0001:00002ef0       ??A?$asCArray@PAUsMixinClass@@@@QAEAAPAUsMixinClass@@I@Z 10003ef0 f i as_builder.obj
 0001:00002ef0       ??A?$asCArray@I@@QAEAAII@Z 10003ef0 f i as_context.obj
 0001:00002ef0       ??A?$asCArray@PAVasCParser@@@@QAEAAPAVasCParser@@I@Z 10003ef0 f i as_builder.obj
 0001:00002ef0       ??A?$asCArray@PAVasCByteInstruction@@@@QAEAAPAVasCByteInstruction@@I@Z 10003ef0 f i as_bytecode.obj
 0001:00002ef0       ??A?$asCArray@PAVasCScriptFunction@@@@QAEAAPAVasCScriptFunction@@I@Z 10003ef0 f i as_builder.obj
 0001:00002ef0       ??A?$asCArray@PAUsFuncDef@@@@QAEAAPAUsFuncDef@@I@Z 10003ef0 f i as_builder.obj
 0001:00002ef0       ??A?$asCArray@W4asETypeModifiers@@@@QBEABW4asETypeModifiers@@I@Z 10003ef0 f i as_scriptfunction.obj
 0001:00002ef0       ??A?$asCArray@PAVasCScriptCode@@@@QAEAAPAVasCScriptCode@@I@Z 10003ef0 f i as_builder.obj
 0001:00002ef0       ??A?$asCArray@K@@QAEAAKI@Z 10003ef0 f i as_restore.obj
 0001:00002ef0       ??A?$asCArray@PAUsGlobalVariableDescription@@@@QAEAAPAUsGlobalVariableDescription@@I@Z 10003ef0 f i as_builder.obj
 0001:00002ef0       ??A?$asCArray@PAVasCConfigGroup@@@@QBEABQAVasCConfigGroup@@I@Z 10003ef0 f i as_scriptengine.obj
 0001:00002ef0       ??A?$asCArray@PAUasSNameSpace@@@@QAEAAPAUasSNameSpace@@I@Z 10003ef0 f i as_builder.obj
 0001:00002ef0       ??A?$asCArray@PAUsClassDeclaration@@@@QAEAAPAUsClassDeclaration@@I@Z 10003ef0 f i as_builder.obj
 0001:00002ef0       ??A?$asCArray@PAVasCConfigGroup@@@@QAEAAPAVasCConfigGroup@@I@Z 10003ef0 f i as_configgroup.obj
 0001:00002ef0       ??A?$asCArray@PAVasCModule@@@@QAEAAPAVasCModule@@I@Z 10003ef0 f i as_scriptengine.obj
 0001:00002ef0       ??A?$asCArray@I@@QBEABII@Z 10003ef0 f i as_builder.obj
 0001:00002ef0       ??A?$asCArray@PAVasCScriptNode@@@@QAEAAPAVasCScriptNode@@I@Z 10003ef0 f i as_compiler.obj
 0001:00002ef0       ??A?$asCArray@PAVasCString@@@@QBEABQAVasCString@@I@Z 10003ef0 f i as_module.obj
 0001:00002ef0       ??A?$asCArray@PAVasCObjectProperty@@@@QBEABQAVasCObjectProperty@@I@Z 10003ef0 f i as_objecttype.obj
 0001:00002ef0       ??A?$asCArray@PAVasCObjectType@@@@QBEABQAVasCObjectType@@I@Z 10003ef0 f i as_module.obj
 0001:00002ef0       ??A?$asCArray@H@@QAEAAHI@Z 10003ef0 f i as_builder.obj
 0001:00002ef0       ??A?$asCArray@PAUasSScriptVariable@@@@QAEAAPAUasSScriptVariable@@I@Z 10003ef0 f i as_bytecode.obj
 0001:00002ef0       ??A?$asCArray@PAVasCScriptFunction@@@@QBEABQAVasCScriptFunction@@I@Z 10003ef0 f i as_builder.obj
 0001:00002ef0       ??A?$asCArray@PAVasCObjectProperty@@@@QAEAAPAVasCObjectProperty@@I@Z 10003ef0 f i as_builder.obj
 0001:00002f00       ??0?$asCSymbolTable@VasCScriptFunction@@@@QAE@I@Z 10003f00 f i as_module.obj
 0001:00002f00       ??0?$asCSymbolTable@UsGlobalVariableDescription@@@@QAE@I@Z 10003f00 f i as_builder.obj
 0001:00002f00       ??0?$asCSymbolTable@VasCGlobalProperty@@@@QAE@I@Z 10003f00 f i as_builder.obj
 0001:00002f50       ?Get@?$asCSymbolTable@VasCGlobalProperty@@@@QBEPBVasCGlobalProperty@@I@Z 10003f50 f i as_module.obj
 0001:00002f50       ?Get@?$asCSymbolTable@VasCScriptFunction@@@@QBEPBVasCScriptFunction@@I@Z 10003f50 f i as_module.obj
 0001:00002f60       ?Clear@?$asCSymbolTable@VasCScriptFunction@@@@QAEXXZ 10003f60 f i as_module.obj
 0001:00002f80       ?List@?$asCSymbolTable@UsGlobalVariableDescription@@@@QAE?AV?$asCSymbolTableIterator@UsGlobalVariableDescription@@U1@@@XZ 10003f80 f i as_builder.obj
 0001:00002f80       ?List@?$asCSymbolTable@VasCScriptFunction@@@@QAE?AV?$asCSymbolTableIterator@VasCScriptFunction@@V1@@@XZ 10003f80 f i as_module.obj
 0001:00002f80       ?List@?$asCSymbolTable@VasCGlobalProperty@@@@QAE?AV?$asCSymbolTableIterator@VasCGlobalProperty@@V1@@@XZ 10003f80 f i as_module.obj
 0001:00002f90       ?GetFirstIndex@?$asCSymbolTable@UsGlobalVariableDescription@@@@QBEHPBUasSNameSpace@@ABVasCString@@ABUasIFilter@@@Z 10003f90 f i as_builder.obj
 0001:00002f90       ?GetFirstIndex@?$asCSymbolTable@VasCGlobalProperty@@@@QBEHPBUasSNameSpace@@ABVasCString@@ABUasIFilter@@@Z 10003f90 f i as_module.obj
 0001:00003090       ?GetLast@?$asCSymbolTable@VasCGlobalProperty@@@@QAEPAVasCGlobalProperty@@XZ 10004090 f i as_module.obj
 0001:000030b0       ?Clear@?$asCSymbolTable@VasCGlobalProperty@@@@QAEXXZ 100040b0 f i as_module.obj
 0001:000030b0       ?Clear@?$asCSymbolTable@UsGlobalVariableDescription@@@@QAEXXZ 100040b0 f i as_builder.obj
 0001:000030d0       ?Insert@?$asCMap@PAXPAVasCGlobalProperty@@@@QAEHABQAXABQAVasCGlobalProperty@@@Z 100040d0 f i as_module.obj
 0001:00003120       ?RemoveValue@?$asCArray@PAVasCObjectType@@@@QAEXABQAVasCObjectType@@@Z 10004120 f i as_configgroup.obj
 0001:00003120       ?RemoveValue@?$asCArray@PAVasCScriptFunction@@@@QAEXABQAVasCScriptFunction@@@Z 10004120 f i as_builder.obj
 0001:00003120       ?RemoveValue@?$asCArray@I@@QAEXABI@Z 10004120 f i as_builder.obj
 0001:00003120       ?RemoveValue@?$asCArray@PAVasCModule@@@@QAEXABQAVasCModule@@@Z 10004120 f i as_module.obj
 0001:00003150       ??1?$asCMap@VasCStringPointer@@H@@QAE@XZ 10004150 f i as_module.obj
 0001:00003160       ??1?$asCMap@PAVasCScriptFunction@@_N@@QAE@XZ 10004160 f i as_module.obj
 0001:00003160       ??1?$asCMap@HPAVasCDataType@@@@QAE@XZ 10004160 f i as_scriptengine.obj
 0001:00003160       ??1?$asCMap@PAX_N@@QAE@XZ  10004160 f i as_module.obj
 0001:00003160       ??1?$asCMap@PAXPAVasCGlobalProperty@@@@QAE@XZ 10004160 f i as_scriptengine.obj
 0001:00003160       ??1?$asCMap@HH@@QAE@XZ     10004160 f i as_module.obj
 0001:00003170       ??C?$asCSymbolTableIterator@VasCGlobalProperty@@V1@@@QBEPAVasCGlobalProperty@@XZ 10004170 f i as_restore.obj
 0001:00003170       ??D?$asCSymbolTableIterator@VasCScriptFunction@@V1@@@QBEPAVasCScriptFunction@@XZ 10004170 f i as_module.obj
 0001:00003170       ??D?$asCSymbolTableIterator@UsGlobalVariableDescription@@U1@@@QBEPAUsGlobalVariableDescription@@XZ 10004170 f i as_builder.obj
 0001:00003170       ??D?$asCSymbolTableIterator@VasCGlobalProperty@@V1@@@QBEPAVasCGlobalProperty@@XZ 10004170 f i as_module.obj
 0001:00003180       ??E?$asCSymbolTableIterator@UsGlobalVariableDescription@@U1@@@QAEAAV0@H@Z 10004180 f i as_builder.obj
 0001:00003180       ??E?$asCSymbolTableIterator@VasCGlobalProperty@@V1@@@QAEAAV0@H@Z 10004180 f i as_module.obj
 0001:00003180       ??E?$asCSymbolTableIterator@VasCScriptFunction@@V1@@@QAEAAV0@H@Z 10004180 f i as_module.obj
 0001:00003190       ??0?$asCArray@PAUsGlobalVariableDescription@@@@QAE@I@Z 10004190 f i as_builder.obj
 0001:00003190       ??0?$asCArray@PAVasCGlobalProperty@@@@QAE@I@Z 10004190 f i as_builder.obj
 0001:00003190       ??0?$asCArray@PAVasCScriptFunction@@@@QAE@I@Z 10004190 f i as_module.obj
 0001:000031b0       ??0?$asCSymbolTableIterator@VasCScriptFunction@@V1@@@AAE@PAV?$asCSymbolTable@VasCScriptFunction@@@@@Z 100041b0 f i as_module.obj
 0001:000031b0       ??0?$asCSymbolTableIterator@VasCGlobalProperty@@V1@@@AAE@PAV?$asCSymbolTable@VasCGlobalProperty@@@@@Z 100041b0 f i as_module.obj
 0001:000031b0       ??0?$asCSymbolTableIterator@UsGlobalVariableDescription@@U1@@@AAE@PAV?$asCSymbolTable@UsGlobalVariableDescription@@@@@Z 100041b0 f i as_builder.obj
 0001:000031f0       ?GetLastIndex@?$asCSymbolTable@VasCGlobalProperty@@@@QBEHXZ 100041f0 f i as_module.obj
 0001:00003200       ?Next@?$asCSymbolTableIterator@VasCGlobalProperty@@V1@@@AAEXXZ 10004200 f i as_module.obj
 0001:00003200       ?Next@?$asCSymbolTableIterator@UsGlobalVariableDescription@@U1@@@AAEXXZ 10004200 f i as_builder.obj
 0001:00003200       ?Next@?$asCSymbolTableIterator@VasCScriptFunction@@V1@@@AAEXXZ 10004200 f i as_module.obj
 0001:00003240       ?Insert@?$asCMap@PAX_N@@QAEHPAU?$asSMapNode@PAX_N@@@Z 10004240 f i as_restore.obj
 0001:00003240       ?Insert@?$asCMap@PAVasCScriptFunction@@_N@@QAEHPAU?$asSMapNode@PAVasCScriptFunction@@_N@@@Z 10004240 f i as_restore.obj
 0001:00003240       ?Insert@?$asCMap@PAXPAVasCGlobalProperty@@@@QAEHPAU?$asSMapNode@PAXPAVasCGlobalProperty@@@@@Z 10004240 f i as_module.obj
 0001:000032a0       ?EraseAll@?$asCMap@VasCStringPointer@@H@@QAEXXZ 100042a0 f i as_module.obj
 0001:000032c0       ?EraseAll@?$asCMap@PAX_N@@QAEXXZ 100042c0 f i as_module.obj
 0001:000032c0       ?EraseAll@?$asCMap@HPAVasCDataType@@@@QAEXXZ 100042c0 f i as_scriptengine.obj
 0001:000032c0       ?EraseAll@?$asCMap@PAXPAVasCGlobalProperty@@@@QAEXXZ 100042c0 f i as_scriptengine.obj
 0001:000032c0       ?EraseAll@?$asCMap@PAVasCScriptFunction@@_N@@QAEXXZ 100042c0 f i as_module.obj
 0001:000032c0       ?EraseAll@?$asCMap@HH@@QAEXXZ 100042c0 f i as_module.obj
 0001:000032e0       ?BalanceInsert@?$asCMap@PAXUasSIntTypePair@asCGarbageCollector@@@@IAEXPAU?$asSMapNode@PAXUasSIntTypePair@asCGarbageCollector@@@@@Z 100042e0 f i as_gc.obj
 0001:000032e0       ?BalanceInsert@?$asCMap@PAX_N@@IAEXPAU?$asSMapNode@PAX_N@@@Z 100042e0 f i as_restore.obj
 0001:000032e0       ?BalanceInsert@?$asCMap@VasCString@@V?$asCArray@I@@@@IAEXPAU?$asSMapNode@VasCString@@V?$asCArray@I@@@@@Z 100042e0 f i as_builder.obj
 0001:000032e0       ?BalanceInsert@?$asCMap@VasCStringPointer@@H@@IAEXPAU?$asSMapNode@VasCStringPointer@@H@@@Z 100042e0 f i as_restore.obj
 0001:000032e0       ?BalanceInsert@?$asCMap@PAVasCScriptFunction@@_N@@IAEXPAU?$asSMapNode@PAVasCScriptFunction@@_N@@@Z 100042e0 f i as_restore.obj
 0001:000032e0       ?BalanceInsert@?$asCMap@PAXPAVasCGlobalProperty@@@@IAEXPAU?$asSMapNode@PAXPAVasCGlobalProperty@@@@@Z 100042e0 f i as_module.obj
 0001:000032e0       ?BalanceInsert@?$asCMap@HPAVasCDataType@@@@IAEXPAU?$asSMapNode@HPAVasCDataType@@@@@Z 100042e0 f i as_scriptengine.obj
 0001:000032e0       ?BalanceInsert@?$asCMap@HH@@IAEXPAU?$asSMapNode@HH@@@Z 100042e0 f i as_restore.obj
 0001:000033b0       ?EraseAll@?$asCMap@VasCStringPointer@@H@@IAEHPAU?$asSMapNode@VasCStringPointer@@H@@@Z 100043b0 f i as_module.obj
 0001:000033f0       ?EraseAll@?$asCMap@HH@@IAEHPAU?$asSMapNode@HH@@@Z 100043f0 f i as_module.obj
 0001:000033f0       ?EraseAll@?$asCMap@PAX_N@@IAEHPAU?$asSMapNode@PAX_N@@@Z 100043f0 f i as_module.obj
 0001:000033f0       ?EraseAll@?$asCMap@PAVasCScriptFunction@@_N@@IAEHPAU?$asSMapNode@PAVasCScriptFunction@@_N@@@Z 100043f0 f i as_module.obj
 0001:000033f0       ?EraseAll@?$asCMap@HPAVasCDataType@@@@IAEHPAU?$asSMapNode@HPAVasCDataType@@@@@Z 100043f0 f i as_scriptengine.obj
 0001:000033f0       ?EraseAll@?$asCMap@PAXPAVasCGlobalProperty@@@@IAEHPAU?$asSMapNode@PAXPAVasCGlobalProperty@@@@@Z 100043f0 f i as_scriptengine.obj
 0001:00003430       ??1asIObjectType@@MAE@XZ   10004430 f i as_objecttype.obj
 0001:00003440       ??_EasIObjectType@@MAEPAXI@Z 10004440 f i  CIL library: CIL module
 0001:00003440       ??_GasIObjectType@@MAEPAXI@Z 10004440 f i as_objecttype.obj
 0001:00003460       ??0asCObjectProperty@@QAE@XZ 10004460 f i as_objecttype.obj
 0001:00003480       ??_GasCObjectType@@UAEPAXI@Z 10004480 f i as_objecttype.obj
 0001:00003480       ??_EasCObjectType@@UAEPAXI@Z 10004480 f i  CIL library: CIL module
 0001:000034a0       ??1asSTypeBehaviour@@QAE@XZ 100044a0 f i as_objecttype.obj
 0001:00003500       ??A?$asCArray@USEngineClean@asCScriptEngine@@@@QAEAAUSEngineClean@asCScriptEngine@@I@Z 10004500 f i as_scriptengine.obj
 0001:00003500       ??A?$asCArray@USObjTypeClean@asCScriptEngine@@@@QAEAAUSObjTypeClean@asCScriptEngine@@I@Z 10004500 f i as_objecttype.obj
 0001:00003500       ??A?$asCArray@USObjProp@asCReader@@@@QAEAAUSObjProp@asCReader@@I@Z 10004500 f i as_restore.obj
 0001:00003500       ??A?$asCArray@USObjProp@asCWriter@@@@QAEAAUSObjProp@asCWriter@@I@Z 10004500 f i as_restore.obj
 0001:00003500       ??A?$asCArray@UasSOverloadCandidate@@@@QAEAAUasSOverloadCandidate@@I@Z 10004500 f i as_compiler.obj
 0001:00003510       ??_9asCObjectType@@$BBA@AE 10004510 f i as_objecttype.obj
 0001:00003520       ??_9asCObjectType@@$BBE@AE 10004520 f i as_objecttype.obj
 0001:00003530       ?AllocateNoConstruct@?$asCArray@K@@QAEXI_N@Z 10004530 f i as_restore.obj
 0001:000035e0       ?GetCapacity@?$asCArray@K@@QBEIXZ 100045e0 f i as_restore.obj
 0001:000035e0       ?GetCapacity@?$asCArray@I@@QBEIXZ 100045e0 f i as_context.obj
 0001:000035f0       ?SetLengthNoConstruct@?$asCArray@K@@QAE_NI@Z 100045f0 f i as_restore.obj
 0001:00003610       ?SetLength@?$asCArray@UasSObjectVariableInfo@@@@QAE_NI@Z 10004610 f i as_restore.obj
 0001:00003630       ?Allocate@?$asCSymbolTable@VasCGlobalProperty@@@@QAEXI_N@Z 10004630 f i as_restore.obj
 0001:00003650       ??0?$asCMap@VasCStringPointer@@H@@QAE@XZ 10004650 f i as_restore.obj
 0001:00003670       ?Insert@?$asCMap@VasCStringPointer@@H@@QAEHABVasCStringPointer@@ABH@Z 10004670 f i as_restore.obj
 0001:000036d0       ?MoveTo@?$asCMap@VasCStringPointer@@H@@QBE_NPAPAU?$asSMapNode@VasCStringPointer@@H@@ABVasCStringPointer@@@Z 100046d0 f i as_restore.obj
 0001:00003730       ?SetLength@?$asCArray@USObjProp@asCReader@@@@QAE_NI@Z 10004730 f i as_restore.obj
 0001:00003750       ??0?$asCMap@PAXPAVasCGlobalProperty@@@@QAE@XZ 10004750 f i as_scriptengine.obj
 0001:00003750       ??0?$asCMap@PAX_N@@QAE@XZ  10004750 f i as_restore.obj
 0001:00003750       ??0?$asCMap@PAVasCScriptFunction@@_N@@QAE@XZ 10004750 f i as_restore.obj
 0001:00003750       ??0?$asCMap@HPAVasCDataType@@@@QAE@XZ 10004750 f i as_scriptengine.obj
 0001:00003750       ??0?$asCMap@HH@@QAE@XZ     10004750 f i as_restore.obj
 0001:00003770       ?Insert@?$asCMap@PAX_N@@QAEHABQAXAB_N@Z 10004770 f i as_restore.obj
 0001:00003770       ?Insert@?$asCMap@PAVasCScriptFunction@@_N@@QAEHABQAVasCScriptFunction@@AB_N@Z 10004770 f i as_restore.obj
 0001:000037c0       ?MoveTo@?$asCMap@PAX_N@@QBE_NPAPAU?$asSMapNode@PAX_N@@ABQAX@Z 100047c0 f i as_restore.obj
 0001:000037c0       ?MoveTo@?$asCMap@PAVasCScriptFunction@@_N@@QBE_NPAPAU?$asSMapNode@PAVasCScriptFunction@@_N@@ABQAVasCScriptFunction@@@Z 100047c0 f i as_restore.obj
 0001:000037f0       ?PopLast@?$asCArray@UasSOverloadCandidate@@@@QAE?AUasSOverloadCandidate@@XZ 100047f0 f i as_compiler.obj
 0001:000037f0       ?PopLast@?$asCArray@USInfo@SListAdjuster@asCWriter@@@@QAE?AUSInfo@SListAdjuster@asCWriter@@XZ 100047f0 f i as_restore.obj
 0001:000037f0       ?PopLast@?$asCArray@USInfo@SListAdjuster@asCReader@@@@QAE?AUSInfo@SListAdjuster@asCReader@@XZ 100047f0 f i as_restore.obj
 0001:00003810       ?Insert@?$asCMap@HPAVasCDataType@@@@QAEHABHABQAVasCDataType@@@Z 10004810 f i as_scriptengine.obj
 0001:00003810       ?Insert@?$asCMap@HH@@QAEHABH0@Z 10004810 f i as_restore.obj
 0001:00003860       ?MoveTo@?$asCMap@HH@@QBE_NPAPAU?$asSMapNode@HH@@ABH@Z 10004860 f i as_restore.obj
 0001:00003860       ?MoveTo@?$asCMap@HPAVasCDataType@@@@QBE_NPAPAU?$asSMapNode@HPAVasCDataType@@@@ABH@Z 10004860 f i as_scriptengine.obj
 0001:000038a0       ?PushLast@?$asCArray@USObjTypeClean@asCScriptEngine@@@@QAEXABUSObjTypeClean@asCScriptEngine@@@Z 100048a0 f i as_scriptengine.obj
 0001:000038a0       ?PushLast@?$asCArray@USObjProp@asCWriter@@@@QAEXABUSObjProp@asCWriter@@@Z 100048a0 f i as_restore.obj
 0001:000038a0       ?PushLast@?$asCArray@USEngineClean@asCScriptEngine@@@@QAEXABUSEngineClean@asCScriptEngine@@@Z 100048a0 f i as_scriptengine.obj
 0001:000038a0       ?PushLast@?$asCArray@USInfo@SListAdjuster@asCReader@@@@QAEXABUSInfo@SListAdjuster@asCReader@@@Z 100048a0 f i as_restore.obj
 0001:000038a0       ?PushLast@?$asCArray@USInfo@SListAdjuster@asCWriter@@@@QAEXABUSInfo@SListAdjuster@asCWriter@@@Z 100048a0 f i as_restore.obj
 0001:000038e0       ?PopLast@?$asCArray@PAU?$asSMapNode@PAXUasSIntTypePair@asCGarbageCollector@@@@@@QAEPAU?$asSMapNode@PAXUasSIntTypePair@asCGarbageCollector@@@@XZ 100048e0 f i as_gc.obj
 0001:000038e0       ?PopLast@?$asCArray@PAUsFunctionDescription@@@@QAEPAUsFunctionDescription@@XZ 100048e0 f i as_builder.obj
 0001:000038e0       ?PopLast@?$asCArray@PAX@@QAEPAXXZ 100048e0 f i as_gc.obj
 0001:000038e0       ?PopLast@?$asCArray@PAUSListAdjuster@asCWriter@@@@QAEPAUSListAdjuster@asCWriter@@XZ 100048e0 f i as_restore.obj
 0001:000038e0       ?PopLast@?$asCArray@PAVasCByteInstruction@@@@QAEPAVasCByteInstruction@@XZ 100048e0 f i as_bytecode.obj
 0001:000038e0       ?PopLast@?$asCArray@PAUasSExprContext@@@@QAEPAUasSExprContext@@XZ 100048e0 f i as_compiler.obj
 0001:000038e0       ?PopLast@?$asCArray@PAVasIScriptContext@@@@QAEPAVasIScriptContext@@XZ 100048e0 f i as_context.obj
 0001:000038e0       ?PopLast@?$asCArray@PAVasCScriptNode@@@@QAEPAVasCScriptNode@@XZ 100048e0 f i as_compiler.obj
 0001:000038e0       ?PopLast@?$asCArray@PAUsGlobalVariableDescription@@@@QAEPAUsGlobalVariableDescription@@XZ 100048e0 f i as_builder.obj
 0001:000038e0       ?PopLast@?$asCArray@H@@QAEHXZ 100048e0 f i as_builder.obj
 0001:000038e0       ?PopLast@?$asCArray@PAUsClassDeclaration@@@@QAEPAUsClassDeclaration@@XZ 100048e0 f i as_builder.obj
 0001:000038e0       ?PopLast@?$asCArray@I@@QAEIXZ 100048e0 f i as_builder.obj
 0001:000038e0       ?PopLast@?$asCArray@PAVasCGlobalProperty@@@@QAEPAVasCGlobalProperty@@XZ 100048e0 f i as_configgroup.obj
 0001:000038e0       ?PopLast@?$asCArray@PAVasCConfigGroup@@@@QAEPAVasCConfigGroup@@XZ 100048e0 f i as_scriptengine.obj
 0001:000038e0       ?PopLast@?$asCArray@PAVasCScriptFunction@@@@QAEPAVasCScriptFunction@@XZ 100048e0 f i as_builder.obj
 0001:000038e0       ?PopLast@?$asCArray@PAUSListAdjuster@asCReader@@@@QAEPAUSListAdjuster@asCReader@@XZ 100048e0 f i as_restore.obj
 0001:000038e0       ?PopLast@?$asCArray@PAVasCModule@@@@QAEPAVasCModule@@XZ 100048e0 f i as_module.obj
 0001:000038e0       ?PopLast@?$asCArray@PAVasCObjectType@@@@QAEPAVasCObjectType@@XZ 100048e0 f i as_configgroup.obj
 0001:000038f0       ?Insert@?$asCMap@VasCStringPointer@@H@@QAEHPAU?$asSMapNode@VasCStringPointer@@H@@@Z 100048f0 f i as_restore.obj
 0001:00003960       ?Insert@?$asCMap@HPAVasCDataType@@@@QAEHPAU?$asSMapNode@HPAVasCDataType@@@@@Z 10004960 f i as_scriptengine.obj
 0001:00003960       ?Insert@?$asCMap@HH@@QAEHPAU?$asSMapNode@HH@@@Z 10004960 f i as_restore.obj
 0001:000039c0       ??1asIScriptEngine@@MAE@XZ 100049c0 f i as_scriptengine.obj
 0001:000039d0       ??_GasIScriptEngine@@MAEPAXI@Z 100049d0 f i as_scriptengine.obj
 0001:000039d0       ??_EasIScriptEngine@@MAEPAXI@Z 100049d0 f i  CIL library: CIL module
 0001:000039f0       ??_EasCScriptEngine@@UAEPAXI@Z 100049f0 f i  CIL library: CIL module
 0001:000039f0       ??_GasCScriptEngine@@UAEPAXI@Z 100049f0 f i as_scriptengine.obj
 0001:00003a10       ?SetLength@?$asCArray@VasCDataType@@@@QAE_NI@Z 10004a10 f i as_scriptengine.obj
 0001:00003a30       ??4?$asCArray@H@@QAEAAV0@ABV0@@Z 10004a30 f i as_builder.obj
 0001:00003a30       ??4?$asCArray@PAVasCObjectType@@@@QAEAAV0@ABV0@@Z 10004a30 f i as_scriptengine.obj
 0001:00003a30       ??4?$asCArray@W4asETypeModifiers@@@@QAEAAV0@ABV0@@Z 10004a30 f i as_builder.obj
 0001:00003a30       ??4?$asCArray@I@@QAEAAV0@ABV0@@Z 10004a30 f i as_builder.obj
 0001:00003a30       ??4?$asCArray@PAVasCString@@@@QAEAAV0@ABV0@@Z 10004a30 f i as_builder.obj
 0001:00003a30       ??4?$asCArray@PAUsClassDeclaration@@@@QAEAAV0@ABV0@@Z 10004a30 f i as_builder.obj
 0001:00003a50       ?RemoveIndexUnordered@?$asCArray@PAVasCObjectType@@@@QAEXI@Z 10004a50 f i as_scriptengine.obj
 0001:00003a80       ?GetValue@?$asCMap@HPAVasCDataType@@@@QAEAAPAVasCDataType@@PAU?$asSMapNode@HPAVasCDataType@@@@@Z 10004a80 f i as_scriptengine.obj
 0001:00003a80       ?GetValue@?$asCMap@PAXUasSIntTypePair@asCGarbageCollector@@@@QAEAAUasSIntTypePair@asCGarbageCollector@@PAU?$asSMapNode@PAXUasSIntTypePair@asCGarbageCollector@@@@@Z 10004a80 f i as_gc.obj
 0001:00003aa0       ?Erase@?$asCMap@PAXPAVasCGlobalProperty@@@@QAEXPAU?$asSMapNode@PAXPAVasCGlobalProperty@@@@@Z 10004aa0 f i as_scriptengine.obj
 0001:00003aa0       ?Erase@?$asCMap@HPAVasCDataType@@@@QAEXPAU?$asSMapNode@HPAVasCDataType@@@@@Z 10004aa0 f i as_scriptengine.obj
 0001:00003ab0       ??1?$asCArray@USObjProp@asCWriter@@@@QAE@XZ 10004ab0 f i as_module.obj
 0001:00003ab0       ??1?$asCArray@USInfo@SListAdjuster@asCWriter@@@@QAE@XZ 10004ab0 f i as_restore.obj
 0001:00003ab0       ??1?$asCArray@USObjTypeClean@asCScriptEngine@@@@QAE@XZ 10004ab0 f i as_scriptengine.obj
 0001:00003ab0       ??1?$asCArray@USObjProp@asCReader@@@@QAE@XZ 10004ab0 f i as_module.obj
 0001:00003ab0       ??1?$asCArray@USInfo@SListAdjuster@asCReader@@@@QAE@XZ 10004ab0 f i as_restore.obj
 0001:00003ab0       ??1?$asCArray@USEngineClean@asCScriptEngine@@@@QAE@XZ 10004ab0 f i as_scriptengine.obj
 0001:00003ac0       ?Copy@?$asCArray@PAUsClassDeclaration@@@@QAEXPBQAUsClassDeclaration@@I@Z 10004ac0 f i as_builder.obj
 0001:00003ac0       ?Copy@?$asCArray@W4asETypeModifiers@@@@QAEXPBW4asETypeModifiers@@I@Z 10004ac0 f i as_builder.obj
 0001:00003ac0       ?Copy@?$asCArray@PAVasCObjectType@@@@QAEXPBQAVasCObjectType@@I@Z 10004ac0 f i as_scriptengine.obj
 0001:00003ac0       ?Copy@?$asCArray@I@@QAEXPBII@Z 10004ac0 f i as_builder.obj
 0001:00003ac0       ?Copy@?$asCArray@PAVasCString@@@@QAEXPBQAVasCString@@I@Z 10004ac0 f i as_builder.obj
 0001:00003ac0       ?Copy@?$asCArray@H@@QAEXPBHI@Z 10004ac0 f i as_builder.obj
 0001:00003b00       ?Remove@?$asCMap@HPAVasCDataType@@@@QAEPAU?$asSMapNode@HPAVasCDataType@@@@PAU2@@Z 10004b00 f i as_scriptengine.obj
 0001:00003b00       ?Remove@?$asCMap@PAXPAVasCGlobalProperty@@@@QAEPAU?$asSMapNode@PAXPAVasCGlobalProperty@@@@PAU2@@Z 10004b00 f i as_scriptengine.obj
 0001:00003bb0       ?Allocate@?$asCArray@USEngineClean@asCScriptEngine@@@@QAEXI_N@Z 10004bb0 f i as_scriptengine.obj
 0001:00003bb0       ?Allocate@?$asCArray@USObjProp@asCWriter@@@@QAEXI_N@Z 10004bb0 f i as_module.obj
 0001:00003bb0       ?Allocate@?$asCArray@USObjProp@asCReader@@@@QAEXI_N@Z 10004bb0 f i as_module.obj
 0001:00003bb0       ?Allocate@?$asCArray@USObjTypeClean@asCScriptEngine@@@@QAEXI_N@Z 10004bb0 f i as_scriptengine.obj
 0001:00003bb0       ?Allocate@?$asCArray@USInfo@SListAdjuster@asCWriter@@@@QAEXI_N@Z 10004bb0 f i as_restore.obj
 0001:00003bb0       ?Allocate@?$asCArray@USInfo@SListAdjuster@asCReader@@@@QAEXI_N@Z 10004bb0 f i as_restore.obj
 0001:00003cb0       ?BalanceErase@?$asCMap@PAXUasSIntTypePair@asCGarbageCollector@@@@IAEXPAU?$asSMapNode@PAXUasSIntTypePair@asCGarbageCollector@@@@0@Z 10004cb0 f i as_gc.obj
 0001:00003cb0       ?BalanceErase@?$asCMap@PAXPAVasCGlobalProperty@@@@IAEXPAU?$asSMapNode@PAXPAVasCGlobalProperty@@@@0@Z 10004cb0 f i as_scriptengine.obj
 0001:00003cb0       ?BalanceErase@?$asCMap@VasCString@@V?$asCArray@I@@@@IAEXPAU?$asSMapNode@VasCString@@V?$asCArray@I@@@@0@Z 10004cb0 f i as_builder.obj
 0001:00003cb0       ?BalanceErase@?$asCMap@HPAVasCDataType@@@@IAEXPAU?$asSMapNode@HPAVasCDataType@@@@0@Z 10004cb0 f i as_scriptengine.obj
 0001:00003e00       ??1asIScriptFunction@@MAE@XZ 10004e00 f i as_scriptfunction.obj
 0001:00003e10       ??_GasIScriptFunction@@MAEPAXI@Z 10004e10 f i as_scriptfunction.obj
 0001:00003e10       ??_EasIScriptFunction@@MAEPAXI@Z 10004e10 f i  CIL library: CIL module
 0001:00003e30       ?Duplicate@asSListPatternNode@@UAEPAU1@XZ 10004e30 f i as_scriptfunction.obj
 0001:00003e60       ??_GasSListPatternDataTypeNode@@UAEPAXI@Z 10004e60 f i as_scriptfunction.obj
 0001:00003e60       ??_EasSListPatternDataTypeNode@@UAEPAXI@Z 10004e60 f i  CIL library: CIL module
 0001:00003e60       ??_EasSListPatternNode@@UAEPAXI@Z 10004e60 f i  CIL library: CIL module
 0001:00003e60       ??_GasSListPatternNode@@UAEPAXI@Z 10004e60 f i as_scriptfunction.obj
 0001:00003e80       ?Duplicate@asSListPatternDataTypeNode@@UAEPAUasSListPatternNode@@XZ 10004e80 f i as_scriptfunction.obj
 0001:00003ec0       ??_GasCScriptFunction@@UAEPAXI@Z 10004ec0 f i as_scriptfunction.obj
 0001:00003ec0       ??_EasCScriptFunction@@UAEPAXI@Z 10004ec0 f i  CIL library: CIL module
 0001:00003ee0       ??0ScriptFunctionData@asCScriptFunction@@QAE@XZ 10004ee0 f i as_scriptfunction.obj
 0001:00003f30       ??1ScriptFunctionData@asCScriptFunction@@QAE@XZ 10004f30 f i as_scriptfunction.obj
 0001:00003fe0       ??_9asCScriptFunction@@$B7AE 10004fe0 f i as_scriptfunction.obj
 0001:00003ff0       ??1asIScriptObject@@MAE@XZ 10004ff0 f i as_scriptobject.obj
 0001:00004000       ??_GasIScriptObject@@MAEPAXI@Z 10005000 f i as_scriptobject.obj
 0001:00004000       ??_EasIScriptObject@@MAEPAXI@Z 10005000 f i  CIL library: CIL module
 0001:00004020       ??_EasILockableSharedBool@@MAEPAXI@Z 10005020 f i  CIL library: CIL module
 0001:00004020       ??_GasILockableSharedBool@@MAEPAXI@Z 10005020 f i as_scriptobject.obj
 0001:00004040       ??_EasCScriptObject@@UAEPAXI@Z 10005040 f i  CIL library: CIL module
 0001:00004040       ??_GasCScriptObject@@UAEPAXI@Z 10005040 f i as_scriptobject.obj
 0001:00004060       ??_EasCLockableSharedBool@@UAEPAXI@Z 10005060 f i  CIL library: CIL module
 0001:00004060       ??_GasCLockableSharedBool@@UAEPAXI@Z 10005060 f i as_scriptobject.obj
 0001:00004090       ??_9asCScriptObject@@$BA@AE 10005090 f i as_scriptobject.obj
 0001:000040a0       ??_9asCScriptObject@@$B3AE 100050a0 f i as_scriptobject.obj
 0001:000040a0       ??_9asCScriptFunction@@$B3AE 100050a0 f i as_scriptfunction.obj
 0001:000040b0       ??_EasIThreadManager@@MAEPAXI@Z 100050b0 f i  CIL library: CIL module
 0001:000040b0       ??_GasIThreadManager@@MAEPAXI@Z 100050b0 f i as_thread.obj
 0001:000040d0       ??_EasCThreadManager@@MAEPAXI@Z 100050d0 f i  CIL library: CIL module
 0001:000040d0       ??_GasCThreadManager@@MAEPAXI@Z 100050d0 f i as_thread.obj
 0001:000040ee       __onexit                   100050ee f   MSVCRT:atonexit.obj
 0001:00004193       _atexit                    10005193 f   MSVCRT:atonexit.obj
 0001:000041aa       __purecall                 100051aa f   MSVCRT:MSVCR90.dll
 0001:000041b0       ??3@YAXPAX@Z               100051b0 f   MSVCRT:MSVCR90.dll
 0001:000041b6       ??_Etype_info@@UAEPAXI@Z   100051b6 f i MSVCRT:ti_inst.obj
 0001:00004251       __CRT_INIT@12              10005251 f   MSVCRT:crtdll.obj
 0001:0000458d       __DllMainCRTStartup@12     1000558d f   MSVCRT:crtdll.obj
 0001:000045b0       __unlock                   100055b0 f   MSVCRT:MSVCR90.dll
 0001:000045b6       ___dllonexit               100055b6 f   MSVCRT:MSVCR90.dll
 0001:000045bc       __lock                     100055bc f   MSVCRT:MSVCR90.dll
 0001:000045c4       __SEH_prolog4              100055c4 f   MSVCRT:sehprolg4.obj
 0001:00004609       __SEH_epilog4              10005609 f   MSVCRT:sehprolg4.obj
 0001:0000461d       __except_handler4          1000561d f   MSVCRT:chandler4gs.obj
 0001:00004642       ?__ArrayUnwind@@YGXPAXIHP6EX0@Z@Z 10005642 f   MSVCRT:ehvecdtr.obj
 0001:000046a0       ??_M@YGXPAXIHP6EX0@Z@Z     100056a0 f   MSVCRT:ehvecdtr.obj
 0001:00004703       ___clean_type_info_names   10005703 f   MSVCRT:tncleanup.obj
 0001:0000470f       __RTC_Initialize           1000570f f   MSVCRT:_initsect_.obj
 0001:00004735       __RTC_Terminate            10005735 f   MSVCRT:_initsect_.obj
 0001:00004760       __ValidateImageBase        10005760 f   MSVCRT:pesect.obj
 0001:000047a0       __FindPESection            100057a0 f   MSVCRT:pesect.obj
 0001:000047f0       __IsNonwritableInCurrentImage 100057f0 f   MSVCRT:pesect.obj
 0001:000048ae       __initterm                 100058ae f   MSVCRT:MSVCR90.dll
 0001:000048b4       __initterm_e               100058b4 f   MSVCRT:MSVCR90.dll
 0001:000048ba       __amsg_exit                100058ba f   MSVCRT:MSVCR90.dll
 0001:000048c0       ___CppXcptFilter           100058c0 f   MSVCRT:MSVCR90.dll
 0001:000048c6       _DllMain@12                100058c6 f   MSVCRT:dllmain.obj
 0001:000048ea       ___security_init_cookie    100058ea f   MSVCRT:gs_support.obj
 0001:00004980       @__security_check_cookie@4 10005980 f   MSVCRT:secchk.obj
 0001:00004990       __except_handler4_common   10005990 f   MSVCRT:MSVCR90.dll
 0001:00004996       ?terminate@@YAXXZ          10005996 f   MSVCRT:MSVCR90.dll
 0001:0000499c       ?_type_info_dtor_internal_method@type_info@@QAEXXZ 1000599c f   MSVCRT:MSVCR90.dll
 0001:0000499c       ??1type_info@@UAE@XZ       1000599c f   MSVCRT:MSVCR90.dll
 0001:000049a2       ___clean_type_info_names_internal 100059a2 f   MSVCRT:MSVCR90.dll
 0001:000049a8       ___report_gsfailure        100059a8 f   MSVCRT:gs_report.obj
 0001:00004aae       __crt_debugger_hook        10005aae f   MSVCRT:MSVCR90.dll
 0001:00004ac0       ?IsVoidExpression@asCTypeInfo@@QBE_NXZ 10005ac0 f   as_typeinfo.obj
 0001:00004ad0       ?IsNullConstant@asCTypeInfo@@QBE_NXZ 10005ad0 f   as_typeinfo.obj
 0001:00004af0       ?Set@asCTypeInfo@@QAEXABVasCDataType@@@Z 10005af0 f   as_typeinfo.obj
 0001:00004b10       ??0asCTypeInfo@@QAE@XZ     10005b10 f   as_typeinfo.obj
 0001:00004b30       ?SetVoidExpression@asCTypeInfo@@QAEXXZ 10005b30 f   as_typeinfo.obj
 0001:00004b60       ?SetNullConstant@asCTypeInfo@@QAEXXZ 10005b60 f   as_typeinfo.obj
 0001:00004b90       ?SetUndefinedFuncHandle@asCTypeInfo@@QAEXPAVasCScriptEngine@@@Z 10005b90 f   as_typeinfo.obj
 0001:00004bd0       ?SetConstantD@asCTypeInfo@@QAEXABVasCDataType@@N@Z 10005bd0 f   as_typeinfo.obj
 0001:00004bf0       ?SetConstantF@asCTypeInfo@@QAEXABVasCDataType@@M@Z 10005bf0 f   as_typeinfo.obj
 0001:00004c10       ?SetConstantB@asCTypeInfo@@QAEXABVasCDataType@@E@Z 10005c10 f   as_typeinfo.obj
 0001:00004c30       ?SetConstantDW@asCTypeInfo@@QAEXABVasCDataType@@K@Z 10005c30 f   as_typeinfo.obj
 0001:00004c50       ?SetConstantQW@asCTypeInfo@@QAEXABVasCDataType@@_K@Z 10005c50 f   as_typeinfo.obj
 0001:00004c70       ?SetVariable@asCTypeInfo@@QAEXABVasCDataType@@H_N@Z 10005c70 f   as_typeinfo.obj
 0001:00004ca0       ?SetDummy@asCTypeInfo@@QAEXXZ 10005ca0 f   as_typeinfo.obj
 0001:00004cd0       ?IsKeyWord@asCTokenizer@@IBE_NPBDIAAIAAW4eTokenType@@@Z 10005cd0 f   as_tokenizer.obj
 0001:00004d70       ?IsIdentifier@asCTokenizer@@IBE_NPBDIAAIAAW4eTokenType@@@Z 10005d70 f   as_tokenizer.obj
 0001:00004df0       ?IsComment@asCTokenizer@@IBE_NPBDIAAIAAW4eTokenType@@@Z 10005df0 f   as_tokenizer.obj
 0001:00004e70       ?IsWhiteSpace@asCTokenizer@@IBE_NPBDIAAIAAW4eTokenType@@@Z 10005e70 f   as_tokenizer.obj
 0001:00004ee0       ?IsDigitInRadix@asCTokenizer@@IBE_NDH@Z 10005ee0 f   as_tokenizer.obj
 0001:00004f30       ?GetDefinition@asCTokenizer@@SAPBDH@Z 10005f30 f   as_tokenizer.obj
 0001:00005000       ??1asCTokenizer@@IAE@XZ    10006000 f   as_tokenizer.obj
 0001:00005030       ??0asCTokenizer@@IAE@XZ    10006030 f   as_tokenizer.obj
 0001:000050e0       ?IsConstant@asCTokenizer@@IBE_NPBDIAAIAAW4eTokenType@@@Z 100060e0 f   as_tokenizer.obj
 0001:00005380       ?ParseToken@asCTokenizer@@IBE?AW4asETokenClass@@PBDIAAIAAW4eTokenType@@@Z 10006380 f   as_tokenizer.obj
 0001:00005440       ?GetToken@asCTokenizer@@QBE?AW4eTokenType@@PBDIPAIPAW4asETokenClass@@@Z 10006440 f   as_tokenizer.obj
 0001:00005470       ?ReleaseShared@asCThreadReadWriteLock@@QAEXXZ 10006470 f   as_thread.obj
 0001:00005480       ?AcquireShared@asCThreadReadWriteLock@@QAEXXZ 10006480 f   as_thread.obj
 0001:00005490       ?ReleaseExclusive@asCThreadReadWriteLock@@QAEXXZ 10006490 f   as_thread.obj
 0001:000054a0       ?AcquireExclusive@asCThreadReadWriteLock@@QAEXXZ 100064a0 f   as_thread.obj
 0001:000054d0       ??1asCThreadReadWriteLock@@QAE@XZ 100064d0 f   as_thread.obj
 0001:000054f0       ??0asCThreadReadWriteLock@@QAE@XZ 100064f0 f   as_thread.obj
 0001:00005510       ?TryEnter@asCThreadCriticalSection@@QAE_NXZ 10006510 f   as_thread.obj
 0001:00005520       ?Leave@asCThreadCriticalSection@@QAEXXZ 10006520 f   as_thread.obj
 0001:00005530       ?Enter@asCThreadCriticalSection@@QAEXXZ 10006530 f   as_thread.obj
 0001:00005540       ??1asCThreadCriticalSection@@QAE@XZ 10006540 f   as_thread.obj
 0001:00005550       ??0asCThreadCriticalSection@@QAE@XZ 10006550 f   as_thread.obj
 0001:00005560       _asReleaseSharedLock       10006560 f   as_thread.obj
 0001:00005580       _asAcquireSharedLock       10006580 f   as_thread.obj
 0001:000055a0       _asReleaseExclusiveLock    100065a0 f   as_thread.obj
 0001:000055c0       _asAcquireExclusiveLock    100065c0 f   as_thread.obj
 0001:000055e0       _asGetThreadManager        100065e0 f   as_thread.obj
 0001:000055f0       ??1asCThreadManager@@MAE@XZ 100065f0 f   as_thread.obj
 0001:00005620       ??0asCThreadManager@@IAE@XZ 10006620 f   as_thread.obj
 0001:00005650       ??1asCThreadLocalData@@IAE@XZ 10006650 f   as_thread.obj
 0001:000056a0       ??0asCThreadLocalData@@IAE@XZ 100066a0 f   as_thread.obj
 0001:000056c0       ?GetLocalData@asCThreadManager@@SAPAVasCThreadLocalData@@XZ 100066c0 f   as_thread.obj
 0001:00005710       ?CleanupLocalData@asCThreadManager@@SAHXZ 10006710 f   as_thread.obj
 0001:00005770       ?Unprepare@asCThreadManager@@SAXXZ 10006770 f   as_thread.obj
 0001:000057d0       ?Prepare@asCThreadManager@@SAHPAVasIThreadManager@@@Z 100067d0 f   as_thread.obj
 0001:00005840       _asUnprepareMultithread    10006840 f   as_thread.obj
 0001:00005850       _asPrepareMultithread      10006850 f   as_thread.obj
 0001:00005860       _asThreadCleanup           10006860 f   as_thread.obj
 0001:00005870       ?asStringEncodeUTF16@@YAHIPAD@Z 10006870 f   as_string_util.obj
 0001:000058c0       ?asStringDecodeUTF8@@YAHPBDPAI@Z 100068c0 f   as_string_util.obj
 0001:00005970       ?asStringEncodeUTF8@@YAHIPAD@Z 10006970 f   as_string_util.obj
 0001:00005a50       ?asCompareStrings@@YAHPBDI0I@Z 10006a50 f   as_string_util.obj
 0001:00005b60       ?asStringScanUInt64@@YA_KPBDHPAI@Z 10006b60 f   as_string_util.obj
 0001:00005cc0       ?asStringScanDouble@@YANPBDPAI@Z 10006cc0 f   as_string_util.obj
 0001:00005dd0       ??0asCStringPointer@@QAE@PAVasCString@@@Z 10006dd0 f   as_string.obj
 0001:00005df0       ??0asCStringPointer@@QAE@PBDI@Z 10006df0 f   as_string.obj
 0001:00005e00       ??0asCStringPointer@@QAE@XZ 10006e00 f   as_string.obj
 0001:00005e10       ?GetLength@asCString@@QBEIXZ 10006e10 f   as_string.obj
 0001:00005e20       ?AddressOf@asCString@@QBEPBDXZ 10006e20 f   as_string.obj
 0001:00005e30       ?AddressOf@asCString@@QAEPADXZ 10006e30 f   as_string.obj
 0001:00005e40       ??1asCString@@QAE@XZ       10006e40 f   as_string.obj
 0001:00005e60       ??0asCString@@QAE@XZ       10006e60 f   as_string.obj
 0001:00005e70       ?GetLength@asCStringPointer@@QBEIXZ 10006e70 f   as_string.obj
 0001:00005e90       ?AddressOf@asCStringPointer@@QBEPBDXZ 10006e90 f   as_string.obj
 0001:00005ea0       ?FindLast@asCString@@QBEHPBDPAH@Z 10006ea0 f   as_string.obj
 0001:00005ef0       ?Compare@asCString@@QBEHABV1@@Z 10006ef0 f   as_string.obj
 0001:00005f20       ?Compare@asCString@@QBEHPBD@Z 10006f20 f   as_string.obj
 0001:00005f50       ??AasCString@@QBEABDI@Z    10006f50 f   as_string.obj
 0001:00005f60       ??AasCString@@QAEAADI@Z    10006f60 f   as_string.obj
 0001:00005f70       ?Allocate@asCString@@QAEXI_N@Z 10006f70 f   as_string.obj
 0001:00006010       ?SetLength@asCString@@QAEXI@Z 10007010 f   as_string.obj
 0001:00006020       ??MasCStringPointer@@QBE_NABV0@@Z 10007020 f   as_string.obj
 0001:00006060       ??8asCStringPointer@@QBE_NABV0@@Z 10007060 f   as_string.obj
 0001:000060a0       ??M@YA_NABVasCString@@0@Z  100070a0 f   as_string.obj
 0001:000060b0       ??9@YA_NABVasCString@@0@Z  100070b0 f   as_string.obj
 0001:000060c0       ??8@YA_NABVasCString@@0@Z  100070c0 f   as_string.obj
 0001:000060d0       ??9@YA_NABVasCString@@PBD@Z 100070d0 f   as_string.obj
 0001:000060e0       ??8@YA_NABVasCString@@PBD@Z 100070e0 f   as_string.obj
 0001:000060f0       ?Concatenate@asCString@@QAEXPBDI@Z 100070f0 f   as_string.obj
 0001:00006130       ?Assign@asCString@@QAEXPBDI@Z 10007130 f   as_string.obj
 0001:00006170       ??0asCString@@QAE@PBD@Z    10007170 f   as_string.obj
 0001:000061a0       ??0asCString@@QAE@PBDI@Z   100071a0 f   as_string.obj
 0001:000061c0       ??0asCString@@QAE@ABV0@@Z  100071c0 f   as_string.obj
 0001:000061e0       ?SubString@asCString@@QBE?AV1@II@Z 100071e0 f   as_string.obj
 0001:000062a0       ?Format@asCString@@QAAIPBDZZ 100072a0 f   as_string.obj
 0001:000063d0       ??YasCString@@QAEAAV0@ABV0@@Z 100073d0 f   as_string.obj
 0001:000063f0       ??YasCString@@QAEAAV0@PBD@Z 100073f0 f   as_string.obj
 0001:00006410       ??4asCString@@QAEAAV0@ABV0@@Z 10007410 f   as_string.obj
 0001:00006430       ??4asCString@@QAEAAV0@PBD@Z 10007430 f   as_string.obj
 0001:00006470       ??H@YA?AVasCString@@ABV0@PBD@Z 10007470 f   as_string.obj
 0001:000064d0       ??H@YA?AVasCString@@PBDABV0@@Z 100074d0 f   as_string.obj
 0001:00006530       ??H@YA?AVasCString@@ABV0@0@Z 10007530 f   as_string.obj
 0001:00006590       ?Unlock@asCLockableSharedBool@@UBEXXZ 10007590 f   as_scriptobject.obj
 0001:000065a0       ?Lock@asCLockableSharedBool@@UBEXXZ 100075a0 f   as_scriptobject.obj
 0001:000065b0       ?Set@asCLockableSharedBool@@UAEX_N@Z 100075b0 f   as_scriptobject.obj
 0001:000065d0       ?Get@asCLockableSharedBool@@UBE_NXZ 100075d0 f   as_scriptobject.obj
 0001:000065e0       ?GetFlag@asCScriptObject@@QAE_NXZ 100075e0 f   as_scriptobject.obj
 0001:000065f0       ?SetFlag@asCScriptObject@@QAEXXZ 100075f0 f   as_scriptobject.obj
 0001:00006600       ?GetObjectType@asCScriptObject@@UBEPAVasIObjectType@@XZ 10007600 f   as_scriptobject.obj
 0001:00006610       ?GetEngine@asCScriptObject@@UBEPAVasIScriptEngine@@XZ 10007610 f   as_scriptobject.obj
 0001:00006620       ?Destruct@asCScriptObject@@QAEXXZ 10007620 f   as_scriptobject.obj
 0001:00006640       ?Release@asCLockableSharedBool@@UBEHXZ 10007640 f   as_scriptobject.obj
 0001:00006670       ?AddRef@asCLockableSharedBool@@UBEHXZ 10007670 f   as_scriptobject.obj
 0001:00006680       ??0asCLockableSharedBool@@QAE@XZ 10007680 f   as_scriptobject.obj
 0001:000066b0       ?EnumReferences@asCScriptObject@@QAEXPAVasIScriptEngine@@@Z 100076b0 f   as_scriptobject.obj
 0001:00006720       ?GetAddressOfProperty@asCScriptObject@@UAEPAXI@Z 10007720 f   as_scriptobject.obj
 0001:00006790       ?GetPropertyName@asCScriptObject@@UBEPBDI@Z 10007790 f   as_scriptobject.obj
 0001:000067c0       ?GetPropertyCount@asCScriptObject@@UBEIXZ 100077c0 f   as_scriptobject.obj
 0001:000067d0       ?GetRefCount@asCScriptObject@@QAEHXZ 100077d0 f   as_scriptobject.obj
 0001:000067e0       ?GetWeakRefFlag@asCScriptObject@@QBEPAVasILockableSharedBool@@XZ 100077e0 f   as_scriptobject.obj
 0001:00006830       _asCreateLockableSharedBool 10007830 f   as_scriptobject.obj
 0001:00006850       ?GetPropertyTypeId@asCScriptObject@@UBEHI@Z 10007850 f   as_scriptobject.obj
 0001:00006890       ?GetTypeId@asCScriptObject@@UBEHXZ 10007890 f   as_scriptobject.obj
 0001:000068d0       ?CopyHandle@asCScriptObject@@QAEXPAI0PAVasCObjectType@@PAVasCScriptEngine@@@Z 100078d0 f   as_scriptobject.obj
 0001:00006910       ?CopyObject@asCScriptObject@@QAEXPAX0PAVasCObjectType@@PAVasCScriptEngine@@@Z 10007910 f   as_scriptobject.obj
 0001:00006980       ?FreeObject@asCScriptObject@@QAEXPAXPAVasCObjectType@@PAVasCScriptEngine@@@Z 10007980 f   as_scriptobject.obj
 0001:000069c0       ?ReleaseAllHandles@asCScriptObject@@QAEXPAVasIScriptEngine@@@Z 100079c0 f   as_scriptobject.obj
 0001:00006a50       ?AddRef@asCScriptObject@@UBEHXZ 10007a50 f   as_scriptobject.obj
 0001:00006b10       ??1asCScriptObject@@UAE@XZ 10007b10 f   as_scriptobject.obj
 0001:00006be0       ??4asCScriptObject@@QAEAAV0@ABV0@@Z 10007be0 f   as_scriptobject.obj
 0001:00006de0       ?ScriptObject_Assignment@@YAAAVasCScriptObject@@PAV1@0@Z 10007de0 f   as_scriptobject.obj
 0001:00006e00       ?CallDestructor@asCScriptObject@@QAEXXZ 10007e00 f   as_scriptobject.obj
 0001:00006f20       ?Release@asCScriptObject@@UBEHXZ 10007f20 f   as_scriptobject.obj
 0001:00006f90       ?ScriptObjectFactory@@YAPAVasIScriptObject@@PBVasCObjectType@@PAVasCScriptEngine@@@Z 10007f90 f   as_scriptobject.obj
 0001:000070a0       ?CopyFrom@asCScriptObject@@UAEHPAVasIScriptObject@@@Z 100080a0 f   as_scriptobject.obj
 0001:000070f0       ??0asCScriptObject@@QAE@PAVasCObjectType@@_N@Z 100080f0 f   as_scriptobject.obj
 0001:00007230       ?ScriptObject_ConstructUnitialized@@YAXPAVasCObjectType@@PAVasCScriptObject@@@Z 10008230 f   as_scriptobject.obj
 0001:00007270       ?ScriptObject_Construct@@YAXPAVasCObjectType@@PAVasCScriptObject@@@Z 10008270 f   as_scriptobject.obj
 0001:000072b0       ?AllocateUninitializedObject@asCScriptObject@@QAEPAXPAVasCObjectType@@PAVasCScriptEngine@@@Z 100082b0 f   as_scriptobject.obj
 0001:00007340       ?RegisterScriptObject@@YAXPAVasCScriptEngine@@@Z 10008340 f   as_scriptobject.obj
 0001:00007610       ?DisconnectParent@asCScriptNode@@QAEXXZ 10008610 f   as_scriptnode.obj
 0001:00007660       ?UpdateSourcePos@asCScriptNode@@QAEXII@Z 10008660 f   as_scriptnode.obj
 0001:000076b0       ?SetToken@asCScriptNode@@QAEXPAUsToken@@@Z 100086b0 f   as_scriptnode.obj
 0001:000076c0       ??0asCScriptNode@@QAE@W4eScriptNode@@@Z 100086c0 f   as_scriptnode.obj
 0001:000076e0       ?AddChildLast@asCScriptNode@@QAEXPAV1@@Z 100086e0 f   as_scriptnode.obj
 0001:00007730       ?CreateCopy@asCScriptNode@@QAEPAV1@PAVasCScriptEngine@@@Z 10008730 f   as_scriptnode.obj
 0001:00007790       ?Destroy@asCScriptNode@@QAEXPAVasCScriptEngine@@@Z 10008790 f   as_scriptnode.obj
 0001:000077c0       ?IsOverride@asCScriptFunction@@UBE_NXZ 100087c0 f   as_scriptfunction.obj
 0001:000077d0       ?IsFinal@asCScriptFunction@@UBE_NXZ 100087d0 f   as_scriptfunction.obj
 0001:000077e0       ?IsShared@asCScriptFunction@@UBE_NXZ 100087e0 f   as_scriptfunction.obj
 0001:00007810       ?GetFlag@asCScriptFunction@@QAE_NXZ 10008810 f   as_scriptfunction.obj
 0001:00007820       ?SetFlag@asCScriptFunction@@QAEXXZ 10008820 f   as_scriptfunction.obj
 0001:00007830       ?GetUserData@asCScriptFunction@@UBEPAXXZ 10008830 f   as_scriptfunction.obj
 0001:00007840       ?SetUserData@asCScriptFunction@@UAEPAXPAX@Z 10008840 f   as_scriptfunction.obj
 0001:00007850       ?JITCompile@asCScriptFunction@@QAEXXZ 10008850 f   as_scriptfunction.obj
 0001:000078b0       ?GetAccessMask@asCScriptFunction@@UBEKXZ 100088b0 f   as_scriptfunction.obj
 0001:000078c0       ?GetEngine@asCScriptFunction@@UBEPAVasIScriptEngine@@XZ 100088c0 f   as_scriptfunction.obj
 0001:000078d0       ?GetFuncType@asCScriptFunction@@UBE?AW4asEFuncType@@XZ 100088d0 f   as_scriptfunction.obj
 0001:000078f0       ?IsPrivate@asCScriptFunction@@UBE_NXZ 100088f0 f   as_scriptfunction.obj
 0001:00007900       ?IsReadOnly@asCScriptFunction@@UBE_NXZ 10008900 f   as_scriptfunction.obj
 0001:00007910       ?GetNamespace@asCScriptFunction@@UBEPBDXZ 10008910 f   as_scriptfunction.obj
 0001:00007920       ?GetName@asCScriptFunction@@UBEPBDXZ 10008920 f   as_scriptfunction.obj
 0001:00007930       ?GetObjectName@asCScriptFunction@@UBEPBDXZ 10008930 f   as_scriptfunction.obj
 0001:00007950       ?GetObjectType@asCScriptFunction@@UBEPAVasIObjectType@@XZ 10008950 f   as_scriptfunction.obj
 0001:00007960       ?GetModule@asCScriptFunction@@UBEPAVasIScriptModule@@XZ 10008960 f   as_scriptfunction.obj
 0001:00007970       ?GetModuleName@asCScriptFunction@@UBEPBDXZ 10008970 f   as_scriptfunction.obj
 0001:00007990       ?GetId@asCScriptFunction@@UBEHXZ 10008990 f   as_scriptfunction.obj
 0001:000079a0       ?GetDelegateFunction@asCScriptFunction@@UBEPAVasIScriptFunction@@XZ 100089a0 f   as_scriptfunction.obj
 0001:000079b0       ?GetDelegateObjectType@asCScriptFunction@@UBEPAVasIObjectType@@XZ 100089b0 f   as_scriptfunction.obj
 0001:000079d0       ?GetDelegateObject@asCScriptFunction@@UBEPAXXZ 100089d0 f   as_scriptfunction.obj
 0001:000079e0       ?GetRefCount@asCScriptFunction@@QAEHXZ 100089e0 f   as_scriptfunction.obj
 0001:000079f0       ?GetPropertyByGlobalVarPtr@asCScriptFunction@@QAEPAVasCGlobalProperty@@PAX@Z 100089f0 f   as_scriptfunction.obj
 0001:00007a20       ?GetByteCode@asCScriptFunction@@UAEPAKPAI@Z 10008a20 f   as_scriptfunction.obj
 0001:00007a60       ?GetScriptSectionName@asCScriptFunction@@UBEPBDXZ 10008a60 f   as_scriptfunction.obj
 0001:00007a90       ?GetParamCount@asCScriptFunction@@UBEIXZ 10008a90 f   as_scriptfunction.obj
 0001:00007aa0       ?IsSignatureExceptNameAndReturnTypeEqual@asCScriptFunction@@QBE_NABV?$asCArray@VasCDataType@@@@ABV?$asCArray@W4asETypeModifiers@@@@PBVasCObjectType@@_N@Z 10008aa0 f   as_scriptfunction.obj
 0001:00007af0       ?IsSignatureExceptNameAndReturnTypeEqual@asCScriptFunction@@QBE_NPBV1@@Z 10008af0 f   as_scriptfunction.obj
 0001:00007b10       ?IsSignatureExceptNameEqual@asCScriptFunction@@QBE_NABVasCDataType@@ABV?$asCArray@VasCDataType@@@@ABV?$asCArray@W4asETypeModifiers@@@@PBVasCObjectType@@_N@Z 10008b10 f   as_scriptfunction.obj
 0001:00007b50       ?IsSignatureExceptNameEqual@asCScriptFunction@@QBE_NPBV1@@Z 10008b50 f   as_scriptfunction.obj
 0001:00007b70       ?GetObjectTypeOfLocalVar@asCScriptFunction@@QAEPAVasCObjectType@@F@Z 10008b70 f   as_scriptfunction.obj
 0001:00007bd0       ?GetVarCount@asCScriptFunction@@UBEIXZ 10008bd0 f   as_scriptfunction.obj
 0001:00007bf0       ?GetLineNumber@asCScriptFunction@@QAEHHPAH@Z 10008bf0 f   as_scriptfunction.obj
 0001:00007d20       ?DoesReturnOnStack@asCScriptFunction@@QBE_NXZ 10008d20 f   as_scriptfunction.obj
 0001:00007d40       ?Release@asCScriptFunction@@UBEHXZ 10008d40 f   as_scriptfunction.obj
 0001:00007d90       ?AddRef@asCScriptFunction@@UBEHXZ 10008d90 f   as_scriptfunction.obj
 0001:00007da0       ?EnumReferences@asCScriptFunction@@QAEXPAVasIScriptEngine@@@Z 10008da0 f   as_scriptfunction.obj
 0001:000080a0       ?GetConfigGroup@asCScriptFunction@@UBEPBDXZ 100090a0 f   as_scriptfunction.obj
 0001:000080d0       ?GetParamTypeId@asCScriptFunction@@UBEHIPAK@Z 100090d0 f   as_scriptfunction.obj
 0001:00008150       ?GetReturnTypeId@asCScriptFunction@@UBEHPAK@Z 10009150 f   as_scriptfunction.obj
 0001:000081a0       ?ReleaseReferences@asCScriptFunction@@QAEXXZ 100091a0 f   as_scriptfunction.obj
 0001:000085d0       ?AddReferences@asCScriptFunction@@QAEXXZ 100095d0 f   as_scriptfunction.obj
 0001:00008950       ?IsSignatureExceptNameAndObjectTypeEqual@asCScriptFunction@@QBE_NPBV1@@Z 10009950 f   as_scriptfunction.obj
 0001:00008970       ?IsSignatureEqual@asCScriptFunction@@QBE_NPBV1@@Z 10009970 f   as_scriptfunction.obj
 0001:000089a0       ?ComputeSignatureId@asCScriptFunction@@QAEXXZ 100099a0 f   as_scriptfunction.obj
 0001:00008a20       ?GetVar@asCScriptFunction@@UBEHIPAPBDPAH@Z 10009a20 f   as_scriptfunction.obj
 0001:00008ab0       ?FindNextLineWithCode@asCScriptFunction@@UBEHH@Z 10009ab0 f   as_scriptfunction.obj
 0001:00008d10       ?IsCompatibleWithTypeId@asCScriptFunction@@UBE_NH@Z 10009d10 f   as_scriptfunction.obj
 0001:00008d60       ?GetTypeId@asCScriptFunction@@UBEHXZ 10009d60 f   as_scriptfunction.obj
 0001:00008d80       ?ReleaseAllHandles@asCScriptFunction@@QAEXPAVasIScriptEngine@@@Z 10009d80 f   as_scriptfunction.obj
 0001:000090f0       ?AddVariable@asCScriptFunction@@QAEXAAVasCString@@AAVasCDataType@@H@Z 1000a0f0 f   as_scriptfunction.obj
 0001:00009160       ?GetSpaceNeededForArguments@asCScriptFunction@@QAEHXZ 1000a160 f   as_scriptfunction.obj
 0001:000091a0       ?DeallocateScriptFunctionData@asCScriptFunction@@QAEXXZ 1000a1a0 f   as_scriptfunction.obj
 0001:00009240       ?AllocateScriptFunctionData@asCScriptFunction@@QAEXXZ 1000a240 f   as_scriptfunction.obj
 0001:000092b0       ?MakeDelegate@asCScriptFunction@@QAEXPAV1@PAX@Z 1000a2b0 f   as_scriptfunction.obj
 0001:00009320       ?DestroyInternal@asCScriptFunction@@QAEXXZ 1000a320 f   as_scriptfunction.obj
 0001:00009440       ??1asCScriptFunction@@UAE@XZ 1000a440 f   as_scriptfunction.obj
 0001:00009500       ?GetVarDecl@asCScriptFunction@@UBEPBDI_N@Z 1000a500 f   as_scriptfunction.obj
 0001:00009610       ?GetDeclarationStr@asCScriptFunction@@QBE?AVasCString@@_N0@Z 1000a610 f   as_scriptfunction.obj
 0001:00009c10       ?GetDeclaration@asCScriptFunction@@UBEPBD_N0@Z 1000ac10 f   as_scriptfunction.obj
 0001:00009c90       ?Orphan@asCScriptFunction@@QAEXPAVasIScriptModule@@@Z 1000ac90 f   as_scriptfunction.obj
 0001:00009ce0       ??0asCScriptFunction@@QAE@PAVasCScriptEngine@@PAVasCModule@@W4asEFuncType@@@Z 1000ace0 f   as_scriptfunction.obj
 0001:00009e30       ?CreateDelegate@@YAPAVasCScriptFunction@@PAV1@PAX@Z 1000ae30 f   as_scriptfunction.obj
 0001:00009ed0       ?ParseListPattern@asCScriptFunction@@QAEHAAPAUasSListPatternNode@@PBDPAVasCScriptNode@@@Z 1000aed0 f   as_scriptfunction.obj
 0001:0000a120       ?RegisterListPattern@asCScriptFunction@@QAEHPBDPAVasCScriptNode@@@Z 1000b120 f   as_scriptfunction.obj
 0001:0000a1c0       ?RegisterScriptFunction@@YAXPAVasCScriptEngine@@@Z 1000b1c0 f   as_scriptfunction.obj
 0001:0000a490       ?SetFunctionUserDataCleanupCallback@asCScriptEngine@@UAEXP6AXPAVasIScriptFunction@@@Z@Z 1000b490 f   as_scriptengine.obj
 0001:0000a4a0       ?SetContextUserDataCleanupCallback@asCScriptEngine@@UAEXP6AXPAVasIScriptContext@@@Z@Z 1000b4a0 f   as_scriptengine.obj
 0001:0000a4b0       ?SetModuleUserDataCleanupCallback@asCScriptEngine@@UAEXP6AXPAVasIScriptModule@@@Z@Z 1000b4b0 f   as_scriptengine.obj
 0001:0000a4c0       ?SetDefaultAccessMask@asCScriptEngine@@UAEKK@Z 1000b4c0 f   as_scriptengine.obj
 0001:0000a4e0       ?EndConfigGroup@asCScriptEngine@@UAEHXZ 1000b4e0 f   as_scriptengine.obj
 0001:0000a500       ?CreateScriptObjectCopy@asCScriptEngine@@UAEPAXPAXPBVasIObjectType@@@Z 1000b500 f   as_scriptengine.obj
 0001:0000a540       ?CallFree@asCScriptEngine@@QBEXPAX@Z 1000b540 f   as_scriptengine.obj
 0001:0000a550       ?CallAlloc@asCScriptEngine@@QBEPAXPAVasCObjectType@@@Z 1000b550 f   as_scriptengine.obj
 0001:0000a570       ?RequestBuild@asCScriptEngine@@QAEHXZ 1000b570 f   as_scriptengine.obj
 0001:0000a5b0       ?GetModuleByIndex@asCScriptEngine@@UBEPAVasIScriptModule@@I@Z 1000b5b0 f   as_scriptengine.obj
 0001:0000a5e0       ?GetModuleCount@asCScriptEngine@@UBEIXZ 1000b5e0 f   as_scriptengine.obj
 0001:0000a5f0       ?GetJITCompiler@asCScriptEngine@@UBEPAVasIJITCompiler@@XZ 1000b5f0 f   as_scriptengine.obj
 0001:0000a600       ?SetJITCompiler@asCScriptEngine@@UAEHPAVasIJITCompiler@@@Z 1000b600 f   as_scriptengine.obj
 0001:0000a610       ?ClearMessageCallback@asCScriptEngine@@UAEHXZ 1000b610 f   as_scriptengine.obj
 0001:0000a620       ?GetDefaultNamespace@asCScriptEngine@@UBEPBDXZ 1000b620 f   as_scriptengine.obj
 0001:0000a630       ?GetEngineProperty@asCScriptEngine@@UBEIW4asEEngineProp@@@Z 1000b630 f   as_scriptengine.obj
 0001:0000a770       ?SetEngineProperty@asCScriptEngine@@UAEHW4asEEngineProp@@I@Z 1000b770 f   as_scriptengine.obj
 0001:0000a9a0       _asGetLibraryOptions       1000b9a0 f   as_scriptengine.obj
 0001:0000a9b0       _asGetLibraryVersion       1000b9b0 f   as_scriptengine.obj
 0001:0000a9c0       ?SetObjectTypeUserDataCleanupCallback@asCScriptEngine@@UAEXP6AXPAVasIObjectType@@@ZI@Z 1000b9c0 f   as_scriptengine.obj
 0001:0000aa60       ?SetEngineUserDataCleanupCallback@asCScriptEngine@@UAEXP6AXPAVasIScriptEngine@@@ZI@Z 1000ba60 f   as_scriptengine.obj
 0001:0000ab00       ?GetConstantString@asCScriptEngine@@QAEABVasCString@@H@Z 1000bb00 f   as_scriptengine.obj
 0001:0000ab10       ?GetObjectTypeByIndex@asCScriptEngine@@UBEPAVasIObjectType@@I@Z 1000bb10 f   as_scriptengine.obj
 0001:0000ab40       ?GetObjectTypeCount@asCScriptEngine@@UBEIXZ 1000bb40 f   as_scriptengine.obj
 0001:0000ab50       ?GetEnumCount@asCScriptEngine@@UBEIXZ 1000bb50 f   as_scriptengine.obj
 0001:0000ab60       ?GetTypedefCount@asCScriptEngine@@UBEIXZ 1000bb60 f   as_scriptengine.obj
 0001:0000ab70       ?GetFuncdefByIndex@asCScriptEngine@@UBEPAVasIScriptFunction@@I@Z 1000bb70 f   as_scriptengine.obj
 0001:0000aba0       ?GetFuncdefCount@asCScriptEngine@@UBEIXZ 1000bba0 f   as_scriptengine.obj
 0001:0000abb0       ?GetNextScriptFunctionId@asCScriptEngine@@QAEHXZ 1000bbb0 f   as_scriptengine.obj
 0001:0000abf0       ?FindConfigGroupForFuncDef@asCScriptEngine@@QBEPAVasCConfigGroup@@PBVasCScriptFunction@@@Z 1000bbf0 f   as_scriptengine.obj
 0001:0000ac50       ?FindConfigGroupForObjectType@asCScriptEngine@@QBEPAVasCConfigGroup@@PBVasCObjectType@@@Z 1000bc50 f   as_scriptengine.obj
 0001:0000ace0       ?FindConfigGroupForGlobalVar@asCScriptEngine@@QBEPAVasCConfigGroup@@H@Z 1000bce0 f   as_scriptengine.obj
 0001:0000ad70       ?FindConfigGroupForFunction@asCScriptEngine@@QBEPAVasCConfigGroup@@H@Z 1000bd70 f   as_scriptengine.obj
 0001:0000ae00       ?RemoveFromTypeIdMap@asCScriptEngine@@QAEXPAVasCObjectType@@@Z 1000be00 f   as_scriptengine.obj
 0001:0000ae80       ?GetDataTypeFromTypeId@asCScriptEngine@@QBE?AVasCDataType@@H@Z 1000be80 f   as_scriptengine.obj
 0001:0000af20       ?GetTypeIdFromDataType@asCScriptEngine@@QBEHABVasCDataType@@@Z 1000bf20 f   as_scriptengine.obj
 0001:0000b0c0       ?GetGCStatistics@asCScriptEngine@@UBEXPAI0000@Z 1000c0c0 f   as_scriptengine.obj
 0001:0000b0f0       ?GetObjectInGC@asCScriptEngine@@UAEHIPAIPAPAXPAPAVasIObjectType@@@Z 1000c0f0 f   as_scriptengine.obj
 0001:0000b120       ?GetStringFactoryReturnTypeId@asCScriptEngine@@UBEHXZ 1000c120 f   as_scriptengine.obj
 0001:0000b140       ?GetGlobalFunctionByIndex@asCScriptEngine@@UBEPAVasIScriptFunction@@I@Z 1000c140 f   as_scriptengine.obj
 0001:0000b170       ?GetGlobalFunctionCount@asCScriptEngine@@UBEIXZ 1000c170 f   as_scriptengine.obj
 0001:0000b180       ?GetGlobalPropertyCount@asCScriptEngine@@UBEIXZ 1000c180 f   as_scriptengine.obj
 0001:0000b190       ?GetScriptFunction@asCScriptEngine@@QBEPAVasCScriptFunction@@H@Z 1000c190 f   as_scriptengine.obj
 0001:0000b1c0       ?RemoveTypeAndRelatedFromList@asCScriptEngine@@QAEXAAV?$asCArray@PAVasCObjectType@@@@PAVasCObjectType@@@Z 1000c1c0 f   as_scriptengine.obj
 0001:0000b280       ?ParseToken@asCScriptEngine@@UBE?AW4asETokenClass@@PBDIPAH@Z 1000c280 f   as_scriptengine.obj
 0001:0000b2d0       ?SetMessageCallback@asCScriptEngine@@UAEHABUasSFuncPtr@@PAXK@Z 1000c2d0 f   as_scriptengine.obj
 0001:0000b350       ?GetUserData@asCScriptEngine@@UBEPAXI@Z 1000c350 f   as_scriptengine.obj
 0001:0000b3d0       ?Release@asCScriptEngine@@UBEHXZ 1000c3d0 f   as_scriptengine.obj
 0001:0000b400       ?AddRef@asCScriptEngine@@UBEHXZ 1000c400 f   as_scriptengine.obj
 0001:0000b410       ?IsTemplateType@asCScriptEngine@@QBE_NPBD@Z 1000c410 f   as_scriptengine.obj
 0001:0000b490       ?GetFuncDefFromTypeId@asCScriptEngine@@UBEPAVasIScriptFunction@@H@Z 1000c490 f   as_scriptengine.obj
 0001:0000b4c0       ?GetFunctionById@asCScriptEngine@@UBEPAVasIScriptFunction@@H@Z 1000c4c0 f   as_scriptengine.obj
 0001:0000b4d0       ?GetObjectTypeById@asCScriptEngine@@UBEPAVasIObjectType@@H@Z 1000c4d0 f   as_scriptengine.obj
 0001:0000b530       ?GetObjectTypeByName@asCScriptEngine@@UBEPAVasIObjectType@@PBD@Z 1000c530 f   as_scriptengine.obj
 0001:0000b5b0       ?GetEnumValueByIndex@asCScriptEngine@@UBEPBDHIPAH@Z 1000c5b0 f   as_scriptengine.obj
 0001:0000b630       ?GetEnumValueCount@asCScriptEngine@@UBEHH@Z 1000c630 f   as_scriptengine.obj
 0001:0000b680       ?GetEnumByIndex@asCScriptEngine@@UBEPBDIPAHPAPBD1PAK@Z 1000c680 f   as_scriptengine.obj
 0001:0000b760       ?GetTypedefByIndex@asCScriptEngine@@UBEPBDIPAHPAPBD1PAK@Z 1000c760 f   as_scriptengine.obj
 0001:0000b830       ?FreeScriptFunctionId@asCScriptEngine@@QAEXH@Z 1000c830 f   as_scriptengine.obj
 0001:0000b950       ?SetScriptFunction@asCScriptEngine@@QAEXPAVasCScriptFunction@@@Z 1000c950 f   as_scriptengine.obj
 0001:0000b9d0       ?IsHandleCompatibleWithObject@asCScriptEngine@@UBE_NPAXHH@Z 1000c9d0 f   as_scriptengine.obj
 0001:0000ba70       ?GetSizeOfPrimitiveType@asCScriptEngine@@UBEHH@Z 1000ca70 f   as_scriptengine.obj
 0001:0000bab0       ?GetObjectTypeFromTypeId@asCScriptEngine@@QBEPAVasCObjectType@@H@Z 1000cab0 f   as_scriptengine.obj
 0001:0000bad0       ?GCEnumCallback@asCScriptEngine@@UAEXPAX@Z 1000cad0 f   as_scriptengine.obj
 0001:0000bae0       ?CallGlobalFunctionRetBool@asCScriptEngine@@QBE_NPAX0PAUasSSystemFunctionInterface@@PAVasCScriptFunction@@@Z 1000cae0 f   as_scriptengine.obj
 0001:0000bb90       ?CallGlobalFunction@asCScriptEngine@@QBEXPAX0PAUasSSystemFunctionInterface@@PAVasCScriptFunction@@@Z 1000cb90 f   as_scriptengine.obj
 0001:0000bc30       ?CallObjectMethod@asCScriptEngine@@QBEXPAX0PAUasSSystemFunctionInterface@@PAVasCScriptFunction@@@Z 1000cc30 f   as_scriptengine.obj
 0001:0000bcf0       ?CallObjectMethod@asCScriptEngine@@QBEXPAX0H@Z 1000ccf0 f   as_scriptengine.obj
 0001:0000bd20       ?CallGlobalFunctionRetPtr@asCScriptEngine@@QBEPAXPAUasSSystemFunctionInterface@@PAVasCScriptFunction@@PAX@Z 1000cd20 f   as_scriptengine.obj
 0001:0000bdd0       ?CallGlobalFunctionRetPtr@asCScriptEngine@@QBEPAXPAUasSSystemFunctionInterface@@PAVasCScriptFunction@@@Z 1000cdd0 f   as_scriptengine.obj
 0001:0000be60       ?CallGlobalFunctionRetPtr@asCScriptEngine@@QBEPAXHPAX@Z 1000ce60 f   as_scriptengine.obj
 0001:0000be90       ?CallGlobalFunctionRetPtr@asCScriptEngine@@QBEPAXH@Z 1000ce90 f   as_scriptengine.obj
 0001:0000beb0       ?CallObjectMethodRetPtr@asCScriptEngine@@QBEPAXPAXH@Z 1000ceb0 f   as_scriptengine.obj
 0001:0000bf60       ?CallObjectMethodRetInt@asCScriptEngine@@QBEHPAXH@Z 1000cf60 f   as_scriptengine.obj
 0001:0000c010       ?CallObjectMethodRetBool@asCScriptEngine@@QBE_NPAXH@Z 1000d010 f   as_scriptengine.obj
 0001:0000c0c0       ?CallObjectMethod@asCScriptEngine@@QBEXPAXPAUasSSystemFunctionInterface@@PAVasCScriptFunction@@@Z 1000d0c0 f   as_scriptengine.obj
 0001:0000c160       ?CallObjectMethod@asCScriptEngine@@QBEXPAXH@Z 1000d160 f   as_scriptengine.obj
 0001:0000c190       ?DetermineTypeForTemplate@asCScriptEngine@@QAE?AVasCDataType@@ABV2@PAVasCObjectType@@1@Z 1000d190 f   as_scriptengine.obj
 0001:0000c340       ?GetWeakRefFlagOfScriptObject@asCScriptEngine@@UBEPAVasILockableSharedBool@@PAXPBVasIObjectType@@@Z 1000d340 f   as_scriptengine.obj
 0001:0000c370       ?GetDefaultArrayTypeId@asCScriptEngine@@UBEHXZ 1000d370 f   as_scriptengine.obj
 0001:0000c3b0       ?GetObjectType@asCScriptEngine@@QBEPAVasCObjectType@@PBDPAUasSNameSpace@@@Z 1000d3b0 f   as_scriptengine.obj
 0001:0000c430       ?FreeUnusedGlobalProperties@asCScriptEngine@@QAEXXZ 1000d430 f   as_scriptengine.obj
 0001:0000c530       ?WriteMessage@asCScriptEngine@@UAEHPBDHHW4asEMsgType@@0@Z 1000d530 f   as_scriptengine.obj
 0001:0000c5c0       ?SetUserData@asCScriptEngine@@UAEPAXPAXI@Z 1000d5c0 f   as_scriptengine.obj
 0001:0000c660       ?FindNameSpace@asCScriptEngine@@QAEPAUasSNameSpace@@PBD@Z 1000d660 f   as_scriptengine.obj
 0001:0000c6c0       ?DestroySubList@asCScriptEngine@@QAEXAAPAEAAPAUasSListPatternNode@@@Z 1000d6c0 f   as_scriptengine.obj
 0001:0000c8b0       ?DestroyList@asCScriptEngine@@QAEXPAEPBVasCObjectType@@@Z 1000d8b0 f   as_scriptengine.obj
 0001:0000c900       ?GetScriptSectionNameIndex@asCScriptEngine@@QAEHPBD@Z 1000d900 f   as_scriptengine.obj
 0001:0000c9d0       ?AddConstantString@asCScriptEngine@@QAEHPBDI@Z 1000d9d0 f   as_scriptengine.obj
 0001:0000cae0       ?BeginConfigGroup@asCScriptEngine@@UAEHPBD@Z 1000dae0 f   as_scriptengine.obj
 0001:0000cba0       ?ReleaseScriptObject@asCScriptEngine@@UAEXPAXPBVasIObjectType@@@Z 1000dba0 f   as_scriptengine.obj
 0001:0000cc10       ?AddRefScriptObject@asCScriptEngine@@UAEXPAXPBVasIObjectType@@@Z 1000dc10 f   as_scriptengine.obj
 0001:0000cc40       ?AssignScriptObject@asCScriptEngine@@UAEXPAX0PBVasIObjectType@@@Z 1000dc40 f   as_scriptengine.obj
 0001:0000cce0       ?ConstructScriptObjectCopy@asCScriptEngine@@QAEXPAX0PAVasCObjectType@@@Z 1000dce0 f   as_scriptengine.obj
 0001:0000cd10       ?RemoveTemplateInstanceType@asCScriptEngine@@QAEXPAVasCObjectType@@@Z 1000dd10 f   as_scriptengine.obj
 0001:0000cf30       ?BuildCompleted@asCScriptEngine@@QAEXXZ 1000df30 f   as_scriptengine.obj
 0001:0000cf50       ?ConfigError@asCScriptEngine@@QAEHHPBD00@Z 1000df50 f   as_scriptengine.obj
 0001:0000d020       ?GetGlobalPropertyByIndex@asCScriptEngine@@UBEHIPAPBD0PAHPA_N0PAPAXPAK@Z 1000e020 f   as_scriptengine.obj
 0001:0000d0e0       ?AllocateGlobalProperty@asCScriptEngine@@QAEPAVasCGlobalProperty@@XZ 1000e0e0 f   as_scriptengine.obj
 0001:0000d160       ?ClearUnusedTypes@asCScriptEngine@@QAEHXZ 1000e160 f   as_scriptengine.obj
 0001:0000d5d0       ?AddNameSpace@asCScriptEngine@@QAEPAUasSNameSpace@@PBD@Z 1000e5d0 f   as_scriptengine.obj
 0001:0000d630       ?CleanupAfterDiscardModule@asCScriptEngine@@QAEXXZ 1000e630 f   as_scriptengine.obj
 0001:0000d660       ?GetListPatternType@asCScriptEngine@@QAEPAVasCObjectType@@H@Z 1000e660 f   as_scriptengine.obj
 0001:0000d750       ?SetDefaultNamespace@asCScriptEngine@@UAEHPBD@Z 1000e750 f   as_scriptengine.obj
 0001:0000d8d0       ?GetTypeDeclaration@asCScriptEngine@@UBEPBDH_N@Z 1000e8d0 f   as_scriptengine.obj
 0001:0000d960       ?GetGlobalPropertyIndexByName@asCScriptEngine@@UBEHPBD@Z 1000e960 f   as_scriptengine.obj
 0001:0000d9e0       ?GetFunctionDeclaration@asCScriptEngine@@QAE?AVasCString@@H@Z 1000e9e0 f   as_scriptengine.obj
 0001:0000da70       ?RegisterTypedef@asCScriptEngine@@UAEHPBD0@Z 1000ea70 f   as_scriptengine.obj
 0001:0000ddf0       ?RemoveConfigGroup@asCScriptEngine@@UAEHPBD@Z 1000edf0 f   as_scriptengine.obj
 0001:0000dec0       ?GetModule@asCScriptEngine@@QAEPAVasCModule@@PBD_N@Z 1000eec0 f   as_scriptengine.obj
 0001:0000e000       ?PrepareEngine@asCScriptEngine@@QAEXXZ 1000f000 f   as_scriptengine.obj
 0001:0000e3d0       ?CreateContext@asCScriptEngine@@QAEHPAPAVasIScriptContext@@_N@Z 1000f3d0 f   as_scriptengine.obj
 0001:0000e460       ?CreateContext@asCScriptEngine@@UAEPAVasIScriptContext@@XZ 1000f460 f   as_scriptengine.obj
 0001:0000e480       ?DiscardModule@asCScriptEngine@@UAEHPBD@Z 1000f480 f   as_scriptengine.obj
 0001:0000e4b0       ?GetModule@asCScriptEngine@@UAEPAVasIScriptModule@@PBDW4asEGMFlags@@@Z 1000f4b0 f   as_scriptengine.obj
 0001:0000e500       ?CreateScriptObject@asCScriptEngine@@UAEPAXPBVasIObjectType@@@Z 1000f500 f   as_scriptengine.obj
 0001:0000e6a0       ?CreateUninitializedScriptObject@asCScriptEngine@@UAEPAXPBVasIObjectType@@@Z 1000f6a0 f   as_scriptengine.obj
 0001:0000e6e0       ?GarbageCollect@asCScriptEngine@@UAEHK@Z 1000f6e0 f   as_scriptengine.obj
 0001:0000e700       ?NotifyGarbageCollectorOfNewObject@asCScriptEngine@@UAEHPAXPAVasIObjectType@@@Z 1000f700 f   as_scriptengine.obj
 0001:0000e720       ?GenerateNewTemplateFunction@asCScriptEngine@@QAE_NPAVasCObjectType@@0PAVasCScriptFunction@@PAPAV3@@Z 1000f720 f   as_scriptengine.obj
 0001:0000e960       ?GenerateTemplateFactoryStub@asCScriptEngine@@QAEPAVasCScriptFunction@@PAVasCObjectType@@0H@Z 1000f960 f   as_scriptengine.obj
 0001:0000ec00       ?GetTemplateInstanceType@asCScriptEngine@@QAEPAVasCObjectType@@PAV2@AAV?$asCArray@VasCDataType@@@@@Z 1000fc00 f   as_scriptengine.obj
 0001:0000f3f0       ?OrphanTemplateInstances@asCScriptEngine@@QAEXPAVasCObjectType@@@Z 100103f0 f   as_scriptengine.obj
 0001:0000f500       ?AddBehaviourFunction@asCScriptEngine@@QAEHAAVasCScriptFunction@@AAUasSSystemFunctionInterface@@@Z 10010500 f   as_scriptengine.obj
 0001:0000f750       ??1asCScriptEngine@@UAE@XZ 10010750 f   as_scriptengine.obj
 0001:000103f0       ?CreateDelegate@asCScriptEngine@@UAEPAVasIScriptFunction@@PAV2@PAX@Z 100113f0 f   as_scriptengine.obj
 0001:00010450       ?RegisterEnumValue@asCScriptEngine@@UAEHPBD0H@Z 10011450 f   as_scriptengine.obj
 0001:000106a0       ?RegisterEnum@asCScriptEngine@@UAEHPBD@Z 100116a0 f   as_scriptengine.obj
 0001:00010980       ?RegisterFuncdef@asCScriptEngine@@UAEHPBD@Z 10011980 f   as_scriptengine.obj
 0001:00010c10       ?GetTypeIdByDecl@asCScriptEngine@@UBEHPBD@Z 10011c10 f   as_scriptengine.obj
 0001:00010cf0       ?RegisterStringFactory@asCScriptEngine@@UAEHPBDABUasSFuncPtr@@KPAX@Z 10011cf0 f   as_scriptengine.obj
 0001:00010fe0       ?RegisterDefaultArrayType@asCScriptEngine@@UAEHPBD@Z 10011fe0 f   as_scriptengine.obj
 0001:00011100       ?GetGlobalFunctionByDecl@asCScriptEngine@@UBEPAVasIScriptFunction@@PBD@Z 10012100 f   as_scriptengine.obj
 0001:000113c0       ?RegisterGlobalFunction@asCScriptEngine@@UAEHPBDABUasSFuncPtr@@KPAX@Z 100123c0 f   as_scriptengine.obj
 0001:000117c0       ?RegisterMethodToObjectType@asCScriptEngine@@QAEHPAVasCObjectType@@PBDABUasSFuncPtr@@K@Z 100127c0 f   as_scriptengine.obj
 0001:00011d90       ?RegisterObjectMethod@asCScriptEngine@@UAEHPBD0ABUasSFuncPtr@@K@Z 10012d90 f   as_scriptengine.obj
 0001:00011ef0       ?GetGlobalPropertyIndexByDecl@asCScriptEngine@@UBEHPBD@Z 10012ef0 f   as_scriptengine.obj
 0001:00012050       ?RegisterGlobalProperty@asCScriptEngine@@UAEHPBDPAX@Z 10013050 f   as_scriptengine.obj
 0001:00012250       ?RegisterBehaviourToObjectType@asCScriptEngine@@QAEHPAVasCObjectType@@W4asEBehaviours@@PBDABUasSFuncPtr@@KPAX@Z 10013250 f   as_scriptengine.obj
 0001:00013370       ?RegisterObjectBehaviour@asCScriptEngine@@UAEHPBDW4asEBehaviours@@0ABUasSFuncPtr@@KPAX@Z 10014370 f   as_scriptengine.obj
 0001:00013510       ?RegisterObjectType@asCScriptEngine@@UAEHPBDHK@Z 10014510 f   as_scriptengine.obj
 0001:00013ed0       ?RegisterInterfaceMethod@asCScriptEngine@@UAEHPBD0@Z 10014ed0 f   as_scriptengine.obj
 0001:00014160       ?RegisterInterface@asCScriptEngine@@UAEHPBD@Z 10015160 f   as_scriptengine.obj
 0001:00014490       ?RegisterObjectProperty@asCScriptEngine@@UAEHPBD0H@Z 10015490 f   as_scriptengine.obj
 0001:00014740       ?GetMethodIdByDecl@asCScriptEngine@@QAEHPBVasCObjectType@@PBDPAVasCModule@@@Z 10015740 f   as_scriptengine.obj
 0001:00014970       ?GetFactoryIdByDecl@asCScriptEngine@@QAEHPBVasCObjectType@@PBD@Z 10015970 f   as_scriptengine.obj
 0001:00014b70       ??0asCScriptEngine@@QAE@XZ 10015b70 f   as_scriptengine.obj
 0001:00015010       _asCreateScriptEngine      10016010 f   as_scriptengine.obj
 0001:00015070       ?TokenEquals@asCScriptCode@@QAE_NIIPBD@Z 10016070 f   as_scriptcode.obj
 0001:000150b0       ?ConvertPosToRowCol@asCScriptCode@@QAEXIPAH0@Z 100160b0 f   as_scriptcode.obj
 0001:00015190       ??1asCScriptCode@@QAE@XZ   10016190 f   as_scriptcode.obj
 0001:00015200       ??0asCScriptCode@@QAE@XZ   10016200 f   as_scriptcode.obj
 0001:00015220       ?SetCode@asCScriptCode@@QAEHPBD0I_N@Z 10016220 f   as_scriptcode.obj
 0001:00015320       ?SetCode@asCScriptCode@@QAEHPBD0_N@Z 10016320 f   as_scriptcode.obj
 0001:00015330       ?SetNextType@SListAdjuster@asCWriter@@QAEXH@Z 10016330 f   as_restore.obj
 0001:00015340       ?SetRepeatCount@SListAdjuster@asCWriter@@QAEXI@Z 10016340 f   as_restore.obj
 0001:00015360       ?WriteData@asCWriter@@IAEXPBXI@Z 10016360 f   as_restore.obj
 0001:00015380       ?SetNextType@SListAdjuster@asCReader@@QAEXH@Z 10016380 f   as_restore.obj
 0001:00015390       ?AdjustAllocMem@SListAdjuster@asCReader@@QAEXXZ 10016390 f   as_restore.obj
 0001:000153a0       ?SetRepeatCount@SListAdjuster@asCReader@@QAEXI@Z 100163a0 f   as_restore.obj
 0001:000153c0       ?FindObjectPropOffset@asCReader@@IAEFG@Z 100163c0 f   as_restore.obj
 0001:000153f0       ?ReadData@asCReader@@IAEXPAXI@Z 100163f0 f   as_restore.obj
 0001:00015410       ?AdjustOffset@SListAdjuster@asCWriter@@QAEHHPAVasCObjectType@@@Z 10016410 f   as_restore.obj
 0001:00015520       ??0SListAdjuster@asCWriter@@QAE@PAVasCObjectType@@@Z 10016520 f   as_restore.obj
 0001:00015580       ?AdjustStackPosition@asCWriter@@IAEHH@Z 10016580 f   as_restore.obj
 0001:000155e0       ?WriteEncodedInt64@asCWriter@@IAEX_J@Z 100165e0 f   as_restore.obj
 0001:000158f0       ?FindObjectType@asCReader@@IAEPAVasCObjectType@@H@Z 100168f0 f   as_restore.obj
 0001:00015920       ?FindTypeId@asCReader@@IAEHH@Z 10016920 f   as_restore.obj
 0001:00015950       ?AdjustStackPosition@asCReader@@IAEHH@Z 10016950 f   as_restore.obj
 0001:000159f0       ?AdjustOffset@SListAdjuster@asCReader@@QAEHHPAVasCObjectType@@@Z 100169f0 f   as_restore.obj
 0001:00015bb0       ??0SListAdjuster@asCReader@@QAE@PAKPAVasCObjectType@@@Z 10016bb0 f   as_restore.obj
 0001:00015c10       ?FindFunction@asCReader@@IAEPAVasCScriptFunction@@H@Z 10016c10 f   as_restore.obj
 0001:00015c40       ?ReadEncodedUInt64@asCReader@@IAE_KXZ 10016c40 f   as_restore.obj
 0001:00016000       ?ReadEncodedUInt@asCReader@@IAEIXZ 10017000 f   as_restore.obj
 0001:00016020       ?ReadEncodedUInt16@asCReader@@IAEGXZ 10017020 f   as_restore.obj
 0001:00016040       ?FindObjectTypeIdx@asCWriter@@IAEHPAVasCObjectType@@@Z 10017040 f   as_restore.obj
 0001:000160a0       ?FindTypeIdIdx@asCWriter@@IAEHH@Z 100170a0 f   as_restore.obj
 0001:00016100       ?FindFunctionIndex@asCWriter@@IAEHPAVasCScriptFunction@@@Z 10017100 f   as_restore.obj
 0001:00016160       ?FindObjectPropIndex@asCWriter@@IAEHFH@Z 10017160 f   as_restore.obj
 0001:000161f0       ?FindGlobalPropPtrIndex@asCWriter@@IAEHPAX@Z 100171f0 f   as_restore.obj
 0001:00016220       ?FindStringConstantIndex@asCWriter@@IAEHH@Z 10017220 f   as_restore.obj
 0001:00016290       ?ReadByteCode@asCReader@@IAEXPAVasCScriptFunction@@@Z 10017290 f   as_restore.obj
 0001:00016640       ?AdjustGetOffset@asCWriter@@IAEHHPAVasCScriptFunction@@K@Z 10017640 f   as_restore.obj
 0001:00016880       ?CalculateAdjustmentByPos@asCWriter@@IAEXPAVasCScriptFunction@@@Z 10017880 f   as_restore.obj
 0001:00016c10       ?GetCalledFunction@asCReader@@IAEPAVasCScriptFunction@@PAV2@K@Z 10017c10 f   as_restore.obj
 0001:00016d80       ?CalculateAdjustmentByPos@asCReader@@IAEXPAVasCScriptFunction@@@Z 10017d80 f   as_restore.obj
 0001:000170d0       ?CalculateStackNeeded@asCReader@@IAEXPAVasCScriptFunction@@@Z 100180d0 f   as_restore.obj
 0001:00017420       ?WriteByteCode@asCWriter@@IAEXPAVasCScriptFunction@@@Z 10018420 f   as_restore.obj
 0001:00017d50       ??0asCWriter@@QAE@PAVasCModule@@PAVasIBinaryStream@@PAVasCScriptEngine@@_N@Z 10018d50 f   as_restore.obj
 0001:00017e00       ?AdjustGetOffset@asCReader@@IAEHHPAVasCScriptFunction@@K@Z 10018e00 f   as_restore.obj
 0001:00017f30       ?TranslateFunction@asCReader@@IAEXPAVasCScriptFunction@@@Z 10018f30 f   as_restore.obj
 0001:00018a10       ??0asCReader@@QAE@PAVasCModule@@PAVasIBinaryStream@@PAVasCScriptEngine@@@Z 10019a10 f   as_restore.obj
 0001:00018ab0       ?WriteString@asCWriter@@IAEXPAVasCString@@@Z 10019ab0 f   as_restore.obj
 0001:00018bc0       ?WriteFunctionSignature@asCWriter@@IAEXPAVasCScriptFunction@@@Z 10019bc0 f   as_restore.obj
 0001:00018d30       ?WriteUsedFunctions@asCWriter@@IAEXXZ 10019d30 f   as_restore.obj
 0001:00018dd0       ?WriteUsedStringConstants@asCWriter@@IAEXXZ 10019dd0 f   as_restore.obj
 0001:00018e20       ?ReadString@asCReader@@IAEXPAVasCString@@@Z 10019e20 f   as_restore.obj
 0001:00018ed0       ?ReadFunctionSignature@asCReader@@IAEXPAVasCScriptFunction@@@Z 10019ed0 f   as_restore.obj
 0001:000191e0       ?ReadUsedStringConstants@asCReader@@IAEXXZ 1001a1e0 f   as_restore.obj
 0001:00019290       ?WriteDataType@asCWriter@@IAEXPBVasCDataType@@@Z 1001a290 f   as_restore.obj
 0001:000193c0       ?WriteObjectProperty@asCWriter@@IAEXPAVasCObjectProperty@@@Z 1001a3c0 f   as_restore.obj
 0001:000193f0       ?WriteUsedGlobalProps@asCWriter@@IAEXXZ 1001a3f0 f   as_restore.obj
 0001:00019530       ?WriteUsedTypeIds@asCWriter@@IAEXXZ 1001a530 f   as_restore.obj
 0001:00019590       ?WriteObjectType@asCWriter@@IAEXPAVasCObjectType@@@Z 1001a590 f   as_restore.obj
 0001:00019750       ?WriteFunction@asCWriter@@IAEXPAVasCScriptFunction@@@Z 1001a750 f   as_restore.obj
 0001:00019c40       ?WriteUsedObjectProps@asCWriter@@IAEXXZ 1001ac40 f   as_restore.obj
 0001:00019d00       ?WriteGlobalProperty@asCWriter@@IAEXPAVasCGlobalProperty@@@Z 1001ad00 f   as_restore.obj
 0001:00019d70       ?WriteObjectTypeDeclaration@asCWriter@@IAEXPAVasCObjectType@@H@Z 1001ad70 f   as_restore.obj
 0001:0001a080       ?Write@asCWriter@@QAEHXZ   1001b080 f   as_restore.obj
 0001:0001a4b0       ?ReadDataType@asCReader@@IAEXPAVasCDataType@@@Z 1001b4b0 f   as_restore.obj
 0001:0001a770       ?ReadObjectProperty@asCReader@@IAEXPAVasCObjectType@@@Z 1001b770 f   as_restore.obj
 0001:0001a820       ?ReadUsedFunctions@asCReader@@IAEXXZ 1001b820 f   as_restore.obj
 0001:0001aa50       ?ReadUsedGlobalProps@asCReader@@IAEXXZ 1001ba50 f   as_restore.obj
 0001:0001aba0       ?ReadUsedTypeIds@asCReader@@IAEXXZ 1001bba0 f   as_restore.obj
 0001:0001ac00       ?ReadObjectType@asCReader@@IAEPAVasCObjectType@@XZ 1001bc00 f   as_restore.obj
 0001:0001b220       ?ReadFunction@asCReader@@IAEPAVasCScriptFunction@@AA_N_N11@Z 1001c220 f   as_restore.obj
 0001:0001b750       ?ReadUsedObjectProps@asCReader@@IAEXXZ 1001c750 f   as_restore.obj
 0001:0001b890       ?ReadGlobalProperty@asCReader@@IAEXXZ 1001c890 f   as_restore.obj
 0001:0001b9a0       ?ReadObjectTypeDeclaration@asCReader@@IAEXPAVasCObjectType@@H@Z 1001c9a0 f   as_restore.obj
 0001:0001c910       ?ReadInner@asCReader@@IAEHXZ 1001d910 f   as_restore.obj
 0001:0001d780       ?Read@asCReader@@QAEHPA_N@Z 1001e780 f   as_restore.obj
 0001:0001d8e0       ?IsConstant@asCParser@@IAE_NH@Z 1001e8e0 f   as_parser.obj
 0001:0001d920       ?IsPostOperator@asCParser@@IAE_NH@Z 1001e920 f   as_parser.obj
 0001:0001d940       ?IsPreOperator@asCParser@@IAE_NH@Z 1001e940 f   as_parser.obj
 0001:0001d970       ?IsAssignOperator@asCParser@@IAE_NH@Z 1001e970 f   as_parser.obj
 0001:0001d9c0       ?IsOperator@asCParser@@IAE_NH@Z 1001e9c0 f   as_parser.obj
 0001:0001da40       ?IdentifierIs@asCParser@@IAE_NABUsToken@@PBD@Z 1001ea40 f   as_parser.obj
 0001:0001da60       ?IsRealType@asCParser@@IAE_NH@Z 1001ea60 f   as_parser.obj
 0001:0001dab0       ?RewindTo@asCParser@@IAEXPBUsToken@@@Z 1001eab0 f   as_parser.obj
 0001:0001dad0       ?SetPos@asCParser@@IAEXI@Z 1001ead0 f   as_parser.obj
 0001:0001dae0       ?GetScriptNode@asCParser@@QAEPAVasCScriptNode@@XZ 1001eae0 f   as_parser.obj
 0001:0001daf0       ??0asCParser@@QAE@PAVasCBuilder@@@Z 1001eaf0 f   as_parser.obj
 0001:0001db20       ?GetToken@asCParser@@IAEXPAUsToken@@@Z 1001eb20 f   as_parser.obj
 0001:0001dbd0       ?CreateNode@asCParser@@IAEPAVasCScriptNode@@W4eScriptNode@@@Z 1001ebd0 f   as_parser.obj
 0001:0001dc00       ?ExpectedOneOf@asCParser@@IAE?AVasCString@@PAPBDH@Z 1001ec00 f   as_parser.obj
 0001:0001dc90       ?ExpectedOneOf@asCParser@@IAE?AVasCString@@PAHH@Z 1001ec90 f   as_parser.obj
 0001:0001dd20       ?ExpectedTokens@asCParser@@IAE?AVasCString@@PBD0@Z 1001ed20 f   as_parser.obj
 0001:0001dd80       ?ExpectedToken@asCParser@@IAE?AVasCString@@PBD@Z 1001ed80 f   as_parser.obj
 0001:0001dde0       ?IsDataType@asCParser@@IAE_NABUsToken@@@Z 1001ede0 f   as_parser.obj
 0001:0001de60       ?Reset@asCParser@@IAEXXZ   1001ee60 f   as_parser.obj
 0001:0001de90       ??1asCParser@@QAE@XZ       1001ee90 f   as_parser.obj
 0001:0001dee0       ?IsFunctionCall@asCParser@@IAE_NXZ 1001eee0 f   as_parser.obj
 0001:0001dfa0       ?CheckTemplateType@asCParser@@IAE_NAAUsToken@@@Z 1001efa0 f   as_parser.obj
 0001:0001e0c0       ?Info@asCParser@@IAEXABVasCString@@PAUsToken@@@Z 1001f0c0 f   as_parser.obj
 0001:0001e120       ?IsFuncDecl@asCParser@@IAE_N_N@Z 1001f120 f   as_parser.obj
 0001:0001e380       ?IsVirtualPropertyDecl@asCParser@@IAE_NXZ 1001f380 f   as_parser.obj
 0001:0001e470       ?IsVarDecl@asCParser@@IAE_NXZ 1001f470 f   as_parser.obj
 0001:0001e640       ?Error@asCParser@@IAEXABVasCString@@PAUsToken@@@Z 1001f640 f   as_parser.obj
 0001:0001e6a0       ?SuperficiallyParseExpression@asCParser@@IAEPAVasCScriptNode@@XZ 1001f6a0 f   as_parser.obj
 0001:0001ea10       ?ParseIdentifier@asCParser@@IAEPAVasCScriptNode@@XZ 1001fa10 f   as_parser.obj
 0001:0001eae0       ?ParseRealType@asCParser@@IAEPAVasCScriptNode@@XZ 1001fae0 f   as_parser.obj
 0001:0001ebb0       ?ParseDataType@asCParser@@IAEPAVasCScriptNode@@_N@Z 1001fbb0 f   as_parser.obj
 0001:0001ed00       ?ParseOneOf@asCParser@@IAEPAVasCScriptNode@@PAHH@Z 1001fd00 f   as_parser.obj
 0001:0001ede0       ?ParseToken@asCParser@@IAEPAVasCScriptNode@@H@Z 1001fde0 f   as_parser.obj
 0001:0001eeb0       ?ParseTypeMod@asCParser@@IAEPAVasCScriptNode@@_N@Z 1001feb0 f   as_parser.obj
 0001:0001efa0       ?ParseOptionalScope@asCParser@@IAEXPAVasCScriptNode@@@Z 1001ffa0 f   as_parser.obj
 0001:0001f060       ?ParseTemplateDecl@asCParser@@QAEHPAVasCScriptCode@@@Z 10020060 f   as_parser.obj
 0001:0001f230       ?ParseMethodOverrideBehaviors@asCParser@@IAEXPAVasCScriptNode@@@Z 10020230 f   as_parser.obj
 0001:0001f2a0       ?ParseTypedef@asCParser@@IAEPAVasCScriptNode@@XZ 100202a0 f   as_parser.obj
 0001:0001f420       ?ParseContinue@asCParser@@IAEPAVasCScriptNode@@XZ 10020420 f   as_parser.obj
 0001:0001f530       ?ParseBreak@asCParser@@IAEPAVasCScriptNode@@XZ 10020530 f   as_parser.obj
 0001:0001f640       ?SuperficiallyParseStatementBlock@asCParser@@IAEPAVasCScriptNode@@XZ 10020640 f   as_parser.obj
 0001:0001f800       ?SuperficiallyParseVarInit@asCParser@@IAEPAVasCScriptNode@@XZ 10020800 f   as_parser.obj
 0001:0001fbb0       ?ParseEnumeration@asCParser@@IAEPAVasCScriptNode@@XZ 10020bb0 f   as_parser.obj
 0001:0001feb0       ?ParseAssignOperator@asCParser@@IAEPAVasCScriptNode@@XZ 10020eb0 f   as_parser.obj
 0001:0001ff80       ?ParseExprOperator@asCParser@@IAEPAVasCScriptNode@@XZ 10020f80 f   as_parser.obj
 0001:00020050       ?ParseExprPreOp@asCParser@@IAEPAVasCScriptNode@@XZ 10021050 f   as_parser.obj
 0001:00020120       ?ParseArgList@asCParser@@IAEPAVasCScriptNode@@XZ 10021120 f   as_parser.obj
 0001:00020270       ?ParseVariableAccess@asCParser@@IAEPAVasCScriptNode@@XZ 10021270 f   as_parser.obj
 0001:000202b0       ?ParseFunctionCall@asCParser@@IAEPAVasCScriptNode@@XZ 100212b0 f   as_parser.obj
 0001:00020300       ?ParseStringConstant@asCParser@@IAEPAVasCScriptNode@@XZ 10021300 f   as_parser.obj
 0001:000203e0       ?ParseConstant@asCParser@@IAEPAVasCScriptNode@@XZ 100213e0 f   as_parser.obj
 0001:00020500       ?ParseType@asCParser@@IAEPAVasCScriptNode@@_N0@Z 10021500 f   as_parser.obj
 0001:000207a0       ?ParsePropertyDeclaration@asCParser@@QAEHPAVasCScriptCode@@@Z 100217a0 f   as_parser.obj
 0001:00020890       ?ParseDataType@asCParser@@QAEHPAVasCScriptCode@@_N@Z 10021890 f   as_parser.obj
 0001:00020990       ?ParseVirtualPropertyDecl@asCParser@@IAEPAVasCScriptNode@@_N0@Z 10021990 f   as_parser.obj
 0001:00020cc0       ?ParseExprPostOp@asCParser@@IAEPAVasCScriptNode@@XZ 10021cc0 f   as_parser.obj
 0001:00020e90       ?ParseConstructCall@asCParser@@IAEPAVasCScriptNode@@XZ 10021e90 f   as_parser.obj
 0001:00020ee0       ?ParseCast@asCParser@@IAEPAVasCScriptNode@@XZ 10021ee0 f   as_parser.obj
 0001:000210c0       ?ParseListPattern@asCParser@@IAEPAVasCScriptNode@@XZ 100220c0 f   as_parser.obj
 0001:00021500       ?ParseParameterList@asCParser@@IAEPAVasCScriptNode@@XZ 10022500 f   as_parser.obj
 0001:00021710       ?ParseFunctionDefinition@asCParser@@IAEPAVasCScriptNode@@XZ 10022710 f   as_parser.obj
 0001:000217d0       ?ParseFunctionDefinition@asCParser@@QAEHPAVasCScriptCode@@_N@Z 100227d0 f   as_parser.obj
 0001:000218a0       ?ParseInterfaceMethod@asCParser@@IAEPAVasCScriptNode@@XZ 100228a0 f   as_parser.obj
 0001:00021a00       ?ParseFunction@asCParser@@IAEPAVasCScriptNode@@_N@Z 10022a00 f   as_parser.obj
 0001:00021ba0       ?ParseFuncDef@asCParser@@IAEPAVasCScriptNode@@XZ 10022ba0 f   as_parser.obj
 0001:00021d30       ?ParseImport@asCParser@@IAEPAVasCScriptNode@@XZ 10022d30 f   as_parser.obj
 0001:00021f90       ?ParseExprValue@asCParser@@IAEPAVasCScriptNode@@XZ 10022f90 f   as_parser.obj
 0001:00022240       ?ParseInterface@asCParser@@IAEPAVasCScriptNode@@XZ 10023240 f   as_parser.obj
 0001:00022520       ?ParseExprTerm@asCParser@@IAEPAVasCScriptNode@@XZ 10023520 f   as_parser.obj
 0001:00022610       ?ParseExpression@asCParser@@IAEPAVasCScriptNode@@XZ 10023610 f   as_parser.obj
 0001:000226c0       ?ParseCondition@asCParser@@IAEPAVasCScriptNode@@XZ 100236c0 f   as_parser.obj
 0001:000227e0       ?ParseAssignment@asCParser@@IAEPAVasCScriptNode@@XZ 100237e0 f   as_parser.obj
 0001:00022870       ?ParseReturn@asCParser@@IAEPAVasCScriptNode@@XZ 10023870 f   as_parser.obj
 0001:000229d0       ?ParseWhile@asCParser@@IAEPAVasCScriptNode@@XZ 100239d0 f   as_parser.obj
 0001:00022b20       ?ParseIf@asCParser@@IAEPAVasCScriptNode@@XZ 10023b20 f   as_parser.obj
 0001:00022cb0       ?ParseExpressionStatement@asCParser@@IAEPAVasCScriptNode@@XZ 10023cb0 f   as_parser.obj
 0001:00022da0       ?ParseInitList@asCParser@@IAEPAVasCScriptNode@@XZ 10023da0 f   as_parser.obj
 0001:00022fd0       ?ParseVarInit@asCParser@@QAEHPAVasCScriptCode@@PAVasCScriptNode@@@Z 10023fd0 f   as_parser.obj
 0001:00023150       ?ParseExpression@asCParser@@QAEHPAVasCScriptCode@@@Z 10024150 f   as_parser.obj
 0001:00023180       ?ParseDeclaration@asCParser@@IAEPAVasCScriptNode@@_N0@Z 10024180 f   as_parser.obj
 0001:00023360       ?ParseStatementBlock@asCParser@@IAEPAVasCScriptNode@@XZ 10024360 f   as_parser.obj
 0001:000235c0       ?ParseClass@asCParser@@IAEPAVasCScriptNode@@XZ 100245c0 f   as_parser.obj
 0001:00023900       ?ParseMixin@asCParser@@IAEPAVasCScriptNode@@XZ 10024900 f   as_parser.obj
 0001:000239d0       ?ParseStatementBlock@asCParser@@QAEHPAVasCScriptCode@@PAVasCScriptNode@@@Z 100249d0 f   as_parser.obj
 0001:00023a10       ?ParseScript@asCParser@@IAEPAVasCScriptNode@@_N@Z 10024a10 f   as_parser.obj
 0001:00023d30       ?ParseScript@asCParser@@QAEHPAVasCScriptCode@@@Z 10024d30 f   as_parser.obj
 0001:00023d60       ?ParseFor@asCParser@@IAEPAVasCScriptNode@@XZ 10024d60 f   as_parser.obj
 0001:00023f90       ?ParseCase@asCParser@@IAEPAVasCScriptNode@@XZ 10024f90 f   as_parser.obj
 0001:00024170       ?ParseSwitch@asCParser@@IAEPAVasCScriptNode@@XZ 10025170 f   as_parser.obj
 0001:000243d0       ?ParseStatement@asCParser@@IAEPAVasCScriptNode@@XZ 100253d0 f   as_parser.obj
 0001:00024490       ?ParseNamespace@asCParser@@IAEPAVasCScriptNode@@XZ 10025490 f   as_parser.obj
 0001:000246d0       ?ParseDoWhile@asCParser@@IAEPAVasCScriptNode@@XZ 100256d0 f   as_parser.obj
 0001:000248c0       ?GetAccessMask@asCObjectType@@UBEKXZ 100258c0 f   as_objecttype.obj
 0001:000248d0       ?GetBaseType@asCObjectType@@UBEPAVasIObjectType@@XZ 100258d0 f   as_objecttype.obj
 0001:000248e0       ?GetEngine@asCObjectType@@UBEPAVasIScriptEngine@@XZ 100258e0 f   as_objecttype.obj
 0001:000248f0       ?IsInterface@asCObjectType@@QBE_NXZ 100258f0 f   as_objecttype.obj
 0001:00024910       ?GetSize@asCObjectType@@UBEIXZ 10025910 f   as_objecttype.obj
 0001:00024920       ?GetFlags@asCObjectType@@UBEKXZ 10025920 f   as_objecttype.obj
 0001:00024930       ?GetNamespace@asCObjectType@@UBEPBDXZ 10025930 f   as_objecttype.obj
 0001:00024940       ?GetName@asCObjectType@@UBEPBDXZ 10025940 f   as_objecttype.obj
 0001:00024950       ?IsShared@asCObjectType@@QBE_NXZ 10025950 f   as_objecttype.obj
 0001:00024970       ?DerivesFrom@asCObjectType@@UBE_NPBVasIObjectType@@@Z 10025970 f   as_objecttype.obj
 0001:000249a0       ?SetGCFlag@asCObjectType@@QAEXXZ 100259a0 f   as_objecttype.obj
 0001:000249b0       ?GetGCFlag@asCObjectType@@QAE_NXZ 100259b0 f   as_objecttype.obj
 0001:000249c0       ?GetModule@asCObjectType@@UBEPAVasIScriptModule@@XZ 100259c0 f   as_objecttype.obj
 0001:000249d0       ?EnumReferences@asCObjectType@@QAEXPAVasIScriptEngine@@@Z 100259d0 f   as_objecttype.obj
 0001:00024e90       ?ReleaseAllProperties@asCObjectType@@QAEXXZ 10025e90 f   as_objecttype.obj
 0001:00024f50       ?GetConfigGroup@asCObjectType@@UBEPBDXZ 10025f50 f   as_objecttype.obj
 0001:00024f70       ?GetBehaviourByIndex@asCObjectType@@UBEPAVasIScriptFunction@@IPAW4asEBehaviours@@@Z 10025f70 f   as_objecttype.obj
 0001:000252e0       ?GetBehaviourCount@asCObjectType@@UBEIXZ 100262e0 f   as_objecttype.obj
 0001:00025380       ?GetProperty@asCObjectType@@UBEHIPAPBDPAHPA_N12PAK@Z 10026380 f   as_objecttype.obj
 0001:00025450       ?GetPropertyCount@asCObjectType@@UBEIXZ 10026450 f   as_objecttype.obj
 0001:00025460       ?GetMethodByIndex@asCObjectType@@UBEPAVasIScriptFunction@@I_N@Z 10026460 f   as_objecttype.obj
 0001:000254d0       ?GetMethodCount@asCObjectType@@UBEIXZ 100264d0 f   as_objecttype.obj
 0001:000254e0       ?GetFactoryByIndex@asCObjectType@@UBEPAVasIScriptFunction@@I@Z 100264e0 f   as_objecttype.obj
 0001:00025530       ?GetFactoryCount@asCObjectType@@UBEIXZ 10026530 f   as_objecttype.obj
 0001:00025540       ?GetInterface@asCObjectType@@UBEPAVasIObjectType@@I@Z 10026540 f   as_objecttype.obj
 0001:00025560       ?GetInterfaceCount@asCObjectType@@UBEIXZ 10026560 f   as_objecttype.obj
 0001:00025570       ?GetSubTypeCount@asCObjectType@@UBEIXZ 10026570 f   as_objecttype.obj
 0001:00025580       ?GetSubType@asCObjectType@@UBEPAVasIObjectType@@I@Z 10026580 f   as_objecttype.obj
 0001:000255c0       ?GetSubTypeId@asCObjectType@@UBEHI@Z 100265c0 f   as_objecttype.obj
 0001:00025610       ?Implements@asCObjectType@@UBE_NPBVasIObjectType@@@Z 10026610 f   as_objecttype.obj
 0001:00025660       ?GetRefCount@asCObjectType@@QAEHXZ 10026660 f   as_objecttype.obj
 0001:00025670       ?GetUserData@asCObjectType@@UBEPAXI@Z 10026670 f   as_objecttype.obj
 0001:00025700       ?Release@asCObjectType@@UBEHXZ 10026700 f   as_objecttype.obj
 0001:00025720       ?AddRef@asCObjectType@@UBEHXZ 10026720 f   as_objecttype.obj
 0001:00025740       ?GetMethodByName@asCObjectType@@UBEPAVasIScriptFunction@@PBD_N@Z 10026740 f   as_objecttype.obj
 0001:00025810       ?GetTypeId@asCObjectType@@UBEHXZ 10026810 f   as_objecttype.obj
 0001:00025840       ?SetUserData@asCObjectType@@UAEPAXPAXI@Z 10026840 f   as_objecttype.obj
 0001:00025900       ?ReleaseAllFunctions@asCObjectType@@QAEXXZ 10026900 f   as_objecttype.obj
 0001:00025d00       ?ReleaseAllHandles@asCObjectType@@QAEXPAVasIScriptEngine@@@Z 10026d00 f   as_objecttype.obj
 0001:00025d20       ?AddPropertyToClass@asCObjectType@@QAEPAVasCObjectProperty@@ABVasCString@@ABVasCDataType@@_N@Z 10026d20 f   as_objecttype.obj
 0001:00025e20       ??1asCObjectType@@UAE@XZ   10026e20 f   as_objecttype.obj
 0001:00026090       ??0asCObjectType@@QAE@PAVasCScriptEngine@@@Z 10027090 f   as_objecttype.obj
 0001:000261b0       ??0asCObjectType@@IAE@XZ   100271b0 f   as_objecttype.obj
 0001:000262c0       ?GetPropertyDeclaration@asCObjectType@@UBEPBDI_N@Z 100272c0 f   as_objecttype.obj
 0001:000263b0       ?Orphan@asCObjectType@@QAEXPAVasCModule@@@Z 100273b0 f   as_objecttype.obj
 0001:00026410       ?GetMethodByDecl@asCObjectType@@UBEPAVasIScriptFunction@@PBD_N@Z 10027410 f   as_objecttype.obj
 0001:000264c0       ?GetFactoryByDecl@asCObjectType@@UBEPAVasIScriptFunction@@PBD@Z 100274c0 f   as_objecttype.obj
 0001:00026510       ?RegisterObjectTypeGCBehaviours@@YAXPAVasCScriptEngine@@@Z 10027510 f   as_objecttype.obj
 0001:00026720       ?SetAccessMask@asCModule@@UAEKK@Z 10027720 f   as_module.obj
 0001:00026730       ?UnbindAllImportedFunctions@asCModule@@UAEHXZ 10027730 f   as_module.obj
 0001:00026760       ?GetImportedFunction@asCModule@@QBEPAVasCScriptFunction@@H@Z 10027760 f   as_module.obj
 0001:00026770       ?GetFunctionCount@asCModule@@UBEIXZ 10027770 f   as_module.obj
 0001:00026780       ?GetDefaultNamespace@asCModule@@UBEPBDXZ 10027780 f   as_module.obj
 0001:00026790       ?GetName@asCModule@@UBEPBDXZ 10027790 f   as_module.obj
 0001:000267a0       ?GetEngine@asCModule@@UBEPAVasIScriptEngine@@XZ 100277a0 f   as_module.obj
 0001:000267b0       ?GetUserData@asCModule@@UBEPAXXZ 100277b0 f   as_module.obj
 0001:000267c0       ?SetUserData@asCModule@@UAEPAXPAX@Z 100277c0 f   as_module.obj
 0001:000267d0       ?Discard@asCModule@@UAEXXZ 100277d0 f   as_module.obj
 0001:000267f0       ?GetImportedFunctionSourceModule@asCModule@@UBEPBDI@Z 100277f0 f   as_module.obj
 0001:00026830       ?UnbindImportedFunction@asCModule@@UAEHI@Z 10027830 f   as_module.obj
 0001:000268b0       ?BindImportedFunction@asCModule@@UAEHIPAVasIScriptFunction@@@Z 100278b0 f   as_module.obj
 0001:000269d0       ?GetNextImportedFunctionId@asCModule@@QAEHXZ 100279d0 f   as_module.obj
 0001:00026a20       ?GetTypedefByIndex@asCModule@@UBEPBDIPAHPAPBD@Z 10027a20 f   as_module.obj
 0001:00026ab0       ?GetTypedefCount@asCModule@@UBEIXZ 10027ab0 f   as_module.obj
 0001:00026ac0       ?GetEnumValueByIndex@asCModule@@UBEPBDHIPAH@Z 10027ac0 f   as_module.obj
 0001:00026b40       ?GetEnumValueCount@asCModule@@UBEHH@Z 10027b40 f   as_module.obj
 0001:00026b90       ?GetEnumCount@asCModule@@UBEIXZ 10027b90 f   as_module.obj
 0001:00026ba0       ?GetObjectTypeByIndex@asCModule@@UBEPAVasIObjectType@@I@Z 10027ba0 f   as_module.obj
 0001:00026bd0       ?GetObjectTypeCount@asCModule@@UBEIXZ 10027bd0 f   as_module.obj
 0001:00026be0       ?GetGlobalVarCount@asCModule@@UBEIXZ 10027be0 f   as_module.obj
 0001:00026bf0       ?GetImportedFunctionCount@asCModule@@UBEIXZ 10027bf0 f   as_module.obj
 0001:00026c00       ?JITCompile@asCModule@@QAEXXZ 10027c00 f   as_module.obj
 0001:00026c50       ?GetObjectType@asCModule@@QAEPAVasCObjectType@@PBDPAUasSNameSpace@@@Z 10027c50 f   as_module.obj
 0001:00026d60       ?AddScriptFunction@asCModule@@QAEHPAVasCScriptFunction@@@Z 10027d60 f   as_module.obj
 0001:00026d90       ?GetEnumByIndex@asCModule@@UBEPBDIPAHPAPBD@Z 10027d90 f   as_module.obj
 0001:00026e30       ?GetObjectTypeByName@asCModule@@UBEPAVasIObjectType@@PBD@Z 10027e30 f   as_module.obj
 0001:00026eb0       ?GetGlobalVar@asCModule@@UBEHIPAPBD0PAHPA_N@Z 10027eb0 f   as_module.obj
 0001:00026f20       ?GetAddressOfGlobalVar@asCModule@@UAEPAXI@Z 10027f20 f   as_module.obj
 0001:00026f70       ?CallExit@asCModule@@QAEXXZ 10027f70 f   as_module.obj
 0001:00027040       ?GetFunctionByIndex@asCModule@@UBEPAVasIScriptFunction@@I@Z 10028040 f   as_module.obj
 0001:00027060       ?SetDefaultNamespace@asCModule@@UAEHPBD@Z 10028060 f   as_module.obj
 0001:000271c0       ?SetName@asCModule@@UAEXPBD@Z 100281c0 f   as_module.obj
 0001:000271e0       ?AllocateGlobalProperty@asCModule@@QAEPAVasCGlobalProperty@@PBDABVasCDataType@@PAUasSNameSpace@@@Z 100281e0 f   as_module.obj
 0001:00027250       ?GetImportedFunctionDeclaration@asCModule@@UBEPBDI@Z 10028250 f   as_module.obj
 0001:000272f0       ?GetGlobalVarDeclaration@asCModule@@UBEPBDI_N@Z 100282f0 f   as_module.obj
 0001:000273e0       ?GetGlobalVarIndexByName@asCModule@@UBEHPBD@Z 100283e0 f   as_module.obj
 0001:00027460       ?GetFunctionByName@asCModule@@UBEPAVasIScriptFunction@@PBD@Z 10028460 f   as_module.obj
 0001:00027500       ?AddScriptSection@asCModule@@UAEHPBD0IH@Z 10028500 f   as_module.obj
 0001:000275c0       ??0asCModule@@QAE@PBDPAVasCScriptEngine@@@Z 100285c0 f   as_module.obj
 0001:000276a0       ?BindAllImportedFunctions@asCModule@@UAEHXZ 100286a0 f   as_module.obj
 0001:000277d0       ?CallInit@asCModule@@QAEHPAVasIScriptContext@@@Z 100287d0 f   as_module.obj
 0001:00027ab0       ?ResetGlobalVars@asCModule@@UAEHPAVasIScriptContext@@@Z 10028ab0 f   as_module.obj
 0001:00027ae0       ?AddFuncDef@asCModule@@QAEHABVasCString@@PAUasSNameSpace@@@Z 10028ae0 f   as_module.obj
 0001:00027bd0       ?RemoveFunction@asCModule@@UAEHPAVasIScriptFunction@@@Z 10028bd0 f   as_module.obj
 0001:00027c30       ?SaveByteCode@asCModule@@UBEHPAVasIBinaryStream@@_N@Z 10028c30 f   as_module.obj
 0001:00027cd0       ?AddImportedFunction@asCModule@@QAEHHABVasCString@@ABVasCDataType@@ABV?$asCArray@VasCDataType@@@@ABV?$asCArray@W4asETypeModifiers@@@@ABV?$asCArray@PAVasCString@@@@PAUasSNameSpace@@0@Z 10028cd0 f   as_module.obj
 0001:00027eb0       ?AddScriptFunction@asCModule@@QAEHHHHABVasCString@@ABVasCDataType@@ABV?$asCArray@VasCDataType@@@@ABV?$asCArray@W4asETypeModifiers@@@@ABV?$asCArray@PAVasCString@@@@_NPAVasCObjectType@@555555PAUasSNameSpace@@@Z 10028eb0 f   as_module.obj
 0001:000280a0       ?GetTypeIdByDecl@asCModule@@UBEHPBD@Z 100290a0 f   as_module.obj
 0001:00028180       ?GetGlobalVarIndexByDecl@asCModule@@UBEHPBD@Z 10029180 f   as_module.obj
 0001:000282e0       ?RemoveGlobalVar@asCModule@@UAEHI@Z 100292e0 f   as_module.obj
 0001:00028320       ?GetFunctionByDecl@asCModule@@UBEPAVasIScriptFunction@@PBD@Z 10029320 f   as_module.obj
 0001:00028560       ?GetImportedFunctionIndexByDecl@asCModule@@UBEHPBD@Z 10029560 f   as_module.obj
 0001:000287b0       ?InternalReset@asCModule@@QAEXXZ 100297b0 f   as_module.obj
 0001:00028ab0       ??1asCModule@@UAE@XZ       10029ab0 f   as_module.obj
 0001:00028c10       ?LoadByteCode@asCModule@@UAEHPAVasIBinaryStream@@PA_N@Z 10029c10 f   as_module.obj
 0001:00028cd0       ?CompileGlobalVar@asCModule@@UAEHPBD0H@Z 10029cd0 f   as_module.obj
 0001:00028ef0       ?CompileFunction@asCModule@@UAEHPBD0HKPAPAVasIScriptFunction@@@Z 10029ef0 f   as_module.obj
 0001:00029090       ?Build@asCModule@@UAEHXZ   1002a090 f   as_module.obj
 0001:00029180       _asSetGlobalMemoryFunctions 1002a180 f   as_memory.obj
 0001:000291a0       ?AllocByteInstruction@asCMemoryMgr@@QAEPAXXZ 1002a1a0 f   as_memory.obj
 0001:000291d0       ?AllocScriptNode@asCMemoryMgr@@QAEPAXXZ 1002a1d0 f   as_memory.obj
 0001:00029210       ?FreeByteInstruction@asCMemoryMgr@@QAEXPAX@Z 1002a210 f   as_memory.obj
 0001:00029240       ?FreeScriptNode@asCMemoryMgr@@QAEXPAX@Z 1002a240 f   as_memory.obj
 0001:00029280       ?FreeUnusedMemory@asCMemoryMgr@@QAEXXZ 1002a280 f   as_memory.obj
 0001:00029310       ??1asCMemoryMgr@@QAE@XZ    1002a310 f   as_memory.obj
 0001:00029370       ??0asCMemoryMgr@@QAE@XZ    1002a370 f   as_memory.obj
 0001:00029390       _asResetGlobalMemoryFunctions 1002a390 f   as_memory.obj
 0001:000293b0       ?GetInitFunc@asCGlobalProperty@@QAEPAVasCScriptFunction@@XZ 1002a3b0 f   as_globalproperty.obj
 0001:000293c0       ?SetInitFunc@asCGlobalProperty@@QAEXPAVasCScriptFunction@@@Z 1002a3c0 f   as_globalproperty.obj
 0001:000293d0       ?ReleaseAllHandles@asCGlobalProperty@@QAEXPAVasIScriptEngine@@@Z 1002a3d0 f   as_globalproperty.obj
 0001:000293f0       ?EnumReferences@asCGlobalProperty@@QAEXPAVasIScriptEngine@@@Z 1002a3f0 f   as_globalproperty.obj
 0001:00029410       ?GetGCFlag@asCGlobalProperty@@QAE_NXZ 1002a410 f   as_globalproperty.obj
 0001:00029420       ?SetGCFlag@asCGlobalProperty@@QAEXXZ 1002a420 f   as_globalproperty.obj
 0001:00029430       ?GetRegisteredAddress@asCGlobalProperty@@QBEPAXXZ 1002a430 f   as_globalproperty.obj
 0001:00029440       ?GetAddressOfValue@asCGlobalProperty@@QAEPAXXZ 1002a440 f   as_globalproperty.obj
 0001:00029450       ?GetRefCount@asCGlobalProperty@@QAEHXZ 1002a450 f   as_globalproperty.obj
 0001:00029460       ?SetRegisteredAddress@asCGlobalProperty@@QAEXPAX@Z 1002a460 f   as_globalproperty.obj
 0001:00029490       ?Release@asCGlobalProperty@@QAEXXZ 1002a490 f   as_globalproperty.obj
 0001:000294c0       ?AddRef@asCGlobalProperty@@QAEXXZ 1002a4c0 f   as_globalproperty.obj
 0001:000294d0       ??1asCGlobalProperty@@QAE@XZ 1002a4d0 f   as_globalproperty.obj
 0001:00029540       ??0asCGlobalProperty@@QAE@XZ 1002a540 f   as_globalproperty.obj
 0001:00029580       ?AllocateMemory@asCGlobalProperty@@QAEXXZ 1002a580 f   as_globalproperty.obj
 0001:000295b0       ?Orphan@asCGlobalProperty@@QAEXPAVasCModule@@@Z 1002a5b0 f   as_globalproperty.obj
 0001:00029600       ?RegisterGCBehaviours@asCGlobalProperty@@SAXPAVasCScriptEngine@@@Z 1002a600 f   as_globalproperty.obj
 0001:00029810       ?GetReturnTypeId@asCGeneric@@UBEHPAK@Z 1002a810 f   as_generic.obj
 0001:00029820       ?GetObject@asCGeneric@@UAEPAXXZ 1002a820 f   as_generic.obj
 0001:00029830       ?GetFunction@asCGeneric@@UBEPAVasIScriptFunction@@XZ 1002a830 f   as_generic.obj
 0001:00029840       ?GetEngine@asCGeneric@@UBEPAVasIScriptEngine@@XZ 1002a840 f   as_generic.obj
 0001:00029850       ?GetAddressOfReturnLocation@asCGeneric@@UAEPAXXZ 1002a850 f   as_generic.obj
 0001:00029890       ?GetReturnPointer@asCGeneric@@QAEPAXXZ 1002a890 f   as_generic.obj
 0001:000298b0       ?SetReturnAddress@asCGeneric@@UAEHPAX@Z 1002a8b0 f   as_generic.obj
 0001:000298e0       ?SetReturnDWord@asCGeneric@@UAEHK@Z 1002a8e0 f   as_generic.obj
 0001:00029920       ?SetReturnWord@asCGeneric@@UAEHG@Z 1002a920 f   as_generic.obj
 0001:00029960       ?SetReturnByte@asCGeneric@@UAEHE@Z 1002a960 f   as_generic.obj
 0001:000299a0       ?GetArgCount@asCGeneric@@UBEHXZ 1002a9a0 f   as_generic.obj
 0001:000299b0       ??1asCGeneric@@UAE@XZ      1002a9b0 f   as_generic.obj
 0001:000299c0       ??0asCGeneric@@QAE@PAVasCScriptEngine@@PAVasCScriptFunction@@PAXPAK@Z 1002a9c0 f   as_generic.obj
 0001:000299f0       ?GetObjectTypeId@asCGeneric@@UBEHXZ 1002a9f0 f   as_generic.obj
 0001:00029a30       ?SetReturnObject@asCGeneric@@UAEHPAX@Z 1002aa30 f   as_generic.obj
 0001:00029ab0       ?SetReturnDouble@asCGeneric@@UAEHN@Z 1002aab0 f   as_generic.obj
 0001:00029af0       ?SetReturnFloat@asCGeneric@@UAEHM@Z 1002aaf0 f   as_generic.obj
 0001:00029b30       ?SetReturnQWord@asCGeneric@@UAEH_K@Z 1002ab30 f   as_generic.obj
 0001:00029b70       ?GetArgTypeId@asCGeneric@@UBEHIPAK@Z 1002ab70 f   as_generic.obj
 0001:00029c30       ?GetAddressOfArg@asCGeneric@@UAEPAXI@Z 1002ac30 f   as_generic.obj
 0001:00029cd0       ?GetArgObject@asCGeneric@@UAEPAXI@Z 1002acd0 f   as_generic.obj
 0001:00029d40       ?GetArgAddress@asCGeneric@@UAEPAXI@Z 1002ad40 f   as_generic.obj
 0001:00029db0       ?GetArgDouble@asCGeneric@@UAENI@Z 1002adb0 f   as_generic.obj
 0001:00029e40       ?GetArgFloat@asCGeneric@@UAEMI@Z 1002ae40 f   as_generic.obj
 0001:00029ed0       ?GetArgQWord@asCGeneric@@UAE_KI@Z 1002aed0 f   as_generic.obj
 0001:00029f60       ?GetArgDWord@asCGeneric@@UAEKI@Z 1002af60 f   as_generic.obj
 0001:00029ff0       ?GetArgWord@asCGeneric@@UAEGI@Z 1002aff0 f   as_generic.obj
 0001:0002a080       ?GetArgByte@asCGeneric@@UAEEI@Z 1002b080 f   as_generic.obj
 0001:0002a110       ?RemoveOldObjectAtIdx@asCGarbageCollector@@IAEXH@Z 1002b110 f   as_gc.obj
 0001:0002a180       ?RemoveNewObjectAtIdx@asCGarbageCollector@@IAEXH@Z 1002b180 f   as_gc.obj
 0001:0002a1f0       ?GetOldObjectAtIdx@asCGarbageCollector@@IAE?AUasSObjTypePair@1@H@Z 1002b1f0 f   as_gc.obj
 0001:0002a230       ?GetNewObjectAtIdx@asCGarbageCollector@@IAE?AUasSObjTypePair@1@H@Z 1002b230 f   as_gc.obj
 0001:0002a270       ?GetStatistics@asCGarbageCollector@@QBEXPAI0000@Z 1002b270 f   as_gc.obj
 0001:0002a2d0       ?GetObjectInGC@asCGarbageCollector@@QAEHIPAIPAPAXPAPAVasIObjectType@@@Z 1002b2d0 f   as_gc.obj
 0001:0002a390       ?GCEnumCallback@asCGarbageCollector@@QAEXPAX@Z 1002b390 f   as_gc.obj
 0001:0002a400       ?ReturnNode@asCGarbageCollector@@IAEXPAU?$asSMapNode@PAXUasSIntTypePair@asCGarbageCollector@@@@@Z 1002b400 f   as_gc.obj
 0001:0002a420       ?GetNode@asCGarbageCollector@@IAEPAU?$asSMapNode@PAXUasSIntTypePair@asCGarbageCollector@@@@PAXUasSIntTypePair@1@@Z 1002b420 f   as_gc.obj
 0001:0002a490       ?MoveObjectToOldList@asCGarbageCollector@@IAEXH@Z 1002b490 f   as_gc.obj
 0001:0002a510       ??1asCGarbageCollector@@QAE@XZ 1002b510 f   as_gc.obj
 0001:0002a5e0       ??0asCGarbageCollector@@QAE@XZ 1002b5e0 f   as_gc.obj
 0001:0002a660       ?DestroyNewGarbage@asCGarbageCollector@@IAEHXZ 1002b660 f   as_gc.obj
 0001:0002a7a0       ?DestroyOldGarbage@asCGarbageCollector@@IAEHXZ 1002b7a0 f   as_gc.obj
 0001:0002a930       ?ReportAndReleaseUndestroyedObjects@asCGarbageCollector@@QAEHXZ 1002b930 f   as_gc.obj
 0001:0002ab10       ?IdentifyGarbageWithCyclicRefs@asCGarbageCollector@@IAEHXZ 1002bb10 f   as_gc.obj
 0001:0002afa0       ?GarbageCollect@asCGarbageCollector@@QAEHK@Z 1002bfa0 f   as_gc.obj
 0001:0002b110       ?AddScriptObjectToGC@asCGarbageCollector@@QAEHPAXPAVasCObjectType@@@Z 1002c110 f   as_gc.obj
 0001:0002b230       ?IsEnumType@asCDataType@@QBE_NXZ 1002c230 f   as_datatype.obj
 0001:0002b250       ?GetBehaviour@asCDataType@@QBEPAUasSTypeBehaviour@@XZ 1002c250 f   as_datatype.obj
 0001:0002b260       ?GetSizeInMemoryBytes@asCDataType@@QBEHXZ 1002c260 f   as_datatype.obj
 0001:0002b2c0       ?IsObject@asCDataType@@QBE_NXZ 1002c2c0 f   as_datatype.obj
 0001:0002b2e0       ?IsBooleanType@asCDataType@@QBE_NXZ 1002c2e0 f   as_datatype.obj
 0001:0002b2f0       ?IsDoubleType@asCDataType@@QBE_NXZ 1002c2f0 f   as_datatype.obj
 0001:0002b300       ?IsFloatType@asCDataType@@QBE_NXZ 1002c300 f   as_datatype.obj
 0001:0002b310       ?IsUnsignedType@asCDataType@@QBE_NXZ 1002c310 f   as_datatype.obj
 0001:0002b330       ?IsIntegerType@asCDataType@@QBE_NXZ 1002c330 f   as_datatype.obj
 0001:0002b350       ?IsPrimitive@asCDataType@@QBE_NXZ 1002c350 f   as_datatype.obj
 0001:0002b380       ?IsEqualExceptRefAndConst@asCDataType@@QBE_NABV1@@Z 1002c380 f   as_datatype.obj
 0001:0002b3d0       ?IsEqualExceptRef@asCDataType@@QBE_NABV1@@Z 1002c3d0 f   as_datatype.obj
 0001:0002b400       ??8asCDataType@@QBE_NABV0@@Z 1002c400 f   as_datatype.obj
 0001:0002b440       ??9asCDataType@@QBE_NABV0@@Z 1002c440 f   as_datatype.obj
 0001:0002b450       ?IsScriptObject@asCDataType@@QBE_NXZ 1002c450 f   as_datatype.obj
 0001:0002b470       ?IsTemplate@asCDataType@@QBE_NXZ 1002c470 f   as_datatype.obj
 0001:0002b490       ?IsHandleToConst@asCDataType@@QBE_NXZ 1002c490 f   as_datatype.obj
 0001:0002b4a0       ?IsReadOnly@asCDataType@@QBE_NXZ 1002c4a0 f   as_datatype.obj
 0001:0002b4c0       ?SupportHandles@asCDataType@@QBE_NXZ 1002c4c0 f   as_datatype.obj
 0001:0002b4f0       ?MakeHandleToConst@asCDataType@@QAEH_N@Z 1002c4f0 f   as_datatype.obj
 0001:0002b510       ?MakeReadOnly@asCDataType@@QAEH_N@Z 1002c510 f   as_datatype.obj
 0001:0002b540       ?MakeReference@asCDataType@@QAEH_N@Z 1002c540 f   as_datatype.obj
 0001:0002b560       ?MakeHandle@asCDataType@@QAEH_N0@Z 1002c560 f   as_datatype.obj
 0001:0002b5e0       ??4asCDataType@@QAEAAV0@ABV0@@Z 1002c5e0 f   as_datatype.obj
 0001:0002b630       ?IsNullHandle@asCDataType@@QBE_NXZ 1002c630 f   as_datatype.obj
 0001:0002b650       ?IsValid@asCDataType@@QBE_NXZ 1002c650 f   as_datatype.obj
 0001:0002b670       ??1asCDataType@@QAE@XZ     1002c670 f   as_datatype.obj
 0001:0002b680       ??0asCDataType@@QAE@ABV0@@Z 1002c680 f   as_datatype.obj
 0001:0002b6d0       ??0asCDataType@@QAE@XZ     1002c6d0 f   as_datatype.obj
 0001:0002b6e0       ?GetSizeInMemoryDWords@asCDataType@@QBEHXZ 1002c6e0 f   as_datatype.obj
 0001:0002b710       ?IsEqualExceptConst@asCDataType@@QBE_NABV1@@Z 1002c710 f   as_datatype.obj
 0001:0002b730       ?GetSubType@asCDataType@@QBE?AV1@I@Z 1002c730 f   as_datatype.obj
 0001:0002b750       ?CreateNullHandle@asCDataType@@SA?AV1@XZ 1002c750 f   as_datatype.obj
 0001:0002b760       ?CreatePrimitive@asCDataType@@SA?AV1@W4eTokenType@@_N@Z 1002c760 f   as_datatype.obj
 0001:0002b780       ?CreateFuncDef@asCDataType@@SA?AV1@PAVasCScriptFunction@@@Z 1002c780 f   as_datatype.obj
 0001:0002b7a0       ?CreateObjectHandle@asCDataType@@SA?AV1@PAVasCObjectType@@_N@Z 1002c7a0 f   as_datatype.obj
 0001:0002b7d0       ?CreateObject@asCDataType@@SA?AV1@PAVasCObjectType@@_N@Z 1002c7d0 f   as_datatype.obj
 0001:0002b7f0       ?GetSizeOnStackDWords@asCDataType@@QBEHXZ 1002c7f0 f   as_datatype.obj
 0001:0002b820       ?IsArrayType@asCDataType@@QBE_NXZ 1002c820 f   as_datatype.obj
 0001:0002b850       ?CanBeInstanciated@asCDataType@@QBE_NXZ 1002c850 f   as_datatype.obj
 0001:0002b8a0       ?CanBeCopied@asCDataType@@QBE_NXZ 1002c8a0 f   as_datatype.obj
 0001:0002b8f0       ?Format@asCDataType@@QBE?AVasCString@@_N@Z 1002c8f0 f   as_datatype.obj
 0001:0002bba0       ?MakeArray@asCDataType@@QAEHPAVasCScriptEngine@@@Z 1002cba0 f   as_datatype.obj
 0001:0002bc50       ?GetThisPointer@asCContext@@UAEPAXI@Z 1002cc50 f   as_context.obj
 0001:0002bcc0       ?GetVarTypeId@asCContext@@UAEHII@Z 1002ccc0 f   as_context.obj
 0001:0002bd00       ?GetVarDeclaration@asCContext@@UAEPBDII_N@Z 1002cd00 f   as_context.obj
 0001:0002bd30       ?GetVarName@asCContext@@UAEPBDII@Z 1002cd30 f   as_context.obj
 0001:0002bd80       ?GetVarCount@asCContext@@UAEHI@Z 1002cd80 f   as_context.obj
 0001:0002bdb0       ?ClearExceptionCallback@asCContext@@UAEXXZ 1002cdb0 f   as_context.obj
 0001:0002bdc0       ?ClearLineCallback@asCContext@@UAEXXZ 1002cdc0 f   as_context.obj
 0001:0002bde0       ?GetState@asCContext@@UBE?AW4asEContextState@@XZ 1002cde0 f   as_context.obj
 0001:0002bdf0       ?GetExceptionString@asCContext@@UAEPBDXZ 1002cdf0 f   as_context.obj
 0001:0002be10       ?GetFunction@asCContext@@UAEPAVasIScriptFunction@@I@Z 1002ce10 f   as_context.obj
 0001:0002be70       ?Suspend@asCContext@@UAEHXZ 1002ce70 f   as_context.obj
 0001:0002be90       ?Abort@asCContext@@UAEHXZ  1002ce90 f   as_context.obj
 0001:0002bec0       ?SetObject@asCContext@@UAEHPAX@Z 1002cec0 f   as_context.obj
 0001:0002bf00       ?GetSystemFunction@asCContext@@UAEPAVasIScriptFunction@@XZ 1002cf00 f   as_context.obj
 0001:0002bf10       ?GetUserData@asCContext@@UBEPAXXZ 1002cf10 f   as_context.obj
 0001:0002bf20       ?SetUserData@asCContext@@UAEPAXPAX@Z 1002cf20 f   as_context.obj
 0001:0002bf40       ?GetEngine@asCContext@@UBEPAVasIScriptEngine@@XZ 1002cf40 f   as_context.obj
 0001:0002bf50       ?IsNested@asCContext@@UBE_NPAI@Z 1002cf50 f   as_context.obj
 0001:0002bfe0       ?GetThisTypeId@asCContext@@UAEHI@Z 1002cfe0 f   as_context.obj
 0001:0002c050       ?SetExceptionCallback@asCContext@@UAEHUasSFuncPtr@@PAXH@Z 1002d050 f   as_context.obj
 0001:0002c0d0       ?SetLineCallback@asCContext@@UAEHUasSFuncPtr@@PAXH@Z 1002d0d0 f   as_context.obj
 0001:0002c190       ?GetExceptionFunction@asCContext@@UAEPAVasIScriptFunction@@XZ 1002d190 f   as_context.obj
 0001:0002c1c0       ?GetExceptionLineNumber@asCContext@@UAEHPAHPAPBD@Z 1002d1c0 f   as_context.obj
 0001:0002c220       ?IsVarInScope@asCContext@@UAE_NII@Z 1002d220 f   as_context.obj
 0001:0002c390       ?GetLineNumber@asCContext@@UAEHIPAHPAPBD@Z 1002d390 f   as_context.obj
 0001:0002c4a0       ?GetCallstackSize@asCContext@@UBEIXZ 1002d4a0 f   as_context.obj
 0001:0002c4c0       ?PushCallState@asCContext@@QAEXXZ 1002d4c0 f   as_context.obj
 0001:0002c560       ?PushState@asCContext@@UAEHXZ 1002d560 f   as_context.obj
 0001:0002c640       ?GetAddressOfReturnValue@asCContext@@UAEPAXXZ 1002d640 f   as_context.obj
 0001:0002c6b0       ?GetReturnObject@asCContext@@UAEPAXXZ 1002d6b0 f   as_context.obj
 0001:0002c710       ?GetReturnAddress@asCContext@@UAEPAXXZ 1002d710 f   as_context.obj
 0001:0002c770       ?GetReturnDouble@asCContext@@UAENXZ 1002d770 f   as_context.obj
 0001:0002c7a0       ?GetReturnFloat@asCContext@@UAEMXZ 1002d7a0 f   as_context.obj
 0001:0002c7d0       ?GetReturnQWord@asCContext@@UAE_KXZ 1002d7d0 f   as_context.obj
 0001:0002c800       ?GetReturnDWord@asCContext@@UAEKXZ 1002d800 f   as_context.obj
 0001:0002c830       ?GetReturnWord@asCContext@@UAEGXZ 1002d830 f   as_context.obj
 0001:0002c860       ?GetReturnByte@asCContext@@UAEEXZ 1002d860 f   as_context.obj
 0001:0002c890       ?DetachEngine@asCContext@@QAEXXZ 1002d890 f   as_context.obj
 0001:0002c950       ?Release@asCContext@@UBEHXZ 1002d950 f   as_context.obj
 0001:0002c980       ?AddRef@asCContext@@UBEHXZ 1002d980 f   as_context.obj
 0001:0002c990       ?CallExceptionCallback@asCContext@@QAEXXZ 1002d990 f   as_context.obj
 0001:0002c9e0       ?CallLineCallback@asCContext@@QAEXXZ 1002d9e0 f   as_context.obj
 0001:0002ca20       ?CleanArgsOnStack@asCContext@@QAEXXZ 1002da20 f   as_context.obj
 0001:0002ccc0       ?CleanReturnObject@asCContext@@QAEXXZ 1002dcc0 f   as_context.obj
 0001:0002cd80       ?PrepareScriptFunction@asCContext@@QAEXXZ 1002dd80 f   as_context.obj
 0001:0002ce10       ?PopCallState@asCContext@@QAEXXZ 1002de10 f   as_context.obj
 0001:0002ce70       ?PopState@asCContext@@UAEHXZ 1002de70 f   as_context.obj
 0001:0002cf50       ?GetAddressOfArg@asCContext@@UAEPAXI@Z 1002df50 f   as_context.obj
 0001:0002cfd0       ?SetArgObject@asCContext@@UAEHIPAX@Z 1002dfd0 f   as_context.obj
 0001:0002d0d0       ?SetArgAddress@asCContext@@UAEHIPAX@Z 1002e0d0 f   as_context.obj
 0001:0002d190       ?SetArgDouble@asCContext@@UAEHIN@Z 1002e190 f   as_context.obj
 0001:0002d260       ?SetArgFloat@asCContext@@UAEHIM@Z 1002e260 f   as_context.obj
 0001:0002d330       ?SetArgQWord@asCContext@@UAEHI_K@Z 1002e330 f   as_context.obj
 0001:0002d410       ?SetArgDWord@asCContext@@UAEHIK@Z 1002e410 f   as_context.obj
 0001:0002d4e0       ?SetArgWord@asCContext@@UAEHIG@Z 1002e4e0 f   as_context.obj
 0001:0002d5b0       ?SetArgByte@asCContext@@UAEHIE@Z 1002e5b0 f   as_context.obj
 0001:0002d680       ??1asCContext@@UAE@XZ      1002e680 f   as_context.obj
 0001:0002d720       ?asPushActiveContext@@YAPAVasCThreadLocalData@@PAVasIScriptContext@@@Z 1002e720 f   as_context.obj
 0001:0002d740       _asGetActiveContext        1002e740 f   as_context.obj
 0001:0002d770       ?DetermineLiveObjects@asCContext@@QAEXAAV?$asCArray@H@@I@Z 1002e770 f   as_context.obj
 0001:0002d9a0       ?SetInternalException@asCContext@@QAEXPBD@Z 1002e9a0 f   as_context.obj
 0001:0002da30       ?SetException@asCContext@@UAEHPBD@Z 1002ea30 f   as_context.obj
 0001:0002da50       ?ReserveStackSpace@asCContext@@QAE_NI@Z 1002ea50 f   as_context.obj
 0001:0002dc10       ??0asCContext@@QAE@PAVasCScriptEngine@@_N@Z 1002ec10 f   as_context.obj
 0001:0002dd00       ?GetAddressOfVar@asCContext@@UAEPAXII@Z 1002ed00 f   as_context.obj
 0001:0002e000       ?CallGeneric@asCContext@@QAEHHPAX@Z 1002f000 f   as_context.obj
 0001:0002e1e0       ?CleanStackFrame@asCContext@@QAEXXZ 1002f1e0 f   as_context.obj
 0001:0002e580       ?CleanStack@asCContext@@QAEXXZ 1002f580 f   as_context.obj
 0001:0002e5e0       ?CallScriptFunction@asCContext@@QAEXPAVasCScriptFunction@@@Z 1002f5e0 f   as_context.obj
 0001:0002e670       ?Unprepare@asCContext@@UAEHXZ 1002f670 f   as_context.obj
 0001:0002e6e0       ?Prepare@asCContext@@UAEHPAVasIScriptFunction@@@Z 1002f6e0 f   as_context.obj
 0001:0002e970       ?CallInterfaceMethod@asCContext@@QAEXPAVasCScriptFunction@@@Z 1002f970 f   as_context.obj
 0001:0002ea60       ?ExecuteNext@asCContext@@QAEXXZ 1002fa60 f   as_context.obj
 0001:00031370       ?Execute@asCContext@@UAEHXZ 10032370 f   as_context.obj
 0001:000316f0       ?Release@asCConfigGroup@@QAEHXZ 100326f0 f   as_configgroup.obj
 0001:00031700       ?AddRef@asCConfigGroup@@QAEHXZ 10032700 f   as_configgroup.obj
 0001:00031710       ?HasLiveObjects@asCConfigGroup@@QAE_NXZ 10032710 f   as_configgroup.obj
 0001:00031750       ?RefConfigGroup@asCConfigGroup@@QAEXPAV1@@Z 10032750 f   as_configgroup.obj
 0001:000317a0       ?FindType@asCConfigGroup@@QAEPAVasCObjectType@@PBD@Z 100327a0 f   as_configgroup.obj
 0001:00031800       ??1asCConfigGroup@@QAE@XZ  10032800 f   as_configgroup.obj
 0001:00031890       ??0asCConfigGroup@@QAE@XZ  10032890 f   as_configgroup.obj
 0001:000318d0       ?RemoveConfiguration@asCConfigGroup@@QAEXPAVasCScriptEngine@@_N@Z 100328d0 f   as_configgroup.obj
 0001:00031b40       ?GetPrecedence@asCCompiler@@IAEHPAVasCScriptNode@@@Z 10032b40 f   as_compiler.obj
 0001:00031c10       ?FilterConst@asCCompiler@@IAEXAAV?$asCArray@H@@_N@Z 10032c10 f   as_compiler.obj
 0001:00031cf0       ?IsLValue@asCCompiler@@IAE_NAAUasCTypeInfo@@@Z 10032cf0 f   as_compiler.obj
 0001:00031d20       ?AddVariableScope@asCCompiler@@IAEX_N0@Z 10032d20 f   as_compiler.obj
 0001:00031d90       ?MergeExprBytecode@asCCompiler@@IAEXPAUasSExprContext@@0@Z 10032d90 f   as_compiler.obj
 0001:00031df0       ?DetermineNameSpace@asCCompiler@@IAEPAUasSNameSpace@@ABVasCString@@@Z 10032df0 f   as_compiler.obj
 0001:00031e90       ?AfterFunctionCall@asCCompiler@@IAEXHAAV?$asCArray@PAUasSExprContext@@@@PAUasSExprContext@@_N@Z 10032e90 f   as_compiler.obj
 0001:00032080       ?GetVariableSlot@asCCompiler@@IAEHH@Z 10033080 f   as_compiler.obj
 0001:00032120       ?GetVariableOffset@asCCompiler@@IAEHH@Z 10033120 f   as_compiler.obj
 0001:00032200       ?RemoveVariableScope@asCCompiler@@IAEXXZ 10033200 f   as_compiler.obj
 0001:00032220       ?MergeExprBytecodeAndType@asCCompiler@@IAEXPAUasSExprContext@@0@Z 10033220 f   as_compiler.obj
 0001:00032290       ?PushVariableOnStack@asCCompiler@@IAEXPAUasSExprContext@@_N@Z 10033290 f   as_compiler.obj
 0001:000322f0       ?ConvertToReference@asCCompiler@@IAEXPAUasSExprContext@@@Z 100332f0 f   as_compiler.obj
 0001:00032330       ?Dereference@asCCompiler@@IAEXPAUasSExprContext@@_N@Z 10033330 f   as_compiler.obj
 0001:00032370       ?DeallocateVariable@asCCompiler@@IAEXH@Z 10033370 f   as_compiler.obj
 0001:00032400       ?IsVariableOnHeap@asCCompiler@@IAE_NH@Z 10033400 f   as_compiler.obj
 0001:00032420       ?AllocateVariable@asCCompiler@@IAEHABVasCDataType@@_N1@Z 10033420 f   as_compiler.obj
 0001:00032620       ?MoveArgsToStack@asCCompiler@@IAEXHPAVasCByteCode@@AAV?$asCArray@PAUasSExprContext@@@@_N@Z 10033620 f   as_compiler.obj
 0001:00032840       ?LineInstr@asCCompiler@@IAEXPAVasCByteCode@@I@Z 10033840 f   as_compiler.obj
 0001:00032880       ?Reset@asCCompiler@@IAEXPAVasCBuilder@@PAVasCScriptCode@@PAVasCScriptFunction@@@Z 10033880 f   as_compiler.obj
 0001:000328d0       ??1asCCompiler@@QAE@XZ     100338d0 f   as_compiler.obj
 0001:000329d0       ??0asCCompiler@@QAE@PAVasCScriptEngine@@@Z 100339d0 f   as_compiler.obj
 0001:00032a60       ?ConvertToVariableNotIn@asCCompiler@@IAEXPAUasSExprContext@@0@Z 10033a60 f   as_compiler.obj
 0001:00032aa0       ?ConvertToTempVariableNotIn@asCCompiler@@IAEXPAUasSExprContext@@0@Z 10033aa0 f   as_compiler.obj
 0001:00032ae0       ?AllocateVariableNotIn@asCCompiler@@IAEHABVasCDataType@@_N1PAUasSExprContext@@@Z 10033ae0 f   as_compiler.obj
 0001:00032b20       ?PrintMatchingFuncs@asCCompiler@@IAEXAAV?$asCArray@H@@PAVasCScriptNode@@@Z 10033b20 f   as_compiler.obj
 0001:00032c00       ?CompileArgumentList@asCCompiler@@IAEHPAVasCScriptNode@@AAV?$asCArray@PAUasSExprContext@@@@@Z 10033c00 f   as_compiler.obj
 0001:00032e10       ?FinalizeFunction@asCCompiler@@IAEXXZ 10033e10 f   as_compiler.obj
 0001:000330c0       ?CompileFactory@asCCompiler@@QAEHPAVasCBuilder@@PAVasCScriptCode@@PAVasCScriptFunction@@@Z 100340c0 f   as_compiler.obj
 0001:00033240       ?Warning@asCCompiler@@IAEXABVasCString@@PAVasCScriptNode@@@Z 10034240 f   as_compiler.obj
 0001:000332d0       ?Error@asCCompiler@@IAEXABVasCString@@PAVasCScriptNode@@@Z 100342d0 f   as_compiler.obj
 0001:00033360       ?DetermineSingleFunc@asCCompiler@@IAEXPAUasSExprContext@@PAVasCScriptNode@@@Z 10034360 f   as_compiler.obj
 0001:00033650       ?CallDefaultConstructor@asCCompiler@@IAEHAAVasCDataType@@H_NPAVasCByteCode@@PAVasCScriptNode@@H1@Z 10034650 f   as_compiler.obj
 0001:00033a50       ?CallCopyConstructor@asCCompiler@@IAEHAAVasCDataType@@H_NPAVasCByteCode@@PAUasSExprContext@@PAVasCScriptNode@@11@Z 10034a50 f   as_compiler.obj
 0001:00033d00       ?SetupParametersAndReturnVariable@asCCompiler@@IAEHAAV?$asCArray@VasCString@@@@PAVasCScriptNode@@@Z 10034d00 f   as_compiler.obj
 0001:00034100       ?CompileBooleanOperator@asCCompiler@@IAEXPAVasCScriptNode@@PAUasSExprContext@@11@Z 10035100 f   as_compiler.obj
 0001:000345c0       ?CompileComparisonOperator@asCCompiler@@IAEXPAVasCScriptNode@@PAUasSExprContext@@11@Z 100355c0 f   as_compiler.obj
 0001:000350d0       ?CompileBitwiseOperator@asCCompiler@@IAEXPAVasCScriptNode@@PAUasSExprContext@@11@Z 100360d0 f   as_compiler.obj
 0001:00035a70       ?CompileMathOperator@asCCompiler@@IAEXPAVasCScriptNode@@PAUasSExprContext@@11@Z 10036a70 f   as_compiler.obj
 0001:000365d0       ?FindPropertyAccessor@asCCompiler@@IAEHABVasCString@@PAUasSExprContext@@1PAVasCScriptNode@@PAUasSNameSpace@@_N@Z 100375d0 f   as_compiler.obj
 0001:00037000       ?FindPropertyAccessor@asCCompiler@@IAEHABVasCString@@PAUasSExprContext@@PAVasCScriptNode@@PAUasSNameSpace@@_N@Z 10038000 f   as_compiler.obj
 0001:00037020       ?ProcessStringConstant@asCCompiler@@IAEIAAVasCString@@PAVasCScriptNode@@_N@Z 10038020 f   as_compiler.obj
 0001:00037610       ?CompileVariableAccess@asCCompiler@@IAEHABVasCString@@0PAUasSExprContext@@PAVasCScriptNode@@_N33PAVasCObjectType@@@Z 10038610 f   as_compiler.obj
 0001:000385d0       ?ImplicitConversionConstant@asCCompiler@@IAEXPAUasSExprContext@@ABVasCDataType@@PAVasCScriptNode@@W4EImplicitConv@@@Z 100395d0 f   as_compiler.obj
 0001:000399f0       ?PerformAssignment@asCCompiler@@IAEHPAUasCTypeInfo@@0PAVasCByteCode@@PAVasCScriptNode@@@Z 1003a9f0 f   as_compiler.obj
 0001:00039d90       ?IsVariableInitialized@asCCompiler@@IAE_NPAUasCTypeInfo@@PAVasCScriptNode@@@Z 1003ad90 f   as_compiler.obj
 0001:00039e60       ?ProcessHeredocStringConstant@asCCompiler@@IAEXAAVasCString@@PAVasCScriptNode@@@Z 1003ae60 f   as_compiler.obj
 0001:00039fa0       ?PrepareForAssignment@asCCompiler@@IAEXPAVasCDataType@@PAUasSExprContext@@PAVasCScriptNode@@_N1@Z 1003afa0 f   as_compiler.obj
 0001:0003a2c0       ?PrepareTemporaryObject@asCCompiler@@IAEXPAVasCScriptNode@@PAUasSExprContext@@_N@Z 1003b2c0 f   as_compiler.obj
 0001:0003a560       ?PrepareArgument@asCCompiler@@IAEXPAVasCDataType@@PAUasSExprContext@@PAVasCScriptNode@@_NH3@Z 1003b560 f   as_compiler.obj
 0001:0003b110       ?PrepareArgument2@asCCompiler@@IAEXPAUasSExprContext@@0PAVasCDataType@@_NH2@Z 1003c110 f   as_compiler.obj
 0001:0003b180       ?PrepareFunctionCall@asCCompiler@@IAEXHPAVasCByteCode@@AAV?$asCArray@PAUasSExprContext@@@@@Z 1003c180 f   as_compiler.obj
 0001:0003b3d0       ?MakeFunctionCall@asCCompiler@@IAEXPAUasSExprContext@@HPAVasCObjectType@@AAV?$asCArray@PAUasSExprContext@@@@PAVasCScriptNode@@_NHH@Z 1003c3d0 f   as_compiler.obj
 0001:0003b630       ?CompileOverloadedDualOperator2@asCCompiler@@IAEHPAVasCScriptNode@@PBDPAUasSExprContext@@22_NABVasCDataType@@@Z 1003c630 f   as_compiler.obj
 0001:0003ba20       ?CompileOverloadedDualOperator@asCCompiler@@IAE_NPAVasCScriptNode@@PAUasSExprContext@@11@Z 1003ca20 f   as_compiler.obj
 0001:0003c090       ?ProcessPropertySetAccessor@asCCompiler@@IAEHPAUasSExprContext@@0PAVasCScriptNode@@@Z 1003d090 f   as_compiler.obj
 0001:0003c3a0       ?CompileOperatorOnHandles@asCCompiler@@IAEXPAVasCScriptNode@@PAUasSExprContext@@11@Z 1003d3a0 f   as_compiler.obj
 0001:0003cac0       ?CompileOperator@asCCompiler@@IAEHPAVasCScriptNode@@PAUasSExprContext@@11@Z 1003dac0 f   as_compiler.obj
 0001:0003cf40       ?DoAssignment@asCCompiler@@IAEHPAUasSExprContext@@00PAVasCScriptNode@@1H1@Z 1003df40 f   as_compiler.obj
 0001:0003d970       ?CompileMemberInitialization@asCCompiler@@IAEXPAVasCByteCode@@_N@Z 1003e970 f   as_compiler.obj
 0001:0003db70       ?CompileDefaultConstructor@asCCompiler@@QAEHPAVasCBuilder@@PAVasCScriptCode@@PAVasCScriptNode@@PAVasCScriptFunction@@PAUsClassDeclaration@@@Z 1003eb70 f   as_compiler.obj
 0001:0003dcc0       ?ProcessDeferredParams@asCCompiler@@IAEXPAUasSExprContext@@@Z 1003ecc0 f   as_compiler.obj
 0001:0003e0d0       ?PerformFunctionCall@asCCompiler@@IAEXHPAUasSExprContext@@_NPAV?$asCArray@PAUasSExprContext@@@@PAVasCObjectType@@1HH@Z 1003f0d0 f   as_compiler.obj
 0001:0003e6a0       ?ImplicitConvPrimitiveToObject@asCCompiler@@IAEIPAUasSExprContext@@ABVasCDataType@@PAVasCScriptNode@@W4EImplicitConv@@_N4@Z 1003f6a0 f   as_compiler.obj
 0001:0003eb00       ?CallDestructor@asCCompiler@@IAEXAAVasCDataType@@H_NPAVasCByteCode@@@Z 1003fb00 f   as_compiler.obj
 0001:0003ec30       ?ReleaseTemporaryVariable@asCCompiler@@IAEXHPAVasCByteCode@@@Z 1003fc30 f   as_compiler.obj
 0001:0003eca0       ?ReleaseTemporaryVariable@asCCompiler@@IAEXAAUasCTypeInfo@@PAVasCByteCode@@@Z 1003fca0 f   as_compiler.obj
 0001:0003ecd0       ?DestroyVariables@asCCompiler@@IAEXPAVasCByteCode@@@Z 1003fcd0 f   as_compiler.obj
 0001:0003ed80       ?CompileContinueStatement@asCCompiler@@IAEXPAVasCScriptNode@@PAVasCByteCode@@@Z 1003fd80 f   as_compiler.obj
 0001:0003eec0       ?CompileBreakStatement@asCCompiler@@IAEXPAVasCScriptNode@@PAVasCByteCode@@@Z 1003fec0 f   as_compiler.obj
 0001:0003f000       ?ConvertToVariable@asCCompiler@@IAEXPAUasSExprContext@@@Z 10040000 f   as_compiler.obj
 0001:0003f240       ?ConvertToTempVariable@asCCompiler@@IAEXPAUasSExprContext@@@Z 10040240 f   as_compiler.obj
 0001:0003f2c0       ?ImplicitConvObjectValue@asCCompiler@@IAEIPAUasSExprContext@@ABVasCDataType@@PAVasCScriptNode@@W4EImplicitConv@@_N@Z 100402c0 f   as_compiler.obj
 0001:0003f500       ?ImplicitConvObjectToPrimitive@asCCompiler@@IAEIPAUasSExprContext@@ABVasCDataType@@PAVasCScriptNode@@W4EImplicitConv@@_N@Z 10040500 f   as_compiler.obj
 0001:0003fcf0       ?ImplicitConvPrimitiveToPrimitive@asCCompiler@@IAEIPAUasSExprContext@@ABVasCDataType@@PAVasCScriptNode@@W4EImplicitConv@@_N@Z 10040cf0 f   as_compiler.obj
 0001:00040840       ?CompileRefCast@asCCompiler@@IAE_NPAUasSExprContext@@ABVasCDataType@@_NPAVasCScriptNode@@2@Z 10041840 f   as_compiler.obj
 0001:00040e20       ?ImplicitConvObjectRef@asCCompiler@@IAEIPAUasSExprContext@@ABVasCDataType@@PAVasCScriptNode@@W4EImplicitConv@@_N@Z 10041e20 f   as_compiler.obj
 0001:00041240       ?ImplicitConvObjectToObject@asCCompiler@@IAEIPAUasSExprContext@@ABVasCDataType@@PAVasCScriptNode@@W4EImplicitConv@@_N4@Z 10042240 f   as_compiler.obj
 0001:00041c80       ?ImplicitConversion@asCCompiler@@IAEIPAUasSExprContext@@ABVasCDataType@@PAVasCScriptNode@@W4EImplicitConv@@_N4@Z 10042c80 f   as_compiler.obj
 0001:00041d70       ?MatchArgument@asCCompiler@@IAEIAAV?$asCArray@H@@AAV?$asCArray@UasSOverloadCandidate@@@@PBUasSExprContext@@H_N@Z 10042d70 f   as_compiler.obj
 0001:00042080       ?MatchFunctions@asCCompiler@@IAEIAAV?$asCArray@H@@AAV?$asCArray@PAUasSExprContext@@@@PAVasCScriptNode@@PBDPAVasCObjectType@@_N55ABVasCString@@@Z 10043080 f   as_compiler.obj
 0001:00042790       ?CompileDefaultArgs@asCCompiler@@IAEHPAVasCScriptNode@@AAV?$asCArray@PAUasSExprContext@@@@PAVasCScriptFunction@@@Z 10043790 f   as_compiler.obj
 0001:00042e60       ?ProcessPropertyGetAccessor@asCCompiler@@IAEXPAUasSExprContext@@PAVasCScriptNode@@@Z 10043e60 f   as_compiler.obj
 0001:00043180       ?CompileExpressionPreOp@asCCompiler@@IAEHPAVasCScriptNode@@PAUasSExprContext@@@Z 10044180 f   as_compiler.obj
 0001:00043fd0       ?CompileFunctionCall@asCCompiler@@IAEHPAVasCScriptNode@@PAUasSExprContext@@PAVasCObjectType@@_NABVasCString@@@Z 10044fd0 f   as_compiler.obj
 0001:00044890       ?CompileConversion@asCCompiler@@IAEXPAVasCScriptNode@@PAUasSExprContext@@@Z 10045890 f   as_compiler.obj
 0001:00044ec0       ?CompileExpressionPostOp@asCCompiler@@IAEHPAVasCScriptNode@@PAUasSExprContext@@@Z 10045ec0 f   as_compiler.obj
 0001:00046120       ?CompileConstructCall@asCCompiler@@IAEXPAVasCScriptNode@@PAUasSExprContext@@@Z 10047120 f   as_compiler.obj
 0001:00046b90       ?CompileExpressionValue@asCCompiler@@IAEHPAVasCScriptNode@@PAUasSExprContext@@@Z 10047b90 f   as_compiler.obj
 0001:00047340       ?CompileExpressionTerm@asCCompiler@@IAEHPAVasCScriptNode@@PAUasSExprContext@@@Z 10048340 f   as_compiler.obj
 0001:000474c0       ?CompilePostFixExpression@asCCompiler@@IAEHPAV?$asCArray@PAVasCScriptNode@@@@PAUasSExprContext@@@Z 100484c0 f   as_compiler.obj
 0001:00047730       ?CompileExpression@asCCompiler@@IAEHPAVasCScriptNode@@PAUasSExprContext@@@Z 10048730 f   as_compiler.obj
 0001:00047890       ?CompileCondition@asCCompiler@@IAEHPAVasCScriptNode@@PAUasSExprContext@@@Z 10048890 f   as_compiler.obj
 0001:000481f0       ?CompileAssignment@asCCompiler@@IAEHPAVasCScriptNode@@PAUasSExprContext@@@Z 100491f0 f   as_compiler.obj
 0001:00048400       ?CompileReturnStatement@asCCompiler@@IAEXPAVasCScriptNode@@PAVasCByteCode@@@Z 10049400 f   as_compiler.obj
 0001:00048ca0       ?CompileExpressionStatement@asCCompiler@@IAEXPAVasCScriptNode@@PAVasCByteCode@@@Z 10049ca0 f   as_compiler.obj
 0001:00048dd0       ?CompileDoWhileStatement@asCCompiler@@IAEXPAVasCScriptNode@@PAVasCByteCode@@@Z 10049dd0 f   as_compiler.obj
 0001:000490b0       ?CompileWhileStatement@asCCompiler@@IAEXPAVasCScriptNode@@PAVasCByteCode@@@Z 1004a0b0 f   as_compiler.obj
 0001:00049380       ?CompileIfStatement@asCCompiler@@IAEXPAVasCScriptNode@@PA_NPAVasCByteCode@@@Z 1004a380 f   as_compiler.obj
 0001:00049820       ?CompileInitListElement@asCCompiler@@IAEHAAPAUasSListPatternNode@@AAPAVasCScriptNode@@HFAAIAAVasCByteCode@@@Z 1004a820 f   as_compiler.obj
 0001:0004a2f0       ?CompileInitList@asCCompiler@@IAEXPAUasCTypeInfo@@PAVasCScriptNode@@PAVasCByteCode@@H@Z 1004b2f0 f   as_compiler.obj
 0001:0004a8a0       ?CompileInitialization@asCCompiler@@IAE_NPAVasCScriptNode@@PAVasCByteCode@@AAVasCDataType@@0HPA_KH@Z 1004b8a0 f   as_compiler.obj
 0001:0004b360       ?CompileDeclaration@asCCompiler@@IAEXPAVasCScriptNode@@PAVasCByteCode@@@Z 1004c360 f   as_compiler.obj
 0001:0004b700       ?CompileGlobalVariable@asCCompiler@@QAEHPAVasCBuilder@@PAVasCScriptCode@@PAVasCScriptNode@@PAUsGlobalVariableDescription@@PAVasCScriptFunction@@@Z 1004c700 f   as_compiler.obj
 0001:0004b9c0       ?CompileForStatement@asCCompiler@@IAEXPAVasCScriptNode@@PAVasCByteCode@@@Z 1004c9c0 f   as_compiler.obj
 0001:0004be90       ?CompileCase@asCCompiler@@IAEXPAVasCScriptNode@@PAVasCByteCode@@@Z 1004ce90 f   as_compiler.obj
 0001:0004bff0       ?CompileSwitchStatement@asCCompiler@@IAEXPAVasCScriptNode@@PA_NPAVasCByteCode@@@Z 1004cff0 f   as_compiler.obj
 0001:0004caa0       ?CompileStatement@asCCompiler@@IAEXPAVasCScriptNode@@PA_NPAVasCByteCode@@@Z 1004daa0 f   as_compiler.obj
 0001:0004cbc0       ?CompileStatementBlock@asCCompiler@@IAEXPAVasCScriptNode@@_NPA_NPAVasCByteCode@@@Z 1004dbc0 f   as_compiler.obj
 0001:0004cdb0       ?CompileFunction@asCCompiler@@QAEHPAVasCBuilder@@PAVasCScriptCode@@AAV?$asCArray@VasCString@@@@PAVasCScriptNode@@PAVasCScriptFunction@@PAUsClassDeclaration@@@Z 1004ddb0 f   as_compiler.obj
 0001:0004d2d0       ?GetReturnedDouble@@YA_KXZ 1004e2d0 f   as_callfunc_x86.obj
 0001:0004d2f0       ?GetReturnedFloat@@YAKXZ   1004e2f0 f   as_callfunc_x86.obj
 0001:0004d300       ?CallThisCallFunctionRetByRef@@YA_KPBXPBKHP6AXXZPAX@Z 1004e300 f   as_callfunc_x86.obj
 0001:0004d350       ?CallThisCallFunction@@YA_KPBXPBKHP6AXXZ@Z 1004e350 f   as_callfunc_x86.obj
 0001:0004d3a0       ?CallSTDCallFunction@@YA_KPBKHP6AXXZ@Z 1004e3a0 f   as_callfunc_x86.obj
 0001:0004d3e0       ?CallCDeclFunctionRetByRefObjLast@@YA_KPBXPBKHP6AXXZPAX@Z 1004e3e0 f   as_callfunc_x86.obj
 0001:0004d430       ?CallCDeclFunctionRetByRef@@YA_KPBKHP6AXXZPAX@Z 1004e430 f   as_callfunc_x86.obj
 0001:0004d480       ?CallCDeclFunctionRetByRefObjFirst@@YA_KPBXPBKHP6AXXZPAX@Z 1004e480 f   as_callfunc_x86.obj
 0001:0004d4d0       ?CallCDeclFunctionObjFirst@@YA_KPBXPBKHP6AXXZ@Z 1004e4d0 f   as_callfunc_x86.obj
 0001:0004d520       ?CallCDeclFunctionObjLast@@YA_KPBXPBKHP6AXXZ@Z 1004e520 f   as_callfunc_x86.obj
 0001:0004d570       ?CallCDeclFunction@@YA_KPBKHP6AXXZ@Z 1004e570 f   as_callfunc_x86.obj
 0001:0004d5c0       ?CallSystemFunctionNative@@YA_KPAVasCContext@@PAVasCScriptFunction@@PAXPAK2AA_K@Z 1004e5c0 f   as_callfunc_x86.obj
 0001:0004d980       ?DetectCallingConvention@@YAH_NABUasSFuncPtr@@HPAXPAUasSSystemFunctionInterface@@@Z 1004e980 f   as_callfunc.obj
 0001:0004da80       ?PrepareSystemFunctionGeneric@@YAHPAVasCScriptFunction@@PAUasSSystemFunctionInterface@@PAVasCScriptEngine@@@Z 1004ea80 f   as_callfunc.obj
 0001:0004da90       ?CallSystemFunction@@YAHHPAVasCContext@@PAX@Z 1004ea90 f   as_callfunc.obj
 0001:0004dda0       ?PrepareSystemFunction@@YAHPAVasCScriptFunction@@PAUasSSystemFunctionInterface@@PAVasCScriptEngine@@@Z 1004eda0 f   as_callfunc.obj
 0001:0004e160       ?Remove@asCByteInstruction@@QAEXXZ 1004f160 f   as_bytecode.obj
 0001:0004e190       ?GetSize@asCByteInstruction@@QAEHXZ 1004f190 f   as_bytecode.obj
 0001:0004e1a0       ?AddAfter@asCByteInstruction@@QAEXPAV1@@Z 1004f1a0 f   as_bytecode.obj
 0001:0004e1c0       ??0asCByteInstruction@@QAE@XZ 1004f1c0 f   as_bytecode.obj
 0001:0004e1f0       ?GetLastInstr@asCByteCode@@QAEHXZ 1004f1f0 f   as_bytecode.obj
 0001:0004e200       ?Output@asCByteCode@@QAEXPAK@Z 1004f200 f   as_bytecode.obj
 0001:0004e370       ?FindLabel@asCByteCode@@QAEHHPAVasCByteInstruction@@PAPAV2@PAH@Z 1004f370 f   as_bytecode.obj
 0001:0004e400       ?AddCode@asCByteCode@@QAEXPAV1@@Z 1004f400 f   as_bytecode.obj
 0001:0004e440       ?GetSize@asCByteCode@@QAEHXZ 1004f440 f   as_bytecode.obj
 0001:0004e470       ?IsSimpleExpression@asCByteCode@@QAE_NXZ 1004f470 f   as_bytecode.obj
 0001:0004e4c0       ?IsTempRegUsed@asCByteCode@@IAE_NPAVasCByteInstruction@@@Z 1004f4c0 f   as_bytecode.obj
 0001:0004e6b0       ?IsTempVarOverwrittenByInstr@asCByteCode@@IAE_NPAVasCByteInstruction@@H@Z 1004f6b0 f   as_bytecode.obj
 0001:0004e700       ?IsInstrJmpOrLabel@asCByteCode@@IAE_NPAVasCByteInstruction@@@Z 1004f700 f   as_bytecode.obj
 0001:0004e750       ?IsTempVarReadByInstr@asCByteCode@@IAE_NPAVasCByteInstruction@@H@Z 1004f750 f   as_bytecode.obj
 0001:0004e7e0       ?IsTemporary@asCByteCode@@IAE_NH@Z 1004f7e0 f   as_bytecode.obj
 0001:0004e7f0       ?GoForward@asCByteCode@@IAEPAVasCByteInstruction@@PAV2@@Z 1004f7f0 f   as_bytecode.obj
 0001:0004e810       ?GoBack@asCByteCode@@IAEPAVasCByteInstruction@@PAV2@@Z 1004f810 f   as_bytecode.obj
 0001:0004e830       ?CanBeSwapped@asCByteCode@@IAE_NPAVasCByteInstruction@@@Z 1004f830 f   as_bytecode.obj
 0001:0004e870       ?RemoveInstruction@asCByteCode@@IAEXPAVasCByteInstruction@@@Z 1004f870 f   as_bytecode.obj
 0001:0004e8b0       ?InsertBefore@asCByteCode@@IAEXPAVasCByteInstruction@@0@Z 1004f8b0 f   as_bytecode.obj
 0001:0004e8d0       ?ExchangeVar@asCByteCode@@QAEXHH@Z 1004f8d0 f   as_bytecode.obj
 0001:0004e980       ?IsVarUsed@asCByteCode@@QAE_NH@Z 1004f980 f   as_bytecode.obj
 0001:0004ea30       ?ResolveJumpAddresses@asCByteCode@@QAEHXZ 1004fa30 f   as_bytecode.obj
 0001:0004eab0       ?AddInstruction@asCByteCode@@IAEHXZ 1004fab0 f   as_bytecode.obj
 0001:0004eaf0       ?ExtractObjectVariableInfo@asCByteCode@@QAEXPAVasCScriptFunction@@@Z 1004faf0 f   as_bytecode.obj
 0001:0004ec20       ?IsTempVarRead@asCByteCode@@IAE_NPAVasCByteInstruction@@H@Z 1004fc20 f   as_bytecode.obj
 0001:0004eeb0       ?AddPath@asCByteCode@@QAEXAAV?$asCArray@PAVasCByteInstruction@@@@PAVasCByteInstruction@@H@Z 1004feb0 f   as_bytecode.obj
 0001:0004eee0       ?RemoveLastInstr@asCByteCode@@QAEHXZ 1004fee0 f   as_bytecode.obj
 0001:0004ef30       ?InstrWORD@asCByteCode@@QAEHW4asEBCInstr@@G@Z 1004ff30 f   as_bytecode.obj
 0001:0004ef90       ?InstrPTR@asCByteCode@@QAEHW4asEBCInstr@@PAX@Z 1004ff90 f   as_bytecode.obj
 0001:0004eff0       ?InstrDWORD@asCByteCode@@QAEHW4asEBCInstr@@K@Z 1004fff0 f   as_bytecode.obj
 0001:0004f050       ?InstrINT@asCByteCode@@QAEHW4asEBCInstr@@H@Z 10050050 f   as_bytecode.obj
 0001:0004f0a0       ?InstrSHORT@asCByteCode@@QAEHW4asEBCInstr@@F@Z 100500a0 f   as_bytecode.obj
 0001:0004f100       ?InstrSHORT_QW@asCByteCode@@QAEHW4asEBCInstr@@F_K@Z 10050100 f   as_bytecode.obj
 0001:0004f160       ?InstrSHORT_DW@asCByteCode@@QAEHW4asEBCInstr@@FK@Z 10050160 f   as_bytecode.obj
 0001:0004f1c0       ?InstrSHORT_W@asCByteCode@@QAEHW4asEBCInstr@@FG@Z 100501c0 f   as_bytecode.obj
 0001:0004f220       ?InstrSHORT_B@asCByteCode@@QAEHW4asEBCInstr@@FE@Z 10050220 f   as_bytecode.obj
 0001:0004f280       ?InstrSHORT_DW_DW@asCByteCode@@QAEHW4asEBCInstr@@FKK@Z 10050280 f   as_bytecode.obj
 0001:0004f2f0       ?InstrW_DW@asCByteCode@@QAEHW4asEBCInstr@@GK@Z 100502f0 f   as_bytecode.obj
 0001:0004f350       ?InstrW_PTR@asCByteCode@@QAEHW4asEBCInstr@@FPAX@Z 10050350 f   as_bytecode.obj
 0001:0004f3a0       ?InstrW_W@asCByteCode@@QAEHW4asEBCInstr@@HH@Z 100503a0 f   as_bytecode.obj
 0001:0004f410       ?InstrW_W_W@asCByteCode@@QAEHW4asEBCInstr@@HHH@Z 10050410 f   as_bytecode.obj
 0001:0004f480       ?Instr@asCByteCode@@QAEHW4asEBCInstr@@@Z 10050480 f   as_bytecode.obj
 0001:0004f4d0       ?DeleteInstruction@asCByteCode@@IAEPAVasCByteInstruction@@PAV2@@Z 100504d0 f   as_bytecode.obj
 0001:0004f500       ?VarDecl@asCByteCode@@QAEXH@Z 10050500 f   as_bytecode.obj
 0001:0004f540       ?Block@asCByteCode@@QAEX_N@Z 10050540 f   as_bytecode.obj
 0001:0004f580       ?ObjInfo@asCByteCode@@QAEXHH@Z 10050580 f   as_bytecode.obj
 0001:0004f5c0       ?Line@asCByteCode@@QAEXHHH@Z 100505c0 f   as_bytecode.obj
 0001:0004f630       ?Label@asCByteCode@@QAEXF@Z 10050630 f   as_bytecode.obj
 0001:0004f670       ?JmpP@asCByteCode@@QAEXHK@Z 10050670 f   as_bytecode.obj
 0001:0004f6c0       ?Ret@asCByteCode@@QAEXH@Z  100506c0 f   as_bytecode.obj
 0001:0004f700       ?Alloc@asCByteCode@@QAEXW4asEBCInstr@@PAXHH@Z 10050700 f   as_bytecode.obj
 0001:0004f760       ?CallPtr@asCByteCode@@QAEXW4asEBCInstr@@HH@Z 10050760 f   as_bytecode.obj
 0001:0004f7b0       ?Call@asCByteCode@@QAEXW4asEBCInstr@@HH@Z 100507b0 f   as_bytecode.obj
 0001:0004f810       ?ExtractLineNumbers@asCByteCode@@QAEXXZ 10050810 f   as_bytecode.obj
 0001:0004f8c0       ?Optimize@asCByteCode@@QAEXXZ 100508c0 f   as_bytecode.obj
 0001:0004f9c0       ?RemoveUnusedValue@asCByteCode@@IAE_NPAVasCByteInstruction@@PAPAV2@@Z 100509c0 f   as_bytecode.obj
 0001:0004fee0       ?PostponeInitOfTemp@asCByteCode@@IAE_NPAVasCByteInstruction@@PAPAV2@@Z 10050ee0 f   as_bytecode.obj
 0001:0004ffa0       ?DeleteFirstChangeNext@asCByteCode@@IAEPAVasCByteInstruction@@PAV2@W4asEBCInstr@@@Z 10050fa0 f   as_bytecode.obj
 0001:0004ffc0       ?ChangeFirstDeleteNext@asCByteCode@@IAEPAVasCByteInstruction@@PAV2@W4asEBCInstr@@@Z 10050fc0 f   as_bytecode.obj
 0001:0004ffe0       ?InsertIfNotExists@asCByteCode@@QAEXAAV?$asCArray@H@@H@Z 10050fe0 f   as_bytecode.obj
 0001:00050000       ?ClearAll@asCByteCode@@QAEXXZ 10051000 f   as_bytecode.obj
 0001:00050040       ??1asCByteCode@@QAE@XZ     10051040 f   as_bytecode.obj
 0001:000500a0       ??0asCByteCode@@QAE@PAVasCScriptEngine@@@Z 100510a0 f   as_bytecode.obj
 0001:000500d0       ?PostProcess@asCByteCode@@QAEXXZ 100510d0 f   as_bytecode.obj
 0001:000502c0       ?OptimizeLocally@asCByteCode@@QAEXABV?$asCArray@H@@@Z 100512c0 f   as_bytecode.obj
 0001:00050cd0       ?GetVarsUsed@asCByteCode@@QAEXAAV?$asCArray@H@@@Z 10051cd0 f   as_bytecode.obj
 0001:00050d80       ?Finalize@asCByteCode@@QAEXABV?$asCArray@H@@@Z 10051d80 f   as_bytecode.obj
 0001:00050da0       ?GetFunctionDescription@asCBuilder@@IAEPAVasCScriptFunction@@H@Z 10051da0 f   as_builder.obj
 0001:00050dd0       ?Reset@asCBuilder@@IAEXXZ  10051dd0 f   as_builder.obj
 0001:00050de0       ?GetEnumValueFromObjectType@asCBuilder@@IAEHPAVasCObjectType@@PBDAAVasCDataType@@AAK@Z 10051de0 f   as_builder.obj
 0001:00050e80       ?GetFuncDef@asCBuilder@@IAEPAVasCScriptFunction@@PBD@Z 10051e80 f   as_builder.obj
 0001:00050f20       ?GetObjectTypeFromTypesKnownByObject@asCBuilder@@IAEPAVasCObjectType@@PBDPAV2@@Z 10051f20 f   as_builder.obj
 0001:000510a0       ?DoesTypeExist@asCBuilder@@IAE_NABVasCString@@@Z 100520a0 f   as_builder.obj
 0001:00051240       ?GetObjectType@asCBuilder@@IAEPAVasCObjectType@@PBDPAUasSNameSpace@@@Z 10052240 f   as_builder.obj
 0001:00051260       ?GetObjectMethodDescriptions@asCBuilder@@IAEXPBDPAVasCObjectType@@AAV?$asCArray@H@@_NABVasCString@@@Z 10052260 f   as_builder.obj
 0001:00051440       ?DoesMethodExist@asCBuilder@@IAE_NPAVasCObjectType@@HPAI@Z 10052440 f   as_builder.obj
 0001:000514f0       ?GetMixinClass@asCBuilder@@IAEPAUsMixinClass@@PBDPAUasSNameSpace@@@Z 100524f0 f   as_builder.obj
 0001:00051560       ?GetObjectProperty@asCBuilder@@IAEPAVasCObjectProperty@@AAVasCDataType@@PBD@Z 10052560 f   as_builder.obj
 0001:000515d0       ?GetEnumValue@asCBuilder@@IAEHPBDAAVasCDataType@@AAKPAUasSNameSpace@@@Z 100525d0 f   as_builder.obj
 0001:000516c0       ?GetParentNameSpace@asCBuilder@@IAEPAUasSNameSpace@@PAU2@@Z 100526c0 f   as_builder.obj
 0001:000517a0       ?GetScopeFromNode@asCBuilder@@IAE?AVasCString@@PAVasCScriptNode@@PAVasCScriptCode@@PAPAV3@@Z 100527a0 f   as_builder.obj
 0001:000518a0       ?WriteInfo@asCBuilder@@IAEXABVasCString@@0HH_N@Z 100528a0 f   as_builder.obj
 0001:00051910       ?GetCleanExpressionString@asCBuilder@@IAE?AVasCString@@PAVasCScriptNode@@PAVasCScriptCode@@@Z 10052910 f   as_builder.obj
 0001:00051a10       ?AddCode@asCBuilder@@QAEHPBD0HHH_N@Z 10052a10 f   as_builder.obj
 0001:00051a90       ?WriteWarning@asCBuilder@@IAEXABVasCString@@0HH@Z 10052a90 f   as_builder.obj
 0001:00051af0       ?WriteError@asCBuilder@@IAEXABVasCString@@0HH@Z 10052af0 f   as_builder.obj
 0001:00051b50       ?WriteError@asCBuilder@@IAEXABVasCString@@PAVasCScriptCode@@PAVasCScriptNode@@@Z 10052b50 f   as_builder.obj
 0001:00051c00       ?WriteInfo@asCBuilder@@IAEXABVasCString@@PAVasCScriptCode@@PAVasCScriptNode@@@Z 10052c00 f   as_builder.obj
 0001:00051c50       ?GetFunctionDescriptions@asCBuilder@@IAEXPBDAAV?$asCArray@H@@PAUasSNameSpace@@@Z 10052c50 f   as_builder.obj
 0001:00051df0       ?AddPropertyToClass@asCBuilder@@IAEPAVasCObjectProperty@@PAUsClassDeclaration@@ABVasCString@@ABVasCDataType@@_NPAVasCScriptCode@@PAVasCScriptNode@@@Z 10052df0 f   as_builder.obj
 0001:00051f30       ?AddInterfaceToClass@asCBuilder@@IAEXPAUsClassDeclaration@@PAVasCScriptNode@@PAVasCObjectType@@@Z 10052f30 f   as_builder.obj
 0001:000520c0       ?CheckNameConflictMember@asCBuilder@@QAEHPAVasCObjectType@@PBDPAVasCScriptNode@@PAVasCScriptCode@@_N@Z 100530c0 f   as_builder.obj
 0001:00052290       ?GetGlobalProperty@asCBuilder@@IAEPAVasCGlobalProperty@@PBDPAUasSNameSpace@@PA_N2PA_K2@Z 10053290 f   as_builder.obj
 0001:00052410       ?ValidateDefaultArgs@asCBuilder@@IAEHPAVasCScriptCode@@PAVasCScriptNode@@PAVasCScriptFunction@@@Z 10053410 f   as_builder.obj
 0001:000524f0       ??1asCBuilder@@QAE@XZ      100534f0 f   as_builder.obj
 0001:00052ae0       ??0asCBuilder@@QAE@PAVasCScriptEngine@@PAVasCModule@@@Z 10053ae0 f   as_builder.obj
 0001:00052b90       ?GetKey@?$asCSymbolTable@UsGlobalVariableDescription@@@@ABEXPBUsGlobalVariableDescription@@AAVasCString@@@Z 10053b90 f   as_builder.obj
 0001:00052c40       ?ModifyDataTypeFromNode@asCBuilder@@IAE?AVasCDataType@@ABV2@PAVasCScriptNode@@PAVasCScriptCode@@PAW4asETypeModifiers@@PA_N@Z 10053c40 f   as_builder.obj
 0001:00052e10       ?GetNameSpaceFromNode@asCBuilder@@IAEPAUasSNameSpace@@PAVasCScriptNode@@PAVasCScriptCode@@PAU2@PAPAV3@@Z 10053e10 f   as_builder.obj
 0001:00052f10       ?GetNamespaceAndNameFromNode@asCBuilder@@IAEHPAVasCScriptNode@@PAVasCScriptCode@@PAUasSNameSpace@@AAPAU4@AAVasCString@@@Z 10053f10 f   as_builder.obj
 0001:00052fc0       ?CheckNameConflict@asCBuilder@@QAEHPBDPAVasCScriptNode@@PAVasCScriptCode@@PAUasSNameSpace@@@Z 10053fc0 f   as_builder.obj
 0001:00053360       ?ParseTemplateDecl@asCBuilder@@QAEHPBDPAVasCString@@AAV?$asCArray@VasCString@@@@@Z 10054360 f   as_builder.obj
 0001:000534f0       ?RegisterTypedef@asCBuilder@@IAEHPAVasCScriptNode@@PAVasCScriptCode@@PAUasSNameSpace@@@Z 100544f0 f   as_builder.obj
 0001:000536b0       ?CompileInterfaces@asCBuilder@@IAEXXZ 100546b0 f   as_builder.obj
 0001:00053b70       ?AddInterfaceFromMixinToClass@asCBuilder@@IAEXPAUsClassDeclaration@@PAVasCScriptNode@@PAUsMixinClass@@@Z 10054b70 f   as_builder.obj
 0001:00053cc0       ?RegisterInterface@asCBuilder@@IAEHPAVasCScriptNode@@PAVasCScriptCode@@PAUasSNameSpace@@@Z 10054cc0 f   as_builder.obj
 0001:00053fd0       ?RegisterClass@asCBuilder@@IAEHPAVasCScriptNode@@PAVasCScriptCode@@PAUasSNameSpace@@@Z 10054fd0 f   as_builder.obj
 0001:00054490       ?RegisterMixinClass@asCBuilder@@IAEHPAVasCScriptNode@@PAVasCScriptCode@@PAUasSNameSpace@@@Z 10055490 f   as_builder.obj
 0001:00054690       ?CreateDataTypeFromNode@asCBuilder@@IAE?AVasCDataType@@PAVasCScriptNode@@PAVasCScriptCode@@PAUasSNameSpace@@_NPAVasCObjectType@@@Z 10055690 f   as_builder.obj
 0001:00054eb0       ?RegisterScriptFunction@asCBuilder@@IAEHPAVasCScriptNode@@PAVasCScriptCode@@PAVasCObjectType@@_N3PAUasSNameSpace@@33AAVasCString@@AAVasCDataType@@AAV?$asCArray@VasCString@@@@AAV?$asCArray@VasCDataType@@@@AAV?$asCArray@W4asETypeModifiers@@@@AAV?$asCArray@PAVasCString@@@@3333333@Z 10055eb0 f   as_builder.obj
 0001:00055ce0       ?GetParsedFunctionDetails@asCBuilder@@IAEXPAVasCScriptNode@@PAVasCScriptCode@@PAVasCObjectType@@AAVasCString@@AAVasCDataType@@AAV?$asCArray@VasCString@@@@AAV?$asCArray@VasCDataType@@@@AAV?$asCArray@W4asETypeModifiers@@@@AAV?$asCArray@PAVasCString@@@@AA_N999999PAUasSNameSpace@@@Z 10056ce0 f   as_builder.obj
 0001:00056220       ?RegisterEnum@asCBuilder@@IAEHPAVasCScriptNode@@PAVasCScriptCode@@PAUasSNameSpace@@@Z 10057220 f   as_builder.obj
 0001:000567e0       ?AddDefaultConstructor@asCBuilder@@IAEXPAVasCObjectType@@PAVasCScriptCode@@@Z 100577e0 f   as_builder.obj
 0001:00056ae0       ?CreateVirtualFunction@asCBuilder@@IAEHPAVasCScriptFunction@@H@Z 10057ae0 f   as_builder.obj
 0001:00056c80       ?IncludePropertiesFromMixins@asCBuilder@@IAEXPAUsClassDeclaration@@@Z 10057c80 f   as_builder.obj
 0001:00057150       ?RegisterGlobalVar@asCBuilder@@IAEHPAVasCScriptNode@@PAVasCScriptCode@@PAUasSNameSpace@@@Z 10058150 f   as_builder.obj
 0001:000573d0       ?CompleteFuncDef@asCBuilder@@IAEXPAUsFuncDef@@@Z 100583d0 f   as_builder.obj
 0001:000575c0       ?RegisterFuncDef@asCBuilder@@IAEHPAVasCScriptNode@@PAVasCScriptCode@@PAUasSNameSpace@@@Z 100585c0 f   as_builder.obj
 0001:00057720       ?ParseVariableDeclaration@asCBuilder@@QAEHPBDPAUasSNameSpace@@AAVasCString@@AAPAU2@AAVasCDataType@@@Z 10058720 f   as_builder.obj
 0001:000578b0       ?ParseFunctionDeclaration@asCBuilder@@QAEHPAVasCObjectType@@PBDPAVasCScriptFunction@@_NPAV?$asCArray@_N@@PA_NPAUasSNameSpace@@PAPAVasCScriptNode@@@Z 100588b0 f   as_builder.obj
 0001:00057e40       ?VerifyProperty@asCBuilder@@QAEHPAVasCDataType@@PBDAAVasCString@@AAV2@PAUasSNameSpace@@@Z 10058e40 f   as_builder.obj
 0001:000580a0       ?ParseDataType@asCBuilder@@QAEHPBDPAVasCDataType@@PAUasSNameSpace@@_N@Z 100590a0 f   as_builder.obj
 0001:00058220       ?RegisterTypesFromScript@asCBuilder@@IAEXPAVasCScriptNode@@PAVasCScriptCode@@PAUasSNameSpace@@@Z 10059220 f   as_builder.obj
 0001:00058400       ?RegisterImportedFunction@asCBuilder@@IAEHHPAVasCScriptNode@@PAVasCScriptCode@@PAUasSNameSpace@@@Z 10059400 f   as_builder.obj
 0001:000586d0       ?RegisterVirtualProperty@asCBuilder@@IAEHPAVasCScriptNode@@PAVasCScriptCode@@PAVasCObjectType@@_N3PAUasSNameSpace@@3@Z 100596d0 f   as_builder.obj
 0001:00058eb0       ?RegisterScriptFunctionFromNode@asCBuilder@@IAEHPAVasCScriptNode@@PAVasCScriptCode@@PAVasCObjectType@@_N3PAUasSNameSpace@@33@Z 10059eb0 f   as_builder.obj
 0001:00059090       ?IncludeMethodsFromMixins@asCBuilder@@IAEXPAUsClassDeclaration@@@Z 1005a090 f   as_builder.obj
 0001:00059220       ?CompileClasses@asCBuilder@@IAEXXZ 1005a220 f   as_builder.obj
 0001:0005a510       ?RegisterNonTypesFromScript@asCBuilder@@IAEXPAVasCScriptNode@@PAVasCScriptCode@@PAUasSNameSpace@@@Z 1005b510 f   as_builder.obj
 0001:0005a720       ?ParseScripts@asCBuilder@@IAEXXZ 1005b720 f   as_builder.obj
 0001:0005ab70       ?CompileGlobalVariables@asCBuilder@@IAEXXZ 1005bb70 f   as_builder.obj
 0001:0005b5f0       ?CompileGlobalVar@asCBuilder@@QAEHPBD0H@Z 1005c5f0 f   as_builder.obj
 0001:0005b7f0       ?CompileFunctions@asCBuilder@@IAEXXZ 1005c7f0 f   as_builder.obj
 0001:0005ba70       ?CompileFunction@asCBuilder@@QAEHPBD0HKPAPAVasCScriptFunction@@@Z 1005ca70 f   as_builder.obj
 0001:0005bfe0       ?Build@asCBuilder@@QAEHXZ  1005cfe0 f   as_builder.obj
 0001:0005c080       _asAtomicDec               1005d080 f   as_atomic.obj
 0001:0005c090       _asAtomicInc               1005d090 f   as_atomic.obj
 0001:0005c0a0       ?atomicDec@asCAtomic@@QAEKXZ 1005d0a0 f   as_atomic.obj
 0001:0005c0b0       ?atomicInc@asCAtomic@@QAEKXZ 1005d0b0 f   as_atomic.obj
 0001:0005c0c0       ?set@asCAtomic@@QAEXK@Z    1005d0c0 f   as_atomic.obj
 0001:0005c0d0       ?get@asCAtomic@@QBEKXZ     1005d0d0 f   as_atomic.obj
 0001:0005c0e0       ??0asCAtomic@@QAE@XZ       1005d0e0 f   as_atomic.obj
 0001:0005c0f0       ?GetVariableByOffset@asCVariableScope@@QAEPAUsVariable@@H@Z 1005d0f0 f   as_variablescope.obj
 0001:0005c150       ?Reset@asCVariableScope@@QAEXXZ 1005d150 f   as_variablescope.obj
 0001:0005c1c0       ??1asCVariableScope@@QAE@XZ 1005d1c0 f   as_variablescope.obj
 0001:0005c210       ??0asCVariableScope@@QAE@PAV0@@Z 1005d210 f   as_variablescope.obj
 0001:0005c260       ?GetVariable@asCVariableScope@@QAEPAUsVariable@@PBD@Z 1005d260 f   as_variablescope.obj
 0001:0005c2d0       ?DeclareVariable@asCVariableScope@@QAEHPBDABVasCDataType@@H_N@Z 1005d2d0 f   as_variablescope.obj
 0001:0005c3d0       ?Append@asCOutputBuffer@@QAEXAAV1@@Z 1005d3d0 f   as_outputbuffer.obj
 0001:0005c410       ?Clear@asCOutputBuffer@@QAEXXZ 1005d410 f   as_outputbuffer.obj
 0001:0005c4b0       ??1asCOutputBuffer@@QAE@XZ 1005d4b0 f   as_outputbuffer.obj
 0001:0005c500       ?SendToCallback@asCOutputBuffer@@QAEXPAVasCScriptEngine@@PAUasSSystemFunctionInterface@@PAX@Z 1005d500 f   as_outputbuffer.obj
 0001:0005c5d0       ?Callback@asCOutputBuffer@@QAEXPAUasSMessageInfo@@@Z 1005d5d0 f   as_outputbuffer.obj
 0001:0005c63c       _memset                    1005d63c f   MSVCRT:MSVCR90.dll
 0001:0005c650       _memcpy                    1005d650 f   MSVCRT:MSVCR90.dll
 0001:0005c656       ___CxxFrameHandler3        1005d656 f   MSVCRT:MSVCR90.dll
 0001:0005c65c       __CIfmod                   1005d65c f   MSVCRT:MSVCR90.dll
 0001:0005c670       __allmul                   1005d670 f   MSVCRT:llmul.obj
 0001:0005c6b0       __allshr                   1005d6b0 f   MSVCRT:llshr.obj
 0001:0005c6e0       __aullshr                  1005d6e0 f   MSVCRT:ullshr.obj
 0001:0005c700       __allshl                   1005d700 f   MSVCRT:llshl.obj
 0001:0005c720       __aullrem                  1005d720 f   MSVCRT:ullrem.obj
 0001:0005c7a0       __allrem                   1005d7a0 f   MSVCRT:llrem.obj
 0001:0005c860       __aulldiv                  1005d860 f   MSVCRT:ulldiv.obj
 0001:0005c8d0       __alldiv                   1005d8d0 f   MSVCRT:lldiv.obj
 0001:0005c980       __ftol2_sse                1005d980 f   MSVCRT:ftol2.obj
 0001:0005c989       __ftol2_pentium4           1005d989 f   MSVCRT:ftol2.obj
 0001:0005c99c       __ftol2_sse_excpt          1005d99c f   MSVCRT:ftol2.obj
 0001:0005c9b6       __ftol2                    1005d9b6 f   MSVCRT:ftol2.obj
 0001:0005ca7b       __get_sse2_info            1005da7b f   MSVCRT:cpu_disp.obj
 0001:0005cadd       ___sse2_available_init     1005dadd f   MSVCRT:cpu_disp.obj
 0002:00000000       __imp__InterlockedIncrement@4 10062000     kernel32:KERNEL32.dll
 0002:00000004       __imp__InterlockedDecrement@4 10062004     kernel32:KERNEL32.dll
 0002:00000008       __imp__TryEnterCriticalSection@4 10062008     kernel32:KERNEL32.dll
 0002:0000000c       __imp__TlsGetValue@4       1006200c     kernel32:KERNEL32.dll
 0002:00000010       __imp__WaitForSingleObject@8 10062010     kernel32:KERNEL32.dll
 0002:00000014       __imp__InitializeCriticalSection@4 10062014     kernel32:KERNEL32.dll
 0002:00000018       __imp__TlsSetValue@8       10062018     kernel32:KERNEL32.dll
 0002:0000001c       __imp__LeaveCriticalSection@4 1006201c     kernel32:KERNEL32.dll
 0002:00000020       __imp__CreateSemaphoreA@16 10062020     kernel32:KERNEL32.dll
 0002:00000024       __imp__ReleaseSemaphore@12 10062024     kernel32:KERNEL32.dll
 0002:00000028       __imp__EnterCriticalSection@4 10062028     kernel32:KERNEL32.dll
 0002:0000002c       __imp__DeleteCriticalSection@4 1006202c     kernel32:KERNEL32.dll
 0002:00000030       __imp__TlsAlloc@0          10062030     kernel32:KERNEL32.dll
 0002:00000034       __imp__CloseHandle@4       10062034     kernel32:KERNEL32.dll
 0002:00000038       __imp__TlsFree@4           10062038     kernel32:KERNEL32.dll
 0002:0000003c       __imp__SetUnhandledExceptionFilter@4 1006203c     kernel32:KERNEL32.dll
 0002:00000040       __imp__UnhandledExceptionFilter@4 10062040     kernel32:KERNEL32.dll
 0002:00000044       __imp__GetCurrentProcess@0 10062044     kernel32:KERNEL32.dll
 0002:00000048       __imp__TerminateProcess@8  10062048     kernel32:KERNEL32.dll
 0002:0000004c       __imp__GetSystemTimeAsFileTime@4 1006204c     kernel32:KERNEL32.dll
 0002:00000050       __imp__GetCurrentProcessId@0 10062050     kernel32:KERNEL32.dll
 0002:00000054       __imp__GetCurrentThreadId@0 10062054     kernel32:KERNEL32.dll
 0002:00000058       __imp__GetTickCount@0      10062058     kernel32:KERNEL32.dll
 0002:0000005c       __imp__QueryPerformanceCounter@4 1006205c     kernel32:KERNEL32.dll
 0002:00000060       __imp__DisableThreadLibraryCalls@4 10062060     kernel32:KERNEL32.dll
 0002:00000064       __imp__InterlockedCompareExchange@12 10062064     kernel32:KERNEL32.dll
 0002:00000068       __imp__Sleep@4             10062068     kernel32:KERNEL32.dll
 0002:0000006c       __imp__IsDebuggerPresent@0 1006206c     kernel32:KERNEL32.dll
 0002:00000070       __imp__InterlockedExchange@8 10062070     kernel32:KERNEL32.dll
 0002:00000074       \177KERNEL32_NULL_THUNK_DATA 10062074     kernel32:KERNEL32.dll
 0002:00000078       __imp___malloc_crt         10062078     MSVCRT:MSVCR90.dll
 0002:0000007c       __imp___encoded_null       1006207c     MSVCRT:MSVCR90.dll
 0002:00000080       __imp___initterm           10062080     MSVCRT:MSVCR90.dll
 0002:00000084       __imp___initterm_e         10062084     MSVCRT:MSVCR90.dll
 0002:00000088       __imp___amsg_exit          10062088     MSVCRT:MSVCR90.dll
 0002:0000008c       __imp___adjust_fdiv        1006208c     MSVCRT:MSVCR90.dll
 0002:00000090       __imp____CppXcptFilter     10062090     MSVCRT:MSVCR90.dll
 0002:00000094       __imp___except_handler4_common 10062094     MSVCRT:MSVCR90.dll
 0002:00000098       __imp_?terminate@@YAXXZ    10062098     MSVCRT:MSVCR90.dll
 0002:0000009c       __imp_?_type_info_dtor_internal_method@type_info@@QAEXXZ 1006209c     MSVCRT:MSVCR90.dll
 0002:000000a0       __imp____clean_type_info_names_internal 100620a0     MSVCRT:MSVCR90.dll
 0002:000000a4       __imp___crt_debugger_hook  100620a4     MSVCRT:MSVCR90.dll
 0002:000000a8       __imp__vsnprintf_s         100620a8     MSVCRT:MSVCR90.dll
 0002:000000a8       __imp___vsnprintf_s        100620a8     MSVCRT:MSVCR90.dll
 0002:000000ac       __imp___onexit             100620ac     MSVCRT:MSVCR90.dll
 0002:000000b0       __imp___lock               100620b0     MSVCRT:MSVCR90.dll
 0002:000000b4       __imp___encode_pointer     100620b4     MSVCRT:MSVCR90.dll
 0002:000000b8       __imp____dllonexit         100620b8     MSVCRT:MSVCR90.dll
 0002:000000bc       __imp___unlock             100620bc     MSVCRT:MSVCR90.dll
 0002:000000c0       __imp__strstr              100620c0     MSVCRT:MSVCR90.dll
 0002:000000c4       __imp__qsort               100620c4     MSVCRT:MSVCR90.dll
 0002:000000c8       __imp__strncmp             100620c8     MSVCRT:MSVCR90.dll
 0002:000000cc       __imp__malloc              100620cc     MSVCRT:MSVCR90.dll
 0002:000000d0       __imp__free                100620d0     MSVCRT:MSVCR90.dll
 0002:000000d4       __imp_??3@YAXPAX@Z         100620d4     MSVCRT:MSVCR90.dll
 0002:000000d8       __imp___purecall           100620d8     MSVCRT:MSVCR90.dll
 0002:000000dc       __imp___decode_pointer     100620dc     MSVCRT:MSVCR90.dll
 0002:000000e0       __imp__memset              100620e0     MSVCRT:MSVCR90.dll
 0002:000000e4       __imp__memcpy              100620e4     MSVCRT:MSVCR90.dll
 0002:000000e8       __imp____CxxFrameHandler3  100620e8     MSVCRT:MSVCR90.dll
 0002:000000ec       __imp___CIfmod             100620ec     MSVCRT:MSVCR90.dll
 0002:000000f0       \177MSVCR90_NULL_THUNK_DATA 100620f0     MSVCRT:MSVCR90.dll
 0002:000000f4       ___xc_a                    100620f4     MSVCRT:cinitexe.obj
 0002:00000100       ___xc_z                    10062100     MSVCRT:cinitexe.obj
 0002:00000104       ___xi_a                    10062104     MSVCRT:cinitexe.obj
 0002:00000110       ___xi_z                    10062110     MSVCRT:cinitexe.obj
 0002:0000011c       ??_7type_info@@6B@         1006211c     MSVCRT:ti_inst.obj
 0002:00000120       __pDefaultRawDllMain       10062120     MSVCRT:crtdll.obj
 0002:00000120       __pRawDllMain              10062120     MSVCRT:crtdll.obj
 0002:0000012c       ??_C@_0P@GHFPNOJB@bad?5allocation?$AA@ 1006212c     as_atomic.obj
 0002:0000013c       ??_C@_03KCHOJKKI@set?$AA@  1006213c     as_builder.obj
 0002:00000140       ??_C@_03HNAFFKGA@get?$AA@  10062140     as_builder.obj
 0002:00000144       ??_C@_08PNBPAFID@override?$AA@ 10062144     as_builder.obj
 0002:00000150       ??_C@_05FPBGKCKL@final?$AA@ 10062150     as_builder.obj
 0002:00000158       ??_C@_06HBFNPGIC@shared?$AA@ 10062158     as_builder.obj
 0002:00000160       ??_C@_02MOLJINC@?3?3?$AA@  10062160     as_builder.obj
 0002:00000164       ??_C@_01PJKLJHI@?$HO?$AA@  10062164     as_builder.obj
 0002:000057dc       ??_C@_00CNPNBAHC@?$AA@     100677dc     as_builder.obj
 0002:000057e0       ??_C@_0DC@DLCFPOFC@Warnings?5are?5treated?5as?5errors?5b@ 100677e0     as_builder.obj
 0002:00005814       ??_C@_0DH@LGCDOKPP@The?5code?5must?5contain?5one?5and?5on@ 10067814     as_builder.obj
 0002:00005850       ??_C@_0GC@JNJFLPPF@All?5subsequent?5parameters?5after?5@ 10067850     as_builder.obj
 0002:000058b4       ??_C@_0DA@MNLHKCL@The?5code?5must?5contain?5one?5and?5on@ 100678b4     as_builder.obj
 0002:000058e4       ??_C@_0BD@LDIFFAPE@Unused?5script?5node?$AA@ 100678e4     as_builder.obj
 0002:000058f8       ??_C@_0N@CNODKGIM@Compiling?5?$CFs?$AA@ 100678f8     as_builder.obj
 0002:00005908       ??_C@_08MOOMJPBO@Property?$AA@ 10067908     as_builder.obj
 0002:00005914       ??_C@_0BA@GGPNFPKA@System?5function?$AA@ 10067914     as_builder.obj
 0002:00005924       ??_C@_0BF@IELMIHDF@Variable?5declaration?$AA@ 10067924     as_builder.obj
 0002:0000593c       ??_C@_0CL@KKPLDCEI@Name?5conflict?4?5?8?$CFs?8?5is?5an?5object@ 1006793c     as_builder.obj
 0002:00005968       ??_C@_0CH@NFHFGMAL@Name?5conflict?4?5?8?$CFs?8?5is?5a?5class?5m@ 10067968     as_builder.obj
 0002:00005990       ??_C@_0CO@PGEHEBAB@Name?5conflict?4?5?8?$CFs?8?5is?5an?5extend@ 10067990     as_builder.obj
 0002:000059c0       ??_C@_0CK@NHFBFLML@Name?5conflict?4?5?8?$CFs?8?5is?5a?5global?5@ 100679c0     as_builder.obj
 0002:000059ec       ??_C@_0CA@EGBCNAEG@Name?5conflict?4?5?8?$CFs?8?5is?5a?5class?4?$AA@ 100679ec     as_builder.obj
 0002:00005a0c       ??_C@_0CF@LEKPDCAM@Name?5conflict?4?5?8?$CFs?8?5is?5a?5named?5t@ 10067a0c     as_builder.obj
 0002:00005a34       ??_C@_0CC@CFIFELGI@Name?5conflict?4?5?8?$CFs?8?5is?5a?5funcdef@ 10067a34     as_builder.obj
 0002:00005a58       ??_C@_0CG@FEIEMIGG@Name?5conflict?4?5?8?$CFs?8?5is?5a?5mixin?5c@ 10067a58     as_builder.obj
 0002:00005a80       ??_C@_0DH@ENMBKGO@Global?5variables?5have?5been?5disab@ 10067a80     as_builder.obj
 0002:00005ab8       ??_C@_0BI@MFEJNPFB@Data?5type?5can?8t?5be?5?8?$CFs?8?$AA@ 10067ab8     as_builder.obj
 0002:00005ad0       ??_C@_0CH@JEBGLBCH@Mixin?5class?5cannot?5be?5declared?5a@ 10067ad0     as_builder.obj
 0002:00005af8       ??_C@_01CLKCMJKC@?5?$AA@   10067af8     as_builder.obj
 0002:00005afc       ??_C@_0CL@LKEEEEEP@Use?5of?5uninitialized?5global?5vari@ 10067afc     as_builder.obj
 0002:00005b28       ??_C@_0CI@JNCKLEKG@Mixin?5class?5cannot?5inherit?5from?5@ 10067b28     as_builder.obj
 0002:00005b50       ??_C@_0DH@JAJLJIOA@Shared?5type?5cannot?5implement?5non@ 10067b50     as_builder.obj
 0002:00005b88       ??_C@_0EI@OBOCNDAP@Shared?5type?5?8?$CFs?8?5doesn?8t?5match?5t@ 10067b88     as_builder.obj
 0002:00005bd0       ??_C@_0CP@HGHBGHME@Interfaces?5can?5only?5implement?5ot@ 10067bd0     as_builder.obj
 0002:00005c00       ??_C@_0EM@IIGMKJIK@Can?8t?5implement?5itself?0?5or?5anoth@ 10067c00     as_builder.obj
 0002:00005c4c       ??_C@_0CD@JPJPDDBJ@Identifier?5?8?$CFs?8?5is?5not?5a?5data?5ty@ 10067c4c     as_builder.obj
 0002:00005c70       ??_C@_0CO@BECEFHG@Can?8t?5inherit?5from?5class?5?8?$CFs?8?5ma@ 10067c70     as_builder.obj
 0002:00005ca0       ??_C@_0CE@FMAHNMDI@Can?8t?5inherit?5from?5multiple?5clas@ 10067ca0     as_builder.obj
 0002:00005cc8       ??_C@_0EK@FNBIIOFJ@Can?8t?5inherit?5from?5itself?0?5or?5an@ 10067cc8     as_builder.obj
 0002:00005d14       ??_C@_0DH@DOKHPPDH@Shared?5class?5cannot?5inherit?5from@ 10067d14     as_builder.obj
 0002:00005d50       ??_C@_0FK@IDENMLGF@The?5method?5in?5the?5derived?5class?5@ 10067d50     as_builder.obj
 0002:00005dac       ??_C@_0DH@KJOJMPLI@Method?5?8?$CFs?8?5declared?5as?5final?5an@ 10067dac     as_builder.obj
 0002:00005de4       ??_C@_0CM@FJIJECJP@Shared?5code?5cannot?5use?5non?9share@ 10067de4     as_builder.obj
 0002:00005e10       ??_C@_0CN@NKEIIHPB@Class?5properties?5cannot?5be?5decla@ 10067e10     as_builder.obj
 0002:00005e40       ??_C@_0BP@DKGJNLBL@Missing?5implementation?5of?5?8?$CFs?8?$AA@ 10067e40     as_builder.obj
 0002:00005e60       ??_C@_0FH@PIMEOEJD@Method?5?8?$CFs?8?5marked?5as?5override?5b@ 10067e60     as_builder.obj
 0002:00005eb8       ??_C@_0BE@JDMFFCCF@Illegal?5member?5type?$AA@ 10067eb8     as_builder.obj
 0002:00005ed0       ??_C@_0EJ@JBEHMCJH@The?5virtual?5property?5syntax?5is?5c@ 10067ed0     as_builder.obj
 0002:00005f1c       ??_C@_0CO@HMBGDE@Previous?5error?5occurred?5while?5in@ 10067f1c     as_builder.obj
 0002:00005f4c       ??_C@_0CF@CHEDBPAK@Name?5conflict?4?5?8?$CFs?8?5is?5already?5u@ 10067f4c     as_builder.obj
 0002:00005f74       ??_C@_0DL@LNOIHAOF@Reference?5types?5cannot?5be?5return@ 10067f74     as_builder.obj
 0002:00005fb0       ??_C@_0EB@BIPJOMJK@Reference?5types?5cannot?5be?5passed@ 10067fb0     as_builder.obj
 0002:00005ff4       ??_C@_0CP@BPOIFNEP@The?5method?5cannot?5be?5named?5with?5@ 10067ff4     as_builder.obj
 0002:00006024       ??_C@_0DG@IHMPJAE@Mixin?5classes?5cannot?5have?5constr@ 10068024     as_builder.obj
 0002:00006060       ??_C@_0EH@CPNMAPKJ@The?5name?5of?5constructors?5and?5des@ 10068060     as_builder.obj
 0002:000060a8       ??_C@_0CM@IBKPFGJG@The?5destructor?5must?5not?5have?5any@ 100680a8     as_builder.obj
 0002:000060d4       ??_C@_0DM@JHOAADEH@A?5function?5with?5the?5same?5name?5an@ 100680d4     as_builder.obj
 0002:00006110       ??_C@_08BHAMIMAM@opAssign?$AA@ 10068110     as_builder.obj
 0002:0000611c       ??_C@_0DJ@IPFONCNL@Property?5accessors?5have?5been?5dis@ 1006811c     as_builder.obj
 0002:00006158       ??_C@_0DM@EOMBAKEM@Virtual?5property?5must?5have?5at?5le@ 10068158     as_builder.obj
 0002:00006194       ??_C@_0CG@CMBKOKMC@Property?5accessor?5must?5be?5implem@ 10068194     as_builder.obj
 0002:000061bc       ??_C@_04HAOMCFJJ@get_?$AA@ 100681bc     as_builder.obj
 0002:000061c4       ??_C@_05MFEJDJP@value?$AA@ 100681c4     as_builder.obj
 0002:000061cc       ??_C@_04OFIMBENL@set_?$AA@ 100681cc     as_builder.obj
 0002:000061d4       ??_C@_0CO@BHJGICBK@Virtual?5property?5contains?5unreco@ 100681d4     as_builder.obj
 0002:00006204       ??_C@_0BO@NIFOJHLG@Namespace?5?8?$CFs?8?5doesn?8t?5exist?4?$AA@ 10068204     as_builder.obj
 0002:00006224       ??_C@_0CH@JBHEMDEC@Template?5subtype?5must?5not?5be?5rea@ 10068224     as_builder.obj
 0002:0000624c       ??_C@_0CF@DCMBGEAO@Template?5?8?$CFs?8?5expects?5?$CFd?5sub?5typ@ 1006824c     as_builder.obj
 0002:00006274       ??_C@_0DC@EHLJLAGC@Can?8t?5instanciate?5template?5?8?$CFs?8?5@ 10068274     as_builder.obj
 0002:000062a8       ??_C@_0CL@IMALILJG@Type?5?8?$CFs?8?5is?5not?5available?5for?5t@ 100682a8     as_builder.obj
 0002:000062d4       ??_C@_0DI@JJENPGIM@The?5application?5doesn?8t?5support?5@ 100682d4     as_builder.obj
 0002:0000630c       ??_C@_0CN@LHEBJPB@Object?5handle?5is?5not?5supported?5f@ 1006830c     as_builder.obj
 0002:00006340       ??_C@_0FG@GJABBDN@Only?5object?5types?5that?5support?5o@ 10068340     as_builder.obj
 0002:00006398       ??_C@_0EN@PJKIFDNN@Autohandles?5cannot?5be?5used?5with?5@ 10068398     as_builder.obj
 0002:000063ec       ??_7asCCompGlobVarType@@6B@ 100683ec     as_builder.obj
 0002:000063f0       ??_C@_05EILEDKCG@LABEL?$AA@ 100683f0     as_bytecode.obj
 0002:000063f8       ??_C@_04LFMILBJH@LINE?$AA@ 100683f8     as_bytecode.obj
 0002:00006400       ??_C@_07PPADPLNF@ObjInfo?$AA@ 10068400     as_bytecode.obj
 0002:00006408       ??_C@_05PPLCEPDH@Block?$AA@ 10068408     as_bytecode.obj
 0002:00006410       ??_C@_07EAONJJCG@VarDecl?$AA@ 10068410     as_bytecode.obj
 0002:00006418       ??_C@_06CFEMEFKL@BC_250?$AA@ 10068418     as_bytecode.obj
 0002:00006420       ??_C@_06PFEMJENF@BC_249?$AA@ 10068420     as_bytecode.obj
 0002:00006428       ??_C@_06OMFHKFJE@BC_248?$AA@ 10068428     as_bytecode.obj
 0002:00006430       ??_C@_06GLMPLJFL@BC_247?$AA@ 10068430     as_bytecode.obj
 0002:00006438       ??_C@_06HCNEIIBK@BC_246?$AA@ 10068438     as_bytecode.obj
 0002:00006440       ??_C@_06FJPJNLNJ@BC_245?$AA@ 10068440     as_bytecode.obj
 0002:00006448       ??_C@_06EAOCOKJI@BC_244?$AA@ 10068448     as_bytecode.obj
 0002:00006450       ??_C@_06PKDHMFP@BC_243?$AA@ 10068450     as_bytecode.obj
 0002:00006458       ??_C@_06BGLIENBO@BC_242?$AA@ 10068458     as_bytecode.obj
 0002:00006460       ??_C@_06DNJFBONN@BC_241?$AA@ 10068460     as_bytecode.obj
 0002:00006468       ??_C@_06CEIOCPJM@BC_240?$AA@ 10068468     as_bytecode.obj
 0002:00006470       ??_C@_06PAADICFA@BC_239?$AA@ 10068470     as_bytecode.obj
 0002:00006478       ??_C@_06OJBILDBB@BC_238?$AA@ 10068478     as_bytecode.obj
 0002:00006480       ??_C@_06GOIAKPNO@BC_237?$AA@ 10068480     as_bytecode.obj
 0002:00006488       ??_C@_06HHJLJOJP@BC_236?$AA@ 10068488     as_bytecode.obj
 0002:00006490       ??_C@_06FMLGMNFM@BC_235?$AA@ 10068490     as_bytecode.obj
 0002:00006498       ??_C@_06EFKNPMBN@BC_234?$AA@ 10068498     as_bytecode.obj
 0002:000064a0       ??_C@_06KOMGKNK@BC_233?$AA@ 100684a0     as_bytecode.obj
 0002:000064a8       ??_C@_06BDPHFLJL@BC_232?$AA@ 100684a8     as_bytecode.obj
 0002:000064b0       ??_C@_06DINKAIFI@BC_231?$AA@ 100684b0     as_bytecode.obj
 0002:000064b8       ??_C@_06CBMBDJBJ@BC_230?$AA@ 100684b8     as_bytecode.obj
 0002:000064c0       ??_C@_06PBMBOIGH@BC_229?$AA@ 100684c0     as_bytecode.obj
 0002:000064c8       ??_C@_06OINKNJCG@BC_228?$AA@ 100684c8     as_bytecode.obj
 0002:000064d0       ??_C@_06GPECMFOJ@BC_227?$AA@ 100684d0     as_bytecode.obj
 0002:000064d8       ??_C@_06HGFJPEKI@BC_226?$AA@ 100684d8     as_bytecode.obj
 0002:000064e0       ??_C@_06FNHEKHGL@BC_225?$AA@ 100684e0     as_bytecode.obj
 0002:000064e8       ??_C@_06EEGPJGCK@BC_224?$AA@ 100684e8     as_bytecode.obj
 0002:000064f0       ??_C@_06LCOAAON@BC_223?$AA@ 100684f0     as_bytecode.obj
 0002:000064f8       ??_C@_06BCDFDBKM@BC_222?$AA@ 100684f8     as_bytecode.obj
 0002:00006500       ??_C@_06DJBIGCGP@BC_221?$AA@ 10068500     as_bytecode.obj
 0002:00006508       ??_C@_06CAADFDCO@BC_220?$AA@ 10068508     as_bytecode.obj
 0002:00006510       ??_C@_06PDIHFGDO@BC_219?$AA@ 10068510     as_bytecode.obj
 0002:00006518       ??_C@_06OKJMGHHP@BC_218?$AA@ 10068518     as_bytecode.obj
 0002:00006520       ??_C@_06GNAEHLLA@BC_217?$AA@ 10068520     as_bytecode.obj
 0002:00006528       ??_C@_06HEBPEKPB@BC_216?$AA@ 10068528     as_bytecode.obj
 0002:00006530       ??_C@_06FPDCBJDC@BC_215?$AA@ 10068530     as_bytecode.obj
 0002:00006538       ??_C@_06EGCJCIHD@BC_214?$AA@ 10068538     as_bytecode.obj
 0002:00006540       ??_C@_06JGILOLE@BC_213?$AA@ 10068540     as_bytecode.obj
 0002:00006548       ??_C@_06BAHDIPPF@BC_212?$AA@ 10068548     as_bytecode.obj
 0002:00006550       ??_C@_06DLFONMDG@BC_211?$AA@ 10068550     as_bytecode.obj
 0002:00006558       ??_C@_06CCEFONHH@BC_210?$AA@ 10068558     as_bytecode.obj
 0002:00006560       ??_C@_06PCEFDMAJ@BC_209?$AA@ 10068560     as_bytecode.obj
 0002:00006568       ??_C@_06OLFOANEI@BC_208?$AA@ 10068568     as_bytecode.obj
 0002:00006570       ??_C@_06GMMGBBIH@BC_207?$AA@ 10068570     as_bytecode.obj
 0002:00006578       ??_C@_06HFNNCAMG@BC_206?$AA@ 10068578     as_bytecode.obj
 0002:00006580       ??_C@_06FOPAHDAF@BC_205?$AA@ 10068580     as_bytecode.obj
 0002:00006588       ??_C@_06EHOLECEE@BC_204?$AA@ 10068588     as_bytecode.obj
 0002:00006590       ??_C@_06IKKNEID@BC_203?$AA@ 10068590     as_bytecode.obj
 0002:00006598       ??_C@_06BBLBOFMC@BC_202?$AA@ 10068598     as_bytecode.obj
 0002:000065a0       ??_C@_06DKJMLGAB@BC_201?$AA@ 100685a0     as_bytecode.obj
 0002:000065a8       ??_C@_06CDIHIHEA@BC_200?$AA@ 100685a8     as_bytecode.obj
 0002:000065b0       ??_C@_06OPCBKIGI@BC_199?$AA@ 100685b0     as_bytecode.obj
 0002:000065b8       ??_C@_06PGDKJJCJ@BC_198?$AA@ 100685b8     as_bytecode.obj
 0002:000065c0       ??_C@_06HBKCIFOG@BC_197?$AA@ 100685c0     as_bytecode.obj
 0002:000065c8       ??_C@_06GILJLEKH@BC_196?$AA@ 100685c8     as_bytecode.obj
 0002:000065d0       ??_C@_06EDJEOHGE@BC_195?$AA@ 100685d0     as_bytecode.obj
 0002:000065d8       ??_C@_06FKIPNGCF@BC_194?$AA@ 100685d8     as_bytecode.obj
 0002:000065e0       ??_C@_06BFMOEAOC@BC_193?$AA@ 100685e0     as_bytecode.obj
 0002:000065e8       ??_C@_0M@DMAABBLJ@SetListType?$AA@ 100685e8     as_bytecode.obj
 0002:000065f4       ??_C@_0N@MNHNGMHK@PshListElmnt?$AA@ 100685f4     as_bytecode.obj
 0002:00006604       ??_C@_0M@NDKOBPOA@SetListSize?$AA@ 10068604     as_bytecode.obj
 0002:00006610       ??_C@_08MLEMEDKD@AllocMem?$AA@ 10068610     as_bytecode.obj
 0002:0000661c       ??_C@_06CNKIKNAM@JLowNZ?$AA@ 1006861c     as_bytecode.obj
 0002:00006624       ??_C@_05PFCOOEA@JLowZ?$AA@ 10068624     as_bytecode.obj
 0002:0000662c       ??_C@_07EJFAHACA@RefCpyV?$AA@ 1006862c     as_bytecode.obj
 0002:00006634       ??_C@_09CEAHJMNL@LoadVObjR?$AA@ 10068634     as_bytecode.obj
 0002:00006640       ??_C@_09LPJGNOMN@LoadRObjR?$AA@ 10068640     as_bytecode.obj
 0002:0000664c       ??_C@_06NDBPEIHD@MODu64?$AA@ 1006864c     as_bytecode.obj
 0002:00006654       ??_C@_06IKPOCKFP@DIVu64?$AA@ 10068654     as_bytecode.obj
 0002:0000665c       ??_C@_04HPBCHENO@MODu?$AA@ 1006865c     as_bytecode.obj
 0002:00006664       ??_C@_04EIMLDOGN@DIVu?$AA@ 10068664     as_bytecode.obj
 0002:0000666c       ??_C@_05HNPNPNKB@PshV8?$AA@ 1006866c     as_bytecode.obj
 0002:00006674       ??_C@_09NONINBDK@LoadThisR?$AA@ 10068674     as_bytecode.obj
 0002:00006680       ??_C@_07KCOPKDJN@FuncPtr?$AA@ 10068680     as_bytecode.obj
 0002:00006688       ??_C@_07LGAGCDPO@CallPtr?$AA@ 10068688     as_bytecode.obj
 0002:00006690       ??_C@_08LBILDGNJ@JitEntry?$AA@ 10068690     as_bytecode.obj
 0002:0000669c       ??_C@_05JALDNIFD@ClrHi?$AA@ 1006869c     as_bytecode.obj
 0002:000066a4       ??_C@_08NBJNAHEJ@ChkNullS?$AA@ 100686a4     as_bytecode.obj
 0002:000066b0       ??_C@_06FLIIKDGH@CMPu64?$AA@ 100686b0     as_bytecode.obj
 0002:000066b8       ??_C@_06EBEHELEA@CMPi64?$AA@ 100686b8     as_bytecode.obj
 0002:000066c0       ??_C@_06MBKKPHKO@BSRA64?$AA@ 100686c0     as_bytecode.obj
 0002:000066c8       ??_C@_06DDMACPHD@BSRL64?$AA@ 100686c8     as_bytecode.obj
 0002:000066d0       ??_C@_06OMBAAGJA@BSLL64?$AA@ 100686d0     as_bytecode.obj
 0002:000066d8       ??_C@_06HBLBKMCP@BXOR64?$AA@ 100686d8     as_bytecode.obj
 0002:000066e0       ??_C@_05CMMGJHFP@BOR64?$AA@ 100686e0     as_bytecode.obj
 0002:000066e8       ??_C@_06BNHKNOIP@BAND64?$AA@ 100686e8     as_bytecode.obj
 0002:000066f0       ??_C@_06MJNAKAFE@MODi64?$AA@ 100686f0     as_bytecode.obj
 0002:000066f8       ??_C@_06JADBMCHI@DIVi64?$AA@ 100686f8     as_bytecode.obj
 0002:00006700       ??_C@_06FLONMKGI@MULi64?$AA@ 10068700     as_bytecode.obj
 0002:00006708       ??_C@_06NDDMJDJK@SUBi64?$AA@ 10068708     as_bytecode.obj
 0002:00006710       ??_C@_06GELHDKOD@ADDi64?$AA@ 10068710     as_bytecode.obj
 0002:00006718       ??_C@_06IBFFBCHF@BNOT64?$AA@ 10068718     as_bytecode.obj
 0002:00006720       ??_C@_06EPPDBKPB@DECi64?$AA@ 10068720     as_bytecode.obj
 0002:00006728       ??_C@_06EEODILPC@INCi64?$AA@ 10068728     as_bytecode.obj
 0002:00006730       ??_C@_06BOADODHP@NEGi64?$AA@ 10068730     as_bytecode.obj
 0002:00006738       ??_C@_06GEHJNJFA@u64TOd?$AA@ 10068738     as_bytecode.obj
 0002:00006740       ??_C@_06MEAHCPOK@i64TOd?$AA@ 10068740     as_bytecode.obj
 0002:00006748       ??_C@_06FGEPLLNC@u64TOf?$AA@ 10068748     as_bytecode.obj
 0002:00006750       ??_C@_06PGDBENGI@i64TOf?$AA@ 10068750     as_bytecode.obj
 0002:00006758       ??_C@_06JHPLPHHF@dTOu64?$AA@ 10068758     as_bytecode.obj
 0002:00006760       ??_C@_06GEOGFM@fTOu64?$AA@ 10068760     as_bytecode.obj
 0002:00006768       ??_C@_06INDEBPFC@dTOi64?$AA@ 10068768     as_bytecode.obj
 0002:00006770       ??_C@_06BKKLAOHL@fTOi64?$AA@ 10068770     as_bytecode.obj
 0002:00006778       ??_C@_06OMODHOJC@iTOi64?$AA@ 10068778     as_bytecode.obj
 0002:00006780       ??_C@_06EMJNIICI@uTOi64?$AA@ 10068780     as_bytecode.obj
 0002:00006788       ??_C@_06HBKJFBKH@i64TOi?$AA@ 10068788     as_bytecode.obj
 0002:00006790       ??_C@_04LIPANAOG@Cast?$AA@ 10068790     as_bytecode.obj
 0002:00006798       ??_C@_05PEOJONIA@SetV2?$AA@ 10068798     as_bytecode.obj
 0002:000067a0       ??_C@_05NPMELOED@SetV1?$AA@ 100687a0     as_bytecode.obj
 0002:000067a8       ??_C@_04PCCIKAOH@iTOw?$AA@ 100687a8     as_bytecode.obj
 0002:000067b0       ??_C@_04MFJNEGPD@iTOb?$AA@ 100687b0     as_bytecode.obj
 0002:000067b8       ??_C@_08DFBLICD@CALLINTF?$AA@ 100687b8     as_bytecode.obj
 0002:000067c4       ??_C@_08KMOKPDAM@ChkNullV?$AA@ 100687c4     as_bytecode.obj
 0002:000067d0       ??_C@_07HEECDKBM@ChkRefS?$AA@ 100687d0     as_bytecode.obj
 0002:000067d8       ??_C@_05LPFHIDEB@SetG4?$AA@ 100687d8     as_bytecode.obj
 0002:000067e0       ??_C@_05JACGJKLO@MULIf?$AA@ 100687e0     as_bytecode.obj
 0002:000067e8       ??_C@_05EJCFIOGG@SUBIf?$AA@ 100687e8     as_bytecode.obj
 0002:000067f0       ??_C@_05HPNAMMBI@ADDIf?$AA@ 100687f0     as_bytecode.obj
 0002:000067f8       ??_C@_05BHLOIGHB@MULIi?$AA@ 100687f8     as_bytecode.obj
 0002:00006800       ??_C@_05MOLNJCKJ@SUBIi?$AA@ 10068800     as_bytecode.obj
 0002:00006808       ??_C@_05PIEINANH@ADDIi?$AA@ 10068808     as_bytecode.obj
 0002:00006810       ??_C@_04CMMLFHMO@MODd?$AA@ 10068810     as_bytecode.obj
 0002:00006818       ??_C@_04BLBCBNHN@DIVd?$AA@ 10068818     as_bytecode.obj
 0002:00006820       ??_C@_04BNHMLBIN@MULd?$AA@ 10068820     as_bytecode.obj
 0002:00006828       ??_C@_04MIDCLFGE@SUBd?$AA@ 10068828     as_bytecode.obj
 0002:00006830       ??_C@_04DODKDNMO@ADDd?$AA@ 10068830     as_bytecode.obj
 0002:00006838       ??_C@_04BOPNDFEM@MODf?$AA@ 10068838     as_bytecode.obj
 0002:00006840       ??_C@_04CJCEHPPP@DIVf?$AA@ 10068840     as_bytecode.obj
 0002:00006848       ??_C@_04CPEKNDAP@MULf?$AA@ 10068848     as_bytecode.obj
 0002:00006850       ??_C@_04PKAENHOG@SUBf?$AA@ 10068850     as_bytecode.obj
 0002:00006858       ??_C@_04MAMFPEM@ADDf?$AA@  10068858     as_bytecode.obj
 0002:00006860       ??_C@_04JJGFCJID@MODi?$AA@ 10068860     as_bytecode.obj
 0002:00006868       ??_C@_04KOLMGDDA@DIVi?$AA@ 10068868     as_bytecode.obj
 0002:00006870       ??_C@_04KINCMPMA@MULi?$AA@ 10068870     as_bytecode.obj
 0002:00006878       ??_C@_04HNJMMLCJ@SUBi?$AA@ 10068878     as_bytecode.obj
 0002:00006880       ??_C@_04ILJEEDID@ADDi?$AA@ 10068880     as_bytecode.obj
 0002:00006888       ??_C@_04BBJHHGKE@fTOd?$AA@ 10068888     as_bytecode.obj
 0002:00006890       ??_C@_04DGNHJLPG@uTOd?$AA@ 10068890     as_bytecode.obj
 0002:00006898       ??_C@_04JDMHOBHF@iTOd?$AA@ 10068898     as_bytecode.obj
 0002:000068a0       ??_C@_04FJGBEHEG@dTOf?$AA@ 100688a0     as_bytecode.obj
 0002:000068a8       ??_C@_04DIIOAGNE@dTOu?$AA@ 100688a8     as_bytecode.obj
 0002:000068b0       ??_C@_04NOPJFLIJ@dTOi?$AA@ 100688b0     as_bytecode.obj
 0002:000068b8       ??_C@_05NFLGHMBH@uwTOi?$AA@ 100688b8     as_bytecode.obj
 0002:000068c0       ??_C@_05HNLGGEOF@ubTOi?$AA@ 100688c0     as_bytecode.obj
 0002:000068c8       ??_C@_05DOPJPAK@swTOi?$AA@ 100688c8     as_bytecode.obj
 0002:000068d0       ??_C@_05KLOPIHPI@sbTOi?$AA@ 100688d0     as_bytecode.obj
 0002:000068d8       ??_C@_04ECEOFFLE@fTOu?$AA@ 100688d8     as_bytecode.obj
 0002:000068e0       ??_C@_04EOBPJHE@uTOf?$AA@  100688e0     as_bytecode.obj
 0002:000068e8       ??_C@_04KEDJAIOJ@fTOi?$AA@ 100688e8     as_bytecode.obj
 0002:000068f0       ??_C@_04KBPBIDPH@iTOf?$AA@ 100688f0     as_bytecode.obj
 0002:000068f8       ??_C@_03MJAIKILM@VAR?$AA@  100688f8     as_bytecode.obj
 0002:000068fc       ??_C@_06NPDEGHHE@CmpPtr?$AA@ 100688fc     as_bytecode.obj
 0002:00006904       ??_C@_03IJABMKEA@PGA?$AA@  10068904     as_bytecode.obj
 0002:00006908       ??_C@_03JEALBIKI@LDV?$AA@  10068908     as_bytecode.obj
 0002:0000690c       ??_C@_03MHNCDLLI@LDG?$AA@  1006890c     as_bytecode.obj
 0002:00006910       ??_C@_04BHNPBNAG@RDR8?$AA@ 10068910     as_bytecode.obj
 0002:00006918       ??_C@_04LLGKFCAK@RDR4?$AA@ 10068918     as_bytecode.obj
 0002:00006920       ??_C@_04ONDAPFIM@RDR2?$AA@ 10068920     as_bytecode.obj
 0002:00006928       ??_C@_04MGBNKGEP@RDR1?$AA@ 10068928     as_bytecode.obj
 0002:00006930       ??_C@_05CGKEIMLE@WRTV8?$AA@ 10068930     as_bytecode.obj
 0002:00006938       ??_C@_05IKBBMDLI@WRTV4?$AA@ 10068938     as_bytecode.obj
 0002:00006940       ??_C@_05NMELGEDO@WRTV2?$AA@ 10068940     as_bytecode.obj
 0002:00006948       ??_C@_05PHGGDHPN@WRTV1?$AA@ 10068948     as_bytecode.obj
 0002:00006950       ??_C@_08IFBIOKIA@CpyGtoV4?$AA@ 10068950     as_bytecode.obj
 0002:0000695c       ??_C@_08HKLGDGKE@CpyRtoV8?$AA@ 1006895c     as_bytecode.obj
 0002:00006968       ??_C@_08NGADHJKI@CpyRtoV4?$AA@ 10068968     as_bytecode.obj
 0002:00006974       ??_C@_08FAHGPCPJ@CpyVtoG4?$AA@ 10068974     as_bytecode.obj
 0002:00006980       ??_C@_08OGCONMGO@CpyVtoR8?$AA@ 10068980     as_bytecode.obj
 0002:0000698c       ??_C@_08EKJLJDGC@CpyVtoR4?$AA@ 1006898c     as_bytecode.obj
 0002:00006998       ??_C@_08OBCHHELC@CpyVtoV8?$AA@ 10068998     as_bytecode.obj
 0002:000069a4       ??_C@_08ENJCDLLO@CpyVtoV4?$AA@ 100689a4     as_bytecode.obj
 0002:000069b0       ??_C@_05OJPJPGHB@ADDSi?$AA@ 100689b0     as_bytecode.obj
 0002:000069b8       ??_C@_05OAGAFAK@SetV8?$AA@ 100689b8     as_bytecode.obj
 0002:000069c0       ??_C@_05KCLDEKAG@SetV4?$AA@ 100689c0     as_bytecode.obj
 0002:000069c8       ??_C@_06OBAPOPJA@TYPEID?$AA@ 100689c8     as_bytecode.obj
 0002:000069d0       ??_C@_07INBDABFO@OBJTYPE?$AA@ 100689d0     as_bytecode.obj
 0002:000069d8       ??_C@_07FJMIBPC@ClrVPtr?$AA@ 100689d8     as_bytecode.obj
 0002:000069e0       ??_C@_07MFHLDELI@PshNull?$AA@ 100689e0     as_bytecode.obj
 0002:000069e8       ??_C@_06MAEPPJCD@GETREF?$AA@ 100689e8     as_bytecode.obj
 0002:000069f0       ??_C@_09HGJMLOLK@GETOBJREF?$AA@ 100689f0     as_bytecode.obj
 0002:000069fc       ??_C@_06GKCOMOLN@CHKREF?$AA@ 100689fc     as_bytecode.obj
 0002:00006a04       ??_C@_06NAJLNBFH@REFCPY?$AA@ 10068a04     as_bytecode.obj
 0002:00006a0c       ??_C@_06MLMGCPOI@GETOBJ?$AA@ 10068a0c     as_bytecode.obj
 0002:00006a14       ??_C@_08FKKMKGMB@STOREOBJ?$AA@ 10068a14     as_bytecode.obj
 0002:00006a20       ??_C@_07IFCEGDKO@LOADOBJ?$AA@ 10068a20     as_bytecode.obj
 0002:00006a28       ??_C@_04HEDFJGEJ@FREE?$AA@ 10068a28     as_bytecode.obj
 0002:00006a30       ??_C@_05GGGKADGD@ALLOC?$AA@ 10068a30     as_bytecode.obj
 0002:00006a38       ??_C@_07MAELCFPF@SUSPEND?$AA@ 10068a38     as_bytecode.obj
 0002:00006a40       ??_C@_07OFCGFOHH@CALLBND?$AA@ 10068a40     as_bytecode.obj
 0002:00006a48       ??_C@_07BBGJFPOO@CALLSYS?$AA@ 10068a48     as_bytecode.obj
 0002:00006a50       ??_C@_03OEDLDJBF@STR?$AA@  10068a50     as_bytecode.obj
 0002:00006a54       ??_C@_07DBPDNMCA@PshRPtr?$AA@ 10068a54     as_bytecode.obj
 0002:00006a5c       ??_C@_07HOAIKKGM@PopRPtr?$AA@ 10068a5c     as_bytecode.obj
 0002:00006a64       ??_C@_04JEOHLLAO@JMPP?$AA@ 10068a64     as_bytecode.obj
 0002:00006a6c       ??_C@_05IBJMIODI@CMPIu?$AA@ 10068a6c     as_bytecode.obj
 0002:00006a74       ??_C@_05OAHDMPKK@CMPIf?$AA@ 10068a74     as_bytecode.obj
 0002:00006a7c       ??_C@_05GHOLNDGF@CMPIi?$AA@ 10068a7c     as_bytecode.obj
 0002:00006a84       ??_C@_04JHHDFEMF@CMPi?$AA@ 10068a84     as_bytecode.obj
 0002:00006a8c       ??_C@_04BAOLEIAK@CMPf?$AA@ 10068a8c     as_bytecode.obj
 0002:00006a94       ??_C@_04HBAEAJJI@CMPu?$AA@ 10068a94     as_bytecode.obj
 0002:00006a9c       ??_C@_04CCNNCKII@CMPd?$AA@ 10068a9c     as_bytecode.obj
 0002:00006aa4       ??_C@_06LIFPPBCE@RDSPtr?$AA@ 10068aa4     as_bytecode.obj
 0002:00006aac       ??_C@_07MEHDHKOA@PshVPtr?$AA@ 10068aac     as_bytecode.obj
 0002:00006ab4       ??_C@_05GHBAJMDK@PshC8?$AA@ 10068ab4     as_bytecode.obj
 0002:00006abc       ??_C@_04OCDMKKLN@COPY?$AA@ 10068abc     as_bytecode.obj
 0002:00006ac4       ??_C@_04EEAMCHBN@BSRA?$AA@ 10068ac4     as_bytecode.obj
 0002:00006acc       ??_C@_04PBKCFJFA@BSRL?$AA@ 10068acc     as_bytecode.obj
 0002:00006ad4       ??_C@_04OHBKNHCK@BSLL?$AA@ 10068ad4     as_bytecode.obj
 0002:00006adc       ??_C@_04OGBMNBKN@BXOR?$AA@ 10068adc     as_bytecode.obj
 0002:00006ae4       ??_C@_03BMONEFHO@BOR?$AA@  10068ae4     as_bytecode.obj
 0002:00006ae8       ??_C@_04NGFHBGFI@BAND?$AA@ 10068ae8     as_bytecode.obj
 0002:00006af0       ??_C@_04MFDEHOGI@BNOT?$AA@ 10068af0     as_bytecode.obj
 0002:00006af8       ??_C@_05HOLLDEBK@DecVi?$AA@ 10068af8     as_bytecode.obj
 0002:00006b00       ??_C@_05LFPFBGNF@IncVi?$AA@ 10068b00     as_bytecode.obj
 0002:00006b08       ??_C@_04ELCJMDFO@DECd?$AA@ 10068b08     as_bytecode.obj
 0002:00006b10       ??_C@_04GELIIAOO@INCd?$AA@ 10068b10     as_bytecode.obj
 0002:00006b18       ??_C@_04HJBPKBNM@DECf?$AA@ 10068b18     as_bytecode.obj
 0002:00006b20       ??_C@_04FGIOOCGM@INCf?$AA@ 10068b20     as_bytecode.obj
 0002:00006b28       ??_C@_04POIHLNBD@DECi?$AA@ 10068b28     as_bytecode.obj
 0002:00006b30       ??_C@_04NBBGPOKD@INCi?$AA@ 10068b30     as_bytecode.obj
 0002:00006b38       ??_C@_05JDNPHKJI@DECi8?$AA@ 10068b38     as_bytecode.obj
 0002:00006b40       ??_C@_06HIIKGOPG@DECi16?$AA@ 10068b40     as_bytecode.obj
 0002:00006b48       ??_C@_05FIJBFIFH@INCi8?$AA@ 10068b48     as_bytecode.obj
 0002:00006b50       ??_C@_06HDJKPPPF@INCi16?$AA@ 10068b50     as_bytecode.obj
 0002:00006b58       ??_C@_04GJAHDCD@NEGd?$AA@  10068b58     as_bytecode.obj
 0002:00006b60       ??_C@_04DEKGBBKB@NEGf?$AA@ 10068b60     as_bytecode.obj
 0002:00006b68       ??_C@_04LDDOANGO@NEGi?$AA@ 10068b68     as_bytecode.obj
 0002:00006b70       ??_C@_03FKGLEFII@TNP?$AA@  10068b70     as_bytecode.obj
 0002:00006b74       ??_C@_02NBLAPNNF@TP?$AA@   10068b74     as_bytecode.obj
 0002:00006b78       ??_C@_03HBEGBGEL@TNS?$AA@  10068b78     as_bytecode.obj
 0002:00006b7c       ??_C@_02PKJNKOBG@TS?$AA@   10068b7c     as_bytecode.obj
 0002:00006b80       ??_C@_03KAIEKNAC@TNZ?$AA@  10068b80     as_bytecode.obj
 0002:00006b84       ??_C@_02CLFPBFFP@TZ?$AA@   10068b84     as_bytecode.obj
 0002:00006b88       ??_C@_03OKKNGFCE@JNP?$AA@  10068b88     as_bytecode.obj
 0002:00006b8c       ??_C@_02MHAIHDKP@JP?$AA@   10068b8c     as_bytecode.obj
 0002:00006b90       ??_C@_03MBIADGOH@JNS?$AA@  10068b90     as_bytecode.obj
 0002:00006b94       ??_C@_02OMCFCAGM@JS?$AA@   10068b94     as_bytecode.obj
 0002:00006b98       ??_C@_03BAECINKO@JNZ?$AA@  10068b98     as_bytecode.obj
 0002:00006b9c       ??_C@_02DNOHJLCF@JZ?$AA@   10068b9c     as_bytecode.obj
 0002:00006ba0       ??_C@_03OIOLNLHN@JMP?$AA@  10068ba0     as_bytecode.obj
 0002:00006ba4       ??_C@_03BHDJDALB@RET?$AA@  10068ba4     as_bytecode.obj
 0002:00006ba8       ??_C@_04CAGKGBIO@CALL?$AA@ 10068ba8     as_bytecode.obj
 0002:00006bb0       ??_C@_07KLMOFAMA@LdGRdR4?$AA@ 10068bb0     as_bytecode.obj
 0002:00006bb8       ??_C@_05MMKMHLOK@PshG4?$AA@ 10068bb8     as_bytecode.obj
 0002:00006bc0       ??_C@_03GBFNEA@NOT?$AA@    10068bc0     as_bytecode.obj
 0002:00006bc4       ??_C@_07NHDNNCHM@SwapPtr?$AA@ 10068bc4     as_bytecode.obj
 0002:00006bcc       ??_C@_03NNGPFHCL@PSF?$AA@  10068bcc     as_bytecode.obj
 0002:00006bd0       ??_C@_05NBEILCKN@PshV4?$AA@ 10068bd0     as_bytecode.obj
 0002:00006bd8       ??_C@_05MLKFNDDG@PshC4?$AA@ 10068bd8     as_bytecode.obj
 0002:00006be0       ??_C@_07JJPDMENC@PshGPtr?$AA@ 10068be0     as_bytecode.obj
 0002:00006be8       ??_C@_06MEMKEACM@PopPtr?$AA@ 10068be8     as_bytecode.obj
 0002:00006bf0       ??_C@_0FM@MLFNNGIF@Can?8t?5return?5type?5?8?$CFs?8?5by?5value?5@ 10068bf0     as_callfunc.obj
 0002:00006c50       ??_C@_0FK@BLOBMHOE@Can?8t?5pass?5type?5?8?$CFs?8?5by?5value?5un@ 10068c50     as_callfunc.obj
 0002:00006cac       ??_C@_0BE@HJPGHDFB@Null?5pointer?5access?$AA@ 10068cac     as_callfunc.obj
 0002:00006cc0       ??_C@_0CJ@OKAOMHCF@Caught?5an?5exception?5from?5the?5app@ 10068cc0     as_callfunc.obj
 0002:00006cec       ??_C@_0BL@IFLHPDJI@Invalid?5calling?5convention?$AA@ 10068cec     as_callfunc_x86.obj
 0002:00006d08       ??_C@_0BC@KALBELH@?$CFdelegate_factory?$AA@ 10068d08     as_compiler.obj
 0002:00006d1c       ??_C@_05MKJDPMKP@super?$AA@ 10068d1c     as_compiler.obj
 0002:00006d24       ??_C@_04IIAJELJL@this?$AA@ 10068d24     as_compiler.obj
 0002:00006d2c       ??_C@_04EHNLIFAM@uint?$AA@ 10068d2c     as_compiler.obj
 0002:00006d34       ??_C@_06LNOFJDNM@return?$AA@ 10068d34     as_compiler.obj
 0002:00006d3c       ??_C@_03KEJHNBPP@out?$AA@  10068d3c     as_compiler.obj
 0002:00006d40       ??_C@_02LMMGJAGL@in?$AA@   10068d40     as_compiler.obj
 0002:00006d44       ??_C@_04DDKJGDCM@bool?$AA@ 10068d44     as_compiler.obj
 0002:00006d4c       ??_C@_01OGPIMHDM@?$DP?$AA@ 10068d4c     as_compiler.obj
 0002:00006d50       ??_C@_01PKGAHCOL@?$CJ?$AA@ 10068d50     as_compiler.obj
 0002:00006d54       ??_C@_01ODHLEDKK@?$CI?$AA@ 10068d54     as_compiler.obj
 0002:00006d58       ??_C@_0FE@GEOBKKLO@Base?5class?5doesn?8t?5have?5default?5@ 10068d58     as_compiler.obj
 0002:00006dac       ??_C@_0BK@FJOEKAJB@Return?5type?5can?8t?5be?5?8?$CFs?8?$AA@ 10068dac     as_compiler.obj
 0002:00006dc8       ??_C@_0EH@EPMCNDLO@Parameter?5type?5can?8t?5be?5?8?$CFs?8?0?5be@ 10068dc8     as_compiler.obj
 0002:00006e10       ??_C@_0BL@FNPIHGKM@Parameter?5already?5declared?$AA@ 10068e10     as_compiler.obj
 0002:00006e2c       ??_C@_0BN@DKDABDJA@Not?5all?5paths?5return?5a?5value?$AA@ 10068e2c     as_compiler.obj
 0002:00006e4c       ??_C@_0P@IOCPAGPI@return?5address?$AA@ 10068e4c     as_compiler.obj
 0002:00006e60       ??_C@_0FH@OFLKCIPJ@The?5function?5has?5too?5many?5jump?5l@ 10068e60     as_compiler.obj
 0002:00006eb8       ??_C@_0CN@MKGECEHO@No?5copy?5constructor?5for?5object?5o@ 10068eb8     as_compiler.obj
 0002:00006ee8       ??_C@_0DA@ICPNMHEM@No?5default?5constructor?5for?5objec@ 10068ee8     as_compiler.obj
 0002:00006f18       ??_C@_0BB@KOCFCGHG@Unreachable?5code?$AA@ 10068f18     as_compiler.obj
 0002:00006f2c       ??_C@_0CF@CONEKCFP@Multiple?5matching?5signatures?5to?5@ 10068f2c     as_compiler.obj
 0002:00006f54       ??_C@_0DB@FKDGALJ@Shared?5code?5cannot?5call?5non?9shar@ 10068f54     as_compiler.obj
 0002:00006f88       ??_C@_0CM@NBCODIJL@Can?8t?5implicitly?5convert?5from?5?8?$CF@ 10068f88     as_compiler.obj
 0002:00006fb4       ??_C@_0BG@LIKLELOJ@Not?5a?5valid?5reference?$AA@ 10068fb4     as_compiler.obj
 0002:00006fcc       ??_C@_0M@BOJLLNMD@default?5arg?$AA@ 10068fcc     as_compiler.obj
 0002:00006fd8       ??_C@_0EF@KFOCADOD@Failed?5while?5compiling?5default?5a@ 10068fd8     as_compiler.obj
 0002:00007020       ??_C@_0FG@OGMMEFPJ@The?5type?5of?5the?5default?5argument@ 10069020     as_compiler.obj
 0002:00007078       ??_C@_02KEGNLNML@?0?5?$AA@ 10069078     as_compiler.obj
 0002:0000707c       ??_C@_06PODBGOLO@?5const?$AA@ 1006907c     as_compiler.obj
 0002:00007084       ??_C@_0BP@NMAACKFA@No?5matching?5signatures?5to?5?8?$CFs?8?$AA@ 10069084     as_compiler.obj
 0002:000070a4       ??_C@_0BA@OMFBMMHL@Candidates?5are?3?$AA@ 100690a4     as_compiler.obj
 0002:000070b4       ??_C@_0BM@OEHPEAKO@Illegal?5variable?5name?5?8?$CFs?8?4?$AA@ 100690b4     as_compiler.obj
 0002:000070d0       ??_C@_0BJ@KNGJOCBP@?8?$CFs?8?5is?5already?5declared?$AA@ 100690d0     as_compiler.obj
 0002:000070ec       ??_C@_0BP@LPKAJAPO@Only?5objects?5have?5constructors?$AA@ 100690ec     as_compiler.obj
 0002:0000710c       ??_C@_0CO@FPPFOGJN@Initialization?5lists?5cannot?5be?5u@ 1006910c     as_compiler.obj
 0002:0000713c       ??_C@_0DB@LFLDBBLH@Expected?5a?5list?5enclosed?5by?5?$HL?5?$HN?5@ 1006913c     as_compiler.obj
 0002:00007170       ??_C@_0CD@DMKKAAPJ@Not?5enough?5values?5to?5match?5patte@ 10069170     as_compiler.obj
 0002:00007194       ??_C@_0CB@MPLMMCDL@Too?5many?5values?5to?5match?5pattern@ 10069194     as_compiler.obj
 0002:000071b8       ??_C@_0CM@BIPBBLLP@Switch?5expressions?5must?5be?5integ@ 100691b8     as_compiler.obj
 0002:000071e4       ??_C@_0CD@GLGOADJJ@Case?5expressions?5must?5be?5constan@ 100691e4     as_compiler.obj
 0002:00007208       ??_C@_0BG@EJDKNKOP@Duplicate?5switch?5case?$AA@ 10069208     as_compiler.obj
 0002:00007220       ??_C@_0CG@FCDJJPJK@The?5default?5case?5must?5be?5the?5las@ 10069220     as_compiler.obj
 0002:00007248       ??_C@_0BH@LAGDLMCM@Empty?5switch?5statement?$AA@ 10069248     as_compiler.obj
 0002:00007260       ??_C@_0EN@CNLCDLBG@Variables?5cannot?5be?5declared?5in?5@ 10069260     as_compiler.obj
 0002:000072b0       ??_C@_0CD@PKBKIBNI@Expression?5must?5be?5of?5boolean?5ty@ 100692b0     as_compiler.obj
 0002:000072d4       ??_C@_0BI@EIOGAENM@If?5with?5empty?5statement?$AA@ 100692d4     as_compiler.obj
 0002:000072ec       ??_C@_0BK@GNEDGDAG@Else?5with?5empty?5statement?$AA@ 100692ec     as_compiler.obj
 0002:00007308       ??_C@_0CG@MJCLDDDJ@Both?5conditions?5must?5call?5constr@ 10069308     as_compiler.obj
 0002:00007330       ??_C@_0BA@DHIHCBBL@Invalid?5?8break?8?$AA@ 10069330     as_compiler.obj
 0002:00007340       ??_C@_0BD@OFOCFONC@Invalid?5?8continue?8?$AA@ 10069340     as_compiler.obj
 0002:00007358       ??_C@_0EO@PPHILEL@Previous?5error?5occurred?5while?5at@ 10069358     as_compiler.obj
 0002:000073a8       ??_C@_0BE@MKOFGAJ@Must?5return?5a?5value?$AA@ 100693a8     as_compiler.obj
 0002:000073bc       ??_C@_0CO@EEKPOENH@Can?8t?5return?5value?5when?5return?5t@ 100693bc     as_compiler.obj
 0002:000073ec       ??_C@_0CH@PDLFDPHH@Can?8t?5return?5reference?5to?5local?5@ 100693ec     as_compiler.obj
 0002:00007418       ??_C@_0FN@ELEJNEOK@Resulting?5reference?5cannot?5be?5re@ 10069418     as_compiler.obj
 0002:00007478       ??_C@_0GL@KNFFGOBG@Resulting?5reference?5cannot?5be?5re@ 10069478     as_compiler.obj
 0002:000074e4       ??_C@_0CL@BLNDCNGC@No?5conversion?5from?5?8?$CFs?8?5to?5?8?$CFs?8?5@ 100694e4     as_compiler.obj
 0002:00007510       ??_C@_0BJ@JNEPNFJ@?8?$CFs?8?5is?5not?5initialized?4?$AA@ 10069510     as_compiler.obj
 0002:0000752c       ??_C@_0BH@HCCKFEGN@Reference?5is?5read?9only?$AA@ 1006952c     as_compiler.obj
 0002:00007544       ??_C@_0BD@PDEICFND@Not?5a?5valid?5lvalue?$AA@ 10069544     as_compiler.obj
 0002:00007558       ??_C@_0DH@OKBINHKG@There?5is?5no?5copy?5operator?5for?5th@ 10069558     as_compiler.obj
 0002:00007590       ??_C@_0DI@GFOFDOME@Float?5value?5truncated?5in?5implici@ 10069590     as_compiler.obj
 0002:000075c8       ??_C@_0CK@NLJPFIFL@Implicit?5conversion?5of?5value?5is?5@ 100695c8     as_compiler.obj
 0002:000075f4       ??_C@_0CK@EGDKKEDF@Implicit?5conversion?5changed?5sign@ 100695f4     as_compiler.obj
 0002:00007620       ??_C@_0CB@EAOMNPAG@Value?5is?5too?5large?5for?5data?5type@ 10069620     as_compiler.obj
 0002:00007644       ??_C@_0BM@PIIHPAJG@Invalid?5operation?5on?5method?$AA@ 10069644     as_compiler.obj
 0002:00007660       ??_C@_0DN@DLOBDBJ@Compound?5assignments?5with?5proper@ 10069660     as_compiler.obj
 0002:000076a0       ??_C@_0EK@DEBMGEPD@It?5is?5not?5allowed?5to?5perform?5a?5h@ 100696a0     as_compiler.obj
 0002:000076ec       ??_C@_0BN@NJAFBHFF@Expression?5is?5not?5an?5l?9value?$AA@ 100696ec     as_compiler.obj
 0002:0000770c       ??_C@_0BK@HBMAKNDM@Illegal?5operation?5on?5?8?$CFs?8?$AA@ 1006970c     as_compiler.obj
 0002:00007728       ??_C@_0CF@MBCOPBHO@No?5appropriate?5opAssign?5method?5f@ 10069728     as_compiler.obj
 0002:00007750       ??_C@_0CJ@JCHOPPKA@Both?5expressions?5must?5have?5the?5s@ 10069750     as_compiler.obj
 0002:0000777c       ??_C@_0DK@EMHDAMCP@Shared?5code?5cannot?5access?5non?9sh@ 1006977c     as_compiler.obj
 0002:000077b8       ??_C@_0CE@BCHHFPEF@Found?5multiple?5matching?5enum?5val@ 100697b8     as_compiler.obj
 0002:000077dc       ??_C@_0BD@NFIKOGGA@Unknown?5scope?5?8?$CFs?8?$AA@ 100697dc     as_compiler.obj
 0002:000077f0       ??_C@_0BF@NPPOIEBP@?8?$CFs?8?5is?5not?5declared?$AA@ 100697f0     as_compiler.obj
 0002:00007808       ??_C@_0BK@LEDDMJII@Invalid?5character?5literal?$AA@ 10069808     as_compiler.obj
 0002:00007824       ??_C@_0DG@KKHKGIFA@Multiline?5strings?5are?5not?5allowe@ 10069824     as_compiler.obj
 0002:0000785c       ??_C@_0CO@CEPODNHA@Strings?5are?5not?5recognized?5by?5th@ 1006985c     as_compiler.obj
 0002:0000788c       ??_C@_0DI@HMJMFOJ@Invalid?5unicode?5escape?5sequence?0@ 1006988c     as_compiler.obj
 0002:000078c4       ??_C@_0BI@IIBOGKEJ@Invalid?5escape?5sequence?$AA@ 100698c4     as_compiler.obj
 0002:000078dc       ??_C@_0CD@OCOHCHHK@Invalid?5unicode?5sequence?5in?5sour@ 100698dc     as_compiler.obj
 0002:00007900       ??_C@_0BL@PJKJOEGB@Invalid?5unicode?5code?5point?$AA@ 10069900     as_compiler.obj
 0002:0000791c       ??_C@_0CB@FGPFBHEF@A?5cast?5operator?5has?5one?5argument@ 1006991c     as_compiler.obj
 0002:00007940       ??_C@_0CH@KKAOPHNN@Illegal?5target?5type?5for?5referenc@ 10069940     as_compiler.obj
 0002:00007968       ??_C@_0DH@IIANNFCN@Argument?5cannot?5be?5assigned?4?5Out@ 10069968     as_compiler.obj
 0002:000079a0       ??_C@_0DM@KBBNFADN@Can?8t?5create?5delegate?5for?5types?5@ 100699a0     as_compiler.obj
 0002:000079e0       ??_C@_0FD@HAHLIMBJ@Expression?5doesn?8t?5form?5a?5functi@ 100699e0     as_compiler.obj
 0002:00007a34       ??_C@_0CC@PMDIKHBO@Can?8t?5call?5a?5constructor?5in?5loop@ 10069a34     as_compiler.obj
 0002:00007a58       ??_C@_0CD@DFMAEJDN@Can?8t?5call?5a?5constructor?5in?5swit@ 10069a58     as_compiler.obj
 0002:00007a7c       ??_C@_0CI@HKBBFNJP@Can?8t?5call?5a?5constructor?5multipl@ 10069a7c     as_compiler.obj
 0002:00007aa4       ??_C@_0CJ@EKNAKNLJ@Void?5cannot?5be?5an?5operand?5in?5exp@ 10069aa4     as_compiler.obj
 0002:00007ad0       ??_C@_05FBCGNILJ@opNeg?$AA@ 10069ad0     as_compiler.obj
 0002:00007ad8       ??_C@_05FEDEGNDI@opCom?$AA@ 10069ad8     as_compiler.obj
 0002:00007ae0       ??_C@_08OIBEEAAN@opPreInc?$AA@ 10069ae0     as_compiler.obj
 0002:00007aec       ??_C@_08BGCLHHDB@opPreDec?$AA@ 10069aec     as_compiler.obj
 0002:00007af8       ??_C@_02HCKGKOFO@?$CI?$CJ?$AA@ 10069af8     as_compiler.obj
 0002:00007afc       ??_C@_0BI@POCPON@Function?5?8?$CFs?8?5not?5found?$AA@ 10069afc     as_compiler.obj
 0002:00007b14       ??_C@_0CG@NOMBAIJA@Found?5more?5than?5one?5matching?5ope@ 10069b14     as_compiler.obj
 0002:00007b3c       ??_C@_0CD@KFKPDBON@Illegal?5operation?5on?5this?5dataty@ 10069b3c     as_compiler.obj
 0002:00007b60       ??_C@_0N@HIPKJAJN@Invalid?5type?$AA@ 10069b60     as_compiler.obj
 0002:00007b70       ??_C@_0BH@CPDBOPMA@Reference?5is?5temporary?$AA@ 10069b70     as_compiler.obj
 0002:00007b88       ??_C@_0FH@LMNIEIDM@Invalid?5reference?4?5Property?5acce@ 10069b88     as_compiler.obj
 0002:00007be0       ??_C@_0CP@FPPANEDO@Found?5multiple?5get?5accessors?5for@ 10069be0     as_compiler.obj
 0002:00007c10       ??_C@_0CP@DDCDKAPN@Found?5multiple?5set?5accessors?5for@ 10069c10     as_compiler.obj
 0002:00007c40       ??_C@_0EG@ECOPKFH@The?5property?5?8?$CFs?8?5has?5mismatchin@ 10069c40     as_compiler.obj
 0002:00007c88       ??_C@_0CB@EKJIEGND@The?5property?5has?5no?5set?5accessor@ 10069c88     as_compiler.obj
 0002:00007cac       ??_C@_0DE@PNEODJOF@Non?9const?5method?5call?5on?5read?9on@ 10069cac     as_compiler.obj
 0002:00007ce0       ??_C@_0CB@DOCGIKJP@The?5property?5has?5no?5get?5accessor@ 10069ce0     as_compiler.obj
 0002:00007d04       ??_C@_09IPIDDEPC@opPostInc?$AA@ 10069d04     as_compiler.obj
 0002:00007d10       ??_C@_09HBLMADMO@opPostDec?$AA@ 10069d10     as_compiler.obj
 0002:00007d1c       ??_C@_0CI@NCGKGIEK@Illegal?5access?5to?5private?5proper@ 10069d1c     as_compiler.obj
 0002:00007d44       ??_C@_0BN@KOMOHMFD@?8?$CFs?8?5is?5not?5a?5member?5of?5?8?$CFs?8?$AA@ 10069d44     as_compiler.obj
 0002:00007d64       ??_C@_0DA@PLDFBNEB@Type?5?8?$CFs?8?5doesn?8t?5support?5the?5in@ 10069d64     as_compiler.obj
 0002:00007d94       ??_C@_07GMJFEKED@opIndex?$AA@ 10069d94     as_compiler.obj
 0002:00007d9c       ??_C@_0CK@PJIGHBHM@Expression?5doesn?8t?5evaluate?5to?5a@ 10069d9c     as_compiler.obj
 0002:00007dc8       ??_C@_08BHEGFHKG@opEquals?$AA@ 10069dc8     as_compiler.obj
 0002:00007dd4       ??_C@_05KINMNFEK@opCmp?$AA@ 10069dd4     as_compiler.obj
 0002:00007ddc       ??_C@_05CDKKPBBL@opAdd?$AA@ 10069ddc     as_compiler.obj
 0002:00007de4       ??_C@_07BJGFFIED@opAdd_r?$AA@ 10069de4     as_compiler.obj
 0002:00007dec       ??_C@_05JCAEAAMO@opSub?$AA@ 10069dec     as_compiler.obj
 0002:00007df4       ??_C@_07CPJABKDN@opSub_r?$AA@ 10069df4     as_compiler.obj
 0002:00007dfc       ??_C@_05LMEBANOM@opMul?$AA@ 10069dfc     as_compiler.obj
 0002:00007e04       ??_C@_07PGJDAOOF@opMul_r?$AA@ 10069e04     as_compiler.obj
 0002:00007e0c       ??_C@_05GEFIOCKJ@opDiv?$AA@ 10069e0c     as_compiler.obj
 0002:00007e14       ??_C@_07ELCIJCFF@opDiv_r?$AA@ 10069e14     as_compiler.obj
 0002:00007e1c       ??_C@_05GFCJKBEC@opMod?$AA@ 10069e1c     as_compiler.obj
 0002:00007e24       ??_C@_07BJHHKJCJ@opMod_r?$AA@ 10069e24     as_compiler.obj
 0002:00007e2c       ??_C@_04CPEPJJGL@opOr?$AA@ 10069e2c     as_compiler.obj
 0002:00007e34       ??_C@_06HFDDMEDK@opOr_r?$AA@ 10069e34     as_compiler.obj
 0002:00007e3c       ??_C@_05CODNHEMN@opAnd?$AA@ 10069e3c     as_compiler.obj
 0002:00007e44       ??_C@_07FDNFEAOC@opAnd_r?$AA@ 10069e44     as_compiler.obj
 0002:00007e4c       ??_C@_05BOHGLDDI@opXor?$AA@ 10069e4c     as_compiler.obj
 0002:00007e54       ??_C@_07DPBODCEC@opXor_r?$AA@ 10069e54     as_compiler.obj
 0002:00007e5c       ??_C@_05BIHJBNGD@opShl?$AA@ 10069e5c     as_compiler.obj
 0002:00007e64       ??_C@_07FHDPDODN@opShl_r?$AA@ 10069e64     as_compiler.obj
 0002:00007e6c       ??_C@_05MMDICCLM@opShr?$AA@ 10069e6c     as_compiler.obj
 0002:00007e74       ??_C@_07OHPJBOJB@opShr_r?$AA@ 10069e74     as_compiler.obj
 0002:00007e7c       ??_C@_06GGMJHAFH@opUShr?$AA@ 10069e7c     as_compiler.obj
 0002:00007e84       ??_C@_08NPBGKOJP@opUShr_r?$AA@ 10069e84     as_compiler.obj
 0002:00007e90       ??_C@_0M@CFOIDCNF@opAddAssign?$AA@ 10069e90     as_compiler.obj
 0002:00007e9c       ??_C@_0M@HLGHDMLF@opSubAssign?$AA@ 10069e9c     as_compiler.obj
 0002:00007ea8       ??_C@_0M@FHIKJPNM@opMulAssign?$AA@ 10069ea8     as_compiler.obj
 0002:00007eb4       ??_C@_0M@MBACIJA@opDivAssign?$AA@ 10069eb4     as_compiler.obj
 0002:00007ec0       ??_C@_0M@LNIBEMIG@opModAssign?$AA@ 10069ec0     as_compiler.obj
 0002:00007ecc       ??_C@_0L@GPDDELPG@opOrAssign?$AA@ 10069ecc     as_compiler.obj
 0002:00007ed8       ??_C@_0M@LAMGLIEL@opAndAssign?$AA@ 10069ed8     as_compiler.obj
 0002:00007ee4       ??_C@_0M@MGNCDOIG@opXorAssign?$AA@ 10069ee4     as_compiler.obj
 0002:00007ef0       ??_C@_0M@DDGCILKB@opShlAssign?$AA@ 10069ef0     as_compiler.obj
 0002:00007efc       ??_C@_0M@FKFDKILI@opShrAssign?$AA@ 10069efc     as_compiler.obj
 0002:00007f08       ??_C@_0N@IODGHGCG@opUShrAssign?$AA@ 10069f08     as_compiler.obj
 0002:00007f18       ??_C@_0FM@MPLIONEI@Value?5assignment?5on?5reference?5ty@ 10069f18     as_compiler.obj
 0002:00007f74       ??_C@_0DG@HMENGLNF@Compound?5assignment?5on?5reference@ 10069f74     as_compiler.obj
 0002:00007fac       ??_C@_0DO@EONJGCOI@No?5matching?5operator?5that?5takes?5@ 10069fac     as_compiler.obj
 0002:00007fec       ??_C@_0DA@MEFPLBK@No?5conversion?5from?5?8?$CFs?8?5to?5math?5@ 10069fec     as_compiler.obj
 0002:0000801c       ??_C@_0P@FGOAMMID@Divide?5by?5zero?$AA@ 1006a01c     as_compiler.obj
 0002:0000802c       ??_C@_0BJ@HHEDLNFG@Signed?1Unsigned?5mismatch?$AA@ 1006a02c     as_compiler.obj
 0002:00008048       ??_C@_0EH@EHINOEA@The?5operand?5is?5implicitly?5conver@ 1006a048     as_compiler.obj
 0002:00008090       ??_C@_0CF@PBKMCJDD@No?5appropriate?5opEquals?5method?5f@ 1006a090     as_compiler.obj
 0002:000080b8       ??_C@_0DG@CLHMBCPE@Both?5operands?5must?5be?5handles?5wh@ 1006a0b8     as_compiler.obj
 0002:000080f0       ??_C@_0CE@JAMLAJDL@Illegal?5call?5to?5private?5method?5?8@ 1006a0f0     as_compiler.obj
 0002:00008114       ??_C@_04MLLLIHIP@null?$AA@ 1006a114     as_context.obj
 0002:0000811c       ??_C@_07NJICNPMO@Prepare?$AA@ 1006a11c     as_context.obj
 0002:00008124       ??_C@_0DF@BBPNJILH@Failed?5in?5call?5to?5function?5?8?$CFs?8?5@ 1006a124     as_context.obj
 0002:0000815c       ??_C@_0CL@CKFMKIND@Failed?5in?5call?5to?5function?5?8?$CFs?8?5@ 1006a15c     as_context.obj
 0002:00008188       ??_C@_07LFBPOOOH@Execute?$AA@ 1006a188     as_context.obj
 0002:00008190       ??_C@_0P@MGPMFBBC@Stack?5overflow?$AA@ 1006a190     as_context.obj
 0002:000081a0       ??_C@_0BI@GMOBLMLH@Unbound?5function?5called?$AA@ 1006a1a0     as_context.obj
 0002:000081b8       ??_C@_0BN@OLLAEAOD@Overflow?5in?5integer?5division?$AA@ 1006a1b8     as_context.obj
 0002:000081dc       ??_7asIScriptContext@@6B@  1006a1dc     as_context.obj
 0002:000082bc       ??_7asCContext@@6B@        1006a2bc     as_context.obj
 0002:00008394       ??_C@_05BNCCCJPP@const?$AA@ 1006a394     as_datatype.obj
 0002:0000839c       ??_C@_01EOFPKCAF@?$EA?$AA@ 1006a39c     as_datatype.obj
 0002:000083a0       ??_C@_01IHBHIGKO@?0?$AA@   1006a3a0     as_datatype.obj
 0002:000083a4       ??_C@_01PPODPGHN@?$DO?$AA@ 1006a3a4     as_datatype.obj
 0002:000083a8       ??_C@_01MNNFJEPP@?$DM?$AA@ 1006a3a8     as_datatype.obj
 0002:000083ac       ??_C@_01HNPIGOCE@?$CG?$AA@ 1006a3ac     as_datatype.obj
 0002:000083b0       ??_C@_0O@PKNFAIPM@?$DMnull?5handle?$DO?$AA@ 1006a3b0     as_datatype.obj
 0002:000083c0       ??_C@_06LIJLOJAG@const?5?$AA@ 1006a3c0     as_datatype.obj
 0002:000083c8       ??_C@_02GPECMEKF@?$FL?$FN?$AA@ 1006a3c8     as_datatype.obj
 0002:000083cc       ??_C@_09EEKGDCPH@?$DMunknown?$DO?$AA@ 1006a3cc     as_datatype.obj
 0002:000083d8       ??_C@_0CN@BGCJADIN@AddScriptObjectToGC?5called?5with?5@ 1006a3d8     as_gc.obj
 0002:00008408       ??_C@_0GP@FKDLONCP@Object?5?$HL?$CFd?$HN?4?5GC?5cannot?5destroy?5a@ 1006a408     as_gc.obj
 0002:00008478       ??_C@_0BD@PIBKOPEB@_builtin_function_?$AA@ 1006a478     as_gc.obj
 0002:0000848c       ??_C@_0DD@IBGKHHCE@The?5builtin?5type?5in?5previous?5mes@ 1006a48c     as_gc.obj
 0002:000084c0       ??_C@_0BF@PJIKMAFA@_builtin_objecttype_?$AA@ 1006a4c0     as_gc.obj
 0002:000084d8       ??_C@_0BF@MHHKLLKE@_builtin_globalprop_?$AA@ 1006a4d8     as_gc.obj
 0002:000084f0       ??_C@_0GL@EGHBEKOO@Object?5?$HL?$CFd?$HN?4?5GC?5cannot?5destroy?5a@ 1006a4f0     as_gc.obj
 0002:00008564       ??_7asIScriptGeneric@@6B@  1006a564     as_generic.obj
 0002:000085d4       ??_7asCGeneric@@6B@        1006a5d4     as_generic.obj
 0002:0000863c       ??_C@_08LDFLKIAL@void?5f?$CI?$CJ?$AA@ 1006a63c     as_globalproperty.obj
 0002:00008648       ??_C@_07LDNHOMAB@int?5f?$CI?$CJ?$AA@ 1006a648     as_globalproperty.obj
 0002:00008650       ??_C@_08MNPEAMCB@bool?5f?$CI?$CJ?$AA@ 1006a650     as_globalproperty.obj
 0002:0000865c       ??_C@_0P@JNIDENBA@void?5f?$CIint?$CGin?$CJ?$AA@ 1006a65c     as_globalproperty.obj
 0002:00008670       ??_C@_0EE@IJHPBFIC@Invalid?5configuration?4?5Verify?5th@ 1006a670     as_module.obj
 0002:000086b4       ??_C@_0CK@NENIGDA@Failed?5to?5initialize?5global?5vari@ 1006a6b4     as_module.obj
 0002:000086e0       ??_C@_0BH@FNGIGOMO@Exception?5?8?$CFs?8?5in?5?8?$CFs?8?$AA@ 1006a6e0     as_module.obj
 0002:000086fc       ??_7asIScriptModule@@6B@   1006a6fc     as_module.obj
 0002:000087bc       ??_7asCModule@@6B@         1006a7bc     as_module.obj
 0002:0000887c       ??_7asCCompGlobPropType@@6B@ 1006a87c     as_module.obj
 0002:00008880       ??_C@_08FPOCBNNM@private?5?$AA@ 1006a880     as_objecttype.obj
 0002:00008894       ??_7asIObjectType@@6B@     1006a894     as_objecttype.obj
 0002:00008924       ??_7asCObjectType@@6B@     1006a924     as_objecttype.obj
 0002:000089ac       ??_C@_04HNEBHLOP@from?$AA@ 1006a9ac     as_parser.obj
 0002:000089b4       ??_C@_05OODBEKIG@while?$AA@ 1006a9b4     as_parser.obj
 0002:000089bc       ??_C@_06DOPOGBGP@switch?$AA@ 1006a9bc     as_parser.obj
 0002:000089c4       ??_C@_05HMIGGJBB@mixin?$AA@ 1006a9c4     as_parser.obj
 0002:000089cc       ??_C@_09NFKLEKPH@interface?$AA@ 1006a9cc     as_parser.obj
 0002:000089d8       ??_C@_02HEBPBKGD@if?$AA@   1006a9d8     as_parser.obj
 0002:000089dc       ??_C@_03JOHEBPFF@for?$AA@  1006a9dc     as_parser.obj
 0002:000089e0       ??_C@_02KNAFDCHJ@do?$AA@   1006a9e0     as_parser.obj
 0002:000089e4       ??_C@_07DLHCIBDH@default?$AA@ 1006a9e4     as_parser.obj
 0002:000089ec       ??_C@_08DLICDMBN@continue?$AA@ 1006a9ec     as_parser.obj
 0002:000089f8       ??_C@_05ENKANFLO@class?$AA@ 1006a9f8     as_parser.obj
 0002:00008a00       ??_C@_04HJDBPPOC@cast?$AA@ 1006aa00     as_parser.obj
 0002:00008a08       ??_C@_04CKOINMPC@case?$AA@ 1006aa08     as_parser.obj
 0002:00008a10       ??_C@_05ELPHFHOI@break?$AA@ 1006aa10     as_parser.obj
 0002:00008a18       ??_C@_01JLIPDDHJ@?3?$AA@   1006aa18     as_parser.obj
 0002:00008a1c       ??_C@_01LBDDMOBJ@?$FN?$AA@ 1006aa1c     as_parser.obj
 0002:00008a20       ??_C@_01CELHOKLL@?$HN?$AA@ 1006aa20     as_parser.obj
 0002:00008a24       ??_C@_01HCONENDN@?$HL?$AA@ 1006aa24     as_parser.obj
 0002:00008a28       ??_C@_01ICJEACDI@?$DL?$AA@ 1006aa28     as_parser.obj
 0002:00008a2c       ??_C@_0BD@HGAJODMG@Expected?5data?5type?$AA@ 1006aa2c     as_parser.obj
 0002:00008a40       ??_C@_0BE@IHCNHDGI@Expected?5identifier?$AA@ 1006aa40     as_parser.obj
 0002:00008a54       ??_C@_0BG@CKBODOKF@Unexpected?5token?5?8?$CFs?8?$AA@ 1006aa54     as_parser.obj
 0002:00008a6c       ??_C@_0BO@EGEMEHBA@Non?9terminated?5string?5literal?$AA@ 1006aa6c     as_parser.obj
 0002:00008a8c       ??_C@_0BH@CHGNDCAL@Unexpected?5end?5of?5file?$AA@ 1006aa8c     as_parser.obj
 0002:00008aa4       ??_C@_0BJ@BOONNJMF@While?5parsing?5expression?$AA@ 1006aaa4     as_parser.obj
 0002:00008ac0       ??_C@_0O@BBNOCNAC@Expected?5?8?$CFs?8?$AA@ 1006aac0     as_parser.obj
 0002:00008ad0       ??_C@_0BG@GOFKALI@Expected?5?8?$CFs?8?5or?5?8?$CFs?8?$AA@ 1006aad0     as_parser.obj
 0002:00008ae8       ??_C@_0BC@FOHGDPBE@Expected?5one?5of?3?5?$AA@ 1006aae8     as_parser.obj
 0002:00008afc       ??_C@_06LGDBIFHB@repeat?$AA@ 1006aafc     as_parser.obj
 0002:00008b04       ??_C@_0BO@JFFOFFGC@While?5parsing?5statement?5block?$AA@ 1006ab04     as_parser.obj
 0002:00008b24       ??_C@_0BK@GALJCMKC@Expected?5expression?5value?$AA@ 1006ab24     as_parser.obj
 0002:00008b40       ??_C@_0BC@MDHAGCCL@Expected?5constant?$AA@ 1006ab40     as_parser.obj
 0002:00008b54       ??_C@_0BA@EJPPCECL@Expected?5string?$AA@ 1006ab54     as_parser.obj
 0002:00008b64       ??_C@_0BG@KPBNOFCF@Expected?5pre?5operator?$AA@ 1006ab64     as_parser.obj
 0002:00008b7c       ??_C@_0BH@LKIFDGDA@Expected?5post?5operator?$AA@ 1006ab7c     as_parser.obj
 0002:00008b94       ??_C@_0BC@NBNLEHAJ@Expected?5operator?$AA@ 1006ab94     as_parser.obj
 0002:00008ba8       ??_C@_0BA@KFMHHHBG@?$DMunknown?5token?$DO?$AA@ 1006aba8     as_parser.obj
 0002:00008bb8       ??_C@_0BI@GECCABLE@While?5parsing?5namespace?$AA@ 1006abb8     as_parser.obj
 0002:00008bd0       ??_C@_0BM@BDNIFIKG@Expected?5method?5or?5property?$AA@ 1006abd0     as_parser.obj
 0002:00008bec       ??_C@_0CC@DNLCLABP@While?5parsing?5initialization?5lis@ 1006abec     as_parser.obj
 0002:00008c10       ??_C@_0BM@JJNDNHLL@While?5parsing?5argument?5list?$AA@ 1006ac10     as_parser.obj
 0002:00008c2c       ??_C@_0DJ@DNIJEN@Attempting?5to?5instanciate?5invali@ 1006ac2c     as_restore.obj
 0002:00008c68       ??_C@_0CB@ONCMEAJC@Template?5type?5?8?$CFs?8?5doesn?8t?5exist@ 1006ac68     as_restore.obj
 0002:00008c8c       ??_C@_0CE@FBDJHPMN@Template?5subtype?5?8?$CFs?8?5doesn?8t?5ex@ 1006ac8c     as_restore.obj
 0002:00008cb0       ??_C@_0BB@EDHKFEGD@_builtin_object_?$AA@ 1006acb0     as_restore.obj
 0002:00008cc4       ??_C@_0BP@KGCHOOGN@Object?5type?5?8?$CFs?8?5doesn?8t?5exist?$AA@ 1006acc4     as_restore.obj
 0002:00008ce4       ??_C@_06GDCCJGAN@2?428?40?$AA@ 1006ace4     as_scriptengine.obj
 0002:00008cec       ??_C@_0BA@GHMDCAKG@?5AS_WIN?5AS_X86?5?$AA@ 1006acec     as_scriptengine.obj
 0002:00008cfc       ??_C@_0BE@DJKNMFEJ@SetDefaultNamespace?$AA@ 1006acfc     as_scriptengine.obj
 0002:00008d10       ??_C@_08FPPNKELP@factstub?$AA@ 1006ad10     as_scriptengine.obj
 0002:00008d1c       ??_C@_0BH@OAJJJOML@RegisterObjectProperty?$AA@ 1006ad1c     as_scriptengine.obj
 0002:00008d34       ??_C@_0BC@CNOEFLN@RegisterInterface?$AA@ 1006ad34     as_scriptengine.obj
 0002:00008d48       ??_C@_0BI@DOHHPMFL@RegisterInterfaceMethod?$AA@ 1006ad48     as_scriptengine.obj
 0002:00008d60       ??_C@_0BD@PIOMOIME@RegisterObjectType?$AA@ 1006ad60     as_scriptengine.obj
 0002:00008d74       ??_C@_0DF@PHDBKJKN@A?5value?5type?5must?5be?5registered?5@ 1006ad74     as_scriptengine.obj
 0002:00008dac       ??_C@_0BI@CNLJIGIA@RegisterObjectBehaviour?$AA@ 1006adac     as_scriptengine.obj
 0002:00008dc4       ??_C@_08EEKIAJDE@_beh_?$CFd_?$AA@ 1006adc4     as_scriptengine.obj
 0002:00008dd0       ??_C@_0CO@FGPHLAHF@The?5behaviour?5is?5not?5compatible?5@ 1006add0     as_scriptengine.obj
 0002:00008e00       ??_C@_0HN@JMACBDKH@List?5factory?5expects?5only?5one?5re@ 1006ae00     as_scriptengine.obj
 0002:00008e80       ??_C@_0HD@PGLHEEFG@First?5parameter?5to?5template?5fact@ 1006ae80     as_scriptengine.obj
 0002:00008ef8       ??_C@_0GN@JHKNOGH@Template?5list?5factory?5expects?5tw@ 1006aef8     as_scriptengine.obj
 0002:00008f68       ??_C@_0BH@OBCJCFIN@RegisterGlobalProperty?$AA@ 1006af68     as_scriptengine.obj
 0002:00008f80       ??_C@_0BF@MCOFMHLC@RegisterObjectMethod?$AA@ 1006af80     as_scriptengine.obj
 0002:00008f98       ??_C@_0BH@NIGLMKEF@RegisterGlobalFunction?$AA@ 1006af98     as_scriptengine.obj
 0002:00008fb0       ??_C@_0EO@GDAIIFLK@A?5garbage?5collected?5type?5must?5ha@ 1006afb0     as_scriptengine.obj
 0002:00009000       ??_C@_0DI@PDLCMFDB@A?5scoped?5reference?5type?5must?5hav@ 1006b000     as_scriptengine.obj
 0002:00009038       ??_C@_0DN@NGMEOFFN@A?5reference?5type?5must?5have?5the?5a@ 1006b038     as_scriptengine.obj
 0002:00009078       ??_C@_0FB@BBKHBEPJ@A?5non?9pod?5value?5type?5must?5have?5t@ 1006b078     as_scriptengine.obj
 0002:000090cc       ??_C@_0CA@IDFLJJHO@Type?5?8?$CFs?8?5is?5missing?5behaviours?$AA@ 1006b0cc     as_scriptengine.obj
 0002:000090ec       ??_C@_0DO@OBPEACKD@Failed?5in?5call?5to?5function?5?8?$CFs?8?5@ 1006b0ec     as_scriptengine.obj
 0002:0000912c       ??_C@_0BG@OJAFHCHI@RegisterStringFactory?$AA@ 1006b12c     as_scriptengine.obj
 0002:00009144       ??_C@_0BB@BHHNOEGH@_string_factory_?$AA@ 1006b144     as_scriptengine.obj
 0002:00009158       ??_C@_0BD@CGHCNCC@CreateScriptObject?$AA@ 1006b158     as_scriptengine.obj
 0002:0000916c       ??_C@_0BA@MNPHPDGH@RegisterFuncdef?$AA@ 1006b16c     as_scriptengine.obj
 0002:0000917c       ??_C@_0BA@ICFFDJAO@RegisterTypedef?$AA@ 1006b17c     as_scriptengine.obj
 0002:0000918c       ??_C@_0N@MKGCMLPE@RegisterEnum?$AA@ 1006b18c     as_scriptengine.obj
 0002:0000919c       ??_C@_0BC@CDHLHHOF@RegisterEnumValue?$AA@ 1006b19c     as_scriptengine.obj
 0002:000091b4       ??_7asIScriptEngine@@6B@   1006b1b4     as_scriptengine.obj
 0002:00009304       ??_7asCScriptEngine@@6B@   1006b304     as_scriptengine.obj
 0002:00009450       ??_C@_05DNOIDIPO@inout?$AA@ 1006b450     as_scriptfunction.obj
 0002:00009458       ??_C@_0BJ@LANGEOPL@void?5f?$CIint?5?$CGin?0?5int?5?$CGin?$CJ?$AA@ 1006b458     as_scriptfunction.obj
 0002:00009474       ??_C@_07HBKPIFKK@_beh_0_?$AA@ 1006b474     as_scriptfunction.obj
 0002:0000947c       ??_C@_07HCCLFBME@_beh_2_?$AA@ 1006b47c     as_scriptfunction.obj
 0002:00009484       ??_C@_0BB@FCGMAIGB@_unnamed_type_?3?3?$AA@ 1006b484     as_scriptfunction.obj
 0002:00009498       ??_C@_0BE@NNBEBLEN@_unnamed_function_?$CI?$AA@ 1006b498     as_scriptfunction.obj
 0002:000094ac       ??_C@_05CHAIBMGB@_beh_?$AA@ 1006b4ac     as_scriptfunction.obj
 0002:000094b4       ??_C@_05IKIGCGFN@?5?$DN?5?$CFs?$AA@ 1006b4b4     as_scriptfunction.obj
 0002:000094bc       ??_C@_02PEDIMADA@?5?$HL?$AA@ 1006b4bc     as_scriptfunction.obj
 0002:000094c0       ??_C@_02KCGCGHLG@?5?$HN?$AA@ 1006b4c0     as_scriptfunction.obj
 0002:000094c4       ??_C@_07LHAJOHDA@?5repeat?$AA@ 1006b4c4     as_scriptfunction.obj
 0002:000094d4       ??_7asIScriptFunction@@6B@ 1006b4d4     as_scriptfunction.obj
 0002:0000956c       ??_7asCScriptFunction@@6B@ 1006b56c     as_scriptfunction.obj
 0002:00009600       ??_7asSListPatternNode@@6B@ 1006b600     as_scriptfunction.obj
 0002:0000960c       ??_7asSListPatternDataTypeNode@@6B@ 1006b60c     as_scriptfunction.obj
 0002:00009614       ??_C@_0CH@JDPPNHJK@An?5exception?5occurred?5in?5a?5neste@ 1006b614     as_scriptobject.obj
 0002:0000963c       ??_C@_0BH@NIHONOMD@int?5?$CGopAssign?$CIint?5?$CGin?$CJ?$AA@ 1006b63c     as_scriptobject.obj
 0002:00009654       ??_C@_08BBAIGFOB@int?5?$CGf?$CI?$CJ?$AA@ 1006b654     as_scriptobject.obj
 0002:00009660       ??_C@_0FB@LIJKNNFD@The?5script?5object?5of?5type?5?8?$CFs?8?5i@ 1006b660     as_scriptobject.obj
 0002:000096b8       ??_7asIScriptObject@@6B@   1006b6b8     as_scriptobject.obj
 0002:000096e8       ??_7asILockableSharedBool@@6B@ 1006b6e8     as_scriptobject.obj
 0002:00009708       ??_7asCLockableSharedBool@@6B@ 1006b708     as_scriptobject.obj
 0002:00009728       ??_7asCScriptObject@@6B@   1006b728     as_scriptobject.obj
 0002:00009758       ??_7asIThreadManager@@6B@  1006b758     as_thread.obj
 0002:00009760       ??_7asCThreadManager@@6B@  1006b760     as_thread.obj
 0002:00009764       ??_C@_04HHCDBDLF@?5?7?$AN?6?$AA@ 1006b764     as_tokenizer.obj
 0002:0000976c       ??_C@_03COLCDPPJ@xor?$AA@  1006b76c     as_tokenizer.obj
 0002:00009770       ??_C@_04GKJNKENE@void?$AA@ 1006b770     as_tokenizer.obj
 0002:00009778       ??_C@_06KKKLBFKN@uint64?$AA@ 1006b778     as_tokenizer.obj
 0002:00009780       ??_C@_06PKDKHAMA@uint32?$AA@ 1006b780     as_tokenizer.obj
 0002:00009788       ??_C@_06JNNCGBKK@uint16?$AA@ 1006b788     as_tokenizer.obj
 0002:00009790       ??_C@_05BOGOCLFF@uint8?$AA@ 1006b790     as_tokenizer.obj
 0002:00009798       ??_C@_07FIDIHKEG@typedef?$AA@ 1006b798     as_tokenizer.obj
 0002:000097a0       ??_C@_04LOAJBDKD@true?$AA@ 1006b7a0     as_tokenizer.obj
 0002:000097a8       ??_C@_07NMPLPEPB@private?$AA@ 1006b7a8     as_tokenizer.obj
 0002:000097b0       ??_C@_02FODMLBIE@or?$AA@   1006b7b0     as_tokenizer.obj
 0002:000097b4       ??_C@_03NJKJADM@not?$AA@   1006b7b4     as_tokenizer.obj
 0002:000097b8       ??_C@_09KPMGAFNI@namespace?$AA@ 1006b7b8     as_tokenizer.obj
 0002:000097c4       ??_C@_02EDKKPMHH@is?$AA@   1006b7c4     as_tokenizer.obj
 0002:000097c8       ??_C@_05DIFFJEPM@int64?$AA@ 1006b7c8     as_tokenizer.obj
 0002:000097d0       ??_C@_05GIMEPBJB@int32?$AA@ 1006b7d0     as_tokenizer.obj
 0002:000097d8       ??_C@_05PCMOAPL@int16?$AA@ 1006b7d8     as_tokenizer.obj
 0002:000097e0       ??_C@_04DCGBOBJJ@int8?$AA@ 1006b7e0     as_tokenizer.obj
 0002:000097e8       ??_C@_03JBIPMCLC@int?$AA@  1006b7e8     as_tokenizer.obj
 0002:000097ec       ??_C@_06EOGGDCGF@import?$AA@ 1006b7ec     as_tokenizer.obj
 0002:000097f4       ??_C@_07BHJKLACP@funcdef?$AA@ 1006b7f4     as_tokenizer.obj
 0002:000097fc       ??_C@_05KNFBNCOH@float?$AA@ 1006b7fc     as_tokenizer.obj
 0002:00009804       ??_C@_05LAPONLG@false?$AA@ 1006b804     as_tokenizer.obj
 0002:0000980c       ??_C@_04DBJPMPLO@enum?$AA@ 1006b80c     as_tokenizer.obj
 0002:00009814       ??_C@_04FHMCPBIP@else?$AA@ 1006b814     as_tokenizer.obj
 0002:0000981c       ??_C@_06BNJCAIGJ@double?$AA@ 1006b81c     as_tokenizer.obj
 0002:00009824       ??_C@_03BOPJPIAM@and?$AA@  1006b824     as_tokenizer.obj
 0002:00009828       ??_C@_03IFCBDCCC@?$CBis?$AA@ 1006b828     as_tokenizer.obj
 0002:0000982c       ??_C@_02FDNJECIE@?$CB?$DN?$AA@ 1006b82c     as_tokenizer.obj
 0002:00009830       ??_C@_01DCLJPIOD@?$CB?$AA@ 1006b830     as_tokenizer.obj
 0002:00009834       ??_C@_01OHGJGJJP@?$FL?$AA@ 1006b834     as_tokenizer.obj
 0002:00009838       ??_C@_04HDCFABLD@?$DO?$DO?$DO?$DN?$AA@ 1006b838     as_tokenizer.obj
 0002:00009840       ??_C@_03KBHPHMJG@?$DO?$DO?$DO?$AA@ 1006b840     as_tokenizer.obj
 0002:00009844       ??_C@_03IKFCCPFF@?$DO?$DO?$DN?$AA@ 1006b844     as_tokenizer.obj
 0002:00009848       ??_C@_02GPIOPFAK@?$DO?$DO?$AA@ 1006b848     as_tokenizer.obj
 0002:0000984c       ??_C@_02EEKDKGMJ@?$DO?$DN?$AA@ 1006b84c     as_tokenizer.obj
 0002:00009850       ??_C@_03CDNPDDLA@?$DM?$DM?$DN?$AA@ 1006b850     as_tokenizer.obj
 0002:00009854       ??_C@_02FODMEDOG@?$DM?$DM?$AA@ 1006b854     as_tokenizer.obj
 0002:00009858       ??_C@_02EHCHHCKH@?$DM?$DN?$AA@ 1006b858     as_tokenizer.obj
 0002:0000985c       ??_C@_02ECKEFFIN@?$FO?$FO?$AA@ 1006b85c     as_tokenizer.obj
 0002:00009860       ??_C@_02MHEGNOJ@?$FO?$DN?$AA@ 1006b860     as_tokenizer.obj
 0002:00009864       ??_C@_01JKBOJNNK@?$FO?$AA@ 1006b864     as_tokenizer.obj
 0002:00009868       ??_C@_02PPKAJPJL@?$CG?$CG?$AA@ 1006b868     as_tokenizer.obj
 0002:0000986c       ??_C@_02FGJGFEAB@?$CG?$DN?$AA@ 1006b86c     as_tokenizer.obj
 0002:00009870       ??_C@_02NONPIBCD@?$HM?$HM?$AA@ 1006b870     as_tokenizer.obj
 0002:00009874       ??_C@_02DHLNPPGH@?$HM?$DN?$AA@ 1006b874     as_tokenizer.obj
 0002:00009878       ??_C@_01DNKMNLPK@?$HM?$AA@ 1006b878     as_tokenizer.obj
 0002:0000987c       ??_C@_01LFCBOECM@?4?$AA@   1006b87c     as_tokenizer.obj
 0002:00009880       ??_C@_02EGOFBIJA@?$DN?$DN?$AA@ 1006b880     as_tokenizer.obj
 0002:00009884       ??_C@_01NEMOKFLO@?$DN?$AA@ 1006b884     as_tokenizer.obj
 0002:00009888       ??_C@_02FENAOKFI@?$CF?$DN?$AA@ 1006b888     as_tokenizer.obj
 0002:0000988c       ??_C@_01FGNFDNOH@?$CF?$AA@ 1006b88c     as_tokenizer.obj
 0002:00009890       ??_C@_02FJEHGPIO@?1?$DN?$AA@ 1006b890     as_tokenizer.obj
 0002:00009894       ??_C@_01KMDKNFGN@?1?$AA@   1006b894     as_tokenizer.obj
 0002:00009898       ??_C@_02FPIMKNGF@?$CK?$DN?$AA@ 1006b898     as_tokenizer.obj
 0002:0000989c       ??_C@_01NBENCBCI@?$CK?$AA@ 1006b89c     as_tokenizer.obj
 0002:000098a0       ??_C@_02BAABKJLB@?9?9?$AA@ 1006b8a0     as_tokenizer.obj
 0002:000098a4       ??_C@_02FKMDLLOA@?9?$DN?$AA@ 1006b8a4     as_tokenizer.obj
 0002:000098a8       ??_C@_01JOAMLHOP@?9?$AA@   1006b8a8     as_tokenizer.obj
 0002:000098ac       ??_C@_02ECNGHCIF@?$CL?$CL?$AA@ 1006b8ac     as_tokenizer.obj
 0002:000098b0       ??_C@_02FOEOMHFC@?$CL?$DN?$AA@ 1006b8b0     as_tokenizer.obj
 0002:000098b4       ??_C@_01MIFGBAGJ@?$CL?$AA@ 1006b8b4     as_tokenizer.obj
 0002:000098b8       ??_C@_0BF@HIPKNLOM@?$DMunrecognized?5token?$DO?$AA@ 1006b8b8     as_tokenizer.obj
 0002:000098d0       ??_C@_0O@LMMNBODD@?$DMend?5of?5file?$DO?$AA@ 1006b8d0     as_tokenizer.obj
 0002:000098e0       ??_C@_0O@CJLNMLLI@?$DMwhite?5space?$DO?$AA@ 1006b8e0     as_tokenizer.obj
 0002:000098f0       ??_C@_0BD@DCJLBDGD@?$DMone?5line?5comment?$DO?$AA@ 1006b8f0     as_tokenizer.obj
 0002:00009904       ??_C@_0BJ@OMNPBGLF@?$DMmultiple?5lines?5comment?$DO?$AA@ 1006b904     as_tokenizer.obj
 0002:00009920       ??_C@_0N@PNCCAENN@?$DMidentifier?$DO?$AA@ 1006b920     as_tokenizer.obj
 0002:00009930       ??_C@_0BD@EPPAAPPA@?$DMinteger?5constant?$DO?$AA@ 1006b930     as_tokenizer.obj
 0002:00009944       ??_C@_0BB@DNDALHK@?$DMfloat?5constant?$DO?$AA@ 1006b944     as_tokenizer.obj
 0002:00009958       ??_C@_0BC@OGDMCMPH@?$DMdouble?5constant?$DO?$AA@ 1006b958     as_tokenizer.obj
 0002:0000996c       ??_C@_0BC@DFFNMDMB@?$DMstring?5constant?$DO?$AA@ 1006b96c     as_tokenizer.obj
 0002:00009980       ??_C@_0BM@KKNKMIKO@?$DMmultiline?5string?5constant?$DO?$AA@ 1006b980     as_tokenizer.obj
 0002:0000999c       ??_C@_0CA@CMAGINLB@?$DMnonterminated?5string?5constant?$DO?$AA@ 1006b99c     as_tokenizer.obj
 0002:000099bc       ??_C@_0BA@HOIGKPIJ@?$DMbits?5constant?$DO?$AA@ 1006b9bc     as_tokenizer.obj
 0002:000099cc       ??_C@_0BK@IKOJIINA@?$DMheredoc?5string?5constant?$DO?$AA@ 1006b9cc     as_tokenizer.obj
 0002:000099e8       __real@3ff0000000000000    1006b9e8      CIL library: CIL module
 0002:000099f0       __real@4024000000000000    1006b9f0      CIL library: CIL module
 0002:000099f8       __real@3fb999999999999a    1006b9f8      CIL library: CIL module
 0002:00009a00       __real@4f800000            1006ba00      CIL library: CIL module
 0002:00009a08       __real@41f0000000000000    1006ba08      CIL library: CIL module
 0002:00009a10       __load_config_used         1006ba10     MSVCRT:loadcfg.obj
 0002:00009a58       ??_R4type_info@@6B@        1006ba58     MSVCRT:ti_inst.obj
 0002:00009a6c       ??_R3type_info@@8          1006ba6c     MSVCRT:ti_inst.obj
 0002:00009a7c       ??_R2type_info@@8          1006ba7c     MSVCRT:ti_inst.obj
 0002:00009a84       ??_R1A@?0A@EA@type_info@@8 1006ba84     MSVCRT:ti_inst.obj
 0002:00009aa0       ??_R4asCCompGlobVarType@@6B@ 1006baa0     as_builder.obj
 0002:00009ab4       ??_R3asCCompGlobVarType@@8 1006bab4     as_builder.obj
 0002:00009ac4       ??_R2asCCompGlobVarType@@8 1006bac4     as_builder.obj
 0002:00009ad0       ??_R1A@?0A@EA@asCCompGlobVarType@@8 1006bad0     as_builder.obj
 0002:00009aec       ??_R3asIFilter@@8          1006baec     as_builder.obj
 0002:00009afc       ??_R2asIFilter@@8          1006bafc     as_builder.obj
 0002:00009b04       ??_R1A@?0A@EA@asIFilter@@8 1006bb04     as_builder.obj
 0002:00009b20       ??_R4asCContext@@6B@       1006bb20     as_context.obj
 0002:00009b34       ??_R3asCContext@@8         1006bb34     as_context.obj
 0002:00009b44       ??_R2asCContext@@8         1006bb44     as_context.obj
 0002:00009b50       ??_R1A@?0A@EA@asCContext@@8 1006bb50     as_context.obj
 0002:00009b6c       ??_R4asIScriptContext@@6B@ 1006bb6c     as_context.obj
 0002:00009b80       ??_R3asIScriptContext@@8   1006bb80     as_context.obj
 0002:00009b90       ??_R2asIScriptContext@@8   1006bb90     as_context.obj
 0002:00009b98       ??_R1A@?0A@EA@asIScriptContext@@8 1006bb98     as_context.obj
 0002:00009bb4       ??_R4asCGeneric@@6B@       1006bbb4     as_generic.obj
 0002:00009bc8       ??_R3asCGeneric@@8         1006bbc8     as_generic.obj
 0002:00009bd8       ??_R2asCGeneric@@8         1006bbd8     as_generic.obj
 0002:00009be4       ??_R1A@?0A@EA@asCGeneric@@8 1006bbe4     as_generic.obj
 0002:00009c00       ??_R4asIScriptGeneric@@6B@ 1006bc00     as_generic.obj
 0002:00009c14       ??_R3asIScriptGeneric@@8   1006bc14     as_generic.obj
 0002:00009c24       ??_R2asIScriptGeneric@@8   1006bc24     as_generic.obj
 0002:00009c2c       ??_R1A@?0A@EA@asIScriptGeneric@@8 1006bc2c     as_generic.obj
 0002:00009c48       ??_R4asCCompGlobPropType@@6B@ 1006bc48     as_module.obj
 0002:00009c5c       ??_R3asCCompGlobPropType@@8 1006bc5c     as_module.obj
 0002:00009c6c       ??_R2asCCompGlobPropType@@8 1006bc6c     as_module.obj
 0002:00009c78       ??_R1A@?0A@EA@asCCompGlobPropType@@8 1006bc78     as_module.obj
 0002:00009c94       ??_R4asCModule@@6B@        1006bc94     as_module.obj
 0002:00009ca8       ??_R3asCModule@@8          1006bca8     as_module.obj
 0002:00009cb8       ??_R2asCModule@@8          1006bcb8     as_module.obj
 0002:00009cc4       ??_R1A@?0A@EA@asCModule@@8 1006bcc4     as_module.obj
 0002:00009ce0       ??_R4asIScriptModule@@6B@  1006bce0     as_module.obj
 0002:00009cf4       ??_R3asIScriptModule@@8    1006bcf4     as_module.obj
 0002:00009d04       ??_R2asIScriptModule@@8    1006bd04     as_module.obj
 0002:00009d0c       ??_R1A@?0A@EA@asIScriptModule@@8 1006bd0c     as_module.obj
 0002:00009d28       ??_R4asCObjectType@@6B@    1006bd28     as_objecttype.obj
 0002:00009d3c       ??_R3asCObjectType@@8      1006bd3c     as_objecttype.obj
 0002:00009d4c       ??_R2asCObjectType@@8      1006bd4c     as_objecttype.obj
 0002:00009d58       ??_R1A@?0A@EA@asCObjectType@@8 1006bd58     as_objecttype.obj
 0002:00009d74       ??_R4asIObjectType@@6B@    1006bd74     as_objecttype.obj
 0002:00009d88       ??_R3asIObjectType@@8      1006bd88     as_objecttype.obj
 0002:00009d98       ??_R2asIObjectType@@8      1006bd98     as_objecttype.obj
 0002:00009da0       ??_R1A@?0A@EA@asIObjectType@@8 1006bda0     as_objecttype.obj
 0002:00009dbc       ??_R4asCScriptEngine@@6B@  1006bdbc     as_scriptengine.obj
 0002:00009dd0       ??_R3asCScriptEngine@@8    1006bdd0     as_scriptengine.obj
 0002:00009de0       ??_R2asCScriptEngine@@8    1006bde0     as_scriptengine.obj
 0002:00009dec       ??_R1A@?0A@EA@asCScriptEngine@@8 1006bdec     as_scriptengine.obj
 0002:00009e08       ??_R4asIScriptEngine@@6B@  1006be08     as_scriptengine.obj
 0002:00009e1c       ??_R3asIScriptEngine@@8    1006be1c     as_scriptengine.obj
 0002:00009e2c       ??_R2asIScriptEngine@@8    1006be2c     as_scriptengine.obj
 0002:00009e34       ??_R1A@?0A@EA@asIScriptEngine@@8 1006be34     as_scriptengine.obj
 0002:00009e50       ??_R4asSListPatternDataTypeNode@@6B@ 1006be50     as_scriptfunction.obj
 0002:00009e64       ??_R3asSListPatternDataTypeNode@@8 1006be64     as_scriptfunction.obj
 0002:00009e74       ??_R2asSListPatternDataTypeNode@@8 1006be74     as_scriptfunction.obj
 0002:00009e80       ??_R1A@?0A@EA@asSListPatternDataTypeNode@@8 1006be80     as_scriptfunction.obj
 0002:00009e9c       ??_R4asSListPatternNode@@6B@ 1006be9c     as_scriptfunction.obj
 0002:00009eb0       ??_R3asSListPatternNode@@8 1006beb0     as_scriptfunction.obj
 0002:00009ec0       ??_R2asSListPatternNode@@8 1006bec0     as_scriptfunction.obj
 0002:00009ec8       ??_R1A@?0A@EA@asSListPatternNode@@8 1006bec8     as_scriptfunction.obj
 0002:00009ee4       ??_R4asCScriptFunction@@6B@ 1006bee4     as_scriptfunction.obj
 0002:00009ef8       ??_R3asCScriptFunction@@8  1006bef8     as_scriptfunction.obj
 0002:00009f08       ??_R2asCScriptFunction@@8  1006bf08     as_scriptfunction.obj
 0002:00009f14       ??_R1A@?0A@EA@asCScriptFunction@@8 1006bf14     as_scriptfunction.obj
 0002:00009f30       ??_R4asIScriptFunction@@6B@ 1006bf30     as_scriptfunction.obj
 0002:00009f44       ??_R3asIScriptFunction@@8  1006bf44     as_scriptfunction.obj
 0002:00009f54       ??_R2asIScriptFunction@@8  1006bf54     as_scriptfunction.obj
 0002:00009f5c       ??_R1A@?0A@EA@asIScriptFunction@@8 1006bf5c     as_scriptfunction.obj
 0002:00009f78       ??_R4asCScriptObject@@6B@  1006bf78     as_scriptobject.obj
 0002:00009f8c       ??_R3asCScriptObject@@8    1006bf8c     as_scriptobject.obj
 0002:00009f9c       ??_R2asCScriptObject@@8    1006bf9c     as_scriptobject.obj
 0002:00009fa8       ??_R1A@?0A@EA@asCScriptObject@@8 1006bfa8     as_scriptobject.obj
 0002:00009fc4       ??_R4asCLockableSharedBool@@6B@ 1006bfc4     as_scriptobject.obj
 0002:00009fd8       ??_R3asCLockableSharedBool@@8 1006bfd8     as_scriptobject.obj
 0002:00009fe8       ??_R2asCLockableSharedBool@@8 1006bfe8     as_scriptobject.obj
 0002:00009ff4       ??_R1A@?0A@EA@asCLockableSharedBool@@8 1006bff4     as_scriptobject.obj
 0002:0000a010       ??_R4asILockableSharedBool@@6B@ 1006c010     as_scriptobject.obj
 0002:0000a024       ??_R3asILockableSharedBool@@8 1006c024     as_scriptobject.obj
 0002:0000a034       ??_R2asILockableSharedBool@@8 1006c034     as_scriptobject.obj
 0002:0000a03c       ??_R1A@?0A@EA@asILockableSharedBool@@8 1006c03c     as_scriptobject.obj
 0002:0000a058       ??_R4asIScriptObject@@6B@  1006c058     as_scriptobject.obj
 0002:0000a06c       ??_R3asIScriptObject@@8    1006c06c     as_scriptobject.obj
 0002:0000a07c       ??_R2asIScriptObject@@8    1006c07c     as_scriptobject.obj
 0002:0000a084       ??_R1A@?0A@EA@asIScriptObject@@8 1006c084     as_scriptobject.obj
 0002:0000a0a0       ??_R4asCThreadManager@@6B@ 1006c0a0     as_thread.obj
 0002:0000a0b4       ??_R3asCThreadManager@@8   1006c0b4     as_thread.obj
 0002:0000a0c4       ??_R2asCThreadManager@@8   1006c0c4     as_thread.obj
 0002:0000a0d0       ??_R1A@?0A@EA@asCThreadManager@@8 1006c0d0     as_thread.obj
 0002:0000a0ec       ??_R4asIThreadManager@@6B@ 1006c0ec     as_thread.obj
 0002:0000a100       ??_R3asIThreadManager@@8   1006c100     as_thread.obj
 0002:0000a110       ??_R2asIThreadManager@@8   1006c110     as_thread.obj
 0002:0000a118       ??_R1A@?0A@EA@asIThreadManager@@8 1006c118     as_thread.obj
 0002:0000a140       ___safe_se_handler_table   1006c140     <linker-defined>
 0002:0000a664       ___rtc_iaa                 1006c664     MSVCRT:_initsect_.obj
 0002:0000a668       ___rtc_izz                 1006c668     MSVCRT:_initsect_.obj
 0002:0000a66c       ___rtc_taa                 1006c66c     MSVCRT:_initsect_.obj
 0002:0000a670       ___rtc_tzz                 1006c670     MSVCRT:_initsect_.obj
 0002:0000fe0c       __IMPORT_DESCRIPTOR_KERNEL32 10071e0c     kernel32:KERNEL32.dll
 0002:0000fe20       __IMPORT_DESCRIPTOR_MSVCR90 10071e20     MSVCRT:MSVCR90.dll
 0002:0000fe34       __NULL_IMPORT_DESCRIPTOR   10071e34     kernel32:KERNEL32.dll
 0003:00000000       ??_R0?AVtype_info@@@8      10073000     MSVCRT:ti_inst.obj
 0003:00000018       ___native_dllmain_reason   10073018     MSVCRT:natstart.obj
 0003:0000001c       ___native_vcclrit_reason   1007301c     MSVCRT:natstart.obj
 0003:00000020       ___security_cookie         10073020     MSVCRT:gs_cookie.obj
 0003:00000024       ___security_cookie_complement 10073024     MSVCRT:gs_cookie.obj
 0003:000000c0       ??_R0?AVasCCompGlobVarType@@@8 100730c0     as_builder.obj
 0003:000000e4       ??_R0?AUasIFilter@@@8      100730e4     as_builder.obj
 0003:000000fc       ??_R0?AVasCContext@@@8     100730fc     as_context.obj
 0003:00000118       ??_R0?AVasIScriptContext@@@8 10073118     as_context.obj
 0003:00000138       ??_R0?AVasCGeneric@@@8     10073138     as_generic.obj
 0003:00000154       ??_R0?AVasIScriptGeneric@@@8 10073154     as_generic.obj
 0003:00000174       ??_R0?AVasCCompGlobPropType@@@8 10073174     as_module.obj
 0003:00000198       ??_R0?AVasCModule@@@8      10073198     as_module.obj
 0003:000001b0       ??_R0?AVasIScriptModule@@@8 100731b0     as_module.obj
 0003:000001d0       ??_R0?AVasCObjectType@@@8  100731d0     as_objecttype.obj
 0003:000001ec       ??_R0?AVasIObjectType@@@8  100731ec     as_objecttype.obj
 0003:00000208       ??_R0?AVasCScriptEngine@@@8 10073208     as_scriptengine.obj
 0003:00000228       ??_R0?AVasIScriptEngine@@@8 10073228     as_scriptengine.obj
 0003:00000248       ??_R0?AUasSListPatternDataTypeNode@@@8 10073248     as_scriptfunction.obj
 0003:00000274       ??_R0?AUasSListPatternNode@@@8 10073274     as_scriptfunction.obj
 0003:00000298       ??_R0?AVasCScriptFunction@@@8 10073298     as_scriptfunction.obj
 0003:000002b8       ??_R0?AVasIScriptFunction@@@8 100732b8     as_scriptfunction.obj
 0003:000002d8       ??_R0?AVasCScriptObject@@@8 100732d8     as_scriptobject.obj
 0003:000002f8       ??_R0?AVasCLockableSharedBool@@@8 100732f8     as_scriptobject.obj
 0003:0000031c       ??_R0?AVasILockableSharedBool@@@8 1007331c     as_scriptobject.obj
 0003:00000340       ??_R0?AVasIScriptObject@@@8 10073340     as_scriptobject.obj
 0003:00000360       ??_R0?AVasCThreadManager@@@8 10073360     as_thread.obj
 0003:00000380       ??_R0?AVasIThreadManager@@@8 10073380     as_thread.obj
 0003:000003a4       __forceCRTManifestRTM      100733a4     MSVCRT:crtmanifestrtm.obj
 0003:000003a8       ?__type_info_root_node@@3U__type_info_node@@A 100733a8     MSVCRT:tncleanup.obj
 0003:000006d4       ?dummy@?3??GetIndexes@?$asCSymbolTable@VasCScriptFunction@@@@QBEABV?$asCArray@I@@PBUasSNameSpace@@ABVasCString@@@Z@4V3@A 100736d4     as_builder.obj
 0003:000006e8       ??_B?3??GetIndexes@?$asCSymbolTable@VasCScriptFunction@@@@QBEABV?$asCArray@I@@PBUasSNameSpace@@ABVasCString@@@Z@53 100736e8     as_builder.obj
 0003:000006f0       ?userFree@@3P6AXPAX@ZA     100736f0     as_memory.obj
 0003:000006f4       ?userAlloc@@3P6APAXI@ZA    100736f4     as_memory.obj
 0003:000006f8       ___sse2_available          100736f8     <common>
 0003:000006fc       __adjust_fdiv              100736fc     <common>
 0003:00000700       ___native_startup_state    10073700     <common>
 0003:00000704       ___native_startup_lock     10073704     <common>
 0003:00000708       ___dyn_tls_init_callback   10073708     <common>
 0003:0000070c       ___onexitend               1007370c     <common>
 0003:00000710       ___onexitbegin             10073710     <common>

 entry point at        0001:0000458d

 Static symbols

 0001:00004202       _pre_c_init                10005202 f   MSVCRT:crtdll.obj
 0001:00004477       ___DllMainCRTStartup       10005477 f   MSVCRT:crtdll.obj
 0001:00005a10       ?asCharToNbr@@YAHDH@Z      10006a10 f    CIL library: CIL module
 0001:000078e0       ?cmp@C@?9??FindNextLineWithCode@asCScriptFunction@@UBEHH@Z@SAHPBX0@Z 100088e0 f    CIL library: CIL module
 0001:0004dba7       __catch$?CallSystemFunction@@YAHHPAVasCContext@@PAX@Z$0 1004eba7 f    CIL library: CIL module
 0001:0005ca2b       _has_osfxsr_set            1005da2b f   MSVCRT:cpu_disp.obj
 0001:0005caf0       __unwindfunclet$??1preMessage_t@asCBuilder@@QAE@XZ$0 1005daf0 f    CIL library: CIL module
 0001:0005cafb       __ehhandler$??1preMessage_t@asCBuilder@@QAE@XZ 1005dafb f    CIL library: CIL module
 0001:0005cb20       __unwindfunclet$??1asCVariableScope@@QAE@XZ$0 1005db20 f    CIL library: CIL module
 0001:0005cb2b       __ehhandler$??1asCVariableScope@@QAE@XZ 1005db2b f    CIL library: CIL module
 0001:0005cb35       __unwindfunclet$??0asCVariableScope@@QAE@PAV0@@Z$0 1005db35 f    CIL library: CIL module
 0001:0005cb40       __ehhandler$??0asCVariableScope@@QAE@PAV0@@Z 1005db40 f    CIL library: CIL module
 0001:0005cb4a       __unwindfunclet$??1asCGlobalProperty@@QAE@XZ$0 1005db4a f    CIL library: CIL module
 0001:0005cb52       __ehhandler$??1asCGlobalProperty@@QAE@XZ 1005db52 f    CIL library: CIL module
 0001:0005cb5c       __unwindfunclet$??1asCGarbageCollector@@QAE@XZ$0 1005db5c f    CIL library: CIL module
 0001:0005cb67       __unwindfunclet$??1asCGarbageCollector@@QAE@XZ$1 1005db67 f    CIL library: CIL module
 0001:0005cb72       __unwindfunclet$??1asCGarbageCollector@@QAE@XZ$2 1005db72 f    CIL library: CIL module
 0001:0005cb7d       __unwindfunclet$??1asCGarbageCollector@@QAE@XZ$3 1005db7d f    CIL library: CIL module
 0001:0005cb88       __unwindfunclet$??1asCGarbageCollector@@QAE@XZ$4 1005db88 f    CIL library: CIL module
 0001:0005cb96       __unwindfunclet$??1asCGarbageCollector@@QAE@XZ$5 1005db96 f    CIL library: CIL module
 0001:0005cba3       __unwindfunclet$??1asCGarbageCollector@@QAE@XZ$6 1005dba3 f    CIL library: CIL module
 0001:0005cbb0       __ehhandler$??1asCGarbageCollector@@QAE@XZ 1005dbb0 f    CIL library: CIL module
 0001:0005cbba       __unwindfunclet$?AddVariableScope@asCCompiler@@IAEX_N0@Z$0 1005dbba f    CIL library: CIL module
 0001:0005cbbf       __ehhandler$?AddVariableScope@asCCompiler@@IAEX_N0@Z 1005dbbf f    CIL library: CIL module
 0001:0005cbc9       __unwindfunclet$?IsTempVarRead@asCByteCode@@IAE_NPAVasCByteInstruction@@H@Z$0 1005dbc9 f    CIL library: CIL module
 0001:0005cbd1       __unwindfunclet$?IsTempVarRead@asCByteCode@@IAE_NPAVasCByteInstruction@@H@Z$1 1005dbd1 f    CIL library: CIL module
 0001:0005cbd9       __ehhandler$?IsTempVarRead@asCByteCode@@IAE_NPAVasCByteInstruction@@H@Z 1005dbd9 f    CIL library: CIL module
 0001:0005cbe3       __unwindfunclet$??1asCThreadLocalData@@IAE@XZ$0 1005dbe3 f    CIL library: CIL module
 0001:0005cbeb       __ehhandler$??1asCThreadLocalData@@IAE@XZ 1005dbeb f    CIL library: CIL module
 0001:0005cbf5       __unwindfunclet$?ReleaseReferences@asCScriptFunction@@QAEXXZ$0 1005dbf5 f    CIL library: CIL module
 0001:0005cbfd       __ehhandler$?ReleaseReferences@asCScriptFunction@@QAEXXZ 1005dbfd f    CIL library: CIL module
 0001:0005cc07       __unwindfunclet$?AddReferences@asCScriptFunction@@QAEXXZ$0 1005dc07 f    CIL library: CIL module
 0001:0005cc0f       __ehhandler$?AddReferences@asCScriptFunction@@QAEXXZ 1005dc0f f    CIL library: CIL module
 0001:0005cc19       __unwindfunclet$?FindNextLineWithCode@asCScriptFunction@@UBEHH@Z$0 1005dc19 f    CIL library: CIL module
 0001:0005cc21       __ehhandler$?FindNextLineWithCode@asCScriptFunction@@UBEHH@Z 1005dc21 f    CIL library: CIL module
 0001:0005cc2b       __unwindfunclet$?CallGlobalFunctionRetBool@asCScriptEngine@@QBE_NPAX0PAUasSSystemFunctionInterface@@PAVasCScriptFunction@@@Z$0 1005dc2b f    CIL library: CIL module
 0001:0005cc33       __ehhandler$?CallGlobalFunctionRetBool@asCScriptEngine@@QBE_NPAX0PAUasSSystemFunctionInterface@@PAVasCScriptFunction@@@Z 1005dc33 f    CIL library: CIL module
 0001:0005cc3d       __unwindfunclet$?CallGlobalFunction@asCScriptEngine@@QBEXPAX0PAUasSSystemFunctionInterface@@PAVasCScriptFunction@@@Z$0 1005dc3d f    CIL library: CIL module
 0001:0005cc45       __ehhandler$?CallGlobalFunction@asCScriptEngine@@QBEXPAX0PAUasSSystemFunctionInterface@@PAVasCScriptFunction@@@Z 1005dc45 f    CIL library: CIL module
 0001:0005cc4f       __unwindfunclet$?CallObjectMethod@asCScriptEngine@@QBEXPAX0PAUasSSystemFunctionInterface@@PAVasCScriptFunction@@@Z$0 1005dc4f f    CIL library: CIL module
 0001:0005cc57       __ehhandler$?CallObjectMethod@asCScriptEngine@@QBEXPAX0PAUasSSystemFunctionInterface@@PAVasCScriptFunction@@@Z 1005dc57 f    CIL library: CIL module
 0001:0005cc61       __unwindfunclet$?CallGlobalFunctionRetPtr@asCScriptEngine@@QBEPAXPAUasSSystemFunctionInterface@@PAVasCScriptFunction@@PAX@Z$0 1005dc61 f    CIL library: CIL module
 0001:0005cc69       __ehhandler$?CallGlobalFunctionRetPtr@asCScriptEngine@@QBEPAXPAUasSSystemFunctionInterface@@PAVasCScriptFunction@@PAX@Z 1005dc69 f    CIL library: CIL module
 0001:0005cc73       __unwindfunclet$?CallGlobalFunctionRetPtr@asCScriptEngine@@QBEPAXPAUasSSystemFunctionInterface@@PAVasCScriptFunction@@@Z$0 1005dc73 f    CIL library: CIL module
 0001:0005cc7b       __ehhandler$?CallGlobalFunctionRetPtr@asCScriptEngine@@QBEPAXPAUasSSystemFunctionInterface@@PAVasCScriptFunction@@@Z 1005dc7b f    CIL library: CIL module
 0001:0005cc85       __unwindfunclet$?CallObjectMethodRetPtr@asCScriptEngine@@QBEPAXPAXH@Z$0 1005dc85 f    CIL library: CIL module
 0001:0005cc8d       __ehhandler$?CallObjectMethodRetPtr@asCScriptEngine@@QBEPAXPAXH@Z 1005dc8d f    CIL library: CIL module
 0001:0005cc97       __unwindfunclet$?CallObjectMethodRetInt@asCScriptEngine@@QBEHPAXH@Z$0 1005dc97 f    CIL library: CIL module
 0001:0005cc9f       __ehhandler$?CallObjectMethodRetInt@asCScriptEngine@@QBEHPAXH@Z 1005dc9f f    CIL library: CIL module
 0001:0005cca9       __unwindfunclet$?CallObjectMethodRetBool@asCScriptEngine@@QBE_NPAXH@Z$0 1005dca9 f    CIL library: CIL module
 0001:0005ccb1       __ehhandler$?CallObjectMethodRetBool@asCScriptEngine@@QBE_NPAXH@Z 1005dcb1 f    CIL library: CIL module
 0001:0005ccbb       __unwindfunclet$?CallObjectMethod@asCScriptEngine@@QBEXPAXPAUasSSystemFunctionInterface@@PAVasCScriptFunction@@@Z$0 1005dcbb f    CIL library: CIL module
 0001:0005ccc3       __ehhandler$?CallObjectMethod@asCScriptEngine@@QBEXPAXPAUasSSystemFunctionInterface@@PAVasCScriptFunction@@@Z 1005dcc3 f    CIL library: CIL module
 0001:0005cccd       __unwindfunclet$??1asCScriptCode@@QAE@XZ$0 1005dccd f    CIL library: CIL module
 0001:0005ccd5       __unwindfunclet$??1asCScriptCode@@QAE@XZ$1 1005dcd5 f    CIL library: CIL module
 0001:0005cce0       __ehhandler$??1asCScriptCode@@QAE@XZ 1005dce0 f    CIL library: CIL module
 0001:0005ccea       __unwindfunclet$?Clear@asCOutputBuffer@@QAEXXZ$0 1005dcea f    CIL library: CIL module
 0001:0005ccf2       __ehhandler$?Clear@asCOutputBuffer@@QAEXXZ 1005dcf2 f    CIL library: CIL module
 0001:0005ccfc       __unwindfunclet$??1asCOutputBuffer@@QAE@XZ$0 1005dcfc f    CIL library: CIL module
 0001:0005cd04       __ehhandler$??1asCOutputBuffer@@QAE@XZ 1005dd04 f    CIL library: CIL module
 0001:0005cd0e       __unwindfunclet$??1asCMemoryMgr@@QAE@XZ$0 1005dd0e f    CIL library: CIL module
 0001:0005cd16       __unwindfunclet$??1asCMemoryMgr@@QAE@XZ$1 1005dd16 f    CIL library: CIL module
 0001:0005cd21       __unwindfunclet$??1asCMemoryMgr@@QAE@XZ$2 1005dd21 f    CIL library: CIL module
 0001:0005cd2c       __ehhandler$??1asCMemoryMgr@@QAE@XZ 1005dd2c f    CIL library: CIL module
 0001:0005cd36       __unwindfunclet$??1asCContext@@UAE@XZ$0 1005dd36 f    CIL library: CIL module
 0001:0005cd3e       __unwindfunclet$??1asCContext@@UAE@XZ$1 1005dd3e f    CIL library: CIL module
 0001:0005cd49       __unwindfunclet$??1asCContext@@UAE@XZ$2 1005dd49 f    CIL library: CIL module
 0001:0005cd54       __unwindfunclet$??1asCContext@@UAE@XZ$3 1005dd54 f    CIL library: CIL module
 0001:0005cd5f       __unwindfunclet$??1asCContext@@UAE@XZ$4 1005dd5f f    CIL library: CIL module
 0001:0005cd6c       __unwindfunclet$??1asCContext@@UAE@XZ$5 1005dd6c f    CIL library: CIL module
 0001:0005cd79       __ehhandler$??1asCContext@@UAE@XZ 1005dd79 f    CIL library: CIL module
 0001:0005cd83       __unwindfunclet$??1asCConfigGroup@@QAE@XZ$0 1005dd83 f    CIL library: CIL module
 0001:0005cd8b       __unwindfunclet$??1asCConfigGroup@@QAE@XZ$1 1005dd8b f    CIL library: CIL module
 0001:0005cd96       __unwindfunclet$??1asCConfigGroup@@QAE@XZ$2 1005dd96 f    CIL library: CIL module
 0001:0005cda1       __unwindfunclet$??1asCConfigGroup@@QAE@XZ$3 1005dda1 f    CIL library: CIL module
 0001:0005cdac       __unwindfunclet$??1asCConfigGroup@@QAE@XZ$4 1005ddac f    CIL library: CIL module
 0001:0005cdb7       __ehhandler$??1asCConfigGroup@@QAE@XZ 1005ddb7 f    CIL library: CIL module
 0001:0005cdc1       __unwindfunclet$??1asCByteCode@@QAE@XZ$0 1005ddc1 f    CIL library: CIL module
 0001:0005cdc9       __unwindfunclet$??1asCByteCode@@QAE@XZ$1 1005ddc9 f    CIL library: CIL module
 0001:0005cdd4       __ehhandler$??1asCByteCode@@QAE@XZ 1005ddd4 f    CIL library: CIL module
 0001:0005cdde       __unwindfunclet$?SubString@asCString@@QBE?AV1@II@Z$1 1005ddde f    CIL library: CIL module
 0001:0005cde6       __unwindfunclet$?SubString@asCString@@QBE?AV1@II@Z$0 1005dde6 f    CIL library: CIL module
 0001:0005cdff       __ehhandler$?SubString@asCString@@QBE?AV1@II@Z 1005ddff f    CIL library: CIL module
 0001:0005ce09       __unwindfunclet$?Format@asCString@@QAAIPBDZZ$0 1005de09 f    CIL library: CIL module
 0001:0005ce14       __ehhandler$?Format@asCString@@QAAIPBDZZ 1005de14 f    CIL library: CIL module
 0001:0005ce1e       __unwindfunclet$?AddRef@asCScriptObject@@UBEHXZ$0 1005de1e f    CIL library: CIL module
 0001:0005ce26       __ehhandler$?AddRef@asCScriptObject@@UBEHXZ 1005de26 f    CIL library: CIL module
 0001:0005ce30       __unwindfunclet$??1asCScriptObject@@UAE@XZ$0 1005de30 f    CIL library: CIL module
 0001:0005ce38       __ehhandler$??1asCScriptObject@@UAE@XZ 1005de38 f    CIL library: CIL module
 0001:0005ce42       __unwindfunclet$?GetScriptSectionNameIndex@asCScriptEngine@@QAEHPBD@Z$0 1005de42 f    CIL library: CIL module
 0001:0005ce47       __ehhandler$?GetScriptSectionNameIndex@asCScriptEngine@@QAEHPBD@Z 1005de47 f    CIL library: CIL module
 0001:0005ce51       __unwindfunclet$?AddConstantString@asCScriptEngine@@QAEHPBDI@Z$0 1005de51 f    CIL library: CIL module
 0001:0005ce56       __ehhandler$?AddConstantString@asCScriptEngine@@QAEHPBDI@Z 1005de56 f    CIL library: CIL module
 0001:0005ce60       __unwindfunclet$?ConfigError@asCScriptEngine@@QAEHHPBD00@Z$0 1005de60 f    CIL library: CIL module
 0001:0005ce68       __ehhandler$?ConfigError@asCScriptEngine@@QAEHHPBD00@Z 1005de68 f    CIL library: CIL module
 0001:0005ce72       __unwindfunclet$?ClearUnusedTypes@asCScriptEngine@@QAEHXZ$0 1005de72 f    CIL library: CIL module
 0001:0005ce7a       __ehhandler$?ClearUnusedTypes@asCScriptEngine@@QAEHXZ 1005de7a f    CIL library: CIL module
 0001:0005ce84       __unwindfunclet$?CalculateAdjustmentByPos@asCWriter@@IAEXPAVasCScriptFunction@@@Z$0 1005de84 f    CIL library: CIL module
 0001:0005ce8c       __ehhandler$?CalculateAdjustmentByPos@asCWriter@@IAEXPAVasCScriptFunction@@@Z 1005de8c f    CIL library: CIL module
 0001:0005ce96       __unwindfunclet$?CalculateAdjustmentByPos@asCReader@@IAEXPAVasCScriptFunction@@@Z$0 1005de96 f    CIL library: CIL module
 0001:0005ce9e       __ehhandler$?CalculateAdjustmentByPos@asCReader@@IAEXPAVasCScriptFunction@@@Z 1005de9e f    CIL library: CIL module
 0001:0005cea8       __unwindfunclet$?CalculateStackNeeded@asCReader@@IAEXPAVasCScriptFunction@@@Z$0 1005dea8 f    CIL library: CIL module
 0001:0005ceb0       __unwindfunclet$?CalculateStackNeeded@asCReader@@IAEXPAVasCScriptFunction@@@Z$1 1005deb0 f    CIL library: CIL module
 0001:0005ceb8       __ehhandler$?CalculateStackNeeded@asCReader@@IAEXPAVasCScriptFunction@@@Z 1005deb8 f    CIL library: CIL module
 0001:0005cec2       __unwindfunclet$?ExpectedOneOf@asCParser@@IAE?AVasCString@@PAPBDH@Z$0 1005dec2 f    CIL library: CIL module
 0001:0005ced7       __ehhandler$?ExpectedOneOf@asCParser@@IAE?AVasCString@@PAPBDH@Z 1005ded7 f    CIL library: CIL module
 0001:0005cee1       __unwindfunclet$?ExpectedOneOf@asCParser@@IAE?AVasCString@@PAHH@Z$0 1005dee1 f    CIL library: CIL module
 0001:0005cef6       __ehhandler$?ExpectedOneOf@asCParser@@IAE?AVasCString@@PAHH@Z 1005def6 f    CIL library: CIL module
 0001:0005cf00       __unwindfunclet$?ExpectedTokens@asCParser@@IAE?AVasCString@@PBD0@Z$0 1005df00 f    CIL library: CIL module
 0001:0005cf19       __ehhandler$?ExpectedTokens@asCParser@@IAE?AVasCString@@PBD0@Z 1005df19 f    CIL library: CIL module
 0001:0005cf23       __unwindfunclet$?ExpectedToken@asCParser@@IAE?AVasCString@@PBD@Z$0 1005df23 f    CIL library: CIL module
 0001:0005cf3c       __ehhandler$?ExpectedToken@asCParser@@IAE?AVasCString@@PBD@Z 1005df3c f    CIL library: CIL module
 0001:0005cf46       __unwindfunclet$??1asCParser@@QAE@XZ$0 1005df46 f    CIL library: CIL module
 0001:0005cf51       __ehhandler$??1asCParser@@QAE@XZ 1005df51 f    CIL library: CIL module
 0001:0005cf5b       __unwindfunclet$??1asCObjectType@@UAE@XZ$0 1005df5b f    CIL library: CIL module
 0001:0005cf63       __unwindfunclet$??1asCObjectType@@UAE@XZ$1 1005df63 f    CIL library: CIL module
 0001:0005cf6e       __unwindfunclet$??1asCObjectType@@UAE@XZ$2 1005df6e f    CIL library: CIL module
 0001:0005cf79       __unwindfunclet$??1asCObjectType@@UAE@XZ$3 1005df79 f    CIL library: CIL module
 0001:0005cf84       __unwindfunclet$??1asCObjectType@@UAE@XZ$4 1005df84 f    CIL library: CIL module
 0001:0005cf8f       __unwindfunclet$??1asCObjectType@@UAE@XZ$5 1005df8f f    CIL library: CIL module
 0001:0005cf9a       __unwindfunclet$??1asCObjectType@@UAE@XZ$6 1005df9a f    CIL library: CIL module
 0001:0005cfa5       __unwindfunclet$??1asCObjectType@@UAE@XZ$7 1005dfa5 f    CIL library: CIL module
 0001:0005cfb4       __unwindfunclet$??1asCObjectType@@UAE@XZ$8 1005dfb4 f    CIL library: CIL module
 0001:0005cfc1       __unwindfunclet$??1asCObjectType@@UAE@XZ$9 1005dfc1 f    CIL library: CIL module
 0001:0005cfcf       __unwindfunclet$??1asCObjectType@@UAE@XZ$11 1005dfcf f    CIL library: CIL module
 0001:0005cfda       __unwindfunclet$??1asCObjectType@@UAE@XZ$12 1005dfda f    CIL library: CIL module
 0001:0005cfe5       __ehhandler$??1asCObjectType@@UAE@XZ 1005dfe5 f    CIL library: CIL module
 0001:0005cfef       __unwindfunclet$?SetDefaultNamespace@asCModule@@UAEHPBD@Z$0 1005dfef f    CIL library: CIL module
 0001:0005cff7       __ehhandler$?SetDefaultNamespace@asCModule@@UAEHPBD@Z 1005dff7 f    CIL library: CIL module
 0001:0005d001       __unwindfunclet$?DestroyOldGarbage@asCGarbageCollector@@IAEHXZ$0 1005e001 f    CIL library: CIL module
 0001:0005d009       __ehhandler$?DestroyOldGarbage@asCGarbageCollector@@IAEHXZ 1005e009 f    CIL library: CIL module
 0001:0005d013       __unwindfunclet$?ReportAndReleaseUndestroyedObjects@asCGarbageCollector@@QAEHXZ$0 1005e013 f    CIL library: CIL module
 0001:0005d01b       __ehhandler$?ReportAndReleaseUndestroyedObjects@asCGarbageCollector@@QAEHXZ 1005e01b f    CIL library: CIL module
 0001:0005d025       __unwindfunclet$??0asCContext@@QAE@PAVasCScriptEngine@@_N@Z$0 1005e025 f    CIL library: CIL module
 0001:0005d02d       __unwindfunclet$??0asCContext@@QAE@PAVasCScriptEngine@@_N@Z$1 1005e02d f    CIL library: CIL module
 0001:0005d038       __unwindfunclet$??0asCContext@@QAE@PAVasCScriptEngine@@_N@Z$2 1005e038 f    CIL library: CIL module
 0001:0005d043       __unwindfunclet$??0asCContext@@QAE@PAVasCScriptEngine@@_N@Z$3 1005e043 f    CIL library: CIL module
 0001:0005d04e       __unwindfunclet$??0asCContext@@QAE@PAVasCScriptEngine@@_N@Z$4 1005e04e f    CIL library: CIL module
 0001:0005d05b       __unwindfunclet$??0asCContext@@QAE@PAVasCScriptEngine@@_N@Z$5 1005e05b f    CIL library: CIL module
 0001:0005d068       __ehhandler$??0asCContext@@QAE@PAVasCScriptEngine@@_N@Z 1005e068 f    CIL library: CIL module
 0001:0005d072       __unwindfunclet$??1asCCompiler@@QAE@XZ$0 1005e072 f    CIL library: CIL module
 0001:0005d07c       __unwindfunclet$??1asCCompiler@@QAE@XZ$1 1005e07c f    CIL library: CIL module
 0001:0005d087       __unwindfunclet$??1asCCompiler@@QAE@XZ$2 1005e087 f    CIL library: CIL module
 0001:0005d092       __unwindfunclet$??1asCCompiler@@QAE@XZ$3 1005e092 f    CIL library: CIL module
 0001:0005d09f       __unwindfunclet$??1asCCompiler@@QAE@XZ$4 1005e09f f    CIL library: CIL module
 0001:0005d0ad       __unwindfunclet$??1asCCompiler@@QAE@XZ$5 1005e0ad f    CIL library: CIL module
 0001:0005d0bb       __unwindfunclet$??1asCCompiler@@QAE@XZ$6 1005e0bb f    CIL library: CIL module
 0001:0005d0c9       __unwindfunclet$??1asCCompiler@@QAE@XZ$7 1005e0c9 f    CIL library: CIL module
 0001:0005d0d7       __unwindfunclet$??1asCCompiler@@QAE@XZ$8 1005e0d7 f    CIL library: CIL module
 0001:0005d0e5       __unwindfunclet$??1asCCompiler@@QAE@XZ$9 1005e0e5 f    CIL library: CIL module
 0001:0005d0f3       __ehhandler$??1asCCompiler@@QAE@XZ 1005e0f3 f    CIL library: CIL module
 0001:0005d0fd       __unwindfunclet$?PostProcess@asCByteCode@@QAEXXZ$0 1005e0fd f    CIL library: CIL module
 0001:0005d105       __ehhandler$?PostProcess@asCByteCode@@QAEXXZ 1005e105 f    CIL library: CIL module
 0001:0005d10f       __unwindfunclet$?OptimizeLocally@asCByteCode@@QAEXABV?$asCArray@H@@@Z$0 1005e10f f    CIL library: CIL module
 0001:0005d117       __ehhandler$?OptimizeLocally@asCByteCode@@QAEXABV?$asCArray@H@@@Z 1005e117 f    CIL library: CIL module
 0001:0005d121       __unwindfunclet$?GetParentNameSpace@asCBuilder@@IAEPAUasSNameSpace@@PAU2@@Z$0 1005e121 f    CIL library: CIL module
 0001:0005d129       __unwindfunclet$?GetParentNameSpace@asCBuilder@@IAEPAUasSNameSpace@@PAU2@@Z$1 1005e129 f    CIL library: CIL module
 0001:0005d131       __ehhandler$?GetParentNameSpace@asCBuilder@@IAEPAUasSNameSpace@@PAU2@@Z 1005e131 f    CIL library: CIL module
 0001:0005d13b       __unwindfunclet$?GetScopeFromNode@asCBuilder@@IAE?AVasCString@@PAVasCScriptNode@@PAVasCScriptCode@@PAPAV3@@Z$0 1005e13b f    CIL library: CIL module
 0001:0005d154       __unwindfunclet$?GetScopeFromNode@asCBuilder@@IAE?AVasCString@@PAVasCScriptNode@@PAVasCScriptCode@@PAPAV3@@Z$1 1005e154 f    CIL library: CIL module
 0001:0005d15c       __ehhandler$?GetScopeFromNode@asCBuilder@@IAE?AVasCString@@PAVasCScriptNode@@PAVasCScriptCode@@PAPAV3@@Z 1005e15c f    CIL library: CIL module
 0001:0005d166       __unwindfunclet$?GetCleanExpressionString@asCBuilder@@IAE?AVasCString@@PAVasCScriptNode@@PAVasCScriptCode@@@Z$0 1005e166 f    CIL library: CIL module
 0001:0005d16e       __unwindfunclet$?GetCleanExpressionString@asCBuilder@@IAE?AVasCString@@PAVasCScriptNode@@PAVasCScriptCode@@@Z$1 1005e16e f    CIL library: CIL module
 0001:0005d187       __ehhandler$?GetCleanExpressionString@asCBuilder@@IAE?AVasCString@@PAVasCScriptNode@@PAVasCScriptCode@@@Z 1005e187 f    CIL library: CIL module
 0001:0005d191       __unwindfunclet$??H@YA?AVasCString@@ABV0@PBD@Z$0 1005e191 f    CIL library: CIL module
 0001:0005d1a6       __ehhandler$??H@YA?AVasCString@@ABV0@PBD@Z 1005e1a6 f    CIL library: CIL module
 0001:0005d1b0       __unwindfunclet$??H@YA?AVasCString@@PBDABV0@@Z$0 1005e1b0 f    CIL library: CIL module
 0001:0005d1c9       __ehhandler$??H@YA?AVasCString@@PBDABV0@@Z 1005e1c9 f    CIL library: CIL module
 0001:0005d1d3       __unwindfunclet$??H@YA?AVasCString@@ABV0@0@Z$0 1005e1d3 f    CIL library: CIL module
 0001:0005d1ec       __ehhandler$??H@YA?AVasCString@@ABV0@0@Z 1005e1ec f    CIL library: CIL module
 0001:0005d1f6       __unwindfunclet$??1asCScriptFunction@@UAE@XZ$0 1005e1f6 f    CIL library: CIL module
 0001:0005d1fe       __unwindfunclet$??1asCScriptFunction@@UAE@XZ$1 1005e1fe f    CIL library: CIL module
 0001:0005d209       __unwindfunclet$??1asCScriptFunction@@UAE@XZ$2 1005e209 f    CIL library: CIL module
 0001:0005d214       __unwindfunclet$??1asCScriptFunction@@UAE@XZ$3 1005e214 f    CIL library: CIL module
 0001:0005d21f       __unwindfunclet$??1asCScriptFunction@@UAE@XZ$4 1005e21f f    CIL library: CIL module
 0001:0005d22a       __ehhandler$??1asCScriptFunction@@UAE@XZ 1005e22a f    CIL library: CIL module
 0001:0005d234       __unwindfunclet$?SetDefaultNamespace@asCScriptEngine@@UAEHPBD@Z$0 1005e234 f    CIL library: CIL module
 0001:0005d23c       __ehhandler$?SetDefaultNamespace@asCScriptEngine@@UAEHPBD@Z 1005e23c f    CIL library: CIL module
 0001:0005d246       __unwindfunclet$?TranslateFunction@asCReader@@IAEXPAVasCScriptFunction@@@Z$0 1005e246 f    CIL library: CIL module
 0001:0005d24e       __unwindfunclet$?TranslateFunction@asCReader@@IAEXPAVasCScriptFunction@@@Z$1 1005e24e f    CIL library: CIL module
 0001:0005d256       __ehhandler$?TranslateFunction@asCReader@@IAEXPAVasCScriptFunction@@@Z 1005e256 f    CIL library: CIL module
 0001:0005d260       __unwindfunclet$?Format@asCDataType@@QBE?AVasCString@@_N@Z$0 1005e260 f    CIL library: CIL module
 0001:0005d279       __unwindfunclet$?Format@asCDataType@@QBE?AVasCString@@_N@Z$1 1005e279 f    CIL library: CIL module
 0001:0005d281       __unwindfunclet$?Format@asCDataType@@QBE?AVasCString@@_N@Z$2 1005e281 f    CIL library: CIL module
 0001:0005d289       __unwindfunclet$?Format@asCDataType@@QBE?AVasCString@@_N@Z$3 1005e289 f    CIL library: CIL module
 0001:0005d291       __unwindfunclet$?Format@asCDataType@@QBE?AVasCString@@_N@Z$4 1005e291 f    CIL library: CIL module
 0001:0005d299       __unwindfunclet$?Format@asCDataType@@QBE?AVasCString@@_N@Z$5 1005e299 f    CIL library: CIL module
 0001:0005d2a1       __ehhandler$?Format@asCDataType@@QBE?AVasCString@@_N@Z 1005e2a1 f    CIL library: CIL module
 0001:0005d2ab       __unwindfunclet$?GetAddressOfVar@asCContext@@UAEPAXII@Z$0 1005e2ab f    CIL library: CIL module
 0001:0005d2b3       __ehhandler$?GetAddressOfVar@asCContext@@UAEPAXII@Z 1005e2b3 f    CIL library: CIL module
 0001:0005d2bd       __unwindfunclet$?CallGeneric@asCContext@@QAEHHPAX@Z$0 1005e2bd f    CIL library: CIL module
 0001:0005d2c5       __ehhandler$?CallGeneric@asCContext@@QAEHHPAX@Z 1005e2c5 f    CIL library: CIL module
 0001:0005d2cf       __unwindfunclet$?CleanStackFrame@asCContext@@QAEXXZ$0 1005e2cf f    CIL library: CIL module
 0001:0005d2d7       __ehhandler$?CleanStackFrame@asCContext@@QAEXXZ 1005e2d7 f    CIL library: CIL module
 0001:0005d2e1       __unwindfunclet$?Prepare@asCContext@@UAEHPAVasIScriptFunction@@@Z$0 1005e2e1 f    CIL library: CIL module
 0001:0005d2e9       __unwindfunclet$?Prepare@asCContext@@UAEHPAVasIScriptFunction@@@Z$1 1005e2e9 f    CIL library: CIL module
 0001:0005d2f1       __ehhandler$?Prepare@asCContext@@UAEHPAVasIScriptFunction@@@Z 1005e2f1 f    CIL library: CIL module
 0001:0005d2fb       __unwindfunclet$?PrintMatchingFuncs@asCCompiler@@IAEXAAV?$asCArray@H@@PAVasCScriptNode@@@Z$0 1005e2fb f    CIL library: CIL module
 0001:0005d303       __ehhandler$?PrintMatchingFuncs@asCCompiler@@IAEXAAV?$asCArray@H@@PAVasCScriptNode@@@Z 1005e303 f    CIL library: CIL module
 0001:0005d30d       __unwindfunclet$?CompileArgumentList@asCCompiler@@IAEHPAVasCScriptNode@@AAV?$asCArray@PAUasSExprContext@@@@@Z$0 1005e30d f    CIL library: CIL module
 0001:0005d318       __ehhandler$?CompileArgumentList@asCCompiler@@IAEHPAVasCScriptNode@@AAV?$asCArray@PAUasSExprContext@@@@@Z 1005e318 f    CIL library: CIL module
 0001:0005d322       __ehhandler$?CallSystemFunction@@YAHHPAVasCContext@@PAX@Z 1005e322 f    CIL library: CIL module
 0001:0005d32c       __unwindfunclet$?WriteError@asCBuilder@@IAEXABVasCString@@PAVasCScriptCode@@PAVasCScriptNode@@@Z$0 1005e32c f    CIL library: CIL module
 0001:0005d345       __ehhandler$?WriteError@asCBuilder@@IAEXABVasCString@@PAVasCScriptCode@@PAVasCScriptNode@@@Z 1005e345 f    CIL library: CIL module
 0001:0005d34f       __unwindfunclet$?GetFunctionDescriptions@asCBuilder@@IAEXPBDAAV?$asCArray@H@@PAUasSNameSpace@@@Z$0 1005e34f f    CIL library: CIL module
 0001:0005d357       __ehhandler$?GetFunctionDescriptions@asCBuilder@@IAEXPBDAAV?$asCArray@H@@PAUasSNameSpace@@@Z 1005e357 f    CIL library: CIL module
 0001:0005d361       __unwindfunclet$?AddPropertyToClass@asCBuilder@@IAEPAVasCObjectProperty@@PAUsClassDeclaration@@ABVasCString@@ABVasCDataType@@_NPAVasCScriptCode@@PAVasCScriptNode@@@Z$0 1005e361 f    CIL library: CIL module
 0001:0005d369       __unwindfunclet$?AddPropertyToClass@asCBuilder@@IAEPAVasCObjectProperty@@PAUsClassDeclaration@@ABVasCString@@ABVasCDataType@@_NPAVasCScriptCode@@PAVasCScriptNode@@@Z$1 1005e369 f    CIL library: CIL module
 0001:0005d371       __unwindfunclet$?AddPropertyToClass@asCBuilder@@IAEPAVasCObjectProperty@@PAUsClassDeclaration@@ABVasCString@@ABVasCDataType@@_NPAVasCScriptCode@@PAVasCScriptNode@@@Z$2 1005e371 f    CIL library: CIL module
 0001:0005d379       __ehhandler$?AddPropertyToClass@asCBuilder@@IAEPAVasCObjectProperty@@PAUsClassDeclaration@@ABVasCString@@ABVasCDataType@@_NPAVasCScriptCode@@PAVasCScriptNode@@@Z 1005e379 f    CIL library: CIL module
 0001:0005d383       __unwindfunclet$?AddInterfaceToClass@asCBuilder@@IAEXPAUsClassDeclaration@@PAVasCScriptNode@@PAVasCObjectType@@@Z$0 1005e383 f    CIL library: CIL module
 0001:0005d38b       __unwindfunclet$?AddInterfaceToClass@asCBuilder@@IAEXPAUsClassDeclaration@@PAVasCScriptNode@@PAVasCObjectType@@@Z$1 1005e38b f    CIL library: CIL module
 0001:0005d393       __ehhandler$?AddInterfaceToClass@asCBuilder@@IAEXPAUsClassDeclaration@@PAVasCScriptNode@@PAVasCObjectType@@@Z 1005e393 f    CIL library: CIL module
 0001:0005d39d       __unwindfunclet$?CheckNameConflictMember@asCBuilder@@QAEHPAVasCObjectType@@PBDPAVasCScriptNode@@PAVasCScriptCode@@_N@Z$1 1005e39d f    CIL library: CIL module
 0001:0005d3a5       __unwindfunclet$?CheckNameConflictMember@asCBuilder@@QAEHPAVasCObjectType@@PBDPAVasCScriptNode@@PAVasCScriptCode@@_N@Z$0 1005e3a5 f    CIL library: CIL module
 0001:0005d3ad       __unwindfunclet$?CheckNameConflictMember@asCBuilder@@QAEHPAVasCObjectType@@PBDPAVasCScriptNode@@PAVasCScriptCode@@_N@Z$2 1005e3ad f    CIL library: CIL module
 0001:0005d3b5       __ehhandler$?CheckNameConflictMember@asCBuilder@@QAEHPAVasCObjectType@@PBDPAVasCScriptNode@@PAVasCScriptCode@@_N@Z 1005e3b5 f    CIL library: CIL module
 0001:0005d3bf       __unwindfunclet$?GetGlobalProperty@asCBuilder@@IAEPAVasCGlobalProperty@@PBDPAUasSNameSpace@@PA_N2PA_K2@Z$0 1005e3bf f    CIL library: CIL module
 0001:0005d3c7       __unwindfunclet$?GetGlobalProperty@asCBuilder@@IAEPAVasCGlobalProperty@@PBDPAUasSNameSpace@@PA_N2PA_K2@Z$1 1005e3c7 f    CIL library: CIL module
 0001:0005d3cf       __unwindfunclet$?GetGlobalProperty@asCBuilder@@IAEPAVasCGlobalProperty@@PBDPAUasSNameSpace@@PA_N2PA_K2@Z$2 1005e3cf f    CIL library: CIL module
 0001:0005d3d7       __ehhandler$?GetGlobalProperty@asCBuilder@@IAEPAVasCGlobalProperty@@PBDPAUasSNameSpace@@PA_N2PA_K2@Z 1005e3d7 f    CIL library: CIL module
 0001:0005d3e1       __unwindfunclet$?ValidateDefaultArgs@asCBuilder@@IAEHPAVasCScriptCode@@PAVasCScriptNode@@PAVasCScriptFunction@@@Z$0 1005e3e1 f    CIL library: CIL module
 0001:0005d3e9       __ehhandler$?ValidateDefaultArgs@asCBuilder@@IAEHPAVasCScriptCode@@PAVasCScriptNode@@PAVasCScriptFunction@@@Z 1005e3e9 f    CIL library: CIL module
 0001:0005d3f3       __unwindfunclet$??1asCBuilder@@QAE@XZ$0 1005e3f3 f    CIL library: CIL module
 0001:0005d3fd       __unwindfunclet$??1asCBuilder@@QAE@XZ$1 1005e3fd f    CIL library: CIL module
 0001:0005d408       __unwindfunclet$??1asCBuilder@@QAE@XZ$2 1005e408 f    CIL library: CIL module
 0001:0005d413       __unwindfunclet$??1asCBuilder@@QAE@XZ$3 1005e413 f    CIL library: CIL module
 0001:0005d420       __unwindfunclet$??1asCBuilder@@QAE@XZ$4 1005e420 f    CIL library: CIL module
 0001:0005d42e       __unwindfunclet$??1asCBuilder@@QAE@XZ$5 1005e42e f    CIL library: CIL module
 0001:0005d43c       __unwindfunclet$??1asCBuilder@@QAE@XZ$6 1005e43c f    CIL library: CIL module
 0001:0005d44a       __unwindfunclet$??1asCBuilder@@QAE@XZ$7 1005e44a f    CIL library: CIL module
 0001:0005d458       __unwindfunclet$??1asCBuilder@@QAE@XZ$8 1005e458 f    CIL library: CIL module
 0001:0005d466       __unwindfunclet$??1asCBuilder@@QAE@XZ$9 1005e466 f    CIL library: CIL module
 0001:0005d471       __unwindfunclet$??1asCBuilder@@QAE@XZ$12 1005e471 f    CIL library: CIL module
 0001:0005d47c       __unwindfunclet$??1asCBuilder@@QAE@XZ$14 1005e47c f    CIL library: CIL module
 0001:0005d487       __unwindfunclet$??1asCBuilder@@QAE@XZ$16 1005e487 f    CIL library: CIL module
 0001:0005d492       __unwindfunclet$??1asCBuilder@@QAE@XZ$20 1005e492 f    CIL library: CIL module
 0001:0005d49c       __unwindfunclet$??1asCBuilder@@QAE@XZ$22 1005e49c f    CIL library: CIL module
 0001:0005d4a7       __ehhandler$??1asCBuilder@@QAE@XZ 1005e4a7 f    CIL library: CIL module
 0001:0005d4b1       __unwindfunclet$??0asCBuilder@@QAE@PAVasCScriptEngine@@PAVasCModule@@@Z$0 1005e4b1 f    CIL library: CIL module
 0001:0005d4bb       __unwindfunclet$??0asCBuilder@@QAE@PAVasCScriptEngine@@PAVasCModule@@@Z$1 1005e4bb f    CIL library: CIL module
 0001:0005d4c6       __unwindfunclet$??0asCBuilder@@QAE@PAVasCScriptEngine@@PAVasCModule@@@Z$2 1005e4c6 f    CIL library: CIL module
 0001:0005d4d1       __ehhandler$??0asCBuilder@@QAE@PAVasCScriptEngine@@PAVasCModule@@@Z 1005e4d1 f    CIL library: CIL module
 0001:0005d4db       __unwindfunclet$?GetKey@?$asCSymbolTable@UsGlobalVariableDescription@@@@ABEXPBUsGlobalVariableDescription@@AAVasCString@@@Z$0 1005e4db f    CIL library: CIL module
 0001:0005d4e3       __unwindfunclet$?GetKey@?$asCSymbolTable@UsGlobalVariableDescription@@@@ABEXPBUsGlobalVariableDescription@@AAVasCString@@@Z$1 1005e4e3 f    CIL library: CIL module
 0001:0005d4eb       __unwindfunclet$?GetKey@?$asCSymbolTable@UsGlobalVariableDescription@@@@ABEXPBUsGlobalVariableDescription@@AAVasCString@@@Z$2 1005e4eb f    CIL library: CIL module
 0001:0005d4f3       __ehhandler$?GetKey@?$asCSymbolTable@UsGlobalVariableDescription@@@@ABEXPBUsGlobalVariableDescription@@AAVasCString@@@Z 1005e4f3 f    CIL library: CIL module
 0001:0005d4fd       __unwindfunclet$?GetVarDecl@asCScriptFunction@@UBEPBDI_N@Z$0 1005e4fd f    CIL library: CIL module
 0001:0005d505       __unwindfunclet$?GetVarDecl@asCScriptFunction@@UBEPBDI_N@Z$1 1005e505 f    CIL library: CIL module
 0001:0005d50d       __ehhandler$?GetVarDecl@asCScriptFunction@@UBEPBDI_N@Z 1005e50d f    CIL library: CIL module
 0001:0005d517       __unwindfunclet$?GetDeclarationStr@asCScriptFunction@@QBE?AVasCString@@_N0@Z$0 1005e517 f    CIL library: CIL module
 0001:0005d530       __unwindfunclet$?GetDeclarationStr@asCScriptFunction@@QBE?AVasCString@@_N0@Z$1 1005e530 f    CIL library: CIL module
 0001:0005d538       __unwindfunclet$?GetDeclarationStr@asCScriptFunction@@QBE?AVasCString@@_N0@Z$2 1005e538 f    CIL library: CIL module
 0001:0005d540       __unwindfunclet$?GetDeclarationStr@asCScriptFunction@@QBE?AVasCString@@_N0@Z$3 1005e540 f    CIL library: CIL module
 0001:0005d548       __unwindfunclet$?GetDeclarationStr@asCScriptFunction@@QBE?AVasCString@@_N0@Z$4 1005e548 f    CIL library: CIL module
 0001:0005d550       __unwindfunclet$?GetDeclarationStr@asCScriptFunction@@QBE?AVasCString@@_N0@Z$6 1005e550 f    CIL library: CIL module
 0001:0005d558       __unwindfunclet$?GetDeclarationStr@asCScriptFunction@@QBE?AVasCString@@_N0@Z$7 1005e558 f    CIL library: CIL module
 0001:0005d560       __unwindfunclet$?GetDeclarationStr@asCScriptFunction@@QBE?AVasCString@@_N0@Z$8 1005e560 f    CIL library: CIL module
 0001:0005d568       __unwindfunclet$?GetDeclarationStr@asCScriptFunction@@QBE?AVasCString@@_N0@Z$9 1005e568 f    CIL library: CIL module
 0001:0005d570       __unwindfunclet$?GetDeclarationStr@asCScriptFunction@@QBE?AVasCString@@_N0@Z$10 1005e570 f    CIL library: CIL module
 0001:0005d578       __unwindfunclet$?GetDeclarationStr@asCScriptFunction@@QBE?AVasCString@@_N0@Z$11 1005e578 f    CIL library: CIL module
 0001:0005d580       __unwindfunclet$?GetDeclarationStr@asCScriptFunction@@QBE?AVasCString@@_N0@Z$12 1005e580 f    CIL library: CIL module
 0001:0005d588       __unwindfunclet$?GetDeclarationStr@asCScriptFunction@@QBE?AVasCString@@_N0@Z$13 1005e588 f    CIL library: CIL module
 0001:0005d590       __unwindfunclet$?GetDeclarationStr@asCScriptFunction@@QBE?AVasCString@@_N0@Z$14 1005e590 f    CIL library: CIL module
 0001:0005d598       __unwindfunclet$?GetDeclarationStr@asCScriptFunction@@QBE?AVasCString@@_N0@Z$15 1005e598 f    CIL library: CIL module
 0001:0005d5a0       __unwindfunclet$?GetDeclarationStr@asCScriptFunction@@QBE?AVasCString@@_N0@Z$16 1005e5a0 f    CIL library: CIL module
 0001:0005d5a8       __ehhandler$?GetDeclarationStr@asCScriptFunction@@QBE?AVasCString@@_N0@Z 1005e5a8 f    CIL library: CIL module
 0001:0005d5b2       __unwindfunclet$?GetTypeDeclaration@asCScriptEngine@@UBEPBDH_N@Z$0 1005e5b2 f    CIL library: CIL module
 0001:0005d5ba       __ehhandler$?GetTypeDeclaration@asCScriptEngine@@UBEPBDH_N@Z 1005e5ba f    CIL library: CIL module
 0001:0005d5c4       __unwindfunclet$?GetGlobalPropertyIndexByName@asCScriptEngine@@UBEHPBD@Z$0 1005e5c4 f    CIL library: CIL module
 0001:0005d5cc       __ehhandler$?GetGlobalPropertyIndexByName@asCScriptEngine@@UBEHPBD@Z 1005e5cc f    CIL library: CIL module
 0001:0005d5d6       __unwindfunclet$?GetFunctionDeclaration@asCScriptEngine@@QAE?AVasCString@@H@Z$0 1005e5d6 f    CIL library: CIL module
 0001:0005d5ef       __unwindfunclet$?GetFunctionDeclaration@asCScriptEngine@@QAE?AVasCString@@H@Z$1 1005e5ef f    CIL library: CIL module
 0001:0005d5f7       __ehhandler$?GetFunctionDeclaration@asCScriptEngine@@QAE?AVasCString@@H@Z 1005e5f7 f    CIL library: CIL module
 0001:0005d601       __unwindfunclet$?ReadFunctionSignature@asCReader@@IAEXPAVasCScriptFunction@@@Z$1 1005e601 f    CIL library: CIL module
 0001:0005d609       __ehhandler$?ReadFunctionSignature@asCReader@@IAEXPAVasCScriptFunction@@@Z 1005e609 f    CIL library: CIL module
 0001:0005d613       __unwindfunclet$?ReadUsedStringConstants@asCReader@@IAEXXZ$0 1005e613 f    CIL library: CIL module
 0001:0005d61b       __ehhandler$?ReadUsedStringConstants@asCReader@@IAEXXZ 1005e61b f    CIL library: CIL module
 0001:0005d625       __unwindfunclet$?SuperficiallyParseExpression@asCParser@@IAEPAVasCScriptNode@@XZ$0 1005e625 f    CIL library: CIL module
 0001:0005d62d       __unwindfunclet$?SuperficiallyParseExpression@asCParser@@IAEPAVasCScriptNode@@XZ$1 1005e62d f    CIL library: CIL module
 0001:0005d635       __unwindfunclet$?SuperficiallyParseExpression@asCParser@@IAEPAVasCScriptNode@@XZ$2 1005e635 f    CIL library: CIL module
 0001:0005d63d       __unwindfunclet$?SuperficiallyParseExpression@asCParser@@IAEPAVasCScriptNode@@XZ$3 1005e63d f    CIL library: CIL module
 0001:0005d645       __unwindfunclet$?SuperficiallyParseExpression@asCParser@@IAEPAVasCScriptNode@@XZ$4 1005e645 f    CIL library: CIL module
 0001:0005d64d       __unwindfunclet$?SuperficiallyParseExpression@asCParser@@IAEPAVasCScriptNode@@XZ$5 1005e64d f    CIL library: CIL module
 0001:0005d655       __unwindfunclet$?SuperficiallyParseExpression@asCParser@@IAEPAVasCScriptNode@@XZ$6 1005e655 f    CIL library: CIL module
 0001:0005d65d       __ehhandler$?SuperficiallyParseExpression@asCParser@@IAEPAVasCScriptNode@@XZ 1005e65d f    CIL library: CIL module
 0001:0005d667       __unwindfunclet$?ParseIdentifier@asCParser@@IAEPAVasCScriptNode@@XZ$0 1005e667 f    CIL library: CIL module
 0001:0005d66f       __ehhandler$?ParseIdentifier@asCParser@@IAEPAVasCScriptNode@@XZ 1005e66f f    CIL library: CIL module
 0001:0005d679       __unwindfunclet$?ParseRealType@asCParser@@IAEPAVasCScriptNode@@XZ$0 1005e679 f    CIL library: CIL module
 0001:0005d681       __ehhandler$?ParseRealType@asCParser@@IAEPAVasCScriptNode@@XZ 1005e681 f    CIL library: CIL module
 0001:0005d68b       __unwindfunclet$?ParseDataType@asCParser@@IAEPAVasCScriptNode@@_N@Z$0 1005e68b f    CIL library: CIL module
 0001:0005d693       __unwindfunclet$?ParseDataType@asCParser@@IAEPAVasCScriptNode@@_N@Z$1 1005e693 f    CIL library: CIL module
 0001:0005d69b       __ehhandler$?ParseDataType@asCParser@@IAEPAVasCScriptNode@@_N@Z 1005e69b f    CIL library: CIL module
 0001:0005d6a5       __unwindfunclet$?ParseOneOf@asCParser@@IAEPAVasCScriptNode@@PAHH@Z$0 1005e6a5 f    CIL library: CIL module
 0001:0005d6ad       __ehhandler$?ParseOneOf@asCParser@@IAEPAVasCScriptNode@@PAHH@Z 1005e6ad f    CIL library: CIL module
 0001:0005d6b7       __unwindfunclet$?ParseToken@asCParser@@IAEPAVasCScriptNode@@H@Z$0 1005e6b7 f    CIL library: CIL module
 0001:0005d6bf       __ehhandler$?ParseToken@asCParser@@IAEPAVasCScriptNode@@H@Z 1005e6bf f    CIL library: CIL module
 0001:0005d6c9       __unwindfunclet$?ParseTemplateDecl@asCParser@@QAEHPAVasCScriptCode@@@Z$0 1005e6c9 f    CIL library: CIL module
 0001:0005d6d1       __unwindfunclet$?ParseTemplateDecl@asCParser@@QAEHPAVasCScriptCode@@@Z$1 1005e6d1 f    CIL library: CIL module
 0001:0005d6d9       __unwindfunclet$?ParseTemplateDecl@asCParser@@QAEHPAVasCScriptCode@@@Z$2 1005e6d9 f    CIL library: CIL module
 0001:0005d6e1       __ehhandler$?ParseTemplateDecl@asCParser@@QAEHPAVasCScriptCode@@@Z 1005e6e1 f    CIL library: CIL module
 0001:0005d6eb       __unwindfunclet$?GetPropertyDeclaration@asCObjectType@@UBEPBDI_N@Z$0 1005e6eb f    CIL library: CIL module
 0001:0005d6f3       __ehhandler$?GetPropertyDeclaration@asCObjectType@@UBEPBDI_N@Z 1005e6f3 f    CIL library: CIL module
 0001:0005d6fd       __unwindfunclet$?GetImportedFunctionDeclaration@asCModule@@UBEPBDI@Z$0 1005e6fd f    CIL library: CIL module
 0001:0005d705       __ehhandler$?GetImportedFunctionDeclaration@asCModule@@UBEPBDI@Z 1005e705 f    CIL library: CIL module
 0001:0005d70f       __unwindfunclet$?GetGlobalVarDeclaration@asCModule@@UBEPBDI_N@Z$0 1005e70f f    CIL library: CIL module
 0001:0005d717       __unwindfunclet$?GetGlobalVarDeclaration@asCModule@@UBEPBDI_N@Z$1 1005e717 f    CIL library: CIL module
 0001:0005d71f       __ehhandler$?GetGlobalVarDeclaration@asCModule@@UBEPBDI_N@Z 1005e71f f    CIL library: CIL module
 0001:0005d729       __unwindfunclet$?GetGlobalVarIndexByName@asCModule@@UBEHPBD@Z$0 1005e729 f    CIL library: CIL module
 0001:0005d731       __ehhandler$?GetGlobalVarIndexByName@asCModule@@UBEHPBD@Z 1005e731 f    CIL library: CIL module
 0001:0005d73b       __unwindfunclet$?GetFunctionByName@asCModule@@UBEPAVasIScriptFunction@@PBD@Z$0 1005e73b f    CIL library: CIL module
 0001:0005d743       __ehhandler$?GetFunctionByName@asCModule@@UBEPAVasIScriptFunction@@PBD@Z 1005e743 f    CIL library: CIL module
 0001:0005d74d       __unwindfunclet$?AddScriptSection@asCModule@@UAEHPBD0IH@Z$0 1005e74d f    CIL library: CIL module
 0001:0005d752       __ehhandler$?AddScriptSection@asCModule@@UAEHPBD0IH@Z 1005e752 f    CIL library: CIL module
 0001:0005d75c       __unwindfunclet$??0asCModule@@QAE@PBDPAVasCScriptEngine@@@Z$0 1005e75c f    CIL library: CIL module
 0001:0005d764       __unwindfunclet$??0asCModule@@QAE@PBDPAVasCScriptEngine@@@Z$1 1005e764 f    CIL library: CIL module
 0001:0005d76f       __unwindfunclet$??0asCModule@@QAE@PBDPAVasCScriptEngine@@@Z$2 1005e76f f    CIL library: CIL module
 0001:0005d77a       __unwindfunclet$??0asCModule@@QAE@PBDPAVasCScriptEngine@@@Z$3 1005e77a f    CIL library: CIL module
 0001:0005d787       __unwindfunclet$??0asCModule@@QAE@PBDPAVasCScriptEngine@@@Z$4 1005e787 f    CIL library: CIL module
 0001:0005d795       __unwindfunclet$??0asCModule@@QAE@PBDPAVasCScriptEngine@@@Z$5 1005e795 f    CIL library: CIL module
 0001:0005d7a4       __unwindfunclet$??0asCModule@@QAE@PBDPAVasCScriptEngine@@@Z$6 1005e7a4 f    CIL library: CIL module
 0001:0005d7b2       __unwindfunclet$??0asCModule@@QAE@PBDPAVasCScriptEngine@@@Z$7 1005e7b2 f    CIL library: CIL module
 0001:0005d7c0       __unwindfunclet$??0asCModule@@QAE@PBDPAVasCScriptEngine@@@Z$8 1005e7c0 f    CIL library: CIL module
 0001:0005d7ce       __unwindfunclet$??0asCModule@@QAE@PBDPAVasCScriptEngine@@@Z$9 1005e7ce f    CIL library: CIL module
 0001:0005d7dc       __ehhandler$??0asCModule@@QAE@PBDPAVasCScriptEngine@@@Z 1005e7dc f    CIL library: CIL module
 0001:0005d7e6       __unwindfunclet$?Warning@asCCompiler@@IAEXABVasCString@@PAVasCScriptNode@@@Z$0 1005e7e6 f    CIL library: CIL module
 0001:0005d7ee       __ehhandler$?Warning@asCCompiler@@IAEXABVasCString@@PAVasCScriptNode@@@Z 1005e7ee f    CIL library: CIL module
 0001:0005d7f8       __unwindfunclet$?Error@asCCompiler@@IAEXABVasCString@@PAVasCScriptNode@@@Z$0 1005e7f8 f    CIL library: CIL module
 0001:0005d800       __ehhandler$?Error@asCCompiler@@IAEXABVasCString@@PAVasCScriptNode@@@Z 1005e800 f    CIL library: CIL module
 0001:0005d80a       __unwindfunclet$?DetermineSingleFunc@asCCompiler@@IAEXPAUasSExprContext@@PAVasCScriptNode@@@Z$0 1005e80a f    CIL library: CIL module
 0001:0005d812       __unwindfunclet$?DetermineSingleFunc@asCCompiler@@IAEXPAUasSExprContext@@PAVasCScriptNode@@@Z$1 1005e812 f    CIL library: CIL module
 0001:0005d81a       __unwindfunclet$?DetermineSingleFunc@asCCompiler@@IAEXPAUasSExprContext@@PAVasCScriptNode@@@Z$2 1005e81a f    CIL library: CIL module
 0001:0005d822       __unwindfunclet$?DetermineSingleFunc@asCCompiler@@IAEXPAUasSExprContext@@PAVasCScriptNode@@@Z$4 1005e822 f    CIL library: CIL module
 0001:0005d82a       __unwindfunclet$?DetermineSingleFunc@asCCompiler@@IAEXPAUasSExprContext@@PAVasCScriptNode@@@Z$5 1005e82a f    CIL library: CIL module
 0001:0005d832       __unwindfunclet$?DetermineSingleFunc@asCCompiler@@IAEXPAUasSExprContext@@PAVasCScriptNode@@@Z$6 1005e832 f    CIL library: CIL module
 0001:0005d83a       __ehhandler$?DetermineSingleFunc@asCCompiler@@IAEXPAUasSExprContext@@PAVasCScriptNode@@@Z 1005e83a f    CIL library: CIL module
 0001:0005d844       __unwindfunclet$?CallDefaultConstructor@asCCompiler@@IAEHAAVasCDataType@@H_NPAVasCByteCode@@PAVasCScriptNode@@H1@Z$0 1005e844 f    CIL library: CIL module
 0001:0005d84f       __unwindfunclet$?CallDefaultConstructor@asCCompiler@@IAEHAAVasCDataType@@H_NPAVasCByteCode@@PAVasCScriptNode@@H1@Z$2 1005e84f f    CIL library: CIL module
 0001:0005d85a       __unwindfunclet$?CallDefaultConstructor@asCCompiler@@IAEHAAVasCDataType@@H_NPAVasCByteCode@@PAVasCScriptNode@@H1@Z$1 1005e85a f    CIL library: CIL module
 0001:0005d865       __ehhandler$?CallDefaultConstructor@asCCompiler@@IAEHAAVasCDataType@@H_NPAVasCByteCode@@PAVasCScriptNode@@H1@Z 1005e865 f    CIL library: CIL module
 0001:0005d86f       __unwindfunclet$?CallCopyConstructor@asCCompiler@@IAEHAAVasCDataType@@H_NPAVasCByteCode@@PAUasSExprContext@@PAVasCScriptNode@@11@Z$0 1005e86f f    CIL library: CIL module
 0001:0005d87a       __unwindfunclet$?CallCopyConstructor@asCCompiler@@IAEHAAVasCDataType@@H_NPAVasCByteCode@@PAUasSExprContext@@PAVasCScriptNode@@11@Z$1 1005e87a f    CIL library: CIL module
 0001:0005d885       __unwindfunclet$?CallCopyConstructor@asCCompiler@@IAEHAAVasCDataType@@H_NPAVasCByteCode@@PAUasSExprContext@@PAVasCScriptNode@@11@Z$4 1005e885 f    CIL library: CIL module
 0001:0005d890       __unwindfunclet$?CallCopyConstructor@asCCompiler@@IAEHAAVasCDataType@@H_NPAVasCByteCode@@PAUasSExprContext@@PAVasCScriptNode@@11@Z$2 1005e890 f    CIL library: CIL module
 0001:0005d89d       __unwindfunclet$?CallCopyConstructor@asCCompiler@@IAEHAAVasCDataType@@H_NPAVasCByteCode@@PAUasSExprContext@@PAVasCScriptNode@@11@Z$3 1005e89d f    CIL library: CIL module
 0001:0005d8a8       __ehhandler$?CallCopyConstructor@asCCompiler@@IAEHAAVasCDataType@@H_NPAVasCByteCode@@PAUasSExprContext@@PAVasCScriptNode@@11@Z 1005e8a8 f    CIL library: CIL module
 0001:0005d8b2       __unwindfunclet$?SetupParametersAndReturnVariable@asCCompiler@@IAEHAAV?$asCArray@VasCString@@@@PAVasCScriptNode@@@Z$0 1005e8b2 f    CIL library: CIL module
 0001:0005d8ba       __unwindfunclet$?SetupParametersAndReturnVariable@asCCompiler@@IAEHAAV?$asCArray@VasCString@@@@PAVasCScriptNode@@@Z$1 1005e8ba f    CIL library: CIL module
 0001:0005d8c2       __unwindfunclet$?SetupParametersAndReturnVariable@asCCompiler@@IAEHAAV?$asCArray@VasCString@@@@PAVasCScriptNode@@@Z$2 1005e8c2 f    CIL library: CIL module
 0001:0005d8cc       __unwindfunclet$?SetupParametersAndReturnVariable@asCCompiler@@IAEHAAV?$asCArray@VasCString@@@@PAVasCScriptNode@@@Z$3 1005e8cc f    CIL library: CIL module
 0001:0005d8d4       __unwindfunclet$?SetupParametersAndReturnVariable@asCCompiler@@IAEHAAV?$asCArray@VasCString@@@@PAVasCScriptNode@@@Z$4 1005e8d4 f    CIL library: CIL module
 0001:0005d8dc       __unwindfunclet$?SetupParametersAndReturnVariable@asCCompiler@@IAEHAAV?$asCArray@VasCString@@@@PAVasCScriptNode@@@Z$5 1005e8dc f    CIL library: CIL module
 0001:0005d8e4       __ehhandler$?SetupParametersAndReturnVariable@asCCompiler@@IAEHAAV?$asCArray@VasCString@@@@PAVasCScriptNode@@@Z 1005e8e4 f    CIL library: CIL module
 0001:0005d8ee       __unwindfunclet$?PrepareSystemFunction@@YAHPAVasCScriptFunction@@PAUasSSystemFunctionInterface@@PAVasCScriptEngine@@@Z$0 1005e8ee f    CIL library: CIL module
 0001:0005d8f6       __unwindfunclet$?PrepareSystemFunction@@YAHPAVasCScriptFunction@@PAUasSSystemFunctionInterface@@PAVasCScriptEngine@@@Z$1 1005e8f6 f    CIL library: CIL module
 0001:0005d8fe       __unwindfunclet$?PrepareSystemFunction@@YAHPAVasCScriptFunction@@PAUasSSystemFunctionInterface@@PAVasCScriptEngine@@@Z$2 1005e8fe f    CIL library: CIL module
 0001:0005d906       __unwindfunclet$?PrepareSystemFunction@@YAHPAVasCScriptFunction@@PAUasSSystemFunctionInterface@@PAVasCScriptEngine@@@Z$3 1005e906 f    CIL library: CIL module
 0001:0005d90e       __ehhandler$?PrepareSystemFunction@@YAHPAVasCScriptFunction@@PAUasSSystemFunctionInterface@@PAVasCScriptEngine@@@Z 1005e90e f    CIL library: CIL module
 0001:0005d918       __unwindfunclet$?ModifyDataTypeFromNode@asCBuilder@@IAE?AVasCDataType@@ABV2@PAVasCScriptNode@@PAVasCScriptCode@@PAW4asETypeModifiers@@PA_N@Z$0 1005e918 f    CIL library: CIL module
 0001:0005d920       __unwindfunclet$?ModifyDataTypeFromNode@asCBuilder@@IAE?AVasCDataType@@ABV2@PAVasCScriptNode@@PAVasCScriptCode@@PAW4asETypeModifiers@@PA_N@Z$1 1005e920 f    CIL library: CIL module
 0001:0005d928       __ehhandler$?ModifyDataTypeFromNode@asCBuilder@@IAE?AVasCDataType@@ABV2@PAVasCScriptNode@@PAVasCScriptCode@@PAW4asETypeModifiers@@PA_N@Z 1005e928 f    CIL library: CIL module
 0001:0005d932       __unwindfunclet$?GetNameSpaceFromNode@asCBuilder@@IAEPAUasSNameSpace@@PAVasCScriptNode@@PAVasCScriptCode@@PAU2@PAPAV3@@Z$0 1005e932 f    CIL library: CIL module
 0001:0005d93a       __unwindfunclet$?GetNameSpaceFromNode@asCBuilder@@IAEPAUasSNameSpace@@PAVasCScriptNode@@PAVasCScriptCode@@PAU2@PAPAV3@@Z$1 1005e93a f    CIL library: CIL module
 0001:0005d942       __ehhandler$?GetNameSpaceFromNode@asCBuilder@@IAEPAUasSNameSpace@@PAVasCScriptNode@@PAVasCScriptCode@@PAU2@PAPAV3@@Z 1005e942 f    CIL library: CIL module
 0001:0005d94c       __unwindfunclet$?GetNamespaceAndNameFromNode@asCBuilder@@IAEHPAVasCScriptNode@@PAVasCScriptCode@@PAUasSNameSpace@@AAPAU4@AAVasCString@@@Z$0 1005e94c f    CIL library: CIL module
 0001:0005d954       __ehhandler$?GetNamespaceAndNameFromNode@asCBuilder@@IAEHPAVasCScriptNode@@PAVasCScriptCode@@PAUasSNameSpace@@AAPAU4@AAVasCString@@@Z 1005e954 f    CIL library: CIL module
 0001:0005d95e       __unwindfunclet$?CheckNameConflict@asCBuilder@@QAEHPBDPAVasCScriptNode@@PAVasCScriptCode@@PAUasSNameSpace@@@Z$0 1005e95e f    CIL library: CIL module
 0001:0005d966       __unwindfunclet$?CheckNameConflict@asCBuilder@@QAEHPBDPAVasCScriptNode@@PAVasCScriptCode@@PAUasSNameSpace@@@Z$1 1005e966 f    CIL library: CIL module
 0001:0005d96e       __unwindfunclet$?CheckNameConflict@asCBuilder@@QAEHPBDPAVasCScriptNode@@PAVasCScriptCode@@PAUasSNameSpace@@@Z$5 1005e96e f    CIL library: CIL module
 0001:0005d976       __unwindfunclet$?CheckNameConflict@asCBuilder@@QAEHPBDPAVasCScriptNode@@PAVasCScriptCode@@PAUasSNameSpace@@@Z$2 1005e976 f    CIL library: CIL module
 0001:0005d97e       __unwindfunclet$?CheckNameConflict@asCBuilder@@QAEHPBDPAVasCScriptNode@@PAVasCScriptCode@@PAUasSNameSpace@@@Z$3 1005e97e f    CIL library: CIL module
 0001:0005d986       __unwindfunclet$?CheckNameConflict@asCBuilder@@QAEHPBDPAVasCScriptNode@@PAVasCScriptCode@@PAUasSNameSpace@@@Z$4 1005e986 f    CIL library: CIL module
 0001:0005d98e       __ehhandler$?CheckNameConflict@asCBuilder@@QAEHPBDPAVasCScriptNode@@PAVasCScriptCode@@PAUasSNameSpace@@@Z 1005e98e f    CIL library: CIL module
 0001:0005d998       __unwindfunclet$?ParseTemplateDecl@asCBuilder@@QAEHPBDPAVasCString@@AAV?$asCArray@VasCString@@@@@Z$0 1005e998 f    CIL library: CIL module
 0001:0005d9a2       __unwindfunclet$?ParseTemplateDecl@asCBuilder@@QAEHPBDPAVasCString@@AAV?$asCArray@VasCString@@@@@Z$1 1005e9a2 f    CIL library: CIL module
 0001:0005d9ac       __unwindfunclet$?ParseTemplateDecl@asCBuilder@@QAEHPBDPAVasCString@@AAV?$asCArray@VasCString@@@@@Z$2 1005e9ac f    CIL library: CIL module
 0001:0005d9b7       __ehhandler$?ParseTemplateDecl@asCBuilder@@QAEHPBDPAVasCString@@AAV?$asCArray@VasCString@@@@@Z 1005e9b7 f    CIL library: CIL module
 0001:0005d9c1       __unwindfunclet$?GetDeclaration@asCScriptFunction@@UBEPBD_N0@Z$0 1005e9c1 f    CIL library: CIL module
 0001:0005d9c9       __ehhandler$?GetDeclaration@asCScriptFunction@@UBEPBD_N0@Z 1005e9c9 f    CIL library: CIL module
 0001:0005d9d3       __unwindfunclet$?RegisterTypedef@asCScriptEngine@@UAEHPBD0@Z$0 1005e9d3 f    CIL library: CIL module
 0001:0005d9e0       __ehhandler$?RegisterTypedef@asCScriptEngine@@UAEHPBD0@Z 1005e9e0 f    CIL library: CIL module
 0001:0005d9ea       __unwindfunclet$?GetModule@asCScriptEngine@@QAEPAVasCModule@@PBD_N@Z$0 1005e9ea f    CIL library: CIL module
 0001:0005d9ef       __ehhandler$?GetModule@asCScriptEngine@@QAEPAVasCModule@@PBD_N@Z 1005e9ef f    CIL library: CIL module
 0001:0005d9f9       __unwindfunclet$?PrepareEngine@asCScriptEngine@@QAEXXZ$0 1005e9f9 f    CIL library: CIL module
 0001:0005da01       __ehhandler$?PrepareEngine@asCScriptEngine@@QAEXXZ 1005ea01 f    CIL library: CIL module
 0001:0005da0b       __unwindfunclet$?CreateContext@asCScriptEngine@@QAEHPAPAVasIScriptContext@@_N@Z$0 1005ea0b f    CIL library: CIL module
 0001:0005da10       __ehhandler$?CreateContext@asCScriptEngine@@QAEHPAPAVasIScriptContext@@_N@Z 1005ea10 f    CIL library: CIL module
 0001:0005da1a       __unwindfunclet$?ParseTypedef@asCParser@@IAEPAVasCScriptNode@@XZ$0 1005ea1a f    CIL library: CIL module
 0001:0005da22       __unwindfunclet$?ParseTypedef@asCParser@@IAEPAVasCScriptNode@@XZ$2 1005ea22 f    CIL library: CIL module
 0001:0005da2a       __unwindfunclet$?ParseTypedef@asCParser@@IAEPAVasCScriptNode@@XZ$1 1005ea2a f    CIL library: CIL module
 0001:0005da32       __ehhandler$?ParseTypedef@asCParser@@IAEPAVasCScriptNode@@XZ 1005ea32 f    CIL library: CIL module
 0001:0005da3c       __unwindfunclet$?ParseContinue@asCParser@@IAEPAVasCScriptNode@@XZ$0 1005ea3c f    CIL library: CIL module
 0001:0005da44       __unwindfunclet$?ParseContinue@asCParser@@IAEPAVasCScriptNode@@XZ$1 1005ea44 f    CIL library: CIL module
 0001:0005da4c       __ehhandler$?ParseContinue@asCParser@@IAEPAVasCScriptNode@@XZ 1005ea4c f    CIL library: CIL module
 0001:0005da56       __unwindfunclet$?ParseBreak@asCParser@@IAEPAVasCScriptNode@@XZ$0 1005ea56 f    CIL library: CIL module
 0001:0005da5e       __unwindfunclet$?ParseBreak@asCParser@@IAEPAVasCScriptNode@@XZ$1 1005ea5e f    CIL library: CIL module
 0001:0005da66       __ehhandler$?ParseBreak@asCParser@@IAEPAVasCScriptNode@@XZ 1005ea66 f    CIL library: CIL module
 0001:0005da70       __unwindfunclet$?SuperficiallyParseStatementBlock@asCParser@@IAEPAVasCScriptNode@@XZ$0 1005ea70 f    CIL library: CIL module
 0001:0005da78       __unwindfunclet$?SuperficiallyParseStatementBlock@asCParser@@IAEPAVasCScriptNode@@XZ$1 1005ea78 f    CIL library: CIL module
 0001:0005da80       __unwindfunclet$?SuperficiallyParseStatementBlock@asCParser@@IAEPAVasCScriptNode@@XZ$2 1005ea80 f    CIL library: CIL module
 0001:0005da88       __unwindfunclet$?SuperficiallyParseStatementBlock@asCParser@@IAEPAVasCScriptNode@@XZ$3 1005ea88 f    CIL library: CIL module
 0001:0005da90       __ehhandler$?SuperficiallyParseStatementBlock@asCParser@@IAEPAVasCScriptNode@@XZ 1005ea90 f    CIL library: CIL module
 0001:0005da9a       __unwindfunclet$?SuperficiallyParseVarInit@asCParser@@IAEPAVasCScriptNode@@XZ$0 1005ea9a f    CIL library: CIL module
 0001:0005daa2       __unwindfunclet$?SuperficiallyParseVarInit@asCParser@@IAEPAVasCScriptNode@@XZ$1 1005eaa2 f    CIL library: CIL module
 0001:0005daaa       __unwindfunclet$?SuperficiallyParseVarInit@asCParser@@IAEPAVasCScriptNode@@XZ$2 1005eaaa f    CIL library: CIL module
 0001:0005dab2       __unwindfunclet$?SuperficiallyParseVarInit@asCParser@@IAEPAVasCScriptNode@@XZ$3 1005eab2 f    CIL library: CIL module
 0001:0005daba       __unwindfunclet$?SuperficiallyParseVarInit@asCParser@@IAEPAVasCScriptNode@@XZ$4 1005eaba f    CIL library: CIL module
 0001:0005dac2       __unwindfunclet$?SuperficiallyParseVarInit@asCParser@@IAEPAVasCScriptNode@@XZ$5 1005eac2 f    CIL library: CIL module
 0001:0005daca       __unwindfunclet$?SuperficiallyParseVarInit@asCParser@@IAEPAVasCScriptNode@@XZ$6 1005eaca f    CIL library: CIL module
 0001:0005dad2       __unwindfunclet$?SuperficiallyParseVarInit@asCParser@@IAEPAVasCScriptNode@@XZ$7 1005ead2 f    CIL library: CIL module
 0001:0005dada       __unwindfunclet$?SuperficiallyParseVarInit@asCParser@@IAEPAVasCScriptNode@@XZ$8 1005eada f    CIL library: CIL module
 0001:0005dae2       __unwindfunclet$?SuperficiallyParseVarInit@asCParser@@IAEPAVasCScriptNode@@XZ$9 1005eae2 f    CIL library: CIL module
 0001:0005daea       __ehhandler$?SuperficiallyParseVarInit@asCParser@@IAEPAVasCScriptNode@@XZ 1005eaea f    CIL library: CIL module
 0001:0005daf4       __unwindfunclet$?ParseEnumeration@asCParser@@IAEPAVasCScriptNode@@XZ$0 1005eaf4 f    CIL library: CIL module
 0001:0005dafc       __unwindfunclet$?ParseEnumeration@asCParser@@IAEPAVasCScriptNode@@XZ$1 1005eafc f    CIL library: CIL module
 0001:0005db04       __unwindfunclet$?ParseEnumeration@asCParser@@IAEPAVasCScriptNode@@XZ$2 1005eb04 f    CIL library: CIL module
 0001:0005db0c       __unwindfunclet$?ParseEnumeration@asCParser@@IAEPAVasCScriptNode@@XZ$4 1005eb0c f    CIL library: CIL module
 0001:0005db14       __unwindfunclet$?ParseEnumeration@asCParser@@IAEPAVasCScriptNode@@XZ$3 1005eb14 f    CIL library: CIL module
 0001:0005db1c       __ehhandler$?ParseEnumeration@asCParser@@IAEPAVasCScriptNode@@XZ 1005eb1c f    CIL library: CIL module
 0001:0005db26       __unwindfunclet$?ParseAssignOperator@asCParser@@IAEPAVasCScriptNode@@XZ$0 1005eb26 f    CIL library: CIL module
 0001:0005db2e       __ehhandler$?ParseAssignOperator@asCParser@@IAEPAVasCScriptNode@@XZ 1005eb2e f    CIL library: CIL module
 0001:0005db38       __unwindfunclet$?ParseExprOperator@asCParser@@IAEPAVasCScriptNode@@XZ$0 1005eb38 f    CIL library: CIL module
 0001:0005db40       __ehhandler$?ParseExprOperator@asCParser@@IAEPAVasCScriptNode@@XZ 1005eb40 f    CIL library: CIL module
 0001:0005db4a       __unwindfunclet$?ParseExprPreOp@asCParser@@IAEPAVasCScriptNode@@XZ$0 1005eb4a f    CIL library: CIL module
 0001:0005db52       __ehhandler$?ParseExprPreOp@asCParser@@IAEPAVasCScriptNode@@XZ 1005eb52 f    CIL library: CIL module
 0001:0005db5c       __unwindfunclet$?ParseArgList@asCParser@@IAEPAVasCScriptNode@@XZ$0 1005eb5c f    CIL library: CIL module
 0001:0005db64       __unwindfunclet$?ParseArgList@asCParser@@IAEPAVasCScriptNode@@XZ$1 1005eb64 f    CIL library: CIL module
 0001:0005db6c       __ehhandler$?ParseArgList@asCParser@@IAEPAVasCScriptNode@@XZ 1005eb6c f    CIL library: CIL module
 0001:0005db76       __unwindfunclet$?ParseStringConstant@asCParser@@IAEPAVasCScriptNode@@XZ$0 1005eb76 f    CIL library: CIL module
 0001:0005db7e       __ehhandler$?ParseStringConstant@asCParser@@IAEPAVasCScriptNode@@XZ 1005eb7e f    CIL library: CIL module
 0001:0005db88       __unwindfunclet$?ParseConstant@asCParser@@IAEPAVasCScriptNode@@XZ$0 1005eb88 f    CIL library: CIL module
 0001:0005db90       __ehhandler$?ParseConstant@asCParser@@IAEPAVasCScriptNode@@XZ 1005eb90 f    CIL library: CIL module
 0001:0005db9a       __unwindfunclet$?ParseType@asCParser@@IAEPAVasCScriptNode@@_N0@Z$0 1005eb9a f    CIL library: CIL module
 0001:0005dba2       __unwindfunclet$?ParseType@asCParser@@IAEPAVasCScriptNode@@_N0@Z$1 1005eba2 f    CIL library: CIL module
 0001:0005dbaa       __unwindfunclet$?ParseType@asCParser@@IAEPAVasCScriptNode@@_N0@Z$2 1005ebaa f    CIL library: CIL module
 0001:0005dbb2       __ehhandler$?ParseType@asCParser@@IAEPAVasCScriptNode@@_N0@Z 1005ebb2 f    CIL library: CIL module
 0001:0005dbbc       __unwindfunclet$?ParsePropertyDeclaration@asCParser@@QAEHPAVasCScriptCode@@@Z$0 1005ebbc f    CIL library: CIL module
 0001:0005dbc4       __ehhandler$?ParsePropertyDeclaration@asCParser@@QAEHPAVasCScriptCode@@@Z 1005ebc4 f    CIL library: CIL module
 0001:0005dbce       __unwindfunclet$?ParseDataType@asCParser@@QAEHPAVasCScriptCode@@_N@Z$0 1005ebce f    CIL library: CIL module
 0001:0005dbd6       __ehhandler$?ParseDataType@asCParser@@QAEHPAVasCScriptCode@@_N@Z 1005ebd6 f    CIL library: CIL module
 0001:0005dbe0       __unwindfunclet$?BindAllImportedFunctions@asCModule@@UAEHXZ$0 1005ebe0 f    CIL library: CIL module
 0001:0005dbe8       __ehhandler$?BindAllImportedFunctions@asCModule@@UAEHXZ 1005ebe8 f    CIL library: CIL module
 0001:0005dbf2       __unwindfunclet$?CallInit@asCModule@@QAEHPAVasIScriptContext@@@Z$0 1005ebf2 f    CIL library: CIL module
 0001:0005dbfa       __ehhandler$?CallInit@asCModule@@QAEHPAVasIScriptContext@@@Z 1005ebfa f    CIL library: CIL module
 0001:0005dc04       __unwindfunclet$?CompileBooleanOperator@asCCompiler@@IAEXPAVasCScriptNode@@PAUasSExprContext@@11@Z$0 1005ec04 f    CIL library: CIL module
 0001:0005dc0c       __unwindfunclet$?CompileBooleanOperator@asCCompiler@@IAEXPAVasCScriptNode@@PAUasSExprContext@@11@Z$1 1005ec0c f    CIL library: CIL module
 0001:0005dc14       __unwindfunclet$?CompileBooleanOperator@asCCompiler@@IAEXPAVasCScriptNode@@PAUasSExprContext@@11@Z$2 1005ec14 f    CIL library: CIL module
 0001:0005dc1c       __unwindfunclet$?CompileBooleanOperator@asCCompiler@@IAEXPAVasCScriptNode@@PAUasSExprContext@@11@Z$3 1005ec1c f    CIL library: CIL module
 0001:0005dc24       __ehhandler$?CompileBooleanOperator@asCCompiler@@IAEXPAVasCScriptNode@@PAUasSExprContext@@11@Z 1005ec24 f    CIL library: CIL module
 0001:0005dc2e       __unwindfunclet$?CompileComparisonOperator@asCCompiler@@IAEXPAVasCScriptNode@@PAUasSExprContext@@11@Z$0 1005ec2e f    CIL library: CIL module
 0001:0005dc36       __unwindfunclet$?CompileComparisonOperator@asCCompiler@@IAEXPAVasCScriptNode@@PAUasSExprContext@@11@Z$1 1005ec36 f    CIL library: CIL module
 0001:0005dc3e       __unwindfunclet$?CompileComparisonOperator@asCCompiler@@IAEXPAVasCScriptNode@@PAUasSExprContext@@11@Z$2 1005ec3e f    CIL library: CIL module
 0001:0005dc46       __unwindfunclet$?CompileComparisonOperator@asCCompiler@@IAEXPAVasCScriptNode@@PAUasSExprContext@@11@Z$3 1005ec46 f    CIL library: CIL module
 0001:0005dc4e       __unwindfunclet$?CompileComparisonOperator@asCCompiler@@IAEXPAVasCScriptNode@@PAUasSExprContext@@11@Z$4 1005ec4e f    CIL library: CIL module
 0001:0005dc56       __unwindfunclet$?CompileComparisonOperator@asCCompiler@@IAEXPAVasCScriptNode@@PAUasSExprContext@@11@Z$5 1005ec56 f    CIL library: CIL module
 0001:0005dc5e       __unwindfunclet$?CompileComparisonOperator@asCCompiler@@IAEXPAVasCScriptNode@@PAUasSExprContext@@11@Z$6 1005ec5e f    CIL library: CIL module
 0001:0005dc66       __unwindfunclet$?CompileComparisonOperator@asCCompiler@@IAEXPAVasCScriptNode@@PAUasSExprContext@@11@Z$7 1005ec66 f    CIL library: CIL module
 0001:0005dc6e       __unwindfunclet$?CompileComparisonOperator@asCCompiler@@IAEXPAVasCScriptNode@@PAUasSExprContext@@11@Z$8 1005ec6e f    CIL library: CIL module
 0001:0005dc76       __ehhandler$?CompileComparisonOperator@asCCompiler@@IAEXPAVasCScriptNode@@PAUasSExprContext@@11@Z 1005ec76 f    CIL library: CIL module
 0001:0005dc80       __unwindfunclet$?CompileBitwiseOperator@asCCompiler@@IAEXPAVasCScriptNode@@PAUasSExprContext@@11@Z$6 1005ec80 f    CIL library: CIL module
 0001:0005dc88       __unwindfunclet$?CompileBitwiseOperator@asCCompiler@@IAEXPAVasCScriptNode@@PAUasSExprContext@@11@Z$7 1005ec88 f    CIL library: CIL module
 0001:0005dc90       __unwindfunclet$?CompileBitwiseOperator@asCCompiler@@IAEXPAVasCScriptNode@@PAUasSExprContext@@11@Z$8 1005ec90 f    CIL library: CIL module
 0001:0005dc98       __unwindfunclet$?CompileBitwiseOperator@asCCompiler@@IAEXPAVasCScriptNode@@PAUasSExprContext@@11@Z$9 1005ec98 f    CIL library: CIL module
 0001:0005dca0       __unwindfunclet$?CompileBitwiseOperator@asCCompiler@@IAEXPAVasCScriptNode@@PAUasSExprContext@@11@Z$10 1005eca0 f    CIL library: CIL module
 0001:0005dca8       __unwindfunclet$?CompileBitwiseOperator@asCCompiler@@IAEXPAVasCScriptNode@@PAUasSExprContext@@11@Z$11 1005eca8 f    CIL library: CIL module
 0001:0005dcb0       __unwindfunclet$?CompileBitwiseOperator@asCCompiler@@IAEXPAVasCScriptNode@@PAUasSExprContext@@11@Z$12 1005ecb0 f    CIL library: CIL module
 0001:0005dcb8       __unwindfunclet$?CompileBitwiseOperator@asCCompiler@@IAEXPAVasCScriptNode@@PAUasSExprContext@@11@Z$0 1005ecb8 f    CIL library: CIL module
 0001:0005dcc0       __unwindfunclet$?CompileBitwiseOperator@asCCompiler@@IAEXPAVasCScriptNode@@PAUasSExprContext@@11@Z$1 1005ecc0 f    CIL library: CIL module
 0001:0005dcc8       __unwindfunclet$?CompileBitwiseOperator@asCCompiler@@IAEXPAVasCScriptNode@@PAUasSExprContext@@11@Z$2 1005ecc8 f    CIL library: CIL module
 0001:0005dcd0       __unwindfunclet$?CompileBitwiseOperator@asCCompiler@@IAEXPAVasCScriptNode@@PAUasSExprContext@@11@Z$3 1005ecd0 f    CIL library: CIL module
 0001:0005dcd8       __unwindfunclet$?CompileBitwiseOperator@asCCompiler@@IAEXPAVasCScriptNode@@PAUasSExprContext@@11@Z$4 1005ecd8 f    CIL library: CIL module
 0001:0005dce0       __unwindfunclet$?CompileBitwiseOperator@asCCompiler@@IAEXPAVasCScriptNode@@PAUasSExprContext@@11@Z$5 1005ece0 f    CIL library: CIL module
 0001:0005dce8       __ehhandler$?CompileBitwiseOperator@asCCompiler@@IAEXPAVasCScriptNode@@PAUasSExprContext@@11@Z 1005ece8 f    CIL library: CIL module
 0001:0005dcf2       __unwindfunclet$?CompileMathOperator@asCCompiler@@IAEXPAVasCScriptNode@@PAUasSExprContext@@11@Z$0 1005ecf2 f    CIL library: CIL module
 0001:0005dcfa       __unwindfunclet$?CompileMathOperator@asCCompiler@@IAEXPAVasCScriptNode@@PAUasSExprContext@@11@Z$1 1005ecfa f    CIL library: CIL module
 0001:0005dd02       __unwindfunclet$?CompileMathOperator@asCCompiler@@IAEXPAVasCScriptNode@@PAUasSExprContext@@11@Z$2 1005ed02 f    CIL library: CIL module
 0001:0005dd0a       __unwindfunclet$?CompileMathOperator@asCCompiler@@IAEXPAVasCScriptNode@@PAUasSExprContext@@11@Z$3 1005ed0a f    CIL library: CIL module
 0001:0005dd12       __unwindfunclet$?CompileMathOperator@asCCompiler@@IAEXPAVasCScriptNode@@PAUasSExprContext@@11@Z$4 1005ed12 f    CIL library: CIL module
 0001:0005dd1a       __ehhandler$?CompileMathOperator@asCCompiler@@IAEXPAVasCScriptNode@@PAUasSExprContext@@11@Z 1005ed1a f    CIL library: CIL module
 0001:0005dd24       __unwindfunclet$?FindPropertyAccessor@asCCompiler@@IAEHABVasCString@@PAUasSExprContext@@1PAVasCScriptNode@@PAUasSNameSpace@@_N@Z$0 1005ed24 f    CIL library: CIL module
 0001:0005dd2c       __unwindfunclet$?FindPropertyAccessor@asCCompiler@@IAEHABVasCString@@PAUasSExprContext@@1PAVasCScriptNode@@PAUasSNameSpace@@_N@Z$1 1005ed2c f    CIL library: CIL module
 0001:0005dd34       __unwindfunclet$?FindPropertyAccessor@asCCompiler@@IAEHABVasCString@@PAUasSExprContext@@1PAVasCScriptNode@@PAUasSNameSpace@@_N@Z$2 1005ed34 f    CIL library: CIL module
 0001:0005dd3c       __unwindfunclet$?FindPropertyAccessor@asCCompiler@@IAEHABVasCString@@PAUasSExprContext@@1PAVasCScriptNode@@PAUasSNameSpace@@_N@Z$3 1005ed3c f    CIL library: CIL module
 0001:0005dd44       __unwindfunclet$?FindPropertyAccessor@asCCompiler@@IAEHABVasCString@@PAUasSExprContext@@1PAVasCScriptNode@@PAUasSNameSpace@@_N@Z$4 1005ed44 f    CIL library: CIL module
 0001:0005dd4c       __unwindfunclet$?FindPropertyAccessor@asCCompiler@@IAEHABVasCString@@PAUasSExprContext@@1PAVasCScriptNode@@PAUasSNameSpace@@_N@Z$5 1005ed4c f    CIL library: CIL module
 0001:0005dd54       __unwindfunclet$?FindPropertyAccessor@asCCompiler@@IAEHABVasCString@@PAUasSExprContext@@1PAVasCScriptNode@@PAUasSNameSpace@@_N@Z$6 1005ed54 f    CIL library: CIL module
 0001:0005dd5c       __unwindfunclet$?FindPropertyAccessor@asCCompiler@@IAEHABVasCString@@PAUasSExprContext@@1PAVasCScriptNode@@PAUasSNameSpace@@_N@Z$7 1005ed5c f    CIL library: CIL module
 0001:0005dd64       __unwindfunclet$?FindPropertyAccessor@asCCompiler@@IAEHABVasCString@@PAUasSExprContext@@1PAVasCScriptNode@@PAUasSNameSpace@@_N@Z$8 1005ed64 f    CIL library: CIL module
 0001:0005dd6c       __ehhandler$?FindPropertyAccessor@asCCompiler@@IAEHABVasCString@@PAUasSExprContext@@1PAVasCScriptNode@@PAUasSNameSpace@@_N@Z 1005ed6c f    CIL library: CIL module
 0001:0005dd76       __unwindfunclet$?ProcessStringConstant@asCCompiler@@IAEIAAVasCString@@PAVasCScriptNode@@_N@Z$0 1005ed76 f    CIL library: CIL module
 0001:0005dd7e       __unwindfunclet$?ProcessStringConstant@asCCompiler@@IAEIAAVasCString@@PAVasCScriptNode@@_N@Z$2 1005ed7e f    CIL library: CIL module
 0001:0005dd86       __unwindfunclet$?ProcessStringConstant@asCCompiler@@IAEIAAVasCString@@PAVasCScriptNode@@_N@Z$1 1005ed86 f    CIL library: CIL module
 0001:0005dd8e       __unwindfunclet$?ProcessStringConstant@asCCompiler@@IAEIAAVasCString@@PAVasCScriptNode@@_N@Z$3 1005ed8e f    CIL library: CIL module
 0001:0005dd96       __unwindfunclet$?ProcessStringConstant@asCCompiler@@IAEIAAVasCString@@PAVasCScriptNode@@_N@Z$4 1005ed96 f    CIL library: CIL module
 0001:0005dd9e       __ehhandler$?ProcessStringConstant@asCCompiler@@IAEIAAVasCString@@PAVasCScriptNode@@_N@Z 1005ed9e f    CIL library: CIL module
 0001:0005dda8       __unwindfunclet$?CompileVariableAccess@asCCompiler@@IAEHABVasCString@@0PAUasSExprContext@@PAVasCScriptNode@@_N33PAVasCObjectType@@@Z$0 1005eda8 f    CIL library: CIL module
 0001:0005ddb3       __unwindfunclet$?CompileVariableAccess@asCCompiler@@IAEHABVasCString@@0PAUasSExprContext@@PAVasCScriptNode@@_N33PAVasCObjectType@@@Z$1 1005edb3 f    CIL library: CIL module
 0001:0005ddbe       __unwindfunclet$?CompileVariableAccess@asCCompiler@@IAEHABVasCString@@0PAUasSExprContext@@PAVasCScriptNode@@_N33PAVasCObjectType@@@Z$2 1005edbe f    CIL library: CIL module
 0001:0005ddc9       __unwindfunclet$?CompileVariableAccess@asCCompiler@@IAEHABVasCString@@0PAUasSExprContext@@PAVasCScriptNode@@_N33PAVasCObjectType@@@Z$3 1005edc9 f    CIL library: CIL module
 0001:0005ddd4       __unwindfunclet$?CompileVariableAccess@asCCompiler@@IAEHABVasCString@@0PAUasSExprContext@@PAVasCScriptNode@@_N33PAVasCObjectType@@@Z$4 1005edd4 f    CIL library: CIL module
 0001:0005dddf       __unwindfunclet$?CompileVariableAccess@asCCompiler@@IAEHABVasCString@@0PAUasSExprContext@@PAVasCScriptNode@@_N33PAVasCObjectType@@@Z$5 1005eddf f    CIL library: CIL module
 0001:0005ddea       __unwindfunclet$?CompileVariableAccess@asCCompiler@@IAEHABVasCString@@0PAUasSExprContext@@PAVasCScriptNode@@_N33PAVasCObjectType@@@Z$7 1005edea f    CIL library: CIL module
 0001:0005ddf5       __unwindfunclet$?CompileVariableAccess@asCCompiler@@IAEHABVasCString@@0PAUasSExprContext@@PAVasCScriptNode@@_N33PAVasCObjectType@@@Z$8 1005edf5 f    CIL library: CIL module
 0001:0005de14       __unwindfunclet$?CompileVariableAccess@asCCompiler@@IAEHABVasCString@@0PAUasSExprContext@@PAVasCScriptNode@@_N33PAVasCObjectType@@@Z$9 1005ee14 f    CIL library: CIL module
 0001:0005de33       __unwindfunclet$?CompileVariableAccess@asCCompiler@@IAEHABVasCString@@0PAUasSExprContext@@PAVasCScriptNode@@_N33PAVasCObjectType@@@Z$10 1005ee33 f    CIL library: CIL module
 0001:0005de3e       __unwindfunclet$?CompileVariableAccess@asCCompiler@@IAEHABVasCString@@0PAUasSExprContext@@PAVasCScriptNode@@_N33PAVasCObjectType@@@Z$11 1005ee3e f    CIL library: CIL module
 0001:0005de49       __unwindfunclet$?CompileVariableAccess@asCCompiler@@IAEHABVasCString@@0PAUasSExprContext@@PAVasCScriptNode@@_N33PAVasCObjectType@@@Z$12 1005ee49 f    CIL library: CIL module
 0001:0005de51       __unwindfunclet$?CompileVariableAccess@asCCompiler@@IAEHABVasCString@@0PAUasSExprContext@@PAVasCScriptNode@@_N33PAVasCObjectType@@@Z$13 1005ee51 f    CIL library: CIL module
 0001:0005de5c       __unwindfunclet$?CompileVariableAccess@asCCompiler@@IAEHABVasCString@@0PAUasSExprContext@@PAVasCScriptNode@@_N33PAVasCObjectType@@@Z$16 1005ee5c f    CIL library: CIL module
 0001:0005de67       __unwindfunclet$?CompileVariableAccess@asCCompiler@@IAEHABVasCString@@0PAUasSExprContext@@PAVasCScriptNode@@_N33PAVasCObjectType@@@Z$14 1005ee67 f    CIL library: CIL module
 0001:0005de72       __unwindfunclet$?CompileVariableAccess@asCCompiler@@IAEHABVasCString@@0PAUasSExprContext@@PAVasCScriptNode@@_N33PAVasCObjectType@@@Z$6 1005ee72 f    CIL library: CIL module
 0001:0005de7d       __unwindfunclet$?CompileVariableAccess@asCCompiler@@IAEHABVasCString@@0PAUasSExprContext@@PAVasCScriptNode@@_N33PAVasCObjectType@@@Z$15 1005ee7d f    CIL library: CIL module
 0001:0005de88       __unwindfunclet$?CompileVariableAccess@asCCompiler@@IAEHABVasCString@@0PAUasSExprContext@@PAVasCScriptNode@@_N33PAVasCObjectType@@@Z$17 1005ee88 f    CIL library: CIL module
 0001:0005de93       __unwindfunclet$?CompileVariableAccess@asCCompiler@@IAEHABVasCString@@0PAUasSExprContext@@PAVasCScriptNode@@_N33PAVasCObjectType@@@Z$18 1005ee93 f    CIL library: CIL module
 0001:0005de9e       __unwindfunclet$?CompileVariableAccess@asCCompiler@@IAEHABVasCString@@0PAUasSExprContext@@PAVasCScriptNode@@_N33PAVasCObjectType@@@Z$19 1005ee9e f    CIL library: CIL module
 0001:0005dea9       __ehhandler$?CompileVariableAccess@asCCompiler@@IAEHABVasCString@@0PAUasSExprContext@@PAVasCScriptNode@@_N33PAVasCObjectType@@@Z 1005eea9 f    CIL library: CIL module
 0001:0005deb3       __unwindfunclet$?ImplicitConversionConstant@asCCompiler@@IAEXPAUasSExprContext@@ABVasCDataType@@PAVasCScriptNode@@W4EImplicitConv@@@Z$5 1005eeb3 f    CIL library: CIL module
 0001:0005debb       __unwindfunclet$?ImplicitConversionConstant@asCCompiler@@IAEXPAUasSExprContext@@ABVasCDataType@@PAVasCScriptNode@@W4EImplicitConv@@@Z$0 1005eebb f    CIL library: CIL module
 0001:0005dec3       __unwindfunclet$?ImplicitConversionConstant@asCCompiler@@IAEXPAUasSExprContext@@ABVasCDataType@@PAVasCScriptNode@@W4EImplicitConv@@@Z$1 1005eec3 f    CIL library: CIL module
 0001:0005decb       __unwindfunclet$?ImplicitConversionConstant@asCCompiler@@IAEXPAUasSExprContext@@ABVasCDataType@@PAVasCScriptNode@@W4EImplicitConv@@@Z$2 1005eecb f    CIL library: CIL module
 0001:0005ded3       __unwindfunclet$?ImplicitConversionConstant@asCCompiler@@IAEXPAUasSExprContext@@ABVasCDataType@@PAVasCScriptNode@@W4EImplicitConv@@@Z$3 1005eed3 f    CIL library: CIL module
 0001:0005dedb       __unwindfunclet$?ImplicitConversionConstant@asCCompiler@@IAEXPAUasSExprContext@@ABVasCDataType@@PAVasCScriptNode@@W4EImplicitConv@@@Z$4 1005eedb f    CIL library: CIL module
 0001:0005dee3       __unwindfunclet$?ImplicitConversionConstant@asCCompiler@@IAEXPAUasSExprContext@@ABVasCDataType@@PAVasCScriptNode@@W4EImplicitConv@@@Z$6 1005eee3 f    CIL library: CIL module
 0001:0005deeb       __unwindfunclet$?ImplicitConversionConstant@asCCompiler@@IAEXPAUasSExprContext@@ABVasCDataType@@PAVasCScriptNode@@W4EImplicitConv@@@Z$7 1005eeeb f    CIL library: CIL module
 0001:0005def3       __unwindfunclet$?ImplicitConversionConstant@asCCompiler@@IAEXPAUasSExprContext@@ABVasCDataType@@PAVasCScriptNode@@W4EImplicitConv@@@Z$8 1005eef3 f    CIL library: CIL module
 0001:0005defb       __unwindfunclet$?ImplicitConversionConstant@asCCompiler@@IAEXPAUasSExprContext@@ABVasCDataType@@PAVasCScriptNode@@W4EImplicitConv@@@Z$9 1005eefb f    CIL library: CIL module
 0001:0005df03       __unwindfunclet$?ImplicitConversionConstant@asCCompiler@@IAEXPAUasSExprContext@@ABVasCDataType@@PAVasCScriptNode@@W4EImplicitConv@@@Z$10 1005ef03 f    CIL library: CIL module
 0001:0005df0b       __unwindfunclet$?ImplicitConversionConstant@asCCompiler@@IAEXPAUasSExprContext@@ABVasCDataType@@PAVasCScriptNode@@W4EImplicitConv@@@Z$11 1005ef0b f    CIL library: CIL module
 0001:0005df13       __unwindfunclet$?ImplicitConversionConstant@asCCompiler@@IAEXPAUasSExprContext@@ABVasCDataType@@PAVasCScriptNode@@W4EImplicitConv@@@Z$12 1005ef13 f    CIL library: CIL module
 0001:0005df1b       __unwindfunclet$?ImplicitConversionConstant@asCCompiler@@IAEXPAUasSExprContext@@ABVasCDataType@@PAVasCScriptNode@@W4EImplicitConv@@@Z$13 1005ef1b f    CIL library: CIL module
 0001:0005df23       __unwindfunclet$?ImplicitConversionConstant@asCCompiler@@IAEXPAUasSExprContext@@ABVasCDataType@@PAVasCScriptNode@@W4EImplicitConv@@@Z$14 1005ef23 f    CIL library: CIL module
 0001:0005df2b       __unwindfunclet$?ImplicitConversionConstant@asCCompiler@@IAEXPAUasSExprContext@@ABVasCDataType@@PAVasCScriptNode@@W4EImplicitConv@@@Z$15 1005ef2b f    CIL library: CIL module
 0001:0005df33       __unwindfunclet$?ImplicitConversionConstant@asCCompiler@@IAEXPAUasSExprContext@@ABVasCDataType@@PAVasCScriptNode@@W4EImplicitConv@@@Z$16 1005ef33 f    CIL library: CIL module
 0001:0005df3b       __unwindfunclet$?ImplicitConversionConstant@asCCompiler@@IAEXPAUasSExprContext@@ABVasCDataType@@PAVasCScriptNode@@W4EImplicitConv@@@Z$17 1005ef3b f    CIL library: CIL module
 0001:0005df43       __unwindfunclet$?ImplicitConversionConstant@asCCompiler@@IAEXPAUasSExprContext@@ABVasCDataType@@PAVasCScriptNode@@W4EImplicitConv@@@Z$18 1005ef43 f    CIL library: CIL module
 0001:0005df4b       __unwindfunclet$?ImplicitConversionConstant@asCCompiler@@IAEXPAUasSExprContext@@ABVasCDataType@@PAVasCScriptNode@@W4EImplicitConv@@@Z$19 1005ef4b f    CIL library: CIL module
 0001:0005df53       __unwindfunclet$?ImplicitConversionConstant@asCCompiler@@IAEXPAUasSExprContext@@ABVasCDataType@@PAVasCScriptNode@@W4EImplicitConv@@@Z$20 1005ef53 f    CIL library: CIL module
 0001:0005df5b       __unwindfunclet$?ImplicitConversionConstant@asCCompiler@@IAEXPAUasSExprContext@@ABVasCDataType@@PAVasCScriptNode@@W4EImplicitConv@@@Z$21 1005ef5b f    CIL library: CIL module
 0001:0005df63       __unwindfunclet$?ImplicitConversionConstant@asCCompiler@@IAEXPAUasSExprContext@@ABVasCDataType@@PAVasCScriptNode@@W4EImplicitConv@@@Z$22 1005ef63 f    CIL library: CIL module
 0001:0005df6b       __unwindfunclet$?ImplicitConversionConstant@asCCompiler@@IAEXPAUasSExprContext@@ABVasCDataType@@PAVasCScriptNode@@W4EImplicitConv@@@Z$23 1005ef6b f    CIL library: CIL module
 0001:0005df73       __unwindfunclet$?ImplicitConversionConstant@asCCompiler@@IAEXPAUasSExprContext@@ABVasCDataType@@PAVasCScriptNode@@W4EImplicitConv@@@Z$24 1005ef73 f    CIL library: CIL module
 0001:0005df7b       __unwindfunclet$?ImplicitConversionConstant@asCCompiler@@IAEXPAUasSExprContext@@ABVasCDataType@@PAVasCScriptNode@@W4EImplicitConv@@@Z$25 1005ef7b f    CIL library: CIL module
 0001:0005df83       __ehhandler$?ImplicitConversionConstant@asCCompiler@@IAEXPAUasSExprContext@@ABVasCDataType@@PAVasCScriptNode@@W4EImplicitConv@@@Z 1005ef83 f    CIL library: CIL module
 0001:0005df8d       __unwindfunclet$?PerformAssignment@asCCompiler@@IAEHPAUasCTypeInfo@@0PAVasCByteCode@@PAVasCScriptNode@@@Z$0 1005ef8d f    CIL library: CIL module
 0001:0005df98       __unwindfunclet$?PerformAssignment@asCCompiler@@IAEHPAUasCTypeInfo@@0PAVasCByteCode@@PAVasCScriptNode@@@Z$1 1005ef98 f    CIL library: CIL module
 0001:0005dfa3       __unwindfunclet$?PerformAssignment@asCCompiler@@IAEHPAUasCTypeInfo@@0PAVasCByteCode@@PAVasCScriptNode@@@Z$2 1005efa3 f    CIL library: CIL module
 0001:0005dfae       __unwindfunclet$?PerformAssignment@asCCompiler@@IAEHPAUasCTypeInfo@@0PAVasCByteCode@@PAVasCScriptNode@@@Z$3 1005efae f    CIL library: CIL module
 0001:0005dfb9       __unwindfunclet$?PerformAssignment@asCCompiler@@IAEHPAUasCTypeInfo@@0PAVasCByteCode@@PAVasCScriptNode@@@Z$4 1005efb9 f    CIL library: CIL module
 0001:0005dfc4       __unwindfunclet$?PerformAssignment@asCCompiler@@IAEHPAUasCTypeInfo@@0PAVasCByteCode@@PAVasCScriptNode@@@Z$5 1005efc4 f    CIL library: CIL module
 0001:0005dfcf       __ehhandler$?PerformAssignment@asCCompiler@@IAEHPAUasCTypeInfo@@0PAVasCByteCode@@PAVasCScriptNode@@@Z 1005efcf f    CIL library: CIL module
 0001:0005dfd9       __unwindfunclet$?IsVariableInitialized@asCCompiler@@IAE_NPAUasCTypeInfo@@PAVasCScriptNode@@@Z$0 1005efd9 f    CIL library: CIL module
 0001:0005dfe1       __ehhandler$?IsVariableInitialized@asCCompiler@@IAE_NPAUasCTypeInfo@@PAVasCScriptNode@@@Z 1005efe1 f    CIL library: CIL module
 0001:0005dfeb       __unwindfunclet$?RegisterTypedef@asCBuilder@@IAEHPAVasCScriptNode@@PAVasCScriptCode@@PAUasSNameSpace@@@Z$0 1005efeb f    CIL library: CIL module
 0001:0005dff3       __ehhandler$?RegisterTypedef@asCBuilder@@IAEHPAVasCScriptNode@@PAVasCScriptCode@@PAUasSNameSpace@@@Z 1005eff3 f    CIL library: CIL module
 0001:0005dffd       __unwindfunclet$?CompileInterfaces@asCBuilder@@IAEXXZ$0 1005effd f    CIL library: CIL module
 0001:0005e005       __unwindfunclet$?CompileInterfaces@asCBuilder@@IAEXXZ$1 1005f005 f    CIL library: CIL module
 0001:0005e00d       __unwindfunclet$?CompileInterfaces@asCBuilder@@IAEXXZ$2 1005f00d f    CIL library: CIL module
 0001:0005e015       __unwindfunclet$?CompileInterfaces@asCBuilder@@IAEXXZ$3 1005f015 f    CIL library: CIL module
 0001:0005e01d       __ehhandler$?CompileInterfaces@asCBuilder@@IAEXXZ 1005f01d f    CIL library: CIL module
 0001:0005e027       __unwindfunclet$?AddInterfaceFromMixinToClass@asCBuilder@@IAEXPAUsClassDeclaration@@PAVasCScriptNode@@PAUsMixinClass@@@Z$0 1005f027 f    CIL library: CIL module
 0001:0005e02f       __unwindfunclet$?AddInterfaceFromMixinToClass@asCBuilder@@IAEXPAUsClassDeclaration@@PAVasCScriptNode@@PAUsMixinClass@@@Z$1 1005f02f f    CIL library: CIL module
 0001:0005e037       __ehhandler$?AddInterfaceFromMixinToClass@asCBuilder@@IAEXPAUsClassDeclaration@@PAVasCScriptNode@@PAUsMixinClass@@@Z 1005f037 f    CIL library: CIL module
 0001:0005e041       __unwindfunclet$?RegisterInterface@asCBuilder@@IAEHPAVasCScriptNode@@PAVasCScriptCode@@PAUasSNameSpace@@@Z$0 1005f041 f    CIL library: CIL module
 0001:0005e049       __ehhandler$?RegisterInterface@asCBuilder@@IAEHPAVasCScriptNode@@PAVasCScriptCode@@PAUasSNameSpace@@@Z 1005f049 f    CIL library: CIL module
 0001:0005e053       __unwindfunclet$?RegisterClass@asCBuilder@@IAEHPAVasCScriptNode@@PAVasCScriptCode@@PAUasSNameSpace@@@Z$0 1005f053 f    CIL library: CIL module
 0001:0005e05b       __ehhandler$?RegisterClass@asCBuilder@@IAEHPAVasCScriptNode@@PAVasCScriptCode@@PAUasSNameSpace@@@Z 1005f05b f    CIL library: CIL module
 0001:0005e065       __unwindfunclet$?RegisterMixinClass@asCBuilder@@IAEHPAVasCScriptNode@@PAVasCScriptCode@@PAUasSNameSpace@@@Z$0 1005f065 f    CIL library: CIL module
 0001:0005e06d       __unwindfunclet$?RegisterMixinClass@asCBuilder@@IAEHPAVasCScriptNode@@PAVasCScriptCode@@PAUasSNameSpace@@@Z$1 1005f06d f    CIL library: CIL module
 0001:0005e075       __unwindfunclet$?RegisterMixinClass@asCBuilder@@IAEHPAVasCScriptNode@@PAVasCScriptCode@@PAUasSNameSpace@@@Z$2 1005f075 f    CIL library: CIL module
 0001:0005e07d       __ehhandler$?RegisterMixinClass@asCBuilder@@IAEHPAVasCScriptNode@@PAVasCScriptCode@@PAUasSNameSpace@@@Z 1005f07d f    CIL library: CIL module
 0001:0005e087       __unwindfunclet$?CreateScriptObject@asCScriptEngine@@UAEPAXPBVasIObjectType@@@Z$0 1005f087 f    CIL library: CIL module
 0001:0005e08f       __unwindfunclet$?CreateScriptObject@asCScriptEngine@@UAEPAXPBVasIObjectType@@@Z$1 1005f08f f    CIL library: CIL module
 0001:0005e097       __ehhandler$?CreateScriptObject@asCScriptEngine@@UAEPAXPBVasIObjectType@@@Z 1005f097 f    CIL library: CIL module
 0001:0005e0a1       __unwindfunclet$?ParseVirtualPropertyDecl@asCParser@@IAEPAVasCScriptNode@@_N0@Z$0 1005f0a1 f    CIL library: CIL module
 0001:0005e0a9       __unwindfunclet$?ParseVirtualPropertyDecl@asCParser@@IAEPAVasCScriptNode@@_N0@Z$1 1005f0a9 f    CIL library: CIL module
 0001:0005e0b1       __unwindfunclet$?ParseVirtualPropertyDecl@asCParser@@IAEPAVasCScriptNode@@_N0@Z$2 1005f0b1 f    CIL library: CIL module
 0001:0005e0b9       __unwindfunclet$?ParseVirtualPropertyDecl@asCParser@@IAEPAVasCScriptNode@@_N0@Z$3 1005f0b9 f    CIL library: CIL module
 0001:0005e0c1       __ehhandler$?ParseVirtualPropertyDecl@asCParser@@IAEPAVasCScriptNode@@_N0@Z 1005f0c1 f    CIL library: CIL module
 0001:0005e0cb       __unwindfunclet$?ParseExprPostOp@asCParser@@IAEPAVasCScriptNode@@XZ$0 1005f0cb f    CIL library: CIL module
 0001:0005e0d3       __unwindfunclet$?ParseExprPostOp@asCParser@@IAEPAVasCScriptNode@@XZ$1 1005f0d3 f    CIL library: CIL module
 0001:0005e0db       __ehhandler$?ParseExprPostOp@asCParser@@IAEPAVasCScriptNode@@XZ 1005f0db f    CIL library: CIL module
 0001:0005e0e5       __unwindfunclet$?ParseCast@asCParser@@IAEPAVasCScriptNode@@XZ$0 1005f0e5 f    CIL library: CIL module
 0001:0005e0ed       __unwindfunclet$?ParseCast@asCParser@@IAEPAVasCScriptNode@@XZ$1 1005f0ed f    CIL library: CIL module
 0001:0005e0f5       __unwindfunclet$?ParseCast@asCParser@@IAEPAVasCScriptNode@@XZ$2 1005f0f5 f    CIL library: CIL module
 0001:0005e0fd       __unwindfunclet$?ParseCast@asCParser@@IAEPAVasCScriptNode@@XZ$3 1005f0fd f    CIL library: CIL module
 0001:0005e105       __unwindfunclet$?ParseCast@asCParser@@IAEPAVasCScriptNode@@XZ$4 1005f105 f    CIL library: CIL module
 0001:0005e10d       __ehhandler$?ParseCast@asCParser@@IAEPAVasCScriptNode@@XZ 1005f10d f    CIL library: CIL module
 0001:0005e117       __unwindfunclet$?ParseListPattern@asCParser@@IAEPAVasCScriptNode@@XZ$0 1005f117 f    CIL library: CIL module
 0001:0005e122       __unwindfunclet$?ParseListPattern@asCParser@@IAEPAVasCScriptNode@@XZ$2 1005f122 f    CIL library: CIL module
 0001:0005e12a       __unwindfunclet$?ParseListPattern@asCParser@@IAEPAVasCScriptNode@@XZ$3 1005f12a f    CIL library: CIL module
 0001:0005e132       __unwindfunclet$?ParseListPattern@asCParser@@IAEPAVasCScriptNode@@XZ$4 1005f132 f    CIL library: CIL module
 0001:0005e13a       __unwindfunclet$?ParseListPattern@asCParser@@IAEPAVasCScriptNode@@XZ$5 1005f13a f    CIL library: CIL module
 0001:0005e142       __unwindfunclet$?ParseListPattern@asCParser@@IAEPAVasCScriptNode@@XZ$8 1005f142 f    CIL library: CIL module
 0001:0005e14d       __unwindfunclet$?ParseListPattern@asCParser@@IAEPAVasCScriptNode@@XZ$9 1005f14d f    CIL library: CIL module
 0001:0005e155       __unwindfunclet$?ParseListPattern@asCParser@@IAEPAVasCScriptNode@@XZ$10 1005f155 f    CIL library: CIL module
 0001:0005e15d       __unwindfunclet$?ParseListPattern@asCParser@@IAEPAVasCScriptNode@@XZ$1 1005f15d f    CIL library: CIL module
 0001:0005e168       __unwindfunclet$?ParseListPattern@asCParser@@IAEPAVasCScriptNode@@XZ$6 1005f168 f    CIL library: CIL module
 0001:0005e173       __unwindfunclet$?ParseListPattern@asCParser@@IAEPAVasCScriptNode@@XZ$7 1005f173 f    CIL library: CIL module
 0001:0005e17e       __ehhandler$?ParseListPattern@asCParser@@IAEPAVasCScriptNode@@XZ 1005f17e f    CIL library: CIL module
 0001:0005e188       __unwindfunclet$?ParseParameterList@asCParser@@IAEPAVasCScriptNode@@XZ$0 1005f188 f    CIL library: CIL module
 0001:0005e190       __unwindfunclet$?ParseParameterList@asCParser@@IAEPAVasCScriptNode@@XZ$1 1005f190 f    CIL library: CIL module
 0001:0005e198       __ehhandler$?ParseParameterList@asCParser@@IAEPAVasCScriptNode@@XZ 1005f198 f    CIL library: CIL module
 0001:0005e1a2       __unwindfunclet$?ParseFunctionDefinition@asCParser@@QAEHPAVasCScriptCode@@_N@Z$0 1005f1a2 f    CIL library: CIL module
 0001:0005e1aa       __ehhandler$?ParseFunctionDefinition@asCParser@@QAEHPAVasCScriptCode@@_N@Z 1005f1aa f    CIL library: CIL module
 0001:0005e1b4       __unwindfunclet$?ProcessHeredocStringConstant@asCCompiler@@IAEXAAVasCString@@PAVasCScriptNode@@@Z$0 1005f1b4 f    CIL library: CIL module
 0001:0005e1bc       __ehhandler$?ProcessHeredocStringConstant@asCCompiler@@IAEXAAVasCString@@PAVasCScriptNode@@@Z 1005f1bc f    CIL library: CIL module
 0001:0005e1c6       __unwindfunclet$?PrepareForAssignment@asCCompiler@@IAEXPAVasCDataType@@PAUasSExprContext@@PAVasCScriptNode@@_N1@Z$0 1005f1c6 f    CIL library: CIL module
 0001:0005e1ce       __unwindfunclet$?PrepareForAssignment@asCCompiler@@IAEXPAVasCDataType@@PAUasSExprContext@@PAVasCScriptNode@@_N1@Z$1 1005f1ce f    CIL library: CIL module
 0001:0005e1d6       __unwindfunclet$?PrepareForAssignment@asCCompiler@@IAEXPAVasCDataType@@PAUasSExprContext@@PAVasCScriptNode@@_N1@Z$2 1005f1d6 f    CIL library: CIL module
 0001:0005e1de       __unwindfunclet$?PrepareForAssignment@asCCompiler@@IAEXPAVasCDataType@@PAUasSExprContext@@PAVasCScriptNode@@_N1@Z$3 1005f1de f    CIL library: CIL module
 0001:0005e1e6       __unwindfunclet$?PrepareForAssignment@asCCompiler@@IAEXPAVasCDataType@@PAUasSExprContext@@PAVasCScriptNode@@_N1@Z$4 1005f1e6 f    CIL library: CIL module
 0001:0005e1ee       __unwindfunclet$?PrepareForAssignment@asCCompiler@@IAEXPAVasCDataType@@PAUasSExprContext@@PAVasCScriptNode@@_N1@Z$5 1005f1ee f    CIL library: CIL module
 0001:0005e1f6       __ehhandler$?PrepareForAssignment@asCCompiler@@IAEXPAVasCDataType@@PAUasSExprContext@@PAVasCScriptNode@@_N1@Z 1005f1f6 f    CIL library: CIL module
 0001:0005e200       __unwindfunclet$?PrepareTemporaryObject@asCCompiler@@IAEXPAVasCScriptNode@@PAUasSExprContext@@_N@Z$0 1005f200 f    CIL library: CIL module
 0001:0005e208       __unwindfunclet$?PrepareTemporaryObject@asCCompiler@@IAEXPAVasCScriptNode@@PAUasSExprContext@@_N@Z$1 1005f208 f    CIL library: CIL module
 0001:0005e210       __ehhandler$?PrepareTemporaryObject@asCCompiler@@IAEXPAVasCScriptNode@@PAUasSExprContext@@_N@Z 1005f210 f    CIL library: CIL module
 0001:0005e21a       __unwindfunclet$?PrepareArgument@asCCompiler@@IAEXPAVasCDataType@@PAUasSExprContext@@PAVasCScriptNode@@_NH3@Z$0 1005f21a f    CIL library: CIL module
 0001:0005e227       __unwindfunclet$?PrepareArgument@asCCompiler@@IAEXPAVasCDataType@@PAUasSExprContext@@PAVasCScriptNode@@_NH3@Z$1 1005f227 f    CIL library: CIL module
 0001:0005e232       __unwindfunclet$?PrepareArgument@asCCompiler@@IAEXPAVasCDataType@@PAUasSExprContext@@PAVasCScriptNode@@_NH3@Z$2 1005f232 f    CIL library: CIL module
 0001:0005e23d       __unwindfunclet$?PrepareArgument@asCCompiler@@IAEXPAVasCDataType@@PAUasSExprContext@@PAVasCScriptNode@@_NH3@Z$3 1005f23d f    CIL library: CIL module
 0001:0005e248       __unwindfunclet$?PrepareArgument@asCCompiler@@IAEXPAVasCDataType@@PAUasSExprContext@@PAVasCScriptNode@@_NH3@Z$4 1005f248 f    CIL library: CIL module
 0001:0005e255       __unwindfunclet$?PrepareArgument@asCCompiler@@IAEXPAVasCDataType@@PAUasSExprContext@@PAVasCScriptNode@@_NH3@Z$5 1005f255 f    CIL library: CIL module
 0001:0005e262       __unwindfunclet$?PrepareArgument@asCCompiler@@IAEXPAVasCDataType@@PAUasSExprContext@@PAVasCScriptNode@@_NH3@Z$6 1005f262 f    CIL library: CIL module
 0001:0005e26f       __unwindfunclet$?PrepareArgument@asCCompiler@@IAEXPAVasCDataType@@PAUasSExprContext@@PAVasCScriptNode@@_NH3@Z$7 1005f26f f    CIL library: CIL module
 0001:0005e27c       __unwindfunclet$?PrepareArgument@asCCompiler@@IAEXPAVasCDataType@@PAUasSExprContext@@PAVasCScriptNode@@_NH3@Z$8 1005f27c f    CIL library: CIL module
 0001:0005e287       __unwindfunclet$?PrepareArgument@asCCompiler@@IAEXPAVasCDataType@@PAUasSExprContext@@PAVasCScriptNode@@_NH3@Z$9 1005f287 f    CIL library: CIL module
 0001:0005e292       __unwindfunclet$?PrepareArgument@asCCompiler@@IAEXPAVasCDataType@@PAUasSExprContext@@PAVasCScriptNode@@_NH3@Z$10 1005f292 f    CIL library: CIL module
 0001:0005e29d       __unwindfunclet$?PrepareArgument@asCCompiler@@IAEXPAVasCDataType@@PAUasSExprContext@@PAVasCScriptNode@@_NH3@Z$11 1005f29d f    CIL library: CIL module
 0001:0005e2a8       __unwindfunclet$?PrepareArgument@asCCompiler@@IAEXPAVasCDataType@@PAUasSExprContext@@PAVasCScriptNode@@_NH3@Z$12 1005f2a8 f    CIL library: CIL module
 0001:0005e2b3       __ehhandler$?PrepareArgument@asCCompiler@@IAEXPAVasCDataType@@PAUasSExprContext@@PAVasCScriptNode@@_NH3@Z 1005f2b3 f    CIL library: CIL module
 0001:0005e2bd       __unwindfunclet$??0asCScriptObject@@QAE@PAVasCObjectType@@_N@Z$0 1005f2bd f    CIL library: CIL module
 0001:0005e2c5       __ehhandler$??0asCScriptObject@@QAE@PAVasCObjectType@@_N@Z 1005f2c5 f    CIL library: CIL module
 0001:0005e2cf       __unwindfunclet$?ScriptObject_ConstructUnitialized@@YAXPAVasCObjectType@@PAVasCScriptObject@@@Z$0 1005f2cf f    CIL library: CIL module
 0001:0005e2d4       __ehhandler$?ScriptObject_ConstructUnitialized@@YAXPAVasCObjectType@@PAVasCScriptObject@@@Z 1005f2d4 f    CIL library: CIL module
 0001:0005e2de       __unwindfunclet$?ScriptObject_Construct@@YAXPAVasCObjectType@@PAVasCScriptObject@@@Z$0 1005f2de f    CIL library: CIL module
 0001:0005e2e3       __ehhandler$?ScriptObject_Construct@@YAXPAVasCObjectType@@PAVasCScriptObject@@@Z 1005f2e3 f    CIL library: CIL module
 0001:0005e2ed       __unwindfunclet$??0asCScriptFunction@@QAE@PAVasCScriptEngine@@PAVasCModule@@W4asEFuncType@@@Z$0 1005f2ed f    CIL library: CIL module
 0001:0005e2f5       __unwindfunclet$??0asCScriptFunction@@QAE@PAVasCScriptEngine@@PAVasCModule@@W4asEFuncType@@@Z$1 1005f2f5 f    CIL library: CIL module
 0001:0005e300       __unwindfunclet$??0asCScriptFunction@@QAE@PAVasCScriptEngine@@PAVasCModule@@W4asEFuncType@@@Z$2 1005f300 f    CIL library: CIL module
 0001:0005e30b       __unwindfunclet$??0asCScriptFunction@@QAE@PAVasCScriptEngine@@PAVasCModule@@W4asEFuncType@@@Z$3 1005f30b f    CIL library: CIL module
 0001:0005e316       __unwindfunclet$??0asCScriptFunction@@QAE@PAVasCScriptEngine@@PAVasCModule@@W4asEFuncType@@@Z$4 1005f316 f    CIL library: CIL module
 0001:0005e321       __ehhandler$??0asCScriptFunction@@QAE@PAVasCScriptEngine@@PAVasCModule@@W4asEFuncType@@@Z 1005f321 f    CIL library: CIL module
 0001:0005e32b       __unwindfunclet$?CreateDelegate@@YAPAVasCScriptFunction@@PAV1@PAX@Z$0 1005f32b f    CIL library: CIL module
 0001:0005e330       __ehhandler$?CreateDelegate@@YAPAVasCScriptFunction@@PAV1@PAX@Z 1005f330 f    CIL library: CIL module
 0001:0005e33a       __unwindfunclet$?GenerateNewTemplateFunction@asCScriptEngine@@QAE_NPAVasCObjectType@@0PAVasCScriptFunction@@PAPAV3@@Z$0 1005f33a f    CIL library: CIL module
 0001:0005e33f       __unwindfunclet$?GenerateNewTemplateFunction@asCScriptEngine@@QAE_NPAVasCObjectType@@0PAVasCScriptFunction@@PAPAV3@@Z$1 1005f33f f    CIL library: CIL module
 0001:0005e344       __unwindfunclet$?GenerateNewTemplateFunction@asCScriptEngine@@QAE_NPAVasCObjectType@@0PAVasCScriptFunction@@PAPAV3@@Z$2 1005f344 f    CIL library: CIL module
 0001:0005e34f       __ehhandler$?GenerateNewTemplateFunction@asCScriptEngine@@QAE_NPAVasCObjectType@@0PAVasCScriptFunction@@PAPAV3@@Z 1005f34f f    CIL library: CIL module
 0001:0005e359       __unwindfunclet$?GenerateTemplateFactoryStub@asCScriptEngine@@QAEPAVasCScriptFunction@@PAVasCObjectType@@0H@Z$0 1005f359 f    CIL library: CIL module
 0001:0005e35e       __ehhandler$?GenerateTemplateFactoryStub@asCScriptEngine@@QAEPAVasCScriptFunction@@PAVasCObjectType@@0H@Z 1005f35e f    CIL library: CIL module
 0001:0005e368       __unwindfunclet$?AddBehaviourFunction@asCScriptEngine@@QAEHAAVasCScriptFunction@@AAUasSSystemFunctionInterface@@@Z$0 1005f368 f    CIL library: CIL module
 0001:0005e36d       __unwindfunclet$?AddBehaviourFunction@asCScriptEngine@@QAEHAAVasCScriptFunction@@AAUasSSystemFunctionInterface@@@Z$3 1005f36d f    CIL library: CIL module
 0001:0005e378       __unwindfunclet$?AddBehaviourFunction@asCScriptEngine@@QAEHAAVasCScriptFunction@@AAUasSSystemFunctionInterface@@@Z$1 1005f378 f    CIL library: CIL module
 0001:0005e37d       __unwindfunclet$?AddBehaviourFunction@asCScriptEngine@@QAEHAAVasCScriptFunction@@AAUasSSystemFunctionInterface@@@Z$2 1005f37d f    CIL library: CIL module
 0001:0005e382       __ehhandler$?AddBehaviourFunction@asCScriptEngine@@QAEHAAVasCScriptFunction@@AAUasSSystemFunctionInterface@@@Z 1005f382 f    CIL library: CIL module
 0001:0005e38c       __unwindfunclet$??1asCScriptEngine@@UAE@XZ$0 1005f38c f    CIL library: CIL module
 0001:0005e394       __unwindfunclet$??1asCScriptEngine@@UAE@XZ$1 1005f394 f    CIL library: CIL module
 0001:0005e3a1       __unwindfunclet$??1asCScriptEngine@@UAE@XZ$2 1005f3a1 f    CIL library: CIL module
 0001:0005e3ae       __unwindfunclet$??1asCScriptEngine@@UAE@XZ$3 1005f3ae f    CIL library: CIL module
 0001:0005e3bd       __unwindfunclet$??1asCScriptEngine@@UAE@XZ$4 1005f3bd f    CIL library: CIL module
 0001:0005e3cc       __unwindfunclet$??1asCScriptEngine@@UAE@XZ$5 1005f3cc f    CIL library: CIL module
 0001:0005e3db       __unwindfunclet$??1asCScriptEngine@@UAE@XZ$6 1005f3db f    CIL library: CIL module
 0001:0005e3e9       __unwindfunclet$??1asCScriptEngine@@UAE@XZ$7 1005f3e9 f    CIL library: CIL module
 0001:0005e3f7       __unwindfunclet$??1asCScriptEngine@@UAE@XZ$8 1005f3f7 f    CIL library: CIL module
 0001:0005e405       __unwindfunclet$??1asCScriptEngine@@UAE@XZ$9 1005f405 f    CIL library: CIL module
 0001:0005e414       __unwindfunclet$??1asCScriptEngine@@UAE@XZ$10 1005f414 f    CIL library: CIL module
 0001:0005e422       __unwindfunclet$??1asCScriptEngine@@UAE@XZ$11 1005f422 f    CIL library: CIL module
 0001:0005e430       __unwindfunclet$??1asCScriptEngine@@UAE@XZ$12 1005f430 f    CIL library: CIL module
 0001:0005e43e       __unwindfunclet$??1asCScriptEngine@@UAE@XZ$13 1005f43e f    CIL library: CIL module
 0001:0005e44c       __unwindfunclet$??1asCScriptEngine@@UAE@XZ$14 1005f44c f    CIL library: CIL module
 0001:0005e45a       __unwindfunclet$??1asCScriptEngine@@UAE@XZ$15 1005f45a f    CIL library: CIL module
 0001:0005e468       __unwindfunclet$??1asCScriptEngine@@UAE@XZ$16 1005f468 f    CIL library: CIL module
 0001:0005e476       __unwindfunclet$??1asCScriptEngine@@UAE@XZ$17 1005f476 f    CIL library: CIL module
 0001:0005e484       __unwindfunclet$??1asCScriptEngine@@UAE@XZ$18 1005f484 f    CIL library: CIL module
 0001:0005e492       __unwindfunclet$??1asCScriptEngine@@UAE@XZ$19 1005f492 f    CIL library: CIL module
 0001:0005e4a0       __unwindfunclet$??1asCScriptEngine@@UAE@XZ$20 1005f4a0 f    CIL library: CIL module
 0001:0005e4ae       __unwindfunclet$??1asCScriptEngine@@UAE@XZ$21 1005f4ae f    CIL library: CIL module
 0001:0005e4bc       __unwindfunclet$??1asCScriptEngine@@UAE@XZ$22 1005f4bc f    CIL library: CIL module
 0001:0005e4ca       __unwindfunclet$??1asCScriptEngine@@UAE@XZ$23 1005f4ca f    CIL library: CIL module
 0001:0005e4d8       __unwindfunclet$??1asCScriptEngine@@UAE@XZ$24 1005f4d8 f    CIL library: CIL module
 0001:0005e4e6       __unwindfunclet$??1asCScriptEngine@@UAE@XZ$25 1005f4e6 f    CIL library: CIL module
 0001:0005e4f3       __unwindfunclet$??1asCScriptEngine@@UAE@XZ$26 1005f4f3 f    CIL library: CIL module
 0001:0005e501       __unwindfunclet$??1asCScriptEngine@@UAE@XZ$27 1005f501 f    CIL library: CIL module
 0001:0005e50f       __unwindfunclet$??1asCScriptEngine@@UAE@XZ$28 1005f50f f    CIL library: CIL module
 0001:0005e51d       __unwindfunclet$??1asCScriptEngine@@UAE@XZ$29 1005f51d f    CIL library: CIL module
 0001:0005e52b       __unwindfunclet$??1asCScriptEngine@@UAE@XZ$30 1005f52b f    CIL library: CIL module
 0001:0005e539       __unwindfunclet$??1asCScriptEngine@@UAE@XZ$31 1005f539 f    CIL library: CIL module
 0001:0005e548       __unwindfunclet$??1asCScriptEngine@@UAE@XZ$32 1005f548 f    CIL library: CIL module
 0001:0005e557       __unwindfunclet$??1asCScriptEngine@@UAE@XZ$33 1005f557 f    CIL library: CIL module
 0001:0005e565       __unwindfunclet$??1asCScriptEngine@@UAE@XZ$34 1005f565 f    CIL library: CIL module
 0001:0005e572       __unwindfunclet$??1asCScriptEngine@@UAE@XZ$35 1005f572 f    CIL library: CIL module
 0001:0005e580       __unwindfunclet$??1asCScriptEngine@@UAE@XZ$36 1005f580 f    CIL library: CIL module
 0001:0005e58e       __unwindfunclet$??1asCScriptEngine@@UAE@XZ$37 1005f58e f    CIL library: CIL module
 0001:0005e59c       __unwindfunclet$??1asCScriptEngine@@UAE@XZ$38 1005f59c f    CIL library: CIL module
 0001:0005e5aa       __unwindfunclet$??1asCScriptEngine@@UAE@XZ$39 1005f5aa f    CIL library: CIL module
 0001:0005e5b8       __unwindfunclet$??1asCScriptEngine@@UAE@XZ$40 1005f5b8 f    CIL library: CIL module
 0001:0005e5c6       __unwindfunclet$??1asCScriptEngine@@UAE@XZ$41 1005f5c6 f    CIL library: CIL module
 0001:0005e5d4       __unwindfunclet$??1asCScriptEngine@@UAE@XZ$44 1005f5d4 f    CIL library: CIL module
 0001:0005e5de       __ehhandler$??1asCScriptEngine@@UAE@XZ 1005f5de f    CIL library: CIL module
 0001:0005e5e8       __unwindfunclet$?ReadDataType@asCReader@@IAEXPAVasCDataType@@@Z$0 1005f5e8 f    CIL library: CIL module
 0001:0005e5f5       __ehhandler$?ReadDataType@asCReader@@IAEXPAVasCDataType@@@Z 1005f5f5 f    CIL library: CIL module
 0001:0005e5ff       __unwindfunclet$?ReadObjectProperty@asCReader@@IAEXPAVasCObjectType@@@Z$0 1005f5ff f    CIL library: CIL module
 0001:0005e607       __ehhandler$?ReadObjectProperty@asCReader@@IAEXPAVasCObjectType@@@Z 1005f607 f    CIL library: CIL module
 0001:0005e611       __unwindfunclet$?ReadUsedFunctions@asCReader@@IAEXXZ$0 1005f611 f    CIL library: CIL module
 0001:0005e61e       __ehhandler$?ReadUsedFunctions@asCReader@@IAEXXZ 1005f61e f    CIL library: CIL module
 0001:0005e628       __unwindfunclet$?ParseInterfaceMethod@asCParser@@IAEPAVasCScriptNode@@XZ$0 1005f628 f    CIL library: CIL module
 0001:0005e630       __ehhandler$?ParseInterfaceMethod@asCParser@@IAEPAVasCScriptNode@@XZ 1005f630 f    CIL library: CIL module
 0001:0005e63a       __unwindfunclet$?ParseFuncDef@asCParser@@IAEPAVasCScriptNode@@XZ$0 1005f63a f    CIL library: CIL module
 0001:0005e642       __unwindfunclet$?ParseFuncDef@asCParser@@IAEPAVasCScriptNode@@XZ$1 1005f642 f    CIL library: CIL module
 0001:0005e64a       __ehhandler$?ParseFuncDef@asCParser@@IAEPAVasCScriptNode@@XZ 1005f64a f    CIL library: CIL module
 0001:0005e654       __unwindfunclet$?ParseImport@asCParser@@IAEPAVasCScriptNode@@XZ$0 1005f654 f    CIL library: CIL module
 0001:0005e65c       __unwindfunclet$?ParseImport@asCParser@@IAEPAVasCScriptNode@@XZ$1 1005f65c f    CIL library: CIL module
 0001:0005e664       __unwindfunclet$?ParseImport@asCParser@@IAEPAVasCScriptNode@@XZ$2 1005f664 f    CIL library: CIL module
 0001:0005e66c       __unwindfunclet$?ParseImport@asCParser@@IAEPAVasCScriptNode@@XZ$3 1005f66c f    CIL library: CIL module
 0001:0005e674       __unwindfunclet$?ParseImport@asCParser@@IAEPAVasCScriptNode@@XZ$4 1005f674 f    CIL library: CIL module
 0001:0005e67c       __ehhandler$?ParseImport@asCParser@@IAEPAVasCScriptNode@@XZ 1005f67c f    CIL library: CIL module
 0001:0005e686       __unwindfunclet$?ParseExprValue@asCParser@@IAEPAVasCScriptNode@@XZ$0 1005f686 f    CIL library: CIL module
 0001:0005e68e       __unwindfunclet$?ParseExprValue@asCParser@@IAEPAVasCScriptNode@@XZ$1 1005f68e f    CIL library: CIL module
 0001:0005e696       __ehhandler$?ParseExprValue@asCParser@@IAEPAVasCScriptNode@@XZ 1005f696 f    CIL library: CIL module
 0001:0005e6a0       __unwindfunclet$?AddFuncDef@asCModule@@QAEHABVasCString@@PAUasSNameSpace@@@Z$0 1005f6a0 f    CIL library: CIL module
 0001:0005e6a5       __ehhandler$?AddFuncDef@asCModule@@QAEHABVasCString@@PAUasSNameSpace@@@Z 1005f6a5 f    CIL library: CIL module
 0001:0005e6af       __unwindfunclet$?SaveByteCode@asCModule@@UBEHPAVasIBinaryStream@@_N@Z$0 1005f6af f    CIL library: CIL module
 0001:0005e6bc       __ehhandler$?SaveByteCode@asCModule@@UBEHPAVasIBinaryStream@@_N@Z 1005f6bc f    CIL library: CIL module
 0001:0005e6c6       __unwindfunclet$?AddImportedFunction@asCModule@@QAEHHABVasCString@@ABVasCDataType@@ABV?$asCArray@VasCDataType@@@@ABV?$asCArray@W4asETypeModifiers@@@@ABV?$asCArray@PAVasCString@@@@PAUasSNameSpace@@0@Z$0 1005f6c6 f    CIL library: CIL module
 0001:0005e6cb       __ehhandler$?AddImportedFunction@asCModule@@QAEHHABVasCString@@ABVasCDataType@@ABV?$asCArray@VasCDataType@@@@ABV?$asCArray@W4asETypeModifiers@@@@ABV?$asCArray@PAVasCString@@@@PAUasSNameSpace@@0@Z 1005f6cb f    CIL library: CIL module
 0001:0005e6d5       __unwindfunclet$?AddScriptFunction@asCModule@@QAEHHHHABVasCString@@ABVasCDataType@@ABV?$asCArray@VasCDataType@@@@ABV?$asCArray@W4asETypeModifiers@@@@ABV?$asCArray@PAVasCString@@@@_NPAVasCObjectType@@555555PAUasSNameSpace@@@Z$0 1005f6d5 f    CIL library: CIL module
 0001:0005e6da       __ehhandler$?AddScriptFunction@asCModule@@QAEHHHHABVasCString@@ABVasCDataType@@ABV?$asCArray@VasCDataType@@@@ABV?$asCArray@W4asETypeModifiers@@@@ABV?$asCArray@PAVasCString@@@@_NPAVasCObjectType@@555555PAUasSNameSpace@@@Z 1005f6da f    CIL library: CIL module
 0001:0005e6e4       __unwindfunclet$?MakeArray@asCDataType@@QAEHPAVasCScriptEngine@@@Z$0 1005f6e4 f    CIL library: CIL module
 0001:0005e6ec       __ehhandler$?MakeArray@asCDataType@@QAEHPAVasCScriptEngine@@@Z 1005f6ec f    CIL library: CIL module
 0001:0005e6f6       __unwindfunclet$?Execute@asCContext@@UAEHXZ$0 1005f6f6 f    CIL library: CIL module
 0001:0005e6fe       __ehhandler$?Execute@asCContext@@UAEHXZ 1005f6fe f    CIL library: CIL module
 0001:0005e708       __unwindfunclet$?PrepareFunctionCall@asCCompiler@@IAEXHPAVasCByteCode@@AAV?$asCArray@PAUasSExprContext@@@@@Z$0 1005f708 f    CIL library: CIL module
 0001:0005e713       __ehhandler$?PrepareFunctionCall@asCCompiler@@IAEXHPAVasCByteCode@@AAV?$asCArray@PAUasSExprContext@@@@@Z 1005f713 f    CIL library: CIL module
 0001:0005e71d       __unwindfunclet$?CreateDataTypeFromNode@asCBuilder@@IAE?AVasCDataType@@PAVasCScriptNode@@PAVasCScriptCode@@PAUasSNameSpace@@_NPAVasCObjectType@@@Z$0 1005f71d f    CIL library: CIL module
 0001:0005e728       __unwindfunclet$?CreateDataTypeFromNode@asCBuilder@@IAE?AVasCDataType@@PAVasCScriptNode@@PAVasCScriptCode@@PAUasSNameSpace@@_NPAVasCObjectType@@@Z$6 1005f728 f    CIL library: CIL module
 0001:0005e730       __unwindfunclet$?CreateDataTypeFromNode@asCBuilder@@IAE?AVasCDataType@@PAVasCScriptNode@@PAVasCScriptCode@@PAUasSNameSpace@@_NPAVasCObjectType@@@Z$1 1005f730 f    CIL library: CIL module
 0001:0005e738       __unwindfunclet$?CreateDataTypeFromNode@asCBuilder@@IAE?AVasCDataType@@PAVasCScriptNode@@PAVasCScriptCode@@PAUasSNameSpace@@_NPAVasCObjectType@@@Z$4 1005f738 f    CIL library: CIL module
 0001:0005e743       __unwindfunclet$?CreateDataTypeFromNode@asCBuilder@@IAE?AVasCDataType@@PAVasCScriptNode@@PAVasCScriptCode@@PAUasSNameSpace@@_NPAVasCObjectType@@@Z$5 1005f743 f    CIL library: CIL module
 0001:0005e74b       __unwindfunclet$?CreateDataTypeFromNode@asCBuilder@@IAE?AVasCDataType@@PAVasCScriptNode@@PAVasCScriptCode@@PAUasSNameSpace@@_NPAVasCObjectType@@@Z$7 1005f74b f    CIL library: CIL module
 0001:0005e756       __unwindfunclet$?CreateDataTypeFromNode@asCBuilder@@IAE?AVasCDataType@@PAVasCScriptNode@@PAVasCScriptCode@@PAUasSNameSpace@@_NPAVasCObjectType@@@Z$2 1005f756 f    CIL library: CIL module
 0001:0005e761       __unwindfunclet$?CreateDataTypeFromNode@asCBuilder@@IAE?AVasCDataType@@PAVasCScriptNode@@PAVasCScriptCode@@PAUasSNameSpace@@_NPAVasCObjectType@@@Z$3 1005f761 f    CIL library: CIL module
 0001:0005e76c       __unwindfunclet$?CreateDataTypeFromNode@asCBuilder@@IAE?AVasCDataType@@PAVasCScriptNode@@PAVasCScriptCode@@PAUasSNameSpace@@_NPAVasCObjectType@@@Z$8 1005f76c f    CIL library: CIL module
 0001:0005e777       __unwindfunclet$?CreateDataTypeFromNode@asCBuilder@@IAE?AVasCDataType@@PAVasCScriptNode@@PAVasCScriptCode@@PAUasSNameSpace@@_NPAVasCObjectType@@@Z$9 1005f777 f    CIL library: CIL module
 0001:0005e77f       __unwindfunclet$?CreateDataTypeFromNode@asCBuilder@@IAE?AVasCDataType@@PAVasCScriptNode@@PAVasCScriptCode@@PAUasSNameSpace@@_NPAVasCObjectType@@@Z$10 1005f77f f    CIL library: CIL module
 0001:0005e78a       __unwindfunclet$?CreateDataTypeFromNode@asCBuilder@@IAE?AVasCDataType@@PAVasCScriptNode@@PAVasCScriptCode@@PAUasSNameSpace@@_NPAVasCObjectType@@@Z$11 1005f78a f    CIL library: CIL module
 0001:0005e795       __unwindfunclet$?CreateDataTypeFromNode@asCBuilder@@IAE?AVasCDataType@@PAVasCScriptNode@@PAVasCScriptCode@@PAUasSNameSpace@@_NPAVasCObjectType@@@Z$12 1005f795 f    CIL library: CIL module
 0001:0005e79d       __ehhandler$?CreateDataTypeFromNode@asCBuilder@@IAE?AVasCDataType@@PAVasCScriptNode@@PAVasCScriptCode@@PAUasSNameSpace@@_NPAVasCObjectType@@@Z 1005f79d f    CIL library: CIL module
 0001:0005e7a7       __unwindfunclet$?RegisterScriptFunction@asCBuilder@@IAEHPAVasCScriptNode@@PAVasCScriptCode@@PAVasCObjectType@@_N3PAUasSNameSpace@@33AAVasCString@@AAVasCDataType@@AAV?$asCArray@VasCString@@@@AAV?$asCArray@VasCDataType@@@@AAV?$asCArray@W4asETypeModifiers@@@@AAV?$asCArray@PAVasCString@@@@3333333@Z$0 1005f7a7 f    CIL library: CIL module
 0001:0005e7b2       __unwindfunclet$?RegisterScriptFunction@asCBuilder@@IAEHPAVasCScriptNode@@PAVasCScriptCode@@PAVasCObjectType@@_N3PAUasSNameSpace@@33AAVasCString@@AAVasCDataType@@AAV?$asCArray@VasCString@@@@AAV?$asCArray@VasCDataType@@@@AAV?$asCArray@W4asETypeModifiers@@@@AAV?$asCArray@PAVasCString@@@@3333333@Z$1 1005f7b2 f    CIL library: CIL module
 0001:0005e7bd       __unwindfunclet$?RegisterScriptFunction@asCBuilder@@IAEHPAVasCScriptNode@@PAVasCScriptCode@@PAVasCObjectType@@_N3PAUasSNameSpace@@33AAVasCString@@AAVasCDataType@@AAV?$asCArray@VasCString@@@@AAV?$asCArray@VasCDataType@@@@AAV?$asCArray@W4asETypeModifiers@@@@AAV?$asCArray@PAVasCString@@@@3333333@Z$2 1005f7bd f    CIL library: CIL module
 0001:0005e7c8       __unwindfunclet$?RegisterScriptFunction@asCBuilder@@IAEHPAVasCScriptNode@@PAVasCScriptCode@@PAVasCObjectType@@_N3PAUasSNameSpace@@33AAVasCString@@AAVasCDataType@@AAV?$asCArray@VasCString@@@@AAV?$asCArray@VasCDataType@@@@AAV?$asCArray@W4asETypeModifiers@@@@AAV?$asCArray@PAVasCString@@@@3333333@Z$3 1005f7c8 f    CIL library: CIL module
 0001:0005e7d3       __unwindfunclet$?RegisterScriptFunction@asCBuilder@@IAEHPAVasCScriptNode@@PAVasCScriptCode@@PAVasCObjectType@@_N3PAUasSNameSpace@@33AAVasCString@@AAVasCDataType@@AAV?$asCArray@VasCString@@@@AAV?$asCArray@VasCDataType@@@@AAV?$asCArray@W4asETypeModifiers@@@@AAV?$asCArray@PAVasCString@@@@3333333@Z$4 1005f7d3 f    CIL library: CIL module
 0001:0005e7de       __unwindfunclet$?RegisterScriptFunction@asCBuilder@@IAEHPAVasCScriptNode@@PAVasCScriptCode@@PAVasCObjectType@@_N3PAUasSNameSpace@@33AAVasCString@@AAVasCDataType@@AAV?$asCArray@VasCString@@@@AAV?$asCArray@VasCDataType@@@@AAV?$asCArray@W4asETypeModifiers@@@@AAV?$asCArray@PAVasCString@@@@3333333@Z$6 1005f7de f    CIL library: CIL module
 0001:0005e7e9       __unwindfunclet$?RegisterScriptFunction@asCBuilder@@IAEHPAVasCScriptNode@@PAVasCScriptCode@@PAVasCObjectType@@_N3PAUasSNameSpace@@33AAVasCString@@AAVasCDataType@@AAV?$asCArray@VasCString@@@@AAV?$asCArray@VasCDataType@@@@AAV?$asCArray@W4asETypeModifiers@@@@AAV?$asCArray@PAVasCString@@@@3333333@Z$7 1005f7e9 f    CIL library: CIL module
 0001:0005e7f4       __unwindfunclet$?RegisterScriptFunction@asCBuilder@@IAEHPAVasCScriptNode@@PAVasCScriptCode@@PAVasCObjectType@@_N3PAUasSNameSpace@@33AAVasCString@@AAVasCDataType@@AAV?$asCArray@VasCString@@@@AAV?$asCArray@VasCDataType@@@@AAV?$asCArray@W4asETypeModifiers@@@@AAV?$asCArray@PAVasCString@@@@3333333@Z$8 1005f7f4 f    CIL library: CIL module
 0001:0005e7ff       __unwindfunclet$?RegisterScriptFunction@asCBuilder@@IAEHPAVasCScriptNode@@PAVasCScriptCode@@PAVasCObjectType@@_N3PAUasSNameSpace@@33AAVasCString@@AAVasCDataType@@AAV?$asCArray@VasCString@@@@AAV?$asCArray@VasCDataType@@@@AAV?$asCArray@W4asETypeModifiers@@@@AAV?$asCArray@PAVasCString@@@@3333333@Z$9 1005f7ff f    CIL library: CIL module
 0001:0005e80a       __unwindfunclet$?RegisterScriptFunction@asCBuilder@@IAEHPAVasCScriptNode@@PAVasCScriptCode@@PAVasCObjectType@@_N3PAUasSNameSpace@@33AAVasCString@@AAVasCDataType@@AAV?$asCArray@VasCString@@@@AAV?$asCArray@VasCDataType@@@@AAV?$asCArray@W4asETypeModifiers@@@@AAV?$asCArray@PAVasCString@@@@3333333@Z$10 1005f80a f    CIL library: CIL module
 0001:0005e815       __unwindfunclet$?RegisterScriptFunction@asCBuilder@@IAEHPAVasCScriptNode@@PAVasCScriptCode@@PAVasCObjectType@@_N3PAUasSNameSpace@@33AAVasCString@@AAVasCDataType@@AAV?$asCArray@VasCString@@@@AAV?$asCArray@VasCDataType@@@@AAV?$asCArray@W4asETypeModifiers@@@@AAV?$asCArray@PAVasCString@@@@3333333@Z$14 1005f815 f    CIL library: CIL module
 0001:0005e823       __unwindfunclet$?RegisterScriptFunction@asCBuilder@@IAEHPAVasCScriptNode@@PAVasCScriptCode@@PAVasCObjectType@@_N3PAUasSNameSpace@@33AAVasCString@@AAVasCDataType@@AAV?$asCArray@VasCString@@@@AAV?$asCArray@VasCDataType@@@@AAV?$asCArray@W4asETypeModifiers@@@@AAV?$asCArray@PAVasCString@@@@3333333@Z$11 1005f823 f    CIL library: CIL module
 0001:0005e82e       __unwindfunclet$?RegisterScriptFunction@asCBuilder@@IAEHPAVasCScriptNode@@PAVasCScriptCode@@PAVasCObjectType@@_N3PAUasSNameSpace@@33AAVasCString@@AAVasCDataType@@AAV?$asCArray@VasCString@@@@AAV?$asCArray@VasCDataType@@@@AAV?$asCArray@W4asETypeModifiers@@@@AAV?$asCArray@PAVasCString@@@@3333333@Z$12 1005f82e f    CIL library: CIL module
 0001:0005e833       __unwindfunclet$?RegisterScriptFunction@asCBuilder@@IAEHPAVasCScriptNode@@PAVasCScriptCode@@PAVasCObjectType@@_N3PAUasSNameSpace@@33AAVasCString@@AAVasCDataType@@AAV?$asCArray@VasCString@@@@AAV?$asCArray@VasCDataType@@@@AAV?$asCArray@W4asETypeModifiers@@@@AAV?$asCArray@PAVasCString@@@@3333333@Z$13 1005f833 f    CIL library: CIL module
 0001:0005e840       __ehhandler$?RegisterScriptFunction@asCBuilder@@IAEHPAVasCScriptNode@@PAVasCScriptCode@@PAVasCObjectType@@_N3PAUasSNameSpace@@33AAVasCString@@AAVasCDataType@@AAV?$asCArray@VasCString@@@@AAV?$asCArray@VasCDataType@@@@AAV?$asCArray@W4asETypeModifiers@@@@AAV?$asCArray@PAVasCString@@@@3333333@Z 1005f840 f    CIL library: CIL module
 0001:0005e84a       __unwindfunclet$?GetParsedFunctionDetails@asCBuilder@@IAEXPAVasCScriptNode@@PAVasCScriptCode@@PAVasCObjectType@@AAVasCString@@AAVasCDataType@@AAV?$asCArray@VasCString@@@@AAV?$asCArray@VasCDataType@@@@AAV?$asCArray@W4asETypeModifiers@@@@AAV?$asCArray@PAVasCString@@@@AA_N999999PAUasSNameSpace@@@Z$0 1005f84a f    CIL library: CIL module
 0001:0005e852       __unwindfunclet$?GetParsedFunctionDetails@asCBuilder@@IAEXPAVasCScriptNode@@PAVasCScriptCode@@PAVasCObjectType@@AAVasCString@@AAVasCDataType@@AAV?$asCArray@VasCString@@@@AAV?$asCArray@VasCDataType@@@@AAV?$asCArray@W4asETypeModifiers@@@@AAV?$asCArray@PAVasCString@@@@AA_N999999PAUasSNameSpace@@@Z$1 1005f852 f    CIL library: CIL module
 0001:0005e85a       __unwindfunclet$?GetParsedFunctionDetails@asCBuilder@@IAEXPAVasCScriptNode@@PAVasCScriptCode@@PAVasCObjectType@@AAVasCString@@AAVasCDataType@@AAV?$asCArray@VasCString@@@@AAV?$asCArray@VasCDataType@@@@AAV?$asCArray@W4asETypeModifiers@@@@AAV?$asCArray@PAVasCString@@@@AA_N999999PAUasSNameSpace@@@Z$2 1005f85a f    CIL library: CIL module
 0001:0005e862       __unwindfunclet$?GetParsedFunctionDetails@asCBuilder@@IAEXPAVasCScriptNode@@PAVasCScriptCode@@PAVasCObjectType@@AAVasCString@@AAVasCDataType@@AAV?$asCArray@VasCString@@@@AAV?$asCArray@VasCDataType@@@@AAV?$asCArray@W4asETypeModifiers@@@@AAV?$asCArray@PAVasCString@@@@AA_N999999PAUasSNameSpace@@@Z$3 1005f862 f    CIL library: CIL module
 0001:0005e86a       __unwindfunclet$?GetParsedFunctionDetails@asCBuilder@@IAEXPAVasCScriptNode@@PAVasCScriptCode@@PAVasCObjectType@@AAVasCString@@AAVasCDataType@@AAV?$asCArray@VasCString@@@@AAV?$asCArray@VasCDataType@@@@AAV?$asCArray@W4asETypeModifiers@@@@AAV?$asCArray@PAVasCString@@@@AA_N999999PAUasSNameSpace@@@Z$5 1005f86a f    CIL library: CIL module
 0001:0005e872       __ehhandler$?GetParsedFunctionDetails@asCBuilder@@IAEXPAVasCScriptNode@@PAVasCScriptCode@@PAVasCObjectType@@AAVasCString@@AAVasCDataType@@AAV?$asCArray@VasCString@@@@AAV?$asCArray@VasCDataType@@@@AAV?$asCArray@W4asETypeModifiers@@@@AAV?$asCArray@PAVasCString@@@@AA_N999999PAUasSNameSpace@@@Z 1005f872 f    CIL library: CIL module
 0001:0005e87c       __unwindfunclet$?RegisterEnum@asCBuilder@@IAEHPAVasCScriptNode@@PAVasCScriptCode@@PAUasSNameSpace@@@Z$0 1005f87c f    CIL library: CIL module
 0001:0005e884       __unwindfunclet$?RegisterEnum@asCBuilder@@IAEHPAVasCScriptNode@@PAVasCScriptCode@@PAUasSNameSpace@@@Z$3 1005f884 f    CIL library: CIL module
 0001:0005e88c       __unwindfunclet$?RegisterEnum@asCBuilder@@IAEHPAVasCScriptNode@@PAVasCScriptCode@@PAUasSNameSpace@@@Z$4 1005f88c f    CIL library: CIL module
 0001:0005e894       __unwindfunclet$?RegisterEnum@asCBuilder@@IAEHPAVasCScriptNode@@PAVasCScriptCode@@PAUasSNameSpace@@@Z$5 1005f894 f    CIL library: CIL module
 0001:0005e89c       __ehhandler$?RegisterEnum@asCBuilder@@IAEHPAVasCScriptNode@@PAVasCScriptCode@@PAUasSNameSpace@@@Z 1005f89c f    CIL library: CIL module
 0001:0005e8a6       __unwindfunclet$?AddDefaultConstructor@asCBuilder@@IAEXPAVasCObjectType@@PAVasCScriptCode@@@Z$0 1005f8a6 f    CIL library: CIL module
 0001:0005e8b1       __unwindfunclet$?AddDefaultConstructor@asCBuilder@@IAEXPAVasCObjectType@@PAVasCScriptCode@@@Z$1 1005f8b1 f    CIL library: CIL module
 0001:0005e8bc       __unwindfunclet$?AddDefaultConstructor@asCBuilder@@IAEXPAVasCObjectType@@PAVasCScriptCode@@@Z$2 1005f8bc f    CIL library: CIL module
 0001:0005e8c7       __unwindfunclet$?AddDefaultConstructor@asCBuilder@@IAEXPAVasCObjectType@@PAVasCScriptCode@@@Z$4 1005f8c7 f    CIL library: CIL module
 0001:0005e8d4       __ehhandler$?AddDefaultConstructor@asCBuilder@@IAEXPAVasCObjectType@@PAVasCScriptCode@@@Z 1005f8d4 f    CIL library: CIL module
 0001:0005e8de       __unwindfunclet$?CreateVirtualFunction@asCBuilder@@IAEHPAVasCScriptFunction@@H@Z$0 1005f8de f    CIL library: CIL module
 0001:0005e8e3       __unwindfunclet$?CreateVirtualFunction@asCBuilder@@IAEHPAVasCScriptFunction@@H@Z$1 1005f8e3 f    CIL library: CIL module
 0001:0005e8e8       __ehhandler$?CreateVirtualFunction@asCBuilder@@IAEHPAVasCScriptFunction@@H@Z 1005f8e8 f    CIL library: CIL module
 0001:0005e8f2       __unwindfunclet$?IncludePropertiesFromMixins@asCBuilder@@IAEXPAUsClassDeclaration@@@Z$0 1005f8f2 f    CIL library: CIL module
 0001:0005e8fa       __unwindfunclet$?IncludePropertiesFromMixins@asCBuilder@@IAEXPAUsClassDeclaration@@@Z$1 1005f8fa f    CIL library: CIL module
 0001:0005e902       __unwindfunclet$?IncludePropertiesFromMixins@asCBuilder@@IAEXPAUsClassDeclaration@@@Z$2 1005f902 f    CIL library: CIL module
 0001:0005e90a       __unwindfunclet$?IncludePropertiesFromMixins@asCBuilder@@IAEXPAUsClassDeclaration@@@Z$3 1005f90a f    CIL library: CIL module
 0001:0005e912       __unwindfunclet$?IncludePropertiesFromMixins@asCBuilder@@IAEXPAUsClassDeclaration@@@Z$4 1005f912 f    CIL library: CIL module
 0001:0005e91d       __unwindfunclet$?IncludePropertiesFromMixins@asCBuilder@@IAEXPAUsClassDeclaration@@@Z$5 1005f91d f    CIL library: CIL module
 0001:0005e925       __unwindfunclet$?IncludePropertiesFromMixins@asCBuilder@@IAEXPAUsClassDeclaration@@@Z$6 1005f925 f    CIL library: CIL module
 0001:0005e92d       __unwindfunclet$?IncludePropertiesFromMixins@asCBuilder@@IAEXPAUsClassDeclaration@@@Z$7 1005f92d f    CIL library: CIL module
 0001:0005e935       __ehhandler$?IncludePropertiesFromMixins@asCBuilder@@IAEXPAUsClassDeclaration@@@Z 1005f935 f    CIL library: CIL module
 0001:0005e93f       __unwindfunclet$?RegisterGlobalVar@asCBuilder@@IAEHPAVasCScriptNode@@PAVasCScriptCode@@PAUasSNameSpace@@@Z$0 1005f93f f    CIL library: CIL module
 0001:0005e947       __unwindfunclet$?RegisterGlobalVar@asCBuilder@@IAEHPAVasCScriptNode@@PAVasCScriptCode@@PAUasSNameSpace@@@Z$1 1005f947 f    CIL library: CIL module
 0001:0005e94f       __unwindfunclet$?RegisterGlobalVar@asCBuilder@@IAEHPAVasCScriptNode@@PAVasCScriptCode@@PAUasSNameSpace@@@Z$2 1005f94f f    CIL library: CIL module
 0001:0005e957       __unwindfunclet$?RegisterGlobalVar@asCBuilder@@IAEHPAVasCScriptNode@@PAVasCScriptCode@@PAUasSNameSpace@@@Z$3 1005f957 f    CIL library: CIL module
 0001:0005e95f       __ehhandler$?RegisterGlobalVar@asCBuilder@@IAEHPAVasCScriptNode@@PAVasCScriptCode@@PAUasSNameSpace@@@Z 1005f95f f    CIL library: CIL module
 0001:0005e969       __unwindfunclet$?CompleteFuncDef@asCBuilder@@IAEXPAUsFuncDef@@@Z$0 1005f969 f    CIL library: CIL module
 0001:0005e971       __unwindfunclet$?CompleteFuncDef@asCBuilder@@IAEXPAUsFuncDef@@@Z$1 1005f971 f    CIL library: CIL module
 0001:0005e979       __ehhandler$?CompleteFuncDef@asCBuilder@@IAEXPAUsFuncDef@@@Z 1005f979 f    CIL library: CIL module
 0001:0005e983       __unwindfunclet$?RegisterFuncDef@asCBuilder@@IAEHPAVasCScriptNode@@PAVasCScriptCode@@PAUasSNameSpace@@@Z$0 1005f983 f    CIL library: CIL module
 0001:0005e98b       __ehhandler$?RegisterFuncDef@asCBuilder@@IAEHPAVasCScriptNode@@PAVasCScriptCode@@PAUasSNameSpace@@@Z 1005f98b f    CIL library: CIL module
 0001:0005e995       __unwindfunclet$?ParseVariableDeclaration@asCBuilder@@QAEHPBDPAUasSNameSpace@@AAVasCString@@AAPAU2@AAVasCDataType@@@Z$0 1005f995 f    CIL library: CIL module
 0001:0005e99f       __unwindfunclet$?ParseVariableDeclaration@asCBuilder@@QAEHPBDPAUasSNameSpace@@AAVasCString@@AAPAU2@AAVasCDataType@@@Z$1 1005f99f f    CIL library: CIL module
 0001:0005e9a9       __ehhandler$?ParseVariableDeclaration@asCBuilder@@QAEHPBDPAUasSNameSpace@@AAVasCString@@AAPAU2@AAVasCDataType@@@Z 1005f9a9 f    CIL library: CIL module
 0001:0005e9b3       __unwindfunclet$?ParseFunctionDeclaration@asCBuilder@@QAEHPAVasCObjectType@@PBDPAVasCScriptFunction@@_NPAV?$asCArray@_N@@PA_NPAUasSNameSpace@@PAPAVasCScriptNode@@@Z$0 1005f9b3 f    CIL library: CIL module
 0001:0005e9c0       __unwindfunclet$?ParseFunctionDeclaration@asCBuilder@@QAEHPAVasCObjectType@@PBDPAVasCScriptFunction@@_NPAV?$asCArray@_N@@PA_NPAUasSNameSpace@@PAPAVasCScriptNode@@@Z$1 1005f9c0 f    CIL library: CIL module
 0001:0005e9ca       __unwindfunclet$?ParseFunctionDeclaration@asCBuilder@@QAEHPAVasCObjectType@@PBDPAVasCScriptFunction@@_NPAV?$asCArray@_N@@PA_NPAUasSNameSpace@@PAPAVasCScriptNode@@@Z$2 1005f9ca f    CIL library: CIL module
 0001:0005e9d5       __unwindfunclet$?ParseFunctionDeclaration@asCBuilder@@QAEHPAVasCObjectType@@PBDPAVasCScriptFunction@@_NPAV?$asCArray@_N@@PA_NPAUasSNameSpace@@PAPAVasCScriptNode@@@Z$4 1005f9d5 f    CIL library: CIL module
 0001:0005e9dd       __ehhandler$?ParseFunctionDeclaration@asCBuilder@@QAEHPAVasCObjectType@@PBDPAVasCScriptFunction@@_NPAV?$asCArray@_N@@PA_NPAUasSNameSpace@@PAPAVasCScriptNode@@@Z 1005f9dd f    CIL library: CIL module
 0001:0005e9e7       __unwindfunclet$?VerifyProperty@asCBuilder@@QAEHPAVasCDataType@@PBDAAVasCString@@AAV2@PAUasSNameSpace@@@Z$0 1005f9e7 f    CIL library: CIL module
 0001:0005e9f1       __unwindfunclet$?VerifyProperty@asCBuilder@@QAEHPAVasCDataType@@PBDAAVasCString@@AAV2@PAUasSNameSpace@@@Z$1 1005f9f1 f    CIL library: CIL module
 0001:0005e9fb       __ehhandler$?VerifyProperty@asCBuilder@@QAEHPAVasCDataType@@PBDAAVasCString@@AAV2@PAUasSNameSpace@@@Z 1005f9fb f    CIL library: CIL module
 0001:0005ea05       __unwindfunclet$?ParseDataType@asCBuilder@@QAEHPBDPAVasCDataType@@PAUasSNameSpace@@_N@Z$0 1005fa05 f    CIL library: CIL module
 0001:0005ea0f       __unwindfunclet$?ParseDataType@asCBuilder@@QAEHPBDPAVasCDataType@@PAUasSNameSpace@@_N@Z$1 1005fa0f f    CIL library: CIL module
 0001:0005ea19       __ehhandler$?ParseDataType@asCBuilder@@QAEHPBDPAVasCDataType@@PAUasSNameSpace@@_N@Z 1005fa19 f    CIL library: CIL module
 0001:0005ea23       __unwindfunclet$?RegisterTypesFromScript@asCBuilder@@IAEXPAVasCScriptNode@@PAVasCScriptCode@@PAUasSNameSpace@@@Z$0 1005fa23 f    CIL library: CIL module
 0001:0005ea2b       __unwindfunclet$?RegisterTypesFromScript@asCBuilder@@IAEXPAVasCScriptNode@@PAVasCScriptCode@@PAUasSNameSpace@@@Z$1 1005fa2b f    CIL library: CIL module
 0001:0005ea33       __unwindfunclet$?RegisterTypesFromScript@asCBuilder@@IAEXPAVasCScriptNode@@PAVasCScriptCode@@PAUasSNameSpace@@@Z$2 1005fa33 f    CIL library: CIL module
 0001:0005ea3b       __ehhandler$?RegisterTypesFromScript@asCBuilder@@IAEXPAVasCScriptNode@@PAVasCScriptCode@@PAUasSNameSpace@@@Z 1005fa3b f    CIL library: CIL module
 0001:0005ea45       __unwindfunclet$?ParseListPattern@asCScriptFunction@@QAEHAAPAUasSListPatternNode@@PBDPAVasCScriptNode@@@Z$1 1005fa45 f    CIL library: CIL module
 0001:0005ea52       __unwindfunclet$?ParseListPattern@asCScriptFunction@@QAEHAAPAUasSListPatternNode@@PBDPAVasCScriptNode@@@Z$2 1005fa52 f    CIL library: CIL module
 0001:0005ea5f       __ehhandler$?ParseListPattern@asCScriptFunction@@QAEHAAPAUasSListPatternNode@@PBDPAVasCScriptNode@@@Z 1005fa5f f    CIL library: CIL module
 0001:0005ea69       __unwindfunclet$?RegisterEnumValue@asCScriptEngine@@UAEHPBD0H@Z$0 1005fa69 f    CIL library: CIL module
 0001:0005ea76       __ehhandler$?RegisterEnumValue@asCScriptEngine@@UAEHPBD0H@Z 1005fa76 f    CIL library: CIL module
 0001:0005ea80       __unwindfunclet$?RegisterEnum@asCScriptEngine@@UAEHPBD@Z$0 1005fa80 f    CIL library: CIL module
 0001:0005ea8d       __ehhandler$?RegisterEnum@asCScriptEngine@@UAEHPBD@Z 1005fa8d f    CIL library: CIL module
 0001:0005ea97       __unwindfunclet$?RegisterFuncdef@asCScriptEngine@@UAEHPBD@Z$0 1005fa97 f    CIL library: CIL module
 0001:0005ea9c       __unwindfunclet$?RegisterFuncdef@asCScriptEngine@@UAEHPBD@Z$1 1005fa9c f    CIL library: CIL module
 0001:0005eaa9       __ehhandler$?RegisterFuncdef@asCScriptEngine@@UAEHPBD@Z 1005faa9 f    CIL library: CIL module
 0001:0005eab3       __unwindfunclet$?GetTypeIdByDecl@asCScriptEngine@@UBEHPBD@Z$0 1005fab3 f    CIL library: CIL module
 0001:0005eac0       __ehhandler$?GetTypeIdByDecl@asCScriptEngine@@UBEHPBD@Z 1005fac0 f    CIL library: CIL module
 0001:0005eaca       __unwindfunclet$?RegisterStringFactory@asCScriptEngine@@UAEHPBDABUasSFuncPtr@@KPAX@Z$0 1005faca f    CIL library: CIL module
 0001:0005ead5       __unwindfunclet$?RegisterStringFactory@asCScriptEngine@@UAEHPBDABUasSFuncPtr@@KPAX@Z$1 1005fad5 f    CIL library: CIL module
 0001:0005eada       __unwindfunclet$?RegisterStringFactory@asCScriptEngine@@UAEHPBDABUasSFuncPtr@@KPAX@Z$2 1005fada f    CIL library: CIL module
 0001:0005eadf       __unwindfunclet$?RegisterStringFactory@asCScriptEngine@@UAEHPBDABUasSFuncPtr@@KPAX@Z$3 1005fadf f    CIL library: CIL module
 0001:0005eaec       __ehhandler$?RegisterStringFactory@asCScriptEngine@@UAEHPBDABUasSFuncPtr@@KPAX@Z 1005faec f    CIL library: CIL module
 0001:0005eaf6       __unwindfunclet$?RegisterDefaultArrayType@asCScriptEngine@@UAEHPBD@Z$0 1005faf6 f    CIL library: CIL module
 0001:0005eb03       __ehhandler$?RegisterDefaultArrayType@asCScriptEngine@@UAEHPBD@Z 1005fb03 f    CIL library: CIL module
 0001:0005eb0d       __unwindfunclet$?GetGlobalFunctionByDecl@asCScriptEngine@@UBEPAVasIScriptFunction@@PBD@Z$0 1005fb0d f    CIL library: CIL module
 0001:0005eb1a       __unwindfunclet$?GetGlobalFunctionByDecl@asCScriptEngine@@UBEPAVasIScriptFunction@@PBD@Z$1 1005fb1a f    CIL library: CIL module
 0001:0005eb27       __ehhandler$?GetGlobalFunctionByDecl@asCScriptEngine@@UBEPAVasIScriptFunction@@PBD@Z 1005fb27 f    CIL library: CIL module
 0001:0005eb31       __unwindfunclet$?RegisterGlobalFunction@asCScriptEngine@@UAEHPBDABUasSFuncPtr@@KPAX@Z$0 1005fb31 f    CIL library: CIL module
 0001:0005eb3c       __unwindfunclet$?RegisterGlobalFunction@asCScriptEngine@@UAEHPBDABUasSFuncPtr@@KPAX@Z$1 1005fb3c f    CIL library: CIL module
 0001:0005eb41       __unwindfunclet$?RegisterGlobalFunction@asCScriptEngine@@UAEHPBDABUasSFuncPtr@@KPAX@Z$2 1005fb41 f    CIL library: CIL module
 0001:0005eb46       __unwindfunclet$?RegisterGlobalFunction@asCScriptEngine@@UAEHPBDABUasSFuncPtr@@KPAX@Z$3 1005fb46 f    CIL library: CIL module
 0001:0005eb53       __ehhandler$?RegisterGlobalFunction@asCScriptEngine@@UAEHPBDABUasSFuncPtr@@KPAX@Z 1005fb53 f    CIL library: CIL module
 0001:0005eb5d       __unwindfunclet$?RegisterMethodToObjectType@asCScriptEngine@@QAEHPAVasCObjectType@@PBDABUasSFuncPtr@@K@Z$0 1005fb5d f    CIL library: CIL module
 0001:0005eb68       __unwindfunclet$?RegisterMethodToObjectType@asCScriptEngine@@QAEHPAVasCObjectType@@PBDABUasSFuncPtr@@K@Z$1 1005fb68 f    CIL library: CIL module
 0001:0005eb6d       __unwindfunclet$?RegisterMethodToObjectType@asCScriptEngine@@QAEHPAVasCObjectType@@PBDABUasSFuncPtr@@K@Z$2 1005fb6d f    CIL library: CIL module
 0001:0005eb72       __unwindfunclet$?RegisterMethodToObjectType@asCScriptEngine@@QAEHPAVasCObjectType@@PBDABUasSFuncPtr@@K@Z$3 1005fb72 f    CIL library: CIL module
 0001:0005eb7f       __ehhandler$?RegisterMethodToObjectType@asCScriptEngine@@QAEHPAVasCObjectType@@PBDABUasSFuncPtr@@K@Z 1005fb7f f    CIL library: CIL module
 0001:0005eb89       __unwindfunclet$?RegisterObjectMethod@asCScriptEngine@@UAEHPBD0ABUasSFuncPtr@@K@Z$0 1005fb89 f    CIL library: CIL module
 0001:0005eb96       __ehhandler$?RegisterObjectMethod@asCScriptEngine@@UAEHPBD0ABUasSFuncPtr@@K@Z 1005fb96 f    CIL library: CIL module
 0001:0005eba0       __unwindfunclet$?GetGlobalPropertyIndexByDecl@asCScriptEngine@@UBEHPBD@Z$0 1005fba0 f    CIL library: CIL module
 0001:0005ebad       __unwindfunclet$?GetGlobalPropertyIndexByDecl@asCScriptEngine@@UBEHPBD@Z$1 1005fbad f    CIL library: CIL module
 0001:0005ebb8       __ehhandler$?GetGlobalPropertyIndexByDecl@asCScriptEngine@@UBEHPBD@Z 1005fbb8 f    CIL library: CIL module
 0001:0005ebc2       __unwindfunclet$?RegisterGlobalProperty@asCScriptEngine@@UAEHPBDPAX@Z$0 1005fbc2 f    CIL library: CIL module
 0001:0005ebcd       __unwindfunclet$?RegisterGlobalProperty@asCScriptEngine@@UAEHPBDPAX@Z$1 1005fbcd f    CIL library: CIL module
 0001:0005ebda       __ehhandler$?RegisterGlobalProperty@asCScriptEngine@@UAEHPBDPAX@Z 1005fbda f    CIL library: CIL module
 0001:0005ebe4       __unwindfunclet$?RegisterBehaviourToObjectType@asCScriptEngine@@QAEHPAVasCObjectType@@W4asEBehaviours@@PBDABUasSFuncPtr@@KPAX@Z$0 1005fbe4 f    CIL library: CIL module
 0001:0005ebef       __unwindfunclet$?RegisterBehaviourToObjectType@asCScriptEngine@@QAEHPAVasCObjectType@@W4asEBehaviours@@PBDABUasSFuncPtr@@KPAX@Z$1 1005fbef f    CIL library: CIL module
 0001:0005ebfc       __unwindfunclet$?RegisterBehaviourToObjectType@asCScriptEngine@@QAEHPAVasCObjectType@@W4asEBehaviours@@PBDABUasSFuncPtr@@KPAX@Z$2 1005fbfc f    CIL library: CIL module
 0001:0005ec09       __ehhandler$?RegisterBehaviourToObjectType@asCScriptEngine@@QAEHPAVasCObjectType@@W4asEBehaviours@@PBDABUasSFuncPtr@@KPAX@Z 1005fc09 f    CIL library: CIL module
 0001:0005ec13       __unwindfunclet$?RegisterObjectBehaviour@asCScriptEngine@@UAEHPBDW4asEBehaviours@@0ABUasSFuncPtr@@KPAX@Z$0 1005fc13 f    CIL library: CIL module
 0001:0005ec20       __ehhandler$?RegisterObjectBehaviour@asCScriptEngine@@UAEHPBDW4asEBehaviours@@0ABUasSFuncPtr@@KPAX@Z 1005fc20 f    CIL library: CIL module
 0001:0005ec2a       __unwindfunclet$?RegisterObjectType@asCScriptEngine@@UAEHPBDHK@Z$0 1005fc2a f    CIL library: CIL module
 0001:0005ec35       __unwindfunclet$?RegisterObjectType@asCScriptEngine@@UAEHPBDHK@Z$1 1005fc35 f    CIL library: CIL module
 0001:0005ec42       __unwindfunclet$?RegisterObjectType@asCScriptEngine@@UAEHPBDHK@Z$2 1005fc42 f    CIL library: CIL module
 0001:0005ec4d       __ehhandler$?RegisterObjectType@asCScriptEngine@@UAEHPBDHK@Z 1005fc4d f    CIL library: CIL module
 0001:0005ec57       __unwindfunclet$?RegisterInterfaceMethod@asCScriptEngine@@UAEHPBD0@Z$0 1005fc57 f    CIL library: CIL module
 0001:0005ec64       __unwindfunclet$?RegisterInterfaceMethod@asCScriptEngine@@UAEHPBD0@Z$1 1005fc64 f    CIL library: CIL module
 0001:0005ec69       __ehhandler$?RegisterInterfaceMethod@asCScriptEngine@@UAEHPBD0@Z 1005fc69 f    CIL library: CIL module
 0001:0005ec73       __unwindfunclet$?RegisterInterface@asCScriptEngine@@UAEHPBD@Z$0 1005fc73 f    CIL library: CIL module
 0001:0005ec80       __ehhandler$?RegisterInterface@asCScriptEngine@@UAEHPBD@Z 1005fc80 f    CIL library: CIL module
 0001:0005ec8a       __unwindfunclet$?RegisterObjectProperty@asCScriptEngine@@UAEHPBD0H@Z$0 1005fc8a f    CIL library: CIL module
 0001:0005ec97       __unwindfunclet$?RegisterObjectProperty@asCScriptEngine@@UAEHPBD0H@Z$1 1005fc97 f    CIL library: CIL module
 0001:0005eca2       __ehhandler$?RegisterObjectProperty@asCScriptEngine@@UAEHPBD0H@Z 1005fca2 f    CIL library: CIL module
 0001:0005ecac       __unwindfunclet$?GetMethodIdByDecl@asCScriptEngine@@QAEHPBVasCObjectType@@PBDPAVasCModule@@@Z$0 1005fcac f    CIL library: CIL module
 0001:0005ecb9       __unwindfunclet$?GetMethodIdByDecl@asCScriptEngine@@QAEHPBVasCObjectType@@PBDPAVasCModule@@@Z$1 1005fcb9 f    CIL library: CIL module
 0001:0005ecc6       __ehhandler$?GetMethodIdByDecl@asCScriptEngine@@QAEHPBVasCObjectType@@PBDPAVasCModule@@@Z 1005fcc6 f    CIL library: CIL module
 0001:0005ecd0       __unwindfunclet$?GetFactoryIdByDecl@asCScriptEngine@@QAEHPBVasCObjectType@@PBD@Z$0 1005fcd0 f    CIL library: CIL module
 0001:0005ecdd       __unwindfunclet$?GetFactoryIdByDecl@asCScriptEngine@@QAEHPBVasCObjectType@@PBD@Z$1 1005fcdd f    CIL library: CIL module
 0001:0005ecea       __ehhandler$?GetFactoryIdByDecl@asCScriptEngine@@QAEHPBVasCObjectType@@PBD@Z 1005fcea f    CIL library: CIL module
 0001:0005ecf4       __unwindfunclet$?ReadUsedGlobalProps@asCReader@@IAEXXZ$0 1005fcf4 f    CIL library: CIL module
 0001:0005ecfc       __unwindfunclet$?ReadUsedGlobalProps@asCReader@@IAEXXZ$1 1005fcfc f    CIL library: CIL module
 0001:0005ed04       __ehhandler$?ReadUsedGlobalProps@asCReader@@IAEXXZ 1005fd04 f    CIL library: CIL module
 0001:0005ed0e       __unwindfunclet$?ReadObjectType@asCReader@@IAEPAVasCObjectType@@XZ$0 1005fd0e f    CIL library: CIL module
 0001:0005ed16       __unwindfunclet$?ReadObjectType@asCReader@@IAEPAVasCObjectType@@XZ$1 1005fd16 f    CIL library: CIL module
 0001:0005ed1e       __unwindfunclet$?ReadObjectType@asCReader@@IAEPAVasCObjectType@@XZ$2 1005fd1e f    CIL library: CIL module
 0001:0005ed26       __unwindfunclet$?ReadObjectType@asCReader@@IAEPAVasCObjectType@@XZ$3 1005fd26 f    CIL library: CIL module
 0001:0005ed2e       __unwindfunclet$?ReadObjectType@asCReader@@IAEPAVasCObjectType@@XZ$4 1005fd2e f    CIL library: CIL module
 0001:0005ed36       __unwindfunclet$?ReadObjectType@asCReader@@IAEPAVasCObjectType@@XZ$5 1005fd36 f    CIL library: CIL module
 0001:0005ed3e       __unwindfunclet$?ReadObjectType@asCReader@@IAEPAVasCObjectType@@XZ$6 1005fd3e f    CIL library: CIL module
 0001:0005ed46       __unwindfunclet$?ReadObjectType@asCReader@@IAEPAVasCObjectType@@XZ$7 1005fd46 f    CIL library: CIL module
 0001:0005ed4e       __unwindfunclet$?ReadObjectType@asCReader@@IAEPAVasCObjectType@@XZ$8 1005fd4e f    CIL library: CIL module
 0001:0005ed59       __unwindfunclet$?ReadObjectType@asCReader@@IAEPAVasCObjectType@@XZ$9 1005fd59 f    CIL library: CIL module
 0001:0005ed61       __unwindfunclet$?ReadObjectType@asCReader@@IAEPAVasCObjectType@@XZ$10 1005fd61 f    CIL library: CIL module
 0001:0005ed69       __ehhandler$?ReadObjectType@asCReader@@IAEPAVasCObjectType@@XZ 1005fd69 f    CIL library: CIL module
 0001:0005ed73       __unwindfunclet$?ReadFunction@asCReader@@IAEPAVasCScriptFunction@@AA_N_N11@Z$0 1005fd73 f    CIL library: CIL module
 0001:0005ed78       __unwindfunclet$?ReadFunction@asCReader@@IAEPAVasCScriptFunction@@AA_N_N11@Z$1 1005fd78 f    CIL library: CIL module
 0001:0005ed80       __unwindfunclet$?ReadFunction@asCReader@@IAEPAVasCScriptFunction@@AA_N_N11@Z$3 1005fd80 f    CIL library: CIL module
 0001:0005ed88       __ehhandler$?ReadFunction@asCReader@@IAEPAVasCScriptFunction@@AA_N_N11@Z 1005fd88 f    CIL library: CIL module
 0001:0005ed92       __unwindfunclet$?ParseInterface@asCParser@@IAEPAVasCScriptNode@@XZ$0 1005fd92 f    CIL library: CIL module
 0001:0005ed9a       __unwindfunclet$?ParseInterface@asCParser@@IAEPAVasCScriptNode@@XZ$1 1005fd9a f    CIL library: CIL module
 0001:0005eda2       __unwindfunclet$?ParseInterface@asCParser@@IAEPAVasCScriptNode@@XZ$2 1005fda2 f    CIL library: CIL module
 0001:0005edaa       __unwindfunclet$?ParseInterface@asCParser@@IAEPAVasCScriptNode@@XZ$3 1005fdaa f    CIL library: CIL module
 0001:0005edb2       __ehhandler$?ParseInterface@asCParser@@IAEPAVasCScriptNode@@XZ 1005fdb2 f    CIL library: CIL module
 0001:0005edbc       __unwindfunclet$?ParseCondition@asCParser@@IAEPAVasCScriptNode@@XZ$0 1005fdbc f    CIL library: CIL module
 0001:0005edc4       __ehhandler$?ParseCondition@asCParser@@IAEPAVasCScriptNode@@XZ 1005fdc4 f    CIL library: CIL module
 0001:0005edce       __unwindfunclet$?GetTypeIdByDecl@asCModule@@UBEHPBD@Z$0 1005fdce f    CIL library: CIL module
 0001:0005eddb       __ehhandler$?GetTypeIdByDecl@asCModule@@UBEHPBD@Z 1005fddb f    CIL library: CIL module
 0001:0005ede5       __unwindfunclet$?GetGlobalVarIndexByDecl@asCModule@@UBEHPBD@Z$0 1005fde5 f    CIL library: CIL module
 0001:0005edf2       __unwindfunclet$?GetGlobalVarIndexByDecl@asCModule@@UBEHPBD@Z$1 1005fdf2 f    CIL library: CIL module
 0001:0005edfd       __ehhandler$?GetGlobalVarIndexByDecl@asCModule@@UBEHPBD@Z 1005fdfd f    CIL library: CIL module
 0001:0005ee07       __unwindfunclet$?GetFunctionByDecl@asCModule@@UBEPAVasIScriptFunction@@PBD@Z$0 1005fe07 f    CIL library: CIL module
 0001:0005ee14       __unwindfunclet$?GetFunctionByDecl@asCModule@@UBEPAVasIScriptFunction@@PBD@Z$1 1005fe14 f    CIL library: CIL module
 0001:0005ee21       __ehhandler$?GetFunctionByDecl@asCModule@@UBEPAVasIScriptFunction@@PBD@Z 1005fe21 f    CIL library: CIL module
 0001:0005ee2b       __unwindfunclet$?GetImportedFunctionIndexByDecl@asCModule@@UBEHPBD@Z$0 1005fe2b f    CIL library: CIL module
 0001:0005ee38       __unwindfunclet$?GetImportedFunctionIndexByDecl@asCModule@@UBEHPBD@Z$1 1005fe38 f    CIL library: CIL module
 0001:0005ee45       __ehhandler$?GetImportedFunctionIndexByDecl@asCModule@@UBEHPBD@Z 1005fe45 f    CIL library: CIL module
 0001:0005ee4f       __unwindfunclet$??1asCModule@@UAE@XZ$0 1005fe4f f    CIL library: CIL module
 0001:0005ee57       __unwindfunclet$??1asCModule@@UAE@XZ$1 1005fe57 f    CIL library: CIL module
 0001:0005ee62       __unwindfunclet$??1asCModule@@UAE@XZ$2 1005fe62 f    CIL library: CIL module
 0001:0005ee6d       __unwindfunclet$??1asCModule@@UAE@XZ$3 1005fe6d f    CIL library: CIL module
 0001:0005ee7a       __unwindfunclet$??1asCModule@@UAE@XZ$4 1005fe7a f    CIL library: CIL module
 0001:0005ee88       __unwindfunclet$??1asCModule@@UAE@XZ$5 1005fe88 f    CIL library: CIL module
 0001:0005ee97       __unwindfunclet$??1asCModule@@UAE@XZ$6 1005fe97 f    CIL library: CIL module
 0001:0005eea5       __unwindfunclet$??1asCModule@@UAE@XZ$7 1005fea5 f    CIL library: CIL module
 0001:0005eeb3       __unwindfunclet$??1asCModule@@UAE@XZ$8 1005feb3 f    CIL library: CIL module
 0001:0005eec1       __unwindfunclet$??1asCModule@@UAE@XZ$9 1005fec1 f    CIL library: CIL module
 0001:0005eecf       __unwindfunclet$??1asCModule@@UAE@XZ$10 1005fecf f    CIL library: CIL module
 0001:0005eed9       __unwindfunclet$??1asCModule@@UAE@XZ$12 1005fed9 f    CIL library: CIL module
 0001:0005eee3       __ehhandler$??1asCModule@@UAE@XZ 1005fee3 f    CIL library: CIL module
 0001:0005eeed       __unwindfunclet$?MakeFunctionCall@asCCompiler@@IAEXPAUasSExprContext@@HPAVasCObjectType@@AAV?$asCArray@PAUasSExprContext@@@@PAVasCScriptNode@@_NHH@Z$0 1005feed f    CIL library: CIL module
 0001:0005eef7       __ehhandler$?MakeFunctionCall@asCCompiler@@IAEXPAUasSExprContext@@HPAVasCObjectType@@AAV?$asCArray@PAUasSExprContext@@@@PAVasCScriptNode@@_NHH@Z 1005fef7 f    CIL library: CIL module
 0001:0005ef01       __unwindfunclet$?CompileOverloadedDualOperator2@asCCompiler@@IAEHPAVasCScriptNode@@PBDPAUasSExprContext@@22_NABVasCDataType@@@Z$0 1005ff01 f    CIL library: CIL module
 0001:0005ef09       __unwindfunclet$?CompileOverloadedDualOperator2@asCCompiler@@IAEHPAVasCScriptNode@@PBDPAUasSExprContext@@22_NABVasCDataType@@@Z$1 1005ff09 f    CIL library: CIL module
 0001:0005ef11       __unwindfunclet$?CompileOverloadedDualOperator2@asCCompiler@@IAEHPAVasCScriptNode@@PBDPAUasSExprContext@@22_NABVasCDataType@@@Z$2 1005ff11 f    CIL library: CIL module
 0001:0005ef1c       __unwindfunclet$?CompileOverloadedDualOperator2@asCCompiler@@IAEHPAVasCScriptNode@@PBDPAUasSExprContext@@22_NABVasCDataType@@@Z$3 1005ff1c f    CIL library: CIL module
 0001:0005ef24       __unwindfunclet$?CompileOverloadedDualOperator2@asCCompiler@@IAEHPAVasCScriptNode@@PBDPAUasSExprContext@@22_NABVasCDataType@@@Z$4 1005ff24 f    CIL library: CIL module
 0001:0005ef2c       __ehhandler$?CompileOverloadedDualOperator2@asCCompiler@@IAEHPAVasCScriptNode@@PBDPAUasSExprContext@@22_NABVasCDataType@@@Z 1005ff2c f    CIL library: CIL module
 0001:0005ef36       __unwindfunclet$?CompileOverloadedDualOperator@asCCompiler@@IAE_NPAVasCScriptNode@@PAUasSExprContext@@11@Z$0 1005ff36 f    CIL library: CIL module
 0001:0005ef3e       __unwindfunclet$?CompileOverloadedDualOperator@asCCompiler@@IAE_NPAVasCScriptNode@@PAUasSExprContext@@11@Z$1 1005ff3e f    CIL library: CIL module
 0001:0005ef46       __ehhandler$?CompileOverloadedDualOperator@asCCompiler@@IAE_NPAVasCScriptNode@@PAUasSExprContext@@11@Z 1005ff46 f    CIL library: CIL module
 0001:0005ef50       __unwindfunclet$?ProcessPropertySetAccessor@asCCompiler@@IAEHPAUasSExprContext@@0PAVasCScriptNode@@@Z$0 1005ff50 f    CIL library: CIL module
 0001:0005ef5b       __unwindfunclet$?ProcessPropertySetAccessor@asCCompiler@@IAEHPAUasSExprContext@@0PAVasCScriptNode@@@Z$1 1005ff5b f    CIL library: CIL module
 0001:0005ef63       __unwindfunclet$?ProcessPropertySetAccessor@asCCompiler@@IAEHPAUasSExprContext@@0PAVasCScriptNode@@@Z$2 1005ff63 f    CIL library: CIL module
 0001:0005ef6b       __unwindfunclet$?ProcessPropertySetAccessor@asCCompiler@@IAEHPAUasSExprContext@@0PAVasCScriptNode@@@Z$3 1005ff6b f    CIL library: CIL module
 0001:0005ef76       __unwindfunclet$?ProcessPropertySetAccessor@asCCompiler@@IAEHPAUasSExprContext@@0PAVasCScriptNode@@@Z$4 1005ff76 f    CIL library: CIL module
 0001:0005ef7e       __unwindfunclet$?ProcessPropertySetAccessor@asCCompiler@@IAEHPAUasSExprContext@@0PAVasCScriptNode@@@Z$5 1005ff7e f    CIL library: CIL module
 0001:0005ef86       __ehhandler$?ProcessPropertySetAccessor@asCCompiler@@IAEHPAUasSExprContext@@0PAVasCScriptNode@@@Z 1005ff86 f    CIL library: CIL module
 0001:0005ef90       __unwindfunclet$?RegisterImportedFunction@asCBuilder@@IAEHHPAVasCScriptNode@@PAVasCScriptCode@@PAUasSNameSpace@@@Z$0 1005ff90 f    CIL library: CIL module
 0001:0005ef9b       __unwindfunclet$?RegisterImportedFunction@asCBuilder@@IAEHHPAVasCScriptNode@@PAVasCScriptCode@@PAUasSNameSpace@@@Z$1 1005ff9b f    CIL library: CIL module
 0001:0005efa3       __unwindfunclet$?RegisterImportedFunction@asCBuilder@@IAEHHPAVasCScriptNode@@PAVasCScriptCode@@PAUasSNameSpace@@@Z$2 1005ffa3 f    CIL library: CIL module
 0001:0005efab       __unwindfunclet$?RegisterImportedFunction@asCBuilder@@IAEHHPAVasCScriptNode@@PAVasCScriptCode@@PAUasSNameSpace@@@Z$3 1005ffab f    CIL library: CIL module
 0001:0005efb6       __unwindfunclet$?RegisterImportedFunction@asCBuilder@@IAEHHPAVasCScriptNode@@PAVasCScriptCode@@PAUasSNameSpace@@@Z$4 1005ffb6 f    CIL library: CIL module
 0001:0005efbe       __unwindfunclet$?RegisterImportedFunction@asCBuilder@@IAEHHPAVasCScriptNode@@PAVasCScriptCode@@PAUasSNameSpace@@@Z$5 1005ffbe f    CIL library: CIL module
 0001:0005efc9       __unwindfunclet$?RegisterImportedFunction@asCBuilder@@IAEHHPAVasCScriptNode@@PAVasCScriptCode@@PAUasSNameSpace@@@Z$6 1005ffc9 f    CIL library: CIL module
 0001:0005efd1       __unwindfunclet$?RegisterImportedFunction@asCBuilder@@IAEHHPAVasCScriptNode@@PAVasCScriptCode@@PAUasSNameSpace@@@Z$7 1005ffd1 f    CIL library: CIL module
 0001:0005efd9       __ehhandler$?RegisterImportedFunction@asCBuilder@@IAEHHPAVasCScriptNode@@PAVasCScriptCode@@PAUasSNameSpace@@@Z 1005ffd9 f    CIL library: CIL module
 0001:0005efe3       __unwindfunclet$?RegisterVirtualProperty@asCBuilder@@IAEHPAVasCScriptNode@@PAVasCScriptCode@@PAVasCObjectType@@_N3PAUasSNameSpace@@3@Z$0 1005ffe3 f    CIL library: CIL module
 0001:0005efee       __unwindfunclet$?RegisterVirtualProperty@asCBuilder@@IAEHPAVasCScriptNode@@PAVasCScriptCode@@PAVasCObjectType@@_N3PAUasSNameSpace@@3@Z$1 1005ffee f    CIL library: CIL module
 0001:0005eff9       __unwindfunclet$?RegisterVirtualProperty@asCBuilder@@IAEHPAVasCScriptNode@@PAVasCScriptCode@@PAVasCObjectType@@_N3PAUasSNameSpace@@3@Z$2 1005fff9 f    CIL library: CIL module
 0001:0005f004       __unwindfunclet$?RegisterVirtualProperty@asCBuilder@@IAEHPAVasCScriptNode@@PAVasCScriptCode@@PAVasCObjectType@@_N3PAUasSNameSpace@@3@Z$3 10060004 f    CIL library: CIL module
 0001:0005f00f       __unwindfunclet$?RegisterVirtualProperty@asCBuilder@@IAEHPAVasCScriptNode@@PAVasCScriptCode@@PAVasCObjectType@@_N3PAUasSNameSpace@@3@Z$4 1006000f f    CIL library: CIL module
 0001:0005f01a       __unwindfunclet$?RegisterVirtualProperty@asCBuilder@@IAEHPAVasCScriptNode@@PAVasCScriptCode@@PAVasCObjectType@@_N3PAUasSNameSpace@@3@Z$5 1006001a f    CIL library: CIL module
 0001:0005f025       __unwindfunclet$?RegisterVirtualProperty@asCBuilder@@IAEHPAVasCScriptNode@@PAVasCScriptCode@@PAVasCObjectType@@_N3PAUasSNameSpace@@3@Z$6 10060025 f    CIL library: CIL module
 0001:0005f02d       __unwindfunclet$?RegisterVirtualProperty@asCBuilder@@IAEHPAVasCScriptNode@@PAVasCScriptCode@@PAVasCObjectType@@_N3PAUasSNameSpace@@3@Z$7 1006002d f    CIL library: CIL module
 0001:0005f038       __unwindfunclet$?RegisterVirtualProperty@asCBuilder@@IAEHPAVasCScriptNode@@PAVasCScriptCode@@PAVasCObjectType@@_N3PAUasSNameSpace@@3@Z$8 10060038 f    CIL library: CIL module
 0001:0005f040       __unwindfunclet$?RegisterVirtualProperty@asCBuilder@@IAEHPAVasCScriptNode@@PAVasCScriptCode@@PAVasCObjectType@@_N3PAUasSNameSpace@@3@Z$9 10060040 f    CIL library: CIL module
 0001:0005f048       __unwindfunclet$?RegisterVirtualProperty@asCBuilder@@IAEHPAVasCScriptNode@@PAVasCScriptCode@@PAVasCObjectType@@_N3PAUasSNameSpace@@3@Z$10 10060048 f    CIL library: CIL module
 0001:0005f050       __unwindfunclet$?RegisterVirtualProperty@asCBuilder@@IAEHPAVasCScriptNode@@PAVasCScriptCode@@PAVasCObjectType@@_N3PAUasSNameSpace@@3@Z$11 10060050 f    CIL library: CIL module
 0001:0005f058       __unwindfunclet$?RegisterVirtualProperty@asCBuilder@@IAEHPAVasCScriptNode@@PAVasCScriptCode@@PAVasCObjectType@@_N3PAUasSNameSpace@@3@Z$12 10060058 f    CIL library: CIL module
 0001:0005f063       __unwindfunclet$?RegisterVirtualProperty@asCBuilder@@IAEHPAVasCScriptNode@@PAVasCScriptCode@@PAVasCObjectType@@_N3PAUasSNameSpace@@3@Z$13 10060063 f    CIL library: CIL module
 0001:0005f06b       __unwindfunclet$?RegisterVirtualProperty@asCBuilder@@IAEHPAVasCScriptNode@@PAVasCScriptCode@@PAVasCObjectType@@_N3PAUasSNameSpace@@3@Z$14 1006006b f    CIL library: CIL module
 0001:0005f076       __ehhandler$?RegisterVirtualProperty@asCBuilder@@IAEHPAVasCScriptNode@@PAVasCScriptCode@@PAVasCObjectType@@_N3PAUasSNameSpace@@3@Z 10060076 f    CIL library: CIL module
 0001:0005f080       __unwindfunclet$?RegisterScriptFunctionFromNode@asCBuilder@@IAEHPAVasCScriptNode@@PAVasCScriptCode@@PAVasCObjectType@@_N3PAUasSNameSpace@@33@Z$0 10060080 f    CIL library: CIL module
 0001:0005f088       __unwindfunclet$?RegisterScriptFunctionFromNode@asCBuilder@@IAEHPAVasCScriptNode@@PAVasCScriptCode@@PAVasCObjectType@@_N3PAUasSNameSpace@@33@Z$1 10060088 f    CIL library: CIL module
 0001:0005f090       __unwindfunclet$?RegisterScriptFunctionFromNode@asCBuilder@@IAEHPAVasCScriptNode@@PAVasCScriptCode@@PAVasCObjectType@@_N3PAUasSNameSpace@@33@Z$2 10060090 f    CIL library: CIL module
 0001:0005f098       __unwindfunclet$?RegisterScriptFunctionFromNode@asCBuilder@@IAEHPAVasCScriptNode@@PAVasCScriptCode@@PAVasCObjectType@@_N3PAUasSNameSpace@@33@Z$3 10060098 f    CIL library: CIL module
 0001:0005f0a0       __unwindfunclet$?RegisterScriptFunctionFromNode@asCBuilder@@IAEHPAVasCScriptNode@@PAVasCScriptCode@@PAVasCObjectType@@_N3PAUasSNameSpace@@33@Z$4 100600a0 f    CIL library: CIL module
 0001:0005f0a8       __ehhandler$?RegisterScriptFunctionFromNode@asCBuilder@@IAEHPAVasCScriptNode@@PAVasCScriptCode@@PAVasCObjectType@@_N3PAUasSNameSpace@@33@Z 100600a8 f    CIL library: CIL module
 0001:0005f0b2       __unwindfunclet$?IncludeMethodsFromMixins@asCBuilder@@IAEXPAUsClassDeclaration@@@Z$0 100600b2 f    CIL library: CIL module
 0001:0005f0ba       __unwindfunclet$?IncludeMethodsFromMixins@asCBuilder@@IAEXPAUsClassDeclaration@@@Z$1 100600ba f    CIL library: CIL module
 0001:0005f0c2       __ehhandler$?IncludeMethodsFromMixins@asCBuilder@@IAEXPAUsClassDeclaration@@@Z 100600c2 f    CIL library: CIL module
 0001:0005f0cc       __unwindfunclet$?CompileClasses@asCBuilder@@IAEXXZ$0 100600cc f    CIL library: CIL module
 0001:0005f0d4       __unwindfunclet$?CompileClasses@asCBuilder@@IAEXXZ$1 100600d4 f    CIL library: CIL module
 0001:0005f0df       __unwindfunclet$?CompileClasses@asCBuilder@@IAEXXZ$2 100600df f    CIL library: CIL module
 0001:0005f0ea       __unwindfunclet$?CompileClasses@asCBuilder@@IAEXXZ$4 100600ea f    CIL library: CIL module
 0001:0005f0f2       __unwindfunclet$?CompileClasses@asCBuilder@@IAEXXZ$6 100600f2 f    CIL library: CIL module
 0001:0005f0fa       __unwindfunclet$?CompileClasses@asCBuilder@@IAEXXZ$5 100600fa f    CIL library: CIL module
 0001:0005f102       __unwindfunclet$?CompileClasses@asCBuilder@@IAEXXZ$7 10060102 f    CIL library: CIL module
 0001:0005f10a       __unwindfunclet$?CompileClasses@asCBuilder@@IAEXXZ$3 1006010a f    CIL library: CIL module
 0001:0005f112       __unwindfunclet$?CompileClasses@asCBuilder@@IAEXXZ$8 10060112 f    CIL library: CIL module
 0001:0005f11a       __unwindfunclet$?CompileClasses@asCBuilder@@IAEXXZ$9 1006011a f    CIL library: CIL module
 0001:0005f122       __unwindfunclet$?CompileClasses@asCBuilder@@IAEXXZ$10 10060122 f    CIL library: CIL module
 0001:0005f12a       __unwindfunclet$?CompileClasses@asCBuilder@@IAEXXZ$11 1006012a f    CIL library: CIL module
 0001:0005f132       __unwindfunclet$?CompileClasses@asCBuilder@@IAEXXZ$12 10060132 f    CIL library: CIL module
 0001:0005f13d       __unwindfunclet$?CompileClasses@asCBuilder@@IAEXXZ$13 1006013d f    CIL library: CIL module
 0001:0005f145       __unwindfunclet$?CompileClasses@asCBuilder@@IAEXXZ$14 10060145 f    CIL library: CIL module
 0001:0005f14d       __unwindfunclet$?CompileClasses@asCBuilder@@IAEXXZ$15 1006014d f    CIL library: CIL module
 0001:0005f155       __unwindfunclet$?CompileClasses@asCBuilder@@IAEXXZ$16 10060155 f    CIL library: CIL module
 0001:0005f15d       __unwindfunclet$?CompileClasses@asCBuilder@@IAEXXZ$17 1006015d f    CIL library: CIL module
 0001:0005f165       __unwindfunclet$?CompileClasses@asCBuilder@@IAEXXZ$18 10060165 f    CIL library: CIL module
 0001:0005f16d       __unwindfunclet$?CompileClasses@asCBuilder@@IAEXXZ$19 1006016d f    CIL library: CIL module
 0001:0005f175       __unwindfunclet$?CompileClasses@asCBuilder@@IAEXXZ$20 10060175 f    CIL library: CIL module
 0001:0005f17d       __ehhandler$?CompileClasses@asCBuilder@@IAEXXZ 1006017d f    CIL library: CIL module
 0001:0005f187       __unwindfunclet$?RegisterNonTypesFromScript@asCBuilder@@IAEXPAVasCScriptNode@@PAVasCScriptCode@@PAUasSNameSpace@@@Z$0 10060187 f    CIL library: CIL module
 0001:0005f18f       __unwindfunclet$?RegisterNonTypesFromScript@asCBuilder@@IAEXPAVasCScriptNode@@PAVasCScriptCode@@PAUasSNameSpace@@@Z$1 1006018f f    CIL library: CIL module
 0001:0005f197       __unwindfunclet$?RegisterNonTypesFromScript@asCBuilder@@IAEXPAVasCScriptNode@@PAVasCScriptCode@@PAUasSNameSpace@@@Z$2 10060197 f    CIL library: CIL module
 0001:0005f19f       __unwindfunclet$?RegisterNonTypesFromScript@asCBuilder@@IAEXPAVasCScriptNode@@PAVasCScriptCode@@PAUasSNameSpace@@@Z$3 1006019f f    CIL library: CIL module
 0001:0005f1a7       __ehhandler$?RegisterNonTypesFromScript@asCBuilder@@IAEXPAVasCScriptNode@@PAVasCScriptCode@@PAUasSNameSpace@@@Z 100601a7 f    CIL library: CIL module
 0001:0005f1b1       __unwindfunclet$??0asCScriptEngine@@QAE@XZ$0 100601b1 f    CIL library: CIL module
 0001:0005f1b9       __unwindfunclet$??0asCScriptEngine@@QAE@XZ$1 100601b9 f    CIL library: CIL module
 0001:0005f1c6       __unwindfunclet$??0asCScriptEngine@@QAE@XZ$2 100601c6 f    CIL library: CIL module
 0001:0005f1d3       __unwindfunclet$??0asCScriptEngine@@QAE@XZ$3 100601d3 f    CIL library: CIL module
 0001:0005f1e2       __unwindfunclet$??0asCScriptEngine@@QAE@XZ$4 100601e2 f    CIL library: CIL module
 0001:0005f1f1       __unwindfunclet$??0asCScriptEngine@@QAE@XZ$5 100601f1 f    CIL library: CIL module
 0001:0005f200       __unwindfunclet$??0asCScriptEngine@@QAE@XZ$6 10060200 f    CIL library: CIL module
 0001:0005f20e       __unwindfunclet$??0asCScriptEngine@@QAE@XZ$7 1006020e f    CIL library: CIL module
 0001:0005f21c       __unwindfunclet$??0asCScriptEngine@@QAE@XZ$8 1006021c f    CIL library: CIL module
 0001:0005f22a       __unwindfunclet$??0asCScriptEngine@@QAE@XZ$9 1006022a f    CIL library: CIL module
 0001:0005f239       __unwindfunclet$??0asCScriptEngine@@QAE@XZ$10 10060239 f    CIL library: CIL module
 0001:0005f247       __unwindfunclet$??0asCScriptEngine@@QAE@XZ$11 10060247 f    CIL library: CIL module
 0001:0005f255       __unwindfunclet$??0asCScriptEngine@@QAE@XZ$12 10060255 f    CIL library: CIL module
 0001:0005f263       __unwindfunclet$??0asCScriptEngine@@QAE@XZ$13 10060263 f    CIL library: CIL module
 0001:0005f271       __unwindfunclet$??0asCScriptEngine@@QAE@XZ$14 10060271 f    CIL library: CIL module
 0001:0005f27f       __unwindfunclet$??0asCScriptEngine@@QAE@XZ$15 1006027f f    CIL library: CIL module
 0001:0005f28d       __unwindfunclet$??0asCScriptEngine@@QAE@XZ$16 1006028d f    CIL library: CIL module
 0001:0005f29b       __unwindfunclet$??0asCScriptEngine@@QAE@XZ$17 1006029b f    CIL library: CIL module
 0001:0005f2a9       __unwindfunclet$??0asCScriptEngine@@QAE@XZ$18 100602a9 f    CIL library: CIL module
 0001:0005f2b7       __unwindfunclet$??0asCScriptEngine@@QAE@XZ$19 100602b7 f    CIL library: CIL module
 0001:0005f2c5       __unwindfunclet$??0asCScriptEngine@@QAE@XZ$20 100602c5 f    CIL library: CIL module
 0001:0005f2d3       __unwindfunclet$??0asCScriptEngine@@QAE@XZ$21 100602d3 f    CIL library: CIL module
 0001:0005f2e1       __unwindfunclet$??0asCScriptEngine@@QAE@XZ$22 100602e1 f    CIL library: CIL module
 0001:0005f2ef       __unwindfunclet$??0asCScriptEngine@@QAE@XZ$23 100602ef f    CIL library: CIL module
 0001:0005f2fd       __unwindfunclet$??0asCScriptEngine@@QAE@XZ$24 100602fd f    CIL library: CIL module
 0001:0005f30b       __unwindfunclet$??0asCScriptEngine@@QAE@XZ$25 1006030b f    CIL library: CIL module
 0001:0005f318       __unwindfunclet$??0asCScriptEngine@@QAE@XZ$26 10060318 f    CIL library: CIL module
 0001:0005f326       __unwindfunclet$??0asCScriptEngine@@QAE@XZ$27 10060326 f    CIL library: CIL module
 0001:0005f334       __unwindfunclet$??0asCScriptEngine@@QAE@XZ$28 10060334 f    CIL library: CIL module
 0001:0005f342       __unwindfunclet$??0asCScriptEngine@@QAE@XZ$29 10060342 f    CIL library: CIL module
 0001:0005f350       __unwindfunclet$??0asCScriptEngine@@QAE@XZ$30 10060350 f    CIL library: CIL module
 0001:0005f35e       __unwindfunclet$??0asCScriptEngine@@QAE@XZ$31 1006035e f    CIL library: CIL module
 0001:0005f36d       __unwindfunclet$??0asCScriptEngine@@QAE@XZ$32 1006036d f    CIL library: CIL module
 0001:0005f37c       __unwindfunclet$??0asCScriptEngine@@QAE@XZ$33 1006037c f    CIL library: CIL module
 0001:0005f38a       __unwindfunclet$??0asCScriptEngine@@QAE@XZ$34 1006038a f    CIL library: CIL module
 0001:0005f397       __unwindfunclet$??0asCScriptEngine@@QAE@XZ$35 10060397 f    CIL library: CIL module
 0001:0005f3a5       __unwindfunclet$??0asCScriptEngine@@QAE@XZ$36 100603a5 f    CIL library: CIL module
 0001:0005f3b3       __unwindfunclet$??0asCScriptEngine@@QAE@XZ$37 100603b3 f    CIL library: CIL module
 0001:0005f3c1       __unwindfunclet$??0asCScriptEngine@@QAE@XZ$38 100603c1 f    CIL library: CIL module
 0001:0005f3cf       __unwindfunclet$??0asCScriptEngine@@QAE@XZ$39 100603cf f    CIL library: CIL module
 0001:0005f3dd       __unwindfunclet$??0asCScriptEngine@@QAE@XZ$40 100603dd f    CIL library: CIL module
 0001:0005f3eb       __unwindfunclet$??0asCScriptEngine@@QAE@XZ$41 100603eb f    CIL library: CIL module
 0001:0005f3f9       __ehhandler$??0asCScriptEngine@@QAE@XZ 100603f9 f    CIL library: CIL module
 0001:0005f403       __unwindfunclet$?ReadUsedObjectProps@asCReader@@IAEXXZ$0 10060403 f    CIL library: CIL module
 0001:0005f40b       __ehhandler$?ReadUsedObjectProps@asCReader@@IAEXXZ 1006040b f    CIL library: CIL module
 0001:0005f415       __unwindfunclet$?ReadGlobalProperty@asCReader@@IAEXXZ$0 10060415 f    CIL library: CIL module
 0001:0005f41d       __unwindfunclet$?ReadGlobalProperty@asCReader@@IAEXXZ$1 1006041d f    CIL library: CIL module
 0001:0005f425       __ehhandler$?ReadGlobalProperty@asCReader@@IAEXXZ 10060425 f    CIL library: CIL module
 0001:0005f42f       __unwindfunclet$?ReadObjectTypeDeclaration@asCReader@@IAEXPAVasCObjectType@@H@Z$0 1006042f f    CIL library: CIL module
 0001:0005f437       __unwindfunclet$?ReadObjectTypeDeclaration@asCReader@@IAEXPAVasCObjectType@@H@Z$2 10060437 f    CIL library: CIL module
 0001:0005f43f       __unwindfunclet$?ReadObjectTypeDeclaration@asCReader@@IAEXPAVasCObjectType@@H@Z$3 1006043f f    CIL library: CIL module
 0001:0005f447       __unwindfunclet$?ReadObjectTypeDeclaration@asCReader@@IAEXPAVasCObjectType@@H@Z$4 10060447 f    CIL library: CIL module
 0001:0005f44f       __unwindfunclet$?ReadObjectTypeDeclaration@asCReader@@IAEXPAVasCObjectType@@H@Z$5 1006044f f    CIL library: CIL module
 0001:0005f457       __unwindfunclet$?ReadObjectTypeDeclaration@asCReader@@IAEXPAVasCObjectType@@H@Z$6 10060457 f    CIL library: CIL module
 0001:0005f45f       __unwindfunclet$?ReadObjectTypeDeclaration@asCReader@@IAEXPAVasCObjectType@@H@Z$7 1006045f f    CIL library: CIL module
 0001:0005f467       __unwindfunclet$?ReadObjectTypeDeclaration@asCReader@@IAEXPAVasCObjectType@@H@Z$8 10060467 f    CIL library: CIL module
 0001:0005f46f       __unwindfunclet$?ReadObjectTypeDeclaration@asCReader@@IAEXPAVasCObjectType@@H@Z$9 1006046f f    CIL library: CIL module
 0001:0005f477       __unwindfunclet$?ReadObjectTypeDeclaration@asCReader@@IAEXPAVasCObjectType@@H@Z$10 10060477 f    CIL library: CIL module
 0001:0005f47f       __ehhandler$?ReadObjectTypeDeclaration@asCReader@@IAEXPAVasCObjectType@@H@Z 1006047f f    CIL library: CIL module
 0001:0005f489       __unwindfunclet$?ReadInner@asCReader@@IAEHXZ$4 10060489 f    CIL library: CIL module
 0001:0005f491       __unwindfunclet$?ReadInner@asCReader@@IAEHXZ$5 10060491 f    CIL library: CIL module
 0001:0005f499       __unwindfunclet$?ReadInner@asCReader@@IAEHXZ$6 10060499 f    CIL library: CIL module
 0001:0005f4a1       __ehhandler$?ReadInner@asCReader@@IAEHXZ 100604a1 f    CIL library: CIL module
 0001:0005f4ab       __unwindfunclet$?ParseReturn@asCParser@@IAEPAVasCScriptNode@@XZ$0 100604ab f    CIL library: CIL module
 0001:0005f4b3       __unwindfunclet$?ParseReturn@asCParser@@IAEPAVasCScriptNode@@XZ$1 100604b3 f    CIL library: CIL module
 0001:0005f4bb       __ehhandler$?ParseReturn@asCParser@@IAEPAVasCScriptNode@@XZ 100604bb f    CIL library: CIL module
 0001:0005f4c5       __unwindfunclet$?ParseWhile@asCParser@@IAEPAVasCScriptNode@@XZ$0 100604c5 f    CIL library: CIL module
 0001:0005f4cd       __unwindfunclet$?ParseWhile@asCParser@@IAEPAVasCScriptNode@@XZ$1 100604cd f    CIL library: CIL module
 0001:0005f4d5       __unwindfunclet$?ParseWhile@asCParser@@IAEPAVasCScriptNode@@XZ$2 100604d5 f    CIL library: CIL module
 0001:0005f4dd       __ehhandler$?ParseWhile@asCParser@@IAEPAVasCScriptNode@@XZ 100604dd f    CIL library: CIL module
 0001:0005f4e7       __unwindfunclet$?ParseIf@asCParser@@IAEPAVasCScriptNode@@XZ$0 100604e7 f    CIL library: CIL module
 0001:0005f4ef       __unwindfunclet$?ParseIf@asCParser@@IAEPAVasCScriptNode@@XZ$1 100604ef f    CIL library: CIL module
 0001:0005f4f7       __unwindfunclet$?ParseIf@asCParser@@IAEPAVasCScriptNode@@XZ$2 100604f7 f    CIL library: CIL module
 0001:0005f4ff       __ehhandler$?ParseIf@asCParser@@IAEPAVasCScriptNode@@XZ 100604ff f    CIL library: CIL module
 0001:0005f509       __unwindfunclet$?ParseExpressionStatement@asCParser@@IAEPAVasCScriptNode@@XZ$0 10060509 f    CIL library: CIL module
 0001:0005f511       __ehhandler$?ParseExpressionStatement@asCParser@@IAEPAVasCScriptNode@@XZ 10060511 f    CIL library: CIL module
 0001:0005f51b       __unwindfunclet$?ParseInitList@asCParser@@IAEPAVasCScriptNode@@XZ$0 1006051b f    CIL library: CIL module
 0001:0005f523       __unwindfunclet$?ParseInitList@asCParser@@IAEPAVasCScriptNode@@XZ$1 10060523 f    CIL library: CIL module
 0001:0005f52b       __unwindfunclet$?ParseInitList@asCParser@@IAEPAVasCScriptNode@@XZ$2 1006052b f    CIL library: CIL module
 0001:0005f533       __ehhandler$?ParseInitList@asCParser@@IAEPAVasCScriptNode@@XZ 10060533 f    CIL library: CIL module
 0001:0005f53d       __unwindfunclet$?ParseVarInit@asCParser@@QAEHPAVasCScriptCode@@PAVasCScriptNode@@@Z$0 1006053d f    CIL library: CIL module
 0001:0005f545       __unwindfunclet$?ParseVarInit@asCParser@@QAEHPAVasCScriptCode@@PAVasCScriptNode@@@Z$1 10060545 f    CIL library: CIL module
 0001:0005f54d       __ehhandler$?ParseVarInit@asCParser@@QAEHPAVasCScriptCode@@PAVasCScriptNode@@@Z 1006054d f    CIL library: CIL module
 0001:0005f557       __unwindfunclet$?LoadByteCode@asCModule@@UAEHPAVasIBinaryStream@@PA_N@Z$0 10060557 f    CIL library: CIL module
 0001:0005f564       __ehhandler$?LoadByteCode@asCModule@@UAEHPAVasIBinaryStream@@PA_N@Z 10060564 f    CIL library: CIL module
 0001:0005f56e       __unwindfunclet$?CompileOperatorOnHandles@asCCompiler@@IAEXPAVasCScriptNode@@PAUasSExprContext@@11@Z$0 1006056e f    CIL library: CIL module
 0001:0005f576       __unwindfunclet$?CompileOperatorOnHandles@asCCompiler@@IAEXPAVasCScriptNode@@PAUasSExprContext@@11@Z$1 10060576 f    CIL library: CIL module
 0001:0005f57e       __unwindfunclet$?CompileOperatorOnHandles@asCCompiler@@IAEXPAVasCScriptNode@@PAUasSExprContext@@11@Z$2 1006057e f    CIL library: CIL module
 0001:0005f586       __unwindfunclet$?CompileOperatorOnHandles@asCCompiler@@IAEXPAVasCScriptNode@@PAUasSExprContext@@11@Z$3 10060586 f    CIL library: CIL module
 0001:0005f58e       __unwindfunclet$?CompileOperatorOnHandles@asCCompiler@@IAEXPAVasCScriptNode@@PAUasSExprContext@@11@Z$4 1006058e f    CIL library: CIL module
 0001:0005f596       __unwindfunclet$?CompileOperatorOnHandles@asCCompiler@@IAEXPAVasCScriptNode@@PAUasSExprContext@@11@Z$5 10060596 f    CIL library: CIL module
 0001:0005f59e       __unwindfunclet$?CompileOperatorOnHandles@asCCompiler@@IAEXPAVasCScriptNode@@PAUasSExprContext@@11@Z$6 1006059e f    CIL library: CIL module
 0001:0005f5a6       __unwindfunclet$?CompileOperatorOnHandles@asCCompiler@@IAEXPAVasCScriptNode@@PAUasSExprContext@@11@Z$7 100605a6 f    CIL library: CIL module
 0001:0005f5ae       __unwindfunclet$?CompileOperatorOnHandles@asCCompiler@@IAEXPAVasCScriptNode@@PAUasSExprContext@@11@Z$8 100605ae f    CIL library: CIL module
 0001:0005f5b6       __unwindfunclet$?CompileOperatorOnHandles@asCCompiler@@IAEXPAVasCScriptNode@@PAUasSExprContext@@11@Z$9 100605b6 f    CIL library: CIL module
 0001:0005f5be       __unwindfunclet$?CompileOperatorOnHandles@asCCompiler@@IAEXPAVasCScriptNode@@PAUasSExprContext@@11@Z$10 100605be f    CIL library: CIL module
 0001:0005f5c6       __unwindfunclet$?CompileOperatorOnHandles@asCCompiler@@IAEXPAVasCScriptNode@@PAUasSExprContext@@11@Z$11 100605c6 f    CIL library: CIL module
 0001:0005f5ce       __ehhandler$?CompileOperatorOnHandles@asCCompiler@@IAEXPAVasCScriptNode@@PAUasSExprContext@@11@Z 100605ce f    CIL library: CIL module
 0001:0005f5d8       __unwindfunclet$?CompileOperator@asCCompiler@@IAEHPAVasCScriptNode@@PAUasSExprContext@@11@Z$2 100605d8 f    CIL library: CIL module
 0001:0005f5e0       __unwindfunclet$?CompileOperator@asCCompiler@@IAEHPAVasCScriptNode@@PAUasSExprContext@@11@Z$3 100605e0 f    CIL library: CIL module
 0001:0005f5e8       __unwindfunclet$?CompileOperator@asCCompiler@@IAEHPAVasCScriptNode@@PAUasSExprContext@@11@Z$4 100605e8 f    CIL library: CIL module
 0001:0005f5f0       __unwindfunclet$?CompileOperator@asCCompiler@@IAEHPAVasCScriptNode@@PAUasSExprContext@@11@Z$1 100605f0 f    CIL library: CIL module
 0001:0005f5f8       __unwindfunclet$?CompileOperator@asCCompiler@@IAEHPAVasCScriptNode@@PAUasSExprContext@@11@Z$0 100605f8 f    CIL library: CIL module
 0001:0005f600       __ehhandler$?CompileOperator@asCCompiler@@IAEHPAVasCScriptNode@@PAUasSExprContext@@11@Z 10060600 f    CIL library: CIL module
 0001:0005f60a       __unwindfunclet$?DoAssignment@asCCompiler@@IAEHPAUasSExprContext@@00PAVasCScriptNode@@1H1@Z$3 1006060a f    CIL library: CIL module
 0001:0005f615       __unwindfunclet$?DoAssignment@asCCompiler@@IAEHPAUasSExprContext@@00PAVasCScriptNode@@1H1@Z$4 10060615 f    CIL library: CIL module
 0001:0005f620       __unwindfunclet$?DoAssignment@asCCompiler@@IAEHPAUasSExprContext@@00PAVasCScriptNode@@1H1@Z$5 10060620 f    CIL library: CIL module
 0001:0005f62b       __unwindfunclet$?DoAssignment@asCCompiler@@IAEHPAUasSExprContext@@00PAVasCScriptNode@@1H1@Z$6 1006062b f    CIL library: CIL module
 0001:0005f636       __unwindfunclet$?DoAssignment@asCCompiler@@IAEHPAUasSExprContext@@00PAVasCScriptNode@@1H1@Z$7 10060636 f    CIL library: CIL module
 0001:0005f641       __unwindfunclet$?DoAssignment@asCCompiler@@IAEHPAUasSExprContext@@00PAVasCScriptNode@@1H1@Z$8 10060641 f    CIL library: CIL module
 0001:0005f64c       __unwindfunclet$?DoAssignment@asCCompiler@@IAEHPAUasSExprContext@@00PAVasCScriptNode@@1H1@Z$9 1006064c f    CIL library: CIL module
 0001:0005f657       __unwindfunclet$?DoAssignment@asCCompiler@@IAEHPAUasSExprContext@@00PAVasCScriptNode@@1H1@Z$10 10060657 f    CIL library: CIL module
 0001:0005f662       __unwindfunclet$?DoAssignment@asCCompiler@@IAEHPAUasSExprContext@@00PAVasCScriptNode@@1H1@Z$11 10060662 f    CIL library: CIL module
 0001:0005f66d       __unwindfunclet$?DoAssignment@asCCompiler@@IAEHPAUasSExprContext@@00PAVasCScriptNode@@1H1@Z$12 1006066d f    CIL library: CIL module
 0001:0005f678       __unwindfunclet$?DoAssignment@asCCompiler@@IAEHPAUasSExprContext@@00PAVasCScriptNode@@1H1@Z$13 10060678 f    CIL library: CIL module
 0001:0005f683       __unwindfunclet$?DoAssignment@asCCompiler@@IAEHPAUasSExprContext@@00PAVasCScriptNode@@1H1@Z$14 10060683 f    CIL library: CIL module
 0001:0005f68e       __unwindfunclet$?DoAssignment@asCCompiler@@IAEHPAUasSExprContext@@00PAVasCScriptNode@@1H1@Z$15 1006068e f    CIL library: CIL module
 0001:0005f699       __unwindfunclet$?DoAssignment@asCCompiler@@IAEHPAUasSExprContext@@00PAVasCScriptNode@@1H1@Z$16 10060699 f    CIL library: CIL module
 0001:0005f6a4       __unwindfunclet$?DoAssignment@asCCompiler@@IAEHPAUasSExprContext@@00PAVasCScriptNode@@1H1@Z$17 100606a4 f    CIL library: CIL module
 0001:0005f6af       __unwindfunclet$?DoAssignment@asCCompiler@@IAEHPAUasSExprContext@@00PAVasCScriptNode@@1H1@Z$18 100606af f    CIL library: CIL module
 0001:0005f6ba       __unwindfunclet$?DoAssignment@asCCompiler@@IAEHPAUasSExprContext@@00PAVasCScriptNode@@1H1@Z$19 100606ba f    CIL library: CIL module
 0001:0005f6c5       __unwindfunclet$?DoAssignment@asCCompiler@@IAEHPAUasSExprContext@@00PAVasCScriptNode@@1H1@Z$20 100606c5 f    CIL library: CIL module
 0001:0005f6d0       __unwindfunclet$?DoAssignment@asCCompiler@@IAEHPAUasSExprContext@@00PAVasCScriptNode@@1H1@Z$21 100606d0 f    CIL library: CIL module
 0001:0005f6db       __unwindfunclet$?DoAssignment@asCCompiler@@IAEHPAUasSExprContext@@00PAVasCScriptNode@@1H1@Z$1 100606db f    CIL library: CIL module
 0001:0005f6e6       __unwindfunclet$?DoAssignment@asCCompiler@@IAEHPAUasSExprContext@@00PAVasCScriptNode@@1H1@Z$2 100606e6 f    CIL library: CIL module
 0001:0005f6f1       __unwindfunclet$?DoAssignment@asCCompiler@@IAEHPAUasSExprContext@@00PAVasCScriptNode@@1H1@Z$0 100606f1 f    CIL library: CIL module
 0001:0005f6fc       __ehhandler$?DoAssignment@asCCompiler@@IAEHPAUasSExprContext@@00PAVasCScriptNode@@1H1@Z 100606fc f    CIL library: CIL module
 0001:0005f706       __unwindfunclet$?CompileMemberInitialization@asCCompiler@@IAEXPAVasCByteCode@@_N@Z$0 10060706 f    CIL library: CIL module
 0001:0005f710       __unwindfunclet$?CompileMemberInitialization@asCCompiler@@IAEXPAVasCByteCode@@_N@Z$1 10060710 f    CIL library: CIL module
 0001:0005f71a       __ehhandler$?CompileMemberInitialization@asCCompiler@@IAEXPAVasCByteCode@@_N@Z 1006071a f    CIL library: CIL module
 0001:0005f724       __unwindfunclet$?CompileDefaultConstructor@asCCompiler@@QAEHPAVasCBuilder@@PAVasCScriptCode@@PAVasCScriptNode@@PAVasCScriptFunction@@PAUsClassDeclaration@@@Z$0 10060724 f    CIL library: CIL module
 0001:0005f72c       __ehhandler$?CompileDefaultConstructor@asCCompiler@@QAEHPAVasCBuilder@@PAVasCScriptCode@@PAVasCScriptNode@@PAVasCScriptFunction@@PAUsClassDeclaration@@@Z 1006072c f    CIL library: CIL module
 0001:0005f736       __unwindfunclet$?ParseDeclaration@asCParser@@IAEPAVasCScriptNode@@_N0@Z$0 10060736 f    CIL library: CIL module
 0001:0005f73e       __ehhandler$?ParseDeclaration@asCParser@@IAEPAVasCScriptNode@@_N0@Z 1006073e f    CIL library: CIL module
 0001:0005f748       __unwindfunclet$?ParseStatementBlock@asCParser@@IAEPAVasCScriptNode@@XZ$0 10060748 f    CIL library: CIL module
 0001:0005f750       __unwindfunclet$?ParseStatementBlock@asCParser@@IAEPAVasCScriptNode@@XZ$1 10060750 f    CIL library: CIL module
 0001:0005f758       __unwindfunclet$?ParseStatementBlock@asCParser@@IAEPAVasCScriptNode@@XZ$2 10060758 f    CIL library: CIL module
 0001:0005f760       __ehhandler$?ParseStatementBlock@asCParser@@IAEPAVasCScriptNode@@XZ 10060760 f    CIL library: CIL module
 0001:0005f76a       __unwindfunclet$?ParseClass@asCParser@@IAEPAVasCScriptNode@@XZ$0 1006076a f    CIL library: CIL module
 0001:0005f772       __unwindfunclet$?ParseClass@asCParser@@IAEPAVasCScriptNode@@XZ$1 10060772 f    CIL library: CIL module
 0001:0005f77a       __unwindfunclet$?ParseClass@asCParser@@IAEPAVasCScriptNode@@XZ$3 1006077a f    CIL library: CIL module
 0001:0005f782       __unwindfunclet$?ParseClass@asCParser@@IAEPAVasCScriptNode@@XZ$2 10060782 f    CIL library: CIL module
 0001:0005f78a       __ehhandler$?ParseClass@asCParser@@IAEPAVasCScriptNode@@XZ 1006078a f    CIL library: CIL module
 0001:0005f794       __unwindfunclet$?ParseMixin@asCParser@@IAEPAVasCScriptNode@@XZ$0 10060794 f    CIL library: CIL module
 0001:0005f79c       __ehhandler$?ParseMixin@asCParser@@IAEPAVasCScriptNode@@XZ 1006079c f    CIL library: CIL module
 0001:0005f7a6       __unwindfunclet$?ParseScript@asCParser@@IAEPAVasCScriptNode@@_N@Z$0 100607a6 f    CIL library: CIL module
 0001:0005f7ae       __ehhandler$?ParseScript@asCParser@@IAEPAVasCScriptNode@@_N@Z 100607ae f    CIL library: CIL module
 0001:0005f7b8       __unwindfunclet$?ProcessDeferredParams@asCCompiler@@IAEXPAUasSExprContext@@@Z$2 100607b8 f    CIL library: CIL module
 0001:0005f7c3       __unwindfunclet$?ProcessDeferredParams@asCCompiler@@IAEXPAUasSExprContext@@@Z$0 100607c3 f    CIL library: CIL module
 0001:0005f7ce       __unwindfunclet$?ProcessDeferredParams@asCCompiler@@IAEXPAUasSExprContext@@@Z$1 100607ce f    CIL library: CIL module
 0001:0005f7d9       __ehhandler$?ProcessDeferredParams@asCCompiler@@IAEXPAUasSExprContext@@@Z 100607d9 f    CIL library: CIL module
 0001:0005f7e3       __unwindfunclet$?ParseScripts@asCBuilder@@IAEXXZ$0 100607e3 f    CIL library: CIL module
 0001:0005f7eb       __ehhandler$?ParseScripts@asCBuilder@@IAEXXZ 100607eb f    CIL library: CIL module
 0001:0005f7f5       __unwindfunclet$?ParseFor@asCParser@@IAEPAVasCScriptNode@@XZ$0 100607f5 f    CIL library: CIL module
 0001:0005f7fd       __unwindfunclet$?ParseFor@asCParser@@IAEPAVasCScriptNode@@XZ$1 100607fd f    CIL library: CIL module
 0001:0005f805       __unwindfunclet$?ParseFor@asCParser@@IAEPAVasCScriptNode@@XZ$2 10060805 f    CIL library: CIL module
 0001:0005f80d       __ehhandler$?ParseFor@asCParser@@IAEPAVasCScriptNode@@XZ 1006080d f    CIL library: CIL module
 0001:0005f817       __unwindfunclet$?ParseCase@asCParser@@IAEPAVasCScriptNode@@XZ$0 10060817 f    CIL library: CIL module
 0001:0005f81f       __unwindfunclet$?ParseCase@asCParser@@IAEPAVasCScriptNode@@XZ$1 1006081f f    CIL library: CIL module
 0001:0005f827       __ehhandler$?ParseCase@asCParser@@IAEPAVasCScriptNode@@XZ 10060827 f    CIL library: CIL module
 0001:0005f831       __unwindfunclet$?ParseSwitch@asCParser@@IAEPAVasCScriptNode@@XZ$0 10060831 f    CIL library: CIL module
 0001:0005f839       __unwindfunclet$?ParseSwitch@asCParser@@IAEPAVasCScriptNode@@XZ$1 10060839 f    CIL library: CIL module
 0001:0005f841       __unwindfunclet$?ParseSwitch@asCParser@@IAEPAVasCScriptNode@@XZ$2 10060841 f    CIL library: CIL module
 0001:0005f849       __unwindfunclet$?ParseSwitch@asCParser@@IAEPAVasCScriptNode@@XZ$3 10060849 f    CIL library: CIL module
 0001:0005f851       __unwindfunclet$?ParseSwitch@asCParser@@IAEPAVasCScriptNode@@XZ$4 10060851 f    CIL library: CIL module
 0001:0005f859       __unwindfunclet$?ParseSwitch@asCParser@@IAEPAVasCScriptNode@@XZ$5 10060859 f    CIL library: CIL module
 0001:0005f861       __ehhandler$?ParseSwitch@asCParser@@IAEPAVasCScriptNode@@XZ 10060861 f    CIL library: CIL module
 0001:0005f86b       __unwindfunclet$?ParseNamespace@asCParser@@IAEPAVasCScriptNode@@XZ$0 1006086b f    CIL library: CIL module
 0001:0005f873       __unwindfunclet$?ParseNamespace@asCParser@@IAEPAVasCScriptNode@@XZ$2 10060873 f    CIL library: CIL module
 0001:0005f87b       __unwindfunclet$?ParseNamespace@asCParser@@IAEPAVasCScriptNode@@XZ$3 1006087b f    CIL library: CIL module
 0001:0005f883       __unwindfunclet$?ParseNamespace@asCParser@@IAEPAVasCScriptNode@@XZ$4 10060883 f    CIL library: CIL module
 0001:0005f88b       __unwindfunclet$?ParseNamespace@asCParser@@IAEPAVasCScriptNode@@XZ$1 1006088b f    CIL library: CIL module
 0001:0005f893       __ehhandler$?ParseNamespace@asCParser@@IAEPAVasCScriptNode@@XZ 10060893 f    CIL library: CIL module
 0001:0005f89d       __unwindfunclet$?PerformFunctionCall@asCCompiler@@IAEXHPAUasSExprContext@@_NPAV?$asCArray@PAUasSExprContext@@@@PAVasCObjectType@@1HH@Z$0 1006089d f    CIL library: CIL module
 0001:0005f8a5       __unwindfunclet$?PerformFunctionCall@asCCompiler@@IAEXHPAUasSExprContext@@_NPAV?$asCArray@PAUasSExprContext@@@@PAVasCObjectType@@1HH@Z$1 100608a5 f    CIL library: CIL module
 0001:0005f8ad       __unwindfunclet$?PerformFunctionCall@asCCompiler@@IAEXHPAUasSExprContext@@_NPAV?$asCArray@PAUasSExprContext@@@@PAVasCObjectType@@1HH@Z$2 100608ad f    CIL library: CIL module
 0001:0005f8b5       __unwindfunclet$?PerformFunctionCall@asCCompiler@@IAEXHPAUasSExprContext@@_NPAV?$asCArray@PAUasSExprContext@@@@PAVasCObjectType@@1HH@Z$3 100608b5 f    CIL library: CIL module
 0001:0005f8bd       __ehhandler$?PerformFunctionCall@asCCompiler@@IAEXHPAUasSExprContext@@_NPAV?$asCArray@PAUasSExprContext@@@@PAVasCObjectType@@1HH@Z 100608bd f    CIL library: CIL module
 0001:0005f8c7       __unwindfunclet$?ImplicitConvPrimitiveToObject@asCCompiler@@IAEIPAUasSExprContext@@ABVasCDataType@@PAVasCScriptNode@@W4EImplicitConv@@_N4@Z$0 100608c7 f    CIL library: CIL module
 0001:0005f8d2       __unwindfunclet$?ImplicitConvPrimitiveToObject@asCCompiler@@IAEIPAUasSExprContext@@ABVasCDataType@@PAVasCScriptNode@@W4EImplicitConv@@_N4@Z$1 100608d2 f    CIL library: CIL module
 0001:0005f8dd       __unwindfunclet$?ImplicitConvPrimitiveToObject@asCCompiler@@IAEIPAUasSExprContext@@ABVasCDataType@@PAVasCScriptNode@@W4EImplicitConv@@_N4@Z$2 100608dd f    CIL library: CIL module
 0001:0005f8e8       __unwindfunclet$?ImplicitConvPrimitiveToObject@asCCompiler@@IAEIPAUasSExprContext@@ABVasCDataType@@PAVasCScriptNode@@W4EImplicitConv@@_N4@Z$3 100608e8 f    CIL library: CIL module
 0001:0005f8f3       __ehhandler$?ImplicitConvPrimitiveToObject@asCCompiler@@IAEIPAUasSExprContext@@ABVasCDataType@@PAVasCScriptNode@@W4EImplicitConv@@_N4@Z 100608f3 f    CIL library: CIL module
 0001:0005f8fd       __unwindfunclet$?CallDestructor@asCCompiler@@IAEXAAVasCDataType@@H_NPAVasCByteCode@@@Z$0 100608fd f    CIL library: CIL module
 0001:0005f908       __ehhandler$?CallDestructor@asCCompiler@@IAEXAAVasCDataType@@H_NPAVasCByteCode@@@Z 10060908 f    CIL library: CIL module
 0001:0005f912       __unwindfunclet$?ParseDoWhile@asCParser@@IAEPAVasCScriptNode@@XZ$0 10060912 f    CIL library: CIL module
 0001:0005f91a       __unwindfunclet$?ParseDoWhile@asCParser@@IAEPAVasCScriptNode@@XZ$1 1006091a f    CIL library: CIL module
 0001:0005f922       __unwindfunclet$?ParseDoWhile@asCParser@@IAEPAVasCScriptNode@@XZ$2 10060922 f    CIL library: CIL module
 0001:0005f92a       __unwindfunclet$?ParseDoWhile@asCParser@@IAEPAVasCScriptNode@@XZ$3 1006092a f    CIL library: CIL module
 0001:0005f932       __unwindfunclet$?ParseDoWhile@asCParser@@IAEPAVasCScriptNode@@XZ$4 10060932 f    CIL library: CIL module
 0001:0005f93a       __ehhandler$?ParseDoWhile@asCParser@@IAEPAVasCScriptNode@@XZ 1006093a f    CIL library: CIL module
 0001:0005f944       __unwindfunclet$?CompileContinueStatement@asCCompiler@@IAEXPAVasCScriptNode@@PAVasCByteCode@@@Z$0 10060944 f    CIL library: CIL module
 0001:0005f94c       __ehhandler$?CompileContinueStatement@asCCompiler@@IAEXPAVasCScriptNode@@PAVasCByteCode@@@Z 1006094c f    CIL library: CIL module
 0001:0005f956       __unwindfunclet$?CompileBreakStatement@asCCompiler@@IAEXPAVasCScriptNode@@PAVasCByteCode@@@Z$0 10060956 f    CIL library: CIL module
 0001:0005f95e       __ehhandler$?CompileBreakStatement@asCCompiler@@IAEXPAVasCScriptNode@@PAVasCByteCode@@@Z 1006095e f    CIL library: CIL module
 0001:0005f968       __unwindfunclet$?ImplicitConvObjectValue@asCCompiler@@IAEIPAUasSExprContext@@ABVasCDataType@@PAVasCScriptNode@@W4EImplicitConv@@_N@Z$0 10060968 f    CIL library: CIL module
 0001:0005f970       __ehhandler$?ImplicitConvObjectValue@asCCompiler@@IAEIPAUasSExprContext@@ABVasCDataType@@PAVasCScriptNode@@W4EImplicitConv@@_N@Z 10060970 f    CIL library: CIL module
 0001:0005f97a       __unwindfunclet$?ImplicitConvObjectToPrimitive@asCCompiler@@IAEIPAUasSExprContext@@ABVasCDataType@@PAVasCScriptNode@@W4EImplicitConv@@_N@Z$0 1006097a f    CIL library: CIL module
 0001:0005f982       __unwindfunclet$?ImplicitConvObjectToPrimitive@asCCompiler@@IAEIPAUasSExprContext@@ABVasCDataType@@PAVasCScriptNode@@W4EImplicitConv@@_N@Z$1 10060982 f    CIL library: CIL module
 0001:0005f98a       __unwindfunclet$?ImplicitConvObjectToPrimitive@asCCompiler@@IAEIPAUasSExprContext@@ABVasCDataType@@PAVasCScriptNode@@W4EImplicitConv@@_N@Z$2 1006098a f    CIL library: CIL module
 0001:0005f992       __unwindfunclet$?ImplicitConvObjectToPrimitive@asCCompiler@@IAEIPAUasSExprContext@@ABVasCDataType@@PAVasCScriptNode@@W4EImplicitConv@@_N@Z$3 10060992 f    CIL library: CIL module
 0001:0005f99d       __unwindfunclet$?ImplicitConvObjectToPrimitive@asCCompiler@@IAEIPAUasSExprContext@@ABVasCDataType@@PAVasCScriptNode@@W4EImplicitConv@@_N@Z$4 1006099d f    CIL library: CIL module
 0001:0005f9a8       __unwindfunclet$?ImplicitConvObjectToPrimitive@asCCompiler@@IAEIPAUasSExprContext@@ABVasCDataType@@PAVasCScriptNode@@W4EImplicitConv@@_N@Z$5 100609a8 f    CIL library: CIL module
 0001:0005f9b0       __unwindfunclet$?ImplicitConvObjectToPrimitive@asCCompiler@@IAEIPAUasSExprContext@@ABVasCDataType@@PAVasCScriptNode@@W4EImplicitConv@@_N@Z$6 100609b0 f    CIL library: CIL module
 0001:0005f9b8       __ehhandler$?ImplicitConvObjectToPrimitive@asCCompiler@@IAEIPAUasSExprContext@@ABVasCDataType@@PAVasCScriptNode@@W4EImplicitConv@@_N@Z 100609b8 f    CIL library: CIL module
 0001:0005f9c2       __unwindfunclet$?ImplicitConvPrimitiveToPrimitive@asCCompiler@@IAEIPAUasSExprContext@@ABVasCDataType@@PAVasCScriptNode@@W4EImplicitConv@@_N@Z$2 100609c2 f    CIL library: CIL module
 0001:0005f9ca       __unwindfunclet$?ImplicitConvPrimitiveToPrimitive@asCCompiler@@IAEIPAUasSExprContext@@ABVasCDataType@@PAVasCScriptNode@@W4EImplicitConv@@_N@Z$0 100609ca f    CIL library: CIL module
 0001:0005f9d2       __unwindfunclet$?ImplicitConvPrimitiveToPrimitive@asCCompiler@@IAEIPAUasSExprContext@@ABVasCDataType@@PAVasCScriptNode@@W4EImplicitConv@@_N@Z$1 100609d2 f    CIL library: CIL module
 0001:0005f9da       __unwindfunclet$?ImplicitConvPrimitiveToPrimitive@asCCompiler@@IAEIPAUasSExprContext@@ABVasCDataType@@PAVasCScriptNode@@W4EImplicitConv@@_N@Z$3 100609da f    CIL library: CIL module
 0001:0005f9e2       __unwindfunclet$?ImplicitConvPrimitiveToPrimitive@asCCompiler@@IAEIPAUasSExprContext@@ABVasCDataType@@PAVasCScriptNode@@W4EImplicitConv@@_N@Z$4 100609e2 f    CIL library: CIL module
 0001:0005f9ea       __unwindfunclet$?ImplicitConvPrimitiveToPrimitive@asCCompiler@@IAEIPAUasSExprContext@@ABVasCDataType@@PAVasCScriptNode@@W4EImplicitConv@@_N@Z$5 100609ea f    CIL library: CIL module
 0001:0005f9f2       __unwindfunclet$?ImplicitConvPrimitiveToPrimitive@asCCompiler@@IAEIPAUasSExprContext@@ABVasCDataType@@PAVasCScriptNode@@W4EImplicitConv@@_N@Z$6 100609f2 f    CIL library: CIL module
 0001:0005f9fa       __unwindfunclet$?ImplicitConvPrimitiveToPrimitive@asCCompiler@@IAEIPAUasSExprContext@@ABVasCDataType@@PAVasCScriptNode@@W4EImplicitConv@@_N@Z$7 100609fa f    CIL library: CIL module
 0001:0005fa02       __ehhandler$?ImplicitConvPrimitiveToPrimitive@asCCompiler@@IAEIPAUasSExprContext@@ABVasCDataType@@PAVasCScriptNode@@W4EImplicitConv@@_N@Z 10060a02 f    CIL library: CIL module
 0001:0005fa0c       __unwindfunclet$?CompileRefCast@asCCompiler@@IAE_NPAUasSExprContext@@ABVasCDataType@@_NPAVasCScriptNode@@2@Z$0 10060a0c f    CIL library: CIL module
 0001:0005fa17       __unwindfunclet$?CompileRefCast@asCCompiler@@IAE_NPAUasSExprContext@@ABVasCDataType@@_NPAVasCScriptNode@@2@Z$1 10060a17 f    CIL library: CIL module
 0001:0005fa22       __unwindfunclet$?CompileRefCast@asCCompiler@@IAE_NPAUasSExprContext@@ABVasCDataType@@_NPAVasCScriptNode@@2@Z$2 10060a22 f    CIL library: CIL module
 0001:0005fa2d       __unwindfunclet$?CompileRefCast@asCCompiler@@IAE_NPAUasSExprContext@@ABVasCDataType@@_NPAVasCScriptNode@@2@Z$3 10060a2d f    CIL library: CIL module
 0001:0005fa38       __ehhandler$?CompileRefCast@asCCompiler@@IAE_NPAUasSExprContext@@ABVasCDataType@@_NPAVasCScriptNode@@2@Z 10060a38 f    CIL library: CIL module
 0001:0005fa42       __unwindfunclet$?ImplicitConvObjectRef@asCCompiler@@IAEIPAUasSExprContext@@ABVasCDataType@@PAVasCScriptNode@@W4EImplicitConv@@_N@Z$0 10060a42 f    CIL library: CIL module
 0001:0005fa4a       __unwindfunclet$?ImplicitConvObjectRef@asCCompiler@@IAEIPAUasSExprContext@@ABVasCDataType@@PAVasCScriptNode@@W4EImplicitConv@@_N@Z$1 10060a4a f    CIL library: CIL module
 0001:0005fa52       __unwindfunclet$?ImplicitConvObjectRef@asCCompiler@@IAEIPAUasSExprContext@@ABVasCDataType@@PAVasCScriptNode@@W4EImplicitConv@@_N@Z$2 10060a52 f    CIL library: CIL module
 0001:0005fa5a       __unwindfunclet$?ImplicitConvObjectRef@asCCompiler@@IAEIPAUasSExprContext@@ABVasCDataType@@PAVasCScriptNode@@W4EImplicitConv@@_N@Z$4 10060a5a f    CIL library: CIL module
 0001:0005fa62       __unwindfunclet$?ImplicitConvObjectRef@asCCompiler@@IAEIPAUasSExprContext@@ABVasCDataType@@PAVasCScriptNode@@W4EImplicitConv@@_N@Z$5 10060a62 f    CIL library: CIL module
 0001:0005fa6a       __ehhandler$?ImplicitConvObjectRef@asCCompiler@@IAEIPAUasSExprContext@@ABVasCDataType@@PAVasCScriptNode@@W4EImplicitConv@@_N@Z 10060a6a f    CIL library: CIL module
 0001:0005fa74       __unwindfunclet$?ImplicitConvObjectToObject@asCCompiler@@IAEIPAUasSExprContext@@ABVasCDataType@@PAVasCScriptNode@@W4EImplicitConv@@_N4@Z$0 10060a74 f    CIL library: CIL module
 0001:0005fa7f       __unwindfunclet$?ImplicitConvObjectToObject@asCCompiler@@IAEIPAUasSExprContext@@ABVasCDataType@@PAVasCScriptNode@@W4EImplicitConv@@_N4@Z$1 10060a7f f    CIL library: CIL module
 0001:0005fa8a       __unwindfunclet$?ImplicitConvObjectToObject@asCCompiler@@IAEIPAUasSExprContext@@ABVasCDataType@@PAVasCScriptNode@@W4EImplicitConv@@_N4@Z$2 10060a8a f    CIL library: CIL module
 0001:0005fa95       __unwindfunclet$?ImplicitConvObjectToObject@asCCompiler@@IAEIPAUasSExprContext@@ABVasCDataType@@PAVasCScriptNode@@W4EImplicitConv@@_N4@Z$3 10060a95 f    CIL library: CIL module
 0001:0005faa0       __unwindfunclet$?ImplicitConvObjectToObject@asCCompiler@@IAEIPAUasSExprContext@@ABVasCDataType@@PAVasCScriptNode@@W4EImplicitConv@@_N4@Z$4 10060aa0 f    CIL library: CIL module
 0001:0005faab       __unwindfunclet$?ImplicitConvObjectToObject@asCCompiler@@IAEIPAUasSExprContext@@ABVasCDataType@@PAVasCScriptNode@@W4EImplicitConv@@_N4@Z$5 10060aab f    CIL library: CIL module
 0001:0005fab6       __unwindfunclet$?ImplicitConvObjectToObject@asCCompiler@@IAEIPAUasSExprContext@@ABVasCDataType@@PAVasCScriptNode@@W4EImplicitConv@@_N4@Z$6 10060ab6 f    CIL library: CIL module
 0001:0005fac1       __ehhandler$?ImplicitConvObjectToObject@asCCompiler@@IAEIPAUasSExprContext@@ABVasCDataType@@PAVasCScriptNode@@W4EImplicitConv@@_N4@Z 10060ac1 f    CIL library: CIL module
 0001:0005facb       __unwindfunclet$?MatchArgument@asCCompiler@@IAEIAAV?$asCArray@H@@AAV?$asCArray@UasSOverloadCandidate@@@@PBUasSExprContext@@H_N@Z$0 10060acb f    CIL library: CIL module
 0001:0005fad6       __ehhandler$?MatchArgument@asCCompiler@@IAEIAAV?$asCArray@H@@AAV?$asCArray@UasSOverloadCandidate@@@@PBUasSExprContext@@H_N@Z 10060ad6 f    CIL library: CIL module
 0001:0005fae0       __unwindfunclet$?MatchFunctions@asCCompiler@@IAEIAAV?$asCArray@H@@AAV?$asCArray@PAUasSExprContext@@@@PAVasCScriptNode@@PBDPAVasCObjectType@@_N55ABVasCString@@@Z$0 10060ae0 f    CIL library: CIL module
 0001:0005fae8       __unwindfunclet$?MatchFunctions@asCCompiler@@IAEIAAV?$asCArray@H@@AAV?$asCArray@PAUasSExprContext@@@@PAVasCScriptNode@@PBDPAVasCObjectType@@_N55ABVasCString@@@Z$1 10060ae8 f    CIL library: CIL module
 0001:0005faf0       __unwindfunclet$?MatchFunctions@asCCompiler@@IAEIAAV?$asCArray@H@@AAV?$asCArray@PAUasSExprContext@@@@PAVasCScriptNode@@PBDPAVasCObjectType@@_N55ABVasCString@@@Z$2 10060af0 f    CIL library: CIL module
 0001:0005faf8       __unwindfunclet$?MatchFunctions@asCCompiler@@IAEIAAV?$asCArray@H@@AAV?$asCArray@PAUasSExprContext@@@@PAVasCScriptNode@@PBDPAVasCObjectType@@_N55ABVasCString@@@Z$3 10060af8 f    CIL library: CIL module
 0001:0005fb00       __unwindfunclet$?MatchFunctions@asCCompiler@@IAEIAAV?$asCArray@H@@AAV?$asCArray@PAUasSExprContext@@@@PAVasCScriptNode@@PBDPAVasCObjectType@@_N55ABVasCString@@@Z$4 10060b00 f    CIL library: CIL module
 0001:0005fb08       __unwindfunclet$?MatchFunctions@asCCompiler@@IAEIAAV?$asCArray@H@@AAV?$asCArray@PAUasSExprContext@@@@PAVasCScriptNode@@PBDPAVasCObjectType@@_N55ABVasCString@@@Z$5 10060b08 f    CIL library: CIL module
 0001:0005fb10       __unwindfunclet$?MatchFunctions@asCCompiler@@IAEIAAV?$asCArray@H@@AAV?$asCArray@PAUasSExprContext@@@@PAVasCScriptNode@@PBDPAVasCObjectType@@_N55ABVasCString@@@Z$6 10060b10 f    CIL library: CIL module
 0001:0005fb18       __unwindfunclet$?MatchFunctions@asCCompiler@@IAEIAAV?$asCArray@H@@AAV?$asCArray@PAUasSExprContext@@@@PAVasCScriptNode@@PBDPAVasCObjectType@@_N55ABVasCString@@@Z$7 10060b18 f    CIL library: CIL module
 0001:0005fb20       __unwindfunclet$?MatchFunctions@asCCompiler@@IAEIAAV?$asCArray@H@@AAV?$asCArray@PAUasSExprContext@@@@PAVasCScriptNode@@PBDPAVasCObjectType@@_N55ABVasCString@@@Z$8 10060b20 f    CIL library: CIL module
 0001:0005fb28       __unwindfunclet$?MatchFunctions@asCCompiler@@IAEIAAV?$asCArray@H@@AAV?$asCArray@PAUasSExprContext@@@@PAVasCScriptNode@@PBDPAVasCObjectType@@_N55ABVasCString@@@Z$9 10060b28 f    CIL library: CIL module
 0001:0005fb30       __unwindfunclet$?MatchFunctions@asCCompiler@@IAEIAAV?$asCArray@H@@AAV?$asCArray@PAUasSExprContext@@@@PAVasCScriptNode@@PBDPAVasCObjectType@@_N55ABVasCString@@@Z$10 10060b30 f    CIL library: CIL module
 0001:0005fb38       __ehhandler$?MatchFunctions@asCCompiler@@IAEIAAV?$asCArray@H@@AAV?$asCArray@PAUasSExprContext@@@@PAVasCScriptNode@@PBDPAVasCObjectType@@_N55ABVasCString@@@Z 10060b38 f    CIL library: CIL module
 0001:0005fb42       __unwindfunclet$?CompileDefaultArgs@asCCompiler@@IAEHPAVasCScriptNode@@AAV?$asCArray@PAUasSExprContext@@@@PAVasCScriptFunction@@@Z$0 10060b42 f    CIL library: CIL module
 0001:0005fb4d       __unwindfunclet$?CompileDefaultArgs@asCCompiler@@IAEHPAVasCScriptNode@@AAV?$asCArray@PAUasSExprContext@@@@PAVasCScriptFunction@@@Z$1 10060b4d f    CIL library: CIL module
 0001:0005fb5a       __unwindfunclet$?CompileDefaultArgs@asCCompiler@@IAEHPAVasCScriptNode@@AAV?$asCArray@PAUasSExprContext@@@@PAVasCScriptFunction@@@Z$2 10060b5a f    CIL library: CIL module
 0001:0005fb67       __unwindfunclet$?CompileDefaultArgs@asCCompiler@@IAEHPAVasCScriptNode@@AAV?$asCArray@PAUasSExprContext@@@@PAVasCScriptFunction@@@Z$3 10060b67 f    CIL library: CIL module
 0001:0005fb72       __unwindfunclet$?CompileDefaultArgs@asCCompiler@@IAEHPAVasCScriptNode@@AAV?$asCArray@PAUasSExprContext@@@@PAVasCScriptFunction@@@Z$4 10060b72 f    CIL library: CIL module
 0001:0005fb7d       __unwindfunclet$?CompileDefaultArgs@asCCompiler@@IAEHPAVasCScriptNode@@AAV?$asCArray@PAUasSExprContext@@@@PAVasCScriptFunction@@@Z$5 10060b7d f    CIL library: CIL module
 0001:0005fb88       __unwindfunclet$?CompileDefaultArgs@asCCompiler@@IAEHPAVasCScriptNode@@AAV?$asCArray@PAUasSExprContext@@@@PAVasCScriptFunction@@@Z$6 10060b88 f    CIL library: CIL module
 0001:0005fb93       __unwindfunclet$?CompileDefaultArgs@asCCompiler@@IAEHPAVasCScriptNode@@AAV?$asCArray@PAUasSExprContext@@@@PAVasCScriptFunction@@@Z$7 10060b93 f    CIL library: CIL module
 0001:0005fb9e       __unwindfunclet$?CompileDefaultArgs@asCCompiler@@IAEHPAVasCScriptNode@@AAV?$asCArray@PAUasSExprContext@@@@PAVasCScriptFunction@@@Z$8 10060b9e f    CIL library: CIL module
 0001:0005fba9       __unwindfunclet$?CompileDefaultArgs@asCCompiler@@IAEHPAVasCScriptNode@@AAV?$asCArray@PAUasSExprContext@@@@PAVasCScriptFunction@@@Z$9 10060ba9 f    CIL library: CIL module
 0001:0005fbb4       __unwindfunclet$?CompileDefaultArgs@asCCompiler@@IAEHPAVasCScriptNode@@AAV?$asCArray@PAUasSExprContext@@@@PAVasCScriptFunction@@@Z$11 10060bb4 f    CIL library: CIL module
 0001:0005fbbf       __ehhandler$?CompileDefaultArgs@asCCompiler@@IAEHPAVasCScriptNode@@AAV?$asCArray@PAUasSExprContext@@@@PAVasCScriptFunction@@@Z 10060bbf f    CIL library: CIL module
 0001:0005fbc9       __unwindfunclet$?ProcessPropertyGetAccessor@asCCompiler@@IAEXPAUasSExprContext@@PAVasCScriptNode@@@Z$0 10060bc9 f    CIL library: CIL module
 0001:0005fbd4       __unwindfunclet$?ProcessPropertyGetAccessor@asCCompiler@@IAEXPAUasSExprContext@@PAVasCScriptNode@@@Z$1 10060bd4 f    CIL library: CIL module
 0001:0005fbdc       __unwindfunclet$?ProcessPropertyGetAccessor@asCCompiler@@IAEXPAUasSExprContext@@PAVasCScriptNode@@@Z$2 10060bdc f    CIL library: CIL module
 0001:0005fbe4       __unwindfunclet$?ProcessPropertyGetAccessor@asCCompiler@@IAEXPAUasSExprContext@@PAVasCScriptNode@@@Z$3 10060be4 f    CIL library: CIL module
 0001:0005fbef       __unwindfunclet$?ProcessPropertyGetAccessor@asCCompiler@@IAEXPAUasSExprContext@@PAVasCScriptNode@@@Z$4 10060bef f    CIL library: CIL module
 0001:0005fbf7       __unwindfunclet$?ProcessPropertyGetAccessor@asCCompiler@@IAEXPAUasSExprContext@@PAVasCScriptNode@@@Z$5 10060bf7 f    CIL library: CIL module
 0001:0005fbff       __ehhandler$?ProcessPropertyGetAccessor@asCCompiler@@IAEXPAUasSExprContext@@PAVasCScriptNode@@@Z 10060bff f    CIL library: CIL module
 0001:0005fc09       __unwindfunclet$?CompileExpressionPreOp@asCCompiler@@IAEHPAVasCScriptNode@@PAUasSExprContext@@@Z$0 10060c09 f    CIL library: CIL module
 0001:0005fc11       __unwindfunclet$?CompileExpressionPreOp@asCCompiler@@IAEHPAVasCScriptNode@@PAUasSExprContext@@@Z$1 10060c11 f    CIL library: CIL module
 0001:0005fc19       __unwindfunclet$?CompileExpressionPreOp@asCCompiler@@IAEHPAVasCScriptNode@@PAUasSExprContext@@@Z$2 10060c19 f    CIL library: CIL module
 0001:0005fc21       __unwindfunclet$?CompileExpressionPreOp@asCCompiler@@IAEHPAVasCScriptNode@@PAUasSExprContext@@@Z$3 10060c21 f    CIL library: CIL module
 0001:0005fc29       __unwindfunclet$?CompileExpressionPreOp@asCCompiler@@IAEHPAVasCScriptNode@@PAUasSExprContext@@@Z$5 10060c29 f    CIL library: CIL module
 0001:0005fc31       __unwindfunclet$?CompileExpressionPreOp@asCCompiler@@IAEHPAVasCScriptNode@@PAUasSExprContext@@@Z$4 10060c31 f    CIL library: CIL module
 0001:0005fc39       __unwindfunclet$?CompileExpressionPreOp@asCCompiler@@IAEHPAVasCScriptNode@@PAUasSExprContext@@@Z$6 10060c39 f    CIL library: CIL module
 0001:0005fc41       __unwindfunclet$?CompileExpressionPreOp@asCCompiler@@IAEHPAVasCScriptNode@@PAUasSExprContext@@@Z$7 10060c41 f    CIL library: CIL module
 0001:0005fc49       __unwindfunclet$?CompileExpressionPreOp@asCCompiler@@IAEHPAVasCScriptNode@@PAUasSExprContext@@@Z$8 10060c49 f    CIL library: CIL module
 0001:0005fc51       __unwindfunclet$?CompileExpressionPreOp@asCCompiler@@IAEHPAVasCScriptNode@@PAUasSExprContext@@@Z$9 10060c51 f    CIL library: CIL module
 0001:0005fc59       __unwindfunclet$?CompileExpressionPreOp@asCCompiler@@IAEHPAVasCScriptNode@@PAUasSExprContext@@@Z$10 10060c59 f    CIL library: CIL module
 0001:0005fc61       __unwindfunclet$?CompileExpressionPreOp@asCCompiler@@IAEHPAVasCScriptNode@@PAUasSExprContext@@@Z$11 10060c61 f    CIL library: CIL module
 0001:0005fc69       __unwindfunclet$?CompileExpressionPreOp@asCCompiler@@IAEHPAVasCScriptNode@@PAUasSExprContext@@@Z$12 10060c69 f    CIL library: CIL module
 0001:0005fc71       __unwindfunclet$?CompileExpressionPreOp@asCCompiler@@IAEHPAVasCScriptNode@@PAUasSExprContext@@@Z$17 10060c71 f    CIL library: CIL module
 0001:0005fc79       __unwindfunclet$?CompileExpressionPreOp@asCCompiler@@IAEHPAVasCScriptNode@@PAUasSExprContext@@@Z$18 10060c79 f    CIL library: CIL module
 0001:0005fc81       __unwindfunclet$?CompileExpressionPreOp@asCCompiler@@IAEHPAVasCScriptNode@@PAUasSExprContext@@@Z$19 10060c81 f    CIL library: CIL module
 0001:0005fc89       __unwindfunclet$?CompileExpressionPreOp@asCCompiler@@IAEHPAVasCScriptNode@@PAUasSExprContext@@@Z$20 10060c89 f    CIL library: CIL module
 0001:0005fc91       __unwindfunclet$?CompileExpressionPreOp@asCCompiler@@IAEHPAVasCScriptNode@@PAUasSExprContext@@@Z$21 10060c91 f    CIL library: CIL module
 0001:0005fc99       __unwindfunclet$?CompileExpressionPreOp@asCCompiler@@IAEHPAVasCScriptNode@@PAUasSExprContext@@@Z$23 10060c99 f    CIL library: CIL module
 0001:0005fca1       __unwindfunclet$?CompileExpressionPreOp@asCCompiler@@IAEHPAVasCScriptNode@@PAUasSExprContext@@@Z$24 10060ca1 f    CIL library: CIL module
 0001:0005fca9       __unwindfunclet$?CompileExpressionPreOp@asCCompiler@@IAEHPAVasCScriptNode@@PAUasSExprContext@@@Z$25 10060ca9 f    CIL library: CIL module
 0001:0005fcb1       __unwindfunclet$?CompileExpressionPreOp@asCCompiler@@IAEHPAVasCScriptNode@@PAUasSExprContext@@@Z$22 10060cb1 f    CIL library: CIL module
 0001:0005fcb9       __unwindfunclet$?CompileExpressionPreOp@asCCompiler@@IAEHPAVasCScriptNode@@PAUasSExprContext@@@Z$13 10060cb9 f    CIL library: CIL module
 0001:0005fcc1       __unwindfunclet$?CompileExpressionPreOp@asCCompiler@@IAEHPAVasCScriptNode@@PAUasSExprContext@@@Z$14 10060cc1 f    CIL library: CIL module
 0001:0005fcc9       __unwindfunclet$?CompileExpressionPreOp@asCCompiler@@IAEHPAVasCScriptNode@@PAUasSExprContext@@@Z$15 10060cc9 f    CIL library: CIL module
 0001:0005fcd1       __unwindfunclet$?CompileExpressionPreOp@asCCompiler@@IAEHPAVasCScriptNode@@PAUasSExprContext@@@Z$16 10060cd1 f    CIL library: CIL module
 0001:0005fcd9       __ehhandler$?CompileExpressionPreOp@asCCompiler@@IAEHPAVasCScriptNode@@PAUasSExprContext@@@Z 10060cd9 f    CIL library: CIL module
 0001:0005fce3       __unwindfunclet$?CompileFunctionCall@asCCompiler@@IAEHPAVasCScriptNode@@PAUasSExprContext@@PAVasCObjectType@@_NABVasCString@@@Z$0 10060ce3 f    CIL library: CIL module
 0001:0005fcee       __unwindfunclet$?CompileFunctionCall@asCCompiler@@IAEHPAVasCScriptNode@@PAUasSExprContext@@PAVasCObjectType@@_NABVasCString@@@Z$1 10060cee f    CIL library: CIL module
 0001:0005fcf9       __unwindfunclet$?CompileFunctionCall@asCCompiler@@IAEHPAVasCScriptNode@@PAUasSExprContext@@PAVasCObjectType@@_NABVasCString@@@Z$2 10060cf9 f    CIL library: CIL module
 0001:0005fd04       __unwindfunclet$?CompileFunctionCall@asCCompiler@@IAEHPAVasCScriptNode@@PAUasSExprContext@@PAVasCObjectType@@_NABVasCString@@@Z$3 10060d04 f    CIL library: CIL module
 0001:0005fd0f       __unwindfunclet$?CompileFunctionCall@asCCompiler@@IAEHPAVasCScriptNode@@PAUasSExprContext@@PAVasCObjectType@@_NABVasCString@@@Z$4 10060d0f f    CIL library: CIL module
 0001:0005fd1a       __unwindfunclet$?CompileFunctionCall@asCCompiler@@IAEHPAVasCScriptNode@@PAUasSExprContext@@PAVasCObjectType@@_NABVasCString@@@Z$5 10060d1a f    CIL library: CIL module
 0001:0005fd25       __unwindfunclet$?CompileFunctionCall@asCCompiler@@IAEHPAVasCScriptNode@@PAUasSExprContext@@PAVasCObjectType@@_NABVasCString@@@Z$6 10060d25 f    CIL library: CIL module
 0001:0005fd30       __unwindfunclet$?CompileFunctionCall@asCCompiler@@IAEHPAVasCScriptNode@@PAUasSExprContext@@PAVasCObjectType@@_NABVasCString@@@Z$7 10060d30 f    CIL library: CIL module
 0001:0005fd3b       __unwindfunclet$?CompileFunctionCall@asCCompiler@@IAEHPAVasCScriptNode@@PAUasSExprContext@@PAVasCObjectType@@_NABVasCString@@@Z$10 10060d3b f    CIL library: CIL module
 0001:0005fd46       __unwindfunclet$?CompileFunctionCall@asCCompiler@@IAEHPAVasCScriptNode@@PAUasSExprContext@@PAVasCObjectType@@_NABVasCString@@@Z$11 10060d46 f    CIL library: CIL module
 0001:0005fd4e       __unwindfunclet$?CompileFunctionCall@asCCompiler@@IAEHPAVasCScriptNode@@PAUasSExprContext@@PAVasCObjectType@@_NABVasCString@@@Z$8 10060d4e f    CIL library: CIL module
 0001:0005fd59       __unwindfunclet$?CompileFunctionCall@asCCompiler@@IAEHPAVasCScriptNode@@PAUasSExprContext@@PAVasCObjectType@@_NABVasCString@@@Z$9 10060d59 f    CIL library: CIL module
 0001:0005fd64       __ehhandler$?CompileFunctionCall@asCCompiler@@IAEHPAVasCScriptNode@@PAUasSExprContext@@PAVasCObjectType@@_NABVasCString@@@Z 10060d64 f    CIL library: CIL module
 0001:0005fd6e       __unwindfunclet$?CompileConversion@asCCompiler@@IAEXPAVasCScriptNode@@PAUasSExprContext@@@Z$0 10060d6e f    CIL library: CIL module
 0001:0005fd79       __unwindfunclet$?CompileConversion@asCCompiler@@IAEXPAVasCScriptNode@@PAUasSExprContext@@@Z$1 10060d79 f    CIL library: CIL module
 0001:0005fd84       __unwindfunclet$?CompileConversion@asCCompiler@@IAEXPAVasCScriptNode@@PAUasSExprContext@@@Z$2 10060d84 f    CIL library: CIL module
 0001:0005fd8f       __unwindfunclet$?CompileConversion@asCCompiler@@IAEXPAVasCScriptNode@@PAUasSExprContext@@@Z$3 10060d8f f    CIL library: CIL module
 0001:0005fd9a       __unwindfunclet$?CompileConversion@asCCompiler@@IAEXPAVasCScriptNode@@PAUasSExprContext@@@Z$4 10060d9a f    CIL library: CIL module
 0001:0005fda5       __unwindfunclet$?CompileConversion@asCCompiler@@IAEXPAVasCScriptNode@@PAUasSExprContext@@@Z$5 10060da5 f    CIL library: CIL module
 0001:0005fdad       __unwindfunclet$?CompileConversion@asCCompiler@@IAEXPAVasCScriptNode@@PAUasSExprContext@@@Z$6 10060dad f    CIL library: CIL module
 0001:0005fdb5       __unwindfunclet$?CompileConversion@asCCompiler@@IAEXPAVasCScriptNode@@PAUasSExprContext@@@Z$7 10060db5 f    CIL library: CIL module
 0001:0005fdc0       __unwindfunclet$?CompileConversion@asCCompiler@@IAEXPAVasCScriptNode@@PAUasSExprContext@@@Z$8 10060dc0 f    CIL library: CIL module
 0001:0005fdcb       __unwindfunclet$?CompileConversion@asCCompiler@@IAEXPAVasCScriptNode@@PAUasSExprContext@@@Z$9 10060dcb f    CIL library: CIL module
 0001:0005fdd3       __ehhandler$?CompileConversion@asCCompiler@@IAEXPAVasCScriptNode@@PAUasSExprContext@@@Z 10060dd3 f    CIL library: CIL module
 0001:0005fddd       __unwindfunclet$?CompileExpressionPostOp@asCCompiler@@IAEHPAVasCScriptNode@@PAUasSExprContext@@@Z$0 10060ddd f    CIL library: CIL module
 0001:0005fde8       __unwindfunclet$?CompileExpressionPostOp@asCCompiler@@IAEHPAVasCScriptNode@@PAUasSExprContext@@@Z$1 10060de8 f    CIL library: CIL module
 0001:0005fdf3       __unwindfunclet$?CompileExpressionPostOp@asCCompiler@@IAEHPAVasCScriptNode@@PAUasSExprContext@@@Z$2 10060df3 f    CIL library: CIL module
 0001:0005fdfe       __unwindfunclet$?CompileExpressionPostOp@asCCompiler@@IAEHPAVasCScriptNode@@PAUasSExprContext@@@Z$3 10060dfe f    CIL library: CIL module
 0001:0005fe09       __unwindfunclet$?CompileExpressionPostOp@asCCompiler@@IAEHPAVasCScriptNode@@PAUasSExprContext@@@Z$4 10060e09 f    CIL library: CIL module
 0001:0005fe14       __unwindfunclet$?CompileExpressionPostOp@asCCompiler@@IAEHPAVasCScriptNode@@PAUasSExprContext@@@Z$5 10060e14 f    CIL library: CIL module
 0001:0005fe1f       __unwindfunclet$?CompileExpressionPostOp@asCCompiler@@IAEHPAVasCScriptNode@@PAUasSExprContext@@@Z$6 10060e1f f    CIL library: CIL module
 0001:0005fe2a       __unwindfunclet$?CompileExpressionPostOp@asCCompiler@@IAEHPAVasCScriptNode@@PAUasSExprContext@@@Z$7 10060e2a f    CIL library: CIL module
 0001:0005fe35       __unwindfunclet$?CompileExpressionPostOp@asCCompiler@@IAEHPAVasCScriptNode@@PAUasSExprContext@@@Z$14 10060e35 f    CIL library: CIL module
 0001:0005fe40       __unwindfunclet$?CompileExpressionPostOp@asCCompiler@@IAEHPAVasCScriptNode@@PAUasSExprContext@@@Z$15 10060e40 f    CIL library: CIL module
 0001:0005fe4b       __unwindfunclet$?CompileExpressionPostOp@asCCompiler@@IAEHPAVasCScriptNode@@PAUasSExprContext@@@Z$16 10060e4b f    CIL library: CIL module
 0001:0005fe56       __unwindfunclet$?CompileExpressionPostOp@asCCompiler@@IAEHPAVasCScriptNode@@PAUasSExprContext@@@Z$17 10060e56 f    CIL library: CIL module
 0001:0005fe61       __unwindfunclet$?CompileExpressionPostOp@asCCompiler@@IAEHPAVasCScriptNode@@PAUasSExprContext@@@Z$18 10060e61 f    CIL library: CIL module
 0001:0005fe6c       __unwindfunclet$?CompileExpressionPostOp@asCCompiler@@IAEHPAVasCScriptNode@@PAUasSExprContext@@@Z$19 10060e6c f    CIL library: CIL module
 0001:0005fe77       __unwindfunclet$?CompileExpressionPostOp@asCCompiler@@IAEHPAVasCScriptNode@@PAUasSExprContext@@@Z$20 10060e77 f    CIL library: CIL module
 0001:0005fe82       __unwindfunclet$?CompileExpressionPostOp@asCCompiler@@IAEHPAVasCScriptNode@@PAUasSExprContext@@@Z$21 10060e82 f    CIL library: CIL module
 0001:0005fe8d       __unwindfunclet$?CompileExpressionPostOp@asCCompiler@@IAEHPAVasCScriptNode@@PAUasSExprContext@@@Z$22 10060e8d f    CIL library: CIL module
 0001:0005fe98       __unwindfunclet$?CompileExpressionPostOp@asCCompiler@@IAEHPAVasCScriptNode@@PAUasSExprContext@@@Z$23 10060e98 f    CIL library: CIL module
 0001:0005fea3       __unwindfunclet$?CompileExpressionPostOp@asCCompiler@@IAEHPAVasCScriptNode@@PAUasSExprContext@@@Z$24 10060ea3 f    CIL library: CIL module
 0001:0005feae       __unwindfunclet$?CompileExpressionPostOp@asCCompiler@@IAEHPAVasCScriptNode@@PAUasSExprContext@@@Z$25 10060eae f    CIL library: CIL module
 0001:0005feb9       __unwindfunclet$?CompileExpressionPostOp@asCCompiler@@IAEHPAVasCScriptNode@@PAUasSExprContext@@@Z$28 10060eb9 f    CIL library: CIL module
 0001:0005fec4       __unwindfunclet$?CompileExpressionPostOp@asCCompiler@@IAEHPAVasCScriptNode@@PAUasSExprContext@@@Z$29 10060ec4 f    CIL library: CIL module
 0001:0005fecf       __unwindfunclet$?CompileExpressionPostOp@asCCompiler@@IAEHPAVasCScriptNode@@PAUasSExprContext@@@Z$26 10060ecf f    CIL library: CIL module
 0001:0005feda       __unwindfunclet$?CompileExpressionPostOp@asCCompiler@@IAEHPAVasCScriptNode@@PAUasSExprContext@@@Z$27 10060eda f    CIL library: CIL module
 0001:0005fee5       __unwindfunclet$?CompileExpressionPostOp@asCCompiler@@IAEHPAVasCScriptNode@@PAUasSExprContext@@@Z$30 10060ee5 f    CIL library: CIL module
 0001:0005fef0       __unwindfunclet$?CompileExpressionPostOp@asCCompiler@@IAEHPAVasCScriptNode@@PAUasSExprContext@@@Z$31 10060ef0 f    CIL library: CIL module
 0001:0005fefb       __unwindfunclet$?CompileExpressionPostOp@asCCompiler@@IAEHPAVasCScriptNode@@PAUasSExprContext@@@Z$32 10060efb f    CIL library: CIL module
 0001:0005ff06       __unwindfunclet$?CompileExpressionPostOp@asCCompiler@@IAEHPAVasCScriptNode@@PAUasSExprContext@@@Z$33 10060f06 f    CIL library: CIL module
 0001:0005ff11       __unwindfunclet$?CompileExpressionPostOp@asCCompiler@@IAEHPAVasCScriptNode@@PAUasSExprContext@@@Z$34 10060f11 f    CIL library: CIL module
 0001:0005ff1c       __unwindfunclet$?CompileExpressionPostOp@asCCompiler@@IAEHPAVasCScriptNode@@PAUasSExprContext@@@Z$35 10060f1c f    CIL library: CIL module
 0001:0005ff27       __unwindfunclet$?CompileExpressionPostOp@asCCompiler@@IAEHPAVasCScriptNode@@PAUasSExprContext@@@Z$36 10060f27 f    CIL library: CIL module
 0001:0005ff32       __unwindfunclet$?CompileExpressionPostOp@asCCompiler@@IAEHPAVasCScriptNode@@PAUasSExprContext@@@Z$8 10060f32 f    CIL library: CIL module
 0001:0005ff3d       __unwindfunclet$?CompileExpressionPostOp@asCCompiler@@IAEHPAVasCScriptNode@@PAUasSExprContext@@@Z$9 10060f3d f    CIL library: CIL module
 0001:0005ff48       __unwindfunclet$?CompileExpressionPostOp@asCCompiler@@IAEHPAVasCScriptNode@@PAUasSExprContext@@@Z$11 10060f48 f    CIL library: CIL module
 0001:0005ff53       __unwindfunclet$?CompileExpressionPostOp@asCCompiler@@IAEHPAVasCScriptNode@@PAUasSExprContext@@@Z$12 10060f53 f    CIL library: CIL module
 0001:0005ff5e       __unwindfunclet$?CompileExpressionPostOp@asCCompiler@@IAEHPAVasCScriptNode@@PAUasSExprContext@@@Z$13 10060f5e f    CIL library: CIL module
 0001:0005ff69       __unwindfunclet$?CompileExpressionPostOp@asCCompiler@@IAEHPAVasCScriptNode@@PAUasSExprContext@@@Z$10 10060f69 f    CIL library: CIL module
 0001:0005ff74       __ehhandler$?CompileExpressionPostOp@asCCompiler@@IAEHPAVasCScriptNode@@PAUasSExprContext@@@Z 10060f74 f    CIL library: CIL module
 0001:0005ff7e       __unwindfunclet$?CompileConstructCall@asCCompiler@@IAEXPAVasCScriptNode@@PAUasSExprContext@@@Z$0 10060f7e f    CIL library: CIL module
 0001:0005ff89       __unwindfunclet$?CompileConstructCall@asCCompiler@@IAEXPAVasCScriptNode@@PAUasSExprContext@@@Z$1 10060f89 f    CIL library: CIL module
 0001:0005ff94       __unwindfunclet$?CompileConstructCall@asCCompiler@@IAEXPAVasCScriptNode@@PAUasSExprContext@@@Z$2 10060f94 f    CIL library: CIL module
 0001:0005ff9f       __unwindfunclet$?CompileConstructCall@asCCompiler@@IAEXPAVasCScriptNode@@PAUasSExprContext@@@Z$3 10060f9f f    CIL library: CIL module
 0001:0005ffaa       __unwindfunclet$?CompileConstructCall@asCCompiler@@IAEXPAVasCScriptNode@@PAUasSExprContext@@@Z$4 10060faa f    CIL library: CIL module
 0001:0005ffb5       __unwindfunclet$?CompileConstructCall@asCCompiler@@IAEXPAVasCScriptNode@@PAUasSExprContext@@@Z$5 10060fb5 f    CIL library: CIL module
 0001:0005ffc0       __unwindfunclet$?CompileConstructCall@asCCompiler@@IAEXPAVasCScriptNode@@PAUasSExprContext@@@Z$6 10060fc0 f    CIL library: CIL module
 0001:0005ffcb       __unwindfunclet$?CompileConstructCall@asCCompiler@@IAEXPAVasCScriptNode@@PAUasSExprContext@@@Z$7 10060fcb f    CIL library: CIL module
 0001:0005ffd6       __unwindfunclet$?CompileConstructCall@asCCompiler@@IAEXPAVasCScriptNode@@PAUasSExprContext@@@Z$9 10060fd6 f    CIL library: CIL module
 0001:0005ffe1       __unwindfunclet$?CompileConstructCall@asCCompiler@@IAEXPAVasCScriptNode@@PAUasSExprContext@@@Z$10 10060fe1 f    CIL library: CIL module
 0001:0005ffec       __unwindfunclet$?CompileConstructCall@asCCompiler@@IAEXPAVasCScriptNode@@PAUasSExprContext@@@Z$8 10060fec f    CIL library: CIL module
 0001:0005fff7       __unwindfunclet$?CompileConstructCall@asCCompiler@@IAEXPAVasCScriptNode@@PAUasSExprContext@@@Z$11 10060ff7 f    CIL library: CIL module
 0001:00060002       __unwindfunclet$?CompileConstructCall@asCCompiler@@IAEXPAVasCScriptNode@@PAUasSExprContext@@@Z$12 10061002 f    CIL library: CIL module
 0001:0006000c       __ehhandler$?CompileConstructCall@asCCompiler@@IAEXPAVasCScriptNode@@PAUasSExprContext@@@Z 1006100c f    CIL library: CIL module
 0001:00060016       __unwindfunclet$?CompileExpressionValue@asCCompiler@@IAEHPAVasCScriptNode@@PAUasSExprContext@@@Z$0 10061016 f    CIL library: CIL module
 0001:00060021       __unwindfunclet$?CompileExpressionValue@asCCompiler@@IAEHPAVasCScriptNode@@PAUasSExprContext@@@Z$1 10061021 f    CIL library: CIL module
 0001:0006002c       __unwindfunclet$?CompileExpressionValue@asCCompiler@@IAEHPAVasCScriptNode@@PAUasSExprContext@@@Z$6 1006102c f    CIL library: CIL module
 0001:00060037       __unwindfunclet$?CompileExpressionValue@asCCompiler@@IAEHPAVasCScriptNode@@PAUasSExprContext@@@Z$7 10061037 f    CIL library: CIL module
 0001:00060042       __unwindfunclet$?CompileExpressionValue@asCCompiler@@IAEHPAVasCScriptNode@@PAUasSExprContext@@@Z$8 10061042 f    CIL library: CIL module
 0001:0006004d       __unwindfunclet$?CompileExpressionValue@asCCompiler@@IAEHPAVasCScriptNode@@PAUasSExprContext@@@Z$9 1006104d f    CIL library: CIL module
 0001:00060058       __unwindfunclet$?CompileExpressionValue@asCCompiler@@IAEHPAVasCScriptNode@@PAUasSExprContext@@@Z$10 10061058 f    CIL library: CIL module
 0001:00060063       __unwindfunclet$?CompileExpressionValue@asCCompiler@@IAEHPAVasCScriptNode@@PAUasSExprContext@@@Z$11 10061063 f    CIL library: CIL module
 0001:0006006e       __unwindfunclet$?CompileExpressionValue@asCCompiler@@IAEHPAVasCScriptNode@@PAUasSExprContext@@@Z$12 1006106e f    CIL library: CIL module
 0001:00060079       __unwindfunclet$?CompileExpressionValue@asCCompiler@@IAEHPAVasCScriptNode@@PAUasSExprContext@@@Z$13 10061079 f    CIL library: CIL module
 0001:00060084       __ehhandler$?CompileExpressionValue@asCCompiler@@IAEHPAVasCScriptNode@@PAUasSExprContext@@@Z 10061084 f    CIL library: CIL module
 0001:0006008e       __unwindfunclet$?CompileExpressionTerm@asCCompiler@@IAEHPAVasCScriptNode@@PAUasSExprContext@@@Z$0 1006108e f    CIL library: CIL module
 0001:00060099       __ehhandler$?CompileExpressionTerm@asCCompiler@@IAEHPAVasCScriptNode@@PAUasSExprContext@@@Z 10061099 f    CIL library: CIL module
 0001:000600a3       __unwindfunclet$?CompilePostFixExpression@asCCompiler@@IAEHPAV?$asCArray@PAVasCScriptNode@@@@PAUasSExprContext@@@Z$0 100610a3 f    CIL library: CIL module
 0001:000600ab       __unwindfunclet$?CompilePostFixExpression@asCCompiler@@IAEHPAV?$asCArray@PAVasCScriptNode@@@@PAUasSExprContext@@@Z$1 100610ab f    CIL library: CIL module
 0001:000600b3       __ehhandler$?CompilePostFixExpression@asCCompiler@@IAEHPAV?$asCArray@PAVasCScriptNode@@@@PAUasSExprContext@@@Z 100610b3 f    CIL library: CIL module
 0001:000600bd       __unwindfunclet$?CompileExpression@asCCompiler@@IAEHPAVasCScriptNode@@PAUasSExprContext@@@Z$0 100610bd f    CIL library: CIL module
 0001:000600c5       __unwindfunclet$?CompileExpression@asCCompiler@@IAEHPAVasCScriptNode@@PAUasSExprContext@@@Z$1 100610c5 f    CIL library: CIL module
 0001:000600cd       __ehhandler$?CompileExpression@asCCompiler@@IAEHPAVasCScriptNode@@PAUasSExprContext@@@Z 100610cd f    CIL library: CIL module
 0001:000600d7       __unwindfunclet$?CompileCondition@asCCompiler@@IAEHPAVasCScriptNode@@PAUasSExprContext@@@Z$0 100610d7 f    CIL library: CIL module
 0001:000600e2       __unwindfunclet$?CompileCondition@asCCompiler@@IAEHPAVasCScriptNode@@PAUasSExprContext@@@Z$1 100610e2 f    CIL library: CIL module
 0001:000600ed       __unwindfunclet$?CompileCondition@asCCompiler@@IAEHPAVasCScriptNode@@PAUasSExprContext@@@Z$2 100610ed f    CIL library: CIL module
 0001:000600f8       __unwindfunclet$?CompileCondition@asCCompiler@@IAEHPAVasCScriptNode@@PAUasSExprContext@@@Z$3 100610f8 f    CIL library: CIL module
 0001:00060103       __unwindfunclet$?CompileCondition@asCCompiler@@IAEHPAVasCScriptNode@@PAUasSExprContext@@@Z$5 10061103 f    CIL library: CIL module
 0001:0006010e       __unwindfunclet$?CompileCondition@asCCompiler@@IAEHPAVasCScriptNode@@PAUasSExprContext@@@Z$6 1006110e f    CIL library: CIL module
 0001:00060119       __unwindfunclet$?CompileCondition@asCCompiler@@IAEHPAVasCScriptNode@@PAUasSExprContext@@@Z$4 10061119 f    CIL library: CIL module
 0001:00060124       __ehhandler$?CompileCondition@asCCompiler@@IAEHPAVasCScriptNode@@PAUasSExprContext@@@Z 10061124 f    CIL library: CIL module
 0001:0006012e       __unwindfunclet$?CompileAssignment@asCCompiler@@IAEHPAVasCScriptNode@@PAUasSExprContext@@@Z$0 1006112e f    CIL library: CIL module
 0001:00060139       __unwindfunclet$?CompileAssignment@asCCompiler@@IAEHPAVasCScriptNode@@PAUasSExprContext@@@Z$1 10061139 f    CIL library: CIL module
 0001:00060144       __ehhandler$?CompileAssignment@asCCompiler@@IAEHPAVasCScriptNode@@PAUasSExprContext@@@Z 10061144 f    CIL library: CIL module
 0001:0006014e       __unwindfunclet$?CompileReturnStatement@asCCompiler@@IAEXPAVasCScriptNode@@PAVasCByteCode@@@Z$0 1006114e f    CIL library: CIL module
 0001:00060159       __unwindfunclet$?CompileReturnStatement@asCCompiler@@IAEXPAVasCScriptNode@@PAVasCByteCode@@@Z$1 10061159 f    CIL library: CIL module
 0001:00060164       __unwindfunclet$?CompileReturnStatement@asCCompiler@@IAEXPAVasCScriptNode@@PAVasCByteCode@@@Z$2 10061164 f    CIL library: CIL module
 0001:0006016f       __unwindfunclet$?CompileReturnStatement@asCCompiler@@IAEXPAVasCScriptNode@@PAVasCByteCode@@@Z$3 1006116f f    CIL library: CIL module
 0001:0006017a       __unwindfunclet$?CompileReturnStatement@asCCompiler@@IAEXPAVasCScriptNode@@PAVasCByteCode@@@Z$4 1006117a f    CIL library: CIL module
 0001:00060185       __unwindfunclet$?CompileReturnStatement@asCCompiler@@IAEXPAVasCScriptNode@@PAVasCByteCode@@@Z$5 10061185 f    CIL library: CIL module
 0001:00060190       __unwindfunclet$?CompileReturnStatement@asCCompiler@@IAEXPAVasCScriptNode@@PAVasCByteCode@@@Z$6 10061190 f    CIL library: CIL module
 0001:0006019b       __unwindfunclet$?CompileReturnStatement@asCCompiler@@IAEXPAVasCScriptNode@@PAVasCByteCode@@@Z$7 1006119b f    CIL library: CIL module
 0001:000601a6       __unwindfunclet$?CompileReturnStatement@asCCompiler@@IAEXPAVasCScriptNode@@PAVasCByteCode@@@Z$8 100611a6 f    CIL library: CIL module
 0001:000601b1       __unwindfunclet$?CompileReturnStatement@asCCompiler@@IAEXPAVasCScriptNode@@PAVasCByteCode@@@Z$9 100611b1 f    CIL library: CIL module
 0001:000601bc       __unwindfunclet$?CompileReturnStatement@asCCompiler@@IAEXPAVasCScriptNode@@PAVasCByteCode@@@Z$10 100611bc f    CIL library: CIL module
 0001:000601c7       __unwindfunclet$?CompileReturnStatement@asCCompiler@@IAEXPAVasCScriptNode@@PAVasCByteCode@@@Z$11 100611c7 f    CIL library: CIL module
 0001:000601d2       __unwindfunclet$?CompileReturnStatement@asCCompiler@@IAEXPAVasCScriptNode@@PAVasCByteCode@@@Z$12 100611d2 f    CIL library: CIL module
 0001:000601dd       __unwindfunclet$?CompileReturnStatement@asCCompiler@@IAEXPAVasCScriptNode@@PAVasCByteCode@@@Z$13 100611dd f    CIL library: CIL module
 0001:000601e8       __unwindfunclet$?CompileReturnStatement@asCCompiler@@IAEXPAVasCScriptNode@@PAVasCByteCode@@@Z$14 100611e8 f    CIL library: CIL module
 0001:000601f3       __unwindfunclet$?CompileReturnStatement@asCCompiler@@IAEXPAVasCScriptNode@@PAVasCByteCode@@@Z$15 100611f3 f    CIL library: CIL module
 0001:000601fe       __unwindfunclet$?CompileReturnStatement@asCCompiler@@IAEXPAVasCScriptNode@@PAVasCByteCode@@@Z$16 100611fe f    CIL library: CIL module
 0001:00060209       __unwindfunclet$?CompileReturnStatement@asCCompiler@@IAEXPAVasCScriptNode@@PAVasCByteCode@@@Z$17 10061209 f    CIL library: CIL module
 0001:00060214       __ehhandler$?CompileReturnStatement@asCCompiler@@IAEXPAVasCScriptNode@@PAVasCByteCode@@@Z 10061214 f    CIL library: CIL module
 0001:0006021e       __unwindfunclet$?CompileExpressionStatement@asCCompiler@@IAEXPAVasCScriptNode@@PAVasCByteCode@@@Z$0 1006121e f    CIL library: CIL module
 0001:00060229       __ehhandler$?CompileExpressionStatement@asCCompiler@@IAEXPAVasCScriptNode@@PAVasCByteCode@@@Z 10061229 f    CIL library: CIL module
 0001:00060233       __unwindfunclet$?CompileDoWhileStatement@asCCompiler@@IAEXPAVasCScriptNode@@PAVasCByteCode@@@Z$0 10061233 f    CIL library: CIL module
 0001:0006023d       __unwindfunclet$?CompileDoWhileStatement@asCCompiler@@IAEXPAVasCScriptNode@@PAVasCByteCode@@@Z$1 1006123d f    CIL library: CIL module
 0001:00060248       __unwindfunclet$?CompileDoWhileStatement@asCCompiler@@IAEXPAVasCScriptNode@@PAVasCByteCode@@@Z$2 10061248 f    CIL library: CIL module
 0001:00060253       __ehhandler$?CompileDoWhileStatement@asCCompiler@@IAEXPAVasCScriptNode@@PAVasCByteCode@@@Z 10061253 f    CIL library: CIL module
 0001:0006025d       __unwindfunclet$?CompileWhileStatement@asCCompiler@@IAEXPAVasCScriptNode@@PAVasCByteCode@@@Z$0 1006125d f    CIL library: CIL module
 0001:00060268       __unwindfunclet$?CompileWhileStatement@asCCompiler@@IAEXPAVasCScriptNode@@PAVasCByteCode@@@Z$1 10061268 f    CIL library: CIL module
 0001:00060273       __unwindfunclet$?CompileWhileStatement@asCCompiler@@IAEXPAVasCScriptNode@@PAVasCByteCode@@@Z$2 10061273 f    CIL library: CIL module
 0001:0006027d       __ehhandler$?CompileWhileStatement@asCCompiler@@IAEXPAVasCScriptNode@@PAVasCByteCode@@@Z 1006127d f    CIL library: CIL module
 0001:00060287       __unwindfunclet$?CompileIfStatement@asCCompiler@@IAEXPAVasCScriptNode@@PA_NPAVasCByteCode@@@Z$0 10061287 f    CIL library: CIL module
 0001:00060292       __unwindfunclet$?CompileIfStatement@asCCompiler@@IAEXPAVasCScriptNode@@PA_NPAVasCByteCode@@@Z$1 10061292 f    CIL library: CIL module
 0001:0006029d       __unwindfunclet$?CompileIfStatement@asCCompiler@@IAEXPAVasCScriptNode@@PA_NPAVasCByteCode@@@Z$2 1006129d f    CIL library: CIL module
 0001:000602a7       __unwindfunclet$?CompileIfStatement@asCCompiler@@IAEXPAVasCScriptNode@@PA_NPAVasCByteCode@@@Z$3 100612a7 f    CIL library: CIL module
 0001:000602b2       __unwindfunclet$?CompileIfStatement@asCCompiler@@IAEXPAVasCScriptNode@@PA_NPAVasCByteCode@@@Z$4 100612b2 f    CIL library: CIL module
 0001:000602bf       __unwindfunclet$?CompileIfStatement@asCCompiler@@IAEXPAVasCScriptNode@@PA_NPAVasCByteCode@@@Z$5 100612bf f    CIL library: CIL module
 0001:000602ca       __unwindfunclet$?CompileIfStatement@asCCompiler@@IAEXPAVasCScriptNode@@PA_NPAVasCByteCode@@@Z$6 100612ca f    CIL library: CIL module
 0001:000602d5       __ehhandler$?CompileIfStatement@asCCompiler@@IAEXPAVasCScriptNode@@PA_NPAVasCByteCode@@@Z 100612d5 f    CIL library: CIL module
 0001:000602df       __unwindfunclet$?CompileInitListElement@asCCompiler@@IAEHAAPAUasSListPatternNode@@AAPAVasCScriptNode@@HFAAIAAVasCByteCode@@@Z$0 100612df f    CIL library: CIL module
 0001:000602ea       __unwindfunclet$?CompileInitListElement@asCCompiler@@IAEHAAPAUasSListPatternNode@@AAPAVasCScriptNode@@HFAAIAAVasCByteCode@@@Z$2 100612ea f    CIL library: CIL module
 0001:000602f5       __unwindfunclet$?CompileInitListElement@asCCompiler@@IAEHAAPAUasSListPatternNode@@AAPAVasCScriptNode@@HFAAIAAVasCByteCode@@@Z$1 100612f5 f    CIL library: CIL module
 0001:00060300       __unwindfunclet$?CompileInitListElement@asCCompiler@@IAEHAAPAUasSListPatternNode@@AAPAVasCScriptNode@@HFAAIAAVasCByteCode@@@Z$3 10061300 f    CIL library: CIL module
 0001:0006030b       __unwindfunclet$?CompileInitListElement@asCCompiler@@IAEHAAPAUasSListPatternNode@@AAPAVasCScriptNode@@HFAAIAAVasCByteCode@@@Z$11 1006130b f    CIL library: CIL module
 0001:00060316       __unwindfunclet$?CompileInitListElement@asCCompiler@@IAEHAAPAUasSListPatternNode@@AAPAVasCScriptNode@@HFAAIAAVasCByteCode@@@Z$12 10061316 f    CIL library: CIL module
 0001:00060321       __unwindfunclet$?CompileInitListElement@asCCompiler@@IAEHAAPAUasSListPatternNode@@AAPAVasCScriptNode@@HFAAIAAVasCByteCode@@@Z$13 10061321 f    CIL library: CIL module
 0001:0006032c       __unwindfunclet$?CompileInitListElement@asCCompiler@@IAEHAAPAUasSListPatternNode@@AAPAVasCScriptNode@@HFAAIAAVasCByteCode@@@Z$14 1006132c f    CIL library: CIL module
 0001:00060337       __unwindfunclet$?CompileInitListElement@asCCompiler@@IAEHAAPAUasSListPatternNode@@AAPAVasCScriptNode@@HFAAIAAVasCByteCode@@@Z$15 10061337 f    CIL library: CIL module
 0001:00060342       __unwindfunclet$?CompileInitListElement@asCCompiler@@IAEHAAPAUasSListPatternNode@@AAPAVasCScriptNode@@HFAAIAAVasCByteCode@@@Z$16 10061342 f    CIL library: CIL module
 0001:0006034d       __unwindfunclet$?CompileInitListElement@asCCompiler@@IAEHAAPAUasSListPatternNode@@AAPAVasCScriptNode@@HFAAIAAVasCByteCode@@@Z$4 1006134d f    CIL library: CIL module
 0001:00060358       __unwindfunclet$?CompileInitListElement@asCCompiler@@IAEHAAPAUasSListPatternNode@@AAPAVasCScriptNode@@HFAAIAAVasCByteCode@@@Z$5 10061358 f    CIL library: CIL module
 0001:00060363       __unwindfunclet$?CompileInitListElement@asCCompiler@@IAEHAAPAUasSListPatternNode@@AAPAVasCScriptNode@@HFAAIAAVasCByteCode@@@Z$6 10061363 f    CIL library: CIL module
 0001:0006036e       __unwindfunclet$?CompileInitListElement@asCCompiler@@IAEHAAPAUasSListPatternNode@@AAPAVasCScriptNode@@HFAAIAAVasCByteCode@@@Z$7 1006136e f    CIL library: CIL module
 0001:00060379       __unwindfunclet$?CompileInitListElement@asCCompiler@@IAEHAAPAUasSListPatternNode@@AAPAVasCScriptNode@@HFAAIAAVasCByteCode@@@Z$8 10061379 f    CIL library: CIL module
 0001:00060384       __unwindfunclet$?CompileInitListElement@asCCompiler@@IAEHAAPAUasSListPatternNode@@AAPAVasCScriptNode@@HFAAIAAVasCByteCode@@@Z$9 10061384 f    CIL library: CIL module
 0001:0006038f       __unwindfunclet$?CompileInitListElement@asCCompiler@@IAEHAAPAUasSListPatternNode@@AAPAVasCScriptNode@@HFAAIAAVasCByteCode@@@Z$10 1006138f f    CIL library: CIL module
 0001:0006039a       __ehhandler$?CompileInitListElement@asCCompiler@@IAEHAAPAUasSListPatternNode@@AAPAVasCScriptNode@@HFAAIAAVasCByteCode@@@Z 1006139a f    CIL library: CIL module
 0001:000603a4       __unwindfunclet$?CompileInitList@asCCompiler@@IAEXPAUasCTypeInfo@@PAVasCScriptNode@@PAVasCByteCode@@H@Z$2 100613a4 f    CIL library: CIL module
 0001:000603af       __unwindfunclet$?CompileInitList@asCCompiler@@IAEXPAUasCTypeInfo@@PAVasCScriptNode@@PAVasCByteCode@@H@Z$3 100613af f    CIL library: CIL module
 0001:000603ba       __unwindfunclet$?CompileInitList@asCCompiler@@IAEXPAUasCTypeInfo@@PAVasCScriptNode@@PAVasCByteCode@@H@Z$4 100613ba f    CIL library: CIL module
 0001:000603c5       __unwindfunclet$?CompileInitList@asCCompiler@@IAEXPAUasCTypeInfo@@PAVasCScriptNode@@PAVasCByteCode@@H@Z$5 100613c5 f    CIL library: CIL module
 0001:000603d0       __unwindfunclet$?CompileInitList@asCCompiler@@IAEXPAUasCTypeInfo@@PAVasCScriptNode@@PAVasCByteCode@@H@Z$6 100613d0 f    CIL library: CIL module
