 lib_luajit

 Timestamp is 52d55205 (Tue Jan 14 18:04:37 2014)

 Preferred load address is 10000000

 Start         Length     Name                   Class
 0001:00000000 0004820bH .text                   CODE
 0002:00000000 000001bcH .idata$5                DATA
 0002:000001bc 00000004H .CRT$XCA                DATA
 0002:000001c0 00000004H .CRT$XCZ                DATA
 0002:000001c4 00000004H .CRT$XIA                DATA
 0002:000001c8 00000004H .CRT$XIAA               DATA
 0002:000001cc 00000004H .CRT$XIC                DATA
 0002:000001d0 00000004H .CRT$XIZ                DATA
 0002:000001d8 00004a58H .rdata                  DATA
 0002:00004c30 0000000dH .rdata$Z                DATA
 0002:00004c40 00000004H .rdata$sxdata           DATA
 0002:00004c44 00000004H .rtc$IAA                DATA
 0002:00004c48 00000004H .rtc$IZZ                DATA
 0002:00004c4c 00000004H .rtc$TAA                DATA
 0002:00004c50 00000004H .rtc$TZZ                DATA
 0002:00004c58 00000084H .xdata$x                DATA
 0002:00004cdc 00000028H .idata$2                DATA
 0002:00004d04 00000014H .idata$3                DATA
 0002:00004d18 000001bcH .idata$4                DATA
 0002:00004ed4 000005d6H .idata$6                DATA
 0002:000054b0 00000cb1H .edata                  DATA
 0003:00000000 000001a0H .data                   DATA
 0003:000001a0 0000036cH .bss                    DATA

  Address         Publics by Value              Rva+Base       Lib:Object

 0000:00000000       __except_list              00000000     <absolute>
 0000:00000001       ___safe_se_handler_count   00000001     <absolute>
 0000:00009876       __fltused                  00009876     <absolute>
 0000:00009876       __ldused                   00009876     <absolute>
 0000:00000000       ___ImageBase               10000000     <linker-defined>
 0001:00000000       _lj_BC_ISLT                10001000 f   lj_vm.obj
 0001:00000000       _lj_vm_asm_begin           10001000     lj_vm.obj
 0001:00000041       _lj_BC_ISGE                10001041 f   lj_vm.obj
 0001:00000082       _lj_BC_ISLE                10001082 f   lj_vm.obj
 0001:000000c3       _lj_BC_ISGT                100010c3 f   lj_vm.obj
 0001:00000104       _lj_BC_ISEQV               10001104 f   lj_vm.obj
 0001:00000183       _lj_BC_ISNEV               10001183 f   lj_vm.obj
 0001:00000205       _lj_BC_ISEQS               10001205 f   lj_vm.obj
 0001:00000241       _lj_BC_ISNES               10001241 f   lj_vm.obj
 0001:0000027d       _lj_BC_ISEQN               1000127d f   lj_vm.obj
 0001:000002bd       _lj_BC_ISNEN               100012bd f   lj_vm.obj
 0001:000002fd       _lj_BC_ISEQP               100012fd f   lj_vm.obj
 0001:00000330       _lj_BC_ISNEP               10001330 f   lj_vm.obj
 0001:00000362       _lj_BC_ISTC                10001362 f   lj_vm.obj
 0001:00000394       _lj_BC_ISFC                10001394 f   lj_vm.obj
 0001:000003c6       _lj_BC_IST                 100013c6 f   lj_vm.obj
 0001:000003ee       _lj_BC_ISF                 100013ee f   lj_vm.obj
 0001:00000416       _lj_BC_MOV                 10001416 f   lj_vm.obj
 0001:00000435       _lj_BC_NOT                 10001435 f   lj_vm.obj
 0001:00000454       _lj_BC_UNM                 10001454 f   lj_vm.obj
 0001:00000478       _lj_BC_LEN                 10001478 f   lj_vm.obj
 0001:000004bc       _lj_BC_ADDVN               100014bc f   lj_vm.obj
 0001:000004e7       _lj_BC_SUBVN               100014e7 f   lj_vm.obj
 0001:00000512       _lj_BC_MULVN               10001512 f   lj_vm.obj
 0001:0000053d       _lj_BC_DIVVN               1000153d f   lj_vm.obj
 0001:00000568       _lj_BC_MODVN               10001568 f   lj_vm.obj
 0001:00000598       _lj_BC_ADDNV               10001598 f   lj_vm.obj
 0001:000005c3       _lj_BC_SUBNV               100015c3 f   lj_vm.obj
 0001:000005ee       _lj_BC_MULNV               100015ee f   lj_vm.obj
 0001:00000619       _lj_BC_DIVNV               10001619 f   lj_vm.obj
 0001:00000644       _lj_BC_MODNV               10001644 f   lj_vm.obj
 0001:00000660       _lj_BC_ADDVV               10001660 f   lj_vm.obj
 0001:00000696       _lj_BC_SUBVV               10001696 f   lj_vm.obj
 0001:000006cc       _lj_BC_MULVV               100016cc f   lj_vm.obj
 0001:00000702       _lj_BC_DIVVV               10001702 f   lj_vm.obj
 0001:00000738       _lj_BC_MODVV               10001738 f   lj_vm.obj
 0001:0000075f       _lj_BC_POW                 1000175f f   lj_vm.obj
 0001:0000079a       _lj_BC_CAT                 1000179a f   lj_vm.obj
 0001:000007f2       _lj_BC_KSTR                100017f2 f   lj_vm.obj
 0001:00000813       _lj_BC_KCDATA              10001813 f   lj_vm.obj
 0001:00000834       _lj_BC_KSHORT              10001834 f   lj_vm.obj
 0001:0000084b       _lj_BC_KNUM                1000184b f   lj_vm.obj
 0001:00000862       _lj_BC_KPRI                10001862 f   lj_vm.obj
 0001:00000879       _lj_BC_KNIL                10001879 f   lj_vm.obj
 0001:000008a3       _lj_BC_UGET                100018a3 f   lj_vm.obj
 0001:000008cb       _lj_BC_USETV               100018cb f   lj_vm.obj
 0001:0000091e       _lj_BC_USETS               1000191e f   lj_vm.obj
 0001:0000096c       _lj_BC_USETN               1000196c f   lj_vm.obj
 0001:0000098c       _lj_BC_USETP               1000198c f   lj_vm.obj
 0001:000009ac       _lj_BC_UCLO                100019ac f   lj_vm.obj
 0001:000009de       _lj_BC_FNEW                100019de f   lj_vm.obj
 0001:00000a24       _lj_BC_TNEW                10001a24 f   lj_vm.obj
 0001:00000a95       _lj_BC_TDUP                10001a95 f   lj_vm.obj
 0001:00000aec       _lj_BC_GGET                10001aec f   lj_vm.obj
 0001:00000afc       _lj_BC_GSET                10001afc f   lj_vm.obj
 0001:00000b0c       _lj_BC_TGETV               10001b0c f   lj_vm.obj
 0001:00000ba0       _lj_BC_TGETS               10001ba0 f   lj_vm.obj
 0001:00000c1e       _lj_BC_TGETB               10001c1e f   lj_vm.obj
 0001:00000c85       _lj_BC_TSETV               10001c85 f   lj_vm.obj
 0001:00000d30       _lj_BC_TSETS               10001d30 f   lj_vm.obj
 0001:00000e1f       _lj_BC_TSETB               10001e1f f   lj_vm.obj
 0001:00000e9d       _lj_BC_TSETM               10001e9d f   lj_vm.obj
 0001:00000f2b       _lj_BC_CALLM               10001f2b f   lj_vm.obj
 0001:00000f58       _lj_BC_CALL                10001f58 f   lj_vm.obj
 0001:00000f81       _lj_BC_CALLMT              10001f81 f   lj_vm.obj
 0001:00000f85       _lj_BC_CALLT               10001f85 f   lj_vm.obj
 0001:00001017       _lj_BC_ITERC               10002017 f   lj_vm.obj
 0001:00001062       _lj_BC_ITERN               10002062 f   lj_vm.obj
 0001:0000110c       _lj_BC_VARG                1000210c f   lj_vm.obj
 0001:000011c8       _lj_BC_ISNEXT              100021c8 f   lj_vm.obj
 0001:0000121f       _lj_BC_RETM                1000221f f   lj_vm.obj
 0001:00001223       _lj_BC_RET                 10002223 f   lj_vm.obj
 0001:000012a4       _lj_BC_RET0                100022a4 f   lj_vm.obj
 0001:000012fb       _lj_BC_RET1                100022fb f   lj_vm.obj
 0001:00001364       _lj_BC_FORI                10002364 f   lj_vm.obj
 0001:000013b1       _lj_BC_JFORI               100023b1 f   lj_vm.obj
 0001:00001406       _lj_BC_FORL                10002406 f   lj_vm.obj
 0001:00001419       _lj_BC_IFORL               10002419 f   lj_vm.obj
 0001:00001450       _lj_BC_JFORL               10002450 f   lj_vm.obj
 0001:00001484       _lj_BC_ITERL               10002484 f   lj_vm.obj
 0001:00001497       _lj_BC_IITERL              10002497 f   lj_vm.obj
 0001:000014c2       _lj_BC_JITERL              100024c2 f   lj_vm.obj
 0001:000014e8       _lj_BC_LOOP                100024e8 f   lj_vm.obj
 0001:000014fb       _lj_BC_ILOOP               100024fb f   lj_vm.obj
 0001:0000150c       _lj_BC_JLOOP               1000250c f   lj_vm.obj
 0001:0000152a       _lj_BC_JMP                 1000252a f   lj_vm.obj
 0001:00001542       _lj_BC_FUNCF               10002542 f   lj_vm.obj
 0001:00001555       _lj_BC_IFUNCF              10002555 f   lj_vm.obj
 0001:00001592       _lj_BC_JFUNCF              10002592 f   lj_vm.obj
 0001:000015c7       _lj_BC_IFUNCV              100025c7 f   lj_vm.obj
 0001:000015c7       _lj_BC_FUNCV               100025c7 f   lj_vm.obj
 0001:0000163c       _lj_BC_JFUNCV              1000263c f   lj_vm.obj
 0001:0000163d       _lj_BC_FUNCC               1000263d f   lj_vm.obj
 0001:00001689       _lj_BC_FUNCCW              10002689 f   lj_vm.obj
 0001:000016dd       _lj_vm_returnp             100026dd f   lj_vm.obj
 0001:000016fd       _lj_vm_returnc             100026fd f   lj_vm.obj
 0001:00001716       _lj_vm_return              10002716 f   lj_vm.obj
 0001:00001765       _lj_vm_leave_cp            10002765 f   lj_vm.obj
 0001:0000176e       _lj_vm_leave_unw           1000276e f   lj_vm.obj
 0001:000017ac       _lj_vm_unwind_yield        100027ac f   lj_vm.obj
 0001:000017b0       @lj_vm_unwind_c@8          100027b0 f   lj_vm.obj
 0001:000017b4       _lj_vm_unwind_c_eh         100027b4 f   lj_vm.obj
 0001:000017c7       @lj_vm_unwind_ff@4         100027c7 f   lj_vm.obj
 0001:000017c7       _lj_vm_unwind_rethrow      100027c7 f   lj_vm.obj
 0001:000017cc       _lj_vm_unwind_ff_eh        100027cc f   lj_vm.obj
 0001:000017ff       _lj_vm_growstack_c         100027ff f   lj_vm.obj
 0001:00001806       _lj_vm_growstack_v         10002806 f   lj_vm.obj
 0001:0000180b       _lj_vm_growstack_f         1000280b f   lj_vm.obj
 0001:0000184b       _lj_vm_resume              1000284b f   lj_vm.obj
 0001:000018b3       _lj_vm_pcall               100028b3 f   lj_vm.obj
 0001:000018c1       _lj_vm_call                100028c1 f   lj_vm.obj
 0001:00001908       _lj_vm_call_dispatch       10002908 f   lj_vm.obj
 0001:00001915       _lj_vm_call_dispatch_f     10002915 f   lj_vm.obj
 0001:0000192b       _lj_vm_cpcall              1000292b f   lj_vm.obj
 0001:00001983       _lj_cont_dispatch          10002983 f   lj_vm.obj
 0001:000019bf       _lj_cont_cat               100029bf f   lj_vm.obj
 0001:000019ee       _lj_vmeta_tgets            100029ee f   lj_vm.obj
 0001:00001a17       _lj_vmeta_tgetb            10002a17 f   lj_vm.obj
 0001:00001a2d       _lj_vmeta_tgetv            10002a2d f   lj_vm.obj
 0001:00001a5d       _lj_cont_ra                10002a5d f   lj_vm.obj
 0001:00001a96       _lj_vmeta_tsets            10002a96 f   lj_vm.obj
 0001:00001abf       _lj_vmeta_tsetb            10002abf f   lj_vm.obj
 0001:00001ad5       _lj_vmeta_tsetv            10002ad5 f   lj_vm.obj
 0001:00001b15       _lj_cont_nop               10002b15 f   lj_vm.obj
 0001:00001b4f       _lj_vmeta_comp             10002b4f f   lj_vm.obj
 0001:00001ba5       _lj_cont_condt             10002ba5 f   lj_vm.obj
 0001:00001bb0       _lj_cont_condf             10002bb0 f   lj_vm.obj
 0001:00001bb6       _lj_vmeta_equal            10002bb6 f   lj_vm.obj
 0001:00001bda       _lj_vmeta_equal_cd         10002bda f   lj_vm.obj
 0001:00001bf4       _lj_vmeta_arith_vno        10002bf4 f   lj_vm.obj
 0001:00001bf4       _lj_vmeta_arith_vn         10002bf4 f   lj_vm.obj
 0001:00001bf9       _lj_vmeta_arith_nv         10002bf9 f   lj_vm.obj
 0001:00001bf9       _lj_vmeta_arith_nvo        10002bf9 f   lj_vm.obj
 0001:00001c02       _lj_vmeta_unm              10002c02 f   lj_vm.obj
 0001:00001c09       _lj_vmeta_arith_vvo        10002c09 f   lj_vm.obj
 0001:00001c09       _lj_vmeta_arith_vv         10002c09 f   lj_vm.obj
 0001:00001c44       _lj_vmeta_binop            10002c44 f   lj_vm.obj
 0001:00001c58       _lj_vmeta_len              10002c58 f   lj_vm.obj
 0001:00001c72       _lj_vmeta_call_ra          10002c72 f   lj_vm.obj
 0001:00001c76       _lj_vmeta_call             10002c76 f   lj_vm.obj
 0001:00001cce       _lj_vmeta_for              10002cce f   lj_vm.obj
 0001:00001cf8       _lj_ff_assert              10002cf8 f   lj_vm.obj
 0001:00001d3f       _lj_ff_type                10002d3f f   lj_vm.obj
 0001:00001d70       _lj_ff_getmetatable        10002d70 f   lj_vm.obj
 0001:00001dfe       _lj_ff_setmetatable        10002dfe f   lj_vm.obj
 0001:00001e58       _lj_ff_rawget              10002e58 f   lj_vm.obj
 0001:00001e9b       _lj_ff_tonumber            10002e9b f   lj_vm.obj
 0001:00001eb5       _lj_ff_tostring            10002eb5 f   lj_vm.obj
 0001:00001f19       _lj_ff_next                10002f19 f   lj_vm.obj
 0001:00001f72       _lj_fff_res2               10002f72 f   lj_vm.obj
 0001:00001f91       _lj_ff_pairs               10002f91 f   lj_vm.obj
 0001:00001fca       _lj_ff_ipairs_aux          10002fca f   lj_vm.obj
 0001:00002033       _lj_fff_res0               10003033 f   lj_vm.obj
 0001:0000203d       _lj_ff_ipairs              1000303d f   lj_vm.obj
 0001:00002074       _lj_ff_pcall               10003074 f   lj_vm.obj
 0001:0000209c       _lj_ff_xpcall              1000309c f   lj_vm.obj
 0001:000020d3       _lj_ff_coroutine_resume    100030d3 f   lj_vm.obj
 0001:0000220f       _lj_ff_coroutine_wrap_aux  1000320f f   lj_vm.obj
 0001:00002314       _lj_ff_coroutine_yield     10003314 f   lj_vm.obj
 0001:0000233e       _lj_ff_math_abs            1000333e f   lj_vm.obj
 0001:0000233e       _lj_fff_resi               1000333e f   lj_vm.obj
 0001:00002355       _lj_fff_resn               10003355 f   lj_vm.obj
 0001:00002355       _lj_fff_resxmm0            10003355 f   lj_vm.obj
 0001:0000235b       _lj_fff_res1               1000335b f   lj_vm.obj
 0001:00002360       _lj_fff_res                10003360 f   lj_vm.obj
 0001:00002364       _lj_fff_res_               10003364 f   lj_vm.obj
 0001:000023a2       _lj_ff_math_floor          100033a2 f   lj_vm.obj
 0001:000023b5       _lj_ff_math_ceil           100033b5 f   lj_vm.obj
 0001:000023c8       _lj_ff_math_sqrt           100033c8 f   lj_vm.obj
 0001:000023e4       _lj_ff_math_log            100033e4 f   lj_vm.obj
 0001:00002402       _lj_ff_math_log10          10003402 f   lj_vm.obj
 0001:00002420       _lj_ff_math_exp            10003420 f   lj_vm.obj
 0001:0000243f       _lj_ff_math_sin            1000343f f   lj_vm.obj
 0001:0000245b       _lj_ff_math_cos            1000345b f   lj_vm.obj
 0001:00002477       _lj_ff_math_tan            10003477 f   lj_vm.obj
 0001:00002495       _lj_ff_math_asin           10003495 f   lj_vm.obj
 0001:000024bb       _lj_ff_math_acos           100034bb f   lj_vm.obj
 0001:000024e3       _lj_ff_math_atan           100034e3 f   lj_vm.obj
 0001:00002501       _lj_ff_math_sinh           10003501 f   lj_vm.obj
 0001:00002527       _lj_ff_math_cosh           10003527 f   lj_vm.obj
 0001:0000254d       _lj_ff_math_tanh           1000354d f   lj_vm.obj
 0001:00002573       _lj_ff_math_deg            10003573 f   lj_vm.obj
 0001:00002573       _lj_ff_math_rad            10003573 f   lj_vm.obj
 0001:00002593       _lj_ff_math_atan2          10003593 f   lj_vm.obj
 0001:000025bc       _lj_ff_math_ldexp          100035bc f   lj_vm.obj
 0001:000025e7       _lj_ff_math_frexp          100035e7 f   lj_vm.obj
 0001:0000266e       _lj_ff_math_modf           1000366e f   lj_vm.obj
 0001:000026c6       _lj_ff_math_fmod           100036c6 f   lj_vm.obj
 0001:000026f6       _lj_ff_math_pow            100036f6 f   lj_vm.obj
 0001:00002722       _lj_ff_math_min            10003722 f   lj_vm.obj
 0001:00002751       _lj_ff_math_max            10003751 f   lj_vm.obj
 0001:00002787       _lj_ff_string_len          10003787 f   lj_vm.obj
 0001:000027a4       _lj_ff_string_byte         100037a4 f   lj_vm.obj
 0001:000027d7       _lj_ff_string_char         100037d7 f   lj_vm.obj
 0001:0000281d       _lj_fff_newstr             1000381d f   lj_vm.obj
 0001:00002849       _lj_ff_string_sub          10003849 f   lj_vm.obj
 0001:000028ea       _lj_fff_emptystr           100038ea f   lj_vm.obj
 0001:000028ee       _lj_ff_string_rep          100038ee f   lj_vm.obj
 0001:0000296b       _lj_ff_string_reverse      1000396b f   lj_vm.obj
 0001:000029d5       _lj_ff_string_lower        100039d5 f   lj_vm.obj
 0001:00002a44       _lj_ff_string_upper        10003a44 f   lj_vm.obj
 0001:00002ab3       _lj_ff_table_getn          10003ab3 f   lj_vm.obj
 0001:00002adc       _lj_ff_bit_tobit           10003adc f   lj_vm.obj
 0001:00002b08       _lj_ff_bit_band            10003b08 f   lj_vm.obj
 0001:00002b5a       _lj_ff_bit_bor             10003b5a f   lj_vm.obj
 0001:00002bac       _lj_ff_bit_bxor            10003bac f   lj_vm.obj
 0001:00002bf6       _lj_ff_bit_bswap           10003bf6 f   lj_vm.obj
 0001:00002c21       _lj_ff_bit_bnot            10003c21 f   lj_vm.obj
 0001:00002c4a       _lj_fff_resbit             10003c4a f   lj_vm.obj
 0001:00002c55       _lj_fff_fallback_bit_op    10003c55 f   lj_vm.obj
 0001:00002c5e       _lj_ff_bit_lshift          10003c5e f   lj_vm.obj
 0001:00002ca2       _lj_ff_bit_rshift          10003ca2 f   lj_vm.obj
 0001:00002ce9       _lj_ff_bit_arshift         10003ce9 f   lj_vm.obj
 0001:00002d30       _lj_ff_bit_rol             10003d30 f   lj_vm.obj
 0001:00002d77       _lj_ff_bit_ror             10003d77 f   lj_vm.obj
 0001:00002db2       _lj_fff_fallback_2         10003db2 f   lj_vm.obj
 0001:00002db9       _lj_fff_fallback_1         10003db9 f   lj_vm.obj
 0001:00002dbe       _lj_fff_fallback           10003dbe f   lj_vm.obj
 0001:00002e15       _lj_vm_call_tail           10003e15 f   lj_vm.obj
 0001:00002e4c       _lj_fff_gcstep             10003e4c f   lj_vm.obj
 0001:00002e7e       _lj_vm_record              10003e7e f   lj_vm.obj
 0001:00002e99       _lj_vm_rethook             10003e99 f   lj_vm.obj
 0001:00002ea6       _lj_vm_inshook             10003ea6 f   lj_vm.obj
 0001:00002ee7       _lj_cont_hook              10003ee7 f   lj_vm.obj
 0001:00002ef3       _lj_vm_hotloop             10003ef3 f   lj_vm.obj
 0001:00002f23       _lj_vm_callhook            10003f23 f   lj_vm.obj
 0001:00002f29       _lj_vm_hotcall             10003f29 f   lj_vm.obj
 0001:00002f6a       _lj_vm_exit_handler        10003f6a f   lj_vm.obj
 0001:0000300a       _lj_vm_exit_interp         1000400a f   lj_vm.obj
 0001:00003054       _lj_vm_floor               10004054 f   lj_vm.obj
 0001:0000307d       _lj_vm_floor_sse           1000407d f   lj_vm.obj
 0001:000030d4       _lj_vm_ceil                100040d4 f   lj_vm.obj
 0001:000030fd       _lj_vm_ceil_sse            100040fd f   lj_vm.obj
 0001:00003154       _lj_vm_trunc               10004154 f   lj_vm.obj
 0001:00003179       _lj_vm_trunc_sse           10004179 f   lj_vm.obj
 0001:000031d3       _lj_vm_mod                 100041d3 f   lj_vm.obj
 0001:000031fc       _lj_vm_log2                100041fc f   lj_vm.obj
 0001:00003205       _lj_vm_exp_x87             10004205 f   lj_vm.obj
 0001:00003209       _lj_vm_exp2_x87            10004209 f   lj_vm.obj
 0001:00003221       _lj_vm_exp2raw             10004221 f   lj_vm.obj
 0001:00003239       _lj_vm_pow                 10004239 f   lj_vm.obj
 0001:0000330a       _lj_vm_pow_sse             1000430a f   lj_vm.obj
 0001:00003322       _lj_vm_powi_sse            10004322 f   lj_vm.obj
 0001:0000345b       _lj_vm_foldfpm             1000445b f   lj_vm.obj
 0001:000034c5       _lj_vm_foldarith           100044c5 f   lj_vm.obj
 0001:00003532       _lj_vm_cpuid               10004532 f   lj_vm.obj
 0001:00003560       _lj_assert_bad_for_arg_type 10004560 f   lj_vm.obj
 0001:00003561       _lj_vm_ffi_callback        10004561 f   lj_vm.obj
 0001:000035d8       _lj_cont_ffi_callback      100045d8 f   lj_vm.obj
 0001:00003629       @lj_vm_ffi_call@4          10004629 f   lj_vm.obj
 0001:00003670       _fputc                     10004670 f   MSVCRT:MSVCR90.dll
 0001:00003676       _fflush                    10004676 f   MSVCRT:MSVCR90.dll
 0001:0000367c       _fwrite                    1000467c f   MSVCRT:MSVCR90.dll
 0001:00003682       _memcpy                    10004682 f   MSVCRT:MSVCR90.dll
 0001:00003688       _strlen                    10004688 f   MSVCRT:MSVCR90.dll
 0001:0000368e       _tanh                      1000468e f   MSVCRT:MSVCR90.dll
 0001:00003694       _sinh                      10004694 f   MSVCRT:MSVCR90.dll
 0001:0000369a       _memset                    1000469a f   MSVCRT:MSVCR90.dll
 0001:000036a0       _cosh                      100046a0 f   MSVCRT:MSVCR90.dll
 0001:000036f5       __CRT_INIT@12              100046f5 f   MSVCRT:crtdll.obj
 0001:00003a31       __DllMainCRTStartup@12     10004a31 f   MSVCRT:crtdll.obj
 0001:00003a54       ___clean_type_info_names   10004a54 f   MSVCRT:tncleanup.obj
 0001:00003a60       __onexit                   10004a60 f   MSVCRT:atonexit.obj
 0001:00003b05       _atexit                    10004b05 f   MSVCRT:atonexit.obj
 0001:00003b1c       __RTC_Initialize           10004b1c f   MSVCRT:_initsect_.obj
 0001:00003b42       __RTC_Terminate            10004b42 f   MSVCRT:_initsect_.obj
 0001:00003b70       __ValidateImageBase        10004b70 f   MSVCRT:pesect.obj
 0001:00003bb0       __FindPESection            10004bb0 f   MSVCRT:pesect.obj
 0001:00003c00       __IsNonwritableInCurrentImage 10004c00 f   MSVCRT:pesect.obj
 0001:00003cbe       __initterm                 10004cbe f   MSVCRT:MSVCR90.dll
 0001:00003cc4       __initterm_e               10004cc4 f   MSVCRT:MSVCR90.dll
 0001:00003cca       __amsg_exit                10004cca f   MSVCRT:MSVCR90.dll
 0001:00003cd0       ___CppXcptFilter           10004cd0 f   MSVCRT:MSVCR90.dll
 0001:00003cd6       _DllMain@12                10004cd6 f   MSVCRT:dllmain.obj
 0001:00003cfc       __SEH_prolog4              10004cfc f   MSVCRT:sehprolg4.obj
 0001:00003d41       __SEH_epilog4              10004d41 f   MSVCRT:sehprolg4.obj
 0001:00003d55       __except_handler4          10004d55 f   MSVCRT:chandler4gs.obj
 0001:00003d7a       ___security_init_cookie    10004d7a f   MSVCRT:gs_support.obj
 0001:00003e10       ___clean_type_info_names_internal 10004e10 f   MSVCRT:MSVCR90.dll
 0001:00003e16       __unlock                   10004e16 f   MSVCRT:MSVCR90.dll
 0001:00003e1c       ___dllonexit               10004e1c f   MSVCRT:MSVCR90.dll
 0001:00003e22       __lock                     10004e22 f   MSVCRT:MSVCR90.dll
 0001:00003e28       @__security_check_cookie@4 10004e28 f   MSVCRT:secchk.obj
 0001:00003e38       __except_handler4_common   10004e38 f   MSVCRT:MSVCR90.dll
 0001:00003e3e       ___report_gsfailure        10004e3e f   MSVCRT:gs_report.obj
 0001:00003f44       __crt_debugger_hook        10004f44 f   MSVCRT:MSVCR90.dll
 0001:00003f50       _lua_atpanic               10004f50 f   lj_err.obj
 0001:00004220       @lj_err_throw@8            10005220 f   lj_err.obj
 0001:00004260       _lj_err_mem                10005260 f   lj_err.obj
 0001:000042a0       _luaL_where                100052a0 f   lj_err.obj
 0001:000042f0       _lj_err_lex                100052f0 f   lj_err.obj
 0001:000043b0       _lj_err_comp               100053b0 f   lj_err.obj
 0001:00004400       _lj_err_optype             10005400 f   lj_err.obj
 0001:000044a0       _lj_err_msg                100054a0 f   lj_err.obj
 0001:000044c0       _lj_err_optype_call        100054c0 f   lj_err.obj
 0001:00004510       _lj_err_str                10005510 f   lj_err.obj
 0001:00004550       _lj_err_run                10005550 f   lj_err.obj
 0001:000045e0       _lua_error                 100055e0 f   lj_err.obj
 0001:000045f0       _lj_err_callermsg          100055f0 f   lj_err.obj
 0001:00004670       _luaL_error                10005670 f   lj_err.obj
 0001:00004720       _lj_err_caller             10005720 f   lj_err.obj
 0001:00004730       _lj_err_callerv            10005730 f   lj_err.obj
 0001:00004760       _luaL_argerror             10005760 f   lj_err.obj
 0001:00004780       _lj_err_argtype            10005780 f   lj_err.obj
 0001:000047e0       _lj_err_arg                100057e0 f   lj_err.obj
 0001:00004800       _lj_err_argv               10005800 f   lj_err.obj
 0001:00004830       _luaL_typerror             10005830 f   lj_err.obj
 0001:00004850       _lj_err_argt               10005850 f   lj_err.obj
 0001:000058a0       _lj_vm_errno               100068a0 f   lj_vmmath.obj
 0001:000058b0       @lj_vm_modi@8              100068b0 f   lj_vmmath.obj
 0001:000058e0       _lj_vm_tanh                100068e0 f   lj_vmmath.obj
 0001:000058f0       _lj_vm_cosh                100068f0 f   lj_vmmath.obj
 0001:00005900       _lj_vm_sinh                10006900 f   lj_vmmath.obj
 0001:00005910       _lj_vmevent_call           10006910 f   lj_vmevent.obj
 0001:00005a20       _lj_vmevent_prepare        10006a20 f   lj_vmevent.obj
 0001:00005af0       @lj_udata_free@8           10006af0 f   lj_udata.obj
 0001:00005b10       _lj_udata_new              10006b10 f   lj_udata.obj
 0001:00005ba0       _lj_trace_initstate        10006ba0 f   lj_trace.obj
 0001:00005c70       _lj_trace_reenableproto    10006c70 f   lj_trace.obj
 0001:00005fa0       @lj_trace_free@8           10006fa0 f   lj_trace.obj
 0001:00006040       _lj_trace_freestate        10007040 f   lj_trace.obj
 0001:000060f0       _lj_trace_flushproto       100070f0 f   lj_trace.obj
 0001:00006140       _lj_trace_flush            10007140 f   lj_trace.obj
 0001:00006170       _lj_trace_err_info         10007170 f   lj_trace.obj
 0001:00006190       _lj_trace_err              10007190 f   lj_trace.obj
 0001:00006530       _lj_trace_flushall         10007530 f   lj_trace.obj
 0001:00006d20       _lj_trace_ins              10007d20 f   lj_trace.obj
 0001:00006df0       @lj_trace_hot@8            10007df0 f   lj_trace.obj
 0001:00006e70       @lj_trace_exit@8           10007e70 f   lj_trace.obj
 0001:000072a0       _lj_tab_setinth            100082a0 f   lj_tab.obj
 0001:00007310       _lj_tab_getstr             10008310 f   lj_tab.obj
 0001:00007340       @lj_tab_getinth@8          10008340 f   lj_tab.obj
 0001:00007410       @lj_tab_free@8             10008410 f   lj_tab.obj
 0001:00007620       _lj_tab_get                10008620 f   lj_tab.obj
 0001:00007720       @lj_tab_len@4              10008720 f   lj_tab.obj
 0001:000078a0       _lj_tab_next               100088a0 f   lj_tab.obj
 0001:00007c90       _lj_tab_reasize            10008c90 f   lj_tab.obj
 0001:00007de0       @lj_tab_dup@8              10008de0 f   lj_tab.obj
 0001:00007eb0       @lj_tab_new1@8             10008eb0 f   lj_tab.obj
 0001:00007f10       _lj_tab_new                10008f10 f   lj_tab.obj
 0001:00007f70       _lj_tab_newkey             10008f70 f   lj_tab.obj
 0001:000080d0       _lj_tab_setstr             100090d0 f   lj_tab.obj
 0001:00008120       _lj_tab_set                10009120 f   lj_tab.obj
 0001:00008ba0       _lj_strscan_scan           10009ba0 f   lj_strscan.obj
 0001:00009070       @lj_strscan_num@8          1000a070 f   lj_strscan.obj
 0001:00009090       @lj_str_bufint@8           1000a090 f   lj_str.obj
 0001:000090d0       @lj_str_bufnum@8           1000a0d0 f   lj_str.obj
 0001:000091a0       @lj_str_cmp@8              1000a1a0 f   lj_str.obj
 0001:00009240       @lj_str_free@8             1000a240 f   lj_str.obj
 0001:00009270       _lj_str_needbuf            1000a270 f   lj_str.obj
 0001:00009350       _lj_str_resize             1000a350 f   lj_str.obj
 0001:00009400       _lj_str_pushvf             1000a400 f   lj_str.obj
 0001:000096e0       _lj_str_pushf              1000a6e0 f   lj_str.obj
 0001:00009700       _lj_str_new                1000a700 f   lj_str.obj
 0001:00009930       @lj_str_fromint@8          1000a930 f   lj_str.obj
 0001:00009960       @lj_str_fromnum@8          1000a960 f   lj_str.obj
 0001:00009990       @lj_str_fromnumber@8       1000a990 f   lj_str.obj
 0001:00009a60       _lj_state_shrinkstack      1000aa60 f   lj_state.obj
 0001:00009aa0       _lj_state_relimitstack     1000aaa0 f   lj_state.obj
 0001:00009af0       @lj_state_free@8           1000aaf0 f   lj_state.obj
 0001:00009b40       @lj_state_growstack@8      1000ab40 f   lj_state.obj
 0001:00009c50       @lj_state_growstack1@4     1000ac50 f   lj_state.obj
 0001:00009cb0       _lj_state_new              1000acb0 f   lj_state.obj
 0001:00009d70       _lua_newstate              1000ad70 f   lj_state.obj
 0001:00009e80       _lua_close                 1000ae80 f   lj_state.obj
 0001:0000a3c0       _lj_snap_regspmap          1000b3c0 f   lj_snap.obj
 0001:0000a810       _lj_snap_shrink            1000b810 f   lj_snap.obj
 0001:0000a8f0       _lj_snap_purge             1000b8f0 f   lj_snap.obj
 0001:0000a930       _lj_snap_grow_map_         1000b930 f   lj_snap.obj
 0001:0000aa50       _lj_snap_grow_buf_         1000ba50 f   lj_snap.obj
 0001:0000ac00       _lj_snap_add               1000bc00 f   lj_snap.obj
 0001:0000adc0       _lj_snap_replay            1000bdc0 f   lj_snap.obj
 0001:0000b880       _lj_snap_restore           1000c880 f   lj_snap.obj
 0001:0000c890       _lj_record_objcmp          1000d890 f   lj_record.obj
 0001:0000d450       _lj_record_constify        1000e450 f   lj_record.obj
 0001:0000d810       _lj_record_idx             1000e810 f   lj_record.obj
 0001:0000dd90       _lj_record_mm_lookup       1000ed90 f   lj_record.obj
 0001:0000e020       _lj_record_ret             1000f020 f   lj_record.obj
 0001:0000e6f0       _lj_record_tailcall        1000f6f0 f   lj_record.obj
 0001:0000e780       _lj_record_call            1000f780 f   lj_record.obj
 0001:0000e8f0       _lj_record_setup           1000f8f0 f   lj_record.obj
 0001:0000f230       _lj_record_ins             10010230 f   lj_record.obj
 0001:00011520       _lj_parse_keepcdata        10012520 f   lj_parse.obj
 0001:00011b30       _lj_parse_keepstr          10012b30 f   lj_parse.obj
 0001:000144f0       _lj_parse                  100154f0 f   lj_parse.obj
 0001:00014b60       _lj_opt_sink               10015b60 f   lj_opt_sink.obj
 0001:00015030       _lj_opt_narrow_forl        10016030 f   lj_opt_narrow.obj
 0001:000150a0       _lj_opt_narrow_pow         100160a0 f   lj_opt_narrow.obj
 0001:000152f0       _lj_opt_narrow_mod         100162f0 f   lj_opt_narrow.obj
 0001:00015410       _lj_opt_narrow_unm         10016410 f   lj_opt_narrow.obj
 0001:000154f0       _lj_opt_narrow_arith       100164f0 f   lj_opt_narrow.obj
 0001:00015650       @lj_opt_narrow_index@8     10016650 f   lj_opt_narrow.obj
 0001:00015980       @lj_opt_narrow_cindex@8    10016980 f   lj_opt_narrow.obj
 0001:000159d0       @lj_opt_narrow_tobit@8     100169d0 f   lj_opt_narrow.obj
 0001:00015a70       @lj_opt_narrow_toint@8     10016a70 f   lj_opt_narrow.obj
 0001:00015b00       @lj_opt_narrow_convert@4   10016b00 f   lj_opt_narrow.obj
 0001:00015b90       _lj_opt_fwd_wasnonnil      10016b90 f   lj_opt_mem.obj
 0001:00016050       @lj_opt_fwd_tptr@8         10017050 f   lj_opt_mem.obj
 0001:00016240       @lj_opt_fwd_href_nokey@4   10017240 f   lj_opt_mem.obj
 0001:000162c0       @lj_opt_dse_xstore@4       100172c0 f   lj_opt_mem.obj
 0001:000163e0       @lj_opt_dse_fstore@4       100173e0 f   lj_opt_mem.obj
 0001:00016500       @lj_opt_dse_ustore@4       10017500 f   lj_opt_mem.obj
 0001:00016660       @lj_opt_dse_ahstore@4      10017660 f   lj_opt_mem.obj
 0001:00016770       @lj_opt_fwd_tab_len@4      10017770 f   lj_opt_mem.obj
 0001:00016940       @lj_opt_fwd_fload@4        10017940 f   lj_opt_mem.obj
 0001:000169e0       @lj_opt_fwd_uload@4        100179e0 f   lj_opt_mem.obj
 0001:00016a50       @lj_opt_fwd_hrefk@4        10017a50 f   lj_opt_mem.obj
 0001:00016ad0       @lj_opt_fwd_xload@4        10017ad0 f   lj_opt_mem.obj
 0001:00016ea0       @lj_opt_fwd_hload@4        10017ea0 f   lj_opt_mem.obj
 0001:00016f70       @lj_opt_fwd_aload@4        10017f70 f   lj_opt_mem.obj
 0001:000178e0       _lj_opt_loop               100188e0 f   lj_opt_loop.obj
 0001:00018b50       @lj_opt_cselim@8           10019b50 f   lj_opt_fold.obj
 0001:00018b90       @lj_opt_cse@4              10019b90 f   lj_opt_fold.obj
 0001:00018ed0       @lj_opt_fold@4             10019ed0 f   lj_opt_fold.obj
 0001:0001a630       _lj_opt_dce                1001b630 f   lj_opt_dce.obj
 0001:0001a660       _lj_obj_equal              1001b660 f   lj_obj.obj
 0001:0001a770       _lj_meta_tailcall          1001b770 f   lj_meta.obj
 0001:0001a7b0       _lj_meta_lookup            1001b7b0 f   lj_meta.obj
 0001:0001a810       _lj_meta_cache             1001b810 f   lj_meta.obj
 0001:0001a840       @lj_meta_equal_cd@8        1001b840 f   lj_meta.obj
 0001:0001a910       _lj_meta_equal             1001b910 f   lj_meta.obj
 0001:0001aa60       @lj_meta_for@8             1001ba60 f   lj_meta.obj
 0001:0001aaf0       _lj_meta_comp              1001baf0 f   lj_meta.obj
 0001:0001ac80       @lj_meta_len@8             1001bc80 f   lj_meta.obj
 0001:0001acc0       _lj_meta_arith             1001bcc0 f   lj_meta.obj
 0001:0001ad90       _lj_meta_tget              1001bd90 f   lj_meta.obj
 0001:0001ae70       _lj_meta_init              1001be70 f   lj_meta.obj
 0001:0001aec0       _lj_meta_call              1001bec0 f   lj_meta.obj
 0001:0001af40       _lj_meta_tset              1001bf40 f   lj_meta.obj
 0001:0001b0e0       _lj_meta_cat               1001c0e0 f   lj_meta.obj
 0001:0001b390       _lj_mcode_sync             1001c390 f   lj_mcode.obj
 0001:0001b3a0       _lj_mcode_free             1001c3a0 f   lj_mcode.obj
 0001:0001b400       _lj_mcode_patch            1001c400 f   lj_mcode.obj
 0001:0001b490       _lj_mcode_abort            1001c490 f   lj_mcode.obj
 0001:0001b4a0       _lj_mcode_commit           1001c4a0 f   lj_mcode.obj
 0001:0001b550       _lj_mcode_limiterr         1001c550 f   lj_mcode.obj
 0001:0001b5b0       _lj_mcode_reserve          1001c5b0 f   lj_mcode.obj
 0001:0001b6b0       _lua_dump                  1001c6b0 f   lj_load.obj
 0001:0001b7a0       _lua_loadx                 1001c7a0 f   lj_load.obj
 0001:0001b820       _luaL_loadbufferx          1001c820 f   lj_load.obj
 0001:0001b860       _luaL_loadfilex            1001c860 f   lj_load.obj
 0001:0001b9a0       _lua_load                  1001c9a0 f   lj_load.obj
 0001:0001b9c0       _luaL_loadbuffer           1001c9c0 f   lj_load.obj
 0001:0001b9e0       _luaL_loadfile             1001c9e0 f   lj_load.obj
 0001:0001ba00       _luaL_loadstring           1001ca00 f   lj_load.obj
 0001:0001baf0       _lj_lib_checktabornil      1001caf0 f   lj_lib.obj
 0001:0001bb20       _lj_lib_checkany           1001cb20 f   lj_lib.obj
 0001:0001bb40       _lj_lib_checktab           1001cb40 f   lj_lib.obj
 0001:0001bb70       _lj_lib_checkfunc          1001cb70 f   lj_lib.obj
 0001:0001bba0       _lj_lib_checkbit           1001cba0 f   lj_lib.obj
 0001:0001bc00       _lj_lib_checkint           1001cc00 f   lj_lib.obj
 0001:0001bc60       _lj_lib_checknum           1001cc60 f   lj_lib.obj
 0001:0001bca0       _lj_lib_checkstr           1001cca0 f   lj_lib.obj
 0001:0001bcf0       _lj_lib_optint             1001ccf0 f   lj_lib.obj
 0001:0001bd10       _lj_lib_optstr             1001cd10 f   lj_lib.obj
 0001:0001bd30       _lj_lib_checkopt           1001cd30 f   lj_lib.obj
 0001:0001bec0       _lj_lib_register           1001cec0 f   lj_lib.obj
 0001:0001c1d0       _lj_lex_cleanup            1001d1d0 f   lj_lex.obj
 0001:0001c2e0       _lj_lex_token2str          1001d2e0 f   lj_lex.obj
 0001:0001c3d0       _lj_lex_error              1001d3d0 f   lj_lex.obj
 0001:0001c4d0       _lj_lex_init               1001d4d0 f   lj_lex.obj
 0001:0001c510       _lj_lex_setup              1001d510 f   lj_lex.obj
 0001:0001d5a0       _lj_lex_lookahead          1001e5a0 f   lj_lex.obj
 0001:0001d5c0       _lj_lex_next               1001e5c0 f   lj_lex.obj
 0001:0001d600       _lj_ir_rollback            1001e600 f   lj_ir.obj
 0001:0001d640       _lj_ir_strcmp              1001e640 f   lj_ir.obj
 0001:0001d690       _lj_ir_numcmp              1001e690 f   lj_ir.obj
 0001:0001d8a0       _lj_ir_k64_freeall         1001e8a0 f   lj_ir.obj
 0001:0001d8f0       _lj_ir_k64_find            1001e8f0 f   lj_ir.obj
 0001:0001daa0       @lj_ir_growtop@4           1001eaa0 f   lj_ir.obj
 0001:0001db70       _lj_ir_kvalue              1001eb70 f   lj_ir.obj
 0001:0001dc40       @lj_ir_emit@4              1001ec40 f   lj_ir.obj
 0001:0001dca0       _lj_ir_kslot               1001eca0 f   lj_ir.obj
 0001:0001dd20       _lj_ir_knull               1001ed20 f   lj_ir.obj
 0001:0001dd90       _lj_ir_kptr_               1001ed90 f   lj_ir.obj
 0001:0001de10       _lj_ir_kgc                 1001ee10 f   lj_ir.obj
 0001:0001de90       _lj_ir_k64                 1001ee90 f   lj_ir.obj
 0001:0001df20       @lj_ir_kint@8              1001ef20 f   lj_ir.obj
 0001:0001dfa0       @lj_ir_tostr@8             1001efa0 f   lj_ir.obj
 0001:0001dff0       @lj_ir_tonum@8             1001eff0 f   lj_ir.obj
 0001:0001e060       @lj_ir_tonumber@8          1001f060 f   lj_ir.obj
 0001:0001e0b0       _lj_ir_kint64              1001f0b0 f   lj_ir.obj
 0001:0001e0e0       _lj_ir_knum_u64            1001f0e0 f   lj_ir.obj
 0001:0001e110       _lj_ir_call                1001f110 f   lj_ir.obj
 0001:0001e1d0       _lj_ir_knumint             1001f1d0 f   lj_ir.obj
 0001:0001e3e0       _lj_gc_barriertrace        1001f3e0 f   lj_gc.obj
 0001:0001e400       @lj_gc_barrieruv@8         1001f400 f   lj_gc.obj
 0001:0001e430       _lj_gc_barrierf            1001f430 f   lj_gc.obj
 0001:0001e460       _lj_gc_freeall             1001f460 f   lj_gc.obj
 0001:0001e8d0       _lj_gc_separateudata       1001f8d0 f   lj_gc.obj
 0001:0001ea50       _lj_gc_closeuv             1001fa50 f   lj_gc.obj
 0001:0001ede0       @lj_mem_newgco@8           1001fde0 f   lj_gc.obj
 0001:0001ee20       _lj_mem_realloc            1001fe20 f   lj_gc.obj
 0001:0001ee60       _lj_gc_finalize_cdata      1001fe60 f   lj_gc.obj
 0001:0001ef00       _lj_mem_grow               1001ff00 f   lj_gc.obj
 0001:0001f1e0       _lj_gc_finalize_udata      100201e0 f   lj_gc.obj
 0001:0001f210       _lj_gc_fullgc              10020210 f   lj_gc.obj
 0001:0001f290       @lj_gc_step@4              10020290 f   lj_gc.obj
 0001:0001f340       @lj_gc_step_jit@8          10020340 f   lj_gc.obj
 0001:0001f3a0       @lj_gc_step_fixtop@4       100203a0 f   lj_gc.obj
 0001:0001f400       @lj_func_free@8            10020400 f   lj_func.obj
 0001:0001f440       @lj_func_freeuv@8          10020440 f   lj_func.obj
 0001:0001f470       @lj_func_freeproto@8       10020470 f   lj_func.obj
 0001:0001f490       @lj_func_closeuv@8         10020490 f   lj_func.obj
 0001:0001f520       _lj_func_newC              10020520 f   lj_func.obj
 0001:0001f610       _lj_func_newL_empty        10020610 f   lj_func.obj
 0001:0001f670       _lj_func_newL_gc           10020670 f   lj_func.obj
 0001:00020130       _lj_ffrecord_select_mode   10021130 f   lj_ffrecord.obj
 0001:000206f0       _lj_ffrecord_func          100216f0 f   lj_ffrecord.obj
 0001:00021500       _lua_gethookcount          10022500 f   lj_dispatch.obj
 0001:00021510       _lua_gethookmask           10022510 f   lj_dispatch.obj
 0001:00021530       _lua_gethook               10022530 f   lj_dispatch.obj
 0001:00021540       _luaJIT_version_2_0_1      10022540 f   lj_dispatch.obj
 0001:00021550       _lj_dispatch_init_hotcount 10022550 f   lj_dispatch.obj
 0001:00021580       _lj_dispatch_init          10022580 f   lj_dispatch.obj
 0001:00021660       _lj_dispatch_update        10022660 f   lj_dispatch.obj
 0001:00021840       _lua_sethook               10022840 f   lj_dispatch.obj
 0001:00021a40       _luaJIT_setmode            10022a40 f   lj_dispatch.obj
 0001:00021c30       @lj_dispatch_ins@8         10022c30 f   lj_dispatch.obj
 0001:00021da0       @lj_dispatch_call@8        10022da0 f   lj_dispatch.obj
 0001:00021ec0       _lj_debug_shortname        10022ec0 f   lj_debug.obj
 0001:00021fd0       _lj_debug_uvname           10022fd0 f   lj_debug.obj
 0001:00022020       @lj_debug_line@8           10023020 f   lj_debug.obj
 0001:00022140       _lj_debug_frame            10023140 f   lj_debug.obj
 0001:000221e0       _lua_getstack              100231e0 f   lj_debug.obj
 0001:00022230       _lj_debug_uvnamev          10023230 f   lj_debug.obj
 0001:00022350       _lj_debug_slotname         10023350 f   lj_debug.obj
 0001:000225d0       _lua_setlocal              100235d0 f   lj_debug.obj
 0001:00022620       _lj_debug_funcname         10023620 f   lj_debug.obj
 0001:000226f0       _lua_getlocal              100236f0 f   lj_debug.obj
 0001:00022780       _lj_debug_pushloc          10023780 f   lj_debug.obj
 0001:00022840       _lj_debug_addloc           10023840 f   lj_debug.obj
 0001:000228b0       _lj_debug_getinfo          100238b0 f   lj_debug.obj
 0001:00022bb0       _lua_getinfo               10023bb0 f   lj_debug.obj
 0001:00022bd0       _luaL_traceback            10023bd0 f   lj_debug.obj
 0001:00022f90       _lj_ctype_freestate        10023f90 f   lj_ctype.obj
 0001:00023040       _lj_ctype_addname          10024040 f   lj_ctype.obj
 0001:00023150       _lj_ctype_meta             10024150 f   lj_ctype.obj
 0001:00023200       _lj_ctype_info             10024200 f   lj_ctype.obj
 0001:000232a0       _lj_ctype_getname          100242a0 f   lj_ctype.obj
 0001:00023790       _lj_ctype_rawref           10024790 f   lj_ctype.obj
 0001:000237e0       _lj_ctype_getfieldq        100247e0 f   lj_ctype.obj
 0001:00023950       _lj_ctype_vlsize           10024950 f   lj_ctype.obj
 0001:00023a30       _lj_ctype_size             10024a30 f   lj_ctype.obj
 0001:00023a90       _lj_ctype_init             10024a90 f   lj_ctype.obj
 0001:00023ba0       _lj_ctype_repr_complex     10024ba0 f   lj_ctype.obj
 0001:00023c30       _lj_ctype_repr_int64       10024c30 f   lj_ctype.obj
 0001:00023cc0       _lj_ctype_repr             10024cc0 f   lj_ctype.obj
 0001:00023d40       _lj_ctype_intern           10024d40 f   lj_ctype.obj
 0001:00023e20       _lj_ctype_new              10024e20 f   lj_ctype.obj
 0001:000243f0       @recff_ffi_abi@8           100253f0 f   lj_crecord.obj
 0001:00024460       @recff_ffi_errno@8         10025460 f   lj_crecord.obj
 0001:00024a50       @recff_ffi_gc@8            10025a50 f   lj_crecord.obj
 0001:00025420       @recff_cdata_arith@8       10026420 f   lj_crecord.obj
 0001:00026530       @lj_crecord_tonumber@8     10027530 f   lj_crecord.obj
 0001:00026600       @recff_clib_index@8        10027600 f   lj_crecord.obj
 0001:00026f80       @recff_cdata_index@8       10027f80 f   lj_crecord.obj
 0001:00027620       @recff_ffi_fill@8          10028620 f   lj_crecord.obj
 0001:00027750       @recff_ffi_copy@8          10028750 f   lj_crecord.obj
 0001:00027860       @recff_ffi_string@8        10028860 f   lj_crecord.obj
 0001:00027c80       @recff_cdata_call@8        10028c80 f   lj_crecord.obj
 0001:00027e90       @recff_ffi_xof@8           10028e90 f   lj_crecord.obj
 0001:00027f60       @recff_ffi_istype@8        10028f60 f   lj_crecord.obj
 0001:00027fd0       @recff_ffi_typeof@8        10028fd0 f   lj_crecord.obj
 0001:00028050       @recff_ffi_new@8           10029050 f   lj_crecord.obj
 0001:0002bce0       _lj_cparse                 1002cce0 f   lj_cparse.obj
 0001:0002bf00       _lj_clib_unload            1002cf00 f   lj_clib.obj
 0001:0002c0c0       _lj_clib_default           1002d0c0 f   lj_clib.obj
 0001:0002c140       _lj_clib_index             1002d140 f   lj_clib.obj
 0001:0002c340       _lj_clib_load              1002d340 f   lj_clib.obj
 0001:0002c4f0       @lj_cdata_free@8           1002d4f0 f   lj_cdata.obj
 0001:0002c5c0       _lj_cdata_newv             1002d5c0 f   lj_cdata.obj
 0001:0002c670       _lj_cdata_newref           1002d670 f   lj_cdata.obj
 0001:0002c6b0       @lj_cdata_setfin@8         1002d6b0 f   lj_cdata.obj
 0001:0002c720       _lj_cdata_index            1002d720 f   lj_cdata.obj
 0001:0002caf0       _lj_cdata_set              1002daf0 f   lj_cdata.obj
 0001:0002cbd0       _lj_cdata_get              1002dbd0 f   lj_cdata.obj
 0001:0002cd60       _lj_cconv_multi_init       1002dd60 f   lj_cconv.obj
 0001:0002cea0       _lj_cconv_compatptr        1002dea0 f   lj_cconv.obj
 0001:0002cfe0       _lj_cconv_bf_tv            1002dfe0 f   lj_cconv.obj
 0001:0002d280       _lj_cconv_tv_bf            1002e280 f   lj_cconv.obj
 0001:0002d5a0       _lj_cconv_ct_ct            1002e5a0 f   lj_cconv.obj
 0001:0002dca0       _lj_cconv_ct_tv            1002eca0 f   lj_cconv.obj
 0001:0002dfa0       _lj_cconv_tv_ct            1002efa0 f   lj_cconv.obj
 0001:0002e300       _lj_cconv_ct_init          1002f300 f   lj_cconv.obj
 0001:0002e3b0       _lj_ccallback_mcode_free   1002f3b0 f   lj_ccallback.obj
 0001:0002e4d0       _lj_ccallback_ptr2slot     1002f4d0 f   lj_ccallback.obj
 0001:0002e830       _lj_ccallback_new          1002f830 f   lj_ccallback.obj
 0001:0002eb90       @lj_ccallback_leave@8      1002fb90 f   lj_ccallback.obj
 0001:0002ebf0       @lj_ccallback_enter@8      1002fbf0 f   lj_ccallback.obj
 0001:0002ed90       _lj_ccall_ctid_vararg      1002fd90 f   lj_ccall.obj
 0001:0002f2b0       _lj_ccall_func             100302b0 f   lj_ccall.obj
 0001:0002f430       _lj_carith_powu64          10030430 f   lj_carith.obj
 0001:0002f520       _lj_carith_modi64          10030520 f   lj_carith.obj
 0001:0002f570       _lj_carith_modu64          10030570 f   lj_carith.obj
 0001:0002f5a0       _lj_carith_divi64          100305a0 f   lj_carith.obj
 0001:0002f5f0       _lj_carith_divu64          100305f0 f   lj_carith.obj
 0001:0002f620       _lj_carith_mul64           10030620 f   lj_carith.obj
 0001:0002f6a0       _lj_carith_powi64          100306a0 f   lj_carith.obj
 0001:000302c0       _lj_carith_op              100312c0 f   lj_carith.obj
 0001:00030c10       _lj_bcwrite                10031c10 f   lj_bcwrite.obj
 0001:000316d0       _lj_bcread                 100326d0 f   lj_bcread.obj
 0001:00032380       _lj_asm_patchexit          10033380 f   lj_asm.obj
 0001:00039160       _lj_asm_trace              1003a160 f   lj_asm.obj
 0001:00039420       _lua_setallocf             1003a420 f   lj_api.obj
 0001:00039440       _lua_getallocf             1003a440 f   lj_api.obj
 0001:00039460       _lua_call                  1003a460 f   lj_api.obj
 0001:00039490       _lua_typename              1003a490 f   lj_api.obj
 0001:000394a0       _lua_gettop                1003a4a0 f   lj_api.obj
 0001:000394b0       _lua_status                1003a4b0 f   lj_api.obj
 0001:000395a0       _lua_pcall                 1003a5a0 f   lj_api.obj
 0001:00039610       _lua_insert                1003a610 f   lj_api.obj
 0001:00039660       _lua_remove                1003a660 f   lj_api.obj
 0001:00039790       _lua_setupvalue            1003a790 f   lj_api.obj
 0001:00039800       _lua_setfenv               1003a800 f   lj_api.obj
 0001:00039870       _lua_rawseti               1003a870 f   lj_api.obj
 0001:000398e0       _lua_upvaluejoin           1003a8e0 f   lj_api.obj
 0001:00039930       _lua_upvalueid             1003a930 f   lj_api.obj
 0001:00039960       _lua_rawget                1003a960 f   lj_api.obj
 0001:000399a0       _lua_topointer             1003a9a0 f   lj_api.obj
 0001:000399e0       _lua_tothread              1003a9e0 f   lj_api.obj
 0001:00039a00       _lua_touserdata            1003aa00 f   lj_api.obj
 0001:00039a30       _lua_tocfunction           1003aa30 f   lj_api.obj
 0001:00039a60       _lua_toboolean             1003aa60 f   lj_api.obj
 0001:00039a80       _lua_equal                 1003aa80 f   lj_api.obj
 0001:00039b20       _lua_rawequal              1003ab20 f   lj_api.obj
 0001:00039b60       _lua_isuserdata            1003ab60 f   lj_api.obj
 0001:00039b90       _lua_isstring              1003ab90 f   lj_api.obj
 0001:00039bc0       _lua_iscfunction           1003abc0 f   lj_api.obj
 0001:00039bf0       _lua_type                  1003abf0 f   lj_api.obj
 0001:00039c40       _lua_tointeger             1003ac40 f   lj_api.obj
 0001:00039ca0       _lua_tonumber              1003aca0 f   lj_api.obj
 0001:00039cf0       _lua_isnumber              1003acf0 f   lj_api.obj
 0001:00039d30       _lua_settop                1003ad30 f   lj_api.obj
 0001:00039e20       _lua_getupvalue            1003ae20 f   lj_api.obj
 0001:00039e80       _lua_getfenv               1003ae80 f   lj_api.obj
 0001:00039ef0       _lua_getmetatable          1003aef0 f   lj_api.obj
 0001:00039f70       _lua_rawgeti               1003af70 f   lj_api.obj
 0001:00039fd0       _lua_pushthread            1003afd0 f   lj_api.obj
 0001:0003a010       _lua_pushlightuserdata     1003b010 f   lj_api.obj
 0001:0003a040       _lua_pushboolean           1003b040 f   lj_api.obj
 0001:0003a070       _lua_pushinteger           1003b070 f   lj_api.obj
 0001:0003a090       _lua_pushnumber            1003b090 f   lj_api.obj
 0001:0003a0d0       _lua_pushnil               1003b0d0 f   lj_api.obj
 0001:0003a0f0       _lua_pushvalue             1003b0f0 f   lj_api.obj
 0001:0003a130       _lua_xmove                 1003b130 f   lj_api.obj
 0001:0003a190       _lua_checkstack            1003b190 f   lj_api.obj
 0001:0003a1e0       _lua_cpcall                1003b1e0 f   lj_api.obj
 0001:0003a230       _lua_yield                 1003b230 f   lj_api.obj
 0001:0003a300       _luaL_getmetafield         1003b300 f   lj_api.obj
 0001:0003a370       _lua_getfield              1003b370 f   lj_api.obj
 0001:0003a410       _lua_gettable              1003b410 f   lj_api.obj
 0001:0003a470       _lua_lessthan              1003b470 f   lj_api.obj
 0001:0003a500       _lua_replace               1003b500 f   lj_api.obj
 0001:0003a5e0       _lua_resume                1003b5e0 f   lj_api.obj
 0001:0003a650       _luaL_callmeta             1003b650 f   lj_api.obj
 0001:0003a6b0       _lua_next                  1003b6b0 f   lj_api.obj
 0001:0003a700       _lua_objlen                1003b700 f   lj_api.obj
 0001:0003a770       _lua_setfield              1003b770 f   lj_api.obj
 0001:0003a810       _lua_settable              1003b810 f   lj_api.obj
 0001:0003a880       _lua_setmetatable          1003b880 f   lj_api.obj
 0001:0003a9a0       _luaL_newmetatable         1003b9a0 f   lj_api.obj
 0001:0003aa50       _luaL_checkstack           1003ba50 f   lj_api.obj
 0001:0003aa80       _lua_rawset                1003ba80 f   lj_api.obj
 0001:0003aad0       _luaL_checkudata           1003bad0 f   lj_api.obj
 0001:0003ab40       _luaL_checkany             1003bb40 f   lj_api.obj
 0001:0003ab70       _luaL_optinteger           1003bb70 f   lj_api.obj
 0001:0003abf0       _luaL_checkinteger         1003bbf0 f   lj_api.obj
 0001:0003ac60       _luaL_optnumber            1003bc60 f   lj_api.obj
 0001:0003acd0       _luaL_checknumber          1003bcd0 f   lj_api.obj
 0001:0003ad30       _luaL_checktype            1003bd30 f   lj_api.obj
 0001:0003ad60       _lua_gc                    1003bd60 f   lj_api.obj
 0001:0003ae80       _lua_newuserdata           1003be80 f   lj_api.obj
 0001:0003aef0       _lua_newthread             1003bef0 f   lj_api.obj
 0001:0003af40       _lua_createtable           1003bf40 f   lj_api.obj
 0001:0003afc0       _lua_pushcclosure          1003bfc0 f   lj_api.obj
 0001:0003b050       _lua_pushfstring           1003c050 f   lj_api.obj
 0001:0003b080       _lua_pushvfstring          1003c080 f   lj_api.obj
 0001:0003b0b0       _lua_pushstring            1003c0b0 f   lj_api.obj
 0001:0003b120       _lua_pushlstring           1003c120 f   lj_api.obj
 0001:0003b170       _luaL_optlstring           1003c170 f   lj_api.obj
 0001:0003b220       _luaL_checklstring         1003c220 f   lj_api.obj
 0001:0003b2a0       _lua_tolstring             1003c2a0 f   lj_api.obj
 0001:0003b320       _lua_concat                1003c320 f   lj_api.obj
 0001:0003b3c0       _luaL_checkoption          1003c3c0 f   lj_api.obj
 0001:0003b650       _lj_alloc_destroy          1003c650 f   lj_alloc.obj
 0001:0003b6e0       _lj_alloc_create           1003c6e0 f   lj_alloc.obj
 0001:0003cf00       _lj_alloc_f                1003df00 f   lj_alloc.obj
 0001:0003d810       _luaopen_table             1003e810 f   lib_table.obj
 0001:0003e950       _luaopen_string            1003f950 f   lib_string.obj
 0001:00040000       _luaopen_package           10041000 f   lib_package.obj
 0001:00040a20       _luaopen_os                10041a20 f   lib_os.obj
 0001:00040c70       @lj_math_random_step@4     10041c70 f   lib_math.obj
 0001:000410a0       _luaopen_math              100420a0 f   lib_math.obj
 0001:00042070       _luaopen_jit               10043070 f   lib_jit.obj
 0001:00042b60       _luaopen_io                10043b60 f   lib_io.obj
 0001:00043f30       _luaopen_ffi               10044f30 f   lib_ffi.obj
 0001:00045560       _luaopen_debug             10046560 f   lib_debug.obj
 0001:000458f0       @lj_ffh_coroutine_wrap_err@8 100468f0 f   lib_base.obj
 0001:00046750       _luaopen_base              10047750 f   lib_base.obj
 0001:00046980       _luaL_buffinit             10047980 f   lib_aux.obj
 0001:000469c0       _luaL_unref                100479c0 f   lib_aux.obj
 0001:00046a20       _luaL_ref                  10047a20 f   lib_aux.obj
 0001:00046b70       _luaL_findtable            10047b70 f   lib_aux.obj
 0001:00046c60       _luaL_fileresult           10047c60 f   lib_aux.obj
 0001:00046d00       _luaL_newstate             10047d00 f   lib_aux.obj
 0001:00046d30       _luaL_pushresult           10047d30 f   lib_aux.obj
 0001:00046dd0       _luaL_openlib              10047dd0 f   lib_aux.obj
 0001:00046f30       _luaL_execresult           10047f30 f   lib_aux.obj
 0001:00046fa0       _luaL_addvalue             10047fa0 f   lib_aux.obj
 0001:00047020       _luaL_prepbuffer           10048020 f   lib_aux.obj
 0001:00047040       _luaL_register             10048040 f   lib_aux.obj
 0001:00047060       _luaL_addlstring           10048060 f   lib_aux.obj
 0001:000470a0       _luaL_addstring            100480a0 f   lib_aux.obj
 0001:000470d0       _luaL_gsub                 100480d0 f   lib_aux.obj
 0001:00047aa0       _lj_opt_split              10048aa0 f   lj_opt_split.obj
 0001:00047bf0       _luaopen_bit               10048bf0 f   lib_bit.obj
 0001:00047c20       _luaL_openlibs             10048c20 f   lib_init.obj
 0001:00047cd0       __CItanh                   10048cd0 f   MSVCRT:MSVCR90.dll
 0001:00047cd6       __CIcosh                   10048cd6 f   MSVCRT:MSVCR90.dll
 0001:00047cdc       __CIsinh                   10048cdc f   MSVCRT:MSVCR90.dll
 0001:00047cf0       __allmul                   10048cf0 f   MSVCRT:llmul.obj
 0001:00047d30       __ftol2_sse                10048d30 f   MSVCRT:ftol2.obj
 0001:00047d39       __ftol2_pentium4           10048d39 f   MSVCRT:ftol2.obj
 0001:00047d4c       __ftol2_sse_excpt          10048d4c f   MSVCRT:ftol2.obj
 0001:00047d66       __ftol2                    10048d66 f   MSVCRT:ftol2.obj
 0001:00047de0       __allrem                   10048de0 f   MSVCRT:llrem.obj
 0001:00047ea0       __aullrem                  10048ea0 f   MSVCRT:ullrem.obj
 0001:00047f20       __alldiv                   10048f20 f   MSVCRT:lldiv.obj
 0001:00047fd0       __aulldiv                  10048fd0 f   MSVCRT:ulldiv.obj
 0001:00048040       __allshl                   10049040 f   MSVCRT:llshl.obj
 0001:00048060       __allshr                   10049060 f   MSVCRT:llshr.obj
 0001:00048090       __aullshr                  10049090 f   MSVCRT:ullshr.obj
 0001:000480b0       __aulldvrm                 100490b0 f   MSVCRT:ulldvrm.obj
 0001:00048146       _floor                     10049146 f   MSVCRT:MSVCR90.dll
 0001:0004819c       __get_sse2_info            1004919c f   MSVCRT:cpu_disp.obj
 0001:000481fe       ___sse2_available_init     100491fe f   MSVCRT:cpu_disp.obj
 0002:00000000       __imp__GetModuleHandleExA@12 1004a000     kernel32:KERNEL32.dll
 0002:00000004       __imp__FreeLibrary@4       1004a004     kernel32:KERNEL32.dll
 0002:00000008       __imp__FormatMessageA@28   1004a008     kernel32:KERNEL32.dll
 0002:0000000c       __imp__GetLastError@0      1004a00c     kernel32:KERNEL32.dll
 0002:00000010       __imp__GetProcAddress@8    1004a010     kernel32:KERNEL32.dll
 0002:00000014       __imp__LoadLibraryA@4      1004a014     kernel32:KERNEL32.dll
 0002:00000018       __imp__GetModuleFileNameA@12 1004a018     kernel32:KERNEL32.dll
 0002:0000001c       __imp__GetModuleHandleA@4  1004a01c     kernel32:KERNEL32.dll
 0002:00000020       __imp__VirtualQuery@12     1004a020     kernel32:KERNEL32.dll
 0002:00000024       __imp__VirtualFree@12      1004a024     kernel32:KERNEL32.dll
 0002:00000028       __imp__SetLastError@4      1004a028     kernel32:KERNEL32.dll
 0002:0000002c       __imp__VirtualAlloc@16     1004a02c     kernel32:KERNEL32.dll
 0002:00000030       __imp__VirtualProtect@16   1004a030     kernel32:KERNEL32.dll
 0002:00000034       __imp__SetUnhandledExceptionFilter@4 1004a034     kernel32:KERNEL32.dll
 0002:00000038       __imp__UnhandledExceptionFilter@4 1004a038     kernel32:KERNEL32.dll
 0002:0000003c       __imp__GetCurrentProcess@0 1004a03c     kernel32:KERNEL32.dll
 0002:00000040       __imp__TerminateProcess@8  1004a040     kernel32:KERNEL32.dll
 0002:00000044       __imp__GetSystemTimeAsFileTime@4 1004a044     kernel32:KERNEL32.dll
 0002:00000048       __imp__GetCurrentProcessId@0 1004a048     kernel32:KERNEL32.dll
 0002:0000004c       __imp__GetCurrentThreadId@0 1004a04c     kernel32:KERNEL32.dll
 0002:00000050       __imp__GetTickCount@0      1004a050     kernel32:KERNEL32.dll
 0002:00000054       __imp__QueryPerformanceCounter@4 1004a054     kernel32:KERNEL32.dll
 0002:00000058       __imp__DisableThreadLibraryCalls@4 1004a058     kernel32:KERNEL32.dll
 0002:0000005c       __imp__InterlockedCompareExchange@12 1004a05c     kernel32:KERNEL32.dll
 0002:00000060       __imp__Sleep@4             1004a060     kernel32:KERNEL32.dll
 0002:00000064       __imp__InterlockedExchange@8 1004a064     kernel32:KERNEL32.dll
 0002:00000068       __imp__IsDebuggerPresent@0 1004a068     kernel32:KERNEL32.dll
 0002:0000006c       \177KERNEL32_NULL_THUNK_DATA 1004a06c     kernel32:KERNEL32.dll
 0002:00000070       __imp___ftelli64           1004a070     MSVCRT:MSVCR90.dll
 0002:00000074       __imp___pclose             1004a074     MSVCRT:MSVCR90.dll
 0002:00000078       __imp__ungetc              1004a078     MSVCRT:MSVCR90.dll
 0002:0000007c       __imp___fseeki64           1004a07c     MSVCRT:MSVCR90.dll
 0002:00000080       __imp___popen              1004a080     MSVCRT:MSVCR90.dll
 0002:00000084       __imp__fopen               1004a084     MSVCRT:MSVCR90.dll
 0002:00000088       __imp__setvbuf             1004a088     MSVCRT:MSVCR90.dll
 0002:0000008c       __imp__fread               1004a08c     MSVCRT:MSVCR90.dll
 0002:00000090       __imp__fprintf             1004a090     MSVCRT:MSVCR90.dll
 0002:00000094       __imp__ferror              1004a094     MSVCRT:MSVCR90.dll
 0002:00000098       __imp__fclose              1004a098     MSVCRT:MSVCR90.dll
 0002:0000009c       __imp__getc                1004a09c     MSVCRT:MSVCR90.dll
 0002:000000a0       __imp__clearerr            1004a0a0     MSVCRT:MSVCR90.dll
 0002:000000a4       __imp__strncmp             1004a0a4     MSVCRT:MSVCR90.dll
 0002:000000a8       __imp__rename              1004a0a8     MSVCRT:MSVCR90.dll
 0002:000000ac       __imp___mktime64           1004a0ac     MSVCRT:MSVCR90.dll
 0002:000000b0       __imp___gmtime64           1004a0b0     MSVCRT:MSVCR90.dll
 0002:000000b4       __imp__tmpnam              1004a0b4     MSVCRT:MSVCR90.dll
 0002:000000b8       __imp__system              1004a0b8     MSVCRT:MSVCR90.dll
 0002:000000bc       __imp__remove              1004a0bc     MSVCRT:MSVCR90.dll
 0002:000000c0       __imp__clock               1004a0c0     MSVCRT:MSVCR90.dll
 0002:000000c4       __imp__strftime            1004a0c4     MSVCRT:MSVCR90.dll
 0002:000000c8       __imp__setlocale           1004a0c8     MSVCRT:MSVCR90.dll
 0002:000000cc       __imp___localtime64        1004a0cc     MSVCRT:MSVCR90.dll
 0002:000000d0       __imp__getenv              1004a0d0     MSVCRT:MSVCR90.dll
 0002:000000d4       __imp__tmpfile             1004a0d4     MSVCRT:MSVCR90.dll
 0002:000000d8       __imp___time64             1004a0d8     MSVCRT:MSVCR90.dll
 0002:000000dc       __imp__exit                1004a0dc     MSVCRT:MSVCR90.dll
 0002:000000e0       __imp__strrchr             1004a0e0     MSVCRT:MSVCR90.dll
 0002:000000e4       __imp__sprintf             1004a0e4     MSVCRT:MSVCR90.dll
 0002:000000e8       __imp__memchr              1004a0e8     MSVCRT:MSVCR90.dll
 0002:000000ec       __imp__strncpy             1004a0ec     MSVCRT:MSVCR90.dll
 0002:000000f0       __imp__strpbrk             1004a0f0     MSVCRT:MSVCR90.dll
 0002:000000f4       __imp__memmove             1004a0f4     MSVCRT:MSVCR90.dll
 0002:000000f8       __imp___fmode              1004a0f8     MSVCRT:MSVCR90.dll
 0002:000000fc       __imp__memcpy              1004a0fc     MSVCRT:MSVCR90.dll
 0002:00000100       __imp__strlen              1004a100     MSVCRT:MSVCR90.dll
 0002:00000104       __imp__tanh                1004a104     MSVCRT:MSVCR90.dll
 0002:00000108       __imp__sinh                1004a108     MSVCRT:MSVCR90.dll
 0002:0000010c       __imp__memset              1004a10c     MSVCRT:MSVCR90.dll
 0002:00000110       __imp__cosh                1004a110     MSVCRT:MSVCR90.dll
 0002:00000114       __imp__feof                1004a114     MSVCRT:MSVCR90.dll
 0002:00000118       __imp__ldexp               1004a118     MSVCRT:MSVCR90.dll
 0002:0000011c       __imp__putc                1004a11c     MSVCRT:MSVCR90.dll
 0002:00000120       __imp___isatty             1004a120     MSVCRT:MSVCR90.dll
 0002:00000124       __imp__signal              1004a124     MSVCRT:MSVCR90.dll
 0002:00000128       __imp___fileno             1004a128     MSVCRT:MSVCR90.dll
 0002:0000012c       __imp___encode_pointer     1004a12c     MSVCRT:MSVCR90.dll
 0002:00000130       __imp___malloc_crt         1004a130     MSVCRT:MSVCR90.dll
 0002:00000134       __imp__free                1004a134     MSVCRT:MSVCR90.dll
 0002:00000138       __imp___encoded_null       1004a138     MSVCRT:MSVCR90.dll
 0002:0000013c       __imp___decode_pointer     1004a13c     MSVCRT:MSVCR90.dll
 0002:00000140       __imp___initterm           1004a140     MSVCRT:MSVCR90.dll
 0002:00000144       __imp___initterm_e         1004a144     MSVCRT:MSVCR90.dll
 0002:00000148       __imp___amsg_exit          1004a148     MSVCRT:MSVCR90.dll
 0002:0000014c       __imp___adjust_fdiv        1004a14c     MSVCRT:MSVCR90.dll
 0002:00000150       __imp____CppXcptFilter     1004a150     MSVCRT:MSVCR90.dll
 0002:00000154       __imp____clean_type_info_names_internal 1004a154     MSVCRT:MSVCR90.dll
 0002:00000158       __imp___unlock             1004a158     MSVCRT:MSVCR90.dll
 0002:0000015c       __imp____dllonexit         1004a15c     MSVCRT:MSVCR90.dll
 0002:00000160       __imp___lock               1004a160     MSVCRT:MSVCR90.dll
 0002:00000164       __imp___onexit             1004a164     MSVCRT:MSVCR90.dll
 0002:00000168       __imp___except_handler4_common 1004a168     MSVCRT:MSVCR90.dll
 0002:0000016c       __imp___crt_debugger_hook  1004a16c     MSVCRT:MSVCR90.dll
 0002:00000170       __imp__fscanf              1004a170     MSVCRT:MSVCR90.dll
 0002:00000174       __imp__fgets               1004a174     MSVCRT:MSVCR90.dll
 0002:00000178       __imp__strtoul             1004a178     MSVCRT:MSVCR90.dll
 0002:0000017c       __imp__putchar             1004a17c     MSVCRT:MSVCR90.dll
 0002:00000180       __imp__fwrite              1004a180     MSVCRT:MSVCR90.dll
 0002:00000184       __imp___errno              1004a184     MSVCRT:MSVCR90.dll
 0002:00000188       __imp__fflush              1004a188     MSVCRT:MSVCR90.dll
 0002:0000018c       __imp__strchr              1004a18c     MSVCRT:MSVCR90.dll
 0002:00000190       __imp____iob_func          1004a190     MSVCRT:MSVCR90.dll
 0002:00000194       __imp__strstr              1004a194     MSVCRT:MSVCR90.dll
 0002:00000198       __imp__fputs               1004a198     MSVCRT:MSVCR90.dll
 0002:0000019c       __imp__strerror            1004a19c     MSVCRT:MSVCR90.dll
 0002:000001a0       __imp__fputc               1004a1a0     MSVCRT:MSVCR90.dll
 0002:000001a4       __imp___difftime64         1004a1a4     MSVCRT:MSVCR90.dll
 0002:000001a8       __imp___CItanh             1004a1a8     MSVCRT:MSVCR90.dll
 0002:000001ac       __imp___CIcosh             1004a1ac     MSVCRT:MSVCR90.dll
 0002:000001b0       __imp___CIsinh             1004a1b0     MSVCRT:MSVCR90.dll
 0002:000001b4       __imp__floor               1004a1b4     MSVCRT:MSVCR90.dll
 0002:000001b8       \177MSVCR90_NULL_THUNK_DATA 1004a1b8     MSVCRT:MSVCR90.dll
 0002:000001bc       ___xc_a                    1004a1bc     MSVCRT:cinitexe.obj
 0002:000001c0       ___xc_z                    1004a1c0     MSVCRT:cinitexe.obj
 0002:000001c4       ___xi_a                    1004a1c4     MSVCRT:cinitexe.obj
 0002:000001d0       ___xi_z                    1004a1d0     MSVCRT:cinitexe.obj
 0002:000001d8       __pDefaultRawDllMain       1004a1d8     MSVCRT:crtdll.obj
 0002:000001d8       __pRawDllMain              1004a1d8     MSVCRT:crtdll.obj
 0002:000001e4       ??_C@_06DJHOIPC@?$CFs?3?5?$CFs?$AA@ 1004a1e4     lib_aux.obj
 0002:000001ec       ??_C@_02DKCKIIND@?$CFs?$AA@ 1004a1ec     lib_aux.obj
 0002:000001f0       ??_C@_04MKNBDEPB@exit?$AA@ 1004a1f0     lib_aux.obj
 0002:000001f8       ??_C@_07PINPBNPB@_LOADED?$AA@ 1004a1f8     lib_aux.obj
 0002:00000200       ??_C@_0CO@HELBHHNG@PANIC?3?5unprotected?5error?5in?5call@ 1004a200     lib_aux.obj
 0002:00000230       ??_C@_01OGPIMHDM@?$DP?$AA@ 1004a230     lib_aux.obj
 0002:00000234       ??_C@_0BF@EJGIIJDH@function?3?5builtin?$CD?$CFd?$AA@ 1004a234     lib_base.obj
 0002:0000024c       ??_C@_06CILKLLDB@?$CFs?3?5?$CFp?$AA@ 1004a24c     lib_base.obj
 0002:00000254       ??_C@_0BK@NJPFPDBN@too?5many?5nested?5functions?$AA@ 1004a254     lib_base.obj
 0002:00000270       ??_C@_07JEBBFCAN@?$DN?$CIload?$CJ?$AA@ 1004a270     lib_base.obj
 0002:00000278       ??_C@_0DH@OPFAKCB@?$AEstop?$AHrestart?$AHcollect?$AFcount?$AB?$PP?$AEst@ 1004a278     lib_base.obj
 0002:00001358       _lj_obj_typename           1004b358     lj_obj.obj
 0002:00001388       _lj_obj_itypename          1004b388     lj_obj.obj
 0002:00001448       _lj_ir_mode                1004b448     lj_ir.obj
 0002:000014a8       _lj_ir_type_size           1004b4a8     lj_ir.obj
 0002:000014c8       _lj_ir_callinfo            1004b4c8     lj_ir.obj
 0002:00001a28       _lj_char_bits              1004ba28     lj_char.obj
 0002:00001b30       _lj_bc_ofs                 1004bb30     lj_bc.obj
 0002:00001c68       _lj_bc_mode                1004bc68     lj_bc.obj
 0002:0000282c       ??_C@_07PANPENDC@running?$AA@ 1004c82c     lib_base.obj
 0002:00002834       ??_C@_09PAHKPJCJ@suspended?$AA@ 1004c834     lib_base.obj
 0002:00002840       ??_C@_04BBBDNBOK@dead?$AA@ 1004c840     lib_base.obj
 0002:00002848       ??_C@_06IKLLLDHL@normal?$AA@ 1004c848     lib_base.obj
 0002:00002850       ??_C@_02DNFJNMFM@kv?$AA@   1004c850     lib_base.obj
 0002:00002854       ??_C@_06BPGFKLEK@__mode?$AA@ 1004c854     lib_base.obj
 0002:0000285c       ??_C@_02NIGGJGKC@_G?$AA@   1004c85c     lib_base.obj
 0002:00002860       ??_C@_07GLKNJPII@Lua?55?41?$AA@ 1004c860     lib_base.obj
 0002:00002868       ??_C@_09HNKENHFC@coroutine?$AA@ 1004c868     lib_base.obj
 0002:00002874       ??_C@_0BB@JCEFLFJE@0123456789abcdef?$AA@ 1004c874     lib_bit.obj
 0002:00002888       ??_C@_0BB@JGGOGLEG@0123456789ABCDEF?$AA@ 1004c888     lib_bit.obj
 0002:0000289c       ??_C@_03EDMBFDDG@bit?$AA@  1004c89c     lib_bit.obj
 0002:000028a0       ??_C@_0M@IDJJEGOC@tail?5return?$AA@ 1004c8a0     lib_debug.obj
 0002:000028ac       ??_C@_05IOMEMJEC@count?$AA@ 1004c8ac     lib_debug.obj
 0002:000028b4       ??_C@_04HJPCFDOP@line?$AA@ 1004c8b4     lib_debug.obj
 0002:000028bc       ??_C@_06LNOFJDNM@return?$AA@ 1004c8bc     lib_debug.obj
 0002:000028c4       ??_C@_04OMFAIDPG@call?$AA@ 1004c8c4     lib_debug.obj
 0002:000028cc       ??_C@_05CLBJLFDN@flnSu?$AA@ 1004c8cc     lib_debug.obj
 0002:000028d4       ??_C@_03PENLABEP@?$DO?$CFs?$AA@ 1004c8d4     lib_debug.obj
 0002:000028d8       ??_C@_06OEKOLKIL@source?$AA@ 1004c8d8     lib_debug.obj
 0002:000028e0       ??_C@_09NOFDGFFO@short_src?$AA@ 1004c8e0     lib_debug.obj
 0002:000028ec       ??_C@_0M@IOFFDKM@linedefined?$AA@ 1004c8ec     lib_debug.obj
 0002:000028f8       ??_C@_0BA@BGGOJOFO@lastlinedefined?$AA@ 1004c8f8     lib_debug.obj
 0002:00002908       ??_C@_04IOPLPGDE@what?$AA@ 1004c908     lib_debug.obj
 0002:00002910       ??_C@_0M@OLGEEKJC@currentline?$AA@ 1004c910     lib_debug.obj
 0002:0000291c       ??_C@_04BDNNNDAF@nups?$AA@ 1004c91c     lib_debug.obj
 0002:00002924       ??_C@_07DEOJMPEE@nparams?$AA@ 1004c924     lib_debug.obj
 0002:0000292c       ??_C@_08PKLIBBKE@isvararg?$AA@ 1004c92c     lib_debug.obj
 0002:00002938       ??_C@_04MEMAJGDJ@name?$AA@ 1004c938     lib_debug.obj
 0002:00002940       ??_C@_08JEGIFMFI@namewhat?$AA@ 1004c940     lib_debug.obj
 0002:0000294c       ??_C@_0M@DINLHJFF@activelines?$AA@ 1004c94c     lib_debug.obj
 0002:00002958       ??_C@_04HPNHAEOP@func?$AA@ 1004c958     lib_debug.obj
 0002:00002960       ??_C@_0O@POGBCBNN@external?5hook?$AA@ 1004c960     lib_debug.obj
 0002:00002970       ??_C@_0M@FBGICICO@lua_debug?$DO?5?$AA@ 1004c970     lib_debug.obj
 0002:0000297c       ??_C@_05KJNBGLAC@cont?6?$AA@ 1004c97c     lib_debug.obj
 0002:00002984       ??_C@_0BB@BLKFCGLG@?$DN?$CIdebug?5command?$CJ?$AA@ 1004c984     lib_debug.obj
 0002:00002998       ??_C@_01EEMJAFIK@?6?$AA@   1004c998     lib_debug.obj
 0002:0000299c       ??_C@_05GFCDIDHO@debug?$AA@ 1004c99c     lib_debug.obj
 0002:000029a4       ??_C@_06EGMCBEPI@C?5type?$AA@ 1004c9a4     lib_ffi.obj
 0002:000029ac       ??_C@_0O@BDOCPDCB@cdata?$DM?$CFs?$DO?3?5?$CFp?$AA@ 1004c9ac     lib_ffi.obj
 0002:000029bc       ??_C@_09GIOLLJKF@ctype?$DM?$CFs?$DO?$AA@ 1004c9bc     lib_ffi.obj
 0002:000029c8       ??_C@_0O@DNEMCEHE@cdata?$DM?$CFs?$DO?3?5?$CFd?$AA@ 1004c9c8     lib_ffi.obj
 0002:000029d8       ??_C@_01KNKLHLMO@K?$AA@    1004c9d8     lib_ffi.obj
 0002:000029dc       ??_C@_03DIJDOPEA@ffi?$AA@  1004c9dc     lib_ffi.obj
 0002:000029e0       ??_C@_07LDLFNPGN@Windows?$AA@ 1004c9e0     lib_ffi.obj
 0002:000029e8       ??_C@_03NDFEINMN@x86?$AA@  1004c9e8     lib_ffi.obj
 0002:000029ec       ??_C@_03IGHFHLNJ@jit?$AA@  1004c9ec     lib_init.obj
 0002:000029f0       ??_C@_04CFDJAKFL@math?$AA@ 1004c9f0     lib_init.obj
 0002:000029f8       ??_C@_06ICGJLFIM@string?$AA@ 1004c9f8     lib_init.obj
 0002:00002a00       ??_C@_02EHCHIAMF@os?$AA@   1004ca00     lib_init.obj
 0002:00002a04       ??_C@_02KFNNKBCK@io?$AA@   1004ca04     lib_init.obj
 0002:00002a08       ??_C@_05LCLENNFI@table?$AA@ 1004ca08     lib_init.obj
 0002:00002a10       ??_C@_07KNEGBPNO@package?$AA@ 1004ca10     lib_init.obj
 0002:00002a18       ??_C@_00CNPNBAHC@?$AA@     1004ca18     lib_init.obj
 0002:00002a1c       ??_C@_08LBNNGFKE@_PRELOAD?$AA@ 1004ca1c     lib_init.obj
 0002:00002a28       ??_C@_05KCHOJJD@FILE?$CK?$AA@ 1004ca28     lib_io.obj
 0002:00002a30       ??_C@_0BL@PEFGCPAG@cannot?5close?5standard?5file?$AA@ 1004ca30     lib_io.obj
 0002:00002a4c       ??_C@_03DLDNIBIK@?$CFlf?$AA@ 1004ca4c     lib_io.obj
 0002:00002a50       ??_C@_0BD@IOJAAODF@too?5many?5arguments?$AA@ 1004ca50     lib_io.obj
 0002:00002a64       ??_C@_05CGOEHEFE@?$CF?414g?$AA@ 1004ca64     lib_io.obj
 0002:00002a6c       ??_C@_0N@FHGHGEJM@?$ADset?$ADcur?$ADend?$AA@ 1004ca6c     lib_io.obj
 0002:00002a7c       ??_C@_0O@BJINDIFF@?$AEfull?$AEline?$ACno?$AA@ 1004ca7c     lib_io.obj
 0002:00002a8c       ??_C@_09BPMAMLLD@file?5?$CI?$CFp?$CJ?$AA@ 1004ca8c     lib_io.obj
 0002:00002a98       ??_C@_0O@PLFAPHPG@file?5?$CIclosed?$CJ?$AA@ 1004ca98     lib_io.obj
 0002:00002aa8       ??_C@_01KDCPPGHE@r?$AA@    1004caa8     lib_io.obj
 0002:00002aac       ??_C@_01NOFIACDB@w?$AA@    1004caac     lib_io.obj
 0002:00002ab0       ??_C@_04DAMGJPCA@file?$AA@ 1004cab0     lib_io.obj
 0002:00002ab8       ??_C@_0M@IBKPHHKH@closed?5file?$AA@ 1004cab8     lib_io.obj
 0002:00002ac4       ??_C@_05MHOFLBOO@stdin?$AA@ 1004cac4     lib_io.obj
 0002:00002acc       ??_C@_06DJDOIFHB@stdout?$AA@ 1004cacc     lib_io.obj
 0002:00002ad4       ??_C@_06FJGNEBG@stderr?$AA@ 1004cad4     lib_io.obj
 0002:00002adc       ??_C@_0M@HIEIAEHL@interpreter?$AA@ 1004cadc     lib_jit.obj
 0002:00002ae8       ??_C@_0P@HDPEGNKP@down?9recursion?$AA@ 1004cae8     lib_jit.obj
 0002:00002af8       ??_C@_0N@DMCNLIDM@up?9recursion?$AA@ 1004caf8     lib_jit.obj
 0002:00002b08       ??_C@_0P@FONHJDJF@tail?9recursion?$AA@ 1004cb08     lib_jit.obj
 0002:00002b18       ??_C@_04GKOOIABA@loop?$AA@ 1004cb18     lib_jit.obj
 0002:00002b20       ??_C@_04NBFCGMPH@root?$AA@ 1004cb20     lib_jit.obj
 0002:00002b28       ??_C@_04CGFJFPFD@none?$AA@ 1004cb28     lib_jit.obj
 0002:00002b30       ??_C@_0CG@JFFGFDHL@?$AECMOV?$AESSE2?$AESSE3?$AGSSE4?41?$ACP4?$ADAMD?$ACK8@ 1004cb30     lib_jit.obj
 0002:00002b58       ??_C@_0DA@IJMCEEPM@?$AEfold?$ADcse?$ADdce?$ADfwd?$ADdse?$AGnarrow?$AEloo@ 1004cb58     lib_jit.obj
 0002:00002b88       ??_C@_09DKKFGEHE@_VMEVENTS?$AA@ 1004cb88     lib_jit.obj
 0002:00002b94       ??_C@_0L@HFAMJNGM@stackslots?$AA@ 1004cb94     lib_jit.obj
 0002:00002ba0       ??_C@_06JMGHNNK@params?$AA@ 1004cba0     lib_jit.obj
 0002:00002ba8       ??_C@_09PLLBEKA@bytecodes?$AA@ 1004cba8     lib_jit.obj
 0002:00002bb4       ??_C@_08DEAOGHHE@gcconsts?$AA@ 1004cbb4     lib_jit.obj
 0002:00002bc0       ??_C@_07BECCFFAP@nconsts?$AA@ 1004cbc0     lib_jit.obj
 0002:00002bc8       ??_C@_08JKPCMKJ@upvalues?$AA@ 1004cbc8     lib_jit.obj
 0002:00002bd4       ??_C@_08GOINNFB@children?$AA@ 1004cbd4     lib_jit.obj
 0002:00002be0       ??_C@_03KCBANMCB@loc?$AA@  1004cbe0     lib_jit.obj
 0002:00002be4       ??_C@_04HHHFHMNM@ffid?$AA@ 1004cbe4     lib_jit.obj
 0002:00002bec       ??_C@_04HLBMEOMD@addr?$AA@ 1004cbec     lib_jit.obj
 0002:00002bf4       ??_C@_04BPKKLFFI@nins?$AA@ 1004cbf4     lib_jit.obj
 0002:00002bfc       ??_C@_02MEPOHCKL@nk?$AA@   1004cbfc     lib_jit.obj
 0002:00002c00       ??_C@_04OHHBHOGB@link?$AA@ 1004cc00     lib_jit.obj
 0002:00002c08       ??_C@_05IPMPAMGF@nexit?$AA@ 1004cc08     lib_jit.obj
 0002:00002c10       ??_C@_08IDKBLEPL@linktype?$AA@ 1004cc10     lib_jit.obj
 0002:00002c20       ??_C@_0IF@MKHEFFIN@?$AImaxtrace?7maxrecord?6maxirconst?$AHm@ 1004cc20     lib_jit.obj
 0002:00002ca8       ??_C@_0BC@EBDKMNHC@CPU?5not?5supported?$AA@ 1004cca8     lib_jit.obj
 0002:00002cbc       ??_C@_0N@CMJBGLJO@LuaJIT?52?40?41?$AA@ 1004ccbc     lib_jit.obj
 0002:00002ccc       ??_C@_08GBLPEHPF@jit?4util?$AA@ 1004cccc     lib_jit.obj
 0002:00002cd8       ??_C@_07FHHNHIJG@jit?4opt?$AA@ 1004ccd8     lib_jit.obj
 0002:00002ce0       ??_C@_04KEPJIHGP@fmod?$AA@ 1004cce0     lib_math.obj
 0002:00002ce8       ??_C@_03FFONCNID@mod?$AA@  1004cce8     lib_math.obj
 0002:00002cec       ??_C@_02HAOIJKIC@?$CFc?$AA@ 1004ccec     lib_os.obj
 0002:00002cf0       ??_C@_02HODHFJCJ@?$CKt?$AA@ 1004ccf0     lib_os.obj
 0002:00002cf4       ??_C@_03KHPNBODO@sec?$AA@  1004ccf4     lib_os.obj
 0002:00002cf8       ??_C@_03KLIPLJLL@min?$AA@  1004ccf8     lib_os.obj
 0002:00002cfc       ??_C@_04LMOJGCPE@hour?$AA@ 1004ccfc     lib_os.obj
 0002:00002d04       ??_C@_03NNBHCDBP@day?$AA@  1004cd04     lib_os.obj
 0002:00002d08       ??_C@_05MEBAADFH@month?$AA@ 1004cd08     lib_os.obj
 0002:00002d10       ??_C@_04JFPLDHAO@year?$AA@ 1004cd10     lib_os.obj
 0002:00002d18       ??_C@_04HBIDDHMB@wday?$AA@ 1004cd18     lib_os.obj
 0002:00002d20       ??_C@_04MOLDIJKA@yday?$AA@ 1004cd20     lib_os.obj
 0002:00002d28       ??_C@_05HGBEJAHO@isdst?$AA@ 1004cd28     lib_os.obj
 0002:00002d30       ??_C@_0CL@PFAPFEGP@?$AFctype?$AHnumeric?$AEtime?$AHcollate?$AImone@ 1004cd30     lib_os.obj
 0002:00002d5c       ??_C@_07FFLLPPLH@require?$AA@ 1004cd5c     lib_package.obj
 0002:00002d64       ??_C@_06BIEEJMKO@module?$AA@ 1004cd64     lib_package.obj
 0002:00002d6c       ??_C@_06LNOHAKGK@seeall?$AA@ 1004cd6c     lib_package.obj
 0002:00002d74       ??_C@_0L@LLHGDMBK@searchpath?$AA@ 1004cd74     lib_package.obj
 0002:00002d80       ??_C@_07KOEABFCN@loadlib?$AA@ 1004cd80     lib_package.obj
 0002:00002d88       ??_C@_0BN@GMPFCLAN@unable?5to?5get?5ModuleFileName?$AA@ 1004cd88     lib_package.obj
 0002:00002da8       ??_C@_01DCLJPIOD@?$CB?$AA@ 1004cda8     lib_package.obj
 0002:00002dac       ??_C@_0BB@BLJKPILH@system?5error?5?$CFd?6?$AA@ 1004cdac     lib_package.obj
 0002:00002dc0       ??_C@_0M@JKPDPNBF@LOADLIB?3?5?$CFs?$AA@ 1004cdc0     lib_package.obj
 0002:00002dcc       ??_C@_08HNNNOMMJ@_LOADLIB?$AA@ 1004cdcc     lib_package.obj
 0002:00002dd8       ??_C@_01JOAMLHOP@?9?$AA@   1004cdd8     lib_package.obj
 0002:00002ddc       ??_C@_01IDAFKMJL@_?$AA@    1004cddc     lib_package.obj
 0002:00002de0       ??_C@_01LFCBOECM@?4?$AA@   1004cde0     lib_package.obj
 0002:00002de4       ??_C@_0L@KHKMBFOE@luaopen_?$CFs?$AA@ 1004cde4     lib_package.obj
 0002:00002df0       ??_C@_0N@ECBABLKH@luaJIT_BC_?$CFs?$AA@ 1004cdf0     lib_package.obj
 0002:00002e00       ??_C@_04PMOCAHAA@open?$AA@ 1004ce00     lib_package.obj
 0002:00002e08       ??_C@_04HKFDNBLD@init?$AA@ 1004ce08     lib_package.obj
 0002:00002e10       ??_C@_0P@NEBKIMDC@?6?7no?5file?5?8?$CFs?8?$AA@ 1004ce10     lib_package.obj
 0002:00002e20       ??_C@_01KICIPPFI@?2?$AA@   1004ce20     lib_package.obj
 0002:00002e24       ??_C@_0BO@COFCKCAL@?8package?4?$CFs?8?5must?5be?5a?5string?$AA@ 1004ce24     lib_package.obj
 0002:00002e44       ??_C@_0CO@KHMIPLKM@error?5loading?5module?5?8?$CFs?8?5from?5f@ 1004ce44     lib_package.obj
 0002:00002e74       ??_C@_04LNEJFJGI@path?$AA@ 1004ce74     lib_package.obj
 0002:00002e7c       ??_C@_05EEMJHCCC@cpath?$AA@ 1004ce7c     lib_package.obj
 0002:00002e84       ??_C@_0BO@KOILFIGK@?6?7no?5module?5?8?$CFs?8?5in?5file?5?8?$CFs?8?$AA@ 1004ce84     lib_package.obj
 0002:00002ea4       ??_C@_07GCEAJMEA@preload?$AA@ 1004cea4     lib_package.obj
 0002:00002eac       ??_C@_0CC@CCJHFBLH@?8package?4preload?8?5must?5be?5a?5tabl@ 1004ceac     lib_package.obj
 0002:00002ed0       ??_C@_0CB@NPNABMBF@?6?7no?5field?5package?4preload?$FL?8?$CFs?8?$FN@ 1004ced0     lib_package.obj
 0002:00002ef4       ??_C@_0CL@DIEJCPFH@loop?5or?5previous?5error?5loading?5m@ 1004cef4     lib_package.obj
 0002:00002f20       ??_C@_07JAOCDFCG@loaders?$AA@ 1004cf20     lib_package.obj
 0002:00002f28       ??_C@_0CC@IGEJMOFI@?8package?4loaders?8?5must?5be?5a?5tabl@ 1004cf28     lib_package.obj
 0002:00002f4c       ??_C@_0BJ@HFHHABH@module?5?8?$CFs?8?5not?5found?3?$CFs?$AA@ 1004cf4c     lib_package.obj
 0002:00002f68       ??_C@_01INIBCBCB@f?$AA@    1004cf68     lib_package.obj
 0002:00002f6c       ??_C@_0CI@GKOMOAFD@?8module?8?5not?5called?5from?5a?5Lua?5f@ 1004cf6c     lib_package.obj
 0002:00002f94       ??_C@_02CCIJHOCI@_M?$AA@   1004cf94     lib_package.obj
 0002:00002f98       ??_C@_05ICMCJINN@_NAME?$AA@ 1004cf98     lib_package.obj
 0002:00002fa0       ??_C@_08HONLOGDK@_PACKAGE?$AA@ 1004cfa0     lib_package.obj
 0002:00002fac       ??_C@_07NHABFFHN@__index?$AA@ 1004cfac     lib_package.obj
 0002:00002fb4       ??_C@_03MEOBNKEM@?$DL?$AB?$DL?$AA@ 1004cfb4     lib_package.obj
 0002:00002fb8       ??_C@_02BEDCMDKE@?$DL?$DL?$AA@ 1004cfb8     lib_package.obj
 0002:00002fbc       ??_C@_01KHDNNMEB@?$AB?$AA@ 1004cfbc     lib_package.obj
 0002:00002fc0       ??_C@_04BDLIKKMN@__gc?$AA@ 1004cfc0     lib_package.obj
 0002:00002fc8       ??_C@_09EFECHJCA@LUA_NOENV?$AA@ 1004cfc8     lib_package.obj
 0002:00002fd4       ??_C@_0CG@EEHPGGLI@?4?2?$DP?4lua?$DL?$CB?2lua?2?$DP?4lua?$DL?$CB?2lua?2?$DP?2init@ 1004cfd4     lib_package.obj
 0002:00002ffc       ??_C@_08GLJMJBPN@LUA_PATH?$AA@ 1004cffc     lib_package.obj
 0002:00003008       ??_C@_0BO@DBNDCFPP@?4?2?$DP?4dll?$DL?$CB?2?$DP?4dll?$DL?$CB?2loadall?4dll?$AA@ 1004d008     lib_package.obj
 0002:00003028       ??_C@_09FBPOOEID@LUA_CPATH?$AA@ 1004d028     lib_package.obj
 0002:00003034       ??_C@_09NMALNBAP@?2?6?$DL?6?$DP?6?$CB?6?9?$AA@ 1004d034     lib_package.obj
 0002:00003040       ??_C@_06HEJKKHEK@config?$AA@ 1004d040     lib_package.obj
 0002:00003048       ??_C@_06IILMCCFO@loaded?$AA@ 1004d048     lib_package.obj
 0002:00003050       ??_C@_0BC@IMEAEJPD@too?5many?5captures?$AA@ 1004d050     lib_string.obj
 0002:00003064       ??_C@_0L@NLFJOONJ@?$FO$?$CK?$CL?$DP?4?$CI?$FL?$CF?9?$AA@ 1004d064     lib_string.obj
 0002:00003070       ??_C@_05GGBDHNF@?9?$CL?5?$CD0?$AA@ 1004d070     lib_string.obj
 0002:00003078       ??_C@_03ILAMHENH@nil?$AA@  1004d078     lib_string.obj
 0002:0000307c       ??_C@_05LAPONLG@false?$AA@ 1004d07c     lib_string.obj
 0002:00003084       ??_C@_04LOAJBDKD@true?$AA@ 1004d084     lib_string.obj
 0002:0000308c       ??_C@_02BBAHNLBA@?$CFp?$AA@ 1004d08c     lib_string.obj
 0002:00003090       ??_C@_06DPFCLDIO@gmatch?$AA@ 1004d090     lib_string.obj
 0002:00003098       ??_C@_05EIEIBDFD@gfind?$AA@ 1004d098     lib_string.obj
 0002:000030a0       ??_C@_08OEMDPBOO@?$CIbinary?$CJ?$AA@ 1004d0a0     lj_bcread.obj
 0002:000030ac       ??_C@_06DAJAKOAL@?$CFs?4dll?$AA@ 1004d0ac     lj_clib.obj
 0002:000030b4       ??_C@_0BM@EBGDLOEH@cannot?5load?5module?5?8?$CFs?8?3?5?$CFs?$AA@ 1004d0b4     lj_clib.obj
 0002:000030d0       ??_C@_0N@MDJJJHMB@kernel32?4dll?$AA@ 1004d0d0     lj_clib.obj
 0002:000030e0       ??_C@_0L@GMPLCCII@user32?4dll?$AA@ 1004d0e0     lj_clib.obj
 0002:000030ec       ??_C@_09HDGMBNAP@gdi32?4dll?$AA@ 1004d0ec     lj_clib.obj
 0002:000030f8       ??_C@_06GLIICJPH@?$EA?$CFs?$EA?$CFd?$AA@ 1004d0f8     lj_clib.obj
 0002:00003100       ??_C@_06PKBOMFNA@_?$CFs?$EA?$CFd?$AA@ 1004d100     lj_clib.obj
 0002:00003108       ??_C@_0BP@KHDJPILA@cannot?5resolve?5symbol?5?8?$CFs?8?3?5?$CFs?$AA@ 1004d108     lj_clib.obj
 0002:00003128       ??_C@_02HBOOOICD@?9?$DO?$AA@ 1004d128     lj_cparse.obj
 0002:0000312c       ??_C@_02GPIOPFAK@?$DO?$DO?$AA@ 1004d12c     lj_cparse.obj
 0002:00003130       ??_C@_02FODMEDOG@?$DM?$DM?$AA@ 1004d130     lj_cparse.obj
 0002:00003134       ??_C@_02EEKDKGMJ@?$DO?$DN?$AA@ 1004d134     lj_cparse.obj
 0002:00003138       ??_C@_02EHCHHCKH@?$DM?$DN?$AA@ 1004d138     lj_cparse.obj
 0002:0000313c       ??_C@_02FDNJECIE@?$CB?$DN?$AA@ 1004d13c     lj_cparse.obj
 0002:00003140       ??_C@_02EGOFBIJA@?$DN?$DN?$AA@ 1004d140     lj_cparse.obj
 0002:00003144       ??_C@_02PPKAJPJL@?$CG?$CG?$AA@ 1004d144     lj_cparse.obj
 0002:00003148       ??_C@_02NONPIBCD@?$HM?$HM?$AA@ 1004d148     lj_cparse.obj
 0002:0000314c       ??_C@_05CINCKAN@?$DMeof?$DO?$AA@ 1004d14c     lj_cparse.obj
 0002:00003154       ??_C@_09CKFPBBLH@?$DMinteger?$DO?$AA@ 1004d154     lj_cparse.obj
 0002:00003160       ??_C@_08OOGHEFMC@?$DMstring?$DO?$AA@ 1004d160     lj_cparse.obj
 0002:0000316c       ??_C@_0N@PNCCAENN@?$DMidentifier?$DO?$AA@ 1004d16c     lj_cparse.obj
 0002:0000317c       ??_C@_08HJPIMBHL@char?$CI?$CFd?$CJ?$AA@ 1004d17c     lj_cparse.obj
 0002:00003188       ??_C@_0O@PBOGBKMF@?$CFs?5at?5line?5?$CFd?$AA@ 1004d188     lj_cparse.obj
 0002:00003198       ??_C@_0P@EALJOHJH@type?5parameter?$AA@ 1004d198     lj_cparse.obj
 0002:000031a8       ??_C@_04HDOCAJNK@?$CFs?$CFs?$AA@ 1004d1a8     lj_cparse.obj
 0002:000031b0       ??_C@_0CHI@JDODJJBH@va_list?$AA__builtin_va_list?$AA__gnuc@ 1004d1b0     lj_ctype.obj
 0002:00003428       ??_C@_08PABEKFH@volatile?$AA@ 1004d428     lj_ctype.obj
 0002:00003434       ??_C@_05BNCCCJPP@const?$AA@ 1004d434     lj_ctype.obj
 0002:0000343c       ??_C@_04DDKJGDCM@bool?$AA@ 1004d43c     lj_ctype.obj
 0002:00003444       ??_C@_06BNJCAIGJ@double?$AA@ 1004d444     lj_ctype.obj
 0002:0000344c       ??_C@_05KNFBNCOH@float?$AA@ 1004d44c     lj_ctype.obj
 0002:00003454       ??_C@_0M@BLAFOIPH@long?5double?$AA@ 1004d454     lj_ctype.obj
 0002:00003460       ??_C@_04ENMBGAPA@char?$AA@ 1004d460     lj_ctype.obj
 0002:00003468       ??_C@_0O@PPAIJIHF@unsigned?5char?$AA@ 1004d468     lj_ctype.obj
 0002:00003478       ??_C@_03JBIPMCLC@int?$AA@  1004d478     lj_ctype.obj
 0002:0000347c       ??_C@_05BFKKPKCG@short?$AA@ 1004d47c     lj_ctype.obj
 0002:00003484       ??_C@_08CLLOMHGD@unsigned?$AA@ 1004d484     lj_ctype.obj
 0002:00003490       ??_C@_02CMANPDJC@_t?$AA@   1004d490     lj_ctype.obj
 0002:00003494       ??_C@_04GKJNKENE@void?$AA@ 1004d494     lj_ctype.obj
 0002:0000349c       ??_C@_05MNALHJLP@union?$AA@ 1004d49c     lj_ctype.obj
 0002:000034a4       ??_C@_06PBJBIPGK@struct?$AA@ 1004d4a4     lj_ctype.obj
 0002:000034ac       ??_C@_05JGEDHNAD@ctype?$AA@ 1004d4ac     lj_ctype.obj
 0002:000034b4       ??_C@_04DBJPMPLO@enum?$AA@ 1004d4b4     lj_ctype.obj
 0002:000034bc       ??_C@_07CMPFPFAH@complex?$AA@ 1004d4bc     lj_ctype.obj
 0002:000034c4       ??_C@_03HAFLCCND@?$CJ?$CJ?$CJ?$AA@ 1004d4c4     lj_ctype.obj
 0002:000034c8       ??_C@_0BM@IJFALIND@__attribute__?$CI?$CIvector_size?$CI?$AA@ 1004d4c8     lj_ctype.obj
 0002:000034e8       ??_C@_0EO@CPLCJBBN@?$CIfor?5index?$CJ?$AA?$CIfor?5limit?$CJ?$AA?$CIfor?5ste@ 1004d4e8     lj_debug.obj
 0002:00003538       ??_C@_09DKIONLLI@?$CI?$CKvararg?$CJ?$AA@ 1004d538     lj_debug.obj
 0002:00003544       ??_C@_0N@NCKPGBEC@?$CI?$CKtemporary?$CJ?$AA@ 1004d544     lj_debug.obj
 0002:00003554       ??_C@_05IDKHKMLA@local?$AA@ 1004d554     lj_debug.obj
 0002:0000355c       ??_C@_06FJKEMHGD@global?$AA@ 1004d55c     lj_debug.obj
 0002:00003564       ??_C@_06GABBCIBA@method?$AA@ 1004d564     lj_debug.obj
 0002:0000356c       ??_C@_05EIBGDMPB@field?$AA@ 1004d56c     lj_debug.obj
 0002:00003574       ??_C@_07NAGMKCIK@upvalue?$AA@ 1004d574     lj_debug.obj
 0002:0000357c       ??_C@_0L@ILHKGAHF@metamethod?$AA@ 1004d57c     lj_debug.obj
 0002:00003588       ??_C@_09PHLFBDIK@?$FLstring?5?$CC?$AA@ 1004d588     lj_debug.obj
 0002:00003594       ??_C@_03KHICJKCI@?4?4?4?$AA@ 1004d594     lj_debug.obj
 0002:00003598       ??_C@_02DEGCJHHK@?$CC?$FN?$AA@ 1004d598     lj_debug.obj
 0002:0000359c       ??_C@_09BHPFBFOI@?$CFs?3?$CFd?3?5?$CFs?$AA@ 1004d59c     lj_debug.obj
 0002:000035a8       ??_C@_05HKPGCKL@?$CFs?3?$CFd?$AA@ 1004d5a8     lj_debug.obj
 0002:000035b0       ??_C@_05EAAPBIHL@?$CFp?3?$CFd?$AA@ 1004d5b0     lj_debug.obj
 0002:000035b8       ??_C@_07CKDNGCOA@?$CC?$CFs?$CC?3?$CFd?$AA@ 1004d5b8     lj_debug.obj
 0002:000035c0       ??_C@_03CBKFDHDL@Lua?$AA@  1004d5c0     lj_debug.obj
 0002:000035c4       ??_C@_04GHJNJNPO@main?$AA@ 1004d5c4     lj_debug.obj
 0002:000035cc       ??_C@_04BKJOMPG@?$DN?$FLC?$FN?$AA@ 1004d5cc     lj_debug.obj
 0002:000035d4       ??_C@_01GFHCPBMG@C?$AA@    1004d5d4     lj_debug.obj
 0002:000035d8       ??_C@_03OFAPEBGM@?$CFs?6?$AA@ 1004d5d8     lj_debug.obj
 0002:000035dc       ??_C@_0BB@CJHIJJAH@stack?5traceback?3?$AA@ 1004d5dc     lj_debug.obj
 0002:000035f0       ??_C@_05JLIPKFIA@?6?7?4?4?4?$AA@ 1004d5f0     lj_debug.obj
 0002:000035f8       ??_C@_04OPPNMDKM@Snlf?$AA@ 1004d5f8     lj_debug.obj
 0002:00003600       ??_C@_0BA@PEAPGPI@?6?7?$FLbuiltin?$CD?$CFd?$FN?3?$AA@ 1004d600     lj_debug.obj
 0002:00003610       ??_C@_05GEEEIDH@?6?7?$CFs?3?$AA@ 1004d610     lj_debug.obj
 0002:00003618       ??_C@_03CDCAMCGK@?$CFd?3?$AA@ 1004d618     lj_debug.obj
 0002:0000361c       ??_C@_0BC@CPJFAADE@?5in?5function?5?8?$CFs?8?$AA@ 1004d61c     lj_debug.obj
 0002:00003630       ??_C@_0P@IOLMPCPC@?5in?5main?5chunk?$AA@ 1004d630     lj_debug.obj
 0002:00003640       ??_C@_06NDFPNBCO@?5at?5?$CFp?$AA@ 1004d640     lj_debug.obj
 0002:00003648       ??_C@_0BF@IDFBHDGL@?5in?5function?5?$DM?$CFs?3?$CFd?$DO?$AA@ 1004d648     lj_debug.obj
 0002:00003660       ??_C@_06FNGJOCBI@?$DMname?$DO?$AA@ 1004d660     lj_lex.obj
 0002:00003668       ??_C@_08OHBCANEJ@?$DMnumber?$DO?$AA@ 1004d668     lj_lex.obj
 0002:00003674       ??_C@_02MOLJINC@?3?3?$AA@  1004d674     lj_lex.obj
 0002:00003678       ??_C@_02DEDJCLAJ@?$HO?$DN?$AA@ 1004d678     lj_lex.obj
 0002:0000367c       ??_C@_02DJGKEECL@?4?4?$AA@ 1004d67c     lj_lex.obj
 0002:00003680       ??_C@_05OODBEKIG@while?$AA@ 1004d680     lj_lex.obj
 0002:00003688       ??_C@_05FJMDOIMN@until?$AA@ 1004d688     lj_lex.obj
 0002:00003690       ??_C@_04HOHPNOOD@then?$AA@ 1004d690     lj_lex.obj
 0002:00003698       ??_C@_06LGDBIFHB@repeat?$AA@ 1004d698     lj_lex.obj
 0002:000036a0       ??_C@_02FODMLBIE@or?$AA@   1004d6a0     lj_lex.obj
 0002:000036a4       ??_C@_03NJKJADM@not?$AA@   1004d6a4     lj_lex.obj
 0002:000036a8       ??_C@_02LMMGJAGL@in?$AA@   1004d6a8     lj_lex.obj
 0002:000036ac       ??_C@_02HEBPBKGD@if?$AA@   1004d6ac     lj_lex.obj
 0002:000036b0       ??_C@_04MABHPDAO@goto?$AA@ 1004d6b0     lj_lex.obj
 0002:000036b8       ??_C@_08HFFPPCHF@function?$AA@ 1004d6b8     lj_lex.obj
 0002:000036c4       ??_C@_03JOHEBPFF@for?$AA@  1004d6c4     lj_lex.obj
 0002:000036c8       ??_C@_03JBJLGPFL@end?$AA@  1004d6c8     lj_lex.obj
 0002:000036cc       ??_C@_06CAACNEC@elseif?$AA@ 1004d6cc     lj_lex.obj
 0002:000036d4       ??_C@_04FHMCPBIP@else?$AA@ 1004d6d4     lj_lex.obj
 0002:000036dc       ??_C@_02KNAFDCHJ@do?$AA@   1004d6dc     lj_lex.obj
 0002:000036e0       ??_C@_05ELPHFHOI@break?$AA@ 1004d6e0     lj_lex.obj
 0002:000036e8       ??_C@_03BOPJPIAM@and?$AA@  1004d6e8     lj_lex.obj
 0002:000036ec       ??_C@_02JDPG@rb?$AA@       1004d6ec     lj_load.obj
 0002:000036f0       ??_C@_0BD@HEEOPHI@cannot?5open?5?$CFs?3?5?$CFs?$AA@ 1004d6f0     lj_load.obj
 0002:00003704       ??_C@_03HPDLNGOA@?$EA?$CFs?$AA@ 1004d704     lj_load.obj
 0002:00003708       ??_C@_06CCPPALKB@?$DNstdin?$AA@ 1004d708     lj_load.obj
 0002:00003710       ??_C@_0BD@NGJHEBAH@cannot?5read?5?$CFs?3?5?$CFs?$AA@ 1004d710     lj_load.obj
 0002:00003728       ??_C@_0IH@DKAJMBPM@__index__newindex__gc__mode__eq_@ 1004d728     lj_meta.obj
 0002:000037b0       ??_C@_05IMBNNINJ@trace?$AA@ 1004d7b0     lj_obj.obj
 0002:000037b8       ??_C@_05CCAJFIBN@upval?$AA@ 1004d7b8     lj_obj.obj
 0002:000037c0       ??_C@_05GLPICJ@cdata?$AA@  1004d7c0     lj_obj.obj
 0002:000037c8       ??_C@_05BENFLAID@proto?$AA@ 1004d7c8     lj_obj.obj
 0002:000037d0       ??_C@_06FJHNOCKE@thread?$AA@ 1004d7d0     lj_obj.obj
 0002:000037d8       ??_C@_06EBGNBFIA@number?$AA@ 1004d7d8     lj_obj.obj
 0002:000037e0       ??_C@_08NOEPOPLB@userdata?$AA@ 1004d7e0     lj_obj.obj
 0002:000037ec       ??_C@_07GOBOHMJA@boolean?$AA@ 1004d7ec     lj_obj.obj
 0002:000037f4       ??_C@_08JEIPHCP@no?5value?$AA@ 1004d7f4     lj_obj.obj
 0002:00003800       ??_C@_0BG@OFEPHPMG@bytecode?5instructions?$AA@ 1004d800     lj_parse.obj
 0002:00003818       ??_C@_0BA@EIDMAHJI@local?5variables?$AA@ 1004d818     lj_parse.obj
 0002:00003828       ??_C@_09FGMGFBD@constants?$AA@ 1004d828     lj_parse.obj
 0002:00003834       ??_C@_04PJDNGLKJ@self?$AA@ 1004d834     lj_parse.obj
 0002:0000383c       ??_C@_0P@MOEMEHPO@variable?5names?$AA@ 1004d83c     lj_parse.obj
 0002:0000384c       ??_C@_05PEAECDOC@pairs?$AA@ 1004d84c     lj_parse.obj
 0002:00003854       ??_C@_04CJGEDOF@next?$AA@  1004d854     lj_parse.obj
 0002:0000385c       ??_C@_06OJHGLDPL@?$CInull?$CJ?$AA@ 1004d85c     lj_str.obj
 0002:00003864       ??_C@_04HIBGFPH@NULL?$AA@  1004d864     lj_str.obj
 0002:0000386c       ??_C@_05GLCAEPFP@flush?$AA@ 1004d86c     lj_trace.obj
 0002:00003874       ??_C@_05FAGFPHJG@start?$AA@ 1004d874     lj_trace.obj
 0002:0000387c       ??_C@_04PEGFANN@stop?$AA@  1004d87c     lj_trace.obj
 0002:00003884       ??_C@_05BBAEEBBH@abort?$AA@ 1004d884     lj_trace.obj
 0002:0000388c       ??_C@_0BE@HINHLNFP@VM?5handler?5failed?3?5?$AA@ 1004d88c     lj_vmevent.obj
 0002:000038a0       ??_C@_06IJPGJPKF@luajit?$AA@ 1004d8a0     luajit.obj
 0002:000038a8       ??_C@_0P@HCOJNDKE@?$CFsinterrupted?$CB?$AA@ 1004d8a8     luajit.obj
 0002:000038b8       ??_C@_0BOJ@OOMHIOKI@usage?3?5?$CFs?5?$FLoptions?$FN?4?4?4?5?$FLscript?5?$FL@ 1004d8b8     luajit.obj
 0002:00003aa4       ??_C@_04PFAOODAA@?$CFs?3?5?$AA@ 1004daa4     luajit.obj
 0002:00003aac       ??_C@_0BP@LIDEPBBI@?$CIerror?5object?5is?5not?5a?5string?$CJ?$AA@ 1004daac     luajit.obj
 0002:00003acc       ??_C@_0L@HDFPAPPH@__tostring?$AA@ 1004dacc     luajit.obj
 0002:00003ad8       ??_C@_0EH@EOODKJAD@LuaJIT?52?40?41?5?9?9?5Copyright?5?$CIC?$CJ?520@ 1004dad8     luajit.obj
 0002:00003b20       ??_C@_06DJIHEMFI@status?$AA@ 1004db20     luajit.obj
 0002:00003b28       ??_C@_07DKJDCDJH@JIT?3?5ON?$AA@ 1004db28     luajit.obj
 0002:00003b30       ??_C@_08MGGBCMPP@JIT?3?5OFF?$AA@ 1004db30     luajit.obj
 0002:00003b3c       ??_C@_0BN@DLFNFJGA@too?5many?5arguments?5to?5script?$AA@ 1004db3c     luajit.obj
 0002:00003b5c       ??_C@_07HFPOHICP@_PROMPT?$AA@ 1004db5c     luajit.obj
 0002:00003b64       ??_C@_08EGNEJHFA@_PROMPT2?$AA@ 1004db64     luajit.obj
 0002:00003b70       ??_C@_02LLMPMKNF@?$DO?5?$AA@ 1004db70     luajit.obj
 0002:00003b74       ??_C@_03HFDOEDEJ@?$DO?$DO?5?$AA@ 1004db74     luajit.obj
 0002:00003b78       ??_C@_07KPILCIKK@?8?$DMeof?$DO?8?$AA@ 1004db78     luajit.obj
 0002:00003b80       ??_C@_09JEDJACMH@return?5?$CFs?$AA@ 1004db80     luajit.obj
 0002:00003b8c       ??_C@_05IJDJACGD@print?$AA@ 1004db8c     luajit.obj
 0002:00003b94       ??_C@_0BL@CJONDGA@error?5calling?5?8print?8?5?$CI?$CFs?$CJ?$AA@ 1004db94     luajit.obj
 0002:00003bb0       ??_C@_03CAOIPBNL@arg?$AA@  1004dbb0     luajit.obj
 0002:00003bb4       ??_C@_02BAABKJLB@?9?9?$AA@ 1004dbb4     luajit.obj
 0002:00003bb8       ??_C@_04PEIOBGCH@jit?4?$AA@ 1004dbb8     luajit.obj
 0002:00003bc0       ??_C@_07KEPCOONB@module?5?$AA@ 1004dbc0     luajit.obj
 0002:00003bc8       ??_C@_0DG@FFHELDFI@unknown?5luaJIT?5command?5or?5jit?4?$CK?5@ 1004dbc8     luajit.obj
 0002:00003c00       ??_C@_06IFMEIBMA@bcsave?$AA@ 1004dc00     luajit.obj
 0002:00003c08       ??_C@_0BA@FDPHDMOB@?$DN?$CIcommand?5line?$CJ?$AA@ 1004dc08     luajit.obj
 0002:00003c18       ??_C@_08KMIGBJCG@LUA_INIT?$AA@ 1004dc18     luajit.obj
 0002:00003c24       ??_C@_09DEAIGMHG@?$DNLUA_INIT?$AA@ 1004dc24     luajit.obj
 0002:00003c30       ??_C@_0PBH@MGNGDLLH@not?5enough?5memory?$AAerror?5in?5error@ 1004dc30     lj_err.obj
 0002:00004b48       __real@4338000000000000    1004eb48      CIL library: CIL module
 0002:00004b50       __real@0000000000000000    1004eb50      CIL library: CIL module
 0002:00004b58       __real@43f0000000000000    1004eb58      CIL library: CIL module
 0002:00004b60       __real@43e0000000000000    1004eb60      CIL library: CIL module
 0002:00004b68       __real@3f50624dd2f1a9fc    1004eb68      CIL library: CIL module
 0002:00004b70       __real@4020000000000000    1004eb70      CIL library: CIL module
 0002:00004b78       __real@4005bf0a8b145769    1004eb78      CIL library: CIL module
 0002:00004b80       __real@400921fb54442d18    1004eb80      CIL library: CIL module
 0002:00004b88       __real@8000000000000000    1004eb88      CIL library: CIL module
 0002:00004b90       __real@c1e0000000000000    1004eb90      CIL library: CIL module
 0002:00004b98       __real@41dfffffffc00000    1004eb98      CIL library: CIL module
 0002:00004ba0       __real@41f0000000000000    1004eba0      CIL library: CIL module
 0002:00004ba8       __real@3fe0000000000000    1004eba8      CIL library: CIL module
 0002:00004bb0       __real@4000000000000000    1004ebb0      CIL library: CIL module
 0002:00004bb8       __real@bff0000000000000    1004ebb8      CIL library: CIL module
 0002:00004bc0       __real@3ff0000000000000    1004ebc0      CIL library: CIL module
 0002:00004bc8       __real@4050c00000000000    1004ebc8      CIL library: CIL module
 0002:00004bd0       __real@c170000000000000    1004ebd0      CIL library: CIL module
 0002:00004bd8       __real@41d56a8cddc00000    1004ebd8      CIL library: CIL module
 0002:00004be0       __real@3f50000000000000    1004ebe0      CIL library: CIL module
 0002:00004be8       __load_config_used         1004ebe8     MSVCRT:loadcfg.obj
 0002:00004c40       ___safe_se_handler_table   1004ec40     <linker-defined>
 0002:00004c44       ___rtc_iaa                 1004ec44     MSVCRT:_initsect_.obj
 0002:00004c48       ___rtc_izz                 1004ec48     MSVCRT:_initsect_.obj
 0002:00004c4c       ___rtc_taa                 1004ec4c     MSVCRT:_initsect_.obj
 0002:00004c50       ___rtc_tzz                 1004ec50     MSVCRT:_initsect_.obj
 0002:00004cdc       __IMPORT_DESCRIPTOR_KERNEL32 1004ecdc     kernel32:KERNEL32.dll
 0002:00004cf0       __IMPORT_DESCRIPTOR_MSVCR90 1004ecf0     MSVCRT:MSVCR90.dll
 0002:00004d04       __NULL_IMPORT_DESCRIPTOR   1004ed04     kernel32:KERNEL32.dll
 0003:00000000       ___native_dllmain_reason   10051000     MSVCRT:natstart.obj
 0003:00000004       ___native_vcclrit_reason   10051004     MSVCRT:natstart.obj
 0003:00000008       ___security_cookie         10051008     MSVCRT:gs_cookie.obj
 0003:0000000c       ___security_cookie_complement 1005100c     MSVCRT:gs_cookie.obj
 0003:00000010       _lj_err_allmsg             10051010     lj_err.obj
 0003:000001a4       __forceCRTManifestRTM      100511a4     MSVCRT:crtmanifestrtm.obj
 0003:000001a8       ?__type_info_root_node@@3U__type_info_node@@A 100511a8     MSVCRT:tncleanup.obj
 0003:000004f0       ___sse2_available          100514f0     <common>
 0003:000004f4       __adjust_fdiv              100514f4     <common>
 0003:000004f8       ___native_startup_state    100514f8     <common>
 0003:000004fc       ___native_startup_lock     100514fc     <common>
 0003:00000500       ___onexitend               10051500     <common>
 0003:00000504       ___onexitbegin             10051504     <common>
 0003:00000508       ___dyn_tls_init_callback   10051508     <common>

 entry point at        0001:00003a31

 Static symbols

 0001:000036a6       _pre_c_init                100046a6 f   MSVCRT:crtdll.obj
 0001:0000391b       ___DllMainCRTStartup       1000491b f   MSVCRT:crtdll.obj
 0001:00003f70       _finderrfunc               10004f70 f    CIL library: CIL module
 0001:00004040       _copyTV                    10005040 f    CIL library: CIL module
 0001:00004050       _setgcV                    10005050 f    CIL library: CIL module
 0001:00004060       _setstrV                   10005060 f    CIL library: CIL module
 0001:00004070       _unwindstack               10005070 f    CIL library: CIL module
 0001:000040a0       _err_unwind                100050a0 f    CIL library: CIL module
 0001:00004360       _err_msgv                  10005360 f    CIL library: CIL module
 0001:00004690       _err_argmsg                10005690 f    CIL library: CIL module
 0001:00004860       _collectargs               10005860 f    CIL library: CIL module
 0001:00004990       _print_version             10005990 f    CIL library: CIL module
 0001:000049b0       _l_message                 100059b0 f    CIL library: CIL module
 0001:00004a00       _print_usage               10005a00 f    CIL library: CIL module
 0001:00004a30       _incomplete                10005a30 f    CIL library: CIL module
 0001:00004a80       _write_prompt              10005a80 f    CIL library: CIL module
 0001:00004b00       _getargs                   10005b00 f    CIL library: CIL module
 0001:00004bb0       _print_jit_status          10005bb0 f    CIL library: CIL module
 0001:00004cb0       _report                    10005cb0 f    CIL library: CIL module
 0001:00004d00       _lstop                     10005d00 f    CIL library: CIL module
 0001:00004d40       _runcmdopt                 10005d40 f    CIL library: CIL module
 0001:00004df0       _loadjitmodule             10005df0 f    CIL library: CIL module
 0001:00004ec0       _pushline                  10005ec0 f    CIL library: CIL module
 0001:00004f60       _laction                   10005f60 f    CIL library: CIL module
 0001:00004f90       _dobytecode                10005f90 f    CIL library: CIL module
 0001:00005010       _dojitopt                  10006010 f    CIL library: CIL module
 0001:00005070       _dojitcmd                  10006070 f    CIL library: CIL module
 0001:00005150       _traceback                 10006150 f    CIL library: CIL module
 0001:000051d0       _docall                    100061d0 f    CIL library: CIL module
 0001:00005250       _dolibrary                 10006250 f    CIL library: CIL module
 0001:00005290       _handle_script             10006290 f    CIL library: CIL module
 0001:00005370       _loadline                  10006370 f    CIL library: CIL module
 0001:00005450       _dostring                  10006450 f    CIL library: CIL module
 0001:000054b0       _dofile                    100064b0 f    CIL library: CIL module
 0001:000054f0       _handle_luainit            100064f0 f    CIL library: CIL module
 0001:00005530       _runargs                   10006530 f    CIL library: CIL module
 0001:00005640       _dotty                     10006640 f    CIL library: CIL module
 0001:00005750       _pmain                     10006750 f    CIL library: CIL module
 0001:000059e0       _setgcV                    100069e0 f    CIL library: CIL module
 0001:000059f0       _setfuncV                  100069f0 f    CIL library: CIL module
 0001:00005a00       _lj_state_checkstack       10006a00 f    CIL library: CIL module
 0001:00005ad0       _lj_mem_free               10006ad0 f    CIL library: CIL module
 0001:00005b60       _trace_pendpatch           10006b60 f    CIL library: CIL module
 0001:00005b90       _blacklist_pc              10006b90 f    CIL library: CIL module
 0001:00005bf0       _trace_unpatch             10006bf0 f    CIL library: CIL module
 0001:00005cc0       _LJ_PRNG_BITS              10006cc0 f    CIL library: CIL module
 0001:00005ce0       _bc_isret                  10006ce0 f    CIL library: CIL module
 0001:00005d00       _lj_mem_free               10006d00 f    CIL library: CIL module
 0001:00005d20       _lj_num2bit                10006d20 f    CIL library: CIL module
 0001:00005d40       _copyTV                    10006d40 f    CIL library: CIL module
 0001:00005d50       _setintV                   10006d50 f    CIL library: CIL module
 0001:00005d60       _setgcV                    10006d60 f    CIL library: CIL module
 0001:00005d70       _trace_exit_regs           10006d70 f    CIL library: CIL module
 0001:00005e90       _penalty_pc                10006e90 f    CIL library: CIL module
 0001:00005f30       _trace_flushroot           10006f30 f    CIL library: CIL module
 0001:00006000       _numberVint                10007000 f    CIL library: CIL module
 0001:00006020       _setfuncV                  10007020 f    CIL library: CIL module
 0001:00006030       _setstrV                   10007030 f    CIL library: CIL module
 0001:000061c0       _lj_state_checkstack       100071c0 f    CIL library: CIL module
 0001:000061e0       _trace_save                100071e0 f    CIL library: CIL module
 0001:000062e0       _trace_findfree            100072e0 f    CIL library: CIL module
 0001:000063a0       _trace_stop                100073a0 f    CIL library: CIL module
 0001:00006630       _trace_start               10007630 f    CIL library: CIL module
 0001:000067c0       _trace_downrec             100077c0 f    CIL library: CIL module
 0001:00006800       _trace_exit_cp             10007800 f    CIL library: CIL module
 0001:00006830       _trace_abort               10007830 f    CIL library: CIL module
 0001:00006a60       _trace_state               10007a60 f    CIL library: CIL module
 0001:00006d90       _trace_hotside             10007d90 f    CIL library: CIL module
 0001:00007080       _bestasize                 10008080 f    CIL library: CIL module
 0001:00007100       _countarray                10008100 f    CIL library: CIL module
 0001:00007180       _clearapart                10008180 f    CIL library: CIL module
 0001:000071a0       _clearhpart                100081a0 f    CIL library: CIL module
 0001:000071d0       _hashmask                  100081d0 f    CIL library: CIL module
 0001:000071f0       _hashrot                   100081f0 f    CIL library: CIL module
 0001:00007210       _lj_mem_free               10008210 f    CIL library: CIL module
 0001:00007230       _lj_gc_barrierback         10008230 f    CIL library: CIL module
 0001:00007240       _lj_num2bit                10008240 f    CIL library: CIL module
 0001:00007260       _copyTV                    10008260 f    CIL library: CIL module
 0001:00007270       _setintV                   10008270 f    CIL library: CIL module
 0001:00007280       _setgcV                    10008280 f    CIL library: CIL module
 0001:00007290       _lj_fls                    10008290 f    CIL library: CIL module
 0001:000073b0       _countint                  100083b0 f    CIL library: CIL module
 0001:000074b0       _hashkey                   100084b0 f    CIL library: CIL module
 0001:00007540       _setstrV                   10008540 f    CIL library: CIL module
 0001:00007550       _unbound_search            10008550 f    CIL library: CIL module
 0001:000076e0       _counthash                 100086e0 f    CIL library: CIL module
 0001:00007780       _keyindex                  10008780 f    CIL library: CIL module
 0001:00007850       _newhpart                  10008850 f    CIL library: CIL module
 0001:00007940       _resizetab                 10008940 f    CIL library: CIL module
 0001:00007b80       _newtab                    10008b80 f    CIL library: CIL module
 0001:00007ce0       _rehashtab                 10008ce0 f    CIL library: CIL module
 0001:00008210       _strscan_oct               10009210 f    CIL library: CIL module
 0001:000082e0       _lj_num2bit                100092e0 f    CIL library: CIL module
 0001:00008300       _lj_fls                    10009300 f    CIL library: CIL module
 0001:00008310       _strscan_double            10009310 f    CIL library: CIL module
 0001:00008420       _strscan_dec               10009420 f    CIL library: CIL module
 0001:00008a00       _strscan_hex               10009a00 f    CIL library: CIL module
 0001:00009160       _str_fastcmp               1000a160 f    CIL library: CIL module
 0001:00009210       _lj_mem_free               1000a210 f    CIL library: CIL module
 0001:00009230       _setgcV                    1000a230 f    CIL library: CIL module
 0001:00009260       _setstrV                   1000a260 f    CIL library: CIL module
 0001:000092a0       _addchar                   1000a2a0 f    CIL library: CIL module
 0001:000092e0       _addstr                    1000a2e0 f    CIL library: CIL module
 0001:000099a0       _resizestack               1000a9a0 f    CIL library: CIL module
 0001:00009a30       _lj_mem_free               1000aa30 f    CIL library: CIL module
 0001:00009a50       _setgcV                    1000aa50 f    CIL library: CIL module
 0001:00009ad0       _settabV                   1000aad0 f    CIL library: CIL module
 0001:00009ae0       _setthreadV                1000aae0 f    CIL library: CIL module
 0001:00009ba0       _close_state               1000aba0 f    CIL library: CIL module
 0001:00009c60       _stack_init                1000ac60 f    CIL library: CIL module
 0001:00009cf0       _cpluaopen                 1000acf0 f    CIL library: CIL module
 0001:00009e60       _cpfinalize                1000ae60 f    CIL library: CIL module
 0001:00009f20       _snap_sunk_store2          1000af20 f    CIL library: CIL module
 0001:00009f70       _snap_dedup                1000af70 f    CIL library: CIL module
 0001:00009fa0       _snap_renameref            1000afa0 f    CIL library: CIL module
 0001:00009fd0       _snap_renamefilter         1000afd0 f    CIL library: CIL module
 0001:0000a010       _snapshot_framelinks       1000b010 f    CIL library: CIL module
 0001:0000a0b0       _snapshot_slots            1000b0b0 f    CIL library: CIL module
 0001:0000a160       _ctype_check               1000b160 f    CIL library: CIL module
 0001:0000a170       _lj_ir_set_                1000b170 f    CIL library: CIL module
 0001:0000a190       _snap_nextofs              1000b190 f    CIL library: CIL module
 0001:0000a1b0       _irt_toitype_              1000b1b0 f    CIL library: CIL module
 0001:0000a1c0       _bc_isret                  1000b1c0 f    CIL library: CIL module
 0001:0000a1e0       _copyTV                    1000b1e0 f    CIL library: CIL module
 0001:0000a1f0       _setintV                   1000b1f0 f    CIL library: CIL module
 0001:0000a200       _setgcV                    1000b200 f    CIL library: CIL module
 0001:0000a210       _snap_restoredata          1000b210 f    CIL library: CIL module
 0001:0000a390       _snap_sunk_store           1000b390 f    CIL library: CIL module
 0001:0000a470       _snap_usedef               1000b470 f    CIL library: CIL module
 0001:0000a7f0       _settabV                   1000b7f0 f    CIL library: CIL module
 0001:0000a800       _setcdataV                 1000b800 f    CIL library: CIL module
 0001:0000a980       _lj_cdata_new              1000b980 f    CIL library: CIL module
 0001:0000a9a0       _lj_snap_grow_map          1000b9a0 f    CIL library: CIL module
 0001:0000a9c0       _snapshot_stack            1000b9c0 f    CIL library: CIL module
 0001:0000aa90       _lj_snap_grow_buf          1000ba90 f    CIL library: CIL module
 0001:0000aab0       _snap_restoreval           1000bab0 f    CIL library: CIL module
 0001:0000aca0       _snap_replay_const         1000bca0 f    CIL library: CIL module
 0001:0000ad30       _snap_pref                 1000bd30 f    CIL library: CIL module
 0001:0000b550       _snap_unsink               1000c550 f    CIL library: CIL module
 0001:0000baf0       _rec_setup_root            1000caf0 f    CIL library: CIL module
 0001:0000bc10       _select_detect             1000cc10 f    CIL library: CIL module
 0001:0000bc70       _nommstr                   1000cc70 f    CIL library: CIL module
 0001:0000bcc0       _innerloopleft             1000ccc0 f    CIL library: CIL module
 0001:0000bd10       _rec_loop                  1000cd10 f    CIL library: CIL module
 0001:0000bd30       _rec_iterl                 1000cd30 f    CIL library: CIL module
 0001:0000bd90       _rec_for_direction         1000cd90 f    CIL library: CIL module
 0001:0000bda0       _lj_ir_set_                1000cda0 f    CIL library: CIL module
 0001:0000bdc0       _LJ_PRNG_BITS              1000cdc0 f    CIL library: CIL module
 0001:0000bde0       _itype2irt                 1000cde0 f    CIL library: CIL module
 0001:0000be00       _ctype_check               1000ce00 f    CIL library: CIL module
 0001:0000be10       _bc_isret                  1000ce10 f    CIL library: CIL module
 0001:0000be30       _hashrot                   1000ce30 f    CIL library: CIL module
 0001:0000be50       _numberVnum                1000ce50 f    CIL library: CIL module
 0001:0000be60       _lj_num2bit                1000ce60 f    CIL library: CIL module
 0001:0000be80       _copyTV                    1000ce80 f    CIL library: CIL module
 0001:0000be90       _setintV                   1000ce90 f    CIL library: CIL module
 0001:0000bea0       _setgcV                    1000cea0 f    CIL library: CIL module
 0001:0000beb0       _setlightudV               1000ceb0 f    CIL library: CIL module
 0001:0000bec0       _rec_for_iter              1000cec0 f    CIL library: CIL module
 0001:0000bf60       _ctype_get                 1000cf60 f    CIL library: CIL module
 0001:0000bf70       _numberVint                1000cf70 f    CIL library: CIL module
 0001:0000bf90       _settabV                   1000cf90 f    CIL library: CIL module
 0001:0000bfa0       _setfuncV                  1000cfa0 f    CIL library: CIL module
 0001:0000bfb0       _setstrV                   1000cfb0 f    CIL library: CIL module
 0001:0000bfc0       _rec_comp_fixup            1000cfc0 f    CIL library: CIL module
 0001:0000c020       _ctype_child               1000d020 f    CIL library: CIL module
 0001:0000c030       _ctype_raw                 1000d030 f    CIL library: CIL module
 0001:0000c080       _rec_upvalue_constify      1000d080 f    CIL library: CIL module
 0001:0000c110       _rec_func_vararg           1000d110 f    CIL library: CIL module
 0001:0000c190       _rec_func_setup            1000d190 f    CIL library: CIL module
 0001:0000c1e0       _check_downrec_unroll      1000d1e0 f    CIL library: CIL module
 0001:0000c260       _rec_comp_prep             1000d260 f    CIL library: CIL module
 0001:0000c2a0       _sload                     1000d2a0 f    CIL library: CIL module
 0001:0000c310       _sloadt                    1000d310 f    CIL library: CIL module
 0001:0000c340       _rec_mm_prep               1000d340 f    CIL library: CIL module
 0001:0000c3a0       _fori_load                 1000d3a0 f    CIL library: CIL module
 0001:0000c3f0       _getcurrf                  1000d3f0 f    CIL library: CIL module
 0001:0000c420       _rec_tnew                  1000d420 f    CIL library: CIL module
 0001:0000c460       _rec_idx_abc               1000d460 f    CIL library: CIL module
 0001:0000c5d0       _rec_call_specialize       1000d5d0 f    CIL library: CIL module
 0001:0000c680       _rec_for_check             1000d680 f    CIL library: CIL module
 0001:0000c810       _canonicalize_slots        1000d810 f    CIL library: CIL module
 0001:0000c9a0       _lj_ir_knum                1000d9a0 f    CIL library: CIL module
 0001:0000c9c0       _rec_varg                  1000d9c0 f    CIL library: CIL module
 0001:0000cf70       _rec_idx_key               1000df70 f    CIL library: CIL module
 0001:0000d2a0       _find_kinit                1000e2a0 f    CIL library: CIL module
 0001:0000d3f0       _rec_stop                  1000e3f0 f    CIL library: CIL module
 0001:0000d4c0       _check_call_unroll         1000e4c0 f    CIL library: CIL module
 0001:0000d5d0       _rec_upvalue               1000e5d0 f    CIL library: CIL module
 0001:0000e3e0       _rec_call_setup            1000f3e0 f    CIL library: CIL module
 0001:0000e4e0       _rec_loop_jit              1000f4e0 f    CIL library: CIL module
 0001:0000e540       _rec_loop_interp           1000f540 f    CIL library: CIL module
 0001:0000e600       _fori_arg                  1000f600 f    CIL library: CIL module
 0001:0000e640       _rec_func_jit              1000f640 f    CIL library: CIL module
 0001:0000e6d0       _rec_func_lua              1000f6d0 f    CIL library: CIL module
 0001:0000e7c0       _rec_for_loop              1000f7c0 f    CIL library: CIL module
 0001:0000eb20       _rec_mm_callcomp           1000fb20 f    CIL library: CIL module
 0001:0000eb90       _rec_mm_len                1000fb90 f    CIL library: CIL module
 0001:0000ec30       _rec_mm_arith              1000fc30 f    CIL library: CIL module
 0001:0000ecf0       _rec_for                   1000fcf0 f    CIL library: CIL module
 0001:0000ef50       _rec_mm_comp_cdata         1000ff50 f    CIL library: CIL module
 0001:0000efb0       _rec_mm_comp               1000ffb0 f    CIL library: CIL module
 0001:0000f110       _rec_mm_equal              10010110 f    CIL library: CIL module
 0001:00010100       _endofblock                10011100 f    CIL library: CIL module
 0001:00010150       _token2binop               10011150 f    CIL library: CIL module
 0001:00010300       _expr_kvalue               10011300 f    CIL library: CIL module
 0001:00010330       _bcopisret                 10011330 f    CIL library: CIL module
 0001:00010370       _fs_fixup_var              10011370 f    CIL library: CIL module
 0001:000103a0       _fs_buf_uleb128            100113a0 f    CIL library: CIL module
 0001:000103d0       _fs_buf_str                100113d0 f    CIL library: CIL module
 0001:00010400       _fs_fixup_line             10011400 f    CIL library: CIL module
 0001:00010480       _fs_prep_line              10011480 f    CIL library: CIL module
 0001:000104a0       _fs_fixup_uv1              100114a0 f    CIL library: CIL module
 0001:000104c0       _fs_fixup_uv2              100114c0 f    CIL library: CIL module
 0001:00010520       _fs_fixup_bc               10011520 f    CIL library: CIL module
 0001:00010560       _fscope_uvmark             10011560 f    CIL library: CIL module
 0001:00010580       _fscope_begin              10011580 f    CIL library: CIL module
 0001:000105a0       _gola_findlabel            100115a0 f    CIL library: CIL module
 0001:000105e0       _var_lookup_local          100115e0 f    CIL library: CIL module
 0001:00010610       _var_remove                10011610 f    CIL library: CIL module
 0001:00010640       _var_add                   10011640 f    CIL library: CIL module
 0001:00010680       _invertcond                10011680 f    CIL library: CIL module
 0001:000106a0       _bcreg_free                100116a0 f    CIL library: CIL module
 0001:000106b0       _jmp_patchtestreg          100116b0 f    CIL library: CIL module
 0001:00010760       _jmp_next                  10011760 f    CIL library: CIL module
 0001:00010780       _expr_numiszero            10011780 f    CIL library: CIL module
 0001:00010790       _expr_init                 10011790 f    CIL library: CIL module
 0001:000107b0       _lj_gc_barrierback         100117b0 f    CIL library: CIL module
 0001:000107c0       _numberVnum                100117c0 f    CIL library: CIL module
 0001:000107d0       _lj_num2bit                100117d0 f    CIL library: CIL module
 0001:000107f0       _copyTV                    100117f0 f    CIL library: CIL module
 0001:00010800       _setintV                   10011800 f    CIL library: CIL module
 0001:00010810       _setgcV                    10011810 f    CIL library: CIL module
 0001:00010820       _lj_fls                    10011820 f    CIL library: CIL module
 0001:00010830       _foldarith                 10011830 f    CIL library: CIL module
 0001:000108b0       _expr_free                 100118b0 f    CIL library: CIL module
 0001:000108d0       _jmp_dropval               100118d0 f    CIL library: CIL module
 0001:00010900       _jmp_novalue               10011900 f    CIL library: CIL module
 0001:00010960       _settabV                   10011960 f    CIL library: CIL module
 0001:00010970       _setcdataV                 10011970 f    CIL library: CIL module
 0001:00010980       _setprotoV                 10011980 f    CIL library: CIL module
 0001:00010990       _setstrV                   10011990 f    CIL library: CIL module
 0001:000109a0       _fs_buf_resize             100119a0 f    CIL library: CIL module
 0001:000109e0       _fs_buf_need               100119e0 f    CIL library: CIL module
 0001:00010a00       _fs_prep_var               10011a00 f    CIL library: CIL module
 0001:00010b50       _predict_next              10011b50 f    CIL library: CIL module
 0001:00010ca0       _synlevel_begin            10011ca0 f    CIL library: CIL module
 0001:00010cc0       _gola_new                  10011cc0 f    CIL library: CIL module
 0001:00010d50       _err_limit                 10011d50 f    CIL library: CIL module
 0001:00010d80       _err_token                 10011d80 f    CIL library: CIL module
 0001:00010da0       _err_syntax                10011da0 f    CIL library: CIL module
 0001:00010db0       _fs_fixup_k                10011db0 f    CIL library: CIL module
 0001:00010eb0       _var_lookup_uv             10011eb0 f    CIL library: CIL module
 0001:00010f20       _var_new                   10011f20 f    CIL library: CIL module
 0001:00010fb0       _bcreg_bump                10011fb0 f    CIL library: CIL module
 0001:00010fe0       _jmp_patchins              10011fe0 f    CIL library: CIL module
 0001:00011010       _fs_init                   10012010 f    CIL library: CIL module
 0001:00011080       _var_lookup_               10012080 f    CIL library: CIL module
 0001:00011130       _bcreg_reserve             10012130 f    CIL library: CIL module
 0001:00011150       _jmp_patchval              10012150 f    CIL library: CIL module
 0001:000111a0       _jmp_append                100121a0 f    CIL library: CIL module
 0001:000111f0       _bcemit_INS                100121f0 f    CIL library: CIL module
 0001:000112a0       _jmp_tohere                100122a0 f    CIL library: CIL module
 0001:000112c0       _assign_hazard             100122c0 f    CIL library: CIL module
 0001:00011320       _bcemit_jmp                10012320 f    CIL library: CIL module
 0001:00011390       _bcemit_nil                10012390 f    CIL library: CIL module
 0001:00011460       _jmp_patch                 10012460 f    CIL library: CIL module
 0001:00011480       _parse_break               10012480 f    CIL library: CIL module
 0001:000114b0       _gola_close                100124b0 f    CIL library: CIL module
 0001:000114f0       _gola_patch                100124f0 f    CIL library: CIL module
 0001:00011550       _const_gc                  10012550 f    CIL library: CIL module
 0001:000115a0       _const_num                 100125a0 f    CIL library: CIL module
 0001:000115d0       _gola_fixup                100125d0 f    CIL library: CIL module
 0001:000116e0       _gola_resolve              100126e0 f    CIL library: CIL module
 0001:00011770       _const_str                 10012770 f    CIL library: CIL module
 0001:00011780       _fscope_end                10012780 f    CIL library: CIL module
 0001:00011810       _expr_discharge            10012810 f    CIL library: CIL module
 0001:000118d0       _parse_block               100128d0 f    CIL library: CIL module
 0001:00011900       _fs_fixup_ret              10012900 f    CIL library: CIL module
 0001:000119f0       _expr_toreg_nobranch       100129f0 f    CIL library: CIL module
 0001:00011b80       _fs_finish                 10012b80 f    CIL library: CIL module
 0001:00011d00       _bcemit_branch             10012d00 f    CIL library: CIL module
 0001:00011da0       _expr_toreg                10012da0 f    CIL library: CIL module
 0001:00011eb0       _bcemit_branch_f           10012eb0 f    CIL library: CIL module
 0001:00011f30       _bcemit_branch_t           10012f30 f    CIL library: CIL module
 0001:00011fc0       _expr_tonextreg            10012fc0 f    CIL library: CIL module
 0001:00012000       _assign_adjust             10013000 f    CIL library: CIL module
 0001:00012070       _expr_toanyreg             10013070 f    CIL library: CIL module
 0001:000120b0       _expr_index                100130b0 f    CIL library: CIL module
 0001:00012140       _bcemit_unop               10013140 f    CIL library: CIL module
 0001:00012290       _bcemit_binop_left         10013290 f    CIL library: CIL module
 0001:000122f0       _bcemit_method             100132f0 f    CIL library: CIL module
 0001:000123e0       _expr_toval                100133e0 f    CIL library: CIL module
 0001:00012410       _lex_str                   10013410 f    CIL library: CIL module
 0001:00012440       _lex_check                 10013440 f    CIL library: CIL module
 0001:00012460       _lex_opt                   10013460 f    CIL library: CIL module
 0001:00012480       _bcemit_comp               10013480 f    CIL library: CIL module
 0001:000125e0       _bcemit_arith              100135e0 f    CIL library: CIL module
 0001:00012700       _bcemit_store              10013700 f    CIL library: CIL module
 0001:00012860       _parse_label               10013860 f    CIL library: CIL module
 0001:00012930       _parse_goto                10013930 f    CIL library: CIL module
 0001:00012990       _parse_params              10013990 f    CIL library: CIL module
 0001:00012a50       _expr_bracket              10013a50 f    CIL library: CIL module
 0001:00012a80       _expr_str                  10013a80 f    CIL library: CIL module
 0001:00012ab0       _lex_match                 10013ab0 f    CIL library: CIL module
 0001:00012b00       _bcemit_binop              10013b00 f    CIL library: CIL module
 0001:00012c40       _parse_body                10013c40 f    CIL library: CIL module
 0001:00012d70       _expr_table                10013d70 f    CIL library: CIL module
 0001:000131d0       _expr_field                100141d0 f    CIL library: CIL module
 0001:00013220       _parse_func                10014220 f    CIL library: CIL module
 0001:000132c0       _expr_simple               100142c0 f    CIL library: CIL module
 0001:000134f0       _expr_unop                 100144f0 f    CIL library: CIL module
 0001:00013550       _expr_binop                10014550 f    CIL library: CIL module
 0001:000135f0       _expr                      100145f0 f    CIL library: CIL module
 0001:00013610       _expr_list                 10014610 f    CIL library: CIL module
 0001:00013660       _parse_for_iter            10014660 f    CIL library: CIL module
 0001:00013830       _parse_return              10014830 f    CIL library: CIL module
 0001:00013930       _parse_local               10014930 f    CIL library: CIL module
 0001:00013a40       _expr_cond                 10014a40 f    CIL library: CIL module
 0001:00013a80       _expr_next                 10014a80 f    CIL library: CIL module
 0001:00013ab0       _parse_args                10014ab0 f    CIL library: CIL module
 0001:00013bf0       _parse_then                10014bf0 f    CIL library: CIL module
 0001:00013c20       _parse_for_num             10014c20 f    CIL library: CIL module
 0001:00013d70       _parse_repeat              10014d70 f    CIL library: CIL module
 0001:00013e50       _parse_while               10014e50 f    CIL library: CIL module
 0001:00013f00       _expr_primary              10014f00 f    CIL library: CIL module
 0001:00014040       _parse_if                  10015040 f    CIL library: CIL module
 0001:00014110       _parse_for                 10015110 f    CIL library: CIL module
 0001:000141a0       _parse_assignment          100151a0 f    CIL library: CIL module
 0001:000142f0       _parse_call_assign         100152f0 f    CIL library: CIL module
 0001:00014340       _parse_stmt                10015340 f    CIL library: CIL module
 0001:000144a0       _parse_chunk               100154a0 f    CIL library: CIL module
 0001:000145c0       _sink_remark_phi           100155c0 f    CIL library: CIL module
 0001:00014640       _sink_mark_snap            10015640 f    CIL library: CIL module
 0001:00014680       _sink_phidep               10015680 f    CIL library: CIL module
 0001:000146f0       _sink_checkalloc           100156f0 f    CIL library: CIL module
 0001:00014750       _sink_sweep_ins            10015750 f    CIL library: CIL module
 0001:000148c0       _sink_checkphi             100158c0 f    CIL library: CIL module
 0001:00014930       _sink_mark_ins             10015930 f    CIL library: CIL module
 0001:00014be0       _narrow_bpc_set            10015be0 f    CIL library: CIL module
 0001:00014c20       _narrow_bpc_get            10015c20 f    CIL library: CIL module
 0001:00014c50       _lj_ir_set_                10015c50 f    CIL library: CIL module
 0001:00014c70       _numberVnum                10015c70 f    CIL library: CIL module
 0001:00014c80       _lj_num2bit                10015c80 f    CIL library: CIL module
 0001:00014ca0       _numisint                  10015ca0 f    CIL library: CIL module
 0001:00014cd0       _narrow_stripov_backprop   10015cd0 f    CIL library: CIL module
 0001:00014d70       _numberVint                10015d70 f    CIL library: CIL module
 0001:00014d90       _narrow_forl               10015d90 f    CIL library: CIL module
 0001:00014db0       _narrow_conv_backprop      10015db0 f    CIL library: CIL module
 0001:000156f0       _narrow_stripov            100166f0 f    CIL library: CIL module
 0001:000157c0       _narrow_conv_emit          100167c0 f    CIL library: CIL module
 0001:00015c60       _reassoc_trycse            10016c60 f    CIL library: CIL module
 0001:00015cb0       _aa_findcnew               10016cb0 f    CIL library: CIL module
 0001:00015d20       _aa_uref                   10016d20 f    CIL library: CIL module
 0001:00015d60       _aa_escape                 10016d60 f    CIL library: CIL module
 0001:00015da0       _aa_cnew                   10016da0 f    CIL library: CIL module
 0001:00015e00       _aa_table                  10016e00 f    CIL library: CIL module
 0001:00015e70       _aa_xref                   10016e70 f    CIL library: CIL module
 0001:00016000       _aa_fref                   10017000 f    CIL library: CIL module
 0001:000160b0       _aa_ahref                  100170b0 f    CIL library: CIL module
 0001:000167e0       _reassoc_xref              100177e0 f    CIL library: CIL module
 0001:00016c90       _fwd_ahload                10017c90 f    CIL library: CIL module
 0001:00016ec0       _fwd_aload_reassoc         10017ec0 f    CIL library: CIL module
 0001:00016fa0       _lj_ir_set_                10017fa0 f    CIL library: CIL module
 0001:00016fc0       _snap_nextofs              10017fc0 f    CIL library: CIL module
 0001:00016fe0       _lj_num2bit                10017fe0 f    CIL library: CIL module
 0001:00017000       _loop_undo                 10018000 f    CIL library: CIL module
 0001:00017080       _loop_subst_snap           10018080 f    CIL library: CIL module
 0001:00017210       _numberVint                10018210 f    CIL library: CIL module
 0001:00017230       _lj_snap_grow_map          10018230 f    CIL library: CIL module
 0001:00017250       _lj_snap_grow_buf          10018250 f    CIL library: CIL module
 0001:00017270       _loop_emit_phi             10018270 f    CIL library: CIL module
 0001:00017570       _loop_unroll               10018570 f    CIL library: CIL module
 0001:000178d0       _cploop_opt                100188d0 f    CIL library: CIL module
 0001:00017970       @fold_barrier_tnew_tdup@4  10018970 f    CIL library: CIL module
 0001:00017990       @fold_fload_cdata_ptr_int64_cnew@4 10018990 f    CIL library: CIL module
 0001:000179b0       @fold_fload_cdata_typeid_cnew@4 100189b0 f    CIL library: CIL module
 0001:000179d0       @fold_fload_cdata_typeid_kgc@4 100189d0 f    CIL library: CIL module
 0001:000179f0       @fold_fload_str_len_snew@4 100189f0 f    CIL library: CIL module
 0001:00017a10       @fold_fload_str_len_kgc@4  10018a10 f    CIL library: CIL module
 0001:00017a30       @fold_kfold_hload_kkptr@4  10018a30 f    CIL library: CIL module
 0001:00017a40       @fold_comm_comp@4          10018a40 f    CIL library: CIL module
 0001:00017a90       @fold_comm_swap@4          10018a90 f    CIL library: CIL module
 0001:00017ac0       @fold_abc_invar@4          10018ac0 f    CIL library: CIL module
 0001:00017ae0       @fold_abc_fwd@4            10018ae0 f    CIL library: CIL module
 0001:00017b80       @fold_reassoc_minmax_right@4 10018b80 f    CIL library: CIL module
 0001:00017ba0       @fold_reassoc_minmax_left@4 10018ba0 f    CIL library: CIL module
 0001:00017bc0       @fold_reassoc_bxor@4       10018bc0 f    CIL library: CIL module
 0001:00017bf0       @fold_reassoc_dup@4        10018bf0 f    CIL library: CIL module
 0001:00017c10       @fold_simplify_shift2_ki@4 10018c10 f    CIL library: CIL module
 0001:00017c40       @fold_simplify_shift1_ki@4 10018c40 f    CIL library: CIL module
 0001:00017c60       @fold_simplify_shift_andk@4 10018c60 f    CIL library: CIL module
 0001:00017cc0       @fold_simplify_bxor_k@4    10018cc0 f    CIL library: CIL module
 0001:00017d10       @fold_simplify_bor_k@4     10018d10 f    CIL library: CIL module
 0001:00017d50       @fold_simplify_band_k@4    10018d50 f    CIL library: CIL module
 0001:00017d90       @fold_simplify_intsubaddadd_cancel@4 10018d90 f    CIL library: CIL module
 0001:00017e20       @fold_simplify_intsubsub_rightcancel@4 10018e20 f    CIL library: CIL module
 0001:00017e50       @fold_simplify_intsubadd_leftcancel@4 10018e50 f    CIL library: CIL module
 0001:00017e80       @fold_simplify_intmod_kleft@4 10018e80 f    CIL library: CIL module
 0001:00017ea0       @fold_simplify_intadd_k64@4 10018ea0 f    CIL library: CIL module
 0001:00017ec0       @fold_simplify_intsub_kleft@4 10018ec0 f    CIL library: CIL module
 0001:00017f00       @fold_simplify_intmul_k@4  10018f00 f    CIL library: CIL module
 0001:00017f40       @fold_simplify_intadd_k@4  10018f40 f    CIL library: CIL module
 0001:00017f60       @fold_simplify_conv_sext@4 10018f60 f    CIL library: CIL module
 0001:00018030       @fold_simplify_floor_conv@4 10019030 f    CIL library: CIL module
 0001:00018050       @fold_simplify_tobit_conv@4 10019050 f    CIL library: CIL module
 0001:00018070       @fold_simplify_conv_flt_num@4 10019070 f    CIL library: CIL module
 0001:00018090       @fold_simplify_conv_int_i64@4 10019090 f    CIL library: CIL module
 0001:000180e0       @fold_simplify_conv_i64_num@4 100190e0 f    CIL library: CIL module
 0001:00018130       @fold_simplify_conv_int_num@4 10019130 f    CIL library: CIL module
 0001:00018150       @fold_shortcut_conv_num_int@4 10019150 f    CIL library: CIL module
 0001:00018170       @fold_simplify_nummuldiv_negneg@4 10019170 f    CIL library: CIL module
 0001:000181a0       @fold_simplify_numsub_xneg@4 100191a0 f    CIL library: CIL module
 0001:000181d0       @fold_simplify_numsub_k@4  100191d0 f    CIL library: CIL module
 0001:000181f0       @fold_simplify_numadd_xneg@4 100191f0 f    CIL library: CIL module
 0001:00018220       @fold_simplify_numadd_negx@4 10019220 f    CIL library: CIL module
 0001:00018250       @fold_shortcut_leftleft@4  10019250 f    CIL library: CIL module
 0001:00018260       @fold_shortcut_dropleft@4  10019260 f    CIL library: CIL module
 0001:00018280       @fold_shortcut_left@4      10019280 f    CIL library: CIL module
 0001:00018290       @fold_shortcut_round@4     10019290 f    CIL library: CIL module
 0001:000182b0       @fold_kfold_kref@4         100192b0 f    CIL library: CIL module
 0001:000182d0       @fold_kfold_conv_knum_u32_num@4 100192d0 f    CIL library: CIL module
 0001:00018310       @fold_kfold_conv_kint64_int_i64@4 10019310 f    CIL library: CIL module
 0001:00018320       @fold_kfold_conv_kint_ext@4 10019320 f    CIL library: CIL module
 0001:00018370       @fold_kfold_add_kright@4   10019370 f    CIL library: CIL module
 0001:000183a0       @fold_kfold_strcmp@4       100193a0 f    CIL library: CIL module
 0001:000183e0       @fold_kfold_int64comp0@4   100193e0 f    CIL library: CIL module
 0001:00018400       @fold_kfold_int64comp@4    10019400 f    CIL library: CIL module
 0001:000184d0       _kfold_int64arith          100194d0 f    CIL library: CIL module
 0001:000185a0       @fold_kfold_intcomp0@4     100195a0 f    CIL library: CIL module
 0001:000185c0       @fold_kfold_intcomp@4      100195c0 f    CIL library: CIL module
 0001:00018670       @fold_kfold_bswap@4        10019670 f    CIL library: CIL module
 0001:00018680       @fold_kfold_bnot@4         10019680 f    CIL library: CIL module
 0001:00018690       _kfold_intop               10019690 f    CIL library: CIL module
 0001:00018740       @fold_kfold_ldexp@4        10019740 f    CIL library: CIL module
 0001:00018750       _ctype_check               10019750 f    CIL library: CIL module
 0001:00018760       _lj_ir_set_                10019760 f    CIL library: CIL module
 0001:00018780       _lj_num2u64                10019780 f    CIL library: CIL module
 0001:000187a0       _lj_num2bit                100197a0 f    CIL library: CIL module
 0001:000187c0       _lj_fls                    100197c0 f    CIL library: CIL module
 0001:000187d0       @fold_comm_dup@4           100197d0 f    CIL library: CIL module
 0001:000187f0       @fold_comm_equal@4         100197f0 f    CIL library: CIL module
 0001:00018820       @fold_simplify_andk_shiftk@4 10019820 f    CIL library: CIL module
 0001:00018860       @fold_kfold_conv_knum_int_num@4 10019860 f    CIL library: CIL module
 0001:000188d0       @fold_kfold_tobit@4        100198d0 f    CIL library: CIL module
 0001:00018900       @fold_kfold_intovarith@4   10019900 f    CIL library: CIL module
 0001:00018970       @fold_kfold_intarith@4     10019970 f    CIL library: CIL module
 0001:000189a0       @fold_kfold_numcomp@4      100199a0 f    CIL library: CIL module
 0001:000189d0       _ctype_get                 100199d0 f    CIL library: CIL module
 0001:000189e0       @fold_fload_tab_tdup_hmask@4 100199e0 f    CIL library: CIL module
 0001:00018a20       @fold_fload_tab_tdup_asize@4 10019a20 f    CIL library: CIL module
 0001:00018a60       @fold_fload_tab_tnew_hmask@4 10019a60 f    CIL library: CIL module
 0001:00018aa0       @fold_fload_tab_tnew_asize@4 10019aa0 f    CIL library: CIL module
 0001:00018ad0       _ctype_child               10019ad0 f    CIL library: CIL module
 0001:00018ae0       _ctype_raw                 10019ae0 f    CIL library: CIL module
 0001:00018b30       _lj_ir_nextins             10019b30 f    CIL library: CIL module
 0001:00018c40       @fold_barrier_tab@4        10019c40 f    CIL library: CIL module
 0001:00018cb0       @fold_fwd_sload@4          10019cb0 f    CIL library: CIL module
 0001:00018ce0       @fold_fload_tab_ah@4       10019ce0 f    CIL library: CIL module
 0001:00018d10       @fold_cse_uref@4           10019d10 f    CIL library: CIL module
 0001:00018df0       @fold_abc_k@4              10019df0 f    CIL library: CIL module
 0001:00018e60       @fold_cse_conv@4           10019e60 f    CIL library: CIL module
 0001:00019080       @fold_fwd_href_tdup@4      1001a080 f    CIL library: CIL module
 0001:000190f0       @fold_fwd_href_tnew@4      1001a0f0 f    CIL library: CIL module
 0001:00019120       @fold_reassoc_intarith_k@4 1001a120 f    CIL library: CIL module
 0001:00019180       @fold_simplify_shiftk_andk@4 1001a180 f    CIL library: CIL module
 0001:000191f0       @fold_simplify_shift_ik@4  1001a1f0 f    CIL library: CIL module
 0001:00019260       @fold_simplify_intsubadd_rightcancel@4 1001a260 f    CIL library: CIL module
 0001:000192c0       @fold_simplify_intsubsub_leftcancel@4 1001a2c0 f    CIL library: CIL module
 0001:00019300       @fold_simplify_intmod_k@4  1001a300 f    CIL library: CIL module
 0001:00019330       _simplify_intmul_k         1001a330 f    CIL library: CIL module
 0001:00019370       @fold_simplify_intsub_k@4  1001a370 f    CIL library: CIL module
 0001:000193a0       @fold_simplify_conv_narrow@4 1001a3a0 f    CIL library: CIL module
 0001:00019430       @fold_kfold_add_kptr@4     1001a430 f    CIL library: CIL module
 0001:00019450       @fold_kfold_add_kgc@4      1001a450 f    CIL library: CIL module
 0001:00019510       @fold_kfold_strref_snew@4  1001a510 f    CIL library: CIL module
 0001:00019580       @fold_kfold_strref@4       1001a580 f    CIL library: CIL module
 0001:000195a0       @fold_kfold_snew_empty@4   1001a5a0 f    CIL library: CIL module
 0001:000195c0       @fold_fload_cdata_int64_kgc@4 1001a5c0 f    CIL library: CIL module
 0001:00019610       _kfold_xload               1001a610 f    CIL library: CIL module
 0001:000196e0       @fold_comm_bxor@4          1001a6e0 f    CIL library: CIL module
 0001:00019730       @fold_reassoc_shift@4      1001a730 f    CIL library: CIL module
 0001:000197d0       @fold_reassoc_intarith_k64@4 1001a7d0 f    CIL library: CIL module
 0001:00019840       @fold_simplify_intsub@4    1001a840 f    CIL library: CIL module
 0001:00019890       @fold_simplify_intmul_k64@4 1001a890 f    CIL library: CIL module
 0001:000198b0       @fold_simplify_intmul_k32@4 1001a8b0 f    CIL library: CIL module
 0001:000198e0       @fold_simplify_intsub_k64@4 1001a8e0 f    CIL library: CIL module
 0001:00019930       @fold_simplify_numpow_kx@4 1001a930 f    CIL library: CIL module
 0001:000199a0       @fold_simplify_numpow_xk@4 1001a9a0 f    CIL library: CIL module
 0001:00019ad0       @fold_simplify_nummuldiv_k@4 1001aad0 f    CIL library: CIL module
 0001:00019bd0       @fold_kfold_conv_knum_u64_num@4 1001abd0 f    CIL library: CIL module
 0001:00019c10       @fold_kfold_conv_knum_i64_num@4 1001ac10 f    CIL library: CIL module
 0001:00019c30       @fold_kfold_conv_kint_i64@4 1001ac30 f    CIL library: CIL module
 0001:00019c70       @fold_kfold_snew_kptr@4    1001ac70 f    CIL library: CIL module
 0001:00019ca0       @fold_kfold_bswap64@4      1001aca0 f    CIL library: CIL module
 0001:00019cd0       @fold_kfold_bnot64@4       1001acd0 f    CIL library: CIL module
 0001:00019cf0       @fold_kfold_int64shift@4   1001acf0 f    CIL library: CIL module
 0001:00019e20       @fold_kfold_int64arith2@4  1001ae20 f    CIL library: CIL module
 0001:00019f00       @fold_kfold_int64arith@4   1001af00 f    CIL library: CIL module
 0001:00019f40       _lj_ir_knum                1001af40 f    CIL library: CIL module
 0001:00019f60       @fold_xload_kptr@4         1001af60 f    CIL library: CIL module
 0001:00019f70       @fold_merge_eqne_snew_kgc@4 1001af70 f    CIL library: CIL module
 0001:0001a0b0       @fold_reassoc_minmax_k@4   1001b0b0 f    CIL library: CIL module
 0001:0001a1a0       @fold_narrow_convert@4     1001b1a0 f    CIL library: CIL module
 0001:0001a1c0       @fold_simplify_nummuldiv_negk@4 1001b1c0 f    CIL library: CIL module
 0001:0001a210       @fold_simplify_numsub_negk@4 1001b210 f    CIL library: CIL module
 0001:0001a260       @fold_kfold_strto@4        1001b260 f    CIL library: CIL module
 0001:0001a2b0       @fold_kfold_tostr_kint@4   1001b2b0 f    CIL library: CIL module
 0001:0001a2d0       @fold_kfold_tostr_knum@4   1001b2d0 f    CIL library: CIL module
 0001:0001a2f0       @fold_kfold_conv_kint64_num_u64@4 1001b2f0 f    CIL library: CIL module
 0001:0001a350       @fold_kfold_conv_kint64_num_i64@4 1001b350 f    CIL library: CIL module
 0001:0001a380       @fold_kfold_conv_kintu32_num@4 1001b380 f    CIL library: CIL module
 0001:0001a3c0       @fold_kfold_conv_kint_num@4 1001b3c0 f    CIL library: CIL module
 0001:0001a3f0       @fold_kfold_numpow@4       1001b3f0 f    CIL library: CIL module
 0001:0001a440       @fold_kfold_fpmath@4       1001b440 f    CIL library: CIL module
 0001:0001a480       @fold_kfold_numarith@4     1001b480 f    CIL library: CIL module
 0001:0001a4d0       _dce_marksnap              1001b4d0 f    CIL library: CIL module
 0001:0001a530       _ir_sideeff                1001b530 f    CIL library: CIL module
 0001:0001a550       _dce_propagate             1001b550 f    CIL library: CIL module
 0001:0001a650       _numberVnum                1001b650 f    CIL library: CIL module
 0001:0001a6a0       _lj_gc_barrierback         1001b6a0 f    CIL library: CIL module
 0001:0001a6b0       _lj_num2bit                1001b6b0 f    CIL library: CIL module
 0001:0001a6d0       _copyTV                    1001b6d0 f    CIL library: CIL module
 0001:0001a6e0       _setintV                   1001b6e0 f    CIL library: CIL module
 0001:0001a6f0       _setgcV                    1001b6f0 f    CIL library: CIL module
 0001:0001a700       _setlightudV               1001b700 f    CIL library: CIL module
 0001:0001a710       _mmcall                    1001b710 f    CIL library: CIL module
 0001:0001a830       _setstrV                   1001b830 f    CIL library: CIL module
 0001:0001aa00       _str2num                   1001ba00 f    CIL library: CIL module
 0001:0001aa30       _lj_strscan_numberobj      1001ba30 f    CIL library: CIL module
 0001:0001af10       _tostring                  1001bf10 f    CIL library: CIL module
 0001:0001b360       _mcode_setprot             1001c360 f    CIL library: CIL module
 0001:0001b380       _mcode_free                1001c380 f    CIL library: CIL module
 0001:0001b3d0       _mcode_protect             1001c3d0 f    CIL library: CIL module
 0001:0001b4c0       _mcode_alloc_at            1001c4c0 f    CIL library: CIL module
 0001:0001b4e0       _mcode_allocarea           1001c4e0 f    CIL library: CIL module
 0001:0001b600       _reader_string             1001c600 f    CIL library: CIL module
 0001:0001b620       _reader_file               1001c620 f    CIL library: CIL module
 0001:0001b670       _copyTV                    1001c670 f    CIL library: CIL module
 0001:0001b680       _setgcV                    1001c680 f    CIL library: CIL module
 0001:0001b690       _setfuncV                  1001c690 f    CIL library: CIL module
 0001:0001b6a0       _setstrV                   1001c6a0 f    CIL library: CIL module
 0001:0001b6f0       _cpparser                  1001c6f0 f    CIL library: CIL module
 0001:0001ba30       _lj_gc_barrierback         1001ca30 f    CIL library: CIL module
 0001:0001ba40       _lj_num2bit                1001ca40 f    CIL library: CIL module
 0001:0001ba60       _copyTV                    1001ca60 f    CIL library: CIL module
 0001:0001ba70       _setintV                   1001ca70 f    CIL library: CIL module
 0001:0001ba80       _setgcV                    1001ca80 f    CIL library: CIL module
 0001:0001ba90       _settabV                   1001ca90 f    CIL library: CIL module
 0001:0001baa0       _setfuncV                  1001caa0 f    CIL library: CIL module
 0001:0001bab0       _setstrV                   1001cab0 f    CIL library: CIL module
 0001:0001bac0       _lj_strscan_numberobj      1001cac0 f    CIL library: CIL module
 0001:0001be10       _lib_create_table          1001ce10 f    CIL library: CIL module
 0001:0001c160       _fillbuf                   1001d160 f    CIL library: CIL module
 0001:0001c1a0       _lj_mem_free               1001d1a0 f    CIL library: CIL module
 0001:0001c1c0       _setgcV                    1001d1c0 f    CIL library: CIL module
 0001:0001c230       _setstrV                   1001d230 f    CIL library: CIL module
 0001:0001c240       _save_grow                 1001d240 f    CIL library: CIL module
 0001:0001c290       _lj_cdata_new_             1001d290 f    CIL library: CIL module
 0001:0001c2b0       _save                      1001d2b0 f    CIL library: CIL module
 0001:0001c320       _skip_sep                  1001d320 f    CIL library: CIL module
 0001:0001c450       _inclinenumber             1001d450 f    CIL library: CIL module
 0001:0001c660       _read_string               1001d660 f    CIL library: CIL module
 0001:0001cb90       _read_long_string          1001db90 f    CIL library: CIL module
 0001:0001cdb0       _lex_number                1001ddb0 f    CIL library: CIL module
 0001:0001cfa0       _llex                      1001dfa0 f    CIL library: CIL module
 0001:0001d7b0       _lj_ir_set_                1001e7b0 f    CIL library: CIL module
 0001:0001d7d0       _irt_toitype_              1001e7d0 f    CIL library: CIL module
 0001:0001d7e0       _lj_mem_free               1001e7e0 f    CIL library: CIL module
 0001:0001d800       _lj_num2bit                1001e800 f    CIL library: CIL module
 0001:0001d820       _setintV                   1001e820 f    CIL library: CIL module
 0001:0001d830       _setgcV                    1001e830 f    CIL library: CIL module
 0001:0001d840       _setlightudV               1001e840 f    CIL library: CIL module
 0001:0001d850       _numistrueint              1001e850 f    CIL library: CIL module
 0001:0001d8e0       _setcdataV                 1001e8e0 f    CIL library: CIL module
 0001:0001d990       _lj_ir_growbot             1001e990 f    CIL library: CIL module
 0001:0001db30       _lj_cdata_new_             1001eb30 f    CIL library: CIL module
 0001:0001db50       _lj_ir_nextins             1001eb50 f    CIL library: CIL module
 0001:0001dc20       _ir_nextk                  1001ec20 f    CIL library: CIL module
 0001:0001e1b0       _lj_ir_knum                1001f1b0 f    CIL library: CIL module
 0001:0001e220       _gc_mayclear               1001f220 f    CIL library: CIL module
 0001:0001e260       _gc_sweep                  1001f260 f    CIL library: CIL module
 0001:0001e300       _gc_marktrace              1001f300 f    CIL library: CIL module
 0001:0001e330       _gc_mark                   1001f330 f    CIL library: CIL module
 0001:0001e3c0       _copyTV                    1001f3c0 f    CIL library: CIL module
 0001:0001e3d0       _setgcV                    1001f3d0 f    CIL library: CIL module
 0001:0001e4a0       _gc_clearweak              1001f4a0 f    CIL library: CIL module
 0001:0001e540       _gc_traverse_frames        1001f540 f    CIL library: CIL module
 0001:0001e5d0       _gc_traverse_proto         1001f5d0 f    CIL library: CIL module
 0001:0001e630       _gc_traverse_trace         1001f630 f    CIL library: CIL module
 0001:0001e6d0       _gc_traverse_func          1001f6d0 f    CIL library: CIL module
 0001:0001e770       _gc_traverse_tab           1001f770 f    CIL library: CIL module
 0001:0001e970       _gc_mark_mmudata           1001f970 f    CIL library: CIL module
 0001:0001e9b0       _gc_mark_uv                1001f9b0 f    CIL library: CIL module
 0001:0001ea00       _gc_mark_gcroot            1001fa00 f    CIL library: CIL module
 0001:0001ea40       _setcdataV                 1001fa40 f    CIL library: CIL module
 0001:0001eac0       _gc_traverse_thread        1001fac0 f    CIL library: CIL module
 0001:0001eb60       _gc_mark_start             1001fb60 f    CIL library: CIL module
 0001:0001ebd0       _propagatemark             1001fbd0 f    CIL library: CIL module
 0001:0001eca0       _gc_propagate_gray         1001fca0 f    CIL library: CIL module
 0001:0001ecc0       _atomic                    1001fcc0 f    CIL library: CIL module
 0001:0001ed60       _gc_call_finalizer         1001fd60 f    CIL library: CIL module
 0001:0001ef40       _gc_shrink                 1001ff40 f    CIL library: CIL module
 0001:0001ef90       _gc_finalize               1001ff90 f    CIL library: CIL module
 0001:0001f080       _gc_onestep                10020080 f    CIL library: CIL module
 0001:0001f3c0       _unlinkuv                  100203c0 f    CIL library: CIL module
 0001:0001f3e0       _lj_mem_free               100203e0 f    CIL library: CIL module
 0001:0001f4e0       _func_newL                 100204e0 f    CIL library: CIL module
 0001:0001f560       _func_emptyuv              10020560 f    CIL library: CIL module
 0001:0001f580       _func_finduv               10020580 f    CIL library: CIL module
 0001:0001f740       _recdef_lookup             10020740 f    CIL library: CIL module
 0001:0001f760       @recff_assert@8            10020760 f    CIL library: CIL module
 0001:0001f770       _results_wanted            10020770 f    CIL library: CIL module
 0001:0001f790       _lj_ir_set_                10020790 f    CIL library: CIL module
 0001:0001f7b0       _numberVnum                100207b0 f    CIL library: CIL module
 0001:0001f7c0       _lj_num2bit                100207c0 f    CIL library: CIL module
 0001:0001f7e0       _copyTV                    100207e0 f    CIL library: CIL module
 0001:0001f7f0       _setintV                   100207f0 f    CIL library: CIL module
 0001:0001f800       _setgcV                    10020800 f    CIL library: CIL module
 0001:0001f810       _numberVint                10020810 f    CIL library: CIL module
 0001:0001f830       _settabV                   10020830 f    CIL library: CIL module
 0001:0001f840       _setfuncV                  10020840 f    CIL library: CIL module
 0001:0001f850       _setstrV                   10020850 f    CIL library: CIL module
 0001:0001f860       _lj_strscan_numberobj      10020860 f    CIL library: CIL module
 0001:0001f890       @recff_c@8                 10020890 f    CIL library: CIL module
 0001:0001f8b0       @recff_nyi@8               100208b0 f    CIL library: CIL module
 0001:0001f8d0       _recff_nyiu                100208d0 f    CIL library: CIL module
 0001:0001f8f0       _argv2int                  100208f0 f    CIL library: CIL module
 0001:0001f930       @recff_ipairs@8            10020930 f    CIL library: CIL module
 0001:0001f990       @recff_type@8              10020990 f    CIL library: CIL module
 0001:0001f9d0       _recff_io_fp               100209d0 f    CIL library: CIL module
 0001:0001fac0       @recff_table_getn@8        10020ac0 f    CIL library: CIL module
 0001:0001faf0       @recff_string_len@8        10020af0 f    CIL library: CIL module
 0001:0001fb20       @recff_math_random@8       10020b20 f    CIL library: CIL module
 0001:0001fc80       @recff_math_minmax@8       10020c80 f    CIL library: CIL module
 0001:0001fd80       @recff_math_modf@8         10020d80 f    CIL library: CIL module
 0001:0001fe10       @recff_math_htrig@8        10020e10 f    CIL library: CIL module
 0001:0001fe50       @recff_math_atrig@8        10020e50 f    CIL library: CIL module
 0001:0001ff00       @recff_math_ldexp@8        10020f00 f    CIL library: CIL module
 0001:0001ff40       @recff_math_atan2@8        10020f40 f    CIL library: CIL module
 0001:0001ff80       @recff_math_log@8          10020f80 f    CIL library: CIL module
 0001:00020050       @recff_math_unary@8        10021050 f    CIL library: CIL module
 0001:00020090       @recff_math_round@8        10021090 f    CIL library: CIL module
 0001:000200e0       @recff_math_abs@8          100210e0 f    CIL library: CIL module
 0001:00020200       _lj_ir_knum                10021200 f    CIL library: CIL module
 0001:00020220       @recff_io_flush@8          10021220 f    CIL library: CIL module
 0001:00020290       @recff_io_write@8          10021290 f    CIL library: CIL module
 0001:00020410       @recff_math_pow@8          10021410 f    CIL library: CIL module
 0001:00020470       @recff_math_degrad@8       10021470 f    CIL library: CIL module
 0001:000204d0       @recff_select@8            100214d0 f    CIL library: CIL module
 0001:00020560       @recff_rawequal@8          10021560 f    CIL library: CIL module
 0001:000205a0       @recff_bit_shift@8         100215a0 f    CIL library: CIL module
 0001:000205f0       @recff_bit_nary@8          100215f0 f    CIL library: CIL module
 0001:00020680       @recff_bit_unary@8         10021680 f    CIL library: CIL module
 0001:000206c0       _argv2str                  100216c0 f    CIL library: CIL module
 0001:00020760       @recff_table_insert@8      10021760 f    CIL library: CIL module
 0001:00020820       @recff_table_remove@8      10021820 f    CIL library: CIL module
 0001:00020940       @recff_string_range@8      10021940 f    CIL library: CIL module
 0001:00020e10       @recff_ipairs_aux@8        10021e10 f    CIL library: CIL module
 0001:00020ef0       @recff_rawset@8            10021ef0 f    CIL library: CIL module
 0001:00020f70       @recff_rawget@8            10021f70 f    CIL library: CIL module
 0001:00020fe0       @recff_setmetatable@8      10021fe0 f    CIL library: CIL module
 0001:000210d0       @recff_getmetatable@8      100220d0 f    CIL library: CIL module
 0001:00021130       _recff_xpcall_cp           10022130 f    CIL library: CIL module
 0001:00021150       @recff_pcall@8             10022150 f    CIL library: CIL module
 0001:00021180       _recff_metacall_cp         10022180 f    CIL library: CIL module
 0001:000211a0       @recff_xpcall@8            100221a0 f    CIL library: CIL module
 0001:00021250       _recff_metacall            10022250 f    CIL library: CIL module
 0001:00021310       @recff_tonumber@8          10022310 f    CIL library: CIL module
 0001:000213f0       @recff_tostring@8          100223f0 f    CIL library: CIL module
 0001:00021470       _cur_topslot               10022470 f    CIL library: CIL module
 0001:00021640       _bc_isret                  10022640 f    CIL library: CIL module
 0001:000218a0       _setptmode                 100228a0 f    CIL library: CIL module
 0001:000218d0       _setptmode_all             100228d0 f    CIL library: CIL module
 0001:00021930       _lj_state_checkstack       10022930 f    CIL library: CIL module
 0001:00021950       _call_init                 10022950 f    CIL library: CIL module
 0001:000219c0       _callhook                  100229c0 f    CIL library: CIL module
 0001:00021ff0       _debug_read_uleb128        10022ff0 f    CIL library: CIL module
 0001:00022080       _debug_framepc             10023080 f    CIL library: CIL module
 0001:000221c0       _copyTV                    100231c0 f    CIL library: CIL module
 0001:000221d0       _setgcV                    100231d0 f    CIL library: CIL module
 0001:00022280       _debug_varname             10023280 f    CIL library: CIL module
 0001:00022310       _debug_frameline           10023310 f    CIL library: CIL module
 0001:00022330       _settabV                   10023330 f    CIL library: CIL module
 0001:00022340       _setfuncV                  10023340 f    CIL library: CIL module
 0001:00022500       _debug_localname           10023500 f    CIL library: CIL module
 0001:00022de0       _ctype_appnum              10023de0 f    CIL library: CIL module
 0001:00022e50       _ctype_appc                10023e50 f    CIL library: CIL module
 0001:00022e70       _ctype_prepnum             10023e70 f    CIL library: CIL module
 0001:00022eb0       _ctype_prepc               10023eb0 f    CIL library: CIL module
 0001:00022ed0       _ctype_prepstr             10023ed0 f    CIL library: CIL module
 0001:00022f30       _ctype_setname             10023f30 f    CIL library: CIL module
 0001:00022f40       _ctype_check               10023f40 f    CIL library: CIL module
 0001:00022f50       _hashrot                   10023f50 f    CIL library: CIL module
 0001:00022f70       _lj_mem_free               10023f70 f    CIL library: CIL module
 0001:00023000       _ctype_prepqual            10024000 f    CIL library: CIL module
 0001:00023080       _ctype_addtype             10024080 f    CIL library: CIL module
 0001:000230c0       _ctype_get                 100240c0 f    CIL library: CIL module
 0001:000230d0       _ctype_preptype            100240d0 f    CIL library: CIL module
 0001:00023310       _ctype_child               10024310 f    CIL library: CIL module
 0001:00023320       _ctype_repr                10024320 f    CIL library: CIL module
 0001:000238d0       _ctype_rawchild            100248d0 f    CIL library: CIL module
 0001:00023900       _ctype_raw                 10024900 f    CIL library: CIL module
 0001:00023e90       _crec_reassoc_ofs          10024e90 f    CIL library: CIL module
 0001:00023ef0       _crec_isnonzero            10024ef0 f    CIL library: CIL module
 0001:00023f70       _lj_ir_set_                10024f70 f    CIL library: CIL module
 0001:00023f90       _cconv_idx                 10024f90 f    CIL library: CIL module
 0001:00023fc0       _cdata_getptr              10024fc0 f    CIL library: CIL module
 0001:00023fd0       _ctype_check               10024fd0 f    CIL library: CIL module
 0001:00023fe0       _setintV                   10024fe0 f    CIL library: CIL module
 0001:00023ff0       _setgcV                    10024ff0 f    CIL library: CIL module
 0001:00024000       _setlightudV               10025000 f    CIL library: CIL module
 0001:00024010       _lj_fls                    10025010 f    CIL library: CIL module
 0001:00024020       _crec_fill_unroll          10025020 f    CIL library: CIL module
 0001:00024090       _crec_copy_unroll          10025090 f    CIL library: CIL module
 0001:00024100       _ctype_get                 10025100 f    CIL library: CIL module
 0001:00024110       _setfuncV                  10025110 f    CIL library: CIL module
 0001:00024120       _ctype_child               10025120 f    CIL library: CIL module
 0001:00024130       _crec_ct2irt               10025130 f    CIL library: CIL module
 0001:000241d0       _ctype_rawchild            100251d0 f    CIL library: CIL module
 0001:00024200       _ctype_raw                 10025200 f    CIL library: CIL module
 0001:00024250       _crec_copy_struct          10025250 f    CIL library: CIL module
 0001:00024330       _crec_snap_caller          10025330 f    CIL library: CIL module
 0001:00024490       _crec_arith_int64          10025490 f    CIL library: CIL module
 0001:00024710       _crec_finalizer            10025710 f    CIL library: CIL module
 0001:000247f0       _crec_fill_emit            100257f0 f    CIL library: CIL module
 0001:00024850       _crec_copy_emit            10025850 f    CIL library: CIL module
 0001:00024960       _crec_constructor          10025960 f    CIL library: CIL module
 0001:000249c0       _argv2cdata                100259c0 f    CIL library: CIL module
 0001:00024a30       _lj_ir_knum                10025a30 f    CIL library: CIL module
 0001:00024a80       _crec_arith_meta           10025a80 f    CIL library: CIL module
 0001:00024c00       _crec_arith_ptr            10025c00 f    CIL library: CIL module
 0001:00024ea0       _crec_tv_ct                10025ea0 f    CIL library: CIL module
 0001:00025180       _crec_fill                 10026180 f    CIL library: CIL module
 0001:000252a0       _crec_copy                 100262a0 f    CIL library: CIL module
 0001:00025930       _crec_index_meta           10026930 f    CIL library: CIL module
 0001:00025a20       _crec_ct_ct                10026a20 f    CIL library: CIL module
 0001:00026080       _crec_ct_tv                10027080 f    CIL library: CIL module
 0001:000265e0       _crec_toint                100275e0 f    CIL library: CIL module
 0001:00026820       _crec_call_args            10027820 f    CIL library: CIL module
 0001:00026ae0       _crec_alloc                10027ae0 f    CIL library: CIL module
 0001:00027900       _crec_call                 10028900 f    CIL library: CIL module
 0001:00027db0       _argv2ctype                10028db0 f    CIL library: CIL module
 0001:00028080       _cp_field_align            10029080 f    CIL library: CIL module
 0001:00028090       _cp_decl_reset             10029090 f    CIL library: CIL module
 0001:000280c0       _cp_istypedecl             100290c0 f    CIL library: CIL module
 0001:00028100       _cp_rawpeek                10029100 f    CIL library: CIL module
 0001:00028110       _cp_iseol                  10029110 f    CIL library: CIL module
 0001:00028130       _ctype_setname             10029130 f    CIL library: CIL module
 0001:00028140       _ctype_check               10029140 f    CIL library: CIL module
 0001:00028150       _lj_mem_free               10029150 f    CIL library: CIL module
 0001:00028170       _lj_num2bit                10029170 f    CIL library: CIL module
 0001:00028190       _lj_fls                    10029190 f    CIL library: CIL module
 0001:000281a0       _cp_cleanup                100291a0 f    CIL library: CIL module
 0001:000281c0       _cp_newline                100291c0 f    CIL library: CIL module
 0001:000281e0       _cp_get_bs                 100291e0 f    CIL library: CIL module
 0001:00028240       _ctype_get                 10029240 f    CIL library: CIL module
 0001:00028250       _numberVint                10029250 f    CIL library: CIL module
 0001:00028270       _cp_get                    10029270 f    CIL library: CIL module
 0001:00028290       _ctype_child               10029290 f    CIL library: CIL module
 0001:000282a0       _cp_comment_cpp            100292a0 f    CIL library: CIL module
 0001:000282d0       _cp_comment_c              100292d0 f    CIL library: CIL module
 0001:00028350       _ctype_rawchild            10029350 f    CIL library: CIL module
 0001:00028380       _ctype_raw                 10029380 f    CIL library: CIL module
 0001:000283d0       _cp_save_grow              100293d0 f    CIL library: CIL module
 0001:00028410       _cp_save                   10029410 f    CIL library: CIL module
 0001:00028440       _cp_tok2str                10029440 f    CIL library: CIL module
 0001:00028480       _cp_ident                  10029480 f    CIL library: CIL module
 0001:00028530       _cp_errmsg                 10029530 f    CIL library: CIL module
 0001:00028600       _cp_number                 10029600 f    CIL library: CIL module
 0001:000286e0       _cp_err                    100296e0 f    CIL library: CIL module
 0001:00028700       _cp_err_badidx             10029700 f    CIL library: CIL module
 0001:00028730       _cp_err_token              10029730 f    CIL library: CIL module
 0001:00028750       _cp_struct_layout          10029750 f    CIL library: CIL module
 0001:000289a0       _cp_decl_intern            100299a0 f    CIL library: CIL module
 0001:00028dd0       _cp_add                    10029dd0 f    CIL library: CIL module
 0001:00028e30       _cp_string                 10029e30 f    CIL library: CIL module
 0001:00029170       _cp_param                  1002a170 f    CIL library: CIL module
 0001:00029270       _cp_push                   1002a270 f    CIL library: CIL module
 0001:00029290       _cp_next_                  1002a290 f    CIL library: CIL module
 0001:000296c0       _cp_push_type              1002a6c0 f    CIL library: CIL module
 0001:000297f0       _cp_push_attributes        1002a7f0 f    CIL library: CIL module
 0001:00029850       _cp_next                   1002a850 f    CIL library: CIL module
 0001:00029860       _cp_check                  1002a860 f    CIL library: CIL module
 0001:00029880       _cp_opt                    1002a880 f    CIL library: CIL module
 0001:000298a0       _cp_init                   1002a8a0 f    CIL library: CIL module
 0001:00029910       _cp_pragma                 1002a910 f    CIL library: CIL module
 0001:00029a40       _cp_decl_func              1002aa40 f    CIL library: CIL module
 0001:00029ca0       _cp_decl_array             1002aca0 f    CIL library: CIL module
 0001:00029d00       _cp_decl_mode              1002ad00 f    CIL library: CIL module
 0001:00029e10       _cp_decl_asm               1002ae10 f    CIL library: CIL module
 0001:00029e90       _cp_expr_comma             1002ae90 f    CIL library: CIL module
 0001:00029eb0       _cp_declarator             1002aeb0 f    CIL library: CIL module
 0001:0002a060       _cp_expr_postfix           1002b060 f    CIL library: CIL module
 0001:0002a200       _cp_decl_abstract          1002b200 f    CIL library: CIL module
 0001:0002a240       _cp_expr_sizeof            1002b240 f    CIL library: CIL module
 0001:0002a300       _cp_expr_prefix            1002b300 f    CIL library: CIL module
 0001:0002a590       _cp_expr_unary             1002b590 f    CIL library: CIL module
 0001:0002a5d0       _cp_expr_infix             1002b5d0 f    CIL library: CIL module
 0001:0002ab30       _cp_expr_sub               1002bb30 f    CIL library: CIL module
 0001:0002ab60       _cp_decl_constinit         1002bb60 f    CIL library: CIL module
 0001:0002ac50       _cp_expr_kint              1002bc50 f    CIL library: CIL module
 0001:0002acc0       _cp_expr_ksize             1002bcc0 f    CIL library: CIL module
 0001:0002ad00       _cp_decl_sizeattr          1002bd00 f    CIL library: CIL module
 0001:0002ad40       _cp_decl_align             1002bd40 f    CIL library: CIL module
 0001:0002ad80       _cp_decl_msvcattribute     1002bd80 f    CIL library: CIL module
 0001:0002ae10       _cp_decl_gccattribute      1002be10 f    CIL library: CIL module
 0001:0002b050       _cp_decl_attributes        1002c050 f    CIL library: CIL module
 0001:0002b120       _cp_struct_name            1002c120 f    CIL library: CIL module
 0001:0002b250       _cp_decl_enum              1002c250 f    CIL library: CIL module
 0001:0002b3e0       _cp_decl_struct            1002c3e0 f    CIL library: CIL module
 0001:0002b6d0       _cp_decl_spec              1002c6d0 f    CIL library: CIL module
 0001:0002b9b0       _cp_decl_single            1002c9b0 f    CIL library: CIL module
 0001:0002ba00       _cp_decl_multi             1002ca00 f    CIL library: CIL module
 0001:0002bc80       _cpcparser                 1002cc80 f    CIL library: CIL module
 0001:0002bd50       _clib_getsym               1002cd50 f    CIL library: CIL module
 0001:0002be40       _clib_unloadlib            1002ce40 f    CIL library: CIL module
 0001:0002be90       _clib_needext              1002ce90 f    CIL library: CIL module
 0001:0002bec0       _ctype_check               1002cec0 f    CIL library: CIL module
 0001:0002bed0       _ctype_cts                 1002ced0 f    CIL library: CIL module
 0001:0002bee0       _setintV                   1002cee0 f    CIL library: CIL module
 0001:0002bef0       _setgcV                    1002cef0 f    CIL library: CIL module
 0001:0002bf10       _ctype_get                 1002cf10 f    CIL library: CIL module
 0001:0002bf20       _setudataV                 1002cf20 f    CIL library: CIL module
 0001:0002bf30       _setcdataV                 1002cf30 f    CIL library: CIL module
 0001:0002bf40       _clib_extsym               1002cf40 f    CIL library: CIL module
 0001:0002bf70       _ctype_child               1002cf70 f    CIL library: CIL module
 0001:0002bf80       _ctype_rawchild            1002cf80 f    CIL library: CIL module
 0001:0002bfb0       _clib_func_argsize         1002cfb0 f    CIL library: CIL module
 0001:0002c020       _lj_cdata_new              1002d020 f    CIL library: CIL module
 0001:0002c040       _clib_extname              1002d040 f    CIL library: CIL module
 0001:0002c070       _clib_new                  1002d070 f    CIL library: CIL module
 0001:0002c0e0       _clib_error                1002d0e0 f    CIL library: CIL module
 0001:0002c2f0       _clib_loadlib              1002d2f0 f    CIL library: CIL module
 0001:0002c370       _cdata_getptr              1002d370 f    CIL library: CIL module
 0001:0002c380       _ctype_check               1002d380 f    CIL library: CIL module
 0001:0002c390       _lj_mem_free               1002d390 f    CIL library: CIL module
 0001:0002c3b0       _lj_gc_barrierback         1002d3b0 f    CIL library: CIL module
 0001:0002c3c0       _lj_num2bit                1002d3c0 f    CIL library: CIL module
 0001:0002c3e0       _setintV                   1002d3e0 f    CIL library: CIL module
 0001:0002c3f0       _setgcV                    1002d3f0 f    CIL library: CIL module
 0001:0002c400       _ctype_get                 1002d400 f    CIL library: CIL module
 0001:0002c410       _setcdataV                 1002d410 f    CIL library: CIL module
 0001:0002c420       _ctype_child               1002d420 f    CIL library: CIL module
 0001:0002c430       _cdata_getconst            1002d430 f    CIL library: CIL module
 0001:0002c470       _ctype_rawchild            1002d470 f    CIL library: CIL module
 0001:0002c4a0       _ctype_raw                 1002d4a0 f    CIL library: CIL module
 0001:0002c650       _lj_cdata_new              1002d650 f    CIL library: CIL module
 0001:0002cc90       _cconv_idx                 1002dc90 f    CIL library: CIL module
 0001:0002ccc0       _cdata_setptr              1002dcc0 f    CIL library: CIL module
 0001:0002ccd0       _cdata_getptr              1002dcd0 f    CIL library: CIL module
 0001:0002cce0       _ctype_check               1002dce0 f    CIL library: CIL module
 0001:0002ccf0       _lj_num2u64                1002dcf0 f    CIL library: CIL module
 0001:0002cd10       _setintV                   1002dd10 f    CIL library: CIL module
 0001:0002cd20       _setgcV                    1002dd20 f    CIL library: CIL module
 0001:0002cd30       _ctype_get                 1002dd30 f    CIL library: CIL module
 0001:0002cd40       _setcdataV                 1002dd40 f    CIL library: CIL module
 0001:0002cd50       _ctype_child               1002dd50 f    CIL library: CIL module
 0001:0002cdc0       _cconv_childqual           1002ddc0 f    CIL library: CIL module
 0001:0002ce20       _ctype_rawchild            1002de20 f    CIL library: CIL module
 0001:0002ce50       _ctype_raw                 1002de50 f    CIL library: CIL module
 0001:0002cfc0       _lj_cdata_new              1002dfc0 f    CIL library: CIL module
 0001:0002d0d0       _cconv_substruct_tab       1002e0d0 f    CIL library: CIL module
 0001:0002d350       _cconv_err_initov          1002e350 f    CIL library: CIL module
 0001:0002d380       _cconv_struct_tab          1002e380 f    CIL library: CIL module
 0001:0002d3c0       _cconv_array_tab           1002e3c0 f    CIL library: CIL module
 0001:0002d4b0       _cconv_err_convtv          1002e4b0 f    CIL library: CIL module
 0001:0002d510       _cconv_err_conv            1002e510 f    CIL library: CIL module
 0001:0002e090       _cconv_substruct_init      1002f090 f    CIL library: CIL module
 0001:0002e1e0       _cconv_array_init          1002f1e0 f    CIL library: CIL module
 0001:0002e2b0       _cconv_struct_init         1002f2b0 f    CIL library: CIL module
 0001:0002e3d0       _callback_mcode_init       1002f3d0 f    CIL library: CIL module
 0001:0002e450       _callback_slot2ptr         1002f450 f    CIL library: CIL module
 0001:0002e470       _CALLBACK_OFS2SLOT         1002f470 f    CIL library: CIL module
 0001:0002e4a0       _ctype_check               1002f4a0 f    CIL library: CIL module
 0001:0002e4b0       _lj_gc_barrierback         1002f4b0 f    CIL library: CIL module
 0001:0002e4c0       _setgcV                    1002f4c0 f    CIL library: CIL module
 0001:0002e500       _ctype_get                 1002f500 f    CIL library: CIL module
 0001:0002e510       _setfuncV                  1002f510 f    CIL library: CIL module
 0001:0002e520       _setstrV                   1002f520 f    CIL library: CIL module
 0001:0002e530       _ctype_child               1002f530 f    CIL library: CIL module
 0001:0002e540       _ctype_rawchild            1002f540 f    CIL library: CIL module
 0001:0002e570       _ctype_raw                 1002f570 f    CIL library: CIL module
 0001:0002e5c0       _callback_checkfunc        1002f5c0 f    CIL library: CIL module
 0001:0002e700       _lj_state_checkstack       1002f700 f    CIL library: CIL module
 0001:0002e720       _callback_mcode_new        1002f720 f    CIL library: CIL module
 0001:0002e780       _callback_slot_new         1002f780 f    CIL library: CIL module
 0001:0002e8b0       _callback_conv_result      1002f8b0 f    CIL library: CIL module
 0001:0002e9a0       _callback_conv_args        1002f9a0 f    CIL library: CIL module
 0001:0002ec70       _cdata_getptr              1002fc70 f    CIL library: CIL module
 0001:0002ec80       _ctype_check               1002fc80 f    CIL library: CIL module
 0001:0002ec90       _ctype_cts                 1002fc90 f    CIL library: CIL module
 0001:0002eca0       _setgcV                    1002fca0 f    CIL library: CIL module
 0001:0002ecb0       _setlightudV               1002fcb0 f    CIL library: CIL module
 0001:0002ecc0       _ctype_get                 1002fcc0 f    CIL library: CIL module
 0001:0002ecd0       _setcdataV                 1002fcd0 f    CIL library: CIL module
 0001:0002ece0       _ctype_child               1002fce0 f    CIL library: CIL module
 0001:0002ecf0       _ctype_rawchild            1002fcf0 f    CIL library: CIL module
 0001:0002ed20       _ctype_raw                 1002fd20 f    CIL library: CIL module
 0001:0002ed70       _lj_cdata_new              1002fd70 f    CIL library: CIL module
 0001:0002ee50       _ccall_get_results         1002fe50 f    CIL library: CIL module
 0001:0002ef40       _ccall_set_args            1002ff40 f    CIL library: CIL module
 0001:0002f640       _cdata_getptr              10030640 f    CIL library: CIL module
 0001:0002f650       _ctype_check               10030650 f    CIL library: CIL module
 0001:0002f660       _ctype_cts                 10030660 f    CIL library: CIL module
 0001:0002f670       _copyTV                    10030670 f    CIL library: CIL module
 0001:0002f680       _setintV                   10030680 f    CIL library: CIL module
 0001:0002f690       _setgcV                    10030690 f    CIL library: CIL module
 0001:0002f730       _ctype_get                 10030730 f    CIL library: CIL module
 0001:0002f740       _setcdataV                 10030740 f    CIL library: CIL module
 0001:0002f750       _ctype_child               10030750 f    CIL library: CIL module
 0001:0002f760       _ctype_rawchild            10030760 f    CIL library: CIL module
 0001:0002f790       _ctype_raw                 10030790 f    CIL library: CIL module
 0001:0002f7e0       _lj_cdata_new              100307e0 f    CIL library: CIL module
 0001:0002f800       _lj_carith_meta            10030800 f    CIL library: CIL module
 0001:0002fa30       _carith_checkarg           10030a30 f    CIL library: CIL module
 0001:0002fcc0       _carith_int64              10030cc0 f    CIL library: CIL module
 0001:00030030       _carith_ptr                10031030 f    CIL library: CIL module
 0001:00030360       _bcwrite_footer            10031360 f    CIL library: CIL module
 0001:00030390       _bcwrite_uleb128           10031390 f    CIL library: CIL module
 0001:000303c0       _bcwrite_byte              100313c0 f    CIL library: CIL module
 0001:000303e0       _bcwrite_block             100313e0 f    CIL library: CIL module
 0001:00030410       _lj_mem_free               10031410 f    CIL library: CIL module
 0001:00030430       _lj_num2bit                10031430 f    CIL library: CIL module
 0001:00030450       _lj_fls                    10031450 f    CIL library: CIL module
 0001:00030460       _bcwrite_bytecode          10031460 f    CIL library: CIL module
 0001:00030510       _bcwrite_resize            10031510 f    CIL library: CIL module
 0001:00030550       _bcwrite_need              10031550 f    CIL library: CIL module
 0001:00030570       _bcwrite_header            10031570 f    CIL library: CIL module
 0001:00030630       _bcwrite_knum              10031630 f    CIL library: CIL module
 0001:00030710       _bcwrite_ktabk             10031710 f    CIL library: CIL module
 0001:000307f0       _bcwrite_ktab              100317f0 f    CIL library: CIL module
 0001:00030920       _bcwrite_kgc               10031920 f    CIL library: CIL module
 0001:00030a10       _bcwrite_proto             10031a10 f    CIL library: CIL module
 0001:00030bc0       _cpwriter                  10031bc0 f    CIL library: CIL module
 0001:00030ca0       _bcread_varinfo            10031ca0 f    CIL library: CIL module
 0001:00030cc0       _bcread_uleb128_33         10031cc0 f    CIL library: CIL module
 0001:00030d00       _bcread_uleb128            10031d00 f    CIL library: CIL module
 0001:00030d40       _bcread_byte               10031d40 f    CIL library: CIL module
 0001:00030d50       _bcread_mem                10031d50 f    CIL library: CIL module
 0001:00030d60       _setintV                   10031d60 f    CIL library: CIL module
 0001:00030d70       _setgcV                    10031d70 f    CIL library: CIL module
 0001:00030d80       _lj_fls                    10031d80 f    CIL library: CIL module
 0001:00030d90       _bcread_knum               10031d90 f    CIL library: CIL module
 0001:00030de0       _bcread_block              10031de0 f    CIL library: CIL module
 0001:00030e00       _setprotoV                 10031e00 f    CIL library: CIL module
 0001:00030e10       _setstrV                   10031e10 f    CIL library: CIL module
 0001:00030e20       _bcread_uv                 10031e20 f    CIL library: CIL module
 0001:00030e70       _bcread_bytecode           10031e70 f    CIL library: CIL module
 0001:00030ed0       _bcread_dbg                10031ed0 f    CIL library: CIL module
 0001:00030f40       _bcread_resize             10031f40 f    CIL library: CIL module
 0001:00030f70       _lj_cdata_new_             10031f70 f    CIL library: CIL module
 0001:00030f90       _bcread_error              10031f90 f    CIL library: CIL module
 0001:00030fe0       _bcread_fill               10031fe0 f    CIL library: CIL module
 0001:000310f0       _bcread_ktabk              100320f0 f    CIL library: CIL module
 0001:00031160       _bcread_want               10032160 f    CIL library: CIL module
 0001:00031180       _bcread_need               10032180 f    CIL library: CIL module
 0001:000311a0       _bcread_ktab               100321a0 f    CIL library: CIL module
 0001:00031250       _bcread_kgc                10032250 f    CIL library: CIL module
 0001:00031370       _bcread_proto              10032370 f    CIL library: CIL module
 0001:000315d0       _bcread_header             100325d0 f    CIL library: CIL module
 0001:00031770       _asm_baseslot              10032770 f    CIL library: CIL module
 0001:000317c0       _asm_tail_prep             100327c0 f    CIL library: CIL module
 0001:00031830       _asm_loop_fixup            10032830 f    CIL library: CIL module
 0001:000318d0       _asm_swapops               100328d0 f    CIL library: CIL module
 0001:00031970       _merge_href_niltv          10032970 f    CIL library: CIL module
 0001:000319c0       _asm_callx_func            100329c0 f    CIL library: CIL module
 0001:000319d0       _asm_count_call_slots      100329d0 f    CIL library: CIL module
 0001:00031a50       _noconflict                10032a50 f    CIL library: CIL module
 0001:00031aa0       _asm_isk32                 10032aa0 f    CIL library: CIL module
 0001:00031ae0       _asm_stack_adjust          10032ae0 f    CIL library: CIL module
 0001:00031b00       _asm_collectargs           10032b00 f    CIL library: CIL module
 0001:00031b70       _asm_sunk_store            10032b70 f    CIL library: CIL module
 0001:00031be0       _asm_snap_canremat         10032be0 f    CIL library: CIL module
 0001:00031c00       _ra_releasetmp             10032c00 f    CIL library: CIL module
 0001:00031c30       _ra_setup                  10032c30 f    CIL library: CIL module
 0001:00031cb0       _jmprel                    10032cb0 f    CIL library: CIL module
 0001:00031cc0       _emit_sfixup               10032cc0 f    CIL library: CIL module
 0001:00031cd0       _emit_sjcc_label           10032cd0 f    CIL library: CIL module
 0001:00031cf0       _emit_sjcc                 10032cf0 f    CIL library: CIL module
 0001:00031d10       _emit_sjmp                 10032d10 f    CIL library: CIL module
 0001:00031d30       _emit_op                   10032d30 f    CIL library: CIL module
 0001:00031d40       _exitstub_addr_            10032d40 f    CIL library: CIL module
 0001:00031d50       _lj_ir_set_                10032d50 f    CIL library: CIL module
 0001:00031d70       _snap_nextofs              10032d70 f    CIL library: CIL module
 0001:00031d90       _ir_sideeff                10032d90 f    CIL library: CIL module
 0001:00031db0       _irt_toitype_              10032db0 f    CIL library: CIL module
 0001:00031dc0       _ctype_check               10032dc0 f    CIL library: CIL module
 0001:00031dd0       _bc_isret                  10032dd0 f    CIL library: CIL module
 0001:00031df0       _hashrot                   10032df0 f    CIL library: CIL module
 0001:00031e10       _setintV                   10032e10 f    CIL library: CIL module
 0001:00031e20       _lj_fls                    10032e20 f    CIL library: CIL module
 0001:00031e30       _lj_ffs                    10032e30 f    CIL library: CIL module
 0001:00031e40       _asm_setup_call_slots      10032e40 f    CIL library: CIL module
 0001:00031ea0       _asm_tail_fixup            10032ea0 f    CIL library: CIL module
 0001:00031f60       _asm_fuseabase             10032f60 f    CIL library: CIL module
 0001:00031ff0       _ir_khash                  10032ff0 f    CIL library: CIL module
 0001:00032050       _emit_call_                10033050 f    CIL library: CIL module
 0001:00032070       _emit_jmp                  10033070 f    CIL library: CIL module
 0001:00032090       _emit_jcc                  10033090 f    CIL library: CIL module
 0001:000320b0       _emit_mrm                  100330b0 f    CIL library: CIL module
 0001:000321b0       _emit_gri                  100331b0 f    CIL library: CIL module
 0001:00032210       _emit_rmrxo                10033210 f    CIL library: CIL module
 0001:00032270       _emit_rmro                 10033270 f    CIL library: CIL module
 0001:00032310       _emit_rma                  10033310 f    CIL library: CIL module
 0001:00032340       _emit_rr                   10033340 f    CIL library: CIL module
 0001:00032370       _ctype_get                 10033370 f    CIL library: CIL module
 0001:00032490       _asm_head_side_base        10033490 f    CIL library: CIL module
 0001:00032550       _asm_head_root_base        10033550 f    CIL library: CIL module
 0001:000325a0       _asm_stack_check           100335a0 f    CIL library: CIL module
 0001:000326b0       _asm_guardcc               100336b0 f    CIL library: CIL module
 0001:00032710       _asm_callx_flags           10033710 f    CIL library: CIL module
 0001:00032790       _emit_addptr               10033790 f    CIL library: CIL module
 0001:000327d0       _emit_spstore              100337d0 f    CIL library: CIL module
 0001:00032820       _emit_spload               10033820 f    CIL library: CIL module
 0001:00032890       _emit_movrr                10033890 f    CIL library: CIL module
 0001:000328d0       _emit_loadn                100338d0 f    CIL library: CIL module
 0001:00032920       _emit_loadi                10033920 f    CIL library: CIL module
 0001:00032970       _emit_movmroi              10033970 f    CIL library: CIL module
 0001:000329a0       _emit_gmrmi                100339a0 f    CIL library: CIL module
 0001:000329f0       _emit_gmroi                100339f0 f    CIL library: CIL module
 0001:00032a50       _asm_head_root             10033a50 f    CIL library: CIL module
 0001:00032ac0       _asm_phi_copyspill         10033ac0 f    CIL library: CIL module
 0001:00032cb0       _ra_save                   10033cb0 f    CIL library: CIL module
 0001:00032cd0       _ra_rematk                 10033cd0 f    CIL library: CIL module
 0001:00032d70       _asm_setup_regsp           10033d70 f    CIL library: CIL module
 0001:000331e0       _ra_spill                  100341e0 f    CIL library: CIL module
 0001:00033240       _asm_snap_checkrename      10034240 f    CIL library: CIL module
 0001:000332a0       _ra_restore                100342a0 f    CIL library: CIL module
 0001:00033300       _ra_destpair               10034300 f    CIL library: CIL module
 0001:00033410       _ra_evict                  10034410 f    CIL library: CIL module
 0001:00033550       _asm_mclimit               10034550 f    CIL library: CIL module
 0001:00033570       _lj_ir_nextins             10034570 f    CIL library: CIL module
 0001:00033590       _asm_exitstub_gen          10034590 f    CIL library: CIL module
 0001:00033660       _asm_phi_fixup             10034660 f    CIL library: CIL module
 0001:00033700       _ra_rename                 10034700 f    CIL library: CIL module
 0001:000337a0       _ra_allocref               100347a0 f    CIL library: CIL module
 0001:00033860       _ra_evictk                 10034860 f    CIL library: CIL module
 0001:000338f0       _ra_evictset               100348f0 f    CIL library: CIL module
 0001:00033980       _ra_pick                   10034980 f    CIL library: CIL module
 0001:000339a0       _asm_head_side             100349a0 f    CIL library: CIL module
 0001:00033dd0       _asm_exitstub_setup        10034dd0 f    CIL library: CIL module
 0001:00033e30       _asm_phi_break             10034e30 f    CIL library: CIL module
 0001:00033e70       _asm_snap_alloc1           10034e70 f    CIL library: CIL module
 0001:00034010       _ra_left                   10035010 f    CIL library: CIL module
 0001:000340f0       _ra_alloc1                 100350f0 f    CIL library: CIL module
 0001:00034120       _ra_scratch                10035120 f    CIL library: CIL module
 0001:00034140       _asm_setup_target          10035140 f    CIL library: CIL module
 0001:00034160       _asm_stack_restore         10035160 f    CIL library: CIL module
 0001:000342d0       _asm_tbar                  100352d0 f    CIL library: CIL module
 0001:00034390       _asm_conv_fp_int64         10035390 f    CIL library: CIL module
 0001:000344f0       _asm_retf                  100354f0 f    CIL library: CIL module
 0001:00034580       _asm_gencall               10035580 f    CIL library: CIL module
 0001:00034780       _asm_fusestrref            10035780 f    CIL library: CIL module
 0001:00034850       _asm_fusefref              10035850 f    CIL library: CIL module
 0001:000348a0       _asm_fusearef              100358a0 f    CIL library: CIL module
 0001:00034950       _asm_phi                   10035950 f    CIL library: CIL module
 0001:00034a60       _asm_phi_shuffle           10035a60 f    CIL library: CIL module
 0001:00034c70       _asm_snap_alloc            10035c70 f    CIL library: CIL module
 0001:00034cc0       _ra_dest                   10035cc0 f    CIL library: CIL module
 0001:00034d30       _asm_tail_link             10035d30 f    CIL library: CIL module
 0001:00034f30       _asm_gc_check              10035f30 f    CIL library: CIL module
 0001:00035010       _asm_bitshift              10036010 f    CIL library: CIL module
 0001:00035140       _asm_bitswap               10036140 f    CIL library: CIL module
 0001:00035180       _asm_min_max               10036180 f    CIL library: CIL module
 0001:00035210       _asm_neg_not               10036210 f    CIL library: CIL module
 0001:00035250       _asm_lea                   10036250 f    CIL library: CIL module
 0001:00035450       _asm_obar                  10036450 f    CIL library: CIL module
 0001:00035560       _asm_strref                10036560 f    CIL library: CIL module
 0001:000355e0       _asm_fref                  100365e0 f    CIL library: CIL module
 0001:00035620       _asm_uref                  10036620 f    CIL library: CIL module
 0001:00035710       _asm_hrefk                 10036710 f    CIL library: CIL module
 0001:00035880       _asm_href                  10036880 f    CIL library: CIL module
 0001:00035d20       _asm_aref                  10036d20 f    CIL library: CIL module
 0001:00035d80       _asm_strto                 10036d80 f    CIL library: CIL module
 0001:00035e10       _asm_tointg                10036e10 f    CIL library: CIL module
 0001:00035eb0       _asm_fusexref              10036eb0 f    CIL library: CIL module
 0001:00036040       _asm_fuseahuref            10037040 f    CIL library: CIL module
 0001:00036110       _asm_loop                  10037110 f    CIL library: CIL module
 0001:00036190       _asm_gcstep                10037190 f    CIL library: CIL module
 0001:000361f0       _asm_snap_prep             100371f0 f    CIL library: CIL module
 0001:000362b0       _ra_destreg                100372b0 f    CIL library: CIL module
 0001:000362f0       _asm_fppowi                100372f0 f    CIL library: CIL module
 0001:00036350       _fpmjoin_pow               10037350 f    CIL library: CIL module
 0001:00036440       _asm_sload                 10037440 f    CIL library: CIL module
 0001:00036610       _asm_ahustore              10037610 f    CIL library: CIL module
 0001:00036710       _asm_ahuvload              10037710 f    CIL library: CIL module
 0001:000367e0       _asm_fxstore               100377e0 f    CIL library: CIL module
 0001:000369e0       _asm_fxload                100379e0 f    CIL library: CIL module
 0001:00036b10       _asm_setupresult           10037b10 f    CIL library: CIL module
 0001:00036c90       _asm_fuseload              10037c90 f    CIL library: CIL module
 0001:00036ec0       _asm_tdup                  10037ec0 f    CIL library: CIL module
 0001:00036f00       _asm_tnew                  10037f00 f    CIL library: CIL module
 0001:00036f70       _asm_snew                  10037f70 f    CIL library: CIL module
 0001:00036fc0       _asm_comp_int64            10037fc0 f    CIL library: CIL module
 0001:000371f0       _asm_comp                  100381f0 f    CIL library: CIL module
 0001:00037730       _asm_intarith              10038730 f    CIL library: CIL module
 0001:000378f0       _asm_fparith               100388f0 f    CIL library: CIL module
 0001:000379d0       _asm_intmod                100389d0 f    CIL library: CIL module
 0001:00037a10       _asm_x87load               10038a10 f    CIL library: CIL module
 0001:00037b00       _asm_cnew                  10038b00 f    CIL library: CIL module
 0001:00037c90       _asm_newref                10038c90 f    CIL library: CIL module
 0001:00037dd0       _asm_tostr                 10038dd0 f    CIL library: CIL module
 0001:00037e80       _asm_conv_int64_fp         10038e80 f    CIL library: CIL module
 0001:000380d0       _asm_conv                  100390d0 f    CIL library: CIL module
 0001:000384a0       _asm_tobit                 100394a0 f    CIL library: CIL module
 0001:00038540       _asm_callx                 10039540 f    CIL library: CIL module
 0001:00038630       _asm_call                  10039630 f    CIL library: CIL module
 0001:00038680       _asm_hiop                  10039680 f    CIL library: CIL module
 0001:00038880       _asm_add                   10039880 f    CIL library: CIL module
 0001:000388e0       _asm_fpmath                100398e0 f    CIL library: CIL module
 0001:00038c00       _asm_ir                    10039c00 f    CIL library: CIL module
 0001:000394c0       _getcurrenv                1003a4c0 f    CIL library: CIL module
 0001:000394e0       _stkindex2adr              1003a4e0 f    CIL library: CIL module
 0001:00039510       _lj_gc_barrierback         1003a510 f    CIL library: CIL module
 0001:00039520       _numberVnum                1003a520 f    CIL library: CIL module
 0001:00039530       _lj_num2bit                1003a530 f    CIL library: CIL module
 0001:00039550       _copyTV                    1003a550 f    CIL library: CIL module
 0001:00039560       _setintV                   1003a560 f    CIL library: CIL module
 0001:00039570       _setgcV                    1003a570 f    CIL library: CIL module
 0001:00039580       _setlightudV               1003a580 f    CIL library: CIL module
 0001:00039590       _lj_fls                    1003a590 f    CIL library: CIL module
 0001:000396a0       _setudataV                 1003a6a0 f    CIL library: CIL module
 0001:000396b0       _settabV                   1003a6b0 f    CIL library: CIL module
 0001:000396c0       _setfuncV                  1003a6c0 f    CIL library: CIL module
 0001:000396d0       _setthreadV                1003a6d0 f    CIL library: CIL module
 0001:000396e0       _setstrV                   1003a6e0 f    CIL library: CIL module
 0001:000396f0       _index2adr                 1003a6f0 f    CIL library: CIL module
 0001:00039da0       _lj_state_checkstack       1003ada0 f    CIL library: CIL module
 0001:00039dc0       _cpcall                    1003adc0 f    CIL library: CIL module
 0001:0003b450       _init_bins                 1003c450 f    CIL library: CIL module
 0001:0003b470       _init_top                  1003c470 f    CIL library: CIL module
 0001:0003b4a0       _direct_resize             1003c4a0 f    CIL library: CIL module
 0001:0003b4d0       _has_segment_link          1003c4d0 f    CIL library: CIL module
 0001:0003b500       _segment_holding           1003c500 f    CIL library: CIL module
 0001:0003b520       _CALL_MUNMAP               1003c520 f    CIL library: CIL module
 0001:0003b5b0       _DIRECT_MMAP               1003c5b0 f    CIL library: CIL module
 0001:0003b5f0       _CALL_MMAP                 1003c5f0 f    CIL library: CIL module
 0001:0003b630       _lj_fls                    1003c630 f    CIL library: CIL module
 0001:0003b640       _lj_ffs                    1003c640 f    CIL library: CIL module
 0001:0003b790       _tmalloc_small             1003c790 f    CIL library: CIL module
 0001:0003b920       _tmalloc_large             1003c920 f    CIL library: CIL module
 0001:0003bca0       _release_unused_segments   1003cca0 f    CIL library: CIL module
 0001:0003bf60       _add_segment               1003cf60 f    CIL library: CIL module
 0001:0003c150       _prepend_alloc             1003d150 f    CIL library: CIL module
 0001:0003c430       _direct_alloc              1003d430 f    CIL library: CIL module
 0001:0003c4b0       _alloc_trim                1003d4b0 f    CIL library: CIL module
 0001:0003c5e0       _alloc_sys                 1003d5e0 f    CIL library: CIL module
 0001:0003c700       _lj_alloc_free             1003d700 f    CIL library: CIL module
 0001:0003cba0       _lj_alloc_malloc           1003dba0 f    CIL library: CIL module
 0001:0003cdc0       _lj_alloc_realloc          1003ddc0 f    CIL library: CIL module
 0001:0003cf40       _lj_gc_barrierback         1003df40 f    CIL library: CIL module
 0001:0003cf50       _numberVnum                1003df50 f    CIL library: CIL module
 0001:0003cf60       _copyTV                    1003df60 f    CIL library: CIL module
 0001:0003cf70       _setintV                   1003df70 f    CIL library: CIL module
 0001:0003cf80       _setgcV                    1003df80 f    CIL library: CIL module
 0001:0003cf90       _setfuncV                  1003df90 f    CIL library: CIL module
 0001:0003cfa0       _set2                      1003dfa0 f    CIL library: CIL module
 0001:0003cfc0       _sort_comp                 1003dfc0 f    CIL library: CIL module
 0001:0003d030       _auxsort                   1003e030 f    CIL library: CIL module
 0001:0003d2a0       _lj_cf_table_sort          1003e2a0 f    CIL library: CIL module
 0001:0003d2f0       _lj_cf_table_insert        1003e2f0 f    CIL library: CIL module
 0001:0003d410       _lj_cf_table_maxn          1003e410 f    CIL library: CIL module
 0001:0003d550       _lj_ffh_table_getn         1003e550 f    CIL library: CIL module
 0001:0003d570       _lj_cf_table_foreach       1003e570 f    CIL library: CIL module
 0001:0003d630       _lj_cf_table_foreachi      1003e630 f    CIL library: CIL module
 0001:0003d700       _lj_cf_table_remove        1003e700 f    CIL library: CIL module
 0001:0003d840       _lj_cf_table_concat        1003e840 f    CIL library: CIL module
 0001:0003d970       _addintlen                 1003e970 f    CIL library: CIL module
 0001:0003d9a0       _posrelat                  1003e9a0 f    CIL library: CIL module
 0001:0003d9c0       _lmemfind                  1003e9c0 f    CIL library: CIL module
 0001:0003da80       _match_class               1003ea80 f    CIL library: CIL module
 0001:0003dae0       _copyTV                    1003eae0 f    CIL library: CIL module
 0001:0003daf0       _setintV                   1003eaf0 f    CIL library: CIL module
 0001:0003db00       _setgcV                    1003eb00 f    CIL library: CIL module
 0001:0003db10       _matchbracketclass         1003eb10 f    CIL library: CIL module
 0001:0003dba0       _settabV                   1003eba0 f    CIL library: CIL module
 0001:0003dbb0       _setstrV                   1003ebb0 f    CIL library: CIL module
 0001:0003dbc0       _singlematch               1003ebc0 f    CIL library: CIL module
 0001:0003dc00       _min_expand                1003ec00 f    CIL library: CIL module
 0001:0003dc60       _max_expand                1003ec60 f    CIL library: CIL module
 0001:0003dcd0       _lj_state_checkstack       1003ecd0 f    CIL library: CIL module
 0001:0003dcf0       _meta_tostring             1003ecf0 f    CIL library: CIL module
 0001:0003de40       _scanformat                1003ee40 f    CIL library: CIL module
 0001:0003df10       _start_capture             1003ef10 f    CIL library: CIL module
 0001:0003df50       _matchbalance              1003ef50 f    CIL library: CIL module
 0001:0003dfb0       _classend                  1003efb0 f    CIL library: CIL module
 0001:0003e000       _capture_to_close          1003f000 f    CIL library: CIL module
 0001:0003e030       _check_capture             1003f030 f    CIL library: CIL module
 0001:0003e060       _match_capture             1003f060 f    CIL library: CIL module
 0001:0003e0e0       _end_capture               1003f0e0 f    CIL library: CIL module
 0001:0003e120       _num2uintfrm               1003f120 f    CIL library: CIL module
 0001:0003e130       _num2intfrm                1003f130 f    CIL library: CIL module
 0001:0003e140       _match                     1003f140 f    CIL library: CIL module
 0001:0003e430       _lj_ffh_string_reverse     1003f430 f    CIL library: CIL module
 0001:0003e460       _lj_ffh_string_char        1003f460 f    CIL library: CIL module
 0001:0003e4f0       _lj_ffh_string_len         1003f4f0 f    CIL library: CIL module
 0001:0003e510       _push_onecapture           1003f510 f    CIL library: CIL module
 0001:0003e590       _lj_ffh_string_rep         1003f590 f    CIL library: CIL module
 0001:0003e750       _lj_ffh_string_sub         1003f750 f    CIL library: CIL module
 0001:0003e790       _lj_ffh_string_byte        1003f790 f    CIL library: CIL module
 0001:0003e8d0       _lj_lib_pushcc             1003f8d0 f    CIL library: CIL module
 0001:0003e900       _push_captures             1003f900 f    CIL library: CIL module
 0001:0003e9e0       _lj_cf_string_gmatch_aux   1003f9e0 f    CIL library: CIL module
 0001:0003ea80       _str_find_aux              1003fa80 f    CIL library: CIL module
 0001:0003ec20       _addquoted                 1003fc20 f    CIL library: CIL module
 0001:0003ed70       _lj_cf_string_gmatch       1003fd70 f    CIL library: CIL module
 0001:0003edd0       _lj_cf_string_match        1003fdd0 f    CIL library: CIL module
 0001:0003edf0       _lj_cf_string_find         1003fdf0 f    CIL library: CIL module
 0001:0003ee10       _lj_cf_string_format       1003fe10 f    CIL library: CIL module
 0001:0003f190       _add_s                     10040190 f    CIL library: CIL module
 0001:0003f260       _writer_buf                10040260 f    CIL library: CIL module
 0001:0003f280       _add_value                 10040280 f    CIL library: CIL module
 0001:0003f370       _lj_cf_string_dump         10040370 f    CIL library: CIL module
 0001:0003f410       _lj_cf_string_gsub         10040410 f    CIL library: CIL module
 0001:0003f5d0       _readable                  100405d0 f    CIL library: CIL module
 0001:0003f600       _ll_bcsym                  10040600 f    CIL library: CIL module
 0001:0003f660       _ll_unloadlib              10040660 f    CIL library: CIL module
 0001:0003f670       _dooptions                 10040670 f    CIL library: CIL module
 0001:0003f6b0       _setfenv                   100406b0 f    CIL library: CIL module
 0001:0003f720       _lj_cf_package_unloadlib   10040720 f    CIL library: CIL module
 0001:0003f750       _lj_cf_package_seeall      10040750 f    CIL library: CIL module
 0001:0003f7b0       _modinit                   100407b0 f    CIL library: CIL module
 0001:0003f820       _loaderror                 10040820 f    CIL library: CIL module
 0001:0003f850       _pushnexttemplate          10040850 f    CIL library: CIL module
 0001:0003f8b0       _ll_register               100408b0 f    CIL library: CIL module
 0001:0003f940       _pusherror                 10040940 f    CIL library: CIL module
 0001:0003f9a0       _lj_lib_pushcc             100409a0 f    CIL library: CIL module
 0001:0003f9d0       _lj_cf_package_module      100409d0 f    CIL library: CIL module
 0001:0003fac0       _lj_cf_package_require     10040ac0 f    CIL library: CIL module
 0001:0003fcd0       _ll_sym                    10040cd0 f    CIL library: CIL module
 0001:0003fcf0       _ll_load                   10040cf0 f    CIL library: CIL module
 0001:0003fd10       _searchpath                10040d10 f    CIL library: CIL module
 0001:0003fdf0       _mksymname                 10040df0 f    CIL library: CIL module
 0001:0003fe40       _setprogdir                10040e40 f    CIL library: CIL module
 0001:0003fec0       _setpath                   10040ec0 f    CIL library: CIL module
 0001:0003ff30       _findfile                  10040f30 f    CIL library: CIL module
 0001:0003ff80       _lj_cf_package_searchpath  10040f80 f    CIL library: CIL module
 0001:000401d0       _lj_cf_package_loader_preload 100411d0 f    CIL library: CIL module
 0001:00040280       _lj_cf_package_loader_lua  10041280 f    CIL library: CIL module
 0001:000402d0       _ll_loadfunc               100412d0 f    CIL library: CIL module
 0001:000403b0       _lj_cf_package_loader_croot 100413b0 f    CIL library: CIL module
 0001:00040440       _lj_cf_package_loader_c    10041440 f    CIL library: CIL module
 0001:00040490       _lj_cf_package_loadlib     10041490 f    CIL library: CIL module
 0001:00040500       _lj_cf_os_clock            10041500 f    CIL library: CIL module
 0001:00040530       _setintV                   10041530 f    CIL library: CIL module
 0001:00040540       _time                      10041540 f    CIL library: CIL module
 0001:00040550       _mktime                    10041550 f    CIL library: CIL module
 0001:00040560       _localtime                 10041560 f    CIL library: CIL module
 0001:00040570       _gmtime                    10041570 f    CIL library: CIL module
 0001:00040580       _difftime                  10041580 f    CIL library: CIL module
 0001:000405a0       _getboolfield              100415a0 f    CIL library: CIL module
 0001:000405f0       _setboolfield              100415f0 f    CIL library: CIL module
 0001:00040610       _setfield                  10041610 f    CIL library: CIL module
 0001:00040630       _getfield                  10041630 f    CIL library: CIL module
 0001:00040690       _lj_cf_os_difftime         10041690 f    CIL library: CIL module
 0001:000406f0       _lj_cf_os_time             100416f0 f    CIL library: CIL module
 0001:00040810       _lj_cf_os_getenv           10041810 f    CIL library: CIL module
 0001:00040840       _lj_cf_os_tmpname          10041840 f    CIL library: CIL module
 0001:00040880       _lj_cf_os_execute          10041880 f    CIL library: CIL module
 0001:000408c0       _lj_cf_os_setlocale        100418c0 f    CIL library: CIL module
 0001:00040950       _lj_cf_os_exit             10041950 f    CIL library: CIL module
 0001:000409b0       _lj_cf_os_rename           100419b0 f    CIL library: CIL module
 0001:000409f0       _lj_cf_os_remove           100419f0 f    CIL library: CIL module
 0001:00040a50       _lj_cf_os_date             10041a50 f    CIL library: CIL module
 0001:00040db0       _random_init               10041db0 f    CIL library: CIL module
 0001:00040e40       _lj_cf_math_randomseed     10041e40 f    CIL library: CIL module
 0001:00040e80       _lj_cf_math_random         10041e80 f    CIL library: CIL module
 0001:00040f50       _lj_ffh_math_min           10041f50 f    CIL library: CIL module
 0001:00040f80       _lj_ffh_math_ldexp         10041f80 f    CIL library: CIL module
 0001:00040fb0       _lj_ffh_math_atan2         10041fb0 f    CIL library: CIL module
 0001:00040fe0       _lj_ffh_math_log           10041fe0 f    CIL library: CIL module
 0001:00041060       _lj_ffh_math_sqrt          10042060 f    CIL library: CIL module
 0001:00041080       _lj_ffh_math_abs           10042080 f    CIL library: CIL module
 0001:00041100       _jitopt_param              10042100 f    CIL library: CIL module
 0001:00041190       _jitopt_flag               10042190 f    CIL library: CIL module
 0001:00041240       _jitopt_level              10042240 f    CIL library: CIL module
 0001:00041290       _exitstub_addr_            10042290 f    CIL library: CIL module
 0001:000412a0       _copyTV                    100422a0 f    CIL library: CIL module
 0001:000412b0       _setintV                   100422b0 f    CIL library: CIL module
 0001:000412c0       _setgcV                    100422c0 f    CIL library: CIL module
 0001:000412d0       _setstrV                   100422d0 f    CIL library: CIL module
 0001:000412e0       _flagbits_to_strings       100422e0 f    CIL library: CIL module
 0001:00041330       _lj_cf_jit_status          10042330 f    CIL library: CIL module
 0001:00041390       _jit_cpudetect             10042390 f    CIL library: CIL module
 0001:00041480       _setintfield               10042480 f    CIL library: CIL module
 0001:000414b0       _jit_init                  100424b0 f    CIL library: CIL module
 0001:00041500       _lj_cf_jit_opt_start       10042500 f    CIL library: CIL module
 0001:000415a0       _lj_cf_jit_util_ircalladdr 100425a0 f    CIL library: CIL module
 0001:000415d0       _lj_cf_jit_util_traceexitstub 100425d0 f    CIL library: CIL module
 0001:00041620       _jit_checktrace            10042620 f    CIL library: CIL module
 0001:00041650       _check_Lproto              10042650 f    CIL library: CIL module
 0001:000416a0       _setjitmode                100426a0 f    CIL library: CIL module
 0001:00041730       _lj_cf_jit_util_tracemc    10042730 f    CIL library: CIL module
 0001:00041790       _lj_cf_jit_util_tracesnap  10042790 f    CIL library: CIL module
 0001:00041900       _lj_cf_jit_util_tracek     10042900 f    CIL library: CIL module
 0001:000419c0       _lj_cf_jit_util_traceir    100429c0 f    CIL library: CIL module
 0001:00041ac0       _lj_cf_jit_util_traceinfo  10042ac0 f    CIL library: CIL module
 0001:00041b90       _lj_cf_jit_util_funcuvname 10042b90 f    CIL library: CIL module
 0001:00041c10       _lj_cf_jit_util_funck      10042c10 f    CIL library: CIL module
 0001:00041c90       _lj_cf_jit_util_funcbc     10042c90 f    CIL library: CIL module
 0001:00041d00       _lj_cf_jit_util_funcinfo   10042d00 f    CIL library: CIL module
 0001:00041ef0       _lj_cf_jit_flush           10042ef0 f    CIL library: CIL module
 0001:00041f40       _lj_cf_jit_off             10042f40 f    CIL library: CIL module
 0001:00041f50       _lj_cf_jit_on              10042f50 f    CIL library: CIL module
 0001:00041f70       _lj_cf_jit_attach          10042f70 f    CIL library: CIL module
 0001:00042100       _lj_num2bit                10043100 f    CIL library: CIL module
 0001:00042120       _copyTV                    10043120 f    CIL library: CIL module
 0001:00042130       _setintV                   10043130 f    CIL library: CIL module
 0001:00042140       _setgcV                    10043140 f    CIL library: CIL module
 0001:00042150       _io_file_readnum           10043150 f    CIL library: CIL module
 0001:000421a0       _setint64V                 100431a0 f    CIL library: CIL module
 0001:000421b0       _setudataV                 100431b0 f    CIL library: CIL module
 0001:000421c0       _setstrV                   100431c0 f    CIL library: CIL module
 0001:000421d0       _lj_state_checkstack       100431d0 f    CIL library: CIL module
 0001:000421f0       _io_file_readlen           100431f0 f    CIL library: CIL module
 0001:00042290       _io_file_readall           10043290 f    CIL library: CIL module
 0001:00042320       _io_file_readline          10043320 f    CIL library: CIL module
 0001:000423e0       _io_stdfile                100433e0 f    CIL library: CIL module
 0001:00042410       _io_tofilep                10043410 f    CIL library: CIL module
 0001:00042450       _io_tofile                 10043450 f    CIL library: CIL module
 0001:00042470       _io_std_new                10043470 f    CIL library: CIL module
 0001:000424b0       _lj_cf_io_type             100434b0 f    CIL library: CIL module
 0001:00042520       _lj_cf_io_method___tostring 10043520 f    CIL library: CIL module
 0001:00042560       _io_file_new               10043560 f    CIL library: CIL module
 0001:00042590       _lj_cf_io_flush            10043590 f    CIL library: CIL module
 0001:000425c0       _lj_cf_io_tmpfile          100435c0 f    CIL library: CIL module
 0001:00042600       _lj_cf_io_popen            10043600 f    CIL library: CIL module
 0001:00042670       _lj_cf_io_open             10043670 f    CIL library: CIL module
 0001:000426e0       _lj_cf_io_method_setvbuf   100436e0 f    CIL library: CIL module
 0001:00042760       _lj_cf_io_method_seek      10043760 f    CIL library: CIL module
 0001:00042830       _lj_cf_io_method_flush     10043830 f    CIL library: CIL module
 0001:00042860       _io_file_write             10043860 f    CIL library: CIL module
 0001:00042910       _io_file_read              10043910 f    CIL library: CIL module
 0001:00042a70       _io_file_close             10043a70 f    CIL library: CIL module
 0001:00042af0       _io_file_open              10043af0 f    CIL library: CIL module
 0001:00042c10       _io_std_getset             10043c10 f    CIL library: CIL module
 0001:00042c80       _lj_cf_io_write            10043c80 f    CIL library: CIL module
 0001:00042ca0       _lj_cf_io_read             10043ca0 f    CIL library: CIL module
 0001:00042cc0       _lj_cf_io_method___gc      10043cc0 f    CIL library: CIL module
 0001:00042cf0       _lj_cf_io_method_write     10043cf0 f    CIL library: CIL module
 0001:00042d10       _lj_cf_io_method_read      10043d10 f    CIL library: CIL module
 0001:00042d30       _lj_cf_io_method_close     10043d30 f    CIL library: CIL module
 0001:00042d70       _io_file_iter              10043d70 f    CIL library: CIL module
 0001:00042e30       _lj_cf_io_lines            10043e30 f    CIL library: CIL module
 0001:00042eb0       _lj_cf_io_output           10043eb0 f    CIL library: CIL module
 0001:00042ed0       _lj_cf_io_input            10043ed0 f    CIL library: CIL module
 0001:00042ef0       _lj_cf_io_close            10043ef0 f    CIL library: CIL module
 0001:00042f00       _lj_cf_io_method_lines     10043f00 f    CIL library: CIL module
 0001:00042f30       _cdata_getptr              10043f30 f    CIL library: CIL module
 0001:00042f40       _ctype_check               10043f40 f    CIL library: CIL module
 0001:00042f50       _ctype_cts                 10043f50 f    CIL library: CIL module
 0001:00042f60       _lj_gc_barrierback         10043f60 f    CIL library: CIL module
 0001:00042f70       _copyTV                    10043f70 f    CIL library: CIL module
 0001:00042f80       _setintV                   10043f80 f    CIL library: CIL module
 0001:00042f90       _setgcV                    10043f90 f    CIL library: CIL module
 0001:00042fa0       _lj_cf_ffi_clib___gc       10043fa0 f    CIL library: CIL module
 0001:00042fd0       _ctype_get                 10043fd0 f    CIL library: CIL module
 0001:00042fe0       _settabV                   10043fe0 f    CIL library: CIL module
 0001:00042ff0       _setcdataV                 10043ff0 f    CIL library: CIL module
 0001:00043000       _setfuncV                  10044000 f    CIL library: CIL module
 0001:00043010       _setstrV                   10044010 f    CIL library: CIL module
 0001:00043020       _ctype_child               10044020 f    CIL library: CIL module
 0001:00043030       _ctype_rawchild            10044030 f    CIL library: CIL module
 0001:00043060       _ctype_raw                 10044060 f    CIL library: CIL module
 0001:000430b0       _lj_cdata_new              100440b0 f    CIL library: CIL module
 0001:000430d0       _ffi_register_module       100440d0 f    CIL library: CIL module
 0001:00043150       _ffi_finalizer             10044150 f    CIL library: CIL module
 0001:000431c0       _ffi_index_meta            100441c0 f    CIL library: CIL module
 0001:000432e0       _lj_cf_ffi_load            100442e0 f    CIL library: CIL module
 0001:00043310       _lj_cf_ffi_abi             10044310 f    CIL library: CIL module
 0001:00043370       _ffi_clib_index            10044370 f    CIL library: CIL module
 0001:000433d0       _ffi_checkcdata            100443d0 f    CIL library: CIL module
 0001:00043400       _lj_cf_ffi_gc              10044400 f    CIL library: CIL module
 0001:00043510       _ffi_callback_set          10044510 f    CIL library: CIL module
 0001:00043630       _lj_cf_ffi_clib___newindex 10044630 f    CIL library: CIL module
 0001:00043710       _lj_cf_ffi_clib___index    10044710 f    CIL library: CIL module
 0001:000437f0       _ffi_pairs                 100447f0 f    CIL library: CIL module
 0001:000438b0       _lj_cf_ffi_meta___tostring 100448b0 f    CIL library: CIL module
 0001:00043ae0       _ffi_checkint              10044ae0 f    CIL library: CIL module
 0001:00043b30       _ffi_checkptr              10044b30 f    CIL library: CIL module
 0001:00043b80       _lj_cf_ffi_fill            10044b80 f    CIL library: CIL module
 0001:00043be0       _lj_cf_ffi_copy            10044be0 f    CIL library: CIL module
 0001:00043c60       _lj_cf_ffi_string          10044c60 f    CIL library: CIL module
 0001:00043d30       _lj_cf_ffi_errno           10044d30 f    CIL library: CIL module
 0001:00043d80       _lj_cf_ffi_callback_set    10044d80 f    CIL library: CIL module
 0001:00043da0       _lj_cf_ffi_callback_free   10044da0 f    CIL library: CIL module
 0001:00043db0       _lj_cf_ffi_meta___ipairs   10044db0 f    CIL library: CIL module
 0001:00043dc0       _lj_cf_ffi_meta___pairs    10044dc0 f    CIL library: CIL module
 0001:00043dd0       _ffi_arith                 10044dd0 f    CIL library: CIL module
 0001:00043df0       _lj_cf_ffi_meta___newindex 10044df0 f    CIL library: CIL module
 0001:00043e90       _lj_cf_ffi_meta___index    10044e90 f    CIL library: CIL module
 0001:00044040       _lj_cf_ffi_meta___unm      10045040 f    CIL library: CIL module
 0001:00044050       _lj_cf_ffi_meta___pow      10045050 f    CIL library: CIL module
 0001:00044060       _lj_cf_ffi_meta___mod      10045060 f    CIL library: CIL module
 0001:00044070       _lj_cf_ffi_meta___div      10045070 f    CIL library: CIL module
 0001:00044080       _lj_cf_ffi_meta___mul      10045080 f    CIL library: CIL module
 0001:00044090       _lj_cf_ffi_meta___sub      10045090 f    CIL library: CIL module
 0001:000440a0       _lj_cf_ffi_meta___add      100450a0 f    CIL library: CIL module
 0001:000440b0       _lj_cf_ffi_meta___concat   100450b0 f    CIL library: CIL module
 0001:000440c0       _lj_cf_ffi_meta___le       100450c0 f    CIL library: CIL module
 0001:000440d0       _lj_cf_ffi_meta___lt       100450d0 f    CIL library: CIL module
 0001:000440e0       _lj_cf_ffi_meta___len      100450e0 f    CIL library: CIL module
 0001:000440f0       _lj_cf_ffi_meta___eq       100450f0 f    CIL library: CIL module
 0001:00044100       _lj_cf_ffi_cdef            10045100 f    CIL library: CIL module
 0001:00044180       _ffi_checkctype            10045180 f    CIL library: CIL module
 0001:00044230       _lj_cf_ffi_metatype        10045230 f    CIL library: CIL module
 0001:00044350       _lj_cf_ffi_offsetof        10045350 f    CIL library: CIL module
 0001:00044420       _lj_cf_ffi_alignof         10045420 f    CIL library: CIL module
 0001:00044480       _lj_cf_ffi_sizeof          10045480 f    CIL library: CIL module
 0001:00044540       _lj_cf_ffi_istype          10045540 f    CIL library: CIL module
 0001:00044690       _lj_cf_ffi_typeof          10045690 f    CIL library: CIL module
 0001:00044700       _lj_cf_ffi_cast            10045700 f    CIL library: CIL module
 0001:00044800       _lj_cf_ffi_new             10045800 f    CIL library: CIL module
 0001:00044a20       _lj_cf_ffi_meta___call     10045a20 f    CIL library: CIL module
 0001:00044b20       _unmakemask                10045b20 f    CIL library: CIL module
 0001:00044b50       _makemask                  10045b50 f    CIL library: CIL module
 0001:00044ba0       _getthread                 10045ba0 f    CIL library: CIL module
 0001:00044bc0       _copyTV                    10045bc0 f    CIL library: CIL module
 0001:00044bd0       _setgcV                    10045bd0 f    CIL library: CIL module
 0001:00044be0       _setlightudV               10045be0 f    CIL library: CIL module
 0001:00044bf0       _lj_cf_debug_getregistry   10045bf0 f    CIL library: CIL module
 0001:00044c20       _setfuncV                  10045c20 f    CIL library: CIL module
 0001:00044c30       _treatstackoption          10045c30 f    CIL library: CIL module
 0001:00044c80       _settabsb                  10045c80 f    CIL library: CIL module
 0001:00044ca0       _settabsi                  10045ca0 f    CIL library: CIL module
 0001:00044cc0       _lj_cf_debug_getfenv       10045cc0 f    CIL library: CIL module
 0001:00044cf0       _lj_cf_debug_setmetatable  10045cf0 f    CIL library: CIL module
 0001:00044d30       _lj_cf_debug_getmetatable  10045d30 f    CIL library: CIL module
 0001:00044d70       _lj_cf_debug_upvaluejoin   10045d70 f    CIL library: CIL module
 0001:00044e20       _lj_cf_debug_upvalueid     10045e20 f    CIL library: CIL module
 0001:00044e80       _lj_cf_debug_setfenv       10045e80 f    CIL library: CIL module
 0001:00044ec0       _hookf                     10045ec0 f    CIL library: CIL module
 0001:00044f40       _debug_getupvalue          10045f40 f    CIL library: CIL module
 0001:00044fb0       _lj_cf_debug_setlocal      10045fb0 f    CIL library: CIL module
 0001:00045050       _lj_cf_debug_getlocal      10046050 f    CIL library: CIL module
 0001:00045140       _settabss                  10046140 f    CIL library: CIL module
 0001:00045160       _lj_cf_debug_gethook       10046160 f    CIL library: CIL module
 0001:000451e0       _lj_cf_debug_sethook       100461e0 f    CIL library: CIL module
 0001:00045290       _lj_cf_debug_setupvalue    10046290 f    CIL library: CIL module
 0001:000452b0       _lj_cf_debug_getupvalue    100462b0 f    CIL library: CIL module
 0001:000452d0       _lj_cf_debug_getinfo       100462d0 f    CIL library: CIL module
 0001:00045590       _lj_cf_debug_traceback     10046590 f    CIL library: CIL module
 0001:00045610       _lj_cf_debug_debug         10046610 f    CIL library: CIL module
 0001:00045750       _setpc_wrap_aux            10046750 f    CIL library: CIL module
 0001:00045760       _ctype_check               10046760 f    CIL library: CIL module
 0001:00045770       _ctype_cts                 10046770 f    CIL library: CIL module
 0001:00045780       _lj_gc_barrierback         10046780 f    CIL library: CIL module
 0001:00045790       _copyTV                    10046790 f    CIL library: CIL module
 0001:000457a0       _setintV                   100467a0 f    CIL library: CIL module
 0001:000457b0       _setgcV                    100467b0 f    CIL library: CIL module
 0001:000457c0       _lj_cf_gcinfo              100467c0 f    CIL library: CIL module
 0001:000457f0       _load_aux                  100467f0 f    CIL library: CIL module
 0001:00045840       _ctype_get                 10046840 f    CIL library: CIL module
 0001:00045850       _settabV                   10046850 f    CIL library: CIL module
 0001:00045860       _setfuncV                  10046860 f    CIL library: CIL module
 0001:00045870       _setstrV                   10046870 f    CIL library: CIL module
 0001:00045880       _ctype_child               10046880 f    CIL library: CIL module
 0001:00045890       _lj_strscan_numberobj      10046890 f    CIL library: CIL module
 0001:000458c0       _lj_cf_coroutine_running   100468c0 f    CIL library: CIL module
 0001:00045930       _newproxy_weaktable        10046930 f    CIL library: CIL module
 0001:00045990       _ffh_resume                10046990 f    CIL library: CIL module
 0001:00045a00       _lj_ffh_coroutine_yield    10046a00 f    CIL library: CIL module
 0001:00045a10       _lj_ffh_coroutine_wrap_aux 10046a10 f    CIL library: CIL module
 0001:00045a30       _lj_ffh_coroutine_resume   10046a30 f    CIL library: CIL module
 0001:00045a60       _lj_cf_rawequal            10046a60 f    CIL library: CIL module
 0001:00045aa0       _lj_ffh_pcall              10046aa0 f    CIL library: CIL module
 0001:00045ad0       _lj_cf_select              10046ad0 f    CIL library: CIL module
 0001:00045b40       _lj_cf_rawset              10046b40 f    CIL library: CIL module
 0001:00045b90       _lj_ffh_rawget             10046b90 f    CIL library: CIL module
 0001:00045bc0       _lj_cf_setfenv             10046bc0 f    CIL library: CIL module
 0001:00045c70       _lj_ffh_setmetatable       10046c70 f    CIL library: CIL module
 0001:00045cf0       _lj_ffh_ipairs_aux         10046cf0 f    CIL library: CIL module
 0001:00045d20       _ffh_pairs                 10046d20 f    CIL library: CIL module
 0001:00045db0       _lj_ffh_next               10046db0 f    CIL library: CIL module
 0001:00045dd0       _lj_cf_coroutine_create    10046dd0 f    CIL library: CIL module
 0001:00045e20       _lj_cf_coroutine_status    10046e20 f    CIL library: CIL module
 0001:00045ed0       _lj_cf_print               10046ed0 f    CIL library: CIL module
 0001:00046050       _lj_cf_newproxy            10047050 f    CIL library: CIL module
 0001:00046130       _reader_func               10047130 f    CIL library: CIL module
 0001:000461c0       _lj_ffh_tostring           100471c0 f    CIL library: CIL module
 0001:00046290       _lj_ffh_tonumber           10047290 f    CIL library: CIL module
 0001:00046420       _lj_cf_unpack              10047420 f    CIL library: CIL module
 0001:00046500       _lj_cf_getfenv             10047500 f    CIL library: CIL module
 0001:00046570       _lj_ffh_ipairs             10047570 f    CIL library: CIL module
 0001:00046580       _lj_ffh_pairs              10047580 f    CIL library: CIL module
 0001:00046590       _lj_ffh_assert             10047590 f    CIL library: CIL module
 0001:000465d0       _lj_lib_pushcc             100475d0 f    CIL library: CIL module
 0001:00046600       _lj_cf_coroutine_wrap      10047600 f    CIL library: CIL module
 0001:00046650       _lj_cf_collectgarbage      10047650 f    CIL library: CIL module
 0001:000466f0       _lj_cf_error               100476f0 f    CIL library: CIL module
 0001:000467d0       _lj_cf_load                100477d0 f    CIL library: CIL module
 0001:000468b0       _lj_cf_loadfile            100478b0 f    CIL library: CIL module
 0001:00046910       _lj_cf_dofile              10047910 f    CIL library: CIL module
 0001:00046970       _lj_cf_loadstring          10047970 f    CIL library: CIL module
 0001:000469a0       _libsize                   100479a0 f    CIL library: CIL module
 0001:000469b0       _setintV                   100479b0 f    CIL library: CIL module
 0001:00046ad0       _panic                     10047ad0 f    CIL library: CIL module
 0001:00046b40       _emptybuffer               10047b40 f    CIL library: CIL module
 0001:00046d60       _adjuststack               10047d60 f    CIL library: CIL module
 0001:000471a0       _lj_ir_nextins             100481a0 f    CIL library: CIL module
 0001:000471c0       _split_emit                100481c0 f    CIL library: CIL module
 0001:00047200       _split_ptr                 10048200 f    CIL library: CIL module
 0001:00047290       _split_call_ll             10048290 f    CIL library: CIL module
 0001:00047320       _split_ir                  10048320 f    CIL library: CIL module
 0001:00047a90       _cpsplit                   10048a90 f    CIL library: CIL module
 0001:00047ae0       _lj_ffh_bit_band           10048ae0 f    CIL library: CIL module
 0001:00047b10       _lj_ffh_bit_lshift         10048b10 f    CIL library: CIL module
 0001:00047b40       _lj_ffh_bit_tobit          10048b40 f    CIL library: CIL module
 0001:00047b60       _lj_cf_bit_tohex           10048b60 f    CIL library: CIL module
 0001:0004814c       _has_osfxsr_set            1004914c f   MSVCRT:cpu_disp.obj

 Exports

  ordinal    name

        1    _luaJIT_setmode
               exported name: luaJIT_setmode
        2    _luaJIT_version_2_0_1
               exported name: luaJIT_version_2_0_1
        3    _luaL_addlstring
               exported name: luaL_addlstring
        4    _luaL_addstring
               exported name: luaL_addstring
        5    _luaL_addvalue
               exported name: luaL_addvalue
        6    _luaL_argerror
               exported name: luaL_argerror
        7    _luaL_buffinit
               exported name: luaL_buffinit
        8    _luaL_callmeta
               exported name: luaL_callmeta
        9    _luaL_checkany
               exported name: luaL_checkany
       10    _luaL_checkinteger
               exported name: luaL_checkinteger
       11    _luaL_checklstring
               exported name: luaL_checklstring
       12    _luaL_checknumber
               exported name: luaL_checknumber
       13    _luaL_checkoption
               exported name: luaL_checkoption
       14    _luaL_checkstack
               exported name: luaL_checkstack
       15    _luaL_checktype
               exported name: luaL_checktype
       16    _luaL_checkudata
               exported name: luaL_checkudata
       17    _luaL_error
               exported name: luaL_error
       18    _luaL_execresult
               exported name: luaL_execresult
       19    _luaL_fileresult
               exported name: luaL_fileresult
       20    _luaL_findtable
               exported name: luaL_findtable
       21    _luaL_getmetafield
               exported name: luaL_getmetafield
       22    _luaL_gsub
               exported name: luaL_gsub
       23    _luaL_loadbuffer
               exported name: luaL_loadbuffer
       24    _luaL_loadbufferx
               exported name: luaL_loadbufferx
       25    _luaL_loadfile
               exported name: luaL_loadfile
       26    _luaL_loadfilex
               exported name: luaL_loadfilex
       27    _luaL_loadstring
               exported name: luaL_loadstring
       28    _luaL_newmetatable
               exported name: luaL_newmetatable
       29    _luaL_newstate
               exported name: luaL_newstate
       30    _luaL_openlib
               exported name: luaL_openlib
       31    _luaL_openlibs
               exported name: luaL_openlibs
       32    _luaL_optinteger
               exported name: luaL_optinteger
       33    _luaL_optlstring
               exported name: luaL_optlstring
       34    _luaL_optnumber
               exported name: luaL_optnumber
       35    _luaL_prepbuffer
               exported name: luaL_prepbuffer
       36    _luaL_pushresult
               exported name: luaL_pushresult
       37    _luaL_ref
               exported name: luaL_ref
       38    _luaL_register
               exported name: luaL_register
       39    _luaL_traceback
               exported name: luaL_traceback
       40    _luaL_typerror
               exported name: luaL_typerror
       41    _luaL_unref
               exported name: luaL_unref
       42    _luaL_where
               exported name: luaL_where
       43    _lua_atpanic
               exported name: lua_atpanic
       44    _lua_call
               exported name: lua_call
       45    _lua_checkstack
               exported name: lua_checkstack
       46    _lua_close
               exported name: lua_close
       47    _lua_concat
               exported name: lua_concat
       48    _lua_cpcall
               exported name: lua_cpcall
       49    _lua_createtable
               exported name: lua_createtable
       50    _lua_dump
               exported name: lua_dump
       51    _lua_equal
               exported name: lua_equal
       52    _lua_error
               exported name: lua_error
       53    _lua_gc
               exported name: lua_gc
       54    _lua_getallocf
               exported name: lua_getallocf
       55    _lua_getfenv
               exported name: lua_getfenv
       56    _lua_getfield
               exported name: lua_getfield
       57    _lua_gethook
               exported name: lua_gethook
       58    _lua_gethookcount
               exported name: lua_gethookcount
       59    _lua_gethookmask
               exported name: lua_gethookmask
       60    _lua_getinfo
               exported name: lua_getinfo
       61    _lua_getlocal
               exported name: lua_getlocal
       62    _lua_getmetatable
               exported name: lua_getmetatable
       63    _lua_getstack
               exported name: lua_getstack
       64    _lua_gettable
               exported name: lua_gettable
       65    _lua_gettop
               exported name: lua_gettop
       66    _lua_getupvalue
               exported name: lua_getupvalue
       67    _lua_insert
               exported name: lua_insert
       68    _lua_iscfunction
               exported name: lua_iscfunction
       69    _lua_isnumber
               exported name: lua_isnumber
       70    _lua_isstring
               exported name: lua_isstring
       71    _lua_isuserdata
               exported name: lua_isuserdata
       72    _lua_lessthan
               exported name: lua_lessthan
       73    _lua_load
               exported name: lua_load
       74    _lua_loadx
               exported name: lua_loadx
       75    _lua_newstate
               exported name: lua_newstate
       76    _lua_newthread
               exported name: lua_newthread
       77    _lua_newuserdata
               exported name: lua_newuserdata
       78    _lua_next
               exported name: lua_next
       79    _lua_objlen
               exported name: lua_objlen
       80    _lua_pcall
               exported name: lua_pcall
       81    _lua_pushboolean
               exported name: lua_pushboolean
       82    _lua_pushcclosure
               exported name: lua_pushcclosure
       83    _lua_pushfstring
               exported name: lua_pushfstring
       84    _lua_pushinteger
               exported name: lua_pushinteger
       85    _lua_pushlightuserdata
               exported name: lua_pushlightuserdata
       86    _lua_pushlstring
               exported name: lua_pushlstring
       87    _lua_pushnil
               exported name: lua_pushnil
       88    _lua_pushnumber
               exported name: lua_pushnumber
       89    _lua_pushstring
               exported name: lua_pushstring
       90    _lua_pushthread
               exported name: lua_pushthread
       91    _lua_pushvalue
               exported name: lua_pushvalue
       92    _lua_pushvfstring
               exported name: lua_pushvfstring
       93    _lua_rawequal
               exported name: lua_rawequal
       94    _lua_rawget
               exported name: lua_rawget
       95    _lua_rawgeti
               exported name: lua_rawgeti
       96    _lua_rawset
               exported name: lua_rawset
       97    _lua_rawseti
               exported name: lua_rawseti
       98    _lua_remove
               exported name: lua_remove
       99    _lua_replace
               exported name: lua_replace
      100    _lua_resume
               exported name: lua_resume
      101    _lua_setallocf
               exported name: lua_setallocf
      102    _lua_setfenv
               exported name: lua_setfenv
      103    _lua_setfield
               exported name: lua_setfield
      104    _lua_sethook
               exported name: lua_sethook
      105    _lua_setlocal
               exported name: lua_setlocal
      106    _lua_setmetatable
               exported name: lua_setmetatable
      107    _lua_settable
               exported name: lua_settable
      108    _lua_settop
               exported name: lua_settop
      109    _lua_setupvalue
               exported name: lua_setupvalue
      110    _lua_status
               exported name: lua_status
      111    _lua_toboolean
               exported name: lua_toboolean
      112    _lua_tocfunction
               exported name: lua_tocfunction
      113    _lua_tointeger
               exported name: lua_tointeger
      114    _lua_tolstring
               exported name: lua_tolstring
      115    _lua_tonumber
               exported name: lua_tonumber
      116    _lua_topointer
               exported name: lua_topointer
      117    _lua_tothread
               exported name: lua_tothread
      118    _lua_touserdata
               exported name: lua_touserdata
      119    _lua_type
               exported name: lua_type
      120    _lua_typename
               exported name: lua_typename
      121    _lua_upvalueid
               exported name: lua_upvalueid
      122    _lua_upvaluejoin
               exported name: lua_upvaluejoin
      123    _lua_xmove
               exported name: lua_xmove
      124    _lua_yield
               exported name: lua_yield
      125    _luaopen_base
               exported name: luaopen_base
      126    _luaopen_bit
               exported name: luaopen_bit
      127    _luaopen_debug
               exported name: luaopen_debug
      128    _luaopen_ffi
               exported name: luaopen_ffi
      129    _luaopen_io
               exported name: luaopen_io
      130    _luaopen_jit
               exported name: luaopen_jit
      131    _luaopen_math
               exported name: luaopen_math
      132    _luaopen_os
               exported name: luaopen_os
      133    _luaopen_package
               exported name: luaopen_package
      134    _luaopen_string
               exported name: luaopen_string
      135    _luaopen_table
               exported name: luaopen_table
