 plugin_test1

 Timestamp is 532c0705 (Fri Mar 21 12:31:49 2014)

 Preferred load address is 10000000

 Start         Length     Name                   Class
 0001:00000000 00035241H .text                   CODE
 0001:00035250 00000d28H .text$x                 CODE
 0001:00035f80 000019f1H .text$yc                CODE
 0001:00037980 00000a3aH .text$yd                CODE
 0002:00000000 00000224H .idata$5                DATA
 0002:00000224 00000004H .CRT$XCA                DATA
 0002:00000228 00001060H .CRT$XCU                DATA
 0002:00001288 00000004H .CRT$XCZ                DATA
 0002:0000128c 00000004H .CRT$XIA                DATA
 0002:00001290 00000004H .CRT$XIAA               DATA
 0002:00001294 00000004H .CRT$XIC                DATA
 0002:00001298 00000004H .CRT$XIZ                DATA
 0002:000012a0 0000ced0H .rdata                  DATA
 0002:0000e170 00001e6cH .rdata$r                DATA
 0002:0000ffe0 0000018cH .rdata$sxdata           DATA
 0002:0001016c 00000004H .rtc$IAA                DATA
 0002:00010170 00000004H .rtc$IZZ                DATA
 0002:00010174 00000004H .rtc$TAA                DATA
 0002:00010178 00000004H .rtc$TZZ                DATA
 0002:00010180 000014f4H .xdata$x                DATA
 0002:00011674 0000008cH .idata$2                DATA
 0002:00011700 00000014H .idata$3                DATA
 0002:00011714 00000224H .idata$4                DATA
 0002:00011938 000009caH .idata$6                DATA
 0002:00012310 0000005cH .edata                  DATA
 0003:00000000 000015f0H .data                   DATA
 0003:000015f0 000019e8H .bss                    DATA

  Address         Publics by Value              Rva+Base       Lib:Object

 0000:00000000       __except_list              00000000     <absolute>
 0000:00000063       ___safe_se_handler_count   00000063     <absolute>
 0000:00009876       __ldused                   00009876     <absolute>
 0000:00009876       __fltused                  00009876     <absolute>
 0000:00000000       ___ImageBase               10000000     <linker-defined>
 0001:00000000       ??1SCMemShared@core@UModSys@@QAE@XZ 10001000 f i plugin_test1.obj
 0001:00000000       ??1State@RImage_Memory@stdlib@lib2d@modules@UModSys@@QAE@XZ 10001000 f i umodsys_lib_lib2d:umodsys.mod.2d.stdlib.obj
 0001:00000000       ??1SMemShared@core@UModSys@@QAE@XZ 10001000 f i plugin_test1.obj
 0001:00000020       ??4SCMemShared@core@UModSys@@QAEABU012@ABUSMemShared@12@@Z 10001020 f i plugin_test1.obj
 0001:00000050       ??3IRoot@core@UModSys@@SAXPAXABUSIMemAlloc@12@@Z 10001050 f i plugin_test1.obj
 0001:00000060       ??$seq@D@su@tl@UModSys@@YA_NPBD0@Z 10001060 f i plugin_test1.obj
 0001:000000a0       ?s@SFrameDataOut@libui@UModSys@@QBEXQBD@Z 100010a0 f i plugin_test1.obj
 0001:000000e0       ?set_info@IImage@lib2d@UModSys@@QAE_NW4eImageType@23@HHPBD@Z 100010e0 f i plugin_test1.obj
 0001:00000110       ??_GIRoot@core@UModSys@@UAEPAXI@Z 10001110 f i plugin_test1.obj
 0001:00000110       ??_EIRoot@core@UModSys@@UAEPAXI@Z 10001110 f i  CIL library: CIL module
 0001:00000130       ??1IBinObjFilter@libmedia@UModSys@@UAE@XZ 10001130 f i plugin_test1.obj
 0001:00000180       ?root_get_interface_info@RTest1_Shell@test1@test@modules@UModSys@@UBEABUSUniquePointerInfo@core@5@XZ 10001180 f i plugin_test1.obj
 0001:00000190       ?root_get_interface_type@RTest1_Shell@test1@test@modules@UModSys@@UBEPBUSUniquePointerInfo@core@5@XZ 10001190 f i plugin_test1.obj
 0001:000001a0       ?root_get_other_interface@RTest1_Shell@test1@test@modules@UModSys@@UBEPBUIRoot@core@5@PBUSUniquePointerInfo@75@@Z 100011a0 f i plugin_test1.obj
 0001:000001a0       ?root_get_other_interface@RTest1_Shell@test1@test@modules@UModSys@@UAEPAUIRoot@core@5@PBUSUniquePointerInfo@75@@Z 100011a0 f i plugin_test1.obj
 0001:000001d0       ?root_is_interface_supported@RTest1_Shell@test1@test@modules@UModSys@@UBE_NPBUSUniquePointerInfo@core@5@@Z 100011d0 f i plugin_test1.obj
 0001:00000210       ?ref_add@RTest1_Shell@test1@test@modules@UModSys@@UBEXXZ 10001210 f i plugin_test1.obj
 0001:00000220       ?ref_remove@RTest1_Shell@test1@test@modules@UModSys@@UBEXXZ 10001220 f i plugin_test1.obj
 0001:00000230       ?ref_links@RTest1_Shell@test1@test@modules@UModSys@@UBEHXZ 10001230 f i plugin_test1.obj
 0001:00000240       ?ref_weak@RTest1_Shell@test1@test@modules@UModSys@@UBE_NAAUWeakPointer@IRefObject@core@5@@Z 10001240 f i plugin_test1.obj
 0001:00000260       ?suicide@RTest1_Shell@test1@test@modules@UModSys@@UAEXXZ 10001260 f i plugin_test1.obj
 0001:00000270       ?set@VertexPC@UI_Info@RTest1_Shell@test1@test@modules@UModSys@@QAEXABU?$TVector3@N@math3d@7@ABU?$TVector3@M@97@@Z 10001270 f i plugin_test1.obj
 0001:00000340       ??0RTest1_Shell@test1@test@modules@UModSys@@QAE@PAUIModObject@base@4@@Z 10001340 f i plugin_test1.obj
 0001:00000490       ??1RTest1_Shell@test1@test@modules@UModSys@@UAE@XZ 10001490 f i plugin_test1.obj
 0001:00000540       ?connect@RTest1_Shell@test1@test@modules@UModSys@@UAE_NXZ 10001540 f i plugin_test1.obj
 0001:00000560       ?disconnect@RTest1_Shell@test1@test@modules@UModSys@@UAE_NXZ 10001560 f i plugin_test1.obj
 0001:00000580       ?process_tick@RTest1_Shell@test1@test@modules@UModSys@@UAE_NABUSTimeMsec@core@5@@Z 10001580 f i plugin_test1.obj
 0001:000005b0       ?process_command@RTest1_Shell@test1@test@modules@UModSys@@UAE_NHQBU?$TString@U?$TSCoreConst@D@su@tl@UModSys@@U?$TComparerBinaryHash@D@234@@tl@5@@Z 100015b0 f i plugin_test1.obj
 0001:000005d0       ??_GRTest1_Shell@test1@test@modules@UModSys@@UAEPAXI@Z 100015d0 f i plugin_test1.obj
 0001:000005d0       ??_ERTest1_Shell@test1@test@modules@UModSys@@UAEPAXI@Z 100015d0 f i  CIL library: CIL module
 0001:000005f0       ??1ISerializeWriter@libmedia@UModSys@@UAE@XZ 100015f0 f i umodsys_lib_libmedia:umodsys.mod.media.serialize_json.obj
 0001:000005f0       ??1IImageFactory@lib2d@UModSys@@UAE@XZ 100015f0 f i umodsys_lib_lib2d:umodsys.mod.2d.stdlib.obj
 0001:000005f0       ??1IDialog@libui@UModSys@@UAE@XZ 100015f0 f i umodsys_lib_libui:umodsys.mod.ui.frames.obj
 0001:000005f0       ??1IRenderDriver@lib2d@UModSys@@UAE@XZ 100015f0 f i umodsys_lib_libui:umodsys.mod.ui.SDL_GL.obj
 0001:000005f0       ??1IVertexArray@lib3d@UModSys@@UAE@XZ 100015f0 f i umodsys_lib_libui:umodsys.mod.ui.SDL_GL.obj
 0001:000005f0       ??1IRenderDriver@lib3d@UModSys@@UAE@XZ 100015f0 f i umodsys_lib_libui:umodsys.mod.ui.SDL_GL.obj
 0001:000005f0       ??1IMouseController@libui@UModSys@@UAE@XZ 100015f0 f i umodsys_lib_libui:umodsys.mod.ui.SDL_GL.obj
 0001:000005f0       ??1IImage@lib2d@UModSys@@UAE@XZ 100015f0 f i umodsys_lib_lib2d:umodsys.mod.2d.stdlib.obj
 0001:000005f0       ??1IKeyboardController@libui@UModSys@@UAE@XZ 100015f0 f i umodsys_lib_libui:umodsys.mod.ui.SDL_GL.obj
 0001:000005f0       ??1IFrame@libui@UModSys@@UAE@XZ 100015f0 f i umodsys_lib_libui:umodsys.mod.ui.frames.obj
 0001:000005f0       ??1IMultiImage@lib2d@UModSys@@UAE@XZ 100015f0 f i umodsys_lib_lib2d:umodsys.mod.2d.stdlib.obj
 0001:000005f0       ??1IClient@IBinArchiveFrame@libmedia@UModSys@@UAE@XZ 100015f0 f i umodsys_lib_libmedia:umodsys.mod.media.zlib.obj
 0001:000005f0       ??1ITerminal@libui@UModSys@@UAE@XZ 100015f0 f i umodsys_lib_libui:umodsys.mod.ui.SDL_GL.obj
 0001:000005f0       ??1ISerializeReader@libmedia@UModSys@@UAE@XZ 100015f0 f i umodsys_lib_libmedia:umodsys.mod.media.serialize_json.obj
 0001:000005f0       ??1IShell@base@UModSys@@UAE@XZ 100015f0 f i plugin_test1.obj
 0001:000005f0       ??1ICollector@libui@UModSys@@UAE@XZ 100015f0 f i umodsys_lib_libui:umodsys.mod.ui.frames.obj
 0001:00000600       ??1SFrameCreateParameters@libui@UModSys@@QAE@XZ 10001600 f i plugin_test1.obj
 0001:00000620       ??1UI_Info@RTest1_Shell@test1@test@modules@UModSys@@QAE@XZ 10001620 f i plugin_test1.obj
 0001:00000750       ?get_generated_names@RGenerator@test1@test@modules@UModSys@@UBEHAAUSUniquePtrList@core@5@@Z 10001750 f i plugin_test1.obj
 0001:00000770       ?get_generated_types@RGenerator@test1@test@modules@UModSys@@UBEHAAUSUniquePtrList@core@5@PBUSUniquePointerInfo@75@@Z 10001770 f i plugin_test1.obj
 0001:000007c0       ?generate@RGenerator@test1@test@modules@UModSys@@UAE_NAAU?$TRefObject@UIRefObject@core@UModSys@@U?$TRefObjectFunc@UIRefObject@core@UModSys@@@tl@3@@tl@5@PBUSUniquePointerInfo@core@5@ABUSParameters@95@@Z 100017c0 f i plugin_test1.obj
 0001:00000880       ?root_get_interface_info@RGenerator@test1@test@modules@UModSys@@UBEABUSUniquePointerInfo@core@5@XZ 10001880 f i plugin_test1.obj
 0001:00000890       ?root_get_interface_type@RGenerator@test1@test@modules@UModSys@@UBEPBUSUniquePointerInfo@core@5@XZ 10001890 f i plugin_test1.obj
 0001:000008a0       ?root_get_other_interface@RGenerator@test1@test@modules@UModSys@@UAEPAUIRoot@core@5@PBUSUniquePointerInfo@75@@Z 100018a0 f i plugin_test1.obj
 0001:000008a0       ?root_get_other_interface@RGenerator@test1@test@modules@UModSys@@UBEPBUIRoot@core@5@PBUSUniquePointerInfo@75@@Z 100018a0 f i plugin_test1.obj
 0001:000008e0       ?root_is_interface_supported@RGenerator@test1@test@modules@UModSys@@UBE_NPBUSUniquePointerInfo@core@5@@Z 100018e0 f i plugin_test1.obj
 0001:00000920       ?get_uid@RGenerator@test1@test@modules@UModSys@@UBEPBUSUniquePointerInfo@core@5@XZ 10001920 f i plugin_test1.obj
 0001:00000930       ?do_open@RModuleReg@test1@test@modules@UModSys@@UAE_NXZ 10001930 f i plugin_test1.obj
 0001:00000960       ?do_close@RModuleReg@test1@test@modules@UModSys@@UAE_NXZ 10001960 f i plugin_test1.obj
 0001:00000990       ??_ERModuleReg@test1@test@modules@UModSys@@UAEPAXI@Z 10001990 f i  CIL library: CIL module
 0001:00000990       ??_GRModuleReg@test1@test@modules@UModSys@@UAEPAXI@Z 10001990 f i plugin_test1.obj
 0001:000009c0       ??0?$TString@U?$TSCoreConst@D@su@tl@UModSys@@U?$TComparerBinaryHash@D@234@@tl@UModSys@@QAE@PBD@Z 100019c0 f i plugin_test1.obj
 0001:00000a10       ??8?$TString@U?$TSCoreConst@D@su@tl@UModSys@@U?$TComparerBinaryHash@D@234@@tl@UModSys@@QBE_NPBD@Z 10001a10 f i plugin_test1.obj
 0001:00000a40       ??4?$TString@U?$TSCoreShared@USIMemAlloc@core@UModSys@@D@su@tl@UModSys@@U?$TComparerBinaryHash@D@234@@tl@UModSys@@QAEABU012@ABU012@@Z 10001a40 f i plugin_test1.obj
 0001:00000a70       ??4?$TRefObject@UIRefObject@core@UModSys@@U?$TRefObjectFunc@UIRefObject@core@UModSys@@@tl@3@@tl@UModSys@@QAEABU012@PAUIRefObject@core@2@@Z 10001a70 f i plugin_test1.obj
 0001:00000a70       ??4?$TRefObject@URFrame_Common@frames@ui@modules@UModSys@@U?$TRefObjectFunc@URFrame_Common@frames@ui@modules@UModSys@@@tl@5@@tl@UModSys@@QAEABU012@PAURFrame_Common@frames@ui@modules@2@@Z 10001a70 f i umodsys_lib_libui:umodsys.mod.ui.frames.obj
 0001:00000a90       ??1?$TDynarrayDynamic@UVertexPC@UI_Info@RTest1_Shell@test1@test@modules@UModSys@@U?$TAllocator@USIMemAlloc@core@UModSys@@USCountCalcPower2@23@@tl@7@@tl@UModSys@@QAE@XZ 10001a90 f i plugin_test1.obj
 0001:00000ac0       ?Free@?$TDynarray@U?$TDynarrayHolderDynamic@UVertexPC@UI_Info@RTest1_Shell@test1@test@modules@UModSys@@U?$TAllocator@USIMemAlloc@core@UModSys@@USCountCalcPower2@23@@tl@7@@tl@UModSys@@@tl@UModSys@@QAE_NXZ 10001ac0 f i plugin_test1.obj
 0001:00000b20       ?info_release@?$TSCoreShared@USIMemAlloc@core@UModSys@@D@su@tl@UModSys@@QAEXXZ 10001b20 f i plugin_test1.obj
 0001:00000ba0       ?info_new@?$TSCoreShared@USIMemAlloc@core@UModSys@@D@su@tl@UModSys@@QAE_NPBDI@Z 10001ba0 f i plugin_test1.obj
 0001:00000c50       ?get_null@?$TSCoreShared@USIMemAlloc@core@UModSys@@D@su@tl@UModSys@@SAPAU?$TSharedStringInfo@DUSIMemAlloc@core@UModSys@@@234@XZ 10001c50 f i plugin_test1.obj
 0001:00000c90       ?set_look_at@?$TMatrix44@N@math3d@UModSys@@QAE_NABU?$TVector3@N@23@00@Z 10001c90 f i plugin_test1.obj
 0001:00000e50       ?set_inversed@?$TMatrix44@N@math3d@UModSys@@QAE_NABU123@@Z 10001e50 f i plugin_test1.obj
 0001:00001230       ??$generate_type@UICollector@libui@UModSys@@@RTest1_Shell@test1@test@modules@UModSys@@SA?AU?$TRefObject@UICollector@libui@UModSys@@U?$TRefObjectFunc@UICollector@libui@UModSys@@@tl@3@@tl@4@ABU?$TString@U?$TSCoreConst@D@su@tl@UModSys@@U?$TComparerBinaryHash@D@234@@64@ABUSParameters@core@4@PBD@Z 10002230 f i plugin_test1.obj
 0001:00001390       ??$generate_type@UITerminal@libui@UModSys@@@RTest1_Shell@test1@test@modules@UModSys@@SA?AU?$TRefObject@UITerminal@libui@UModSys@@U?$TRefObjectFunc@UITerminal@libui@UModSys@@@tl@3@@tl@4@ABU?$TString@U?$TSCoreConst@D@su@tl@UModSys@@U?$TComparerBinaryHash@D@234@@64@ABUSParameters@core@4@PBD@Z 10002390 f i plugin_test1.obj
 0001:000014f0       ??$t_create_handler@UIKeyboardController@libui@UModSys@@@ITerminal@libui@UModSys@@QAE_NAAU?$TRefObject@UIKeyboardController@libui@UModSys@@U?$TRefObjectFunc@UIKeyboardController@libui@UModSys@@@tl@3@@tl@2@PBDPBUSParameters@core@2@@Z 100024f0 f i plugin_test1.obj
 0001:000015a0       ??$t_create_handler@UIMouseController@libui@UModSys@@@ITerminal@libui@UModSys@@QAE_NAAU?$TRefObject@UIMouseController@libui@UModSys@@U?$TRefObjectFunc@UIMouseController@libui@UModSys@@@tl@3@@tl@2@PBDPBUSParameters@core@2@@Z 100025a0 f i plugin_test1.obj
 0001:00001650       ??$t_create_handler@UIRenderDriver@lib3d@UModSys@@@ITerminal@libui@UModSys@@QAE_NAAU?$TRefObject@UIRenderDriver@lib3d@UModSys@@U?$TRefObjectFunc@UIRenderDriver@lib3d@UModSys@@@tl@3@@tl@2@PBDPBUSParameters@core@2@@Z 10002650 f i plugin_test1.obj
 0001:00001700       ??$shash@D@su@tl@UModSys@@YAIPBDI@Z 10002700 f i plugin_test1.obj
 0001:00001740       ?normalize@?$TVector3@N@math3d@UModSys@@QAENXZ 10002740 f i plugin_test1.obj
 0001:000017a0       ?ReLink@?$TDynarray@U?$TDynarrayHolderDynamic@UVertexPC@UI_Info@RTest1_Shell@test1@test@modules@UModSys@@U?$TAllocator@USIMemAlloc@core@UModSys@@USCountCalcPower2@23@@tl@7@@tl@UModSys@@@tl@UModSys@@IAE_NI@Z 100027a0 f i plugin_test1.obj
 0001:000017f0       ??1?$TRefObject@UIModObject@base@UModSys@@U?$TModObjectFunc@UIModObject@base@UModSys@@@tl@3@@tl@UModSys@@QAE@XZ 100027f0 f i plugin_test1.obj
 0001:00001810       ?mult@?$TMatrix44@N@math3d@UModSys@@QAEXABU123@0@Z 10002810 f i plugin_test1.obj
 0001:00001a20       ?get_determinant@?$TMatrix44@N@math3d@UModSys@@QBENXZ 10002a20 f i plugin_test1.obj
 0001:00001ae0       ??$t_ref_get_other_interface@UIStreamReader@libmedia@UModSys@@U?$TRefObjectFunc@UIStreamReader@libmedia@UModSys@@@tl@3@@IRefObject@core@UModSys@@QAE_NAAU?$TRefObject@UIStreamReader@libmedia@UModSys@@U?$TRefObjectFunc@UIStreamReader@libmedia@UModSys@@@tl@3@@tl@2@@Z 10002ae0 f i plugin_test1.obj
 0001:00001b20       ??$t_ref_get_other_interface@UIStreamWriter@libmedia@UModSys@@U?$TRefObjectFunc@UIStreamWriter@libmedia@UModSys@@@tl@3@@IRefObject@core@UModSys@@QAE_NAAU?$TRefObject@UIStreamWriter@libmedia@UModSys@@U?$TRefObjectFunc@UIStreamWriter@libmedia@UModSys@@@tl@3@@tl@2@@Z 10002b20 f i plugin_test1.obj
 0001:00001b60       ??$t_generate@UICollector@libui@UModSys@@@SModuleContext@base@UModSys@@QAE_NAAU?$TRefObject@UICollector@libui@UModSys@@U?$TRefObjectFunc@UICollector@libui@UModSys@@@tl@3@@tl@2@PBUSUniquePointerInfo@core@2@ABUSParameters@62@@Z 10002b60 f i plugin_test1.obj
 0001:00001c10       ??$t_generate@UITerminal@libui@UModSys@@@SModuleContext@base@UModSys@@QAE_NAAU?$TRefObject@UITerminal@libui@UModSys@@U?$TRefObjectFunc@UITerminal@libui@UModSys@@@tl@3@@tl@2@PBUSUniquePointerInfo@core@2@ABUSParameters@62@@Z 10002c10 f i plugin_test1.obj
 0001:00001cc0       ??$t_ref_get_other_interface@UIImage@lib2d@UModSys@@U?$TRefObjectFunc@UIImage@lib2d@UModSys@@@tl@3@@IRefObject@core@UModSys@@QAE_NAAU?$TRefObject@UIImage@lib2d@UModSys@@U?$TRefObjectFunc@UIImage@lib2d@UModSys@@@tl@3@@tl@2@@Z 10002cc0 f i plugin_test1.obj
 0001:00001d00       ??$t_ref_get_other_interface@UIImageFactory@lib2d@UModSys@@U?$TRefObjectFunc@UIImageFactory@lib2d@UModSys@@@tl@3@@IRefObject@core@UModSys@@QAE_NAAU?$TRefObject@UIImageFactory@lib2d@UModSys@@U?$TRefObjectFunc@UIImageFactory@lib2d@UModSys@@@tl@3@@tl@2@@Z 10002d00 f i plugin_test1.obj
 0001:00001d40       ??$t_ref_get_other_interface@UIMultiImage@lib2d@UModSys@@U?$TRefObjectFunc@UIMultiImage@lib2d@UModSys@@@tl@3@@IRefObject@core@UModSys@@QAE_NAAU?$TRefObject@UIMultiImage@lib2d@UModSys@@U?$TRefObjectFunc@UIMultiImage@lib2d@UModSys@@@tl@3@@tl@2@@Z 10002d40 f i plugin_test1.obj
 0001:00001d80       ??$t_ref_get_other_interface@UICollector@libui@UModSys@@U?$TRefObjectFunc@UICollector@libui@UModSys@@@tl@3@@IRefObject@core@UModSys@@QAE_NAAU?$TRefObject@UICollector@libui@UModSys@@U?$TRefObjectFunc@UICollector@libui@UModSys@@@tl@3@@tl@2@@Z 10002d80 f i plugin_test1.obj
 0001:00001dc0       ??$t_ref_get_other_interface@UITerminal@libui@UModSys@@U?$TRefObjectFunc@UITerminal@libui@UModSys@@@tl@3@@IRefObject@core@UModSys@@QAE_NAAU?$TRefObject@UITerminal@libui@UModSys@@U?$TRefObjectFunc@UITerminal@libui@UModSys@@@tl@3@@tl@2@@Z 10002dc0 f i plugin_test1.obj
 0001:00001e00       ?alloc@SMemShared@core@UModSys@@QAE_NIPAUSSourceContext@23@@Z 10002e00 f i umodsys_lib_lib2d:umodsys.mod.2d.stdlib.obj
 0001:00001e40       ?ConvertSameSize@stdlib@lib2d@modules@UModSys@@YA_NW4eImageType@24@ABU?$TVector2@H@math3d@4@11ABUSMem@core@4@11ABUSCMem@94@@Z 10002e40 f i umodsys_lib_lib2d:umodsys.mod.2d.stdlib.obj
 0001:00001ed0       ?ConvertSame@stdlib@lib2d@modules@UModSys@@YA_NW4eImageType@24@ABU?$TBoundBox2@H@math3d@4@ABU?$TVector2@H@74@ABUSMem@core@4@12ABUSCMem@core@4@@Z 10002ed0 f i umodsys_lib_lib2d:umodsys.mod.2d.stdlib.obj
 0001:00001f50       ?Convert@stdlib@lib2d@modules@UModSys@@YA_NABU?$TBoundBox2@H@math3d@4@ABUSImageInfo@24@ABUSMem@core@4@01ABUSCMem@94@@Z 10002f50 f i umodsys_lib_lib2d:umodsys.mod.2d.stdlib.obj
 0001:00001fc0       ?root_get_interface_info@RImage_Memory@stdlib@lib2d@modules@UModSys@@UBEABUSUniquePointerInfo@core@5@XZ 10002fc0 f i umodsys_lib_lib2d:umodsys.mod.2d.stdlib.obj
 0001:00001fd0       ?root_get_interface_type@RImage_Memory@stdlib@lib2d@modules@UModSys@@UBEPBUSUniquePointerInfo@core@5@XZ 10002fd0 f i umodsys_lib_lib2d:umodsys.mod.2d.stdlib.obj
 0001:00001fe0       ?root_get_other_interface@RImage_Memory@stdlib@lib2d@modules@UModSys@@UBEPBUIRoot@core@5@PBUSUniquePointerInfo@75@@Z 10002fe0 f i umodsys_lib_lib2d:umodsys.mod.2d.stdlib.obj
 0001:00001fe0       ?root_get_other_interface@RImage_Memory@stdlib@lib2d@modules@UModSys@@UAEPAUIRoot@core@5@PBUSUniquePointerInfo@75@@Z 10002fe0 f i umodsys_lib_lib2d:umodsys.mod.2d.stdlib.obj
 0001:00002010       ?root_is_interface_supported@RImage_Memory@stdlib@lib2d@modules@UModSys@@UBE_NPBUSUniquePointerInfo@core@5@@Z 10003010 f i umodsys_lib_lib2d:umodsys.mod.2d.stdlib.obj
 0001:00002050       ?root_get_interface_info@RImageFactory_Memory@stdlib@lib2d@modules@UModSys@@UBEABUSUniquePointerInfo@core@5@XZ 10003050 f i umodsys_lib_lib2d:umodsys.mod.2d.stdlib.obj
 0001:00002060       ?root_get_interface_type@RImageFactory_Memory@stdlib@lib2d@modules@UModSys@@UBEPBUSUniquePointerInfo@core@5@XZ 10003060 f i umodsys_lib_lib2d:umodsys.mod.2d.stdlib.obj
 0001:00002070       ?root_get_other_interface@RImageFactory_Memory@stdlib@lib2d@modules@UModSys@@UBEPBUIRoot@core@5@PBUSUniquePointerInfo@75@@Z 10003070 f i umodsys_lib_lib2d:umodsys.mod.2d.stdlib.obj
 0001:00002070       ?root_get_other_interface@RImageFactory_Memory@stdlib@lib2d@modules@UModSys@@UAEPAUIRoot@core@5@PBUSUniquePointerInfo@75@@Z 10003070 f i umodsys_lib_lib2d:umodsys.mod.2d.stdlib.obj
 0001:000020a0       ?root_is_interface_supported@RImageFactory_Memory@stdlib@lib2d@modules@UModSys@@UBE_NPBUSUniquePointerInfo@core@5@@Z 100030a0 f i umodsys_lib_lib2d:umodsys.mod.2d.stdlib.obj
 0001:000020e0       ?root_get_interface_info@RMultiImage@stdlib@lib2d@modules@UModSys@@UBEABUSUniquePointerInfo@core@5@XZ 100030e0 f i umodsys_lib_lib2d:umodsys.mod.2d.stdlib.obj
 0001:000020f0       ?root_get_interface_type@RMultiImage@stdlib@lib2d@modules@UModSys@@UBEPBUSUniquePointerInfo@core@5@XZ 100030f0 f i umodsys_lib_lib2d:umodsys.mod.2d.stdlib.obj
 0001:00002100       ?root_get_other_interface@RMultiImage@stdlib@lib2d@modules@UModSys@@UAEPAUIRoot@core@5@PBUSUniquePointerInfo@75@@Z 10003100 f i umodsys_lib_lib2d:umodsys.mod.2d.stdlib.obj
 0001:00002100       ?root_get_other_interface@RMultiImage@stdlib@lib2d@modules@UModSys@@UBEPBUIRoot@core@5@PBUSUniquePointerInfo@75@@Z 10003100 f i umodsys_lib_lib2d:umodsys.mod.2d.stdlib.obj
 0001:00002130       ?root_is_interface_supported@RMultiImage@stdlib@lib2d@modules@UModSys@@UBE_NPBUSUniquePointerInfo@core@5@@Z 10003130 f i umodsys_lib_lib2d:umodsys.mod.2d.stdlib.obj
 0001:00002170       ?get_generated_names@RGenerator@stdlib@lib2d@modules@UModSys@@UBEHAAUSUniquePtrList@core@5@@Z 10003170 f i umodsys_lib_lib2d:umodsys.mod.2d.stdlib.obj
 0001:000021b0       ?get_generated_types@RGenerator@stdlib@lib2d@modules@UModSys@@UBEHAAUSUniquePtrList@core@5@PBUSUniquePointerInfo@75@@Z 100031b0 f i umodsys_lib_lib2d:umodsys.mod.2d.stdlib.obj
 0001:00002230       ?generate@RGenerator@stdlib@lib2d@modules@UModSys@@UAE_NAAU?$TRefObject@UIRefObject@core@UModSys@@U?$TRefObjectFunc@UIRefObject@core@UModSys@@@tl@3@@tl@5@PBUSUniquePointerInfo@core@5@ABUSParameters@95@@Z 10003230 f i umodsys_lib_lib2d:umodsys.mod.2d.stdlib.obj
 0001:00002290       ?root_get_interface_info@RGenerator@stdlib@lib2d@modules@UModSys@@UBEABUSUniquePointerInfo@core@5@XZ 10003290 f i umodsys_lib_lib2d:umodsys.mod.2d.stdlib.obj
 0001:000022a0       ?root_get_interface_type@RGenerator@stdlib@lib2d@modules@UModSys@@UBEPBUSUniquePointerInfo@core@5@XZ 100032a0 f i umodsys_lib_lib2d:umodsys.mod.2d.stdlib.obj
 0001:000022b0       ?root_get_other_interface@RGenerator@stdlib@lib2d@modules@UModSys@@UAEPAUIRoot@core@5@PBUSUniquePointerInfo@75@@Z 100032b0 f i umodsys_lib_lib2d:umodsys.mod.2d.stdlib.obj
 0001:000022b0       ?root_get_other_interface@RGenerator@stdlib@lib2d@modules@UModSys@@UBEPBUIRoot@core@5@PBUSUniquePointerInfo@75@@Z 100032b0 f i umodsys_lib_lib2d:umodsys.mod.2d.stdlib.obj
 0001:000022f0       ?root_is_interface_supported@RGenerator@stdlib@lib2d@modules@UModSys@@UBE_NPBUSUniquePointerInfo@core@5@@Z 100032f0 f i umodsys_lib_lib2d:umodsys.mod.2d.stdlib.obj
 0001:00002330       ?ref_add@RTerminal@SDL_core@ui@modules@UModSys@@UBEXXZ 10003330 f i umodsys_lib_libui:umodsys.mod.ui.SDL_core.obj
 0001:00002330       ?ref_add@RGenerator@serialize_json@media@modules@UModSys@@UBEXXZ 10003330 f i umodsys_lib_libmedia:umodsys.mod.media.serialize_json.obj
 0001:00002330       ?ref_add@RGenerator@test1@test@modules@UModSys@@UBEXXZ 10003330 f i plugin_test1.obj
 0001:00002330       ?ref_add@RImage_Memory@stdlib@lib2d@modules@UModSys@@UBEXXZ 10003330 f i umodsys_lib_lib2d:umodsys.mod.2d.stdlib.obj
 0001:00002330       ?ref_add@RVertexArray@SDL_GL@ui@modules@UModSys@@UBEXXZ 10003330 f i umodsys_lib_libui:umodsys.mod.ui.SDL_GL.obj
 0001:00002330       ?ref_add@RTerminal@SDL_GL@ui@modules@UModSys@@UBEXXZ 10003330 f i umodsys_lib_libui:umodsys.mod.ui.SDL_GL.obj
 0001:00002330       ?ref_add@RGenerator@stdlib@lib2d@modules@UModSys@@UBEXXZ 10003330 f i umodsys_lib_lib2d:umodsys.mod.2d.stdlib.obj
 0001:00002330       ?ref_add@RSerializeReader@serialize_json@media@modules@UModSys@@UBEXXZ 10003330 f i umodsys_lib_libmedia:umodsys.mod.media.serialize_json.obj
 0001:00002330       ?ref_add@RGenerator@SDL_core@ui@modules@UModSys@@UBEXXZ 10003330 f i umodsys_lib_libui:umodsys.mod.ui.SDL_core.obj
 0001:00002330       ?ref_add@RMultiImage2D_SDL_ttf@SDL_GL@ui@modules@UModSys@@UBEXXZ 10003330 f i umodsys_lib_libui:umodsys.mod.ui.SDL_GL.obj
 0001:00002330       ?ref_add@RGenerator@zlib@media@modules@UModSys@@UBEXXZ 10003330 f i umodsys_lib_libmedia:umodsys.mod.media.zlib.obj
 0001:00002330       ?ref_add@RMultiImage@stdlib@lib2d@modules@UModSys@@UBEXXZ 10003330 f i umodsys_lib_lib2d:umodsys.mod.2d.stdlib.obj
 0001:00002330       ?ref_add@RBinArchiveFrameClient_ZIP@zlib@media@modules@UModSys@@UBEXXZ 10003330 f i umodsys_lib_libmedia:umodsys.mod.media.zlib.obj
 0001:00002330       ?ref_add@RGenerator@SDL_GL@ui@modules@UModSys@@UBEXXZ 10003330 f i umodsys_lib_libui:umodsys.mod.ui.SDL_GL.obj
 0001:00002330       ?ref_add@RMultiImage2D_SDL_ttf@SDL_core@ui@modules@UModSys@@UBEXXZ 10003330 f i umodsys_lib_libui:umodsys.mod.ui.SDL_core.obj
 0001:00002330       ?ref_add@RGenerator@images_std@media@modules@UModSys@@UBEXXZ 10003330 f i umodsys_lib_libmedia:umodsys.mod.media.images_std.obj
 0001:00002330       ?ref_add@RDialog@frames@ui@modules@UModSys@@UBEXXZ 10003330 f i umodsys_lib_libui:umodsys.mod.ui.frames.obj
 0001:00002330       ?ref_add@RImageFactory_Memory@stdlib@lib2d@modules@UModSys@@UBEXXZ 10003330 f i umodsys_lib_lib2d:umodsys.mod.2d.stdlib.obj
 0001:00002330       ?ref_add@RGenerator@frames@ui@modules@UModSys@@UBEXXZ 10003330 f i umodsys_lib_libui:umodsys.mod.ui.frames.obj
 0001:00002340       ?get_uid@RGenerator@stdlib@lib2d@modules@UModSys@@UBEPBUSUniquePointerInfo@core@5@XZ 10003340 f i umodsys_lib_lib2d:umodsys.mod.2d.stdlib.obj
 0001:00002350       ??4State@RImage_Memory@stdlib@lib2d@modules@UModSys@@QAEAAU012345@ABU012345@@Z 10003350 f i umodsys_lib_lib2d:umodsys.mod.2d.stdlib.obj
 0001:00002400       ??_GRImage_Memory@stdlib@lib2d@modules@UModSys@@UAEPAXI@Z 10003400 f i umodsys_lib_lib2d:umodsys.mod.2d.stdlib.obj
 0001:00002400       ??_ERImage_Memory@stdlib@lib2d@modules@UModSys@@UAEPAXI@Z 10003400 f i  CIL library: CIL module
 0001:00002420       ??1?$TParametersA@$0BAL@@core@UModSys@@QAE@XZ 10003420 f i umodsys_lib_lib2d:umodsys.mod.2d.stdlib.obj
 0001:00002420       ??1?$TParametersA@$0EAA@@core@UModSys@@QAE@XZ 10003420 f i plugin_test1.obj
 0001:00002420       ??1SParameters@core@UModSys@@QAE@XZ 10003420 f i plugin_test1.obj
 0001:00002420       ??1?$TParametersA@$0BAA@@core@UModSys@@QAE@XZ 10003420 f i umodsys_lib_libui:umodsys.mod.ui.SDL_core.obj
 0001:00002430       ??_GRImageFactory_Memory@stdlib@lib2d@modules@UModSys@@UAEPAXI@Z 10003430 f i umodsys_lib_lib2d:umodsys.mod.2d.stdlib.obj
 0001:00002430       ??_ERImageFactory_Memory@stdlib@lib2d@modules@UModSys@@UAEPAXI@Z 10003430 f i  CIL library: CIL module
 0001:00002450       ??_ERMultiImage@stdlib@lib2d@modules@UModSys@@UAEPAXI@Z 10003450 f i  CIL library: CIL module
 0001:00002450       ??_GRMultiImage@stdlib@lib2d@modules@UModSys@@UAEPAXI@Z 10003450 f i umodsys_lib_lib2d:umodsys.mod.2d.stdlib.obj
 0001:00002470       ?do_open@RModuleReg@stdlib@lib2d@modules@UModSys@@UAE_NXZ 10003470 f i umodsys_lib_lib2d:umodsys.mod.2d.stdlib.obj
 0001:00002480       ?do_close@RModuleReg@stdlib@lib2d@modules@UModSys@@UAE_NXZ 10003480 f i umodsys_lib_lib2d:umodsys.mod.2d.stdlib.obj
 0001:00002490       ??_GRModuleReg@stdlib@lib2d@modules@UModSys@@UAEPAXI@Z 10003490 f i umodsys_lib_lib2d:umodsys.mod.2d.stdlib.obj
 0001:00002490       ??_ERModuleReg@stdlib@lib2d@modules@UModSys@@UAEPAXI@Z 10003490 f i  CIL library: CIL module
 0001:000024c0       ??1?$TDynarrayDynamic@USImageCellInfo@lib2d@UModSys@@U?$TAllocator@USIMemAlloc@core@UModSys@@USCountCalcPower2@23@@tl@3@@tl@UModSys@@QAE@XZ 100034c0 f i umodsys_lib_lib2d:umodsys.mod.2d.stdlib.obj
 0001:000024f0       ??1?$TDynarrayDynamic@U?$TRefObject@UIImage@lib2d@UModSys@@U?$TRefObjectFunc@UIImage@lib2d@UModSys@@@tl@3@@tl@UModSys@@U?$TAllocator@USIMemAlloc@core@UModSys@@USCountCalcPower2@23@@23@@tl@UModSys@@QAE@XZ 100034f0 f i umodsys_lib_lib2d:umodsys.mod.2d.stdlib.obj
 0001:00002540       ?Free@?$TDynarray@U?$TDynarrayHolderDynamic@USImageCellInfo@lib2d@UModSys@@U?$TAllocator@USIMemAlloc@core@UModSys@@USCountCalcPower2@23@@tl@3@@tl@UModSys@@@tl@UModSys@@QAE_NXZ 10003540 f i umodsys_lib_lib2d:umodsys.mod.2d.stdlib.obj
 0001:000025a0       ?ResizeRel@?$TDynarray@U?$TDynarrayHolderDynamic@U?$TRefObject@UIImage@lib2d@UModSys@@U?$TRefObjectFunc@UIImage@lib2d@UModSys@@@tl@3@@tl@UModSys@@U?$TAllocator@USIMemAlloc@core@UModSys@@USCountCalcPower2@23@@23@@tl@UModSys@@@tl@UModSys@@QAE_NH@Z 100035a0 f i umodsys_lib_lib2d:umodsys.mod.2d.stdlib.obj
 0001:00002610       ??$t_gen_param@URImage_Memory@stdlib@lib2d@modules@UModSys@@URGenerator@2345@@IGenerator@base@UModSys@@IAE_NPAURGenerator@stdlib@lib2d@modules@2@AAU?$TRefObject@UIRefObject@core@UModSys@@U?$TRefObjectFunc@UIRefObject@core@UModSys@@@tl@3@@tl@2@PBUSUniquePointerInfo@core@2@ABUSParameters@core@2@@Z 10003610 f i umodsys_lib_lib2d:umodsys.mod.2d.stdlib.obj
 0001:00002680       ??$t_gen_param@URImageFactory_Memory@stdlib@lib2d@modules@UModSys@@URGenerator@2345@@IGenerator@base@UModSys@@IAE_NPAURGenerator@stdlib@lib2d@modules@2@AAU?$TRefObject@UIRefObject@core@UModSys@@U?$TRefObjectFunc@UIRefObject@core@UModSys@@@tl@3@@tl@2@PBUSUniquePointerInfo@core@2@ABUSParameters@core@2@@Z 10003680 f i umodsys_lib_lib2d:umodsys.mod.2d.stdlib.obj
 0001:00002700       ??$t_gen_param@URMultiImage@stdlib@lib2d@modules@UModSys@@URGenerator@2345@@IGenerator@base@UModSys@@IAE_NPAURGenerator@stdlib@lib2d@modules@2@AAU?$TRefObject@UIRefObject@core@UModSys@@U?$TRefObjectFunc@UIRefObject@core@UModSys@@@tl@3@@tl@2@PBUSUniquePointerInfo@core@2@ABUSParameters@core@2@@Z 10003700 f i umodsys_lib_lib2d:umodsys.mod.2d.stdlib.obj
 0001:00002780       ??$ValidateConstruction@UIRefObject@core@UModSys@@URTerminalX@SDL_core@ui@modules@3@@core@UModSys@@YA_NAAU?$TRefObject@UIRefObject@core@UModSys@@U?$TRefObjectFunc@UIRefObject@core@UModSys@@@tl@3@@tl@1@PAURTerminalX@SDL_core@ui@modules@1@@Z 10003780 f i umodsys_lib_libui:umodsys.mod.ui.SDL_core.obj
 0001:00002780       ??$ValidateConstruction@UIRefObject@core@UModSys@@URImage_Memory@stdlib@lib2d@modules@3@@core@UModSys@@YA_NAAU?$TRefObject@UIRefObject@core@UModSys@@U?$TRefObjectFunc@UIRefObject@core@UModSys@@@tl@3@@tl@1@PAURImage_Memory@stdlib@lib2d@modules@1@@Z 10003780 f i umodsys_lib_lib2d:umodsys.mod.2d.stdlib.obj
 0001:00002780       ??$ValidateConstruction@UIRefObject@core@UModSys@@URTerminalX@SDL_GL@ui@modules@3@@core@UModSys@@YA_NAAU?$TRefObject@UIRefObject@core@UModSys@@U?$TRefObjectFunc@UIRefObject@core@UModSys@@@tl@3@@tl@1@PAURTerminalX@SDL_GL@ui@modules@1@@Z 10003780 f i umodsys_lib_libui:umodsys.mod.ui.SDL_GL.obj
 0001:00002780       ??$ValidateConstruction@UIRefObject@core@UModSys@@URMediaFilter@images_std@media@modules@3@@core@UModSys@@YA_NAAU?$TRefObject@UIRefObject@core@UModSys@@U?$TRefObjectFunc@UIRefObject@core@UModSys@@@tl@3@@tl@1@PAURMediaFilter@images_std@media@modules@1@@Z 10003780 f i umodsys_lib_libmedia:umodsys.mod.media.images_std.obj
 0001:00002780       ??$ValidateConstruction@UIImage@lib2d@UModSys@@URImage_Memory@stdlib@2modules@3@@core@UModSys@@YA_NAAU?$TRefObject@UIImage@lib2d@UModSys@@U?$TRefObjectFunc@UIImage@lib2d@UModSys@@@tl@3@@tl@1@PAURImage_Memory@stdlib@lib2d@modules@1@@Z 10003780 f i umodsys_lib_lib2d:umodsys.mod.2d.stdlib.obj
 0001:00002780       ??$ValidateConstruction@UIRefObject@core@UModSys@@URImageFactory_Memory@stdlib@lib2d@modules@3@@core@UModSys@@YA_NAAU?$TRefObject@UIRefObject@core@UModSys@@U?$TRefObjectFunc@UIRefObject@core@UModSys@@@tl@3@@tl@1@PAURImageFactory_Memory@stdlib@lib2d@modules@1@@Z 10003780 f i umodsys_lib_lib2d:umodsys.mod.2d.stdlib.obj
 0001:00002800       ??$ValidateConstruction@UIRefObject@core@UModSys@@URMultiImage@stdlib@lib2d@modules@3@@core@UModSys@@YA_NAAU?$TRefObject@UIRefObject@core@UModSys@@U?$TRefObjectFunc@UIRefObject@core@UModSys@@@tl@3@@tl@1@PAURMultiImage@stdlib@lib2d@modules@1@@Z 10003800 f i umodsys_lib_lib2d:umodsys.mod.2d.stdlib.obj
 0001:00002890       ?set_stage@SGLFuncs@SDL_GL@ui@modules@UModSys@@QBEXH@Z 10003890 f i umodsys_lib_libui:umodsys.mod.ui.SDL_GL.obj
 0001:000028d0       ?set_bound@SGLFuncs@SDL_GL@ui@modules@UModSys@@QBEXI@Z 100038d0 f i umodsys_lib_libui:umodsys.mod.ui.SDL_GL.obj
 0001:00002900       ?set_composite_all@SGLFuncsLegacy@SDL_GL@ui@modules@UModSys@@QBEXH@Z 10003900 f i umodsys_lib_libui:umodsys.mod.ui.SDL_GL.obj
 0001:00002990       ?force@TextureInfo@SGLFuncs@SDL_GL@ui@modules@UModSys@@QBEXABU23456@@Z 10003990 f i umodsys_lib_libui:umodsys.mod.ui.SDL_GL.obj
 0001:000029f0       ?set_minmag@TextureInfo@SGLFuncs@SDL_GL@ui@modules@UModSys@@QBEXABU23456@HH@Z 100039f0 f i umodsys_lib_libui:umodsys.mod.ui.SDL_GL.obj
 0001:00002a30       ?set_wrap@TextureInfo@SGLFuncs@SDL_GL@ui@modules@UModSys@@QBEXABU23456@HH@Z 10003a30 f i umodsys_lib_libui:umodsys.mod.ui.SDL_GL.obj
 0001:00002a70       ?crebind@STextureGL@SDL_GL@ui@modules@UModSys@@QAEX_N@Z 10003a70 f i umodsys_lib_libui:umodsys.mod.ui.SDL_GL.obj
 0001:00002aa0       ?root_get_interface_info@RKeyboardController@SDL_GL@ui@modules@UModSys@@UBEABUSUniquePointerInfo@core@5@XZ 10003aa0 f i umodsys_lib_libui:umodsys.mod.ui.SDL_GL.obj
 0001:00002ab0       ?root_get_interface_type@RKeyboardController@SDL_GL@ui@modules@UModSys@@UBEPBUSUniquePointerInfo@core@5@XZ 10003ab0 f i umodsys_lib_libui:umodsys.mod.ui.SDL_GL.obj
 0001:00002ac0       ?root_get_other_interface@RKeyboardController@SDL_GL@ui@modules@UModSys@@UAEPAUIRoot@core@5@PBUSUniquePointerInfo@75@@Z 10003ac0 f i umodsys_lib_libui:umodsys.mod.ui.SDL_GL.obj
 0001:00002ac0       ?root_get_other_interface@RKeyboardController@SDL_GL@ui@modules@UModSys@@UBEPBUIRoot@core@5@PBUSUniquePointerInfo@75@@Z 10003ac0 f i umodsys_lib_libui:umodsys.mod.ui.SDL_GL.obj
 0001:00002af0       ?root_is_interface_supported@RKeyboardController@SDL_GL@ui@modules@UModSys@@UBE_NPBUSUniquePointerInfo@core@5@@Z 10003af0 f i umodsys_lib_libui:umodsys.mod.ui.SDL_GL.obj
 0001:00002b30       ?root_get_interface_info@RMouseController@SDL_GL@ui@modules@UModSys@@UBEABUSUniquePointerInfo@core@5@XZ 10003b30 f i umodsys_lib_libui:umodsys.mod.ui.SDL_GL.obj
 0001:00002b40       ?root_get_interface_type@RMouseController@SDL_GL@ui@modules@UModSys@@UBEPBUSUniquePointerInfo@core@5@XZ 10003b40 f i umodsys_lib_libui:umodsys.mod.ui.SDL_GL.obj
 0001:00002b50       ?root_get_other_interface@RMouseController@SDL_GL@ui@modules@UModSys@@UBEPBUIRoot@core@5@PBUSUniquePointerInfo@75@@Z 10003b50 f i umodsys_lib_libui:umodsys.mod.ui.SDL_GL.obj
 0001:00002b50       ?root_get_other_interface@RMouseController@SDL_GL@ui@modules@UModSys@@UAEPAUIRoot@core@5@PBUSUniquePointerInfo@75@@Z 10003b50 f i umodsys_lib_libui:umodsys.mod.ui.SDL_GL.obj
 0001:00002b80       ?root_is_interface_supported@RMouseController@SDL_GL@ui@modules@UModSys@@UBE_NPBUSUniquePointerInfo@core@5@@Z 10003b80 f i umodsys_lib_libui:umodsys.mod.ui.SDL_GL.obj
 0001:00002bc0       ?ref_remove@RMouseController@SDL_GL@ui@modules@UModSys@@UBEXXZ 10003bc0 f i umodsys_lib_libui:umodsys.mod.ui.SDL_GL.obj
 0001:00002bc0       ?ref_remove@RRenderDriver2D@SDL_core@ui@modules@UModSys@@UBEXXZ 10003bc0 f i umodsys_lib_libui:umodsys.mod.ui.SDL_core.obj
 0001:00002bc0       ?ref_remove@RRenderDriver3D@SDL_GL@ui@modules@UModSys@@UBEXXZ 10003bc0 f i umodsys_lib_libui:umodsys.mod.ui.SDL_GL.obj
 0001:00002bc0       ?ref_remove@RKeyboardController@SDL_core@ui@modules@UModSys@@UBEXXZ 10003bc0 f i umodsys_lib_libui:umodsys.mod.ui.SDL_core.obj
 0001:00002bc0       ?ref_remove@RMouseController@SDL_core@ui@modules@UModSys@@UBEXXZ 10003bc0 f i umodsys_lib_libui:umodsys.mod.ui.SDL_core.obj
 0001:00002bc0       ?ref_remove@RKeyboardController@SDL_GL@ui@modules@UModSys@@UBEXXZ 10003bc0 f i umodsys_lib_libui:umodsys.mod.ui.SDL_GL.obj
 0001:00002bd0       ?ref_links@RRenderDriver3D@SDL_GL@ui@modules@UModSys@@UBEHXZ 10003bd0 f i umodsys_lib_libui:umodsys.mod.ui.SDL_GL.obj
 0001:00002bd0       ?ref_links@RKeyboardController@SDL_GL@ui@modules@UModSys@@UBEHXZ 10003bd0 f i umodsys_lib_libui:umodsys.mod.ui.SDL_GL.obj
 0001:00002bd0       ?ref_links@RRenderDriver2D@SDL_core@ui@modules@UModSys@@UBEHXZ 10003bd0 f i umodsys_lib_libui:umodsys.mod.ui.SDL_core.obj
 0001:00002bd0       ?ref_links@RMouseController@SDL_GL@ui@modules@UModSys@@UBEHXZ 10003bd0 f i umodsys_lib_libui:umodsys.mod.ui.SDL_GL.obj
 0001:00002bd0       ?ref_links@RKeyboardController@SDL_core@ui@modules@UModSys@@UBEHXZ 10003bd0 f i umodsys_lib_libui:umodsys.mod.ui.SDL_core.obj
 0001:00002bd0       ?ref_links@RMouseController@SDL_core@ui@modules@UModSys@@UBEHXZ 10003bd0 f i umodsys_lib_libui:umodsys.mod.ui.SDL_core.obj
 0001:00002be0       ?ref_weak@RKeyboardController@SDL_GL@ui@modules@UModSys@@UBE_NAAUWeakPointer@IRefObject@core@5@@Z 10003be0 f i umodsys_lib_libui:umodsys.mod.ui.SDL_GL.obj
 0001:00002be0       ?ref_weak@RKeyboardController@SDL_core@ui@modules@UModSys@@UBE_NAAUWeakPointer@IRefObject@core@5@@Z 10003be0 f i umodsys_lib_libui:umodsys.mod.ui.SDL_core.obj
 0001:00002be0       ?ref_weak@RRenderDriver2D@SDL_core@ui@modules@UModSys@@UBE_NAAUWeakPointer@IRefObject@core@5@@Z 10003be0 f i umodsys_lib_libui:umodsys.mod.ui.SDL_core.obj
 0001:00002be0       ?ref_weak@RMouseController@SDL_core@ui@modules@UModSys@@UBE_NAAUWeakPointer@IRefObject@core@5@@Z 10003be0 f i umodsys_lib_libui:umodsys.mod.ui.SDL_core.obj
 0001:00002be0       ?ref_weak@RMouseController@SDL_GL@ui@modules@UModSys@@UBE_NAAUWeakPointer@IRefObject@core@5@@Z 10003be0 f i umodsys_lib_libui:umodsys.mod.ui.SDL_GL.obj
 0001:00002be0       ?ref_weak@RRenderDriver3D@SDL_GL@ui@modules@UModSys@@UBE_NAAUWeakPointer@IRefObject@core@5@@Z 10003be0 f i umodsys_lib_libui:umodsys.mod.ui.SDL_GL.obj
 0001:00002bf0       ?suicide@RMouseController@SDL_core@ui@modules@UModSys@@UAEXXZ 10003bf0 f i umodsys_lib_libui:umodsys.mod.ui.SDL_core.obj
 0001:00002bf0       ?suicide@RMouseController@SDL_GL@ui@modules@UModSys@@UAEXXZ 10003bf0 f i umodsys_lib_libui:umodsys.mod.ui.SDL_GL.obj
 0001:00002bf0       ?suicide@RKeyboardController@SDL_core@ui@modules@UModSys@@UAEXXZ 10003bf0 f i umodsys_lib_libui:umodsys.mod.ui.SDL_core.obj
 0001:00002bf0       ?suicide@RKeyboardController@SDL_GL@ui@modules@UModSys@@UAEXXZ 10003bf0 f i umodsys_lib_libui:umodsys.mod.ui.SDL_GL.obj
 0001:00002bf0       ?suicide@RRenderDriver2D@SDL_core@ui@modules@UModSys@@UAEXXZ 10003bf0 f i umodsys_lib_libui:umodsys.mod.ui.SDL_core.obj
 0001:00002bf0       ?suicide@RRenderDriver3D@SDL_GL@ui@modules@UModSys@@UAEXXZ 10003bf0 f i umodsys_lib_libui:umodsys.mod.ui.SDL_GL.obj
 0001:00002c00       ?root_get_interface_info@RTerminal@SDL_GL@ui@modules@UModSys@@UBEABUSUniquePointerInfo@core@5@XZ 10003c00 f i umodsys_lib_libui:umodsys.mod.ui.SDL_GL.obj
 0001:00002c10       ?root_get_interface_type@RTerminal@SDL_GL@ui@modules@UModSys@@UBEPBUSUniquePointerInfo@core@5@XZ 10003c10 f i umodsys_lib_libui:umodsys.mod.ui.SDL_GL.obj
 0001:00002c20       ?root_get_other_interface@RTerminal@SDL_GL@ui@modules@UModSys@@UBEPBUIRoot@core@5@PBUSUniquePointerInfo@75@@Z 10003c20 f i umodsys_lib_libui:umodsys.mod.ui.SDL_GL.obj
 0001:00002c20       ?root_get_other_interface@RTerminal@SDL_GL@ui@modules@UModSys@@UAEPAUIRoot@core@5@PBUSUniquePointerInfo@75@@Z 10003c20 f i umodsys_lib_libui:umodsys.mod.ui.SDL_GL.obj
 0001:00002c50       ?root_is_interface_supported@RTerminal@SDL_GL@ui@modules@UModSys@@UBE_NPBUSUniquePointerInfo@core@5@@Z 10003c50 f i umodsys_lib_libui:umodsys.mod.ui.SDL_GL.obj
 0001:00002c90       ?root_get_interface_info@RMultiImage2D_SDL_ttf@SDL_GL@ui@modules@UModSys@@UBEABUSUniquePointerInfo@core@5@XZ 10003c90 f i umodsys_lib_libui:umodsys.mod.ui.SDL_GL.obj
 0001:00002ca0       ?root_get_interface_type@RMultiImage2D_SDL_ttf@SDL_GL@ui@modules@UModSys@@UBEPBUSUniquePointerInfo@core@5@XZ 10003ca0 f i umodsys_lib_libui:umodsys.mod.ui.SDL_GL.obj
 0001:00002cb0       ?root_get_other_interface@RMultiImage2D_SDL_ttf@SDL_GL@ui@modules@UModSys@@UBEPBUIRoot@core@5@PBUSUniquePointerInfo@75@@Z 10003cb0 f i umodsys_lib_libui:umodsys.mod.ui.SDL_GL.obj
 0001:00002cb0       ?root_get_other_interface@RMultiImage2D_SDL_ttf@SDL_GL@ui@modules@UModSys@@UAEPAUIRoot@core@5@PBUSUniquePointerInfo@75@@Z 10003cb0 f i umodsys_lib_libui:umodsys.mod.ui.SDL_GL.obj
 0001:00002ce0       ?root_is_interface_supported@RMultiImage2D_SDL_ttf@SDL_GL@ui@modules@UModSys@@UBE_NPBUSUniquePointerInfo@core@5@@Z 10003ce0 f i umodsys_lib_libui:umodsys.mod.ui.SDL_GL.obj
 0001:00002d20       ??1Glyph@RMultiImage2D_SDL_ttf@SDL_GL@ui@modules@UModSys@@QAE@XZ 10003d20 f i umodsys_lib_libui:umodsys.mod.ui.SDL_GL.obj
 0001:00002d70       ?get_cell@RMultiImage2D_SDL_ttf@SDL_core@ui@modules@UModSys@@UBE_NIAAU?$TVector2@H@math3d@5@PAU675@PAG@Z 10003d70 f i umodsys_lib_libui:umodsys.mod.ui.SDL_core.obj
 0001:00002d70       ?get_cell@RMultiImage2D_SDL_ttf@SDL_GL@ui@modules@UModSys@@UBE_NIAAU?$TVector2@H@math3d@5@PAU675@PAG@Z 10003d70 f i umodsys_lib_libui:umodsys.mod.ui.SDL_GL.obj
 0001:00002d80       ?setup_variable_cell@RMultiImage2D_SDL_ttf@SDL_GL@ui@modules@UModSys@@UAE_NPBUSImageCellInfo@lib2d@5@KK@Z 10003d80 f i umodsys_lib_libui:umodsys.mod.ui.SDL_GL.obj
 0001:00002d80       ?setup_variable_cell@RMultiImage2D_SDL_ttf@SDL_core@ui@modules@UModSys@@UAE_NPBUSImageCellInfo@lib2d@5@KK@Z 10003d80 f i umodsys_lib_libui:umodsys.mod.ui.SDL_core.obj
 0001:00002d90       ?root_get_interface_info@RRenderDriver3D@SDL_GL@ui@modules@UModSys@@UBEABUSUniquePointerInfo@core@5@XZ 10003d90 f i umodsys_lib_libui:umodsys.mod.ui.SDL_GL.obj
 0001:00002da0       ?root_get_interface_type@RRenderDriver3D@SDL_GL@ui@modules@UModSys@@UBEPBUSUniquePointerInfo@core@5@XZ 10003da0 f i umodsys_lib_libui:umodsys.mod.ui.SDL_GL.obj
 0001:00002db0       ?root_get_other_interface@RRenderDriver3D@SDL_GL@ui@modules@UModSys@@UAEPAUIRoot@core@5@PBUSUniquePointerInfo@75@@Z 10003db0 f i umodsys_lib_libui:umodsys.mod.ui.SDL_GL.obj
 0001:00002db0       ?root_get_other_interface@RRenderDriver3D@SDL_GL@ui@modules@UModSys@@UBEPBUIRoot@core@5@PBUSUniquePointerInfo@75@@Z 10003db0 f i umodsys_lib_libui:umodsys.mod.ui.SDL_GL.obj
 0001:00002df0       ?root_is_interface_supported@RRenderDriver3D@SDL_GL@ui@modules@UModSys@@UBE_NPBUSUniquePointerInfo@core@5@@Z 10003df0 f i umodsys_lib_libui:umodsys.mod.ui.SDL_GL.obj
 0001:00002e30       ?root_get_interface_info@RTerminalX@SDL_GL@ui@modules@UModSys@@UBEABUSUniquePointerInfo@core@5@XZ 10003e30 f i umodsys_lib_libui:umodsys.mod.ui.SDL_GL.obj
 0001:00002e40       ?root_get_interface_type@RTerminalX@SDL_GL@ui@modules@UModSys@@UBEPBUSUniquePointerInfo@core@5@XZ 10003e40 f i umodsys_lib_libui:umodsys.mod.ui.SDL_GL.obj
 0001:00002e50       ?root_get_other_interface@RTerminalX@SDL_GL@ui@modules@UModSys@@UAEPAUIRoot@core@5@PBUSUniquePointerInfo@75@@Z 10003e50 f i umodsys_lib_libui:umodsys.mod.ui.SDL_GL.obj
 0001:00002e50       ?root_get_other_interface@RTerminalX@SDL_GL@ui@modules@UModSys@@UBEPBUIRoot@core@5@PBUSUniquePointerInfo@75@@Z 10003e50 f i umodsys_lib_libui:umodsys.mod.ui.SDL_GL.obj
 0001:00002e80       ?root_is_interface_supported@RTerminalX@SDL_GL@ui@modules@UModSys@@UBE_NPBUSUniquePointerInfo@core@5@@Z 10003e80 f i umodsys_lib_libui:umodsys.mod.ui.SDL_GL.obj
 0001:00002ec0       ?root_get_interface_info@RVertexArray@SDL_GL@ui@modules@UModSys@@UBEABUSUniquePointerInfo@core@5@XZ 10003ec0 f i umodsys_lib_libui:umodsys.mod.ui.SDL_GL.obj
 0001:00002ed0       ?root_get_interface_type@RVertexArray@SDL_GL@ui@modules@UModSys@@UBEPBUSUniquePointerInfo@core@5@XZ 10003ed0 f i umodsys_lib_libui:umodsys.mod.ui.SDL_GL.obj
 0001:00002ee0       ?root_get_other_interface@RVertexArray@SDL_GL@ui@modules@UModSys@@UBEPBUIRoot@core@5@PBUSUniquePointerInfo@75@@Z 10003ee0 f i umodsys_lib_libui:umodsys.mod.ui.SDL_GL.obj
 0001:00002ee0       ?root_get_other_interface@RVertexArray@SDL_GL@ui@modules@UModSys@@UAEPAUIRoot@core@5@PBUSUniquePointerInfo@75@@Z 10003ee0 f i umodsys_lib_libui:umodsys.mod.ui.SDL_GL.obj
 0001:00002f10       ?root_is_interface_supported@RVertexArray@SDL_GL@ui@modules@UModSys@@UBE_NPBUSUniquePointerInfo@core@5@@Z 10003f10 f i umodsys_lib_libui:umodsys.mod.ui.SDL_GL.obj
 0001:00002f50       ?get_generated_names@RGenerator@SDL_GL@ui@modules@UModSys@@UBEHAAUSUniquePtrList@core@5@@Z 10003f50 f i umodsys_lib_libui:umodsys.mod.ui.SDL_GL.obj
 0001:00002f70       ?get_generated_types@RGenerator@SDL_GL@ui@modules@UModSys@@UBEHAAUSUniquePtrList@core@5@PBUSUniquePointerInfo@75@@Z 10003f70 f i umodsys_lib_libui:umodsys.mod.ui.SDL_GL.obj
 0001:00002fc0       ?generate@RGenerator@SDL_GL@ui@modules@UModSys@@UAE_NAAU?$TRefObject@UIRefObject@core@UModSys@@U?$TRefObjectFunc@UIRefObject@core@UModSys@@@tl@3@@tl@5@PBUSUniquePointerInfo@core@5@ABUSParameters@95@@Z 10003fc0 f i umodsys_lib_libui:umodsys.mod.ui.SDL_GL.obj
 0001:00002ff0       ?root_get_interface_info@RGenerator@SDL_GL@ui@modules@UModSys@@UBEABUSUniquePointerInfo@core@5@XZ 10003ff0 f i umodsys_lib_libui:umodsys.mod.ui.SDL_GL.obj
 0001:00003000       ?root_get_interface_type@RGenerator@SDL_GL@ui@modules@UModSys@@UBEPBUSUniquePointerInfo@core@5@XZ 10004000 f i umodsys_lib_libui:umodsys.mod.ui.SDL_GL.obj
 0001:00003010       ?root_get_other_interface@RGenerator@SDL_GL@ui@modules@UModSys@@UBEPBUIRoot@core@5@PBUSUniquePointerInfo@75@@Z 10004010 f i umodsys_lib_libui:umodsys.mod.ui.SDL_GL.obj
 0001:00003010       ?root_get_other_interface@RGenerator@SDL_GL@ui@modules@UModSys@@UAEPAUIRoot@core@5@PBUSUniquePointerInfo@75@@Z 10004010 f i umodsys_lib_libui:umodsys.mod.ui.SDL_GL.obj
 0001:00003050       ?root_is_interface_supported@RGenerator@SDL_GL@ui@modules@UModSys@@UBE_NPBUSUniquePointerInfo@core@5@@Z 10004050 f i umodsys_lib_libui:umodsys.mod.ui.SDL_GL.obj
 0001:00003090       ?ref_links@RSerializeReader@serialize_json@media@modules@UModSys@@UBEHXZ 10004090 f i umodsys_lib_libmedia:umodsys.mod.media.serialize_json.obj
 0001:00003090       ?ref_links@RGenerator@stdlib@lib2d@modules@UModSys@@UBEHXZ 10004090 f i umodsys_lib_lib2d:umodsys.mod.2d.stdlib.obj
 0001:00003090       ?ref_links@RGenerator@SDL_GL@ui@modules@UModSys@@UBEHXZ 10004090 f i umodsys_lib_libui:umodsys.mod.ui.SDL_GL.obj
 0001:00003090       ?ref_links@RVertexArray@SDL_GL@ui@modules@UModSys@@UBEHXZ 10004090 f i umodsys_lib_libui:umodsys.mod.ui.SDL_GL.obj
 0001:00003090       ?ref_links@RTerminal@SDL_core@ui@modules@UModSys@@UBEHXZ 10004090 f i umodsys_lib_libui:umodsys.mod.ui.SDL_core.obj
 0001:00003090       ?ref_links@RGenerator@SDL_core@ui@modules@UModSys@@UBEHXZ 10004090 f i umodsys_lib_libui:umodsys.mod.ui.SDL_core.obj
 0001:00003090       ?ref_links@RDialog@frames@ui@modules@UModSys@@UBEHXZ 10004090 f i umodsys_lib_libui:umodsys.mod.ui.frames.obj
 0001:00003090       ?ref_links@RGenerator@images_std@media@modules@UModSys@@UBEHXZ 10004090 f i umodsys_lib_libmedia:umodsys.mod.media.images_std.obj
 0001:00003090       ?ref_links@RGenerator@test1@test@modules@UModSys@@UBEHXZ 10004090 f i plugin_test1.obj
 0001:00003090       ?ref_links@RMultiImage2D_SDL_ttf@SDL_core@ui@modules@UModSys@@UBEHXZ 10004090 f i umodsys_lib_libui:umodsys.mod.ui.SDL_core.obj
 0001:00003090       ?ref_links@RImage_Memory@stdlib@lib2d@modules@UModSys@@UBEHXZ 10004090 f i umodsys_lib_lib2d:umodsys.mod.2d.stdlib.obj
 0001:00003090       ?ref_links@RGenerator@zlib@media@modules@UModSys@@UBEHXZ 10004090 f i umodsys_lib_libmedia:umodsys.mod.media.zlib.obj
 0001:00003090       ?ref_links@RGenerator@frames@ui@modules@UModSys@@UBEHXZ 10004090 f i umodsys_lib_libui:umodsys.mod.ui.frames.obj
 0001:00003090       ?ref_links@RImageFactory_Memory@stdlib@lib2d@modules@UModSys@@UBEHXZ 10004090 f i umodsys_lib_lib2d:umodsys.mod.2d.stdlib.obj
 0001:00003090       ?ref_links@RMultiImage@stdlib@lib2d@modules@UModSys@@UBEHXZ 10004090 f i umodsys_lib_lib2d:umodsys.mod.2d.stdlib.obj
 0001:00003090       ?ref_links@RMultiImage2D_SDL_ttf@SDL_GL@ui@modules@UModSys@@UBEHXZ 10004090 f i umodsys_lib_libui:umodsys.mod.ui.SDL_GL.obj
 0001:00003090       ?ref_links@RTerminal@SDL_GL@ui@modules@UModSys@@UBEHXZ 10004090 f i umodsys_lib_libui:umodsys.mod.ui.SDL_GL.obj
 0001:00003090       ?ref_links@RBinArchiveFrameClient_ZIP@zlib@media@modules@UModSys@@UBEHXZ 10004090 f i umodsys_lib_libmedia:umodsys.mod.media.zlib.obj
 0001:00003090       ?ref_links@RGenerator@serialize_json@media@modules@UModSys@@UBEHXZ 10004090 f i umodsys_lib_libmedia:umodsys.mod.media.serialize_json.obj
 0001:000030a0       ?suicide@RGenerator@frames@ui@modules@UModSys@@UAEXXZ 100040a0 f i umodsys_lib_libui:umodsys.mod.ui.frames.obj
 0001:000030a0       ?suicide@RGenerator@test1@test@modules@UModSys@@UAEXXZ 100040a0 f i plugin_test1.obj
 0001:000030a0       ?suicide@RGenerator@images_std@media@modules@UModSys@@UAEXXZ 100040a0 f i umodsys_lib_libmedia:umodsys.mod.media.images_std.obj
 0001:000030a0       ?suicide@RGenerator@zlib@media@modules@UModSys@@UAEXXZ 100040a0 f i umodsys_lib_libmedia:umodsys.mod.media.zlib.obj
 0001:000030a0       ?suicide@RGenerator@SDL_core@ui@modules@UModSys@@UAEXXZ 100040a0 f i umodsys_lib_libui:umodsys.mod.ui.SDL_core.obj
 0001:000030a0       ?suicide@RGenerator@stdlib@lib2d@modules@UModSys@@UAEXXZ 100040a0 f i umodsys_lib_lib2d:umodsys.mod.2d.stdlib.obj
 0001:000030a0       ?suicide@RGenerator@serialize_json@media@modules@UModSys@@UAEXXZ 100040a0 f i umodsys_lib_libmedia:umodsys.mod.media.serialize_json.obj
 0001:000030a0       ??3@YAXPAX0@Z              100040a0 f i plugin_test1.obj
 0001:000030a0       ?suicide@RGenerator@SDL_GL@ui@modules@UModSys@@UAEXXZ 100040a0 f i umodsys_lib_libui:umodsys.mod.ui.SDL_GL.obj
 0001:000030b0       ?get_uid@RGenerator@SDL_GL@ui@modules@UModSys@@UBEPBUSUniquePointerInfo@core@5@XZ 100040b0 f i umodsys_lib_libui:umodsys.mod.ui.SDL_GL.obj
 0001:000030c0       ??_ERKeyboardController@SDL_GL@ui@modules@UModSys@@UAEPAXI@Z 100040c0 f i  CIL library: CIL module
 0001:000030c0       ??_GRKeyboardController@SDL_GL@ui@modules@UModSys@@UAEPAXI@Z 100040c0 f i umodsys_lib_libui:umodsys.mod.ui.SDL_GL.obj
 0001:000030e0       ??_GRMouseController@SDL_GL@ui@modules@UModSys@@UAEPAXI@Z 100040e0 f i umodsys_lib_libui:umodsys.mod.ui.SDL_GL.obj
 0001:000030e0       ??_ERMouseController@SDL_GL@ui@modules@UModSys@@UAEPAXI@Z 100040e0 f i  CIL library: CIL module
 0001:00003100       ??_GRTerminal@SDL_GL@ui@modules@UModSys@@UAEPAXI@Z 10004100 f i umodsys_lib_libui:umodsys.mod.ui.SDL_GL.obj
 0001:00003100       ??_ERTerminal@SDL_GL@ui@modules@UModSys@@UAEPAXI@Z 10004100 f i  CIL library: CIL module
 0001:00003120       ??_ERMultiImage2D_SDL_ttf@SDL_GL@ui@modules@UModSys@@UAEPAXI@Z 10004120 f i  CIL library: CIL module
 0001:00003120       ??_GRMultiImage2D_SDL_ttf@SDL_GL@ui@modules@UModSys@@UAEPAXI@Z 10004120 f i umodsys_lib_libui:umodsys.mod.ui.SDL_GL.obj
 0001:00003140       ?set_flags@SGLFuncs@SDL_GL@ui@modules@UModSys@@QBEXPBUTextureInfo@12345@ABUSRenderMapFlags@lib3d@5@@Z 10004140 f i umodsys_lib_libui:umodsys.mod.ui.SDL_GL.obj
 0001:000031a0       ??_GRRenderDriver3D@SDL_GL@ui@modules@UModSys@@UAEPAXI@Z 100041a0 f i umodsys_lib_libui:umodsys.mod.ui.SDL_GL.obj
 0001:000031a0       ??_ERRenderDriver3D@SDL_GL@ui@modules@UModSys@@UAEPAXI@Z 100041a0 f i  CIL library: CIL module
 0001:000031c0       ??_GRVertexArray@SDL_GL@ui@modules@UModSys@@UAEPAXI@Z 100041c0 f i umodsys_lib_libui:umodsys.mod.ui.SDL_GL.obj
 0001:000031c0       ??_ERVertexArray@SDL_GL@ui@modules@UModSys@@UAEPAXI@Z 100041c0 f i  CIL library: CIL module
 0001:000031e0       ??_ERTerminalX@SDL_GL@ui@modules@UModSys@@UAEPAXI@Z 100041e0 f i  CIL library: CIL module
 0001:000031e0       ??_GRTerminalX@SDL_GL@ui@modules@UModSys@@UAEPAXI@Z 100041e0 f i umodsys_lib_libui:umodsys.mod.ui.SDL_GL.obj
 0001:00003200       ?do_open@RModuleReg@SDL_GL@ui@modules@UModSys@@UAE_NXZ 10004200 f i umodsys_lib_libui:umodsys.mod.ui.SDL_GL.obj
 0001:00003210       ?do_close@RModuleReg@SDL_GL@ui@modules@UModSys@@UAE_NXZ 10004210 f i umodsys_lib_libui:umodsys.mod.ui.SDL_GL.obj
 0001:00003220       ??_GRModuleReg@SDL_GL@ui@modules@UModSys@@UAEPAXI@Z 10004220 f i umodsys_lib_libui:umodsys.mod.ui.SDL_GL.obj
 0001:00003220       ??_ERModuleReg@SDL_GL@ui@modules@UModSys@@UAEPAXI@Z 10004220 f i  CIL library: CIL module
 0001:00003250       ??1?$TScatterArray@UGlyph@RMultiImage2D_SDL_ttf@SDL_GL@ui@modules@UModSys@@HU?$TScalarCompare@H@core@6@U?$TNodeDeleter0@U?$TScatterArrayNode@UGlyph@RMultiImage2D_SDL_ttf@SDL_GL@ui@modules@UModSys@@H@tl@UModSys@@@tl@6@@tl@UModSys@@QAE@XZ 10004250 f i umodsys_lib_libui:umodsys.mod.ui.SDL_GL.obj
 0001:000032a0       ??1?$TDynarrayDynamic@USLayInfo@RVertexArray@SDL_GL@ui@modules@UModSys@@U?$TAllocator@USIMemAlloc@core@UModSys@@USCountCalcExact@23@@tl@6@@tl@UModSys@@QAE@XZ 100042a0 f i umodsys_lib_libui:umodsys.mod.ui.SDL_GL.obj
 0001:000032d0       ?Resize@?$TDynarray@U?$TDynarrayHolderDynamic@USLayInfo@RVertexArray@SDL_GL@ui@modules@UModSys@@U?$TAllocator@USIMemAlloc@core@UModSys@@USCountCalcExact@23@@tl@6@@tl@UModSys@@@tl@UModSys@@QAE_NI@Z 100042d0 f i umodsys_lib_libui:umodsys.mod.ui.SDL_GL.obj
 0001:00003320       ?remove_node@?$TTreeHoldRB@U?$TScatterArrayNode@U?$TRefObjectComposite@UIKeyboardClient@libui@UModSys@@UIRefObject@core@3@U?$TRefObjectFunc@UIRefObject@core@UModSys@@@tl@3@@tl@UModSys@@H@tl@UModSys@@@tl@UModSys@@QAEXPAU?$TScatterArrayNode@U?$TRefObjectComposite@UIKeyboardClient@libui@UModSys@@UIRefObject@core@3@U?$TRefObjectFunc@UIRefObject@core@UModSys@@@tl@3@@tl@UModSys@@H@23@@Z 10004320 f i umodsys_lib_libui:umodsys.mod.ui.SDL_GL.obj
 0001:00003320       ?remove_node@?$TTreeHoldRB@U?$TScatterArrayNode@U?$TRefObjectCompositeExtra@UIMouseClient@libui@UModSys@@HUIRefObject@core@3@U?$TRefObjectFunc@UIRefObject@core@UModSys@@@tl@3@@tl@UModSys@@H@tl@UModSys@@@tl@UModSys@@QAEXPAU?$TScatterArrayNode@U?$TRefObjectCompositeExtra@UIMouseClient@libui@UModSys@@HUIRefObject@core@3@U?$TRefObjectFunc@UIRefObject@core@UModSys@@@tl@3@@tl@UModSys@@H@23@@Z 10004320 f i umodsys_lib_libui:umodsys.mod.ui.SDL_GL.obj
 0001:00003410       ?Free@?$TDynarray@U?$TDynarrayHolderDynamic@USLayInfo@RVertexArray@SDL_GL@ui@modules@UModSys@@U?$TAllocator@USIMemAlloc@core@UModSys@@USCountCalcExact@23@@tl@6@@tl@UModSys@@@tl@UModSys@@QAE_NXZ 10004410 f i umodsys_lib_libui:umodsys.mod.ui.SDL_GL.obj
 0001:00003480       ??1?$TPair@HU?$TRefObjectComposite@UIKeyboardClient@libui@UModSys@@UIRefObject@core@3@U?$TRefObjectFunc@UIRefObject@core@UModSys@@@tl@3@@tl@UModSys@@@tl@UModSys@@QAE@XZ 10004480 f i umodsys_lib_libui:umodsys.mod.ui.SDL_GL.obj
 0001:00003480       ??1?$TPair@HU?$TRefObjectCompositeExtra@UIMouseClient@libui@UModSys@@HUIRefObject@core@3@U?$TRefObjectFunc@UIRefObject@core@UModSys@@@tl@3@@tl@UModSys@@@tl@UModSys@@QAE@XZ 10004480 f i umodsys_lib_libui:umodsys.mod.ui.SDL_GL.obj
 0001:00003490       ??$slen@H@su@tl@UModSys@@YAIPBH@Z 10004490 f i umodsys_lib_libui:umodsys.mod.ui.SDL_GL.obj
 0001:000034b0       ?remove_color@?$TTreeHoldRB@U?$TScatterArrayNode@U?$TRefObjectCompositeExtra@UIMouseClient@libui@UModSys@@HUIRefObject@core@3@U?$TRefObjectFunc@UIRefObject@core@UModSys@@@tl@3@@tl@UModSys@@H@tl@UModSys@@@tl@UModSys@@IAEXPAU?$TScatterArrayNode@U?$TRefObjectCompositeExtra@UIMouseClient@libui@UModSys@@HUIRefObject@core@3@U?$TRefObjectFunc@UIRefObject@core@UModSys@@@tl@3@@tl@UModSys@@H@23@0@Z 100044b0 f i umodsys_lib_libui:umodsys.mod.ui.SDL_GL.obj
 0001:000034b0       ?remove_color@?$TTreeHoldRB@U?$TScatterArrayNode@U?$TRefObjectComposite@UIKeyboardClient@libui@UModSys@@UIRefObject@core@3@U?$TRefObjectFunc@UIRefObject@core@UModSys@@@tl@3@@tl@UModSys@@H@tl@UModSys@@@tl@UModSys@@IAEXPAU?$TScatterArrayNode@U?$TRefObjectComposite@UIKeyboardClient@libui@UModSys@@UIRefObject@core@3@U?$TRefObjectFunc@UIRefObject@core@UModSys@@@tl@3@@tl@UModSys@@H@23@0@Z 100044b0 f i umodsys_lib_libui:umodsys.mod.ui.SDL_GL.obj
 0001:00003630       ?ref_weak@?$TRefObjectLinksComposite@URRenderDriver3D@SDL_GL@ui@modules@UModSys@@URTerminalX@2345@@tl@UModSys@@QBE_NPAURRenderDriver3D@SDL_GL@ui@modules@3@AAUWeakPointer@IRefObject@core@3@@Z 10004630 f i umodsys_lib_libui:umodsys.mod.ui.SDL_GL.obj
 0001:00003630       ?ref_weak@?$TRefObjectLinksComposite@URKeyboardController@SDL_GL@ui@modules@UModSys@@URTerminal@2345@@tl@UModSys@@QBE_NPAURKeyboardController@SDL_GL@ui@modules@3@AAUWeakPointer@IRefObject@core@3@@Z 10004630 f i umodsys_lib_libui:umodsys.mod.ui.SDL_GL.obj
 0001:00003630       ?ref_weak@?$TRefObjectLinksComposite@URRenderDriver2D@SDL_core@ui@modules@UModSys@@URTerminalX@2345@@tl@UModSys@@QBE_NPAURRenderDriver2D@SDL_core@ui@modules@3@AAUWeakPointer@IRefObject@core@3@@Z 10004630 f i umodsys_lib_libui:umodsys.mod.ui.SDL_core.obj
 0001:00003630       ?ref_weak@?$TRefObjectLinksComposite@URKeyboardController@SDL_core@ui@modules@UModSys@@URTerminal@2345@@tl@UModSys@@QBE_NPAURKeyboardController@SDL_core@ui@modules@3@AAUWeakPointer@IRefObject@core@3@@Z 10004630 f i umodsys_lib_libui:umodsys.mod.ui.SDL_core.obj
 0001:00003630       ?ref_weak@?$TRefObjectLinksComposite@URMouseController@SDL_core@ui@modules@UModSys@@URTerminal@2345@@tl@UModSys@@QBE_NPAURMouseController@SDL_core@ui@modules@3@AAUWeakPointer@IRefObject@core@3@@Z 10004630 f i umodsys_lib_libui:umodsys.mod.ui.SDL_core.obj
 0001:00003630       ?ref_weak@?$TRefObjectLinksComposite@URMouseController@SDL_GL@ui@modules@UModSys@@URTerminal@2345@@tl@UModSys@@QBE_NPAURMouseController@SDL_GL@ui@modules@3@AAUWeakPointer@IRefObject@core@3@@Z 10004630 f i umodsys_lib_libui:umodsys.mod.ui.SDL_GL.obj
 0001:00003650       ??$t_gen_param@URTerminalX@SDL_GL@ui@modules@UModSys@@URGenerator@2345@@IGenerator@base@UModSys@@IAE_NPAURGenerator@SDL_GL@ui@modules@2@AAU?$TRefObject@UIRefObject@core@UModSys@@U?$TRefObjectFunc@UIRefObject@core@UModSys@@@tl@3@@tl@2@PBUSUniquePointerInfo@core@2@ABUSParameters@core@2@@Z 10004650 f i umodsys_lib_libui:umodsys.mod.ui.SDL_GL.obj
 0001:000036d0       ??$ValidateConstruction@UIMultiImage@lib2d@UModSys@@URMultiImage2D_SDL_ttf@SDL_GL@ui@modules@3@@core@UModSys@@YA_NAAU?$TRefObject@UIMultiImage@lib2d@UModSys@@U?$TRefObjectFunc@UIMultiImage@lib2d@UModSys@@@tl@3@@tl@1@PAURMultiImage2D_SDL_ttf@SDL_GL@ui@modules@1@@Z 100046d0 f i umodsys_lib_libui:umodsys.mod.ui.SDL_GL.obj
 0001:000036d0       ??$ValidateConstruction@UIMultiImage@lib2d@UModSys@@URMultiImage2D_SDL_ttf@SDL_core@ui@modules@3@@core@UModSys@@YA_NAAU?$TRefObject@UIMultiImage@lib2d@UModSys@@U?$TRefObjectFunc@UIMultiImage@lib2d@UModSys@@@tl@3@@tl@1@PAURMultiImage2D_SDL_ttf@SDL_core@ui@modules@1@@Z 100046d0 f i umodsys_lib_libui:umodsys.mod.ui.SDL_core.obj
 0001:00003760       ??$t_ref_get_other_interface@URMultiImage2D_SDL_ttf@SDL_GL@ui@modules@UModSys@@U?$TRefObjectWeakFunc@URMultiImage2D_SDL_ttf@SDL_GL@ui@modules@UModSys@@@tl@5@@IRefObject@core@UModSys@@QAE_NAAU?$TRefObject@URMultiImage2D_SDL_ttf@SDL_GL@ui@modules@UModSys@@U?$TRefObjectWeakFunc@URMultiImage2D_SDL_ttf@SDL_GL@ui@modules@UModSys@@@tl@5@@tl@2@@Z 10004760 f i umodsys_lib_libui:umodsys.mod.ui.SDL_GL.obj
 0001:000037c0       ??$genx_node@UCmp@?$TScatterArray@U?$TRefObjectComposite@UIKeyboardClient@libui@UModSys@@UIRefObject@core@3@U?$TRefObjectFunc@UIRefObject@core@UModSys@@@tl@3@@tl@UModSys@@HU?$TScalarCompare@H@core@3@U?$TNodeDeleter0@U?$TScatterArrayNode@U?$TRefObjectComposite@UIKeyboardClient@libui@UModSys@@UIRefObject@core@3@U?$TRefObjectFunc@UIRefObject@core@UModSys@@@tl@3@@tl@UModSys@@H@tl@UModSys@@@23@@tl@UModSys@@UGen0@234@@?$TTreeHoldRBD@U?$TScatterArrayNode@U?$TRefObjectComposite@UIKeyboardClient@libui@UModSys@@UIRefObject@core@3@U?$TRefObjectFunc@UIRefObject@core@UModSys@@@tl@3@@tl@UModSys@@H@tl@UModSys@@U?$TNodeDeleter0@U?$TScatterArrayNode@U?$TRefObjectComposite@UIKeyboardClient@libui@UModSys@@UIRefObject@core@3@U?$TRefObjectFunc@UIRefObject@core@UModSys@@@tl@3@@tl@UModSys@@H@tl@UModSys@@@23@@tl@UModSys@@QAEPAU?$TScatterArrayNode@U?$TRefObjectComposite@UIKeyboardClient@libui@UModSys@@UIRefObject@core@3@U?$TRefObjectFunc@UIRefObject@core@UModSys@@@tl@3@@tl@UModSys@@H@12@UCmp@?$TScatterArray@U?$TRefObjectComposite@UIKeyboardClient@libui@UModSys@@UIRefObject@core@3@U?$TRefObjectFunc@UIRefObject@core@UModSys@@@tl@3@@tl@UModSys@@HU?$TScalarCompare@H@core@3@U?$TNodeDeleter0@U?$TScatterArrayNode@U?$TRefObjectComposite@UIKeyboardClient@libui@UModSys@@UIRefObject@core@3@U?$TRefObjectFunc@UIRefObject@core@UModSys@@@tl@3@@tl@UModSys@@H@tl@UModSys@@@23@@12@ABUGen0@512@PAPAU312@2_N@Z 100047c0 f i umodsys_lib_libui:umodsys.mod.ui.SDL_GL.obj
 0001:00003830       ??$genx_node@UCmp@?$TScatterArray@U?$TRefObjectCompositeExtra@UIMouseClient@libui@UModSys@@HUIRefObject@core@3@U?$TRefObjectFunc@UIRefObject@core@UModSys@@@tl@3@@tl@UModSys@@HU?$TScalarCompare@H@core@3@U?$TNodeDeleter0@U?$TScatterArrayNode@U?$TRefObjectCompositeExtra@UIMouseClient@libui@UModSys@@HUIRefObject@core@3@U?$TRefObjectFunc@UIRefObject@core@UModSys@@@tl@3@@tl@UModSys@@H@tl@UModSys@@@23@@tl@UModSys@@UGen0@234@@?$TTreeHoldRBD@U?$TScatterArrayNode@U?$TRefObjectCompositeExtra@UIMouseClient@libui@UModSys@@HUIRefObject@core@3@U?$TRefObjectFunc@UIRefObject@core@UModSys@@@tl@3@@tl@UModSys@@H@tl@UModSys@@U?$TNodeDeleter0@U?$TScatterArrayNode@U?$TRefObjectCompositeExtra@UIMouseClient@libui@UModSys@@HUIRefObject@core@3@U?$TRefObjectFunc@UIRefObject@core@UModSys@@@tl@3@@tl@UModSys@@H@tl@UModSys@@@23@@tl@UModSys@@QAEPAU?$TScatterArrayNode@U?$TRefObjectCompositeExtra@UIMouseClient@libui@UModSys@@HUIRefObject@core@3@U?$TRefObjectFunc@UIRefObject@core@UModSys@@@tl@3@@tl@UModSys@@H@12@UCmp@?$TScatterArray@U?$TRefObjectCompositeExtra@UIMouseClient@libui@UModSys@@HUIRefObject@core@3@U?$TRefObjectFunc@UIRefObject@core@UModSys@@@tl@3@@tl@UModSys@@HU?$TScalarCompare@H@core@3@U?$TNodeDeleter0@U?$TScatterArrayNode@U?$TRefObjectCompositeExtra@UIMouseClient@libui@UModSys@@HUIRefObject@core@3@U?$TRefObjectFunc@UIRefObject@core@UModSys@@@tl@3@@tl@UModSys@@H@tl@UModSys@@@23@@12@ABUGen0@512@PAPAU312@2_N@Z 10004830 f i umodsys_lib_libui:umodsys.mod.ui.SDL_GL.obj
 0001:000038a0       ??$genx_node@UCmp@?$TScatterArray@UGlyph@RMultiImage2D_SDL_ttf@SDL_GL@ui@modules@UModSys@@HU?$TScalarCompare@H@core@6@U?$TNodeDeleter0@U?$TScatterArrayNode@UGlyph@RMultiImage2D_SDL_ttf@SDL_GL@ui@modules@UModSys@@H@tl@UModSys@@@tl@6@@tl@UModSys@@UGen0@234@@?$TTreeHoldRBD@U?$TScatterArrayNode@UGlyph@RMultiImage2D_SDL_ttf@SDL_GL@ui@modules@UModSys@@H@tl@UModSys@@U?$TNodeDeleter0@U?$TScatterArrayNode@UGlyph@RMultiImage2D_SDL_ttf@SDL_GL@ui@modules@UModSys@@H@tl@UModSys@@@23@@tl@UModSys@@QAEPAU?$TScatterArrayNode@UGlyph@RMultiImage2D_SDL_ttf@SDL_GL@ui@modules@UModSys@@H@12@UCmp@?$TScatterArray@UGlyph@RMultiImage2D_SDL_ttf@SDL_GL@ui@modules@UModSys@@HU?$TScalarCompare@H@core@6@U?$TNodeDeleter0@U?$TScatterArrayNode@UGlyph@RMultiImage2D_SDL_ttf@SDL_GL@ui@modules@UModSys@@H@tl@UModSys@@@tl@6@@12@ABUGen0@512@PAPAU312@2_N@Z 100048a0 f i umodsys_lib_libui:umodsys.mod.ui.SDL_GL.obj
 0001:00003910       ??$find_node_u@UCmp@?$TScatterArray@U?$TVector4@M@math3d@UModSys@@HU?$TScalarCompare@H@core@3@U?$TNodeDeleter0@U?$TScatterArrayNode@U?$TVector4@M@math3d@UModSys@@H@tl@UModSys@@@tl@3@@tl@UModSys@@@?$TTreeHoldRB@U?$TScatterArrayNode@U?$TVector4@M@math3d@UModSys@@H@tl@UModSys@@@tl@UModSys@@QBEPAU?$TScatterArrayNode@U?$TVector4@M@math3d@UModSys@@H@12@UCmp@?$TScatterArray@U?$TVector4@M@math3d@UModSys@@HU?$TScalarCompare@H@core@3@U?$TNodeDeleter0@U?$TScatterArrayNode@U?$TVector4@M@math3d@UModSys@@H@tl@UModSys@@@tl@3@@12@@Z 10004910 f i umodsys_lib_libui:umodsys.mod.ui.frames.obj
 0001:00003910       ??$find_node_u@UCmp@?$TScatterArray@U?$TVector2@M@math3d@UModSys@@HU?$TScalarCompare@H@core@3@U?$TNodeDeleter0@U?$TScatterArrayNode@U?$TVector2@M@math3d@UModSys@@H@tl@UModSys@@@tl@3@@tl@UModSys@@@?$TTreeHoldRB@U?$TScatterArrayNode@U?$TVector2@M@math3d@UModSys@@H@tl@UModSys@@@tl@UModSys@@QBEPAU?$TScatterArrayNode@U?$TVector2@M@math3d@UModSys@@H@12@UCmp@?$TScatterArray@U?$TVector2@M@math3d@UModSys@@HU?$TScalarCompare@H@core@3@U?$TNodeDeleter0@U?$TScatterArrayNode@U?$TVector2@M@math3d@UModSys@@H@tl@UModSys@@@tl@3@@12@@Z 10004910 f i umodsys_lib_libui:umodsys.mod.ui.frames.obj
 0001:00003910       ??$find_node_u@UCmp@?$TScatterArray@HHU?$TScalarCompare@H@core@UModSys@@U?$TNodeDeleter0@U?$TScatterArrayNode@HH@tl@UModSys@@@tl@3@@tl@UModSys@@@?$TTreeHoldRB@U?$TScatterArrayNode@HH@tl@UModSys@@@tl@UModSys@@QBEPAU?$TScatterArrayNode@HH@12@UCmp@?$TScatterArray@HHU?$TScalarCompare@H@core@UModSys@@U?$TNodeDeleter0@U?$TScatterArrayNode@HH@tl@UModSys@@@tl@3@@12@@Z 10004910 f i umodsys_lib_libui:umodsys.mod.ui.frames.obj
 0001:00003910       ??$find_node_u@UCmp@?$TScatterArray@UGlyph@RMultiImage2D_SDL_ttf@SDL_GL@ui@modules@UModSys@@HU?$TScalarCompare@H@core@6@U?$TNodeDeleter0@U?$TScatterArrayNode@UGlyph@RMultiImage2D_SDL_ttf@SDL_GL@ui@modules@UModSys@@H@tl@UModSys@@@tl@6@@tl@UModSys@@@?$TTreeHoldRB@U?$TScatterArrayNode@UGlyph@RMultiImage2D_SDL_ttf@SDL_GL@ui@modules@UModSys@@H@tl@UModSys@@@tl@UModSys@@QBEPAU?$TScatterArrayNode@UGlyph@RMultiImage2D_SDL_ttf@SDL_GL@ui@modules@UModSys@@H@12@UCmp@?$TScatterArray@UGlyph@RMultiImage2D_SDL_ttf@SDL_GL@ui@modules@UModSys@@HU?$TScalarCompare@H@core@6@U?$TNodeDeleter0@U?$TScatterArrayNode@UGlyph@RMultiImage2D_SDL_ttf@SDL_GL@ui@modules@UModSys@@H@tl@UModSys@@@tl@6@@12@@Z 10004910 f i umodsys_lib_libui:umodsys.mod.ui.SDL_GL.obj
 0001:00003910       ??$find_node_u@UCmp@?$TScatterArray@U?$TRefObjectComposite@UIKeyboardClient@libui@UModSys@@UIRefObject@core@3@U?$TRefObjectFunc@UIRefObject@core@UModSys@@@tl@3@@tl@UModSys@@HU?$TScalarCompare@H@core@3@U?$TNodeDeleter0@U?$TScatterArrayNode@U?$TRefObjectComposite@UIKeyboardClient@libui@UModSys@@UIRefObject@core@3@U?$TRefObjectFunc@UIRefObject@core@UModSys@@@tl@3@@tl@UModSys@@H@tl@UModSys@@@23@@tl@UModSys@@@?$TTreeHoldRB@U?$TScatterArrayNode@U?$TRefObjectComposite@UIKeyboardClient@libui@UModSys@@UIRefObject@core@3@U?$TRefObjectFunc@UIRefObject@core@UModSys@@@tl@3@@tl@UModSys@@H@tl@UModSys@@@tl@UModSys@@QBEPAU?$TScatterArrayNode@U?$TRefObjectComposite@UIKeyboardClient@libui@UModSys@@UIRefObject@core@3@U?$TRefObjectFunc@UIRefObject@core@UModSys@@@tl@3@@tl@UModSys@@H@12@UCmp@?$TScatterArray@U?$TRefObjectComposite@UIKeyboardClient@libui@UModSys@@UIRefObject@core@3@U?$TRefObjectFunc@UIRefObject@core@UModSys@@@tl@3@@tl@UModSys@@HU?$TScalarCompare@H@core@3@U?$TNodeDeleter0@U?$TScatterArrayNode@U?$TRefObjectComposite@UIKeyboardClient@libui@UModSys@@UIRefObject@core@3@U?$TRefObjectFunc@UIRefObject@core@UModSys@@@tl@3@@tl@UModSys@@H@tl@UModSys@@@23@@12@@Z 10004910 f i umodsys_lib_libui:umodsys.mod.ui.SDL_GL.obj
 0001:00003910       ??$find_node_u@UCmp@?$TScatterArray@UGlyph@RMultiImage2D_SDL_ttf@SDL_core@ui@modules@UModSys@@HU?$TScalarCompare@H@core@6@U?$TNodeDeleter0@U?$TScatterArrayNode@UGlyph@RMultiImage2D_SDL_ttf@SDL_core@ui@modules@UModSys@@H@tl@UModSys@@@tl@6@@tl@UModSys@@@?$TTreeHoldRB@U?$TScatterArrayNode@UGlyph@RMultiImage2D_SDL_ttf@SDL_core@ui@modules@UModSys@@H@tl@UModSys@@@tl@UModSys@@QBEPAU?$TScatterArrayNode@UGlyph@RMultiImage2D_SDL_ttf@SDL_core@ui@modules@UModSys@@H@12@UCmp@?$TScatterArray@UGlyph@RMultiImage2D_SDL_ttf@SDL_core@ui@modules@UModSys@@HU?$TScalarCompare@H@core@6@U?$TNodeDeleter0@U?$TScatterArrayNode@UGlyph@RMultiImage2D_SDL_ttf@SDL_core@ui@modules@UModSys@@H@tl@UModSys@@@tl@6@@12@@Z 10004910 f i umodsys_lib_libui:umodsys.mod.ui.SDL_core.obj
 0001:00003910       ??$find_node_u@UCmp@?$TScatterArray@U?$TRefObjectCompositeExtra@UIMouseClient@libui@UModSys@@HUIRefObject@core@3@U?$TRefObjectFunc@UIRefObject@core@UModSys@@@tl@3@@tl@UModSys@@HU?$TScalarCompare@H@core@3@U?$TNodeDeleter0@U?$TScatterArrayNode@U?$TRefObjectCompositeExtra@UIMouseClient@libui@UModSys@@HUIRefObject@core@3@U?$TRefObjectFunc@UIRefObject@core@UModSys@@@tl@3@@tl@UModSys@@H@tl@UModSys@@@23@@tl@UModSys@@@?$TTreeHoldRB@U?$TScatterArrayNode@U?$TRefObjectCompositeExtra@UIMouseClient@libui@UModSys@@HUIRefObject@core@3@U?$TRefObjectFunc@UIRefObject@core@UModSys@@@tl@3@@tl@UModSys@@H@tl@UModSys@@@tl@UModSys@@QBEPAU?$TScatterArrayNode@U?$TRefObjectCompositeExtra@UIMouseClient@libui@UModSys@@HUIRefObject@core@3@U?$TRefObjectFunc@UIRefObject@core@UModSys@@@tl@3@@tl@UModSys@@H@12@UCmp@?$TScatterArray@U?$TRefObjectCompositeExtra@UIMouseClient@libui@UModSys@@HUIRefObject@core@3@U?$TRefObjectFunc@UIRefObject@core@UModSys@@@tl@3@@tl@UModSys@@HU?$TScalarCompare@H@core@3@U?$TNodeDeleter0@U?$TScatterArrayNode@U?$TRefObjectCompositeExtra@UIMouseClient@libui@UModSys@@HUIRefObject@core@3@U?$TRefObjectFunc@UIRefObject@core@UModSys@@@tl@3@@tl@UModSys@@H@tl@UModSys@@@23@@12@@Z 10004910 f i umodsys_lib_libui:umodsys.mod.ui.SDL_GL.obj
 0001:00003950       ?rotate_left@?$TTreeHoldRB@U?$TScatterArrayNode@U?$TRefObjectCompositeExtra@UIMouseClient@libui@UModSys@@HUIRefObject@core@3@U?$TRefObjectFunc@UIRefObject@core@UModSys@@@tl@3@@tl@UModSys@@H@tl@UModSys@@@tl@UModSys@@IAEXPAU?$TScatterArrayNode@U?$TRefObjectCompositeExtra@UIMouseClient@libui@UModSys@@HUIRefObject@core@3@U?$TRefObjectFunc@UIRefObject@core@UModSys@@@tl@3@@tl@UModSys@@H@23@@Z 10004950 f i umodsys_lib_libui:umodsys.mod.ui.SDL_GL.obj
 0001:00003950       ?rotate_left@?$TTreeHoldRB@U?$TScatterArrayNode@U?$TRefObjectComposite@UIKeyboardClient@libui@UModSys@@UIRefObject@core@3@U?$TRefObjectFunc@UIRefObject@core@UModSys@@@tl@3@@tl@UModSys@@H@tl@UModSys@@@tl@UModSys@@IAEXPAU?$TScatterArrayNode@U?$TRefObjectComposite@UIKeyboardClient@libui@UModSys@@UIRefObject@core@3@U?$TRefObjectFunc@UIRefObject@core@UModSys@@@tl@3@@tl@UModSys@@H@23@@Z 10004950 f i umodsys_lib_libui:umodsys.mod.ui.SDL_GL.obj
 0001:000039a0       ?rotate_right@?$TTreeHoldRB@U?$TScatterArrayNode@U?$TRefObjectComposite@UIKeyboardClient@libui@UModSys@@UIRefObject@core@3@U?$TRefObjectFunc@UIRefObject@core@UModSys@@@tl@3@@tl@UModSys@@H@tl@UModSys@@@tl@UModSys@@IAEXPAU?$TScatterArrayNode@U?$TRefObjectComposite@UIKeyboardClient@libui@UModSys@@UIRefObject@core@3@U?$TRefObjectFunc@UIRefObject@core@UModSys@@@tl@3@@tl@UModSys@@H@23@@Z 100049a0 f i umodsys_lib_libui:umodsys.mod.ui.SDL_GL.obj
 0001:000039a0       ?rotate_right@?$TTreeHoldRB@U?$TScatterArrayNode@U?$TRefObjectCompositeExtra@UIMouseClient@libui@UModSys@@HUIRefObject@core@3@U?$TRefObjectFunc@UIRefObject@core@UModSys@@@tl@3@@tl@UModSys@@H@tl@UModSys@@@tl@UModSys@@IAEXPAU?$TScatterArrayNode@U?$TRefObjectCompositeExtra@UIMouseClient@libui@UModSys@@HUIRefObject@core@3@U?$TRefObjectFunc@UIRefObject@core@UModSys@@@tl@3@@tl@UModSys@@H@23@@Z 100049a0 f i umodsys_lib_libui:umodsys.mod.ui.SDL_GL.obj
 0001:000039f0       ?ReLink@?$TDynarray@U?$TDynarrayHolderDynamic@USLayInfo@RVertexArray@SDL_GL@ui@modules@UModSys@@U?$TAllocator@USIMemAlloc@core@UModSys@@USCountCalcExact@23@@tl@6@@tl@UModSys@@@tl@UModSys@@IAE_NI@Z 100049f0 f i umodsys_lib_libui:umodsys.mod.ui.SDL_GL.obj
 0001:00003a40       ?items_construct@?$TDynarray@U?$TDynarrayHolderDynamic@USLayInfo@RVertexArray@SDL_GL@ui@modules@UModSys@@U?$TAllocator@USIMemAlloc@core@UModSys@@USCountCalcExact@23@@tl@6@@tl@UModSys@@@tl@UModSys@@IAEXII@Z 10004a40 f i umodsys_lib_libui:umodsys.mod.ui.SDL_GL.obj
 0001:00003a80       ??RGen0@?$TScatterArray@U?$TRefObjectComposite@UIKeyboardClient@libui@UModSys@@UIRefObject@core@3@U?$TRefObjectFunc@UIRefObject@core@UModSys@@@tl@3@@tl@UModSys@@HU?$TScalarCompare@H@core@3@U?$TNodeDeleter0@U?$TScatterArrayNode@U?$TRefObjectComposite@UIKeyboardClient@libui@UModSys@@UIRefObject@core@3@U?$TRefObjectFunc@UIRefObject@core@UModSys@@@tl@3@@tl@UModSys@@H@tl@UModSys@@@23@@tl@UModSys@@QBEPAU?$TScatterArrayNode@U?$TRefObjectComposite@UIKeyboardClient@libui@UModSys@@UIRefObject@core@3@U?$TRefObjectFunc@UIRefObject@core@UModSys@@@tl@3@@tl@UModSys@@H@23@ABUCmp@123@ABU?$TTreeHoldRBD@U?$TScatterArrayNode@U?$TRefObjectComposite@UIKeyboardClient@libui@UModSys@@UIRefObject@core@3@U?$TRefObjectFunc@UIRefObject@core@UModSys@@@tl@3@@tl@UModSys@@H@tl@UModSys@@U?$TNodeDeleter0@U?$TScatterArrayNode@U?$TRefObjectComposite@UIKeyboardClient@libui@UModSys@@UIRefObject@core@3@U?$TRefObjectFunc@UIRefObject@core@UModSys@@@tl@3@@tl@UModSys@@H@tl@UModSys@@@23@@23@@Z 10004a80 f i umodsys_lib_libui:umodsys.mod.ui.SDL_GL.obj
 0001:00003ae0       ??RGen0@?$TScatterArray@U?$TRefObjectCompositeExtra@UIMouseClient@libui@UModSys@@HUIRefObject@core@3@U?$TRefObjectFunc@UIRefObject@core@UModSys@@@tl@3@@tl@UModSys@@HU?$TScalarCompare@H@core@3@U?$TNodeDeleter0@U?$TScatterArrayNode@U?$TRefObjectCompositeExtra@UIMouseClient@libui@UModSys@@HUIRefObject@core@3@U?$TRefObjectFunc@UIRefObject@core@UModSys@@@tl@3@@tl@UModSys@@H@tl@UModSys@@@23@@tl@UModSys@@QBEPAU?$TScatterArrayNode@U?$TRefObjectCompositeExtra@UIMouseClient@libui@UModSys@@HUIRefObject@core@3@U?$TRefObjectFunc@UIRefObject@core@UModSys@@@tl@3@@tl@UModSys@@H@23@ABUCmp@123@ABU?$TTreeHoldRBD@U?$TScatterArrayNode@U?$TRefObjectCompositeExtra@UIMouseClient@libui@UModSys@@HUIRefObject@core@3@U?$TRefObjectFunc@UIRefObject@core@UModSys@@@tl@3@@tl@UModSys@@H@tl@UModSys@@U?$TNodeDeleter0@U?$TScatterArrayNode@U?$TRefObjectCompositeExtra@UIMouseClient@libui@UModSys@@HUIRefObject@core@3@U?$TRefObjectFunc@UIRefObject@core@UModSys@@@tl@3@@tl@UModSys@@H@tl@UModSys@@@23@@23@@Z 10004ae0 f i umodsys_lib_libui:umodsys.mod.ui.SDL_GL.obj
 0001:00003b40       ??RGen0@?$TScatterArray@UGlyph@RMultiImage2D_SDL_ttf@SDL_GL@ui@modules@UModSys@@HU?$TScalarCompare@H@core@6@U?$TNodeDeleter0@U?$TScatterArrayNode@UGlyph@RMultiImage2D_SDL_ttf@SDL_GL@ui@modules@UModSys@@H@tl@UModSys@@@tl@6@@tl@UModSys@@QBEPAU?$TScatterArrayNode@UGlyph@RMultiImage2D_SDL_ttf@SDL_GL@ui@modules@UModSys@@H@23@ABUCmp@123@ABU?$TTreeHoldRBD@U?$TScatterArrayNode@UGlyph@RMultiImage2D_SDL_ttf@SDL_GL@ui@modules@UModSys@@H@tl@UModSys@@U?$TNodeDeleter0@U?$TScatterArrayNode@UGlyph@RMultiImage2D_SDL_ttf@SDL_GL@ui@modules@UModSys@@H@tl@UModSys@@@23@@23@@Z 10004b40 f i umodsys_lib_libui:umodsys.mod.ui.SDL_GL.obj
 0001:00003ba0       ??0?$TScatterArrayNode@U?$TRefObjectComposite@UIKeyboardClient@libui@UModSys@@UIRefObject@core@3@U?$TRefObjectFunc@UIRefObject@core@UModSys@@@tl@3@@tl@UModSys@@H@tl@UModSys@@QAE@ABH@Z 10004ba0 f i umodsys_lib_libui:umodsys.mod.ui.SDL_GL.obj
 0001:00003c10       ??0?$TScatterArrayNode@U?$TRefObjectCompositeExtra@UIMouseClient@libui@UModSys@@HUIRefObject@core@3@U?$TRefObjectFunc@UIRefObject@core@UModSys@@@tl@3@@tl@UModSys@@H@tl@UModSys@@QAE@ABH@Z 10004c10 f i umodsys_lib_libui:umodsys.mod.ui.SDL_GL.obj
 0001:00003c80       ??0?$TScatterArrayNode@UGlyph@RMultiImage2D_SDL_ttf@SDL_GL@ui@modules@UModSys@@H@tl@UModSys@@QAE@ABH@Z 10004c80 f i umodsys_lib_libui:umodsys.mod.ui.SDL_GL.obj
 0001:00003d80       ??1?$TPair@HUGlyph@RMultiImage2D_SDL_ttf@SDL_GL@ui@modules@UModSys@@@tl@UModSys@@QAE@XZ 10004d80 f i umodsys_lib_libui:umodsys.mod.ui.SDL_GL.obj
 0001:00003dd0       ??0STextureGL@SDL_GL@ui@modules@UModSys@@QAE@ABU01234@@Z 10004dd0 f i umodsys_lib_libui:umodsys.mod.ui.SDL_GL.obj
 0001:00003ee0       ??$process_nodes_r@U?$TNodeDeleter0@U?$TScatterArrayNode@U?$TRefObjectComposite@UIKeyboardClient@libui@UModSys@@UIRefObject@core@3@U?$TRefObjectFunc@UIRefObject@core@UModSys@@@tl@3@@tl@UModSys@@H@tl@UModSys@@@tl@UModSys@@@?$TTreeHoldRB@U?$TScatterArrayNode@U?$TRefObjectComposite@UIKeyboardClient@libui@UModSys@@UIRefObject@core@3@U?$TRefObjectFunc@UIRefObject@core@UModSys@@@tl@3@@tl@UModSys@@H@tl@UModSys@@@tl@UModSys@@KAHPAU?$TScatterArrayNode@U?$TRefObjectComposite@UIKeyboardClient@libui@UModSys@@UIRefObject@core@3@U?$TRefObjectFunc@UIRefObject@core@UModSys@@@tl@3@@tl@UModSys@@H@12@ABU?$TNodeDeleter0@U?$TScatterArrayNode@U?$TRefObjectComposite@UIKeyboardClient@libui@UModSys@@UIRefObject@core@3@U?$TRefObjectFunc@UIRefObject@core@UModSys@@@tl@3@@tl@UModSys@@H@tl@UModSys@@@12@@Z 10004ee0 f i umodsys_lib_libui:umodsys.mod.ui.SDL_GL.obj
 0001:00003ee0       ??$process_nodes_r@U?$TNodeDeleter0@U?$TScatterArrayNode@U?$TRefObjectCompositeExtra@UIMouseClient@libui@UModSys@@HUIRefObject@core@3@U?$TRefObjectFunc@UIRefObject@core@UModSys@@@tl@3@@tl@UModSys@@H@tl@UModSys@@@tl@UModSys@@@?$TTreeHoldRB@U?$TScatterArrayNode@U?$TRefObjectCompositeExtra@UIMouseClient@libui@UModSys@@HUIRefObject@core@3@U?$TRefObjectFunc@UIRefObject@core@UModSys@@@tl@3@@tl@UModSys@@H@tl@UModSys@@@tl@UModSys@@KAHPAU?$TScatterArrayNode@U?$TRefObjectCompositeExtra@UIMouseClient@libui@UModSys@@HUIRefObject@core@3@U?$TRefObjectFunc@UIRefObject@core@UModSys@@@tl@3@@tl@UModSys@@H@12@ABU?$TNodeDeleter0@U?$TScatterArrayNode@U?$TRefObjectCompositeExtra@UIMouseClient@libui@UModSys@@HUIRefObject@core@3@U?$TRefObjectFunc@UIRefObject@core@UModSys@@@tl@3@@tl@UModSys@@H@tl@UModSys@@@12@@Z 10004ee0 f i umodsys_lib_libui:umodsys.mod.ui.SDL_GL.obj
 0001:00003f30       ??$process_nodes_r@U?$TNodeDeleter0@U?$TScatterArrayNode@UGlyph@RMultiImage2D_SDL_ttf@SDL_GL@ui@modules@UModSys@@H@tl@UModSys@@@tl@UModSys@@@?$TTreeHoldRB@U?$TScatterArrayNode@UGlyph@RMultiImage2D_SDL_ttf@SDL_GL@ui@modules@UModSys@@H@tl@UModSys@@@tl@UModSys@@KAHPAU?$TScatterArrayNode@UGlyph@RMultiImage2D_SDL_ttf@SDL_GL@ui@modules@UModSys@@H@12@ABU?$TNodeDeleter0@U?$TScatterArrayNode@UGlyph@RMultiImage2D_SDL_ttf@SDL_GL@ui@modules@UModSys@@H@tl@UModSys@@@12@@Z 10004f30 f i umodsys_lib_libui:umodsys.mod.ui.SDL_GL.obj
 0001:00003f80       ??_G?$TScatterArrayNode@UGlyph@RMultiImage2D_SDL_ttf@SDL_GL@ui@modules@UModSys@@H@tl@UModSys@@QAEPAXI@Z 10004f80 f i umodsys_lib_libui:umodsys.mod.ui.SDL_GL.obj
 0001:00003fe0       ?root_get_interface_info@RKeyboardController@SDL_core@ui@modules@UModSys@@UBEABUSUniquePointerInfo@core@5@XZ 10004fe0 f i umodsys_lib_libui:umodsys.mod.ui.SDL_core.obj
 0001:00003ff0       ?root_get_interface_type@RKeyboardController@SDL_core@ui@modules@UModSys@@UBEPBUSUniquePointerInfo@core@5@XZ 10004ff0 f i umodsys_lib_libui:umodsys.mod.ui.SDL_core.obj
 0001:00004000       ?root_get_other_interface@RKeyboardController@SDL_core@ui@modules@UModSys@@UBEPBUIRoot@core@5@PBUSUniquePointerInfo@75@@Z 10005000 f i umodsys_lib_libui:umodsys.mod.ui.SDL_core.obj
 0001:00004000       ?root_get_other_interface@RKeyboardController@SDL_core@ui@modules@UModSys@@UAEPAUIRoot@core@5@PBUSUniquePointerInfo@75@@Z 10005000 f i umodsys_lib_libui:umodsys.mod.ui.SDL_core.obj
 0001:00004030       ?root_is_interface_supported@RKeyboardController@SDL_core@ui@modules@UModSys@@UBE_NPBUSUniquePointerInfo@core@5@@Z 10005030 f i umodsys_lib_libui:umodsys.mod.ui.SDL_core.obj
 0001:00004070       ?ref_add@RKeyboardController@SDL_core@ui@modules@UModSys@@UBEXXZ 10005070 f i umodsys_lib_libui:umodsys.mod.ui.SDL_core.obj
 0001:00004070       ?ref_add@RMouseController@SDL_core@ui@modules@UModSys@@UBEXXZ 10005070 f i umodsys_lib_libui:umodsys.mod.ui.SDL_core.obj
 0001:00004070       ?ref_add@RRenderDriver2D@SDL_core@ui@modules@UModSys@@UBEXXZ 10005070 f i umodsys_lib_libui:umodsys.mod.ui.SDL_core.obj
 0001:00004070       ?ref_add@RKeyboardController@SDL_GL@ui@modules@UModSys@@UBEXXZ 10005070 f i umodsys_lib_libui:umodsys.mod.ui.SDL_GL.obj
 0001:00004070       ?ref_add@RMouseController@SDL_GL@ui@modules@UModSys@@UBEXXZ 10005070 f i umodsys_lib_libui:umodsys.mod.ui.SDL_GL.obj
 0001:00004070       ?ref_add@RRenderDriver3D@SDL_GL@ui@modules@UModSys@@UBEXXZ 10005070 f i umodsys_lib_libui:umodsys.mod.ui.SDL_GL.obj
 0001:00004080       ?root_get_interface_info@RMouseController@SDL_core@ui@modules@UModSys@@UBEABUSUniquePointerInfo@core@5@XZ 10005080 f i umodsys_lib_libui:umodsys.mod.ui.SDL_core.obj
 0001:00004090       ?root_get_interface_type@RMouseController@SDL_core@ui@modules@UModSys@@UBEPBUSUniquePointerInfo@core@5@XZ 10005090 f i umodsys_lib_libui:umodsys.mod.ui.SDL_core.obj
 0001:000040a0       ?root_get_other_interface@RMouseController@SDL_core@ui@modules@UModSys@@UBEPBUIRoot@core@5@PBUSUniquePointerInfo@75@@Z 100050a0 f i umodsys_lib_libui:umodsys.mod.ui.SDL_core.obj
 0001:000040a0       ?root_get_other_interface@RMouseController@SDL_core@ui@modules@UModSys@@UAEPAUIRoot@core@5@PBUSUniquePointerInfo@75@@Z 100050a0 f i umodsys_lib_libui:umodsys.mod.ui.SDL_core.obj
 0001:000040d0       ?root_is_interface_supported@RMouseController@SDL_core@ui@modules@UModSys@@UBE_NPBUSUniquePointerInfo@core@5@@Z 100050d0 f i umodsys_lib_libui:umodsys.mod.ui.SDL_core.obj
 0001:00004110       ?root_get_interface_info@RTerminal@SDL_core@ui@modules@UModSys@@UBEABUSUniquePointerInfo@core@5@XZ 10005110 f i umodsys_lib_libui:umodsys.mod.ui.SDL_core.obj
 0001:00004120       ?root_get_interface_type@RTerminal@SDL_core@ui@modules@UModSys@@UBEPBUSUniquePointerInfo@core@5@XZ 10005120 f i umodsys_lib_libui:umodsys.mod.ui.SDL_core.obj
 0001:00004130       ?root_get_other_interface@RTerminal@SDL_core@ui@modules@UModSys@@UBEPBUIRoot@core@5@PBUSUniquePointerInfo@75@@Z 10005130 f i umodsys_lib_libui:umodsys.mod.ui.SDL_core.obj
 0001:00004130       ?root_get_other_interface@RTerminal@SDL_core@ui@modules@UModSys@@UAEPAUIRoot@core@5@PBUSUniquePointerInfo@75@@Z 10005130 f i umodsys_lib_libui:umodsys.mod.ui.SDL_core.obj
 0001:00004160       ?root_is_interface_supported@RTerminal@SDL_core@ui@modules@UModSys@@UBE_NPBUSUniquePointerInfo@core@5@@Z 10005160 f i umodsys_lib_libui:umodsys.mod.ui.SDL_core.obj
 0001:000041a0       ?root_get_interface_info@RMultiImage2D_SDL_ttf@SDL_core@ui@modules@UModSys@@UBEABUSUniquePointerInfo@core@5@XZ 100051a0 f i umodsys_lib_libui:umodsys.mod.ui.SDL_core.obj
 0001:000041b0       ?root_get_interface_type@RMultiImage2D_SDL_ttf@SDL_core@ui@modules@UModSys@@UBEPBUSUniquePointerInfo@core@5@XZ 100051b0 f i umodsys_lib_libui:umodsys.mod.ui.SDL_core.obj
 0001:000041c0       ?root_get_other_interface@RMultiImage2D_SDL_ttf@SDL_core@ui@modules@UModSys@@UBEPBUIRoot@core@5@PBUSUniquePointerInfo@75@@Z 100051c0 f i umodsys_lib_libui:umodsys.mod.ui.SDL_core.obj
 0001:000041c0       ?root_get_other_interface@RMultiImage2D_SDL_ttf@SDL_core@ui@modules@UModSys@@UAEPAUIRoot@core@5@PBUSUniquePointerInfo@75@@Z 100051c0 f i umodsys_lib_libui:umodsys.mod.ui.SDL_core.obj
 0001:000041f0       ?root_is_interface_supported@RMultiImage2D_SDL_ttf@SDL_core@ui@modules@UModSys@@UBE_NPBUSUniquePointerInfo@core@5@@Z 100051f0 f i umodsys_lib_libui:umodsys.mod.ui.SDL_core.obj
 0001:00004230       ?suicide@RDialog@frames@ui@modules@UModSys@@UAEXXZ 10005230 f i umodsys_lib_libui:umodsys.mod.ui.frames.obj
 0001:00004230       ?suicide@RMultiImage2D_SDL_ttf@SDL_GL@ui@modules@UModSys@@UAEXXZ 10005230 f i umodsys_lib_libui:umodsys.mod.ui.SDL_GL.obj
 0001:00004230       ?suicide@RMultiImage2D_SDL_ttf@SDL_core@ui@modules@UModSys@@UAEXXZ 10005230 f i umodsys_lib_libui:umodsys.mod.ui.SDL_core.obj
 0001:00004230       ?suicide@RVertexArray@SDL_GL@ui@modules@UModSys@@UAEXXZ 10005230 f i umodsys_lib_libui:umodsys.mod.ui.SDL_GL.obj
 0001:00004240       ?get_fixed_cell_size@RMultiImage2D_SDL_ttf@SDL_GL@ui@modules@UModSys@@UBE?AU?$TVector2@H@math3d@5@XZ 10005240 f i umodsys_lib_libui:umodsys.mod.ui.SDL_GL.obj
 0001:00004240       ?get_fixed_cell_size@RMultiImage2D_SDL_ttf@SDL_core@ui@modules@UModSys@@UBE?AU?$TVector2@H@math3d@5@XZ 10005240 f i umodsys_lib_libui:umodsys.mod.ui.SDL_core.obj
 0001:00004240       ?get_max_cell_size@RMultiImage2D_SDL_ttf@SDL_GL@ui@modules@UModSys@@UBE?AU?$TVector2@H@math3d@5@XZ 10005240 f i umodsys_lib_libui:umodsys.mod.ui.SDL_GL.obj
 0001:00004240       ?get_max_layer_size@RMultiImage2D_SDL_ttf@SDL_GL@ui@modules@UModSys@@UBE?AU?$TVector2@H@math3d@5@XZ 10005240 f i umodsys_lib_libui:umodsys.mod.ui.SDL_GL.obj
 0001:00004240       ?get_max_cell_size@RMultiImage2D_SDL_ttf@SDL_core@ui@modules@UModSys@@UBE?AU?$TVector2@H@math3d@5@XZ 10005240 f i umodsys_lib_libui:umodsys.mod.ui.SDL_core.obj
 0001:00004240       ?get_max_layer_size@RMultiImage2D_SDL_ttf@SDL_core@ui@modules@UModSys@@UBE?AU?$TVector2@H@math3d@5@XZ 10005240 f i umodsys_lib_libui:umodsys.mod.ui.SDL_core.obj
 0001:00004260       ?get_layer@RMultiImage2D_SDL_ttf@SDL_GL@ui@modules@UModSys@@UBEPAUIImage@lib2d@5@G@Z 10005260 f i umodsys_lib_libui:umodsys.mod.ui.SDL_GL.obj
 0001:00004260       ?get_layer@RMultiImage2D_SDL_ttf@SDL_core@ui@modules@UModSys@@UBEPAUIImage@lib2d@5@G@Z 10005260 f i umodsys_lib_libui:umodsys.mod.ui.SDL_core.obj
 0001:00004270       ?set_hint@RMultiImage2D_SDL_ttf@SDL_GL@ui@modules@UModSys@@UAE_NPBD0@Z 10005270 f i umodsys_lib_libui:umodsys.mod.ui.SDL_GL.obj
 0001:00004270       ?setup_fixed_cell@RMultiImage2D_SDL_ttf@SDL_core@ui@modules@UModSys@@UAE_NHH@Z 10005270 f i umodsys_lib_libui:umodsys.mod.ui.SDL_core.obj
 0001:00004270       ?setup_fixed_cell@RMultiImage2D_SDL_ttf@SDL_GL@ui@modules@UModSys@@UAE_NHH@Z 10005270 f i umodsys_lib_libui:umodsys.mod.ui.SDL_GL.obj
 0001:00004270       ?get_cell@RMultiImage2D_SDL_ttf@SDL_core@ui@modules@UModSys@@UBE_NIAAUSImageCellInfo@lib2d@5@@Z 10005270 f i umodsys_lib_libui:umodsys.mod.ui.SDL_core.obj
 0001:00004270       ?get_cell@RMultiImage2D_SDL_ttf@SDL_GL@ui@modules@UModSys@@UBE_NIAAUSImageCellInfo@lib2d@5@@Z 10005270 f i umodsys_lib_libui:umodsys.mod.ui.SDL_GL.obj
 0001:00004270       ?set_hint@RMultiImage2D_SDL_ttf@SDL_core@ui@modules@UModSys@@UAE_NPBD0@Z 10005270 f i umodsys_lib_libui:umodsys.mod.ui.SDL_core.obj
 0001:00004280       ?root_get_interface_info@RRenderDriver2D@SDL_core@ui@modules@UModSys@@UBEABUSUniquePointerInfo@core@5@XZ 10005280 f i umodsys_lib_libui:umodsys.mod.ui.SDL_core.obj
 0001:00004290       ?root_get_interface_type@RRenderDriver2D@SDL_core@ui@modules@UModSys@@UBEPBUSUniquePointerInfo@core@5@XZ 10005290 f i umodsys_lib_libui:umodsys.mod.ui.SDL_core.obj
 0001:000042a0       ?root_get_other_interface@RRenderDriver2D@SDL_core@ui@modules@UModSys@@UBEPBUIRoot@core@5@PBUSUniquePointerInfo@75@@Z 100052a0 f i umodsys_lib_libui:umodsys.mod.ui.SDL_core.obj
 0001:000042a0       ?root_get_other_interface@RRenderDriver2D@SDL_core@ui@modules@UModSys@@UAEPAUIRoot@core@5@PBUSUniquePointerInfo@75@@Z 100052a0 f i umodsys_lib_libui:umodsys.mod.ui.SDL_core.obj
 0001:000042d0       ?root_is_interface_supported@RRenderDriver2D@SDL_core@ui@modules@UModSys@@UBE_NPBUSUniquePointerInfo@core@5@@Z 100052d0 f i umodsys_lib_libui:umodsys.mod.ui.SDL_core.obj
 0001:00004310       ?root_get_interface_info@RTerminalX@SDL_core@ui@modules@UModSys@@UBEABUSUniquePointerInfo@core@5@XZ 10005310 f i umodsys_lib_libui:umodsys.mod.ui.SDL_core.obj
 0001:00004320       ?root_get_interface_type@RTerminalX@SDL_core@ui@modules@UModSys@@UBEPBUSUniquePointerInfo@core@5@XZ 10005320 f i umodsys_lib_libui:umodsys.mod.ui.SDL_core.obj
 0001:00004330       ?root_get_other_interface@RTerminalX@SDL_core@ui@modules@UModSys@@UBEPBUIRoot@core@5@PBUSUniquePointerInfo@75@@Z 10005330 f i umodsys_lib_libui:umodsys.mod.ui.SDL_core.obj
 0001:00004330       ?root_get_other_interface@RTerminalX@SDL_core@ui@modules@UModSys@@UAEPAUIRoot@core@5@PBUSUniquePointerInfo@75@@Z 10005330 f i umodsys_lib_libui:umodsys.mod.ui.SDL_core.obj
 0001:00004360       ?root_is_interface_supported@RTerminalX@SDL_core@ui@modules@UModSys@@UBE_NPBUSUniquePointerInfo@core@5@@Z 10005360 f i umodsys_lib_libui:umodsys.mod.ui.SDL_core.obj
 0001:000043a0       ?get_generated_names@RGenerator@SDL_core@ui@modules@UModSys@@UBEHAAUSUniquePtrList@core@5@@Z 100053a0 f i umodsys_lib_libui:umodsys.mod.ui.SDL_core.obj
 0001:000043c0       ?get_generated_types@RGenerator@SDL_core@ui@modules@UModSys@@UBEHAAUSUniquePtrList@core@5@PBUSUniquePointerInfo@75@@Z 100053c0 f i umodsys_lib_libui:umodsys.mod.ui.SDL_core.obj
 0001:00004410       ?generate@RGenerator@SDL_core@ui@modules@UModSys@@UAE_NAAU?$TRefObject@UIRefObject@core@UModSys@@U?$TRefObjectFunc@UIRefObject@core@UModSys@@@tl@3@@tl@5@PBUSUniquePointerInfo@core@5@ABUSParameters@95@@Z 10005410 f i umodsys_lib_libui:umodsys.mod.ui.SDL_core.obj
 0001:00004440       ?root_get_interface_info@RGenerator@SDL_core@ui@modules@UModSys@@UBEABUSUniquePointerInfo@core@5@XZ 10005440 f i umodsys_lib_libui:umodsys.mod.ui.SDL_core.obj
 0001:00004450       ?root_get_interface_type@RGenerator@SDL_core@ui@modules@UModSys@@UBEPBUSUniquePointerInfo@core@5@XZ 10005450 f i umodsys_lib_libui:umodsys.mod.ui.SDL_core.obj
 0001:00004460       ?root_get_other_interface@RGenerator@SDL_core@ui@modules@UModSys@@UAEPAUIRoot@core@5@PBUSUniquePointerInfo@75@@Z 10005460 f i umodsys_lib_libui:umodsys.mod.ui.SDL_core.obj
 0001:00004460       ?root_get_other_interface@RGenerator@SDL_core@ui@modules@UModSys@@UBEPBUIRoot@core@5@PBUSUniquePointerInfo@75@@Z 10005460 f i umodsys_lib_libui:umodsys.mod.ui.SDL_core.obj
 0001:000044a0       ?root_is_interface_supported@RGenerator@SDL_core@ui@modules@UModSys@@UBE_NPBUSUniquePointerInfo@core@5@@Z 100054a0 f i umodsys_lib_libui:umodsys.mod.ui.SDL_core.obj
 0001:000044e0       ?get_uid@RGenerator@SDL_core@ui@modules@UModSys@@UBEPBUSUniquePointerInfo@core@5@XZ 100054e0 f i umodsys_lib_libui:umodsys.mod.ui.SDL_core.obj
 0001:000044f0       ??_GRMultiImage2D_SDL_ttf@SDL_core@ui@modules@UModSys@@UAEPAXI@Z 100054f0 f i umodsys_lib_libui:umodsys.mod.ui.SDL_core.obj
 0001:000044f0       ??_ERMultiImage2D_SDL_ttf@SDL_core@ui@modules@UModSys@@UAEPAXI@Z 100054f0 f i  CIL library: CIL module
 0001:00004510       ??_ERRenderDriver2D@SDL_core@ui@modules@UModSys@@UAEPAXI@Z 10005510 f i  CIL library: CIL module
 0001:00004510       ??_GRRenderDriver2D@SDL_core@ui@modules@UModSys@@UAEPAXI@Z 10005510 f i umodsys_lib_libui:umodsys.mod.ui.SDL_core.obj
 0001:00004530       ??_ERMouseController@SDL_core@ui@modules@UModSys@@UAEPAXI@Z 10005530 f i  CIL library: CIL module
 0001:00004530       ??_GRMouseController@SDL_core@ui@modules@UModSys@@UAEPAXI@Z 10005530 f i umodsys_lib_libui:umodsys.mod.ui.SDL_core.obj
 0001:00004550       ??_GRKeyboardController@SDL_core@ui@modules@UModSys@@UAEPAXI@Z 10005550 f i umodsys_lib_libui:umodsys.mod.ui.SDL_core.obj
 0001:00004550       ??_ERKeyboardController@SDL_core@ui@modules@UModSys@@UAEPAXI@Z 10005550 f i  CIL library: CIL module
 0001:00004570       ??_ERTerminal@SDL_core@ui@modules@UModSys@@UAEPAXI@Z 10005570 f i  CIL library: CIL module
 0001:00004570       ??_GRTerminal@SDL_core@ui@modules@UModSys@@UAEPAXI@Z 10005570 f i umodsys_lib_libui:umodsys.mod.ui.SDL_core.obj
 0001:00004590       ??_ERTerminalX@SDL_core@ui@modules@UModSys@@UAEPAXI@Z 10005590 f i  CIL library: CIL module
 0001:00004590       ??_GRTerminalX@SDL_core@ui@modules@UModSys@@UAEPAXI@Z 10005590 f i umodsys_lib_libui:umodsys.mod.ui.SDL_core.obj
 0001:000045b0       ?do_open@RModuleReg@SDL_core@ui@modules@UModSys@@UAE_NXZ 100055b0 f i umodsys_lib_libui:umodsys.mod.ui.SDL_core.obj
 0001:000045c0       ?do_close@RModuleReg@SDL_core@ui@modules@UModSys@@UAE_NXZ 100055c0 f i umodsys_lib_libui:umodsys.mod.ui.SDL_core.obj
 0001:000045d0       ??_GRModuleReg@SDL_core@ui@modules@UModSys@@UAEPAXI@Z 100055d0 f i umodsys_lib_libui:umodsys.mod.ui.SDL_core.obj
 0001:000045d0       ??_ERModuleReg@SDL_core@ui@modules@UModSys@@UAEPAXI@Z 100055d0 f i  CIL library: CIL module
 0001:00004600       ??1?$TScatterArray@UGlyph@RMultiImage2D_SDL_ttf@SDL_core@ui@modules@UModSys@@HU?$TScalarCompare@H@core@6@U?$TNodeDeleter0@U?$TScatterArrayNode@UGlyph@RMultiImage2D_SDL_ttf@SDL_core@ui@modules@UModSys@@H@tl@UModSys@@@tl@6@@tl@UModSys@@QAE@XZ 10005600 f i umodsys_lib_libui:umodsys.mod.ui.SDL_core.obj
 0001:00004620       ??$t_gen_param@URTerminalX@SDL_core@ui@modules@UModSys@@URGenerator@2345@@IGenerator@base@UModSys@@IAE_NPAURGenerator@SDL_core@ui@modules@2@AAU?$TRefObject@UIRefObject@core@UModSys@@U?$TRefObjectFunc@UIRefObject@core@UModSys@@@tl@3@@tl@2@PBUSUniquePointerInfo@core@2@ABUSParameters@core@2@@Z 10005620 f i umodsys_lib_libui:umodsys.mod.ui.SDL_core.obj
 0001:000046a0       ??$t_ref_get_other_interface@URMultiImage2D_SDL_ttf@SDL_core@ui@modules@UModSys@@U?$TRefObjectWeakFunc@URMultiImage2D_SDL_ttf@SDL_core@ui@modules@UModSys@@@tl@5@@IRefObject@core@UModSys@@QAE_NAAU?$TRefObject@URMultiImage2D_SDL_ttf@SDL_core@ui@modules@UModSys@@U?$TRefObjectWeakFunc@URMultiImage2D_SDL_ttf@SDL_core@ui@modules@UModSys@@@tl@5@@tl@2@@Z 100056a0 f i umodsys_lib_libui:umodsys.mod.ui.SDL_core.obj
 0001:00004700       ??$genx_node@UCmp@?$TScatterArray@UGlyph@RMultiImage2D_SDL_ttf@SDL_core@ui@modules@UModSys@@HU?$TScalarCompare@H@core@6@U?$TNodeDeleter0@U?$TScatterArrayNode@UGlyph@RMultiImage2D_SDL_ttf@SDL_core@ui@modules@UModSys@@H@tl@UModSys@@@tl@6@@tl@UModSys@@UGen0@234@@?$TTreeHoldRBD@U?$TScatterArrayNode@UGlyph@RMultiImage2D_SDL_ttf@SDL_core@ui@modules@UModSys@@H@tl@UModSys@@U?$TNodeDeleter0@U?$TScatterArrayNode@UGlyph@RMultiImage2D_SDL_ttf@SDL_core@ui@modules@UModSys@@H@tl@UModSys@@@23@@tl@UModSys@@QAEPAU?$TScatterArrayNode@UGlyph@RMultiImage2D_SDL_ttf@SDL_core@ui@modules@UModSys@@H@12@UCmp@?$TScatterArray@UGlyph@RMultiImage2D_SDL_ttf@SDL_core@ui@modules@UModSys@@HU?$TScalarCompare@H@core@6@U?$TNodeDeleter0@U?$TScatterArrayNode@UGlyph@RMultiImage2D_SDL_ttf@SDL_core@ui@modules@UModSys@@H@tl@UModSys@@@tl@6@@12@ABUGen0@512@PAPAU312@2_N@Z 10005700 f i umodsys_lib_libui:umodsys.mod.ui.SDL_core.obj
 0001:00004780       ??0?$TScatterArrayNode@UGlyph@RMultiImage2D_SDL_ttf@SDL_core@ui@modules@UModSys@@H@tl@UModSys@@QAE@ABH@Z 10005780 f i umodsys_lib_libui:umodsys.mod.ui.SDL_core.obj
 0001:000047f0       ??$process_nodes_r@U?$TNodeDeleter0@U?$TScatterArrayNode@UGlyph@RMultiImage2D_SDL_ttf@SDL_core@ui@modules@UModSys@@H@tl@UModSys@@@tl@UModSys@@@?$TTreeHoldRB@U?$TScatterArrayNode@UGlyph@RMultiImage2D_SDL_ttf@SDL_core@ui@modules@UModSys@@H@tl@UModSys@@@tl@UModSys@@KAHPAU?$TScatterArrayNode@UGlyph@RMultiImage2D_SDL_ttf@SDL_core@ui@modules@UModSys@@H@12@ABU?$TNodeDeleter0@U?$TScatterArrayNode@UGlyph@RMultiImage2D_SDL_ttf@SDL_core@ui@modules@UModSys@@H@tl@UModSys@@@12@@Z 100057f0 f i umodsys_lib_libui:umodsys.mod.ui.SDL_core.obj
 0001:00004850       ?get@SParameters@core@UModSys@@QBE_NPBDAA_N@Z 10005850 f i umodsys_lib_libui:umodsys.mod.ui.frames.obj
 0001:00004890       ?ss@SFrameDataOut@libui@UModSys@@QBEXABU?$TString@U?$TSCoreShared@USIMemAlloc@core@UModSys@@D@su@tl@UModSys@@U?$TComparerBinaryHash@D@234@@tl@3@@Z 10005890 f i umodsys_lib_libui:umodsys.mod.ui.frames.obj
 0001:000048c0       ??1SController@libui@UModSys@@QAE@XZ 100058c0 f i umodsys_lib_libui:umodsys.mod.ui.frames.obj
 0001:000048d0       ?db_get_i@SController@libui@UModSys@@QAEHQBD@Z 100058d0 f i umodsys_lib_libui:umodsys.mod.ui.frames.obj
 0001:00004950       ?update_size@libui@UModSys@@YA_NAAU?$TBoundBox2@H@math3d@2@ABUSFrameSize@12@ABU342@@Z 10005950 f i umodsys_lib_libui:umodsys.mod.ui.frames.obj
 0001:00004a60       ?command@SController@libui@UModSys@@QAE_NHABUSFrameDataIn@23@@Z 10005a60 f i umodsys_lib_libui:umodsys.mod.ui.frames.obj
 0001:00004aa0       ?get_property@ICollectorThemeTemplate@libui@UModSys@@UBE_NHHAAU?$TVector4@M@math3d@3@@Z 10005aa0 f i umodsys_lib_libui:umodsys.mod.ui.frames.obj
 0001:00004ac0       ?get_property@ICollectorThemeTemplate@libui@UModSys@@UBE_NHHAAU?$TVector4@H@math3d@3@@Z 10005ac0 f i umodsys_lib_libui:umodsys.mod.ui.frames.obj
 0001:00004ae0       ?get_property@ICollectorThemeTemplate@libui@UModSys@@UBE_NHHAAU?$TVector2@M@math3d@3@@Z 10005ae0 f i umodsys_lib_libui:umodsys.mod.ui.frames.obj
 0001:00004b00       ?get_property@ICollectorThemeTemplate@libui@UModSys@@UBE_NHHAAU?$TVector2@H@math3d@3@@Z 10005b00 f i umodsys_lib_libui:umodsys.mod.ui.frames.obj
 0001:00004b20       ?get_property@ICollectorThemeTemplate@libui@UModSys@@UBE_NHHAAH@Z 10005b20 f i umodsys_lib_libui:umodsys.mod.ui.frames.obj
 0001:00004b40       ?set_property@ICollectorThemeTemplate@libui@UModSys@@UAE_NHHABU?$TVector4@M@math3d@3@@Z 10005b40 f i umodsys_lib_libui:umodsys.mod.ui.frames.obj
 0001:00004ba0       ?set_property@ICollectorThemeTemplate@libui@UModSys@@UAE_NHHABU?$TVector4@H@math3d@3@@Z 10005ba0 f i umodsys_lib_libui:umodsys.mod.ui.frames.obj
 0001:00004bc0       ?set_property@ICollectorThemeTemplate@libui@UModSys@@UAE_NHHABU?$TVector2@M@math3d@3@@Z 10005bc0 f i umodsys_lib_libui:umodsys.mod.ui.frames.obj
 0001:00004c10       ?set_property@ICollectorThemeTemplate@libui@UModSys@@UAE_NHHABU?$TVector2@H@math3d@3@@Z 10005c10 f i umodsys_lib_libui:umodsys.mod.ui.frames.obj
 0001:00004c70       ?set_property@ICollectorThemeTemplate@libui@UModSys@@UAE_NHHH@Z 10005c70 f i umodsys_lib_libui:umodsys.mod.ui.frames.obj
 0001:00004cb0       ??1ICollectorThemeTemplate@libui@UModSys@@QAE@XZ 10005cb0 f i umodsys_lib_libui:umodsys.mod.ui.frames.obj
 0001:00004dd0       ?set_controller@RFrame_Common@frames@ui@modules@UModSys@@UAE_NHPAUIController@libui@5@PAUIRefObject@core@5@@Z 10005dd0 f i umodsys_lib_libui:umodsys.mod.ui.frames.obj
 0001:00004e20       ?get_controller@RFrame_Common@frames@ui@modules@UModSys@@UAEPAUIController@libui@5@XZ 10005e20 f i umodsys_lib_libui:umodsys.mod.ui.frames.obj
 0001:00004e30       ?get_controller_context@RFrame_Common@frames@ui@modules@UModSys@@UAEHXZ 10005e30 f i umodsys_lib_libui:umodsys.mod.ui.frames.obj
 0001:00004e40       ?controller_update@RFrame_Common@frames@ui@modules@UModSys@@UAE_NXZ 10005e40 f i umodsys_lib_libui:umodsys.mod.ui.frames.obj
 0001:00004e50       ?get_framesize@RFrame_Common@frames@ui@modules@UModSys@@UAEABUSFrameSize@libui@5@XZ 10005e50 f i umodsys_lib_libui:umodsys.mod.ui.frames.obj
 0001:00004e60       ?set_framesize@RFrame_Common@frames@ui@modules@UModSys@@UAE_NABUSFrameSize@libui@5@@Z 10005e60 f i umodsys_lib_libui:umodsys.mod.ui.frames.obj
 0001:00004e90       ?get_insize@RFrame_Common@frames@ui@modules@UModSys@@UAE?AU?$TVector2@H@math3d@5@XZ 10005e90 f i umodsys_lib_libui:umodsys.mod.ui.frames.obj
 0001:00004eb0       ?get_theme@RFrame_Common@frames@ui@modules@UModSys@@UAEPAUICollectorTheme@libui@5@XZ 10005eb0 f i umodsys_lib_libui:umodsys.mod.ui.frames.obj
 0001:00004ec0       ?key_event@RFrame_Common@frames@ui@modules@UModSys@@MAE_NABUSKeyboardInputRaw@libui@5@@Z 10005ec0 f i umodsys_lib_libui:umodsys.mod.ui.frames.obj
 0001:00004ec0       ?key_event@RFrame_Common@frames@ui@modules@UModSys@@MAE_NABUSKeyboardInputText@libui@5@@Z 10005ec0 f i umodsys_lib_libui:umodsys.mod.ui.frames.obj
 0001:00004ec0       ?set_layer_count@RMultiImage2D_SDL_ttf@SDL_core@ui@modules@UModSys@@UAE_NG@Z 10005ec0 f i umodsys_lib_libui:umodsys.mod.ui.SDL_core.obj
 0001:00004ec0       ?set_layer_count@RMultiImage2D_SDL_ttf@SDL_GL@ui@modules@UModSys@@UAE_NG@Z 10005ec0 f i umodsys_lib_libui:umodsys.mod.ui.SDL_GL.obj
 0001:00004ec0       ?set_insize@RFrame_Common@frames@ui@modules@UModSys@@UAE_NABU?$TVector2@H@math3d@5@@Z 10005ec0 f i umodsys_lib_libui:umodsys.mod.ui.frames.obj
 0001:00004ec0       ?mouse_event@RFrame_Common@frames@ui@modules@UModSys@@MAE_NPBUSMouseInput@libui@5@@Z 10005ec0 f i umodsys_lib_libui:umodsys.mod.ui.frames.obj
 0001:00004ed0       ?draw_pre@RFrame_Common@frames@ui@modules@UModSys@@MAE_NABUSDrawState@2345@@Z 10005ed0 f i umodsys_lib_libui:umodsys.mod.ui.frames.obj
 0001:00004ed0       ?draw_post@RFrame_Common@frames@ui@modules@UModSys@@MAE_NABUSDrawState@2345@@Z 10005ed0 f i umodsys_lib_libui:umodsys.mod.ui.frames.obj
 0001:00004ee0       ?button_cmd@RFrame_Common@frames@ui@modules@UModSys@@MAE_NPAUSButton@2345@HH@Z 10005ee0 f i umodsys_lib_libui:umodsys.mod.ui.frames.obj
 0001:00004ee0       ?button_draw@RFrame_Common@frames@ui@modules@UModSys@@MAE_NPAUSButton@2345@ABUSDrawState@2345@H@Z 10005ee0 f i umodsys_lib_libui:umodsys.mod.ui.frames.obj
 0001:00004ef0       ??_ERFrame_Common@frames@ui@modules@UModSys@@UAEPAXI@Z 10005ef0 f i  CIL library: CIL module
 0001:00004ef0       ??_GRFrame_Common@frames@ui@modules@UModSys@@UAEPAXI@Z 10005ef0 f i umodsys_lib_libui:umodsys.mod.ui.frames.obj
 0001:00004f10       ?root_get_interface_info@RDialog@frames@ui@modules@UModSys@@UBEABUSUniquePointerInfo@core@5@XZ 10005f10 f i umodsys_lib_libui:umodsys.mod.ui.frames.obj
 0001:00004f20       ?root_get_interface_type@RDialog@frames@ui@modules@UModSys@@UBEPBUSUniquePointerInfo@core@5@XZ 10005f20 f i umodsys_lib_libui:umodsys.mod.ui.frames.obj
 0001:00004f30       ?root_get_other_interface@RDialog@frames@ui@modules@UModSys@@UBEPBUIRoot@core@5@PBUSUniquePointerInfo@75@@Z 10005f30 f i umodsys_lib_libui:umodsys.mod.ui.frames.obj
 0001:00004f30       ?root_get_other_interface@RDialog@frames@ui@modules@UModSys@@UAEPAUIRoot@core@5@PBUSUniquePointerInfo@75@@Z 10005f30 f i umodsys_lib_libui:umodsys.mod.ui.frames.obj
 0001:00004f60       ?root_is_interface_supported@RDialog@frames@ui@modules@UModSys@@UBE_NPBUSUniquePointerInfo@core@5@@Z 10005f60 f i umodsys_lib_libui:umodsys.mod.ui.frames.obj
 0001:00004fa0       ?ref_weak@RVertexArray@SDL_GL@ui@modules@UModSys@@UBE_NAAUWeakPointer@IRefObject@core@5@@Z 10005fa0 f i umodsys_lib_libui:umodsys.mod.ui.SDL_GL.obj
 0001:00004fa0       ?ref_weak@RGenerator@SDL_GL@ui@modules@UModSys@@UBE_NAAUWeakPointer@IRefObject@core@5@@Z 10005fa0 f i umodsys_lib_libui:umodsys.mod.ui.SDL_GL.obj
 0001:00004fa0       ?ref_weak@RGenerator@stdlib@lib2d@modules@UModSys@@UBE_NAAUWeakPointer@IRefObject@core@5@@Z 10005fa0 f i umodsys_lib_lib2d:umodsys.mod.2d.stdlib.obj
 0001:00004fa0       ?ref_weak@RGenerator@zlib@media@modules@UModSys@@UBE_NAAUWeakPointer@IRefObject@core@5@@Z 10005fa0 f i umodsys_lib_libmedia:umodsys.mod.media.zlib.obj
 0001:00004fa0       ?ref_weak@RBinArchiveFrameClient_ZIP@zlib@media@modules@UModSys@@UBE_NAAUWeakPointer@IRefObject@core@5@@Z 10005fa0 f i umodsys_lib_libmedia:umodsys.mod.media.zlib.obj
 0001:00004fa0       ?ref_weak@RMultiImage@stdlib@lib2d@modules@UModSys@@UBE_NAAUWeakPointer@IRefObject@core@5@@Z 10005fa0 f i umodsys_lib_lib2d:umodsys.mod.2d.stdlib.obj
 0001:00004fa0       ?ref_weak@RGenerator@frames@ui@modules@UModSys@@UBE_NAAUWeakPointer@IRefObject@core@5@@Z 10005fa0 f i umodsys_lib_libui:umodsys.mod.ui.frames.obj
 0001:00004fa0       ?ref_weak@RGenerator@SDL_core@ui@modules@UModSys@@UBE_NAAUWeakPointer@IRefObject@core@5@@Z 10005fa0 f i umodsys_lib_libui:umodsys.mod.ui.SDL_core.obj
 0001:00004fa0       ?ref_weak@RTerminal@SDL_GL@ui@modules@UModSys@@UBE_NAAUWeakPointer@IRefObject@core@5@@Z 10005fa0 f i umodsys_lib_libui:umodsys.mod.ui.SDL_GL.obj
 0001:00004fa0       ?ref_weak@RImageFactory_Memory@stdlib@lib2d@modules@UModSys@@UBE_NAAUWeakPointer@IRefObject@core@5@@Z 10005fa0 f i umodsys_lib_lib2d:umodsys.mod.2d.stdlib.obj
 0001:00004fa0       ?ref_weak@RGenerator@images_std@media@modules@UModSys@@UBE_NAAUWeakPointer@IRefObject@core@5@@Z 10005fa0 f i umodsys_lib_libmedia:umodsys.mod.media.images_std.obj
 0001:00004fa0       ?ref_weak@RSerializeReader@serialize_json@media@modules@UModSys@@UBE_NAAUWeakPointer@IRefObject@core@5@@Z 10005fa0 f i umodsys_lib_libmedia:umodsys.mod.media.serialize_json.obj
 0001:00004fa0       ?ref_weak@RMultiImage2D_SDL_ttf@SDL_core@ui@modules@UModSys@@UBE_NAAUWeakPointer@IRefObject@core@5@@Z 10005fa0 f i umodsys_lib_libui:umodsys.mod.ui.SDL_core.obj
 0001:00004fa0       ?ref_weak@RDialog@frames@ui@modules@UModSys@@UBE_NAAUWeakPointer@IRefObject@core@5@@Z 10005fa0 f i umodsys_lib_libui:umodsys.mod.ui.frames.obj
 0001:00004fa0       ?ref_weak@RGenerator@test1@test@modules@UModSys@@UBE_NAAUWeakPointer@IRefObject@core@5@@Z 10005fa0 f i plugin_test1.obj
 0001:00004fa0       ?ref_weak@RTerminal@SDL_core@ui@modules@UModSys@@UBE_NAAUWeakPointer@IRefObject@core@5@@Z 10005fa0 f i umodsys_lib_libui:umodsys.mod.ui.SDL_core.obj
 0001:00004fa0       ?ref_weak@RGenerator@serialize_json@media@modules@UModSys@@UBE_NAAUWeakPointer@IRefObject@core@5@@Z 10005fa0 f i umodsys_lib_libmedia:umodsys.mod.media.serialize_json.obj
 0001:00004fa0       ?ref_weak@RMultiImage2D_SDL_ttf@SDL_GL@ui@modules@UModSys@@UBE_NAAUWeakPointer@IRefObject@core@5@@Z 10005fa0 f i umodsys_lib_libui:umodsys.mod.ui.SDL_GL.obj
 0001:00004fa0       ?ref_weak@RImage_Memory@stdlib@lib2d@modules@UModSys@@UBE_NAAUWeakPointer@IRefObject@core@5@@Z 10005fa0 f i umodsys_lib_lib2d:umodsys.mod.2d.stdlib.obj
 0001:00004fc0       ??_ERDialog@frames@ui@modules@UModSys@@UAEPAXI@Z 10005fc0 f i  CIL library: CIL module
 0001:00004fc0       ??_GRDialog@frames@ui@modules@UModSys@@UAEPAXI@Z 10005fc0 f i umodsys_lib_libui:umodsys.mod.ui.frames.obj
 0001:00004fe0       ?root_get_interface_info@RFrame_Frame@frames@ui@modules@UModSys@@UBEABUSUniquePointerInfo@core@5@XZ 10005fe0 f i umodsys_lib_libui:umodsys.mod.ui.frames.obj
 0001:00004ff0       ?root_get_interface_type@RFrame_Frame@frames@ui@modules@UModSys@@UBEPBUSUniquePointerInfo@core@5@XZ 10005ff0 f i umodsys_lib_libui:umodsys.mod.ui.frames.obj
 0001:00005000       ?root_get_other_interface@RFrame_Frame@frames@ui@modules@UModSys@@UBEPBUIRoot@core@5@PBUSUniquePointerInfo@75@@Z 10006000 f i umodsys_lib_libui:umodsys.mod.ui.frames.obj
 0001:00005000       ?root_get_other_interface@RFrame_Frame@frames@ui@modules@UModSys@@UAEPAUIRoot@core@5@PBUSUniquePointerInfo@75@@Z 10006000 f i umodsys_lib_libui:umodsys.mod.ui.frames.obj
 0001:00005040       ?root_is_interface_supported@RFrame_Frame@frames@ui@modules@UModSys@@UBE_NPBUSUniquePointerInfo@core@5@@Z 10006040 f i umodsys_lib_libui:umodsys.mod.ui.frames.obj
 0001:00005080       ?ref_add@RFrame_Frame@frames@ui@modules@UModSys@@UBEXXZ 10006080 f i umodsys_lib_libui:umodsys.mod.ui.frames.obj
 0001:00005080       ?ref_add@RFrame_Image@frames@ui@modules@UModSys@@UBEXXZ 10006080 f i umodsys_lib_libui:umodsys.mod.ui.frames.obj
 0001:00005080       ?ref_add@RFrame_Button@frames@ui@modules@UModSys@@UBEXXZ 10006080 f i umodsys_lib_libui:umodsys.mod.ui.frames.obj
 0001:00005090       ?ref_links@RFrame_Image@frames@ui@modules@UModSys@@UBEHXZ 10006090 f i umodsys_lib_libui:umodsys.mod.ui.frames.obj
 0001:00005090       ?ref_links@RFrame_Button@frames@ui@modules@UModSys@@UBEHXZ 10006090 f i umodsys_lib_libui:umodsys.mod.ui.frames.obj
 0001:00005090       ?ref_links@RFrame_Frame@frames@ui@modules@UModSys@@UBEHXZ 10006090 f i umodsys_lib_libui:umodsys.mod.ui.frames.obj
 0001:000050a0       ?get_cids@RFrame_Frame@frames@ui@modules@UModSys@@UAE?AU?$TString@U?$TSCoreConst@D@su@tl@UModSys@@U?$TComparerBinaryHash@D@234@@tl@5@XZ 100060a0 f i umodsys_lib_libui:umodsys.mod.ui.frames.obj
 0001:000050d0       ?get_cidn@RFrame_Frame@frames@ui@modules@UModSys@@UAEHXZ 100060d0 f i umodsys_lib_libui:umodsys.mod.ui.frames.obj
 0001:000050e0       ?root_get_interface_info@RFrame_Image@frames@ui@modules@UModSys@@UBEABUSUniquePointerInfo@core@5@XZ 100060e0 f i umodsys_lib_libui:umodsys.mod.ui.frames.obj
 0001:000050f0       ?root_get_interface_type@RFrame_Image@frames@ui@modules@UModSys@@UBEPBUSUniquePointerInfo@core@5@XZ 100060f0 f i umodsys_lib_libui:umodsys.mod.ui.frames.obj
 0001:00005100       ?root_get_other_interface@RFrame_Image@frames@ui@modules@UModSys@@UAEPAUIRoot@core@5@PBUSUniquePointerInfo@75@@Z 10006100 f i umodsys_lib_libui:umodsys.mod.ui.frames.obj
 0001:00005100       ?root_get_other_interface@RFrame_Image@frames@ui@modules@UModSys@@UBEPBUIRoot@core@5@PBUSUniquePointerInfo@75@@Z 10006100 f i umodsys_lib_libui:umodsys.mod.ui.frames.obj
 0001:00005140       ?root_is_interface_supported@RFrame_Image@frames@ui@modules@UModSys@@UBE_NPBUSUniquePointerInfo@core@5@@Z 10006140 f i umodsys_lib_libui:umodsys.mod.ui.frames.obj
 0001:00005180       ?ref_remove@RFrame_Image@frames@ui@modules@UModSys@@UBEXXZ 10006180 f i umodsys_lib_libui:umodsys.mod.ui.frames.obj
 0001:00005180       ?ref_remove@RFrame_Frame@frames@ui@modules@UModSys@@UBEXXZ 10006180 f i umodsys_lib_libui:umodsys.mod.ui.frames.obj
 0001:00005180       ?ref_remove@RFrame_Button@frames@ui@modules@UModSys@@UBEXXZ 10006180 f i umodsys_lib_libui:umodsys.mod.ui.frames.obj
 0001:000051a0       ?ref_weak@RFrame_Button@frames@ui@modules@UModSys@@UBE_NAAUWeakPointer@IRefObject@core@5@@Z 100061a0 f i umodsys_lib_libui:umodsys.mod.ui.frames.obj
 0001:000051a0       ?ref_weak@RFrame_Frame@frames@ui@modules@UModSys@@UBE_NAAUWeakPointer@IRefObject@core@5@@Z 100061a0 f i umodsys_lib_libui:umodsys.mod.ui.frames.obj
 0001:000051a0       ?ref_weak@RFrame_Image@frames@ui@modules@UModSys@@UBE_NAAUWeakPointer@IRefObject@core@5@@Z 100061a0 f i umodsys_lib_libui:umodsys.mod.ui.frames.obj
 0001:000051d0       ?get_cids@RFrame_Image@frames@ui@modules@UModSys@@UAE?AU?$TString@U?$TSCoreConst@D@su@tl@UModSys@@U?$TComparerBinaryHash@D@234@@tl@5@XZ 100061d0 f i umodsys_lib_libui:umodsys.mod.ui.frames.obj
 0001:00005200       ?get_cidn@RFrame_Image@frames@ui@modules@UModSys@@UAEHXZ 10006200 f i umodsys_lib_libui:umodsys.mod.ui.frames.obj
 0001:00005210       ?root_get_interface_info@RFrame_Text@frames@ui@modules@UModSys@@UBEABUSUniquePointerInfo@core@5@XZ 10006210 f i umodsys_lib_libui:umodsys.mod.ui.frames.obj
 0001:00005220       ?root_get_interface_type@RFrame_Text@frames@ui@modules@UModSys@@UBEPBUSUniquePointerInfo@core@5@XZ 10006220 f i umodsys_lib_libui:umodsys.mod.ui.frames.obj
 0001:00005230       ?root_get_other_interface@RFrame_Text@frames@ui@modules@UModSys@@UAEPAUIRoot@core@5@PBUSUniquePointerInfo@75@@Z 10006230 f i umodsys_lib_libui:umodsys.mod.ui.frames.obj
 0001:00005230       ?root_get_other_interface@RFrame_Text@frames@ui@modules@UModSys@@UBEPBUIRoot@core@5@PBUSUniquePointerInfo@75@@Z 10006230 f i umodsys_lib_libui:umodsys.mod.ui.frames.obj
 0001:00005270       ?root_is_interface_supported@RFrame_Text@frames@ui@modules@UModSys@@UBE_NPBUSUniquePointerInfo@core@5@@Z 10006270 f i umodsys_lib_libui:umodsys.mod.ui.frames.obj
 0001:000052b0       ?ref_remove@RFrame_Text@frames@ui@modules@UModSys@@UBEXXZ 100062b0 f i umodsys_lib_libui:umodsys.mod.ui.frames.obj
 0001:000052b0       ?ref_remove@RFrame_Edit@frames@ui@modules@UModSys@@UBEXXZ 100062b0 f i umodsys_lib_libui:umodsys.mod.ui.frames.obj
 0001:000052d0       ?ref_links@RFrame_Text@frames@ui@modules@UModSys@@UBEHXZ 100062d0 f i umodsys_lib_libui:umodsys.mod.ui.frames.obj
 0001:000052d0       ?ref_links@RFrame_Edit@frames@ui@modules@UModSys@@UBEHXZ 100062d0 f i umodsys_lib_libui:umodsys.mod.ui.frames.obj
 0001:000052e0       ?get_cids@RFrame_Text@frames@ui@modules@UModSys@@UAE?AU?$TString@U?$TSCoreConst@D@su@tl@UModSys@@U?$TComparerBinaryHash@D@234@@tl@5@XZ 100062e0 f i umodsys_lib_libui:umodsys.mod.ui.frames.obj
 0001:000052e0       ?get_cids@RFrame_List@frames@ui@modules@UModSys@@UAE?AU?$TString@U?$TSCoreConst@D@su@tl@UModSys@@U?$TComparerBinaryHash@D@234@@tl@5@XZ 100062e0 f i umodsys_lib_libui:umodsys.mod.ui.frames.obj
 0001:000052e0       ?get_cids@RFrame_Button@frames@ui@modules@UModSys@@UAE?AU?$TString@U?$TSCoreConst@D@su@tl@UModSys@@U?$TComparerBinaryHash@D@234@@tl@5@XZ 100062e0 f i umodsys_lib_libui:umodsys.mod.ui.frames.obj
 0001:00005310       ??_GRFrame_Frame@frames@ui@modules@UModSys@@UAEPAXI@Z 10006310 f i umodsys_lib_libui:umodsys.mod.ui.frames.obj
 0001:00005310       ??_ERFrame_Frame@frames@ui@modules@UModSys@@UAEPAXI@Z 10006310 f i  CIL library: CIL module
 0001:00005330       ??_ERFrame_Text@frames@ui@modules@UModSys@@UAEPAXI@Z 10006330 f i  CIL library: CIL module
 0001:00005330       ??_GRFrame_Text@frames@ui@modules@UModSys@@UAEPAXI@Z 10006330 f i umodsys_lib_libui:umodsys.mod.ui.frames.obj
 0001:00005350       ??_ERFrame_Image@frames@ui@modules@UModSys@@UAEPAXI@Z 10006350 f i  CIL library: CIL module
 0001:00005350       ??_GRFrame_Image@frames@ui@modules@UModSys@@UAEPAXI@Z 10006350 f i umodsys_lib_libui:umodsys.mod.ui.frames.obj
 0001:00005370       ?root_get_interface_info@RFrame_Button@frames@ui@modules@UModSys@@UBEABUSUniquePointerInfo@core@5@XZ 10006370 f i umodsys_lib_libui:umodsys.mod.ui.frames.obj
 0001:00005380       ?root_get_interface_type@RFrame_Button@frames@ui@modules@UModSys@@UBEPBUSUniquePointerInfo@core@5@XZ 10006380 f i umodsys_lib_libui:umodsys.mod.ui.frames.obj
 0001:00005390       ?root_get_other_interface@RFrame_Button@frames@ui@modules@UModSys@@UBEPBUIRoot@core@5@PBUSUniquePointerInfo@75@@Z 10006390 f i umodsys_lib_libui:umodsys.mod.ui.frames.obj
 0001:00005390       ?root_get_other_interface@RFrame_Button@frames@ui@modules@UModSys@@UAEPAUIRoot@core@5@PBUSUniquePointerInfo@75@@Z 10006390 f i umodsys_lib_libui:umodsys.mod.ui.frames.obj
 0001:000053d0       ?root_is_interface_supported@RFrame_Button@frames@ui@modules@UModSys@@UBE_NPBUSUniquePointerInfo@core@5@@Z 100063d0 f i umodsys_lib_libui:umodsys.mod.ui.frames.obj
 0001:00005410       ?suicide@RFrame_Frame@frames@ui@modules@UModSys@@UAEXXZ 10006410 f i umodsys_lib_libui:umodsys.mod.ui.frames.obj
 0001:00005410       ?suicide@RFrame_Image@frames@ui@modules@UModSys@@UAEXXZ 10006410 f i umodsys_lib_libui:umodsys.mod.ui.frames.obj
 0001:00005410       ?suicide@RFrame_Button@frames@ui@modules@UModSys@@UAEXXZ 10006410 f i umodsys_lib_libui:umodsys.mod.ui.frames.obj
 0001:00005420       ??_ERFrame_Button@frames@ui@modules@UModSys@@UAEPAXI@Z 10006420 f i  CIL library: CIL module
 0001:00005420       ??_GRFrame_Button@frames@ui@modules@UModSys@@UAEPAXI@Z 10006420 f i umodsys_lib_libui:umodsys.mod.ui.frames.obj
 0001:00005440       ?root_get_interface_info@RFrame_Edit@frames@ui@modules@UModSys@@UBEABUSUniquePointerInfo@core@5@XZ 10006440 f i umodsys_lib_libui:umodsys.mod.ui.frames.obj
 0001:00005450       ?root_get_interface_type@RFrame_Edit@frames@ui@modules@UModSys@@UBEPBUSUniquePointerInfo@core@5@XZ 10006450 f i umodsys_lib_libui:umodsys.mod.ui.frames.obj
 0001:00005460       ?root_get_other_interface@RFrame_Edit@frames@ui@modules@UModSys@@UBEPBUIRoot@core@5@PBUSUniquePointerInfo@75@@Z 10006460 f i umodsys_lib_libui:umodsys.mod.ui.frames.obj
 0001:00005460       ?root_get_other_interface@RFrame_Edit@frames@ui@modules@UModSys@@UAEPAUIRoot@core@5@PBUSUniquePointerInfo@75@@Z 10006460 f i umodsys_lib_libui:umodsys.mod.ui.frames.obj
 0001:000054a0       ?root_is_interface_supported@RFrame_Edit@frames@ui@modules@UModSys@@UBE_NPBUSUniquePointerInfo@core@5@@Z 100064a0 f i umodsys_lib_libui:umodsys.mod.ui.frames.obj
 0001:000054e0       ?ref_add@RFrame_Edit@frames@ui@modules@UModSys@@UBEXXZ 100064e0 f i umodsys_lib_libui:umodsys.mod.ui.frames.obj
 0001:000054e0       ?ref_add@RFrame_Text@frames@ui@modules@UModSys@@UBEXXZ 100064e0 f i umodsys_lib_libui:umodsys.mod.ui.frames.obj
 0001:000054f0       ?ref_weak@RFrame_Edit@frames@ui@modules@UModSys@@UBE_NAAUWeakPointer@IRefObject@core@5@@Z 100064f0 f i umodsys_lib_libui:umodsys.mod.ui.frames.obj
 0001:000054f0       ?ref_weak@RFrame_Text@frames@ui@modules@UModSys@@UBE_NAAUWeakPointer@IRefObject@core@5@@Z 100064f0 f i umodsys_lib_libui:umodsys.mod.ui.frames.obj
 0001:00005520       ?suicide@RFrame_Edit@frames@ui@modules@UModSys@@UAEXXZ 10006520 f i umodsys_lib_libui:umodsys.mod.ui.frames.obj
 0001:00005520       ?suicide@RFrame_Text@frames@ui@modules@UModSys@@UAEXXZ 10006520 f i umodsys_lib_libui:umodsys.mod.ui.frames.obj
 0001:00005530       ?get_cids@RFrame_Edit@frames@ui@modules@UModSys@@UAE?AU?$TString@U?$TSCoreConst@D@su@tl@UModSys@@U?$TComparerBinaryHash@D@234@@tl@5@XZ 10006530 f i umodsys_lib_libui:umodsys.mod.ui.frames.obj
 0001:00005560       ?get_cidn@RFrame_Edit@frames@ui@modules@UModSys@@UAEHXZ 10006560 f i umodsys_lib_libui:umodsys.mod.ui.frames.obj
 0001:00005570       ?get_ctrlcmd@RFrame_Image@frames@ui@modules@UModSys@@UAEPAUIControllerCommand@libui@5@XZ 10006570 f i umodsys_lib_libui:umodsys.mod.ui.frames.obj
 0001:00005570       ?get_ctrlcmd@RFrame_Edit@frames@ui@modules@UModSys@@UAEPAUIControllerCommand@libui@5@XZ 10006570 f i umodsys_lib_libui:umodsys.mod.ui.frames.obj
 0001:00005570       ?get_ctrldata@RFrame_Edit@frames@ui@modules@UModSys@@UAEPAUIControllerData@libui@5@XZ 10006570 f i umodsys_lib_libui:umodsys.mod.ui.frames.obj
 0001:00005570       ?get_ctrlcmd@RFrame_Text@frames@ui@modules@UModSys@@UAEPAUIControllerCommand@libui@5@XZ 10006570 f i umodsys_lib_libui:umodsys.mod.ui.frames.obj
 0001:00005570       ?get_ctrldata@RFrame_List@frames@ui@modules@UModSys@@UAEPAUIControllerData@libui@5@XZ 10006570 f i umodsys_lib_libui:umodsys.mod.ui.frames.obj
 0001:00005570       ?get_ctrlcmd@RFrame_Frame@frames@ui@modules@UModSys@@UAEPAUIControllerCommand@libui@5@XZ 10006570 f i umodsys_lib_libui:umodsys.mod.ui.frames.obj
 0001:00005570       ?get_up_theme@RCollector@frames@ui@modules@UModSys@@UAEPAUICollectorTheme@libui@5@XZ 10006570 f i umodsys_lib_libui:umodsys.mod.ui.frames.obj
 0001:00005570       ?get_list@RFrame_Button@frames@ui@modules@UModSys@@UAEPAUIFrameList@libui@5@XZ 10006570 f i umodsys_lib_libui:umodsys.mod.ui.frames.obj
 0001:00005570       ?get_ctrldata@RFrame_Button@frames@ui@modules@UModSys@@UAEPAUIControllerData@libui@5@XZ 10006570 f i umodsys_lib_libui:umodsys.mod.ui.frames.obj
 0001:00005570       ?get_layer_count@RMultiImage2D_SDL_ttf@SDL_core@ui@modules@UModSys@@UBEGXZ 10006570 f i umodsys_lib_libui:umodsys.mod.ui.SDL_core.obj
 0001:00005570       ?get_ctrlcmd@RFrame_List@frames@ui@modules@UModSys@@UAEPAUIControllerCommand@libui@5@XZ 10006570 f i umodsys_lib_libui:umodsys.mod.ui.frames.obj
 0001:00005570       ?get_data@RFrame_Image@frames@ui@modules@UModSys@@UAEPAUIFrameData@libui@5@XZ 10006570 f i umodsys_lib_libui:umodsys.mod.ui.frames.obj
 0001:00005570       ?get_list@RFrame_Edit@frames@ui@modules@UModSys@@UAEPAUIFrameList@libui@5@XZ 10006570 f i umodsys_lib_libui:umodsys.mod.ui.frames.obj
 0001:00005570       ?get_data@RFrame_Button@frames@ui@modules@UModSys@@UAEPAUIFrameData@libui@5@XZ 10006570 f i umodsys_lib_libui:umodsys.mod.ui.frames.obj
 0001:00005570       ?get_list@RFrame_Image@frames@ui@modules@UModSys@@UAEPAUIFrameList@libui@5@XZ 10006570 f i umodsys_lib_libui:umodsys.mod.ui.frames.obj
 0001:00005570       ?get_list@RFrame_Text@frames@ui@modules@UModSys@@UAEPAUIFrameList@libui@5@XZ 10006570 f i umodsys_lib_libui:umodsys.mod.ui.frames.obj
 0001:00005570       ?get_cell_count@RMultiImage2D_SDL_ttf@SDL_GL@ui@modules@UModSys@@UBEIXZ 10006570 f i umodsys_lib_libui:umodsys.mod.ui.SDL_GL.obj
 0001:00005570       ?get_list@RFrame_Frame@frames@ui@modules@UModSys@@UAEPAUIFrameList@libui@5@XZ 10006570 f i umodsys_lib_libui:umodsys.mod.ui.frames.obj
 0001:00005570       ?get_layer_count@RMultiImage2D_SDL_ttf@SDL_GL@ui@modules@UModSys@@UBEGXZ 10006570 f i umodsys_lib_libui:umodsys.mod.ui.SDL_GL.obj
 0001:00005570       ?get_ctrldata@RFrame_Text@frames@ui@modules@UModSys@@UAEPAUIControllerData@libui@5@XZ 10006570 f i umodsys_lib_libui:umodsys.mod.ui.frames.obj
 0001:00005570       ?get_ctrlcmd@RFrame_Button@frames@ui@modules@UModSys@@UAEPAUIControllerCommand@libui@5@XZ 10006570 f i umodsys_lib_libui:umodsys.mod.ui.frames.obj
 0001:00005570       ?get_cell_count@RMultiImage2D_SDL_ttf@SDL_core@ui@modules@UModSys@@UBEIXZ 10006570 f i umodsys_lib_libui:umodsys.mod.ui.SDL_core.obj
 0001:00005570       ?get_data@RFrame_Frame@frames@ui@modules@UModSys@@UAEPAUIFrameData@libui@5@XZ 10006570 f i umodsys_lib_libui:umodsys.mod.ui.frames.obj
 0001:00005570       ?get_ctrldata@RFrame_Frame@frames@ui@modules@UModSys@@UAEPAUIControllerData@libui@5@XZ 10006570 f i umodsys_lib_libui:umodsys.mod.ui.frames.obj
 0001:00005570       ?get_ctrldata@RFrame_Image@frames@ui@modules@UModSys@@UAEPAUIControllerData@libui@5@XZ 10006570 f i umodsys_lib_libui:umodsys.mod.ui.frames.obj
 0001:00005580       ??_ERFrame_Edit@frames@ui@modules@UModSys@@UAEPAXI@Z 10006580 f i  CIL library: CIL module
 0001:00005580       ??_GRFrame_Edit@frames@ui@modules@UModSys@@UAEPAXI@Z 10006580 f i umodsys_lib_libui:umodsys.mod.ui.frames.obj
 0001:000055a0       ??1?$TStringBuf@U?$TSCoreShared@USIMemAlloc@core@UModSys@@D@su@tl@UModSys@@U?$TComparerBinaryHash@D@234@@tl@UModSys@@QAE@XZ 100065a0 f i umodsys_lib_libui:umodsys.mod.ui.frames.obj
 0001:000055b0       ?root_get_interface_info@RFrame_List@frames@ui@modules@UModSys@@UBEABUSUniquePointerInfo@core@5@XZ 100065b0 f i umodsys_lib_libui:umodsys.mod.ui.frames.obj
 0001:000055c0       ?root_get_interface_type@RFrame_List@frames@ui@modules@UModSys@@UBEPBUSUniquePointerInfo@core@5@XZ 100065c0 f i umodsys_lib_libui:umodsys.mod.ui.frames.obj
 0001:000055d0       ?root_get_other_interface@RFrame_List@frames@ui@modules@UModSys@@UBEPBUIRoot@core@5@PBUSUniquePointerInfo@75@@Z 100065d0 f i umodsys_lib_libui:umodsys.mod.ui.frames.obj
 0001:000055d0       ?root_get_other_interface@RFrame_List@frames@ui@modules@UModSys@@UAEPAUIRoot@core@5@PBUSUniquePointerInfo@75@@Z 100065d0 f i umodsys_lib_libui:umodsys.mod.ui.frames.obj
 0001:00005610       ?root_is_interface_supported@RFrame_List@frames@ui@modules@UModSys@@UBE_NPBUSUniquePointerInfo@core@5@@Z 10006610 f i umodsys_lib_libui:umodsys.mod.ui.frames.obj
 0001:00005650       ?ref_add@RFrame_List@frames@ui@modules@UModSys@@UBEXXZ 10006650 f i umodsys_lib_libui:umodsys.mod.ui.frames.obj
 0001:00005660       ?ref_remove@RFrame_List@frames@ui@modules@UModSys@@UBEXXZ 10006660 f i umodsys_lib_libui:umodsys.mod.ui.frames.obj
 0001:00005680       ?ref_links@RFrame_List@frames@ui@modules@UModSys@@UBEHXZ 10006680 f i umodsys_lib_libui:umodsys.mod.ui.frames.obj
 0001:00005690       ?ref_weak@RFrame_List@frames@ui@modules@UModSys@@UBE_NAAUWeakPointer@IRefObject@core@5@@Z 10006690 f i umodsys_lib_libui:umodsys.mod.ui.frames.obj
 0001:000056c0       ?suicide@RFrame_List@frames@ui@modules@UModSys@@UAEXXZ 100066c0 f i umodsys_lib_libui:umodsys.mod.ui.frames.obj
 0001:000056d0       ?get_cidn@RFrame_List@frames@ui@modules@UModSys@@UAEHXZ 100066d0 f i umodsys_lib_libui:umodsys.mod.ui.frames.obj
 0001:000056d0       ?get_cidn@RFrame_Button@frames@ui@modules@UModSys@@UAEHXZ 100066d0 f i umodsys_lib_libui:umodsys.mod.ui.frames.obj
 0001:000056d0       ?get_cidn@RFrame_Text@frames@ui@modules@UModSys@@UAEHXZ 100066d0 f i umodsys_lib_libui:umodsys.mod.ui.frames.obj
 0001:000056e0       ?get_data@RFrame_Text@frames@ui@modules@UModSys@@UAEPAUIFrameData@libui@5@XZ 100066e0 f i umodsys_lib_libui:umodsys.mod.ui.frames.obj
 0001:000056e0       ?get_list@RFrame_List@frames@ui@modules@UModSys@@UAEPAUIFrameList@libui@5@XZ 100066e0 f i umodsys_lib_libui:umodsys.mod.ui.frames.obj
 0001:000056e0       ?get_data@RFrame_Edit@frames@ui@modules@UModSys@@UAEPAUIFrameData@libui@5@XZ 100066e0 f i umodsys_lib_libui:umodsys.mod.ui.frames.obj
 0001:000056f0       ?get_data@RFrame_List@frames@ui@modules@UModSys@@UAEPAUIFrameData@libui@5@XZ 100066f0 f i umodsys_lib_libui:umodsys.mod.ui.frames.obj
 0001:00005700       ??_ERFrame_List@frames@ui@modules@UModSys@@UAEPAXI@Z 10006700 f i  CIL library: CIL module
 0001:00005700       ??_GRFrame_List@frames@ui@modules@UModSys@@UAEPAXI@Z 10006700 f i umodsys_lib_libui:umodsys.mod.ui.frames.obj
 0001:00005720       ?root_get_interface_info@RCollector@frames@ui@modules@UModSys@@UBEABUSUniquePointerInfo@core@5@XZ 10006720 f i umodsys_lib_libui:umodsys.mod.ui.frames.obj
 0001:00005730       ?root_get_interface_type@RCollector@frames@ui@modules@UModSys@@UBEPBUSUniquePointerInfo@core@5@XZ 10006730 f i umodsys_lib_libui:umodsys.mod.ui.frames.obj
 0001:00005740       ?root_get_other_interface@RCollector@frames@ui@modules@UModSys@@UBEPBUIRoot@core@5@PBUSUniquePointerInfo@75@@Z 10006740 f i umodsys_lib_libui:umodsys.mod.ui.frames.obj
 0001:00005740       ?root_get_other_interface@RCollector@frames@ui@modules@UModSys@@UAEPAUIRoot@core@5@PBUSUniquePointerInfo@75@@Z 10006740 f i umodsys_lib_libui:umodsys.mod.ui.frames.obj
 0001:00005770       ?root_is_interface_supported@RCollector@frames@ui@modules@UModSys@@UBE_NPBUSUniquePointerInfo@core@5@@Z 10006770 f i umodsys_lib_libui:umodsys.mod.ui.frames.obj
 0001:000057b0       ?ref_add@RCollector@frames@ui@modules@UModSys@@UBEXXZ 100067b0 f i umodsys_lib_libui:umodsys.mod.ui.frames.obj
 0001:000057c0       ?ref_remove@RCollector@frames@ui@modules@UModSys@@UBEXXZ 100067c0 f i umodsys_lib_libui:umodsys.mod.ui.frames.obj
 0001:000057d0       ?ref_links@RCollector@frames@ui@modules@UModSys@@UBEHXZ 100067d0 f i umodsys_lib_libui:umodsys.mod.ui.frames.obj
 0001:000057e0       ?ref_weak@RCollector@frames@ui@modules@UModSys@@UBE_NAAUWeakPointer@IRefObject@core@5@@Z 100067e0 f i umodsys_lib_libui:umodsys.mod.ui.frames.obj
 0001:00005800       ?suicide@RCollector@frames@ui@modules@UModSys@@UAEXXZ 10006800 f i umodsys_lib_libui:umodsys.mod.ui.frames.obj
 0001:00005810       ?broadcast@RCollector@frames@ui@modules@UModSys@@UAEHHABUSFrameDataIn@libui@5@H@Z 10006810 f i umodsys_lib_libui:umodsys.mod.ui.frames.obj
 0001:00005830       ?get_box@RFrame_Common@frames@ui@modules@UModSys@@UAEABU?$TBoundBox2@H@math3d@5@XZ 10006830 f i umodsys_lib_libui:umodsys.mod.ui.frames.obj
 0001:00005830       ?get_theme@RCollector@frames@ui@modules@UModSys@@UAEPAUICollectorTheme@libui@5@XZ 10006830 f i umodsys_lib_libui:umodsys.mod.ui.frames.obj
 0001:00005840       ??_GRCollector@frames@ui@modules@UModSys@@UAEPAXI@Z 10006840 f i umodsys_lib_libui:umodsys.mod.ui.frames.obj
 0001:00005840       ??_ERCollector@frames@ui@modules@UModSys@@UAEPAXI@Z 10006840 f i  CIL library: CIL module
 0001:00005860       ?get_up_theme@RFrame_Common@frames@ui@modules@UModSys@@UAEPAUICollectorTheme@libui@5@XZ 10006860 f i umodsys_lib_libui:umodsys.mod.ui.frames.obj
 0001:00005880       ?draw_button@SButton@frames@ui@modules@UModSys@@QAE_NABUSDrawState@2345@HH@Z 10006880 f i umodsys_lib_libui:umodsys.mod.ui.frames.obj
 0001:000058f0       ?draw_text@SButton@frames@ui@modules@UModSys@@QAE_NABUSDrawState@2345@ABU?$TString@U?$TSCoreConst@D@su@tl@UModSys@@U?$TComparerBinaryHash@D@234@@tl@5@HH@Z 100068f0 f i umodsys_lib_libui:umodsys.mod.ui.frames.obj
 0001:00005a00       ?get_generated_names@RGenerator@frames@ui@modules@UModSys@@UBEHAAUSUniquePtrList@core@5@@Z 10006a00 f i umodsys_lib_libui:umodsys.mod.ui.frames.obj
 0001:00005a20       ?get_generated_types@RGenerator@frames@ui@modules@UModSys@@UBEHAAUSUniquePtrList@core@5@PBUSUniquePointerInfo@75@@Z 10006a20 f i umodsys_lib_libui:umodsys.mod.ui.frames.obj
 0001:00005a70       ?generate@RGenerator@frames@ui@modules@UModSys@@UAE_NAAU?$TRefObject@UIRefObject@core@UModSys@@U?$TRefObjectFunc@UIRefObject@core@UModSys@@@tl@3@@tl@5@PBUSUniquePointerInfo@core@5@ABUSParameters@95@@Z 10006a70 f i umodsys_lib_libui:umodsys.mod.ui.frames.obj
 0001:00005aa0       ?root_get_interface_info@RGenerator@frames@ui@modules@UModSys@@UBEABUSUniquePointerInfo@core@5@XZ 10006aa0 f i umodsys_lib_libui:umodsys.mod.ui.frames.obj
 0001:00005ab0       ?root_get_interface_type@RGenerator@frames@ui@modules@UModSys@@UBEPBUSUniquePointerInfo@core@5@XZ 10006ab0 f i umodsys_lib_libui:umodsys.mod.ui.frames.obj
 0001:00005ac0       ?root_get_other_interface@RGenerator@frames@ui@modules@UModSys@@UBEPBUIRoot@core@5@PBUSUniquePointerInfo@75@@Z 10006ac0 f i umodsys_lib_libui:umodsys.mod.ui.frames.obj
 0001:00005ac0       ?root_get_other_interface@RGenerator@frames@ui@modules@UModSys@@UAEPAUIRoot@core@5@PBUSUniquePointerInfo@75@@Z 10006ac0 f i umodsys_lib_libui:umodsys.mod.ui.frames.obj
 0001:00005b00       ?root_is_interface_supported@RGenerator@frames@ui@modules@UModSys@@UBE_NPBUSUniquePointerInfo@core@5@@Z 10006b00 f i umodsys_lib_libui:umodsys.mod.ui.frames.obj
 0001:00005b40       ?get_uid@RGenerator@frames@ui@modules@UModSys@@UBEPBUSUniquePointerInfo@core@5@XZ 10006b40 f i umodsys_lib_libui:umodsys.mod.ui.frames.obj
 0001:00005b50       ?do_open@RModuleReg@frames@ui@modules@UModSys@@UAE_NXZ 10006b50 f i umodsys_lib_libui:umodsys.mod.ui.frames.obj
 0001:00005b60       ?do_close@RModuleReg@frames@ui@modules@UModSys@@UAE_NXZ 10006b60 f i umodsys_lib_libui:umodsys.mod.ui.frames.obj
 0001:00005b70       ??_GRModuleReg@frames@ui@modules@UModSys@@UAEPAXI@Z 10006b70 f i umodsys_lib_libui:umodsys.mod.ui.frames.obj
 0001:00005b70       ??_ERModuleReg@frames@ui@modules@UModSys@@UAEPAXI@Z 10006b70 f i  CIL library: CIL module
 0001:00005ba0       ?set_length@?$TStringBuf@U?$TSCoreShared@USIMemAlloc@core@UModSys@@D@su@tl@UModSys@@U?$TComparerBinaryHash@D@234@@tl@UModSys@@QAEXI@Z 10006ba0 f i umodsys_lib_libui:umodsys.mod.ui.frames.obj
 0001:00005c00       ??1?$TRefObjectCompositeExtra@UIMouseClient@libui@UModSys@@HUIRefObject@core@3@U?$TRefObjectFunc@UIRefObject@core@UModSys@@@tl@3@@tl@UModSys@@QAE@XZ 10006c00 f i umodsys_lib_libui:umodsys.mod.ui.SDL_GL.obj
 0001:00005c00       ??1?$TRefObjectComposite@UIController@libui@UModSys@@UIRefObject@core@3@U?$TRefObjectFunc@UIRefObject@core@UModSys@@@tl@3@@tl@UModSys@@QAE@XZ 10006c00 f i umodsys_lib_libui:umodsys.mod.ui.frames.obj
 0001:00005c00       ??1?$TRefObjectComposite@UIKeyboardClient@libui@UModSys@@UIRefObject@core@3@U?$TRefObjectFunc@UIRefObject@core@UModSys@@@tl@3@@tl@UModSys@@QAE@XZ 10006c00 f i umodsys_lib_libui:umodsys.mod.ui.SDL_GL.obj
 0001:00005c70       ??1?$TScatterArray@U?$TVector4@M@math3d@UModSys@@HU?$TScalarCompare@H@core@3@U?$TNodeDeleter0@U?$TScatterArrayNode@U?$TVector4@M@math3d@UModSys@@H@tl@UModSys@@@tl@3@@tl@UModSys@@QAE@XZ 10006c70 f i umodsys_lib_libui:umodsys.mod.ui.frames.obj
 0001:00005c70       ??1?$TScatterArray@U?$TVector2@M@math3d@UModSys@@HU?$TScalarCompare@H@core@3@U?$TNodeDeleter0@U?$TScatterArrayNode@U?$TVector2@M@math3d@UModSys@@H@tl@UModSys@@@tl@3@@tl@UModSys@@QAE@XZ 10006c70 f i umodsys_lib_libui:umodsys.mod.ui.frames.obj
 0001:00005cc0       ??1?$TDynarrayDynamic@U?$TRefObject@URDialog@frames@ui@modules@UModSys@@U?$TRefObjectFunc@URDialog@frames@ui@modules@UModSys@@@tl@5@@tl@UModSys@@U?$TAllocator@USIMemAlloc@core@UModSys@@USCountCalcPower2@23@@23@@tl@UModSys@@QAE@XZ 10006cc0 f i umodsys_lib_libui:umodsys.mod.ui.frames.obj
 0001:00005cc0       ??1?$TDynarrayDynamic@U?$TRefObject@URFrame_Common@frames@ui@modules@UModSys@@U?$TRefObjectFunc@URFrame_Common@frames@ui@modules@UModSys@@@tl@5@@tl@UModSys@@U?$TAllocator@USIMemAlloc@core@UModSys@@USCountCalcPower2@23@@23@@tl@UModSys@@QAE@XZ 10006cc0 f i umodsys_lib_libui:umodsys.mod.ui.frames.obj
 0001:00005d10       ??1?$TRefObject@UIImageFactory@lib2d@UModSys@@U?$TRefObjectFunc@UIImageFactory@lib2d@UModSys@@@tl@3@@tl@UModSys@@QAE@XZ 10006d10 f i plugin_test1.obj
 0001:00005d10       ??1?$TRefObject@UIMouseController@libui@UModSys@@U?$TRefObjectFunc@UIMouseController@libui@UModSys@@@tl@3@@tl@UModSys@@QAE@XZ 10006d10 f i plugin_test1.obj
 0001:00005d10       ??1?$TRefObject@URRenderDriver2D@SDL_core@ui@modules@UModSys@@U?$TRefObjectFunc@URRenderDriver2D@SDL_core@ui@modules@UModSys@@@tl@5@@tl@UModSys@@QAE@XZ 10006d10 f i umodsys_lib_libui:umodsys.mod.ui.SDL_core.obj
 0001:00005d10       ??1?$TRefObject@URBinArchiveFrameClient_ZIP@zlib@media@modules@UModSys@@U?$TRefObjectFunc@URBinArchiveFrameClient_ZIP@zlib@media@modules@UModSys@@@tl@5@@tl@UModSys@@QAE@XZ 10006d10 f i umodsys_lib_libmedia:umodsys.mod.media.zlib.obj
 0001:00005d10       ??1?$TRefObject@URTerminalX@SDL_core@ui@modules@UModSys@@U?$TRefObjectFunc@URTerminalX@SDL_core@ui@modules@UModSys@@@tl@5@@tl@UModSys@@QAE@XZ 10006d10 f i umodsys_lib_libui:umodsys.mod.ui.SDL_core.obj
 0001:00005d10       ??1?$TRefObject@UIMultiImage@lib2d@UModSys@@U?$TRefObjectFunc@UIMultiImage@lib2d@UModSys@@@tl@3@@tl@UModSys@@QAE@XZ 10006d10 f i plugin_test1.obj
 0001:00005d10       ??1?$TRefObject@UIUtilities@libmedia@UModSys@@U?$TRefObjectFunc@UIUtilities@libmedia@UModSys@@@tl@3@@tl@UModSys@@QAE@XZ 10006d10 f i plugin_test1.obj
 0001:00005d10       ??1?$TRefObject@UICollector@libui@UModSys@@U?$TRefObjectFunc@UICollector@libui@UModSys@@@tl@3@@tl@UModSys@@QAE@XZ 10006d10 f i plugin_test1.obj
 0001:00005d10       ??1?$TRefObject@URVertexArray@SDL_GL@ui@modules@UModSys@@U?$TRefObjectFunc@URVertexArray@SDL_GL@ui@modules@UModSys@@@tl@5@@tl@UModSys@@QAE@XZ 10006d10 f i umodsys_lib_libui:umodsys.mod.ui.SDL_GL.obj
 0001:00005d10       ??1?$TRefObject@UIImage@lib2d@UModSys@@U?$TRefObjectFunc@UIImage@lib2d@UModSys@@@tl@3@@tl@UModSys@@QAE@XZ 10006d10 f i plugin_test1.obj
 0001:00005d10       ??1?$TRefObject@URTerminalX@SDL_GL@ui@modules@UModSys@@U?$TRefObjectFunc@URTerminalX@SDL_GL@ui@modules@UModSys@@@tl@5@@tl@UModSys@@QAE@XZ 10006d10 f i umodsys_lib_libui:umodsys.mod.ui.SDL_GL.obj
 0001:00005d10       ??1?$TRefObject@URMultiImage2D_SDL_ttf@SDL_GL@ui@modules@UModSys@@U?$TRefObjectFunc@URMultiImage2D_SDL_ttf@SDL_GL@ui@modules@UModSys@@@tl@5@@tl@UModSys@@QAE@XZ 10006d10 f i umodsys_lib_libui:umodsys.mod.ui.SDL_GL.obj
 0001:00005d10       ??1?$TRefObject@UIStreamWriter@libmedia@UModSys@@U?$TRefObjectFunc@UIStreamWriter@libmedia@UModSys@@@tl@3@@tl@UModSys@@QAE@XZ 10006d10 f i plugin_test1.obj
 0001:00005d10       ??1?$TRefObject@UIKeyboardController@libui@UModSys@@U?$TRefObjectFunc@UIKeyboardController@libui@UModSys@@@tl@3@@tl@UModSys@@QAE@XZ 10006d10 f i plugin_test1.obj
 0001:00005d10       ??1?$TRefObject@UIVertexArray@lib3d@UModSys@@U?$TRefObjectFunc@UIVertexArray@lib3d@UModSys@@@tl@3@@tl@UModSys@@QAE@XZ 10006d10 f i plugin_test1.obj
 0001:00005d10       ??1?$TRefObject@URImageFactory_Memory@stdlib@lib2d@modules@UModSys@@U?$TRefObjectFunc@URImageFactory_Memory@stdlib@lib2d@modules@UModSys@@@tl@5@@tl@UModSys@@QAE@XZ 10006d10 f i umodsys_lib_lib2d:umodsys.mod.2d.stdlib.obj
 0001:00005d10       ??1?$TRefObject@UITerminal@libui@UModSys@@U?$TRefObjectFunc@UITerminal@libui@UModSys@@@tl@3@@tl@UModSys@@QAE@XZ 10006d10 f i plugin_test1.obj
 0001:00005d10       ??1?$TRefObject@URCollector@frames@ui@modules@UModSys@@U?$TRefObjectFunc@URCollector@frames@ui@modules@UModSys@@@tl@5@@tl@UModSys@@QAE@XZ 10006d10 f i umodsys_lib_libui:umodsys.mod.ui.frames.obj
 0001:00005d10       ??1?$TRefObject@URMultiImage@stdlib@lib2d@modules@UModSys@@U?$TRefObjectFunc@URMultiImage@stdlib@lib2d@modules@UModSys@@@tl@5@@tl@UModSys@@QAE@XZ 10006d10 f i umodsys_lib_lib2d:umodsys.mod.2d.stdlib.obj
 0001:00005d10       ??1?$TRefObject@UIRenderDriver@lib2d@UModSys@@U?$TRefObjectFunc@UIRenderDriver@lib2d@UModSys@@@tl@3@@tl@UModSys@@QAE@XZ 10006d10 f i plugin_test1.obj
 0001:00005d10       ??1?$TRefObject@UIFrame@libui@UModSys@@U?$TRefObjectFunc@UIFrame@libui@UModSys@@@tl@3@@tl@UModSys@@QAE@XZ 10006d10 f i umodsys_lib_libui:umodsys.mod.ui.frames.obj
 0001:00005d10       ??1?$TRefObject@UIRenderDriver@lib3d@UModSys@@U?$TRefObjectFunc@UIRenderDriver@lib3d@UModSys@@@tl@3@@tl@UModSys@@QAE@XZ 10006d10 f i plugin_test1.obj
 0001:00005d10       ??1?$TRefObject@UIStreamReader@libmedia@UModSys@@U?$TRefObjectFunc@UIStreamReader@libmedia@UModSys@@@tl@3@@tl@UModSys@@QAE@XZ 10006d10 f i plugin_test1.obj
 0001:00005d10       ??1?$TRefObject@URFrame_Common@frames@ui@modules@UModSys@@U?$TRefObjectFunc@URFrame_Common@frames@ui@modules@UModSys@@@tl@5@@tl@UModSys@@QAE@XZ 10006d10 f i umodsys_lib_libui:umodsys.mod.ui.frames.obj
 0001:00005d10       ??1?$TRefObject@UIRefObject@core@UModSys@@U?$TRefObjectFunc@UIRefObject@core@UModSys@@@tl@3@@tl@UModSys@@QAE@XZ 10006d10 f i plugin_test1.obj
 0001:00005d10       ??1?$TRefObject@URSerializeReader@serialize_json@media@modules@UModSys@@U?$TRefObjectFunc@URSerializeReader@serialize_json@media@modules@UModSys@@@tl@5@@tl@UModSys@@QAE@XZ 10006d10 f i umodsys_lib_libmedia:umodsys.mod.media.serialize_json.obj
 0001:00005d10       ??1?$TRefObject@URDialog@frames@ui@modules@UModSys@@U?$TRefObjectFunc@URDialog@frames@ui@modules@UModSys@@@tl@5@@tl@UModSys@@QAE@XZ 10006d10 f i umodsys_lib_libui:umodsys.mod.ui.frames.obj
 0001:00005d10       ??1?$TRefObject@URMediaFilter@images_std@media@modules@UModSys@@U?$TRefObjectFunc@URMediaFilter@images_std@media@modules@UModSys@@@tl@5@@tl@UModSys@@QAE@XZ 10006d10 f i umodsys_lib_libmedia:umodsys.mod.media.images_std.obj
 0001:00005d10       ??1?$TRefObject@URSerializeWriter@serialize_json@media@modules@UModSys@@U?$TRefObjectFunc@URSerializeWriter@serialize_json@media@modules@UModSys@@@tl@5@@tl@UModSys@@QAE@XZ 10006d10 f i umodsys_lib_libmedia:umodsys.mod.media.serialize_json.obj
 0001:00005d10       ??1?$TRefObject@URRenderDriver3D@SDL_GL@ui@modules@UModSys@@U?$TRefObjectFunc@URRenderDriver3D@SDL_GL@ui@modules@UModSys@@@tl@5@@tl@UModSys@@QAE@XZ 10006d10 f i umodsys_lib_libui:umodsys.mod.ui.SDL_GL.obj
 0001:00005d10       ??1?$TRefObject@URMultiImage2D_SDL_ttf@SDL_core@ui@modules@UModSys@@U?$TRefObjectFunc@URMultiImage2D_SDL_ttf@SDL_core@ui@modules@UModSys@@@tl@5@@tl@UModSys@@QAE@XZ 10006d10 f i umodsys_lib_libui:umodsys.mod.ui.SDL_core.obj
 0001:00005d10       ??1?$TRefObject@URImage_Memory@stdlib@lib2d@modules@UModSys@@U?$TRefObjectFunc@URImage_Memory@stdlib@lib2d@modules@UModSys@@@tl@5@@tl@UModSys@@QAE@XZ 10006d10 f i umodsys_lib_lib2d:umodsys.mod.2d.stdlib.obj
 0001:00005d30       ??_GRGenerator@test1@test@modules@UModSys@@UAEPAXI@Z 10006d30 f i plugin_test1.obj
 0001:00005d30       ??_GRGenerator@SDL_GL@ui@modules@UModSys@@UAEPAXI@Z 10006d30 f i umodsys_lib_libui:umodsys.mod.ui.SDL_GL.obj
 0001:00005d30       ??_ERGenerator@SDL_core@ui@modules@UModSys@@UAEPAXI@Z 10006d30 f i  CIL library: CIL module
 0001:00005d30       ??_EIRefObject@core@UModSys@@UAEPAXI@Z 10006d30 f i  CIL library: CIL module
 0001:00005d30       ??_ERGenerator@SDL_GL@ui@modules@UModSys@@UAEPAXI@Z 10006d30 f i  CIL library: CIL module
 0001:00005d30       ??_ERGenerator@test1@test@modules@UModSys@@UAEPAXI@Z 10006d30 f i  CIL library: CIL module
 0001:00005d30       ??_ERGenerator@zlib@media@modules@UModSys@@UAEPAXI@Z 10006d30 f i  CIL library: CIL module
 0001:00005d30       ??_ERGenerator@stdlib@lib2d@modules@UModSys@@UAEPAXI@Z 10006d30 f i  CIL library: CIL module
 0001:00005d30       ??_ERGenerator@images_std@media@modules@UModSys@@UAEPAXI@Z 10006d30 f i  CIL library: CIL module
 0001:00005d30       ??_GRGenerator@zlib@media@modules@UModSys@@UAEPAXI@Z 10006d30 f i umodsys_lib_libmedia:umodsys.mod.media.zlib.obj
 0001:00005d30       ??_GRGenerator@stdlib@lib2d@modules@UModSys@@UAEPAXI@Z 10006d30 f i umodsys_lib_lib2d:umodsys.mod.2d.stdlib.obj
 0001:00005d30       ??_ERGenerator@frames@ui@modules@UModSys@@UAEPAXI@Z 10006d30 f i  CIL library: CIL module
 0001:00005d30       ??_GRGenerator@SDL_core@ui@modules@UModSys@@UAEPAXI@Z 10006d30 f i umodsys_lib_libui:umodsys.mod.ui.SDL_core.obj
 0001:00005d30       ??_GRGenerator@images_std@media@modules@UModSys@@UAEPAXI@Z 10006d30 f i umodsys_lib_libmedia:umodsys.mod.media.images_std.obj
 0001:00005d30       ??_GRGenerator@frames@ui@modules@UModSys@@UAEPAXI@Z 10006d30 f i umodsys_lib_libui:umodsys.mod.ui.frames.obj
 0001:00005d30       ??_GRGenerator@serialize_json@media@modules@UModSys@@UAEPAXI@Z 10006d30 f i umodsys_lib_libmedia:umodsys.mod.media.serialize_json.obj
 0001:00005d30       ??_GIRefObject@core@UModSys@@UAEPAXI@Z 10006d30 f i plugin_test1.obj
 0001:00005d30       ??_ERGenerator@serialize_json@media@modules@UModSys@@UAEPAXI@Z 10006d30 f i  CIL library: CIL module
 0001:00005d50       ?info_alloc@?$TSCoreShared@USIMemAlloc@core@UModSys@@D@su@tl@UModSys@@QAE_NI@Z 10006d50 f i umodsys_lib_libui:umodsys.mod.ui.frames.obj
 0001:00005dc0       ??$t_get@U?$TScatterArray@U?$TVector4@M@math3d@UModSys@@HU?$TScalarCompare@H@core@3@U?$TNodeDeleter0@U?$TScatterArrayNode@U?$TVector4@M@math3d@UModSys@@H@tl@UModSys@@@tl@3@@tl@UModSys@@U?$TVector4@M@math3d@3@@ICollectorThemeTemplate@libui@UModSys@@IBE_NABU?$TScatterArray@U?$TVector4@M@math3d@UModSys@@HU?$TScalarCompare@H@core@3@U?$TNodeDeleter0@U?$TScatterArrayNode@U?$TVector4@M@math3d@UModSys@@H@tl@UModSys@@@tl@3@@tl@2@HHAAU?$TVector4@M@math3d@2@@Z 10006dc0 f i umodsys_lib_libui:umodsys.mod.ui.frames.obj
 0001:00005e30       ??$t_get@U?$TScatterArray@U?$TVector4@M@math3d@UModSys@@HU?$TScalarCompare@H@core@3@U?$TNodeDeleter0@U?$TScatterArrayNode@U?$TVector4@M@math3d@UModSys@@H@tl@UModSys@@@tl@3@@tl@UModSys@@U?$TVector4@H@math3d@3@@ICollectorThemeTemplate@libui@UModSys@@IBE_NABU?$TScatterArray@U?$TVector4@M@math3d@UModSys@@HU?$TScalarCompare@H@core@3@U?$TNodeDeleter0@U?$TScatterArrayNode@U?$TVector4@M@math3d@UModSys@@H@tl@UModSys@@@tl@3@@tl@2@HHAAU?$TVector4@H@math3d@2@@Z 10006e30 f i umodsys_lib_libui:umodsys.mod.ui.frames.obj
 0001:00005ef0       ??$t_get@U?$TScatterArray@U?$TVector2@M@math3d@UModSys@@HU?$TScalarCompare@H@core@3@U?$TNodeDeleter0@U?$TScatterArrayNode@U?$TVector2@M@math3d@UModSys@@H@tl@UModSys@@@tl@3@@tl@UModSys@@U?$TVector2@M@math3d@3@@ICollectorThemeTemplate@libui@UModSys@@IBE_NABU?$TScatterArray@U?$TVector2@M@math3d@UModSys@@HU?$TScalarCompare@H@core@3@U?$TNodeDeleter0@U?$TScatterArrayNode@U?$TVector2@M@math3d@UModSys@@H@tl@UModSys@@@tl@3@@tl@2@HHAAU?$TVector2@M@math3d@2@@Z 10006ef0 f i umodsys_lib_libui:umodsys.mod.ui.frames.obj
 0001:00005f50       ??$t_get@U?$TScatterArray@U?$TVector2@M@math3d@UModSys@@HU?$TScalarCompare@H@core@3@U?$TNodeDeleter0@U?$TScatterArrayNode@U?$TVector2@M@math3d@UModSys@@H@tl@UModSys@@@tl@3@@tl@UModSys@@U?$TVector2@H@math3d@3@@ICollectorThemeTemplate@libui@UModSys@@IBE_NABU?$TScatterArray@U?$TVector2@M@math3d@UModSys@@HU?$TScalarCompare@H@core@3@U?$TNodeDeleter0@U?$TScatterArrayNode@U?$TVector2@M@math3d@UModSys@@H@tl@UModSys@@@tl@3@@tl@2@HHAAU?$TVector2@H@math3d@2@@Z 10006f50 f i umodsys_lib_libui:umodsys.mod.ui.frames.obj
 0001:00005fd0       ??$t_get@U?$TScatterArray@HHU?$TScalarCompare@H@core@UModSys@@U?$TNodeDeleter0@U?$TScatterArrayNode@HH@tl@UModSys@@@tl@3@@tl@UModSys@@H@ICollectorThemeTemplate@libui@UModSys@@IBE_NABU?$TScatterArray@HHU?$TScalarCompare@H@core@UModSys@@U?$TNodeDeleter0@U?$TScatterArrayNode@HH@tl@UModSys@@@tl@3@@tl@2@HHAAH@Z 10006fd0 f i umodsys_lib_libui:umodsys.mod.ui.frames.obj
 0001:00006030       ??$t_set@U?$TScatterArray@U?$TVector4@M@math3d@UModSys@@HU?$TScalarCompare@H@core@3@U?$TNodeDeleter0@U?$TScatterArrayNode@U?$TVector4@M@math3d@UModSys@@H@tl@UModSys@@@tl@3@@tl@UModSys@@U?$TVector4@H@math3d@3@@ICollectorThemeTemplate@libui@UModSys@@IAE_NAAU?$TScatterArray@U?$TVector4@M@math3d@UModSys@@HU?$TScalarCompare@H@core@3@U?$TNodeDeleter0@U?$TScatterArrayNode@U?$TVector4@M@math3d@UModSys@@H@tl@UModSys@@@tl@3@@tl@2@HHABU?$TVector4@H@math3d@2@@Z 10007030 f i umodsys_lib_libui:umodsys.mod.ui.frames.obj
 0001:000060b0       ?ResizeRel@?$TDynarray@U?$TDynarrayHolderDynamic@U?$TRefObject@URFrame_Common@frames@ui@modules@UModSys@@U?$TRefObjectFunc@URFrame_Common@frames@ui@modules@UModSys@@@tl@5@@tl@UModSys@@U?$TAllocator@USIMemAlloc@core@UModSys@@USCountCalcPower2@23@@23@@tl@UModSys@@@tl@UModSys@@QAE_NH@Z 100070b0 f i umodsys_lib_libui:umodsys.mod.ui.frames.obj
 0001:000060b0       ?ResizeRel@?$TDynarray@U?$TDynarrayHolderDynamic@U?$TRefObject@URDialog@frames@ui@modules@UModSys@@U?$TRefObjectFunc@URDialog@frames@ui@modules@UModSys@@@tl@5@@tl@UModSys@@U?$TAllocator@USIMemAlloc@core@UModSys@@USCountCalcPower2@23@@23@@tl@UModSys@@@tl@UModSys@@QAE_NH@Z 100070b0 f i umodsys_lib_libui:umodsys.mod.ui.frames.obj
 0001:00006120       ??$?4U?$TSCoreConst@D@su@tl@UModSys@@U?$TComparerBinaryHash@D@123@@?$TString@U?$TSCoreShared@USIMemAlloc@core@UModSys@@D@su@tl@UModSys@@U?$TComparerBinaryHash@D@234@@tl@UModSys@@QAEXABU?$TString@U?$TSCoreConst@D@su@tl@UModSys@@U?$TComparerBinaryHash@D@234@@12@@Z 10007120 f i umodsys_lib_libui:umodsys.mod.ui.frames.obj
 0001:00006150       ??$smemmove@H@su@tl@UModSys@@YAXPAHPBHI@Z 10007150 f i umodsys_lib_libui:umodsys.mod.ui.frames.obj
 0001:00006170       ?obj_delete@?$TRefObjectLinksParent@URFrame_Image@frames@ui@modules@UModSys@@URCollector@2345@@tl@UModSys@@QBEXPAURFrame_Image@frames@ui@modules@3@@Z 10007170 f i umodsys_lib_libui:umodsys.mod.ui.frames.obj
 0001:00006170       ?obj_delete@?$TRefObjectLinksParent@URDialog@frames@ui@modules@UModSys@@URCollector@2345@@tl@UModSys@@QBEXPAURDialog@frames@ui@modules@3@@Z 10007170 f i umodsys_lib_libui:umodsys.mod.ui.frames.obj
 0001:00006170       ?obj_delete@?$TRefObjectLinksParent@URVertexArray@SDL_GL@ui@modules@UModSys@@URRenderDriver3D@2345@@tl@UModSys@@QBEXPAURVertexArray@SDL_GL@ui@modules@3@@Z 10007170 f i umodsys_lib_libui:umodsys.mod.ui.SDL_GL.obj
 0001:00006170       ?obj_delete@?$TRefObjectLinksParent@URFrame_Text@frames@ui@modules@UModSys@@URCollector@2345@@tl@UModSys@@QBEXPAURFrame_Text@frames@ui@modules@3@@Z 10007170 f i umodsys_lib_libui:umodsys.mod.ui.frames.obj
 0001:00006170       ?obj_delete@?$TRefObjectLinksParent@URFrame_Frame@frames@ui@modules@UModSys@@URCollector@2345@@tl@UModSys@@QBEXPAURFrame_Frame@frames@ui@modules@3@@Z 10007170 f i umodsys_lib_libui:umodsys.mod.ui.frames.obj
 0001:00006170       ?obj_delete@?$TRefObjectLinksParent@URFrame_List@frames@ui@modules@UModSys@@URCollector@2345@@tl@UModSys@@QBEXPAURFrame_List@frames@ui@modules@3@@Z 10007170 f i umodsys_lib_libui:umodsys.mod.ui.frames.obj
 0001:00006170       ?obj_delete@?$TRefObjectLinksParent@URFrame_Edit@frames@ui@modules@UModSys@@URCollector@2345@@tl@UModSys@@QBEXPAURFrame_Edit@frames@ui@modules@3@@Z 10007170 f i umodsys_lib_libui:umodsys.mod.ui.frames.obj
 0001:00006170       ?obj_delete@?$TRefObjectLinksParent@URFrame_Button@frames@ui@modules@UModSys@@URCollector@2345@@tl@UModSys@@QBEXPAURFrame_Button@frames@ui@modules@3@@Z 10007170 f i umodsys_lib_libui:umodsys.mod.ui.frames.obj
 0001:00006170       ?obj_delete@?$TRefObjectLinksParent@URMultiImage2D_SDL_ttf@SDL_core@ui@modules@UModSys@@URRenderDriver2D@2345@@tl@UModSys@@QBEXPAURMultiImage2D_SDL_ttf@SDL_core@ui@modules@3@@Z 10007170 f i umodsys_lib_libui:umodsys.mod.ui.SDL_core.obj
 0001:00006170       ?obj_delete@?$TRefObjectLinksParent@URMultiImage2D_SDL_ttf@SDL_GL@ui@modules@UModSys@@URRenderDriver3D@2345@@tl@UModSys@@QBEXPAURMultiImage2D_SDL_ttf@SDL_GL@ui@modules@3@@Z 10007170 f i umodsys_lib_libui:umodsys.mod.ui.SDL_GL.obj
 0001:000061e0       ?ResizeRel@?$TDynarray@U?$TDynarrayHolderDynamic@UListItem@RFrame_List@frames@ui@modules@UModSys@@U?$TAllocator@USIMemAlloc@core@UModSys@@USCountCalcPower2@23@@tl@6@@tl@UModSys@@@tl@UModSys@@QAE_NH@Z 100071e0 f i umodsys_lib_libui:umodsys.mod.ui.frames.obj
 0001:00006270       ??$t_gen_param@URCollector@frames@ui@modules@UModSys@@URGenerator@2345@@IGenerator@base@UModSys@@IAE_NPAURGenerator@frames@ui@modules@2@AAU?$TRefObject@UIRefObject@core@UModSys@@U?$TRefObjectFunc@UIRefObject@core@UModSys@@@tl@3@@tl@2@PBUSUniquePointerInfo@core@2@ABUSParameters@core@2@@Z 10007270 f i umodsys_lib_libui:umodsys.mod.ui.frames.obj
 0001:000062f0       ?ReLink@?$TDynarray@U?$TDynarrayHolderDynamic@UListItem@RFrame_List@frames@ui@modules@UModSys@@U?$TAllocator@USIMemAlloc@core@UModSys@@USCountCalcPower2@23@@tl@6@@tl@UModSys@@@tl@UModSys@@IAE_NI@Z 100072f0 f i umodsys_lib_libui:umodsys.mod.ui.frames.obj
 0001:00006340       ?ReLink@?$TDynarray@U?$TDynarrayHolderDynamic@U?$TRefObject@URDialog@frames@ui@modules@UModSys@@U?$TRefObjectFunc@URDialog@frames@ui@modules@UModSys@@@tl@5@@tl@UModSys@@U?$TAllocator@USIMemAlloc@core@UModSys@@USCountCalcPower2@23@@23@@tl@UModSys@@@tl@UModSys@@IAE_NI@Z 10007340 f i umodsys_lib_libui:umodsys.mod.ui.frames.obj
 0001:00006340       ?ReLink@?$TDynarray@U?$TDynarrayHolderDynamic@U?$TRefObject@UIImage@lib2d@UModSys@@U?$TRefObjectFunc@UIImage@lib2d@UModSys@@@tl@3@@tl@UModSys@@U?$TAllocator@USIMemAlloc@core@UModSys@@USCountCalcPower2@23@@23@@tl@UModSys@@@tl@UModSys@@IAE_NI@Z 10007340 f i umodsys_lib_lib2d:umodsys.mod.2d.stdlib.obj
 0001:00006340       ?ReLink@?$TDynarray@U?$TDynarrayHolderDynamic@U?$TRefObject@URFrame_Common@frames@ui@modules@UModSys@@U?$TRefObjectFunc@URFrame_Common@frames@ui@modules@UModSys@@@tl@5@@tl@UModSys@@U?$TAllocator@USIMemAlloc@core@UModSys@@USCountCalcPower2@23@@23@@tl@UModSys@@@tl@UModSys@@IAE_NI@Z 10007340 f i umodsys_lib_libui:umodsys.mod.ui.frames.obj
 0001:00006390       ?aconstruct@?$TTypeConstructor@UListItem@RFrame_List@frames@ui@modules@UModSys@@@tl@UModSys@@SAXPAUListItem@RFrame_List@frames@ui@modules@3@I@Z 10007390 f i umodsys_lib_libui:umodsys.mod.ui.frames.obj
 0001:00006400       ?adestruct@?$TTypeConstructor@U?$TRefObject@URDialog@frames@ui@modules@UModSys@@U?$TRefObjectFunc@URDialog@frames@ui@modules@UModSys@@@tl@5@@tl@UModSys@@@tl@UModSys@@SAXPAU?$TRefObject@URDialog@frames@ui@modules@UModSys@@U?$TRefObjectFunc@URDialog@frames@ui@modules@UModSys@@@tl@5@@23@I@Z 10007400 f i umodsys_lib_libui:umodsys.mod.ui.frames.obj
 0001:00006400       ?adestruct@?$TTypeConstructor@U?$TRefObject@URFrame_Common@frames@ui@modules@UModSys@@U?$TRefObjectFunc@URFrame_Common@frames@ui@modules@UModSys@@@tl@5@@tl@UModSys@@@tl@UModSys@@SAXPAU?$TRefObject@URFrame_Common@frames@ui@modules@UModSys@@U?$TRefObjectFunc@URFrame_Common@frames@ui@modules@UModSys@@@tl@5@@23@I@Z 10007400 f i umodsys_lib_libui:umodsys.mod.ui.frames.obj
 0001:00006400       ?adestruct@?$TTypeConstructor@U?$TRefObject@UIImage@lib2d@UModSys@@U?$TRefObjectFunc@UIImage@lib2d@UModSys@@@tl@3@@tl@UModSys@@@tl@UModSys@@SAXPAU?$TRefObject@UIImage@lib2d@UModSys@@U?$TRefObjectFunc@UIImage@lib2d@UModSys@@@tl@3@@23@I@Z 10007400 f i umodsys_lib_lib2d:umodsys.mod.2d.stdlib.obj
 0001:00006440       ??$ValidateConstruction@UIRefObject@core@UModSys@@URCollector@frames@ui@modules@3@@core@UModSys@@YA_NAAU?$TRefObject@UIRefObject@core@UModSys@@U?$TRefObjectFunc@UIRefObject@core@UModSys@@@tl@3@@tl@1@PAURCollector@frames@ui@modules@1@@Z 10007440 f i umodsys_lib_libui:umodsys.mod.ui.frames.obj
 0001:000064d0       ??$process_nodes_r@U?$TNodeDeleter0@U?$TScatterArrayNode@U?$TVector2@M@math3d@UModSys@@H@tl@UModSys@@@tl@UModSys@@@?$TTreeHoldRB@U?$TScatterArrayNode@U?$TVector2@M@math3d@UModSys@@H@tl@UModSys@@@tl@UModSys@@KAHPAU?$TScatterArrayNode@U?$TVector2@M@math3d@UModSys@@H@12@ABU?$TNodeDeleter0@U?$TScatterArrayNode@U?$TVector2@M@math3d@UModSys@@H@tl@UModSys@@@12@@Z 100074d0 f i umodsys_lib_libui:umodsys.mod.ui.frames.obj
 0001:000064d0       ??$process_nodes_r@U?$TNodeDeleter0@U?$TScatterArrayNode@U?$TVector4@M@math3d@UModSys@@H@tl@UModSys@@@tl@UModSys@@@?$TTreeHoldRB@U?$TScatterArrayNode@U?$TVector4@M@math3d@UModSys@@H@tl@UModSys@@@tl@UModSys@@KAHPAU?$TScatterArrayNode@U?$TVector4@M@math3d@UModSys@@H@12@ABU?$TNodeDeleter0@U?$TScatterArrayNode@U?$TVector4@M@math3d@UModSys@@H@tl@UModSys@@@12@@Z 100074d0 f i umodsys_lib_libui:umodsys.mod.ui.frames.obj
 0001:000064d0       ??$process_nodes_r@U?$TNodeDeleter0@U?$TScatterArrayNode@HH@tl@UModSys@@@tl@UModSys@@@?$TTreeHoldRB@U?$TScatterArrayNode@HH@tl@UModSys@@@tl@UModSys@@KAHPAU?$TScatterArrayNode@HH@12@ABU?$TNodeDeleter0@U?$TScatterArrayNode@HH@tl@UModSys@@@12@@Z 100074d0 f i umodsys_lib_libui:umodsys.mod.ui.frames.obj
 0001:00006520       ??$genx_node@UCmp@?$TScatterArray@U?$TVector4@M@math3d@UModSys@@HU?$TScalarCompare@H@core@3@U?$TNodeDeleter0@U?$TScatterArrayNode@U?$TVector4@M@math3d@UModSys@@H@tl@UModSys@@@tl@3@@tl@UModSys@@UGen0@234@@?$TTreeHoldRBD@U?$TScatterArrayNode@U?$TVector4@M@math3d@UModSys@@H@tl@UModSys@@U?$TNodeDeleter0@U?$TScatterArrayNode@U?$TVector4@M@math3d@UModSys@@H@tl@UModSys@@@23@@tl@UModSys@@QAEPAU?$TScatterArrayNode@U?$TVector4@M@math3d@UModSys@@H@12@UCmp@?$TScatterArray@U?$TVector4@M@math3d@UModSys@@HU?$TScalarCompare@H@core@3@U?$TNodeDeleter0@U?$TScatterArrayNode@U?$TVector4@M@math3d@UModSys@@H@tl@UModSys@@@tl@3@@12@ABUGen0@512@PAPAU312@2_N@Z 10007520 f i umodsys_lib_libui:umodsys.mod.ui.frames.obj
 0001:00006590       ??$genx_node@UCmp@?$TScatterArray@U?$TVector2@M@math3d@UModSys@@HU?$TScalarCompare@H@core@3@U?$TNodeDeleter0@U?$TScatterArrayNode@U?$TVector2@M@math3d@UModSys@@H@tl@UModSys@@@tl@3@@tl@UModSys@@UGen0@234@@?$TTreeHoldRBD@U?$TScatterArrayNode@U?$TVector2@M@math3d@UModSys@@H@tl@UModSys@@U?$TNodeDeleter0@U?$TScatterArrayNode@U?$TVector2@M@math3d@UModSys@@H@tl@UModSys@@@23@@tl@UModSys@@QAEPAU?$TScatterArrayNode@U?$TVector2@M@math3d@UModSys@@H@12@UCmp@?$TScatterArray@U?$TVector2@M@math3d@UModSys@@HU?$TScalarCompare@H@core@3@U?$TNodeDeleter0@U?$TScatterArrayNode@U?$TVector2@M@math3d@UModSys@@H@tl@UModSys@@@tl@3@@12@ABUGen0@512@PAPAU312@2_N@Z 10007590 f i umodsys_lib_libui:umodsys.mod.ui.frames.obj
 0001:00006640       ??$genx_node@UCmp@?$TScatterArray@HHU?$TScalarCompare@H@core@UModSys@@U?$TNodeDeleter0@U?$TScatterArrayNode@HH@tl@UModSys@@@tl@3@@tl@UModSys@@UGen0@234@@?$TTreeHoldRBD@U?$TScatterArrayNode@HH@tl@UModSys@@U?$TNodeDeleter0@U?$TScatterArrayNode@HH@tl@UModSys@@@23@@tl@UModSys@@QAEPAU?$TScatterArrayNode@HH@12@UCmp@?$TScatterArray@HHU?$TScalarCompare@H@core@UModSys@@U?$TNodeDeleter0@U?$TScatterArrayNode@HH@tl@UModSys@@@tl@3@@12@ABUGen0@512@PAPAU312@2_N@Z 10007640 f i umodsys_lib_libui:umodsys.mod.ui.frames.obj
 0001:000066d0       ?sub_insert_node@?$TTreeHoldRB@U?$TScatterArrayNode@U?$TRefObjectCompositeExtra@UIMouseClient@libui@UModSys@@HUIRefObject@core@3@U?$TRefObjectFunc@UIRefObject@core@UModSys@@@tl@3@@tl@UModSys@@H@tl@UModSys@@@tl@UModSys@@QAEXPAU?$TScatterArrayNode@U?$TRefObjectCompositeExtra@UIMouseClient@libui@UModSys@@HUIRefObject@core@3@U?$TRefObjectFunc@UIRefObject@core@UModSys@@@tl@3@@tl@UModSys@@H@23@0H@Z 100076d0 f i umodsys_lib_libui:umodsys.mod.ui.SDL_GL.obj
 0001:000066d0       ?sub_insert_node@?$TTreeHoldRB@U?$TScatterArrayNode@U?$TVector2@M@math3d@UModSys@@H@tl@UModSys@@@tl@UModSys@@QAEXPAU?$TScatterArrayNode@U?$TVector2@M@math3d@UModSys@@H@23@0H@Z 100076d0 f i umodsys_lib_libui:umodsys.mod.ui.frames.obj
 0001:000066d0       ?sub_insert_node@?$TTreeHoldRB@U?$TScatterArrayNode@UGlyph@RMultiImage2D_SDL_ttf@SDL_core@ui@modules@UModSys@@H@tl@UModSys@@@tl@UModSys@@QAEXPAU?$TScatterArrayNode@UGlyph@RMultiImage2D_SDL_ttf@SDL_core@ui@modules@UModSys@@H@23@0H@Z 100076d0 f i umodsys_lib_libui:umodsys.mod.ui.SDL_core.obj
 0001:000066d0       ?sub_insert_node@?$TTreeHoldRB@U?$TScatterArrayNode@HH@tl@UModSys@@@tl@UModSys@@QAEXPAU?$TScatterArrayNode@HH@23@0H@Z 100076d0 f i umodsys_lib_libui:umodsys.mod.ui.frames.obj
 0001:000066d0       ?sub_insert_node@?$TTreeHoldRB@U?$TScatterArrayNode@UGlyph@RMultiImage2D_SDL_ttf@SDL_GL@ui@modules@UModSys@@H@tl@UModSys@@@tl@UModSys@@QAEXPAU?$TScatterArrayNode@UGlyph@RMultiImage2D_SDL_ttf@SDL_GL@ui@modules@UModSys@@H@23@0H@Z 100076d0 f i umodsys_lib_libui:umodsys.mod.ui.SDL_GL.obj
 0001:000066d0       ?sub_insert_node@?$TTreeHoldRB@U?$TScatterArrayNode@U?$TRefObjectComposite@UIKeyboardClient@libui@UModSys@@UIRefObject@core@3@U?$TRefObjectFunc@UIRefObject@core@UModSys@@@tl@3@@tl@UModSys@@H@tl@UModSys@@@tl@UModSys@@QAEXPAU?$TScatterArrayNode@U?$TRefObjectComposite@UIKeyboardClient@libui@UModSys@@UIRefObject@core@3@U?$TRefObjectFunc@UIRefObject@core@UModSys@@@tl@3@@tl@UModSys@@H@23@0H@Z 100076d0 f i umodsys_lib_libui:umodsys.mod.ui.SDL_GL.obj
 0001:000066d0       ?sub_insert_node@?$TTreeHoldRB@U?$TScatterArrayNode@U?$TVector4@M@math3d@UModSys@@H@tl@UModSys@@@tl@UModSys@@QAEXPAU?$TScatterArrayNode@U?$TVector4@M@math3d@UModSys@@H@23@0H@Z 100076d0 f i umodsys_lib_libui:umodsys.mod.ui.frames.obj
 0001:00006740       ??RGen0@?$TScatterArray@U?$TVector4@M@math3d@UModSys@@HU?$TScalarCompare@H@core@3@U?$TNodeDeleter0@U?$TScatterArrayNode@U?$TVector4@M@math3d@UModSys@@H@tl@UModSys@@@tl@3@@tl@UModSys@@QBEPAU?$TScatterArrayNode@U?$TVector4@M@math3d@UModSys@@H@23@ABUCmp@123@ABU?$TTreeHoldRBD@U?$TScatterArrayNode@U?$TVector4@M@math3d@UModSys@@H@tl@UModSys@@U?$TNodeDeleter0@U?$TScatterArrayNode@U?$TVector4@M@math3d@UModSys@@H@tl@UModSys@@@23@@23@@Z 10007740 f i umodsys_lib_libui:umodsys.mod.ui.frames.obj
 0001:000067a0       ?insert_color@?$TTreeHoldRB@U?$TScatterArrayNode@U?$TVector4@M@math3d@UModSys@@H@tl@UModSys@@@tl@UModSys@@IAEXPAU?$TScatterArrayNode@U?$TVector4@M@math3d@UModSys@@H@23@@Z 100077a0 f i umodsys_lib_libui:umodsys.mod.ui.frames.obj
 0001:000067a0       ?insert_color@?$TTreeHoldRB@U?$TScatterArrayNode@UGlyph@RMultiImage2D_SDL_ttf@SDL_GL@ui@modules@UModSys@@H@tl@UModSys@@@tl@UModSys@@IAEXPAU?$TScatterArrayNode@UGlyph@RMultiImage2D_SDL_ttf@SDL_GL@ui@modules@UModSys@@H@23@@Z 100077a0 f i umodsys_lib_libui:umodsys.mod.ui.SDL_GL.obj
 0001:000067a0       ?insert_color@?$TTreeHoldRB@U?$TScatterArrayNode@U?$TRefObjectComposite@UIKeyboardClient@libui@UModSys@@UIRefObject@core@3@U?$TRefObjectFunc@UIRefObject@core@UModSys@@@tl@3@@tl@UModSys@@H@tl@UModSys@@@tl@UModSys@@IAEXPAU?$TScatterArrayNode@U?$TRefObjectComposite@UIKeyboardClient@libui@UModSys@@UIRefObject@core@3@U?$TRefObjectFunc@UIRefObject@core@UModSys@@@tl@3@@tl@UModSys@@H@23@@Z 100077a0 f i umodsys_lib_libui:umodsys.mod.ui.SDL_GL.obj
 0001:000067a0       ?insert_color@?$TTreeHoldRB@U?$TScatterArrayNode@U?$TRefObjectCompositeExtra@UIMouseClient@libui@UModSys@@HUIRefObject@core@3@U?$TRefObjectFunc@UIRefObject@core@UModSys@@@tl@3@@tl@UModSys@@H@tl@UModSys@@@tl@UModSys@@IAEXPAU?$TScatterArrayNode@U?$TRefObjectCompositeExtra@UIMouseClient@libui@UModSys@@HUIRefObject@core@3@U?$TRefObjectFunc@UIRefObject@core@UModSys@@@tl@3@@tl@UModSys@@H@23@@Z 100077a0 f i umodsys_lib_libui:umodsys.mod.ui.SDL_GL.obj
 0001:000067a0       ?insert_color@?$TTreeHoldRB@U?$TScatterArrayNode@HH@tl@UModSys@@@tl@UModSys@@IAEXPAU?$TScatterArrayNode@HH@23@@Z 100077a0 f i umodsys_lib_libui:umodsys.mod.ui.frames.obj
 0001:000067a0       ?insert_color@?$TTreeHoldRB@U?$TScatterArrayNode@U?$TVector2@M@math3d@UModSys@@H@tl@UModSys@@@tl@UModSys@@IAEXPAU?$TScatterArrayNode@U?$TVector2@M@math3d@UModSys@@H@23@@Z 100077a0 f i umodsys_lib_libui:umodsys.mod.ui.frames.obj
 0001:000067a0       ?insert_color@?$TTreeHoldRB@U?$TScatterArrayNode@UGlyph@RMultiImage2D_SDL_ttf@SDL_core@ui@modules@UModSys@@H@tl@UModSys@@@tl@UModSys@@IAEXPAU?$TScatterArrayNode@UGlyph@RMultiImage2D_SDL_ttf@SDL_core@ui@modules@UModSys@@H@23@@Z 100077a0 f i umodsys_lib_libui:umodsys.mod.ui.SDL_core.obj
 0001:00006940       ??0SMemShared@core@UModSys@@QAE@IPAUSSourceContext@12@@Z 10007940 f i umodsys_lib_libmedia:umodsys.mod.media.images_std.obj
 0001:00006980       ?alloc@SMemShared@core@UModSys@@QAE_NABUSCMem@23@PAUSSourceContext@23@@Z 10007980 f i umodsys_lib_libmedia:umodsys.mod.media.images_std.obj
 0001:000069e0       ?get@SMemShared@core@UModSys@@QBE?AUSMem@23@XZ 100079e0 f i umodsys_lib_libmedia:umodsys.mod.media.images_std.obj
 0001:000069e0       ??BSMemShared@core@UModSys@@QBE?AUSMem@12@XZ 100079e0 f i umodsys_lib_lib2d:umodsys.mod.2d.stdlib.obj
 0001:00006a30       ?utf8_cmp_nocase@su@tl@UModSys@@YAHPBD0I@Z 10007a30 f i umodsys_lib_libmedia:umodsys.mod.media.images_std.obj
 0001:00006ad0       ?is_extension_nocase@libmedia@UModSys@@YA_NABU?$TString@U?$TSCoreConst@D@su@tl@UModSys@@U?$TComparerBinaryHash@D@234@@tl@2@0@Z 10007ad0 f i umodsys_lib_libmedia:umodsys.mod.media.images_std.obj
 0001:00006b00       ?root_get_interface_info@RMediaFilter@images_std@media@modules@UModSys@@UBEABUSUniquePointerInfo@core@5@XZ 10007b00 f i umodsys_lib_libmedia:umodsys.mod.media.images_std.obj
 0001:00006b10       ?root_get_interface_type@RMediaFilter@images_std@media@modules@UModSys@@UBEPBUSUniquePointerInfo@core@5@XZ 10007b10 f i umodsys_lib_libmedia:umodsys.mod.media.images_std.obj
 0001:00006b20       ?root_get_other_interface@RMediaFilter@images_std@media@modules@UModSys@@UBEPBUIRoot@core@5@PBUSUniquePointerInfo@75@@Z 10007b20 f i umodsys_lib_libmedia:umodsys.mod.media.images_std.obj
 0001:00006b20       ?root_get_other_interface@RMediaFilter@images_std@media@modules@UModSys@@UAEPAUIRoot@core@5@PBUSUniquePointerInfo@75@@Z 10007b20 f i umodsys_lib_libmedia:umodsys.mod.media.images_std.obj
 0001:00006b60       ?root_is_interface_supported@RMediaFilter@images_std@media@modules@UModSys@@UBE_NPBUSUniquePointerInfo@core@5@@Z 10007b60 f i umodsys_lib_libmedia:umodsys.mod.media.images_std.obj
 0001:00006ba0       ?ref_add@RMediaFilter@images_std@media@modules@UModSys@@UBEXXZ 10007ba0 f i umodsys_lib_libmedia:umodsys.mod.media.images_std.obj
 0001:00006bb0       ?ref_remove@RMediaFilter@images_std@media@modules@UModSys@@UBEXXZ 10007bb0 f i umodsys_lib_libmedia:umodsys.mod.media.images_std.obj
 0001:00006bc0       ?ref_links@RMediaFilter@images_std@media@modules@UModSys@@UBEHXZ 10007bc0 f i umodsys_lib_libmedia:umodsys.mod.media.images_std.obj
 0001:00006bd0       ?ref_weak@RMediaFilter@images_std@media@modules@UModSys@@UBE_NAAUWeakPointer@IRefObject@core@5@@Z 10007bd0 f i umodsys_lib_libmedia:umodsys.mod.media.images_std.obj
 0001:00006bf0       ?suicide@RMediaFilter@images_std@media@modules@UModSys@@UAEXXZ 10007bf0 f i umodsys_lib_libmedia:umodsys.mod.media.images_std.obj
 0001:00006c00       ?get_flag@RMediaFilter@images_std@media@modules@UModSys@@UBE?AW4eStates@?$TFlags4State@USMediaFlagUid@libmedia@UModSys@@I@tl@5@H@Z 10007c00 f i umodsys_lib_libmedia:umodsys.mod.media.images_std.obj
 0001:00006c20       ?get_flags_auto@RMediaFilter@images_std@media@modules@UModSys@@UBE?AU?$TFlags4State@USMediaFlagUid@libmedia@UModSys@@I@tl@5@XZ 10007c20 f i umodsys_lib_libmedia:umodsys.mod.media.images_std.obj
 0001:00006c30       ?set_flag@RMediaFilter@images_std@media@modules@UModSys@@UAE?AW4eStates@?$TFlags4State@USMediaFlagUid@libmedia@UModSys@@I@tl@5@HW46785@@Z 10007c30 f i umodsys_lib_libmedia:umodsys.mod.media.images_std.obj
 0001:00006c60       ??0RMediaFilter@images_std@media@modules@UModSys@@QAE@PAUIModObject@base@4@ABUSParameters@core@4@@Z 10007c60 f i umodsys_lib_libmedia:umodsys.mod.media.images_std.obj
 0001:00006d30       ??1RMediaFilter@images_std@media@modules@UModSys@@UAE@XZ 10007d30 f i umodsys_lib_libmedia:umodsys.mod.media.images_std.obj
 0001:00006dc0       ??_GRMediaFilter@images_std@media@modules@UModSys@@UAEPAXI@Z 10007dc0 f i umodsys_lib_libmedia:umodsys.mod.media.images_std.obj
 0001:00006dc0       ??_ERMediaFilter@images_std@media@modules@UModSys@@UAEPAXI@Z 10007dc0 f i  CIL library: CIL module
 0001:00006de0       ?get_generated_names@RGenerator@images_std@media@modules@UModSys@@UBEHAAUSUniquePtrList@core@5@@Z 10007de0 f i umodsys_lib_libmedia:umodsys.mod.media.images_std.obj
 0001:00006e00       ?get_generated_types@RGenerator@images_std@media@modules@UModSys@@UBEHAAUSUniquePtrList@core@5@PBUSUniquePointerInfo@75@@Z 10007e00 f i umodsys_lib_libmedia:umodsys.mod.media.images_std.obj
 0001:00006e50       ?generate@RGenerator@images_std@media@modules@UModSys@@UAE_NAAU?$TRefObject@UIRefObject@core@UModSys@@U?$TRefObjectFunc@UIRefObject@core@UModSys@@@tl@3@@tl@5@PBUSUniquePointerInfo@core@5@ABUSParameters@95@@Z 10007e50 f i umodsys_lib_libmedia:umodsys.mod.media.images_std.obj
 0001:00006e80       ?root_get_interface_info@RGenerator@images_std@media@modules@UModSys@@UBEABUSUniquePointerInfo@core@5@XZ 10007e80 f i umodsys_lib_libmedia:umodsys.mod.media.images_std.obj
 0001:00006e90       ?root_get_interface_type@RGenerator@images_std@media@modules@UModSys@@UBEPBUSUniquePointerInfo@core@5@XZ 10007e90 f i umodsys_lib_libmedia:umodsys.mod.media.images_std.obj
 0001:00006ea0       ?root_get_other_interface@RGenerator@images_std@media@modules@UModSys@@UBEPBUIRoot@core@5@PBUSUniquePointerInfo@75@@Z 10007ea0 f i umodsys_lib_libmedia:umodsys.mod.media.images_std.obj
 0001:00006ea0       ?root_get_other_interface@RGenerator@images_std@media@modules@UModSys@@UAEPAUIRoot@core@5@PBUSUniquePointerInfo@75@@Z 10007ea0 f i umodsys_lib_libmedia:umodsys.mod.media.images_std.obj
 0001:00006ee0       ?root_is_interface_supported@RGenerator@images_std@media@modules@UModSys@@UBE_NPBUSUniquePointerInfo@core@5@@Z 10007ee0 f i umodsys_lib_libmedia:umodsys.mod.media.images_std.obj
 0001:00006f20       ?ref_remove@RMultiImage@stdlib@lib2d@modules@UModSys@@UBEXXZ 10007f20 f i umodsys_lib_lib2d:umodsys.mod.2d.stdlib.obj
 0001:00006f20       ?ref_remove@RTerminal@SDL_GL@ui@modules@UModSys@@UBEXXZ 10007f20 f i umodsys_lib_libui:umodsys.mod.ui.SDL_GL.obj
 0001:00006f20       ?ref_remove@RImageFactory_Memory@stdlib@lib2d@modules@UModSys@@UBEXXZ 10007f20 f i umodsys_lib_lib2d:umodsys.mod.2d.stdlib.obj
 0001:00006f20       ?ref_remove@RGenerator@test1@test@modules@UModSys@@UBEXXZ 10007f20 f i plugin_test1.obj
 0001:00006f20       ?ref_remove@RGenerator@zlib@media@modules@UModSys@@UBEXXZ 10007f20 f i umodsys_lib_libmedia:umodsys.mod.media.zlib.obj
 0001:00006f20       ?ref_remove@RMultiImage2D_SDL_ttf@SDL_GL@ui@modules@UModSys@@UBEXXZ 10007f20 f i umodsys_lib_libui:umodsys.mod.ui.SDL_GL.obj
 0001:00006f20       ?ref_remove@RGenerator@stdlib@lib2d@modules@UModSys@@UBEXXZ 10007f20 f i umodsys_lib_lib2d:umodsys.mod.2d.stdlib.obj
 0001:00006f20       ?ref_remove@RGenerator@images_std@media@modules@UModSys@@UBEXXZ 10007f20 f i umodsys_lib_libmedia:umodsys.mod.media.images_std.obj
 0001:00006f20       ?ref_remove@RBinArchiveFrameClient_ZIP@zlib@media@modules@UModSys@@UBEXXZ 10007f20 f i umodsys_lib_libmedia:umodsys.mod.media.zlib.obj
 0001:00006f20       ?ref_remove@RSerializeReader@serialize_json@media@modules@UModSys@@UBEXXZ 10007f20 f i umodsys_lib_libmedia:umodsys.mod.media.serialize_json.obj
 0001:00006f20       ?ref_remove@RImage_Memory@stdlib@lib2d@modules@UModSys@@UBEXXZ 10007f20 f i umodsys_lib_lib2d:umodsys.mod.2d.stdlib.obj
 0001:00006f20       ?ref_remove@RDialog@frames@ui@modules@UModSys@@UBEXXZ 10007f20 f i umodsys_lib_libui:umodsys.mod.ui.frames.obj
 0001:00006f20       ?ref_remove@RGenerator@SDL_core@ui@modules@UModSys@@UBEXXZ 10007f20 f i umodsys_lib_libui:umodsys.mod.ui.SDL_core.obj
 0001:00006f20       ?ref_remove@RVertexArray@SDL_GL@ui@modules@UModSys@@UBEXXZ 10007f20 f i umodsys_lib_libui:umodsys.mod.ui.SDL_GL.obj
 0001:00006f20       ?ref_remove@RGenerator@SDL_GL@ui@modules@UModSys@@UBEXXZ 10007f20 f i umodsys_lib_libui:umodsys.mod.ui.SDL_GL.obj
 0001:00006f20       ?ref_remove@RGenerator@frames@ui@modules@UModSys@@UBEXXZ 10007f20 f i umodsys_lib_libui:umodsys.mod.ui.frames.obj
 0001:00006f20       ?ref_remove@RMultiImage2D_SDL_ttf@SDL_core@ui@modules@UModSys@@UBEXXZ 10007f20 f i umodsys_lib_libui:umodsys.mod.ui.SDL_core.obj
 0001:00006f20       ?ref_remove@RTerminal@SDL_core@ui@modules@UModSys@@UBEXXZ 10007f20 f i umodsys_lib_libui:umodsys.mod.ui.SDL_core.obj
 0001:00006f20       ?ref_remove@RGenerator@serialize_json@media@modules@UModSys@@UBEXXZ 10007f20 f i umodsys_lib_libmedia:umodsys.mod.media.serialize_json.obj
 0001:00006f30       ?get_uid@RGenerator@images_std@media@modules@UModSys@@UBEPBUSUniquePointerInfo@core@5@XZ 10007f30 f i umodsys_lib_libmedia:umodsys.mod.media.images_std.obj
 0001:00006f40       ?do_open@RModuleReg@images_std@media@modules@UModSys@@UAE_NXZ 10007f40 f i umodsys_lib_libmedia:umodsys.mod.media.images_std.obj
 0001:00006f50       ?do_close@RModuleReg@images_std@media@modules@UModSys@@UAE_NXZ 10007f50 f i umodsys_lib_libmedia:umodsys.mod.media.images_std.obj
 0001:00006f60       ??_GRModuleReg@images_std@media@modules@UModSys@@UAEPAXI@Z 10007f60 f i umodsys_lib_libmedia:umodsys.mod.media.images_std.obj
 0001:00006f60       ??_ERModuleReg@images_std@media@modules@UModSys@@UAEPAXI@Z 10007f60 f i  CIL library: CIL module
 0001:00006f90       ??$t_gen_param@URMediaFilter@images_std@media@modules@UModSys@@URGenerator@2345@@IGenerator@base@UModSys@@IAE_NPAURGenerator@images_std@media@modules@2@AAU?$TRefObject@UIRefObject@core@UModSys@@U?$TRefObjectFunc@UIRefObject@core@UModSys@@@tl@3@@tl@2@PBUSUniquePointerInfo@core@2@ABUSParameters@core@2@@Z 10007f90 f i umodsys_lib_libmedia:umodsys.mod.media.images_std.obj
 0001:00007000       ?init_escapes@serialize_json@media@modules@UModSys@@YAXXZ 10008000 f i umodsys_lib_libmedia:umodsys.mod.media.serialize_json.obj
 0001:00007100       ?root_get_interface_info@RSerializeReader@serialize_json@media@modules@UModSys@@UBEABUSUniquePointerInfo@core@5@XZ 10008100 f i umodsys_lib_libmedia:umodsys.mod.media.serialize_json.obj
 0001:00007110       ?root_get_interface_type@RSerializeReader@serialize_json@media@modules@UModSys@@UBEPBUSUniquePointerInfo@core@5@XZ 10008110 f i umodsys_lib_libmedia:umodsys.mod.media.serialize_json.obj
 0001:00007120       ?root_get_other_interface@RSerializeReader@serialize_json@media@modules@UModSys@@UBEPBUIRoot@core@5@PBUSUniquePointerInfo@75@@Z 10008120 f i umodsys_lib_libmedia:umodsys.mod.media.serialize_json.obj
 0001:00007120       ?root_get_other_interface@RSerializeReader@serialize_json@media@modules@UModSys@@UAEPAUIRoot@core@5@PBUSUniquePointerInfo@75@@Z 10008120 f i umodsys_lib_libmedia:umodsys.mod.media.serialize_json.obj
 0001:00007150       ?root_is_interface_supported@RSerializeReader@serialize_json@media@modules@UModSys@@UBE_NPBUSUniquePointerInfo@core@5@@Z 10008150 f i umodsys_lib_libmedia:umodsys.mod.media.serialize_json.obj
 0001:00007190       ?reader_lasterror@RSerializeReader@serialize_json@media@modules@UModSys@@UBEPBDXZ 10008190 f i umodsys_lib_libmedia:umodsys.mod.media.serialize_json.obj
 0001:000071a0       ?reader_parse@RSerializeReader@serialize_json@media@modules@UModSys@@UAE_NPAUISerializeParser@libmedia@5@@Z 100081a0 f i umodsys_lib_libmedia:umodsys.mod.media.serialize_json.obj
 0001:00007a30       ?uni@RSerializeReader@serialize_json@media@modules@UModSys@@IAE_NHAAH@Z 10008a30 f i umodsys_lib_libmedia:umodsys.mod.media.serialize_json.obj
 0001:00007ae0       ?emit@RSerializeReader@serialize_json@media@modules@UModSys@@IAE_NPAUISerializeParser@libmedia@5@PAUNode@12345@_N@Z 10008ae0 f i umodsys_lib_libmedia:umodsys.mod.media.serialize_json.obj
 0001:00007e80       ??0RSerializeReader@serialize_json@media@modules@UModSys@@QAE@PAUIModObject@base@4@ABUSParameters@core@4@@Z 10008e80 f i umodsys_lib_libmedia:umodsys.mod.media.serialize_json.obj
 0001:00007f90       ??1RSerializeReader@serialize_json@media@modules@UModSys@@UAE@XZ 10008f90 f i umodsys_lib_libmedia:umodsys.mod.media.serialize_json.obj
 0001:00008010       ??_ERSerializeReader@serialize_json@media@modules@UModSys@@UAEPAXI@Z 10009010 f i  CIL library: CIL module
 0001:00008010       ??_GRSerializeReader@serialize_json@media@modules@UModSys@@UAEPAXI@Z 10009010 f i umodsys_lib_libmedia:umodsys.mod.media.serialize_json.obj
 0001:00008030       ?root_get_interface_info@RSerializeWriter@serialize_json@media@modules@UModSys@@UBEABUSUniquePointerInfo@core@5@XZ 10009030 f i umodsys_lib_libmedia:umodsys.mod.media.serialize_json.obj
 0001:00008040       ?root_get_interface_type@RSerializeWriter@serialize_json@media@modules@UModSys@@UBEPBUSUniquePointerInfo@core@5@XZ 10009040 f i umodsys_lib_libmedia:umodsys.mod.media.serialize_json.obj
 0001:00008050       ?root_get_interface_types@RMultiImage@stdlib@lib2d@modules@UModSys@@UBEIAAUSUniquePtrList@core@5@@Z 10009050 f i umodsys_lib_lib2d:umodsys.mod.2d.stdlib.obj
 0001:00008050       ?root_get_interface_types@RFrame_Image@frames@ui@modules@UModSys@@UBEIAAUSUniquePtrList@core@5@@Z 10009050 f i umodsys_lib_libui:umodsys.mod.ui.frames.obj
 0001:00008050       ?root_get_interface_types@RRenderDriver2D@SDL_core@ui@modules@UModSys@@UBEIAAUSUniquePtrList@core@5@@Z 10009050 f i umodsys_lib_libui:umodsys.mod.ui.SDL_core.obj
 0001:00008050       ?root_get_interface_types@RSerializeReader@serialize_json@media@modules@UModSys@@UBEIAAUSUniquePtrList@core@5@@Z 10009050 f i umodsys_lib_libmedia:umodsys.mod.media.serialize_json.obj
 0001:00008050       ?root_get_interface_types@RMediaFilter@images_std@media@modules@UModSys@@UBEIAAUSUniquePtrList@core@5@@Z 10009050 f i umodsys_lib_libmedia:umodsys.mod.media.images_std.obj
 0001:00008050       ?root_get_interface_types@RVertexArray@SDL_GL@ui@modules@UModSys@@UBEIAAUSUniquePtrList@core@5@@Z 10009050 f i umodsys_lib_libui:umodsys.mod.ui.SDL_GL.obj
 0001:00008050       ?root_get_interface_types@RGenerator@frames@ui@modules@UModSys@@UBEIAAUSUniquePtrList@core@5@@Z 10009050 f i umodsys_lib_libui:umodsys.mod.ui.frames.obj
 0001:00008050       ?root_get_interface_types@RGenerator@SDL_GL@ui@modules@UModSys@@UBEIAAUSUniquePtrList@core@5@@Z 10009050 f i umodsys_lib_libui:umodsys.mod.ui.SDL_GL.obj
 0001:00008050       ?root_get_interface_types@RMultiImage2D_SDL_ttf@SDL_GL@ui@modules@UModSys@@UBEIAAUSUniquePtrList@core@5@@Z 10009050 f i umodsys_lib_libui:umodsys.mod.ui.SDL_GL.obj
 0001:00008050       ?root_get_interface_types@RImage_Memory@stdlib@lib2d@modules@UModSys@@UBEIAAUSUniquePtrList@core@5@@Z 10009050 f i umodsys_lib_lib2d:umodsys.mod.2d.stdlib.obj
 0001:00008050       ?root_get_interface_types@RGenerator@images_std@media@modules@UModSys@@UBEIAAUSUniquePtrList@core@5@@Z 10009050 f i umodsys_lib_libmedia:umodsys.mod.media.images_std.obj
 0001:00008050       ?root_get_interface_types@RGenerator@stdlib@lib2d@modules@UModSys@@UBEIAAUSUniquePtrList@core@5@@Z 10009050 f i umodsys_lib_lib2d:umodsys.mod.2d.stdlib.obj
 0001:00008050       ?root_get_interface_types@RFrame_Edit@frames@ui@modules@UModSys@@UBEIAAUSUniquePtrList@core@5@@Z 10009050 f i umodsys_lib_libui:umodsys.mod.ui.frames.obj
 0001:00008050       ?root_get_interface_types@RMultiImage2D_SDL_ttf@SDL_core@ui@modules@UModSys@@UBEIAAUSUniquePtrList@core@5@@Z 10009050 f i umodsys_lib_libui:umodsys.mod.ui.SDL_core.obj
 0001:00008050       ?root_get_interface_types@RFrame_List@frames@ui@modules@UModSys@@UBEIAAUSUniquePtrList@core@5@@Z 10009050 f i umodsys_lib_libui:umodsys.mod.ui.frames.obj
 0001:00008050       ?root_get_interface_types@RKeyboardController@SDL_GL@ui@modules@UModSys@@UBEIAAUSUniquePtrList@core@5@@Z 10009050 f i umodsys_lib_libui:umodsys.mod.ui.SDL_GL.obj
 0001:00008050       ?root_get_interface_types@RKeyboardController@SDL_core@ui@modules@UModSys@@UBEIAAUSUniquePtrList@core@5@@Z 10009050 f i umodsys_lib_libui:umodsys.mod.ui.SDL_core.obj
 0001:00008050       ?root_get_interface_types@RGenerator@zlib@media@modules@UModSys@@UBEIAAUSUniquePtrList@core@5@@Z 10009050 f i umodsys_lib_libmedia:umodsys.mod.media.zlib.obj
 0001:00008050       ?root_get_interface_types@RSerializeWriter@serialize_json@media@modules@UModSys@@UBEIAAUSUniquePtrList@core@5@@Z 10009050 f i umodsys_lib_libmedia:umodsys.mod.media.serialize_json.obj
 0001:00008050       ?root_get_interface_types@RFrame_Button@frames@ui@modules@UModSys@@UBEIAAUSUniquePtrList@core@5@@Z 10009050 f i umodsys_lib_libui:umodsys.mod.ui.frames.obj
 0001:00008050       ?root_get_interface_types@RFrame_Frame@frames@ui@modules@UModSys@@UBEIAAUSUniquePtrList@core@5@@Z 10009050 f i umodsys_lib_libui:umodsys.mod.ui.frames.obj
 0001:00008050       ?root_get_interface_types@RBinArchiveFrameClient_ZIP@zlib@media@modules@UModSys@@UBEIAAUSUniquePtrList@core@5@@Z 10009050 f i umodsys_lib_libmedia:umodsys.mod.media.zlib.obj
 0001:00008050       ?root_get_interface_types@RTerminal@SDL_GL@ui@modules@UModSys@@UBEIAAUSUniquePtrList@core@5@@Z 10009050 f i umodsys_lib_libui:umodsys.mod.ui.SDL_GL.obj
 0001:00008050       ?root_get_interface_types@RMouseController@SDL_GL@ui@modules@UModSys@@UBEIAAUSUniquePtrList@core@5@@Z 10009050 f i umodsys_lib_libui:umodsys.mod.ui.SDL_GL.obj
 0001:00008050       ?root_get_interface_types@RDialog@frames@ui@modules@UModSys@@UBEIAAUSUniquePtrList@core@5@@Z 10009050 f i umodsys_lib_libui:umodsys.mod.ui.frames.obj
 0001:00008050       ?root_get_interface_types@RTest1_Shell@test1@test@modules@UModSys@@UBEIAAUSUniquePtrList@core@5@@Z 10009050 f i plugin_test1.obj
 0001:00008050       ?root_get_interface_types@RMouseController@SDL_core@ui@modules@UModSys@@UBEIAAUSUniquePtrList@core@5@@Z 10009050 f i umodsys_lib_libui:umodsys.mod.ui.SDL_core.obj
 0001:00008050       ?root_get_interface_types@RGenerator@serialize_json@media@modules@UModSys@@UBEIAAUSUniquePtrList@core@5@@Z 10009050 f i umodsys_lib_libmedia:umodsys.mod.media.serialize_json.obj
 0001:00008050       ?root_get_interface_types@RTerminalX@SDL_core@ui@modules@UModSys@@UBEIAAUSUniquePtrList@core@5@@Z 10009050 f i umodsys_lib_libui:umodsys.mod.ui.SDL_core.obj
 0001:00008050       ?root_get_interface_types@RImageFactory_Memory@stdlib@lib2d@modules@UModSys@@UBEIAAUSUniquePtrList@core@5@@Z 10009050 f i umodsys_lib_lib2d:umodsys.mod.2d.stdlib.obj
 0001:00008050       ?root_get_interface_types@RFrame_Text@frames@ui@modules@UModSys@@UBEIAAUSUniquePtrList@core@5@@Z 10009050 f i umodsys_lib_libui:umodsys.mod.ui.frames.obj
 0001:00008050       ?root_get_interface_types@RGenerator@test1@test@modules@UModSys@@UBEIAAUSUniquePtrList@core@5@@Z 10009050 f i plugin_test1.obj
 0001:00008050       ?root_get_interface_types@RRenderDriver3D@SDL_GL@ui@modules@UModSys@@UBEIAAUSUniquePtrList@core@5@@Z 10009050 f i umodsys_lib_libui:umodsys.mod.ui.SDL_GL.obj
 0001:00008050       ?root_get_interface_types@RCollector@frames@ui@modules@UModSys@@UBEIAAUSUniquePtrList@core@5@@Z 10009050 f i umodsys_lib_libui:umodsys.mod.ui.frames.obj
 0001:00008050       ?root_get_interface_types@RGenerator@SDL_core@ui@modules@UModSys@@UBEIAAUSUniquePtrList@core@5@@Z 10009050 f i umodsys_lib_libui:umodsys.mod.ui.SDL_core.obj
 0001:00008050       ?root_get_interface_types@RTerminalX@SDL_GL@ui@modules@UModSys@@UBEIAAUSUniquePtrList@core@5@@Z 10009050 f i umodsys_lib_libui:umodsys.mod.ui.SDL_GL.obj
 0001:00008050       ?root_get_interface_types@RTerminal@SDL_core@ui@modules@UModSys@@UBEIAAUSUniquePtrList@core@5@@Z 10009050 f i umodsys_lib_libui:umodsys.mod.ui.SDL_core.obj
 0001:00008060       ?root_get_other_interface@RSerializeWriter@serialize_json@media@modules@UModSys@@UAEPAUIRoot@core@5@PBUSUniquePointerInfo@75@@Z 10009060 f i umodsys_lib_libmedia:umodsys.mod.media.serialize_json.obj
 0001:00008060       ?root_get_other_interface@RSerializeWriter@serialize_json@media@modules@UModSys@@UBEPBUIRoot@core@5@PBUSUniquePointerInfo@75@@Z 10009060 f i umodsys_lib_libmedia:umodsys.mod.media.serialize_json.obj
 0001:00008090       ?root_is_interface_supported@RSerializeWriter@serialize_json@media@modules@UModSys@@UBE_NPBUSUniquePointerInfo@core@5@@Z 10009090 f i umodsys_lib_libmedia:umodsys.mod.media.serialize_json.obj
 0001:000080d0       ?ref_add@RSerializeWriter@serialize_json@media@modules@UModSys@@UBEXXZ 100090d0 f i umodsys_lib_libmedia:umodsys.mod.media.serialize_json.obj
 0001:000080e0       ?ref_remove@RSerializeWriter@serialize_json@media@modules@UModSys@@UBEXXZ 100090e0 f i umodsys_lib_libmedia:umodsys.mod.media.serialize_json.obj
 0001:000080f0       ?ref_links@RSerializeWriter@serialize_json@media@modules@UModSys@@UBEHXZ 100090f0 f i umodsys_lib_libmedia:umodsys.mod.media.serialize_json.obj
 0001:00008100       ?ref_weak@RSerializeWriter@serialize_json@media@modules@UModSys@@UBE_NAAUWeakPointer@IRefObject@core@5@@Z 10009100 f i umodsys_lib_libmedia:umodsys.mod.media.serialize_json.obj
 0001:00008120       ?suicide@RSerializeWriter@serialize_json@media@modules@UModSys@@UAEXXZ 10009120 f i umodsys_lib_libmedia:umodsys.mod.media.serialize_json.obj
 0001:00008130       ?writer_lasterror@RSerializeWriter@serialize_json@media@modules@UModSys@@UBEPBDXZ 10009130 f i umodsys_lib_libmedia:umodsys.mod.media.serialize_json.obj
 0001:00008140       ?put_value@RSerializeWriter@serialize_json@media@modules@UModSys@@UAE_NABU?$TString@U?$TSCoreConst@D@su@tl@UModSys@@U?$TComparerBinaryHash@D@234@@tl@5@ABUSSerializeValue@libmedia@5@H@Z 10009140 f i umodsys_lib_libmedia:umodsys.mod.media.serialize_json.obj
 0001:000084d0       ?put_key@RSerializeWriter@serialize_json@media@modules@UModSys@@UAE_NABU?$TString@U?$TSCoreConst@D@su@tl@UModSys@@U?$TComparerBinaryHash@D@234@@tl@5@ABUSSerializeValue@libmedia@5@H@Z 100094d0 f i umodsys_lib_libmedia:umodsys.mod.media.serialize_json.obj
 0001:00008590       ?put_begin@RSerializeWriter@serialize_json@media@modules@UModSys@@UAE_NABU?$TString@U?$TSCoreConst@D@su@tl@UModSys@@U?$TComparerBinaryHash@D@234@@tl@5@W4eType@SSerializeValue@libmedia@5@H@Z 10009590 f i umodsys_lib_libmedia:umodsys.mod.media.serialize_json.obj
 0001:000086c0       ?put_end@RSerializeWriter@serialize_json@media@modules@UModSys@@UAE_NXZ 100096c0 f i umodsys_lib_libmedia:umodsys.mod.media.serialize_json.obj
 0001:00008780       ?write_s@RSerializeWriter@serialize_json@media@modules@UModSys@@IAE_NABUStr@SSerializeValue@libmedia@5@@Z 10009780 f i umodsys_lib_libmedia:umodsys.mod.media.serialize_json.obj
 0001:00008840       ?skip@RSerializeWriter@serialize_json@media@modules@UModSys@@IAE_NH@Z 10009840 f i umodsys_lib_libmedia:umodsys.mod.media.serialize_json.obj
 0001:000088a0       ?delim@RSerializeWriter@serialize_json@media@modules@UModSys@@IAE_NAAUNode@12345@H@Z 100098a0 f i umodsys_lib_libmedia:umodsys.mod.media.serialize_json.obj
 0001:000088e0       ?writef@RSerializeWriter@serialize_json@media@modules@UModSys@@IAA_NPBDZZ 100098e0 f i umodsys_lib_libmedia:umodsys.mod.media.serialize_json.obj
 0001:00008940       ??0RSerializeWriter@serialize_json@media@modules@UModSys@@QAE@PAUIModObject@base@4@ABUSParameters@core@4@@Z 10009940 f i umodsys_lib_libmedia:umodsys.mod.media.serialize_json.obj
 0001:00008a60       ??1RSerializeWriter@serialize_json@media@modules@UModSys@@UAE@XZ 10009a60 f i umodsys_lib_libmedia:umodsys.mod.media.serialize_json.obj
 0001:00008b40       ??_ERSerializeWriter@serialize_json@media@modules@UModSys@@UAEPAXI@Z 10009b40 f i  CIL library: CIL module
 0001:00008b40       ??_GRSerializeWriter@serialize_json@media@modules@UModSys@@UAEPAXI@Z 10009b40 f i umodsys_lib_libmedia:umodsys.mod.media.serialize_json.obj
 0001:00008b60       ?get_generated_names@RGenerator@serialize_json@media@modules@UModSys@@UBEHAAUSUniquePtrList@core@5@@Z 10009b60 f i umodsys_lib_libmedia:umodsys.mod.media.serialize_json.obj
 0001:00008b90       ?get_generated_types@RGenerator@serialize_json@media@modules@UModSys@@UBEHAAUSUniquePtrList@core@5@PBUSUniquePointerInfo@75@@Z 10009b90 f i umodsys_lib_libmedia:umodsys.mod.media.serialize_json.obj
 0001:00008c00       ?generate@RGenerator@serialize_json@media@modules@UModSys@@UAE_NAAU?$TRefObject@UIRefObject@core@UModSys@@U?$TRefObjectFunc@UIRefObject@core@UModSys@@@tl@3@@tl@5@PBUSUniquePointerInfo@core@5@ABUSParameters@95@@Z 10009c00 f i umodsys_lib_libmedia:umodsys.mod.media.serialize_json.obj
 0001:00008c60       ?root_get_interface_info@RGenerator@serialize_json@media@modules@UModSys@@UBEABUSUniquePointerInfo@core@5@XZ 10009c60 f i umodsys_lib_libmedia:umodsys.mod.media.serialize_json.obj
 0001:00008c70       ?root_get_interface_type@RGenerator@serialize_json@media@modules@UModSys@@UBEPBUSUniquePointerInfo@core@5@XZ 10009c70 f i umodsys_lib_libmedia:umodsys.mod.media.serialize_json.obj
 0001:00008c80       ?root_get_other_interface@RGenerator@serialize_json@media@modules@UModSys@@UBEPBUIRoot@core@5@PBUSUniquePointerInfo@75@@Z 10009c80 f i umodsys_lib_libmedia:umodsys.mod.media.serialize_json.obj
 0001:00008c80       ?root_get_other_interface@RGenerator@serialize_json@media@modules@UModSys@@UAEPAUIRoot@core@5@PBUSUniquePointerInfo@75@@Z 10009c80 f i umodsys_lib_libmedia:umodsys.mod.media.serialize_json.obj
 0001:00008cc0       ?root_is_interface_supported@RGenerator@serialize_json@media@modules@UModSys@@UBE_NPBUSUniquePointerInfo@core@5@@Z 10009cc0 f i umodsys_lib_libmedia:umodsys.mod.media.serialize_json.obj
 0001:00008d00       ?get_uid@RGenerator@serialize_json@media@modules@UModSys@@UBEPBUSUniquePointerInfo@core@5@XZ 10009d00 f i umodsys_lib_libmedia:umodsys.mod.media.serialize_json.obj
 0001:00008d10       ?do_open@RModuleReg@serialize_json@media@modules@UModSys@@UAE_NXZ 10009d10 f i umodsys_lib_libmedia:umodsys.mod.media.serialize_json.obj
 0001:00008d20       ?do_close@RModuleReg@serialize_json@media@modules@UModSys@@UAE_NXZ 10009d20 f i umodsys_lib_libmedia:umodsys.mod.media.serialize_json.obj
 0001:00008d30       ??_GRModuleReg@serialize_json@media@modules@UModSys@@UAEPAXI@Z 10009d30 f i umodsys_lib_libmedia:umodsys.mod.media.serialize_json.obj
 0001:00008d30       ??_ERModuleReg@serialize_json@media@modules@UModSys@@UAEPAXI@Z 10009d30 f i  CIL library: CIL module
 0001:00008d60       ??1?$TTextStreamReaderBuf@D$0BAAA@@libmedia@UModSys@@QAE@XZ 10009d60 f i umodsys_lib_libmedia:umodsys.mod.media.serialize_json.obj
 0001:00008d80       ??1?$TDynarrayDynamic@DU?$TAllocator@USIMemAlloc@core@UModSys@@USCountCalcPower2@23@@tl@UModSys@@@tl@UModSys@@QAE@XZ 10009d80 f i umodsys_lib_libmedia:umodsys.mod.media.serialize_json.obj
 0001:00008db0       ?Clear@?$TDynarray@U?$TDynarrayHolderDynamic@DU?$TAllocator@USIMemAlloc@core@UModSys@@USCountCalcPower2@23@@tl@UModSys@@@tl@UModSys@@@tl@UModSys@@QAE_NXZ 10009db0 f i umodsys_lib_libmedia:umodsys.mod.media.serialize_json.obj
 0001:00008df0       ??1?$TDynarrayDynamic@UNode@RSerializeReader@serialize_json@media@modules@UModSys@@U?$TAllocator@USIMemAlloc@core@UModSys@@USCountCalcPower2@23@@tl@6@@tl@UModSys@@QAE@XZ 10009df0 f i umodsys_lib_libmedia:umodsys.mod.media.serialize_json.obj
 0001:00008e40       ??1?$TDynarrayDynamic@UNode@RSerializeWriter@serialize_json@media@modules@UModSys@@U?$TAllocator@USIMemAlloc@core@UModSys@@USCountCalcPower2@23@@tl@6@@tl@UModSys@@QAE@XZ 10009e40 f i umodsys_lib_libmedia:umodsys.mod.media.serialize_json.obj
 0001:00008e70       ??1?$TTextStreamWriterBuf@D$0BAAA@@libmedia@UModSys@@QAE@XZ 10009e70 f i umodsys_lib_libmedia:umodsys.mod.media.serialize_json.obj
 0001:00008e80       ?put_z@?$TTextStreamWriter@D@libmedia@UModSys@@QAE_NPBD@Z 10009e80 f i umodsys_lib_libmedia:umodsys.mod.media.serialize_json.obj
 0001:00008ec0       ?check@?$TTextStreamReader@D@libmedia@UModSys@@IAE_NI@Z 10009ec0 f i umodsys_lib_libmedia:umodsys.mod.media.serialize_json.obj
 0001:00008f70       ??1?$TTextStreamWriter@D@libmedia@UModSys@@QAE@XZ 10009f70 f i umodsys_lib_libmedia:umodsys.mod.media.serialize_json.obj
 0001:00008ff0       ?put_chars@?$TTextStreamWriter@D@libmedia@UModSys@@QAE_NPBDI@Z 10009ff0 f i umodsys_lib_libmedia:umodsys.mod.media.serialize_json.obj
 0001:00009080       ?Free@?$TDynarray@U?$TDynarrayHolderDynamic@DU?$TAllocator@USIMemAlloc@core@UModSys@@USCountCalcPower2@23@@tl@UModSys@@@tl@UModSys@@@tl@UModSys@@QAE_NXZ 1000a080 f i umodsys_lib_libmedia:umodsys.mod.media.serialize_json.obj
 0001:000090e0       ?Free@?$TDynarray@U?$TDynarrayHolderDynamic@UNode@RSerializeWriter@serialize_json@media@modules@UModSys@@U?$TAllocator@USIMemAlloc@core@UModSys@@USCountCalcPower2@23@@tl@6@@tl@UModSys@@@tl@UModSys@@QAE_NXZ 1000a0e0 f i umodsys_lib_libmedia:umodsys.mod.media.serialize_json.obj
 0001:00009150       ?Resize@?$TDynarray@U?$TDynarrayHolderDynamic@UNode@RSerializeReader@serialize_json@media@modules@UModSys@@U?$TAllocator@USIMemAlloc@core@UModSys@@USCountCalcPower2@23@@tl@6@@tl@UModSys@@@tl@UModSys@@QAE_NI@Z 1000a150 f i umodsys_lib_libmedia:umodsys.mod.media.serialize_json.obj
 0001:000091c0       ?Push@?$TDynarray@U?$TDynarrayHolderDynamic@DU?$TAllocator@USIMemAlloc@core@UModSys@@USCountCalcPower2@23@@tl@UModSys@@@tl@UModSys@@@tl@UModSys@@QAE_NABD@Z 1000a1c0 f i umodsys_lib_libmedia:umodsys.mod.media.serialize_json.obj
 0001:00009230       ?Reserve@?$TDynarray@U?$TDynarrayHolderDynamic@DU?$TAllocator@USIMemAlloc@core@UModSys@@USCountCalcPower2@23@@tl@UModSys@@@tl@UModSys@@@tl@UModSys@@QAE_NI@Z 1000a230 f i umodsys_lib_libmedia:umodsys.mod.media.serialize_json.obj
 0001:00009280       ?Push@?$TDynarray@U?$TDynarrayHolderDynamic@UNode@RSerializeReader@serialize_json@media@modules@UModSys@@U?$TAllocator@USIMemAlloc@core@UModSys@@USCountCalcPower2@23@@tl@6@@tl@UModSys@@@tl@UModSys@@QAE_NABUNode@RSerializeReader@serialize_json@media@modules@3@@Z 1000a280 f i umodsys_lib_libmedia:umodsys.mod.media.serialize_json.obj
 0001:000092c0       ?Push@?$TDynarray@U?$TDynarrayHolderDynamic@UNode@RSerializeWriter@serialize_json@media@modules@UModSys@@U?$TAllocator@USIMemAlloc@core@UModSys@@USCountCalcPower2@23@@tl@6@@tl@UModSys@@@tl@UModSys@@QAE_NABUNode@RSerializeWriter@serialize_json@media@modules@3@@Z 1000a2c0 f i umodsys_lib_libmedia:umodsys.mod.media.serialize_json.obj
 0001:00009320       ??$t_gen_param@URSerializeReader@serialize_json@media@modules@UModSys@@URGenerator@2345@@IGenerator@base@UModSys@@IAE_NPAURGenerator@serialize_json@media@modules@2@AAU?$TRefObject@UIRefObject@core@UModSys@@U?$TRefObjectFunc@UIRefObject@core@UModSys@@@tl@3@@tl@2@PBUSUniquePointerInfo@core@2@ABUSParameters@core@2@@Z 1000a320 f i umodsys_lib_libmedia:umodsys.mod.media.serialize_json.obj
 0001:000093a0       ??$t_gen_param@URSerializeWriter@serialize_json@media@modules@UModSys@@URGenerator@2345@@IGenerator@base@UModSys@@IAE_NPAURGenerator@serialize_json@media@modules@2@AAU?$TRefObject@UIRefObject@core@UModSys@@U?$TRefObjectFunc@UIRefObject@core@UModSys@@@tl@3@@tl@2@PBUSUniquePointerInfo@core@2@ABUSParameters@core@2@@Z 1000a3a0 f i umodsys_lib_libmedia:umodsys.mod.media.serialize_json.obj
 0001:00009420       ??$smemmove@D@su@tl@UModSys@@YAXPADPBDI@Z 1000a420 f i umodsys_lib_libmedia:umodsys.mod.media.serialize_json.obj
 0001:00009430       ?ReLink@?$TDynarray@U?$TDynarrayHolderDynamic@DU?$TAllocator@USIMemAlloc@core@UModSys@@USCountCalcPower2@23@@tl@UModSys@@@tl@UModSys@@@tl@UModSys@@IAE_NI@Z 1000a430 f i umodsys_lib_libmedia:umodsys.mod.media.serialize_json.obj
 0001:00009470       ?ReLink@?$TDynarray@U?$TDynarrayHolderDynamic@UNode@RSerializeReader@serialize_json@media@modules@UModSys@@U?$TAllocator@USIMemAlloc@core@UModSys@@USCountCalcPower2@23@@tl@6@@tl@UModSys@@@tl@UModSys@@IAE_NI@Z 1000a470 f i umodsys_lib_libmedia:umodsys.mod.media.serialize_json.obj
 0001:000094c0       ?ReLink@?$TDynarray@U?$TDynarrayHolderDynamic@UNode@RSerializeWriter@serialize_json@media@modules@UModSys@@U?$TAllocator@USIMemAlloc@core@UModSys@@USCountCalcPower2@23@@tl@6@@tl@UModSys@@@tl@UModSys@@IAE_NI@Z 1000a4c0 f i umodsys_lib_libmedia:umodsys.mod.media.serialize_json.obj
 0001:000094c0       ?ReLink@?$TDynarray@U?$TDynarrayHolderDynamic@USImageCellInfo@lib2d@UModSys@@U?$TAllocator@USIMemAlloc@core@UModSys@@USCountCalcPower2@23@@tl@3@@tl@UModSys@@@tl@UModSys@@IAE_NI@Z 1000a4c0 f i umodsys_lib_lib2d:umodsys.mod.2d.stdlib.obj
 0001:00009510       ?items_construct@?$TDynarray@U?$TDynarrayHolderDynamic@UNode@RSerializeWriter@serialize_json@media@modules@UModSys@@U?$TAllocator@USIMemAlloc@core@UModSys@@USCountCalcPower2@23@@tl@6@@tl@UModSys@@@tl@UModSys@@IAEXII@Z 1000a510 f i umodsys_lib_libmedia:umodsys.mod.media.serialize_json.obj
 0001:00009550       ??$ValidateConstruction@UIRefObject@core@UModSys@@URSerializeReader@serialize_json@media@modules@3@@core@UModSys@@YA_NAAU?$TRefObject@UIRefObject@core@UModSys@@U?$TRefObjectFunc@UIRefObject@core@UModSys@@@tl@3@@tl@1@PAURSerializeReader@serialize_json@media@modules@1@@Z 1000a550 f i umodsys_lib_libmedia:umodsys.mod.media.serialize_json.obj
 0001:000095e0       ??$ValidateConstruction@UIRefObject@core@UModSys@@URSerializeWriter@serialize_json@media@modules@3@@core@UModSys@@YA_NAAU?$TRefObject@UIRefObject@core@UModSys@@U?$TRefObjectFunc@UIRefObject@core@UModSys@@@tl@3@@tl@1@PAURSerializeWriter@serialize_json@media@modules@1@@Z 1000a5e0 f i umodsys_lib_libmedia:umodsys.mod.media.serialize_json.obj
 0001:00009670       ??1SBuffer@libmedia@UModSys@@QAE@XZ 1000a670 f i umodsys_lib_libmedia:umodsys.mod.media.zlib.obj
 0001:000096e0       ??0SBuffer@libmedia@UModSys@@QAE@PAUIUtilities@12@@Z 1000a6e0 f i umodsys_lib_libmedia:umodsys.mod.media.zlib.obj
 0001:00009710       ?get@Holder@fileFilePrefix@zlib@media@modules@UModSys@@QAEXXZ 1000a710 f i umodsys_lib_libmedia:umodsys.mod.media.zlib.obj
 0001:00009760       ?set@Holder@fileFilePrefix@zlib@media@modules@UModSys@@QAEXXZ 1000a760 f i umodsys_lib_libmedia:umodsys.mod.media.zlib.obj
 0001:000097b0       ?root_get_interface_info@RBinArchiveFrameClient_ZIP@zlib@media@modules@UModSys@@UBEABUSUniquePointerInfo@core@5@XZ 1000a7b0 f i umodsys_lib_libmedia:umodsys.mod.media.zlib.obj
 0001:000097c0       ?root_get_interface_type@RBinArchiveFrameClient_ZIP@zlib@media@modules@UModSys@@UBEPBUSUniquePointerInfo@core@5@XZ 1000a7c0 f i umodsys_lib_libmedia:umodsys.mod.media.zlib.obj
 0001:000097d0       ?root_get_other_interface@RBinArchiveFrameClient_ZIP@zlib@media@modules@UModSys@@UBEPBUIRoot@core@5@PBUSUniquePointerInfo@75@@Z 1000a7d0 f i umodsys_lib_libmedia:umodsys.mod.media.zlib.obj
 0001:000097d0       ?root_get_other_interface@RBinArchiveFrameClient_ZIP@zlib@media@modules@UModSys@@UAEPAUIRoot@core@5@PBUSUniquePointerInfo@75@@Z 1000a7d0 f i umodsys_lib_libmedia:umodsys.mod.media.zlib.obj
 0001:00009800       ?root_is_interface_supported@RBinArchiveFrameClient_ZIP@zlib@media@modules@UModSys@@UBE_NPBUSUniquePointerInfo@core@5@@Z 1000a800 f i umodsys_lib_libmedia:umodsys.mod.media.zlib.obj
 0001:00009840       ?suicide@RTerminal@SDL_GL@ui@modules@UModSys@@UAEXXZ 1000a840 f i umodsys_lib_libui:umodsys.mod.ui.SDL_GL.obj
 0001:00009840       ?suicide@RMultiImage@stdlib@lib2d@modules@UModSys@@UAEXXZ 1000a840 f i umodsys_lib_lib2d:umodsys.mod.2d.stdlib.obj
 0001:00009840       ?suicide@RTerminal@SDL_core@ui@modules@UModSys@@UAEXXZ 1000a840 f i umodsys_lib_libui:umodsys.mod.ui.SDL_core.obj
 0001:00009840       ?suicide@RImageFactory_Memory@stdlib@lib2d@modules@UModSys@@UAEXXZ 1000a840 f i umodsys_lib_lib2d:umodsys.mod.2d.stdlib.obj
 0001:00009840       ?suicide@RImage_Memory@stdlib@lib2d@modules@UModSys@@UAEXXZ 1000a840 f i umodsys_lib_lib2d:umodsys.mod.2d.stdlib.obj
 0001:00009840       ?suicide@RSerializeReader@serialize_json@media@modules@UModSys@@UAEXXZ 1000a840 f i umodsys_lib_libmedia:umodsys.mod.media.serialize_json.obj
 0001:00009840       ?suicide@RBinArchiveFrameClient_ZIP@zlib@media@modules@UModSys@@UAEXXZ 1000a840 f i umodsys_lib_libmedia:umodsys.mod.media.zlib.obj
 0001:00009850       ??0RBinArchiveFrameClient_ZIP@zlib@media@modules@UModSys@@QAE@PAUIModObject@base@4@ABUSParameters@core@4@@Z 1000a850 f i umodsys_lib_libmedia:umodsys.mod.media.zlib.obj
 0001:000098c0       ??_GRBinArchiveFrameClient_ZIP@zlib@media@modules@UModSys@@UAEPAXI@Z 1000a8c0 f i umodsys_lib_libmedia:umodsys.mod.media.zlib.obj
 0001:000098c0       ??_ERBinArchiveFrameClient_ZIP@zlib@media@modules@UModSys@@UAEPAXI@Z 1000a8c0 f i  CIL library: CIL module
 0001:000098f0       ?get_generated_names@RGenerator@zlib@media@modules@UModSys@@UBEHAAUSUniquePtrList@core@5@@Z 1000a8f0 f i umodsys_lib_libmedia:umodsys.mod.media.zlib.obj
 0001:00009910       ?get_generated_types@RGenerator@zlib@media@modules@UModSys@@UBEHAAUSUniquePtrList@core@5@PBUSUniquePointerInfo@75@@Z 1000a910 f i umodsys_lib_libmedia:umodsys.mod.media.zlib.obj
 0001:00009960       ?generate@RGenerator@zlib@media@modules@UModSys@@UAE_NAAU?$TRefObject@UIRefObject@core@UModSys@@U?$TRefObjectFunc@UIRefObject@core@UModSys@@@tl@3@@tl@5@PBUSUniquePointerInfo@core@5@ABUSParameters@95@@Z 1000a960 f i umodsys_lib_libmedia:umodsys.mod.media.zlib.obj
 0001:00009990       ?root_get_interface_info@RGenerator@zlib@media@modules@UModSys@@UBEABUSUniquePointerInfo@core@5@XZ 1000a990 f i umodsys_lib_libmedia:umodsys.mod.media.zlib.obj
 0001:000099a0       ?root_get_interface_type@RGenerator@zlib@media@modules@UModSys@@UBEPBUSUniquePointerInfo@core@5@XZ 1000a9a0 f i umodsys_lib_libmedia:umodsys.mod.media.zlib.obj
 0001:000099b0       ?root_get_other_interface@RGenerator@zlib@media@modules@UModSys@@UBEPBUIRoot@core@5@PBUSUniquePointerInfo@75@@Z 1000a9b0 f i umodsys_lib_libmedia:umodsys.mod.media.zlib.obj
 0001:000099b0       ?root_get_other_interface@RGenerator@zlib@media@modules@UModSys@@UAEPAUIRoot@core@5@PBUSUniquePointerInfo@75@@Z 1000a9b0 f i umodsys_lib_libmedia:umodsys.mod.media.zlib.obj
 0001:000099f0       ?root_is_interface_supported@RGenerator@zlib@media@modules@UModSys@@UBE_NPBUSUniquePointerInfo@core@5@@Z 1000a9f0 f i umodsys_lib_libmedia:umodsys.mod.media.zlib.obj
 0001:00009a30       ?get_uid@RGenerator@zlib@media@modules@UModSys@@UBEPBUSUniquePointerInfo@core@5@XZ 1000aa30 f i umodsys_lib_libmedia:umodsys.mod.media.zlib.obj
 0001:00009a40       ?do_open@RModuleReg@zlib@media@modules@UModSys@@UAE_NXZ 1000aa40 f i umodsys_lib_libmedia:umodsys.mod.media.zlib.obj
 0001:00009a50       ?do_close@RModuleReg@zlib@media@modules@UModSys@@UAE_NXZ 1000aa50 f i umodsys_lib_libmedia:umodsys.mod.media.zlib.obj
 0001:00009a60       ??_ERModuleReg@zlib@media@modules@UModSys@@UAEPAXI@Z 1000aa60 f i  CIL library: CIL module
 0001:00009a60       ??_GRModuleReg@zlib@media@modules@UModSys@@UAEPAXI@Z 1000aa60 f i umodsys_lib_libmedia:umodsys.mod.media.zlib.obj
 0001:00009a90       ?obj_delete@?$TRefObjectLinksModObject@URCollector@frames@ui@modules@UModSys@@UIModObject@base@5@@tl@UModSys@@QBEXPAURCollector@frames@ui@modules@3@@Z 1000aa90 f i umodsys_lib_libui:umodsys.mod.ui.frames.obj
 0001:00009a90       ?obj_delete@?$TRefObjectLinksModObject@URMediaFilter@images_std@media@modules@UModSys@@UIModObject@base@5@@tl@UModSys@@QBEXPAURMediaFilter@images_std@media@modules@3@@Z 1000aa90 f i umodsys_lib_libmedia:umodsys.mod.media.images_std.obj
 0001:00009a90       ?obj_delete@?$TRefObjectLinksModObject@URBinArchiveFrameClient_ZIP@zlib@media@modules@UModSys@@UIModObject@base@5@@tl@UModSys@@QBEXPAURBinArchiveFrameClient_ZIP@zlib@media@modules@3@@Z 1000aa90 f i umodsys_lib_libmedia:umodsys.mod.media.zlib.obj
 0001:00009a90       ?obj_delete@?$TRefObjectLinksModObject@URTest1_Shell@test1@test@modules@UModSys@@UIModObject@base@5@@tl@UModSys@@QBEXPAURTest1_Shell@test1@test@modules@3@@Z 1000aa90 f i plugin_test1.obj
 0001:00009a90       ?obj_delete@?$TRefObjectLinksModObject@URImageFactory_Memory@stdlib@lib2d@modules@UModSys@@UIModObject@base@5@@tl@UModSys@@QBEXPAURImageFactory_Memory@stdlib@lib2d@modules@3@@Z 1000aa90 f i umodsys_lib_lib2d:umodsys.mod.2d.stdlib.obj
 0001:00009a90       ?obj_delete@?$TRefObjectLinksModObject@URSerializeWriter@serialize_json@media@modules@UModSys@@UIModObject@base@5@@tl@UModSys@@QBEXPAURSerializeWriter@serialize_json@media@modules@3@@Z 1000aa90 f i umodsys_lib_libmedia:umodsys.mod.media.serialize_json.obj
 0001:00009a90       ?obj_delete@?$TRefObjectLinksModObject@URTerminal@SDL_core@ui@modules@UModSys@@UIModObject@base@5@@tl@UModSys@@QBEXPAURTerminal@SDL_core@ui@modules@3@@Z 1000aa90 f i umodsys_lib_libui:umodsys.mod.ui.SDL_core.obj
 0001:00009a90       ?obj_delete@?$TRefObjectLinksModObject@URSerializeReader@serialize_json@media@modules@UModSys@@UIModObject@base@5@@tl@UModSys@@QBEXPAURSerializeReader@serialize_json@media@modules@3@@Z 1000aa90 f i umodsys_lib_libmedia:umodsys.mod.media.serialize_json.obj
 0001:00009a90       ?obj_delete@?$TRefObjectLinksModObject@URMultiImage@stdlib@lib2d@modules@UModSys@@UIModObject@base@5@@tl@UModSys@@QBEXPAURMultiImage@stdlib@lib2d@modules@3@@Z 1000aa90 f i umodsys_lib_lib2d:umodsys.mod.2d.stdlib.obj
 0001:00009a90       ?obj_delete@?$TRefObjectLinksModObject@URImage_Memory@stdlib@lib2d@modules@UModSys@@UIModObject@base@5@@tl@UModSys@@QBEXPAURImage_Memory@stdlib@lib2d@modules@3@@Z 1000aa90 f i umodsys_lib_lib2d:umodsys.mod.2d.stdlib.obj
 0001:00009a90       ?obj_delete@?$TRefObjectLinksModObject@URTerminal@SDL_GL@ui@modules@UModSys@@UIModObject@base@5@@tl@UModSys@@QBEXPAURTerminal@SDL_GL@ui@modules@3@@Z 1000aa90 f i umodsys_lib_libui:umodsys.mod.ui.SDL_GL.obj
 0001:00009b00       ??$t_gen_param@URBinArchiveFrameClient_ZIP@zlib@media@modules@UModSys@@URGenerator@2345@@IGenerator@base@UModSys@@IAE_NPAURGenerator@zlib@media@modules@2@AAU?$TRefObject@UIRefObject@core@UModSys@@U?$TRefObjectFunc@UIRefObject@core@UModSys@@@tl@3@@tl@2@PBUSUniquePointerInfo@core@2@ABUSParameters@core@2@@Z 1000ab00 f i umodsys_lib_libmedia:umodsys.mod.media.zlib.obj
 0001:00009b80       ??$ValidateConstruction@UIRefObject@core@UModSys@@URBinArchiveFrameClient_ZIP@zlib@media@modules@3@@core@UModSys@@YA_NAAU?$TRefObject@UIRefObject@core@UModSys@@U?$TRefObjectFunc@UIRefObject@core@UModSys@@@tl@3@@tl@1@PAURBinArchiveFrameClient_ZIP@zlib@media@modules@1@@Z 1000ab80 f i umodsys_lib_libmedia:umodsys.mod.media.zlib.obj
 0001:00009c10       ??_ERModuleLibraryReg_Chain@base@UModSys@@UAEPAXI@Z 1000ac10 f i  CIL library: CIL module
 0001:00009c10       ??_GRModuleLibraryReg_Chain@base@UModSys@@UAEPAXI@Z 1000ac10 f i umodsys_lib_base:umodsys.base.moduleregchain.obj
 0001:00009c30       ??_EIModuleReg@base@UModSys@@UAEPAXI@Z 1000ac30 f i  CIL library: CIL module
 0001:00009c30       ??_GIModuleReg@base@UModSys@@UAEPAXI@Z 1000ac30 f i umodsys_lib_base:umodsys.base.modulereg.obj
 0001:00009c50       ??_GIModuleLibraryReg@base@UModSys@@UAEPAXI@Z 1000ac50 f i umodsys_lib_base:umodsys.base.modulereg.obj
 0001:00009c50       ??_EIModuleLibraryReg@base@UModSys@@UAEPAXI@Z 1000ac50 f i  CIL library: CIL module
 0001:00009c70       ?Find@?$TSet@U?$TArray@PBUSUniquePointerInfo@core@UModSys@@@tl@UModSys@@U?$TScalarCompare@PBUSUniquePointerInfo@core@UModSys@@@core@3@@tl@UModSys@@QBEPBQBUSUniquePointerInfo@core@3@ABQBU453@@Z 1000ac70 f i umodsys_lib_core:umodsys.core.uniqueptrlist.obj
 0001:00009cfb       __onexit                   1000acfb f   MSVCRT:atonexit.obj
 0001:00009da0       _atexit                    1000ada0 f   MSVCRT:atonexit.obj
 0001:00009db8       __purecall                 1000adb8 f   MSVCRT:MSVCR90.dll
 0001:00009dbe       ??3@YAXPAX@Z               1000adbe f   MSVCRT:MSVCR90.dll
 0001:00009dc4       ??_Etype_info@@UAEPAXI@Z   1000adc4 f i MSVCRT:ti_inst.obj
 0001:00009e5f       __CRT_INIT@12              1000ae5f f   MSVCRT:crtdll.obj
 0001:0000a19b       __DllMainCRTStartup@12     1000b19b f   MSVCRT:crtdll.obj
 0001:0000a1be       ??2@YAPAXI@Z               1000b1be f   MSVCRT:MSVCR90.dll
 0001:0000a1c4       __unlock                   1000b1c4 f   MSVCRT:MSVCR90.dll
 0001:0000a1ca       ___dllonexit               1000b1ca f   MSVCRT:MSVCR90.dll
 0001:0000a1d0       __lock                     1000b1d0 f   MSVCRT:MSVCR90.dll
 0001:0000a1d8       __SEH_prolog4              1000b1d8 f   MSVCRT:sehprolg4.obj
 0001:0000a21d       __SEH_epilog4              1000b21d f   MSVCRT:sehprolg4.obj
 0001:0000a231       __except_handler4          1000b231 f   MSVCRT:chandler4gs.obj
 0001:0000a256       ?__ArrayUnwind@@YGXPAXIHP6EX0@Z@Z 1000b256 f   MSVCRT:ehvecdtr.obj
 0001:0000a2b4       ??_M@YGXPAXIHP6EX0@Z@Z     1000b2b4 f   MSVCRT:ehvecdtr.obj
 0001:0000a317       ___clean_type_info_names   1000b317 f   MSVCRT:tncleanup.obj
 0001:0000a323       __RTC_Initialize           1000b323 f   MSVCRT:_initsect_.obj
 0001:0000a349       __RTC_Terminate            1000b349 f   MSVCRT:_initsect_.obj
 0001:0000a370       __ValidateImageBase        1000b370 f   MSVCRT:pesect.obj
 0001:0000a3b0       __FindPESection            1000b3b0 f   MSVCRT:pesect.obj
 0001:0000a400       __IsNonwritableInCurrentImage 1000b400 f   MSVCRT:pesect.obj
 0001:0000a4be       __initterm                 1000b4be f   MSVCRT:MSVCR90.dll
 0001:0000a4c4       __initterm_e               1000b4c4 f   MSVCRT:MSVCR90.dll
 0001:0000a4ca       __amsg_exit                1000b4ca f   MSVCRT:MSVCR90.dll
 0001:0000a4d0       ___CppXcptFilter           1000b4d0 f   MSVCRT:MSVCR90.dll
 0001:0000a4d6       _DllMain@12                1000b4d6 f   MSVCRT:dllmain.obj
 0001:0000a4fa       ___security_init_cookie    1000b4fa f   MSVCRT:gs_support.obj
 0001:0000a590       @__security_check_cookie@4 1000b590 f   MSVCRT:secchk.obj
 0001:0000a5a0       __except_handler4_common   1000b5a0 f   MSVCRT:MSVCR90.dll
 0001:0000a5a6       ?terminate@@YAXXZ          1000b5a6 f   MSVCRT:MSVCR90.dll
 0001:0000a5ac       ??1type_info@@UAE@XZ       1000b5ac f   MSVCRT:MSVCR90.dll
 0001:0000a5ac       ?_type_info_dtor_internal_method@type_info@@QAEXXZ 1000b5ac f   MSVCRT:MSVCR90.dll
 0001:0000a5b2       ___clean_type_info_names_internal 1000b5b2 f   MSVCRT:MSVCR90.dll
 0001:0000a5b8       ___report_gsfailure        1000b5b8 f   MSVCRT:gs_report.obj
 0001:0000a6be       __crt_debugger_hook        1000b6be f   MSVCRT:MSVCR90.dll
 0001:0000a6c4       _crc32                     1000b6c4 f   lib_zlib:lib_zlib.dll
 0001:0000a6ca       _deflateEnd                1000b6ca f   lib_zlib:lib_zlib.dll
 0001:0000a6d0       _inflateInit2_             1000b6d0 f   lib_zlib:lib_zlib.dll
 0001:0000a6d6       _inflate                   1000b6d6 f   lib_zlib:lib_zlib.dll
 0001:0000a6dc       _inflateEnd                1000b6dc f   lib_zlib:lib_zlib.dll
 0001:0000a6e2       _deflate                   1000b6e2 f   lib_zlib:lib_zlib.dll
 0001:0000a6e8       _deflateInit2_             1000b6e8 f   lib_zlib:lib_zlib.dll
 0001:0000a6ee       _png_get_IHDR              1000b6ee f   lib_libpng:lib_libpng.dll
 0001:0000a6f4       _png_write_info            1000b6f4 f   lib_libpng:lib_libpng.dll
 0001:0000a6fa       _png_destroy_write_struct  1000b6fa f   lib_libpng:lib_libpng.dll
 0001:0000a700       _png_set_write_fn          1000b700 f   lib_libpng:lib_libpng.dll
 0001:0000a706       _png_read_info             1000b706 f   lib_libpng:lib_libpng.dll
 0001:0000a70c       _png_sig_cmp               1000b70c f   lib_libpng:lib_libpng.dll
 0001:0000a712       _png_write_rows            1000b712 f   lib_libpng:lib_libpng.dll
 0001:0000a718       _png_create_read_struct    1000b718 f   lib_libpng:lib_libpng.dll
 0001:0000a71e       _png_write_end             1000b71e f   lib_libpng:lib_libpng.dll
 0001:0000a724       _png_get_io_ptr            1000b724 f   lib_libpng:lib_libpng.dll
 0001:0000a72a       _png_create_info_struct    1000b72a f   lib_libpng:lib_libpng.dll
 0001:0000a730       _png_set_read_fn           1000b730 f   lib_libpng:lib_libpng.dll
 0001:0000a736       _png_read_update_info      1000b736 f   lib_libpng:lib_libpng.dll
 0001:0000a73c       _png_set_sig_bytes         1000b73c f   lib_libpng:lib_libpng.dll
 0001:0000a742       _png_set_longjmp_fn        1000b742 f   lib_libpng:lib_libpng.dll
 0001:0000a748       _png_create_write_struct   1000b748 f   lib_libpng:lib_libpng.dll
 0001:0000a74e       _png_read_row              1000b74e f   lib_libpng:lib_libpng.dll
 0001:0000a754       _png_error                 1000b754 f   lib_libpng:lib_libpng.dll
 0001:0000a75a       _png_set_IHDR              1000b75a f   lib_libpng:lib_libpng.dll
 0001:0000a760       _png_destroy_read_struct   1000b760 f   lib_libpng:lib_libpng.dll
 0001:0000a766       _SDL_StopTextInput         1000b766 f   lib_SDL2:lib_SDL2.dll
 0001:0000a76c       _SDL_GL_ExtensionSupported 1000b76c f   lib_SDL2:lib_SDL2.dll
 0001:0000a772       _SDL_Init                  1000b772 f   lib_SDL2:lib_SDL2.dll
 0001:0000a778       _SDL_DestroyWindow         1000b778 f   lib_SDL2:lib_SDL2.dll
 0001:0000a77e       _TTF_GlyphMetrics          1000b77e f   lib_SDL2:lib_SDL2.dll
 0001:0000a784       _SDL_GL_DeleteContext      1000b784 f   lib_SDL2:lib_SDL2.dll
 0001:0000a78a       _SDL_GL_SwapWindow         1000b78a f   lib_SDL2:lib_SDL2.dll
 0001:0000a790       _SDL_CreateWindow          1000b790 f   lib_SDL2:lib_SDL2.dll
 0001:0000a796       _SDL_GL_MakeCurrent        1000b796 f   lib_SDL2:lib_SDL2.dll
 0001:0000a79c       _SDL_GL_CreateContext      1000b79c f   lib_SDL2:lib_SDL2.dll
 0001:0000a7a2       _TTF_OpenFont              1000b7a2 f   lib_SDL2:lib_SDL2.dll
 0001:0000a7a8       _TTF_CloseFont             1000b7a8 f   lib_SDL2:lib_SDL2.dll
 0001:0000a7ae       _TTF_Init                  1000b7ae f   lib_SDL2:lib_SDL2.dll
 0001:0000a7b4       _SDL_PumpEvents            1000b7b4 f   lib_SDL2:lib_SDL2.dll
 0001:0000a7ba       _TTF_RenderGlyph_Shaded    1000b7ba f   lib_SDL2:lib_SDL2.dll
 0001:0000a7c0       _SDL_Delay                 1000b7c0 f   lib_SDL2:lib_SDL2.dll
 0001:0000a7c6       _SDL_GL_GetProcAddress     1000b7c6 f   lib_SDL2:lib_SDL2.dll
 0001:0000a7cc       _SDL_StartTextInput        1000b7cc f   lib_SDL2:lib_SDL2.dll
 0001:0000a7d2       _SDL_PeepEvents            1000b7d2 f   lib_SDL2:lib_SDL2.dll
 0001:0000a7d8       _SDL_GetTicks              1000b7d8 f   lib_SDL2:lib_SDL2.dll
 0001:0000a7de       _SDL_GL_SetAttribute       1000b7de f   lib_SDL2:lib_SDL2.dll
 0001:0000a7e4       _TTF_Quit                  1000b7e4 f   lib_SDL2:lib_SDL2.dll
 0001:0000a7ea       _SDL_Quit                  1000b7ea f   lib_SDL2:lib_SDL2.dll
 0001:0000a7f0       _SDL_FreeSurface           1000b7f0 f   lib_SDL2:lib_SDL2.dll
 0001:0000a7f6       _SDL_RenderDrawLine        1000b7f6 f   lib_SDL2:lib_SDL2.dll
 0001:0000a7fc       _SDL_RenderDrawLines       1000b7fc f   lib_SDL2:lib_SDL2.dll
 0001:0000a802       _SDL_RenderCopy            1000b802 f   lib_SDL2:lib_SDL2.dll
 0001:0000a808       _SDL_DestroyRenderer       1000b808 f   lib_SDL2:lib_SDL2.dll
 0001:0000a80e       _SDL_DestroyTexture        1000b80e f   lib_SDL2:lib_SDL2.dll
 0001:0000a814       _SDL_CreateTextureFromSurface 1000b814 f   lib_SDL2:lib_SDL2.dll
 0001:0000a81a       _SDL_RenderPresent         1000b81a f   lib_SDL2:lib_SDL2.dll
 0001:0000a820       _SDL_SetRenderDrawBlendMode 1000b820 f   lib_SDL2:lib_SDL2.dll
 0001:0000a826       _SDL_SetRenderDrawColor    1000b826 f   lib_SDL2:lib_SDL2.dll
 0001:0000a82c       _SDL_RenderClear           1000b82c f   lib_SDL2:lib_SDL2.dll
 0001:0000a832       _SDL_CreateRenderer        1000b832 f   lib_SDL2:lib_SDL2.dll
 0001:0000a838       _SDL_SetTextureColorMod    1000b838 f   lib_SDL2:lib_SDL2.dll
 0001:0000a83e       _SDL_RenderFillRect        1000b83e f   lib_SDL2:lib_SDL2.dll
 0001:0000a844       _SDL_RenderDrawRect        1000b844 f   lib_SDL2:lib_SDL2.dll
 0001:0000a850       ?utf_nocase32@su@tl@UModSys@@YAHH@Z 1000b850 f   umodsys_lib_core:umodsys.tl.utfcase.obj
 0001:0000cc80       ?utf8_cmp_nocase_bin@su@tl@UModSys@@YAHPBD0II@Z 1000dc80 f   umodsys_lib_core:umodsys.tl.utfcase.obj
 0001:0000cd30       ?t_msec@syshlp@core@UModSys@@YAKXZ 1000dd30 f   umodsys_lib_core:umodsys.core.syshlp_thread.win32.obj
 0001:0000cd40       ??3IRoot@core@UModSys@@SAXPAX@Z 1000dd40 f   umodsys_lib_core:umodsys.core.objects.obj
 0001:0000cd60       ??3IRoot@core@UModSys@@SAXPAXPAUIMemAlloc@12@@Z 1000dd60 f   umodsys_lib_core:umodsys.core.objects.obj
 0001:0000cd80       ??2IRoot@core@UModSys@@SAPAXIPAUIMemAlloc@12@@Z 1000dd80 f   umodsys_lib_core:umodsys.core.objects.obj
 0001:0000cda0       ?suicide@IRoot@core@UModSys@@UAEXXZ 1000dda0 f   umodsys_lib_core:umodsys.core.objects.obj
 0001:0000cdb0       ??1IRoot@core@UModSys@@UAE@XZ 1000ddb0 f   umodsys_lib_core:umodsys.core.objects.obj
 0001:0000cdc0       ??1IRefObject@core@UModSys@@UAE@XZ 1000ddc0 f   umodsys_lib_core:umodsys.core.objects.obj
 0001:0000cdd0       ?lost@core@UModSys@@YAEPBX@Z 1000ddd0 f   umodsys_lib_core:umodsys.core.stdtypedefs.obj
 0001:0000cde0       ?s_unresolve@SUniquePointer@core@UModSys@@SAXPAUIUniquePointerResolver@23@@Z 1000dde0 f   umodsys_lib_core:umodsys.core.uniqueptr.obj
 0001:0000ce20       ?s_resolve@SUniquePointer@core@UModSys@@SAXPAUIUniquePointerResolver@23@@Z 1000de20 f   umodsys_lib_core:umodsys.core.uniqueptr.obj
 0001:0000ce70       ??1SUniquePointer@core@UModSys@@QAE@XZ 1000de70 f   umodsys_lib_core:umodsys.core.uniqueptr.obj
 0001:0000cea0       ??0SUniquePointer@core@UModSys@@QAE@H@Z 1000dea0 f   umodsys_lib_core:umodsys.core.uniqueptr.obj
 0001:0000cec0       ??0SUniquePointer@core@UModSys@@QAE@PBD0H@Z 1000dec0 f   umodsys_lib_core:umodsys.core.uniqueptr.obj
 0001:0000cf10       ?utf_8to32@su@tl@UModSys@@YA_NAAHAAPBDAAI@Z 1000df10 f   umodsys_lib_core:umodsys.tl.utf8.obj
 0001:0000cfe0       ?utf_32to8@su@tl@UModSys@@YAIPADIH@Z 1000dfe0 f   umodsys_lib_core:umodsys.tl.utf8.obj
 0001:0000d0b0       ?utf_8to32_len@su@tl@UModSys@@YAIPBDI@Z 1000e0b0 f   umodsys_lib_core:umodsys.tl.utf8.obj
 0001:0000d0f0       ?utf_8to32@su@tl@UModSys@@YAIPAHIPBDI_N@Z 1000e0f0 f   umodsys_lib_core:umodsys.tl.utf8.obj
 0001:0000d150       ?utf_32to8_len@su@tl@UModSys@@YAIPBHI@Z 1000e150 f   umodsys_lib_core:umodsys.tl.utf8.obj
 0001:0000d1d0       ?utf_32to8@su@tl@UModSys@@YAIPADIPBHI_N@Z 1000e1d0 f   umodsys_lib_core:umodsys.tl.utf8.obj
 0001:0000d210       ??1SModuleInfo@base@UModSys@@QAE@XZ 1000e210 f   umodsys_lib_base:umodsys.base.moduleinfo.obj
 0001:0000d220       ??0SModuleInfo@base@UModSys@@QAE@PBDGG0K_J@Z 1000e220 f   umodsys_lib_base:umodsys.base.moduleinfo.obj
 0001:0000d2c0       ??1IModuleLibraryReg@base@UModSys@@UAE@XZ 1000e2c0 f   umodsys_lib_base:umodsys.base.modulereg.obj
 0001:0000d2d0       ??0IModuleLibraryReg@base@UModSys@@QAE@XZ 1000e2d0 f   umodsys_lib_base:umodsys.base.modulereg.obj
 0001:0000d2e0       ?mr_close@IModuleReg@base@UModSys@@UAE_NXZ 1000e2e0 f   umodsys_lib_base:umodsys.base.modulereg.obj
 0001:0000d320       ?mr_isopen@IModuleReg@base@UModSys@@UBE_NXZ 1000e320 f   umodsys_lib_base:umodsys.base.modulereg.obj
 0001:0000d330       ?mr_getdebug@IModuleReg@base@UModSys@@UBEPAUSDebug@23@XZ 1000e330 f   umodsys_lib_base:umodsys.base.modulereg.obj
 0001:0000d340       ??1IModuleReg@base@UModSys@@UAE@XZ 1000e340 f   umodsys_lib_base:umodsys.base.modulereg.obj
 0001:0000d350       ?mr_open@IModuleReg@base@UModSys@@UAE_NXZ 1000e350 f   umodsys_lib_base:umodsys.base.modulereg.obj
 0001:0000d3b0       ??0IModuleReg@base@UModSys@@QAE@PBDGG0K_JPAUSDebug@12@@Z 1000e3b0 f   umodsys_lib_base:umodsys.base.modulereg.obj
 0001:0000d3f0       _UModSys_Plugin_Entry2@0   1000e3f0 f   umodsys_lib_base:umodsys.so_main.win32.obj
 0001:0000d400       ??1RModuleLibraryReg_Chain@base@UModSys@@UAE@XZ 1000e400 f   umodsys_lib_base:umodsys.base.moduleregchain.obj
 0001:0000d410       ??0RModuleLibraryReg_Chain@base@UModSys@@QAE@XZ 1000e410 f   umodsys_lib_base:umodsys.base.moduleregchain.obj
 0001:0000d430       ?s_get@SModuleRegChain@base@UModSys@@SAPAUIModuleReg@23@I@Z 1000e430 f   umodsys_lib_base:umodsys.base.moduleregchain.obj
 0001:0000d460       ??1SModuleRegChain@base@UModSys@@QAE@XZ 1000e460 f   umodsys_lib_base:umodsys.base.moduleregchain.obj
 0001:0000d490       ??0SModuleRegChain@base@UModSys@@QAE@AAUIModuleReg@12@@Z 1000e490 f   umodsys_lib_base:umodsys.base.moduleregchain.obj
 0001:0000d4d0       ?mlr_isopen@RModuleLibraryReg_Chain@base@UModSys@@UBE_NXZ 1000e4d0 f   umodsys_lib_base:umodsys.base.moduleregchain.obj
 0001:0000d4e0       ?mlr_close@RModuleLibraryReg_Chain@base@UModSys@@UAE_NXZ 1000e4e0 f   umodsys_lib_base:umodsys.base.moduleregchain.obj
 0001:0000d510       ?mlr_open@RModuleLibraryReg_Chain@base@UModSys@@UAE_NPAUISystem@23@PAUIMemAlloc@core@3@@Z 1000e510 f   umodsys_lib_base:umodsys.base.moduleregchain.obj
 0001:0000d540       ?mlr_get@RModuleLibraryReg_Chain@base@UModSys@@UBEPAUIModuleReg@23@I@Z 1000e540 f   umodsys_lib_base:umodsys.base.moduleregchain.obj
 0001:0000d550       ?mlr_count@RModuleLibraryReg_Chain@base@UModSys@@UBEIXZ 1000e550 f   umodsys_lib_base:umodsys.base.moduleregchain.obj
 0001:0000d570       ??0SModuleRegChain@base@UModSys@@QAE@H@Z 1000e570 f   umodsys_lib_base:umodsys.base.moduleregchain.obj
 0001:0000d580       ?put@SDebug@base@UModSys@@QBA_NEW4eConsoleLevels@23@PBDZZ 1000e580 f   umodsys_lib_base:umodsys.base.debug.obj
 0001:0000d5b0       ??1SDebug@base@UModSys@@QAE@XZ 1000e5b0 f   umodsys_lib_base:umodsys.base.debug.obj
 0001:0000d5d0       ??0SDebug@base@UModSys@@QAE@PAUIConsole@12@I@Z 1000e5d0 f   umodsys_lib_base:umodsys.base.debug.obj
 0001:0000d5e0       ?unlink@SMemorySharedData@core@UModSys@@QAEXPBUSSourceContext@23@@Z 1000e5e0 f   umodsys_lib_base:umodsys.base.modulecontext.obj
 0001:0000d600       ?link@SMemorySharedData@core@UModSys@@QAEXPBUSSourceContext@23@@Z 1000e600 f   umodsys_lib_base:umodsys.base.modulecontext.obj
 0001:0000d610       ?Link@SModuleContext@base@UModSys@@QAEXPAUISystem@23@PAUIMemAlloc@core@3@@Z 1000e610 f   umodsys_lib_base:umodsys.base.modulecontext.obj
 0001:0000d670       ??1SModuleContext@base@UModSys@@QAE@XZ 1000e670 f   umodsys_lib_base:umodsys.base.modulecontext.obj
 0001:0000d680       ?new_data@SMemorySharedData@core@UModSys@@SAPAU123@PAUIMemAlloc@23@IPBUSSourceContext@23@@Z 1000e680 f   umodsys_lib_base:umodsys.base.modulecontext.obj
 0001:0000d6a0       ?get_paramworker@SParameters@core@UModSys@@KAPAUIParameters@23@XZ 1000e6a0 f   umodsys_lib_base:umodsys.base.modulecontext.obj
 0001:0000d6b0       ?shared_memory@UModSys@@YAABUSIMemAlloc@core@1@XZ 1000e6b0 f   umodsys_lib_base:umodsys.base.modulecontext.obj
 0001:0000d6c0       ?local_memory@UModSys@@YAABUSIMemAlloc@core@1@XZ 1000e6c0 f   umodsys_lib_base:umodsys.base.modulecontext.obj
 0001:0000d6d0       ??0SModuleContext@base@UModSys@@QAE@XZ 1000e6d0 f   umodsys_lib_base:umodsys.base.modulecontext.obj
 0001:0000d6f0       ?mod_dec@RGenerator@zlib@media@modules@UModSys@@UBE_NXZ 1000e6f0 f   umodsys_lib_libmedia:umodsys.mod.media.zlib.obj
 0001:0000d700       ?mod_inc@RGenerator@zlib@media@modules@UModSys@@UBE_NXZ 1000e700 f   umodsys_lib_libmedia:umodsys.mod.media.zlib.obj
 0001:0000d710       ?get_module@RGenerator@zlib@media@modules@UModSys@@UBEPAUIModule@base@5@XZ 1000e710 f   umodsys_lib_libmedia:umodsys.mod.media.zlib.obj
 0001:0000d720       ?arc_deinit@RBinArchiveFrameClient_ZIP@zlib@media@modules@UModSys@@UAE_NPAUIBinArchiveFrame@libmedia@5@@Z 1000e720 f   umodsys_lib_libmedia:umodsys.mod.media.zlib.obj
 0001:0000d730       ?s_holder@RGenerator@zlib@media@modules@UModSys@@SAAAU?$TTypeStaticHolder@URGenerator@zlib@media@modules@UModSys@@@tl@5@XZ 1000e730 f   umodsys_lib_libmedia:umodsys.mod.media.zlib.obj
 0001:0000d770       ?filew_writedir_start@RBinArchiveFrameClient_ZIP@zlib@media@modules@UModSys@@UAE_NPAUIBinArchiveFrame@libmedia@5@@Z 1000e770 f   umodsys_lib_libmedia:umodsys.mod.media.zlib.obj
 0001:0000d790       ?filew_init@RBinArchiveFrameClient_ZIP@zlib@media@modules@UModSys@@UAE_NPAUIBinArchiveFrame@libmedia@5@PBUSParameters@core@5@@Z 1000e790 f   umodsys_lib_libmedia:umodsys.mod.media.zlib.obj
 0001:0000d7b0       ?arc_init@RBinArchiveFrameClient_ZIP@zlib@media@modules@UModSys@@UAE_NPAUIBinArchiveFrame@libmedia@5@PBUSParameters@core@5@@Z 1000e7b0 f   umodsys_lib_libmedia:umodsys.mod.media.zlib.obj
 0001:0000d820       ?node_info@RBinArchiveFrameClient_ZIP@zlib@media@modules@UModSys@@UAE_NPAUIBinArchiveFrame@libmedia@5@AAUSFileInfo@75@PAUNameNode@675@@Z 1000e820 f   umodsys_lib_libmedia:umodsys.mod.media.zlib.obj
 0001:0000d840       ?data_writer@RBinArchiveFrameClient_ZIP@zlib@media@modules@UModSys@@UAE?AU?$TRefObject@UIStreamWriter@libmedia@UModSys@@U?$TRefObjectFunc@UIStreamWriter@libmedia@UModSys@@@tl@3@@tl@5@PAUIBinArchiveFrame@libmedia@5@ABU?$TString@U?$TSCoreConst@D@su@tl@UModSys@@U?$TComparerBinaryHash@D@234@@75@ABUSFlags@95@@Z 1000e840 f   umodsys_lib_libmedia:umodsys.mod.media.zlib.obj
 0001:0000d860       ?s_unreg@RGenerator@zlib@media@modules@UModSys@@SA_NPAUIModuleReg@base@5@@Z 1000e860 f   umodsys_lib_libmedia:umodsys.mod.media.zlib.obj
 0001:0000d8b0       ?s_reg@RGenerator@zlib@media@modules@UModSys@@SA_NPAUIModuleReg@base@5@@Z 1000e8b0 f   umodsys_lib_libmedia:umodsys.mod.media.zlib.obj
 0001:0000d930       ?filew_writedir_end@RBinArchiveFrameClient_ZIP@zlib@media@modules@UModSys@@UAE_NPAUIBinArchiveFrame@libmedia@5@@Z 1000e930 f   umodsys_lib_libmedia:umodsys.mod.media.zlib.obj
 0001:0000d9e0       ?filew_copy_data@RBinArchiveFrameClient_ZIP@zlib@media@modules@UModSys@@UAE_NPAUIBinArchiveFrame@libmedia@5@PAUNameNode@675@@Z 1000e9e0 f   umodsys_lib_libmedia:umodsys.mod.media.zlib.obj
 0001:0000db50       ?data_reader@RBinArchiveFrameClient_ZIP@zlib@media@modules@UModSys@@UAE?AU?$TRefObject@UIStreamReader@libmedia@UModSys@@U?$TRefObjectFunc@UIStreamReader@libmedia@UModSys@@@tl@3@@tl@5@PAUIBinArchiveFrame@libmedia@5@PAUNameNode@895@ABUSFlags@95@@Z 1000eb50 f   umodsys_lib_libmedia:umodsys.mod.media.zlib.obj
 0001:0000dd30       ?data_save@RBinArchiveFrameClient_ZIP@zlib@media@modules@UModSys@@UAE_NPAUIBinArchiveFrame@libmedia@5@ABUSCMem@core@5@ABU?$TString@U?$TSCoreConst@D@su@tl@UModSys@@U?$TComparerBinaryHash@D@234@@tl@5@ABUSFlags@75@@Z 1000ed30 f   umodsys_lib_libmedia:umodsys.mod.media.zlib.obj
 0001:0000e070       ?data_load@RBinArchiveFrameClient_ZIP@zlib@media@modules@UModSys@@UAE_NPAUIBinArchiveFrame@libmedia@5@AAUSCMemShared@core@5@PAUNameNode@675@ABUSFlags@75@@Z 1000f070 f   umodsys_lib_libmedia:umodsys.mod.media.zlib.obj
 0001:0000e460       ?filew_writedir_entry@RBinArchiveFrameClient_ZIP@zlib@media@modules@UModSys@@UAE_NPAUIBinArchiveFrame@libmedia@5@PAUNameNode@675@@Z 1000f460 f   umodsys_lib_libmedia:umodsys.mod.media.zlib.obj
 0001:0000e5e0       ?filer_scan@RBinArchiveFrameClient_ZIP@zlib@media@modules@UModSys@@UAE_NPAUIBinArchiveFrame@libmedia@5@AAUSMem@core@5@PBUSParameters@95@@Z 1000f5e0 f   umodsys_lib_libmedia:umodsys.mod.media.zlib.obj
 0001:0000e7d0       ?filer_pre_scan@RBinArchiveFrameClient_ZIP@zlib@media@modules@UModSys@@UAE_NPAUIBinArchiveFrame@libmedia@5@AAIPBUSParameters@core@5@@Z 1000f7d0 f   umodsys_lib_libmedia:umodsys.mod.media.zlib.obj
 0001:0000ea30       ?mod_dec@RGenerator@serialize_json@media@modules@UModSys@@UBE_NXZ 1000fa30 f   umodsys_lib_libmedia:umodsys.mod.media.serialize_json.obj
 0001:0000ea40       ?mod_inc@RGenerator@serialize_json@media@modules@UModSys@@UBE_NXZ 1000fa40 f   umodsys_lib_libmedia:umodsys.mod.media.serialize_json.obj
 0001:0000ea50       ?get_module@RGenerator@serialize_json@media@modules@UModSys@@UBEPAUIModule@base@5@XZ 1000fa50 f   umodsys_lib_libmedia:umodsys.mod.media.serialize_json.obj
 0001:0000ea60       ?s_holder@RGenerator@serialize_json@media@modules@UModSys@@SAAAU?$TTypeStaticHolder@URGenerator@serialize_json@media@modules@UModSys@@@tl@5@XZ 1000fa60 f   umodsys_lib_libmedia:umodsys.mod.media.serialize_json.obj
 0001:0000eaa0       ?s_unreg@RGenerator@serialize_json@media@modules@UModSys@@SA_NPAUIModuleReg@base@5@@Z 1000faa0 f   umodsys_lib_libmedia:umodsys.mod.media.serialize_json.obj
 0001:0000eaf0       ?s_reg@RGenerator@serialize_json@media@modules@UModSys@@SA_NPAUIModuleReg@base@5@@Z 1000faf0 f   umodsys_lib_libmedia:umodsys.mod.media.serialize_json.obj
 0001:0000eb70       ?mod_dec@RGenerator@images_std@media@modules@UModSys@@UBE_NXZ 1000fb70 f   umodsys_lib_libmedia:umodsys.mod.media.images_std.obj
 0001:0000eb80       ?mod_inc@RGenerator@images_std@media@modules@UModSys@@UBE_NXZ 1000fb80 f   umodsys_lib_libmedia:umodsys.mod.media.images_std.obj
 0001:0000eb90       ?get_module@RGenerator@images_std@media@modules@UModSys@@UBEPAUIModule@base@5@XZ 1000fb90 f   umodsys_lib_libmedia:umodsys.mod.media.images_std.obj
 0001:0000eba0       ?png_err@RMediaFilter@images_std@media@modules@UModSys@@KAXPAUpng_struct_def@@PBD@Z 1000fba0 f   umodsys_lib_libmedia:umodsys.mod.media.images_std.obj
 0001:0000ebd0       ?saver_jpeg@RMediaFilter@images_std@media@modules@UModSys@@QAE_NPBUIImage@lib2d@5@AAUSInfo@IBinObjFilter@libmedia@5@ABUSParameters@core@5@PBD_N@Z 1000fbd0 f   umodsys_lib_libmedia:umodsys.mod.media.images_std.obj
 0001:0000ec70       ?filter_load@RMediaFilter@images_std@media@modules@UModSys@@UAE_NABUSInfo@IBinObjFilter@libmedia@5@AAU?$TRefObject@UIRefObject@core@UModSys@@U?$TRefObjectFunc@UIRefObject@core@UModSys@@@tl@3@@tl@5@@Z 1000fc70 f   umodsys_lib_libmedia:umodsys.mod.media.images_std.obj
 0001:0000ec80       ?s_holder@RGenerator@images_std@media@modules@UModSys@@SAAAU?$TTypeStaticHolder@URGenerator@images_std@media@modules@UModSys@@@tl@5@XZ 1000fc80 f   umodsys_lib_libmedia:umodsys.mod.media.images_std.obj
 0001:0000ecc0       ?png_write@RMediaFilter@images_std@media@modules@UModSys@@KAXPAUpng_struct_def@@PAEI@Z 1000fcc0 f   umodsys_lib_libmedia:umodsys.mod.media.images_std.obj
 0001:0000ed00       ?png_read@RMediaFilter@images_std@media@modules@UModSys@@KAXPAUpng_struct_def@@PAEI@Z 1000fd00 f   umodsys_lib_libmedia:umodsys.mod.media.images_std.obj
 0001:0000ed40       ?s_unreg@RGenerator@images_std@media@modules@UModSys@@SA_NPAUIModuleReg@base@5@@Z 1000fd40 f   umodsys_lib_libmedia:umodsys.mod.media.images_std.obj
 0001:0000ed90       ?s_reg@RGenerator@images_std@media@modules@UModSys@@SA_NPAUIModuleReg@base@5@@Z 1000fd90 f   umodsys_lib_libmedia:umodsys.mod.media.images_std.obj
 0001:0000ee10       ?saver_png@RMediaFilter@images_std@media@modules@UModSys@@QAE_NPBUIImage@lib2d@5@AAUSInfo@IBinObjFilter@libmedia@5@ABUSParameters@core@5@PBD_N@Z 1000fe10 f   umodsys_lib_libmedia:umodsys.mod.media.images_std.obj
 0001:0000f180       ?loader_png@RMediaFilter@images_std@media@modules@UModSys@@QAE_NPAUIImage@lib2d@5@ABUSInfo@IBinObjFilter@libmedia@5@ABUSParameters@core@5@HPBD_N@Z 10010180 f   umodsys_lib_libmedia:umodsys.mod.media.images_std.obj
 0001:0000f4d0       ?loader_jpeg@RMediaFilter@images_std@media@modules@UModSys@@QAE_NPAUIImage@lib2d@5@ABUSInfo@IBinObjFilter@libmedia@5@ABUSParameters@core@5@HPBD_N@Z 100104d0 f   umodsys_lib_libmedia:umodsys.mod.media.images_std.obj
 0001:0000f7c0       ?filter_save@RMediaFilter@images_std@media@modules@UModSys@@UAE_NAAUSInfo@IBinObjFilter@libmedia@5@PBUIRefObject@core@5@@Z 100107c0 f   umodsys_lib_libmedia:umodsys.mod.media.images_std.obj
 0001:0000f9b0       ?filter_load@RMediaFilter@images_std@media@modules@UModSys@@UAE_NABUSInfo@IBinObjFilter@libmedia@5@PAUIRefObject@core@5@@Z 100109b0 f   umodsys_lib_libmedia:umodsys.mod.media.images_std.obj
 0001:0000fc20       ?mod_dec@RGenerator@frames@ui@modules@UModSys@@UBE_NXZ 10010c20 f   umodsys_lib_libui:umodsys.mod.ui.frames.obj
 0001:0000fc30       ?mod_inc@RGenerator@frames@ui@modules@UModSys@@UBE_NXZ 10010c30 f   umodsys_lib_libui:umodsys.mod.ui.frames.obj
 0001:0000fc40       ?get_module@RGenerator@frames@ui@modules@UModSys@@UBEPAUIModule@base@5@XZ 10010c40 f   umodsys_lib_libui:umodsys.mod.ui.frames.obj
 0001:0000fc50       ??1SButton@frames@ui@modules@UModSys@@QAE@XZ 10010c50 f   umodsys_lib_libui:umodsys.mod.ui.frames.obj
 0001:0000fc60       ?close@RDialog@frames@ui@modules@UModSys@@UAE_NXZ 10010c60 f   umodsys_lib_libui:umodsys.mod.ui.frames.obj
 0001:0000fc80       ?cont_next@RFrame_Common@frames@ui@modules@UModSys@@IAEPAU12345@PAU12345@@Z 10010c80 f   umodsys_lib_libui:umodsys.mod.ui.frames.obj
 0001:0000fd10       ?cont_prev@RFrame_Common@frames@ui@modules@UModSys@@IAEPAU12345@PAU12345@@Z 10010d10 f   umodsys_lib_libui:umodsys.mod.ui.frames.obj
 0001:0000fda0       ?get_collector@RFrame_Common@frames@ui@modules@UModSys@@UAEPAUICollector@libui@5@XZ 10010da0 f   umodsys_lib_libui:umodsys.mod.ui.frames.obj
 0001:0000fdb0       ?dialog_get@RCollector@frames@ui@modules@UModSys@@UAEPAUIDialog@libui@5@XZ 10010db0 f   umodsys_lib_libui:umodsys.mod.ui.frames.obj
 0001:0000fdd0       ?cont_last@RCollector@frames@ui@modules@UModSys@@IAEPAURFrame_Common@2345@PAU62345@@Z 10010dd0 f   umodsys_lib_libui:umodsys.mod.ui.frames.obj
 0001:0000fe10       ?cont_first@RCollector@frames@ui@modules@UModSys@@IAEPAURFrame_Common@2345@PAU62345@@Z 10010e10 f   umodsys_lib_libui:umodsys.mod.ui.frames.obj
 0001:0000fe40       ?set_focused@RCollector@frames@ui@modules@UModSys@@IAE_NPAUIFrame@libui@5@@Z 10010e40 f   umodsys_lib_libui:umodsys.mod.ui.frames.obj
 0001:0000fea0       ?update_size@RCollector@frames@ui@modules@UModSys@@IAE_NABU?$TBoundBox2@H@math3d@5@ABU?$TDynarrayDynamic@U?$TRefObject@URFrame_Common@frames@ui@modules@UModSys@@U?$TRefObjectFunc@URFrame_Common@frames@ui@modules@UModSys@@@tl@5@@tl@UModSys@@U?$TAllocator@USIMemAlloc@core@UModSys@@USCountCalcPower2@23@@23@@tl@5@_N@Z 10010ea0 f   umodsys_lib_libui:umodsys.mod.ui.frames.obj
 0001:0000ff20       ?evmouse@RCollector@frames@ui@modules@UModSys@@IAE_NABU?$TDynarrayDynamic@U?$TRefObject@URFrame_Common@frames@ui@modules@UModSys@@U?$TRefObjectFunc@URFrame_Common@frames@ui@modules@UModSys@@@tl@5@@tl@UModSys@@U?$TAllocator@USIMemAlloc@core@UModSys@@USCountCalcPower2@23@@23@@tl@5@@Z 10010f20 f   umodsys_lib_libui:umodsys.mod.ui.frames.obj
 0001:0000ff80       ?output_attach_3d@RCollector@frames@ui@modules@UModSys@@UAE_NPAUIRenderDriver@lib3d@5@H@Z 10010f80 f   umodsys_lib_libui:umodsys.mod.ui.frames.obj
 0001:0000ff90       ?get_minsize@RCollector@frames@ui@modules@UModSys@@UAE_NAAU?$TVector2@H@math3d@5@@Z 10010f90 f   umodsys_lib_libui:umodsys.mod.ui.frames.obj
 0001:0000ffa0       ?get_maxbox@RCollector@frames@ui@modules@UModSys@@UAE_NAAU?$TBoundBox2@H@math3d@5@@Z 10010fa0 f   umodsys_lib_libui:umodsys.mod.ui.frames.obj
 0001:0000ffb0       ?frame_remove@RCollector@frames@ui@modules@UModSys@@UAE_NPAUIFrame@libui@5@@Z 10010fb0 f   umodsys_lib_libui:umodsys.mod.ui.frames.obj
 0001:0000ffc0       ?get_lcount@RFrame_List@frames@ui@modules@UModSys@@UAEHXZ 10010fc0 f   umodsys_lib_libui:umodsys.mod.ui.frames.obj
 0001:0000ffd0       ?sselect@RFrame_Edit@frames@ui@modules@UModSys@@IAE_NH@Z 10010fd0 f   umodsys_lib_libui:umodsys.mod.ui.frames.obj
 0001:00010000       ?mouse_event@RFrame_Edit@frames@ui@modules@UModSys@@MAE_NPBUSMouseInput@libui@5@@Z 10011000 f   umodsys_lib_libui:umodsys.mod.ui.frames.obj
 0001:00010060       ?dpause@RDialog@frames@ui@modules@UModSys@@QAE_N_N@Z 10011060 f   umodsys_lib_libui:umodsys.mod.ui.frames.obj
 0001:00010080       ?dclose@RDialog@frames@ui@modules@UModSys@@QAE_NXZ 10011080 f   umodsys_lib_libui:umodsys.mod.ui.frames.obj
 0001:000100a0       ?set_focused@RDialog@frames@ui@modules@UModSys@@UAE_NPAUIFrame@libui@5@@Z 100110a0 f   umodsys_lib_libui:umodsys.mod.ui.frames.obj
 0001:00010100       ?get_focused@RDialog@frames@ui@modules@UModSys@@UAEPAUIFrame@libui@5@XZ 10011100 f   umodsys_lib_libui:umodsys.mod.ui.frames.obj
 0001:00010110       ?get_root@RDialog@frames@ui@modules@UModSys@@UAEPAUIFrame@libui@5@XZ 10011110 f   umodsys_lib_libui:umodsys.mod.ui.frames.obj
 0001:00010120       ?is_enabled@RFrame_Common@frames@ui@modules@UModSys@@MAE_NXZ 10011120 f   umodsys_lib_libui:umodsys.mod.ui.frames.obj
 0001:00010160       ?draw@RFrame_Common@frames@ui@modules@UModSys@@MAE_NABUSDrawState@2345@@Z 10011160 f   umodsys_lib_libui:umodsys.mod.ui.frames.obj
 0001:000101e0       ?find_context@RFrame_Common@frames@ui@modules@UModSys@@UAEPAUIFrame@libui@5@HPAUIController@75@@Z 100111e0 f   umodsys_lib_libui:umodsys.mod.ui.frames.obj
 0001:00010240       ?get_sub@RFrame_Common@frames@ui@modules@UModSys@@UAEPAUIFrame@libui@5@PAU675@H@Z 10011240 f   umodsys_lib_libui:umodsys.mod.ui.frames.obj
 0001:00010250       ?get_parent@RFrame_Common@frames@ui@modules@UModSys@@UAEPAUIFrame@libui@5@XZ 10011250 f   umodsys_lib_libui:umodsys.mod.ui.frames.obj
 0001:00010260       ?set_repeater@RFrame_Common@frames@ui@modules@UModSys@@UAE_NHH@Z 10011260 f   umodsys_lib_libui:umodsys.mod.ui.frames.obj
 0001:00010270       ?get_flag@RFrame_Common@frames@ui@modules@UModSys@@UAE_NH@Z 10011270 f   umodsys_lib_libui:umodsys.mod.ui.frames.obj
 0001:000102d0       ?set_flag@RFrame_Common@frames@ui@modules@UModSys@@UAE_NH_N@Z 100112d0 f   umodsys_lib_libui:umodsys.mod.ui.frames.obj
 0001:000103a0       ?s_holder@RGenerator@frames@ui@modules@UModSys@@SAAAU?$TTypeStaticHolder@URGenerator@frames@ui@modules@UModSys@@@tl@5@XZ 100113a0 f   umodsys_lib_libui:umodsys.mod.ui.frames.obj
 0001:000103e0       ?mouse@SButton@frames@ui@modules@UModSys@@QAE_NPBUSMouseInput@libui@5@@Z 100113e0 f   umodsys_lib_libui:umodsys.mod.ui.frames.obj
 0001:00010540       ?dialog_close_all@RCollector@frames@ui@modules@UModSys@@UAE_NXZ 10011540 f   umodsys_lib_libui:umodsys.mod.ui.frames.obj
 0001:000105f0       ?dialog_close@RCollector@frames@ui@modules@UModSys@@UAE_NXZ 100115f0 f   umodsys_lib_libui:umodsys.mod.ui.frames.obj
 0001:000106b0       ?find_next_focused@RCollector@frames@ui@modules@UModSys@@IAEPAURFrame_Common@2345@PAU62345@0_N@Z 100116b0 f   umodsys_lib_libui:umodsys.mod.ui.frames.obj
 0001:00010830       ?broadcast@RCollector@frames@ui@modules@UModSys@@IAEHABU?$TDynarrayDynamic@U?$TRefObject@URFrame_Common@frames@ui@modules@UModSys@@U?$TRefObjectFunc@URFrame_Common@frames@ui@modules@UModSys@@@tl@5@@tl@UModSys@@U?$TAllocator@USIMemAlloc@core@UModSys@@USCountCalcPower2@23@@23@@tl@5@HABUSFrameDataIn@libui@5@H@Z 10011830 f   umodsys_lib_libui:umodsys.mod.ui.frames.obj
 0001:000108c0       ?evmouse@RCollector@frames@ui@modules@UModSys@@IAE_NABU?$TBoundBox2@H@math3d@5@ABU?$TDynarrayDynamic@U?$TRefObject@URFrame_Common@frames@ui@modules@UModSys@@U?$TRefObjectFunc@URFrame_Common@frames@ui@modules@UModSys@@@tl@5@@tl@UModSys@@U?$TAllocator@USIMemAlloc@core@UModSys@@USCountCalcPower2@23@@23@@tl@5@ABUSMouseInput@libui@5@PAURFrame_Common@2345@@Z 100118c0 f   umodsys_lib_libui:umodsys.mod.ui.frames.obj
 0001:00010a20       ?insert@RCollector@frames@ui@modules@UModSys@@IAE_NPAURFrame_Common@2345@0@Z 10011a20 f   umodsys_lib_libui:umodsys.mod.ui.frames.obj
 0001:00010aa0       ?shutdown@RCollector@frames@ui@modules@UModSys@@UAE_NXZ 10011aa0 f   umodsys_lib_libui:umodsys.mod.ui.frames.obj
 0001:00010b40       ?input_attach_k@RCollector@frames@ui@modules@UModSys@@UAE_NPAUIKeyboardController@libui@5@H@Z 10011b40 f   umodsys_lib_libui:umodsys.mod.ui.frames.obj
 0001:00010ba0       ?input_attach_m@RCollector@frames@ui@modules@UModSys@@UAE_NPAUIMouseController@libui@5@H@Z 10011ba0 f   umodsys_lib_libui:umodsys.mod.ui.frames.obj
 0001:00010c10       ?input_process@RCollector@frames@ui@modules@UModSys@@UAE_NH@Z 10011c10 f   umodsys_lib_libui:umodsys.mod.ui.frames.obj
 0001:00010c30       ?output_attach_2d@RCollector@frames@ui@modules@UModSys@@UAE_NPAUIRenderDriver@lib2d@5@H@Z 10011c30 f   umodsys_lib_libui:umodsys.mod.ui.frames.obj
 0001:00010c60       ?sselect@RFrame_List@frames@ui@modules@UModSys@@IAE_NH@Z 10011c60 f   umodsys_lib_libui:umodsys.mod.ui.frames.obj
 0001:00010cf0       ?get_value@RFrame_List@frames@ui@modules@UModSys@@UAE_NHABUSFrameDataOut@libui@5@@Z 10011cf0 f   umodsys_lib_libui:umodsys.mod.ui.frames.obj
 0001:00010d20       ?set_value@RFrame_List@frames@ui@modules@UModSys@@UAE_NHABUSFrameDataIn@libui@5@@Z 10011d20 f   umodsys_lib_libui:umodsys.mod.ui.frames.obj
 0001:00010d50       ?mouse_event@RFrame_List@frames@ui@modules@UModSys@@MAE_NPBUSMouseInput@libui@5@@Z 10011d50 f   umodsys_lib_libui:umodsys.mod.ui.frames.obj
 0001:00010ed0       ?key_event@RFrame_List@frames@ui@modules@UModSys@@MAE_NABUSKeyboardInputRaw@libui@5@@Z 10011ed0 f   umodsys_lib_libui:umodsys.mod.ui.frames.obj
 0001:00010fb0       ?button_cmd@RFrame_List@frames@ui@modules@UModSys@@MAE_NPAUSButton@2345@HH@Z 10011fb0 f   umodsys_lib_libui:umodsys.mod.ui.frames.obj
 0001:000110b0       ?sinsert@RFrame_Edit@frames@ui@modules@UModSys@@IAE_NHPBHH@Z 100120b0 f   umodsys_lib_libui:umodsys.mod.ui.frames.obj
 0001:00011160       ?sdelete@RFrame_Edit@frames@ui@modules@UModSys@@IAE_NHH@Z 10012160 f   umodsys_lib_libui:umodsys.mod.ui.frames.obj
 0001:00011220       ?key_event@RFrame_Edit@frames@ui@modules@UModSys@@MAE_NABUSKeyboardInputRaw@libui@5@@Z 10012220 f   umodsys_lib_libui:umodsys.mod.ui.frames.obj
 0001:000112d0       ?mouse_event@RFrame_Button@frames@ui@modules@UModSys@@MAE_NPBUSMouseInput@libui@5@@Z 100122d0 f   umodsys_lib_libui:umodsys.mod.ui.frames.obj
 0001:000112f0       ?key_event@RFrame_Button@frames@ui@modules@UModSys@@MAE_NABUSKeyboardInputRaw@libui@5@@Z 100122f0 f   umodsys_lib_libui:umodsys.mod.ui.frames.obj
 0001:00011390       ?button_cmd@RFrame_Button@frames@ui@modules@UModSys@@MAE_NPAUSButton@2345@HH@Z 10012390 f   umodsys_lib_libui:umodsys.mod.ui.frames.obj
 0001:00011420       ??0RDialog@frames@ui@modules@UModSys@@QAE@PAURCollector@1234@PAURFrame_Common@1234@@Z 10012420 f   umodsys_lib_libui:umodsys.mod.ui.frames.obj
 0001:000114a0       ?configure@RFrame_Common@frames@ui@modules@UModSys@@UAE_NPBD0ABUSParameters@core@5@@Z 100124a0 f   umodsys_lib_libui:umodsys.mod.ui.frames.obj
 0001:00011570       ??1RCollectorTheme@frames@ui@modules@UModSys@@QAE@XZ 10012570 f   umodsys_lib_libui:umodsys.mod.ui.frames.obj
 0001:00011580       ??0RCollectorTheme@frames@ui@modules@UModSys@@QAE@PAUICollectorThemeTree@libui@4@@Z 10012580 f   umodsys_lib_libui:umodsys.mod.ui.frames.obj
 0001:000115a0       ?get_elem_index@RCollectorTheme@frames@ui@modules@UModSys@@UAEHPBD@Z 100125a0 f   umodsys_lib_libui:umodsys.mod.ui.frames.obj
 0001:00011700       ?get_group_index@RCollectorTheme@frames@ui@modules@UModSys@@UAEHPBD@Z 10012700 f   umodsys_lib_libui:umodsys.mod.ui.frames.obj
 0001:00011850       ?s_unreg@RGenerator@frames@ui@modules@UModSys@@SA_NPAUIModuleReg@base@5@@Z 10012850 f   umodsys_lib_libui:umodsys.mod.ui.frames.obj
 0001:000118a0       ?s_reg@RGenerator@frames@ui@modules@UModSys@@SA_NPAUIModuleReg@base@5@@Z 100128a0 f   umodsys_lib_libui:umodsys.mod.ui.frames.obj
 0001:00011920       ?draw_progress@SButton@frames@ui@modules@UModSys@@QAE_NABUSDrawState@2345@MHHH@Z 10012920 f   umodsys_lib_libui:umodsys.mod.ui.frames.obj
 0001:00011a00       ?draw_arrow@SButton@frames@ui@modules@UModSys@@QAE_NABUSDrawState@2345@HHH@Z 10012a00 f   umodsys_lib_libui:umodsys.mod.ui.frames.obj
 0001:00011b10       ?draw@SButton@frames@ui@modules@UModSys@@QAE_NABUSDrawState@2345@@Z 10012b10 f   umodsys_lib_libui:umodsys.mod.ui.frames.obj
 0001:00011be0       ??0SButton@frames@ui@modules@UModSys@@QAE@PAURFrame_Common@1234@HABUSFrameSize@libui@4@@Z 10012be0 f   umodsys_lib_libui:umodsys.mod.ui.frames.obj
 0001:00011c30       ?dopen@RDialog@frames@ui@modules@UModSys@@QAE_NXZ 10012c30 f   umodsys_lib_libui:umodsys.mod.ui.frames.obj
 0001:00011c70       ?set_focus@RFrame_Common@frames@ui@modules@UModSys@@MAE_N_N@Z 10012c70 f   umodsys_lib_libui:umodsys.mod.ui.frames.obj
 0001:00011cf0       ?dialog_open@RCollector@frames@ui@modules@UModSys@@UAEPAUIDialog@libui@5@PAUIFrame@75@@Z 10012cf0 f   umodsys_lib_libui:umodsys.mod.ui.frames.obj
 0001:00011e50       ??1RCollector@frames@ui@modules@UModSys@@UAE@XZ 10012e50 f   umodsys_lib_libui:umodsys.mod.ui.frames.obj
 0001:00011ff0       ?get_focused@RCollector@frames@ui@modules@UModSys@@IAEPAURFrame_Common@2345@XZ 10012ff0 f   umodsys_lib_libui:umodsys.mod.ui.frames.obj
 0001:00012030       ?update_size@RCollector@frames@ui@modules@UModSys@@IAE_NXZ 10013030 f   umodsys_lib_libui:umodsys.mod.ui.frames.obj
 0001:000121c0       ?draw@RCollector@frames@ui@modules@UModSys@@IAE_NABUSDrawState@2345@ABU?$TDynarrayDynamic@U?$TRefObject@URFrame_Common@frames@ui@modules@UModSys@@U?$TRefObjectFunc@URFrame_Common@frames@ui@modules@UModSys@@@tl@5@@tl@UModSys@@U?$TAllocator@USIMemAlloc@core@UModSys@@USCountCalcPower2@23@@23@@tl@5@@Z 100131c0 f   umodsys_lib_libui:umodsys.mod.ui.frames.obj
 0001:00012280       ?key_text@RCollector@frames@ui@modules@UModSys@@UAE_NABUSKeyboardInputText@libui@5@@Z 10013280 f   umodsys_lib_libui:umodsys.mod.ui.frames.obj
 0001:000122b0       ?mouse_event@RCollector@frames@ui@modules@UModSys@@UAE_NABUSMouseInput@libui@5@@Z 100132b0 f   umodsys_lib_libui:umodsys.mod.ui.frames.obj
 0001:00012320       ?output_process@RCollector@frames@ui@modules@UModSys@@UAE_NXZ 10013320 f   umodsys_lib_libui:umodsys.mod.ui.frames.obj
 0001:00012420       ?button_draw@RFrame_List@frames@ui@modules@UModSys@@MAE_NPAUSButton@2345@ABUSDrawState@2345@H@Z 10013420 f   umodsys_lib_libui:umodsys.mod.ui.frames.obj
 0001:000124e0       ?key_event@RFrame_Edit@frames@ui@modules@UModSys@@MAE_NABUSKeyboardInputText@libui@5@@Z 100134e0 f   umodsys_lib_libui:umodsys.mod.ui.frames.obj
 0001:00012500       ?draw_post@RFrame_Button@frames@ui@modules@UModSys@@MAE_NABUSDrawState@2345@@Z 10013500 f   umodsys_lib_libui:umodsys.mod.ui.frames.obj
 0001:00012520       ?draw_pre@RFrame_Image@frames@ui@modules@UModSys@@MAE_NABUSDrawState@2345@@Z 10013520 f   umodsys_lib_libui:umodsys.mod.ui.frames.obj
 0001:00012630       ??1RDialog@frames@ui@modules@UModSys@@UAE@XZ 10013630 f   umodsys_lib_libui:umodsys.mod.ui.frames.obj
 0001:000126b0       ??1RFrame_Common@frames@ui@modules@UModSys@@UAE@XZ 100136b0 f   umodsys_lib_libui:umodsys.mod.ui.frames.obj
 0001:00012780       ?update_size@RFrame_Common@frames@ui@modules@UModSys@@MAE_NABU?$TBoundBox2@H@math3d@5@@Z 10013780 f   umodsys_lib_libui:umodsys.mod.ui.frames.obj
 0001:000127b0       ?draw_focus@RFrame_Common@frames@ui@modules@UModSys@@MAE_NABUSDrawState@2345@@Z 100137b0 f   umodsys_lib_libui:umodsys.mod.ui.frames.obj
 0001:00012840       ?draw_sub@RFrame_Common@frames@ui@modules@UModSys@@MAE_NABUSDrawState@2345@@Z 10013840 f   umodsys_lib_libui:umodsys.mod.ui.frames.obj
 0001:00012860       ??0RCollector@frames@ui@modules@UModSys@@QAE@PAUIModObject@base@4@ABUSParameters@core@4@@Z 10013860 f   umodsys_lib_libui:umodsys.mod.ui.frames.obj
 0001:00012d90       ?master_key_pressed@RCollector@frames@ui@modules@UModSys@@IAE_NABUSKeyboardInputRaw@libui@5@@Z 10013d90 f   umodsys_lib_libui:umodsys.mod.ui.frames.obj
 0001:00012e10       ?key_pressed@RCollector@frames@ui@modules@UModSys@@UAE_NABUSKeyboardInputRaw@libui@5@@Z 10013e10 f   umodsys_lib_libui:umodsys.mod.ui.frames.obj
 0001:00012e60       ?update_size@RFrame_List@frames@ui@modules@UModSys@@MAE_NABU?$TBoundBox2@H@math3d@5@@Z 10013e60 f   umodsys_lib_libui:umodsys.mod.ui.frames.obj
 0001:00012eb0       ?draw_post@RFrame_List@frames@ui@modules@UModSys@@MAE_NABUSDrawState@2345@@Z 10013eb0 f   umodsys_lib_libui:umodsys.mod.ui.frames.obj
 0001:00013440       ?set_buf@RFrame_Edit@frames@ui@modules@UModSys@@IAE_NPBDH@Z 10014440 f   umodsys_lib_libui:umodsys.mod.ui.frames.obj
 0001:000135e0       ?set_value@RFrame_Edit@frames@ui@modules@UModSys@@UAE_NHABUSFrameDataIn@libui@5@@Z 100145e0 f   umodsys_lib_libui:umodsys.mod.ui.frames.obj
 0001:00013650       ?draw_post@RFrame_Edit@frames@ui@modules@UModSys@@MAE_NABUSDrawState@2345@@Z 10014650 f   umodsys_lib_libui:umodsys.mod.ui.frames.obj
 0001:00013810       ??1RFrame_Button@frames@ui@modules@UModSys@@UAE@XZ 10014810 f   umodsys_lib_libui:umodsys.mod.ui.frames.obj
 0001:00013870       ?update_size@RFrame_Button@frames@ui@modules@UModSys@@MAE_NABU?$TBoundBox2@H@math3d@5@@Z 10014870 f   umodsys_lib_libui:umodsys.mod.ui.frames.obj
 0001:000138a0       ??1RFrame_Image@frames@ui@modules@UModSys@@UAE@XZ 100148a0 f   umodsys_lib_libui:umodsys.mod.ui.frames.obj
 0001:00013910       ??1RFrame_Text@frames@ui@modules@UModSys@@UAE@XZ 10014910 f   umodsys_lib_libui:umodsys.mod.ui.frames.obj
 0001:00013980       ??1RFrame_Frame@frames@ui@modules@UModSys@@UAE@XZ 10014980 f   umodsys_lib_libui:umodsys.mod.ui.frames.obj
 0001:000139a0       ??0RFrame_Common@frames@ui@modules@UModSys@@QAE@PAURCollector@1234@PAU01234@@Z 100149a0 f   umodsys_lib_libui:umodsys.mod.ui.frames.obj
 0001:00013a80       ?set_fcp@RFrame_Common@frames@ui@modules@UModSys@@MAE_NABUSFrameCreateParameters@libui@5@PBUSParameters@core@5@@Z 10014a80 f   umodsys_lib_libui:umodsys.mod.ui.frames.obj
 0001:00013b20       ?set_lvalue@RFrame_List@frames@ui@modules@UModSys@@UAE_NHHABUSFrameDataIn@libui@5@@Z 10014b20 f   umodsys_lib_libui:umodsys.mod.ui.frames.obj
 0001:00013b90       ?set_lcount@RFrame_List@frames@ui@modules@UModSys@@UAE_NH@Z 10014b90 f   umodsys_lib_libui:umodsys.mod.ui.frames.obj
 0001:00013bd0       ?controller_update@RFrame_List@frames@ui@modules@UModSys@@UAE_NXZ 10014bd0 f   umodsys_lib_libui:umodsys.mod.ui.frames.obj
 0001:00013cc0       ?set_fcp@RFrame_List@frames@ui@modules@UModSys@@MAE_NABUSFrameCreateParameters@libui@5@PBUSParameters@core@5@@Z 10014cc0 f   umodsys_lib_libui:umodsys.mod.ui.frames.obj
 0001:00013dc0       ??1RFrame_Edit@frames@ui@modules@UModSys@@UAE@XZ 10014dc0 f   umodsys_lib_libui:umodsys.mod.ui.frames.obj
 0001:00013e50       ??0RFrame_Edit@frames@ui@modules@UModSys@@QAE@PAURCollector@1234@PAURFrame_Common@1234@@Z 10014e50 f   umodsys_lib_libui:umodsys.mod.ui.frames.obj
 0001:00013f60       ?update_last@RFrame_Edit@frames@ui@modules@UModSys@@IAE_NXZ 10014f60 f   umodsys_lib_libui:umodsys.mod.ui.frames.obj
 0001:00013fc0       ?get_value@RFrame_Edit@frames@ui@modules@UModSys@@UAE_NHABUSFrameDataOut@libui@5@@Z 10014fc0 f   umodsys_lib_libui:umodsys.mod.ui.frames.obj
 0001:00014040       ?set_fcp@RFrame_Edit@frames@ui@modules@UModSys@@MAE_NABUSFrameCreateParameters@libui@5@PBUSParameters@core@5@@Z 10015040 f   umodsys_lib_libui:umodsys.mod.ui.frames.obj
 0001:000140b0       ??0RFrame_Button@frames@ui@modules@UModSys@@QAE@PAURCollector@1234@PAURFrame_Common@1234@@Z 100150b0 f   umodsys_lib_libui:umodsys.mod.ui.frames.obj
 0001:000141d0       ?set_fcp@RFrame_Button@frames@ui@modules@UModSys@@MAE_NABUSFrameCreateParameters@libui@5@PBUSParameters@core@5@@Z 100151d0 f   umodsys_lib_libui:umodsys.mod.ui.frames.obj
 0001:00014250       ?button_draw@RFrame_Button@frames@ui@modules@UModSys@@MAE_NPAUSButton@2345@ABUSDrawState@2345@H@Z 10015250 f   umodsys_lib_libui:umodsys.mod.ui.frames.obj
 0001:00014340       ??0RFrame_Image@frames@ui@modules@UModSys@@QAE@PAURCollector@1234@PAURFrame_Common@1234@@Z 10015340 f   umodsys_lib_libui:umodsys.mod.ui.frames.obj
 0001:000143d0       ?set_fcp@RFrame_Image@frames@ui@modules@UModSys@@MAE_NABUSFrameCreateParameters@libui@5@PBUSParameters@core@5@@Z 100153d0 f   umodsys_lib_libui:umodsys.mod.ui.frames.obj
 0001:00014430       ??0RFrame_Text@frames@ui@modules@UModSys@@QAE@PAURCollector@1234@PAURFrame_Common@1234@@Z 10015430 f   umodsys_lib_libui:umodsys.mod.ui.frames.obj
 0001:00014520       ?set_value@RFrame_Text@frames@ui@modules@UModSys@@UAE_NHABUSFrameDataIn@libui@5@@Z 10015520 f   umodsys_lib_libui:umodsys.mod.ui.frames.obj
 0001:00014590       ?set_fcp@RFrame_Text@frames@ui@modules@UModSys@@MAE_NABUSFrameCreateParameters@libui@5@PBUSParameters@core@5@@Z 10015590 f   umodsys_lib_libui:umodsys.mod.ui.frames.obj
 0001:00014610       ?draw_post@RFrame_Text@frames@ui@modules@UModSys@@MAE_NABUSDrawState@2345@@Z 10015610 f   umodsys_lib_libui:umodsys.mod.ui.frames.obj
 0001:000147c0       ??0RFrame_Frame@frames@ui@modules@UModSys@@QAE@PAURCollector@1234@PAURFrame_Common@1234@@Z 100157c0 f   umodsys_lib_libui:umodsys.mod.ui.frames.obj
 0001:00014840       ??1RFrame_List@frames@ui@modules@UModSys@@UAE@XZ 10015840 f   umodsys_lib_libui:umodsys.mod.ui.frames.obj
 0001:000148c0       ??0RFrame_List@frames@ui@modules@UModSys@@QAE@PAURCollector@1234@PAURFrame_Common@1234@@Z 100158c0 f   umodsys_lib_libui:umodsys.mod.ui.frames.obj
 0001:00014a70       ?get_lvalue@RFrame_List@frames@ui@modules@UModSys@@UAE_NHHABUSFrameDataOut@libui@5@@Z 10015a70 f   umodsys_lib_libui:umodsys.mod.ui.frames.obj
 0001:00014b00       ?get_value@RFrame_Text@frames@ui@modules@UModSys@@UAE_NHABUSFrameDataOut@libui@5@@Z 10015b00 f   umodsys_lib_libui:umodsys.mod.ui.frames.obj
 0001:00014b70       ?frame_create_s@RCollector@frames@ui@modules@UModSys@@UAEPAUIFrame@libui@5@ABU?$TString@U?$TSCoreConst@D@su@tl@UModSys@@U?$TComparerBinaryHash@D@234@@tl@5@ABUSFrameCreateParameters@75@PBUSParameters@core@5@@Z 10015b70 f   umodsys_lib_libui:umodsys.mod.ui.frames.obj
 0001:00014e70       ?frame_create_n@RCollector@frames@ui@modules@UModSys@@UAEPAUIFrame@libui@5@HABUSFrameCreateParameters@75@PBUSParameters@core@5@@Z 10015e70 f   umodsys_lib_libui:umodsys.mod.ui.frames.obj
 0001:000150c0       ?mod_dec@RGenerator@SDL_core@ui@modules@UModSys@@UBE_NXZ 100160c0 f   umodsys_lib_libui:umodsys.mod.ui.SDL_core.obj
 0001:000150d0       ?mod_inc@RGenerator@SDL_core@ui@modules@UModSys@@UBE_NXZ 100160d0 f   umodsys_lib_libui:umodsys.mod.ui.SDL_core.obj
 0001:000150e0       ?get_module@RGenerator@SDL_core@ui@modules@UModSys@@UBEPAUIModule@base@5@XZ 100160e0 f   umodsys_lib_libui:umodsys.mod.ui.SDL_core.obj
 0001:000150f0       ?open_drv3d@RTerminalX@SDL_core@ui@modules@UModSys@@UAEPAUIRenderDriver@lib3d@5@PBUSParameters@core@5@@Z 100160f0 f   umodsys_lib_libui:umodsys.mod.ui.SDL_core.obj
 0001:00015100       ?get_drv3d@RTerminalX@SDL_core@ui@modules@UModSys@@UBEPAUIRenderDriver@lib3d@5@XZ 10016100 f   umodsys_lib_libui:umodsys.mod.ui.SDL_core.obj
 0001:00015110       ?get_drv2d@RTerminalX@SDL_core@ui@modules@UModSys@@UBEPAUIRenderDriver@lib2d@5@XZ 10016110 f   umodsys_lib_libui:umodsys.mod.ui.SDL_core.obj
 0001:00015120       ?wait@RTerminal@SDL_core@ui@modules@UModSys@@UAE_NM@Z 10016120 f   umodsys_lib_libui:umodsys.mod.ui.SDL_core.obj
 0001:00015160       ?get_clock@RTerminal@SDL_core@ui@modules@UModSys@@UAENXZ 10016160 f   umodsys_lib_libui:umodsys.mod.ui.SDL_core.obj
 0001:00015180       ?set_terminal_state@RTerminal@SDL_core@ui@modules@UModSys@@UAE_NW4eTerminalState@libui@5@_N@Z 10016180 f   umodsys_lib_libui:umodsys.mod.ui.SDL_core.obj
 0001:000151e0       ?get_terminal_state@RTerminal@SDL_core@ui@modules@UModSys@@UAE_NW4eTerminalState@libui@5@@Z 100161e0 f   umodsys_lib_libui:umodsys.mod.ui.SDL_core.obj
 0001:00015200       ?key_setvisible@RKeyboardController@SDL_core@ui@modules@UModSys@@UAE_N_N@Z 10016200 f   umodsys_lib_libui:umodsys.mod.ui.SDL_core.obj
 0001:00015220       ?key_reset@RKeyboardController@SDL_core@ui@modules@UModSys@@UAE_NXZ 10016220 f   umodsys_lib_libui:umodsys.mod.ui.SDL_core.obj
 0001:00015230       ?key_setrepeat@RKeyboardController@SDL_core@ui@modules@UModSys@@UAE_NMM@Z 10016230 f   umodsys_lib_libui:umodsys.mod.ui.SDL_core.obj
 0001:00015240       ?key_setmodifier@RKeyboardController@SDL_core@ui@modules@UModSys@@UAE_NHHH@Z 10016240 f   umodsys_lib_libui:umodsys.mod.ui.SDL_core.obj
 0001:00015250       ?map_keyspecial@RKeyboardController@SDL_core@ui@modules@UModSys@@QAEFG@Z 10016250 f   umodsys_lib_libui:umodsys.mod.ui.SDL_core.obj
 0001:000152d0       ?map_keyoscode@RKeyboardController@SDL_core@ui@modules@UModSys@@QAEFW4SDL_Scancode@@@Z 100162d0 f   umodsys_lib_libui:umodsys.mod.ui.SDL_core.obj
 0001:000152e0       ?map_keystatus@RKeyboardController@SDL_core@ui@modules@UModSys@@QAEFEE@Z 100162e0 f   umodsys_lib_libui:umodsys.mod.ui.SDL_core.obj
 0001:000152f0       ?map_keycode@RKeyboardController@SDL_core@ui@modules@UModSys@@QAE?AW4eKeyCode@libui@5@H@Z 100162f0 f   umodsys_lib_libui:umodsys.mod.ui.SDL_core.obj
 0001:00015830       ?mouse_setposition@RMouseController@SDL_core@ui@modules@UModSys@@UAE_NHH@Z 10016830 f   umodsys_lib_libui:umodsys.mod.ui.SDL_core.obj
 0001:00015840       ?mouse_setvisible@RMouseController@SDL_core@ui@modules@UModSys@@UAE_N_N@Z 10016840 f   umodsys_lib_libui:umodsys.mod.ui.SDL_core.obj
 0001:00015850       ?mouse_reset@RMouseController@SDL_core@ui@modules@UModSys@@UAE_NXZ 10016850 f   umodsys_lib_libui:umodsys.mod.ui.SDL_core.obj
 0001:00015860       ?set_parameters@RRenderDriver2D@SDL_core@ui@modules@UModSys@@UAE_NPBDABUSParameters@core@5@@Z 10016860 f   umodsys_lib_libui:umodsys.mod.ui.SDL_core.obj
 0001:00015870       ?get_frame_values@RRenderDriver2D@SDL_core@ui@modules@UModSys@@UBEPBUSParameters@core@5@XZ 10016870 f   umodsys_lib_libui:umodsys.mod.ui.SDL_core.obj
 0001:00015880       ?get_max_values@RRenderDriver2D@SDL_core@ui@modules@UModSys@@UBEPBUSParameters@core@5@XZ 10016880 f   umodsys_lib_libui:umodsys.mod.ui.SDL_core.obj
 0001:00015890       ?get_controller@RRenderDriver2D@SDL_core@ui@modules@UModSys@@UBEPAUIRefObject@core@5@PBUSUniquePointerInfo@75@@Z 10016890 f   umodsys_lib_libui:umodsys.mod.ui.SDL_core.obj
 0001:000158a0       ?get_terminal@RRenderDriver2D@SDL_core@ui@modules@UModSys@@UBEPAUITerminal@libui@5@XZ 100168a0 f   umodsys_lib_libui:umodsys.mod.ui.SDL_core.obj
 0001:000158b0       ?kill_texture@RMultiImage2D_SDL_ttf@SDL_core@ui@modules@UModSys@@SAXAAPAUSDL_Texture@@@Z 100168b0 f   umodsys_lib_libui:umodsys.mod.ui.SDL_core.obj
 0001:000158d0       ?close@RMultiImage2D_SDL_ttf@SDL_core@ui@modules@UModSys@@QAEXXZ 100168d0 f   umodsys_lib_libui:umodsys.mod.ui.SDL_core.obj
 0001:000158f0       ?close@SWindow@SDL_core@ui@modules@UModSys@@QAEXXZ 100168f0 f   umodsys_lib_libui:umodsys.mod.ui.SDL_core.obj
 0001:00015910       ??1SWindow@SDL_core@ui@modules@UModSys@@QAE@XZ 10016910 f   umodsys_lib_libui:umodsys.mod.ui.SDL_core.obj
 0001:00015920       ??0SWindow@SDL_core@ui@modules@UModSys@@QAE@XZ 10016920 f   umodsys_lib_libui:umodsys.mod.ui.SDL_core.obj
 0001:00015950       ?s_holder@RGenerator@SDL_core@ui@modules@UModSys@@SAAAU?$TTypeStaticHolder@URGenerator@SDL_core@ui@modules@UModSys@@@tl@5@XZ 10016950 f   umodsys_lib_libui:umodsys.mod.ui.SDL_core.obj
 0001:00015990       ?process@RKeyboardController@SDL_core@ui@modules@UModSys@@QAE_NAAUSDL_TextInputEvent@@@Z 10016990 f   umodsys_lib_libui:umodsys.mod.ui.SDL_core.obj
 0001:00015a80       ?process@RKeyboardController@SDL_core@ui@modules@UModSys@@QAE_NAAUSDL_KeyboardEvent@@@Z 10016a80 f   umodsys_lib_libui:umodsys.mod.ui.SDL_core.obj
 0001:00015b60       ?process@RMouseController@SDL_core@ui@modules@UModSys@@QAE_NAAUSDL_MouseWheelEvent@@@Z 10016b60 f   umodsys_lib_libui:umodsys.mod.ui.SDL_core.obj
 0001:00015c70       ?process@RMouseController@SDL_core@ui@modules@UModSys@@QAE_NAAUSDL_MouseButtonEvent@@@Z 10016c70 f   umodsys_lib_libui:umodsys.mod.ui.SDL_core.obj
 0001:00015da0       ?process@RMouseController@SDL_core@ui@modules@UModSys@@QAE_NAAUSDL_MouseMotionEvent@@@Z 10016da0 f   umodsys_lib_libui:umodsys.mod.ui.SDL_core.obj
 0001:00015ef0       ?render_line@RRenderDriver2D@SDL_core@ui@modules@UModSys@@UAEXABU?$TVector2@H@math3d@5@0@Z 10016ef0 f   umodsys_lib_libui:umodsys.mod.ui.SDL_core.obj
 0001:00015f20       ?render_box@RRenderDriver2D@SDL_core@ui@modules@UModSys@@UAEXPAUIImage@lib2d@5@ABU?$TVector2@H@math3d@5@1ABU?$TVector2@M@95@2@Z 10016f20 f   umodsys_lib_libui:umodsys.mod.ui.SDL_core.obj
 0001:00015f30       ?end@RRenderDriver2D@SDL_core@ui@modules@UModSys@@UAEXXZ 10016f30 f   umodsys_lib_libui:umodsys.mod.ui.SDL_core.obj
 0001:00015f40       ?begin@RRenderDriver2D@SDL_core@ui@modules@UModSys@@UAEXXZ 10016f40 f   umodsys_lib_libui:umodsys.mod.ui.SDL_core.obj
 0001:00016020       ?new_picture@RRenderDriver2D@SDL_core@ui@modules@UModSys@@UAE?AU?$TRefObject@UIImage@lib2d@UModSys@@U?$TRefObjectFunc@UIImage@lib2d@UModSys@@@tl@3@@tl@5@ABUSParameters@core@5@ABU?$TString@U?$TSCoreConst@D@su@tl@UModSys@@U?$TComparerBinaryHash@D@234@@75@@Z 10017020 f   umodsys_lib_libui:umodsys.mod.ui.SDL_core.obj
 0001:00016040       ?set_color@RRenderDriver2D@SDL_core@ui@modules@UModSys@@QAEXXZ 10017040 f   umodsys_lib_libui:umodsys.mod.ui.SDL_core.obj
 0001:00016130       ?close@RRenderDriver2D@SDL_core@ui@modules@UModSys@@QAEXXZ 10017130 f   umodsys_lib_libui:umodsys.mod.ui.SDL_core.obj
 0001:00016160       ?new_texture@RMultiImage2D_SDL_ttf@SDL_core@ui@modules@UModSys@@SA_NAAPAUSDL_Texture@@PAUSDL_Surface@@PAURRenderDriver2D@2345@@Z 10017160 f   umodsys_lib_libui:umodsys.mod.ui.SDL_core.obj
 0001:00016190       ?open@SWindow@SDL_core@ui@modules@UModSys@@QAE_NABUSParameters@core@5@@Z 10017190 f   umodsys_lib_libui:umodsys.mod.ui.SDL_core.obj
 0001:00016240       ?s_unreg@RGenerator@SDL_core@ui@modules@UModSys@@SA_NPAUIModuleReg@base@5@@Z 10017240 f   umodsys_lib_libui:umodsys.mod.ui.SDL_core.obj
 0001:00016290       ?s_reg@RGenerator@SDL_core@ui@modules@UModSys@@SA_NPAUIModuleReg@base@5@@Z 10017290 f   umodsys_lib_libui:umodsys.mod.ui.SDL_core.obj
 0001:00016310       ?close_drvxd@RTerminalX@SDL_core@ui@modules@UModSys@@UAE_NXZ 10017310 f   umodsys_lib_libui:umodsys.mod.ui.SDL_core.obj
 0001:00016320       ?create_handler@RTerminal@SDL_core@ui@modules@UModSys@@UAE_NPBUSUniquePointerInfo@core@5@AAU?$TRefObject@UIRefObject@core@UModSys@@U?$TRefObjectFunc@UIRefObject@core@UModSys@@@tl@3@@tl@5@PBDPBUSParameters@75@@Z 10017320 f   umodsys_lib_libui:umodsys.mod.ui.SDL_core.obj
 0001:000163e0       ?get_friend_handler@RTerminal@SDL_core@ui@modules@UModSys@@UBEPAUIRefObject@core@5@PBUSUniquePointerInfo@75@PAU675@@Z 100173e0 f   umodsys_lib_libui:umodsys.mod.ui.SDL_core.obj
 0001:000163f0       ?get_handler@RTerminal@SDL_core@ui@modules@UModSys@@UBEPAUIRefObject@core@5@PBUSUniquePointerInfo@75@PBD@Z 100173f0 f   umodsys_lib_libui:umodsys.mod.ui.SDL_core.obj
 0001:00016400       ?get_handler@RTerminal@SDL_core@ui@modules@UModSys@@UBEPAUIRefObject@core@5@PBUSUniquePointerInfo@75@I@Z 10017400 f   umodsys_lib_libui:umodsys.mod.ui.SDL_core.obj
 0001:00016470       ?get_count@RTerminal@SDL_core@ui@modules@UModSys@@UBEIPBUSUniquePointerInfo@core@5@@Z 10017470 f   umodsys_lib_libui:umodsys.mod.ui.SDL_core.obj
 0001:000164d0       ?poll_events@RTerminal@SDL_core@ui@modules@UModSys@@UAE_NH@Z 100174d0 f   umodsys_lib_libui:umodsys.mod.ui.SDL_core.obj
 0001:000165f0       ?key_unlink@RKeyboardController@SDL_core@ui@modules@UModSys@@UAE_NH@Z 100175f0 f   umodsys_lib_libui:umodsys.mod.ui.SDL_core.obj
 0001:00016630       ?mouse_unlink@RMouseController@SDL_core@ui@modules@UModSys@@UAE_NH@Z 10017630 f   umodsys_lib_libui:umodsys.mod.ui.SDL_core.obj
 0001:00016670       ?render_rect@RRenderDriver2D@SDL_core@ui@modules@UModSys@@UAEXABU?$TVector2@H@math3d@5@0@Z 10017670 f   umodsys_lib_libui:umodsys.mod.ui.SDL_core.obj
 0001:000166c0       ?render_quad@RRenderDriver2D@SDL_core@ui@modules@UModSys@@UAEXABU?$TVector2@H@math3d@5@000@Z 100176c0 f   umodsys_lib_libui:umodsys.mod.ui.SDL_core.obj
 0001:00016740       ?render_tri@RRenderDriver2D@SDL_core@ui@modules@UModSys@@UAEXABU?$TVector2@H@math3d@5@00@Z 10017740 f   umodsys_lib_libui:umodsys.mod.ui.SDL_core.obj
 0001:000167b0       ?render_box@RRenderDriver2D@SDL_core@ui@modules@UModSys@@UAEXABU?$TVector2@H@math3d@5@0@Z 100177b0 f   umodsys_lib_libui:umodsys.mod.ui.SDL_core.obj
 0001:00016800       ?setup_alpha@RRenderDriver2D@SDL_core@ui@modules@UModSys@@UAEXMH@Z 10017800 f   umodsys_lib_libui:umodsys.mod.ui.SDL_core.obj
 0001:00016820       ?setup_alpha@RRenderDriver2D@SDL_core@ui@modules@UModSys@@UAEXHH@Z 10017820 f   umodsys_lib_libui:umodsys.mod.ui.SDL_core.obj
 0001:00016850       ?setup_blendcolor@RRenderDriver2D@SDL_core@ui@modules@UModSys@@UAEXABUSBlendColorf@lib2d@5@@Z 10017850 f   umodsys_lib_libui:umodsys.mod.ui.SDL_core.obj
 0001:000168b0       ?setup_blendcolor@RRenderDriver2D@SDL_core@ui@modules@UModSys@@UAEXABUSBlendColor@lib2d@5@@Z 100178b0 f   umodsys_lib_libui:umodsys.mod.ui.SDL_core.obj
 0001:00016910       ?setup_coloralpha@RRenderDriver2D@SDL_core@ui@modules@UModSys@@UAEXABU?$TVector4@H@math3d@5@H@Z 10017910 f   umodsys_lib_libui:umodsys.mod.ui.SDL_core.obj
 0001:00016970       ?setup_coloralpha@RRenderDriver2D@SDL_core@ui@modules@UModSys@@UAEXABU?$TVector4@M@math3d@5@H@Z 10017970 f   umodsys_lib_libui:umodsys.mod.ui.SDL_core.obj
 0001:000169b0       ?setup_color@RRenderDriver2D@SDL_core@ui@modules@UModSys@@UAEXABU?$TVector3@H@math3d@5@@Z 100179b0 f   umodsys_lib_libui:umodsys.mod.ui.SDL_core.obj
 0001:00016a00       ?setup_color@RRenderDriver2D@SDL_core@ui@modules@UModSys@@UAEXABU?$TVector3@M@math3d@5@@Z 10017a00 f   umodsys_lib_libui:umodsys.mod.ui.SDL_core.obj
 0001:00016a30       ?setup_font@RRenderDriver2D@SDL_core@ui@modules@UModSys@@UAE_NPAUIMultiImage@lib2d@5@PBU?$TVector2@M@math3d@5@@Z 10017a30 f   umodsys_lib_libui:umodsys.mod.ui.SDL_core.obj
 0001:00016a90       ?open@RRenderDriver2D@SDL_core@ui@modules@UModSys@@QAE_NABUSParameters@core@5@@Z 10017a90 f   umodsys_lib_libui:umodsys.mod.ui.SDL_core.obj
 0001:00016b40       ??1RRenderDriver2D@SDL_core@ui@modules@UModSys@@UAE@XZ 10017b40 f   umodsys_lib_libui:umodsys.mod.ui.SDL_core.obj
 0001:00016c00       ?generate_glyphs@RMultiImage2D_SDL_ttf@SDL_core@ui@modules@UModSys@@QAE_NXZ 10017c00 f   umodsys_lib_libui:umodsys.mod.ui.SDL_core.obj
 0001:00016d10       ?open@RMultiImage2D_SDL_ttf@SDL_core@ui@modules@UModSys@@QAE_NABUSParameters@core@5@@Z 10017d10 f   umodsys_lib_libui:umodsys.mod.ui.SDL_core.obj
 0001:00016dc0       ??1RMultiImage2D_SDL_ttf@SDL_core@ui@modules@UModSys@@UAE@XZ 10017dc0 f   umodsys_lib_libui:umodsys.mod.ui.SDL_core.obj
 0001:00016e30       ??0RMultiImage2D_SDL_ttf@SDL_core@ui@modules@UModSys@@QAE@PAURRenderDriver2D@1234@ABUSParameters@core@4@@Z 10017e30 f   umodsys_lib_libui:umodsys.mod.ui.SDL_core.obj
 0001:00016eb0       ?open_drv2d@RTerminalX@SDL_core@ui@modules@UModSys@@UAEPAUIRenderDriver@lib2d@5@PBUSParameters@core@5@@Z 10017eb0 f   umodsys_lib_libui:umodsys.mod.ui.SDL_core.obj
 0001:00016ed0       ?key_link@RKeyboardController@SDL_core@ui@modules@UModSys@@UAE_NHPAUIRefObject@core@5@PAUIKeyboardClient@libui@5@@Z 10017ed0 f   umodsys_lib_libui:umodsys.mod.ui.SDL_core.obj
 0001:00016f20       ??1RKeyboardController@SDL_core@ui@modules@UModSys@@UAE@XZ 10017f20 f   umodsys_lib_libui:umodsys.mod.ui.SDL_core.obj
 0001:00016f80       ??0RKeyboardController@SDL_core@ui@modules@UModSys@@QAE@PAURTerminal@1234@@Z 10017f80 f   umodsys_lib_libui:umodsys.mod.ui.SDL_core.obj
 0001:00016fa0       ?mouse_link@RMouseController@SDL_core@ui@modules@UModSys@@UAE_NHPAUIRefObject@core@5@PAUIMouseClient@libui@5@H@Z 10017fa0 f   umodsys_lib_libui:umodsys.mod.ui.SDL_core.obj
 0001:00017000       ??1RMouseController@SDL_core@ui@modules@UModSys@@UAE@XZ 10018000 f   umodsys_lib_libui:umodsys.mod.ui.SDL_core.obj
 0001:00017060       ??0RMouseController@SDL_core@ui@modules@UModSys@@QAE@PAURTerminal@1234@@Z 10018060 f   umodsys_lib_libui:umodsys.mod.ui.SDL_core.obj
 0001:00017080       ?render_text_advanced@RRenderDriver2D@SDL_core@ui@modules@UModSys@@UAE_NAAUTextInfo@IRenderDriver@lib2d@5@PBHH@Z 10018080 f   umodsys_lib_libui:umodsys.mod.ui.SDL_core.obj
 0001:00017270       ?new_font@RRenderDriver2D@SDL_core@ui@modules@UModSys@@UAE?AU?$TRefObject@UIMultiImage@lib2d@UModSys@@U?$TRefObjectFunc@UIMultiImage@lib2d@UModSys@@@tl@3@@tl@5@ABUSParameters@core@5@ABU?$TString@U?$TSCoreConst@D@su@tl@UModSys@@U?$TComparerBinaryHash@D@234@@75@@Z 10018270 f   umodsys_lib_libui:umodsys.mod.ui.SDL_core.obj
 0001:00017370       ??1RTerminal@SDL_core@ui@modules@UModSys@@UAE@XZ 10018370 f   umodsys_lib_libui:umodsys.mod.ui.SDL_core.obj
 0001:000173e0       ??0RTerminal@SDL_core@ui@modules@UModSys@@QAE@PAUIModObject@base@4@@Z 100183e0 f   umodsys_lib_libui:umodsys.mod.ui.SDL_core.obj
 0001:00017470       ??0RRenderDriver2D@SDL_core@ui@modules@UModSys@@QAE@PAURTerminalX@1234@@Z 10018470 f   umodsys_lib_libui:umodsys.mod.ui.SDL_core.obj
 0001:00017560       ??1RTerminalX@SDL_core@ui@modules@UModSys@@UAE@XZ 10018560 f   umodsys_lib_libui:umodsys.mod.ui.SDL_core.obj
 0001:000175c0       ??0RTerminalX@SDL_core@ui@modules@UModSys@@QAE@PAUIModObject@base@4@ABUSParameters@core@4@@Z 100185c0 f   umodsys_lib_libui:umodsys.mod.ui.SDL_core.obj
 0001:00017620       ?mod_dec@RGenerator@SDL_GL@ui@modules@UModSys@@UBE_NXZ 10018620 f   umodsys_lib_libui:umodsys.mod.ui.SDL_GL.obj
 0001:00017630       ?mod_inc@RGenerator@SDL_GL@ui@modules@UModSys@@UBE_NXZ 10018630 f   umodsys_lib_libui:umodsys.mod.ui.SDL_GL.obj
 0001:00017640       ?get_module@RGenerator@SDL_GL@ui@modules@UModSys@@UBEPAUIModule@base@5@XZ 10018640 f   umodsys_lib_libui:umodsys.mod.ui.SDL_GL.obj
 0001:00017650       ?h_Rect@SGLFuncs@SDL_GL@ui@modules@UModSys@@UBEXHHHH@Z 10018650 f   umodsys_lib_libui:umodsys.mod.ui.SDL_GL.obj
 0001:00017660       ?h_glColor4fv@SGLFuncs@SDL_GL@ui@modules@UModSys@@UBEXQBM@Z 10018660 f   umodsys_lib_libui:umodsys.mod.ui.SDL_GL.obj
 0001:00017680       ?h_glClientActiveTexture@SGLFuncs@SDL_GL@ui@modules@UModSys@@UBEXH@Z 10018680 f   umodsys_lib_libui:umodsys.mod.ui.SDL_GL.obj
 0001:00017690       ?image_hint_format@SGLFuncs@SDL_GL@ui@modules@UModSys@@SAHW4eImageType@lib2d@5@AAH1@Z 10018690 f   umodsys_lib_libui:umodsys.mod.ui.SDL_GL.obj
 0001:00017710       ?clear_min@SGLFuncsLegacy@SDL_GL@ui@modules@UModSys@@QAEXXZ 10018710 f   umodsys_lib_libui:umodsys.mod.ui.SDL_GL.obj
 0001:00018250       ?check_base@SGLFuncs@SDL_GL@ui@modules@UModSys@@QAE_NPBD@Z 10019250 f   umodsys_lib_libui:umodsys.mod.ui.SDL_GL.obj
 0001:00018300       ?clear_min@SGLFuncs@SDL_GL@ui@modules@UModSys@@QAEXXZ 10019300 f   umodsys_lib_libui:umodsys.mod.ui.SDL_GL.obj
 0001:0001b6f0       ?get_drv3d@RTerminalX@SDL_GL@ui@modules@UModSys@@UBEPAUIRenderDriver@lib3d@5@XZ 1001c6f0 f   umodsys_lib_libui:umodsys.mod.ui.SDL_GL.obj
 0001:0001b700       ?get_drv2d@RTerminalX@SDL_GL@ui@modules@UModSys@@UBEPAUIRenderDriver@lib2d@5@XZ 1001c700 f   umodsys_lib_libui:umodsys.mod.ui.SDL_GL.obj
 0001:0001b710       ?check_single@SArrayFill@RVertexArray@SDL_GL@ui@modules@UModSys@@QAE_NABUSVertexElemInfo@lib3d@6@@Z 1001c710 f   umodsys_lib_libui:umodsys.mod.ui.SDL_GL.obj
 0001:0001b7c0       ?check@SArrayFill@RVertexArray@SDL_GL@ui@modules@UModSys@@QAE_NAAUSVertexElemInfo@lib3d@6@_N@Z 1001c7c0 f   umodsys_lib_libui:umodsys.mod.ui.SDL_GL.obj
 0001:0001b820       ?clear@SArrayFill@RVertexArray@SDL_GL@ui@modules@UModSys@@QAEXXZ 1001c820 f   umodsys_lib_libui:umodsys.mod.ui.SDL_GL.obj
 0001:0001b850       ?get_layer_vdata@RVertexArray@SDL_GL@ui@modules@UModSys@@UBE_NW4eVertexAType@lib3d@5@PAXHHH@Z 1001c850 f   umodsys_lib_libui:umodsys.mod.ui.SDL_GL.obj
 0001:0001b890       ?get_layer_count@RVertexArray@SDL_GL@ui@modules@UModSys@@UBEHXZ 1001c890 f   umodsys_lib_libui:umodsys.mod.ui.SDL_GL.obj
 0001:0001b8a0       ?get_array_count@RVertexArray@SDL_GL@ui@modules@UModSys@@UBEHXZ 1001c8a0 f   umodsys_lib_libui:umodsys.mod.ui.SDL_GL.obj
 0001:0001b8b0       ?is_valid@RVertexArray@SDL_GL@ui@modules@UModSys@@UBE_NXZ 1001c8b0 f   umodsys_lib_libui:umodsys.mod.ui.SDL_GL.obj
 0001:0001b8c0       ?StrideConvert@RVertexArray@SDL_GL@ui@modules@UModSys@@SA_NW4eVertexAType@lib3d@5@EPAXH0EPBXHH@Z 1001c8c0 f   umodsys_lib_libui:umodsys.mod.ui.SDL_GL.obj
 0001:0001b910       ?Upload@RVertexArray@SDL_GL@ui@modules@UModSys@@QAE_NPBXI@Z 1001c910 f   umodsys_lib_libui:umodsys.mod.ui.SDL_GL.obj
 0001:0001b970       ?gl_type@RVertexArray@SDL_GL@ui@modules@UModSys@@SAIW4eVertexAType@lib3d@5@@Z 1001c970 f   umodsys_lib_libui:umodsys.mod.ui.SDL_GL.obj
 0001:0001b9d0       ?setup_state@RRenderDriver3D@SDL_GL@ui@modules@UModSys@@UAE_NABUSRenderState@lib3d@5@@Z 1001c9d0 f   umodsys_lib_libui:umodsys.mod.ui.SDL_GL.obj
 0001:0001b9e0       ?render_text_3d@RRenderDriver3D@SDL_GL@ui@modules@UModSys@@UAEXPBHH@Z 1001c9e0 f   umodsys_lib_libui:umodsys.mod.ui.SDL_GL.obj
 0001:0001b9f0       ?render_particles@RRenderDriver3D@SDL_GL@ui@modules@UModSys@@UAEXPBUSObjectParticle@lib3d@5@@Z 1001c9f0 f   umodsys_lib_libui:umodsys.mod.ui.SDL_GL.obj
 0001:0001ba00       ?render_picture@RRenderDriver3D@SDL_GL@ui@modules@UModSys@@UAEXABUSPicture@lib3d@5@0M@Z 1001ca00 f   umodsys_lib_libui:umodsys.mod.ui.SDL_GL.obj
 0001:0001ba10       ?render_picture@RRenderDriver3D@SDL_GL@ui@modules@UModSys@@UAEXABUSPicture@lib3d@5@@Z 1001ca10 f   umodsys_lib_libui:umodsys.mod.ui.SDL_GL.obj
 0001:0001ba20       ?setup_array_none@RRenderDriver3D@SDL_GL@ui@modules@UModSys@@UAE_NXZ 1001ca20 f   umodsys_lib_libui:umodsys.mod.ui.SDL_GL.obj
 0001:0001ba30       ?setup_array@RRenderDriver3D@SDL_GL@ui@modules@UModSys@@UAE_NPAUIVertexArray@lib3d@5@W4eVertexClass@75@H@Z 1001ca30 f   umodsys_lib_libui:umodsys.mod.ui.SDL_GL.obj
 0001:0001ba40       ?setup_material@RRenderDriver3D@SDL_GL@ui@modules@UModSys@@UAE_NPBUSMaterial@lib3d@5@@Z 1001ca40 f   umodsys_lib_libui:umodsys.mod.ui.SDL_GL.obj
 0001:0001ba50       ?setup_setlight@RRenderDriver3D@SDL_GL@ui@modules@UModSys@@UAE_NH_N@Z 1001ca50 f   umodsys_lib_libui:umodsys.mod.ui.SDL_GL.obj
 0001:0001ba60       ?setup_setlight@RRenderDriver3D@SDL_GL@ui@modules@UModSys@@UAE_NHW4eLightType@lib3d@5@ABUSLight@75@ABU?$TMatrix44@N@math3d@5@@Z 1001ca60 f   umodsys_lib_libui:umodsys.mod.ui.SDL_GL.obj
 0001:0001ba70       ?setup_addlight@RRenderDriver3D@SDL_GL@ui@modules@UModSys@@UAEHW4eLightType@lib3d@5@ABUSLight@75@ABU?$TMatrix44@N@math3d@5@@Z 1001ca70 f   umodsys_lib_libui:umodsys.mod.ui.SDL_GL.obj
 0001:0001ba80       ?setup_clearlights@RRenderDriver3D@SDL_GL@ui@modules@UModSys@@UAE_NW4eLightType@lib3d@5@_N1@Z 1001ca80 f   umodsys_lib_libui:umodsys.mod.ui.SDL_GL.obj
 0001:0001ba90       ?camera_ortho@RRenderDriver3D@SDL_GL@ui@modules@UModSys@@UAE_NABU?$TVector3@N@math3d@5@0@Z 1001ca90 f   umodsys_lib_libui:umodsys.mod.ui.SDL_GL.obj
 0001:0001bb50       ?SetFrustum@RRenderDriver3D@SDL_GL@ui@modules@UModSys@@QAE_NABU?$TVector3@N@math3d@5@NNNN_N@Z 1001cb50 f   umodsys_lib_libui:umodsys.mod.ui.SDL_GL.obj
 0001:0001bc70       ?SetColor@RRenderDriver3D@SDL_GL@ui@modules@UModSys@@QAEXXZ 1001cc70 f   umodsys_lib_libui:umodsys.mod.ui.SDL_GL.obj
 0001:0001bc80       ?map_3d_to_2d@RRenderDriver3D@SDL_GL@ui@modules@UModSys@@UAE_NAAU?$TVector2@H@math3d@5@ABU?$TVector2@M@75@@Z 1001cc80 f   umodsys_lib_libui:umodsys.mod.ui.SDL_GL.obj
 0001:0001bc90       ?map_3d_to_2d@RRenderDriver3D@SDL_GL@ui@modules@UModSys@@UAE_NAAU?$TVector2@H@math3d@5@ABU?$TVector3@N@75@@Z 1001cc90 f   umodsys_lib_libui:umodsys.mod.ui.SDL_GL.obj
 0001:0001bca0       ?map_2d_to_3d@RRenderDriver3D@SDL_GL@ui@modules@UModSys@@UAE_NAAU?$TVector3@N@math3d@5@ABU?$TVector2@H@75@@Z 1001cca0 f   umodsys_lib_libui:umodsys.mod.ui.SDL_GL.obj
 0001:0001bcb0       ?register_tex@RRenderDriver3D@SDL_GL@ui@modules@UModSys@@UAE?AU?$TRefObject@UITexture@lib3d@UModSys@@U?$TRefObjectFunc@UITexture@lib3d@UModSys@@@tl@3@@tl@5@ABU?$TVector2@H@math3d@5@ABUSRenderMapFlags@lib3d@5@W4eImageType@lib2d@5@@Z 1001ccb0 f   umodsys_lib_libui:umodsys.mod.ui.SDL_GL.obj
 0001:0001bcd0       ?register_texcells@RRenderDriver3D@SDL_GL@ui@modules@UModSys@@UAE?AU?$TRefObject@UITextureCells@lib3d@UModSys@@U?$TRefObjectFunc@UITextureCells@lib3d@UModSys@@@tl@3@@tl@5@PAUILibrary@libmedia@5@ABU?$TString@U?$TSCoreConst@D@su@tl@UModSys@@U?$TComparerBinaryHash@D@234@@75@ABUSRenderMapFlags@lib3d@5@@Z 1001ccd0 f   umodsys_lib_libui:umodsys.mod.ui.SDL_GL.obj
 0001:0001bcf0       ?register_tex@RRenderDriver3D@SDL_GL@ui@modules@UModSys@@UAE?AU?$TRefObject@UITexture@lib3d@UModSys@@U?$TRefObjectFunc@UITexture@lib3d@UModSys@@@tl@3@@tl@5@PAUILibrary@libmedia@5@ABU?$TString@U?$TSCoreConst@D@su@tl@UModSys@@U?$TComparerBinaryHash@D@234@@75@ABUSRenderMapFlags@lib3d@5@@Z 1001ccf0 f   umodsys_lib_libui:umodsys.mod.ui.SDL_GL.obj
 0001:0001bd10       ?driver_is_reset@RRenderDriver3D@SDL_GL@ui@modules@UModSys@@UAE_NXZ 1001cd10 f   umodsys_lib_libui:umodsys.mod.ui.SDL_GL.obj
 0001:0001bd20       ?Mode_2d_end@RRenderDriver3D@SDL_GL@ui@modules@UModSys@@QAE_NXZ 1001cd20 f   umodsys_lib_libui:umodsys.mod.ui.SDL_GL.obj
 0001:0001bd60       ?set_parameters@RRenderDriver3D@SDL_GL@ui@modules@UModSys@@UAE_NPBDABUSParameters@core@5@@Z 1001cd60 f   umodsys_lib_libui:umodsys.mod.ui.SDL_GL.obj
 0001:0001bd70       ?get_frame_values@RRenderDriver3D@SDL_GL@ui@modules@UModSys@@UBEPBUSParameters@core@5@XZ 1001cd70 f   umodsys_lib_libui:umodsys.mod.ui.SDL_GL.obj
 0001:0001bd80       ?get_max_values@RRenderDriver3D@SDL_GL@ui@modules@UModSys@@UBEPBUSParameters@core@5@XZ 1001cd80 f   umodsys_lib_libui:umodsys.mod.ui.SDL_GL.obj
 0001:0001bd90       ?get_controller@RRenderDriver3D@SDL_GL@ui@modules@UModSys@@UBEPAUIRefObject@core@5@PBUSUniquePointerInfo@75@@Z 1001cd90 f   umodsys_lib_libui:umodsys.mod.ui.SDL_GL.obj
 0001:0001bda0       ?get_terminal@RRenderDriver3D@SDL_GL@ui@modules@UModSys@@UBEPAUITerminal@libui@5@XZ 1001cda0 f   umodsys_lib_libui:umodsys.mod.ui.SDL_GL.obj
 0001:0001bdb0       ?IsPhm@RRenderDriver3D@SDL_GL@ui@modules@UModSys@@QAE_NW4ePhaseMode@2345@@Z 1001cdb0 f   umodsys_lib_libui:umodsys.mod.ui.SDL_GL.obj
 0001:0001bdf0       ?NextPhm@RRenderDriver3D@SDL_GL@ui@modules@UModSys@@QAE_NW4ePhaseMode@2345@@Z 1001cdf0 f   umodsys_lib_libui:umodsys.mod.ui.SDL_GL.obj
 0001:0001be50       ?set_mipmap@STextureGL@SDL_GL@ui@modules@UModSys@@QAEXXZ 1001ce50 f   umodsys_lib_libui:umodsys.mod.ui.SDL_GL.obj
 0001:0001be70       ?clear@STextureGL@SDL_GL@ui@modules@UModSys@@QAEXXZ 1001ce70 f   umodsys_lib_libui:umodsys.mod.ui.SDL_GL.obj
 0001:0001bea0       ?close@RMultiImage2D_SDL_ttf@SDL_GL@ui@modules@UModSys@@QAEXXZ 1001cea0 f   umodsys_lib_libui:umodsys.mod.ui.SDL_GL.obj
 0001:0001bec0       ?wait@RTerminal@SDL_GL@ui@modules@UModSys@@UAE_NM@Z 1001cec0 f   umodsys_lib_libui:umodsys.mod.ui.SDL_GL.obj
 0001:0001bf00       ?get_clock@RTerminal@SDL_GL@ui@modules@UModSys@@UAENXZ 1001cf00 f   umodsys_lib_libui:umodsys.mod.ui.SDL_GL.obj
 0001:0001bf20       ?set_terminal_state@RTerminal@SDL_GL@ui@modules@UModSys@@UAE_NW4eTerminalState@libui@5@_N@Z 1001cf20 f   umodsys_lib_libui:umodsys.mod.ui.SDL_GL.obj
 0001:0001bf80       ?get_terminal_state@RTerminal@SDL_GL@ui@modules@UModSys@@UAE_NW4eTerminalState@libui@5@@Z 1001cf80 f   umodsys_lib_libui:umodsys.mod.ui.SDL_GL.obj
 0001:0001bfa0       ?mouse_setposition@RMouseController@SDL_GL@ui@modules@UModSys@@UAE_NHH@Z 1001cfa0 f   umodsys_lib_libui:umodsys.mod.ui.SDL_GL.obj
 0001:0001bfb0       ?mouse_setvisible@RMouseController@SDL_GL@ui@modules@UModSys@@UAE_N_N@Z 1001cfb0 f   umodsys_lib_libui:umodsys.mod.ui.SDL_GL.obj
 0001:0001bfc0       ?mouse_reset@RMouseController@SDL_GL@ui@modules@UModSys@@UAE_NXZ 1001cfc0 f   umodsys_lib_libui:umodsys.mod.ui.SDL_GL.obj
 0001:0001bfd0       ?key_setvisible@RKeyboardController@SDL_GL@ui@modules@UModSys@@UAE_N_N@Z 1001cfd0 f   umodsys_lib_libui:umodsys.mod.ui.SDL_GL.obj
 0001:0001bff0       ?key_reset@RKeyboardController@SDL_GL@ui@modules@UModSys@@UAE_NXZ 1001cff0 f   umodsys_lib_libui:umodsys.mod.ui.SDL_GL.obj
 0001:0001c000       ?key_setrepeat@RKeyboardController@SDL_GL@ui@modules@UModSys@@UAE_NMM@Z 1001d000 f   umodsys_lib_libui:umodsys.mod.ui.SDL_GL.obj
 0001:0001c010       ?key_setmodifier@RKeyboardController@SDL_GL@ui@modules@UModSys@@UAE_NHHH@Z 1001d010 f   umodsys_lib_libui:umodsys.mod.ui.SDL_GL.obj
 0001:0001c020       ?map_keyspecial@RKeyboardController@SDL_GL@ui@modules@UModSys@@QAEFG@Z 1001d020 f   umodsys_lib_libui:umodsys.mod.ui.SDL_GL.obj
 0001:0001c0a0       ?map_keyoscode@RKeyboardController@SDL_GL@ui@modules@UModSys@@QAEFW4SDL_Scancode@@@Z 1001d0a0 f   umodsys_lib_libui:umodsys.mod.ui.SDL_GL.obj
 0001:0001c0b0       ?map_keystatus@RKeyboardController@SDL_GL@ui@modules@UModSys@@QAEFEE@Z 1001d0b0 f   umodsys_lib_libui:umodsys.mod.ui.SDL_GL.obj
 0001:0001c0c0       ?map_keycode@RKeyboardController@SDL_GL@ui@modules@UModSys@@QAE?AW4eKeyCode@libui@5@H@Z 1001d0c0 f   umodsys_lib_libui:umodsys.mod.ui.SDL_GL.obj
 0001:0001c600       ?process@RKeyboardController@SDL_GL@ui@modules@UModSys@@QAE_NAAUSDL_TextInputEvent@@@Z 1001d600 f   umodsys_lib_libui:umodsys.mod.ui.SDL_GL.obj
 0001:0001c6f0       ?process@RKeyboardController@SDL_GL@ui@modules@UModSys@@QAE_NAAUSDL_KeyboardEvent@@@Z 1001d6f0 f   umodsys_lib_libui:umodsys.mod.ui.SDL_GL.obj
 0001:0001c7d0       ?close@SWindow@SDL_GL@ui@modules@UModSys@@QAEXXZ 1001d7d0 f   umodsys_lib_libui:umodsys.mod.ui.SDL_GL.obj
 0001:0001c7f0       ??1SWindow@SDL_GL@ui@modules@UModSys@@QAE@XZ 1001d7f0 f   umodsys_lib_libui:umodsys.mod.ui.SDL_GL.obj
 0001:0001c800       ??0SWindow@SDL_GL@ui@modules@UModSys@@QAE@XZ 1001d800 f   umodsys_lib_libui:umodsys.mod.ui.SDL_GL.obj
 0001:0001c830       ?s_holder@RGenerator@SDL_GL@ui@modules@UModSys@@SAAAU?$TTypeStaticHolder@URGenerator@SDL_GL@ui@modules@UModSys@@@tl@5@XZ 1001d830 f   umodsys_lib_libui:umodsys.mod.ui.SDL_GL.obj
 0001:0001c870       ?h_DeleteTextures@SGLFuncs@SDL_GL@ui@modules@UModSys@@UBEXHPBI@Z 1001d870 f   umodsys_lib_libui:umodsys.mod.ui.SDL_GL.obj
 0001:0001c940       ?dumperror@SGLFuncs@SDL_GL@ui@modules@UModSys@@QBEXH@Z 1001d940 f   umodsys_lib_libui:umodsys.mod.ui.SDL_GL.obj
 0001:0001c9d0       ?load@SGLFuncs@SDL_GL@ui@modules@UModSys@@QAE_NXZ 1001d9d0 f   umodsys_lib_libui:umodsys.mod.ui.SDL_GL.obj
 0001:0002a4f0       ?get_layer_info@RVertexArray@SDL_GL@ui@modules@UModSys@@UBE?AUSVertexElemInfo@lib3d@5@H@Z 1002b4f0 f   umodsys_lib_libui:umodsys.mod.ui.SDL_GL.obj
 0001:0002a540       ?Upload@RVertexArray@SDL_GL@ui@modules@UModSys@@QAE_NXZ 1002b540 f   umodsys_lib_libui:umodsys.mod.ui.SDL_GL.obj
 0001:0002a5f0       ?camera_frustum@RRenderDriver3D@SDL_GL@ui@modules@UModSys@@UAE_NABU?$TVector3@N@math3d@5@0@Z 1002b5f0 f   umodsys_lib_libui:umodsys.mod.ui.SDL_GL.obj
 0001:0002a640       ?setup_alpha@RRenderDriver3D@SDL_GL@ui@modules@UModSys@@UAEXMH@Z 1002b640 f   umodsys_lib_libui:umodsys.mod.ui.SDL_GL.obj
 0001:0002a660       ?setup_alpha@RRenderDriver3D@SDL_GL@ui@modules@UModSys@@UAEXHH@Z 1002b660 f   umodsys_lib_libui:umodsys.mod.ui.SDL_GL.obj
 0001:0002a690       ?setup_blendcolor@RRenderDriver3D@SDL_GL@ui@modules@UModSys@@UAEXABUSBlendColorf@lib2d@5@@Z 1002b690 f   umodsys_lib_libui:umodsys.mod.ui.SDL_GL.obj
 0001:0002a6f0       ?setup_blendcolor@RRenderDriver3D@SDL_GL@ui@modules@UModSys@@UAEXABUSBlendColor@lib2d@5@@Z 1002b6f0 f   umodsys_lib_libui:umodsys.mod.ui.SDL_GL.obj
 0001:0002a750       ?setup_coloralpha@RRenderDriver3D@SDL_GL@ui@modules@UModSys@@UAEXABU?$TVector4@H@math3d@5@H@Z 1002b750 f   umodsys_lib_libui:umodsys.mod.ui.SDL_GL.obj
 0001:0002a7b0       ?setup_coloralpha@RRenderDriver3D@SDL_GL@ui@modules@UModSys@@UAEXABU?$TVector4@M@math3d@5@H@Z 1002b7b0 f   umodsys_lib_libui:umodsys.mod.ui.SDL_GL.obj
 0001:0002a7f0       ?setup_color@RRenderDriver3D@SDL_GL@ui@modules@UModSys@@UAEXABU?$TVector3@H@math3d@5@@Z 1002b7f0 f   umodsys_lib_libui:umodsys.mod.ui.SDL_GL.obj
 0001:0002a840       ?setup_color@RRenderDriver3D@SDL_GL@ui@modules@UModSys@@UAEXABU?$TVector3@M@math3d@5@@Z 1002b840 f   umodsys_lib_libui:umodsys.mod.ui.SDL_GL.obj
 0001:0002a870       ?new_picture@RRenderDriver3D@SDL_GL@ui@modules@UModSys@@UAE?AU?$TRefObject@UIImage@lib2d@UModSys@@U?$TRefObjectFunc@UIImage@lib2d@UModSys@@@tl@3@@tl@5@ABUSParameters@core@5@ABU?$TString@U?$TSCoreConst@D@su@tl@UModSys@@U?$TComparerBinaryHash@D@234@@75@@Z 1002b870 f   umodsys_lib_libui:umodsys.mod.ui.SDL_GL.obj
 0001:0002a890       ?Close@RRenderDriver3D@SDL_GL@ui@modules@UModSys@@QAEXXZ 1002b890 f   umodsys_lib_libui:umodsys.mod.ui.SDL_GL.obj
 0001:0002a8c0       ?set_size@STextureGL@SDL_GL@ui@modules@UModSys@@QAEXHH@Z 1002b8c0 f   umodsys_lib_libui:umodsys.mod.ui.SDL_GL.obj
 0001:0002a9a0       ??1STextureGL@SDL_GL@ui@modules@UModSys@@QAE@XZ 1002b9a0 f   umodsys_lib_libui:umodsys.mod.ui.SDL_GL.obj
 0001:0002aa10       ?mouse_unlink@RMouseController@SDL_GL@ui@modules@UModSys@@UAE_NH@Z 1002ba10 f   umodsys_lib_libui:umodsys.mod.ui.SDL_GL.obj
 0001:0002aa50       ?process@RMouseController@SDL_GL@ui@modules@UModSys@@QAE_NAAUSDL_MouseWheelEvent@@@Z 1002ba50 f   umodsys_lib_libui:umodsys.mod.ui.SDL_GL.obj
 0001:0002ab60       ?process@RMouseController@SDL_GL@ui@modules@UModSys@@QAE_NAAUSDL_MouseButtonEvent@@@Z 1002bb60 f   umodsys_lib_libui:umodsys.mod.ui.SDL_GL.obj
 0001:0002ac90       ?process@RMouseController@SDL_GL@ui@modules@UModSys@@QAE_NAAUSDL_MouseMotionEvent@@@Z 1002bc90 f   umodsys_lib_libui:umodsys.mod.ui.SDL_GL.obj
 0001:0002ade0       ?key_unlink@RKeyboardController@SDL_GL@ui@modules@UModSys@@UAE_NH@Z 1002bde0 f   umodsys_lib_libui:umodsys.mod.ui.SDL_GL.obj
 0001:0002ae20       ?open@SWindow@SDL_GL@ui@modules@UModSys@@QAE_NABUSParameters@core@5@@Z 1002be20 f   umodsys_lib_libui:umodsys.mod.ui.SDL_GL.obj
 0001:0002aed0       ?s_unreg@RGenerator@SDL_GL@ui@modules@UModSys@@SA_NPAUIModuleReg@base@5@@Z 1002bed0 f   umodsys_lib_libui:umodsys.mod.ui.SDL_GL.obj
 0001:0002af20       ?s_reg@RGenerator@SDL_GL@ui@modules@UModSys@@SA_NPAUIModuleReg@base@5@@Z 1002bf20 f   umodsys_lib_libui:umodsys.mod.ui.SDL_GL.obj
 0001:0002afa0       ?image_hint_format@SGLFuncs@SDL_GL@ui@modules@UModSys@@SAHABU?$TString@U?$TSCoreConst@D@su@tl@UModSys@@U?$TComparerBinaryHash@D@234@@tl@5@H@Z 1002bfa0 f   umodsys_lib_libui:umodsys.mod.ui.SDL_GL.obj
 0001:0002b300       ?load@SGLFuncsLegacy@SDL_GL@ui@modules@UModSys@@QAE_N_N@Z 1002c300 f   umodsys_lib_libui:umodsys.mod.ui.SDL_GL.obj
 0001:0002f250       ??0SGLFuncs@SDL_GL@ui@modules@UModSys@@QAE@XZ 10030250 f   umodsys_lib_libui:umodsys.mod.ui.SDL_GL.obj
 0001:0002f2c0       ?close_drvxd@RTerminalX@SDL_GL@ui@modules@UModSys@@UAE_NXZ 100302c0 f   umodsys_lib_libui:umodsys.mod.ui.SDL_GL.obj
 0001:0002f2d0       ?Use@RVertexArray@SDL_GL@ui@modules@UModSys@@QAE_NI@Z 100302d0 f   umodsys_lib_libui:umodsys.mod.ui.SDL_GL.obj
 0001:0002f4b0       ?Free@RVertexArray@SDL_GL@ui@modules@UModSys@@QAE_NXZ 100304b0 f   umodsys_lib_libui:umodsys.mod.ui.SDL_GL.obj
 0001:0002f540       ??1RVertexArray@SDL_GL@ui@modules@UModSys@@UAE@XZ 10030540 f   umodsys_lib_libui:umodsys.mod.ui.SDL_GL.obj
 0001:0002f5c0       ??0RVertexArray@SDL_GL@ui@modules@UModSys@@QAE@PAURRenderDriver3D@1234@_N1@Z 100305c0 f   umodsys_lib_libui:umodsys.mod.ui.SDL_GL.obj
 0001:0002f660       ?render_stop@RRenderDriver3D@SDL_GL@ui@modules@UModSys@@UAEXXZ 10030660 f   umodsys_lib_libui:umodsys.mod.ui.SDL_GL.obj
 0001:0002f7a0       ?render_start@RRenderDriver3D@SDL_GL@ui@modules@UModSys@@UAEXXZ 100307a0 f   umodsys_lib_libui:umodsys.mod.ui.SDL_GL.obj
 0001:0002f920       ?phase_start@RRenderDriver3D@SDL_GL@ui@modules@UModSys@@UAEXHH@Z 10030920 f   umodsys_lib_libui:umodsys.mod.ui.SDL_GL.obj
 0001:0002fa80       ?render_primitive@RRenderDriver3D@SDL_GL@ui@modules@UModSys@@UAE_NW4eRenderPrimitiveType@lib3d@5@HH@Z 10030a80 f   umodsys_lib_libui:umodsys.mod.ui.SDL_GL.obj
 0001:0002fb50       ?setup_array@RRenderDriver3D@SDL_GL@ui@modules@UModSys@@UAE_NPAUIVertexArray@lib3d@5@HH@Z 10030b50 f   umodsys_lib_libui:umodsys.mod.ui.SDL_GL.obj
 0001:0002fc10       ?camera_frustum@RRenderDriver3D@SDL_GL@ui@modules@UModSys@@UAE_NABU?$TVector3@N@math3d@5@ABU?$TVector2@M@75@NN@Z 10030c10 f   umodsys_lib_libui:umodsys.mod.ui.SDL_GL.obj
 0001:0002fd10       ?SetT@RRenderDriver3D@SDL_GL@ui@modules@UModSys@@QAEXABU?$TMatrix44@N@math3d@5@_N@Z 10030d10 f   umodsys_lib_libui:umodsys.mod.ui.SDL_GL.obj
 0001:0002fe60       ?Update@RRenderDriver3D@SDL_GL@ui@modules@UModSys@@QAEXXZ 10030e60 f   umodsys_lib_libui:umodsys.mod.ui.SDL_GL.obj
 0001:0002fea0       ?map_2d_to_3d@RRenderDriver3D@SDL_GL@ui@modules@UModSys@@UAE_NAAU?$TVector2@M@math3d@5@ABU?$TVector2@H@75@@Z 10030ea0 f   umodsys_lib_libui:umodsys.mod.ui.SDL_GL.obj
 0001:0002ff80       ?Mode_2d_begin@RRenderDriver3D@SDL_GL@ui@modules@UModSys@@QAE_NXZ 10030f80 f   umodsys_lib_libui:umodsys.mod.ui.SDL_GL.obj
 0001:00030130       ?end@RRenderDriver3D@SDL_GL@ui@modules@UModSys@@UAEXXZ 10031130 f   umodsys_lib_libui:umodsys.mod.ui.SDL_GL.obj
 0001:00030170       ?begin@RRenderDriver3D@SDL_GL@ui@modules@UModSys@@UAEXXZ 10031170 f   umodsys_lib_libui:umodsys.mod.ui.SDL_GL.obj
 0001:000303a0       ?render_rect@RRenderDriver3D@SDL_GL@ui@modules@UModSys@@UAEXABU?$TVector2@H@math3d@5@0@Z 100313a0 f   umodsys_lib_libui:umodsys.mod.ui.SDL_GL.obj
 0001:00030460       ?render_line@RRenderDriver3D@SDL_GL@ui@modules@UModSys@@UAEXABU?$TVector2@H@math3d@5@0@Z 10031460 f   umodsys_lib_libui:umodsys.mod.ui.SDL_GL.obj
 0001:000304c0       ?render_box@RRenderDriver3D@SDL_GL@ui@modules@UModSys@@UAEXPAUIImage@lib2d@5@ABU?$TVector2@H@math3d@5@1ABU?$TVector2@M@95@2@Z 100314c0 f   umodsys_lib_libui:umodsys.mod.ui.SDL_GL.obj
 0001:000304e0       ?render_quad@RRenderDriver3D@SDL_GL@ui@modules@UModSys@@UAEXABU?$TVector2@H@math3d@5@000@Z 100314e0 f   umodsys_lib_libui:umodsys.mod.ui.SDL_GL.obj
 0001:00030560       ?render_tri@RRenderDriver3D@SDL_GL@ui@modules@UModSys@@UAEXABU?$TVector2@H@math3d@5@00@Z 10031560 f   umodsys_lib_libui:umodsys.mod.ui.SDL_GL.obj
 0001:000305d0       ?render_box@RRenderDriver3D@SDL_GL@ui@modules@UModSys@@UAEXABU?$TVector2@H@math3d@5@0@Z 100315d0 f   umodsys_lib_libui:umodsys.mod.ui.SDL_GL.obj
 0001:00030650       ?render_text_advanced@RRenderDriver3D@SDL_GL@ui@modules@UModSys@@UAE_NAAUTextInfo@IRenderDriver@lib2d@5@PBHH@Z 10031650 f   umodsys_lib_libui:umodsys.mod.ui.SDL_GL.obj
 0001:00030840       ?setup_font@RRenderDriver3D@SDL_GL@ui@modules@UModSys@@UAE_NPAUIMultiImage@lib2d@5@PBU?$TVector2@M@math3d@5@@Z 10031840 f   umodsys_lib_libui:umodsys.mod.ui.SDL_GL.obj
 0001:000308a0       ?Open@RRenderDriver3D@SDL_GL@ui@modules@UModSys@@QAE_NABUSParameters@core@5@@Z 100318a0 f   umodsys_lib_libui:umodsys.mod.ui.SDL_GL.obj
 0001:000309c0       ??1RRenderDriver3D@SDL_GL@ui@modules@UModSys@@UAE@XZ 100319c0 f   umodsys_lib_libui:umodsys.mod.ui.SDL_GL.obj
 0001:00030a80       ?kill_texture@RMultiImage2D_SDL_ttf@SDL_GL@ui@modules@UModSys@@SAXAAUSTextureGL@2345@@Z 10031a80 f   umodsys_lib_libui:umodsys.mod.ui.SDL_GL.obj
 0001:00030a90       ?reupload@STextureGL@SDL_GL@ui@modules@UModSys@@QAE_NXZ 10031a90 f   umodsys_lib_libui:umodsys.mod.ui.SDL_GL.obj
 0001:00030b30       ?dorebind@STextureGL@SDL_GL@ui@modules@UModSys@@QAEX_N@Z 10031b30 f   umodsys_lib_libui:umodsys.mod.ui.SDL_GL.obj
 0001:00030b90       ?gen@STextureGL@SDL_GL@ui@modules@UModSys@@QAE_NXZ 10031b90 f   umodsys_lib_libui:umodsys.mod.ui.SDL_GL.obj
 0001:00030bd0       ??0STextureGL@SDL_GL@ui@modules@UModSys@@QAE@PBUSGLFuncs@1234@@Z 10031bd0 f   umodsys_lib_libui:umodsys.mod.ui.SDL_GL.obj
 0001:00030c50       ?create_handler@RTerminal@SDL_GL@ui@modules@UModSys@@UAE_NPBUSUniquePointerInfo@core@5@AAU?$TRefObject@UIRefObject@core@UModSys@@U?$TRefObjectFunc@UIRefObject@core@UModSys@@@tl@3@@tl@5@PBDPBUSParameters@75@@Z 10031c50 f   umodsys_lib_libui:umodsys.mod.ui.SDL_GL.obj
 0001:00030d10       ?get_friend_handler@RTerminal@SDL_GL@ui@modules@UModSys@@UBEPAUIRefObject@core@5@PBUSUniquePointerInfo@75@PAU675@@Z 10031d10 f   umodsys_lib_libui:umodsys.mod.ui.SDL_GL.obj
 0001:00030d20       ?get_handler@RTerminal@SDL_GL@ui@modules@UModSys@@UBEPAUIRefObject@core@5@PBUSUniquePointerInfo@75@PBD@Z 10031d20 f   umodsys_lib_libui:umodsys.mod.ui.SDL_GL.obj
 0001:00030d30       ?get_handler@RTerminal@SDL_GL@ui@modules@UModSys@@UBEPAUIRefObject@core@5@PBUSUniquePointerInfo@75@I@Z 10031d30 f   umodsys_lib_libui:umodsys.mod.ui.SDL_GL.obj
 0001:00030da0       ?get_count@RTerminal@SDL_GL@ui@modules@UModSys@@UBEIPBUSUniquePointerInfo@core@5@@Z 10031da0 f   umodsys_lib_libui:umodsys.mod.ui.SDL_GL.obj
 0001:00030e00       ?poll_events@RTerminal@SDL_GL@ui@modules@UModSys@@UAE_NH@Z 10031e00 f   umodsys_lib_libui:umodsys.mod.ui.SDL_GL.obj
 0001:00030f20       ?mouse_link@RMouseController@SDL_GL@ui@modules@UModSys@@UAE_NHPAUIRefObject@core@5@PAUIMouseClient@libui@5@H@Z 10031f20 f   umodsys_lib_libui:umodsys.mod.ui.SDL_GL.obj
 0001:00030f80       ??1RMouseController@SDL_GL@ui@modules@UModSys@@UAE@XZ 10031f80 f   umodsys_lib_libui:umodsys.mod.ui.SDL_GL.obj
 0001:00030fe0       ??0RMouseController@SDL_GL@ui@modules@UModSys@@QAE@PAURTerminal@1234@@Z 10031fe0 f   umodsys_lib_libui:umodsys.mod.ui.SDL_GL.obj
 0001:00031000       ?key_link@RKeyboardController@SDL_GL@ui@modules@UModSys@@UAE_NHPAUIRefObject@core@5@PAUIKeyboardClient@libui@5@@Z 10032000 f   umodsys_lib_libui:umodsys.mod.ui.SDL_GL.obj
 0001:00031050       ??1RKeyboardController@SDL_GL@ui@modules@UModSys@@UAE@XZ 10032050 f   umodsys_lib_libui:umodsys.mod.ui.SDL_GL.obj
 0001:000310b0       ??0RKeyboardController@SDL_GL@ui@modules@UModSys@@QAE@PAURTerminal@1234@@Z 100320b0 f   umodsys_lib_libui:umodsys.mod.ui.SDL_GL.obj
 0001:000310d0       ??0SGLFuncsLegacy@SDL_GL@ui@modules@UModSys@@QAE@XZ 100320d0 f   umodsys_lib_libui:umodsys.mod.ui.SDL_GL.obj
 0001:000310f0       ?open_drv3d@RTerminalX@SDL_GL@ui@modules@UModSys@@UAEPAUIRenderDriver@lib3d@5@PBUSParameters@core@5@@Z 100320f0 f   umodsys_lib_libui:umodsys.mod.ui.SDL_GL.obj
 0001:00031110       ?open_drv2d@RTerminalX@SDL_GL@ui@modules@UModSys@@UAEPAUIRenderDriver@lib2d@5@PBUSParameters@core@5@@Z 10032110 f   umodsys_lib_libui:umodsys.mod.ui.SDL_GL.obj
 0001:00031130       ?Alloc@RVertexArray@SDL_GL@ui@modules@UModSys@@QAE_NXZ 10032130 f   umodsys_lib_libui:umodsys.mod.ui.SDL_GL.obj
 0001:00031190       ?Alloc@RVertexArray@SDL_GL@ui@modules@UModSys@@QAE_NQBUSVertexElemInfo@lib3d@5@HH_N@Z 10032190 f   umodsys_lib_libui:umodsys.mod.ui.SDL_GL.obj
 0001:00031300       ?setup_2d@RRenderDriver3D@SDL_GL@ui@modules@UModSys@@UAE_NPBU?$TVector2@H@math3d@5@0PBU?$TVector2@M@75@1@Z 10032300 f   umodsys_lib_libui:umodsys.mod.ui.SDL_GL.obj
 0001:00031390       ?phase_2d@RRenderDriver3D@SDL_GL@ui@modules@UModSys@@UAEX_N@Z 10032390 f   umodsys_lib_libui:umodsys.mod.ui.SDL_GL.obj
 0001:000313d0       ?setup_T@RRenderDriver3D@SDL_GL@ui@modules@UModSys@@UAEXABU?$TMatrix44@N@math3d@5@@Z 100323d0 f   umodsys_lib_libui:umodsys.mod.ui.SDL_GL.obj
 0001:00031400       ?create_array@RRenderDriver3D@SDL_GL@ui@modules@UModSys@@UAE?AU?$TRefObject@UIVertexArray@lib3d@UModSys@@U?$TRefObjectFunc@UIVertexArray@lib3d@UModSys@@@tl@3@@tl@5@HQBUSVertexElemInfo@lib3d@5@HPBXI@Z 10032400 f   umodsys_lib_libui:umodsys.mod.ui.SDL_GL.obj
 0001:00031530       ?create_array@RRenderDriver3D@SDL_GL@ui@modules@UModSys@@UAE?AU?$TRefObject@UIVertexArray@lib3d@UModSys@@U?$TRefObjectFunc@UIVertexArray@lib3d@UModSys@@@tl@3@@tl@5@HQBUSVertexElemInfo@lib3d@5@H@Z 10032530 f   umodsys_lib_libui:umodsys.mod.ui.SDL_GL.obj
 0001:00031630       ?upload@STextureGL@SDL_GL@ui@modules@UModSys@@QAE_NXZ 10032630 f   umodsys_lib_libui:umodsys.mod.ui.SDL_GL.obj
 0001:00031720       ?alloc@STextureGL@SDL_GL@ui@modules@UModSys@@QAE_NXZ 10032720 f   umodsys_lib_libui:umodsys.mod.ui.SDL_GL.obj
 0001:00031800       ??1RTerminal@SDL_GL@ui@modules@UModSys@@UAE@XZ 10032800 f   umodsys_lib_libui:umodsys.mod.ui.SDL_GL.obj
 0001:00031870       ??0RTerminal@SDL_GL@ui@modules@UModSys@@QAE@PAUIModObject@base@4@@Z 10032870 f   umodsys_lib_libui:umodsys.mod.ui.SDL_GL.obj
 0001:00031900       ??1RTerminalX@SDL_GL@ui@modules@UModSys@@UAE@XZ 10032900 f   umodsys_lib_libui:umodsys.mod.ui.SDL_GL.obj
 0001:00031960       ?set_layer_vdata@RVertexArray@SDL_GL@ui@modules@UModSys@@UAE_NW4eVertexAType@lib3d@5@PBXHHH@Z 10032960 f   umodsys_lib_libui:umodsys.mod.ui.SDL_GL.obj
 0001:00031a20       ?set_reallocate@STextureGL@SDL_GL@ui@modules@UModSys@@QAE_NW4eImageType@lib2d@5@HHPBD@Z 10032a20 f   umodsys_lib_libui:umodsys.mod.ui.SDL_GL.obj
 0001:00031ab0       ??1RMultiImage2D_SDL_ttf@SDL_GL@ui@modules@UModSys@@UAE@XZ 10032ab0 f   umodsys_lib_libui:umodsys.mod.ui.SDL_GL.obj
 0001:00031b40       ??0RRenderDriver3D@SDL_GL@ui@modules@UModSys@@QAE@PAURTerminalX@1234@@Z 10032b40 f   umodsys_lib_libui:umodsys.mod.ui.SDL_GL.obj
 0001:00031c60       ?new_texture@RMultiImage2D_SDL_ttf@SDL_GL@ui@modules@UModSys@@SA_NAAUSTextureGL@2345@PAUSDL_Surface@@PAURRenderDriver3D@2345@@Z 10032c60 f   umodsys_lib_libui:umodsys.mod.ui.SDL_GL.obj
 0001:00031d00       ?generate_glyphs@RMultiImage2D_SDL_ttf@SDL_GL@ui@modules@UModSys@@QAE_NXZ 10032d00 f   umodsys_lib_libui:umodsys.mod.ui.SDL_GL.obj
 0001:00031e20       ?open@RMultiImage2D_SDL_ttf@SDL_GL@ui@modules@UModSys@@QAE_NABUSParameters@core@5@@Z 10032e20 f   umodsys_lib_libui:umodsys.mod.ui.SDL_GL.obj
 0001:00031ed0       ??0RMultiImage2D_SDL_ttf@SDL_GL@ui@modules@UModSys@@QAE@PAURRenderDriver3D@1234@ABUSParameters@core@4@@Z 10032ed0 f   umodsys_lib_libui:umodsys.mod.ui.SDL_GL.obj
 0001:00031f50       ??0RTerminalX@SDL_GL@ui@modules@UModSys@@QAE@PAUIModObject@base@4@ABUSParameters@core@4@@Z 10032f50 f   umodsys_lib_libui:umodsys.mod.ui.SDL_GL.obj
 0001:00031fb0       ?new_font@RRenderDriver3D@SDL_GL@ui@modules@UModSys@@UAE?AU?$TRefObject@UIMultiImage@lib2d@UModSys@@U?$TRefObjectFunc@UIMultiImage@lib2d@UModSys@@@tl@3@@tl@5@ABUSParameters@core@5@ABU?$TString@U?$TSCoreConst@D@su@tl@UModSys@@U?$TComparerBinaryHash@D@234@@75@@Z 10032fb0 f   umodsys_lib_libui:umodsys.mod.ui.SDL_GL.obj
 0001:00032130       ?mod_dec@RGenerator@stdlib@lib2d@modules@UModSys@@UBE_NXZ 10033130 f   umodsys_lib_lib2d:umodsys.mod.2d.stdlib.obj
 0001:00032140       ?mod_inc@RGenerator@stdlib@lib2d@modules@UModSys@@UBE_NXZ 10033140 f   umodsys_lib_lib2d:umodsys.mod.2d.stdlib.obj
 0001:00032150       ?get_module@RGenerator@stdlib@lib2d@modules@UModSys@@UBEPAUIModule@base@5@XZ 10033150 f   umodsys_lib_lib2d:umodsys.mod.2d.stdlib.obj
 0001:00032160       ?get_hwcinfo@RImage_Memory@stdlib@lib2d@modules@UModSys@@UBEPBXPBUSUniquePointerInfo@core@5@@Z 10033160 f   umodsys_lib_lib2d:umodsys.mod.2d.stdlib.obj
 0001:00032170       ?get_hwinfo@RImage_Memory@stdlib@lib2d@modules@UModSys@@UAEPAXPBUSUniquePointerInfo@core@5@@Z 10033170 f   umodsys_lib_lib2d:umodsys.mod.2d.stdlib.obj
 0001:00032180       ?get_info@RImage_Memory@stdlib@lib2d@modules@UModSys@@UBEABUSImageInfo@35@XZ 10033180 f   umodsys_lib_lib2d:umodsys.mod.2d.stdlib.obj
 0001:00032190       ?s_holder@RGenerator@stdlib@lib2d@modules@UModSys@@SAAAU?$TTypeStaticHolder@URGenerator@stdlib@lib2d@modules@UModSys@@@tl@5@XZ 10033190 f   umodsys_lib_lib2d:umodsys.mod.2d.stdlib.obj
 0001:000321d0       ??0RImageFactory_Memory@stdlib@lib2d@modules@UModSys@@QAE@PAUIModObject@base@4@ABUSParameters@core@4@@Z 100331d0 f   umodsys_lib_lib2d:umodsys.mod.2d.stdlib.obj
 0001:00032240       ?image_get_maxsize@RImageFactory_Memory@stdlib@lib2d@modules@UModSys@@UBE?AU?$TVector2@H@math3d@5@XZ 10033240 f   umodsys_lib_lib2d:umodsys.mod.2d.stdlib.obj
 0001:00032260       ?s_unreg@RGenerator@stdlib@lib2d@modules@UModSys@@SA_NPAUIModuleReg@base@5@@Z 10033260 f   umodsys_lib_lib2d:umodsys.mod.2d.stdlib.obj
 0001:000322b0       ?s_reg@RGenerator@stdlib@lib2d@modules@UModSys@@SA_NPAUIModuleReg@base@5@@Z 100332b0 f   umodsys_lib_lib2d:umodsys.mod.2d.stdlib.obj
 0001:00032330       ?setup_variable_cell@RMultiImage@stdlib@lib2d@modules@UModSys@@UAE_NPBUSImageCellInfo@35@KK@Z 10033330 f   umodsys_lib_lib2d:umodsys.mod.2d.stdlib.obj
 0001:000323f0       ?setup_fixed_cell@RMultiImage@stdlib@lib2d@modules@UModSys@@UAE_NHH@Z 100333f0 f   umodsys_lib_lib2d:umodsys.mod.2d.stdlib.obj
 0001:00032420       ?set_hint@RMultiImage@stdlib@lib2d@modules@UModSys@@UAE_NPBD0@Z 10033420 f   umodsys_lib_lib2d:umodsys.mod.2d.stdlib.obj
 0001:00032430       ?set_layer_count@RMultiImage@stdlib@lib2d@modules@UModSys@@UAE_NG@Z 10033430 f   umodsys_lib_lib2d:umodsys.mod.2d.stdlib.obj
 0001:00032570       ?get_cell@RMultiImage@stdlib@lib2d@modules@UModSys@@UBE_NIAAUSImageCellInfo@35@@Z 10033570 f   umodsys_lib_lib2d:umodsys.mod.2d.stdlib.obj
 0001:000325c0       ?get_cell@RMultiImage@stdlib@lib2d@modules@UModSys@@UBE_NIAAU?$TVector2@H@math3d@5@PAU675@PAG@Z 100335c0 f   umodsys_lib_lib2d:umodsys.mod.2d.stdlib.obj
 0001:00032630       ?get_cell_count@RMultiImage@stdlib@lib2d@modules@UModSys@@UBEIXZ 10033630 f   umodsys_lib_lib2d:umodsys.mod.2d.stdlib.obj
 0001:00032640       ?get_layer@RMultiImage@stdlib@lib2d@modules@UModSys@@UBEPAUIImage@35@G@Z 10033640 f   umodsys_lib_lib2d:umodsys.mod.2d.stdlib.obj
 0001:00032660       ?get_layer_count@RMultiImage@stdlib@lib2d@modules@UModSys@@UBEGXZ 10033660 f   umodsys_lib_lib2d:umodsys.mod.2d.stdlib.obj
 0001:00032670       ?get_fixed_cell_size@RMultiImage@stdlib@lib2d@modules@UModSys@@UBE?AU?$TVector2@H@math3d@5@XZ 10033670 f   umodsys_lib_lib2d:umodsys.mod.2d.stdlib.obj
 0001:000326a0       ?get_max_cell_size@RMultiImage@stdlib@lib2d@modules@UModSys@@UBE?AU?$TVector2@H@math3d@5@XZ 100336a0 f   umodsys_lib_lib2d:umodsys.mod.2d.stdlib.obj
 0001:000326d0       ?get_max_layer_size@RMultiImage@stdlib@lib2d@modules@UModSys@@UBE?AU?$TVector2@H@math3d@5@XZ 100336d0 f   umodsys_lib_lib2d:umodsys.mod.2d.stdlib.obj
 0001:00032700       ??1RImageFactory_Memory@stdlib@lib2d@modules@UModSys@@UAE@XZ 10033700 f   umodsys_lib_lib2d:umodsys.mod.2d.stdlib.obj
 0001:00032710       ??1RImage_Memory@stdlib@lib2d@modules@UModSys@@UAE@XZ 10033710 f   umodsys_lib_lib2d:umodsys.mod.2d.stdlib.obj
 0001:00032770       ??1RMultiImage@stdlib@lib2d@modules@UModSys@@UAE@XZ 10033770 f   umodsys_lib_lib2d:umodsys.mod.2d.stdlib.obj
 0001:00032840       ??0RMultiImage@stdlib@lib2d@modules@UModSys@@QAE@PAUIModObject@base@4@ABUSParameters@core@4@@Z 10033840 f   umodsys_lib_lib2d:umodsys.mod.2d.stdlib.obj
 0001:00032910       ??0RImage_Memory@stdlib@lib2d@modules@UModSys@@QAE@PAUIModObject@base@4@ABUSParameters@core@4@@Z 10033910 f   umodsys_lib_lib2d:umodsys.mod.2d.stdlib.obj
 0001:000329c0       ?set_info@RImage_Memory@stdlib@lib2d@modules@UModSys@@UAE_NABUSImagePatchInfo@35@PBD@Z 100339c0 f   umodsys_lib_lib2d:umodsys.mod.2d.stdlib.obj
 0001:00032b60       ?image_new@RImageFactory_Memory@stdlib@lib2d@modules@UModSys@@UAE?AU?$TRefObject@UIImage@lib2d@UModSys@@U?$TRefObjectFunc@UIImage@lib2d@UModSys@@@tl@3@@tl@5@ABUSImagePatchInfo@35@PBD@Z 10033b60 f   umodsys_lib_lib2d:umodsys.mod.2d.stdlib.obj
 0001:00032d20       ?image_new@RImageFactory_Memory@stdlib@lib2d@modules@UModSys@@UAE?AU?$TRefObject@UIImage@lib2d@UModSys@@U?$TRefObjectFunc@UIImage@lib2d@UModSys@@@tl@3@@tl@5@XZ 10033d20 f   umodsys_lib_lib2d:umodsys.mod.2d.stdlib.obj
 0001:00032e90       ?get_data@RImage_Memory@stdlib@lib2d@modules@UModSys@@UBE_NABUSImagePatchInfo@35@ABUSMem@core@5@H@Z 10033e90 f   umodsys_lib_lib2d:umodsys.mod.2d.stdlib.obj
 0001:00032f40       ?set_data@RImage_Memory@stdlib@lib2d@modules@UModSys@@UAE_NABUSImagePatchInfo@35@ABUSCMem@core@5@H@Z 10033f40 f   umodsys_lib_lib2d:umodsys.mod.2d.stdlib.obj
 0001:00033000       ?mod_dec@RGenerator@test1@test@modules@UModSys@@UBE_NXZ 10034000 f   plugin_test1.obj
 0001:00033010       ?mod_inc@RGenerator@test1@test@modules@UModSys@@UBE_NXZ 10034010 f   plugin_test1.obj
 0001:00033020       ?get_module@RGenerator@test1@test@modules@UModSys@@UBEPAUIModule@base@5@XZ 10034020 f   plugin_test1.obj
 0001:00033030       ?shutdown@UI_Info@RTest1_Shell@test1@test@modules@UModSys@@QAEXXZ 10034030 f   plugin_test1.obj
 0001:00033070       ?command_draw@RTest1_Shell@test1@test@modules@UModSys@@UAE_NABUSController@libui@5@PAUIRenderDriver@lib2d@5@ABU?$TBoundBox2@H@math3d@5@@Z 10034070 f   plugin_test1.obj
 0001:00033080       ?key_pressed@RTest1_Shell@test1@test@modules@UModSys@@UAE_NABUSKeyboardInputRaw@libui@5@@Z 10034080 f   plugin_test1.obj
 0001:000330d0       ?s_holder@RGenerator@test1@test@modules@UModSys@@SAAAU?$TTypeStaticHolder@URGenerator@test1@test@modules@UModSys@@@tl@5@XZ 100340d0 f   plugin_test1.obj
 0001:00033110       ?new_va_1@UI_Info@RTest1_Shell@test1@test@modules@UModSys@@QAE_NXZ 10034110 f   plugin_test1.obj
 0001:00033670       ?db_get@RTest1_Shell@test1@test@modules@UModSys@@UAE_NABUSController@libui@5@QBDABUSFrameDataOut@75@@Z 10034670 f   plugin_test1.obj
 0001:00033720       ?command@RTest1_Shell@test1@test@modules@UModSys@@UAE_NABUSController@libui@5@HABUSFrameDataIn@75@@Z 10034720 f   plugin_test1.obj
 0001:00033760       ?mouse_event@RTest1_Shell@test1@test@modules@UModSys@@UAE_NABUSMouseInput@libui@5@@Z 10034760 f   plugin_test1.obj
 0001:000337d0       ?key_text@RTest1_Shell@test1@test@modules@UModSys@@UAE_NABUSKeyboardInputText@libui@5@@Z 100347d0 f   plugin_test1.obj
 0001:00033810       ?s_unreg@RGenerator@test1@test@modules@UModSys@@SA_NPAUIModuleReg@base@5@@Z 10034810 f   plugin_test1.obj
 0001:00033860       ?s_reg@RGenerator@test1@test@modules@UModSys@@SA_NPAUIModuleReg@base@5@@Z 10034860 f   plugin_test1.obj
 0001:000338e0       ?new_va_qc@UI_Info@RTest1_Shell@test1@test@modules@UModSys@@QAE_NXZ 100348e0 f   plugin_test1.obj
 0001:00033d50       ?db_get@RTest1_Shell@test1@test@modules@UModSys@@UAE_NABUSController@libui@5@QBDHABUSFrameDataOut@75@@Z 10034d50 f   plugin_test1.obj
 0001:00033dd0       ?ui_newterm@RTest1_Shell@test1@test@modules@UModSys@@SA?AU?$TRefObject@UITerminal@libui@UModSys@@U?$TRefObjectFunc@UITerminal@libui@UModSys@@@tl@3@@tl@5@ABU?$TString@U?$TSCoreConst@D@su@tl@UModSys@@U?$TComparerBinaryHash@D@234@@75@ABUSParameters@core@5@@Z 10034dd0 f   plugin_test1.obj
 0001:00033df0       ?ui_newframes@RTest1_Shell@test1@test@modules@UModSys@@SA?AU?$TRefObject@UICollector@libui@UModSys@@U?$TRefObjectFunc@UICollector@libui@UModSys@@@tl@3@@tl@5@ABU?$TString@U?$TSCoreConst@D@su@tl@UModSys@@U?$TComparerBinaryHash@D@234@@75@ABUSParameters@core@5@@Z 10034df0 f   plugin_test1.obj
 0001:00033e10       ?cycle3d@UI_Info@RTest1_Shell@test1@test@modules@UModSys@@QAEXXZ 10034e10 f   plugin_test1.obj
 0001:000341e0       ?new_frames@UI_Info@RTest1_Shell@test1@test@modules@UModSys@@QAE_NPAUIController@libui@6@@Z 100351e0 f   plugin_test1.obj
 0001:00034860       ?create_3d@UI_Info@RTest1_Shell@test1@test@modules@UModSys@@QAE_NPBD@Z 10035860 f   plugin_test1.obj
 0001:000349c0       ?init_term@UI_Info@RTest1_Shell@test1@test@modules@UModSys@@QAE_NPBD@Z 100359c0 f   plugin_test1.obj
 0001:00034cf0       ?font_2d@UI_Info@RTest1_Shell@test1@test@modules@UModSys@@QAE_NXZ 10035cf0 f   plugin_test1.obj
 0001:00034eb0       ?ui_test2@RTest1_Shell@test1@test@modules@UModSys@@QAEXXZ 10035eb0 f   plugin_test1.obj
 0001:00035000       ?add@SUniquePtrList@core@UModSys@@QAE_NPBUSUniquePointerInfo@23@@Z 10036000 f   umodsys_lib_core:umodsys.core.uniqueptrlist.obj
 0001:00035042       _memcpy                    10036042 f   MSVCRT:MSVCR90.dll
 0001:00035048       ___CxxFrameHandler3        10036048 f   MSVCRT:MSVCR90.dll
 0001:00035050       __ftol2_sse                10036050 f   MSVCRT:ftol2.obj
 0001:00035059       __ftol2_pentium4           10036059 f   MSVCRT:ftol2.obj
 0001:0003506c       __ftol2_sse_excpt          1003606c f   MSVCRT:ftol2.obj
 0001:00035086       __ftol2                    10036086 f   MSVCRT:ftol2.obj
 0001:000350fc       __CItan                    100360fc f   MSVCRT:MSVCR90.dll
 0001:00035102       __CIsqrt                   10036102 f   MSVCRT:MSVCR90.dll
 0001:00035110       __alloca_probe_16          10036110 f   MSVCRT:alloca16.obj
 0001:00035126       __alloca_probe_8           10036126     MSVCRT:alloca16.obj
 0001:0003513c       __setjmp3                  1003613c f   MSVCRT:MSVCR90.dll
 0001:00035142       ___CxxLongjmpUnwind@4      10036142 f   MSVCRT:MSVCR90.dll
 0001:00035150       __alloca_probe             10036150     MSVCRT:chkstk.obj
 0001:00035150       __chkstk                   10036150 f   MSVCRT:chkstk.obj
 0001:0003517c       _memset                    1003617c f   MSVCRT:MSVCR90.dll
 0001:000351d2       __get_sse2_info            100361d2 f   MSVCRT:cpu_disp.obj
 0001:00035234       ___sse2_available_init     10036234 f   MSVCRT:cpu_disp.obj
 0002:00000000       __imp__Sleep@4             1003a000     kernel32:KERNEL32.dll
 0002:00000004       __imp__InterlockedCompareExchange@12 1003a004     kernel32:KERNEL32.dll
 0002:00000008       __imp__DisableThreadLibraryCalls@4 1003a008     kernel32:KERNEL32.dll
 0002:0000000c       __imp__QueryPerformanceCounter@4 1003a00c     kernel32:KERNEL32.dll
 0002:00000010       __imp__GetTickCount@0      1003a010     kernel32:KERNEL32.dll
 0002:00000014       __imp__GetCurrentThreadId@0 1003a014     kernel32:KERNEL32.dll
 0002:00000018       __imp__GetCurrentProcessId@0 1003a018     kernel32:KERNEL32.dll
 0002:0000001c       __imp__GetSystemTimeAsFileTime@4 1003a01c     kernel32:KERNEL32.dll
 0002:00000020       __imp__TerminateProcess@8  1003a020     kernel32:KERNEL32.dll
 0002:00000024       __imp__GetCurrentProcess@0 1003a024     kernel32:KERNEL32.dll
 0002:00000028       __imp__UnhandledExceptionFilter@4 1003a028     kernel32:KERNEL32.dll
 0002:0000002c       __imp__SetUnhandledExceptionFilter@4 1003a02c     kernel32:KERNEL32.dll
 0002:00000030       __imp__IsDebuggerPresent@0 1003a030     kernel32:KERNEL32.dll
 0002:00000034       __imp__InterlockedExchange@8 1003a034     kernel32:KERNEL32.dll
 0002:00000038       \177KERNEL32_NULL_THUNK_DATA 1003a038     kernel32:KERNEL32.dll
 0002:0000003c       __imp____dllonexit         1003a03c     MSVCRT:MSVCR90.dll
 0002:00000040       __imp___encode_pointer     1003a040     MSVCRT:MSVCR90.dll
 0002:00000044       __imp___lock               1003a044     MSVCRT:MSVCR90.dll
 0002:00000048       __imp___onexit             1003a048     MSVCRT:MSVCR90.dll
 0002:0000004c       __imp___decode_pointer     1003a04c     MSVCRT:MSVCR90.dll
 0002:00000050       __imp___malloc_crt         1003a050     MSVCRT:MSVCR90.dll
 0002:00000054       __imp__free                1003a054     MSVCRT:MSVCR90.dll
 0002:00000058       __imp___encoded_null       1003a058     MSVCRT:MSVCR90.dll
 0002:0000005c       __imp___initterm           1003a05c     MSVCRT:MSVCR90.dll
 0002:00000060       __imp___initterm_e         1003a060     MSVCRT:MSVCR90.dll
 0002:00000064       __imp___amsg_exit          1003a064     MSVCRT:MSVCR90.dll
 0002:00000068       __imp___adjust_fdiv        1003a068     MSVCRT:MSVCR90.dll
 0002:0000006c       __imp___unlock             1003a06c     MSVCRT:MSVCR90.dll
 0002:00000070       __imp___vsnprintf          1003a070     MSVCRT:MSVCR90.dll
 0002:00000070       __imp__vsnprintf           1003a070     MSVCRT:MSVCR90.dll
 0002:00000074       __imp___except_handler4_common 1003a074     MSVCRT:MSVCR90.dll
 0002:00000078       __imp_?terminate@@YAXXZ    1003a078     MSVCRT:MSVCR90.dll
 0002:0000007c       __imp_?_type_info_dtor_internal_method@type_info@@QAEXXZ 1003a07c     MSVCRT:MSVCR90.dll
 0002:00000080       __imp____clean_type_info_names_internal 1003a080     MSVCRT:MSVCR90.dll
 0002:00000084       __imp___crt_debugger_hook  1003a084     MSVCRT:MSVCR90.dll
 0002:00000088       __imp____CxxLongjmpUnwind@4 1003a088     MSVCRT:MSVCR90.dll
 0002:0000008c       __imp___setjmp3            1003a08c     MSVCRT:MSVCR90.dll
 0002:00000090       __imp___CIsqrt             1003a090     MSVCRT:MSVCR90.dll
 0002:00000094       __imp___CItan              1003a094     MSVCRT:MSVCR90.dll
 0002:00000098       __imp____CxxFrameHandler3  1003a098     MSVCRT:MSVCR90.dll
 0002:0000009c       __imp__memcpy              1003a09c     MSVCRT:MSVCR90.dll
 0002:000000a0       __imp__strncpy             1003a0a0     MSVCRT:MSVCR90.dll
 0002:000000a4       __imp__strtol              1003a0a4     MSVCRT:MSVCR90.dll
 0002:000000a8       __imp___snprintf           1003a0a8     MSVCRT:MSVCR90.dll
 0002:000000ac       __imp__strtod              1003a0ac     MSVCRT:MSVCR90.dll
 0002:000000b0       __imp__longjmp             1003a0b0     MSVCRT:MSVCR90.dll
 0002:000000b4       __imp__memchr              1003a0b4     MSVCRT:MSVCR90.dll
 0002:000000b8       __imp__strstr              1003a0b8     MSVCRT:MSVCR90.dll
 0002:000000bc       __imp__memmove             1003a0bc     MSVCRT:MSVCR90.dll
 0002:000000c0       __imp_??2@YAPAXI@Z         1003a0c0     MSVCRT:MSVCR90.dll
 0002:000000c4       __imp__sscanf              1003a0c4     MSVCRT:MSVCR90.dll
 0002:000000c8       __imp_??3@YAXPAX@Z         1003a0c8     MSVCRT:MSVCR90.dll
 0002:000000cc       __imp___purecall           1003a0cc     MSVCRT:MSVCR90.dll
 0002:000000d0       __imp__strncmp             1003a0d0     MSVCRT:MSVCR90.dll
 0002:000000d4       __imp____CppXcptFilter     1003a0d4     MSVCRT:MSVCR90.dll
 0002:000000d8       __imp__sprintf             1003a0d8     MSVCRT:MSVCR90.dll
 0002:000000dc       __imp__memset              1003a0dc     MSVCRT:MSVCR90.dll
 0002:000000e0       \177MSVCR90_NULL_THUNK_DATA 1003a0e0     MSVCRT:MSVCR90.dll
 0002:000000e4       __imp__timeGetTime@0       1003a0e4     Winmm:WINMM.dll
 0002:000000e8       \177WINMM_NULL_THUNK_DATA  1003a0e8     Winmm:WINMM.dll
 0002:000000ec       __imp__TTF_Quit            1003a0ec     lib_SDL2:lib_SDL2.dll
 0002:000000f0       __imp__SDL_RenderDrawRect  1003a0f0     lib_SDL2:lib_SDL2.dll
 0002:000000f4       __imp__SDL_RenderFillRect  1003a0f4     lib_SDL2:lib_SDL2.dll
 0002:000000f8       __imp__SDL_SetTextureColorMod 1003a0f8     lib_SDL2:lib_SDL2.dll
 0002:000000fc       __imp__SDL_CreateRenderer  1003a0fc     lib_SDL2:lib_SDL2.dll
 0002:00000100       __imp__SDL_RenderClear     1003a100     lib_SDL2:lib_SDL2.dll
 0002:00000104       __imp__SDL_RenderPresent   1003a104     lib_SDL2:lib_SDL2.dll
 0002:00000108       __imp__SDL_CreateTextureFromSurface 1003a108     lib_SDL2:lib_SDL2.dll
 0002:0000010c       __imp__SDL_SetRenderDrawColor 1003a10c     lib_SDL2:lib_SDL2.dll
 0002:00000110       __imp__SDL_DestroyTexture  1003a110     lib_SDL2:lib_SDL2.dll
 0002:00000114       __imp__SDL_DestroyRenderer 1003a114     lib_SDL2:lib_SDL2.dll
 0002:00000118       __imp__SDL_RenderCopy      1003a118     lib_SDL2:lib_SDL2.dll
 0002:0000011c       __imp__SDL_RenderDrawLines 1003a11c     lib_SDL2:lib_SDL2.dll
 0002:00000120       __imp__SDL_RenderDrawLine  1003a120     lib_SDL2:lib_SDL2.dll
 0002:00000124       __imp__SDL_FreeSurface     1003a124     lib_SDL2:lib_SDL2.dll
 0002:00000128       __imp__SDL_Quit            1003a128     lib_SDL2:lib_SDL2.dll
 0002:0000012c       __imp__SDL_StopTextInput   1003a12c     lib_SDL2:lib_SDL2.dll
 0002:00000130       __imp__SDL_GL_ExtensionSupported 1003a130     lib_SDL2:lib_SDL2.dll
 0002:00000134       __imp__SDL_Init            1003a134     lib_SDL2:lib_SDL2.dll
 0002:00000138       __imp__SDL_DestroyWindow   1003a138     lib_SDL2:lib_SDL2.dll
 0002:0000013c       __imp__TTF_GlyphMetrics    1003a13c     lib_SDL2:lib_SDL2.dll
 0002:00000140       __imp__SDL_GL_DeleteContext 1003a140     lib_SDL2:lib_SDL2.dll
 0002:00000144       __imp__SDL_GL_SwapWindow   1003a144     lib_SDL2:lib_SDL2.dll
 0002:00000148       __imp__SDL_CreateWindow    1003a148     lib_SDL2:lib_SDL2.dll
 0002:0000014c       __imp__SDL_GL_MakeCurrent  1003a14c     lib_SDL2:lib_SDL2.dll
 0002:00000150       __imp__SDL_GL_CreateContext 1003a150     lib_SDL2:lib_SDL2.dll
 0002:00000154       __imp__TTF_OpenFont        1003a154     lib_SDL2:lib_SDL2.dll
 0002:00000158       __imp__TTF_CloseFont       1003a158     lib_SDL2:lib_SDL2.dll
 0002:0000015c       __imp__TTF_Init            1003a15c     lib_SDL2:lib_SDL2.dll
 0002:00000160       __imp__SDL_PumpEvents      1003a160     lib_SDL2:lib_SDL2.dll
 0002:00000164       __imp__TTF_RenderGlyph_Shaded 1003a164     lib_SDL2:lib_SDL2.dll
 0002:00000168       __imp__SDL_Delay           1003a168     lib_SDL2:lib_SDL2.dll
 0002:0000016c       __imp__SDL_GL_GetProcAddress 1003a16c     lib_SDL2:lib_SDL2.dll
 0002:00000170       __imp__SDL_StartTextInput  1003a170     lib_SDL2:lib_SDL2.dll
 0002:00000174       __imp__SDL_PeepEvents      1003a174     lib_SDL2:lib_SDL2.dll
 0002:00000178       __imp__SDL_GetTicks        1003a178     lib_SDL2:lib_SDL2.dll
 0002:0000017c       __imp__SDL_GL_SetAttribute 1003a17c     lib_SDL2:lib_SDL2.dll
 0002:00000180       __imp__SDL_SetRenderDrawBlendMode 1003a180     lib_SDL2:lib_SDL2.dll
 0002:00000184       \177lib_SDL2_NULL_THUNK_DATA 1003a184     lib_SDL2:lib_SDL2.dll
 0002:00000188       __imp__jpeg_std_error      1003a188     lib_jpeglib:lib_jpeglib.dll
 0002:0000018c       __imp__jpeg_read_scanlines 1003a18c     lib_jpeglib:lib_jpeglib.dll
 0002:00000190       __imp__jpeg_finish_decompress 1003a190     lib_jpeglib:lib_jpeglib.dll
 0002:00000194       __imp__jpeg_read_header    1003a194     lib_jpeglib:lib_jpeglib.dll
 0002:00000198       __imp__jpeg_resync_to_restart 1003a198     lib_jpeglib:lib_jpeglib.dll
 0002:0000019c       __imp__jpeg_destroy_decompress 1003a19c     lib_jpeglib:lib_jpeglib.dll
 0002:000001a0       __imp__jpeg_start_decompress 1003a1a0     lib_jpeglib:lib_jpeglib.dll
 0002:000001a4       __imp__jpeg_destroy        1003a1a4     lib_jpeglib:lib_jpeglib.dll
 0002:000001a8       __imp__jpeg_CreateDecompress 1003a1a8     lib_jpeglib:lib_jpeglib.dll
 0002:000001ac       \177lib_jpeglib_NULL_THUNK_DATA 1003a1ac     lib_jpeglib:lib_jpeglib.dll
 0002:000001b0       __imp__png_set_read_fn     1003a1b0     lib_libpng:lib_libpng.dll
 0002:000001b4       __imp__png_destroy_read_struct 1003a1b4     lib_libpng:lib_libpng.dll
 0002:000001b8       __imp__png_set_IHDR        1003a1b8     lib_libpng:lib_libpng.dll
 0002:000001bc       __imp__png_error           1003a1bc     lib_libpng:lib_libpng.dll
 0002:000001c0       __imp__png_read_row        1003a1c0     lib_libpng:lib_libpng.dll
 0002:000001c4       __imp__png_create_write_struct 1003a1c4     lib_libpng:lib_libpng.dll
 0002:000001c8       __imp__png_create_info_struct 1003a1c8     lib_libpng:lib_libpng.dll
 0002:000001cc       __imp__png_get_io_ptr      1003a1cc     lib_libpng:lib_libpng.dll
 0002:000001d0       __imp__png_write_end       1003a1d0     lib_libpng:lib_libpng.dll
 0002:000001d4       __imp__png_create_read_struct 1003a1d4     lib_libpng:lib_libpng.dll
 0002:000001d8       __imp__png_write_rows      1003a1d8     lib_libpng:lib_libpng.dll
 0002:000001dc       __imp__png_sig_cmp         1003a1dc     lib_libpng:lib_libpng.dll
 0002:000001e0       __imp__png_read_info       1003a1e0     lib_libpng:lib_libpng.dll
 0002:000001e4       __imp__png_set_write_fn    1003a1e4     lib_libpng:lib_libpng.dll
 0002:000001e8       __imp__png_destroy_write_struct 1003a1e8     lib_libpng:lib_libpng.dll
 0002:000001ec       __imp__png_write_info      1003a1ec     lib_libpng:lib_libpng.dll
 0002:000001f0       __imp__png_get_IHDR        1003a1f0     lib_libpng:lib_libpng.dll
 0002:000001f4       __imp__png_set_sig_bytes   1003a1f4     lib_libpng:lib_libpng.dll
 0002:000001f8       __imp__png_set_longjmp_fn  1003a1f8     lib_libpng:lib_libpng.dll
 0002:000001fc       __imp__png_read_update_info 1003a1fc     lib_libpng:lib_libpng.dll
 0002:00000200       \177lib_libpng_NULL_THUNK_DATA 1003a200     lib_libpng:lib_libpng.dll
 0002:00000204       __imp__inflateEnd          1003a204     lib_zlib:lib_zlib.dll
 0002:00000208       __imp__inflate             1003a208     lib_zlib:lib_zlib.dll
 0002:0000020c       __imp__inflateInit2_       1003a20c     lib_zlib:lib_zlib.dll
 0002:00000210       __imp__deflateEnd          1003a210     lib_zlib:lib_zlib.dll
 0002:00000214       __imp__crc32               1003a214     lib_zlib:lib_zlib.dll
 0002:00000218       __imp__deflateInit2_       1003a218     lib_zlib:lib_zlib.dll
 0002:0000021c       __imp__deflate             1003a21c     lib_zlib:lib_zlib.dll
 0002:00000220       \177lib_zlib_NULL_THUNK_DATA 1003a220     lib_zlib:lib_zlib.dll
 0002:00000224       ___xc_a                    1003a224     MSVCRT:cinitexe.obj
 0002:00001288       ___xc_z                    1003b288     MSVCRT:cinitexe.obj
 0002:0000128c       ___xi_a                    1003b28c     MSVCRT:cinitexe.obj
 0002:00001298       ___xi_z                    1003b298     MSVCRT:cinitexe.obj
 0002:000012a4       ??_7type_info@@6B@         1003b2a4     MSVCRT:ti_inst.obj
 0002:000012a8       __pRawDllMain              1003b2a8     MSVCRT:crtdll.obj
 0002:000012a8       __pDefaultRawDllMain       1003b2a8     MSVCRT:crtdll.obj
 0002:000012b4       ??_C@_0P@GHFPNOJB@bad?5allocation?$AA@ 1003b2b4     plugin_test1.obj
 0002:000012c4       ??_C@_0BF@OCNNAADO@UModSys?3?3core?3?3IRoot?$AA@ 1003b2c4     plugin_test1.obj
 0002:000012dc       ??_C@_0BK@EMIJFOPA@UModSys?3?3core?3?3IRefObject?$AA@ 1003b2dc     plugin_test1.obj
 0002:000012f8       ??_C@_0BL@IOMMHELF@UModSys?3?3core?3?3IParameters?$AA@ 1003b2f8     plugin_test1.obj
 0002:00001314       ??_C@_0BI@IKAOEFAP@UModSys?3?3base?3?3IConsole?$AA@ 1003b314     plugin_test1.obj
 0002:0000132c       ??_C@_0BH@LKDEEPPM@UModSys?3?3base?3?3IModule?$AA@ 1003b32c     plugin_test1.obj
 0002:00001344       ??_C@_0BO@PHJOHFCB@UModSys?3?3base?3?3IModuleLibrary?$AA@ 1003b344     plugin_test1.obj
 0002:00001364       ??_C@_0BK@FDPIOPHG@UModSys?3?3base?3?3IModObject?$AA@ 1003b364     plugin_test1.obj
 0002:00001380       ??_C@_0BK@OIBKNCKJ@UModSys?3?3base?3?3IGenerator?$AA@ 1003b380     plugin_test1.obj
 0002:0000139c       ??_C@_0BG@PJBGCMEC@UModSys?3?3base?3?3IShell?$AA@ 1003b39c     plugin_test1.obj
 0002:000013b4       ??_C@_0BH@PFCONEJJ@UModSys?3?3base?3?3ISystem?$AA@ 1003b3b4     plugin_test1.obj
 0002:000013cc       ??_C@_0CB@CLGNFEGF@UModSys?3?3libmedia?3?3IStreamReader@ 1003b3cc     plugin_test1.obj
 0002:000013f0       ??_C@_0CB@HOPFFLP@UModSys?3?3libmedia?3?3IStreamWriter@ 1003b3f0     plugin_test1.obj
 0002:00001414       ??_C@_0BO@INLIIEII@UModSys?3?3libmedia?3?3IUtilities?$AA@ 1003b414     plugin_test1.obj
 0002:00001434       ??_C@_0BO@BMLODIDG@UModSys?3?3libmedia?3?3ILibObject?$AA@ 1003b434     plugin_test1.obj
 0002:00001454       ??_C@_0BP@KCJMEDNO@UModSys?3?3libmedia?3?3IBinArchive?$AA@ 1003b454     plugin_test1.obj
 0002:00001474       ??_C@_0CB@FDEKNMGJ@UModSys?3?3libmedia?3?3IBinObjFilter@ 1003b474     plugin_test1.obj
 0002:00001498       ??_C@_0BM@DPCMOAPM@UModSys?3?3libmedia?3?3ILibrary?$AA@ 1003b498     plugin_test1.obj
 0002:000014b4       ??_C@_0CD@ELIFEGE@UModSys?3?3libmedia?3?3ILibraryBinTr@ 1003b4b4     plugin_test1.obj
 0002:000014d8       ??_C@_0CE@EGHBJBAJ@UModSys?3?3libmedia?3?3ILibraryBinCa@ 1003b4d8     plugin_test1.obj
 0002:000014fc       ??_C@_0CF@LBIGBLOK@UModSys?3?3libmedia?3?3ILibraryObjFi@ 1003b4fc     plugin_test1.obj
 0002:00001524       ??_C@_0CE@BOBLEOBL@UModSys?3?3libmedia?3?3ILibraryObjCa@ 1003b524     plugin_test1.obj
 0002:00001548       ??_C@_0CD@LJFEJKGF@UModSys?3?3libmedia?3?3ILibraryLayer@ 1003b548     plugin_test1.obj
 0002:0000156c       ??_C@_0CE@FGFAKEDN@UModSys?3?3libmedia?3?3IBinArchiveFr@ 1003b56c     plugin_test1.obj
 0002:00001590       ??_C@_0CN@GBHCKFMF@UModSys?3?3libmedia?3?3IBinArchiveFr@ 1003b590     plugin_test1.obj
 0002:000015c0       ??_C@_0CE@GJOHFLIN@UModSys?3?3libmedia?3?3ISerializeRea@ 1003b5c0     plugin_test1.obj
 0002:000015e4       ??_C@_0CE@EFGFFKFH@UModSys?3?3libmedia?3?3ISerializeWri@ 1003b5e4     plugin_test1.obj
 0002:00001608       ?utf_bytesFromUTF8@su@tl@UModSys@@3QBEB 1003b608     umodsys_lib_core:umodsys.tl.utf8.obj
 0002:00001708       ?utf_firstByteMark@su@tl@UModSys@@3QBEB 1003b708     umodsys_lib_core:umodsys.tl.utf8.obj
 0002:00001710       ?utf_offsetsFromUTF8@su@tl@UModSys@@3QBHB 1003b710     umodsys_lib_core:umodsys.tl.utf8.obj
 0002:000017e8       ??_C@_0BL@NMJBPMOF@UModSys?3?3base?3?3IConsoleExt?$AA@ 1003b7e8     plugin_test1.obj
 0002:00001804       ??_C@_0BO@CGANABBB@UModSys?3?3base?3?3IConsoleHelper?$AA@ 1003b804     plugin_test1.obj
 0002:00001824       ??_C@_0CF@NIEDAAFG@UModSys?3?3base?3?3IConsoleHelperHis@ 1003b824     plugin_test1.obj
 0002:0000184c       ??_C@_0CD@FCDJONHN@UModSys?3?3base?3?3IConsoleHelperInp@ 1003b84c     plugin_test1.obj
 0002:00001870       ??_C@_0CE@KMOIHDDJ@UModSys?3?3base?3?3IConsoleHelperOut@ 1003b870     plugin_test1.obj
 0002:00001894       ??_C@_0CH@NMEMKECD@UModSys?3?3base?3?3IConsoleHelperOut@ 1003b894     plugin_test1.obj
 0002:000018bc       ??_C@_0CE@DIFILHID@UModSys?3?3libui?3?3IKeyboardControl@ 1003b8bc     plugin_test1.obj
 0002:000018e0       ??_C@_0CB@MBIJAGJE@UModSys?3?3libui?3?3IMouseController@ 1003b8e0     plugin_test1.obj
 0002:00001904       ??_C@_0CE@HLKJKPC@UModSys?3?3libui?3?3IJoystickControl@ 1003b904     plugin_test1.obj
 0002:00001928       ??_C@_0BK@GJJNKGGD@UModSys?3?3libui?3?3ITerminal?$AA@ 1003b928     plugin_test1.obj
 0002:00001944       ??_C@_0CK@HENOKNKH@UModSys?3?3libui?3?3IConsoleHelperIn@ 1003b944     plugin_test1.obj
 0002:00001970       ??_C@_0BL@LMBCJDKM@UModSys?3?3libui?3?3ICollector?$AA@ 1003b970     plugin_test1.obj
 0002:0000198c       ??_C@_0CB@FBNPBBJO@UModSys?3?3libui?3?3IAsyncController@ 1003b98c     plugin_test1.obj
 0002:000019b0       ??_C@_0CA@OAEFPLGI@UModSys?3?3libui?3?3IAsyncCollector?$AA@ 1003b9b0     plugin_test1.obj
 0002:000019d0       ??_C@_0BH@IHOOLPEB@UModSys?3?3libui?3?3IFrame?$AA@ 1003b9d0     plugin_test1.obj
 0002:000019e8       ??_C@_0BI@GAEFGDBL@UModSys?3?3libui?3?3IDialog?$AA@ 1003b9e8     plugin_test1.obj
 0002:00001a00       ??_C@_0BH@JDBCAPMN@UModSys?3?3lib2d?3?3IImage?$AA@ 1003ba00     plugin_test1.obj
 0002:00001a18       ??_C@_0BO@GDIFOICC@UModSys?3?3lib2d?3?3IImageFactory?$AA@ 1003ba18     plugin_test1.obj
 0002:00001a38       ??_C@_0BM@NDCOKBPH@UModSys?3?3lib2d?3?3IMultiImage?$AA@ 1003ba38     plugin_test1.obj
 0002:00001a54       ??_C@_0BO@FFPMHFPK@UModSys?3?3lib2d?3?3IRenderDriver?$AA@ 1003ba54     plugin_test1.obj
 0002:00001a74       ??_C@_0BI@HOGCFOFI@UModSys?3?3lib3d?3?3IObject?$AA@ 1003ba74     plugin_test1.obj
 0002:00001a8c       ??_C@_0BO@OMKEMMOP@UModSys?3?3lib3d?3?3IRenderObject?$AA@ 1003ba8c     plugin_test1.obj
 0002:00001aac       ??_C@_0BM@HHHFONDD@UModSys?3?3lib3d?3?3INodeObject?$AA@ 1003baac     plugin_test1.obj
 0002:00001ac8       ??_C@_0BP@ODBFJMEP@UModSys?3?3lib3d?3?3ISharedLibrary?$AA@ 1003bac8     plugin_test1.obj
 0002:00001ae8       ??_C@_0BK@GPNGDGIH@UModSys?3?3lib3d?3?3IRenderer?$AA@ 1003bae8     plugin_test1.obj
 0002:00001b04       ??_C@_0BJ@PLFDFONK@UModSys?3?3lib3d?3?3ITexture?$AA@ 1003bb04     plugin_test1.obj
 0002:00001b20       ??_C@_0BO@JNBEGHMD@UModSys?3?3lib3d?3?3ITextureCells?$AA@ 1003bb20     plugin_test1.obj
 0002:00001b40       ??_C@_0BN@NOBBOAEH@UModSys?3?3lib3d?3?3IVertexArray?$AA@ 1003bb40     plugin_test1.obj
 0002:00001b60       ??_C@_0BO@LKKOMDBL@UModSys?3?3lib3d?3?3IRenderDriver?$AA@ 1003bb60     plugin_test1.obj
 0002:00001b80       ??_C@_0CG@DNABKNDD@UModSys?3?3modules?3?3test?3?3test1?3?3I@ 1003bb80     plugin_test1.obj
 0002:00001ba8       ??_C@_0CG@FINIGFAH@UModSys?3?3modules?3?3test?3?3test1?3?3R@ 1003bba8     plugin_test1.obj
 0002:00001bd0       ??_C@_0CN@EFAOPDDB@UModSys?3?3modules?3?3test?3?3test1?3?3R@ 1003bbd0     plugin_test1.obj
 0002:00001c00       ??_C@_0CM@LNHNHIJB@UModSys?3?3modules?3?3test?3?3test1?3?3R@ 1003bc00     plugin_test1.obj
 0002:00001c2c       ??_C@_0BC@NIGGCDMG@RTest1_Shell?$CI?$CJ?5?$HL?6?$AA@ 1003bc2c     plugin_test1.obj
 0002:00001c40       ??_C@_0DK@JIEMIEKA@UModSys?3?3modules?3?3test?3?3test1?3?3R@ 1003bc40     plugin_test1.obj
 0002:00001c7c       ??_C@_0CK@OICDGBDJ@?4?4?2?4?4?2?4?4?2src?2plugin?2test?2plugin_@ 1003bc7c     plugin_test1.obj
 0002:00001ca8       ??_C@_0BF@BMCPNMPN@?$HN?5?1?1?5RTest1_Shell?$CI?$CJ?6?$AA@ 1003bca8     plugin_test1.obj
 0002:00001cc0       ??_C@_0DL@OIAHAJF@UModSys?3?3modules?3?3test?3?3test1?3?3R@ 1003bcc0     plugin_test1.obj
 0002:00001cfc       ??_C@_0BB@MLDFLEML@?$HORTest1_Shell?$CI?$CJ?6?$AA@ 1003bcfc     plugin_test1.obj
 0002:00001d10       ??_C@_0BJ@CCPCJEPP@RTest1_Shell?3?3connect?$CI?$CJ?6?$AA@ 1003bd10     plugin_test1.obj
 0002:00001d2c       ??_C@_0BM@KBDBHLN@RTest1_Shell?3?3disconnect?$CI?$CJ?6?$AA@ 1003bd2c     plugin_test1.obj
 0002:00001d48       ??_C@_0BI@PGLACHLJ@RTest1_Shell?3?3tick?$CI?$CFg?$CJ?6?$AA@ 1003bd48     plugin_test1.obj
 0002:00001d60       ??_C@_0BM@JFIEEBE@RTest1_Shell?3?3command?$CI?$CD?$CFd?$CJ?6?$AA@ 1003bd60     plugin_test1.obj
 0002:00001d7c       ??_C@_00CNPNBAHC@?$AA@     1003bd7c     plugin_test1.obj
 0002:00001d80       ??_C@_07OJGHGMNE@factory?$AA@ 1003bd80     plugin_test1.obj
 0002:00001d88       ??_C@_08BABJIOEM@filename?$AA@ 1003bd88     plugin_test1.obj
 0002:00001d94       ??_C@_06DJAMKFID@stream?$AA@ 1003bd94     plugin_test1.obj
 0002:00001d9c       ??_C@_0O@IMJFODOA@lib2d?3?3IImage?$AA@ 1003bd9c     plugin_test1.obj
 0002:00001dac       ??_C@_0L@DIAMDLBM@ICollector?$AA@ 1003bdac     plugin_test1.obj
 0002:00001db8       ??_C@_09MJHEMIHA@ITerminal?$AA@ 1003bdb8     plugin_test1.obj
 0002:00001dc4       ??_C@_0BH@GMHJDKHE@?$FLKEY?4KEY?5?$CFd?0?$CFd?0?$CFd?0?$CFd?$FN?6?$AA@ 1003bdc4     plugin_test1.obj
 0002:00001ddc       ??_C@_0P@DPHFCOMI@?$FLKEY?4TEXT?5?$CFs?$FN?6?$AA@ 1003bddc     plugin_test1.obj
 0002:00001dec       ??_C@_0CO@KGBDJAHA@?$FLMOUSE?5?$CFx?5B?$CFx?3?$CFd?5A?$CI?$CFd?0?$CFd?$CJ?5R?$CI?$CFd?0?$CF@ 1003bdec     plugin_test1.obj
 0002:00001e1c       ??_C@_0BJ@OKPGIKIP@?$FLCOMMAND?5?$CFd?$EA?$CFp?5C?$CFd?5D?$CFd?$FN?6?$AA@ 1003be1c     plugin_test1.obj
 0002:00001e38       ??_C@_05IOMEMJEC@count?$AA@ 1003be38     plugin_test1.obj
 0002:00001e40       ??_C@_02LBJNIHKO@dy?$AA@   1003be40     plugin_test1.obj
 0002:00001e44       ??_C@_04CIMGMMMG@text?$AA@ 1003be44     plugin_test1.obj
 0002:00001e4c       ??_C@_08GCGILLNN@Item?5?$CD?$CFd?$AA@ 1003be4c     plugin_test1.obj
 0002:00001e58       ??_C@_0L@DPNPMJNC@Neocyr?4ttf?$AA@ 1003be58     plugin_test1.obj
 0002:00001e64       ??_C@_09HPINFNJC@max_glyph?$AA@ 1003be64     plugin_test1.obj
 0002:00001e70       ??_C@_0BF@OHNOFNLO@?5?5error?5create?5font?6?$AA@ 1003be70     plugin_test1.obj
 0002:00001e88       ??_C@_0BK@EIEBINCJ@?5?5created?5font?3?5?$CFs?5?$DN?$DO?5?$CFp?6?$AA@ 1003be88     plugin_test1.obj
 0002:00001ea4       ??_C@_0CE@KNEEOFOA@?5?5error?5create?5IKeyboardControll@ 1003bea4     plugin_test1.obj
 0002:00001ec8       ??_C@_0CJ@OEBBFEFK@?5?5created?5IKeyboardController?3?5?$CF@ 1003bec8     plugin_test1.obj
 0002:00001ef4       ??_C@_0CB@NHAHJFLI@?5?5error?5create?5IMouseController?6@ 1003bef4     plugin_test1.obj
 0002:00001f18       ??_C@_0CG@IKOBAIJ@?5?5created?5IMouseController?3?5?$CFs?5?$DN@ 1003bf18     plugin_test1.obj
 0002:00001f40       ??_C@_07BANDPJOM@caption?$AA@ 1003bf40     plugin_test1.obj
 0002:00001f48       ??_C@_0CE@HACAKFFL@?5?5not?5created?5lib2d?3?3IRenderDriv@ 1003bf48     plugin_test1.obj
 0002:00001f6c       ??_C@_0CK@INONFMOM@?5?5created?5lib2d?3?3IRenderDriver?3?5@ 1003bf6c     plugin_test1.obj
 0002:00001f98       ??_C@_06NCODBMHO@driver?$AA@ 1003bf98     plugin_test1.obj
 0002:00001fa0       ??_C@_04EFPADHIC@font?$AA@ 1003bfa0     plugin_test1.obj
 0002:00001fa8       ??_C@_0N@IGLHPLGK@?$CK?3?3frames?3?3?$CK?$AA@ 1003bfa8     plugin_test1.obj
 0002:00001fb8       ??_C@_05MIJNFGED@frame?$AA@ 1003bfb8     plugin_test1.obj
 0002:00001fc0       ??_C@_07OJKFJLLK@Caption?$AA@ 1003bfc0     plugin_test1.obj
 0002:00001fc8       ??_C@_08LLDNMFDF@Button?51?$AA@ 1003bfc8     plugin_test1.obj
 0002:00001fd4       ??_C@_06HFKPFKMP@button?$AA@ 1003bfd4     plugin_test1.obj
 0002:00001fdc       ??_C@_08JABAJGPG@Button?52?$AA@ 1003bfdc     plugin_test1.obj
 0002:00001fe8       ??_C@_08IJALKHLH@Button?53?$AA@ 1003bfe8     plugin_test1.obj
 0002:00001ff4       ??_C@_05MFEJDJP@value?$AA@ 1003bff4     plugin_test1.obj
 0002:00001ffc       ??_C@_07GFFCACEC@max_len?$AA@ 1003bffc     plugin_test1.obj
 0002:00002004       ??_C@_04NABONMNG@edit?$AA@ 1003c004     plugin_test1.obj
 0002:0000200c       ??_C@_07PDLNCNLP@user_db?$AA@ 1003c00c     plugin_test1.obj
 0002:00002014       ??_C@_04DONFEANM@list?$AA@ 1003c014     plugin_test1.obj
 0002:00002020       ??_C@_0GD@BNBMLNGM@?5?5Cube?5chunk?5array?5?$FL?$CFd?0?$CFd?0?$CFd?$FN?1?$CFd@ 1003c020     plugin_test1.obj
 0002:00002084       ??_C@_0N@GBNMEDNI@?$CK?3?3SDL_GL?3?3?$CK?$AA@ 1003c084     plugin_test1.obj
 0002:00002094       ??_C@_07EPLPNHLN@Test?5?$CD1?$AA@ 1003c094     plugin_test1.obj
 0002:0000209c       ??_C@_0CK@DEJPICLK@UModSys?3?3modules?3?3test?3?3test1?3?3R@ 1003c09c     plugin_test1.obj
 0002:000020c8       ??_C@_0BJ@NOFIIAEK@U_MOD?3?3RGenerator?3unique?$AA@ 1003c0c8     plugin_test1.obj
 0002:000020e4       ??_C@_0BA@NMEBLMNE@Test?51?5?9?5module?$AA@ 1003c0e4     plugin_test1.obj
 0002:000020f4       ??_C@_0N@FOCLJAHI@tests?3?3test1?$AA@ 1003c0f4     plugin_test1.obj
 0002:00002104       ??_C@_0BE@HJEBHPIG@RModuleReg?3?3open?$CI?$CJ?6?$AA@ 1003c104     plugin_test1.obj
 0002:00002118       ??_C@_0BF@KIBBFLP@RModuleReg?3?3close?$CI?$CJ?6?$AA@ 1003c118     plugin_test1.obj
 0002:00002130       ??_C@_09JGNMLHG@modobject?$AA@ 1003c130     plugin_test1.obj
 0002:0000213c       ??_C@_08FCBDOIAH@typeinfo?$AA@ 1003c13c     plugin_test1.obj
 0002:00002148       ??_C@_0BI@HCJDLBPI@?5?5fail?5generate?5?$CFs?$CI?$CFs?$CJ?6?$AA@ 1003c148     plugin_test1.obj
 0002:00002160       ??_C@_0BE@IGLAGOMC@?5?5fail?5find?5?$CFs?$CI?$CFs?$CJ?6?$AA@ 1003c160     plugin_test1.obj
 0002:00002174       ??_C@_0BK@IGGNHCDJ@?5?5generated?5?$CFs?$CI?$CFs?$CJ?5?$DN?$DO?5?$CFp?6?$AA@ 1003c174     plugin_test1.obj
 0002:00002194       ??_7IRoot@core@UModSys@@6B@ 1003c194     plugin_test1.obj
 0002:000021b8       ??_7IRefObject@core@UModSys@@6B@ 1003c1b8     plugin_test1.obj
 0002:000021ec       ??_7ISetter@SFlags@libmedia@UModSys@@6B@ 1003c1ec     plugin_test1.obj
 0002:000021fc       ??_7IKeyboardClient@libui@UModSys@@6B@ 1003c1fc     plugin_test1.obj
 0002:00002208       ??_7IMouseClient@libui@UModSys@@6B@ 1003c208     plugin_test1.obj
 0002:00002210       ??_7IControllerData@libui@UModSys@@6B@ 1003c210     plugin_test1.obj
 0002:0000221c       ??_7IController@libui@UModSys@@6BIControllerCommand@12@@ 1003c21c     plugin_test1.obj
 0002:00002228       ??_7IController@libui@UModSys@@6BIControllerData@12@@ 1003c228     plugin_test1.obj
 0002:00002234       ??_7RTest1_Shell@test1@test@modules@UModSys@@6BIShell@base@4@@ 1003c234     plugin_test1.obj
 0002:00002278       ??_7RTest1_Shell@test1@test@modules@UModSys@@6BIKeyboardClient@libui@4@@ 1003c278     plugin_test1.obj
 0002:00002284       ??_7RTest1_Shell@test1@test@modules@UModSys@@6BIMouseClient@libui@4@@ 1003c284     plugin_test1.obj
 0002:0000228c       ??_7RTest1_Shell@test1@test@modules@UModSys@@6BIControllerCommand@libui@4@@ 1003c28c     plugin_test1.obj
 0002:00002298       ??_7RTest1_Shell@test1@test@modules@UModSys@@6BIControllerData@libui@4@@ 1003c298     plugin_test1.obj
 0002:000022a4       ??_7RGenerator@test1@test@modules@UModSys@@6B@ 1003c2a4     plugin_test1.obj
 0002:000022f4       ??_7RModuleReg@test1@test@modules@UModSys@@6B@ 1003c2f4     plugin_test1.obj
 0002:00002310       ??_C@_0CC@OMJILOII@UModSys?3?3lib3d?3?3INodeObject_Brus@ 1003c310     umodsys_lib_lib3d:umodsys.lib.3d.common.obj
 0002:00002334       ??_C@_0CB@FKAAAIHE@UModSys?3?3lib3d?3?3INodeObject_Mesh@ 1003c334     umodsys_lib_lib3d:umodsys.lib.3d.common.obj
 0002:00002358       ??_C@_0CE@OOHAPDK@UModSys?3?3lib3d?3?3INodeObject_Pict@ 1003c358     umodsys_lib_lib3d:umodsys.lib.3d.common.obj
 0002:0000237c       ??_C@_0CG@KAENEOAE@UModSys?3?3lib3d?3?3INodeObject_Part@ 1003c37c     umodsys_lib_lib3d:umodsys.lib.3d.common.obj
 0002:000023a4       ??_C@_0CD@IIAPEAGN@UModSys?3?3lib3d?3?3INodeObject_Came@ 1003c3a4     umodsys_lib_lib3d:umodsys.lib.3d.common.obj
 0002:000023c8       ??_C@_0CC@MNLGPHLD@UModSys?3?3lib3d?3?3INodeObject_Ligh@ 1003c3c8     umodsys_lib_lib3d:umodsys.lib.3d.common.obj
 0002:000023ec       ??_C@_0CB@GDMNNDBH@UModSys?3?3lib3d?3?3ISceneController@ 1003c3ec     umodsys_lib_lib3d:umodsys.lib.3d.common.obj
 0002:00002410       ??_C@_0BH@MPFCODEJ@UModSys?3?3lib3d?3?3IScene?$AA@ 1003c410     umodsys_lib_lib3d:umodsys.lib.3d.common.obj
 0002:00002428       ??_C@_0CP@CHDLGDD@UModSys?3?3modules?3?3lib2d?3?3stdlib?3@ 1003c428     umodsys_lib_lib2d:umodsys.mod.2d.stdlib.obj
 0002:00002458       ??_C@_0DG@PPDKDFEE@UModSys?3?3modules?3?3lib2d?3?3stdlib?3@ 1003c458     umodsys_lib_lib2d:umodsys.mod.2d.stdlib.obj
 0002:00002490       ??_C@_0CN@LGOPIGAH@UModSys?3?3modules?3?3lib2d?3?3stdlib?3@ 1003c490     umodsys_lib_lib2d:umodsys.mod.2d.stdlib.obj
 0002:000024c0       ??_C@_0CM@EIHKIMB@UModSys?3?3modules?3?3lib2d?3?3stdlib?3@ 1003c4c0     umodsys_lib_lib2d:umodsys.mod.2d.stdlib.obj
 0002:000024ec       ??_C@_0O@ICMHAMOO@lib2d?3?3stdlib?$AA@ 1003c4ec     umodsys_lib_lib2d:umodsys.mod.2d.stdlib.obj
 0002:00002504       ??_7RGenerator@stdlib@lib2d@modules@UModSys@@6B@ 1003c504     umodsys_lib_lib2d:umodsys.mod.2d.stdlib.obj
 0002:00002554       ??_7RImage_Memory@stdlib@lib2d@modules@UModSys@@6B@ 1003c554     umodsys_lib_lib2d:umodsys.mod.2d.stdlib.obj
 0002:000025a4       ??_7RImageFactory_Memory@stdlib@lib2d@modules@UModSys@@6B@ 1003c5a4     umodsys_lib_lib2d:umodsys.mod.2d.stdlib.obj
 0002:000025e4       ??_7RMultiImage@stdlib@lib2d@modules@UModSys@@6B@ 1003c5e4     umodsys_lib_lib2d:umodsys.mod.2d.stdlib.obj
 0002:00002648       ??_7RModuleReg@stdlib@lib2d@modules@UModSys@@6B@ 1003c648     umodsys_lib_lib2d:umodsys.mod.2d.stdlib.obj
 0002:00002664       ??_C@_07NBCGADJA@Unknown?$AA@ 1003c664     umodsys_lib_libui:umodsys.mod.ui.SDL_GL.obj
 0002:0000266c       ??_C@_04HMPDNAFK@Draw?$AA@ 1003c66c     umodsys_lib_libui:umodsys.mod.ui.SDL_GL.obj
 0002:00002674       ??_C@_02LDEEJNBC@2D?$AA@   1003c674     umodsys_lib_libui:umodsys.mod.ui.SDL_GL.obj
 0002:00002678       ??_C@_02LCIGPHCF@3D?$AA@   1003c678     umodsys_lib_libui:umodsys.mod.ui.SDL_GL.obj
 0002:0000267c       ??_C@_03DBKJMAGF@End?$AA@  1003c67c     umodsys_lib_libui:umodsys.mod.ui.SDL_GL.obj
 0002:00002680       ??_C@_05EHPGHEDK@Begin?$AA@ 1003c680     umodsys_lib_libui:umodsys.mod.ui.SDL_GL.obj
 0002:00002688       ??_C@_05NAOIJFC@Error?$AA@ 1003c688     umodsys_lib_libui:umodsys.mod.ui.SDL_GL.obj
 0002:00002690       ??_C@_04OHJIHAFH@None?$AA@ 1003c690     umodsys_lib_libui:umodsys.mod.ui.SDL_GL.obj
 0002:00002698       ??_C@_0DC@EKNFHMCM@UModSys?3?3modules?3?3ui?3?3SDL_GL?3?3RK@ 1003c698     umodsys_lib_libui:umodsys.mod.ui.SDL_GL.obj
 0002:000026cc       ??_C@_0CP@COIDJLOH@UModSys?3?3modules?3?3ui?3?3SDL_GL?3?3RM@ 1003c6cc     umodsys_lib_libui:umodsys.mod.ui.SDL_GL.obj
 0002:000026fc       ??_C@_0CI@JIGCCNFP@UModSys?3?3modules?3?3ui?3?3SDL_GL?3?3RT@ 1003c6fc     umodsys_lib_libui:umodsys.mod.ui.SDL_GL.obj
 0002:00002724       ??_C@_0DE@FLBPCDKD@UModSys?3?3modules?3?3ui?3?3SDL_GL?3?3RM@ 1003c724     umodsys_lib_libui:umodsys.mod.ui.SDL_GL.obj
 0002:00002758       ??_C@_0CO@EABOMHEJ@UModSys?3?3modules?3?3ui?3?3SDL_GL?3?3RR@ 1003c758     umodsys_lib_libui:umodsys.mod.ui.SDL_GL.obj
 0002:00002788       ??_C@_0CJ@IJCOPJBE@UModSys?3?3modules?3?3ui?3?3SDL_GL?3?3RT@ 1003c788     umodsys_lib_libui:umodsys.mod.ui.SDL_GL.obj
 0002:000027b4       ??_C@_0CL@PFCNMCOK@UModSys?3?3modules?3?3ui?3?3SDL_GL?3?3RV@ 1003c7b4     umodsys_lib_libui:umodsys.mod.ui.SDL_GL.obj
 0002:000027e0       ??_C@_0CJ@LMOHBJKJ@UModSys?3?3modules?3?3ui?3?3SDL_GL?3?3RG@ 1003c7e0     umodsys_lib_libui:umodsys.mod.ui.SDL_GL.obj
 0002:0000280c       ??_C@_04MGOIFCEG@SDL2?$AA@ 1003c80c     umodsys_lib_libui:umodsys.mod.ui.SDL_GL.obj
 0002:00002814       ??_C@_01FJMABOPO@x?$AA@    1003c814     umodsys_lib_libui:umodsys.mod.ui.SDL_GL.obj
 0002:00002818       ??_C@_01EANLCPLP@y?$AA@    1003c818     umodsys_lib_libui:umodsys.mod.ui.SDL_GL.obj
 0002:0000281c       ??_C@_02KIIGLGOP@dx?$AA@   1003c81c     umodsys_lib_libui:umodsys.mod.ui.SDL_GL.obj
 0002:00002820       ??_C@_04IAGNFIBA@size?$AA@ 1003c820     umodsys_lib_libui:umodsys.mod.ui.SDL_GL.obj
 0002:00002828       ??_C@_07CMIMECFO@xoffset?$AA@ 1003c828     umodsys_lib_libui:umodsys.mod.ui.SDL_GL.obj
 0002:00002830       ??_C@_07OACGECMA@yoffset?$AA@ 1003c830     umodsys_lib_libui:umodsys.mod.ui.SDL_GL.obj
 0002:00002838       ??_C@_05IGKADHGO@width?$AA@ 1003c838     umodsys_lib_libui:umodsys.mod.ui.SDL_GL.obj
 0002:00002840       ??_C@_06LNLHEAAG@height?$AA@ 1003c840     umodsys_lib_libui:umodsys.mod.ui.SDL_GL.obj
 0002:00002848       ??_C@_0CI@PICFILMJ@R3D?3?3?5can?8t?5go?5phase?5from?5?$FL?$CFs?$FN?5t@ 1003c848     umodsys_lib_libui:umodsys.mod.ui.SDL_GL.obj
 0002:00002870       ??_C@_0CK@CDAHJFJI@R3D?3?3?5can?8t?5use?5phase?5?$FL?$CFs?$FN?0?5requ@ 1003c870     umodsys_lib_libui:umodsys.mod.ui.SDL_GL.obj
 0002:0000289c       ??_C@_04MDCOKCOB@?4ttf?$AA@ 1003c89c     umodsys_lib_libui:umodsys.mod.ui.SDL_GL.obj
 0002:000028a4       ??_C@_0P@EFLGECIK@GL_VERSION_1_0?$AA@ 1003c8a4     umodsys_lib_libui:umodsys.mod.ui.SDL_GL.obj
 0002:000028b4       ??_C@_0M@PFBKOKOH@glBlendFunc?$AA@ 1003c8b4     umodsys_lib_libui:umodsys.mod.ui.SDL_GL.obj
 0002:000028c0       ??_C@_0BC@HIGLIOCP@Error?5link?5?8?$CFs?8?4?6?$AA@ 1003c8c0     umodsys_lib_libui:umodsys.mod.ui.SDL_GL.obj
 0002:000028d4       ??_C@_07IBAPPAHJ@glClear?$AA@ 1003c8d4     umodsys_lib_libui:umodsys.mod.ui.SDL_GL.obj
 0002:000028dc       ??_C@_0N@OGLMDNKC@glClearColor?$AA@ 1003c8dc     umodsys_lib_libui:umodsys.mod.ui.SDL_GL.obj
 0002:000028ec       ??_C@_0N@LJIELNG@glClearDepth?$AA@ 1003c8ec     umodsys_lib_libui:umodsys.mod.ui.SDL_GL.obj
 0002:000028fc       ??_C@_0P@KBLPBBFP@glClearStencil?$AA@ 1003c8fc     umodsys_lib_libui:umodsys.mod.ui.SDL_GL.obj
 0002:0000290c       ??_C@_0M@DLGOAHPH@glColorMask?$AA@ 1003c90c     umodsys_lib_libui:umodsys.mod.ui.SDL_GL.obj
 0002:00002918       ??_C@_0L@BAPBLHME@glCullFace?$AA@ 1003c918     umodsys_lib_libui:umodsys.mod.ui.SDL_GL.obj
 0002:00002924       ??_C@_0M@NEJABAEP@glDepthFunc?$AA@ 1003c924     umodsys_lib_libui:umodsys.mod.ui.SDL_GL.obj
 0002:00002930       ??_C@_0M@KABMFLLN@glDepthMask?$AA@ 1003c930     umodsys_lib_libui:umodsys.mod.ui.SDL_GL.obj
 0002:0000293c       ??_C@_0N@PEBDIKOA@glDepthRange?$AA@ 1003c93c     umodsys_lib_libui:umodsys.mod.ui.SDL_GL.obj
 0002:0000294c       ??_C@_09MHGMIMKN@glDisable?$AA@ 1003c94c     umodsys_lib_libui:umodsys.mod.ui.SDL_GL.obj
 0002:00002958       ??_C@_0N@EKCLGPL@glDrawBuffer?$AA@ 1003c958     umodsys_lib_libui:umodsys.mod.ui.SDL_GL.obj
 0002:00002968       ??_C@_08OOEHEKOP@glEnable?$AA@ 1003c968     umodsys_lib_libui:umodsys.mod.ui.SDL_GL.obj
 0002:00002974       ??_C@_08DFCPOKBK@glFinish?$AA@ 1003c974     umodsys_lib_libui:umodsys.mod.ui.SDL_GL.obj
 0002:00002980       ??_C@_07COFELLJA@glFlush?$AA@ 1003c980     umodsys_lib_libui:umodsys.mod.ui.SDL_GL.obj
 0002:00002988       ??_C@_0M@ILBMDJDA@glFrontFace?$AA@ 1003c988     umodsys_lib_libui:umodsys.mod.ui.SDL_GL.obj
 0002:00002994       ??_C@_0O@NLMELLCJ@glGetBooleanv?$AA@ 1003c994     umodsys_lib_libui:umodsys.mod.ui.SDL_GL.obj
 0002:000029a4       ??_C@_0N@OFBMMCDH@glGetDoublev?$AA@ 1003c9a4     umodsys_lib_libui:umodsys.mod.ui.SDL_GL.obj
 0002:000029b4       ??_C@_0L@FPKAMKHB@glGetError?$AA@ 1003c9b4     umodsys_lib_libui:umodsys.mod.ui.SDL_GL.obj
 0002:000029c0       ??_C@_0M@CKCOBONE@glGetFloatv?$AA@ 1003c9c0     umodsys_lib_libui:umodsys.mod.ui.SDL_GL.obj
 0002:000029cc       ??_C@_0O@DHHDCCLF@glGetIntegerv?$AA@ 1003c9cc     umodsys_lib_libui:umodsys.mod.ui.SDL_GL.obj
 0002:000029dc       ??_C@_0M@OPOBFDCB@glGetString?$AA@ 1003c9dc     umodsys_lib_libui:umodsys.mod.ui.SDL_GL.obj
 0002:000029e8       ??_C@_0O@DOIIJLAD@glGetTexImage?$AA@ 1003c9e8     umodsys_lib_libui:umodsys.mod.ui.SDL_GL.obj
 0002:000029f8       ??_C@_0BJ@GAMLGIFF@glGetTexLevelParameterfv?$AA@ 1003c9f8     umodsys_lib_libui:umodsys.mod.ui.SDL_GL.obj
 0002:00002a14       ??_C@_0BJ@GLJHCPGI@glGetTexLevelParameteriv?$AA@ 1003ca14     umodsys_lib_libui:umodsys.mod.ui.SDL_GL.obj
 0002:00002a30       ??_C@_0BE@DNHBPKMC@glGetTexParameterfv?$AA@ 1003ca30     umodsys_lib_libui:umodsys.mod.ui.SDL_GL.obj
 0002:00002a44       ??_C@_0BE@DGCNLNPP@glGetTexParameteriv?$AA@ 1003ca44     umodsys_lib_libui:umodsys.mod.ui.SDL_GL.obj
 0002:00002a58       ??_C@_06HEADGMBC@glHint?$AA@ 1003ca58     umodsys_lib_libui:umodsys.mod.ui.SDL_GL.obj
 0002:00002a60       ??_C@_0M@INHMIHKC@glIsEnabled?$AA@ 1003ca60     umodsys_lib_libui:umodsys.mod.ui.SDL_GL.obj
 0002:00002a6c       ??_C@_0M@CFLGNFPG@glLineWidth?$AA@ 1003ca6c     umodsys_lib_libui:umodsys.mod.ui.SDL_GL.obj
 0002:00002a78       ??_C@_09GKGMNAKG@glLogicOp?$AA@ 1003ca78     umodsys_lib_libui:umodsys.mod.ui.SDL_GL.obj
 0002:00002a84       ??_C@_0O@BFLAHHCK@glPixelStoref?$AA@ 1003ca84     umodsys_lib_libui:umodsys.mod.ui.SDL_GL.obj
 0002:00002a94       ??_C@_0O@JCCIGLOF@glPixelStorei?$AA@ 1003ca94     umodsys_lib_libui:umodsys.mod.ui.SDL_GL.obj
 0002:00002aa4       ??_C@_0M@EEAPMMNM@glPointSize?$AA@ 1003caa4     umodsys_lib_libui:umodsys.mod.ui.SDL_GL.obj
 0002:00002ab0       ??_C@_0O@DKMNBFMB@glPolygonMode?$AA@ 1003cab0     umodsys_lib_libui:umodsys.mod.ui.SDL_GL.obj
 0002:00002ac0       ??_C@_0N@HFKHBECK@glReadBuffer?$AA@ 1003cac0     umodsys_lib_libui:umodsys.mod.ui.SDL_GL.obj
 0002:00002ad0       ??_C@_0N@CKFNNHOO@glReadPixels?$AA@ 1003cad0     umodsys_lib_libui:umodsys.mod.ui.SDL_GL.obj
 0002:00002ae0       ??_C@_09ECGPAEPL@glScissor?$AA@ 1003cae0     umodsys_lib_libui:umodsys.mod.ui.SDL_GL.obj
 0002:00002aec       ??_C@_0O@ENNLLOLN@glStencilFunc?$AA@ 1003caec     umodsys_lib_libui:umodsys.mod.ui.SDL_GL.obj
 0002:00002afc       ??_C@_0O@DJFHPFEP@glStencilMask?$AA@ 1003cafc     umodsys_lib_libui:umodsys.mod.ui.SDL_GL.obj
 0002:00002b0c       ??_C@_0M@BILBNGF@glStencilOp?$AA@ 1003cb0c     umodsys_lib_libui:umodsys.mod.ui.SDL_GL.obj
 0002:00002b18       ??_C@_0N@JDMMMFHL@glTexImage1D?$AA@ 1003cb18     umodsys_lib_libui:umodsys.mod.ui.SDL_GL.obj
 0002:00002b28       ??_C@_0N@JBIKHLCC@glTexImage2D?$AA@ 1003cb28     umodsys_lib_libui:umodsys.mod.ui.SDL_GL.obj
 0002:00002b38       ??_C@_0BA@INKFIMGP@glTexParameterf?$AA@ 1003cb38     umodsys_lib_libui:umodsys.mod.ui.SDL_GL.obj
 0002:00002b48       ??_C@_0BB@KEOFAHDF@glTexParameterfv?$AA@ 1003cb48     umodsys_lib_libui:umodsys.mod.ui.SDL_GL.obj
 0002:00002b5c       ??_C@_0BA@KDNJAKA@glTexParameteri?$AA@ 1003cb5c     umodsys_lib_libui:umodsys.mod.ui.SDL_GL.obj
 0002:00002b6c       ??_C@_0BB@KPLJEAAI@glTexParameteriv?$AA@ 1003cb6c     umodsys_lib_libui:umodsys.mod.ui.SDL_GL.obj
 0002:00002b80       ??_C@_0L@KBLIPDFH@glViewport?$AA@ 1003cb80     umodsys_lib_libui:umodsys.mod.ui.SDL_GL.obj
 0002:00002b8c       ??_C@_0P@FMKNHDML@GL_VERSION_1_1?$AA@ 1003cb8c     umodsys_lib_libui:umodsys.mod.ui.SDL_GL.obj
 0002:00002b9c       ??_C@_0O@JKKCIBGC@glBindTexture?$AA@ 1003cb9c     umodsys_lib_libui:umodsys.mod.ui.SDL_GL.obj
 0002:00002bac       ??_C@_0BB@MEEDBHPL@glCopyTexImage1D?$AA@ 1003cbac     umodsys_lib_libui:umodsys.mod.ui.SDL_GL.obj
 0002:00002bc0       ??_C@_0BB@MGAFKJKC@glCopyTexImage2D?$AA@ 1003cbc0     umodsys_lib_libui:umodsys.mod.ui.SDL_GL.obj
 0002:00002bd4       ??_C@_0BE@PKNCAIGI@glCopyTexSubImage1D?$AA@ 1003cbd4     umodsys_lib_libui:umodsys.mod.ui.SDL_GL.obj
 0002:00002be8       ??_C@_0BE@PIJELGDB@glCopyTexSubImage2D?$AA@ 1003cbe8     umodsys_lib_libui:umodsys.mod.ui.SDL_GL.obj
 0002:00002bfc       ??_C@_0BB@KMPLFJIC@glDeleteTextures?$AA@ 1003cbfc     umodsys_lib_libui:umodsys.mod.ui.SDL_GL.obj
 0002:00002c10       ??_C@_0N@CMNPPOHA@glDrawArrays?$AA@ 1003cc10     umodsys_lib_libui:umodsys.mod.ui.SDL_GL.obj
 0002:00002c20       ??_C@_0P@MENFIFGE@glDrawElements?$AA@ 1003cc20     umodsys_lib_libui:umodsys.mod.ui.SDL_GL.obj
 0002:00002c30       ??_C@_0O@LLMANLNK@glGenTextures?$AA@ 1003cc30     umodsys_lib_libui:umodsys.mod.ui.SDL_GL.obj
 0002:00002c40       ??_C@_0M@NJHAEPDN@glIsTexture?$AA@ 1003cc40     umodsys_lib_libui:umodsys.mod.ui.SDL_GL.obj
 0002:00002c4c       ??_C@_0BA@FFBJGNC@glPolygonOffset?$AA@ 1003cc4c     umodsys_lib_libui:umodsys.mod.ui.SDL_GL.obj
 0002:00002c5c       ??_C@_0BA@NFOOCKJD@glTexSubImage1D?$AA@ 1003cc5c     umodsys_lib_libui:umodsys.mod.ui.SDL_GL.obj
 0002:00002c6c       ??_C@_0BA@NHKIJEMK@glTexSubImage2D?$AA@ 1003cc6c     umodsys_lib_libui:umodsys.mod.ui.SDL_GL.obj
 0002:00002c7c       ??_C@_0P@HHIACAAI@GL_VERSION_1_2?$AA@ 1003cc7c     umodsys_lib_libui:umodsys.mod.ui.SDL_GL.obj
 0002:00002c8c       ??_C@_0BE@PJFGNMAG@glCopyTexSubImage3D?$AA@ 1003cc8c     umodsys_lib_libui:umodsys.mod.ui.SDL_GL.obj
 0002:00002ca0       ??_C@_0BE@IHNAGJGJ@glDrawRangeElements?$AA@ 1003cca0     umodsys_lib_libui:umodsys.mod.ui.SDL_GL.obj
 0002:00002cb4       ??_C@_0N@JAEIBBBF@glTexImage3D?$AA@ 1003ccb4     umodsys_lib_libui:umodsys.mod.ui.SDL_GL.obj
 0002:00002cc4       ??_C@_0BA@NGGKPOPN@glTexSubImage3D?$AA@ 1003ccc4     umodsys_lib_libui:umodsys.mod.ui.SDL_GL.obj
 0002:00002cd4       ??_C@_0P@GOJLBBEJ@GL_VERSION_1_3?$AA@ 1003ccd4     umodsys_lib_libui:umodsys.mod.ui.SDL_GL.obj
 0002:00002ce4       ??_C@_0BA@KOBBIKOF@glActiveTexture?$AA@ 1003cce4     umodsys_lib_libui:umodsys.mod.ui.SDL_GL.obj
 0002:00002cf4       ??_C@_0BH@GFPJBEAB@glCompressedTexImage1D?$AA@ 1003ccf4     umodsys_lib_libui:umodsys.mod.ui.SDL_GL.obj
 0002:00002d0c       ??_C@_0BH@GHLPKKFI@glCompressedTexImage2D?$AA@ 1003cd0c     umodsys_lib_libui:umodsys.mod.ui.SDL_GL.obj
 0002:00002d24       ??_C@_0BH@GGHNMAGP@glCompressedTexImage3D?$AA@ 1003cd24     umodsys_lib_libui:umodsys.mod.ui.SDL_GL.obj
 0002:00002d3c       ??_C@_0BK@ECBIPHJO@glCompressedTexSubImage1D?$AA@ 1003cd3c     umodsys_lib_libui:umodsys.mod.ui.SDL_GL.obj
 0002:00002d58       ??_C@_0BK@EAFOEJMH@glCompressedTexSubImage2D?$AA@ 1003cd58     umodsys_lib_libui:umodsys.mod.ui.SDL_GL.obj
 0002:00002d74       ??_C@_0BK@EBJMCDPA@glCompressedTexSubImage3D?$AA@ 1003cd74     umodsys_lib_libui:umodsys.mod.ui.SDL_GL.obj
 0002:00002d90       ??_C@_0BI@MPANLPPL@glGetCompressedTexImage?$AA@ 1003cd90     umodsys_lib_libui:umodsys.mod.ui.SDL_GL.obj
 0002:00002da8       ??_C@_0BB@BJGIPMOA@glSampleCoverage?$AA@ 1003cda8     umodsys_lib_libui:umodsys.mod.ui.SDL_GL.obj
 0002:00002dbc       ??_C@_0P@CBNKIHIO@GL_VERSION_1_4?$AA@ 1003cdbc     umodsys_lib_libui:umodsys.mod.ui.SDL_GL.obj
 0002:00002dcc       ??_C@_0N@PKBMFJDK@glBlendColor?$AA@ 1003cdcc     umodsys_lib_libui:umodsys.mod.ui.SDL_GL.obj
 0002:00002ddc       ??_C@_0BA@PFHILPAN@glBlendEquation?$AA@ 1003cddc     umodsys_lib_libui:umodsys.mod.ui.SDL_GL.obj
 0002:00002dec       ??_C@_0BE@LLLCIIOO@glBlendFuncSeparate?$AA@ 1003cdec     umodsys_lib_libui:umodsys.mod.ui.SDL_GL.obj
 0002:00002e00       ??_C@_0BC@IBABPJFA@glMultiDrawArrays?$AA@ 1003ce00     umodsys_lib_libui:umodsys.mod.ui.SDL_GL.obj
 0002:00002e14       ??_C@_0BE@MPDFJJLL@glMultiDrawElements?$AA@ 1003ce14     umodsys_lib_libui:umodsys.mod.ui.SDL_GL.obj
 0002:00002e28       ??_C@_0BC@FGOOEDO@glPointParameterf?$AA@ 1003ce28     umodsys_lib_libui:umodsys.mod.ui.SDL_GL.obj
 0002:00002e3c       ??_C@_0BD@LIABKNDP@glPointParameterfv?$AA@ 1003ce3c     umodsys_lib_libui:umodsys.mod.ui.SDL_GL.obj
 0002:00002e50       ??_C@_0BC@ICPGPIPB@glPointParameteri?$AA@ 1003ce50     umodsys_lib_libui:umodsys.mod.ui.SDL_GL.obj
 0002:00002e64       ??_C@_0BD@LDFNOKAC@glPointParameteriv?$AA@ 1003ce64     umodsys_lib_libui:umodsys.mod.ui.SDL_GL.obj
 0002:00002e78       ??_C@_0P@DIMBLGMP@GL_VERSION_1_5?$AA@ 1003ce78     umodsys_lib_libui:umodsys.mod.ui.SDL_GL.obj
 0002:00002e88       ??_C@_0N@GIAGIGPA@glBeginQuery?$AA@ 1003ce88     umodsys_lib_libui:umodsys.mod.ui.SDL_GL.obj
 0002:00002e98       ??_C@_0N@BONEPPLO@glBindBuffer?$AA@ 1003ce98     umodsys_lib_libui:umodsys.mod.ui.SDL_GL.obj
 0002:00002ea8       ??_C@_0N@JHHJMABP@glBufferData?$AA@ 1003cea8     umodsys_lib_libui:umodsys.mod.ui.SDL_GL.obj
 0002:00002eb8       ??_C@_0BA@GAJMDBBN@glBufferSubData?$AA@ 1003ceb8     umodsys_lib_libui:umodsys.mod.ui.SDL_GL.obj
 0002:00002ec8       ??_C@_0BA@DMNLADIO@glDeleteBuffers?$AA@ 1003cec8     umodsys_lib_libui:umodsys.mod.ui.SDL_GL.obj
 0002:00002ed8       ??_C@_0BA@IOKEHMOH@glDeleteQueries?$AA@ 1003ced8     umodsys_lib_libui:umodsys.mod.ui.SDL_GL.obj
 0002:00002ee8       ??_C@_0L@FLEBHIDM@glEndQuery?$AA@ 1003cee8     umodsys_lib_libui:umodsys.mod.ui.SDL_GL.obj
 0002:00002ef4       ??_C@_0N@LAOHBIBA@glGenBuffers?$AA@ 1003cef4     umodsys_lib_libui:umodsys.mod.ui.SDL_GL.obj
 0002:00002f04       ??_C@_0N@CJIGHHJ@glGenQueries?$AA@ 1003cf04     umodsys_lib_libui:umodsys.mod.ui.SDL_GL.obj
 0002:00002f14       ??_C@_0BH@BMIEIFJP@glGetBufferParameteriv?$AA@ 1003cf14     umodsys_lib_libui:umodsys.mod.ui.SDL_GL.obj
 0002:00002f2c       ??_C@_0BE@KNJEIFMC@glGetBufferPointerv?$AA@ 1003cf2c     umodsys_lib_libui:umodsys.mod.ui.SDL_GL.obj
 0002:00002f40       ??_C@_0BD@PNDAHMBO@glGetBufferSubData?$AA@ 1003cf40     umodsys_lib_libui:umodsys.mod.ui.SDL_GL.obj
 0002:00002f54       ??_C@_0BD@KMBBCJID@glGetQueryObjectiv?$AA@ 1003cf54     umodsys_lib_libui:umodsys.mod.ui.SDL_GL.obj
 0002:00002f68       ??_C@_0BE@MNBBKJ@glGetQueryObjectuiv?$AA@ 1003cf68     umodsys_lib_libui:umodsys.mod.ui.SDL_GL.obj
 0002:00002f7c       ??_C@_0N@BPACPFCI@glGetQueryiv?$AA@ 1003cf7c     umodsys_lib_libui:umodsys.mod.ui.SDL_GL.obj
 0002:00002f8c       ??_C@_0L@KFPDMKNG@glIsBuffer?$AA@ 1003cf8c     umodsys_lib_libui:umodsys.mod.ui.SDL_GL.obj
 0002:00002f98       ??_C@_09CNNLCEBN@glIsQuery?$AA@ 1003cf98     umodsys_lib_libui:umodsys.mod.ui.SDL_GL.obj
 0002:00002fa4       ??_C@_0M@NNHDPACA@glMapBuffer?$AA@ 1003cfa4     umodsys_lib_libui:umodsys.mod.ui.SDL_GL.obj
 0002:00002fb0       ??_C@_0O@OFGHBLEO@glUnmapBuffer?$AA@ 1003cfb0     umodsys_lib_libui:umodsys.mod.ui.SDL_GL.obj
 0002:00002fc0       ??_C@_0P@FHADONGE@GL_VERSION_2_0?$AA@ 1003cfc0     umodsys_lib_libui:umodsys.mod.ui.SDL_GL.obj
 0002:00002fd0       ??_C@_0P@LDMLEABL@glAttachShader?$AA@ 1003cfd0     umodsys_lib_libui:umodsys.mod.ui.SDL_GL.obj
 0002:00002fe0       ??_C@_0BF@MHKEFIHM@glBindAttribLocation?$AA@ 1003cfe0     umodsys_lib_libui:umodsys.mod.ui.SDL_GL.obj
 0002:00002ff8       ??_C@_0BI@JNHDNJAG@glBlendEquationSeparate?$AA@ 1003cff8     umodsys_lib_libui:umodsys.mod.ui.SDL_GL.obj
 0002:00003010       ??_C@_0BA@DGIEGONF@glCompileShader?$AA@ 1003d010     umodsys_lib_libui:umodsys.mod.ui.SDL_GL.obj
 0002:00003020       ??_C@_0BA@FLKLHNKP@glCreateProgram?$AA@ 1003d020     umodsys_lib_libui:umodsys.mod.ui.SDL_GL.obj
 0002:00003030       ??_C@_0P@HGHBNC@glCreateShader?$AA@ 1003d030     umodsys_lib_libui:umodsys.mod.ui.SDL_GL.obj
 0002:00003040       ??_C@_0BA@NKGCDOPO@glDeleteProgram?$AA@ 1003d040     umodsys_lib_libui:umodsys.mod.ui.SDL_GL.obj
 0002:00003050       ??_C@_0P@HHCDONAG@glDeleteShader?$AA@ 1003d050     umodsys_lib_libui:umodsys.mod.ui.SDL_GL.obj
 0002:00003060       ??_C@_0P@DJFJFCJL@glDetachShader?$AA@ 1003d060     umodsys_lib_libui:umodsys.mod.ui.SDL_GL.obj
 0002:00003070       ??_C@_0BL@NKHLOFFF@glDisableVertexAttribArray?$AA@ 1003d070     umodsys_lib_libui:umodsys.mod.ui.SDL_GL.obj
 0002:0000308c       ??_C@_0O@COHJKDBH@glDrawBuffers?$AA@ 1003d08c     umodsys_lib_libui:umodsys.mod.ui.SDL_GL.obj
 0002:0000309c       ??_C@_0BK@EHBAHNHE@glEnableVertexAttribArray?$AA@ 1003d09c     umodsys_lib_libui:umodsys.mod.ui.SDL_GL.obj
 0002:000030b8       ??_C@_0BC@MBALAOHF@glGetActiveAttrib?$AA@ 1003d0b8     umodsys_lib_libui:umodsys.mod.ui.SDL_GL.obj
 0002:000030cc       ??_C@_0BD@NIMHLLKN@glGetActiveUniform?$AA@ 1003d0cc     umodsys_lib_libui:umodsys.mod.ui.SDL_GL.obj
 0002:000030e0       ??_C@_0BF@GHMDGFEM@glGetAttachedShaders?$AA@ 1003d0e0     umodsys_lib_libui:umodsys.mod.ui.SDL_GL.obj
 0002:000030f8       ??_C@_0BE@BEPGJDMM@glGetAttribLocation?$AA@ 1003d0f8     umodsys_lib_libui:umodsys.mod.ui.SDL_GL.obj
 0002:0000310c       ??_C@_0BE@DHGHAJFL@glGetProgramInfoLog?$AA@ 1003d10c     umodsys_lib_libui:umodsys.mod.ui.SDL_GL.obj
 0002:00003120       ??_C@_0P@FMMDFLCO@glGetProgramiv?$AA@ 1003d120     umodsys_lib_libui:umodsys.mod.ui.SDL_GL.obj
 0002:00003130       ??_C@_0BD@GIABBCMO@glGetShaderInfoLog?$AA@ 1003d130     umodsys_lib_libui:umodsys.mod.ui.SDL_GL.obj
 0002:00003144       ??_C@_0BC@ELEIFJEL@glGetShaderSource?$AA@ 1003d144     umodsys_lib_libui:umodsys.mod.ui.SDL_GL.obj
 0002:00003158       ??_C@_0O@JBDFPDMG@glGetShaderiv?$AA@ 1003d158     umodsys_lib_libui:umodsys.mod.ui.SDL_GL.obj
 0002:00003168       ??_C@_0BF@KIOPGICP@glGetUniformLocation?$AA@ 1003d168     umodsys_lib_libui:umodsys.mod.ui.SDL_GL.obj
 0002:00003180       ??_C@_0P@DFCJIBG@glGetUniformfv?$AA@ 1003d180     umodsys_lib_libui:umodsys.mod.ui.SDL_GL.obj
 0002:00003190       ??_C@_0P@IAONPCL@glGetUniformiv?$AA@ 1003d190     umodsys_lib_libui:umodsys.mod.ui.SDL_GL.obj
 0002:000031a0       ??_C@_0BK@DOJMENLD@glGetVertexAttribPointerv?$AA@ 1003d1a0     umodsys_lib_libui:umodsys.mod.ui.SDL_GL.obj
 0002:000031bc       ??_C@_0BE@HDPMJMIN@glGetVertexAttribdv?$AA@ 1003d1bc     umodsys_lib_libui:umodsys.mod.ui.SDL_GL.obj
 0002:000031d0       ??_C@_0BE@HAHIEIOD@glGetVertexAttribfv?$AA@ 1003d1d0     umodsys_lib_libui:umodsys.mod.ui.SDL_GL.obj
 0002:000031e4       ??_C@_0BE@HLCEAPNO@glGetVertexAttribiv?$AA@ 1003d1e4     umodsys_lib_libui:umodsys.mod.ui.SDL_GL.obj
 0002:000031f8       ??_C@_0M@INLOJDGO@glIsProgram?$AA@ 1003d1f8     umodsys_lib_libui:umodsys.mod.ui.SDL_GL.obj
 0002:00003204       ??_C@_0L@MDDLFIHC@glIsShader?$AA@ 1003d204     umodsys_lib_libui:umodsys.mod.ui.SDL_GL.obj
 0002:00003210       ??_C@_0O@PIOEEBPO@glLinkProgram?$AA@ 1003d210     umodsys_lib_libui:umodsys.mod.ui.SDL_GL.obj
 0002:00003220       ??_C@_0P@DFHCPFMO@glShaderSource?$AA@ 1003d220     umodsys_lib_libui:umodsys.mod.ui.SDL_GL.obj
 0002:00003230       ??_C@_0BG@FCMNCEIA@glStencilFuncSeparate?$AA@ 1003d230     umodsys_lib_libui:umodsys.mod.ui.SDL_GL.obj
 0002:00003248       ??_C@_0BG@MMKPIEJI@glStencilMaskSeparate?$AA@ 1003d248     umodsys_lib_libui:umodsys.mod.ui.SDL_GL.obj
 0002:00003260       ??_C@_0BE@GAPLDNGF@glStencilOpSeparate?$AA@ 1003d260     umodsys_lib_libui:umodsys.mod.ui.SDL_GL.obj
 0002:00003274       ??_C@_0M@MLICAPOF@glUniform1f?$AA@ 1003d274     umodsys_lib_libui:umodsys.mod.ui.SDL_GL.obj
 0002:00003280       ??_C@_0N@KJMOEKII@glUniform1fv?$AA@ 1003d280     umodsys_lib_libui:umodsys.mod.ui.SDL_GL.obj
 0002:00003290       ??_C@_0M@EMBKBDCK@glUniform1i?$AA@ 1003d290     umodsys_lib_libui:umodsys.mod.ui.SDL_GL.obj
 0002:0000329c       ??_C@_0N@KCJCANLF@glUniform1iv?$AA@ 1003d29c     umodsys_lib_libui:umodsys.mod.ui.SDL_GL.obj
 0002:000032ac       ??_C@_0M@MJMELBLM@glUniform2f?$AA@ 1003d2ac     umodsys_lib_libui:umodsys.mod.ui.SDL_GL.obj
 0002:000032b8       ??_C@_0N@LLHLOFGG@glUniform2fv?$AA@ 1003d2b8     umodsys_lib_libui:umodsys.mod.ui.SDL_GL.obj
 0002:000032c8       ??_C@_0M@EOFMKNHD@glUniform2i?$AA@ 1003d2c8     umodsys_lib_libui:umodsys.mod.ui.SDL_GL.obj
 0002:000032d4       ??_C@_0N@LACHKCFL@glUniform2iv?$AA@ 1003d2d4     umodsys_lib_libui:umodsys.mod.ui.SDL_GL.obj
 0002:000032e4       ??_C@_0M@MIAGNLIL@glUniform3f?$AA@ 1003d2e4     umodsys_lib_libui:umodsys.mod.ui.SDL_GL.obj
 0002:000032f0       ??_C@_0N@DMHICAD@glUniform3fv?$AA@ 1003d2f0     umodsys_lib_libui:umodsys.mod.ui.SDL_GL.obj
 0002:00003300       ??_C@_0M@EPJOMHEE@glUniform3i?$AA@ 1003d300     umodsys_lib_libui:umodsys.mod.ui.SDL_GL.obj
 0002:0000330c       ??_C@_0N@IJLMFDO@glUniform3iv?$AA@ 1003d30c     umodsys_lib_libui:umodsys.mod.ui.SDL_GL.obj
 0002:0000331c       ??_C@_0M@MNEJMNAO@glUniform4f?$AA@ 1003d31c     umodsys_lib_libui:umodsys.mod.ui.SDL_GL.obj
 0002:00003328       ??_C@_0N@JOBALKLK@glUniform4fv?$AA@ 1003d328     umodsys_lib_libui:umodsys.mod.ui.SDL_GL.obj
 0002:00003338       ??_C@_0M@EKNBNBMB@glUniform4i?$AA@ 1003d338     umodsys_lib_libui:umodsys.mod.ui.SDL_GL.obj
 0002:00003344       ??_C@_0N@JFEMPNIH@glUniform4iv?$AA@ 1003d344     umodsys_lib_libui:umodsys.mod.ui.SDL_GL.obj
 0002:00003354       ??_C@_0BD@JIBJELHD@glUniformMatrix2fv?$AA@ 1003d354     umodsys_lib_libui:umodsys.mod.ui.SDL_GL.obj
 0002:00003368       ??_C@_0BD@CAKFCMBG@glUniformMatrix3fv?$AA@ 1003d368     umodsys_lib_libui:umodsys.mod.ui.SDL_GL.obj
 0002:0000337c       ??_C@_0BD@LNHCBEKP@glUniformMatrix4fv?$AA@ 1003d37c     umodsys_lib_libui:umodsys.mod.ui.SDL_GL.obj
 0002:00003390       ??_C@_0N@ICBDHBI@glUseProgram?$AA@ 1003d390     umodsys_lib_libui:umodsys.mod.ui.SDL_GL.obj
 0002:000033a0       ??_C@_0BC@MAPGDLJK@glValidateProgram?$AA@ 1003d3a0     umodsys_lib_libui:umodsys.mod.ui.SDL_GL.obj
 0002:000033b4       ??_C@_0BB@PIOLPNPC@glVertexAttrib1d?$AA@ 1003d3b4     umodsys_lib_libui:umodsys.mod.ui.SDL_GL.obj
 0002:000033c8       ??_C@_0BC@CKCOKGLN@glVertexAttrib1dv?$AA@ 1003d3c8     umodsys_lib_libui:umodsys.mod.ui.SDL_GL.obj
 0002:000033dc       ??_C@_0BB@MKNNJPHA@glVertexAttrib1f?$AA@ 1003d3dc     umodsys_lib_libui:umodsys.mod.ui.SDL_GL.obj
 0002:000033f0       ??_C@_0BC@CJKKHCND@glVertexAttrib1fv?$AA@ 1003d3f0     umodsys_lib_libui:umodsys.mod.ui.SDL_GL.obj
 0002:00003404       ??_C@_0BB@PNGIHJGE@glVertexAttrib1s?$AA@ 1003d404     umodsys_lib_libui:umodsys.mod.ui.SDL_GL.obj
 0002:00003418       ??_C@_0BC@DDEHBDEI@glVertexAttrib1sv?$AA@ 1003d418     umodsys_lib_libui:umodsys.mod.ui.SDL_GL.obj
 0002:0000342c       ??_C@_0BB@PKKNEDKL@glVertexAttrib2d?$AA@ 1003d42c     umodsys_lib_libui:umodsys.mod.ui.SDL_GL.obj
 0002:00003440       ??_C@_0BC@DIJLAJFD@glVertexAttrib2dv?$AA@ 1003d440     umodsys_lib_libui:umodsys.mod.ui.SDL_GL.obj
 0002:00003454       ??_C@_0BB@MIJLCBCJ@glVertexAttrib2f?$AA@ 1003d454     umodsys_lib_libui:umodsys.mod.ui.SDL_GL.obj
 0002:00003468       ??_C@_0BC@DLBPNNDN@glVertexAttrib2fv?$AA@ 1003d468     umodsys_lib_libui:umodsys.mod.ui.SDL_GL.obj
 0002:0000347c       ??_C@_0BB@PPCOMHDN@glVertexAttrib2s?$AA@ 1003d47c     umodsys_lib_libui:umodsys.mod.ui.SDL_GL.obj
 0002:00003490       ??_C@_0BC@CBPCLMKG@glVertexAttrib2sv?$AA@ 1003d490     umodsys_lib_libui:umodsys.mod.ui.SDL_GL.obj
 0002:000034a4       ??_C@_0BB@PLGPCJJM@glVertexAttrib3d?$AA@ 1003d4a4     umodsys_lib_libui:umodsys.mod.ui.SDL_GL.obj
 0002:000034b8       ??_C@_0BC@IACHGODG@glVertexAttrib3dv?$AA@ 1003d4b8     umodsys_lib_libui:umodsys.mod.ui.SDL_GL.obj
 0002:000034cc       ??_C@_0BB@MJFJELBO@glVertexAttrib3f?$AA@ 1003d4cc     umodsys_lib_libui:umodsys.mod.ui.SDL_GL.obj
 0002:000034e0       ??_C@_0BC@IDKDLKFI@glVertexAttrib3fv?$AA@ 1003d4e0     umodsys_lib_libui:umodsys.mod.ui.SDL_GL.obj
 0002:000034f4       ??_C@_0BB@POOMKNAK@glVertexAttrib3s?$AA@ 1003d4f4     umodsys_lib_libui:umodsys.mod.ui.SDL_GL.obj
 0002:00003508       ??_C@_0BC@JJEONLMD@glVertexAttrib3sv?$AA@ 1003d508     umodsys_lib_libui:umodsys.mod.ui.SDL_GL.obj
 0002:0000351c       ??_C@_0BD@NANPPEGB@glVertexAttrib4Nbv?$AA@ 1003d51c     umodsys_lib_libui:umodsys.mod.ui.SDL_GL.obj
 0002:00003530       ??_C@_0BD@NMIKBLIA@glVertexAttrib4Niv?$AA@ 1003d530     umodsys_lib_libui:umodsys.mod.ui.SDL_GL.obj
 0002:00003544       ??_C@_0BD@MNDLDNCG@glVertexAttrib4Nsv?$AA@ 1003d544     umodsys_lib_libui:umodsys.mod.ui.SDL_GL.obj
 0002:00003558       ??_C@_0BD@OHBIJGMB@glVertexAttrib4Nub?$AA@ 1003d558     umodsys_lib_libui:umodsys.mod.ui.SDL_GL.obj
 0002:0000356c       ??_C@_0BE@JFOBDEMA@glVertexAttrib4Nubv?$AA@ 1003d56c     umodsys_lib_libui:umodsys.mod.ui.SDL_GL.obj
 0002:00003580       ??_C@_0BE@JJLENLCB@glVertexAttrib4Nuiv?$AA@ 1003d580     umodsys_lib_libui:umodsys.mod.ui.SDL_GL.obj
 0002:00003594       ??_C@_0BE@IIAFPNIH@glVertexAttrib4Nusv?$AA@ 1003d594     umodsys_lib_libui:umodsys.mod.ui.SDL_GL.obj
 0002:000035a8       ??_C@_0BC@BJHNCKDN@glVertexAttrib4bv?$AA@ 1003d5a8     umodsys_lib_libui:umodsys.mod.ui.SDL_GL.obj
 0002:000035bc       ??_C@_0BB@POCADPBJ@glVertexAttrib4d?$AA@ 1003d5bc     umodsys_lib_libui:umodsys.mod.ui.SDL_GL.obj
 0002:000035d0       ??_C@_0BC@BNPAFGIP@glVertexAttrib4dv?$AA@ 1003d5d0     umodsys_lib_libui:umodsys.mod.ui.SDL_GL.obj
 0002:000035e4       ??_C@_0BB@MMBGFNJL@glVertexAttrib4f?$AA@ 1003d5e4     umodsys_lib_libui:umodsys.mod.ui.SDL_GL.obj
 0002:000035f8       ??_C@_0BC@BOHEICOB@glVertexAttrib4fv?$AA@ 1003d5f8     umodsys_lib_libui:umodsys.mod.ui.SDL_GL.obj
 0002:0000360c       ??_C@_0BC@BFCIMFNM@glVertexAttrib4iv?$AA@ 1003d60c     umodsys_lib_libui:umodsys.mod.ui.SDL_GL.obj
 0002:00003620       ??_C@_0BB@PLKDLLIP@glVertexAttrib4s?$AA@ 1003d620     umodsys_lib_libui:umodsys.mod.ui.SDL_GL.obj
 0002:00003634       ??_C@_0BC@EJJODHK@glVertexAttrib4sv?$AA@ 1003d634     umodsys_lib_libui:umodsys.mod.ui.SDL_GL.obj
 0002:00003648       ??_C@_0BD@PHPFILMB@glVertexAttrib4ubv?$AA@ 1003d648     umodsys_lib_libui:umodsys.mod.ui.SDL_GL.obj
 0002:0000365c       ??_C@_0BD@PLKAGECA@glVertexAttrib4uiv?$AA@ 1003d65c     umodsys_lib_libui:umodsys.mod.ui.SDL_GL.obj
 0002:00003670       ??_C@_0BD@OKBBECIG@glVertexAttrib4usv?$AA@ 1003d670     umodsys_lib_libui:umodsys.mod.ui.SDL_GL.obj
 0002:00003684       ??_C@_0BG@JPNNNPKG@glVertexAttribPointer?$AA@ 1003d684     umodsys_lib_libui:umodsys.mod.ui.SDL_GL.obj
 0002:0000369c       ??_C@_0P@EOBINMCF@GL_VERSION_2_1?$AA@ 1003d69c     umodsys_lib_libui:umodsys.mod.ui.SDL_GL.obj
 0002:000036ac       ??_C@_0BF@KDDJMCDK@glUniformMatrix2x3fv?$AA@ 1003d6ac     umodsys_lib_libui:umodsys.mod.ui.SDL_GL.obj
 0002:000036c4       ??_C@_0BF@DOOOPKID@glUniformMatrix2x4fv?$AA@ 1003d6c4     umodsys_lib_libui:umodsys.mod.ui.SDL_GL.obj
 0002:000036dc       ??_C@_0BF@NANJHGPK@glUniformMatrix3x2fv?$AA@ 1003d6dc     umodsys_lib_libui:umodsys.mod.ui.SDL_GL.obj
 0002:000036f4       ??_C@_0BF@PFLCCJCG@glUniformMatrix3x4fv?$AA@ 1003d6f4     umodsys_lib_libui:umodsys.mod.ui.SDL_GL.obj
 0002:0000370c       ??_C@_0BF@MNNMEGEC@glUniformMatrix4x2fv?$AA@ 1003d70c     umodsys_lib_libui:umodsys.mod.ui.SDL_GL.obj
 0002:00003724       ??_C@_0BF@HFGACBCH@glUniformMatrix4x3fv?$AA@ 1003d724     umodsys_lib_libui:umodsys.mod.ui.SDL_GL.obj
 0002:0000373c       ??_C@_0P@OPLPIKAB@GL_VERSION_3_0?$AA@ 1003d73c     umodsys_lib_libui:umodsys.mod.ui.SDL_GL.obj
 0002:0000374c       ??_C@_0BJ@EHEPIEPF@glBeginConditionalRender?$AA@ 1003d74c     umodsys_lib_libui:umodsys.mod.ui.SDL_GL.obj
 0002:00003768       ??_C@_0BJ@FHJKOECC@glBeginTransformFeedback?$AA@ 1003d768     umodsys_lib_libui:umodsys.mod.ui.SDL_GL.obj
 0002:00003784       ??_C@_0BB@LDPKOCJI@glBindBufferBase?$AA@ 1003d784     umodsys_lib_libui:umodsys.mod.ui.SDL_GL.obj
 0002:00003798       ??_C@_0BC@EEMMCHMB@glBindBufferRange?$AA@ 1003d798     umodsys_lib_libui:umodsys.mod.ui.SDL_GL.obj
 0002:000037ac       ??_C@_0BH@DLJLAGBA@glBindFragDataLocation?$AA@ 1003d7ac     umodsys_lib_libui:umodsys.mod.ui.SDL_GL.obj
 0002:000037c4       ??_C@_0BC@CJMIBNO@glBindFramebuffer?$AA@ 1003d7c4     umodsys_lib_libui:umodsys.mod.ui.SDL_GL.obj
 0002:000037d8       ??_C@_0BD@EPOPJGFA@glBindRenderbuffer?$AA@ 1003d7d8     umodsys_lib_libui:umodsys.mod.ui.SDL_GL.obj
 0002:000037ec       ??_C@_0BC@LHBAHFAN@glBindVertexArray?$AA@ 1003d7ec     umodsys_lib_libui:umodsys.mod.ui.SDL_GL.obj
 0002:00003800       ??_C@_0BC@OANBDDEP@glBlitFramebuffer?$AA@ 1003d800     umodsys_lib_libui:umodsys.mod.ui.SDL_GL.obj
 0002:00003814       ??_C@_0BJ@GIOLHEAD@glCheckFramebufferStatus?$AA@ 1003d814     umodsys_lib_libui:umodsys.mod.ui.SDL_GL.obj
 0002:00003830       ??_C@_0N@HLGAGIMI@glClampColor?$AA@ 1003d830     umodsys_lib_libui:umodsys.mod.ui.SDL_GL.obj
 0002:00003840       ??_C@_0BA@OACPENCO@glClearBufferfi?$AA@ 1003d840     umodsys_lib_libui:umodsys.mod.ui.SDL_GL.obj
 0002:00003850       ??_C@_0BA@CNHFEDLA@glClearBufferfv?$AA@ 1003d850     umodsys_lib_libui:umodsys.mod.ui.SDL_GL.obj
 0002:00003860       ??_C@_0BA@CGCJAEIN@glClearBufferiv?$AA@ 1003d860     umodsys_lib_libui:umodsys.mod.ui.SDL_GL.obj
 0002:00003870       ??_C@_0BB@OHPPAEID@glClearBufferuiv?$AA@ 1003d870     umodsys_lib_libui:umodsys.mod.ui.SDL_GL.obj
 0002:00003884       ??_C@_0N@JHNNNJFG@glColorMaski?$AA@ 1003d884     umodsys_lib_libui:umodsys.mod.ui.SDL_GL.obj
 0002:00003894       ??_C@_0BF@DJNJENP@glDeleteFramebuffers?$AA@ 1003d894     umodsys_lib_libui:umodsys.mod.ui.SDL_GL.obj
 0002:000038ac       ??_C@_0BG@KKOKEJDE@glDeleteRenderbuffers?$AA@ 1003d8ac     umodsys_lib_libui:umodsys.mod.ui.SDL_GL.obj
 0002:000038c4       ??_C@_0BF@BMPCJLEF@glDeleteVertexArrays?$AA@ 1003d8c4     umodsys_lib_libui:umodsys.mod.ui.SDL_GL.obj
 0002:000038dc       ??_C@_0L@BMJPGDDH@glDisablei?$AA@ 1003d8dc     umodsys_lib_libui:umodsys.mod.ui.SDL_GL.obj
 0002:000038e8       ??_C@_09IEGEGIEN@glEnablei?$AA@ 1003d8e8     umodsys_lib_libui:umodsys.mod.ui.SDL_GL.obj
 0002:000038f4       ??_C@_0BH@KCIOLNMA@glEndConditionalRender?$AA@ 1003d8f4     umodsys_lib_libui:umodsys.mod.ui.SDL_GL.obj
 0002:0000390c       ??_C@_0BH@LCFLNNBH@glEndTransformFeedback?$AA@ 1003d90c     umodsys_lib_libui:umodsys.mod.ui.SDL_GL.obj
 0002:00003924       ??_C@_0BJ@NCDMGHKF@glFlushMappedBufferRange?$AA@ 1003d924     umodsys_lib_libui:umodsys.mod.ui.SDL_GL.obj
 0002:00003940       ??_C@_0BK@OJDINAOA@glFramebufferRenderbuffer?$AA@ 1003d940     umodsys_lib_libui:umodsys.mod.ui.SDL_GL.obj
 0002:0000395c       ??_C@_0BH@JAMDNNBM@glFramebufferTexture1D?$AA@ 1003d95c     umodsys_lib_libui:umodsys.mod.ui.SDL_GL.obj
 0002:00003974       ??_C@_0BH@JCIFGDEF@glFramebufferTexture2D?$AA@ 1003d974     umodsys_lib_libui:umodsys.mod.ui.SDL_GL.obj
 0002:0000398c       ??_C@_0BH@JDEHAJHC@glFramebufferTexture3D?$AA@ 1003d98c     umodsys_lib_libui:umodsys.mod.ui.SDL_GL.obj
 0002:000039a4       ??_C@_0BK@NIHIDBBO@glFramebufferTextureLayer?$AA@ 1003d9a4     umodsys_lib_libui:umodsys.mod.ui.SDL_GL.obj
 0002:000039c0       ??_C@_0BC@FAPEBGID@glGenFramebuffers?$AA@ 1003d9c0     umodsys_lib_libui:umodsys.mod.ui.SDL_GL.obj
 0002:000039d4       ??_C@_0BD@MIGEDNGJ@glGenRenderbuffers?$AA@ 1003d9d4     umodsys_lib_libui:umodsys.mod.ui.SDL_GL.obj
 0002:000039e8       ??_C@_0BC@EPJLBJBJ@glGenVertexArrays?$AA@ 1003d9e8     umodsys_lib_libui:umodsys.mod.ui.SDL_GL.obj
 0002:000039fc       ??_C@_0BB@BHNIMGDM@glGenerateMipmap?$AA@ 1003d9fc     umodsys_lib_libui:umodsys.mod.ui.SDL_GL.obj
 0002:00003a10       ??_C@_0BA@OAKNOBP@glGetBooleani_v?$AA@ 1003da10     umodsys_lib_libui:umodsys.mod.ui.SDL_GL.obj
 0002:00003a20       ??_C@_0BG@NDOIGAMC@glGetFragDataLocation?$AA@ 1003da20     umodsys_lib_libui:umodsys.mod.ui.SDL_GL.obj
 0002:00003a38       ??_C@_0CG@KLDGJEON@glGetFramebufferAttachmentParame@ 1003da38     umodsys_lib_libui:umodsys.mod.ui.SDL_GL.obj
 0002:00003a60       ??_C@_0BA@FKCNNMFO@glGetIntegeri_v?$AA@ 1003da60     umodsys_lib_libui:umodsys.mod.ui.SDL_GL.obj
 0002:00003a70       ??_C@_0BN@FGKAECKO@glGetRenderbufferParameteriv?$AA@ 1003da70     umodsys_lib_libui:umodsys.mod.ui.SDL_GL.obj
 0002:00003a90       ??_C@_0N@PILJCBOD@glGetStringi?$AA@ 1003da90     umodsys_lib_libui:umodsys.mod.ui.SDL_GL.obj
 0002:00003aa0       ??_C@_0BF@ODBJFHDD@glGetTexParameterIiv?$AA@ 1003daa0     umodsys_lib_libui:umodsys.mod.ui.SDL_GL.obj
 0002:00003ab8       ??_C@_0BG@MLODKKFL@glGetTexParameterIuiv?$AA@ 1003dab8     umodsys_lib_libui:umodsys.mod.ui.SDL_GL.obj
 0002:00003ad0       ??_C@_0BO@ODFLPNG@glGetTransformFeedbackVarying?$AA@ 1003dad0     umodsys_lib_libui:umodsys.mod.ui.SDL_GL.obj
 0002:00003af0       ??_C@_0BA@NIGECFIF@glGetUniformuiv?$AA@ 1003daf0     umodsys_lib_libui:umodsys.mod.ui.SDL_GL.obj
 0002:00003b00       ??_C@_0BF@KPDNEONP@glGetVertexAttribIiv?$AA@ 1003db00     umodsys_lib_libui:umodsys.mod.ui.SDL_GL.obj
 0002:00003b18       ??_C@_0BG@GCBDCABB@glGetVertexAttribIuiv?$AA@ 1003db18     umodsys_lib_libui:umodsys.mod.ui.SDL_GL.obj
 0002:00003b30       ??_C@_0N@IMGKGOKN@glIsEnabledi?$AA@ 1003db30     umodsys_lib_libui:umodsys.mod.ui.SDL_GL.obj
 0002:00003b40       ??_C@_0BA@FGBIJCNH@glIsFramebuffer?$AA@ 1003db40     umodsys_lib_libui:umodsys.mod.ui.SDL_GL.obj
 0002:00003b50       ??_C@_0BB@DGGHKKOH@glIsRenderbuffer?$AA@ 1003db50     umodsys_lib_libui:umodsys.mod.ui.SDL_GL.obj
 0002:00003b64       ??_C@_0BA@ODJEGGAE@glIsVertexArray?$AA@ 1003db64     umodsys_lib_libui:umodsys.mod.ui.SDL_GL.obj
 0002:00003b74       ??_C@_0BB@EOHJGBIO@glMapBufferRange?$AA@ 1003db74     umodsys_lib_libui:umodsys.mod.ui.SDL_GL.obj
 0002:00003b88       ??_C@_0BG@EOIILGMJ@glRenderbufferStorage?$AA@ 1003db88     umodsys_lib_libui:umodsys.mod.ui.SDL_GL.obj
 0002:00003ba0       ??_C@_0CB@HNONLGJE@glRenderbufferStorageMultisample@ 1003dba0     umodsys_lib_libui:umodsys.mod.ui.SDL_GL.obj
 0002:00003bc4       ??_C@_0BC@MAFJKEHB@glTexParameterIiv?$AA@ 1003dbc4     umodsys_lib_libui:umodsys.mod.ui.SDL_GL.obj
 0002:00003bd8       ??_C@_0BD@FDBCMKBE@glTexParameterIuiv?$AA@ 1003dbd8     umodsys_lib_libui:umodsys.mod.ui.SDL_GL.obj
 0002:00003bec       ??_C@_0BM@IJFAKBEF@glTransformFeedbackVaryings?$AA@ 1003dbec     umodsys_lib_libui:umodsys.mod.ui.SDL_GL.obj
 0002:00003c08       ??_C@_0N@HKPEFJDP@glUniform1ui?$AA@ 1003dc08     umodsys_lib_libui:umodsys.mod.ui.SDL_GL.obj
 0002:00003c18       ??_C@_0O@MPHJAHBE@glUniform1uiv?$AA@ 1003dc18     umodsys_lib_libui:umodsys.mod.ui.SDL_GL.obj
 0002:00003c28       ??_C@_0N@GIEBPGNB@glUniform2ui?$AA@ 1003dc28     umodsys_lib_libui:umodsys.mod.ui.SDL_GL.obj
 0002:00003c38       ??_C@_0O@IINJHNME@glUniform2uiv?$AA@ 1003dc38     umodsys_lib_libui:umodsys.mod.ui.SDL_GL.obj
 0002:00003c48       ??_C@_0N@NAPNJBLE@glUniform3ui?$AA@ 1003dc48     umodsys_lib_libui:umodsys.mod.ui.SDL_GL.obj
 0002:00003c58       ??_C@_0O@LFLJFEHE@glUniform3uiv?$AA@ 1003dc58     umodsys_lib_libui:umodsys.mod.ui.SDL_GL.obj
 0002:00003c68       ??_C@_0N@ENCKKJAN@glUniform4ui?$AA@ 1003dc68     umodsys_lib_libui:umodsys.mod.ui.SDL_GL.obj
 0002:00003c78       ??_C@_0O@HJJIIGE@glUniform4uiv?$AA@ 1003dc78     umodsys_lib_libui:umodsys.mod.ui.SDL_GL.obj
 0002:00003c88       ??_C@_0BC@CDIIMMAL@glVertexAttribI1i?$AA@ 1003dc88     umodsys_lib_libui:umodsys.mod.ui.SDL_GL.obj
 0002:00003c9c       ??_C@_0BD@OOJEIPDE@glVertexAttribI1iv?$AA@ 1003dc9c     umodsys_lib_libui:umodsys.mod.ui.SDL_GL.obj
 0002:00003cb0       ??_C@_0BD@DGPCNLLO@glVertexAttribI1ui?$AA@ 1003dcb0     umodsys_lib_libui:umodsys.mod.ui.SDL_GL.obj
 0002:00003cc4       ??_C@_0BE@FFIKLCCA@glVertexAttribI1uiv?$AA@ 1003dcc4     umodsys_lib_libui:umodsys.mod.ui.SDL_GL.obj
 0002:00003cd8       ??_C@_0BC@CBMOHCFC@glVertexAttribI2i?$AA@ 1003dcd8     umodsys_lib_libui:umodsys.mod.ui.SDL_GL.obj
 0002:00003cec       ??_C@_0BD@PMCBCANK@glVertexAttribI2iv?$AA@ 1003dcec     umodsys_lib_libui:umodsys.mod.ui.SDL_GL.obj
 0002:00003d00       ??_C@_0BD@CEEHHEFA@glVertexAttribI2ui?$AA@ 1003dd00     umodsys_lib_libui:umodsys.mod.ui.SDL_GL.obj
 0002:00003d14       ??_C@_0BE@BCCKMIPA@glVertexAttribI2uiv?$AA@ 1003dd14     umodsys_lib_libui:umodsys.mod.ui.SDL_GL.obj
 0002:00003d28       ??_C@_0BC@CAAMBIGF@glVertexAttribI3i?$AA@ 1003dd28     umodsys_lib_libui:umodsys.mod.ui.SDL_GL.obj
 0002:00003d3c       ??_C@_0BD@EEJNEHLP@glVertexAttribI3iv?$AA@ 1003dd3c     umodsys_lib_libui:umodsys.mod.ui.SDL_GL.obj
 0002:00003d50       ??_C@_0BD@JMPLBDDF@glVertexAttribI3ui?$AA@ 1003dd50     umodsys_lib_libui:umodsys.mod.ui.SDL_GL.obj
 0002:00003d64       ??_C@_0BE@CPEKOBEA@glVertexAttribI3uiv?$AA@ 1003dd64     umodsys_lib_libui:umodsys.mod.ui.SDL_GL.obj
 0002:00003d78       ??_C@_0BD@NFBPJAOH@glVertexAttribI4bv?$AA@ 1003dd78     umodsys_lib_libui:umodsys.mod.ui.SDL_GL.obj
 0002:00003d8c       ??_C@_0BC@CFEDAOOA@glVertexAttribI4i?$AA@ 1003dd8c     umodsys_lib_libui:umodsys.mod.ui.SDL_GL.obj
 0002:00003da0       ??_C@_0BD@NJEKHPAG@glVertexAttribI4iv?$AA@ 1003dda0     umodsys_lib_libui:umodsys.mod.ui.SDL_GL.obj
 0002:00003db4       ??_C@_0BD@MIPLFJKA@glVertexAttribI4sv?$AA@ 1003ddb4     umodsys_lib_libui:umodsys.mod.ui.SDL_GL.obj
 0002:00003dc8       ??_C@_0BE@JBDPNCLB@glVertexAttribI4ubv?$AA@ 1003ddc8     umodsys_lib_libui:umodsys.mod.ui.SDL_GL.obj
 0002:00003ddc       ??_C@_0BD@BCMCLIM@glVertexAttribI4ui?$AA@ 1003dddc     umodsys_lib_libui:umodsys.mod.ui.SDL_GL.obj
 0002:00003df0       ??_C@_0BE@JNGKDNFA@glVertexAttribI4uiv?$AA@ 1003ddf0     umodsys_lib_libui:umodsys.mod.ui.SDL_GL.obj
 0002:00003e04       ??_C@_0BE@IMNLBLPG@glVertexAttribI4usv?$AA@ 1003de04     umodsys_lib_libui:umodsys.mod.ui.SDL_GL.obj
 0002:00003e18       ??_C@_0BH@NLOEHKCD@glVertexAttribIPointer?$AA@ 1003de18     umodsys_lib_libui:umodsys.mod.ui.SDL_GL.obj
 0002:00003e30       ??_C@_0P@PGKELLEA@GL_VERSION_3_1?$AA@ 1003de30     umodsys_lib_libui:umodsys.mod.ui.SDL_GL.obj
 0002:00003e40       ??_C@_0BE@EPKABDOG@glCopyBufferSubData?$AA@ 1003de40     umodsys_lib_libui:umodsys.mod.ui.SDL_GL.obj
 0002:00003e54       ??_C@_0BG@HIOFINAN@glDrawArraysInstanced?$AA@ 1003de54     umodsys_lib_libui:umodsys.mod.ui.SDL_GL.obj
 0002:00003e6c       ??_C@_0BI@CGJENFBH@glDrawElementsInstanced?$AA@ 1003de6c     umodsys_lib_libui:umodsys.mod.ui.SDL_GL.obj
 0002:00003e84       ??_C@_0BM@KEMCJPAJ@glGetActiveUniformBlockName?$AA@ 1003de84     umodsys_lib_libui:umodsys.mod.ui.SDL_GL.obj
 0002:00003ea0       ??_C@_0BK@DMHOPJGL@glGetActiveUniformBlockiv?$AA@ 1003dea0     umodsys_lib_libui:umodsys.mod.ui.SDL_GL.obj
 0002:00003ebc       ??_C@_0BH@EGGFHKJJ@glGetActiveUniformName?$AA@ 1003debc     umodsys_lib_libui:umodsys.mod.ui.SDL_GL.obj
 0002:00003ed4       ??_C@_0BG@JEHIMPCG@glGetActiveUniformsiv?$AA@ 1003ded4     umodsys_lib_libui:umodsys.mod.ui.SDL_GL.obj
 0002:00003eec       ??_C@_0BH@CBDIMHHE@glGetUniformBlockIndex?$AA@ 1003deec     umodsys_lib_libui:umodsys.mod.ui.SDL_GL.obj
 0002:00003f04       ??_C@_0BE@MDPMIDEE@glGetUniformIndices?$AA@ 1003df04     umodsys_lib_libui:umodsys.mod.ui.SDL_GL.obj
 0002:00003f18       ??_C@_0BI@LJDLNGAF@glPrimitiveRestartIndex?$AA@ 1003df18     umodsys_lib_libui:umodsys.mod.ui.SDL_GL.obj
 0002:00003f30       ??_C@_0M@IIMBBALL@glTexBuffer?$AA@ 1003df30     umodsys_lib_libui:umodsys.mod.ui.SDL_GL.obj
 0002:00003f3c       ??_C@_0BG@BOLEKKCP@glUniformBlockBinding?$AA@ 1003df3c     umodsys_lib_libui:umodsys.mod.ui.SDL_GL.obj
 0002:00003f54       ??_C@_0P@NNIJOIID@GL_VERSION_3_2?$AA@ 1003df54     umodsys_lib_libui:umodsys.mod.ui.SDL_GL.obj
 0002:00003f64       ??_C@_0BB@KDMPGJAC@glClientWaitSync?$AA@ 1003df64     umodsys_lib_libui:umodsys.mod.ui.SDL_GL.obj
 0002:00003f78       ??_C@_0N@PIFDNDFG@glDeleteSync?$AA@ 1003df78     umodsys_lib_libui:umodsys.mod.ui.SDL_GL.obj
 0002:00003f88       ??_C@_0BJ@LFMMIAHA@glDrawElementsBaseVertex?$AA@ 1003df88     umodsys_lib_libui:umodsys.mod.ui.SDL_GL.obj
 0002:00003fa4       ??_C@_0CC@KLOIIKNA@glDrawElementsInstancedBaseVerte@ 1003dfa4     umodsys_lib_libui:umodsys.mod.ui.SDL_GL.obj
 0002:00003fc8       ??_C@_0BO@KBDDBILP@glDrawRangeElementsBaseVertex?$AA@ 1003dfc8     umodsys_lib_libui:umodsys.mod.ui.SDL_GL.obj
 0002:00003fe8       ??_C@_0M@EFGFPFLP@glFenceSync?$AA@ 1003dfe8     umodsys_lib_libui:umodsys.mod.ui.SDL_GL.obj
 0002:00003ff4       ??_C@_0BF@ENLMLILA@glFramebufferTexture?$AA@ 1003dff4     umodsys_lib_libui:umodsys.mod.ui.SDL_GL.obj
 0002:0000400c       ??_C@_0BJ@KKBIDGPP@glGetBufferParameteri64v?$AA@ 1003e00c     umodsys_lib_libui:umodsys.mod.ui.SDL_GL.obj
 0002:00004028       ??_C@_0BC@KOJILIEC@glGetInteger64i_v?$AA@ 1003e028     umodsys_lib_libui:umodsys.mod.ui.SDL_GL.obj
 0002:0000403c       ??_C@_0BA@INMBOHGL@glGetInteger64v?$AA@ 1003e03c     umodsys_lib_libui:umodsys.mod.ui.SDL_GL.obj
 0002:0000404c       ??_C@_0BD@DHLIMGN@glGetMultisamplefv?$AA@ 1003e04c     umodsys_lib_libui:umodsys.mod.ui.SDL_GL.obj
 0002:00004060       ??_C@_0M@MPEEOPIN@glGetSynciv?$AA@ 1003e060     umodsys_lib_libui:umodsys.mod.ui.SDL_GL.obj
 0002:0000406c       ??_C@_08JPIIHJEO@glIsSync?$AA@ 1003e06c     umodsys_lib_libui:umodsys.mod.ui.SDL_GL.obj
 0002:00004078       ??_C@_0BO@NAPFJEEK@glMultiDrawElementsBaseVertex?$AA@ 1003e078     umodsys_lib_libui:umodsys.mod.ui.SDL_GL.obj
 0002:00004098       ??_C@_0BC@ECOAPEBI@glProvokingVertex?$AA@ 1003e098     umodsys_lib_libui:umodsys.mod.ui.SDL_GL.obj
 0002:000040ac       ??_C@_0O@JNHBCHMB@glSampleMaski?$AA@ 1003e0ac     umodsys_lib_libui:umodsys.mod.ui.SDL_GL.obj
 0002:000040bc       ??_C@_0BI@FHDFLFA@glTexImage2DMultisample?$AA@ 1003e0bc     umodsys_lib_libui:umodsys.mod.ui.SDL_GL.obj
 0002:000040d4       ??_C@_0BI@JIHMLKCG@glTexImage3DMultisample?$AA@ 1003e0d4     umodsys_lib_libui:umodsys.mod.ui.SDL_GL.obj
 0002:000040ec       ??_C@_0L@MHLOGHGO@glWaitSync?$AA@ 1003e0ec     umodsys_lib_libui:umodsys.mod.ui.SDL_GL.obj
 0002:000040f8       ??_C@_0P@MEJCNJMC@GL_VERSION_3_3?$AA@ 1003e0f8     umodsys_lib_libui:umodsys.mod.ui.SDL_GL.obj
 0002:00004108       ??_C@_0BO@POJBGCGG@glBindFragDataLocationIndexed?$AA@ 1003e108     umodsys_lib_libui:umodsys.mod.ui.SDL_GL.obj
 0002:00004128       ??_C@_0O@PDEILAPG@glBindSampler?$AA@ 1003e128     umodsys_lib_libui:umodsys.mod.ui.SDL_GL.obj
 0002:00004138       ??_C@_0M@PEKBINNN@glColorP3ui?$AA@ 1003e138     umodsys_lib_libui:umodsys.mod.ui.SDL_GL.obj
 0002:00004144       ??_C@_0N@IBPDNBJE@glColorP3uiv?$AA@ 1003e144     umodsys_lib_libui:umodsys.mod.ui.SDL_GL.obj
 0002:00004154       ??_C@_0M@GJHGLFGE@glColorP4ui?$AA@ 1003e154     umodsys_lib_libui:umodsys.mod.ui.SDL_GL.obj
 0002:00004160       ??_C@_0N@DDNDANIE@glColorP4uiv?$AA@ 1003e160     umodsys_lib_libui:umodsys.mod.ui.SDL_GL.obj
 0002:00004170       ??_C@_0BB@FLPAOEOO@glDeleteSamplers?$AA@ 1003e170     umodsys_lib_libui:umodsys.mod.ui.SDL_GL.obj
 0002:00004184       ??_C@_0O@EMMLGGLG@glGenSamplers?$AA@ 1003e184     umodsys_lib_libui:umodsys.mod.ui.SDL_GL.obj
 0002:00004194       ??_C@_0BD@COCJFEOH@glGetFragDataIndex?$AA@ 1003e194     umodsys_lib_libui:umodsys.mod.ui.SDL_GL.obj
 0002:000041a8       ??_C@_0BF@JDAPDEPE@glGetQueryObjecti64v?$AA@ 1003e1a8     umodsys_lib_libui:umodsys.mod.ui.SDL_GL.obj
 0002:000041c0       ??_C@_0BG@NEGGOMJO@glGetQueryObjectui64v?$AA@ 1003e1c0     umodsys_lib_libui:umodsys.mod.ui.SDL_GL.obj
 0002:000041d8       ??_C@_0BJ@KOMJDLDN@glGetSamplerParameterIiv?$AA@ 1003e1d8     umodsys_lib_libui:umodsys.mod.ui.SDL_GL.obj
 0002:000041f4       ??_C@_0BK@CMBGFHDA@glGetSamplerParameterIuiv?$AA@ 1003e1f4     umodsys_lib_libui:umodsys.mod.ui.SDL_GL.obj
 0002:00004210       ??_C@_0BI@FPHMKMKC@glGetSamplerParameterfv?$AA@ 1003e210     umodsys_lib_libui:umodsys.mod.ui.SDL_GL.obj
 0002:00004228       ??_C@_0BI@FECAOLJP@glGetSamplerParameteriv?$AA@ 1003e228     umodsys_lib_libui:umodsys.mod.ui.SDL_GL.obj
 0002:00004240       ??_C@_0M@LAJKHOKJ@glIsSampler?$AA@ 1003e240     umodsys_lib_libui:umodsys.mod.ui.SDL_GL.obj
 0002:0000424c       ??_C@_0BE@OAHHKHKG@glMultiTexCoordP1ui?$AA@ 1003e24c     umodsys_lib_libui:umodsys.mod.ui.SDL_GL.obj
 0002:00004260       ??_C@_0BF@EGDAKPAK@glMultiTexCoordP1uiv?$AA@ 1003e260     umodsys_lib_libui:umodsys.mod.ui.SDL_GL.obj
 0002:00004278       ??_C@_0BE@PCMCAIEI@glMultiTexCoordP2ui?$AA@ 1003e278     umodsys_lib_libui:umodsys.mod.ui.SDL_GL.obj
 0002:0000428c       ??_C@_0BF@BJANFNK@glMultiTexCoordP2uiv?$AA@ 1003e28c     umodsys_lib_libui:umodsys.mod.ui.SDL_GL.obj
 0002:000042a4       ??_C@_0BE@EKHOGPCN@glMultiTexCoordP3ui?$AA@ 1003e2a4     umodsys_lib_libui:umodsys.mod.ui.SDL_GL.obj
 0002:000042b8       ??_C@_0BF@DMPAPMGK@glMultiTexCoordP3uiv?$AA@ 1003e2b8     umodsys_lib_libui:umodsys.mod.ui.SDL_GL.obj
 0002:000042d0       ??_C@_0BE@NHKJFHJE@glMultiTexCoordP4ui?$AA@ 1003e2d0     umodsys_lib_libui:umodsys.mod.ui.SDL_GL.obj
 0002:000042e4       ??_C@_0BF@IONACAHK@glMultiTexCoordP4uiv?$AA@ 1003e2e4     umodsys_lib_libui:umodsys.mod.ui.SDL_GL.obj
 0002:000042fc       ??_C@_0N@PBEFBNHO@glNormalP3ui?$AA@ 1003e2fc     umodsys_lib_libui:umodsys.mod.ui.SDL_GL.obj
 0002:0000430c       ??_C@_0O@MOCJMHFG@glNormalP3uiv?$AA@ 1003e30c     umodsys_lib_libui:umodsys.mod.ui.SDL_GL.obj
 0002:0000431c       ??_C@_0P@KALICDIM@glQueryCounter?$AA@ 1003e31c     umodsys_lib_libui:umodsys.mod.ui.SDL_GL.obj
 0002:0000432c       ??_C@_0BG@HKEIFIHF@glSamplerParameterIiv?$AA@ 1003e32c     umodsys_lib_libui:umodsys.mod.ui.SDL_GL.obj
 0002:00004344       ??_C@_0BH@FEMFBPPB@glSamplerParameterIuiv?$AA@ 1003e344     umodsys_lib_libui:umodsys.mod.ui.SDL_GL.obj
 0002:0000435c       ??_C@_0BE@CGLJNDFB@glSamplerParameterf?$AA@ 1003e35c     umodsys_lib_libui:umodsys.mod.ui.SDL_GL.obj
 0002:00004370       ??_C@_0BF@GFCPAGMB@glSamplerParameterfv?$AA@ 1003e370     umodsys_lib_libui:umodsys.mod.ui.SDL_GL.obj
 0002:00004388       ??_C@_0BE@KBCBMPJO@glSamplerParameteri?$AA@ 1003e388     umodsys_lib_libui:umodsys.mod.ui.SDL_GL.obj
 0002:0000439c       ??_C@_0BF@GOHDEBPM@glSamplerParameteriv?$AA@ 1003e39c     umodsys_lib_libui:umodsys.mod.ui.SDL_GL.obj
 0002:000043b4       ??_C@_0BF@PDDGBPKP@glSecondaryColorP3ui?$AA@ 1003e3b4     umodsys_lib_libui:umodsys.mod.ui.SDL_GL.obj
 0002:000043cc       ??_C@_0BG@DPPPFGBG@glSecondaryColorP3uiv?$AA@ 1003e3cc     umodsys_lib_libui:umodsys.mod.ui.SDL_GL.obj
 0002:000043e4       ??_C@_0P@OLJHLLHJ@glTexCoordP1ui?$AA@ 1003e3e4     umodsys_lib_libui:umodsys.mod.ui.SDL_GL.obj
 0002:000043f4       ??_C@_0BA@FAFHIAFD@glTexCoordP1uiv?$AA@ 1003e3f4     umodsys_lib_libui:umodsys.mod.ui.SDL_GL.obj
 0002:00004404       ??_C@_0P@PJCCBEJH@glTexCoordP2ui?$AA@ 1003e404     umodsys_lib_libui:umodsys.mod.ui.SDL_GL.obj
 0002:00004414       ??_C@_0BA@BHPHPKID@glTexCoordP2uiv?$AA@ 1003e414     umodsys_lib_libui:umodsys.mod.ui.SDL_GL.obj
 0002:00004424       ??_C@_0P@EBJOHDPC@glTexCoordP3ui?$AA@ 1003e424     umodsys_lib_libui:umodsys.mod.ui.SDL_GL.obj
 0002:00004434       ??_C@_0BA@CKJHNDDD@glTexCoordP3uiv?$AA@ 1003e434     umodsys_lib_libui:umodsys.mod.ui.SDL_GL.obj
 0002:00004444       ??_C@_0P@NMEJELEL@glTexCoordP4ui?$AA@ 1003e444     umodsys_lib_libui:umodsys.mod.ui.SDL_GL.obj
 0002:00004454       ??_C@_0BA@JILHAPCD@glTexCoordP4uiv?$AA@ 1003e454     umodsys_lib_libui:umodsys.mod.ui.SDL_GL.obj
 0002:00004464       ??_C@_0BG@NEBMAEHM@glVertexAttribDivisor?$AA@ 1003e464     umodsys_lib_libui:umodsys.mod.ui.SDL_GL.obj
 0002:0000447c       ??_C@_0BD@FLACCOEN@glVertexAttribP1ui?$AA@ 1003e47c     umodsys_lib_libui:umodsys.mod.ui.SDL_GL.obj
 0002:00004490       ??_C@_0BE@HBFDOBHD@glVertexAttribP1uiv?$AA@ 1003e490     umodsys_lib_libui:umodsys.mod.ui.SDL_GL.obj
 0002:000044a4       ??_C@_0BD@EJLHIBKD@glVertexAttribP2ui?$AA@ 1003e4a4     umodsys_lib_libui:umodsys.mod.ui.SDL_GL.obj
 0002:000044b8       ??_C@_0BE@DGPDJLKD@glVertexAttribP2uiv?$AA@ 1003e4b8     umodsys_lib_libui:umodsys.mod.ui.SDL_GL.obj
 0002:000044cc       ??_C@_0BD@PBALOGMG@glVertexAttribP3ui?$AA@ 1003e4cc     umodsys_lib_libui:umodsys.mod.ui.SDL_GL.obj
 0002:000044e0       ??_C@_0BE@LJDLCBD@glVertexAttribP3uiv?$AA@ 1003e4e0     umodsys_lib_libui:umodsys.mod.ui.SDL_GL.obj
 0002:000044f4       ??_C@_0BD@GMNMNOHP@glVertexAttribP4ui?$AA@ 1003e4f4     umodsys_lib_libui:umodsys.mod.ui.SDL_GL.obj
 0002:00004508       ??_C@_0BE@LJLDGOAD@glVertexAttribP4uiv?$AA@ 1003e508     umodsys_lib_libui:umodsys.mod.ui.SDL_GL.obj
 0002:0000451c       ??_C@_0N@EFBCIBMC@glVertexP2ui?$AA@ 1003e51c     umodsys_lib_libui:umodsys.mod.ui.SDL_GL.obj
 0002:0000452c       ??_C@_0O@MEKGPGN@glVertexP2uiv?$AA@ 1003e52c     umodsys_lib_libui:umodsys.mod.ui.SDL_GL.obj
 0002:0000453c       ??_C@_0N@PNKOOGKH@glVertexP3ui?$AA@ 1003e53c     umodsys_lib_libui:umodsys.mod.ui.SDL_GL.obj
 0002:0000454c       ??_C@_0O@DBCKEGNN@glVertexP3uiv?$AA@ 1003e54c     umodsys_lib_libui:umodsys.mod.ui.SDL_GL.obj
 0002:0000455c       ??_C@_0N@GAHJNOBO@glVertexP4ui?$AA@ 1003e55c     umodsys_lib_libui:umodsys.mod.ui.SDL_GL.obj
 0002:0000456c       ??_C@_0O@IDAKJKMN@glVertexP4uiv?$AA@ 1003e56c     umodsys_lib_libui:umodsys.mod.ui.SDL_GL.obj
 0002:0000457c       ??_C@_0P@HCGILCLI@GL_VERSION_4_0?$AA@ 1003e57c     umodsys_lib_libui:umodsys.mod.ui.SDL_GL.obj
 0002:0000458c       ??_C@_0BE@BDKPJDEE@glBeginQueryIndexed?$AA@ 1003e58c     umodsys_lib_libui:umodsys.mod.ui.SDL_GL.obj
 0002:000045a0       ??_C@_0BI@BPJKLMIG@glBindTransformFeedback?$AA@ 1003e5a0     umodsys_lib_libui:umodsys.mod.ui.SDL_GL.obj
 0002:000045b8       ??_C@_0BJ@FNMBAGAC@glBlendEquationSeparatei?$AA@ 1003e5b8     umodsys_lib_libui:umodsys.mod.ui.SDL_GL.obj
 0002:000045d4       ??_C@_0BB@MKHLNEOM@glBlendEquationi?$AA@ 1003e5d4     umodsys_lib_libui:umodsys.mod.ui.SDL_GL.obj
 0002:000045e8       ??_C@_0BF@PDDGKNBJ@glBlendFuncSeparatei?$AA@ 1003e5e8     umodsys_lib_libui:umodsys.mod.ui.SDL_GL.obj
 0002:00004600       ??_C@_0N@IKKELNNP@glBlendFunci?$AA@ 1003e600     umodsys_lib_libui:umodsys.mod.ui.SDL_GL.obj
 0002:00004610       ??_C@_0BL@DIGEBFBK@glDeleteTransformFeedbacks?$AA@ 1003e610     umodsys_lib_libui:umodsys.mod.ui.SDL_GL.obj
 0002:0000462c       ??_C@_0BF@BGDCPAEP@glDrawArraysIndirect?$AA@ 1003e62c     umodsys_lib_libui:umodsys.mod.ui.SDL_GL.obj
 0002:00004644       ??_C@_0BH@LJJDOEDH@glDrawElementsIndirect?$AA@ 1003e644     umodsys_lib_libui:umodsys.mod.ui.SDL_GL.obj
 0002:0000465c       ??_C@_0BI@LEOILCPN@glDrawTransformFeedback?$AA@ 1003e65c     umodsys_lib_libui:umodsys.mod.ui.SDL_GL.obj
 0002:00004674       ??_C@_0BO@IGLFNCDG@glDrawTransformFeedbackStream?$AA@ 1003e674     umodsys_lib_libui:umodsys.mod.ui.SDL_GL.obj
 0002:00004694       ??_C@_0BC@DPMHMNME@glEndQueryIndexed?$AA@ 1003e694     umodsys_lib_libui:umodsys.mod.ui.SDL_GL.obj
 0002:000046a8       ??_C@_0BI@KANKBGAE@glGenTransformFeedbacks?$AA@ 1003e6a8     umodsys_lib_libui:umodsys.mod.ui.SDL_GL.obj
 0002:000046c0       ??_C@_0BK@JPHEACLL@glGetActiveSubroutineName?$AA@ 1003e6c0     umodsys_lib_libui:umodsys.mod.ui.SDL_GL.obj
 0002:000046dc       ??_C@_0CB@KCFFPCGJ@glGetActiveSubroutineUniformName@ 1003e6dc     umodsys_lib_libui:umodsys.mod.ui.SDL_GL.obj
 0002:00004700       ??_C@_0BP@FAPFAJFP@glGetActiveSubroutineUniformiv?$AA@ 1003e700     umodsys_lib_libui:umodsys.mod.ui.SDL_GL.obj
 0002:00004720       ??_C@_0BE@LOKJCDFH@glGetProgramStageiv?$AA@ 1003e720     umodsys_lib_libui:umodsys.mod.ui.SDL_GL.obj
 0002:00004734       ??_C@_0BE@CCFJPMFI@glGetQueryIndexediv?$AA@ 1003e734     umodsys_lib_libui:umodsys.mod.ui.SDL_GL.obj
 0002:00004748       ??_C@_0BF@ONDIGCJG@glGetSubroutineIndex?$AA@ 1003e748     umodsys_lib_libui:umodsys.mod.ui.SDL_GL.obj
 0002:00004760       ??_C@_0BP@IBIPLDOA@glGetSubroutineUniformLocation?$AA@ 1003e760     umodsys_lib_libui:umodsys.mod.ui.SDL_GL.obj
 0002:00004780       ??_C@_0BK@BLMOFAGJ@glGetUniformSubroutineuiv?$AA@ 1003e780     umodsys_lib_libui:umodsys.mod.ui.SDL_GL.obj
 0002:0000479c       ??_C@_0P@NGEMHI@glGetUniformdv?$AA@ 1003e79c     umodsys_lib_libui:umodsys.mod.ui.SDL_GL.obj
 0002:000047ac       ??_C@_0BG@BGFLKHBM@glIsTransformFeedback?$AA@ 1003e7ac     umodsys_lib_libui:umodsys.mod.ui.SDL_GL.obj
 0002:000047c4       ??_C@_0BD@EDGCEBP@glMinSampleShading?$AA@ 1003e7c4     umodsys_lib_libui:umodsys.mod.ui.SDL_GL.obj
 0002:000047d8       ??_C@_0BD@LJKINJKN@glPatchParameterfv?$AA@ 1003e7d8     umodsys_lib_libui:umodsys.mod.ui.SDL_GL.obj
 0002:000047ec       ??_C@_0BC@PAPDGMLA@glPatchParameteri?$AA@ 1003e7ec     umodsys_lib_libui:umodsys.mod.ui.SDL_GL.obj
 0002:00004800       ??_C@_0BJ@FFNLKBCB@glPauseTransformFeedback?$AA@ 1003e800     umodsys_lib_libui:umodsys.mod.ui.SDL_GL.obj
 0002:0000481c       ??_C@_0BK@JMHONFHF@glResumeTransformFeedback?$AA@ 1003e81c     umodsys_lib_libui:umodsys.mod.ui.SDL_GL.obj
 0002:00004838       ??_C@_0M@PJLEGNGH@glUniform1d?$AA@ 1003e838     umodsys_lib_libui:umodsys.mod.ui.SDL_GL.obj
 0002:00004844       ??_C@_0N@KKEKJOOG@glUniform1dv?$AA@ 1003e844     umodsys_lib_libui:umodsys.mod.ui.SDL_GL.obj
 0002:00004854       ??_C@_0M@PLPCNDDO@glUniform2d?$AA@ 1003e854     umodsys_lib_libui:umodsys.mod.ui.SDL_GL.obj
 0002:00004860       ??_C@_0N@LIPPDBAI@glUniform2dv?$AA@ 1003e860     umodsys_lib_libui:umodsys.mod.ui.SDL_GL.obj
 0002:00004870       ??_C@_0M@PKDALJAJ@glUniform3d?$AA@ 1003e870     umodsys_lib_libui:umodsys.mod.ui.SDL_GL.obj
 0002:0000487c       ??_C@_0N@EDFGGN@glUniform3dv?$AA@ 1003e87c     umodsys_lib_libui:umodsys.mod.ui.SDL_GL.obj
 0002:0000488c       ??_C@_0M@PPHPKPIM@glUniform4d?$AA@ 1003e88c     umodsys_lib_libui:umodsys.mod.ui.SDL_GL.obj
 0002:00004898       ??_C@_0N@JNJEGONE@glUniform4dv?$AA@ 1003e898     umodsys_lib_libui:umodsys.mod.ui.SDL_GL.obj
 0002:000048a8       ??_C@_0BD@JLJNJPBN@glUniformMatrix2dv?$AA@ 1003e8a8     umodsys_lib_libui:umodsys.mod.ui.SDL_GL.obj
 0002:000048bc       ??_C@_0BF@KALNBGFE@glUniformMatrix2x3dv?$AA@ 1003e8bc     umodsys_lib_libui:umodsys.mod.ui.SDL_GL.obj
 0002:000048d4       ??_C@_0BF@DNGKCOON@glUniformMatrix2x4dv?$AA@ 1003e8d4     umodsys_lib_libui:umodsys.mod.ui.SDL_GL.obj
 0002:000048ec       ??_C@_0BD@CDCBPIHI@glUniformMatrix3dv?$AA@ 1003e8ec     umodsys_lib_libui:umodsys.mod.ui.SDL_GL.obj
 0002:00004900       ??_C@_0BF@NDFNKCJE@glUniformMatrix3x2dv?$AA@ 1003e900     umodsys_lib_libui:umodsys.mod.ui.SDL_GL.obj
 0002:00004918       ??_C@_0BF@PGDGPNEI@glUniformMatrix3x4dv?$AA@ 1003e918     umodsys_lib_libui:umodsys.mod.ui.SDL_GL.obj
 0002:00004930       ??_C@_0BD@LOPGMAMB@glUniformMatrix4dv?$AA@ 1003e930     umodsys_lib_libui:umodsys.mod.ui.SDL_GL.obj
 0002:00004944       ??_C@_0BF@MOFIJCCM@glUniformMatrix4x2dv?$AA@ 1003e944     umodsys_lib_libui:umodsys.mod.ui.SDL_GL.obj
 0002:0000495c       ??_C@_0BF@HGOEPFEJ@glUniformMatrix4x3dv?$AA@ 1003e95c     umodsys_lib_libui:umodsys.mod.ui.SDL_GL.obj
 0002:00004974       ??_C@_0BI@CDPOBBHI@glUniformSubroutinesuiv?$AA@ 1003e974     umodsys_lib_libui:umodsys.mod.ui.SDL_GL.obj
 0002:0000498c       ??_C@_0BF@LBGBLLJA@GL_ARB_base_instance?$AA@ 1003e98c     umodsys_lib_libui:umodsys.mod.ui.SDL_GL.obj
 0002:000049a4       ??_C@_0CC@FBJBJHCN@glDrawArraysInstancedBaseInstanc@ 1003e9a4     umodsys_lib_libui:umodsys.mod.ui.SDL_GL.obj
 0002:000049c8       ??_C@_0CE@NGNINKJD@glDrawElementsInstancedBaseInsta@ 1003e9c8     umodsys_lib_libui:umodsys.mod.ui.SDL_GL.obj
 0002:000049ec       ??_C@_0CO@GCMNEAOA@glDrawElementsInstancedBaseVerte@ 1003e9ec     umodsys_lib_libui:umodsys.mod.ui.SDL_GL.obj
 0002:00004a1c       ??_C@_0BI@FNELAAPJ@GL_ARB_bindless_texture?$AA@ 1003ea1c     umodsys_lib_libui:umodsys.mod.ui.SDL_GL.obj
 0002:00004a34       ??_C@_0BE@JHMEHOCI@glGetImageHandleARB?$AA@ 1003ea34     umodsys_lib_libui:umodsys.mod.ui.SDL_GL.obj
 0002:00004a48       ??_C@_0BG@LFGIGKAH@glGetTextureHandleARB?$AA@ 1003ea48     umodsys_lib_libui:umodsys.mod.ui.SDL_GL.obj
 0002:00004a60       ??_C@_0BN@DEFEDMH@glGetTextureSamplerHandleARB?$AA@ 1003ea60     umodsys_lib_libui:umodsys.mod.ui.SDL_GL.obj
 0002:00004a80       ??_C@_0BL@HBJNADOI@glGetVertexAttribLui64vARB?$AA@ 1003ea80     umodsys_lib_libui:umodsys.mod.ui.SDL_GL.obj
 0002:00004a9c       ??_C@_0BL@IFBPNOMI@glIsImageHandleResidentARB?$AA@ 1003ea9c     umodsys_lib_libui:umodsys.mod.ui.SDL_GL.obj
 0002:00004ab8       ??_C@_0BN@JLGBAMKI@glIsTextureHandleResidentARB?$AA@ 1003eab8     umodsys_lib_libui:umodsys.mod.ui.SDL_GL.obj
 0002:00004ad8       ??_C@_0CA@BFHEDIKK@glMakeImageHandleNonResidentARB?$AA@ 1003ead8     umodsys_lib_libui:umodsys.mod.ui.SDL_GL.obj
 0002:00004af8       ??_C@_0BN@ECHDHELL@glMakeImageHandleResidentARB?$AA@ 1003eaf8     umodsys_lib_libui:umodsys.mod.ui.SDL_GL.obj
 0002:00004b18       ??_C@_0CC@EGJJLHFP@glMakeTextureHandleNonResidentAR@ 1003eb18     umodsys_lib_libui:umodsys.mod.ui.SDL_GL.obj
 0002:00004b3c       ??_C@_0BP@KJHAKLAH@glMakeTextureHandleResidentARB?$AA@ 1003eb3c     umodsys_lib_libui:umodsys.mod.ui.SDL_GL.obj
 0002:00004b5c       ??_C@_0BO@PELKNEEA@glProgramUniformHandleui64ARB?$AA@ 1003eb5c     umodsys_lib_libui:umodsys.mod.ui.SDL_GL.obj
 0002:00004b7c       ??_C@_0BP@PJOMOJFE@glProgramUniformHandleui64vARB?$AA@ 1003eb7c     umodsys_lib_libui:umodsys.mod.ui.SDL_GL.obj
 0002:00004b9c       ??_C@_0BH@PPMOJDBB@glUniformHandleui64ARB?$AA@ 1003eb9c     umodsys_lib_libui:umodsys.mod.ui.SDL_GL.obj
 0002:00004bb4       ??_C@_0BI@OFILPMHB@glUniformHandleui64vARB?$AA@ 1003ebb4     umodsys_lib_libui:umodsys.mod.ui.SDL_GL.obj
 0002:00004bcc       ??_C@_0BI@IPIKGHJF@glVertexAttribL1ui64ARB?$AA@ 1003ebcc     umodsys_lib_libui:umodsys.mod.ui.SDL_GL.obj
 0002:00004be4       ??_C@_0BJ@PCOPPLM@glVertexAttribL1ui64vARB?$AA@ 1003ebe4     umodsys_lib_libui:umodsys.mod.ui.SDL_GL.obj
 0002:00004c00       ??_C@_0BG@FDMKKDFD@GL_ARB_buffer_storage?$AA@ 1003ec00     umodsys_lib_libui:umodsys.mod.ui.SDL_GL.obj
 0002:00004c18       ??_C@_0BA@COBILMHM@glBufferStorage?$AA@ 1003ec18     umodsys_lib_libui:umodsys.mod.ui.SDL_GL.obj
 0002:00004c28       ??_C@_0BA@FEEMKBCF@GL_ARB_cl_event?$AA@ 1003ec28     umodsys_lib_libui:umodsys.mod.ui.SDL_GL.obj
 0002:00004c38       ??_C@_0BL@FGCKKDPG@glCreateSyncFromCLeventARB?$AA@ 1003ec38     umodsys_lib_libui:umodsys.mod.ui.SDL_GL.obj
 0002:00004c54       ??_C@_0BL@DOOAPCEA@GL_ARB_clear_buffer_object?$AA@ 1003ec54     umodsys_lib_libui:umodsys.mod.ui.SDL_GL.obj
 0002:00004c70       ??_C@_0BC@FCMBBKMP@glClearBufferData?$AA@ 1003ec70     umodsys_lib_libui:umodsys.mod.ui.SDL_GL.obj
 0002:00004c84       ??_C@_0BF@FDHIBCMD@glClearBufferSubData?$AA@ 1003ec84     umodsys_lib_libui:umodsys.mod.ui.SDL_GL.obj
 0002:00004c9c       ??_C@_0BF@HDHNHFHJ@GL_ARB_clear_texture?$AA@ 1003ec9c     umodsys_lib_libui:umodsys.mod.ui.SDL_GL.obj
 0002:00004cb4       ??_C@_0BA@FNPOIBAF@glClearTexImage?$AA@ 1003ecb4     umodsys_lib_libui:umodsys.mod.ui.SDL_GL.obj
 0002:00004cc4       ??_C@_0BD@CFALBON@glClearTexSubImage?$AA@ 1003ecc4     umodsys_lib_libui:umodsys.mod.ui.SDL_GL.obj
 0002:00004cd8       ??_C@_0BK@NPDELCAH@GL_ARB_color_buffer_float?$AA@ 1003ecd8     umodsys_lib_libui:umodsys.mod.ui.SDL_GL.obj
 0002:00004cf4       ??_C@_0BA@PBPFKPHF@glClampColorARB?$AA@ 1003ecf4     umodsys_lib_libui:umodsys.mod.ui.SDL_GL.obj
 0002:00004d04       ??_C@_0BG@CCENKDIE@GL_ARB_compute_shader?$AA@ 1003ed04     umodsys_lib_libui:umodsys.mod.ui.SDL_GL.obj
 0002:00004d1c       ??_C@_0BC@DKKFFIGC@glDispatchCompute?$AA@ 1003ed1c     umodsys_lib_libui:umodsys.mod.ui.SDL_GL.obj
 0002:00004d30       ??_C@_0BK@EJMOGMMI@glDispatchComputeIndirect?$AA@ 1003ed30     umodsys_lib_libui:umodsys.mod.ui.SDL_GL.obj
 0002:00004d4c       ??_C@_0CD@DFOMJNFO@GL_ARB_compute_variable_group_si@ 1003ed4c     umodsys_lib_libui:umodsys.mod.ui.SDL_GL.obj
 0002:00004d70       ??_C@_0BO@GJCJOBMI@glDispatchComputeGroupSizeARB?$AA@ 1003ed70     umodsys_lib_libui:umodsys.mod.ui.SDL_GL.obj
 0002:00004d90       ??_C@_0BC@IMNLOGMO@GL_ARB_copy_image?$AA@ 1003ed90     umodsys_lib_libui:umodsys.mod.ui.SDL_GL.obj
 0002:00004da4       ??_C@_0BD@BNCHOBBL@glCopyImageSubData?$AA@ 1003eda4     umodsys_lib_libui:umodsys.mod.ui.SDL_GL.obj
 0002:00004db8       ??_C@_0BE@PIDMLBFI@GL_ARB_draw_buffers?$AA@ 1003edb8     umodsys_lib_libui:umodsys.mod.ui.SDL_GL.obj
 0002:00004dcc       ??_C@_0BB@DLEFHLGI@glDrawBuffersARB?$AA@ 1003edcc     umodsys_lib_libui:umodsys.mod.ui.SDL_GL.obj
 0002:00004de0       ??_C@_0BK@EPBDCMLE@GL_ARB_draw_buffers_blend?$AA@ 1003ede0     umodsys_lib_libui:umodsys.mod.ui.SDL_GL.obj
 0002:00004dfc       ??_C@_0BM@DHGCGJJC@glBlendEquationSeparateiARB?$AA@ 1003edfc     umodsys_lib_libui:umodsys.mod.ui.SDL_GL.obj
 0002:00004e18       ??_C@_0BE@MKEGJKA@glBlendEquationiARB?$AA@ 1003ee18     umodsys_lib_libui:umodsys.mod.ui.SDL_GL.obj
 0002:00004e2c       ??_C@_0BI@EJDLCHDA@glBlendFuncSeparateiARB?$AA@ 1003ee2c     umodsys_lib_libui:umodsys.mod.ui.SDL_GL.obj
 0002:00004e44       ??_C@_0BA@IINKCNIC@glBlendFunciARB?$AA@ 1003ee44     umodsys_lib_libui:umodsys.mod.ui.SDL_GL.obj
 0002:00004e54       ??_C@_0BG@PNHOPBOL@GL_ARB_draw_instanced?$AA@ 1003ee54     umodsys_lib_libui:umodsys.mod.ui.SDL_GL.obj
 0002:00004e6c       ??_C@_0BJ@NIEKILNL@glDrawArraysInstancedARB?$AA@ 1003ee6c     umodsys_lib_libui:umodsys.mod.ui.SDL_GL.obj
 0002:00004e88       ??_C@_0BL@JMJLDLNF@glDrawElementsInstancedARB?$AA@ 1003ee88     umodsys_lib_libui:umodsys.mod.ui.SDL_GL.obj
 0002:00004ea4       ??_C@_0CC@CGMKCMOO@GL_ARB_framebuffer_no_attachment@ 1003eea4     umodsys_lib_libui:umodsys.mod.ui.SDL_GL.obj
 0002:00004ec8       ??_C@_0BI@MLACHGDK@glFramebufferParameteri?$AA@ 1003eec8     umodsys_lib_libui:umodsys.mod.ui.SDL_GL.obj
 0002:00004ee0       ??_C@_0BM@BFEEFCMK@glGetFramebufferParameteriv?$AA@ 1003eee0     umodsys_lib_libui:umodsys.mod.ui.SDL_GL.obj
 0002:00004efc       ??_C@_0BI@DHMGIOF@GL_ARB_geometry_shader4?$AA@ 1003eefc     umodsys_lib_libui:umodsys.mod.ui.SDL_GL.obj
 0002:00004f14       ??_C@_0BI@KFEKMNEL@glFramebufferTextureARB?$AA@ 1003ef14     umodsys_lib_libui:umodsys.mod.ui.SDL_GL.obj
 0002:00004f2c       ??_C@_0BM@PJPLFKLO@glFramebufferTextureFaceARB?$AA@ 1003ef2c     umodsys_lib_libui:umodsys.mod.ui.SDL_GL.obj
 0002:00004f48       ??_C@_0BN@OEJIBP@glFramebufferTextureLayerARB?$AA@ 1003ef48     umodsys_lib_libui:umodsys.mod.ui.SDL_GL.obj
 0002:00004f68       ??_C@_0BH@GELPODLK@glProgramParameteriARB?$AA@ 1003ef68     umodsys_lib_libui:umodsys.mod.ui.SDL_GL.obj
 0002:00004f80       ??_C@_0BK@HNPMALLK@GL_ARB_get_program_binary?$AA@ 1003ef80     umodsys_lib_libui:umodsys.mod.ui.SDL_GL.obj
 0002:00004f9c       ??_C@_0BD@JBCEHKON@glGetProgramBinary?$AA@ 1003ef9c     umodsys_lib_libui:umodsys.mod.ui.SDL_GL.obj
 0002:00004fb0       ??_C@_0BA@MIIDHOO@glProgramBinary?$AA@ 1003efb0     umodsys_lib_libui:umodsys.mod.ui.SDL_GL.obj
 0002:00004fc0       ??_C@_0BE@EELDBEME@glProgramParameteri?$AA@ 1003efc0     umodsys_lib_libui:umodsys.mod.ui.SDL_GL.obj
 0002:00004fd4       ??_C@_0P@GDHEIIHD@GL_ARB_imaging?$AA@ 1003efd4     umodsys_lib_libui:umodsys.mod.ui.SDL_GL.obj
 0002:00004fe4       ??_C@_0BA@JAMHNPHF@glColorSubTable?$AA@ 1003efe4     umodsys_lib_libui:umodsys.mod.ui.SDL_GL.obj
 0002:00004ff4       ??_C@_0N@PCFLODHG@glColorTable?$AA@ 1003eff4     umodsys_lib_libui:umodsys.mod.ui.SDL_GL.obj
 0002:00005004       ??_C@_0BI@DEIGFBNP@glColorTableParameterfv?$AA@ 1003f004     umodsys_lib_libui:umodsys.mod.ui.SDL_GL.obj
 0002:0000501c       ??_C@_0BI@DPNKBGOC@glColorTableParameteriv?$AA@ 1003f01c     umodsys_lib_libui:umodsys.mod.ui.SDL_GL.obj
 0002:00005034       ??_C@_0BG@CJBBBGMA@glConvolutionFilter1D?$AA@ 1003f034     umodsys_lib_libui:umodsys.mod.ui.SDL_GL.obj
 0002:0000504c       ??_C@_0BG@CLFHKIJJ@glConvolutionFilter2D?$AA@ 1003f04c     umodsys_lib_libui:umodsys.mod.ui.SDL_GL.obj
 0002:00005064       ??_C@_0BI@PLJALAOH@glConvolutionParameterf?$AA@ 1003f064     umodsys_lib_libui:umodsys.mod.ui.SDL_GL.obj
 0002:0000507c       ??_C@_0BJ@EHPADJBL@glConvolutionParameterfv?$AA@ 1003f07c     umodsys_lib_libui:umodsys.mod.ui.SDL_GL.obj
 0002:00005098       ??_C@_0BI@HMAIKMCI@glConvolutionParameteri?$AA@ 1003f098     umodsys_lib_libui:umodsys.mod.ui.SDL_GL.obj
 0002:000050b0       ??_C@_0BJ@EMKMHOCG@glConvolutionParameteriv?$AA@ 1003f0b0     umodsys_lib_libui:umodsys.mod.ui.SDL_GL.obj
 0002:000050cc       ??_C@_0BE@LPPLPNIO@glCopyColorSubTable?$AA@ 1003f0cc     umodsys_lib_libui:umodsys.mod.ui.SDL_GL.obj
 0002:000050e0       ??_C@_0BB@KFNEDBPG@glCopyColorTable?$AA@ 1003f0e0     umodsys_lib_libui:umodsys.mod.ui.SDL_GL.obj
 0002:000050f4       ??_C@_0BK@GEKJMFLK@glCopyConvolutionFilter1D?$AA@ 1003f0f4     umodsys_lib_libui:umodsys.mod.ui.SDL_GL.obj
 0002:00005110       ??_C@_0BK@GGOPHLOD@glCopyConvolutionFilter2D?$AA@ 1003f110     umodsys_lib_libui:umodsys.mod.ui.SDL_GL.obj
 0002:0000512c       ??_C@_0BA@JMNLAECM@glGetColorTable?$AA@ 1003f12c     umodsys_lib_libui:umodsys.mod.ui.SDL_GL.obj
 0002:0000513c       ??_C@_0BL@NIJNHALB@glGetColorTableParameterfv?$AA@ 1003f13c     umodsys_lib_libui:umodsys.mod.ui.SDL_GL.obj
 0002:00005158       ??_C@_0BL@NDMBDHIM@glGetColorTableParameteriv?$AA@ 1003f158     umodsys_lib_libui:umodsys.mod.ui.SDL_GL.obj
 0002:00005174       ??_C@_0BH@LPCMFECN@glGetConvolutionFilter?$AA@ 1003f174     umodsys_lib_libui:umodsys.mod.ui.SDL_GL.obj
 0002:0000518c       ??_C@_0BM@ONBGGOGF@glGetConvolutionParameterfv?$AA@ 1003f18c     umodsys_lib_libui:umodsys.mod.ui.SDL_GL.obj
 0002:000051a8       ??_C@_0BM@OGEKCJFI@glGetConvolutionParameteriv?$AA@ 1003f1a8     umodsys_lib_libui:umodsys.mod.ui.SDL_GL.obj
 0002:000051c4       ??_C@_0P@KEFKNNKH@glGetHistogram?$AA@ 1003f1c4     umodsys_lib_libui:umodsys.mod.ui.SDL_GL.obj
 0002:000051d4       ??_C@_0BK@IFPDKCN@glGetHistogramParameterfv?$AA@ 1003f1d4     umodsys_lib_libui:umodsys.mod.ui.SDL_GL.obj
 0002:000051f0       ??_C@_0BK@DADHNBA@glGetHistogramParameteriv?$AA@ 1003f1f0     umodsys_lib_libui:umodsys.mod.ui.SDL_GL.obj
 0002:0000520c       ??_C@_0M@ILDMABIA@glGetMinmax?$AA@ 1003f20c     umodsys_lib_libui:umodsys.mod.ui.SDL_GL.obj
 0002:00005218       ??_C@_0BH@ONPKEHGK@glGetMinmaxParameterfv?$AA@ 1003f218     umodsys_lib_libui:umodsys.mod.ui.SDL_GL.obj
 0002:00005230       ??_C@_0BH@OGKGAAFH@glGetMinmaxParameteriv?$AA@ 1003f230     umodsys_lib_libui:umodsys.mod.ui.SDL_GL.obj
 0002:00005248       ??_C@_0BF@LPFBPGKD@glGetSeparableFilter?$AA@ 1003f248     umodsys_lib_libui:umodsys.mod.ui.SDL_GL.obj
 0002:00005260       ??_C@_0M@EPLLGADA@glHistogram?$AA@ 1003f260     umodsys_lib_libui:umodsys.mod.ui.SDL_GL.obj
 0002:0000526c       ??_C@_08ONCKEMPI@glMinmax?$AA@ 1003f26c     umodsys_lib_libui:umodsys.mod.ui.SDL_GL.obj
 0002:00005278       ??_C@_0BB@OBMEDNFE@glResetHistogram?$AA@ 1003f278     umodsys_lib_libui:umodsys.mod.ui.SDL_GL.obj
 0002:0000528c       ??_C@_0O@MKNEKFLH@glResetMinmax?$AA@ 1003f28c     umodsys_lib_libui:umodsys.mod.ui.SDL_GL.obj
 0002:0000529c       ??_C@_0BE@IEPFBBMM@glSeparableFilter2D?$AA@ 1003f29c     umodsys_lib_libui:umodsys.mod.ui.SDL_GL.obj
 0002:000052b0       ??_C@_0BL@KOLCPNBO@GL_ARB_indirect_parameters?$AA@ 1003f2b0     umodsys_lib_libui:umodsys.mod.ui.SDL_GL.obj
 0002:000052cc       ??_C@_0CC@GFMDJHGF@glMultiDrawArraysIndirectCountAR@ 1003f2cc     umodsys_lib_libui:umodsys.mod.ui.SDL_GL.obj
 0002:000052f0       ??_C@_0CE@ONILMPPM@glMultiDrawElementsIndirectCount@ 1003f2f0     umodsys_lib_libui:umodsys.mod.ui.SDL_GL.obj
 0002:00005314       ??_C@_0BI@GEEEIEIJ@GL_ARB_instanced_arrays?$AA@ 1003f314     umodsys_lib_libui:umodsys.mod.ui.SDL_GL.obj
 0002:0000532c       ??_C@_0BJ@KDFJOAKK@glVertexAttribDivisorARB?$AA@ 1003f32c     umodsys_lib_libui:umodsys.mod.ui.SDL_GL.obj
 0002:00005348       ??_C@_0BM@CAEGIJIO@GL_ARB_internalformat_query?$AA@ 1003f348     umodsys_lib_libui:umodsys.mod.ui.SDL_GL.obj
 0002:00005364       ??_C@_0BG@BAOCDJPF@glGetInternalformativ?$AA@ 1003f364     umodsys_lib_libui:umodsys.mod.ui.SDL_GL.obj
 0002:0000537c       ??_C@_0BN@OHFALMNP@GL_ARB_internalformat_query2?$AA@ 1003f37c     umodsys_lib_libui:umodsys.mod.ui.SDL_GL.obj
 0002:0000539c       ??_C@_0BI@PHNNEGBD@glGetInternalformati64v?$AA@ 1003f39c     umodsys_lib_libui:umodsys.mod.ui.SDL_GL.obj
 0002:000053b4       ??_C@_0BK@HKMBDNBJ@GL_ARB_invalidate_subdata?$AA@ 1003f3b4     umodsys_lib_libui:umodsys.mod.ui.SDL_GL.obj
 0002:000053d0       ??_C@_0BH@OGIFIBHA@glInvalidateBufferData?$AA@ 1003f3d0     umodsys_lib_libui:umodsys.mod.ui.SDL_GL.obj
 0002:000053e8       ??_C@_0BK@HOHOHNAC@glInvalidateBufferSubData?$AA@ 1003f3e8     umodsys_lib_libui:umodsys.mod.ui.SDL_GL.obj
 0002:00005404       ??_C@_0BI@OAJPOHIP@glInvalidateFramebuffer?$AA@ 1003f404     umodsys_lib_libui:umodsys.mod.ui.SDL_GL.obj
 0002:0000541c       ??_C@_0BL@IHGLAPPE@glInvalidateSubFramebuffer?$AA@ 1003f41c     umodsys_lib_libui:umodsys.mod.ui.SDL_GL.obj
 0002:00005438       ??_C@_0BF@KHIECPKG@glInvalidateTexImage?$AA@ 1003f438     umodsys_lib_libui:umodsys.mod.ui.SDL_GL.obj
 0002:00005450       ??_C@_0BI@FJDKFLGL@glInvalidateTexSubImage?$AA@ 1003f450     umodsys_lib_libui:umodsys.mod.ui.SDL_GL.obj
 0002:00005468       ??_C@_0BG@CILLCDJH@GL_ARB_matrix_palette?$AA@ 1003f468     umodsys_lib_libui:umodsys.mod.ui.SDL_GL.obj
 0002:00005480       ??_C@_0BK@HJCEONII@glCurrentPaletteMatrixARB?$AA@ 1003f480     umodsys_lib_libui:umodsys.mod.ui.SDL_GL.obj
 0002:0000549c       ??_C@_0BI@LOCLKDCL@glMatrixIndexPointerARB?$AA@ 1003f49c     umodsys_lib_libui:umodsys.mod.ui.SDL_GL.obj
 0002:000054b4       ??_C@_0BE@HCLPKGGK@glMatrixIndexubvARB?$AA@ 1003f4b4     umodsys_lib_libui:umodsys.mod.ui.SDL_GL.obj
 0002:000054c8       ??_C@_0BE@BIHIFGKJ@glMatrixIndexuivARB?$AA@ 1003f4c8     umodsys_lib_libui:umodsys.mod.ui.SDL_GL.obj
 0002:000054dc       ??_C@_0BE@LKDFHHFE@glMatrixIndexusvARB?$AA@ 1003f4dc     umodsys_lib_libui:umodsys.mod.ui.SDL_GL.obj
 0002:000054f0       ??_C@_0BC@HHGOLJHF@GL_ARB_multi_bind?$AA@ 1003f4f0     umodsys_lib_libui:umodsys.mod.ui.SDL_GL.obj
 0002:00005504       ??_C@_0BC@ENBBLPHM@glBindBuffersBase?$AA@ 1003f504     umodsys_lib_libui:umodsys.mod.ui.SDL_GL.obj
 0002:00005518       ??_C@_0BD@ODFFOKPN@glBindBuffersRange?$AA@ 1003f518     umodsys_lib_libui:umodsys.mod.ui.SDL_GL.obj
 0002:0000552c       ??_C@_0BE@NAMJLOCK@glBindImageTextures?$AA@ 1003f52c     umodsys_lib_libui:umodsys.mod.ui.SDL_GL.obj
 0002:00005540       ??_C@_0P@FADPDFKM@glBindSamplers?$AA@ 1003f540     umodsys_lib_libui:umodsys.mod.ui.SDL_GL.obj
 0002:00005550       ??_C@_0P@KHDEIIMA@glBindTextures?$AA@ 1003f550     umodsys_lib_libui:umodsys.mod.ui.SDL_GL.obj
 0002:00005560       ??_C@_0BE@LNCGJHDC@glBindVertexBuffers?$AA@ 1003f560     umodsys_lib_libui:umodsys.mod.ui.SDL_GL.obj
 0002:00005574       ??_C@_0BL@PDDLDNGB@GL_ARB_multi_draw_indirect?$AA@ 1003f574     umodsys_lib_libui:umodsys.mod.ui.SDL_GL.obj
 0002:00005590       ??_C@_0BK@IKGAIKOP@glMultiDrawArraysIndirect?$AA@ 1003f590     umodsys_lib_libui:umodsys.mod.ui.SDL_GL.obj
 0002:000055ac       ??_C@_0BM@KHEEFMKO@glMultiDrawElementsIndirect?$AA@ 1003f5ac     umodsys_lib_libui:umodsys.mod.ui.SDL_GL.obj
 0002:000055c8       ??_C@_0BD@PNEOICHK@GL_ARB_multisample?$AA@ 1003f5c8     umodsys_lib_libui:umodsys.mod.ui.SDL_GL.obj
 0002:000055dc       ??_C@_0BE@NMFNHPGD@glSampleCoverageARB?$AA@ 1003f5dc     umodsys_lib_libui:umodsys.mod.ui.SDL_GL.obj
 0002:000055f0       ??_C@_0BE@MEMOPMEA@GL_ARB_multitexture?$AA@ 1003f5f0     umodsys_lib_libui:umodsys.mod.ui.SDL_GL.obj
 0002:00005604       ??_C@_0BD@IKCKKKNH@glActiveTextureARB?$AA@ 1003f604     umodsys_lib_libui:umodsys.mod.ui.SDL_GL.obj
 0002:00005618       ??_C@_0BJ@PBJNGLJH@glClientActiveTextureARB?$AA@ 1003f618     umodsys_lib_libui:umodsys.mod.ui.SDL_GL.obj
 0002:00005634       ??_C@_0BF@JJDGKFDO@glMultiTexCoord1dARB?$AA@ 1003f634     umodsys_lib_libui:umodsys.mod.ui.SDL_GL.obj
 0002:0000564c       ??_C@_0BG@EODMDJBO@glMultiTexCoord1dvARB?$AA@ 1003f64c     umodsys_lib_libui:umodsys.mod.ui.SDL_GL.obj
 0002:00005664       ??_C@_0BF@ODPGPGFO@glMultiTexCoord1fARB?$AA@ 1003f664     umodsys_lib_libui:umodsys.mod.ui.SDL_GL.obj
 0002:0000567c       ??_C@_0BG@DPEJIBF@glMultiTexCoord1fvARB?$AA@ 1003f67c     umodsys_lib_libui:umodsys.mod.ui.SDL_GL.obj
 0002:00005694       ??_C@_0BF@GBKGGBIP@glMultiTexCoord1iARB?$AA@ 1003f694     umodsys_lib_libui:umodsys.mod.ui.SDL_GL.obj
 0002:000056ac       ??_C@_0BG@PCKCCKMA@glMultiTexCoord1ivARB?$AA@ 1003f6ac     umodsys_lib_libui:umodsys.mod.ui.SDL_GL.obj
 0002:000056c4       ??_C@_0BF@ELPGOOKM@glMultiTexCoord1sARB?$AA@ 1003f6c4     umodsys_lib_libui:umodsys.mod.ui.SDL_GL.obj
 0002:000056dc       ??_C@_0BG@FAOPALDN@glMultiTexCoord1svARB?$AA@ 1003f6dc     umodsys_lib_libui:umodsys.mod.ui.SDL_GL.obj
 0002:000056f4       ??_C@_0BF@BPKCNHJA@glMultiTexCoord2dARB?$AA@ 1003f6f4     umodsys_lib_libui:umodsys.mod.ui.SDL_GL.obj
 0002:0000570c       ??_C@_0BG@HPNECDID@glMultiTexCoord2dvARB?$AA@ 1003f70c     umodsys_lib_libui:umodsys.mod.ui.SDL_GL.obj
 0002:00005724       ??_C@_0BF@GFGCIEPA@glMultiTexCoord2fARB?$AA@ 1003f724     umodsys_lib_libui:umodsys.mod.ui.SDL_GL.obj
 0002:0000573c       ??_C@_0BG@DCBMICII@glMultiTexCoord2fvARB?$AA@ 1003f73c     umodsys_lib_libui:umodsys.mod.ui.SDL_GL.obj
 0002:00005754       ??_C@_0BF@OHDCBDCB@glMultiTexCoord2iARB?$AA@ 1003f754     umodsys_lib_libui:umodsys.mod.ui.SDL_GL.obj
 0002:0000576c       ??_C@_0BG@MDEKDAFN@glMultiTexCoord2ivARB?$AA@ 1003f76c     umodsys_lib_libui:umodsys.mod.ui.SDL_GL.obj
 0002:00005784       ??_C@_0BF@MNGCJMAC@glMultiTexCoord2sARB?$AA@ 1003f784     umodsys_lib_libui:umodsys.mod.ui.SDL_GL.obj
 0002:0000579c       ??_C@_0BG@GBAHBBKA@glMultiTexCoord2svARB?$AA@ 1003f79c     umodsys_lib_libui:umodsys.mod.ui.SDL_GL.obj
 0002:000057b4       ??_C@_0BF@NEPOAEDF@glMultiTexCoord3dARB?$AA@ 1003f7b4     umodsys_lib_libui:umodsys.mod.ui.SDL_GL.obj
 0002:000057cc       ??_C@_0BG@NJKDCIDH@glMultiTexCoord3dvARB?$AA@ 1003f7cc     umodsys_lib_libui:umodsys.mod.ui.SDL_GL.obj
 0002:000057e4       ??_C@_0BF@KODOFHFF@glMultiTexCoord3fARB?$AA@ 1003f7e4     umodsys_lib_libui:umodsys.mod.ui.SDL_GL.obj
 0002:000057fc       ??_C@_0BG@JEGLIJDM@glMultiTexCoord3fvARB?$AA@ 1003f7fc     umodsys_lib_libui:umodsys.mod.ui.SDL_GL.obj
 0002:00005814       ??_C@_0BF@CMGOMAIE@glMultiTexCoord3iARB?$AA@ 1003f814     umodsys_lib_libui:umodsys.mod.ui.SDL_GL.obj
 0002:0000582c       ??_C@_0BG@GFDNDLOJ@glMultiTexCoord3ivARB?$AA@ 1003f82c     umodsys_lib_libui:umodsys.mod.ui.SDL_GL.obj
 0002:00005844       ??_C@_0BF@GDOEPKH@glMultiTexCoord3sARB?$AA@ 1003f844     umodsys_lib_libui:umodsys.mod.ui.SDL_GL.obj
 0002:0000585c       ??_C@_0BG@MHHABKBE@glMultiTexCoord3svARB?$AA@ 1003f85c     umodsys_lib_libui:umodsys.mod.ui.SDL_GL.obj
 0002:00005874       ??_C@_0BF@MJPLDEIN@glMultiTexCoord4dARB?$AA@ 1003f874     umodsys_lib_libui:umodsys.mod.ui.SDL_GL.obj
 0002:0000588c       ??_C@_0BG@BMAEBGLJ@glMultiTexCoord4dvARB?$AA@ 1003f88c     umodsys_lib_libui:umodsys.mod.ui.SDL_GL.obj
 0002:000058a4       ??_C@_0BF@LDDLGHON@glMultiTexCoord4fARB?$AA@ 1003f8a4     umodsys_lib_libui:umodsys.mod.ui.SDL_GL.obj
 0002:000058bc       ??_C@_0BG@FBMMLHLC@glMultiTexCoord4fvARB?$AA@ 1003f8bc     umodsys_lib_libui:umodsys.mod.ui.SDL_GL.obj
 0002:000058d4       ??_C@_0BF@DBGLPADM@glMultiTexCoord4iARB?$AA@ 1003f8d4     umodsys_lib_libui:umodsys.mod.ui.SDL_GL.obj
 0002:000058ec       ??_C@_0BG@KAJKAFGH@glMultiTexCoord4ivARB?$AA@ 1003f8ec     umodsys_lib_libui:umodsys.mod.ui.SDL_GL.obj
 0002:00005904       ??_C@_0BF@BLDLHPBP@glMultiTexCoord4sARB?$AA@ 1003f904     umodsys_lib_libui:umodsys.mod.ui.SDL_GL.obj
 0002:0000591c       ??_C@_0BG@CNHCEJK@glMultiTexCoord4svARB?$AA@ 1003f91c     umodsys_lib_libui:umodsys.mod.ui.SDL_GL.obj
 0002:00005934       ??_C@_0BH@NKOBMOPI@GL_ARB_occlusion_query?$AA@ 1003f934     umodsys_lib_libui:umodsys.mod.ui.SDL_GL.obj
 0002:0000594c       ??_C@_0BA@LPKBABEB@glBeginQueryARB?$AA@ 1003f94c     umodsys_lib_libui:umodsys.mod.ui.SDL_GL.obj
 0002:0000595c       ??_C@_0BD@HAEDHPKB@glDeleteQueriesARB?$AA@ 1003f95c     umodsys_lib_libui:umodsys.mod.ui.SDL_GL.obj
 0002:00005970       ??_C@_0O@EFJDHGFG@glEndQueryARB?$AA@ 1003f970     umodsys_lib_libui:umodsys.mod.ui.SDL_GL.obj
 0002:00005980       ??_C@_0BA@BJHFNMK@glGenQueriesARB?$AA@ 1003f980     umodsys_lib_libui:umodsys.mod.ui.SDL_GL.obj
 0002:00005990       ??_C@_0BG@EDFKPCGN@glGetQueryObjectivARB?$AA@ 1003f990     umodsys_lib_libui:umodsys.mod.ui.SDL_GL.obj
 0002:000059a8       ??_C@_0BH@OOHKBDPD@glGetQueryObjectuivARB?$AA@ 1003f9a8     umodsys_lib_libui:umodsys.mod.ui.SDL_GL.obj
 0002:000059c0       ??_C@_0BA@DPEEILJC@glGetQueryivARB?$AA@ 1003f9c0     umodsys_lib_libui:umodsys.mod.ui.SDL_GL.obj
 0002:000059d0       ??_C@_0N@HKMIDCPF@glIsQueryARB?$AA@ 1003f9d0     umodsys_lib_libui:umodsys.mod.ui.SDL_GL.obj
 0002:000059e0       ??_C@_0BI@KJOBMOPB@GL_ARB_point_parameters?$AA@ 1003f9e0     umodsys_lib_libui:umodsys.mod.ui.SDL_GL.obj
 0002:000059f8       ??_C@_0BF@DADCFKCJ@glPointParameterfARB?$AA@ 1003f9f8     umodsys_lib_libui:umodsys.mod.ui.SDL_GL.obj
 0002:00005a10       ??_C@_0BG@MNEGLICG@glPointParameterfvARB?$AA@ 1003fa10     umodsys_lib_libui:umodsys.mod.ui.SDL_GL.obj
 0002:00005a28       ??_C@_0BP@DBPLPPLA@GL_ARB_program_interface_query?$AA@ 1003fa28     umodsys_lib_libui:umodsys.mod.ui.SDL_GL.obj
 0002:00005a48       ??_C@_0BI@ICGPDPK@glGetProgramInterfaceiv?$AA@ 1003fa48     umodsys_lib_libui:umodsys.mod.ui.SDL_GL.obj
 0002:00005a60       ??_C@_0BK@DBDCONKB@glGetProgramResourceIndex?$AA@ 1003fa60     umodsys_lib_libui:umodsys.mod.ui.SDL_GL.obj
 0002:00005a7c       ??_C@_0BN@BIJNENLC@glGetProgramResourceLocation?$AA@ 1003fa7c     umodsys_lib_libui:umodsys.mod.ui.SDL_GL.obj
 0002:00005a9c       ??_C@_0CC@GHECGAIH@glGetProgramResourceLocationInde@ 1003fa9c     umodsys_lib_libui:umodsys.mod.ui.SDL_GL.obj
 0002:00005ac0       ??_C@_0BJ@OHCPEAGJ@glGetProgramResourceName?$AA@ 1003fac0     umodsys_lib_libui:umodsys.mod.ui.SDL_GL.obj
 0002:00005adc       ??_C@_0BH@LEDFEPHI@glGetProgramResourceiv?$AA@ 1003fadc     umodsys_lib_libui:umodsys.mod.ui.SDL_GL.obj
 0002:00005af4       ??_C@_0BC@EOBKJDCM@GL_ARB_robustness?$AA@ 1003faf4     umodsys_lib_libui:umodsys.mod.ui.SDL_GL.obj
 0002:00005b08       ??_C@_0BM@HDJJPNDL@glGetGraphicsResetStatusARB?$AA@ 1003fb08     umodsys_lib_libui:umodsys.mod.ui.SDL_GL.obj
 0002:00005b24       ??_C@_0BE@EKKDCCDE@glGetnColorTableARB?$AA@ 1003fb24     umodsys_lib_libui:umodsys.mod.ui.SDL_GL.obj
 0002:00005b38       ??_C@_0BM@IEIHGHHI@glGetnCompressedTexImageARB?$AA@ 1003fb38     umodsys_lib_libui:umodsys.mod.ui.SDL_GL.obj
 0002:00005b54       ??_C@_0BL@KGPCMOFG@glGetnConvolutionFilterARB?$AA@ 1003fb54     umodsys_lib_libui:umodsys.mod.ui.SDL_GL.obj
 0002:00005b70       ??_C@_0BD@MOBMBOGN@glGetnHistogramARB?$AA@ 1003fb70     umodsys_lib_libui:umodsys.mod.ui.SDL_GL.obj
 0002:00005b84       ??_C@_0P@BCDNBFMA@glGetnMapdvARB?$AA@ 1003fb84     umodsys_lib_libui:umodsys.mod.ui.SDL_GL.obj
 0002:00005b94       ??_C@_0P@FPPFLEML@glGetnMapfvARB?$AA@ 1003fb94     umodsys_lib_libui:umodsys.mod.ui.SDL_GL.obj
 0002:00005ba4       ??_C@_0P@KOKDAGBO@glGetnMapivARB?$AA@ 1003fba4     umodsys_lib_libui:umodsys.mod.ui.SDL_GL.obj
 0002:00005bb4       ??_C@_0BA@PCCAKFCF@glGetnMinmaxARB?$AA@ 1003fbb4     umodsys_lib_libui:umodsys.mod.ui.SDL_GL.obj
 0002:00005bc4       ??_C@_0BE@FCLKGMPL@glGetnPixelMapfvARB?$AA@ 1003fbc4     umodsys_lib_libui:umodsys.mod.ui.SDL_GL.obj
 0002:00005bd8       ??_C@_0BF@BEPLFPF@glGetnPixelMapuivARB?$AA@ 1003fbd8     umodsys_lib_libui:umodsys.mod.ui.SDL_GL.obj
 0002:00005bf0       ??_C@_0BF@KDACJEAI@glGetnPixelMapusvARB?$AA@ 1003fbf0     umodsys_lib_libui:umodsys.mod.ui.SDL_GL.obj
 0002:00005c08       ??_C@_0BI@ENGMEGBP@glGetnPolygonStippleARB?$AA@ 1003fc08     umodsys_lib_libui:umodsys.mod.ui.SDL_GL.obj
 0002:00005c20       ??_C@_0BJ@LPLOODMD@glGetnSeparableFilterARB?$AA@ 1003fc20     umodsys_lib_libui:umodsys.mod.ui.SDL_GL.obj
 0002:00005c3c       ??_C@_0BC@PIJGCEFC@glGetnTexImageARB?$AA@ 1003fc3c     umodsys_lib_libui:umodsys.mod.ui.SDL_GL.obj
 0002:00005c50       ??_C@_0BD@MEJNBIJE@glGetnUniformdvARB?$AA@ 1003fc50     umodsys_lib_libui:umodsys.mod.ui.SDL_GL.obj
 0002:00005c64       ??_C@_0BD@IJFFLJJP@glGetnUniformfvARB?$AA@ 1003fc64     umodsys_lib_libui:umodsys.mod.ui.SDL_GL.obj
 0002:00005c78       ??_C@_0BD@HIADALEK@glGetnUniformivARB?$AA@ 1003fc78     umodsys_lib_libui:umodsys.mod.ui.SDL_GL.obj
 0002:00005c8c       ??_C@_0BE@ELELPPGB@glGetnUniformuivARB?$AA@ 1003fc8c     umodsys_lib_libui:umodsys.mod.ui.SDL_GL.obj
 0002:00005ca0       ??_C@_0BB@IPICMDNC@glReadnPixelsARB?$AA@ 1003fca0     umodsys_lib_libui:umodsys.mod.ui.SDL_GL.obj
 0002:00005cb4       ??_C@_0BG@OGBJIDCC@GL_ARB_sample_shading?$AA@ 1003fcb4     umodsys_lib_libui:umodsys.mod.ui.SDL_GL.obj
 0002:00005ccc       ??_C@_0BG@KHPHHIHH@glMinSampleShadingARB?$AA@ 1003fccc     umodsys_lib_libui:umodsys.mod.ui.SDL_GL.obj
 0002:00005ce4       ??_C@_0BP@CCMMHIFB@GL_ARB_separate_shader_objects?$AA@ 1003fce4     umodsys_lib_libui:umodsys.mod.ui.SDL_GL.obj
 0002:00005d04       ??_C@_0BG@IAIOGMEB@glActiveShaderProgram?$AA@ 1003fd04     umodsys_lib_libui:umodsys.mod.ui.SDL_GL.obj
 0002:00005d1c       ??_C@_0BG@GLPOKNCG@glBindProgramPipeline?$AA@ 1003fd1c     umodsys_lib_libui:umodsys.mod.ui.SDL_GL.obj
 0002:00005d34       ??_C@_0BH@BOJGDFJN@glCreateShaderProgramv?$AA@ 1003fd34     umodsys_lib_libui:umodsys.mod.ui.SDL_GL.obj
 0002:00005d4c       ??_C@_0BJ@CHBGABHE@glDeleteProgramPipelines?$AA@ 1003fd4c     umodsys_lib_libui:umodsys.mod.ui.SDL_GL.obj
 0002:00005d68       ??_C@_0BG@CCBKOCA@glGenProgramPipelines?$AA@ 1003fd68     umodsys_lib_libui:umodsys.mod.ui.SDL_GL.obj
 0002:00005d80       ??_C@_0BM@BFFCFFFG@glGetProgramPipelineInfoLog?$AA@ 1003fd80     umodsys_lib_libui:umodsys.mod.ui.SDL_GL.obj
 0002:00005d9c       ??_C@_0BH@DNOPNJMO@glGetProgramPipelineiv?$AA@ 1003fd9c     umodsys_lib_libui:umodsys.mod.ui.SDL_GL.obj
 0002:00005db4       ??_C@_0BE@DLHPDHCH@glIsProgramPipeline?$AA@ 1003fdb4     umodsys_lib_libui:umodsys.mod.ui.SDL_GL.obj
 0002:00005dc8       ??_C@_0BD@JLIFLIMB@glProgramUniform1d?$AA@ 1003fdc8     umodsys_lib_libui:umodsys.mod.ui.SDL_GL.obj
 0002:00005ddc       ??_C@_0BE@JFJNKJOO@glProgramUniform1dv?$AA@ 1003fddc     umodsys_lib_libui:umodsys.mod.ui.SDL_GL.obj
 0002:00005df0       ??_C@_0BD@KJLDNKED@glProgramUniform1f?$AA@ 1003fdf0     umodsys_lib_libui:umodsys.mod.ui.SDL_GL.obj
 0002:00005e04       ??_C@_0BE@JGBJHNIA@glProgramUniform1fv?$AA@ 1003fe04     umodsys_lib_libui:umodsys.mod.ui.SDL_GL.obj
 0002:00005e18       ??_C@_0BD@COCLMGIM@glProgramUniform1i?$AA@ 1003fe18     umodsys_lib_libui:umodsys.mod.ui.SDL_GL.obj
 0002:00005e2c       ??_C@_0BE@JNEFDKLN@glProgramUniform1iv?$AA@ 1003fe2c     umodsys_lib_libui:umodsys.mod.ui.SDL_GL.obj
 0002:00005e40       ??_C@_0BE@EFCDGODH@glProgramUniform1ui?$AA@ 1003fe40     umodsys_lib_libui:umodsys.mod.ui.SDL_GL.obj
 0002:00005e54       ??_C@_0BF@MBJNFIBB@glProgramUniform1uiv?$AA@ 1003fe54     umodsys_lib_libui:umodsys.mod.ui.SDL_GL.obj
 0002:00005e6c       ??_C@_0BD@JJMDAGJI@glProgramUniform2d?$AA@ 1003fe6c     umodsys_lib_libui:umodsys.mod.ui.SDL_GL.obj
 0002:00005e80       ??_C@_0BE@IHCIAGAA@glProgramUniform2dv?$AA@ 1003fe80     umodsys_lib_libui:umodsys.mod.ui.SDL_GL.obj
 0002:00005e94       ??_C@_0BD@KLPFGEBK@glProgramUniform2f?$AA@ 1003fe94     umodsys_lib_libui:umodsys.mod.ui.SDL_GL.obj
 0002:00005ea8       ??_C@_0BE@IEKMNCGO@glProgramUniform2fv?$AA@ 1003fea8     umodsys_lib_libui:umodsys.mod.ui.SDL_GL.obj
 0002:00005ebc       ??_C@_0BD@CMGNHINF@glProgramUniform2i?$AA@ 1003febc     umodsys_lib_libui:umodsys.mod.ui.SDL_GL.obj
 0002:00005ed0       ??_C@_0BE@IPPAJFFD@glProgramUniform2iv?$AA@ 1003fed0     umodsys_lib_libui:umodsys.mod.ui.SDL_GL.obj
 0002:00005ee4       ??_C@_0BE@FHJGMBNJ@glProgramUniform2ui?$AA@ 1003fee4     umodsys_lib_libui:umodsys.mod.ui.SDL_GL.obj
 0002:00005ef8       ??_C@_0BF@IGDNCCMB@glProgramUniform2uiv?$AA@ 1003fef8     umodsys_lib_libui:umodsys.mod.ui.SDL_GL.obj
 0002:00005f10       ??_C@_0BD@JIABGMKP@glProgramUniform3d?$AA@ 1003ff10     umodsys_lib_libui:umodsys.mod.ui.SDL_GL.obj
 0002:00005f24       ??_C@_0BE@DPJEGBGF@glProgramUniform3dv?$AA@ 1003ff24     umodsys_lib_libui:umodsys.mod.ui.SDL_GL.obj
 0002:00005f38       ??_C@_0BD@KKDHAOCN@glProgramUniform3f?$AA@ 1003ff38     umodsys_lib_libui:umodsys.mod.ui.SDL_GL.obj
 0002:00005f4c       ??_C@_0BE@DMBALFAL@glProgramUniform3fv?$AA@ 1003ff4c     umodsys_lib_libui:umodsys.mod.ui.SDL_GL.obj
 0002:00005f60       ??_C@_0BD@CNKPBCOC@glProgramUniform3i?$AA@ 1003ff60     umodsys_lib_libui:umodsys.mod.ui.SDL_GL.obj
 0002:00005f74       ??_C@_0BE@DHEMPCDG@glProgramUniform3iv?$AA@ 1003ff74     umodsys_lib_libui:umodsys.mod.ui.SDL_GL.obj
 0002:00005f88       ??_C@_0BE@OPCKKGLM@glProgramUniform3ui?$AA@ 1003ff88     umodsys_lib_libui:umodsys.mod.ui.SDL_GL.obj
 0002:00005f9c       ??_C@_0BF@LLFNALHB@glProgramUniform3uiv?$AA@ 1003ff9c     umodsys_lib_libui:umodsys.mod.ui.SDL_GL.obj
 0002:00005fb4       ??_C@_0BD@JNEOHKCK@glProgramUniform4d?$AA@ 1003ffb4     umodsys_lib_libui:umodsys.mod.ui.SDL_GL.obj
 0002:00005fc8       ??_C@_0BE@KCEDFJNM@glProgramUniform4dv?$AA@ 1003ffc8     umodsys_lib_libui:umodsys.mod.ui.SDL_GL.obj
 0002:00005fdc       ??_C@_0BD@KPHIBIKI@glProgramUniform4f?$AA@ 1003ffdc     umodsys_lib_libui:umodsys.mod.ui.SDL_GL.obj
 0002:00005ff0       ??_C@_0BE@KBMHINLC@glProgramUniform4fv?$AA@ 1003fff0     umodsys_lib_libui:umodsys.mod.ui.SDL_GL.obj
 0002:00006004       ??_C@_0BD@CIOAAEGH@glProgramUniform4i?$AA@ 10040004     umodsys_lib_libui:umodsys.mod.ui.SDL_GL.obj
 0002:00006018       ??_C@_0BE@KKJLMKIP@glProgramUniform4iv?$AA@ 10040018     umodsys_lib_libui:umodsys.mod.ui.SDL_GL.obj
 0002:0000602c       ??_C@_0BE@HCPNJOAF@glProgramUniform4ui?$AA@ 1004002c     umodsys_lib_libui:umodsys.mod.ui.SDL_GL.obj
 0002:00006040       ??_C@_0BF@JHNNHGB@glProgramUniform4uiv?$AA@ 10040040     umodsys_lib_libui:umodsys.mod.ui.SDL_GL.obj
 0002:00006058       ??_C@_0BK@PAHLFKGL@glProgramUniformMatrix2dv?$AA@ 10040058     umodsys_lib_libui:umodsys.mod.ui.SDL_GL.obj
 0002:00006074       ??_C@_0BK@PDPPIOAF@glProgramUniformMatrix2fv?$AA@ 10040074     umodsys_lib_libui:umodsys.mod.ui.SDL_GL.obj
 0002:00006090       ??_C@_0BM@DCNGJFPN@glProgramUniformMatrix2x3dv?$AA@ 10040090     umodsys_lib_libui:umodsys.mod.ui.SDL_GL.obj
 0002:000060ac       ??_C@_0BM@DBFCEBJD@glProgramUniformMatrix2x3fv?$AA@ 100400ac     umodsys_lib_libui:umodsys.mod.ui.SDL_GL.obj
 0002:000060c8       ??_C@_0BM@KPABKNEE@glProgramUniformMatrix2x4dv?$AA@ 100400c8     umodsys_lib_libui:umodsys.mod.ui.SDL_GL.obj
 0002:000060e4       ??_C@_0BM@KMIFHJCK@glProgramUniformMatrix2x4fv?$AA@ 100400e4     umodsys_lib_libui:umodsys.mod.ui.SDL_GL.obj
 0002:00006100       ??_C@_0BK@EIMHDNAO@glProgramUniformMatrix3dv?$AA@ 10040100     umodsys_lib_libui:umodsys.mod.ui.SDL_GL.obj
 0002:0000611c       ??_C@_0BK@ELEDOJGA@glProgramUniformMatrix3fv?$AA@ 1004011c     umodsys_lib_libui:umodsys.mod.ui.SDL_GL.obj
 0002:00006138       ??_C@_0BM@EBDGCBDN@glProgramUniformMatrix3x2dv?$AA@ 10040138     umodsys_lib_libui:umodsys.mod.ui.SDL_GL.obj
 0002:00006154       ??_C@_0BM@ECLCPFFD@glProgramUniformMatrix3x2fv?$AA@ 10040154     umodsys_lib_libui:umodsys.mod.ui.SDL_GL.obj
 0002:00006170       ??_C@_0BM@GEFNHOOB@glProgramUniformMatrix3x4dv?$AA@ 10040170     umodsys_lib_libui:umodsys.mod.ui.SDL_GL.obj
 0002:0000618c       ??_C@_0BM@GHNJKKIP@glProgramUniformMatrix3x4fv?$AA@ 1004018c     umodsys_lib_libui:umodsys.mod.ui.SDL_GL.obj
 0002:000061a8       ??_C@_0BK@NFBAAFLH@glProgramUniformMatrix4dv?$AA@ 100401a8     umodsys_lib_libui:umodsys.mod.ui.SDL_GL.obj
 0002:000061c4       ??_C@_0BK@NGJENBNJ@glProgramUniformMatrix4fv?$AA@ 100401c4     umodsys_lib_libui:umodsys.mod.ui.SDL_GL.obj
 0002:000061e0       ??_C@_0BM@FMDDBBIF@glProgramUniformMatrix4x2dv?$AA@ 100401e0     umodsys_lib_libui:umodsys.mod.ui.SDL_GL.obj
 0002:000061fc       ??_C@_0BM@FPLHMFOL@glProgramUniformMatrix4x2fv?$AA@ 100401fc     umodsys_lib_libui:umodsys.mod.ui.SDL_GL.obj
 0002:00006218       ??_C@_0BM@OEIPHGOA@glProgramUniformMatrix4x3dv?$AA@ 10040218     umodsys_lib_libui:umodsys.mod.ui.SDL_GL.obj
 0002:00006234       ??_C@_0BM@OHALKCIO@glProgramUniformMatrix4x3fv?$AA@ 10040234     umodsys_lib_libui:umodsys.mod.ui.SDL_GL.obj
 0002:00006250       ??_C@_0BD@CADKHDMH@glUseProgramStages?$AA@ 10040250     umodsys_lib_libui:umodsys.mod.ui.SDL_GL.obj
 0002:00006264       ??_C@_0BK@HHHCKEGH@glValidateProgramPipeline?$AA@ 10040264     umodsys_lib_libui:umodsys.mod.ui.SDL_GL.obj
 0002:00006280       ??_C@_0BO@IIINIEKI@GL_ARB_shader_atomic_counters?$AA@ 10040280     umodsys_lib_libui:umodsys.mod.ui.SDL_GL.obj
 0002:000062a0       ??_C@_0CB@CEHFMJFN@glGetActiveAtomicCounterBufferiv@ 100402a0     umodsys_lib_libui:umodsys.mod.ui.SDL_GL.obj
 0002:000062c4       ??_C@_0BP@JHNJKEFP@GL_ARB_shader_image_load_store?$AA@ 100402c4     umodsys_lib_libui:umodsys.mod.ui.SDL_GL.obj
 0002:000062e4       ??_C@_0BD@GAKEPNGD@glBindImageTexture?$AA@ 100402e4     umodsys_lib_libui:umodsys.mod.ui.SDL_GL.obj
 0002:000062f8       ??_C@_0BA@HIHPNLBJ@glMemoryBarrier?$AA@ 100402f8     umodsys_lib_libui:umodsys.mod.ui.SDL_GL.obj
 0002:00006308       ??_C@_0BG@OLLFAEMA@GL_ARB_shader_objects?$AA@ 10040308     umodsys_lib_libui:umodsys.mod.ui.SDL_GL.obj
 0002:00006320       ??_C@_0BC@GINLBKLJ@glAttachObjectARB?$AA@ 10040320     umodsys_lib_libui:umodsys.mod.ui.SDL_GL.obj
 0002:00006334       ??_C@_0BD@BEDGBOPM@glCompileShaderARB?$AA@ 10040334     umodsys_lib_libui:umodsys.mod.ui.SDL_GL.obj
 0002:00006348       ??_C@_0BJ@KGMBEPBI@glCreateProgramObjectARB?$AA@ 10040348     umodsys_lib_libui:umodsys.mod.ui.SDL_GL.obj
 0002:00006364       ??_C@_0BI@FMNPOEGE@glCreateShaderObjectARB?$AA@ 10040364     umodsys_lib_libui:umodsys.mod.ui.SDL_GL.obj
 0002:0000637c       ??_C@_0BC@MJFNICLA@glDeleteObjectARB?$AA@ 1004037c     umodsys_lib_libui:umodsys.mod.ui.SDL_GL.obj
 0002:00006390       ??_C@_0BC@OPBLIDAI@glDetachObjectARB?$AA@ 10040390     umodsys_lib_libui:umodsys.mod.ui.SDL_GL.obj
 0002:000063a4       ??_C@_0BG@FNEOAGIK@glGetActiveUniformARB?$AA@ 100403a4     umodsys_lib_libui:umodsys.mod.ui.SDL_GL.obj
 0002:000063bc       ??_C@_0BI@KFAABOIL@glGetAttachedObjectsARB?$AA@ 100403bc     umodsys_lib_libui:umodsys.mod.ui.SDL_GL.obj
 0002:000063d4       ??_C@_0P@LFBJNCKO@glGetHandleARB?$AA@ 100403d4     umodsys_lib_libui:umodsys.mod.ui.SDL_GL.obj
 0002:000063e4       ??_C@_0BA@FLIOBLOG@glGetInfoLogARB?$AA@ 100403e4     umodsys_lib_libui:umodsys.mod.ui.SDL_GL.obj
 0002:000063f4       ??_C@_0BK@HCFOBODO@glGetObjectParameterfvARB?$AA@ 100403f4     umodsys_lib_libui:umodsys.mod.ui.SDL_GL.obj
 0002:00006410       ??_C@_0BK@IDAIKMOL@glGetObjectParameterivARB?$AA@ 10040410     umodsys_lib_libui:umodsys.mod.ui.SDL_GL.obj
 0002:0000642c       ??_C@_0BF@OBGOKFNE@glGetShaderSourceARB?$AA@ 1004042c     umodsys_lib_libui:umodsys.mod.ui.SDL_GL.obj
 0002:00006444       ??_C@_0BI@CAFPPHDC@glGetUniformLocationARB?$AA@ 10040444     umodsys_lib_libui:umodsys.mod.ui.SDL_GL.obj
 0002:0000645c       ??_C@_0BC@KKIJAHAK@glGetUniformfvARB?$AA@ 1004045c     umodsys_lib_libui:umodsys.mod.ui.SDL_GL.obj
 0002:00006470       ??_C@_0BC@FLNPLFNP@glGetUniformivARB?$AA@ 10040470     umodsys_lib_libui:umodsys.mod.ui.SDL_GL.obj
 0002:00006484       ??_C@_0BB@HPIAOOAG@glLinkProgramARB?$AA@ 10040484     umodsys_lib_libui:umodsys.mod.ui.SDL_GL.obj
 0002:00006498       ??_C@_0BC@MCCOFGJG@glShaderSourceARB?$AA@ 10040498     umodsys_lib_libui:umodsys.mod.ui.SDL_GL.obj
 0002:000064ac       ??_C@_0P@KFNIAEEC@glUniform1fARB?$AA@ 100404ac     umodsys_lib_libui:umodsys.mod.ui.SDL_GL.obj
 0002:000064bc       ??_C@_0BA@BHLDOKKI@glUniform1fvARB?$AA@ 100404bc     umodsys_lib_libui:umodsys.mod.ui.SDL_GL.obj
 0002:000064cc       ??_C@_0P@CHIIJDJD@glUniform1iARB?$AA@ 100404cc     umodsys_lib_libui:umodsys.mod.ui.SDL_GL.obj
 0002:000064dc       ??_C@_0BA@OGOFFIHN@glUniform1ivARB?$AA@ 100404dc     umodsys_lib_libui:umodsys.mod.ui.SDL_GL.obj
 0002:000064ec       ??_C@_0P@CDEMHGOM@glUniform2fARB?$AA@ 100404ec     umodsys_lib_libui:umodsys.mod.ui.SDL_GL.obj
 0002:000064fc       ??_C@_0BA@CGFLPADF@glUniform2fvARB?$AA@ 100404fc     umodsys_lib_libui:umodsys.mod.ui.SDL_GL.obj
 0002:0000650c       ??_C@_0P@KBBMOBDN@glUniform2iARB?$AA@ 1004050c     umodsys_lib_libui:umodsys.mod.ui.SDL_GL.obj
 0002:0000651c       ??_C@_0BA@NHANECOA@glUniform2ivARB?$AA@ 1004051c     umodsys_lib_libui:umodsys.mod.ui.SDL_GL.obj
 0002:0000652c       ??_C@_0P@OIBAKFEJ@glUniform3fARB?$AA@ 1004052c     umodsys_lib_libui:umodsys.mod.ui.SDL_GL.obj
 0002:0000653c       ??_C@_0BA@IACMPLIB@glUniform3fvARB?$AA@ 1004053c     umodsys_lib_libui:umodsys.mod.ui.SDL_GL.obj
 0002:0000654c       ??_C@_0P@GKEADCJI@glUniform3iARB?$AA@ 1004054c     umodsys_lib_libui:umodsys.mod.ui.SDL_GL.obj
 0002:0000655c       ??_C@_0BA@HBHKEJFE@glUniform3ivARB?$AA@ 1004055c     umodsys_lib_libui:umodsys.mod.ui.SDL_GL.obj
 0002:0000656c       ??_C@_0P@PFBFJFPB@glUniform4fARB?$AA@ 1004056c     umodsys_lib_libui:umodsys.mod.ui.SDL_GL.obj
 0002:0000657c       ??_C@_0BA@EFILMFAP@glUniform4fvARB?$AA@ 1004057c     umodsys_lib_libui:umodsys.mod.ui.SDL_GL.obj
 0002:0000658c       ??_C@_0P@HHEFACCA@glUniform4iARB?$AA@ 1004058c     umodsys_lib_libui:umodsys.mod.ui.SDL_GL.obj
 0002:0000659c       ??_C@_0BA@LENNHHNK@glUniform4ivARB?$AA@ 1004059c     umodsys_lib_libui:umodsys.mod.ui.SDL_GL.obj
 0002:000065ac       ??_C@_0BG@KPIOAAJO@glUniformMatrix2fvARB?$AA@ 100405ac     umodsys_lib_libui:umodsys.mod.ui.SDL_GL.obj
 0002:000065c4       ??_C@_0BG@JPJALCK@glUniformMatrix3fvARB?$AA@ 100405c4     umodsys_lib_libui:umodsys.mod.ui.SDL_GL.obj
 0002:000065dc       ??_C@_0BG@MMFODFKE@glUniformMatrix4fvARB?$AA@ 100405dc     umodsys_lib_libui:umodsys.mod.ui.SDL_GL.obj
 0002:000065f4       ??_C@_0BG@JEOFPDIM@glUseProgramObjectARB?$AA@ 100405f4     umodsys_lib_libui:umodsys.mod.ui.SDL_GL.obj
 0002:0000660c       ??_C@_0BF@BGDHGNPG@glValidateProgramARB?$AA@ 1004060c     umodsys_lib_libui:umodsys.mod.ui.SDL_GL.obj
 0002:00006624       ??_C@_0CE@HBCJMOIO@GL_ARB_shader_storage_buffer_obj@ 10040624     umodsys_lib_libui:umodsys.mod.ui.SDL_GL.obj
 0002:00006648       ??_C@_0BM@GDDCNIBO@glShaderStorageBlockBinding?$AA@ 10040648     umodsys_lib_libui:umodsys.mod.ui.SDL_GL.obj
 0002:00006664       ??_C@_0CA@DOHJAPBD@GL_ARB_shading_language_include?$AA@ 10040664     umodsys_lib_libui:umodsys.mod.ui.SDL_GL.obj
 0002:00006684       ??_C@_0BK@EDOCLMLD@glCompileShaderIncludeARB?$AA@ 10040684     umodsys_lib_libui:umodsys.mod.ui.SDL_GL.obj
 0002:000066a0       ??_C@_0BH@NCMBPFNK@glDeleteNamedStringARB?$AA@ 100406a0     umodsys_lib_libui:umodsys.mod.ui.SDL_GL.obj
 0002:000066b8       ??_C@_0BE@NFONNCFF@glGetNamedStringARB?$AA@ 100406b8     umodsys_lib_libui:umodsys.mod.ui.SDL_GL.obj
 0002:000066cc       ??_C@_0BG@MPGNLJCM@glGetNamedStringivARB?$AA@ 100406cc     umodsys_lib_libui:umodsys.mod.ui.SDL_GL.obj
 0002:000066e4       ??_C@_0BD@ICFECEJF@glIsNamedStringARB?$AA@ 100406e4     umodsys_lib_libui:umodsys.mod.ui.SDL_GL.obj
 0002:000066f8       ??_C@_0BB@EMHJCPKC@glNamedStringARB?$AA@ 100406f8     umodsys_lib_libui:umodsys.mod.ui.SDL_GL.obj
 0002:0000670c       ??_C@_0BG@EEMFDFOI@GL_ARB_sparse_texture?$AA@ 1004070c     umodsys_lib_libui:umodsys.mod.ui.SDL_GL.obj
 0002:00006724       ??_C@_0BH@MNMDGLPG@glTexPageCommitmentARB?$AA@ 10040724     umodsys_lib_libui:umodsys.mod.ui.SDL_GL.obj
 0002:0000673c       ??_C@_0BN@IPJPHCKH@GL_ARB_texture_buffer_object?$AA@ 1004073c     umodsys_lib_libui:umodsys.mod.ui.SDL_GL.obj
 0002:0000675c       ??_C@_0P@OBHFBJAP@glTexBufferARB?$AA@ 1004075c     umodsys_lib_libui:umodsys.mod.ui.SDL_GL.obj
 0002:0000676c       ??_C@_0BM@IPNAGCND@GL_ARB_texture_buffer_range?$AA@ 1004076c     umodsys_lib_libui:umodsys.mod.ui.SDL_GL.obj
 0002:00006788       ??_C@_0BB@DPMGLFNI@glTexBufferRange?$AA@ 10040788     umodsys_lib_libui:umodsys.mod.ui.SDL_GL.obj
 0002:0000679c       ??_C@_0BL@PEFPCGDJ@GL_ARB_texture_compression?$AA@ 1004079c     umodsys_lib_libui:umodsys.mod.ui.SDL_GL.obj
 0002:000067b8       ??_C@_0BK@GFNCBPLO@glCompressedTexImage1DARB?$AA@ 100407b8     umodsys_lib_libui:umodsys.mod.ui.SDL_GL.obj
 0002:000067d4       ??_C@_0BK@ODEGGNBA@glCompressedTexImage2DARB?$AA@ 100407d4     umodsys_lib_libui:umodsys.mod.ui.SDL_GL.obj
 0002:000067f0       ??_C@_0BK@CIBKLOLF@glCompressedTexImage3DARB?$AA@ 100407f0     umodsys_lib_libui:umodsys.mod.ui.SDL_GL.obj
 0002:0000680c       ??_C@_0BN@DBMDJCJF@glCompressedTexSubImage1DARB?$AA@ 1004080c     umodsys_lib_libui:umodsys.mod.ui.SDL_GL.obj
 0002:0000682c       ??_C@_0BN@LHFHOADL@glCompressedTexSubImage2DARB?$AA@ 1004082c     umodsys_lib_libui:umodsys.mod.ui.SDL_GL.obj
 0002:0000684c       ??_C@_0BN@HMALDDJO@glCompressedTexSubImage3DARB?$AA@ 1004084c     umodsys_lib_libui:umodsys.mod.ui.SDL_GL.obj
 0002:0000686c       ??_C@_0BL@CKKCLKDF@glGetCompressedTexImageARB?$AA@ 1004086c     umodsys_lib_libui:umodsys.mod.ui.SDL_GL.obj
 0002:00006888       ??_C@_0BH@KEOKNPHF@GL_ARB_texture_storage?$AA@ 10040888     umodsys_lib_libui:umodsys.mod.ui.SDL_GL.obj
 0002:000068a0       ??_C@_0P@LCLGPEBO@glTexStorage1D?$AA@ 100408a0     umodsys_lib_libui:umodsys.mod.ui.SDL_GL.obj
 0002:000068b0       ??_C@_0P@LAPAEKEH@glTexStorage2D?$AA@ 100408b0     umodsys_lib_libui:umodsys.mod.ui.SDL_GL.obj
 0002:000068c0       ??_C@_0P@LBDCCAHA@glTexStorage3D?$AA@ 100408c0     umodsys_lib_libui:umodsys.mod.ui.SDL_GL.obj
 0002:000068d0       ??_C@_0CD@EKHGLAOK@GL_ARB_texture_storage_multisamp@ 100408d0     umodsys_lib_libui:umodsys.mod.ui.SDL_GL.obj
 0002:000068f4       ??_C@_0BK@PDJAKDKP@glTexStorage2DMultisample?$AA@ 100408f4     umodsys_lib_libui:umodsys.mod.ui.SDL_GL.obj
 0002:00006910       ??_C@_0BK@GOJPECNJ@glTexStorage3DMultisample?$AA@ 10040910     umodsys_lib_libui:umodsys.mod.ui.SDL_GL.obj
 0002:0000692c       ??_C@_0BE@HCMLPJMK@GL_ARB_texture_view?$AA@ 1004092c     umodsys_lib_libui:umodsys.mod.ui.SDL_GL.obj
 0002:00006940       ??_C@_0O@BNFDGIMP@glTextureView?$AA@ 10040940     umodsys_lib_libui:umodsys.mod.ui.SDL_GL.obj
 0002:00006950       ??_C@_0CE@HBNDFFCP@GL_ARB_transform_feedback_instan@ 10040950     umodsys_lib_libui:umodsys.mod.ui.SDL_GL.obj
 0002:00006974       ??_C@_0CB@NDMLCEF@glDrawTransformFeedbackInstanced@ 10040974     umodsys_lib_libui:umodsys.mod.ui.SDL_GL.obj
 0002:00006998       ??_C@_0CH@OMPFKBLK@glDrawTransformFeedbackStreamIns@ 10040998     umodsys_lib_libui:umodsys.mod.ui.SDL_GL.obj
 0002:000069c0       ??_C@_0BI@OLAKMOK@GL_ARB_transpose_matrix?$AA@ 100409c0     umodsys_lib_libui:umodsys.mod.ui.SDL_GL.obj
 0002:000069d8       ??_C@_0BK@JMMPDFPI@glLoadTransposeMatrixdARB?$AA@ 100409d8     umodsys_lib_libui:umodsys.mod.ui.SDL_GL.obj
 0002:000069f4       ??_C@_0BK@OGAPGGJI@glLoadTransposeMatrixfARB?$AA@ 100409f4     umodsys_lib_libui:umodsys.mod.ui.SDL_GL.obj
 0002:00006a10       ??_C@_0BK@EIJJIFHA@glMultTransposeMatrixdARB?$AA@ 10040a10     umodsys_lib_libui:umodsys.mod.ui.SDL_GL.obj
 0002:00006a2c       ??_C@_0BK@DCFJNGBA@glMultTransposeMatrixfARB?$AA@ 10040a2c     umodsys_lib_libui:umodsys.mod.ui.SDL_GL.obj
 0002:00006a48       ??_C@_0BL@KMJMBFGI@GL_ARB_vertex_attrib_64bit?$AA@ 10040a48     umodsys_lib_libui:umodsys.mod.ui.SDL_GL.obj
 0002:00006a64       ??_C@_0BF@JADLCNLO@glGetVertexAttribLdv?$AA@ 10040a64     umodsys_lib_libui:umodsys.mod.ui.SDL_GL.obj
 0002:00006a7c       ??_C@_0BC@KBPIECHE@glVertexAttribL1d?$AA@ 10040a7c     umodsys_lib_libui:umodsys.mod.ui.SDL_GL.obj
 0002:00006a90       ??_C@_0BD@COKMJDBH@glVertexAttribL1dv?$AA@ 10040a90     umodsys_lib_libui:umodsys.mod.ui.SDL_GL.obj
 0002:00006aa4       ??_C@_0BC@KDLOPMCN@glVertexAttribL2d?$AA@ 10040aa4     umodsys_lib_libui:umodsys.mod.ui.SDL_GL.obj
 0002:00006ab8       ??_C@_0BD@DMBJDMPJ@glVertexAttribL2dv?$AA@ 10040ab8     umodsys_lib_libui:umodsys.mod.ui.SDL_GL.obj
 0002:00006acc       ??_C@_0BC@KCHMJGBK@glVertexAttribL3d?$AA@ 10040acc     umodsys_lib_libui:umodsys.mod.ui.SDL_GL.obj
 0002:00006ae0       ??_C@_0BD@IEKFFLJM@glVertexAttribL3dv?$AA@ 10040ae0     umodsys_lib_libui:umodsys.mod.ui.SDL_GL.obj
 0002:00006af4       ??_C@_0BC@KHDDIAJP@glVertexAttribL4d?$AA@ 10040af4     umodsys_lib_libui:umodsys.mod.ui.SDL_GL.obj
 0002:00006b08       ??_C@_0BD@BJHCGDCF@glVertexAttribL4dv?$AA@ 10040b08     umodsys_lib_libui:umodsys.mod.ui.SDL_GL.obj
 0002:00006b1c       ??_C@_0BH@JBHDDPGM@glVertexAttribLPointer?$AA@ 10040b1c     umodsys_lib_libui:umodsys.mod.ui.SDL_GL.obj
 0002:00006b34       ??_C@_0BN@BGEDEMFB@GL_ARB_vertex_attrib_binding?$AA@ 10040b34     umodsys_lib_libui:umodsys.mod.ui.SDL_GL.obj
 0002:00006b54       ??_C@_0BD@FCGJAOHG@glBindVertexBuffer?$AA@ 10040b54     umodsys_lib_libui:umodsys.mod.ui.SDL_GL.obj
 0002:00006b68       ??_C@_0BG@MLFHCGE@glVertexAttribBinding?$AA@ 10040b68     umodsys_lib_libui:umodsys.mod.ui.SDL_GL.obj
 0002:00006b80       ??_C@_0BF@JEIPPBFE@glVertexAttribFormat?$AA@ 10040b80     umodsys_lib_libui:umodsys.mod.ui.SDL_GL.obj
 0002:00006b98       ??_C@_0BG@KJAHAHDI@glVertexAttribIFormat?$AA@ 10040b98     umodsys_lib_libui:umodsys.mod.ui.SDL_GL.obj
 0002:00006bb0       ??_C@_0BG@OBOHAJFM@glVertexAttribLFormat?$AA@ 10040bb0     umodsys_lib_libui:umodsys.mod.ui.SDL_GL.obj
 0002:00006bc8       ??_C@_0BH@GNGCLGOI@glVertexBindingDivisor?$AA@ 10040bc8     umodsys_lib_libui:umodsys.mod.ui.SDL_GL.obj
 0002:00006be0       ??_C@_0BE@HEPDDKDL@GL_ARB_vertex_blend?$AA@ 10040be0     umodsys_lib_libui:umodsys.mod.ui.SDL_GL.obj
 0002:00006bf4       ??_C@_0BB@BINNIMAP@glVertexBlendARB?$AA@ 10040bf4     umodsys_lib_libui:umodsys.mod.ui.SDL_GL.obj
 0002:00006c08       ??_C@_0BD@FICKLEOD@glWeightPointerARB?$AA@ 10040c08     umodsys_lib_libui:umodsys.mod.ui.SDL_GL.obj
 0002:00006c1c       ??_C@_0O@IJNFJGFD@glWeightbvARB?$AA@ 10040c1c     umodsys_lib_libui:umodsys.mod.ui.SDL_GL.obj
 0002:00006c2c       ??_C@_0O@FPIMHFEO@glWeightdvARB?$AA@ 10040c2c     umodsys_lib_libui:umodsys.mod.ui.SDL_GL.obj
 0002:00006c3c       ??_C@_0O@BCEENEEF@glWeightfvARB?$AA@ 10040c3c     umodsys_lib_libui:umodsys.mod.ui.SDL_GL.obj
 0002:00006c4c       ??_C@_0O@ODBCGGJA@glWeightivARB?$AA@ 10040c4c     umodsys_lib_libui:umodsys.mod.ui.SDL_GL.obj
 0002:00006c5c       ??_C@_0O@EBFPEHGN@glWeightsvARB?$AA@ 10040c5c     umodsys_lib_libui:umodsys.mod.ui.SDL_GL.obj
 0002:00006c6c       ??_C@_0P@EHBBCFAF@glWeightubvARB?$AA@ 10040c6c     umodsys_lib_libui:umodsys.mod.ui.SDL_GL.obj
 0002:00006c7c       ??_C@_0P@CNNGNFMG@glWeightuivARB?$AA@ 10040c7c     umodsys_lib_libui:umodsys.mod.ui.SDL_GL.obj
 0002:00006c8c       ??_C@_0P@IPJLPEDL@glWeightusvARB?$AA@ 10040c8c     umodsys_lib_libui:umodsys.mod.ui.SDL_GL.obj
 0002:00006c9c       ??_C@_0BM@OOMEFFAE@GL_ARB_vertex_buffer_object?$AA@ 10040c9c     umodsys_lib_libui:umodsys.mod.ui.SDL_GL.obj
 0002:00006cb8       ??_C@_0BA@FDIFNALK@glBindBufferARB?$AA@ 10040cb8     umodsys_lib_libui:umodsys.mod.ui.SDL_GL.obj
 0002:00006cc8       ??_C@_0BA@HLIGBCAN@glBufferDataARB?$AA@ 10040cc8     umodsys_lib_libui:umodsys.mod.ui.SDL_GL.obj
 0002:00006cd8       ??_C@_0BD@KFMFAAJP@glBufferSubDataARB?$AA@ 10040cd8     umodsys_lib_libui:umodsys.mod.ui.SDL_GL.obj
 0002:00006cec       ??_C@_0BD@FPFIIGCI@glDeleteBuffersARB?$AA@ 10040cec     umodsys_lib_libui:umodsys.mod.ui.SDL_GL.obj
 0002:00006d00       ??_C@_0BA@COIMKEED@glGenBuffersARB?$AA@ 10040d00     umodsys_lib_libui:umodsys.mod.ui.SDL_GL.obj
 0002:00006d10       ??_C@_0BK@NELBDMOH@glGetBufferParameterivARB?$AA@ 10040d10     umodsys_lib_libui:umodsys.mod.ui.SDL_GL.obj
 0002:00006d2c       ??_C@_0BH@KNGCJBNB@glGetBufferPointervARB?$AA@ 10040d2c     umodsys_lib_libui:umodsys.mod.ui.SDL_GL.obj
 0002:00006d44       ??_C@_0BG@DNDEGANA@glGetBufferSubDataARB?$AA@ 10040d44     umodsys_lib_libui:umodsys.mod.ui.SDL_GL.obj
 0002:00006d5c       ??_C@_0O@BCHKDNEE@glIsBufferARB?$AA@ 10040d5c     umodsys_lib_libui:umodsys.mod.ui.SDL_GL.obj
 0002:00006d6c       ??_C@_0P@GLCCGPAH@glMapBufferARB?$AA@ 10040d6c     umodsys_lib_libui:umodsys.mod.ui.SDL_GL.obj
 0002:00006d7c       ??_C@_0BB@IODLHHEP@glUnmapBufferARB?$AA@ 10040d7c     umodsys_lib_libui:umodsys.mod.ui.SDL_GL.obj
 0002:00006d90       ??_C@_0BG@LDHOGOBF@GL_ARB_vertex_program?$AA@ 10040d90     umodsys_lib_libui:umodsys.mod.ui.SDL_GL.obj
 0002:00006da8       ??_C@_0BB@OAGHGJAC@glBindProgramARB?$AA@ 10040da8     umodsys_lib_libui:umodsys.mod.ui.SDL_GL.obj
 0002:00006dbc       ??_C@_0BE@EJCMOJPP@glDeleteProgramsARB?$AA@ 10040dbc     umodsys_lib_libui:umodsys.mod.ui.SDL_GL.obj
 0002:00006dd0       ??_C@_0BO@HGKLJN@glDisableVertexAttribArrayARB?$AA@ 10040dd0     umodsys_lib_libui:umodsys.mod.ui.SDL_GL.obj
 0002:00006df0       ??_C@_0BN@FKABDPBF@glEnableVertexAttribArrayARB?$AA@ 10040df0     umodsys_lib_libui:umodsys.mod.ui.SDL_GL.obj
 0002:00006e10       ??_C@_0BB@JDDNIFAN@glGenProgramsARB?$AA@ 10040e10     umodsys_lib_libui:umodsys.mod.ui.SDL_GL.obj
 0002:00006e24       ??_C@_0BO@NHNBOOKI@glGetProgramEnvParameterdvARB?$AA@ 10040e24     umodsys_lib_libui:umodsys.mod.ui.SDL_GL.obj
 0002:00006e44       ??_C@_0BO@JKBJEPKD@glGetProgramEnvParameterfvARB?$AA@ 10040e44     umodsys_lib_libui:umodsys.mod.ui.SDL_GL.obj
 0002:00006e64       ??_C@_0CA@IBOBFJKB@glGetProgramLocalParameterdvARB?$AA@ 10040e64     umodsys_lib_libui:umodsys.mod.ui.SDL_GL.obj
 0002:00006e84       ??_C@_0CA@MMCJPIKK@glGetProgramLocalParameterfvARB?$AA@ 10040e84     umodsys_lib_libui:umodsys.mod.ui.SDL_GL.obj
 0002:00006ea4       ??_C@_0BG@OAOKBADO@glGetProgramStringARB?$AA@ 10040ea4     umodsys_lib_libui:umodsys.mod.ui.SDL_GL.obj
 0002:00006ebc       ??_C@_0BC@OHCOJECC@glGetProgramivARB?$AA@ 10040ebc     umodsys_lib_libui:umodsys.mod.ui.SDL_GL.obj
 0002:00006ed0       ??_C@_0BN@PFKJEGFB@glGetVertexAttribPointervARB?$AA@ 10040ed0     umodsys_lib_libui:umodsys.mod.ui.SDL_GL.obj
 0002:00006ef0       ??_C@_0BH@OMNBLIA@glGetVertexAttribdvARB?$AA@ 10040ef0     umodsys_lib_libui:umodsys.mod.ui.SDL_GL.obj
 0002:00006f08       ??_C@_0BH@EDAFLKIL@glGetVertexAttribfvARB?$AA@ 10040f08     umodsys_lib_libui:umodsys.mod.ui.SDL_GL.obj
 0002:00006f20       ??_C@_0BH@LCFDAIFO@glGetVertexAttribivARB?$AA@ 10040f20     umodsys_lib_libui:umodsys.mod.ui.SDL_GL.obj
 0002:00006f38       ??_C@_0P@LKCDEJPE@glIsProgramARB?$AA@ 10040f38     umodsys_lib_libui:umodsys.mod.ui.SDL_GL.obj
 0002:00006f48       ??_C@_0BL@IFMMBIHE@glProgramEnvParameter4dARB?$AA@ 10040f48     umodsys_lib_libui:umodsys.mod.ui.SDL_GL.obj
 0002:00006f64       ??_C@_0BM@NICJGLCN@glProgramEnvParameter4dvARB?$AA@ 10040f64     umodsys_lib_libui:umodsys.mod.ui.SDL_GL.obj
 0002:00006f80       ??_C@_0BL@PPAMELBE@glProgramEnvParameter4fARB?$AA@ 10040f80     umodsys_lib_libui:umodsys.mod.ui.SDL_GL.obj
 0002:00006f9c       ??_C@_0BM@JFOBMKCG@glProgramEnvParameter4fvARB?$AA@ 10040f9c     umodsys_lib_libui:umodsys.mod.ui.SDL_GL.obj
 0002:00006fb8       ??_C@_0BN@ELHLGELC@glProgramLocalParameter4dARB?$AA@ 10040fb8     umodsys_lib_libui:umodsys.mod.ui.SDL_GL.obj
 0002:00006fd8       ??_C@_0BO@KKOALLNE@glProgramLocalParameter4dvARB?$AA@ 10040fd8     umodsys_lib_libui:umodsys.mod.ui.SDL_GL.obj
 0002:00006ff8       ??_C@_0BN@DBLLDHNC@glProgramLocalParameter4fARB?$AA@ 10040ff8     umodsys_lib_libui:umodsys.mod.ui.SDL_GL.obj
 0002:00007018       ??_C@_0BO@OHCIBKNP@glProgramLocalParameter4fvARB?$AA@ 10041018     umodsys_lib_libui:umodsys.mod.ui.SDL_GL.obj
 0002:00007038       ??_C@_0BD@HIBLHAHB@glProgramStringARB?$AA@ 10041038     umodsys_lib_libui:umodsys.mod.ui.SDL_GL.obj
 0002:0000704c       ??_C@_0BE@KOFFOLEH@glVertexAttrib1dARB?$AA@ 1004104c     umodsys_lib_libui:umodsys.mod.ui.SDL_GL.obj
 0002:00007060       ??_C@_0BF@GHNCJDMI@glVertexAttrib1dvARB?$AA@ 10041060     umodsys_lib_libui:umodsys.mod.ui.SDL_GL.obj
 0002:00007078       ??_C@_0BE@NEJFLICH@glVertexAttrib1fARB?$AA@ 10041078     umodsys_lib_libui:umodsys.mod.ui.SDL_GL.obj
 0002:0000708c       ??_C@_0BF@CKBKDCMD@glVertexAttrib1fvARB?$AA@ 1004108c     umodsys_lib_libui:umodsys.mod.ui.SDL_GL.obj
 0002:000070a4       ??_C@_0BE@HMJFKANF@glVertexAttrib1sARB?$AA@ 100410a4     umodsys_lib_libui:umodsys.mod.ui.SDL_GL.obj
 0002:000070b8       ??_C@_0BF@HJABKBOL@glVertexAttrib1svARB?$AA@ 100410b8     umodsys_lib_libui:umodsys.mod.ui.SDL_GL.obj
 0002:000070d0       ??_C@_0BE@CIMBJJOJ@glVertexAttrib2dARB?$AA@ 100410d0     umodsys_lib_libui:umodsys.mod.ui.SDL_GL.obj
 0002:000070e4       ??_C@_0BF@FGDKIJFF@glVertexAttrib2dvARB?$AA@ 100410e4     umodsys_lib_libui:umodsys.mod.ui.SDL_GL.obj
 0002:000070fc       ??_C@_0BE@FCABMKIJ@glVertexAttrib2fARB?$AA@ 100410fc     umodsys_lib_libui:umodsys.mod.ui.SDL_GL.obj
 0002:00007110       ??_C@_0BF@BLPCCIFO@glVertexAttrib2fvARB?$AA@ 10041110     umodsys_lib_libui:umodsys.mod.ui.SDL_GL.obj
 0002:00007128       ??_C@_0BE@PKABNCHL@glVertexAttrib2sARB?$AA@ 10041128     umodsys_lib_libui:umodsys.mod.ui.SDL_GL.obj
 0002:0000713c       ??_C@_0BF@EIOJLLHG@glVertexAttrib2svARB?$AA@ 1004113c     umodsys_lib_libui:umodsys.mod.ui.SDL_GL.obj
 0002:00007154       ??_C@_0BE@ODJNEKEM@glVertexAttrib3dARB?$AA@ 10041154     umodsys_lib_libui:umodsys.mod.ui.SDL_GL.obj
 0002:00007168       ??_C@_0BF@PAENICOB@glVertexAttrib3dvARB?$AA@ 10041168     umodsys_lib_libui:umodsys.mod.ui.SDL_GL.obj
 0002:00007180       ??_C@_0BE@JJFNBJCM@glVertexAttrib3fARB?$AA@ 10041180     umodsys_lib_libui:umodsys.mod.ui.SDL_GL.obj
 0002:00007194       ??_C@_0BF@LNIFCDOK@glVertexAttrib3fvARB?$AA@ 10041194     umodsys_lib_libui:umodsys.mod.ui.SDL_GL.obj
 0002:000071ac       ??_C@_0BE@DBFNABNO@glVertexAttrib3sARB?$AA@ 100411ac     umodsys_lib_libui:umodsys.mod.ui.SDL_GL.obj
 0002:000071c0       ??_C@_0BF@OOJOLAMC@glVertexAttrib3svARB?$AA@ 100411c0     umodsys_lib_libui:umodsys.mod.ui.SDL_GL.obj
 0002:000071d8       ??_C@_0BG@KBHGKCDK@glVertexAttrib4NbvARB?$AA@ 100411d8     umodsys_lib_libui:umodsys.mod.ui.SDL_GL.obj
 0002:000071f0       ??_C@_0BG@MLLBFCPJ@glVertexAttrib4NivARB?$AA@ 100411f0     umodsys_lib_libui:umodsys.mod.ui.SDL_GL.obj
 0002:00007208       ??_C@_0BG@GJPMHDAE@glVertexAttrib4NsvARB?$AA@ 10041208     umodsys_lib_libui:umodsys.mod.ui.SDL_GL.obj
 0002:00007220       ??_C@_0BG@CKMFKBFL@glVertexAttrib4NubARB?$AA@ 10041220     umodsys_lib_libui:umodsys.mod.ui.SDL_GL.obj
 0002:00007238       ??_C@_0BH@HDFHFPMN@glVertexAttrib4NubvARB?$AA@ 10041238     umodsys_lib_libui:umodsys.mod.ui.SDL_GL.obj
 0002:00007250       ??_C@_0BH@BJJAKPAO@glVertexAttrib4NuivARB?$AA@ 10041250     umodsys_lib_libui:umodsys.mod.ui.SDL_GL.obj
 0002:00007268       ??_C@_0BH@LLNNIOPD@glVertexAttrib4NusvARB?$AA@ 10041268     umodsys_lib_libui:umodsys.mod.ui.SDL_GL.obj
 0002:00007280       ??_C@_0BF@ODLDFPHC@glVertexAttrib4bvARB?$AA@ 10041280     umodsys_lib_libui:umodsys.mod.ui.SDL_GL.obj
 0002:00007298       ??_C@_0BE@POJIHKPE@glVertexAttrib4dARB?$AA@ 10041298     umodsys_lib_libui:umodsys.mod.ui.SDL_GL.obj
 0002:000072ac       ??_C@_0BF@DFOKLMGP@glVertexAttrib4dvARB?$AA@ 100412ac     umodsys_lib_libui:umodsys.mod.ui.SDL_GL.obj
 0002:000072c4       ??_C@_0BE@IEFICJJE@glVertexAttrib4fARB?$AA@ 100412c4     umodsys_lib_libui:umodsys.mod.ui.SDL_GL.obj
 0002:000072d8       ??_C@_0BF@HICCBNGE@glVertexAttrib4fvARB?$AA@ 100412d8     umodsys_lib_libui:umodsys.mod.ui.SDL_GL.obj
 0002:000072f0       ??_C@_0BF@IJHEKPLB@glVertexAttrib4ivARB?$AA@ 100412f0     umodsys_lib_libui:umodsys.mod.ui.SDL_GL.obj
 0002:00007308       ??_C@_0BE@CMFIDBGG@glVertexAttrib4sARB?$AA@ 10041308     umodsys_lib_libui:umodsys.mod.ui.SDL_GL.obj
 0002:0000731c       ??_C@_0BF@CLDJIOEM@glVertexAttrib4svARB?$AA@ 1004131c     umodsys_lib_libui:umodsys.mod.ui.SDL_GL.obj
 0002:00007334       ??_C@_0BG@LBCFDJC@glVertexAttrib4ubvARB?$AA@ 10041334     umodsys_lib_libui:umodsys.mod.ui.SDL_GL.obj
 0002:0000734c       ??_C@_0BG@GBNFKDFB@glVertexAttrib4uivARB?$AA@ 1004134c     umodsys_lib_libui:umodsys.mod.ui.SDL_GL.obj
 0002:00007364       ??_C@_0BG@MDJIICKM@glVertexAttrib4usvARB?$AA@ 10041364     umodsys_lib_libui:umodsys.mod.ui.SDL_GL.obj
 0002:0000737c       ??_C@_0BJ@KNOILOPF@glVertexAttribPointerARB?$AA@ 1004137c     umodsys_lib_libui:umodsys.mod.ui.SDL_GL.obj
 0002:00007398       ??_C@_0BF@GNLBPIJF@GL_ARB_vertex_shader?$AA@ 10041398     umodsys_lib_libui:umodsys.mod.ui.SDL_GL.obj
 0002:000073b0       ??_C@_0BI@HAONMJFP@glBindAttribLocationARB?$AA@ 100413b0     umodsys_lib_libui:umodsys.mod.ui.SDL_GL.obj
 0002:000073c8       ??_C@_0BF@NFLELGHN@glGetActiveAttribARB?$AA@ 100413c8     umodsys_lib_libui:umodsys.mod.ui.SDL_GL.obj
 0002:000073e0       ??_C@_0BH@BINIAJMB@glGetAttribLocationARB?$AA@ 100413e0     umodsys_lib_libui:umodsys.mod.ui.SDL_GL.obj
 0002:000073f8       ??_C@_0BG@NIIIOCNH@GL_ARB_viewport_array?$AA@ 100413f8     umodsys_lib_libui:umodsys.mod.ui.SDL_GL.obj
 0002:00007410       ??_C@_0BD@JLCIOMKN@glDepthRangeArrayv?$AA@ 10041410     umodsys_lib_libui:umodsys.mod.ui.SDL_GL.obj
 0002:00007424       ??_C@_0BE@FMCFIJBP@glDepthRangeIndexed?$AA@ 10041424     umodsys_lib_libui:umodsys.mod.ui.SDL_GL.obj
 0002:00007438       ??_C@_0P@PDJCBGIA@glGetDoublei_v?$AA@ 10041438     umodsys_lib_libui:umodsys.mod.ui.SDL_GL.obj
 0002:00007448       ??_C@_0O@JKEOHGC@glGetFloati_v?$AA@ 10041448     umodsys_lib_libui:umodsys.mod.ui.SDL_GL.obj
 0002:00007458       ??_C@_0BA@BMNFINIA@glScissorArrayv?$AA@ 10041458     umodsys_lib_libui:umodsys.mod.ui.SDL_GL.obj
 0002:00007468       ??_C@_0BB@BJHNCIAL@glScissorIndexed?$AA@ 10041468     umodsys_lib_libui:umodsys.mod.ui.SDL_GL.obj
 0002:0000747c       ??_C@_0BC@OOKOHKNA@glScissorIndexedv?$AA@ 1004147c     umodsys_lib_libui:umodsys.mod.ui.SDL_GL.obj
 0002:00007490       ??_C@_0BB@JIDIDPIB@glViewportArrayv?$AA@ 10041490     umodsys_lib_libui:umodsys.mod.ui.SDL_GL.obj
 0002:000074a4       ??_C@_0BD@JIBIAPIN@glViewportIndexedf?$AA@ 100414a4     umodsys_lib_libui:umodsys.mod.ui.SDL_GL.obj
 0002:000074b8       ??_C@_0BE@OKPEDJOC@glViewportIndexedfv?$AA@ 100414b8     umodsys_lib_libui:umodsys.mod.ui.SDL_GL.obj
 0002:000074cc       ??_C@_0BC@KMCGGFBD@GL_ARB_window_pos?$AA@ 100414cc     umodsys_lib_libui:umodsys.mod.ui.SDL_GL.obj
 0002:000074e0       ??_C@_0BB@MJCJDLHC@glWindowPos2dARB?$AA@ 100414e0     umodsys_lib_libui:umodsys.mod.ui.SDL_GL.obj
 0002:000074f4       ??_C@_0BC@DBAGCLDL@glWindowPos2dvARB?$AA@ 100414f4     umodsys_lib_libui:umodsys.mod.ui.SDL_GL.obj
 0002:00007508       ??_C@_0BB@LDOJGIBC@glWindowPos2fARB?$AA@ 10041508     umodsys_lib_libui:umodsys.mod.ui.SDL_GL.obj
 0002:0000751c       ??_C@_0BC@HMMOIKDA@glWindowPos2fvARB?$AA@ 1004151c     umodsys_lib_libui:umodsys.mod.ui.SDL_GL.obj
 0002:00007530       ??_C@_0BB@DBLJPPMD@glWindowPos2iARB?$AA@ 10041530     umodsys_lib_libui:umodsys.mod.ui.SDL_GL.obj
 0002:00007544       ??_C@_0BC@INJIDIOF@glWindowPos2ivARB?$AA@ 10041544     umodsys_lib_libui:umodsys.mod.ui.SDL_GL.obj
 0002:00007558       ??_C@_0BB@BLOJHAOA@glWindowPos2sARB?$AA@ 10041558     umodsys_lib_libui:umodsys.mod.ui.SDL_GL.obj
 0002:0000756c       ??_C@_0BC@CPNFBJBI@glWindowPos2svARB?$AA@ 1004156c     umodsys_lib_libui:umodsys.mod.ui.SDL_GL.obj
 0002:00007580       ??_C@_0BB@CHFOINH@glWindowPos3dARB?$AA@ 10041580     umodsys_lib_libui:umodsys.mod.ui.SDL_GL.obj
 0002:00007594       ??_C@_0BC@JHHBCAIP@glWindowPos3dvARB?$AA@ 10041594     umodsys_lib_libui:umodsys.mod.ui.SDL_GL.obj
 0002:000075a8       ??_C@_0BB@HILFLLLH@glWindowPos3fARB?$AA@ 100415a8     umodsys_lib_libui:umodsys.mod.ui.SDL_GL.obj
 0002:000075bc       ??_C@_0BC@NKLJIBIE@glWindowPos3fvARB?$AA@ 100415bc     umodsys_lib_libui:umodsys.mod.ui.SDL_GL.obj
 0002:000075d0       ??_C@_0BB@PKOFCMGG@glWindowPos3iARB?$AA@ 100415d0     umodsys_lib_libui:umodsys.mod.ui.SDL_GL.obj
 0002:000075e4       ??_C@_0BC@CLOPDDFB@glWindowPos3ivARB?$AA@ 100415e4     umodsys_lib_libui:umodsys.mod.ui.SDL_GL.obj
 0002:000075f8       ??_C@_0BB@NALFKDEF@glWindowPos3sARB?$AA@ 100415f8     umodsys_lib_libui:umodsys.mod.ui.SDL_GL.obj
 0002:0000760c       ??_C@_0BC@IJKCBCKM@glWindowPos3svARB?$AA@ 1004160c     umodsys_lib_libui:umodsys.mod.ui.SDL_GL.obj
 0002:00007620       ??_C@_0BI@FJEJKAHN@GL_EXT_bindable_uniform?$AA@ 10041620     umodsys_lib_libui:umodsys.mod.ui.SDL_GL.obj
 0002:00007638       ??_C@_0BK@JHNNOGKB@glGetUniformBufferSizeEXT?$AA@ 10041638     umodsys_lib_libui:umodsys.mod.ui.SDL_GL.obj
 0002:00007654       ??_C@_0BG@DFAIJAMP@glGetUniformOffsetEXT?$AA@ 10041654     umodsys_lib_libui:umodsys.mod.ui.SDL_GL.obj
 0002:0000766c       ??_C@_0BD@HHOMEDEN@glUniformBufferEXT?$AA@ 1004166c     umodsys_lib_libui:umodsys.mod.ui.SDL_GL.obj
 0002:00007680       ??_C@_0BD@LMOCEJB@GL_EXT_blend_color?$AA@ 10041680     umodsys_lib_libui:umodsys.mod.ui.SDL_GL.obj
 0002:00007694       ??_C@_0BA@EGDGJFLJ@glBlendColorEXT?$AA@ 10041694     umodsys_lib_libui:umodsys.mod.ui.SDL_GL.obj
 0002:000076a4       ??_C@_0BP@PPPKEOIM@GL_EXT_blend_equation_separate?$AA@ 100416a4     umodsys_lib_libui:umodsys.mod.ui.SDL_GL.obj
 0002:000076c4       ??_C@_0BL@INMJGNKI@glBlendEquationSeparateEXT?$AA@ 100416c4     umodsys_lib_libui:umodsys.mod.ui.SDL_GL.obj
 0002:000076e0       ??_C@_0BL@OHIMOMCA@GL_EXT_blend_func_separate?$AA@ 100416e0     umodsys_lib_libui:umodsys.mod.ui.SDL_GL.obj
 0002:000076fc       ??_C@_0BH@GFPLHCKF@glBlendFuncSeparateEXT?$AA@ 100416fc     umodsys_lib_libui:umodsys.mod.ui.SDL_GL.obj
 0002:00007714       ??_C@_0BE@CICKIAIK@GL_EXT_blend_minmax?$AA@ 10041714     umodsys_lib_libui:umodsys.mod.ui.SDL_GL.obj
 0002:00007728       ??_C@_0BD@CFOJJHII@glBlendEquationEXT?$AA@ 10041728     umodsys_lib_libui:umodsys.mod.ui.SDL_GL.obj
 0002:0000773c       ??_C@_0BG@HJLBPDAK@GL_EXT_color_subtable?$AA@ 1004173c     umodsys_lib_libui:umodsys.mod.ui.SDL_GL.obj
 0002:00007754       ??_C@_0BD@EBCIGLLP@glColorSubTableEXT?$AA@ 10041754     umodsys_lib_libui:umodsys.mod.ui.SDL_GL.obj
 0002:00007768       ??_C@_0BH@HAGEMNAG@glCopyColorSubTableEXT?$AA@ 10041768     umodsys_lib_libui:umodsys.mod.ui.SDL_GL.obj
 0002:00007780       ??_C@_0BN@LBNKGIPJ@GL_EXT_compiled_vertex_array?$AA@ 10041780     umodsys_lib_libui:umodsys.mod.ui.SDL_GL.obj
 0002:000077a0       ??_C@_0BA@FALFDEFM@glLockArraysEXT?$AA@ 100417a0     umodsys_lib_libui:umodsys.mod.ui.SDL_GL.obj
 0002:000077b0       ??_C@_0BC@CIFHOEOG@glUnlockArraysEXT?$AA@ 100417b0     umodsys_lib_libui:umodsys.mod.ui.SDL_GL.obj
 0002:000077c4       ??_C@_0BD@DBIGFMIC@GL_EXT_convolution?$AA@ 100417c4     umodsys_lib_libui:umodsys.mod.ui.SDL_GL.obj
 0002:000077d8       ??_C@_0BJ@PHDFEMBL@glConvolutionFilter1DEXT?$AA@ 100417d8     umodsys_lib_libui:umodsys.mod.ui.SDL_GL.obj
 0002:000077f4       ??_C@_0BJ@HBKBDOLF@glConvolutionFilter2DEXT?$AA@ 100417f4     umodsys_lib_libui:umodsys.mod.ui.SDL_GL.obj
 0002:00007810       ??_C@_0BL@KINFLEHF@glConvolutionParameterfEXT?$AA@ 10041810     umodsys_lib_libui:umodsys.mod.ui.SDL_GL.obj
 0002:0000782c       ??_C@_0BM@LDPIHMCH@glConvolutionParameterfvEXT?$AA@ 1004182c     umodsys_lib_libui:umodsys.mod.ui.SDL_GL.obj
 0002:00007848       ??_C@_0BL@CKIFCDKE@glConvolutionParameteriEXT?$AA@ 10041848     umodsys_lib_libui:umodsys.mod.ui.SDL_GL.obj
 0002:00007864       ??_C@_0BM@ECKOMOPC@glConvolutionParameterivEXT?$AA@ 10041864     umodsys_lib_libui:umodsys.mod.ui.SDL_GL.obj
 0002:00007880       ??_C@_0BN@MBPMAMLC@glCopyConvolutionFilter1DEXT?$AA@ 10041880     umodsys_lib_libui:umodsys.mod.ui.SDL_GL.obj
 0002:000078a0       ??_C@_0BN@EHGIHOBM@glCopyConvolutionFilter2DEXT?$AA@ 100418a0     umodsys_lib_libui:umodsys.mod.ui.SDL_GL.obj
 0002:000078c0       ??_C@_0BK@MMCIGOOI@glGetConvolutionFilterEXT?$AA@ 100418c0     umodsys_lib_libui:umodsys.mod.ui.SDL_GL.obj
 0002:000078dc       ??_C@_0BP@FBAELFAJ@glGetConvolutionParameterfvEXT?$AA@ 100418dc     umodsys_lib_libui:umodsys.mod.ui.SDL_GL.obj
 0002:000078fc       ??_C@_0BP@KAFCAHNM@glGetConvolutionParameterivEXT?$AA@ 100418fc     umodsys_lib_libui:umodsys.mod.ui.SDL_GL.obj
 0002:0000791c       ??_C@_0BI@JFAGILII@glGetSeparableFilterEXT?$AA@ 1004191c     umodsys_lib_libui:umodsys.mod.ui.SDL_GL.obj
 0002:00007934       ??_C@_0BH@BGAJAFHE@glSeparableFilter2DEXT?$AA@ 10041934     umodsys_lib_libui:umodsys.mod.ui.SDL_GL.obj
 0002:0000794c       ??_C@_0BI@LOIOLJBM@GL_EXT_coordinate_frame?$AA@ 1004194c     umodsys_lib_libui:umodsys.mod.ui.SDL_GL.obj
 0002:00007964       ??_C@_0BA@IFKALIMG@glBinormal3bEXT?$AA@ 10041964     umodsys_lib_libui:umodsys.mod.ui.SDL_GL.obj
 0002:00007974       ??_C@_0BB@OBLNOLBN@glBinormal3bvEXT?$AA@ 10041974     umodsys_lib_libui:umodsys.mod.ui.SDL_GL.obj
 0002:00007988       ??_C@_0BA@KOAENGG@glBinormal3dEXT?$AA@ 10041988     umodsys_lib_libui:umodsys.mod.ui.SDL_GL.obj
 0002:00007998       ??_C@_0BB@DHOEAIAA@glBinormal3dvEXT?$AA@ 10041998     umodsys_lib_libui:umodsys.mod.ui.SDL_GL.obj
 0002:000079ac       ??_C@_0BA@HACABOAG@glBinormal3fEXT?$AA@ 100419ac     umodsys_lib_libui:umodsys.mod.ui.SDL_GL.obj
 0002:000079bc       ??_C@_0BB@HKCMKJAL@glBinormal3fvEXT?$AA@ 100419bc     umodsys_lib_libui:umodsys.mod.ui.SDL_GL.obj
 0002:000079d0       ??_C@_0BA@PCHAIJNH@glBinormal3iEXT?$AA@ 100419d0     umodsys_lib_libui:umodsys.mod.ui.SDL_GL.obj
 0002:000079e0       ??_C@_0BB@ILHKBLNO@glBinormal3ivEXT?$AA@ 100419e0     umodsys_lib_libui:umodsys.mod.ui.SDL_GL.obj
 0002:000079f4       ??_C@_0BA@NICAAGPE@glBinormal3sEXT?$AA@ 100419f4     umodsys_lib_libui:umodsys.mod.ui.SDL_GL.obj
 0002:00007a04       ??_C@_0BB@CJDHDKCD@glBinormal3svEXT?$AA@ 10041a04     umodsys_lib_libui:umodsys.mod.ui.SDL_GL.obj
 0002:00007a18       ??_C@_0BF@DOJEEBCJ@glBinormalPointerEXT?$AA@ 10041a18     umodsys_lib_libui:umodsys.mod.ui.SDL_GL.obj
 0002:00007a30       ??_C@_0P@KGHKOLHB@glTangent3bEXT?$AA@ 10041a30     umodsys_lib_libui:umodsys.mod.ui.SDL_GL.obj
 0002:00007a40       ??_C@_0BA@LEJLBHGB@glTangent3bvEXT?$AA@ 10041a40     umodsys_lib_libui:umodsys.mod.ui.SDL_GL.obj
 0002:00007a50       ??_C@_0P@CJDKBONB@glTangent3dEXT?$AA@ 10041a50     umodsys_lib_libui:umodsys.mod.ui.SDL_GL.obj
 0002:00007a60       ??_C@_0BA@GCMCPEHM@glTangent3dvEXT?$AA@ 10041a60     umodsys_lib_libui:umodsys.mod.ui.SDL_GL.obj
 0002:00007a70       ??_C@_0P@FDPKENLB@glTangent3fEXT?$AA@ 10041a70     umodsys_lib_libui:umodsys.mod.ui.SDL_GL.obj
 0002:00007a80       ??_C@_0BA@CPAKFFHH@glTangent3fvEXT?$AA@ 10041a80     umodsys_lib_libui:umodsys.mod.ui.SDL_GL.obj
 0002:00007a90       ??_C@_0P@NBKKNKGA@glTangent3iEXT?$AA@ 10041a90     umodsys_lib_libui:umodsys.mod.ui.SDL_GL.obj
 0002:00007aa0       ??_C@_0BA@NOFMOHKC@glTangent3ivEXT?$AA@ 10041aa0     umodsys_lib_libui:umodsys.mod.ui.SDL_GL.obj
 0002:00007ab0       ??_C@_0P@PLPKFFED@glTangent3sEXT?$AA@ 10041ab0     umodsys_lib_libui:umodsys.mod.ui.SDL_GL.obj
 0002:00007ac0       ??_C@_0BA@HMBBMGFP@glTangent3svEXT?$AA@ 10041ac0     umodsys_lib_libui:umodsys.mod.ui.SDL_GL.obj
 0002:00007ad0       ??_C@_0BE@HLHMPCOG@glTangentPointerEXT?$AA@ 10041ad0     umodsys_lib_libui:umodsys.mod.ui.SDL_GL.obj
 0002:00007ae4       ??_C@_0BE@DFBNEHNH@GL_EXT_copy_texture?$AA@ 10041ae4     umodsys_lib_libui:umodsys.mod.ui.SDL_GL.obj
 0002:00007af8       ??_C@_0BE@EDHFEHBO@glCopyTexImage1DEXT?$AA@ 10041af8     umodsys_lib_libui:umodsys.mod.ui.SDL_GL.obj
 0002:00007b0c       ??_C@_0BE@MFOBDFLA@glCopyTexImage2DEXT?$AA@ 10041b0c     umodsys_lib_libui:umodsys.mod.ui.SDL_GL.obj
 0002:00007b20       ??_C@_0BH@PGHCOMMF@glCopyTexSubImage1DEXT?$AA@ 10041b20     umodsys_lib_libui:umodsys.mod.ui.SDL_GL.obj
 0002:00007b38       ??_C@_0BH@HAOGJOGL@glCopyTexSubImage2DEXT?$AA@ 10041b38     umodsys_lib_libui:umodsys.mod.ui.SDL_GL.obj
 0002:00007b50       ??_C@_0BH@LLLKENMO@glCopyTexSubImage3DEXT?$AA@ 10041b50     umodsys_lib_libui:umodsys.mod.ui.SDL_GL.obj
 0002:00007b68       ??_C@_0BD@DJENAAJK@GL_EXT_cull_vertex?$AA@ 10041b68     umodsys_lib_libui:umodsys.mod.ui.SDL_GL.obj
 0002:00007b7c       ??_C@_0BF@BCDJHKHD@glCullParameterdvEXT?$AA@ 10041b7c     umodsys_lib_libui:umodsys.mod.ui.SDL_GL.obj
 0002:00007b94       ??_C@_0BF@FPPBNLHI@glCullParameterfvEXT?$AA@ 10041b94     umodsys_lib_libui:umodsys.mod.ui.SDL_GL.obj
 0002:00007bac       ??_C@_0BJ@FCDHADKB@GL_EXT_depth_bounds_test?$AA@ 10041bac     umodsys_lib_libui:umodsys.mod.ui.SDL_GL.obj
 0002:00007bc8       ??_C@_0BB@NPFLJMMA@glDepthBoundsEXT?$AA@ 10041bc8     umodsys_lib_libui:umodsys.mod.ui.SDL_GL.obj
 0002:00007bdc       ??_C@_0BL@KMPCDGGG@GL_EXT_direct_state_access?$AA@ 10041bdc     umodsys_lib_libui:umodsys.mod.ui.SDL_GL.obj
 0002:00007bf8       ??_C@_0BG@MOGNCKMO@glBindMultiTextureEXT?$AA@ 10041bf8     umodsys_lib_libui:umodsys.mod.ui.SDL_GL.obj
 0002:00007c10       ??_C@_0CB@BPNGHABA@glCheckNamedFramebufferStatusEXT@ 10041c10     umodsys_lib_libui:umodsys.mod.ui.SDL_GL.obj
 0002:00007c34       ??_C@_0BK@JIPEFNFB@glClearNamedBufferDataEXT?$AA@ 10041c34     umodsys_lib_libui:umodsys.mod.ui.SDL_GL.obj
 0002:00007c50       ??_C@_0BN@CNJAFGHD@glClearNamedBufferSubDataEXT?$AA@ 10041c50     umodsys_lib_libui:umodsys.mod.ui.SDL_GL.obj
 0002:00007c70       ??_C@_0BJ@CALICIHF@glClientAttribDefaultEXT?$AA@ 10041c70     umodsys_lib_libui:umodsys.mod.ui.SDL_GL.obj
 0002:00007c8c       ??_C@_0BP@NJMJPMPG@glCompressedMultiTexImage1DEXT?$AA@ 10041c8c     umodsys_lib_libui:umodsys.mod.ui.SDL_GL.obj
 0002:00007cac       ??_C@_0BP@FPFNIOFI@glCompressedMultiTexImage2DEXT?$AA@ 10041cac     umodsys_lib_libui:umodsys.mod.ui.SDL_GL.obj
 0002:00007ccc       ??_C@_0BP@JEABFNPN@glCompressedMultiTexImage3DEXT?$AA@ 10041ccc     umodsys_lib_libui:umodsys.mod.ui.SDL_GL.obj
 0002:00007cec       ??_C@_0CC@JEGFOFJD@glCompressedMultiTexSubImage1DEX@ 10041cec     umodsys_lib_libui:umodsys.mod.ui.SDL_GL.obj
 0002:00007d10       ??_C@_0CC@BCPBJHDN@glCompressedMultiTexSubImage2DEX@ 10041d10     umodsys_lib_libui:umodsys.mod.ui.SDL_GL.obj
 0002:00007d34       ??_C@_0CC@NJKNEEJI@glCompressedMultiTexSubImage3DEX@ 10041d34     umodsys_lib_libui:umodsys.mod.ui.SDL_GL.obj
 0002:00007d58       ??_C@_0BO@GBNHMICE@glCompressedTextureImage1DEXT?$AA@ 10041d58     umodsys_lib_libui:umodsys.mod.ui.SDL_GL.obj
 0002:00007d78       ??_C@_0BO@OHEDLKIK@glCompressedTextureImage2DEXT?$AA@ 10041d78     umodsys_lib_libui:umodsys.mod.ui.SDL_GL.obj
 0002:00007d98       ??_C@_0BO@CMBPGJCP@glCompressedTextureImage3DEXT?$AA@ 10041d98     umodsys_lib_libui:umodsys.mod.ui.SDL_GL.obj
 0002:00007db8       ??_C@_0CB@FLENMKOB@glCompressedTextureSubImage1DEXT@ 10041db8     umodsys_lib_libui:umodsys.mod.ui.SDL_GL.obj
 0002:00007ddc       ??_C@_0CB@NNNJLIEP@glCompressedTextureSubImage2DEXT@ 10041ddc     umodsys_lib_libui:umodsys.mod.ui.SDL_GL.obj
 0002:00007e00       ??_C@_0CB@BGIFGLOK@glCompressedTextureSubImage3DEXT@ 10041e00     umodsys_lib_libui:umodsys.mod.ui.SDL_GL.obj
 0002:00007e24       ??_C@_0BJ@HAJMGINM@glCopyMultiTexImage1DEXT?$AA@ 10041e24     umodsys_lib_libui:umodsys.mod.ui.SDL_GL.obj
 0002:00007e40       ??_C@_0BJ@PGAIBKHC@glCopyMultiTexImage2DEXT?$AA@ 10041e40     umodsys_lib_libui:umodsys.mod.ui.SDL_GL.obj
 0002:00007e5c       ??_C@_0BM@KPJDMMGJ@glCopyMultiTexSubImage1DEXT?$AA@ 10041e5c     umodsys_lib_libui:umodsys.mod.ui.SDL_GL.obj
 0002:00007e78       ??_C@_0BM@CJAHLOMH@glCopyMultiTexSubImage2DEXT?$AA@ 10041e78     umodsys_lib_libui:umodsys.mod.ui.SDL_GL.obj
 0002:00007e94       ??_C@_0BM@OCFLGNGC@glCopyMultiTexSubImage3DEXT?$AA@ 10041e94     umodsys_lib_libui:umodsys.mod.ui.SDL_GL.obj
 0002:00007eb0       ??_C@_0BI@IIONLBMI@glCopyTextureImage1DEXT?$AA@ 10041eb0     umodsys_lib_libui:umodsys.mod.ui.SDL_GL.obj
 0002:00007ec8       ??_C@_0BI@OHJMDGG@glCopyTextureImage2DEXT?$AA@ 10041ec8     umodsys_lib_libui:umodsys.mod.ui.SDL_GL.obj
 0002:00007ee0       ??_C@_0BL@MDEEPIMB@glCopyTextureSubImage1DEXT?$AA@ 10041ee0     umodsys_lib_libui:umodsys.mod.ui.SDL_GL.obj
 0002:00007efc       ??_C@_0BL@EFNAIKGP@glCopyTextureSubImage2DEXT?$AA@ 10041efc     umodsys_lib_libui:umodsys.mod.ui.SDL_GL.obj
 0002:00007f18       ??_C@_0BL@IOIMFJMK@glCopyTextureSubImage3DEXT?$AA@ 10041f18     umodsys_lib_libui:umodsys.mod.ui.SDL_GL.obj
 0002:00007f34       ??_C@_0BP@LBNONMPF@glDisableClientStateIndexedEXT?$AA@ 10041f34     umodsys_lib_libui:umodsys.mod.ui.SDL_GL.obj
 0002:00007f54       ??_C@_0BJ@LKKOIGJN@glDisableClientStateiEXT?$AA@ 10041f54     umodsys_lib_libui:umodsys.mod.ui.SDL_GL.obj
 0002:00007f70       ??_C@_0BE@FCCIJFGK@glDisableIndexedEXT?$AA@ 10041f70     umodsys_lib_libui:umodsys.mod.ui.SDL_GL.obj
 0002:00007f84       ??_C@_0BO@OOIMHDFA@glDisableVertexArrayAttribEXT?$AA@ 10041f84     umodsys_lib_libui:umodsys.mod.ui.SDL_GL.obj
 0002:00007fa4       ??_C@_0BI@IAKAGPJM@glDisableVertexArrayEXT?$AA@ 10041fa4     umodsys_lib_libui:umodsys.mod.ui.SDL_GL.obj
 0002:00007fbc       ??_C@_0BO@FCOHKAHD@glEnableClientStateIndexedEXT?$AA@ 10041fbc     umodsys_lib_libui:umodsys.mod.ui.SDL_GL.obj
 0002:00007fdc       ??_C@_0BI@DDPEAKOL@glEnableClientStateiEXT?$AA@ 10041fdc     umodsys_lib_libui:umodsys.mod.ui.SDL_GL.obj
 0002:00007ff4       ??_C@_0BD@PNIDDKHK@glEnableIndexedEXT?$AA@ 10041ff4     umodsys_lib_libui:umodsys.mod.ui.SDL_GL.obj
 0002:00008008       ??_C@_0BN@LEPLOHNI@glEnableVertexArrayAttribEXT?$AA@ 10042008     umodsys_lib_libui:umodsys.mod.ui.SDL_GL.obj
 0002:00008028       ??_C@_0BH@JAHPJAF@glEnableVertexArrayEXT?$AA@ 10042028     umodsys_lib_libui:umodsys.mod.ui.SDL_GL.obj
 0002:00008040       ??_C@_0CB@EIJKJEMO@glFlushMappedNamedBufferRangeEXT@ 10042040     umodsys_lib_libui:umodsys.mod.ui.SDL_GL.obj
 0002:00008064       ??_C@_0BL@PBDAHKDG@glFramebufferDrawBufferEXT?$AA@ 10042064     umodsys_lib_libui:umodsys.mod.ui.SDL_GL.obj
 0002:00008080       ??_C@_0BM@JEJEAGLD@glFramebufferDrawBuffersEXT?$AA@ 10042080     umodsys_lib_libui:umodsys.mod.ui.SDL_GL.obj
 0002:0000809c       ??_C@_0BL@JBCAAPKE@glFramebufferReadBufferEXT?$AA@ 1004209c     umodsys_lib_libui:umodsys.mod.ui.SDL_GL.obj
 0002:000080b8       ??_C@_0BM@DMNPALLC@glGenerateMultiTexMipmapEXT?$AA@ 100420b8     umodsys_lib_libui:umodsys.mod.ui.SDL_GL.obj
 0002:000080d4       ??_C@_0BL@FGEAAKMK@glGenerateTextureMipmapEXT?$AA@ 100420d4     umodsys_lib_libui:umodsys.mod.ui.SDL_GL.obj
 0002:000080f0       ??_C@_0BI@NHMIOCJB@glGetBooleanIndexedvEXT?$AA@ 100420f0     umodsys_lib_libui:umodsys.mod.ui.SDL_GL.obj
 0002:00008108       ??_C@_0CA@GHJFOBII@glGetCompressedMultiTexImageEXT?$AA@ 10042108     umodsys_lib_libui:umodsys.mod.ui.SDL_GL.obj
 0002:00008128       ??_C@_0BP@HEIAJKMC@glGetCompressedTextureImageEXT?$AA@ 10042128     umodsys_lib_libui:umodsys.mod.ui.SDL_GL.obj
 0002:00008148       ??_C@_0BH@JPALJFOC@glGetDoubleIndexedvEXT?$AA@ 10042148     umodsys_lib_libui:umodsys.mod.ui.SDL_GL.obj
 0002:00008160       ??_C@_0BC@PDBOBDJL@glGetDoublei_vEXT?$AA@ 10042160     umodsys_lib_libui:umodsys.mod.ui.SDL_GL.obj
 0002:00008174       ??_C@_0BG@EMFACKNP@glGetFloatIndexedvEXT?$AA@ 10042174     umodsys_lib_libui:umodsys.mod.ui.SDL_GL.obj
 0002:0000818c       ??_C@_0BB@JLGFFCMK@glGetFloati_vEXT?$AA@ 1004218c     umodsys_lib_libui:umodsys.mod.ui.SDL_GL.obj
 0002:000081a0       ??_C@_0BP@HFLGOGIL@glGetFramebufferParameterivEXT?$AA@ 100421a0     umodsys_lib_libui:umodsys.mod.ui.SDL_GL.obj
 0002:000081c0       ??_C@_0BI@HCFKGNEO@glGetIntegerIndexedvEXT?$AA@ 100421c0     umodsys_lib_libui:umodsys.mod.ui.SDL_GL.obj
 0002:000081d8       ??_C@_0BG@GNBOGHDO@glGetMultiTexEnvfvEXT?$AA@ 100421d8     umodsys_lib_libui:umodsys.mod.ui.SDL_GL.obj
 0002:000081f0       ??_C@_0BG@JMEINFOL@glGetMultiTexEnvivEXT?$AA@ 100421f0     umodsys_lib_libui:umodsys.mod.ui.SDL_GL.obj
 0002:00008208       ??_C@_0BG@HHLCAEM@glGetMultiTexGendvEXT?$AA@ 10042208     umodsys_lib_libui:umodsys.mod.ui.SDL_GL.obj
 0002:00008220       ??_C@_0BG@EKLDIBEH@glGetMultiTexGenfvEXT?$AA@ 10042220     umodsys_lib_libui:umodsys.mod.ui.SDL_GL.obj
 0002:00008238       ??_C@_0BG@LLOFDDJC@glGetMultiTexGenivEXT?$AA@ 10042238     umodsys_lib_libui:umodsys.mod.ui.SDL_GL.obj
 0002:00008250       ??_C@_0BG@ELMAAPHO@glGetMultiTexImageEXT?$AA@ 10042250     umodsys_lib_libui:umodsys.mod.ui.SDL_GL.obj
 0002:00008268       ??_C@_0CB@PNDHILHL@glGetMultiTexLevelParameterfvEXT@ 10042268     umodsys_lib_libui:umodsys.mod.ui.SDL_GL.obj
 0002:0000828c       ??_C@_0CB@MGBDJKO@glGetMultiTexLevelParameterivEXT@ 1004228c     umodsys_lib_libui:umodsys.mod.ui.SDL_GL.obj
 0002:000082b0       ??_C@_0BN@LGBIBNIB@glGetMultiTexParameterIivEXT?$AA@ 100422b0     umodsys_lib_libui:umodsys.mod.ui.SDL_GL.obj
 0002:000082d0       ??_C@_0BO@FLMIMBHP@glGetMultiTexParameterIuivEXT?$AA@ 100422d0     umodsys_lib_libui:umodsys.mod.ui.SDL_GL.obj
 0002:000082f0       ??_C@_0BM@FMKJLGAC@glGetMultiTexParameterfvEXT?$AA@ 100422f0     umodsys_lib_libui:umodsys.mod.ui.SDL_GL.obj
 0002:0000830c       ??_C@_0BM@KNPPAENH@glGetMultiTexParameterivEXT?$AA@ 1004230c     umodsys_lib_libui:umodsys.mod.ui.SDL_GL.obj
 0002:00008328       ??_C@_0BP@HGDHPKNF@glGetNamedBufferParameterivEXT?$AA@ 10042328     umodsys_lib_libui:umodsys.mod.ui.SDL_GL.obj
 0002:00008348       ??_C@_0BM@IKINKGOC@glGetNamedBufferPointervEXT?$AA@ 10042348     umodsys_lib_libui:umodsys.mod.ui.SDL_GL.obj
 0002:00008364       ??_C@_0BL@EHBNKLPA@glGetNamedBufferSubDataEXT?$AA@ 10042364     umodsys_lib_libui:umodsys.mod.ui.SDL_GL.obj
 0002:00008380       ??_C@_0CO@OKPMKDDI@glGetNamedFramebufferAttachmentP@ 10042380     umodsys_lib_libui:umodsys.mod.ui.SDL_GL.obj
 0002:000083b0       ??_C@_0CE@EMNKOBNO@glGetNamedFramebufferParameteriv@ 100423b0     umodsys_lib_libui:umodsys.mod.ui.SDL_GL.obj
 0002:000083d4       ??_C@_0CG@LFLLCKKN@glGetNamedProgramLocalParameterI@ 100423d4     umodsys_lib_libui:umodsys.mod.ui.SDL_GL.obj
 0002:000083fc       ??_C@_0CH@GJBDAOKL@glGetNamedProgramLocalParameterI@ 100423fc     umodsys_lib_libui:umodsys.mod.ui.SDL_GL.obj
 0002:00008424       ??_C@_0CF@ELEDHIL@glGetNamedProgramLocalParameterd@ 10042424     umodsys_lib_libui:umodsys.mod.ui.SDL_GL.obj
 0002:0000844c       ??_C@_0CF@EJHMJGIA@glGetNamedProgramLocalParameterf@ 1004244c     umodsys_lib_libui:umodsys.mod.ui.SDL_GL.obj
 0002:00008474       ??_C@_0BL@JKMDNLBO@glGetNamedProgramStringEXT?$AA@ 10042474     umodsys_lib_libui:umodsys.mod.ui.SDL_GL.obj
 0002:00008490       ??_C@_0BH@IALGOIPC@glGetNamedProgramivEXT?$AA@ 10042490     umodsys_lib_libui:umodsys.mod.ui.SDL_GL.obj
 0002:000084a8       ??_C@_0CF@MMPFHIHI@glGetNamedRenderbufferParameteri@ 100424a8     umodsys_lib_libui:umodsys.mod.ui.SDL_GL.obj
 0002:000084d0       ??_C@_0BI@FKCCJJJM@glGetPointerIndexedvEXT?$AA@ 100424d0     umodsys_lib_libui:umodsys.mod.ui.SDL_GL.obj
 0002:000084e8       ??_C@_0BD@HGLPNBMF@glGetPointeri_vEXT?$AA@ 100424e8     umodsys_lib_libui:umodsys.mod.ui.SDL_GL.obj
 0002:000084fc       ??_C@_0BF@PIPAOHHM@glGetTextureImageEXT?$AA@ 100424fc     umodsys_lib_libui:umodsys.mod.ui.SDL_GL.obj
 0002:00008514       ??_C@_0CA@PHCGGOKJ@glGetTextureLevelParameterfvEXT?$AA@ 10042514     umodsys_lib_libui:umodsys.mod.ui.SDL_GL.obj
 0002:00008534       ??_C@_0CA@GHANMHM@glGetTextureLevelParameterivEXT?$AA@ 10042534     umodsys_lib_libui:umodsys.mod.ui.SDL_GL.obj
 0002:00008554       ??_C@_0BM@HFHGMMLF@glGetTextureParameterIivEXT?$AA@ 10042554     umodsys_lib_libui:umodsys.mod.ui.SDL_GL.obj
 0002:00008570       ??_C@_0BN@HKLPFLBL@glGetTextureParameterIuivEXT?$AA@ 10042570     umodsys_lib_libui:umodsys.mod.ui.SDL_GL.obj
 0002:00008590       ??_C@_0BL@DOPGCDPP@glGetTextureParameterfvEXT?$AA@ 10042590     umodsys_lib_libui:umodsys.mod.ui.SDL_GL.obj
 0002:000085ac       ??_C@_0BL@MPKAJBCK@glGetTextureParameterivEXT?$AA@ 100425ac     umodsys_lib_libui:umodsys.mod.ui.SDL_GL.obj
 0002:000085c8       ??_C@_0BO@FDAMMDFD@glGetVertexArrayIntegeri_vEXT?$AA@ 100425c8     umodsys_lib_libui:umodsys.mod.ui.SDL_GL.obj
 0002:000085e8       ??_C@_0BM@FJKMMCPD@glGetVertexArrayIntegervEXT?$AA@ 100425e8     umodsys_lib_libui:umodsys.mod.ui.SDL_GL.obj
 0002:00008604       ??_C@_0BO@DLHBIIEH@glGetVertexArrayPointeri_vEXT?$AA@ 10042604     umodsys_lib_libui:umodsys.mod.ui.SDL_GL.obj
 0002:00008624       ??_C@_0BM@KLKCGIBD@glGetVertexArrayPointervEXT?$AA@ 10042624     umodsys_lib_libui:umodsys.mod.ui.SDL_GL.obj
 0002:00008640       ??_C@_0BG@LNLGELCG@glIsEnabledIndexedEXT?$AA@ 10042640     umodsys_lib_libui:umodsys.mod.ui.SDL_GL.obj
 0002:00008658       ??_C@_0BE@ONFFICFI@glMapNamedBufferEXT?$AA@ 10042658     umodsys_lib_libui:umodsys.mod.ui.SDL_GL.obj
 0002:0000866c       ??_C@_0BJ@MEDFIODK@glMapNamedBufferRangeEXT?$AA@ 1004266c     umodsys_lib_libui:umodsys.mod.ui.SDL_GL.obj
 0002:00008688       ??_C@_0BD@GNNFKBNH@glMatrixFrustumEXT?$AA@ 10042688     umodsys_lib_libui:umodsys.mod.ui.SDL_GL.obj
 0002:0000869c       ??_C@_0BI@IKIFDKFM@glMatrixLoadIdentityEXT?$AA@ 1004269c     umodsys_lib_libui:umodsys.mod.ui.SDL_GL.obj
 0002:000086b4       ??_C@_0BK@EGBAFFFD@glMatrixLoadTransposedEXT?$AA@ 100426b4     umodsys_lib_libui:umodsys.mod.ui.SDL_GL.obj
 0002:000086d0       ??_C@_0BK@DMNAAGDD@glMatrixLoadTransposefEXT?$AA@ 100426d0     umodsys_lib_libui:umodsys.mod.ui.SDL_GL.obj
 0002:000086ec       ??_C@_0BB@FDNBKOAN@glMatrixLoaddEXT?$AA@ 100426ec     umodsys_lib_libui:umodsys.mod.ui.SDL_GL.obj
 0002:00008700       ??_C@_0BB@CJBBPNGN@glMatrixLoadfEXT?$AA@ 10042700     umodsys_lib_libui:umodsys.mod.ui.SDL_GL.obj
 0002:00008714       ??_C@_0BK@MBBHHIIA@glMatrixMultTransposedEXT?$AA@ 10042714     umodsys_lib_libui:umodsys.mod.ui.SDL_GL.obj
 0002:00008730       ??_C@_0BK@LLNHCLOA@glMatrixMultTransposefEXT?$AA@ 10042730     umodsys_lib_libui:umodsys.mod.ui.SDL_GL.obj
 0002:0000874c       ??_C@_0BB@MLNAPEPG@glMatrixMultdEXT?$AA@ 1004274c     umodsys_lib_libui:umodsys.mod.ui.SDL_GL.obj
 0002:00008760       ??_C@_0BB@LBBAKHJG@glMatrixMultfEXT?$AA@ 10042760     umodsys_lib_libui:umodsys.mod.ui.SDL_GL.obj
 0002:00008774       ??_C@_0BB@LIBGPEDB@glMatrixOrthoEXT?$AA@ 10042774     umodsys_lib_libui:umodsys.mod.ui.SDL_GL.obj
 0002:00008788       ??_C@_0P@BOEIELPJ@glMatrixPopEXT?$AA@ 10042788     umodsys_lib_libui:umodsys.mod.ui.SDL_GL.obj
 0002:00008798       ??_C@_0BA@MNKKLGBO@glMatrixPushEXT?$AA@ 10042798     umodsys_lib_libui:umodsys.mod.ui.SDL_GL.obj
 0002:000087a8       ??_C@_0BD@IGIJFODJ@glMatrixRotatedEXT?$AA@ 100427a8     umodsys_lib_libui:umodsys.mod.ui.SDL_GL.obj
 0002:000087bc       ??_C@_0BD@PMEJANFJ@glMatrixRotatefEXT?$AA@ 100427bc     umodsys_lib_libui:umodsys.mod.ui.SDL_GL.obj
 0002:000087d0       ??_C@_0BC@DPNPPBGC@glMatrixScaledEXT?$AA@ 100427d0     umodsys_lib_libui:umodsys.mod.ui.SDL_GL.obj
 0002:000087e4       ??_C@_0BC@EFBPKCAC@glMatrixScalefEXT?$AA@ 100427e4     umodsys_lib_libui:umodsys.mod.ui.SDL_GL.obj
 0002:000087f8       ??_C@_0BG@JGLAJIPN@glMatrixTranslatedEXT?$AA@ 100427f8     umodsys_lib_libui:umodsys.mod.ui.SDL_GL.obj
 0002:00008810       ??_C@_0BG@OMHAMLJN@glMatrixTranslatefEXT?$AA@ 10042810     umodsys_lib_libui:umodsys.mod.ui.SDL_GL.obj
 0002:00008828       ??_C@_0BE@HEPIKCIG@glMultiTexBufferEXT?$AA@ 10042828     umodsys_lib_libui:umodsys.mod.ui.SDL_GL.obj
 0002:0000883c       ??_C@_0BK@GGBKGBFO@glMultiTexCoordPointerEXT?$AA@ 1004283c     umodsys_lib_libui:umodsys.mod.ui.SDL_GL.obj
 0002:00008858       ??_C@_0BC@NGBAJLNK@glMultiTexEnvfEXT?$AA@ 10042858     umodsys_lib_libui:umodsys.mod.ui.SDL_GL.obj
 0002:0000886c       ??_C@_0BD@PFOPAHHB@glMultiTexEnvfvEXT?$AA@ 1004286c     umodsys_lib_libui:umodsys.mod.ui.SDL_GL.obj
 0002:00008880       ??_C@_0BC@FEEAAMAL@glMultiTexEnviEXT?$AA@ 10042880     umodsys_lib_libui:umodsys.mod.ui.SDL_GL.obj
 0002:00008894       ??_C@_0BD@ELJLFKE@glMultiTexEnvivEXT?$AA@ 10042894     umodsys_lib_libui:umodsys.mod.ui.SDL_GL.obj
 0002:000088a8       ??_C@_0BC@DHHBLML@glMultiTexGendEXT?$AA@ 100428a8     umodsys_lib_libui:umodsys.mod.ui.SDL_GL.obj
 0002:000088bc       ??_C@_0BD@JPIKEAAD@glMultiTexGendvEXT?$AA@ 100428bc     umodsys_lib_libui:umodsys.mod.ui.SDL_GL.obj
 0002:000088d0       ??_C@_0BC@HJLHEIKL@glMultiTexGenfEXT?$AA@ 100428d0     umodsys_lib_libui:umodsys.mod.ui.SDL_GL.obj
 0002:000088e4       ??_C@_0BD@NCECOBAI@glMultiTexGenfvEXT?$AA@ 100428e4     umodsys_lib_libui:umodsys.mod.ui.SDL_GL.obj
 0002:000088f8       ??_C@_0BC@PLOHNPHK@glMultiTexGeniEXT?$AA@ 100428f8     umodsys_lib_libui:umodsys.mod.ui.SDL_GL.obj
 0002:0000890c       ??_C@_0BD@CDBEFDNN@glMultiTexGenivEXT?$AA@ 1004290c     umodsys_lib_libui:umodsys.mod.ui.SDL_GL.obj
 0002:00008920       ??_C@_0BF@HKCOEKLM@glMultiTexImage1DEXT?$AA@ 10042920     umodsys_lib_libui:umodsys.mod.ui.SDL_GL.obj
 0002:00008938       ??_C@_0BF@PMLKDIBC@glMultiTexImage2DEXT?$AA@ 10042938     umodsys_lib_libui:umodsys.mod.ui.SDL_GL.obj
 0002:00008950       ??_C@_0BF@DHOGOLLH@glMultiTexImage3DEXT?$AA@ 10042950     umodsys_lib_libui:umodsys.mod.ui.SDL_GL.obj
 0002:00008968       ??_C@_0BK@BAPKHON@glMultiTexParameterIivEXT?$AA@ 10042968     umodsys_lib_libui:umodsys.mod.ui.SDL_GL.obj
 0002:00008984       ??_C@_0BL@BPHLPLLG@glMultiTexParameterIuivEXT?$AA@ 10042984     umodsys_lib_libui:umodsys.mod.ui.SDL_GL.obj
 0002:000089a0       ??_C@_0BI@MABEJKFI@glMultiTexParameterfEXT?$AA@ 100429a0     umodsys_lib_libui:umodsys.mod.ui.SDL_GL.obj
 0002:000089b8       ??_C@_0BJ@PGEPOBHM@glMultiTexParameterfvEXT?$AA@ 100429b8     umodsys_lib_libui:umodsys.mod.ui.SDL_GL.obj
 0002:000089d4       ??_C@_0BI@ECEEANIJ@glMultiTexParameteriEXT?$AA@ 100429d4     umodsys_lib_libui:umodsys.mod.ui.SDL_GL.obj
 0002:000089ec       ??_C@_0BJ@HBJFDKJ@glMultiTexParameterivEXT?$AA@ 100429ec     umodsys_lib_libui:umodsys.mod.ui.SDL_GL.obj
 0002:00008a08       ??_C@_0BK@BJEMPNMI@glMultiTexRenderbufferEXT?$AA@ 10042a08     umodsys_lib_libui:umodsys.mod.ui.SDL_GL.obj
 0002:00008a24       ??_C@_0BI@GFJJJDMD@glMultiTexSubImage1DEXT?$AA@ 10042a24     umodsys_lib_libui:umodsys.mod.ui.SDL_GL.obj
 0002:00008a3c       ??_C@_0BI@ODANOBGN@glMultiTexSubImage2DEXT?$AA@ 10042a3c     umodsys_lib_libui:umodsys.mod.ui.SDL_GL.obj
 0002:00008a54       ??_C@_0BI@CIFBDCMI@glMultiTexSubImage3DEXT?$AA@ 10042a54     umodsys_lib_libui:umodsys.mod.ui.SDL_GL.obj
 0002:00008a6c       ??_C@_0BF@EGDGIBPF@glNamedBufferDataEXT?$AA@ 10042a6c     umodsys_lib_libui:umodsys.mod.ui.SDL_GL.obj
 0002:00008a84       ??_C@_0BI@IGOLIKPI@glNamedBufferStorageEXT?$AA@ 10042a84     umodsys_lib_libui:umodsys.mod.ui.SDL_GL.obj
 0002:00008a9c       ??_C@_0BI@KLAGIKJO@glNamedBufferSubDataEXT?$AA@ 10042a9c     umodsys_lib_libui:umodsys.mod.ui.SDL_GL.obj
 0002:00008ab4       ??_C@_0BM@KMCAOBPL@glNamedCopyBufferSubDataEXT?$AA@ 10042ab4     umodsys_lib_libui:umodsys.mod.ui.SDL_GL.obj
 0002:00008ad0       ??_C@_0CA@KNLMGFIL@glNamedFramebufferParameteriEXT?$AA@ 10042ad0     umodsys_lib_libui:umodsys.mod.ui.SDL_GL.obj
 0002:00008af0       ??_C@_0CC@GIBDJJNI@glNamedFramebufferRenderbufferEX@ 10042af0     umodsys_lib_libui:umodsys.mod.ui.SDL_GL.obj
 0002:00008b14       ??_C@_0BP@BMGCDMAJ@glNamedFramebufferTexture1DEXT?$AA@ 10042b14     umodsys_lib_libui:umodsys.mod.ui.SDL_GL.obj
 0002:00008b34       ??_C@_0BP@JKPGEOKH@glNamedFramebufferTexture2DEXT?$AA@ 10042b34     umodsys_lib_libui:umodsys.mod.ui.SDL_GL.obj
 0002:00008b54       ??_C@_0BP@FBKKJNAC@glNamedFramebufferTexture3DEXT?$AA@ 10042b54     umodsys_lib_libui:umodsys.mod.ui.SDL_GL.obj
 0002:00008b74       ??_C@_0BN@EBOLPEFF@glNamedFramebufferTextureEXT?$AA@ 10042b74     umodsys_lib_libui:umodsys.mod.ui.SDL_GL.obj
 0002:00008b94       ??_C@_0CB@BJCEBIKA@glNamedFramebufferTextureFaceEXT@ 10042b94     umodsys_lib_libui:umodsys.mod.ui.SDL_GL.obj
 0002:00008bb8       ??_C@_0CC@OGPAEEAO@glNamedFramebufferTextureLayerEX@ 10042bb8     umodsys_lib_libui:umodsys.mod.ui.SDL_GL.obj
 0002:00008bdc       ??_C@_0CC@KNGPLIKD@glNamedProgramLocalParameter4dEX@ 10042bdc     umodsys_lib_libui:umodsys.mod.ui.SDL_GL.obj
 0002:00008c00       ??_C@_0CD@NMENLBMK@glNamedProgramLocalParameter4dvE@ 10042c00     umodsys_lib_libui:umodsys.mod.ui.SDL_GL.obj
 0002:00008c24       ??_C@_0CC@NHKPOLMD@glNamedProgramLocalParameter4fEX@ 10042c24     umodsys_lib_libui:umodsys.mod.ui.SDL_GL.obj
 0002:00008c48       ??_C@_0CD@JBIFBAMB@glNamedProgramLocalParameter4fvE@ 10042c48     umodsys_lib_libui:umodsys.mod.ui.SDL_GL.obj
 0002:00008c6c       ??_C@_0CD@LPMMAIIF@glNamedProgramLocalParameterI4iE@ 10042c6c     umodsys_lib_libui:umodsys.mod.ui.SDL_GL.obj
 0002:00008c90       ??_C@_0CE@OFCJHIH@glNamedProgramLocalParameterI4iv@ 10042c90     umodsys_lib_libui:umodsys.mod.ui.SDL_GL.obj
 0002:00008cb4       ??_C@_0CE@JIPGFFDE@glNamedProgramLocalParameterI4ui@ 10042cb4     umodsys_lib_libui:umodsys.mod.ui.SDL_GL.obj
 0002:00008cd8       ??_C@_0CF@LCBDCOMA@glNamedProgramLocalParameterI4ui@ 10042cd8     umodsys_lib_libui:umodsys.mod.ui.SDL_GL.obj
 0002:00008d00       ??_C@_0CE@OLAJGKOH@glNamedProgramLocalParameters4fv@ 10042d00     umodsys_lib_libui:umodsys.mod.ui.SDL_GL.obj
 0002:00008d24       ??_C@_0CF@NMCFJOAA@glNamedProgramLocalParametersI4i@ 10042d24     umodsys_lib_libui:umodsys.mod.ui.SDL_GL.obj
 0002:00008d4c       ??_C@_0CG@MBBNEPEK@glNamedProgramLocalParametersI4u@ 10042d4c     umodsys_lib_libui:umodsys.mod.ui.SDL_GL.obj
 0002:00008d74       ??_C@_0BI@HGNIPKHA@glNamedProgramStringEXT?$AA@ 10042d74     umodsys_lib_libui:umodsys.mod.ui.SDL_GL.obj
 0002:00008d8c       ??_C@_0BO@KHENOFMG@glNamedRenderbufferStorageEXT?$AA@ 10042d8c     umodsys_lib_libui:umodsys.mod.ui.SDL_GL.obj
 0002:00008dac       ??_C@_0DB@DNHIJAC@glNamedRenderbufferStorageMultis@ 10042dac     umodsys_lib_libui:umodsys.mod.ui.SDL_GL.obj
 0002:00008de0       ??_C@_0CJ@DMIMHEMF@glNamedRenderbufferStorageMultis@ 10042de0     umodsys_lib_libui:umodsys.mod.ui.SDL_GL.obj
 0002:00008e0c       ??_C@_0BG@DBBBOAKE@glProgramUniform1dEXT?$AA@ 10042e0c     umodsys_lib_libui:umodsys.mod.ui.SDL_GL.obj
 0002:00008e24       ??_C@_0BH@ECLFFKDB@glProgramUniform1dvEXT?$AA@ 10042e24     umodsys_lib_libui:umodsys.mod.ui.SDL_GL.obj
 0002:00008e3c       ??_C@_0BG@ELNBLDME@glProgramUniform1fEXT?$AA@ 10042e3c     umodsys_lib_libui:umodsys.mod.ui.SDL_GL.obj
 0002:00008e54       ??_C@_0BH@PHNPLDK@glProgramUniform1fvEXT?$AA@ 10042e54     umodsys_lib_libui:umodsys.mod.ui.SDL_GL.obj
 0002:00008e6c       ??_C@_0BG@MJIBCEBF@glProgramUniform1iEXT?$AA@ 10042e6c     umodsys_lib_libui:umodsys.mod.ui.SDL_GL.obj
 0002:00008e84       ??_C@_0BH@POCLEJOP@glProgramUniform1ivEXT?$AA@ 10042e84     umodsys_lib_libui:umodsys.mod.ui.SDL_GL.obj
 0002:00008e9c       ??_C@_0BH@GIIPILFM@glProgramUniform1uiEXT?$AA@ 10042e9c     umodsys_lib_libui:umodsys.mod.ui.SDL_GL.obj
 0002:00008eb4       ??_C@_0BI@PBIKLOHE@glProgramUniform1uivEXT?$AA@ 10042eb4     umodsys_lib_libui:umodsys.mod.ui.SDL_GL.obj
 0002:00008ecc       ??_C@_0BG@LHIFJCAK@glProgramUniform2dEXT?$AA@ 10042ecc     umodsys_lib_libui:umodsys.mod.ui.SDL_GL.obj
 0002:00008ee4       ??_C@_0BH@HDFNEAKM@glProgramUniform2dvEXT?$AA@ 10042ee4     umodsys_lib_libui:umodsys.mod.ui.SDL_GL.obj
 0002:00008efc       ??_C@_0BG@MNEFMBGK@glProgramUniform2fEXT?$AA@ 10042efc     umodsys_lib_libui:umodsys.mod.ui.SDL_GL.obj
 0002:00008f14       ??_C@_0BH@DOJFOBKH@glProgramUniform2fvEXT?$AA@ 10042f14     umodsys_lib_libui:umodsys.mod.ui.SDL_GL.obj
 0002:00008f2c       ??_C@_0BG@EPBFFGLL@glProgramUniform2iEXT?$AA@ 10042f2c     umodsys_lib_libui:umodsys.mod.ui.SDL_GL.obj
 0002:00008f44       ??_C@_0BH@MPMDFDHC@glProgramUniform2ivEXT?$AA@ 10042f44     umodsys_lib_libui:umodsys.mod.ui.SDL_GL.obj
 0002:00008f5c       ??_C@_0BH@FJGHJBMB@glProgramUniform2uiEXT?$AA@ 10042f5c     umodsys_lib_libui:umodsys.mod.ui.SDL_GL.obj
 0002:00008f74       ??_C@_0BI@HPAFLJJH@glProgramUniform2uivEXT?$AA@ 10042f74     umodsys_lib_libui:umodsys.mod.ui.SDL_GL.obj
 0002:00008f8c       ??_C@_0BG@HMNJEBKP@glProgramUniform3dEXT?$AA@ 10042f8c     umodsys_lib_libui:umodsys.mod.ui.SDL_GL.obj
 0002:00008fa4       ??_C@_0BH@NFCKELBI@glProgramUniform3dvEXT?$AA@ 10042fa4     umodsys_lib_libui:umodsys.mod.ui.SDL_GL.obj
 0002:00008fbc       ??_C@_0BG@GBJBCMP@glProgramUniform3fEXT?$AA@ 10042fbc     umodsys_lib_libui:umodsys.mod.ui.SDL_GL.obj
 0002:00008fd4       ??_C@_0BH@JIOCOKBD@glProgramUniform3fvEXT?$AA@ 10042fd4     umodsys_lib_libui:umodsys.mod.ui.SDL_GL.obj
 0002:00008fec       ??_C@_0BG@IEEJIFBO@glProgramUniform3iEXT?$AA@ 10042fec     umodsys_lib_libui:umodsys.mod.ui.SDL_GL.obj
 0002:00009004       ??_C@_0BH@GJLEFIMG@glProgramUniform3ivEXT?$AA@ 10043004     umodsys_lib_libui:umodsys.mod.ui.SDL_GL.obj
 0002:0000901c       ??_C@_0BH@PPBAJKHF@glProgramUniform3uiEXT?$AA@ 1004301c     umodsys_lib_libui:umodsys.mod.ui.SDL_GL.obj
 0002:00009034       ??_C@_0BI@LDKPLJAJ@glProgramUniform3uivEXT?$AA@ 10043034     umodsys_lib_libui:umodsys.mod.ui.SDL_GL.obj
 0002:0000904c       ??_C@_0BG@GBNMHBBH@glProgramUniform4dEXT?$AA@ 1004304c     umodsys_lib_libui:umodsys.mod.ui.SDL_GL.obj
 0002:00009064       ??_C@_0BH@BAINHFJG@glProgramUniform4dvEXT?$AA@ 10043064     umodsys_lib_libui:umodsys.mod.ui.SDL_GL.obj
 0002:0000907c       ??_C@_0BG@BLBMCCHH@glProgramUniform4fEXT?$AA@ 1004307c     umodsys_lib_libui:umodsys.mod.ui.SDL_GL.obj
 0002:00009094       ??_C@_0BH@FNEFNEJN@glProgramUniform4fvEXT?$AA@ 10043094     umodsys_lib_libui:umodsys.mod.ui.SDL_GL.obj
 0002:000090ac       ??_C@_0BG@JJEMLFKG@glProgramUniform4iEXT?$AA@ 100430ac     umodsys_lib_libui:umodsys.mod.ui.SDL_GL.obj
 0002:000090c4       ??_C@_0BH@KMBDGGEI@glProgramUniform4ivEXT?$AA@ 100430c4     umodsys_lib_libui:umodsys.mod.ui.SDL_GL.obj
 0002:000090dc       ??_C@_0BH@DKLHKEPL@glProgramUniform4uiEXT?$AA@ 100430dc     umodsys_lib_libui:umodsys.mod.ui.SDL_GL.obj
 0002:000090f4       ??_C@_0BI@LJGKLABA@glProgramUniform4uivEXT?$AA@ 100430f4     umodsys_lib_libui:umodsys.mod.ui.SDL_GL.obj
 0002:0000910c       ??_C@_0BN@NDLDHGAM@glProgramUniformMatrix2dvEXT?$AA@ 1004310c     umodsys_lib_libui:umodsys.mod.ui.SDL_GL.obj
 0002:0000912c       ??_C@_0BN@JOHLNHAH@glProgramUniformMatrix2fvEXT?$AA@ 1004312c     umodsys_lib_libui:umodsys.mod.ui.SDL_GL.obj
 0002:0000914c       ??_C@_0BP@MOCIKGFI@glProgramUniformMatrix2x3dvEXT?$AA@ 1004314c     umodsys_lib_libui:umodsys.mod.ui.SDL_GL.obj
 0002:0000916c       ??_C@_0BP@IDOAAHFD@glProgramUniformMatrix2x3fvEXT?$AA@ 1004316c     umodsys_lib_libui:umodsys.mod.ui.SDL_GL.obj
 0002:0000918c       ??_C@_0BP@LIPJING@glProgramUniformMatrix2x4dvEXT?$AA@ 1004318c     umodsys_lib_libui:umodsys.mod.ui.SDL_GL.obj
 0002:000091ac       ??_C@_0BP@EGEHDJNN@glProgramUniformMatrix2x4fvEXT?$AA@ 100431ac     umodsys_lib_libui:umodsys.mod.ui.SDL_GL.obj
 0002:000091cc       ??_C@_0BN@HFMEHNLI@glProgramUniformMatrix3dvEXT?$AA@ 100431cc     umodsys_lib_libui:umodsys.mod.ui.SDL_GL.obj
 0002:000091ec       ??_C@_0BN@DIAMNMLD@glProgramUniformMatrix3fvEXT?$AA@ 100431ec     umodsys_lib_libui:umodsys.mod.ui.SDL_GL.obj
 0002:0000920c       ??_C@_0BP@HPCELJKP@glProgramUniformMatrix3x2dvEXT?$AA@ 1004320c     umodsys_lib_libui:umodsys.mod.ui.SDL_GL.obj
 0002:0000922c       ??_C@_0BP@DCOMBIKE@glProgramUniformMatrix3x2fvEXT?$AA@ 1004322c     umodsys_lib_libui:umodsys.mod.ui.SDL_GL.obj
 0002:0000924c       ??_C@_0BP@BMPEIMJF@glProgramUniformMatrix3x4dvEXT?$AA@ 1004324c     umodsys_lib_libui:umodsys.mod.ui.SDL_GL.obj
 0002:0000926c       ??_C@_0BP@FBDMCNJO@glProgramUniformMatrix3x4fvEXT?$AA@ 1004326c     umodsys_lib_libui:umodsys.mod.ui.SDL_GL.obj
 0002:0000928c       ??_C@_0BN@LAGDEDDG@glProgramUniformMatrix4dvEXT?$AA@ 1004328c     umodsys_lib_libui:umodsys.mod.ui.SDL_GL.obj
 0002:000092ac       ??_C@_0BN@PNKLOCDN@glProgramUniformMatrix4fvEXT?$AA@ 100432ac     umodsys_lib_libui:umodsys.mod.ui.SDL_GL.obj
 0002:000092cc       ??_C@_0BP@BLEFNEGG@glProgramUniformMatrix4x2dvEXT?$AA@ 100432cc     umodsys_lib_libui:umodsys.mod.ui.SDL_GL.obj
 0002:000092ec       ??_C@_0BP@FGINHFGN@glProgramUniformMatrix4x2fvEXT?$AA@ 100432ec     umodsys_lib_libui:umodsys.mod.ui.SDL_GL.obj
 0002:0000930c       ??_C@_0BP@LNDCNPNC@glProgramUniformMatrix4x3dvEXT?$AA@ 1004330c     umodsys_lib_libui:umodsys.mod.ui.SDL_GL.obj
 0002:0000932c       ??_C@_0BP@PAPKHONJ@glProgramUniformMatrix4x3fvEXT?$AA@ 1004332c     umodsys_lib_libui:umodsys.mod.ui.SDL_GL.obj
 0002:0000934c       ??_C@_0BN@NKADHPKI@glPushClientAttribDefaultEXT?$AA@ 1004334c     umodsys_lib_libui:umodsys.mod.ui.SDL_GL.obj
 0002:0000936c       ??_C@_0BD@OEEPDOGM@glTextureBufferEXT?$AA@ 1004336c     umodsys_lib_libui:umodsys.mod.ui.SDL_GL.obj
 0002:00009380       ??_C@_0BI@HEDPMLB@glTextureBufferRangeEXT?$AA@ 10043380     umodsys_lib_libui:umodsys.mod.ui.SDL_GL.obj
 0002:00009398       ??_C@_0BE@DKGBPGEG@glTextureImage1DEXT?$AA@ 10043398     umodsys_lib_libui:umodsys.mod.ui.SDL_GL.obj
 0002:000093ac       ??_C@_0BE@LMPFIEOI@glTextureImage2DEXT?$AA@ 100433ac     umodsys_lib_libui:umodsys.mod.ui.SDL_GL.obj
 0002:000093c0       ??_C@_0BE@HHKJFHEN@glTextureImage3DEXT?$AA@ 100433c0     umodsys_lib_libui:umodsys.mod.ui.SDL_GL.obj
 0002:000093d4       ??_C@_0BL@KBMIFFAF@glTexturePageCommitmentEXT?$AA@ 100433d4     umodsys_lib_libui:umodsys.mod.ui.SDL_GL.obj
 0002:000093f0       ??_C@_0BJ@NPJAJLML@glTextureParameterIivEXT?$AA@ 100433f0     umodsys_lib_libui:umodsys.mod.ui.SDL_GL.obj
 0002:0000940c       ??_C@_0BK@MNKIOBHH@glTextureParameterIuivEXT?$AA@ 1004340c     umodsys_lib_libui:umodsys.mod.ui.SDL_GL.obj
 0002:00009428       ??_C@_0BH@NGFENBKL@glTextureParameterfEXT?$AA@ 10043428     umodsys_lib_libui:umodsys.mod.ui.SDL_GL.obj
 0002:00009440       ??_C@_0BI@NCONACJB@glTextureParameterfvEXT?$AA@ 10043440     umodsys_lib_libui:umodsys.mod.ui.SDL_GL.obj
 0002:00009458       ??_C@_0BH@FEAEEGHK@glTextureParameteriEXT?$AA@ 10043458     umodsys_lib_libui:umodsys.mod.ui.SDL_GL.obj
 0002:00009470       ??_C@_0BI@CDLLLAEE@glTextureParameterivEXT?$AA@ 10043470     umodsys_lib_libui:umodsys.mod.ui.SDL_GL.obj
 0002:00009488       ??_C@_0BJ@MHNDMBOO@glTextureRenderbufferEXT?$AA@ 10043488     umodsys_lib_libui:umodsys.mod.ui.SDL_GL.obj
 0002:000094a4       ??_C@_0BG@LIPEIIGD@glTextureStorage1DEXT?$AA@ 100434a4     umodsys_lib_libui:umodsys.mod.ui.SDL_GL.obj
 0002:000094bc       ??_C@_0BG@DOGAPKMN@glTextureStorage2DEXT?$AA@ 100434bc     umodsys_lib_libui:umodsys.mod.ui.SDL_GL.obj
 0002:000094d4       ??_C@_0CB@IKHJODMK@glTextureStorage2DMultisampleEXT@ 100434d4     umodsys_lib_libui:umodsys.mod.ui.SDL_GL.obj
 0002:000094f8       ??_C@_0BG@PFDMCJGI@glTextureStorage3DEXT?$AA@ 100434f8     umodsys_lib_libui:umodsys.mod.ui.SDL_GL.obj
 0002:00009510       ??_C@_0CB@NNPCIIJ@glTextureStorage3DMultisampleEXT@ 10043510     umodsys_lib_libui:umodsys.mod.ui.SDL_GL.obj
 0002:00009534       ??_C@_0BH@HDNJNIDA@glTextureSubImage1DEXT?$AA@ 10043534     umodsys_lib_libui:umodsys.mod.ui.SDL_GL.obj
 0002:0000954c       ??_C@_0BH@PFENKKJO@glTextureSubImage2DEXT?$AA@ 1004354c     umodsys_lib_libui:umodsys.mod.ui.SDL_GL.obj
 0002:00009564       ??_C@_0BH@DOBBHJDL@glTextureSubImage3DEXT?$AA@ 10043564     umodsys_lib_libui:umodsys.mod.ui.SDL_GL.obj
 0002:0000957c       ??_C@_0BG@CAIFHBPG@glUnmapNamedBufferEXT?$AA@ 1004357c     umodsys_lib_libui:umodsys.mod.ui.SDL_GL.obj
 0002:00009594       ??_C@_0CB@BDCLHICB@glVertexArrayBindVertexBufferEXT@ 10043594     umodsys_lib_libui:umodsys.mod.ui.SDL_GL.obj
 0002:000095b8       ??_C@_0BM@CFIMGCMJ@glVertexArrayColorOffsetEXT?$AA@ 100435b8     umodsys_lib_libui:umodsys.mod.ui.SDL_GL.obj
 0002:000095d4       ??_C@_0BP@HFLJMDEG@glVertexArrayEdgeFlagOffsetEXT?$AA@ 100435d4     umodsys_lib_libui:umodsys.mod.ui.SDL_GL.obj
 0002:000095f4       ??_C@_0BP@LMBGFCAJ@glVertexArrayFogCoordOffsetEXT?$AA@ 100435f4     umodsys_lib_libui:umodsys.mod.ui.SDL_GL.obj
 0002:00009614       ??_C@_0BM@INBHJNCB@glVertexArrayIndexOffsetEXT?$AA@ 10043614     umodsys_lib_libui:umodsys.mod.ui.SDL_GL.obj
 0002:00009630       ??_C@_0CE@JHDLNPEP@glVertexArrayMultiTexCoordOffset@ 10043630     umodsys_lib_libui:umodsys.mod.ui.SDL_GL.obj
 0002:00009654       ??_C@_0BN@OADCKOIN@glVertexArrayNormalOffsetEXT?$AA@ 10043654     umodsys_lib_libui:umodsys.mod.ui.SDL_GL.obj
 0002:00009674       ??_C@_0CF@GIDHOCLP@glVertexArraySecondaryColorOffse@ 10043674     umodsys_lib_libui:umodsys.mod.ui.SDL_GL.obj
 0002:0000969c       ??_C@_0BP@MNIAODGP@glVertexArrayTexCoordOffsetEXT?$AA@ 1004369c     umodsys_lib_libui:umodsys.mod.ui.SDL_GL.obj
 0002:000096bc       ??_C@_0CE@PLJLPNAP@glVertexArrayVertexAttribBinding@ 100436bc     umodsys_lib_libui:umodsys.mod.ui.SDL_GL.obj
 0002:000096e0       ??_C@_0CE@DPMBMKCD@glVertexArrayVertexAttribDivisor@ 100436e0     umodsys_lib_libui:umodsys.mod.ui.SDL_GL.obj
 0002:00009704       ??_C@_0CD@JDLJFCCB@glVertexArrayVertexAttribFormatE@ 10043704     umodsys_lib_libui:umodsys.mod.ui.SDL_GL.obj
 0002:00009728       ??_C@_0CE@OJBKHFGN@glVertexArrayVertexAttribIFormat@ 10043728     umodsys_lib_libui:umodsys.mod.ui.SDL_GL.obj
 0002:0000974c       ??_C@_0CE@ONCNHCKI@glVertexArrayVertexAttribIOffset@ 1004374c     umodsys_lib_libui:umodsys.mod.ui.SDL_GL.obj
 0002:00009770       ??_C@_0CE@JIENNJCP@glVertexArrayVertexAttribLFormat@ 10043770     umodsys_lib_libui:umodsys.mod.ui.SDL_GL.obj
 0002:00009794       ??_C@_0CE@JMHKNOOK@glVertexArrayVertexAttribLOffset@ 10043794     umodsys_lib_libui:umodsys.mod.ui.SDL_GL.obj
 0002:000097b8       ??_C@_0CD@JHIOFFOE@glVertexArrayVertexAttribOffsetE@ 100437b8     umodsys_lib_libui:umodsys.mod.ui.SDL_GL.obj
 0002:000097dc       ??_C@_0CF@LAAOPNKA@glVertexArrayVertexBindingDiviso@ 100437dc     umodsys_lib_libui:umodsys.mod.ui.SDL_GL.obj
 0002:00009804       ??_C@_0BN@DMLCFCEO@glVertexArrayVertexOffsetEXT?$AA@ 10043804     umodsys_lib_libui:umodsys.mod.ui.SDL_GL.obj
 0002:00009824       ??_C@_0BL@KADAIOH@GL_EXT_discard_framebuffer?$AA@ 10043824     umodsys_lib_libui:umodsys.mod.ui.SDL_GL.obj
 0002:00009840       ??_C@_0BI@PNJOCEBL@glDiscardFramebufferEXT?$AA@ 10043840     umodsys_lib_libui:umodsys.mod.ui.SDL_GL.obj
 0002:00009858       ??_C@_0BM@NLOGFGPN@GL_EXT_disjoint_timer_query?$AA@ 10043858     umodsys_lib_libui:umodsys.mod.ui.SDL_GL.obj
 0002:00009874       ??_C@_0BA@CBMMKGBH@glBeginQueryEXT?$AA@ 10043874     umodsys_lib_libui:umodsys.mod.ui.SDL_GL.obj
 0002:00009884       ??_C@_0BD@OOCONIPH@glDeleteQueriesEXT?$AA@ 10043884     umodsys_lib_libui:umodsys.mod.ui.SDL_GL.obj
 0002:00009898       ??_C@_0O@NLPONBAA@glEndQueryEXT?$AA@ 10043898     umodsys_lib_libui:umodsys.mod.ui.SDL_GL.obj
 0002:000098a8       ??_C@_0BA@JPPKPKJM@glGenQueriesEXT?$AA@ 100438a8     umodsys_lib_libui:umodsys.mod.ui.SDL_GL.obj
 0002:000098b8       ??_C@_0BI@IJOKHKKO@glGetQueryObjecti64vEXT?$AA@ 100438b8     umodsys_lib_libui:umodsys.mod.ui.SDL_GL.obj
 0002:000098d0       ??_C@_0BG@NNDHFFDL@glGetQueryObjectivEXT?$AA@ 100438d0     umodsys_lib_libui:umodsys.mod.ui.SDL_GL.obj
 0002:000098e8       ??_C@_0BJ@LBCFKCPE@glGetQueryObjectui64vEXT?$AA@ 100438e8     umodsys_lib_libui:umodsys.mod.ui.SDL_GL.obj
 0002:00009904       ??_C@_0BH@HABHLEKF@glGetQueryObjectuivEXT?$AA@ 10043904     umodsys_lib_libui:umodsys.mod.ui.SDL_GL.obj
 0002:0000991c       ??_C@_0BA@KBCJCMME@glGetQueryivEXT?$AA@ 1004391c     umodsys_lib_libui:umodsys.mod.ui.SDL_GL.obj
 0002:0000992c       ??_C@_0N@OEKFJFKD@glIsQueryEXT?$AA@ 1004392c     umodsys_lib_libui:umodsys.mod.ui.SDL_GL.obj
 0002:0000993c       ??_C@_0BC@IDIOOBMM@glQueryCounterEXT?$AA@ 1004393c     umodsys_lib_libui:umodsys.mod.ui.SDL_GL.obj
 0002:00009950       ??_C@_0BE@BJBPGHAG@GL_EXT_draw_buffers?$AA@ 10043950     umodsys_lib_libui:umodsys.mod.ui.SDL_GL.obj
 0002:00009964       ??_C@_0BB@KFCINMDO@glDrawBuffersEXT?$AA@ 10043964     umodsys_lib_libui:umodsys.mod.ui.SDL_GL.obj
 0002:00009978       ??_C@_0BF@EAKOOCD@GL_EXT_draw_buffers2?$AA@ 10043978     umodsys_lib_libui:umodsys.mod.ui.SDL_GL.obj
 0002:00009990       ??_C@_0BG@PJOFEKKJ@glColorMaskIndexedEXT?$AA@ 10043990     umodsys_lib_libui:umodsys.mod.ui.SDL_GL.obj
 0002:000099a8       ??_C@_0BL@BBECEKLJ@GL_EXT_draw_range_elements?$AA@ 100439a8     umodsys_lib_libui:umodsys.mod.ui.SDL_GL.obj
 0002:000099c4       ??_C@_0BH@GFFILNEF@glDrawRangeElementsEXT?$AA@ 100439c4     umodsys_lib_libui:umodsys.mod.ui.SDL_GL.obj
 0002:000099dc       ??_C@_0BB@KKBCECGP@GL_EXT_fog_coord?$AA@ 100439dc     umodsys_lib_libui:umodsys.mod.ui.SDL_GL.obj
 0002:000099f0       ??_C@_0BF@FOOIEJCC@glFogCoordPointerEXT?$AA@ 100439f0     umodsys_lib_libui:umodsys.mod.ui.SDL_GL.obj
 0002:00009a08       ??_C@_0P@CHEMEAE@glFogCoorddEXT?$AA@ 10043a08     umodsys_lib_libui:umodsys.mod.ui.SDL_GL.obj
 0002:00009a18       ??_C@_0BA@JEFAJMPN@glFogCoorddvEXT?$AA@ 10043a18     umodsys_lib_libui:umodsys.mod.ui.SDL_GL.obj
 0002:00009a28       ??_C@_0P@HILEJHGE@glFogCoordfEXT?$AA@ 10043a28     umodsys_lib_libui:umodsys.mod.ui.SDL_GL.obj
 0002:00009a38       ??_C@_0BA@NJJIDNPG@glFogCoordfvEXT?$AA@ 10043a38     umodsys_lib_libui:umodsys.mod.ui.SDL_GL.obj
 0002:00009a48       ??_C@_0BI@HCGEDMJI@GL_EXT_framebuffer_blit?$AA@ 10043a48     umodsys_lib_libui:umodsys.mod.ui.SDL_GL.obj
 0002:00009a60       ??_C@_0BF@GOMLACDI@glBlitFramebufferEXT?$AA@ 10043a60     umodsys_lib_libui:umodsys.mod.ui.SDL_GL.obj
 0002:00009a78       ??_C@_0BK@GDONINOA@GL_EXT_framebuffer_object?$AA@ 10043a78     umodsys_lib_libui:umodsys.mod.ui.SDL_GL.obj
 0002:00009a94       ??_C@_0BF@EMIECBAK@glBindFramebufferEXT?$AA@ 10043a94     umodsys_lib_libui:umodsys.mod.ui.SDL_GL.obj
 0002:00009aac       ??_C@_0BG@GLKALDNN@glBindRenderbufferEXT?$AA@ 10043aac     umodsys_lib_libui:umodsys.mod.ui.SDL_GL.obj
 0002:00009ac4       ??_C@_0BM@GOHPHGGE@glCheckFramebufferStatusEXT?$AA@ 10043ac4     umodsys_lib_libui:umodsys.mod.ui.SDL_GL.obj
 0002:00009ae0       ??_C@_0BI@NPEJNLO@glDeleteFramebuffersEXT?$AA@ 10043ae0     umodsys_lib_libui:umodsys.mod.ui.SDL_GL.obj
 0002:00009af8       ??_C@_0BJ@FCLEPNJL@glDeleteRenderbuffersEXT?$AA@ 10043af8     umodsys_lib_libui:umodsys.mod.ui.SDL_GL.obj
 0002:00009b14       ??_C@_0BN@BAGKOCJP@glFramebufferRenderbufferEXT?$AA@ 10043b14     umodsys_lib_libui:umodsys.mod.ui.SDL_GL.obj
 0002:00009b34       ??_C@_0BK@DDHFDNIL@glFramebufferTexture1DEXT?$AA@ 10043b34     umodsys_lib_libui:umodsys.mod.ui.SDL_GL.obj
 0002:00009b50       ??_C@_0BK@LFOBEPCF@glFramebufferTexture2DEXT?$AA@ 10043b50     umodsys_lib_libui:umodsys.mod.ui.SDL_GL.obj
 0002:00009b6c       ??_C@_0BK@HOLNJMIA@glFramebufferTexture3DEXT?$AA@ 10043b6c     umodsys_lib_libui:umodsys.mod.ui.SDL_GL.obj
 0002:00009b88       ??_C@_0BF@FFIJGJAM@glGenFramebuffersEXT?$AA@ 10043b88     umodsys_lib_libui:umodsys.mod.ui.SDL_GL.obj
 0002:00009ba0       ??_C@_0BG@HHIDFCMP@glGenRenderbuffersEXT?$AA@ 10043ba0     umodsys_lib_libui:umodsys.mod.ui.SDL_GL.obj
 0002:00009bb8       ??_C@_0BE@CIGLHJJK@glGenerateMipmapEXT?$AA@ 10043bb8     umodsys_lib_libui:umodsys.mod.ui.SDL_GL.obj
 0002:00009bcc       ??_C@_0CJ@GLBPNGII@glGetFramebufferAttachmentParame@ 10043bcc     umodsys_lib_libui:umodsys.mod.ui.SDL_GL.obj
 0002:00009bf8       ??_C@_0CA@NHMNLBAE@glGetRenderbufferParameterivEXT?$AA@ 10043bf8     umodsys_lib_libui:umodsys.mod.ui.SDL_GL.obj
 0002:00009c18       ??_C@_0BD@MIGPBMHK@glIsFramebufferEXT?$AA@ 10043c18     umodsys_lib_libui:umodsys.mod.ui.SDL_GL.obj
 0002:00009c2c       ??_C@_0BE@DLCBCJNM@glIsRenderbufferEXT?$AA@ 10043c2c     umodsys_lib_libui:umodsys.mod.ui.SDL_GL.obj
 0002:00009c40       ??_C@_0BJ@NPDAOAPK@glRenderbufferStorageEXT?$AA@ 10043c40     umodsys_lib_libui:umodsys.mod.ui.SDL_GL.obj
 0002:00009c5c       ??_C@_0BO@JOJLOPAH@GL_EXT_gpu_program_parameters?$AA@ 10043c5c     umodsys_lib_libui:umodsys.mod.ui.SDL_GL.obj
 0002:00009c7c       ??_C@_0BN@FHPFOAIA@glProgramEnvParameters4fvEXT?$AA@ 10043c7c     umodsys_lib_libui:umodsys.mod.ui.SDL_GL.obj
 0002:00009c9c       ??_C@_0BP@JDOGGDOI@glProgramLocalParameters4fvEXT?$AA@ 10043c9c     umodsys_lib_libui:umodsys.mod.ui.SDL_GL.obj
 0002:00009cbc       ??_C@_0BD@MHBCPECK@GL_EXT_gpu_shader4?$AA@ 10043cbc     umodsys_lib_libui:umodsys.mod.ui.SDL_GL.obj
 0002:00009cd0       ??_C@_0BK@DNBDABFG@glBindFragDataLocationEXT?$AA@ 10043cd0     umodsys_lib_libui:umodsys.mod.ui.SDL_GL.obj
 0002:00009cec       ??_C@_0BJ@EJLFAMEH@glGetFragDataLocationEXT?$AA@ 10043cec     umodsys_lib_libui:umodsys.mod.ui.SDL_GL.obj
 0002:00009d08       ??_C@_0BD@FFGAODEC@glGetUniformuivEXT?$AA@ 10043d08     umodsys_lib_libui:umodsys.mod.ui.SDL_GL.obj
 0002:00009d1c       ??_C@_0BA@OOCMDNJI@glUniform1uiEXT?$AA@ 10043d1c     umodsys_lib_libui:umodsys.mod.ui.SDL_GL.obj
 0002:00009d2c       ??_C@_0BB@GNAFBLGL@glUniform1uivEXT?$AA@ 10043d2c     umodsys_lib_libui:umodsys.mod.ui.SDL_GL.obj
 0002:00009d40       ??_C@_0BA@NPMECHAF@glUniform2uiEXT?$AA@ 10043d40     umodsys_lib_libui:umodsys.mod.ui.SDL_GL.obj
 0002:00009d50       ??_C@_0BB@ODIKBMII@glUniform2uivEXT?$AA@ 10043d50     umodsys_lib_libui:umodsys.mod.ui.SDL_GL.obj
 0002:00009d64       ??_C@_0BA@HJLDCMLB@glUniform3uiEXT?$AA@ 10043d64     umodsys_lib_libui:umodsys.mod.ui.SDL_GL.obj
 0002:00009d74       ??_C@_0BB@CPCABMBG@glUniform3uivEXT?$AA@ 10043d74     umodsys_lib_libui:umodsys.mod.ui.SDL_GL.obj
 0002:00009d88       ??_C@_0BA@LMBEBCDP@glUniform4uiEXT?$AA@ 10043d88     umodsys_lib_libui:umodsys.mod.ui.SDL_GL.obj
 0002:00009d98       ??_C@_0BB@CFOFBFAP@glUniform4uivEXT?$AA@ 10043d98     umodsys_lib_libui:umodsys.mod.ui.SDL_GL.obj
 0002:00009dac       ??_C@_0BB@NIOJPLHJ@GL_EXT_histogram?$AA@ 10043dac     umodsys_lib_libui:umodsys.mod.ui.SDL_GL.obj
 0002:00009dc0       ??_C@_0BC@HDKNAHKO@glGetHistogramEXT?$AA@ 10043dc0     umodsys_lib_libui:umodsys.mod.ui.SDL_GL.obj
 0002:00009dd4       ??_C@_0BN@POFKAIPA@glGetHistogramParameterfvEXT?$AA@ 10043dd4     umodsys_lib_libui:umodsys.mod.ui.SDL_GL.obj
 0002:00009df4       ??_C@_0BN@PAMLKCF@glGetHistogramParameterivEXT?$AA@ 10043df4     umodsys_lib_libui:umodsys.mod.ui.SDL_GL.obj
 0002:00009e14       ??_C@_0P@MHPDBJJK@glGetMinmaxEXT?$AA@ 10043e14     umodsys_lib_libui:umodsys.mod.ui.SDL_GL.obj
 0002:00009e24       ??_C@_0BK@LHKCMDIM@glGetMinmaxParameterfvEXT?$AA@ 10043e24     umodsys_lib_libui:umodsys.mod.ui.SDL_GL.obj
 0002:00009e40       ??_C@_0BK@EGPEHBFJ@glGetMinmaxParameterivEXT?$AA@ 10043e40     umodsys_lib_libui:umodsys.mod.ui.SDL_GL.obj
 0002:00009e5c       ??_C@_0P@NJHKLCL@glHistogramEXT?$AA@ 10043e5c     umodsys_lib_libui:umodsys.mod.ui.SDL_GL.obj
 0002:00009e6c       ??_C@_0M@CMBCKEAN@glMinmaxEXT?$AA@ 10043e6c     umodsys_lib_libui:umodsys.mod.ui.SDL_GL.obj
 0002:00009e78       ??_C@_0BE@INOGIHMN@glResetHistogramEXT?$AA@ 10043e78     umodsys_lib_libui:umodsys.mod.ui.SDL_GL.obj
 0002:00009e8c       ??_C@_0BB@ICGNPJGJ@glResetMinmaxEXT?$AA@ 10043e8c     umodsys_lib_libui:umodsys.mod.ui.SDL_GL.obj
 0002:00009ea0       ??_C@_0BC@DODOKKOA@GL_EXT_index_func?$AA@ 10043ea0     umodsys_lib_libui:umodsys.mod.ui.SDL_GL.obj
 0002:00009eb4       ??_C@_0P@JNIENPPF@glIndexFuncEXT?$AA@ 10043eb4     umodsys_lib_libui:umodsys.mod.ui.SDL_GL.obj
 0002:00009ec4       ??_C@_0BG@KIAGJAFD@GL_EXT_index_material?$AA@ 10043ec4     umodsys_lib_libui:umodsys.mod.ui.SDL_GL.obj
 0002:00009edc       ??_C@_0BD@FDMMOKEF@glIndexMaterialEXT?$AA@ 10043edc     umodsys_lib_libui:umodsys.mod.ui.SDL_GL.obj
 0002:00009ef0       ??_C@_0BI@KPDGBABF@GL_EXT_instanced_arrays?$AA@ 10043ef0     umodsys_lib_libui:umodsys.mod.ui.SDL_GL.obj
 0002:00009f08       ??_C@_0BJ@EGCHCMIN@glDrawArraysInstancedEXT?$AA@ 10043f08     umodsys_lib_libui:umodsys.mod.ui.SDL_GL.obj
 0002:00009f24       ??_C@_0BL@CPGJMID@glDrawElementsInstancedEXT?$AA@ 10043f24     umodsys_lib_libui:umodsys.mod.ui.SDL_GL.obj
 0002:00009f40       ??_C@_0BJ@DNDEEHPM@glVertexAttribDivisorEXT?$AA@ 10043f40     umodsys_lib_libui:umodsys.mod.ui.SDL_GL.obj
 0002:00009f5c       ??_C@_0BF@COJMPNOE@GL_EXT_light_texture?$AA@ 10043f5c     umodsys_lib_libui:umodsys.mod.ui.SDL_GL.obj
 0002:00009f74       ??_C@_0BC@BMGBGAIC@glApplyTextureEXT?$AA@ 10043f74     umodsys_lib_libui:umodsys.mod.ui.SDL_GL.obj
 0002:00009f88       ??_C@_0BC@NKGLGGFG@glTextureLightEXT?$AA@ 10043f88     umodsys_lib_libui:umodsys.mod.ui.SDL_GL.obj
 0002:00009f9c       ??_C@_0BF@PBKCOGKF@glTextureMaterialEXT?$AA@ 10043f9c     umodsys_lib_libui:umodsys.mod.ui.SDL_GL.obj
 0002:00009fb4       ??_C@_0BI@GDICDALD@GL_EXT_map_buffer_range?$AA@ 10043fb4     umodsys_lib_libui:umodsys.mod.ui.SDL_GL.obj
 0002:00009fcc       ??_C@_0BM@MKNCFBOJ@glFlushMappedBufferRangeEXT?$AA@ 10043fcc     umodsys_lib_libui:umodsys.mod.ui.SDL_GL.obj
 0002:00009fe8       ??_C@_0BE@KOCGOKON@glMapBufferRangeEXT?$AA@ 10043fe8     umodsys_lib_libui:umodsys.mod.ui.SDL_GL.obj
 0002:00009ffc       ??_C@_0BJ@BEDGNCEH@GL_EXT_multi_draw_arrays?$AA@ 10043ffc     umodsys_lib_libui:umodsys.mod.ui.SDL_GL.obj
 0002:0000a018       ??_C@_0BF@MOHHALAE@glMultiDrawArraysEXT?$AA@ 10044018     umodsys_lib_libui:umodsys.mod.ui.SDL_GL.obj
 0002:0000a030       ??_C@_0BH@CPIJKLBJ@glMultiDrawElementsEXT?$AA@ 10044030     umodsys_lib_libui:umodsys.mod.ui.SDL_GL.obj
 0002:0000a048       ??_C@_0BD@NAAAMEDB@GL_EXT_multisample?$AA@ 10044048     umodsys_lib_libui:umodsys.mod.ui.SDL_GL.obj
 0002:0000a05c       ??_C@_0BA@CBHHDJML@glSampleMaskEXT?$AA@ 1004405c     umodsys_lib_libui:umodsys.mod.ui.SDL_GL.obj
 0002:0000a06c       ??_C@_0BD@GLCOCHJL@glSamplePatternEXT?$AA@ 1004406c     umodsys_lib_libui:umodsys.mod.ui.SDL_GL.obj
 0002:0000a080       ??_C@_0CG@NJOILHFI@GL_EXT_multisampled_render_to_te@ 10044080     umodsys_lib_libui:umodsys.mod.ui.SDL_GL.obj
 0002:0000a0a8       ??_C@_0CF@CPGMNF@glFramebufferTexture2DMultisampl@ 100440a8     umodsys_lib_libui:umodsys.mod.ui.SDL_GL.obj
 0002:0000a0d0       ??_C@_0CE@IGIMMIPN@glRenderbufferStorageMultisample@ 100440d0     umodsys_lib_libui:umodsys.mod.ui.SDL_GL.obj
 0002:0000a0f4       ??_C@_0BO@CFPPKLNC@GL_EXT_multiview_draw_buffers?$AA@ 100440f4     umodsys_lib_libui:umodsys.mod.ui.SDL_GL.obj
 0002:0000a114       ??_C@_0BI@DENHBPGD@glDrawBuffersIndexedEXT?$AA@ 10044114     umodsys_lib_libui:umodsys.mod.ui.SDL_GL.obj
 0002:0000a12c       ??_C@_0BD@BOMCJKNB@glGetIntegeri_vEXT?$AA@ 1004412c     umodsys_lib_libui:umodsys.mod.ui.SDL_GL.obj
 0002:0000a140       ??_C@_0BH@LHJKGCNM@glReadBufferIndexedEXT?$AA@ 10044140     umodsys_lib_libui:umodsys.mod.ui.SDL_GL.obj
 0002:0000a158       ??_C@_0BI@OJEGBCEK@GL_EXT_paletted_texture?$AA@ 10044158     umodsys_lib_libui:umodsys.mod.ui.SDL_GL.obj
 0002:0000a170       ??_C@_0BA@MJCEHDBE@glColorTableEXT?$AA@ 10044170     umodsys_lib_libui:umodsys.mod.ui.SDL_GL.obj
 0002:0000a180       ??_C@_0BD@FEIIDOBH@glGetColorTableEXT?$AA@ 10044180     umodsys_lib_libui:umodsys.mod.ui.SDL_GL.obj
 0002:0000a194       ??_C@_0BO@HFKPENKH@glGetColorTableParameterfvEXT?$AA@ 10044194     umodsys_lib_libui:umodsys.mod.ui.SDL_GL.obj
 0002:0000a1b4       ??_C@_0BO@IEPJPPHC@glGetColorTableParameterivEXT?$AA@ 100441b4     umodsys_lib_libui:umodsys.mod.ui.SDL_GL.obj
 0002:0000a1d4       ??_C@_0BH@GFMFFLC@GL_EXT_pixel_transform?$AA@ 100441d4     umodsys_lib_libui:umodsys.mod.ui.SDL_GL.obj
 0002:0000a1ec       ??_C@_0CC@PADIMNCH@glGetPixelTransformParameterfvEX@ 100441ec     umodsys_lib_libui:umodsys.mod.ui.SDL_GL.obj
 0002:0000a210       ??_C@_0CC@BGOHPPC@glGetPixelTransformParameterivEX@ 10044210     umodsys_lib_libui:umodsys.mod.ui.SDL_GL.obj
 0002:0000a234       ??_C@_0BO@OIDCEPNJ@glPixelTransformParameterfEXT?$AA@ 10044234     umodsys_lib_libui:umodsys.mod.ui.SDL_GL.obj
 0002:0000a254       ??_C@_0BP@GMNIHEBP@glPixelTransformParameterfvEXT?$AA@ 10044254     umodsys_lib_libui:umodsys.mod.ui.SDL_GL.obj
 0002:0000a274       ??_C@_0BO@GKGCNIAI@glPixelTransformParameteriEXT?$AA@ 10044274     umodsys_lib_libui:umodsys.mod.ui.SDL_GL.obj
 0002:0000a294       ??_C@_0BP@JNIOMGMK@glPixelTransformParameterivEXT?$AA@ 10044294     umodsys_lib_libui:umodsys.mod.ui.SDL_GL.obj
 0002:0000a2b4       ??_C@_0BI@GCJDFKGN@GL_EXT_point_parameters?$AA@ 100442b4     umodsys_lib_libui:umodsys.mod.ui.SDL_GL.obj
 0002:0000a2cc       ??_C@_0BF@KOFPPNHP@glPointParameterfEXT?$AA@ 100442cc     umodsys_lib_libui:umodsys.mod.ui.SDL_GL.obj
 0002:0000a2e4       ??_C@_0BG@FDCLBPHA@glPointParameterfvEXT?$AA@ 100442e4     umodsys_lib_libui:umodsys.mod.ui.SDL_GL.obj
 0002:0000a2fc       ??_C@_0BG@GEKEEJAM@GL_EXT_polygon_offset?$AA@ 100442fc     umodsys_lib_libui:umodsys.mod.ui.SDL_GL.obj
 0002:0000a314       ??_C@_0BD@KFMIOCPC@glPolygonOffsetEXT?$AA@ 10044314     umodsys_lib_libui:umodsys.mod.ui.SDL_GL.obj
 0002:0000a328       ??_C@_0BI@BEAPECOC@GL_EXT_provoking_vertex?$AA@ 10044328     umodsys_lib_libui:umodsys.mod.ui.SDL_GL.obj
 0002:0000a340       ??_C@_0BF@NCFNHLBM@glProvokingVertexEXT?$AA@ 10044340     umodsys_lib_libui:umodsys.mod.ui.SDL_GL.obj
 0002:0000a358       ??_C@_0BC@CLDFFND@GL_EXT_robustness?$AA@ 10044358     umodsys_lib_libui:umodsys.mod.ui.SDL_GL.obj
 0002:0000a36c       ??_C@_0BM@ONPEFKGN@glGetGraphicsResetStatusEXT?$AA@ 1004436c     umodsys_lib_libui:umodsys.mod.ui.SDL_GL.obj
 0002:0000a388       ??_C@_0BD@BHDIBOMJ@glGetnUniformfvEXT?$AA@ 10044388     umodsys_lib_libui:umodsys.mod.ui.SDL_GL.obj
 0002:0000a39c       ??_C@_0BD@OGGOKMBM@glGetnUniformivEXT?$AA@ 1004439c     umodsys_lib_libui:umodsys.mod.ui.SDL_GL.obj
 0002:0000a3b0       ??_C@_0BB@BBOPGEIE@glReadnPixelsEXT?$AA@ 100443b0     umodsys_lib_libui:umodsys.mod.ui.SDL_GL.obj
 0002:0000a3c4       ??_C@_0BH@DLNOEEKJ@GL_EXT_secondary_color?$AA@ 100443c4     umodsys_lib_libui:umodsys.mod.ui.SDL_GL.obj
 0002:0000a3dc       ??_C@_0BG@MGNMPMLP@glSecondaryColor3bEXT?$AA@ 100443dc     umodsys_lib_libui:umodsys.mod.ui.SDL_GL.obj
 0002:0000a3f4       ??_C@_0BH@MICHFOMB@glSecondaryColor3bvEXT?$AA@ 100443f4     umodsys_lib_libui:umodsys.mod.ui.SDL_GL.obj
 0002:0000a40c       ??_C@_0BG@EJJMAJBP@glSecondaryColor3dEXT?$AA@ 1004440c     umodsys_lib_libui:umodsys.mod.ui.SDL_GL.obj
 0002:0000a424       ??_C@_0BH@BOHOLNNM@glSecondaryColor3dvEXT?$AA@ 10044424     umodsys_lib_libui:umodsys.mod.ui.SDL_GL.obj
 0002:0000a43c       ??_C@_0BG@DDFMFKHP@glSecondaryColor3fEXT?$AA@ 1004443c     umodsys_lib_libui:umodsys.mod.ui.SDL_GL.obj
 0002:0000a454       ??_C@_0BH@FDLGBMNH@glSecondaryColor3fvEXT?$AA@ 10044454     umodsys_lib_libui:umodsys.mod.ui.SDL_GL.obj
 0002:0000a46c       ??_C@_0BG@LBAMMNKO@glSecondaryColor3iEXT?$AA@ 1004446c     umodsys_lib_libui:umodsys.mod.ui.SDL_GL.obj
 0002:0000a484       ??_C@_0BH@KCOAKOAC@glSecondaryColor3ivEXT?$AA@ 10044484     umodsys_lib_libui:umodsys.mod.ui.SDL_GL.obj
 0002:0000a49c       ??_C@_0BG@JLFMECIN@glSecondaryColor3sEXT?$AA@ 1004449c     umodsys_lib_libui:umodsys.mod.ui.SDL_GL.obj
 0002:0000a4b4       ??_C@_0BH@KNIPPP@glSecondaryColor3svEXT?$AA@ 100444b4     umodsys_lib_libui:umodsys.mod.ui.SDL_GL.obj
 0002:0000a4cc       ??_C@_0BH@EDJEFNKA@glSecondaryColor3ubEXT?$AA@ 100444cc     umodsys_lib_libui:umodsys.mod.ui.SDL_GL.obj
 0002:0000a4e4       ??_C@_0BI@EFKKBLJF@glSecondaryColor3ubvEXT?$AA@ 100444e4     umodsys_lib_libui:umodsys.mod.ui.SDL_GL.obj
 0002:0000a4fc       ??_C@_0BH@DEEEGMLB@glSecondaryColor3uiEXT?$AA@ 100444fc     umodsys_lib_libui:umodsys.mod.ui.SDL_GL.obj
 0002:0000a514       ??_C@_0BI@CPGNOLFG@glSecondaryColor3uivEXT?$AA@ 10044514     umodsys_lib_libui:umodsys.mod.ui.SDL_GL.obj
 0002:0000a52c       ??_C@_0BH@BOBEODJC@glSecondaryColor3usEXT?$AA@ 1004452c     umodsys_lib_libui:umodsys.mod.ui.SDL_GL.obj
 0002:0000a544       ??_C@_0BI@INCAMKKL@glSecondaryColor3usvEXT?$AA@ 10044544     umodsys_lib_libui:umodsys.mod.ui.SDL_GL.obj
 0002:0000a55c       ??_C@_0BL@FIJPIBAP@glSecondaryColorPointerEXT?$AA@ 1004455c     umodsys_lib_libui:umodsys.mod.ui.SDL_GL.obj
 0002:0000a578       ??_C@_0BP@KOANOKOE@GL_EXT_separate_shader_objects?$AA@ 10044578     umodsys_lib_libui:umodsys.mod.ui.SDL_GL.obj
 0002:0000a598       ??_C@_0BD@CLOMPIJI@glActiveProgramEXT?$AA@ 10044598     umodsys_lib_libui:umodsys.mod.ui.SDL_GL.obj
 0002:0000a5ac       ??_C@_0BJ@KCKCCCKM@glActiveShaderProgramEXT?$AA@ 100445ac     umodsys_lib_libui:umodsys.mod.ui.SDL_GL.obj
 0002:0000a5c8       ??_C@_0BJ@GNNOGINB@glBindProgramPipelineEXT?$AA@ 100445c8     umodsys_lib_libui:umodsys.mod.ui.SDL_GL.obj
 0002:0000a5e4       ??_C@_0BJ@MMLKJOPF@glCreateShaderProgramEXT?$AA@ 100445e4     umodsys_lib_libui:umodsys.mod.ui.SDL_GL.obj
 0002:0000a600       ??_C@_0BK@FOCEJACN@glCreateShaderProgramvEXT?$AA@ 10044600     umodsys_lib_libui:umodsys.mod.ui.SDL_GL.obj
 0002:0000a61c       ??_C@_0BM@KOIFALOM@glDeleteProgramPipelinesEXT?$AA@ 1004461c     umodsys_lib_libui:umodsys.mod.ui.SDL_GL.obj
 0002:0000a638       ??_C@_0BJ@FEBCIIIM@glGenProgramPipelinesEXT?$AA@ 10044638     umodsys_lib_libui:umodsys.mod.ui.SDL_GL.obj
 0002:0000a654       ??_C@_0BP@DKCKIEIJ@glGetProgramPipelineInfoLogEXT?$AA@ 10044654     umodsys_lib_libui:umodsys.mod.ui.SDL_GL.obj
 0002:0000a674       ??_C@_0BK@OLMMHFJP@glGetProgramPipelineivEXT?$AA@ 10044674     umodsys_lib_libui:umodsys.mod.ui.SDL_GL.obj
 0002:0000a690       ??_C@_0BH@HNANNDJA@glIsProgramPipelineEXT?$AA@ 10044690     umodsys_lib_libui:umodsys.mod.ui.SDL_GL.obj
 0002:0000a6a8       ??_C@_0BH@PKNCEEOM@glProgramParameteriEXT?$AA@ 100446a8     umodsys_lib_libui:umodsys.mod.ui.SDL_GL.obj
 0002:0000a6c0       ??_C@_0BG@EGEMDMDF@glUseProgramStagesEXT?$AA@ 100446c0     umodsys_lib_libui:umodsys.mod.ui.SDL_GL.obj
 0002:0000a6d8       ??_C@_0BG@POJOCCGB@glUseShaderProgramEXT?$AA@ 100446d8     umodsys_lib_libui:umodsys.mod.ui.SDL_GL.obj
 0002:0000a6f0       ??_C@_0BN@CJEKPLHI@glValidateProgramPipelineEXT?$AA@ 100446f0     umodsys_lib_libui:umodsys.mod.ui.SDL_GL.obj
 0002:0000a710       ??_C@_0BP@BLBIDGOK@GL_EXT_shader_image_load_store?$AA@ 10044710     umodsys_lib_libui:umodsys.mod.ui.SDL_GL.obj
 0002:0000a730       ??_C@_0BG@CKIKMCEP@glBindImageTextureEXT?$AA@ 10044730     umodsys_lib_libui:umodsys.mod.ui.SDL_GL.obj
 0002:0000a748       ??_C@_0BD@KBDDKHKJ@glMemoryBarrierEXT?$AA@ 10044748     umodsys_lib_libui:umodsys.mod.ui.SDL_GL.obj
 0002:0000a75c       ??_C@_0BJ@DIMHMNPE@GL_EXT_stencil_clear_tag?$AA@ 1004475c     umodsys_lib_libui:umodsys.mod.ui.SDL_GL.obj
 0002:0000a778       ??_C@_0BF@KMNAKPFO@glStencilClearTagEXT?$AA@ 10044778     umodsys_lib_libui:umodsys.mod.ui.SDL_GL.obj
 0002:0000a790       ??_C@_0BI@CPMDBHLG@GL_EXT_stencil_two_side?$AA@ 10044790     umodsys_lib_libui:umodsys.mod.ui.SDL_GL.obj
 0002:0000a7a8       ??_C@_0BH@FDKCPLFK@glActiveStencilFaceEXT?$AA@ 100447a8     umodsys_lib_libui:umodsys.mod.ui.SDL_GL.obj
 0002:0000a7c0       ??_C@_0BC@CLMEPFHP@GL_EXT_subtexture?$AA@ 100447c0     umodsys_lib_libui:umodsys.mod.ui.SDL_GL.obj
 0002:0000a7d4       ??_C@_0BD@MHDOEKHM@glTexSubImage1DEXT?$AA@ 100447d4     umodsys_lib_libui:umodsys.mod.ui.SDL_GL.obj
 0002:0000a7e8       ??_C@_0BD@EBKKDINC@glTexSubImage2DEXT?$AA@ 100447e8     umodsys_lib_libui:umodsys.mod.ui.SDL_GL.obj
 0002:0000a7fc       ??_C@_0BB@LCNIEGEB@GL_EXT_texture3D?$AA@ 100447fc     umodsys_lib_libui:umodsys.mod.ui.SDL_GL.obj
 0002:0000a810       ??_C@_0BA@CBIBMEOO@glTexImage3DEXT?$AA@ 10044810     umodsys_lib_libui:umodsys.mod.ui.SDL_GL.obj
 0002:0000a820       ??_C@_0BD@IKPGOLHH@glTexSubImage3DEXT?$AA@ 10044820     umodsys_lib_libui:umodsys.mod.ui.SDL_GL.obj
 0002:0000a834       ??_C@_0BN@NGDAHMPO@GL_EXT_texture_buffer_object?$AA@ 10044834     umodsys_lib_libui:umodsys.mod.ui.SDL_GL.obj
 0002:0000a854       ??_C@_0P@HPBILOFJ@glTexBufferEXT?$AA@ 10044854     umodsys_lib_libui:umodsys.mod.ui.SDL_GL.obj
 0002:0000a864       ??_C@_0BH@BKFJHEI@GL_EXT_texture_integer?$AA@ 10044864     umodsys_lib_libui:umodsys.mod.ui.SDL_GL.obj
 0002:0000a87c       ??_C@_0BC@GAABLOFL@glClearColorIiEXT?$AA@ 1004487c     umodsys_lib_libui:umodsys.mod.ui.SDL_GL.obj
 0002:0000a890       ??_C@_0BD@PJECGHFB@glClearColorIuiEXT?$AA@ 10044890     umodsys_lib_libui:umodsys.mod.ui.SDL_GL.obj
 0002:0000a8a4       ??_C@_0BI@KHAOHHCO@glGetTexParameterIivEXT?$AA@ 100448a4     umodsys_lib_libui:umodsys.mod.ui.SDL_GL.obj
 0002:0000a8bc       ??_C@_0BJ@BNLAGJGM@glGetTexParameterIuivEXT?$AA@ 100448bc     umodsys_lib_libui:umodsys.mod.ui.SDL_GL.obj
 0002:0000a8d8       ??_C@_0BF@JNFNNNEN@glTexParameterIivEXT?$AA@ 100448d8     umodsys_lib_libui:umodsys.mod.ui.SDL_GL.obj
 0002:0000a8f0       ??_C@_0BG@MJDBAKCE@glTexParameterIuivEXT?$AA@ 100448f0     umodsys_lib_libui:umodsys.mod.ui.SDL_GL.obj
 0002:0000a908       ??_C@_0BG@FPPPAJDP@GL_EXT_texture_object?$AA@ 10044908     umodsys_lib_libui:umodsys.mod.ui.SDL_GL.obj
 0002:0000a920       ??_C@_0BJ@LJBONNCK@glAreTexturesResidentEXT?$AA@ 10044920     umodsys_lib_libui:umodsys.mod.ui.SDL_GL.obj
 0002:0000a93c       ??_C@_0BB@EBKBDLEN@glBindTextureEXT?$AA@ 1004493c     umodsys_lib_libui:umodsys.mod.ui.SDL_GL.obj
 0002:0000a950       ??_C@_0BE@LDBFENJM@glDeleteTexturesEXT?$AA@ 10044950     umodsys_lib_libui:umodsys.mod.ui.SDL_GL.obj
 0002:0000a964       ??_C@_0BB@GJAECBGO@glGenTexturesEXT?$AA@ 10044964     umodsys_lib_libui:umodsys.mod.ui.SDL_GL.obj
 0002:0000a978       ??_C@_0P@BLOFBLLL@glIsTextureEXT?$AA@ 10044978     umodsys_lib_libui:umodsys.mod.ui.SDL_GL.obj
 0002:0000a988       ??_C@_0BI@BHBMGKCN@glPrioritizeTexturesEXT?$AA@ 10044988     umodsys_lib_libui:umodsys.mod.ui.SDL_GL.obj
 0002:0000a9a0       ??_C@_0BO@MGIKHAJP@GL_EXT_texture_perturb_normal?$AA@ 100449a0     umodsys_lib_libui:umodsys.mod.ui.SDL_GL.obj
 0002:0000a9c0       ??_C@_0BD@HJCKBGND@glTextureNormalEXT?$AA@ 100449c0     umodsys_lib_libui:umodsys.mod.ui.SDL_GL.obj
 0002:0000a9d4       ??_C@_0BH@LHMNMPMF@GL_EXT_texture_storage?$AA@ 100449d4     umodsys_lib_libui:umodsys.mod.ui.SDL_GL.obj
 0002:0000a9ec       ??_C@_0BC@FENIPDJP@glTexStorage1DEXT?$AA@ 100449ec     umodsys_lib_libui:umodsys.mod.ui.SDL_GL.obj
 0002:0000aa00       ??_C@_0BC@NCEMIBDB@glTexStorage2DEXT?$AA@ 10044a00     umodsys_lib_libui:umodsys.mod.ui.SDL_GL.obj
 0002:0000aa14       ??_C@_0BC@BJBAFCJE@glTexStorage3DEXT?$AA@ 10044a14     umodsys_lib_libui:umodsys.mod.ui.SDL_GL.obj
 0002:0000aa28       ??_C@_0BK@GKBBHBBG@GL_EXT_transform_feedback?$AA@ 10044a28     umodsys_lib_libui:umodsys.mod.ui.SDL_GL.obj
 0002:0000aa44       ??_C@_0BM@BLDJBDM@glBeginTransformFeedbackEXT?$AA@ 10044a44     umodsys_lib_libui:umodsys.mod.ui.SDL_GL.obj
 0002:0000aa60       ??_C@_0BE@NCJCCMMA@glBindBufferBaseEXT?$AA@ 10044a60     umodsys_lib_libui:umodsys.mod.ui.SDL_GL.obj
 0002:0000aa74       ??_C@_0BG@PKIAJGM@glBindBufferOffsetEXT?$AA@ 10044a74     umodsys_lib_libui:umodsys.mod.ui.SDL_GL.obj
 0002:0000aa8c       ??_C@_0BF@MIMIIPJK@glBindBufferRangeEXT?$AA@ 10044a8c     umodsys_lib_libui:umodsys.mod.ui.SDL_GL.obj
 0002:0000aaa4       ??_C@_0BK@MBPEMJDO@glEndTransformFeedbackEXT?$AA@ 10044aa4     umodsys_lib_libui:umodsys.mod.ui.SDL_GL.obj
 0002:0000aac0       ??_C@_0CB@KMFIHAIP@glGetTransformFeedbackVaryingEXT@ 10044ac0     umodsys_lib_libui:umodsys.mod.ui.SDL_GL.obj
 0002:0000aae4       ??_C@_0BP@LKJENMKJ@glTransformFeedbackVaryingsEXT?$AA@ 10044ae4     umodsys_lib_libui:umodsys.mod.ui.SDL_GL.obj
 0002:0000ab04       ??_C@_0BE@PFGKPDCP@GL_EXT_vertex_array?$AA@ 10044b04     umodsys_lib_libui:umodsys.mod.ui.SDL_GL.obj
 0002:0000ab18       ??_C@_0BC@PBPJCKDL@glArrayElementEXT?$AA@ 10044b18     umodsys_lib_libui:umodsys.mod.ui.SDL_GL.obj
 0002:0000ab2c       ??_C@_0BC@JAGLJGCN@glColorPointerEXT?$AA@ 10044b2c     umodsys_lib_libui:umodsys.mod.ui.SDL_GL.obj
 0002:0000ab40       ??_C@_0BA@NIBACEFN@glDrawArraysEXT?$AA@ 10044b40     umodsys_lib_libui:umodsys.mod.ui.SDL_GL.obj
 0002:0000ab50       ??_C@_0BF@LIECLKLC@glEdgeFlagPointerEXT?$AA@ 10044b50     umodsys_lib_libui:umodsys.mod.ui.SDL_GL.obj
 0002:0000ab68       ??_C@_0BB@EPJHLPNN@glGetPointervEXT?$AA@ 10044b68     umodsys_lib_libui:umodsys.mod.ui.SDL_GL.obj
 0002:0000ab7c       ??_C@_0BC@DOBCGHJI@glIndexPointerEXT?$AA@ 10044b7c     umodsys_lib_libui:umodsys.mod.ui.SDL_GL.obj
 0002:0000ab90       ??_C@_0BD@IBDDMGPJ@glNormalPointerEXT?$AA@ 10044b90     umodsys_lib_libui:umodsys.mod.ui.SDL_GL.obj
 0002:0000aba4       ??_C@_0BF@PKEIBLPO@glTexCoordPointerEXT?$AA@ 10044ba4     umodsys_lib_libui:umodsys.mod.ui.SDL_GL.obj
 0002:0000abbc       ??_C@_0BD@IDICNFAP@glVertexPointerEXT?$AA@ 10044bbc     umodsys_lib_libui:umodsys.mod.ui.SDL_GL.obj
 0002:0000abd0       ??_C@_0BL@PDLDALDJ@GL_EXT_vertex_attrib_64bit?$AA@ 10044bd0     umodsys_lib_libui:umodsys.mod.ui.SDL_GL.obj
 0002:0000abec       ??_C@_0BI@EOFDCPBG@glGetVertexAttribLdvEXT?$AA@ 10044bec     umodsys_lib_libui:umodsys.mod.ui.SDL_GL.obj
 0002:0000ac04       ??_C@_0BF@DCGDNIND@glVertexAttribL1dEXT?$AA@ 10044c04     umodsys_lib_libui:umodsys.mod.ui.SDL_GL.obj
 0002:0000ac1c       ??_C@_0BG@IMNHMMJG@glVertexAttribL1dvEXT?$AA@ 10044c1c     umodsys_lib_libui:umodsys.mod.ui.SDL_GL.obj
 0002:0000ac34       ??_C@_0BF@LEPHKKHN@glVertexAttribL2dEXT?$AA@ 10044c34     umodsys_lib_libui:umodsys.mod.ui.SDL_GL.obj
 0002:0000ac4c       ??_C@_0BG@LNDPNGAL@glVertexAttribL2dvEXT?$AA@ 10044c4c     umodsys_lib_libui:umodsys.mod.ui.SDL_GL.obj
 0002:0000ac64       ??_C@_0BF@HPKLHJNI@glVertexAttribL3dEXT?$AA@ 10044c64     umodsys_lib_libui:umodsys.mod.ui.SDL_GL.obj
 0002:0000ac7c       ??_C@_0BG@BLEINNLP@glVertexAttribL3dvEXT?$AA@ 10044c7c     umodsys_lib_libui:umodsys.mod.ui.SDL_GL.obj
 0002:0000ac94       ??_C@_0BF@GCKOEJGA@glVertexAttribL4dEXT?$AA@ 10044c94     umodsys_lib_libui:umodsys.mod.ui.SDL_GL.obj
 0002:0000acac       ??_C@_0BG@NOOPODDB@glVertexAttribL4dvEXT?$AA@ 10044cac     umodsys_lib_libui:umodsys.mod.ui.SDL_GL.obj
 0002:0000acc4       ??_C@_0BK@MAKNHHDI@glVertexAttribLPointerEXT?$AA@ 10044cc4     umodsys_lib_libui:umodsys.mod.ui.SDL_GL.obj
 0002:0000ace0       ??_C@_0BF@OBIDKHLA@GL_EXT_vertex_shader?$AA@ 10044ce0     umodsys_lib_libui:umodsys.mod.ui.SDL_GL.obj
 0002:0000acf8       ??_C@_0BH@DBHOHHOM@glBeginVertexShaderEXT?$AA@ 10044cf8     umodsys_lib_libui:umodsys.mod.ui.SDL_GL.obj
 0002:0000ad10       ??_C@_0BI@PBIFACEG@glBindLightParameterEXT?$AA@ 10044d10     umodsys_lib_libui:umodsys.mod.ui.SDL_GL.obj
 0002:0000ad28       ??_C@_0BL@PJABJA@glBindMaterialParameterEXT?$AA@ 10044d28     umodsys_lib_libui:umodsys.mod.ui.SDL_GL.obj
 0002:0000ad44       ??_C@_0BD@GMIEHABM@glBindParameterEXT?$AA@ 10044d44     umodsys_lib_libui:umodsys.mod.ui.SDL_GL.obj
 0002:0000ad58       ??_C@_0BJ@HCMLCIKI@glBindTexGenParameterEXT?$AA@ 10044d58     umodsys_lib_libui:umodsys.mod.ui.SDL_GL.obj
 0002:0000ad74       ??_C@_0BO@GMKMPNFP@glBindTextureUnitParameterEXT?$AA@ 10044d74     umodsys_lib_libui:umodsys.mod.ui.SDL_GL.obj
 0002:0000ad94       ??_C@_0BG@OCJKPIFF@glBindVertexShaderEXT?$AA@ 10044d94     umodsys_lib_libui:umodsys.mod.ui.SDL_GL.obj
 0002:0000adac       ??_C@_0BI@FECIKLIE@glDeleteVertexShaderEXT?$AA@ 10044dac     umodsys_lib_libui:umodsys.mod.ui.SDL_GL.obj
 0002:0000adc4       ??_C@_0BP@IBHJIACF@glDisableVariantClientStateEXT?$AA@ 10044dc4     umodsys_lib_libui:umodsys.mod.ui.SDL_GL.obj
 0002:0000ade4       ??_C@_0BO@GCEAPMKD@glEnableVariantClientStateEXT?$AA@ 10044de4     umodsys_lib_libui:umodsys.mod.ui.SDL_GL.obj
 0002:0000ae04       ??_C@_0BF@LHBKPFPA@glEndVertexShaderEXT?$AA@ 10044e04     umodsys_lib_libui:umodsys.mod.ui.SDL_GL.obj
 0002:0000ae1c       ??_C@_0BG@IIKDNCFK@glExtractComponentEXT?$AA@ 10044e1c     umodsys_lib_libui:umodsys.mod.ui.SDL_GL.obj
 0002:0000ae34       ??_C@_0BA@FOBGFEBC@glGenSymbolsEXT?$AA@ 10044e34     umodsys_lib_libui:umodsys.mod.ui.SDL_GL.obj
 0002:0000ae44       ??_C@_0BG@JEGJGDJG@glGenVertexShadersEXT?$AA@ 10044e44     umodsys_lib_libui:umodsys.mod.ui.SDL_GL.obj
 0002:0000ae5c       ??_C@_0BK@EADAIGJC@glGetInvariantBooleanvEXT?$AA@ 10044e5c     umodsys_lib_libui:umodsys.mod.ui.SDL_GL.obj
 0002:0000ae78       ??_C@_0BI@GAJGBOMH@glGetInvariantFloatvEXT?$AA@ 10044e78     umodsys_lib_libui:umodsys.mod.ui.SDL_GL.obj
 0002:0000ae90       ??_C@_0BK@EBLPNAJG@glGetInvariantIntegervEXT?$AA@ 10044e90     umodsys_lib_libui:umodsys.mod.ui.SDL_GL.obj
 0002:0000aeac       ??_C@_0BO@KMEGCJCE@glGetLocalConstantBooleanvEXT?$AA@ 10044eac     umodsys_lib_libui:umodsys.mod.ui.SDL_GL.obj
 0002:0000aecc       ??_C@_0BM@OHCLJGJK@glGetLocalConstantFloatvEXT?$AA@ 10044ecc     umodsys_lib_libui:umodsys.mod.ui.SDL_GL.obj
 0002:0000aee8       ??_C@_0BO@KNMJHPCA@glGetLocalConstantIntegervEXT?$AA@ 10044ee8     umodsys_lib_libui:umodsys.mod.ui.SDL_GL.obj
 0002:0000af08       ??_C@_0BI@EPPMCFAN@glGetVariantBooleanvEXT?$AA@ 10044f08     umodsys_lib_libui:umodsys.mod.ui.SDL_GL.obj
 0002:0000af20       ??_C@_0BG@DGEKMCHD@glGetVariantFloatvEXT?$AA@ 10044f20     umodsys_lib_libui:umodsys.mod.ui.SDL_GL.obj
 0002:0000af38       ??_C@_0BI@EOHDHDAJ@glGetVariantIntegervEXT?$AA@ 10044f38     umodsys_lib_libui:umodsys.mod.ui.SDL_GL.obj
 0002:0000af50       ??_C@_0BI@LMHNNJOJ@glGetVariantPointervEXT?$AA@ 10044f50     umodsys_lib_libui:umodsys.mod.ui.SDL_GL.obj
 0002:0000af68       ??_C@_0BF@IKCGIIKN@glInsertComponentEXT?$AA@ 10044f68     umodsys_lib_libui:umodsys.mod.ui.SDL_GL.obj
 0002:0000af80       ??_C@_0BG@CLPIJBFD@glIsVariantEnabledEXT?$AA@ 10044f80     umodsys_lib_libui:umodsys.mod.ui.SDL_GL.obj
 0002:0000af98       ??_C@_0BC@NKPANFDC@glSetInvariantEXT?$AA@ 10044f98     umodsys_lib_libui:umodsys.mod.ui.SDL_GL.obj
 0002:0000afac       ??_C@_0BG@MJJEAAJC@glSetLocalConstantEXT?$AA@ 10044fac     umodsys_lib_libui:umodsys.mod.ui.SDL_GL.obj
 0002:0000afc4       ??_C@_0P@EJGAIAGI@glShaderOp1EXT?$AA@ 10044fc4     umodsys_lib_libui:umodsys.mod.ui.SDL_GL.obj
 0002:0000afd4       ??_C@_0P@OMAPKLI@glShaderOp2EXT?$AA@ 10044fd4     umodsys_lib_libui:umodsys.mod.ui.SDL_GL.obj
 0002:0000afe4       ??_C@_0P@DDKANDAI@glShaderOp3EXT?$AA@ 10044fe4     umodsys_lib_libui:umodsys.mod.ui.SDL_GL.obj
 0002:0000aff4       ??_C@_0N@OAIECMLP@glSwizzleEXT?$AA@ 10044ff4     umodsys_lib_libui:umodsys.mod.ui.SDL_GL.obj
 0002:0000b004       ??_C@_0BE@MLHCODFN@glVariantPointerEXT?$AA@ 10045004     umodsys_lib_libui:umodsys.mod.ui.SDL_GL.obj
 0002:0000b018       ??_C@_0P@HDFNIDJJ@glVariantbvEXT?$AA@ 10045018     umodsys_lib_libui:umodsys.mod.ui.SDL_GL.obj
 0002:0000b028       ??_C@_0P@KFAEGAIE@glVariantdvEXT?$AA@ 10045028     umodsys_lib_libui:umodsys.mod.ui.SDL_GL.obj
 0002:0000b038       ??_C@_0P@OIMMMBIP@glVariantfvEXT?$AA@ 10045038     umodsys_lib_libui:umodsys.mod.ui.SDL_GL.obj
 0002:0000b048       ??_C@_0P@BJJKHDFK@glVariantivEXT?$AA@ 10045048     umodsys_lib_libui:umodsys.mod.ui.SDL_GL.obj
 0002:0000b058       ??_C@_0P@LLNHFCKH@glVariantsvEXT?$AA@ 10045058     umodsys_lib_libui:umodsys.mod.ui.SDL_GL.obj
 0002:0000b068       ??_C@_0BA@CAKBLIIO@glVariantubvEXT?$AA@ 10045068     umodsys_lib_libui:umodsys.mod.ui.SDL_GL.obj
 0002:0000b078       ??_C@_0BA@EKGGEIEN@glVariantuivEXT?$AA@ 10045078     umodsys_lib_libui:umodsys.mod.ui.SDL_GL.obj
 0002:0000b088       ??_C@_0BA@OICLGJLA@glVariantusvEXT?$AA@ 10045088     umodsys_lib_libui:umodsys.mod.ui.SDL_GL.obj
 0002:0000b098       ??_C@_0P@MFMDCJBK@glWriteMaskEXT?$AA@ 10045098     umodsys_lib_libui:umodsys.mod.ui.SDL_GL.obj
 0002:0000b0a8       ??_C@_0BI@FHAFAFPN@GL_EXT_vertex_weighting?$AA@ 100450a8     umodsys_lib_libui:umodsys.mod.ui.SDL_GL.obj
 0002:0000b0c0       ??_C@_0BJ@KPGBLGAC@glVertexWeightPointerEXT?$AA@ 100450c0     umodsys_lib_libui:umodsys.mod.ui.SDL_GL.obj
 0002:0000b0dc       ??_C@_0BD@FPEAFNKI@glVertexWeightfEXT?$AA@ 100450dc     umodsys_lib_libui:umodsys.mod.ui.SDL_GL.obj
 0002:0000b0f0       ??_C@_0BE@ELGNEHKH@glVertexWeightfvEXT?$AA@ 100450f0     umodsys_lib_libui:umodsys.mod.ui.SDL_GL.obj
 0002:0000b104       ??_C@_0BH@KPBHOHAF@GL_EXT_x11_sync_object?$AA@ 10045104     umodsys_lib_libui:umodsys.mod.ui.SDL_GL.obj
 0002:0000b11c       ??_C@_0BA@JABFPGIF@glImportSyncEXT?$AA@ 1004511c     umodsys_lib_libui:umodsys.mod.ui.SDL_GL.obj
 0002:0000b12c       ??_C@_0CN@NOMCOKIC@Loaded?5?$CFd?1?$CFd?5functions?5from?5?$CFd?1?$CF@ 1004512c     umodsys_lib_libui:umodsys.mod.ui.SDL_GL.obj
 0002:0000b15c       ??_C@_0BB@ELFKBBCM@GL_VERSION_?$CFd_?$CFd?$AA@ 1004515c     umodsys_lib_libui:umodsys.mod.ui.SDL_GL.obj
 0002:0000b170       ??_C@_05KBEOJPB@?$CFd?4?$CFd?$AA@ 10045170     umodsys_lib_libui:umodsys.mod.ui.SDL_GL.obj
 0002:0000b178       ??_C@_07LNIJJMEN@glAccum?$AA@ 10045178     umodsys_lib_libui:umodsys.mod.ui.SDL_GL.obj
 0002:0000b180       ??_C@_0M@BJGLMKCC@glAlphaFunc?$AA@ 10045180     umodsys_lib_libui:umodsys.mod.ui.SDL_GL.obj
 0002:0000b18c       ??_C@_07FCOIFMD@glBegin?$AA@ 1004518c     umodsys_lib_libui:umodsys.mod.ui.SDL_GL.obj
 0002:0000b194       ??_C@_08PJOLDJDK@glBitmap?$AA@ 10045194     umodsys_lib_libui:umodsys.mod.ui.SDL_GL.obj
 0002:0000b1a0       ??_C@_0L@CIPLDIDL@glCallList?$AA@ 100451a0     umodsys_lib_libui:umodsys.mod.ui.SDL_GL.obj
 0002:0000b1ac       ??_C@_0M@LFDBDICJ@glCallLists?$AA@ 100451ac     umodsys_lib_libui:umodsys.mod.ui.SDL_GL.obj
 0002:0000b1b8       ??_C@_0N@OKAMEJMG@glClearAccum?$AA@ 100451b8     umodsys_lib_libui:umodsys.mod.ui.SDL_GL.obj
 0002:0000b1c8       ??_C@_0N@EIILHCMH@glClearIndex?$AA@ 100451c8     umodsys_lib_libui:umodsys.mod.ui.SDL_GL.obj
 0002:0000b1d8       ??_C@_0M@OHCNGGFF@glClipPlane?$AA@ 100451d8     umodsys_lib_libui:umodsys.mod.ui.SDL_GL.obj
 0002:0000b1e4       ??_C@_09JLHBBGHE@glColor3b?$AA@ 100451e4     umodsys_lib_libui:umodsys.mod.ui.SDL_GL.obj
 0002:0000b1f0       ??_C@_0L@COJGBKED@glColor3bv?$AA@ 100451f0     umodsys_lib_libui:umodsys.mod.ui.SDL_GL.obj
 0002:0000b1fc       ??_C@_09MNCLLBPC@glColor3d?$AA@ 100451fc     umodsys_lib_libui:umodsys.mod.ui.SDL_GL.obj
 0002:0000b208       ??_C@_0L@CKBLGGPB@glColor3dv?$AA@ 10045208     umodsys_lib_libui:umodsys.mod.ui.SDL_GL.obj
 0002:0000b214       ??_C@_09PPBNNDHA@glColor3f?$AA@ 10045214     umodsys_lib_libui:umodsys.mod.ui.SDL_GL.obj
 0002:0000b220       ??_C@_0L@CJJPLCJP@glColor3fv?$AA@ 10045220     umodsys_lib_libui:umodsys.mod.ui.SDL_GL.obj
 0002:0000b22c       ??_C@_09HIIFMPLP@glColor3i?$AA@ 1004522c     umodsys_lib_libui:umodsys.mod.ui.SDL_GL.obj
 0002:0000b238       ??_C@_0L@CCMDPFKC@glColor3iv?$AA@ 10045238     umodsys_lib_libui:umodsys.mod.ui.SDL_GL.obj
 0002:0000b244       ??_C@_09MIKIDFGE@glColor3s?$AA@ 10045244     umodsys_lib_libui:umodsys.mod.ui.SDL_GL.obj
 0002:0000b250       ??_C@_0L@DDHCNDAE@glColor3sv?$AA@ 10045250     umodsys_lib_libui:umodsys.mod.ui.SDL_GL.obj
 0002:0000b25c       ??_C@_0L@BJFBHIOD@glColor3ub?$AA@ 1004525c     umodsys_lib_libui:umodsys.mod.ui.SDL_GL.obj
 0002:0000b268       ??_C@_0M@EAHPDMMK@glColor3ubv?$AA@ 10045268     umodsys_lib_libui:umodsys.mod.ui.SDL_GL.obj
 0002:0000b274       ??_C@_0L@PKKFKBCI@glColor3ui?$AA@ 10045274     umodsys_lib_libui:umodsys.mod.ui.SDL_GL.obj
 0002:0000b280       ??_C@_0M@EMCKNDCL@glColor3uiv?$AA@ 10045280     umodsys_lib_libui:umodsys.mod.ui.SDL_GL.obj
 0002:0000b28c       ??_C@_0L@EKIIFLPD@glColor3us?$AA@ 1004528c     umodsys_lib_libui:umodsys.mod.ui.SDL_GL.obj
 0002:0000b298       ??_C@_0M@FNJLPFIN@glColor3usv?$AA@ 10045298     umodsys_lib_libui:umodsys.mod.ui.SDL_GL.obj
 0002:0000b2a4       ??_C@_09JODOAAPB@glColor4b?$AA@ 100452a4     umodsys_lib_libui:umodsys.mod.ui.SDL_GL.obj
 0002:0000b2b0       ??_C@_0L@LDEBCCPK@glColor4bv?$AA@ 100452b0     umodsys_lib_libui:umodsys.mod.ui.SDL_GL.obj
 0002:0000b2bc       ??_C@_09MIGEKHHH@glColor4d?$AA@ 100452bc     umodsys_lib_libui:umodsys.mod.ui.SDL_GL.obj
 0002:0000b2c8       ??_C@_0L@LHMMFOEI@glColor4dv?$AA@ 100452c8     umodsys_lib_libui:umodsys.mod.ui.SDL_GL.obj
 0002:0000b2d4       ??_C@_09PKFCMFPF@glColor4f?$AA@ 100452d4     umodsys_lib_libui:umodsys.mod.ui.SDL_GL.obj
 0002:0000b2e0       ??_C@_0L@LEEIIKCG@glColor4fv?$AA@ 100452e0     umodsys_lib_libui:umodsys.mod.ui.SDL_GL.obj
 0002:0000b2ec       ??_C@_09HNMKNJDK@glColor4i?$AA@ 100452ec     umodsys_lib_libui:umodsys.mod.ui.SDL_GL.obj
 0002:0000b2f8       ??_C@_0L@LPBEMNBL@glColor4iv?$AA@ 100452f8     umodsys_lib_libui:umodsys.mod.ui.SDL_GL.obj
 0002:0000b304       ??_C@_09MNOHCDOB@glColor4s?$AA@ 10045304     umodsys_lib_libui:umodsys.mod.ui.SDL_GL.obj
 0002:0000b310       ??_C@_0L@KOKFOLLN@glColor4sv?$AA@ 10045310     umodsys_lib_libui:umodsys.mod.ui.SDL_GL.obj
 0002:0000b31c       ??_C@_0L@IEIGEAFK@glColor4ub?$AA@ 1004531c     umodsys_lib_libui:umodsys.mod.ui.SDL_GL.obj
 0002:0000b328       ??_C@_0M@PCFPOANK@glColor4ubv?$AA@ 10045328     umodsys_lib_libui:umodsys.mod.ui.SDL_GL.obj
 0002:0000b334       ??_C@_0L@GHHCJJJB@glColor4ui?$AA@ 10045334     umodsys_lib_libui:umodsys.mod.ui.SDL_GL.obj
 0002:0000b340       ??_C@_0M@POAKAPDL@glColor4uiv?$AA@ 10045340     umodsys_lib_libui:umodsys.mod.ui.SDL_GL.obj
 0002:0000b34c       ??_C@_0L@NHFPGDEK@glColor4us?$AA@ 1004534c     umodsys_lib_libui:umodsys.mod.ui.SDL_GL.obj
 0002:0000b358       ??_C@_0M@OPLLCJJN@glColor4usv?$AA@ 10045358     umodsys_lib_libui:umodsys.mod.ui.SDL_GL.obj
 0002:0000b364       ??_C@_0BA@OOEHEGPC@glColorMaterial?$AA@ 10045364     umodsys_lib_libui:umodsys.mod.ui.SDL_GL.obj
 0002:0000b374       ??_C@_0N@OACCOOE@glCopyPixels?$AA@ 10045374     umodsys_lib_libui:umodsys.mod.ui.SDL_GL.obj
 0002:0000b384       ??_C@_0O@KPJIJAFM@glDeleteLists?$AA@ 10045384     umodsys_lib_libui:umodsys.mod.ui.SDL_GL.obj
 0002:0000b394       ??_C@_0N@FLFIHFDP@glDrawPixels?$AA@ 10045394     umodsys_lib_libui:umodsys.mod.ui.SDL_GL.obj
 0002:0000b3a4       ??_C@_0L@DFCKJEPI@glEdgeFlag?$AA@ 100453a4     umodsys_lib_libui:umodsys.mod.ui.SDL_GL.obj
 0002:0000b3b0       ??_C@_0M@MKDGIOMK@glEdgeFlagv?$AA@ 100453b0     umodsys_lib_libui:umodsys.mod.ui.SDL_GL.obj
 0002:0000b3bc       ??_C@_05OIBMBLHE@glEnd?$AA@ 100453bc     umodsys_lib_libui:umodsys.mod.ui.SDL_GL.obj
 0002:0000b3c4       ??_C@_09HKEBCLHH@glEndList?$AA@ 100453c4     umodsys_lib_libui:umodsys.mod.ui.SDL_GL.obj
 0002:0000b3d0       ??_C@_0O@FJBIDDKI@glEvalCoord1d?$AA@ 100453d0     umodsys_lib_libui:umodsys.mod.ui.SDL_GL.obj
 0002:0000b3e0       ??_C@_0P@KBDBONJJ@glEvalCoord1dv?$AA@ 100453e0     umodsys_lib_libui:umodsys.mod.ui.SDL_GL.obj
 0002:0000b3f0       ??_C@_0O@GLCOFBCK@glEvalCoord1f?$AA@ 100453f0     umodsys_lib_libui:umodsys.mod.ui.SDL_GL.obj
 0002:0000b400       ??_C@_0P@KCLFDJPH@glEvalCoord1fv?$AA@ 10045400     umodsys_lib_libui:umodsys.mod.ui.SDL_GL.obj
 0002:0000b410       ??_C@_0O@FLFOINPB@glEvalCoord2d?$AA@ 10045410     umodsys_lib_libui:umodsys.mod.ui.SDL_GL.obj
 0002:0000b420       ??_C@_0P@LDIEECHH@glEvalCoord2dv?$AA@ 10045420     umodsys_lib_libui:umodsys.mod.ui.SDL_GL.obj
 0002:0000b430       ??_C@_0O@GJGIOPHD@glEvalCoord2f?$AA@ 10045430     umodsys_lib_libui:umodsys.mod.ui.SDL_GL.obj
 0002:0000b440       ??_C@_0P@LAAAJGBJ@glEvalCoord2fv?$AA@ 10045440     umodsys_lib_libui:umodsys.mod.ui.SDL_GL.obj
 0002:0000b450       ??_C@_0M@DCFEDLDA@glEvalMesh1?$AA@ 10045450     umodsys_lib_libui:umodsys.mod.ui.SDL_GL.obj
 0002:0000b45c       ??_C@_0M@BJHJGIPD@glEvalMesh2?$AA@ 1004545c     umodsys_lib_libui:umodsys.mod.ui.SDL_GL.obj
 0002:0000b468       ??_C@_0N@DOEOCCJJ@glEvalPoint1?$AA@ 10045468     umodsys_lib_libui:umodsys.mod.ui.SDL_GL.obj
 0002:0000b478       ??_C@_0N@BFGDHBFK@glEvalPoint2?$AA@ 10045478     umodsys_lib_libui:umodsys.mod.ui.SDL_GL.obj
 0002:0000b488       ??_C@_0BB@COFAIKCN@glFeedbackBuffer?$AA@ 10045488     umodsys_lib_libui:umodsys.mod.ui.SDL_GL.obj
 0002:0000b49c       ??_C@_06JJHNMGPD@glFogf?$AA@ 1004549c     umodsys_lib_libui:umodsys.mod.ui.SDL_GL.obj
 0002:0000b4a4       ??_C@_07FNEIAABA@glFogfv?$AA@ 100454a4     umodsys_lib_libui:umodsys.mod.ui.SDL_GL.obj
 0002:0000b4ac       ??_C@_06BOOFNKDM@glFogi?$AA@ 100454ac     umodsys_lib_libui:umodsys.mod.ui.SDL_GL.obj
 0002:0000b4b4       ??_C@_07FGBEEHCN@glFogiv?$AA@ 100454b4     umodsys_lib_libui:umodsys.mod.ui.SDL_GL.obj
 0002:0000b4bc       ??_C@_09ICLFHOKP@glFrustum?$AA@ 100454bc     umodsys_lib_libui:umodsys.mod.ui.SDL_GL.obj
 0002:0000b4c8       ??_C@_0L@BNOFOEBP@glGenLists?$AA@ 100454c8     umodsys_lib_libui:umodsys.mod.ui.SDL_GL.obj
 0002:0000b4d4       ??_C@_0P@MMMNLMC@glGetClipPlane?$AA@ 100454d4     umodsys_lib_libui:umodsys.mod.ui.SDL_GL.obj
 0002:0000b4e4       ??_C@_0N@MGGMJGKA@glGetLightfv?$AA@ 100454e4     umodsys_lib_libui:umodsys.mod.ui.SDL_GL.obj
 0002:0000b4f4       ??_C@_0N@MNDANBJN@glGetLightiv?$AA@ 100454f4     umodsys_lib_libui:umodsys.mod.ui.SDL_GL.obj
 0002:0000b504       ??_C@_0L@FGIDEHCA@glGetMapdv?$AA@ 10045504     umodsys_lib_libui:umodsys.mod.ui.SDL_GL.obj
 0002:0000b510       ??_C@_0L@FFAHJDEO@glGetMapfv?$AA@ 10045510     umodsys_lib_libui:umodsys.mod.ui.SDL_GL.obj
 0002:0000b51c       ??_C@_0L@FOFLNEHD@glGetMapiv?$AA@ 1004551c     umodsys_lib_libui:umodsys.mod.ui.SDL_GL.obj
 0002:0000b528       ??_C@_0BA@GCPPEEDM@glGetMaterialfv?$AA@ 10045528     umodsys_lib_libui:umodsys.mod.ui.SDL_GL.obj
 0002:0000b538       ??_C@_0BA@GJKDADAB@glGetMaterialiv?$AA@ 10045538     umodsys_lib_libui:umodsys.mod.ui.SDL_GL.obj
 0002:0000b548       ??_C@_0BA@EDGNDGIE@glGetPixelMapfv?$AA@ 10045548     umodsys_lib_libui:umodsys.mod.ui.SDL_GL.obj
 0002:0000b558       ??_C@_0BB@MGCFOIED@glGetPixelMapuiv?$AA@ 10045558     umodsys_lib_libui:umodsys.mod.ui.SDL_GL.obj
 0002:0000b56c       ??_C@_0BB@NHJEMOOF@glGetPixelMapusv?$AA@ 1004556c     umodsys_lib_libui:umodsys.mod.ui.SDL_GL.obj
 0002:0000b580       ??_C@_0BE@PBJHLEJI@glGetPolygonStipple?$AA@ 10045580     umodsys_lib_libui:umodsys.mod.ui.SDL_GL.obj
 0002:0000b594       ??_C@_0O@KDAJGFCL@glGetTexEnvfv?$AA@ 10045594     umodsys_lib_libui:umodsys.mod.ui.SDL_GL.obj
 0002:0000b5a4       ??_C@_0O@KIFFCCBG@glGetTexEnviv?$AA@ 100455a4     umodsys_lib_libui:umodsys.mod.ui.SDL_GL.obj
 0002:0000b5b4       ??_C@_0O@PDIFOCP@glGetTexGendv?$AA@ 100455b4     umodsys_lib_libui:umodsys.mod.ui.SDL_GL.obj
 0002:0000b5c4       ??_C@_0O@MLMIKEB@glGetTexGenfv?$AA@ 100455c4     umodsys_lib_libui:umodsys.mod.ui.SDL_GL.obj
 0002:0000b5d4       ??_C@_0O@HOAMNHM@glGetTexGeniv?$AA@ 100455d4     umodsys_lib_libui:umodsys.mod.ui.SDL_GL.obj
 0002:0000b5e4       ??_C@_0M@ONDJOEOA@glIndexMask?$AA@ 100455e4     umodsys_lib_libui:umodsys.mod.ui.SDL_GL.obj
 0002:0000b5f0       ??_C@_08HOOEKNLP@glIndexd?$AA@ 100455f0     umodsys_lib_libui:umodsys.mod.ui.SDL_GL.obj
 0002:0000b5fc       ??_C@_09CCMFJEMA@glIndexdv?$AA@ 100455fc     umodsys_lib_libui:umodsys.mod.ui.SDL_GL.obj
 0002:0000b608       ??_C@_08EMNCMPDN@glIndexf?$AA@ 10045608     umodsys_lib_libui:umodsys.mod.ui.SDL_GL.obj
 0002:0000b614       ??_C@_09CBEBEAKO@glIndexfv?$AA@ 10045614     umodsys_lib_libui:umodsys.mod.ui.SDL_GL.obj
 0002:0000b620       ??_C@_08MLEKNDPC@glIndexi?$AA@ 10045620     umodsys_lib_libui:umodsys.mod.ui.SDL_GL.obj
 0002:0000b62c       ??_C@_09CKBNAHJD@glIndexiv?$AA@ 1004562c     umodsys_lib_libui:umodsys.mod.ui.SDL_GL.obj
 0002:0000b638       ??_C@_08HLGHCJCJ@glIndexs?$AA@ 10045638     umodsys_lib_libui:umodsys.mod.ui.SDL_GL.obj
 0002:0000b644       ??_C@_09DLKMCBDF@glIndexsv?$AA@ 10045644     umodsys_lib_libui:umodsys.mod.ui.SDL_GL.obj
 0002:0000b650       ??_C@_0M@LBOBLINN@glInitNames?$AA@ 10045650     umodsys_lib_libui:umodsys.mod.ui.SDL_GL.obj
 0002:0000b65c       ??_C@_08DMFMJKDH@glIsList?$AA@ 1004565c     umodsys_lib_libui:umodsys.mod.ui.SDL_GL.obj
 0002:0000b668       ??_C@_0O@HPCJLAII@glLightModelf?$AA@ 10045668     umodsys_lib_libui:umodsys.mod.ui.SDL_GL.obj
 0002:0000b678       ??_C@_0P@JKHJPMNC@glLightModelfv?$AA@ 10045678     umodsys_lib_libui:umodsys.mod.ui.SDL_GL.obj
 0002:0000b688       ??_C@_0O@PILBKMEH@glLightModeli?$AA@ 10045688     umodsys_lib_libui:umodsys.mod.ui.SDL_GL.obj
 0002:0000b698       ??_C@_0P@JBCFLLOP@glLightModeliv?$AA@ 10045698     umodsys_lib_libui:umodsys.mod.ui.SDL_GL.obj
 0002:0000b6a8       ??_C@_08LPDPILEL@glLightf?$AA@ 100456a8     umodsys_lib_libui:umodsys.mod.ui.SDL_GL.obj
 0002:0000b6b4       ??_C@_09JINEHJOD@glLightfv?$AA@ 100456b4     umodsys_lib_libui:umodsys.mod.ui.SDL_GL.obj
 0002:0000b6c0       ??_C@_08DIKHJHIE@glLighti?$AA@ 100456c0     umodsys_lib_libui:umodsys.mod.ui.SDL_GL.obj
 0002:0000b6cc       ??_C@_09JDIIDONO@glLightiv?$AA@ 100456cc     umodsys_lib_libui:umodsys.mod.ui.SDL_GL.obj
 0002:0000b6d8       ??_C@_0O@LDOINBOK@glLineStipple?$AA@ 100456d8     umodsys_lib_libui:umodsys.mod.ui.SDL_GL.obj
 0002:0000b6e8       ??_C@_0L@HDOJDFBA@glListBase?$AA@ 100456e8     umodsys_lib_libui:umodsys.mod.ui.SDL_GL.obj
 0002:0000b6f4       ??_C@_0P@EJAFHEPO@glLoadIdentity?$AA@ 100456f4     umodsys_lib_libui:umodsys.mod.ui.SDL_GL.obj
 0002:0000b704       ??_C@_0O@LFHKEMK@glLoadMatrixd?$AA@ 10045704     umodsys_lib_libui:umodsys.mod.ui.SDL_GL.obj
 0002:0000b714       ??_C@_0O@DJGBMGEI@glLoadMatrixf?$AA@ 10045714     umodsys_lib_libui:umodsys.mod.ui.SDL_GL.obj
 0002:0000b724       ??_C@_0L@JFFJNAJA@glLoadName?$AA@ 10045724     umodsys_lib_libui:umodsys.mod.ui.SDL_GL.obj
 0002:0000b730       ??_C@_07FEHGGJHC@glMap1d?$AA@ 10045730     umodsys_lib_libui:umodsys.mod.ui.SDL_GL.obj
 0002:0000b738       ??_C@_07GGEAALPA@glMap1f?$AA@ 10045738     umodsys_lib_libui:umodsys.mod.ui.SDL_GL.obj
 0002:0000b740       ??_C@_07FGDANHCL@glMap2d?$AA@ 10045740     umodsys_lib_libui:umodsys.mod.ui.SDL_GL.obj
 0002:0000b748       ??_C@_07GEAGLFKJ@glMap2f?$AA@ 10045748     umodsys_lib_libui:umodsys.mod.ui.SDL_GL.obj
 0002:0000b750       ??_C@_0M@MNDKIDNO@glMapGrid1d?$AA@ 10045750     umodsys_lib_libui:umodsys.mod.ui.SDL_GL.obj
 0002:0000b75c       ??_C@_0M@PPAMOBFM@glMapGrid1f?$AA@ 1004575c     umodsys_lib_libui:umodsys.mod.ui.SDL_GL.obj
 0002:0000b768       ??_C@_0M@MPHMDNIH@glMapGrid2d?$AA@ 10045768     umodsys_lib_libui:umodsys.mod.ui.SDL_GL.obj
 0002:0000b774       ??_C@_0M@PNEKFPAF@glMapGrid2f?$AA@ 10045774     umodsys_lib_libui:umodsys.mod.ui.SDL_GL.obj
 0002:0000b780       ??_C@_0M@HANOIKMC@glMaterialf?$AA@ 10045780     umodsys_lib_libui:umodsys.mod.ui.SDL_GL.obj
 0002:0000b78c       ??_C@_0N@MHPKDGG@glMaterialfv?$AA@ 1004578c     umodsys_lib_libui:umodsys.mod.ui.SDL_GL.obj
 0002:0000b79c       ??_C@_0M@PHEGJGAN@glMateriali?$AA@ 1004579c     umodsys_lib_libui:umodsys.mod.ui.SDL_GL.obj
 0002:0000b7a8       ??_C@_0N@HCDOEFL@glMaterialiv?$AA@ 100457a8     umodsys_lib_libui:umodsys.mod.ui.SDL_GL.obj
 0002:0000b7b8       ??_C@_0N@KDLNHKEJ@glMatrixMode?$AA@ 100457b8     umodsys_lib_libui:umodsys.mod.ui.SDL_GL.obj
 0002:0000b7c8       ??_C@_0O@IFJFLNCL@glMultMatrixd?$AA@ 100457c8     umodsys_lib_libui:umodsys.mod.ui.SDL_GL.obj
 0002:0000b7d8       ??_C@_0O@LHKDNPKJ@glMultMatrixf?$AA@ 100457d8     umodsys_lib_libui:umodsys.mod.ui.SDL_GL.obj
 0002:0000b7e8       ??_C@_09KAGOBDOO@glNewList?$AA@ 100457e8     umodsys_lib_libui:umodsys.mod.ui.SDL_GL.obj
 0002:0000b7f4       ??_C@_0L@FCAONKPI@glNormal3b?$AA@ 100457f4     umodsys_lib_libui:umodsys.mod.ui.SDL_GL.obj
 0002:0000b800       ??_C@_0M@MKFBKKIE@glNormal3bv?$AA@ 10045800     umodsys_lib_libui:umodsys.mod.ui.SDL_GL.obj
 0002:0000b80c       ??_C@_0L@EFEHNHO@glNormal3d?$AA@ 1004580c     umodsys_lib_libui:umodsys.mod.ui.SDL_GL.obj
 0002:0000b818       ??_C@_0M@MONMNGDG@glNormal3dv?$AA@ 10045818     umodsys_lib_libui:umodsys.mod.ui.SDL_GL.obj
 0002:0000b824       ??_C@_0L@DGGCBPPM@glNormal3f?$AA@ 10045824     umodsys_lib_libui:umodsys.mod.ui.SDL_GL.obj
 0002:0000b830       ??_C@_0M@MNFIACFI@glNormal3fv?$AA@ 10045830     umodsys_lib_libui:umodsys.mod.ui.SDL_GL.obj
 0002:0000b83c       ??_C@_0L@LBPKADDD@glNormal3i?$AA@ 1004583c     umodsys_lib_libui:umodsys.mod.ui.SDL_GL.obj
 0002:0000b848       ??_C@_0M@MGAEEFGF@glNormal3iv?$AA@ 10045848     umodsys_lib_libui:umodsys.mod.ui.SDL_GL.obj
 0002:0000b854       ??_C@_0L@BNHPJOI@glNormal3s?$AA@ 10045854     umodsys_lib_libui:umodsys.mod.ui.SDL_GL.obj
 0002:0000b860       ??_C@_0M@NHLFGDMD@glNormal3sv?$AA@ 10045860     umodsys_lib_libui:umodsys.mod.ui.SDL_GL.obj
 0002:0000b86c       ??_C@_07DBAFHOII@glOrtho?$AA@ 1004586c     umodsys_lib_libui:umodsys.mod.ui.SDL_GL.obj
 0002:0000b874       ??_C@_0O@KCIMMNEH@glPassThrough?$AA@ 10045874     umodsys_lib_libui:umodsys.mod.ui.SDL_GL.obj
 0002:0000b884       ??_C@_0N@CNONNBNO@glPixelMapfv?$AA@ 10045884     umodsys_lib_libui:umodsys.mod.ui.SDL_GL.obj
 0002:0000b894       ??_C@_0O@ENPFNAEO@glPixelMapuiv?$AA@ 10045894     umodsys_lib_libui:umodsys.mod.ui.SDL_GL.obj
 0002:0000b8a4       ??_C@_0O@FMEEPGOI@glPixelMapusv?$AA@ 100458a4     umodsys_lib_libui:umodsys.mod.ui.SDL_GL.obj
 0002:0000b8b4       ??_C@_0BB@HFCIPEN@glPixelTransferf?$AA@ 100458b4     umodsys_lib_libui:umodsys.mod.ui.SDL_GL.obj
 0002:0000b8c8       ??_C@_0BB@IAMKJDIC@glPixelTransferi?$AA@ 100458c8     umodsys_lib_libui:umodsys.mod.ui.SDL_GL.obj
 0002:0000b8dc       ??_C@_0M@JAMJIGNB@glPixelZoom?$AA@ 100458dc     umodsys_lib_libui:umodsys.mod.ui.SDL_GL.obj
 0002:0000b8e8       ??_C@_0BB@GIADEJGP@glPolygonStipple?$AA@ 100458e8     umodsys_lib_libui:umodsys.mod.ui.SDL_GL.obj
 0002:0000b8fc       ??_C@_0M@LLNGAHMN@glPopAttrib?$AA@ 100458fc     umodsys_lib_libui:umodsys.mod.ui.SDL_GL.obj
 0002:0000b908       ??_C@_0M@JPEAAEEK@glPopMatrix?$AA@ 10045908     umodsys_lib_libui:umodsys.mod.ui.SDL_GL.obj
 0002:0000b914       ??_C@_09IKDPIJOE@glPopName?$AA@ 10045914     umodsys_lib_libui:umodsys.mod.ui.SDL_GL.obj
 0002:0000b920       ??_C@_0N@KDMLHFJM@glPushAttrib?$AA@ 10045920     umodsys_lib_libui:umodsys.mod.ui.SDL_GL.obj
 0002:0000b930       ??_C@_0N@IHFNHGBL@glPushMatrix?$AA@ 10045930     umodsys_lib_libui:umodsys.mod.ui.SDL_GL.obj
 0002:0000b940       ??_C@_0L@LFFFABIK@glPushName?$AA@ 10045940     umodsys_lib_libui:umodsys.mod.ui.SDL_GL.obj
 0002:0000b94c       ??_C@_0O@JNCPGME@glRasterPos2d?$AA@ 1004594c     umodsys_lib_libui:umodsys.mod.ui.SDL_GL.obj
 0002:0000b95c       ??_C@_0P@OFGFAKCP@glRasterPos2dv?$AA@ 1004595c     umodsys_lib_libui:umodsys.mod.ui.SDL_GL.obj
 0002:0000b96c       ??_C@_0O@DLOEJEEG@glRasterPos2f?$AA@ 1004596c     umodsys_lib_libui:umodsys.mod.ui.SDL_GL.obj
 0002:0000b97c       ??_C@_0P@OGOBNOEB@glRasterPos2fv?$AA@ 1004597c     umodsys_lib_libui:umodsys.mod.ui.SDL_GL.obj
 0002:0000b98c       ??_C@_0O@LMHMIIIJ@glRasterPos2i?$AA@ 1004598c     umodsys_lib_libui:umodsys.mod.ui.SDL_GL.obj
 0002:0000b99c       ??_C@_0P@ONLNJJHM@glRasterPos2iv?$AA@ 1004599c     umodsys_lib_libui:umodsys.mod.ui.SDL_GL.obj
 0002:0000b9ac       ??_C@_0O@MFBHCFC@glRasterPos2s?$AA@ 100459ac     umodsys_lib_libui:umodsys.mod.ui.SDL_GL.obj
 0002:0000b9bc       ??_C@_0P@PMAMLPNK@glRasterPos2sv?$AA@ 100459bc     umodsys_lib_libui:umodsys.mod.ui.SDL_GL.obj
 0002:0000b9cc       ??_C@_0O@IBAJMPD@glRasterPos3d?$AA@ 100459cc     umodsys_lib_libui:umodsys.mod.ui.SDL_GL.obj
 0002:0000b9dc       ??_C@_0P@FNNJGNEK@glRasterPos3dv?$AA@ 100459dc     umodsys_lib_libui:umodsys.mod.ui.SDL_GL.obj
 0002:0000b9ec       ??_C@_0O@DKCGPOHB@glRasterPos3f?$AA@ 100459ec     umodsys_lib_libui:umodsys.mod.ui.SDL_GL.obj
 0002:0000b9fc       ??_C@_0P@FOFNLJCE@glRasterPos3fv?$AA@ 100459fc     umodsys_lib_libui:umodsys.mod.ui.SDL_GL.obj
 0002:0000ba0c       ??_C@_0O@LNLOOCLO@glRasterPos3i?$AA@ 10045a0c     umodsys_lib_libui:umodsys.mod.ui.SDL_GL.obj
 0002:0000ba1c       ??_C@_0P@FFABPOBJ@glRasterPos3iv?$AA@ 10045a1c     umodsys_lib_libui:umodsys.mod.ui.SDL_GL.obj
 0002:0000ba2c       ??_C@_0O@NJDBIGF@glRasterPos3s?$AA@ 10045a2c     umodsys_lib_libui:umodsys.mod.ui.SDL_GL.obj
 0002:0000ba3c       ??_C@_0P@EELANILP@glRasterPos3sv?$AA@ 10045a3c     umodsys_lib_libui:umodsys.mod.ui.SDL_GL.obj
 0002:0000ba4c       ??_C@_0O@NFPIKHG@glRasterPos4d?$AA@ 10045a4c     umodsys_lib_libui:umodsys.mod.ui.SDL_GL.obj
 0002:0000ba5c       ??_C@_0P@MAAOFFPD@glRasterPos4dv?$AA@ 10045a5c     umodsys_lib_libui:umodsys.mod.ui.SDL_GL.obj
 0002:0000ba6c       ??_C@_0O@DPGJOIPE@glRasterPos4f?$AA@ 10045a6c     umodsys_lib_libui:umodsys.mod.ui.SDL_GL.obj
 0002:0000ba7c       ??_C@_0P@MDIKIBJN@glRasterPos4fv?$AA@ 10045a7c     umodsys_lib_libui:umodsys.mod.ui.SDL_GL.obj
 0002:0000ba8c       ??_C@_0O@LIPBPEDL@glRasterPos4i?$AA@ 10045a8c     umodsys_lib_libui:umodsys.mod.ui.SDL_GL.obj
 0002:0000ba9c       ??_C@_0P@MINGMGKA@glRasterPos4iv?$AA@ 10045a9c     umodsys_lib_libui:umodsys.mod.ui.SDL_GL.obj
 0002:0000baac       ??_C@_0O@INMAOOA@glRasterPos4s?$AA@ 10045aac     umodsys_lib_libui:umodsys.mod.ui.SDL_GL.obj
 0002:0000babc       ??_C@_0P@NJGHOAAG@glRasterPos4sv?$AA@ 10045abc     umodsys_lib_libui:umodsys.mod.ui.SDL_GL.obj
 0002:0000bacc       ??_C@_07GHILMIKG@glRectd?$AA@ 10045acc     umodsys_lib_libui:umodsys.mod.ui.SDL_GL.obj
 0002:0000bad4       ??_C@_08EGLHFDGF@glRectdv?$AA@ 10045ad4     umodsys_lib_libui:umodsys.mod.ui.SDL_GL.obj
 0002:0000bae0       ??_C@_07FFLNKKCE@glRectf?$AA@ 10045ae0     umodsys_lib_libui:umodsys.mod.ui.SDL_GL.obj
 0002:0000bae8       ??_C@_08EFDDIHAL@glRectfv?$AA@ 10045ae8     umodsys_lib_libui:umodsys.mod.ui.SDL_GL.obj
 0002:0000baf4       ??_C@_07NCCFLGOL@glRecti?$AA@ 10045af4     umodsys_lib_libui:umodsys.mod.ui.SDL_GL.obj
 0002:0000bafc       ??_C@_08EOGPMADG@glRectiv?$AA@ 10045afc     umodsys_lib_libui:umodsys.mod.ui.SDL_GL.obj
 0002:0000bb08       ??_C@_07GCAIEMDA@glRects?$AA@ 10045b08     umodsys_lib_libui:umodsys.mod.ui.SDL_GL.obj
 0002:0000bb10       ??_C@_08FPNOOGJA@glRectsv?$AA@ 10045b10     umodsys_lib_libui:umodsys.mod.ui.SDL_GL.obj
 0002:0000bb1c       ??_C@_0N@HCFJFDGP@glRenderMode?$AA@ 10045b1c     umodsys_lib_libui:umodsys.mod.ui.SDL_GL.obj
 0002:0000bb2c       ??_C@_09GANFLDAO@glRotated?$AA@ 10045b2c     umodsys_lib_libui:umodsys.mod.ui.SDL_GL.obj
 0002:0000bb38       ??_C@_09FCODNBIM@glRotatef?$AA@ 10045b38     umodsys_lib_libui:umodsys.mod.ui.SDL_GL.obj
 0002:0000bb44       ??_C@_08KAMCINDI@glScaled?$AA@ 10045b44     umodsys_lib_libui:umodsys.mod.ui.SDL_GL.obj
 0002:0000bb50       ??_C@_08JCPEOPLK@glScalef?$AA@ 10045b50     umodsys_lib_libui:umodsys.mod.ui.SDL_GL.obj
 0002:0000bb5c       ??_C@_0P@KACPMBCN@glSelectBuffer?$AA@ 10045b5c     umodsys_lib_libui:umodsys.mod.ui.SDL_GL.obj
 0002:0000bb6c       ??_C@_0N@NALMFHKN@glShadeModel?$AA@ 10045b6c     umodsys_lib_libui:umodsys.mod.ui.SDL_GL.obj
 0002:0000bb7c       ??_C@_0N@CKKBPCNP@glTexCoord1d?$AA@ 10045b7c     umodsys_lib_libui:umodsys.mod.ui.SDL_GL.obj
 0002:0000bb8c       ??_C@_0O@GPCDLAMH@glTexCoord1dv?$AA@ 10045b8c     umodsys_lib_libui:umodsys.mod.ui.SDL_GL.obj
 0002:0000bb9c       ??_C@_0N@BIJHJAFN@glTexCoord1f?$AA@ 10045b9c     umodsys_lib_libui:umodsys.mod.ui.SDL_GL.obj
 0002:0000bbac       ??_C@_0O@GMKHGEKJ@glTexCoord1fv?$AA@ 10045bac     umodsys_lib_libui:umodsys.mod.ui.SDL_GL.obj
 0002:0000bbbc       ??_C@_0N@JPAPIMJC@glTexCoord1i?$AA@ 10045bbc     umodsys_lib_libui:umodsys.mod.ui.SDL_GL.obj
 0002:0000bbcc       ??_C@_0O@GHPLCDJE@glTexCoord1iv?$AA@ 10045bcc     umodsys_lib_libui:umodsys.mod.ui.SDL_GL.obj
 0002:0000bbdc       ??_C@_0N@CPCCHGEJ@glTexCoord1s?$AA@ 10045bdc     umodsys_lib_libui:umodsys.mod.ui.SDL_GL.obj
 0002:0000bbec       ??_C@_0O@HGEKAFDC@glTexCoord1sv?$AA@ 10045bec     umodsys_lib_libui:umodsys.mod.ui.SDL_GL.obj
 0002:0000bbfc       ??_C@_0N@CIOHEMIG@glTexCoord2d?$AA@ 10045bfc     umodsys_lib_libui:umodsys.mod.ui.SDL_GL.obj
 0002:0000bc0c       ??_C@_0O@HNJGBPCJ@glTexCoord2dv?$AA@ 10045c0c     umodsys_lib_libui:umodsys.mod.ui.SDL_GL.obj
 0002:0000bc1c       ??_C@_0N@BKNBCOAE@glTexCoord2f?$AA@ 10045c1c     umodsys_lib_libui:umodsys.mod.ui.SDL_GL.obj
 0002:0000bc2c       ??_C@_0O@HOBCMLEH@glTexCoord2fv?$AA@ 10045c2c     umodsys_lib_libui:umodsys.mod.ui.SDL_GL.obj
 0002:0000bc3c       ??_C@_0N@JNEJDCML@glTexCoord2i?$AA@ 10045c3c     umodsys_lib_libui:umodsys.mod.ui.SDL_GL.obj
 0002:0000bc4c       ??_C@_0O@HFEOIMHK@glTexCoord2iv?$AA@ 10045c4c     umodsys_lib_libui:umodsys.mod.ui.SDL_GL.obj
 0002:0000bc5c       ??_C@_0N@CNGEMIBA@glTexCoord2s?$AA@ 10045c5c     umodsys_lib_libui:umodsys.mod.ui.SDL_GL.obj
 0002:0000bc6c       ??_C@_0O@GEPPKKNM@glTexCoord2sv?$AA@ 10045c6c     umodsys_lib_libui:umodsys.mod.ui.SDL_GL.obj
 0002:0000bc7c       ??_C@_0N@CJCFCGLB@glTexCoord3d?$AA@ 10045c7c     umodsys_lib_libui:umodsys.mod.ui.SDL_GL.obj
 0002:0000bc8c       ??_C@_0O@MFCKHIEM@glTexCoord3dv?$AA@ 10045c8c     umodsys_lib_libui:umodsys.mod.ui.SDL_GL.obj
 0002:0000bc9c       ??_C@_0N@BLBDEEDD@glTexCoord3f?$AA@ 10045c9c     umodsys_lib_libui:umodsys.mod.ui.SDL_GL.obj
 0002:0000bcac       ??_C@_0O@MGKOKMCC@glTexCoord3fv?$AA@ 10045cac     umodsys_lib_libui:umodsys.mod.ui.SDL_GL.obj
 0002:0000bcbc       ??_C@_0N@JMILFIPM@glTexCoord3i?$AA@ 10045cbc     umodsys_lib_libui:umodsys.mod.ui.SDL_GL.obj
 0002:0000bccc       ??_C@_0O@MNPCOLBP@glTexCoord3iv?$AA@ 10045ccc     umodsys_lib_libui:umodsys.mod.ui.SDL_GL.obj
 0002:0000bcdc       ??_C@_0N@CMKGKCCH@glTexCoord3s?$AA@ 10045cdc     umodsys_lib_libui:umodsys.mod.ui.SDL_GL.obj
 0002:0000bcec       ??_C@_0O@NMEDMNLJ@glTexCoord3sv?$AA@ 10045cec     umodsys_lib_libui:umodsys.mod.ui.SDL_GL.obj
 0002:0000bcfc       ??_C@_0N@CMGKDADE@glTexCoord4d?$AA@ 10045cfc     umodsys_lib_libui:umodsys.mod.ui.SDL_GL.obj
 0002:0000bd0c       ??_C@_0O@FIPNEAPF@glTexCoord4dv?$AA@ 10045d0c     umodsys_lib_libui:umodsys.mod.ui.SDL_GL.obj
 0002:0000bd1c       ??_C@_0N@BOFMFCLG@glTexCoord4f?$AA@ 10045d1c     umodsys_lib_libui:umodsys.mod.ui.SDL_GL.obj
 0002:0000bd2c       ??_C@_0O@FLHJJEJL@glTexCoord4fv?$AA@ 10045d2c     umodsys_lib_libui:umodsys.mod.ui.SDL_GL.obj
 0002:0000bd3c       ??_C@_0N@JJMEEOHJ@glTexCoord4i?$AA@ 10045d3c     umodsys_lib_libui:umodsys.mod.ui.SDL_GL.obj
 0002:0000bd4c       ??_C@_0O@FACFNDKG@glTexCoord4iv?$AA@ 10045d4c     umodsys_lib_libui:umodsys.mod.ui.SDL_GL.obj
 0002:0000bd5c       ??_C@_0N@CJOJLEKC@glTexCoord4s?$AA@ 10045d5c     umodsys_lib_libui:umodsys.mod.ui.SDL_GL.obj
 0002:0000bd6c       ??_C@_0O@EBJEPFAA@glTexCoord4sv?$AA@ 10045d6c     umodsys_lib_libui:umodsys.mod.ui.SDL_GL.obj
 0002:0000bd7c       ??_C@_09FCLLGECI@glTexEnvf?$AA@ 10045d7c     umodsys_lib_libui:umodsys.mod.ui.SDL_GL.obj
 0002:0000bd88       ??_C@_0L@EMICMNOO@glTexEnvfv?$AA@ 10045d88     umodsys_lib_libui:umodsys.mod.ui.SDL_GL.obj
 0002:0000bd94       ??_C@_09NFCDHIOH@glTexEnvi?$AA@ 10045d94     umodsys_lib_libui:umodsys.mod.ui.SDL_GL.obj
 0002:0000bda0       ??_C@_0L@EHNOIKND@glTexEnviv?$AA@ 10045da0     umodsys_lib_libui:umodsys.mod.ui.SDL_GL.obj
 0002:0000bdac       ??_C@_09NPHJCAAD@glTexGend?$AA@ 10045dac     umodsys_lib_libui:umodsys.mod.ui.SDL_GL.obj
 0002:0000bdb8       ??_C@_0L@OALDPGOK@glTexGendv?$AA@ 10045db8     umodsys_lib_libui:umodsys.mod.ui.SDL_GL.obj
 0002:0000bdc4       ??_C@_09ONEPECIB@glTexGenf?$AA@ 10045dc4     umodsys_lib_libui:umodsys.mod.ui.SDL_GL.obj
 0002:0000bdd0       ??_C@_0L@ODDHCCIE@glTexGenfv?$AA@ 10045dd0     umodsys_lib_libui:umodsys.mod.ui.SDL_GL.obj
 0002:0000bddc       ??_C@_09GKNHFOEO@glTexGeni?$AA@ 10045ddc     umodsys_lib_libui:umodsys.mod.ui.SDL_GL.obj
 0002:0000bde8       ??_C@_0L@OIGLGFLJ@glTexGeniv?$AA@ 10045de8     umodsys_lib_libui:umodsys.mod.ui.SDL_GL.obj
 0002:0000bdf4       ??_C@_0N@LHMFFDFG@glTranslated?$AA@ 10045df4     umodsys_lib_libui:umodsys.mod.ui.SDL_GL.obj
 0002:0000be04       ??_C@_0N@IFPDDBNE@glTranslatef?$AA@ 10045e04     umodsys_lib_libui:umodsys.mod.ui.SDL_GL.obj
 0002:0000be14       ??_C@_0L@INGMNOLD@glVertex2d?$AA@ 10045e14     umodsys_lib_libui:umodsys.mod.ui.SDL_GL.obj
 0002:0000be20       ??_C@_0M@CLIAFAJI@glVertex2dv?$AA@ 10045e20     umodsys_lib_libui:umodsys.mod.ui.SDL_GL.obj
 0002:0000be2c       ??_C@_0L@LPFKLMDB@glVertex2f?$AA@ 10045e2c     umodsys_lib_libui:umodsys.mod.ui.SDL_GL.obj
 0002:0000be38       ??_C@_0M@CIAEIEPG@glVertex2fv?$AA@ 10045e38     umodsys_lib_libui:umodsys.mod.ui.SDL_GL.obj
 0002:0000be44       ??_C@_0L@DIMCKAPO@glVertex2i?$AA@ 10045e44     umodsys_lib_libui:umodsys.mod.ui.SDL_GL.obj
 0002:0000be50       ??_C@_0M@CDFIMDML@glVertex2iv?$AA@ 10045e50     umodsys_lib_libui:umodsys.mod.ui.SDL_GL.obj
 0002:0000be5c       ??_C@_0L@IIOPFKCF@glVertex2s?$AA@ 10045e5c     umodsys_lib_libui:umodsys.mod.ui.SDL_GL.obj
 0002:0000be68       ??_C@_0M@DCOJOFGN@glVertex2sv?$AA@ 10045e68     umodsys_lib_libui:umodsys.mod.ui.SDL_GL.obj
 0002:0000be74       ??_C@_0L@IMKOLEIE@glVertex3d?$AA@ 10045e74     umodsys_lib_libui:umodsys.mod.ui.SDL_GL.obj
 0002:0000be80       ??_C@_0M@JDDMDHPN@glVertex3dv?$AA@ 10045e80     umodsys_lib_libui:umodsys.mod.ui.SDL_GL.obj
 0002:0000be8c       ??_C@_0L@LOJINGAG@glVertex3f?$AA@ 10045e8c     umodsys_lib_libui:umodsys.mod.ui.SDL_GL.obj
 0002:0000be98       ??_C@_0M@JALIODJD@glVertex3fv?$AA@ 10045e98     umodsys_lib_libui:umodsys.mod.ui.SDL_GL.obj
 0002:0000bea4       ??_C@_0L@DJAAMKMJ@glVertex3i?$AA@ 10045ea4     umodsys_lib_libui:umodsys.mod.ui.SDL_GL.obj
 0002:0000beb0       ??_C@_0M@JLOEKEKO@glVertex3iv?$AA@ 10045eb0     umodsys_lib_libui:umodsys.mod.ui.SDL_GL.obj
 0002:0000bebc       ??_C@_0L@IJCNDABC@glVertex3s?$AA@ 10045ebc     umodsys_lib_libui:umodsys.mod.ui.SDL_GL.obj
 0002:0000bec8       ??_C@_0M@IKFFICAI@glVertex3sv?$AA@ 10045ec8     umodsys_lib_libui:umodsys.mod.ui.SDL_GL.obj
 0002:0000bed4       ??_C@_0L@IJOBKCAB@glVertex4d?$AA@ 10045ed4     umodsys_lib_libui:umodsys.mod.ui.SDL_GL.obj
 0002:0000bee0       ??_C@_0M@OOLAPEE@glVertex4dv?$AA@ 10045ee0     umodsys_lib_libui:umodsys.mod.ui.SDL_GL.obj
 0002:0000beec       ??_C@_0L@LLNHMAID@glVertex4f?$AA@ 10045eec     umodsys_lib_libui:umodsys.mod.ui.SDL_GL.obj
 0002:0000bef8       ??_C@_0M@NGPNLCK@glVertex4fv?$AA@ 10045ef8     umodsys_lib_libui:umodsys.mod.ui.SDL_GL.obj
 0002:0000bf04       ??_C@_0L@DMEPNMEM@glVertex4i?$AA@ 10045f04     umodsys_lib_libui:umodsys.mod.ui.SDL_GL.obj
 0002:0000bf10       ??_C@_0M@GDDJMBH@glVertex4iv?$AA@ 10045f10     umodsys_lib_libui:umodsys.mod.ui.SDL_GL.obj
 0002:0000bf1c       ??_C@_0L@IMGCCGJH@glVertex4s?$AA@ 10045f1c     umodsys_lib_libui:umodsys.mod.ui.SDL_GL.obj
 0002:0000bf28       ??_C@_0M@BHICLKLB@glVertex4sv?$AA@ 10045f28     umodsys_lib_libui:umodsys.mod.ui.SDL_GL.obj
 0002:0000bf34       ??_C@_0BG@DHOKJLEP@glAreTexturesResident?$AA@ 10045f34     umodsys_lib_libui:umodsys.mod.ui.SDL_GL.obj
 0002:0000bf4c       ??_C@_0P@CKCIJELG@glArrayElement?$AA@ 10045f4c     umodsys_lib_libui:umodsys.mod.ui.SDL_GL.obj
 0002:0000bf5c       ??_C@_0P@DPKEGLKI@glColorPointer?$AA@ 10045f5c     umodsys_lib_libui:umodsys.mod.ui.SDL_GL.obj
 0002:0000bf6c       ??_C@_0BF@LJDHBNBP@glDisableClientState?$AA@ 10045f6c     umodsys_lib_libui:umodsys.mod.ui.SDL_GL.obj
 0002:0000bf84       ??_C@_0BC@LILGCNN@glEdgeFlagPointer?$AA@ 10045f84     umodsys_lib_libui:umodsys.mod.ui.SDL_GL.obj
 0002:0000bf98       ??_C@_0BE@KECPKGNE@glEnableClientState?$AA@ 10045f98     umodsys_lib_libui:umodsys.mod.ui.SDL_GL.obj
 0002:0000bfac       ??_C@_0P@KGJBLKPD@glIndexPointer?$AA@ 10045fac     umodsys_lib_libui:umodsys.mod.ui.SDL_GL.obj
 0002:0000bfbc       ??_C@_09BBIPIKNC@glIndexub?$AA@ 10045fbc     umodsys_lib_libui:umodsys.mod.ui.SDL_GL.obj
 0002:0000bfc8       ??_C@_0L@BBKJOCAC@glIndexubv?$AA@ 10045fc8     umodsys_lib_libui:umodsys.mod.ui.SDL_GL.obj
 0002:0000bfd4       ??_C@_0BE@EDEDCKLI@glInterleavedArrays?$AA@ 10045fd4     umodsys_lib_libui:umodsys.mod.ui.SDL_GL.obj
 0002:0000bfe8       ??_C@_0BA@DCLMCEOP@glNormalPointer?$AA@ 10045fe8     umodsys_lib_libui:umodsys.mod.ui.SDL_GL.obj
 0002:0000bff8       ??_C@_0BC@GOOJKIDH@glPopClientAttrib?$AA@ 10045ff8     umodsys_lib_libui:umodsys.mod.ui.SDL_GL.obj
 0002:0000c00c       ??_C@_0BF@FFCGNNIA@glPrioritizeTextures?$AA@ 1004600c     umodsys_lib_libui:umodsys.mod.ui.SDL_GL.obj
 0002:0000c024       ??_C@_0BD@JKGPLNEA@glPushClientAttrib?$AA@ 10046024     umodsys_lib_libui:umodsys.mod.ui.SDL_GL.obj
 0002:0000c038       ??_C@_0BC@DAOMILMO@glTexCoordPointer?$AA@ 10046038     umodsys_lib_libui:umodsys.mod.ui.SDL_GL.obj
 0002:0000c04c       ??_C@_0BA@HAHECJNK@glVertexPointer?$AA@ 1004604c     umodsys_lib_libui:umodsys.mod.ui.SDL_GL.obj
 0002:0000c05c       ??_C@_0BG@EGKOMLFO@glClientActiveTexture?$AA@ 1004605c     umodsys_lib_libui:umodsys.mod.ui.SDL_GL.obj
 0002:0000c074       ??_C@_0BH@DMKLNEPC@glLoadTransposeMatrixd?$AA@ 10046074     umodsys_lib_libui:umodsys.mod.ui.SDL_GL.obj
 0002:0000c08c       ??_C@_0BH@OJNLGHA@glLoadTransposeMatrixf?$AA@ 1004608c     umodsys_lib_libui:umodsys.mod.ui.SDL_GL.obj
 0002:0000c0a4       ??_C@_0BH@NCKJAFA@glMultTransposeMatrixd?$AA@ 100460a4     umodsys_lib_libui:umodsys.mod.ui.SDL_GL.obj
 0002:0000c0bc       ??_C@_0BH@DPBMPCNC@glMultTransposeMatrixf?$AA@ 100460bc     umodsys_lib_libui:umodsys.mod.ui.SDL_GL.obj
 0002:0000c0d4       ??_C@_0BC@IHHPPFPP@glMultiTexCoord1d?$AA@ 100460d4     umodsys_lib_libui:umodsys.mod.ui.SDL_GL.obj
 0002:0000c0e8       ??_C@_0BD@FEOAEOAI@glMultiTexCoord1dv?$AA@ 100460e8     umodsys_lib_libui:umodsys.mod.ui.SDL_GL.obj
 0002:0000c0fc       ??_C@_0BC@LFEJJHHN@glMultiTexCoord1f?$AA@ 100460fc     umodsys_lib_libui:umodsys.mod.ui.SDL_GL.obj
 0002:0000c110       ??_C@_0BD@FHGEJKGG@glMultiTexCoord1fv?$AA@ 10046110     umodsys_lib_libui:umodsys.mod.ui.SDL_GL.obj
 0002:0000c124       ??_C@_0BC@DCNBILLC@glMultiTexCoord1i?$AA@ 10046124     umodsys_lib_libui:umodsys.mod.ui.SDL_GL.obj
 0002:0000c138       ??_C@_0BD@FMDINNFL@glMultiTexCoord1iv?$AA@ 10046138     umodsys_lib_libui:umodsys.mod.ui.SDL_GL.obj
 0002:0000c14c       ??_C@_0BC@ICPMHBGJ@glMultiTexCoord1s?$AA@ 1004614c     umodsys_lib_libui:umodsys.mod.ui.SDL_GL.obj
 0002:0000c160       ??_C@_0BD@ENIJPLPN@glMultiTexCoord1sv?$AA@ 10046160     umodsys_lib_libui:umodsys.mod.ui.SDL_GL.obj
 0002:0000c174       ??_C@_0BC@IFDJELKG@glMultiTexCoord2d?$AA@ 10046174     umodsys_lib_libui:umodsys.mod.ui.SDL_GL.obj
 0002:0000c188       ??_C@_0BD@EGFFOBOG@glMultiTexCoord2dv?$AA@ 10046188     umodsys_lib_libui:umodsys.mod.ui.SDL_GL.obj
 0002:0000c19c       ??_C@_0BC@LHAPCJCE@glMultiTexCoord2f?$AA@ 1004619c     umodsys_lib_libui:umodsys.mod.ui.SDL_GL.obj
 0002:0000c1b0       ??_C@_0BD@EFNBDFII@glMultiTexCoord2fv?$AA@ 100461b0     umodsys_lib_libui:umodsys.mod.ui.SDL_GL.obj
 0002:0000c1c4       ??_C@_0BC@DAJHDFOL@glMultiTexCoord2i?$AA@ 100461c4     umodsys_lib_libui:umodsys.mod.ui.SDL_GL.obj
 0002:0000c1d8       ??_C@_0BD@EOINHCLF@glMultiTexCoord2iv?$AA@ 100461d8     umodsys_lib_libui:umodsys.mod.ui.SDL_GL.obj
 0002:0000c1ec       ??_C@_0BC@IALKMPDA@glMultiTexCoord2s?$AA@ 100461ec     umodsys_lib_libui:umodsys.mod.ui.SDL_GL.obj
 0002:0000c200       ??_C@_0BD@FPDMFEBD@glMultiTexCoord2sv?$AA@ 10046200     umodsys_lib_libui:umodsys.mod.ui.SDL_GL.obj
 0002:0000c214       ??_C@_0BC@IEPLCBJB@glMultiTexCoord3d?$AA@ 10046214     umodsys_lib_libui:umodsys.mod.ui.SDL_GL.obj
 0002:0000c228       ??_C@_0BD@POOJIGID@glMultiTexCoord3dv?$AA@ 10046228     umodsys_lib_libui:umodsys.mod.ui.SDL_GL.obj
 0002:0000c23c       ??_C@_0BC@LGMNEDBD@glMultiTexCoord3f?$AA@ 1004623c     umodsys_lib_libui:umodsys.mod.ui.SDL_GL.obj
 0002:0000c250       ??_C@_0BD@PNGNFCON@glMultiTexCoord3fv?$AA@ 10046250     umodsys_lib_libui:umodsys.mod.ui.SDL_GL.obj
 0002:0000c264       ??_C@_0BC@DBFFFPNM@glMultiTexCoord3i?$AA@ 10046264     umodsys_lib_libui:umodsys.mod.ui.SDL_GL.obj
 0002:0000c278       ??_C@_0BD@PGDBBFNA@glMultiTexCoord3iv?$AA@ 10046278     umodsys_lib_libui:umodsys.mod.ui.SDL_GL.obj
 0002:0000c28c       ??_C@_0BC@IBHIKFAH@glMultiTexCoord3s?$AA@ 1004628c     umodsys_lib_libui:umodsys.mod.ui.SDL_GL.obj
 0002:0000c2a0       ??_C@_0BD@OHIADDHG@glMultiTexCoord3sv?$AA@ 100462a0     umodsys_lib_libui:umodsys.mod.ui.SDL_GL.obj
 0002:0000c2b4       ??_C@_0BC@IBLEDHBE@glMultiTexCoord4d?$AA@ 100462b4     umodsys_lib_libui:umodsys.mod.ui.SDL_GL.obj
 0002:0000c2c8       ??_C@_0BD@GDDOLODK@glMultiTexCoord4dv?$AA@ 100462c8     umodsys_lib_libui:umodsys.mod.ui.SDL_GL.obj
 0002:0000c2dc       ??_C@_0BC@LDICFFJG@glMultiTexCoord4f?$AA@ 100462dc     umodsys_lib_libui:umodsys.mod.ui.SDL_GL.obj
 0002:0000c2f0       ??_C@_0BD@GALKGKFE@glMultiTexCoord4fv?$AA@ 100462f0     umodsys_lib_libui:umodsys.mod.ui.SDL_GL.obj
 0002:0000c304       ??_C@_0BC@DEBKEJFJ@glMultiTexCoord4i?$AA@ 10046304     umodsys_lib_libui:umodsys.mod.ui.SDL_GL.obj
 0002:0000c318       ??_C@_0BD@GLOGCNGJ@glMultiTexCoord4iv?$AA@ 10046318     umodsys_lib_libui:umodsys.mod.ui.SDL_GL.obj
 0002:0000c32c       ??_C@_0BC@IEDHLDIC@glMultiTexCoord4s?$AA@ 1004632c     umodsys_lib_libui:umodsys.mod.ui.SDL_GL.obj
 0002:0000c340       ??_C@_0BD@HKFHALMP@glMultiTexCoord4sv?$AA@ 10046340     umodsys_lib_libui:umodsys.mod.ui.SDL_GL.obj
 0002:0000c354       ??_C@_0BC@GECGFLP@glFogCoordPointer?$AA@ 10046354     umodsys_lib_libui:umodsys.mod.ui.SDL_GL.obj
 0002:0000c368       ??_C@_0M@FACELPGH@glFogCoordd?$AA@ 10046368     umodsys_lib_libui:umodsys.mod.ui.SDL_GL.obj
 0002:0000c374       ??_C@_0N@KKODAODE@glFogCoorddv?$AA@ 10046374     umodsys_lib_libui:umodsys.mod.ui.SDL_GL.obj
 0002:0000c384       ??_C@_0M@GCBCNNOF@glFogCoordf?$AA@ 10046384     umodsys_lib_libui:umodsys.mod.ui.SDL_GL.obj
 0002:0000c390       ??_C@_0N@KJGHNKFK@glFogCoordfv?$AA@ 10046390     umodsys_lib_libui:umodsys.mod.ui.SDL_GL.obj
 0002:0000c3a0       ??_C@_0BD@MCCHHBGK@glSecondaryColor3b?$AA@ 100463a0     umodsys_lib_libui:umodsys.mod.ui.SDL_GL.obj
 0002:0000c3b4       ??_C@_0BE@NEMAHBEH@glSecondaryColor3bv?$AA@ 100463b4     umodsys_lib_libui:umodsys.mod.ui.SDL_GL.obj
 0002:0000c3c8       ??_C@_0BD@JEHNNGOM@glSecondaryColor3d?$AA@ 100463c8     umodsys_lib_libui:umodsys.mod.ui.SDL_GL.obj
 0002:0000c3dc       ??_C@_0BE@NAENANPF@glSecondaryColor3dv?$AA@ 100463dc     umodsys_lib_libui:umodsys.mod.ui.SDL_GL.obj
 0002:0000c3f0       ??_C@_0BD@KGELLEGO@glSecondaryColor3f?$AA@ 100463f0     umodsys_lib_libui:umodsys.mod.ui.SDL_GL.obj
 0002:0000c404       ??_C@_0BE@NDMJNJJL@glSecondaryColor3fv?$AA@ 10046404     umodsys_lib_libui:umodsys.mod.ui.SDL_GL.obj
 0002:0000c418       ??_C@_0BD@CBNDKIKB@glSecondaryColor3i?$AA@ 10046418     umodsys_lib_libui:umodsys.mod.ui.SDL_GL.obj
 0002:0000c42c       ??_C@_0BE@NIJFJOKG@glSecondaryColor3iv?$AA@ 1004642c     umodsys_lib_libui:umodsys.mod.ui.SDL_GL.obj
 0002:0000c440       ??_C@_0BD@JBPOFCHK@glSecondaryColor3s?$AA@ 10046440     umodsys_lib_libui:umodsys.mod.ui.SDL_GL.obj
 0002:0000c454       ??_C@_0BE@MJCELIAA@glSecondaryColor3sv?$AA@ 10046454     umodsys_lib_libui:umodsys.mod.ui.SDL_GL.obj
 0002:0000c468       ??_C@_0BE@ODAHBDOH@glSecondaryColor3ub?$AA@ 10046468     umodsys_lib_libui:umodsys.mod.ui.SDL_GL.obj
 0002:0000c47c       ??_C@_0BF@EHOIKOLI@glSecondaryColor3ubv?$AA@ 1004647c     umodsys_lib_libui:umodsys.mod.ui.SDL_GL.obj
 0002:0000c494       ??_C@_0BE@PDMKCM@glSecondaryColor3ui?$AA@ 10046494     umodsys_lib_libui:umodsys.mod.ui.SDL_GL.obj
 0002:0000c4a8       ??_C@_0BF@ELLNEBFJ@glSecondaryColor3uiv?$AA@ 100464a8     umodsys_lib_libui:umodsys.mod.ui.SDL_GL.obj
 0002:0000c4c0       ??_C@_0BE@LANODAPH@glSecondaryColor3us?$AA@ 100464c0     umodsys_lib_libui:umodsys.mod.ui.SDL_GL.obj
 0002:0000c4d4       ??_C@_0BF@FKAMGHPP@glSecondaryColor3usv?$AA@ 100464d4     umodsys_lib_libui:umodsys.mod.ui.SDL_GL.obj
 0002:0000c4ec       ??_C@_0BI@EFMNDJOO@glSecondaryColorPointer?$AA@ 100464ec     umodsys_lib_libui:umodsys.mod.ui.SDL_GL.obj
 0002:0000c504       ??_C@_0O@JGNKBLNH@glWindowPos2d?$AA@ 10046504     umodsys_lib_libui:umodsys.mod.ui.SDL_GL.obj
 0002:0000c514       ??_C@_0P@GBEEEDBM@glWindowPos2dv?$AA@ 10046514     umodsys_lib_libui:umodsys.mod.ui.SDL_GL.obj
 0002:0000c524       ??_C@_0O@KEOMHJFF@glWindowPos2f?$AA@ 10046524     umodsys_lib_libui:umodsys.mod.ui.SDL_GL.obj
 0002:0000c534       ??_C@_0P@GCMAJHHC@glWindowPos2fv?$AA@ 10046534     umodsys_lib_libui:umodsys.mod.ui.SDL_GL.obj
 0002:0000c544       ??_C@_0O@CDHEGFJK@glWindowPos2i?$AA@ 10046544     umodsys_lib_libui:umodsys.mod.ui.SDL_GL.obj
 0002:0000c554       ??_C@_0P@GJJMNAEP@glWindowPos2iv?$AA@ 10046554     umodsys_lib_libui:umodsys.mod.ui.SDL_GL.obj
 0002:0000c564       ??_C@_0O@JDFJJPEB@glWindowPos2s?$AA@ 10046564     umodsys_lib_libui:umodsys.mod.ui.SDL_GL.obj
 0002:0000c574       ??_C@_0P@HICNPGOJ@glWindowPos2sv?$AA@ 10046574     umodsys_lib_libui:umodsys.mod.ui.SDL_GL.obj
 0002:0000c584       ??_C@_0O@JHBIHBOA@glWindowPos3d?$AA@ 10046584     umodsys_lib_libui:umodsys.mod.ui.SDL_GL.obj
 0002:0000c594       ??_C@_0P@NJPICEHJ@glWindowPos3dv?$AA@ 10046594     umodsys_lib_libui:umodsys.mod.ui.SDL_GL.obj
 0002:0000c5a4       ??_C@_0O@KFCOBDGC@glWindowPos3f?$AA@ 100465a4     umodsys_lib_libui:umodsys.mod.ui.SDL_GL.obj
 0002:0000c5b4       ??_C@_0P@NKHMPABH@glWindowPos3fv?$AA@ 100465b4     umodsys_lib_libui:umodsys.mod.ui.SDL_GL.obj
 0002:0000c5c4       ??_C@_0O@CCLGAPKN@glWindowPos3i?$AA@ 100465c4     umodsys_lib_libui:umodsys.mod.ui.SDL_GL.obj
 0002:0000c5d4       ??_C@_0P@NBCALHCK@glWindowPos3iv?$AA@ 100465d4     umodsys_lib_libui:umodsys.mod.ui.SDL_GL.obj
 0002:0000c5e4       ??_C@_0O@JCJLPFHG@glWindowPos3s?$AA@ 100465e4     umodsys_lib_libui:umodsys.mod.ui.SDL_GL.obj
 0002:0000c5f4       ??_C@_0P@MAJBJBIM@glWindowPos3sv?$AA@ 100465f4     umodsys_lib_libui:umodsys.mod.ui.SDL_GL.obj
 0002:0000c604       ??_C@_0DM@FOIMIHHO@Loaded?5compatibility?5?$CFd?1?$CFd?5?5func@ 10046604     umodsys_lib_libui:umodsys.mod.ui.SDL_GL.obj
 0002:0000c640       ??_C@_06EIHDNHAM@rgba?18?$AA@ 10046640     umodsys_lib_libui:umodsys.mod.ui.SDL_GL.obj
 0002:0000c648       ??_C@_06OEMGJIAA@rgba?14?$AA@ 10046648     umodsys_lib_libui:umodsys.mod.ui.SDL_GL.obj
 0002:0000c650       ??_C@_07OLFPFAAC@rgba?112?$AA@ 10046650     umodsys_lib_libui:umodsys.mod.ui.SDL_GL.obj
 0002:0000c658       ??_C@_07IPDDJFAG@rgba?116?$AA@ 10046658     umodsys_lib_libui:umodsys.mod.ui.SDL_GL.obj
 0002:0000c660       ??_C@_07KEBOMGMF@rgba?115?$AA@ 10046660     umodsys_lib_libui:umodsys.mod.ui.SDL_GL.obj
 0002:0000c668       ??_C@_09LOLLJFCP@rgb?115?0a1?$AA@ 10046668     umodsys_lib_libui:umodsys.mod.ui.SDL_GL.obj
 0002:0000c674       ??_C@_07OINLIEGM@rgba?132?$AA@ 10046674     umodsys_lib_libui:umodsys.mod.ui.SDL_GL.obj
 0002:0000c67c       ??_C@_05JGGENLGF@rgb?18?$AA@ 1004667c     umodsys_lib_libui:umodsys.mod.ui.SDL_GL.obj
 0002:0000c684       ??_C@_05DKNBJEGJ@rgb?14?$AA@ 10046684     umodsys_lib_libui:umodsys.mod.ui.SDL_GL.obj
 0002:0000c68c       ??_C@_07LPEDEJNN@rgba?124?$AA@ 1004668c     umodsys_lib_libui:umodsys.mod.ui.SDL_GL.obj
 0002:0000c694       ??_C@_02PMJCCFLF@i4?$AA@   10046694     umodsys_lib_libui:umodsys.mod.ui.SDL_GL.obj
 0002:0000c698       ??_C@_02FACHGKLJ@i8?$AA@   10046698     umodsys_lib_libui:umodsys.mod.ui.SDL_GL.obj
 0002:0000c69c       ??_C@_04PAAENIBE@ia?12?$AA@ 1004669c     umodsys_lib_libui:umodsys.mod.ui.SDL_GL.obj
 0002:0000c6a4       ??_C@_04KGFOHPJC@ia?14?$AA@ 100466a4     umodsys_lib_libui:umodsys.mod.ui.SDL_GL.obj
 0002:0000c6ac       ??_C@_04KOLDAJO@ia?18?$AA@ 100466ac     umodsys_lib_libui:umodsys.mod.ui.SDL_GL.obj
 0002:0000c6b4       ??_C@_05JBHAPPIJ@ia?116?$AA@ 100466b4     umodsys_lib_libui:umodsys.mod.ui.SDL_GL.obj
 0002:0000c6bc       ??_C@_05PFBMDKIN@ia?112?$AA@ 100466bc     umodsys_lib_libui:umodsys.mod.ui.SDL_GL.obj
 0002:0000c6c4       ??_C@_02PCIBHEAN@a4?$AA@   100466c4     umodsys_lib_libui:umodsys.mod.ui.SDL_GL.obj
 0002:0000c6c8       ??_C@_02FODEDLAB@a8?$AA@   100466c8     umodsys_lib_libui:umodsys.mod.ui.SDL_GL.obj
 0002:0000c6cc       ??_C@_0M@OIOFJFPO@GL_NO_ERROR?$AA@ 100466cc     umodsys_lib_libui:umodsys.mod.ui.SDL_GL.obj
 0002:0000c6d8       ??_C@_0BA@LLPLHEDK@GL_INVALID_ENUM?$AA@ 100466d8     umodsys_lib_libui:umodsys.mod.ui.SDL_GL.obj
 0002:0000c6e8       ??_C@_0BB@HDIPJELP@GL_INVALID_VALUE?$AA@ 100466e8     umodsys_lib_libui:umodsys.mod.ui.SDL_GL.obj
 0002:0000c6fc       ??_C@_0BF@NFNGKHIL@GL_INVALID_OPERATION?$AA@ 100466fc     umodsys_lib_libui:umodsys.mod.ui.SDL_GL.obj
 0002:0000c714       ??_C@_0BC@DLCDMCHH@GL_STACK_OVERFLOW?$AA@ 10046714     umodsys_lib_libui:umodsys.mod.ui.SDL_GL.obj
 0002:0000c728       ??_C@_0BD@KAJAFKFC@GL_STACK_UNDERFLOW?$AA@ 10046728     umodsys_lib_libui:umodsys.mod.ui.SDL_GL.obj
 0002:0000c73c       ??_C@_0BB@JMBJBKGI@GL_OUT_OF_MEMORY?$AA@ 1004673c     umodsys_lib_libui:umodsys.mod.ui.SDL_GL.obj
 0002:0000c750       ??_C@_0L@EEBPMGAP@GL_?$DP_ERROR?$AA@ 10046750     umodsys_lib_libui:umodsys.mod.ui.SDL_GL.obj
 0002:0000c75c       ??_C@_0O@HGIFGBIC@GL?5Error?5?$CD?$CFs?6?$AA@ 1004675c     umodsys_lib_libui:umodsys.mod.ui.SDL_GL.obj
 0002:0000c76c       ??_C@_0BE@FIKJHBNC@SDL2?5OpenGL?5library?$AA@ 1004676c     umodsys_lib_libui:umodsys.mod.ui.SDL_GL.obj
 0002:0000c780       ??_C@_0L@DIGNBAEB@ui?3?3SDL_GL?$AA@ 10046780     umodsys_lib_libui:umodsys.mod.ui.SDL_GL.obj
 0002:0000c794       ??_7RGenerator@SDL_GL@ui@modules@UModSys@@6B@ 10046794     umodsys_lib_libui:umodsys.mod.ui.SDL_GL.obj
 0002:0000c7e4       ??_7RRenderDriver3D@SDL_GL@ui@modules@UModSys@@6B@ 100467e4     umodsys_lib_libui:umodsys.mod.ui.SDL_GL.obj
 0002:0000c900       ??_7SGLFuncs@SDL_GL@ui@modules@UModSys@@6B@ 10046900     umodsys_lib_libui:umodsys.mod.ui.SDL_GL.obj
 0002:0000c914       ??_7SGLFuncsLegacy@SDL_GL@ui@modules@UModSys@@6B@ 10046914     umodsys_lib_libui:umodsys.mod.ui.SDL_GL.obj
 0002:0000c92c       ??_7RTerminal@SDL_GL@ui@modules@UModSys@@6B@ 1004692c     umodsys_lib_libui:umodsys.mod.ui.SDL_GL.obj
 0002:0000c99c       ??_7RKeyboardController@SDL_GL@ui@modules@UModSys@@6B@ 1004699c     umodsys_lib_libui:umodsys.mod.ui.SDL_GL.obj
 0002:0000c9ec       ??_7RMouseController@SDL_GL@ui@modules@UModSys@@6B@ 100469ec     umodsys_lib_libui:umodsys.mod.ui.SDL_GL.obj
 0002:0000ca34       ??_7RMultiImage2D_SDL_ttf@SDL_GL@ui@modules@UModSys@@6B@ 10046a34     umodsys_lib_libui:umodsys.mod.ui.SDL_GL.obj
 0002:0000ca9c       ??_7RTerminalX@SDL_GL@ui@modules@UModSys@@6B@ 10046a9c     umodsys_lib_libui:umodsys.mod.ui.SDL_GL.obj
 0002:0000cb0c       ??_7RVertexArray@SDL_GL@ui@modules@UModSys@@6B@ 10046b0c     umodsys_lib_libui:umodsys.mod.ui.SDL_GL.obj
 0002:0000cb58       ??_7RModuleReg@SDL_GL@ui@modules@UModSys@@6B@ 10046b58     umodsys_lib_libui:umodsys.mod.ui.SDL_GL.obj
 0002:0000cb74       ??_C@_0DE@JJAEFKJP@UModSys?3?3modules?3?3ui?3?3SDL_core?3?3@ 10046b74     umodsys_lib_libui:umodsys.mod.ui.SDL_core.obj
 0002:0000cba8       ??_C@_0DB@HCJMIJNE@UModSys?3?3modules?3?3ui?3?3SDL_core?3?3@ 10046ba8     umodsys_lib_libui:umodsys.mod.ui.SDL_core.obj
 0002:0000cbdc       ??_C@_0CK@DOEIPGL@UModSys?3?3modules?3?3ui?3?3SDL_core?3?3@ 10046bdc     umodsys_lib_libui:umodsys.mod.ui.SDL_core.obj
 0002:0000cc08       ??_C@_0DG@EGPKIIPE@UModSys?3?3modules?3?3ui?3?3SDL_core?3?3@ 10046c08     umodsys_lib_libui:umodsys.mod.ui.SDL_core.obj
 0002:0000cc40       ??_C@_0DA@ONKEJKMF@UModSys?3?3modules?3?3ui?3?3SDL_core?3?3@ 10046c40     umodsys_lib_libui:umodsys.mod.ui.SDL_core.obj
 0002:0000cc70       ??_C@_0CL@KIABILAD@UModSys?3?3modules?3?3ui?3?3SDL_core?3?3@ 10046c70     umodsys_lib_libui:umodsys.mod.ui.SDL_core.obj
 0002:0000cc9c       ??_C@_0CL@JNMIGLLO@UModSys?3?3modules?3?3ui?3?3SDL_core?3?3@ 10046c9c     umodsys_lib_libui:umodsys.mod.ui.SDL_core.obj
 0002:0000ccc8       ??_C@_0N@DNOMPMIF@ui?3?3SDL_core?$AA@ 10046cc8     umodsys_lib_libui:umodsys.mod.ui.SDL_core.obj
 0002:0000ccdc       ??_7RGenerator@SDL_core@ui@modules@UModSys@@6B@ 10046cdc     umodsys_lib_libui:umodsys.mod.ui.SDL_core.obj
 0002:0000cd2c       ??_7RRenderDriver2D@SDL_core@ui@modules@UModSys@@6B@ 10046d2c     umodsys_lib_libui:umodsys.mod.ui.SDL_core.obj
 0002:0000cdc4       ??_7RTerminal@SDL_core@ui@modules@UModSys@@6B@ 10046dc4     umodsys_lib_libui:umodsys.mod.ui.SDL_core.obj
 0002:0000ce34       ??_7RKeyboardController@SDL_core@ui@modules@UModSys@@6B@ 10046e34     umodsys_lib_libui:umodsys.mod.ui.SDL_core.obj
 0002:0000ce84       ??_7RMouseController@SDL_core@ui@modules@UModSys@@6B@ 10046e84     umodsys_lib_libui:umodsys.mod.ui.SDL_core.obj
 0002:0000cecc       ??_7RMultiImage2D_SDL_ttf@SDL_core@ui@modules@UModSys@@6B@ 10046ecc     umodsys_lib_libui:umodsys.mod.ui.SDL_core.obj
 0002:0000cf34       ??_7RTerminalX@SDL_core@ui@modules@UModSys@@6B@ 10046f34     umodsys_lib_libui:umodsys.mod.ui.SDL_core.obj
 0002:0000cfa4       ??_7RModuleReg@SDL_core@ui@modules@UModSys@@6B@ 10046fa4     umodsys_lib_libui:umodsys.mod.ui.SDL_core.obj
 0002:0000cfc0       ??_C@_07LLDKJBMK@general?$AA@ 10046fc0     umodsys_lib_libui:umodsys.mod.ui.frames.obj
 0002:0000cfc8       ??_C@_06DBHEJNGA@common?$AA@ 10046fc8     umodsys_lib_libui:umodsys.mod.ui.frames.obj
 0002:0000cfd0       ??_C@_05NGOMGBBD@image?$AA@ 10046fd0     umodsys_lib_libui:umodsys.mod.ui.frames.obj
 0002:0000cfd8       ??_C@_07LJIPPALJ@picture?$AA@ 10046fd8     umodsys_lib_libui:umodsys.mod.ui.frames.obj
 0002:0000cfe0       ??_C@_05FEAGNAPL@edge1?$AA@ 10046fe0     umodsys_lib_libui:umodsys.mod.ui.frames.obj
 0002:0000cfe8       ??_C@_05HPCLIDDI@edge2?$AA@ 10046fe8     umodsys_lib_libui:umodsys.mod.ui.frames.obj
 0002:0000cff0       ??_C@_05JGEJPNHM@edges?$AA@ 10046ff0     umodsys_lib_libui:umodsys.mod.ui.frames.obj
 0002:0000cff8       ??_C@_05KAHGKAHL@caret?$AA@ 10046ff8     umodsys_lib_libui:umodsys.mod.ui.frames.obj
 0002:0000d000       ??_C@_04JFCNHLLM@back?$AA@ 10047000     umodsys_lib_libui:umodsys.mod.ui.frames.obj
 0002:0000d008       ??_C@_04DBFEOIG@fore?$AA@  10047008     umodsys_lib_libui:umodsys.mod.ui.frames.obj
 0002:0000d010       ??_C@_06LGNCCACI@select?$AA@ 10047010     umodsys_lib_libui:umodsys.mod.ui.frames.obj
 0002:0000d018       ??_C@_08CJLOJPNI@selected?$AA@ 10047018     umodsys_lib_libui:umodsys.mod.ui.frames.obj
 0002:0000d024       ??_C@_05PEEJIKOE@focus?$AA@ 10047024     umodsys_lib_libui:umodsys.mod.ui.frames.obj
 0002:0000d02c       ??_C@_07HIPCAPPH@focused?$AA@ 1004702c     umodsys_lib_libui:umodsys.mod.ui.frames.obj
 0002:0000d034       ??_C@_06MDLIGPKC@active?$AA@ 10047034     umodsys_lib_libui:umodsys.mod.ui.frames.obj
 0002:0000d03c       ??_C@_08BEHKFNNO@disabled?$AA@ 1004703c     umodsys_lib_libui:umodsys.mod.ui.frames.obj
 0002:0000d048       ??_C@_0CM@PKBIIKNO@UModSys?3?3modules?3?3ui?3?3frames?3?3RF@ 10047048     umodsys_lib_libui:umodsys.mod.ui.frames.obj
 0002:0000d074       ??_C@_04CHADEDPO@view?$AA@ 10047074     umodsys_lib_libui:umodsys.mod.ui.frames.obj
 0002:0000d07c       ??_C@_06ICIJKACG@valign?$AA@ 1004707c     umodsys_lib_libui:umodsys.mod.ui.frames.obj
 0002:0000d084       ??_C@_06LFGIEHLF@halign?$AA@ 10047084     umodsys_lib_libui:umodsys.mod.ui.frames.obj
 0002:0000d08c       ??_C@_0CG@IKFOGHCN@UModSys?3?3modules?3?3ui?3?3frames?3?3RD@ 1004708c     umodsys_lib_libui:umodsys.mod.ui.frames.obj
 0002:0000d0b4       ??_C@_0CL@MFDJGEPD@UModSys?3?3modules?3?3ui?3?3frames?3?3RF@ 100470b4     umodsys_lib_libui:umodsys.mod.ui.frames.obj
 0002:0000d0e0       ??_C@_0CL@NLEIFDKD@UModSys?3?3modules?3?3ui?3?3frames?3?3RF@ 100470e0     umodsys_lib_libui:umodsys.mod.ui.frames.obj
 0002:0000d10c       ??_C@_0CK@OBJOECEM@UModSys?3?3modules?3?3ui?3?3frames?3?3RF@ 1004710c     umodsys_lib_libui:umodsys.mod.ui.frames.obj
 0002:0000d138       ??_C@_0CM@LOMDENHB@UModSys?3?3modules?3?3ui?3?3frames?3?3RF@ 10047138     umodsys_lib_libui:umodsys.mod.ui.frames.obj
 0002:0000d164       ??_C@_0CK@BJEGFCFM@UModSys?3?3modules?3?3ui?3?3frames?3?3RF@ 10047164     umodsys_lib_libui:umodsys.mod.ui.frames.obj
 0002:0000d190       ??_C@_0CK@PHINMOFG@UModSys?3?3modules?3?3ui?3?3frames?3?3RF@ 10047190     umodsys_lib_libui:umodsys.mod.ui.frames.obj
 0002:0000d1bc       ??_C@_07IIAPCFMK@scrollx?$AA@ 100471bc     umodsys_lib_libui:umodsys.mod.ui.frames.obj
 0002:0000d1c4       ??_C@_07JBBEBEIL@scrolly?$AA@ 100471c4     umodsys_lib_libui:umodsys.mod.ui.frames.obj
 0002:0000d1cc       ??_C@_0CJ@HCPNAGIM@UModSys?3?3modules?3?3ui?3?3frames?3?3RC@ 100471cc     umodsys_lib_libui:umodsys.mod.ui.frames.obj
 0002:0000d1f8       ??_C@_05MGJOOGAJ@group?$AA@ 100471f8     umodsys_lib_libui:umodsys.mod.ui.frames.obj
 0002:0000d200       ??_C@_0CJ@FNJGAPIF@UModSys?3?3modules?3?3ui?3?3frames?3?3RG@ 10047200     umodsys_lib_libui:umodsys.mod.ui.frames.obj
 0002:0000d22c       ??_C@_0L@BAHBBNCJ@ui?3?3frames?$AA@ 1004722c     umodsys_lib_libui:umodsys.mod.ui.frames.obj
 0002:0000d23c       ??_7ICollectorThemeTree@libui@UModSys@@6B@ 1004723c     umodsys_lib_libui:umodsys.mod.ui.frames.obj
 0002:0000d244       ??_7IFrameData@libui@UModSys@@6B@ 10047244     umodsys_lib_libui:umodsys.mod.ui.frames.obj
 0002:0000d250       ??_7IFrameList@libui@UModSys@@6B@ 10047250     umodsys_lib_libui:umodsys.mod.ui.frames.obj
 0002:0000d264       ??_7ICollectorThemeTemplate@libui@UModSys@@6B@ 10047264     umodsys_lib_libui:umodsys.mod.ui.frames.obj
 0002:0000d29c       ??_7RGenerator@frames@ui@modules@UModSys@@6B@ 1004729c     umodsys_lib_libui:umodsys.mod.ui.frames.obj
 0002:0000d2ec       ??_7RCollector@frames@ui@modules@UModSys@@6BIRefObject@core@4@@ 100472ec     umodsys_lib_libui:umodsys.mod.ui.frames.obj
 0002:0000d368       ??_7RCollector@frames@ui@modules@UModSys@@6BICollectorThemeTree@libui@4@@ 10047368     umodsys_lib_libui:umodsys.mod.ui.frames.obj
 0002:0000d370       ??_7RCollector@frames@ui@modules@UModSys@@6BIKeyboardClient@libui@4@@ 10047370     umodsys_lib_libui:umodsys.mod.ui.frames.obj
 0002:0000d37c       ??_7RCollector@frames@ui@modules@UModSys@@6BIMouseClient@libui@4@@ 1004737c     umodsys_lib_libui:umodsys.mod.ui.frames.obj
 0002:0000d384       ??_7RDialog@frames@ui@modules@UModSys@@6B@ 10047384     umodsys_lib_libui:umodsys.mod.ui.frames.obj
 0002:0000d3cc       ??_7RFrame_Common@frames@ui@modules@UModSys@@6BIRefObject@core@4@@ 100473cc     umodsys_lib_libui:umodsys.mod.ui.frames.obj
 0002:0000d498       ??_7RFrame_Common@frames@ui@modules@UModSys@@6BICollectorThemeTree@libui@4@@ 10047498     umodsys_lib_libui:umodsys.mod.ui.frames.obj
 0002:0000d4a0       ??_7RCollectorTheme@frames@ui@modules@UModSys@@6B@ 100474a0     umodsys_lib_libui:umodsys.mod.ui.frames.obj
 0002:0000d4d4       ??_7RFrame_Frame@frames@ui@modules@UModSys@@6BIRefObject@core@4@@ 100474d4     umodsys_lib_libui:umodsys.mod.ui.frames.obj
 0002:0000d5a0       ??_7RFrame_Frame@frames@ui@modules@UModSys@@6BICollectorThemeTree@libui@4@@ 100475a0     umodsys_lib_libui:umodsys.mod.ui.frames.obj
 0002:0000d5ac       ??_7RFrame_Image@frames@ui@modules@UModSys@@6BIRefObject@core@4@@ 100475ac     umodsys_lib_libui:umodsys.mod.ui.frames.obj
 0002:0000d678       ??_7RFrame_Image@frames@ui@modules@UModSys@@6BICollectorThemeTree@libui@4@@ 10047678     umodsys_lib_libui:umodsys.mod.ui.frames.obj
 0002:0000d684       ??_7RFrame_Text@frames@ui@modules@UModSys@@6BIRefObject@core@4@@ 10047684     umodsys_lib_libui:umodsys.mod.ui.frames.obj
 0002:0000d750       ??_7RFrame_Text@frames@ui@modules@UModSys@@6BICollectorThemeTree@libui@4@@ 10047750     umodsys_lib_libui:umodsys.mod.ui.frames.obj
 0002:0000d758       ??_7RFrame_Text@frames@ui@modules@UModSys@@6B@ 10047758     umodsys_lib_libui:umodsys.mod.ui.frames.obj
 0002:0000d764       ??_7RFrame_Button@frames@ui@modules@UModSys@@6BIRefObject@core@4@@ 10047764     umodsys_lib_libui:umodsys.mod.ui.frames.obj
 0002:0000d830       ??_7RFrame_Button@frames@ui@modules@UModSys@@6BICollectorThemeTree@libui@4@@ 10047830     umodsys_lib_libui:umodsys.mod.ui.frames.obj
 0002:0000d83c       ??_7RFrame_Edit@frames@ui@modules@UModSys@@6BIRefObject@core@4@@ 1004783c     umodsys_lib_libui:umodsys.mod.ui.frames.obj
 0002:0000d908       ??_7RFrame_Edit@frames@ui@modules@UModSys@@6BICollectorThemeTree@libui@4@@ 10047908     umodsys_lib_libui:umodsys.mod.ui.frames.obj
 0002:0000d910       ??_7RFrame_Edit@frames@ui@modules@UModSys@@6B@ 10047910     umodsys_lib_libui:umodsys.mod.ui.frames.obj
 0002:0000d91c       ??_7RFrame_List@frames@ui@modules@UModSys@@6BIRefObject@core@4@@ 1004791c     umodsys_lib_libui:umodsys.mod.ui.frames.obj
 0002:0000d9e8       ??_7RFrame_List@frames@ui@modules@UModSys@@6BICollectorThemeTree@libui@4@@ 100479e8     umodsys_lib_libui:umodsys.mod.ui.frames.obj
 0002:0000d9f0       ??_7RFrame_List@frames@ui@modules@UModSys@@6BIFrameList@libui@4@@ 100479f0     umodsys_lib_libui:umodsys.mod.ui.frames.obj
 0002:0000da04       ??_7RFrame_List@frames@ui@modules@UModSys@@6BIFrameData@libui@4@@ 10047a04     umodsys_lib_libui:umodsys.mod.ui.frames.obj
 0002:0000da10       ??_7RModuleReg@frames@ui@modules@UModSys@@6B@ 10047a10     umodsys_lib_libui:umodsys.mod.ui.frames.obj
 0002:0000da2c       ??_C@_0DC@OJAOGACO@UModSys?3?3modules?3?3media?3?3images_@ 10047a2c     umodsys_lib_libmedia:umodsys.mod.media.images_std.obj
 0002:0000da60       ??_C@_0BH@FAPHCJAO@image_palette_alphakey?$AA@ 10047a60     umodsys_lib_libmedia:umodsys.mod.media.images_std.obj
 0002:0000da78       ??_C@_0L@MIOOFCJG@image_hint?$AA@ 10047a78     umodsys_lib_libmedia:umodsys.mod.media.images_std.obj
 0002:0000da84       ??_C@_0M@CPFHCGMF@image_alpha?$AA@ 10047a84     umodsys_lib_libmedia:umodsys.mod.media.images_std.obj
 0002:0000da90       ??_C@_04GNPKBLNA@?4jpg?$AA@ 10047a90     umodsys_lib_libmedia:umodsys.mod.media.images_std.obj
 0002:0000da98       ??_C@_05KPIGABMB@?4jpeg?$AA@ 10047a98     umodsys_lib_libmedia:umodsys.mod.media.images_std.obj
 0002:0000daa0       ??_C@_04EEOGCCFB@?4png?$AA@ 10047aa0     umodsys_lib_libmedia:umodsys.mod.media.images_std.obj
 0002:0000daa8       ??_C@_0CB@LKENOGAK@PNG?5FATAL?5ERROR?3?5png?5error?5?9?5?$CFs?6@ 10047aa8     umodsys_lib_libmedia:umodsys.mod.media.images_std.obj
 0002:0000dacc       ??_C@_0L@BAFDDAPG@Read?5Error?$AA@ 10047acc     umodsys_lib_libmedia:umodsys.mod.media.images_std.obj
 0002:0000dad8       ??_C@_0M@POLPJMAP@Write?5Error?$AA@ 10047ad8     umodsys_lib_libmedia:umodsys.mod.media.images_std.obj
 0002:0000dae4       ??_C@_0M@PMDCBFIO@1?47?40beta06?$AA@ 10047ae4     umodsys_lib_libmedia:umodsys.mod.media.images_std.obj
 0002:0000daf0       ??_C@_0DA@GEKJILHJ@UModSys?3?3modules?3?3media?3?3images_@ 10047af0     umodsys_lib_libmedia:umodsys.mod.media.images_std.obj
 0002:0000db20       ??_C@_0BC@FLDHBKGG@media?3?3images_std?$AA@ 10047b20     umodsys_lib_libmedia:umodsys.mod.media.images_std.obj
 0002:0000db3c       ??_7RGenerator@images_std@media@modules@UModSys@@6B@ 10047b3c     umodsys_lib_libmedia:umodsys.mod.media.images_std.obj
 0002:0000db8c       ??_7RMediaFilter@images_std@media@modules@UModSys@@6BIRefObject@core@4@@ 10047b8c     umodsys_lib_libmedia:umodsys.mod.media.images_std.obj
 0002:0000dbcc       ??_7RMediaFilter@images_std@media@modules@UModSys@@6BISetter@SFlags@libmedia@4@@ 10047bcc     umodsys_lib_libmedia:umodsys.mod.media.images_std.obj
 0002:0000dbdc       ??_7RModuleReg@images_std@media@modules@UModSys@@6B@ 10047bdc     umodsys_lib_libmedia:umodsys.mod.media.images_std.obj
 0002:0000dbf8       ??_C@_02MCKKLHBJ@?2?$CC?$AA@ 10047bf8     umodsys_lib_libmedia:umodsys.mod.media.serialize_json.obj
 0002:0000dbfc       ??_C@_02HDBGODGB@?2?2?$AA@ 10047bfc     umodsys_lib_libmedia:umodsys.mod.media.serialize_json.obj
 0002:0000dc00       ??_C@_02HHAEMJFE@?2?1?$AA@ 10047c00     umodsys_lib_libmedia:umodsys.mod.media.serialize_json.obj
 0002:0000dc04       ??_C@_02DCNDPIBM@?2b?$AA@  10047c04     umodsys_lib_libmedia:umodsys.mod.media.serialize_json.obj
 0002:0000dc08       ??_C@_02FGLPDNBI@?2f?$AA@  10047c08     umodsys_lib_libmedia:umodsys.mod.media.serialize_json.obj
 0002:0000dc0c       ??_C@_02JOGGLHBA@?2n?$AA@  10047c0c     umodsys_lib_libmedia:umodsys.mod.media.serialize_json.obj
 0002:0000dc10       ??_C@_02HIBBOKEN@?2r?$AA@  10047c10     umodsys_lib_libmedia:umodsys.mod.media.serialize_json.obj
 0002:0000dc14       ??_C@_02COELENML@?2t?$AA@  10047c14     umodsys_lib_libmedia:umodsys.mod.media.serialize_json.obj
 0002:0000dc18       ??_C@_06OAIHNJFH@?2u?$CF04x?$AA@ 10047c18     umodsys_lib_libmedia:umodsys.mod.media.serialize_json.obj
 0002:0000dc20       ??_C@_0DK@FEBMMGOH@UModSys?3?3modules?3?3media?3?3seriali@ 10047c20     umodsys_lib_libmedia:umodsys.mod.media.serialize_json.obj
 0002:0000dc5c       ??_C@_09GAOHCOAP@No?5parser?$AA@ 10047c5c     umodsys_lib_libmedia:umodsys.mod.media.serialize_json.obj
 0002:0000dc68       ??_C@_0N@OHBPFNDO@Memory?5error?$AA@ 10047c68     umodsys_lib_libmedia:umodsys.mod.media.serialize_json.obj
 0002:0000dc78       ??_C@_0BE@NECDPAKH@Bad?5escape?5sequence?$AA@ 10047c78     umodsys_lib_libmedia:umodsys.mod.media.serialize_json.obj
 0002:0000dc8c       ??_C@_0BA@BOAELAPB@Structure?5error?$AA@ 10047c8c     umodsys_lib_libmedia:umodsys.mod.media.serialize_json.obj
 0002:0000dc9c       ??_C@_0N@ICGFMCGA@Parser?5error?$AA@ 10047c9c     umodsys_lib_libmedia:umodsys.mod.media.serialize_json.obj
 0002:0000dcac       ??_C@_04LOAJBDKD@true?$AA@ 10047cac     umodsys_lib_libmedia:umodsys.mod.media.serialize_json.obj
 0002:0000dcb4       ??_C@_05LAPONLG@false?$AA@ 10047cb4     umodsys_lib_libmedia:umodsys.mod.media.serialize_json.obj
 0002:0000dcbc       ??_C@_04MLLLIHIP@null?$AA@ 10047cbc     umodsys_lib_libmedia:umodsys.mod.media.serialize_json.obj
 0002:0000dcc4       ??_C@_0M@KEPAKIJL@Value?5error?$AA@ 10047cc4     umodsys_lib_libmedia:umodsys.mod.media.serialize_json.obj
 0002:0000dcd0       ??_C@_0M@JLCCDMKC@buffer_size?$AA@ 10047cd0     umodsys_lib_libmedia:umodsys.mod.media.serialize_json.obj
 0002:0000dcdc       ??_C@_0DK@HIJOMHDN@UModSys?3?3modules?3?3media?3?3seriali@ 10047cdc     umodsys_lib_libmedia:umodsys.mod.media.serialize_json.obj
 0002:0000dd18       ??_C@_04PFHMOCHH@?$HL?$CFd?$HN?$AA@ 10047d18     umodsys_lib_libmedia:umodsys.mod.media.serialize_json.obj
 0002:0000dd20       ??_C@_09BONHALO@?$HL?$CFu?6?$CC?$CFs?$CC?$HN?$AA@ 10047d20     umodsys_lib_libmedia:umodsys.mod.media.serialize_json.obj
 0002:0000dd2c       ??_C@_03JALODAI@?$CFld?$AA@ 10047d2c     umodsys_lib_libmedia:umodsys.mod.media.serialize_json.obj
 0002:0000dd30       ??_C@_02CGLCDNAE@?$CFe?$AA@ 10047d30     umodsys_lib_libmedia:umodsys.mod.media.serialize_json.obj
 0002:0000dd34       ??_C@_09DKCFLKBL@skip_step?$AA@ 10047d34     umodsys_lib_libmedia:umodsys.mod.media.serialize_json.obj
 0002:0000dd40       ??_C@_0L@BBIOCPNN@?$HLSIZE?5?$CFld?$HN?$AA@ 10047d40     umodsys_lib_libmedia:umodsys.mod.media.serialize_json.obj
 0002:0000dd4c       ??_C@_0DE@EGKBDJOG@UModSys?3?3modules?3?3media?3?3seriali@ 10047d4c     umodsys_lib_libmedia:umodsys.mod.media.serialize_json.obj
 0002:0000dd84       ??_7ISerializeParser@libmedia@UModSys@@6B@ 10047d84     umodsys_lib_libmedia:umodsys.mod.media.serialize_json.obj
 0002:0000dd9c       ??_7RGenerator@serialize_json@media@modules@UModSys@@6B@ 10047d9c     umodsys_lib_libmedia:umodsys.mod.media.serialize_json.obj
 0002:0000ddec       ??_7RSerializeReader@serialize_json@media@modules@UModSys@@6B@ 10047dec     umodsys_lib_libmedia:umodsys.mod.media.serialize_json.obj
 0002:0000de28       ??_7RSerializeWriter@serialize_json@media@modules@UModSys@@6BIRefObject@core@4@@ 10047e28     umodsys_lib_libmedia:umodsys.mod.media.serialize_json.obj
 0002:0000de60       ??_7RSerializeWriter@serialize_json@media@modules@UModSys@@6BISerializeParser@libmedia@4@@ 10047e60     umodsys_lib_libmedia:umodsys.mod.media.serialize_json.obj
 0002:0000de74       ??_7RModuleReg@serialize_json@media@modules@UModSys@@6B@ 10047e74     umodsys_lib_libmedia:umodsys.mod.media.serialize_json.obj
 0002:0000de90       ??_C@_0DK@HMIMBDB@UModSys?3?3modules?3?3media?3?3zlib?3?3R@ 10047e90     umodsys_lib_libmedia:umodsys.mod.media.zlib.obj
 0002:0000decc       ??_C@_0CK@CJDDEOAL@UModSys?3?3modules?3?3media?3?3zlib?3?3R@ 10047ecc     umodsys_lib_libmedia:umodsys.mod.media.zlib.obj
 0002:0000def8       ??_C@_05HBMOAMF@1?42?47?$AA@ 10047ef8     umodsys_lib_libmedia:umodsys.mod.media.zlib.obj
 0002:0000df00       ??_C@_0M@DGJEMLOB@compression?$AA@ 10047f00     umodsys_lib_libmedia:umodsys.mod.media.zlib.obj
 0002:0000df0c       ??_C@_0M@FMHEMKFE@media?3?3zlib?$AA@ 10047f0c     umodsys_lib_libmedia:umodsys.mod.media.zlib.obj
 0002:0000df1c       ??_7RGenerator@zlib@media@modules@UModSys@@6B@ 10047f1c     umodsys_lib_libmedia:umodsys.mod.media.zlib.obj
 0002:0000df6c       ??_7RBinArchiveFrameClient_ZIP@zlib@media@modules@UModSys@@6B@ 10047f6c     umodsys_lib_libmedia:umodsys.mod.media.zlib.obj
 0002:0000dfd8       ??_7RModuleReg@zlib@media@modules@UModSys@@6B@ 10047fd8     umodsys_lib_libmedia:umodsys.mod.media.zlib.obj
 0002:0000dff8       ??_7RModuleLibraryReg_Chain@base@UModSys@@6B@ 10047ff8     umodsys_lib_base:umodsys.base.moduleregchain.obj
 0002:0000e014       ??_7IModuleReg@base@UModSys@@6B@ 10048014     umodsys_lib_base:umodsys.base.modulereg.obj
 0002:0000e034       ??_7IModuleLibraryReg@base@UModSys@@6B@ 10048034     umodsys_lib_base:umodsys.base.modulereg.obj
 0002:0000e050       __real@406fe00000000000    10048050      CIL library: CIL module
 0002:0000e058       __real@408f400000000000    10048058      CIL library: CIL module
 0002:0000e060       __real@41f0000000000000    10048060      CIL library: CIL module
 0002:0000e068       __real@3fe0000000000000    10048068      CIL library: CIL module
 0002:0000e070       __real@4056800000000000    10048070      CIL library: CIL module
 0002:0000e078       __real@3c9cd2b297d889bc    10048078      CIL library: CIL module
 0002:0000e080       __real@3e45798ee2308c3a    10048080      CIL library: CIL module
 0002:0000e088       __real@3f50624dd2f1a9fc    10048088      CIL library: CIL module
 0002:0000e090       __real@3fd3333340000000    10048090      CIL library: CIL module
 0002:0000e098       __real@3feccccccccccccd    10048098      CIL library: CIL module
 0002:0000e0a0       __real@bfe999999999999a    100480a0      CIL library: CIL module
 0002:0000e0a8       __real@8000000000000000    100480a8      CIL library: CIL module
 0002:0000e0b0       __real@3fe999999999999a    100480b0      CIL library: CIL module
 0002:0000e0b8       __real@bfe0000000000000    100480b8      CIL library: CIL module
 0002:0000e0c0       __real@40090d8072fc7f04    100480c0      CIL library: CIL module
 0002:0000e0c8       __real@3f847ae147ae147b    100480c8      CIL library: CIL module
 0002:0000e0d0       __real@4000000000000000    100480d0      CIL library: CIL module
 0002:0000e0d8       __real@4146440000000000    100480d8      CIL library: CIL module
 0002:0000e0e0       __real@412e848000000000    100480e0      CIL library: CIL module
 0002:0000e0e8       __real@400758e219652bd4    100480e8      CIL library: CIL module
 0002:0000e0f0       __real@3f19999a            100480f0      CIL library: CIL module
 0002:0000e0f4       __real@3f333333            100480f4      CIL library: CIL module
 0002:0000e0f8       __real@3f000000            100480f8      CIL library: CIL module
 0002:0000e100       __real@4014000000000000    10048100      CIL library: CIL module
 0002:0000e108       __real@c008000000000000    10048108      CIL library: CIL module
 0002:0000e110       __real@3fb999999999999a    10048110      CIL library: CIL module
 0002:0000e118       __real@4024000000000000    10048118      CIL library: CIL module
 0002:0000e120       __real@3c23d70a            10048120      CIL library: CIL module
 0002:0000e124       __real@3dcccccd            10048124      CIL library: CIL module
 0002:0000e128       __load_config_used         10048128     MSVCRT:loadcfg.obj
 0002:0000e170       ??_R4type_info@@6B@        10048170     MSVCRT:ti_inst.obj
 0002:0000e184       ??_R3type_info@@8          10048184     MSVCRT:ti_inst.obj
 0002:0000e194       ??_R2type_info@@8          10048194     MSVCRT:ti_inst.obj
 0002:0000e19c       ??_R1A@?0A@EA@type_info@@8 1004819c     MSVCRT:ti_inst.obj
 0002:0000e1b8       ??_R4RModuleReg@test1@test@modules@UModSys@@6B@ 100481b8     plugin_test1.obj
 0002:0000e1cc       ??_R3RModuleReg@test1@test@modules@UModSys@@8 100481cc     plugin_test1.obj
 0002:0000e1dc       ??_R2RModuleReg@test1@test@modules@UModSys@@8 100481dc     plugin_test1.obj
 0002:0000e1e8       ??_R1A@?0A@EA@IModuleReg@base@UModSys@@8 100481e8     plugin_test1.obj
 0002:0000e204       ??_R3IModuleReg@base@UModSys@@8 10048204     plugin_test1.obj
 0002:0000e214       ??_R2IModuleReg@base@UModSys@@8 10048214     plugin_test1.obj
 0002:0000e21c       ??_R1A@?0A@EA@RModuleReg@test1@test@modules@UModSys@@8 1004821c     plugin_test1.obj
 0002:0000e238       ??_R4RGenerator@test1@test@modules@UModSys@@6B@ 10048238     plugin_test1.obj
 0002:0000e24c       ??_R3RGenerator@test1@test@modules@UModSys@@8 1004824c     plugin_test1.obj
 0002:0000e25c       ??_R2RGenerator@test1@test@modules@UModSys@@8 1004825c     plugin_test1.obj
 0002:0000e274       ??_R1A@?0A@EA@RGenerator@test1@test@modules@UModSys@@8 10048274     plugin_test1.obj
 0002:0000e290       ??_R4RTest1_Shell@test1@test@modules@UModSys@@6BIControllerData@libui@4@@ 10048290     plugin_test1.obj
 0002:0000e2a4       ??_R4RTest1_Shell@test1@test@modules@UModSys@@6BIControllerCommand@libui@4@@ 100482a4     plugin_test1.obj
 0002:0000e2b8       ??_R4RTest1_Shell@test1@test@modules@UModSys@@6BIMouseClient@libui@4@@ 100482b8     plugin_test1.obj
 0002:0000e2cc       ??_R4RTest1_Shell@test1@test@modules@UModSys@@6BIKeyboardClient@libui@4@@ 100482cc     plugin_test1.obj
 0002:0000e2e0       ??_R4RTest1_Shell@test1@test@modules@UModSys@@6BIShell@base@4@@ 100482e0     plugin_test1.obj
 0002:0000e2f4       ??_R3RTest1_Shell@test1@test@modules@UModSys@@8 100482f4     plugin_test1.obj
 0002:0000e304       ??_R2RTest1_Shell@test1@test@modules@UModSys@@8 10048304     plugin_test1.obj
 0002:0000e32c       ??_R1BA@?0A@EA@IControllerData@libui@UModSys@@8 1004832c     plugin_test1.obj
 0002:0000e348       ??_R1M@?0A@EA@IControllerCommand@libui@UModSys@@8 10048348     plugin_test1.obj
 0002:0000e364       ??_R1M@?0A@EA@IController@libui@UModSys@@8 10048364     plugin_test1.obj
 0002:0000e380       ??_R17?0A@EA@IMouseClient@libui@UModSys@@8 10048380     plugin_test1.obj
 0002:0000e39c       ??_R13?0A@EA@IKeyboardClient@libui@UModSys@@8 1004839c     plugin_test1.obj
 0002:0000e3b8       ??_R1A@?0A@EA@RTest1_Shell@test1@test@modules@UModSys@@8 100483b8     plugin_test1.obj
 0002:0000e3d4       ??_R4IController@libui@UModSys@@6BIControllerData@12@@ 100483d4     plugin_test1.obj
 0002:0000e3e8       ??_R4IController@libui@UModSys@@6BIControllerCommand@12@@ 100483e8     plugin_test1.obj
 0002:0000e3fc       ??_R3IController@libui@UModSys@@8 100483fc     plugin_test1.obj
 0002:0000e40c       ??_R2IController@libui@UModSys@@8 1004840c     plugin_test1.obj
 0002:0000e41c       ??_R13?0A@EA@IControllerData@libui@UModSys@@8 1004841c     plugin_test1.obj
 0002:0000e438       ??_R1A@?0A@EA@IController@libui@UModSys@@8 10048438     plugin_test1.obj
 0002:0000e454       ??_R4IControllerData@libui@UModSys@@6B@ 10048454     plugin_test1.obj
 0002:0000e468       ??_R3IControllerData@libui@UModSys@@8 10048468     plugin_test1.obj
 0002:0000e478       ??_R2IControllerData@libui@UModSys@@8 10048478     plugin_test1.obj
 0002:0000e480       ??_R1A@?0A@EA@IControllerData@libui@UModSys@@8 10048480     plugin_test1.obj
 0002:0000e49c       ??_R3IControllerCommand@libui@UModSys@@8 1004849c     plugin_test1.obj
 0002:0000e4ac       ??_R2IControllerCommand@libui@UModSys@@8 100484ac     plugin_test1.obj
 0002:0000e4b4       ??_R1A@?0A@EA@IControllerCommand@libui@UModSys@@8 100484b4     plugin_test1.obj
 0002:0000e4d0       ??_R4IMouseClient@libui@UModSys@@6B@ 100484d0     plugin_test1.obj
 0002:0000e4e4       ??_R3IMouseClient@libui@UModSys@@8 100484e4     plugin_test1.obj
 0002:0000e4f4       ??_R2IMouseClient@libui@UModSys@@8 100484f4     plugin_test1.obj
 0002:0000e4fc       ??_R1A@?0A@EA@IMouseClient@libui@UModSys@@8 100484fc     plugin_test1.obj
 0002:0000e518       ??_R4IKeyboardClient@libui@UModSys@@6B@ 10048518     plugin_test1.obj
 0002:0000e52c       ??_R3IKeyboardClient@libui@UModSys@@8 1004852c     plugin_test1.obj
 0002:0000e53c       ??_R2IKeyboardClient@libui@UModSys@@8 1004853c     plugin_test1.obj
 0002:0000e544       ??_R1A@?0A@EA@IKeyboardClient@libui@UModSys@@8 10048544     plugin_test1.obj
 0002:0000e560       ??_R4ISetter@SFlags@libmedia@UModSys@@6B@ 10048560     plugin_test1.obj
 0002:0000e574       ??_R3IBinObjFilter@libmedia@UModSys@@8 10048574     plugin_test1.obj
 0002:0000e584       ??_R2IBinObjFilter@libmedia@UModSys@@8 10048584     plugin_test1.obj
 0002:0000e5a4       ??_R1A@?0A@EA@IBinObjFilter@libmedia@UModSys@@8 100485a4     plugin_test1.obj
 0002:0000e5c0       ??_R3ILibObject@libmedia@UModSys@@8 100485c0     plugin_test1.obj
 0002:0000e5d0       ??_R2ILibObject@libmedia@UModSys@@8 100485d0     plugin_test1.obj
 0002:0000e5ec       ??_R13?0A@EA@IResolver@SFlags@libmedia@UModSys@@8 100485ec     plugin_test1.obj
 0002:0000e608       ??_R13?0A@EA@IResolverAuto@SFlags@libmedia@UModSys@@8 10048608     plugin_test1.obj
 0002:0000e624       ??_R13?0A@EA@ISetter@SFlags@libmedia@UModSys@@8 10048624     plugin_test1.obj
 0002:0000e640       ??_R3ISetter@SFlags@libmedia@UModSys@@8 10048640     plugin_test1.obj
 0002:0000e650       ??_R2ISetter@SFlags@libmedia@UModSys@@8 10048650     plugin_test1.obj
 0002:0000e660       ??_R1A@?0A@EA@IResolverAuto@SFlags@libmedia@UModSys@@8 10048660     plugin_test1.obj
 0002:0000e67c       ??_R3IResolverAuto@SFlags@libmedia@UModSys@@8 1004867c     plugin_test1.obj
 0002:0000e68c       ??_R2IResolverAuto@SFlags@libmedia@UModSys@@8 1004868c     plugin_test1.obj
 0002:0000e698       ??_R1A@?0A@EA@IResolver@SFlags@libmedia@UModSys@@8 10048698     plugin_test1.obj
 0002:0000e6b4       ??_R3IResolver@SFlags@libmedia@UModSys@@8 100486b4     plugin_test1.obj
 0002:0000e6c4       ??_R2IResolver@SFlags@libmedia@UModSys@@8 100486c4     plugin_test1.obj
 0002:0000e6cc       ??_R1A@?0A@EA@ISetter@SFlags@libmedia@UModSys@@8 100486cc     plugin_test1.obj
 0002:0000e6e8       ??_R1A@?0A@EA@ILibObject@libmedia@UModSys@@8 100486e8     plugin_test1.obj
 0002:0000e704       ??_R3IShell@base@UModSys@@8 10048704     plugin_test1.obj
 0002:0000e714       ??_R2IShell@base@UModSys@@8 10048714     plugin_test1.obj
 0002:0000e724       ??_R1A@?0A@EA@IShell@base@UModSys@@8 10048724     plugin_test1.obj
 0002:0000e740       ??_R3IGenerator@base@UModSys@@8 10048740     plugin_test1.obj
 0002:0000e750       ??_R2IGenerator@base@UModSys@@8 10048750     plugin_test1.obj
 0002:0000e764       ??_R1A@?0A@EA@IGenerator@base@UModSys@@8 10048764     plugin_test1.obj
 0002:0000e780       ??_R3IModObject@base@UModSys@@8 10048780     plugin_test1.obj
 0002:0000e790       ??_R2IModObject@base@UModSys@@8 10048790     plugin_test1.obj
 0002:0000e7a0       ??_R1A@?0A@EA@IModObject@base@UModSys@@8 100487a0     plugin_test1.obj
 0002:0000e7bc       ??_R4IRefObject@core@UModSys@@6B@ 100487bc     plugin_test1.obj
 0002:0000e7d0       ??_R3IRefObject@core@UModSys@@8 100487d0     plugin_test1.obj
 0002:0000e7e0       ??_R2IRefObject@core@UModSys@@8 100487e0     plugin_test1.obj
 0002:0000e7ec       ??_R1A@?0A@EA@IRefObject@core@UModSys@@8 100487ec     plugin_test1.obj
 0002:0000e808       ??_R4IRoot@core@UModSys@@6B@ 10048808     plugin_test1.obj
 0002:0000e81c       ??_R3IRoot@core@UModSys@@8 1004881c     plugin_test1.obj
 0002:0000e82c       ??_R2IRoot@core@UModSys@@8 1004882c     plugin_test1.obj
 0002:0000e834       ??_R1A@?0A@EA@IRoot@core@UModSys@@8 10048834     plugin_test1.obj
 0002:0000e850       ??_R4RModuleReg@stdlib@lib2d@modules@UModSys@@6B@ 10048850     umodsys_lib_lib2d:umodsys.mod.2d.stdlib.obj
 0002:0000e864       ??_R3RModuleReg@stdlib@lib2d@modules@UModSys@@8 10048864     umodsys_lib_lib2d:umodsys.mod.2d.stdlib.obj
 0002:0000e874       ??_R2RModuleReg@stdlib@lib2d@modules@UModSys@@8 10048874     umodsys_lib_lib2d:umodsys.mod.2d.stdlib.obj
 0002:0000e880       ??_R1A@?0A@EA@RModuleReg@stdlib@lib2d@modules@UModSys@@8 10048880     umodsys_lib_lib2d:umodsys.mod.2d.stdlib.obj
 0002:0000e89c       ??_R4RMultiImage@stdlib@lib2d@modules@UModSys@@6B@ 1004889c     umodsys_lib_lib2d:umodsys.mod.2d.stdlib.obj
 0002:0000e8b0       ??_R3RMultiImage@stdlib@lib2d@modules@UModSys@@8 100488b0     umodsys_lib_lib2d:umodsys.mod.2d.stdlib.obj
 0002:0000e8c0       ??_R2RMultiImage@stdlib@lib2d@modules@UModSys@@8 100488c0     umodsys_lib_lib2d:umodsys.mod.2d.stdlib.obj
 0002:0000e8d4       ??_R1A@?0A@EA@RMultiImage@stdlib@lib2d@modules@UModSys@@8 100488d4     umodsys_lib_lib2d:umodsys.mod.2d.stdlib.obj
 0002:0000e8f0       ??_R4RImageFactory_Memory@stdlib@lib2d@modules@UModSys@@6B@ 100488f0     umodsys_lib_lib2d:umodsys.mod.2d.stdlib.obj
 0002:0000e904       ??_R3RImageFactory_Memory@stdlib@lib2d@modules@UModSys@@8 10048904     umodsys_lib_lib2d:umodsys.mod.2d.stdlib.obj
 0002:0000e914       ??_R2RImageFactory_Memory@stdlib@lib2d@modules@UModSys@@8 10048914     umodsys_lib_lib2d:umodsys.mod.2d.stdlib.obj
 0002:0000e928       ??_R1A@?0A@EA@RImageFactory_Memory@stdlib@lib2d@modules@UModSys@@8 10048928     umodsys_lib_lib2d:umodsys.mod.2d.stdlib.obj
 0002:0000e944       ??_R4RImage_Memory@stdlib@lib2d@modules@UModSys@@6B@ 10048944     umodsys_lib_lib2d:umodsys.mod.2d.stdlib.obj
 0002:0000e958       ??_R3RImage_Memory@stdlib@lib2d@modules@UModSys@@8 10048958     umodsys_lib_lib2d:umodsys.mod.2d.stdlib.obj
 0002:0000e968       ??_R2RImage_Memory@stdlib@lib2d@modules@UModSys@@8 10048968     umodsys_lib_lib2d:umodsys.mod.2d.stdlib.obj
 0002:0000e97c       ??_R1A@?0A@EA@RImage_Memory@stdlib@lib2d@modules@UModSys@@8 1004897c     umodsys_lib_lib2d:umodsys.mod.2d.stdlib.obj
 0002:0000e998       ??_R4RGenerator@stdlib@lib2d@modules@UModSys@@6B@ 10048998     umodsys_lib_lib2d:umodsys.mod.2d.stdlib.obj
 0002:0000e9ac       ??_R3RGenerator@stdlib@lib2d@modules@UModSys@@8 100489ac     umodsys_lib_lib2d:umodsys.mod.2d.stdlib.obj
 0002:0000e9bc       ??_R2RGenerator@stdlib@lib2d@modules@UModSys@@8 100489bc     umodsys_lib_lib2d:umodsys.mod.2d.stdlib.obj
 0002:0000e9d4       ??_R1A@?0A@EA@RGenerator@stdlib@lib2d@modules@UModSys@@8 100489d4     umodsys_lib_lib2d:umodsys.mod.2d.stdlib.obj
 0002:0000e9f0       ??_R3IMultiImage@lib2d@UModSys@@8 100489f0     umodsys_lib_lib2d:umodsys.mod.2d.stdlib.obj
 0002:0000ea00       ??_R2IMultiImage@lib2d@UModSys@@8 10048a00     umodsys_lib_lib2d:umodsys.mod.2d.stdlib.obj
 0002:0000ea10       ??_R1A@?0A@EA@IMultiImage@lib2d@UModSys@@8 10048a10     umodsys_lib_lib2d:umodsys.mod.2d.stdlib.obj
 0002:0000ea2c       ??_R3IImageFactory@lib2d@UModSys@@8 10048a2c     umodsys_lib_lib2d:umodsys.mod.2d.stdlib.obj
 0002:0000ea3c       ??_R2IImageFactory@lib2d@UModSys@@8 10048a3c     umodsys_lib_lib2d:umodsys.mod.2d.stdlib.obj
 0002:0000ea4c       ??_R1A@?0A@EA@IImageFactory@lib2d@UModSys@@8 10048a4c     umodsys_lib_lib2d:umodsys.mod.2d.stdlib.obj
 0002:0000ea68       ??_R3IImage@lib2d@UModSys@@8 10048a68     umodsys_lib_lib2d:umodsys.mod.2d.stdlib.obj
 0002:0000ea78       ??_R2IImage@lib2d@UModSys@@8 10048a78     umodsys_lib_lib2d:umodsys.mod.2d.stdlib.obj
 0002:0000ea88       ??_R1A@?0A@EA@IImage@lib2d@UModSys@@8 10048a88     umodsys_lib_lib2d:umodsys.mod.2d.stdlib.obj
 0002:0000eaa4       ??_R4RModuleReg@SDL_GL@ui@modules@UModSys@@6B@ 10048aa4     umodsys_lib_libui:umodsys.mod.ui.SDL_GL.obj
 0002:0000eab8       ??_R3RModuleReg@SDL_GL@ui@modules@UModSys@@8 10048ab8     umodsys_lib_libui:umodsys.mod.ui.SDL_GL.obj
 0002:0000eac8       ??_R2RModuleReg@SDL_GL@ui@modules@UModSys@@8 10048ac8     umodsys_lib_libui:umodsys.mod.ui.SDL_GL.obj
 0002:0000ead4       ??_R1A@?0A@EA@RModuleReg@SDL_GL@ui@modules@UModSys@@8 10048ad4     umodsys_lib_libui:umodsys.mod.ui.SDL_GL.obj
 0002:0000eaf0       ??_R4RVertexArray@SDL_GL@ui@modules@UModSys@@6B@ 10048af0     umodsys_lib_libui:umodsys.mod.ui.SDL_GL.obj
 0002:0000eb04       ??_R3RVertexArray@SDL_GL@ui@modules@UModSys@@8 10048b04     umodsys_lib_libui:umodsys.mod.ui.SDL_GL.obj
 0002:0000eb14       ??_R2RVertexArray@SDL_GL@ui@modules@UModSys@@8 10048b14     umodsys_lib_libui:umodsys.mod.ui.SDL_GL.obj
 0002:0000eb28       ??_R1A@?0A@EA@RVertexArray@SDL_GL@ui@modules@UModSys@@8 10048b28     umodsys_lib_libui:umodsys.mod.ui.SDL_GL.obj
 0002:0000eb44       ??_R4RTerminalX@SDL_GL@ui@modules@UModSys@@6B@ 10048b44     umodsys_lib_libui:umodsys.mod.ui.SDL_GL.obj
 0002:0000eb58       ??_R3RTerminalX@SDL_GL@ui@modules@UModSys@@8 10048b58     umodsys_lib_libui:umodsys.mod.ui.SDL_GL.obj
 0002:0000eb68       ??_R2RTerminalX@SDL_GL@ui@modules@UModSys@@8 10048b68     umodsys_lib_libui:umodsys.mod.ui.SDL_GL.obj
 0002:0000eb80       ??_R1A@?0A@EA@RTerminalX@SDL_GL@ui@modules@UModSys@@8 10048b80     umodsys_lib_libui:umodsys.mod.ui.SDL_GL.obj
 0002:0000eb9c       ??_R4RMultiImage2D_SDL_ttf@SDL_GL@ui@modules@UModSys@@6B@ 10048b9c     umodsys_lib_libui:umodsys.mod.ui.SDL_GL.obj
 0002:0000ebb0       ??_R3RMultiImage2D_SDL_ttf@SDL_GL@ui@modules@UModSys@@8 10048bb0     umodsys_lib_libui:umodsys.mod.ui.SDL_GL.obj
 0002:0000ebc0       ??_R2RMultiImage2D_SDL_ttf@SDL_GL@ui@modules@UModSys@@8 10048bc0     umodsys_lib_libui:umodsys.mod.ui.SDL_GL.obj
 0002:0000ebd4       ??_R1A@?0A@EA@RMultiImage2D_SDL_ttf@SDL_GL@ui@modules@UModSys@@8 10048bd4     umodsys_lib_libui:umodsys.mod.ui.SDL_GL.obj
 0002:0000ebf0       ??_R4RMouseController@SDL_GL@ui@modules@UModSys@@6B@ 10048bf0     umodsys_lib_libui:umodsys.mod.ui.SDL_GL.obj
 0002:0000ec04       ??_R3RMouseController@SDL_GL@ui@modules@UModSys@@8 10048c04     umodsys_lib_libui:umodsys.mod.ui.SDL_GL.obj
 0002:0000ec14       ??_R2RMouseController@SDL_GL@ui@modules@UModSys@@8 10048c14     umodsys_lib_libui:umodsys.mod.ui.SDL_GL.obj
 0002:0000ec28       ??_R1A@?0A@EA@RMouseController@SDL_GL@ui@modules@UModSys@@8 10048c28     umodsys_lib_libui:umodsys.mod.ui.SDL_GL.obj
 0002:0000ec44       ??_R4RKeyboardController@SDL_GL@ui@modules@UModSys@@6B@ 10048c44     umodsys_lib_libui:umodsys.mod.ui.SDL_GL.obj
 0002:0000ec58       ??_R3RKeyboardController@SDL_GL@ui@modules@UModSys@@8 10048c58     umodsys_lib_libui:umodsys.mod.ui.SDL_GL.obj
 0002:0000ec68       ??_R2RKeyboardController@SDL_GL@ui@modules@UModSys@@8 10048c68     umodsys_lib_libui:umodsys.mod.ui.SDL_GL.obj
 0002:0000ec7c       ??_R1A@?0A@EA@RKeyboardController@SDL_GL@ui@modules@UModSys@@8 10048c7c     umodsys_lib_libui:umodsys.mod.ui.SDL_GL.obj
 0002:0000ec98       ??_R4RTerminal@SDL_GL@ui@modules@UModSys@@6B@ 10048c98     umodsys_lib_libui:umodsys.mod.ui.SDL_GL.obj
 0002:0000ecac       ??_R3RTerminal@SDL_GL@ui@modules@UModSys@@8 10048cac     umodsys_lib_libui:umodsys.mod.ui.SDL_GL.obj
 0002:0000ecbc       ??_R2RTerminal@SDL_GL@ui@modules@UModSys@@8 10048cbc     umodsys_lib_libui:umodsys.mod.ui.SDL_GL.obj
 0002:0000ecd0       ??_R1A@?0A@EA@RTerminal@SDL_GL@ui@modules@UModSys@@8 10048cd0     umodsys_lib_libui:umodsys.mod.ui.SDL_GL.obj
 0002:0000ecec       ??_R4SGLFuncsLegacy@SDL_GL@ui@modules@UModSys@@6B@ 10048cec     umodsys_lib_libui:umodsys.mod.ui.SDL_GL.obj
 0002:0000ed00       ??_R3SGLFuncsLegacy@SDL_GL@ui@modules@UModSys@@8 10048d00     umodsys_lib_libui:umodsys.mod.ui.SDL_GL.obj
 0002:0000ed10       ??_R2SGLFuncsLegacy@SDL_GL@ui@modules@UModSys@@8 10048d10     umodsys_lib_libui:umodsys.mod.ui.SDL_GL.obj
 0002:0000ed20       ??_R1A@?0A@EA@SGLFuncsLegacy@SDL_GL@ui@modules@UModSys@@8 10048d20     umodsys_lib_libui:umodsys.mod.ui.SDL_GL.obj
 0002:0000ed3c       ??_R4SGLFuncs@SDL_GL@ui@modules@UModSys@@6B@ 10048d3c     umodsys_lib_libui:umodsys.mod.ui.SDL_GL.obj
 0002:0000ed50       ??_R3SGLFuncs@SDL_GL@ui@modules@UModSys@@8 10048d50     umodsys_lib_libui:umodsys.mod.ui.SDL_GL.obj
 0002:0000ed60       ??_R2SGLFuncs@SDL_GL@ui@modules@UModSys@@8 10048d60     umodsys_lib_libui:umodsys.mod.ui.SDL_GL.obj
 0002:0000ed6c       ??_R13?0A@EA@SGLFuncsBase@SDL_GL@ui@modules@UModSys@@8 10048d6c     umodsys_lib_libui:umodsys.mod.ui.SDL_GL.obj
 0002:0000ed88       ??_R3SGLFuncsBase@SDL_GL@ui@modules@UModSys@@8 10048d88     umodsys_lib_libui:umodsys.mod.ui.SDL_GL.obj
 0002:0000ed98       ??_R2SGLFuncsBase@SDL_GL@ui@modules@UModSys@@8 10048d98     umodsys_lib_libui:umodsys.mod.ui.SDL_GL.obj
 0002:0000eda0       ??_R1A@?0A@EA@SGLFuncsBase@SDL_GL@ui@modules@UModSys@@8 10048da0     umodsys_lib_libui:umodsys.mod.ui.SDL_GL.obj
 0002:0000edbc       ??_R1A@?0A@EA@SGLFuncs@SDL_GL@ui@modules@UModSys@@8 10048dbc     umodsys_lib_libui:umodsys.mod.ui.SDL_GL.obj
 0002:0000edd8       ??_R4RRenderDriver3D@SDL_GL@ui@modules@UModSys@@6B@ 10048dd8     umodsys_lib_libui:umodsys.mod.ui.SDL_GL.obj
 0002:0000edec       ??_R3RRenderDriver3D@SDL_GL@ui@modules@UModSys@@8 10048dec     umodsys_lib_libui:umodsys.mod.ui.SDL_GL.obj
 0002:0000edfc       ??_R2RRenderDriver3D@SDL_GL@ui@modules@UModSys@@8 10048dfc     umodsys_lib_libui:umodsys.mod.ui.SDL_GL.obj
 0002:0000ee14       ??_R1A@?0A@EA@RRenderDriver3D@SDL_GL@ui@modules@UModSys@@8 10048e14     umodsys_lib_libui:umodsys.mod.ui.SDL_GL.obj
 0002:0000ee30       ??_R4RGenerator@SDL_GL@ui@modules@UModSys@@6B@ 10048e30     umodsys_lib_libui:umodsys.mod.ui.SDL_GL.obj
 0002:0000ee44       ??_R3RGenerator@SDL_GL@ui@modules@UModSys@@8 10048e44     umodsys_lib_libui:umodsys.mod.ui.SDL_GL.obj
 0002:0000ee54       ??_R2RGenerator@SDL_GL@ui@modules@UModSys@@8 10048e54     umodsys_lib_libui:umodsys.mod.ui.SDL_GL.obj
 0002:0000ee6c       ??_R1A@?0A@EA@RGenerator@SDL_GL@ui@modules@UModSys@@8 10048e6c     umodsys_lib_libui:umodsys.mod.ui.SDL_GL.obj
 0002:0000ee88       ??_R3IMouseController@libui@UModSys@@8 10048e88     umodsys_lib_libui:umodsys.mod.ui.SDL_GL.obj
 0002:0000ee98       ??_R2IMouseController@libui@UModSys@@8 10048e98     umodsys_lib_libui:umodsys.mod.ui.SDL_GL.obj
 0002:0000eea8       ??_R1A@?0A@EA@IMouseController@libui@UModSys@@8 10048ea8     umodsys_lib_libui:umodsys.mod.ui.SDL_GL.obj
 0002:0000eec4       ??_R3IKeyboardController@libui@UModSys@@8 10048ec4     umodsys_lib_libui:umodsys.mod.ui.SDL_GL.obj
 0002:0000eed4       ??_R2IKeyboardController@libui@UModSys@@8 10048ed4     umodsys_lib_libui:umodsys.mod.ui.SDL_GL.obj
 0002:0000eee4       ??_R1A@?0A@EA@IKeyboardController@libui@UModSys@@8 10048ee4     umodsys_lib_libui:umodsys.mod.ui.SDL_GL.obj
 0002:0000ef00       ??_R3ITerminal@libui@UModSys@@8 10048f00     umodsys_lib_libui:umodsys.mod.ui.SDL_GL.obj
 0002:0000ef10       ??_R2ITerminal@libui@UModSys@@8 10048f10     umodsys_lib_libui:umodsys.mod.ui.SDL_GL.obj
 0002:0000ef20       ??_R1A@?0A@EA@ITerminal@libui@UModSys@@8 10048f20     umodsys_lib_libui:umodsys.mod.ui.SDL_GL.obj
 0002:0000ef3c       ??_R3IVertexArray@lib3d@UModSys@@8 10048f3c     umodsys_lib_libui:umodsys.mod.ui.SDL_GL.obj
 0002:0000ef4c       ??_R2IVertexArray@lib3d@UModSys@@8 10048f4c     umodsys_lib_libui:umodsys.mod.ui.SDL_GL.obj
 0002:0000ef5c       ??_R1A@?0A@EA@IVertexArray@lib3d@UModSys@@8 10048f5c     umodsys_lib_libui:umodsys.mod.ui.SDL_GL.obj
 0002:0000ef78       ??_R3IRenderDriver@lib3d@UModSys@@8 10048f78     umodsys_lib_libui:umodsys.mod.ui.SDL_GL.obj
 0002:0000ef88       ??_R2IRenderDriver@lib3d@UModSys@@8 10048f88     umodsys_lib_libui:umodsys.mod.ui.SDL_GL.obj
 0002:0000ef9c       ??_R1A@?0A@EA@IRenderDriver@lib3d@UModSys@@8 10048f9c     umodsys_lib_libui:umodsys.mod.ui.SDL_GL.obj
 0002:0000efb8       ??_R3IRenderDriver@lib2d@UModSys@@8 10048fb8     umodsys_lib_libui:umodsys.mod.ui.SDL_GL.obj
 0002:0000efc8       ??_R2IRenderDriver@lib2d@UModSys@@8 10048fc8     umodsys_lib_libui:umodsys.mod.ui.SDL_GL.obj
 0002:0000efd8       ??_R1A@?0A@EA@IRenderDriver@lib2d@UModSys@@8 10048fd8     umodsys_lib_libui:umodsys.mod.ui.SDL_GL.obj
 0002:0000eff4       ??_R4RModuleReg@SDL_core@ui@modules@UModSys@@6B@ 10048ff4     umodsys_lib_libui:umodsys.mod.ui.SDL_core.obj
 0002:0000f008       ??_R3RModuleReg@SDL_core@ui@modules@UModSys@@8 10049008     umodsys_lib_libui:umodsys.mod.ui.SDL_core.obj
 0002:0000f018       ??_R2RModuleReg@SDL_core@ui@modules@UModSys@@8 10049018     umodsys_lib_libui:umodsys.mod.ui.SDL_core.obj
 0002:0000f024       ??_R1A@?0A@EA@RModuleReg@SDL_core@ui@modules@UModSys@@8 10049024     umodsys_lib_libui:umodsys.mod.ui.SDL_core.obj
 0002:0000f040       ??_R4RTerminalX@SDL_core@ui@modules@UModSys@@6B@ 10049040     umodsys_lib_libui:umodsys.mod.ui.SDL_core.obj
 0002:0000f054       ??_R3RTerminalX@SDL_core@ui@modules@UModSys@@8 10049054     umodsys_lib_libui:umodsys.mod.ui.SDL_core.obj
 0002:0000f064       ??_R2RTerminalX@SDL_core@ui@modules@UModSys@@8 10049064     umodsys_lib_libui:umodsys.mod.ui.SDL_core.obj
 0002:0000f07c       ??_R1A@?0A@EA@RTerminalX@SDL_core@ui@modules@UModSys@@8 1004907c     umodsys_lib_libui:umodsys.mod.ui.SDL_core.obj
 0002:0000f098       ??_R4RMultiImage2D_SDL_ttf@SDL_core@ui@modules@UModSys@@6B@ 10049098     umodsys_lib_libui:umodsys.mod.ui.SDL_core.obj
 0002:0000f0ac       ??_R3RMultiImage2D_SDL_ttf@SDL_core@ui@modules@UModSys@@8 100490ac     umodsys_lib_libui:umodsys.mod.ui.SDL_core.obj
 0002:0000f0bc       ??_R2RMultiImage2D_SDL_ttf@SDL_core@ui@modules@UModSys@@8 100490bc     umodsys_lib_libui:umodsys.mod.ui.SDL_core.obj
 0002:0000f0d0       ??_R1A@?0A@EA@RMultiImage2D_SDL_ttf@SDL_core@ui@modules@UModSys@@8 100490d0     umodsys_lib_libui:umodsys.mod.ui.SDL_core.obj
 0002:0000f0ec       ??_R4RMouseController@SDL_core@ui@modules@UModSys@@6B@ 100490ec     umodsys_lib_libui:umodsys.mod.ui.SDL_core.obj
 0002:0000f100       ??_R3RMouseController@SDL_core@ui@modules@UModSys@@8 10049100     umodsys_lib_libui:umodsys.mod.ui.SDL_core.obj
 0002:0000f110       ??_R2RMouseController@SDL_core@ui@modules@UModSys@@8 10049110     umodsys_lib_libui:umodsys.mod.ui.SDL_core.obj
 0002:0000f124       ??_R1A@?0A@EA@RMouseController@SDL_core@ui@modules@UModSys@@8 10049124     umodsys_lib_libui:umodsys.mod.ui.SDL_core.obj
 0002:0000f140       ??_R4RKeyboardController@SDL_core@ui@modules@UModSys@@6B@ 10049140     umodsys_lib_libui:umodsys.mod.ui.SDL_core.obj
 0002:0000f154       ??_R3RKeyboardController@SDL_core@ui@modules@UModSys@@8 10049154     umodsys_lib_libui:umodsys.mod.ui.SDL_core.obj
 0002:0000f164       ??_R2RKeyboardController@SDL_core@ui@modules@UModSys@@8 10049164     umodsys_lib_libui:umodsys.mod.ui.SDL_core.obj
 0002:0000f178       ??_R1A@?0A@EA@RKeyboardController@SDL_core@ui@modules@UModSys@@8 10049178     umodsys_lib_libui:umodsys.mod.ui.SDL_core.obj
 0002:0000f194       ??_R4RTerminal@SDL_core@ui@modules@UModSys@@6B@ 10049194     umodsys_lib_libui:umodsys.mod.ui.SDL_core.obj
 0002:0000f1a8       ??_R3RTerminal@SDL_core@ui@modules@UModSys@@8 100491a8     umodsys_lib_libui:umodsys.mod.ui.SDL_core.obj
 0002:0000f1b8       ??_R2RTerminal@SDL_core@ui@modules@UModSys@@8 100491b8     umodsys_lib_libui:umodsys.mod.ui.SDL_core.obj
 0002:0000f1cc       ??_R1A@?0A@EA@RTerminal@SDL_core@ui@modules@UModSys@@8 100491cc     umodsys_lib_libui:umodsys.mod.ui.SDL_core.obj
 0002:0000f1e8       ??_R4RRenderDriver2D@SDL_core@ui@modules@UModSys@@6B@ 100491e8     umodsys_lib_libui:umodsys.mod.ui.SDL_core.obj
 0002:0000f1fc       ??_R3RRenderDriver2D@SDL_core@ui@modules@UModSys@@8 100491fc     umodsys_lib_libui:umodsys.mod.ui.SDL_core.obj
 0002:0000f20c       ??_R2RRenderDriver2D@SDL_core@ui@modules@UModSys@@8 1004920c     umodsys_lib_libui:umodsys.mod.ui.SDL_core.obj
 0002:0000f220       ??_R1A@?0A@EA@RRenderDriver2D@SDL_core@ui@modules@UModSys@@8 10049220     umodsys_lib_libui:umodsys.mod.ui.SDL_core.obj
 0002:0000f23c       ??_R4RGenerator@SDL_core@ui@modules@UModSys@@6B@ 1004923c     umodsys_lib_libui:umodsys.mod.ui.SDL_core.obj
 0002:0000f250       ??_R3RGenerator@SDL_core@ui@modules@UModSys@@8 10049250     umodsys_lib_libui:umodsys.mod.ui.SDL_core.obj
 0002:0000f260       ??_R2RGenerator@SDL_core@ui@modules@UModSys@@8 10049260     umodsys_lib_libui:umodsys.mod.ui.SDL_core.obj
 0002:0000f278       ??_R1A@?0A@EA@RGenerator@SDL_core@ui@modules@UModSys@@8 10049278     umodsys_lib_libui:umodsys.mod.ui.SDL_core.obj
 0002:0000f294       ??_R4RModuleReg@frames@ui@modules@UModSys@@6B@ 10049294     umodsys_lib_libui:umodsys.mod.ui.frames.obj
 0002:0000f2a8       ??_R3RModuleReg@frames@ui@modules@UModSys@@8 100492a8     umodsys_lib_libui:umodsys.mod.ui.frames.obj
 0002:0000f2b8       ??_R2RModuleReg@frames@ui@modules@UModSys@@8 100492b8     umodsys_lib_libui:umodsys.mod.ui.frames.obj
 0002:0000f2c4       ??_R1A@?0A@EA@RModuleReg@frames@ui@modules@UModSys@@8 100492c4     umodsys_lib_libui:umodsys.mod.ui.frames.obj
 0002:0000f2e0       ??_R4RFrame_List@frames@ui@modules@UModSys@@6BIFrameData@libui@4@@ 100492e0     umodsys_lib_libui:umodsys.mod.ui.frames.obj
 0002:0000f2f4       ??_R4RFrame_List@frames@ui@modules@UModSys@@6BIFrameList@libui@4@@ 100492f4     umodsys_lib_libui:umodsys.mod.ui.frames.obj
 0002:0000f308       ??_R4RFrame_List@frames@ui@modules@UModSys@@6BICollectorThemeTree@libui@4@@ 10049308     umodsys_lib_libui:umodsys.mod.ui.frames.obj
 0002:0000f31c       ??_R4RFrame_List@frames@ui@modules@UModSys@@6BIRefObject@core@4@@ 1004931c     umodsys_lib_libui:umodsys.mod.ui.frames.obj
 0002:0000f330       ??_R3RFrame_List@frames@ui@modules@UModSys@@8 10049330     umodsys_lib_libui:umodsys.mod.ui.frames.obj
 0002:0000f340       ??_R2RFrame_List@frames@ui@modules@UModSys@@8 10049340     umodsys_lib_libui:umodsys.mod.ui.frames.obj
 0002:0000f364       ??_R1JM@?0A@EA@IFrameData@libui@UModSys@@8 10049364     umodsys_lib_libui:umodsys.mod.ui.frames.obj
 0002:0000f380       ??_R1JI@?0A@EA@IFrameList@libui@UModSys@@8 10049380     umodsys_lib_libui:umodsys.mod.ui.frames.obj
 0002:0000f39c       ??_R1A@?0A@EA@RFrame_List@frames@ui@modules@UModSys@@8 1004939c     umodsys_lib_libui:umodsys.mod.ui.frames.obj
 0002:0000f3b8       ??_R4RFrame_Edit@frames@ui@modules@UModSys@@6B@ 100493b8     umodsys_lib_libui:umodsys.mod.ui.frames.obj
 0002:0000f3cc       ??_R4RFrame_Edit@frames@ui@modules@UModSys@@6BICollectorThemeTree@libui@4@@ 100493cc     umodsys_lib_libui:umodsys.mod.ui.frames.obj
 0002:0000f3e0       ??_R4RFrame_Edit@frames@ui@modules@UModSys@@6BIRefObject@core@4@@ 100493e0     umodsys_lib_libui:umodsys.mod.ui.frames.obj
 0002:0000f3f4       ??_R3RFrame_Edit@frames@ui@modules@UModSys@@8 100493f4     umodsys_lib_libui:umodsys.mod.ui.frames.obj
 0002:0000f404       ??_R2RFrame_Edit@frames@ui@modules@UModSys@@8 10049404     umodsys_lib_libui:umodsys.mod.ui.frames.obj
 0002:0000f424       ??_R1A@?0A@EA@RFrame_Edit@frames@ui@modules@UModSys@@8 10049424     umodsys_lib_libui:umodsys.mod.ui.frames.obj
 0002:0000f440       ??_R4RFrame_Button@frames@ui@modules@UModSys@@6BICollectorThemeTree@libui@4@@ 10049440     umodsys_lib_libui:umodsys.mod.ui.frames.obj
 0002:0000f454       ??_R4RFrame_Button@frames@ui@modules@UModSys@@6BIRefObject@core@4@@ 10049454     umodsys_lib_libui:umodsys.mod.ui.frames.obj
 0002:0000f468       ??_R3RFrame_Button@frames@ui@modules@UModSys@@8 10049468     umodsys_lib_libui:umodsys.mod.ui.frames.obj
 0002:0000f478       ??_R2RFrame_Button@frames@ui@modules@UModSys@@8 10049478     umodsys_lib_libui:umodsys.mod.ui.frames.obj
 0002:0000f494       ??_R1A@?0A@EA@RFrame_Button@frames@ui@modules@UModSys@@8 10049494     umodsys_lib_libui:umodsys.mod.ui.frames.obj
 0002:0000f4b0       ??_R4RFrame_Text@frames@ui@modules@UModSys@@6B@ 100494b0     umodsys_lib_libui:umodsys.mod.ui.frames.obj
 0002:0000f4c4       ??_R4RFrame_Text@frames@ui@modules@UModSys@@6BICollectorThemeTree@libui@4@@ 100494c4     umodsys_lib_libui:umodsys.mod.ui.frames.obj
 0002:0000f4d8       ??_R4RFrame_Text@frames@ui@modules@UModSys@@6BIRefObject@core@4@@ 100494d8     umodsys_lib_libui:umodsys.mod.ui.frames.obj
 0002:0000f4ec       ??_R3RFrame_Text@frames@ui@modules@UModSys@@8 100494ec     umodsys_lib_libui:umodsys.mod.ui.frames.obj
 0002:0000f4fc       ??_R2RFrame_Text@frames@ui@modules@UModSys@@8 100494fc     umodsys_lib_libui:umodsys.mod.ui.frames.obj
 0002:0000f51c       ??_R1JI@?0A@EA@IFrameData@libui@UModSys@@8 1004951c     umodsys_lib_libui:umodsys.mod.ui.frames.obj
 0002:0000f538       ??_R1A@?0A@EA@RFrame_Text@frames@ui@modules@UModSys@@8 10049538     umodsys_lib_libui:umodsys.mod.ui.frames.obj
 0002:0000f554       ??_R4RFrame_Image@frames@ui@modules@UModSys@@6BICollectorThemeTree@libui@4@@ 10049554     umodsys_lib_libui:umodsys.mod.ui.frames.obj
 0002:0000f568       ??_R4RFrame_Image@frames@ui@modules@UModSys@@6BIRefObject@core@4@@ 10049568     umodsys_lib_libui:umodsys.mod.ui.frames.obj
 0002:0000f57c       ??_R3RFrame_Image@frames@ui@modules@UModSys@@8 1004957c     umodsys_lib_libui:umodsys.mod.ui.frames.obj
 0002:0000f58c       ??_R2RFrame_Image@frames@ui@modules@UModSys@@8 1004958c     umodsys_lib_libui:umodsys.mod.ui.frames.obj
 0002:0000f5a8       ??_R1A@?0A@EA@RFrame_Image@frames@ui@modules@UModSys@@8 100495a8     umodsys_lib_libui:umodsys.mod.ui.frames.obj
 0002:0000f5c4       ??_R4RFrame_Frame@frames@ui@modules@UModSys@@6BICollectorThemeTree@libui@4@@ 100495c4     umodsys_lib_libui:umodsys.mod.ui.frames.obj
 0002:0000f5d8       ??_R4RFrame_Frame@frames@ui@modules@UModSys@@6BIRefObject@core@4@@ 100495d8     umodsys_lib_libui:umodsys.mod.ui.frames.obj
 0002:0000f5ec       ??_R3RFrame_Frame@frames@ui@modules@UModSys@@8 100495ec     umodsys_lib_libui:umodsys.mod.ui.frames.obj
 0002:0000f5fc       ??_R2RFrame_Frame@frames@ui@modules@UModSys@@8 100495fc     umodsys_lib_libui:umodsys.mod.ui.frames.obj
 0002:0000f618       ??_R1A@?0A@EA@RFrame_Frame@frames@ui@modules@UModSys@@8 10049618     umodsys_lib_libui:umodsys.mod.ui.frames.obj
 0002:0000f634       ??_R4RCollectorTheme@frames@ui@modules@UModSys@@6B@ 10049634     umodsys_lib_libui:umodsys.mod.ui.frames.obj
 0002:0000f648       ??_R3RCollectorTheme@frames@ui@modules@UModSys@@8 10049648     umodsys_lib_libui:umodsys.mod.ui.frames.obj
 0002:0000f658       ??_R2RCollectorTheme@frames@ui@modules@UModSys@@8 10049658     umodsys_lib_libui:umodsys.mod.ui.frames.obj
 0002:0000f668       ??_R1A@?0A@EA@RCollectorTheme@frames@ui@modules@UModSys@@8 10049668     umodsys_lib_libui:umodsys.mod.ui.frames.obj
 0002:0000f684       ??_R4RFrame_Common@frames@ui@modules@UModSys@@6BICollectorThemeTree@libui@4@@ 10049684     umodsys_lib_libui:umodsys.mod.ui.frames.obj
 0002:0000f698       ??_R4RFrame_Common@frames@ui@modules@UModSys@@6BIRefObject@core@4@@ 10049698     umodsys_lib_libui:umodsys.mod.ui.frames.obj
 0002:0000f6ac       ??_R3RFrame_Common@frames@ui@modules@UModSys@@8 100496ac     umodsys_lib_libui:umodsys.mod.ui.frames.obj
 0002:0000f6bc       ??_R2RFrame_Common@frames@ui@modules@UModSys@@8 100496bc     umodsys_lib_libui:umodsys.mod.ui.frames.obj
 0002:0000f6d4       ??_R1A@?0A@EA@RFrame_Common@frames@ui@modules@UModSys@@8 100496d4     umodsys_lib_libui:umodsys.mod.ui.frames.obj
 0002:0000f6f0       ??_R4RDialog@frames@ui@modules@UModSys@@6B@ 100496f0     umodsys_lib_libui:umodsys.mod.ui.frames.obj
 0002:0000f704       ??_R3RDialog@frames@ui@modules@UModSys@@8 10049704     umodsys_lib_libui:umodsys.mod.ui.frames.obj
 0002:0000f714       ??_R2RDialog@frames@ui@modules@UModSys@@8 10049714     umodsys_lib_libui:umodsys.mod.ui.frames.obj
 0002:0000f728       ??_R1A@?0A@EA@RDialog@frames@ui@modules@UModSys@@8 10049728     umodsys_lib_libui:umodsys.mod.ui.frames.obj
 0002:0000f744       ??_R4RCollector@frames@ui@modules@UModSys@@6BIMouseClient@libui@4@@ 10049744     umodsys_lib_libui:umodsys.mod.ui.frames.obj
 0002:0000f758       ??_R4RCollector@frames@ui@modules@UModSys@@6BIKeyboardClient@libui@4@@ 10049758     umodsys_lib_libui:umodsys.mod.ui.frames.obj
 0002:0000f76c       ??_R4RCollector@frames@ui@modules@UModSys@@6BICollectorThemeTree@libui@4@@ 1004976c     umodsys_lib_libui:umodsys.mod.ui.frames.obj
 0002:0000f780       ??_R4RCollector@frames@ui@modules@UModSys@@6BIRefObject@core@4@@ 10049780     umodsys_lib_libui:umodsys.mod.ui.frames.obj
 0002:0000f794       ??_R3RCollector@frames@ui@modules@UModSys@@8 10049794     umodsys_lib_libui:umodsys.mod.ui.frames.obj
 0002:0000f7a4       ??_R2RCollector@frames@ui@modules@UModSys@@8 100497a4     umodsys_lib_libui:umodsys.mod.ui.frames.obj
 0002:0000f7c4       ??_R1M@?0A@EA@IMouseClient@libui@UModSys@@8 100497c4     umodsys_lib_libui:umodsys.mod.ui.frames.obj
 0002:0000f7e0       ??_R17?0A@EA@IKeyboardClient@libui@UModSys@@8 100497e0     umodsys_lib_libui:umodsys.mod.ui.frames.obj
 0002:0000f7fc       ??_R1A@?0A@EA@RCollector@frames@ui@modules@UModSys@@8 100497fc     umodsys_lib_libui:umodsys.mod.ui.frames.obj
 0002:0000f818       ??_R4RGenerator@frames@ui@modules@UModSys@@6B@ 10049818     umodsys_lib_libui:umodsys.mod.ui.frames.obj
 0002:0000f82c       ??_R3RGenerator@frames@ui@modules@UModSys@@8 1004982c     umodsys_lib_libui:umodsys.mod.ui.frames.obj
 0002:0000f83c       ??_R2RGenerator@frames@ui@modules@UModSys@@8 1004983c     umodsys_lib_libui:umodsys.mod.ui.frames.obj
 0002:0000f854       ??_R1A@?0A@EA@RGenerator@frames@ui@modules@UModSys@@8 10049854     umodsys_lib_libui:umodsys.mod.ui.frames.obj
 0002:0000f870       ??_R4ICollectorThemeTemplate@libui@UModSys@@6B@ 10049870     umodsys_lib_libui:umodsys.mod.ui.frames.obj
 0002:0000f884       ??_R3ICollectorThemeTemplate@libui@UModSys@@8 10049884     umodsys_lib_libui:umodsys.mod.ui.frames.obj
 0002:0000f894       ??_R2ICollectorThemeTemplate@libui@UModSys@@8 10049894     umodsys_lib_libui:umodsys.mod.ui.frames.obj
 0002:0000f8a0       ??_R1A@?0A@EA@ICollectorThemeTemplate@libui@UModSys@@8 100498a0     umodsys_lib_libui:umodsys.mod.ui.frames.obj
 0002:0000f8bc       ??_R4IFrameList@libui@UModSys@@6B@ 100498bc     umodsys_lib_libui:umodsys.mod.ui.frames.obj
 0002:0000f8d0       ??_R3IFrameList@libui@UModSys@@8 100498d0     umodsys_lib_libui:umodsys.mod.ui.frames.obj
 0002:0000f8e0       ??_R2IFrameList@libui@UModSys@@8 100498e0     umodsys_lib_libui:umodsys.mod.ui.frames.obj
 0002:0000f8e8       ??_R1A@?0A@EA@IFrameList@libui@UModSys@@8 100498e8     umodsys_lib_libui:umodsys.mod.ui.frames.obj
 0002:0000f904       ??_R4IFrameData@libui@UModSys@@6B@ 10049904     umodsys_lib_libui:umodsys.mod.ui.frames.obj
 0002:0000f918       ??_R3IFrameData@libui@UModSys@@8 10049918     umodsys_lib_libui:umodsys.mod.ui.frames.obj
 0002:0000f928       ??_R2IFrameData@libui@UModSys@@8 10049928     umodsys_lib_libui:umodsys.mod.ui.frames.obj
 0002:0000f930       ??_R1A@?0A@EA@IFrameData@libui@UModSys@@8 10049930     umodsys_lib_libui:umodsys.mod.ui.frames.obj
 0002:0000f94c       ??_R3IDialog@libui@UModSys@@8 1004994c     umodsys_lib_libui:umodsys.mod.ui.frames.obj
 0002:0000f95c       ??_R2IDialog@libui@UModSys@@8 1004995c     umodsys_lib_libui:umodsys.mod.ui.frames.obj
 0002:0000f96c       ??_R1A@?0A@EA@IDialog@libui@UModSys@@8 1004996c     umodsys_lib_libui:umodsys.mod.ui.frames.obj
 0002:0000f988       ??_R3IFrame@libui@UModSys@@8 10049988     umodsys_lib_libui:umodsys.mod.ui.frames.obj
 0002:0000f998       ??_R2IFrame@libui@UModSys@@8 10049998     umodsys_lib_libui:umodsys.mod.ui.frames.obj
 0002:0000f9ac       ??_R1A@?0A@EA@IFrame@libui@UModSys@@8 100499ac     umodsys_lib_libui:umodsys.mod.ui.frames.obj
 0002:0000f9c8       ??_R3ICollectorTheme@libui@UModSys@@8 100499c8     umodsys_lib_libui:umodsys.mod.ui.frames.obj
 0002:0000f9d8       ??_R2ICollectorTheme@libui@UModSys@@8 100499d8     umodsys_lib_libui:umodsys.mod.ui.frames.obj
 0002:0000f9e0       ??_R1A@?0A@EA@ICollectorTheme@libui@UModSys@@8 100499e0     umodsys_lib_libui:umodsys.mod.ui.frames.obj
 0002:0000f9fc       ??_R4ICollectorThemeTree@libui@UModSys@@6B@ 100499fc     umodsys_lib_libui:umodsys.mod.ui.frames.obj
 0002:0000fa10       ??_R3ICollector@libui@UModSys@@8 10049a10     umodsys_lib_libui:umodsys.mod.ui.frames.obj
 0002:0000fa20       ??_R2ICollector@libui@UModSys@@8 10049a20     umodsys_lib_libui:umodsys.mod.ui.frames.obj
 0002:0000fa34       ??_R13?0A@EA@ICollectorThemeTree@libui@UModSys@@8 10049a34     umodsys_lib_libui:umodsys.mod.ui.frames.obj
 0002:0000fa50       ??_R3ICollectorThemeTree@libui@UModSys@@8 10049a50     umodsys_lib_libui:umodsys.mod.ui.frames.obj
 0002:0000fa60       ??_R2ICollectorThemeTree@libui@UModSys@@8 10049a60     umodsys_lib_libui:umodsys.mod.ui.frames.obj
 0002:0000fa68       ??_R1A@?0A@EA@ICollectorThemeTree@libui@UModSys@@8 10049a68     umodsys_lib_libui:umodsys.mod.ui.frames.obj
 0002:0000fa84       ??_R1A@?0A@EA@ICollector@libui@UModSys@@8 10049a84     umodsys_lib_libui:umodsys.mod.ui.frames.obj
 0002:0000faa0       ??_R4RModuleReg@images_std@media@modules@UModSys@@6B@ 10049aa0     umodsys_lib_libmedia:umodsys.mod.media.images_std.obj
 0002:0000fab4       ??_R3RModuleReg@images_std@media@modules@UModSys@@8 10049ab4     umodsys_lib_libmedia:umodsys.mod.media.images_std.obj
 0002:0000fac4       ??_R2RModuleReg@images_std@media@modules@UModSys@@8 10049ac4     umodsys_lib_libmedia:umodsys.mod.media.images_std.obj
 0002:0000fad0       ??_R1A@?0A@EA@RModuleReg@images_std@media@modules@UModSys@@8 10049ad0     umodsys_lib_libmedia:umodsys.mod.media.images_std.obj
 0002:0000faec       ??_R4RMediaFilter@images_std@media@modules@UModSys@@6BISetter@SFlags@libmedia@4@@ 10049aec     umodsys_lib_libmedia:umodsys.mod.media.images_std.obj
 0002:0000fb00       ??_R4RMediaFilter@images_std@media@modules@UModSys@@6BIRefObject@core@4@@ 10049b00     umodsys_lib_libmedia:umodsys.mod.media.images_std.obj
 0002:0000fb14       ??_R3RMediaFilter@images_std@media@modules@UModSys@@8 10049b14     umodsys_lib_libmedia:umodsys.mod.media.images_std.obj
 0002:0000fb24       ??_R2RMediaFilter@images_std@media@modules@UModSys@@8 10049b24     umodsys_lib_libmedia:umodsys.mod.media.images_std.obj
 0002:0000fb48       ??_R1A@?0A@EA@RMediaFilter@images_std@media@modules@UModSys@@8 10049b48     umodsys_lib_libmedia:umodsys.mod.media.images_std.obj
 0002:0000fb64       ??_R4RGenerator@images_std@media@modules@UModSys@@6B@ 10049b64     umodsys_lib_libmedia:umodsys.mod.media.images_std.obj
 0002:0000fb78       ??_R3RGenerator@images_std@media@modules@UModSys@@8 10049b78     umodsys_lib_libmedia:umodsys.mod.media.images_std.obj
 0002:0000fb88       ??_R2RGenerator@images_std@media@modules@UModSys@@8 10049b88     umodsys_lib_libmedia:umodsys.mod.media.images_std.obj
 0002:0000fba0       ??_R1A@?0A@EA@RGenerator@images_std@media@modules@UModSys@@8 10049ba0     umodsys_lib_libmedia:umodsys.mod.media.images_std.obj
 0002:0000fbbc       ??_R4RModuleReg@serialize_json@media@modules@UModSys@@6B@ 10049bbc     umodsys_lib_libmedia:umodsys.mod.media.serialize_json.obj
 0002:0000fbd0       ??_R3RModuleReg@serialize_json@media@modules@UModSys@@8 10049bd0     umodsys_lib_libmedia:umodsys.mod.media.serialize_json.obj
 0002:0000fbe0       ??_R2RModuleReg@serialize_json@media@modules@UModSys@@8 10049be0     umodsys_lib_libmedia:umodsys.mod.media.serialize_json.obj
 0002:0000fbec       ??_R1A@?0A@EA@RModuleReg@serialize_json@media@modules@UModSys@@8 10049bec     umodsys_lib_libmedia:umodsys.mod.media.serialize_json.obj
 0002:0000fc08       ??_R4RSerializeWriter@serialize_json@media@modules@UModSys@@6BISerializeParser@libmedia@4@@ 10049c08     umodsys_lib_libmedia:umodsys.mod.media.serialize_json.obj
 0002:0000fc1c       ??_R4RSerializeWriter@serialize_json@media@modules@UModSys@@6BIRefObject@core@4@@ 10049c1c     umodsys_lib_libmedia:umodsys.mod.media.serialize_json.obj
 0002:0000fc30       ??_R3RSerializeWriter@serialize_json@media@modules@UModSys@@8 10049c30     umodsys_lib_libmedia:umodsys.mod.media.serialize_json.obj
 0002:0000fc40       ??_R2RSerializeWriter@serialize_json@media@modules@UModSys@@8 10049c40     umodsys_lib_libmedia:umodsys.mod.media.serialize_json.obj
 0002:0000fc58       ??_R1A@?0A@EA@RSerializeWriter@serialize_json@media@modules@UModSys@@8 10049c58     umodsys_lib_libmedia:umodsys.mod.media.serialize_json.obj
 0002:0000fc74       ??_R4RSerializeReader@serialize_json@media@modules@UModSys@@6B@ 10049c74     umodsys_lib_libmedia:umodsys.mod.media.serialize_json.obj
 0002:0000fc88       ??_R3RSerializeReader@serialize_json@media@modules@UModSys@@8 10049c88     umodsys_lib_libmedia:umodsys.mod.media.serialize_json.obj
 0002:0000fc98       ??_R2RSerializeReader@serialize_json@media@modules@UModSys@@8 10049c98     umodsys_lib_libmedia:umodsys.mod.media.serialize_json.obj
 0002:0000fcac       ??_R1A@?0A@EA@RSerializeReader@serialize_json@media@modules@UModSys@@8 10049cac     umodsys_lib_libmedia:umodsys.mod.media.serialize_json.obj
 0002:0000fcc8       ??_R4RGenerator@serialize_json@media@modules@UModSys@@6B@ 10049cc8     umodsys_lib_libmedia:umodsys.mod.media.serialize_json.obj
 0002:0000fcdc       ??_R3RGenerator@serialize_json@media@modules@UModSys@@8 10049cdc     umodsys_lib_libmedia:umodsys.mod.media.serialize_json.obj
 0002:0000fcec       ??_R2RGenerator@serialize_json@media@modules@UModSys@@8 10049cec     umodsys_lib_libmedia:umodsys.mod.media.serialize_json.obj
 0002:0000fd04       ??_R1A@?0A@EA@RGenerator@serialize_json@media@modules@UModSys@@8 10049d04     umodsys_lib_libmedia:umodsys.mod.media.serialize_json.obj
 0002:0000fd20       ??_R4ISerializeParser@libmedia@UModSys@@6B@ 10049d20     umodsys_lib_libmedia:umodsys.mod.media.serialize_json.obj
 0002:0000fd34       ??_R3ISerializeWriter@libmedia@UModSys@@8 10049d34     umodsys_lib_libmedia:umodsys.mod.media.serialize_json.obj
 0002:0000fd44       ??_R2ISerializeWriter@libmedia@UModSys@@8 10049d44     umodsys_lib_libmedia:umodsys.mod.media.serialize_json.obj
 0002:0000fd58       ??_R13?0A@EA@ISerializeParser@libmedia@UModSys@@8 10049d58     umodsys_lib_libmedia:umodsys.mod.media.serialize_json.obj
 0002:0000fd74       ??_R3ISerializeParser@libmedia@UModSys@@8 10049d74     umodsys_lib_libmedia:umodsys.mod.media.serialize_json.obj
 0002:0000fd84       ??_R2ISerializeParser@libmedia@UModSys@@8 10049d84     umodsys_lib_libmedia:umodsys.mod.media.serialize_json.obj
 0002:0000fd8c       ??_R1A@?0A@EA@ISerializeParser@libmedia@UModSys@@8 10049d8c     umodsys_lib_libmedia:umodsys.mod.media.serialize_json.obj
 0002:0000fda8       ??_R1A@?0A@EA@ISerializeWriter@libmedia@UModSys@@8 10049da8     umodsys_lib_libmedia:umodsys.mod.media.serialize_json.obj
 0002:0000fdc4       ??_R3ISerializeReader@libmedia@UModSys@@8 10049dc4     umodsys_lib_libmedia:umodsys.mod.media.serialize_json.obj
 0002:0000fdd4       ??_R2ISerializeReader@libmedia@UModSys@@8 10049dd4     umodsys_lib_libmedia:umodsys.mod.media.serialize_json.obj
 0002:0000fde4       ??_R1A@?0A@EA@ISerializeReader@libmedia@UModSys@@8 10049de4     umodsys_lib_libmedia:umodsys.mod.media.serialize_json.obj
 0002:0000fe00       ??_R4RModuleReg@zlib@media@modules@UModSys@@6B@ 10049e00     umodsys_lib_libmedia:umodsys.mod.media.zlib.obj
 0002:0000fe14       ??_R3RModuleReg@zlib@media@modules@UModSys@@8 10049e14     umodsys_lib_libmedia:umodsys.mod.media.zlib.obj
 0002:0000fe24       ??_R2RModuleReg@zlib@media@modules@UModSys@@8 10049e24     umodsys_lib_libmedia:umodsys.mod.media.zlib.obj
 0002:0000fe30       ??_R1A@?0A@EA@RModuleReg@zlib@media@modules@UModSys@@8 10049e30     umodsys_lib_libmedia:umodsys.mod.media.zlib.obj
 0002:0000fe4c       ??_R4RBinArchiveFrameClient_ZIP@zlib@media@modules@UModSys@@6B@ 10049e4c     umodsys_lib_libmedia:umodsys.mod.media.zlib.obj
 0002:0000fe60       ??_R3RBinArchiveFrameClient_ZIP@zlib@media@modules@UModSys@@8 10049e60     umodsys_lib_libmedia:umodsys.mod.media.zlib.obj
 0002:0000fe70       ??_R2RBinArchiveFrameClient_ZIP@zlib@media@modules@UModSys@@8 10049e70     umodsys_lib_libmedia:umodsys.mod.media.zlib.obj
 0002:0000fe84       ??_R1A@?0A@EA@RBinArchiveFrameClient_ZIP@zlib@media@modules@UModSys@@8 10049e84     umodsys_lib_libmedia:umodsys.mod.media.zlib.obj
 0002:0000fea0       ??_R4RGenerator@zlib@media@modules@UModSys@@6B@ 10049ea0     umodsys_lib_libmedia:umodsys.mod.media.zlib.obj
 0002:0000feb4       ??_R3RGenerator@zlib@media@modules@UModSys@@8 10049eb4     umodsys_lib_libmedia:umodsys.mod.media.zlib.obj
 0002:0000fec4       ??_R2RGenerator@zlib@media@modules@UModSys@@8 10049ec4     umodsys_lib_libmedia:umodsys.mod.media.zlib.obj
 0002:0000fedc       ??_R1A@?0A@EA@RGenerator@zlib@media@modules@UModSys@@8 10049edc     umodsys_lib_libmedia:umodsys.mod.media.zlib.obj
 0002:0000fef8       ??_R3IClient@IBinArchiveFrame@libmedia@UModSys@@8 10049ef8     umodsys_lib_libmedia:umodsys.mod.media.zlib.obj
 0002:0000ff08       ??_R2IClient@IBinArchiveFrame@libmedia@UModSys@@8 10049f08     umodsys_lib_libmedia:umodsys.mod.media.zlib.obj
 0002:0000ff18       ??_R1A@?0A@EA@IClient@IBinArchiveFrame@libmedia@UModSys@@8 10049f18     umodsys_lib_libmedia:umodsys.mod.media.zlib.obj
 0002:0000ff34       ??_R4RModuleLibraryReg_Chain@base@UModSys@@6B@ 10049f34     umodsys_lib_base:umodsys.base.moduleregchain.obj
 0002:0000ff48       ??_R3RModuleLibraryReg_Chain@base@UModSys@@8 10049f48     umodsys_lib_base:umodsys.base.moduleregchain.obj
 0002:0000ff58       ??_R2RModuleLibraryReg_Chain@base@UModSys@@8 10049f58     umodsys_lib_base:umodsys.base.moduleregchain.obj
 0002:0000ff64       ??_R1A@?0A@EA@IModuleLibraryReg@base@UModSys@@8 10049f64     umodsys_lib_base:umodsys.base.moduleregchain.obj
 0002:0000ff80       ??_R3IModuleLibraryReg@base@UModSys@@8 10049f80     umodsys_lib_base:umodsys.base.moduleregchain.obj
 0002:0000ff90       ??_R2IModuleLibraryReg@base@UModSys@@8 10049f90     umodsys_lib_base:umodsys.base.moduleregchain.obj
 0002:0000ff98       ??_R1A@?0A@EA@RModuleLibraryReg_Chain@base@UModSys@@8 10049f98     umodsys_lib_base:umodsys.base.moduleregchain.obj
 0002:0000ffb4       ??_R4IModuleLibraryReg@base@UModSys@@6B@ 10049fb4     umodsys_lib_base:umodsys.base.modulereg.obj
 0002:0000ffc8       ??_R4IModuleReg@base@UModSys@@6B@ 10049fc8     umodsys_lib_base:umodsys.base.modulereg.obj
 0002:0000ffe0       ___safe_se_handler_table   10049fe0     <linker-defined>
 0002:0001016c       ___rtc_iaa                 1004a16c     MSVCRT:_initsect_.obj
 0002:00010170       ___rtc_izz                 1004a170     MSVCRT:_initsect_.obj
 0002:00010174       ___rtc_taa                 1004a174     MSVCRT:_initsect_.obj
 0002:00010178       ___rtc_tzz                 1004a178     MSVCRT:_initsect_.obj
 0002:00011674       __IMPORT_DESCRIPTOR_MSVCR90 1004b674     MSVCRT:MSVCR90.dll
 0002:00011688       __IMPORT_DESCRIPTOR_WINMM  1004b688     Winmm:WINMM.dll
 0002:0001169c       __IMPORT_DESCRIPTOR_lib_zlib 1004b69c     lib_zlib:lib_zlib.dll
 0002:000116b0       __IMPORT_DESCRIPTOR_lib_libpng 1004b6b0     lib_libpng:lib_libpng.dll
 0002:000116c4       __IMPORT_DESCRIPTOR_lib_jpeglib 1004b6c4     lib_jpeglib:lib_jpeglib.dll
 0002:000116d8       __IMPORT_DESCRIPTOR_lib_SDL2 1004b6d8     lib_SDL2:lib_SDL2.dll
 0002:000116ec       __IMPORT_DESCRIPTOR_KERNEL32 1004b6ec     kernel32:KERNEL32.dll
 0002:00011700       __NULL_IMPORT_DESCRIPTOR   1004b700     MSVCRT:MSVCR90.dll
 0003:00000000       ??_R0?AVtype_info@@@8      1004d000     MSVCRT:ti_inst.obj
 0003:00000018       ___native_dllmain_reason   1004d018     MSVCRT:natstart.obj
 0003:0000001c       ___native_vcclrit_reason   1004d01c     MSVCRT:natstart.obj
 0003:00000020       ___security_cookie         1004d020     MSVCRT:gs_cookie.obj
 0003:00000024       ___security_cookie_complement 1004d024     MSVCRT:gs_cookie.obj
 0003:00000028       ??_R0?AUIModuleReg@base@UModSys@@@8 1004d028     plugin_test1.obj
 0003:00000050       ??_R0?AURModuleReg@test1@test@modules@UModSys@@@8 1004d050     plugin_test1.obj
 0003:00000084       ??_R0?AURGenerator@test1@test@modules@UModSys@@@8 1004d084     plugin_test1.obj
 0003:000000b8       ??_R0?AURTest1_Shell@test1@test@modules@UModSys@@@8 1004d0b8     plugin_test1.obj
 0003:000000f0       ??_R0?AUIController@libui@UModSys@@@8 1004d0f0     plugin_test1.obj
 0003:00000118       ??_R0?AUIControllerData@libui@UModSys@@@8 1004d118     plugin_test1.obj
 0003:00000144       ??_R0?AUIControllerCommand@libui@UModSys@@@8 1004d144     plugin_test1.obj
 0003:00000174       ??_R0?AUIMouseClient@libui@UModSys@@@8 1004d174     plugin_test1.obj
 0003:000001a0       ??_R0?AUIKeyboardClient@libui@UModSys@@@8 1004d1a0     plugin_test1.obj
 0003:000001cc       ??_R0?AUIBinObjFilter@libmedia@UModSys@@@8 1004d1cc     plugin_test1.obj
 0003:000001fc       ??_R0?AUIResolver@SFlags@libmedia@UModSys@@@8 1004d1fc     plugin_test1.obj
 0003:0000022c       ??_R0?AUIResolverAuto@SFlags@libmedia@UModSys@@@8 1004d22c     plugin_test1.obj
 0003:00000260       ??_R0?AUISetter@SFlags@libmedia@UModSys@@@8 1004d260     plugin_test1.obj
 0003:00000290       ??_R0?AUILibObject@libmedia@UModSys@@@8 1004d290     plugin_test1.obj
 0003:000002bc       ??_R0?AUIShell@base@UModSys@@@8 1004d2bc     plugin_test1.obj
 0003:000002e0       ??_R0?AUIGenerator@base@UModSys@@@8 1004d2e0     plugin_test1.obj
 0003:00000308       ??_R0?AUIModObject@base@UModSys@@@8 1004d308     plugin_test1.obj
 0003:00000330       ??_R0?AUIRefObject@core@UModSys@@@8 1004d330     plugin_test1.obj
 0003:00000358       ??_R0?AUIRoot@core@UModSys@@@8 1004d358     plugin_test1.obj
 0003:000003a8       ?so_entry_enabled_flag@base@UModSys@@3HA 1004d3a8     umodsys_lib_base:umodsys.so_main.win32.obj
 0003:000003d0       ?s_phm_names@RRenderDriver3D@SDL_GL@ui@modules@UModSys@@2PAPBDA 1004d3d0     umodsys_lib_libui:umodsys.mod.ui.SDL_GL.obj
 0003:000003f0       ?s_phm_goods@RRenderDriver3D@SDL_GL@ui@modules@UModSys@@2PAHA 1004d3f0     umodsys_lib_libui:umodsys.mod.ui.SDL_GL.obj
 0003:0000040c       ?s_phm_bads@RRenderDriver3D@SDL_GL@ui@modules@UModSys@@2PAHA 1004d40c     umodsys_lib_libui:umodsys.mod.ui.SDL_GL.obj
 0003:00000428       ?vat_sizes@RVertexArray@SDL_GL@ui@modules@UModSys@@2PAEA 1004d428     umodsys_lib_libui:umodsys.mod.ui.SDL_GL.obj
 0003:00000434       ?count_class@RVertexArray@SDL_GL@ui@modules@UModSys@@2PAY01EA 1004d434     umodsys_lib_libui:umodsys.mod.ui.SDL_GL.obj
 0003:00000448       ?type_map@RVertexArray@SDL_GL@ui@modules@UModSys@@2PAY08W4eVertexAType@lib3d@5@A 1004d448     umodsys_lib_libui:umodsys.mod.ui.SDL_GL.obj
 0003:00000544       ?mapRenderMapFlagsFilter_Min@SGLFuncs@SDL_GL@ui@modules@UModSys@@2PAIA 1004d544     umodsys_lib_libui:umodsys.mod.ui.SDL_GL.obj
 0003:00000564       ?mapRenderMapFlagsFilter_Mag@SGLFuncs@SDL_GL@ui@modules@UModSys@@2PAIA 1004d564     umodsys_lib_libui:umodsys.mod.ui.SDL_GL.obj
 0003:00000584       ?mapRenderMapFlagsWrap_S@SGLFuncs@SDL_GL@ui@modules@UModSys@@2PAIA 1004d584     umodsys_lib_libui:umodsys.mod.ui.SDL_GL.obj
 0003:000005a0       ?mapRenderMapFlagsWrap_T@SGLFuncs@SDL_GL@ui@modules@UModSys@@2PAIA 1004d5a0     umodsys_lib_libui:umodsys.mod.ui.SDL_GL.obj
 0003:000005bc       ?mapRenderMapFlagsCombine@SGLFuncs@SDL_GL@ui@modules@UModSys@@2PAIA 1004d5bc     umodsys_lib_libui:umodsys.mod.ui.SDL_GL.obj
 0003:000005ec       ?mapTransparrentMode_SRC@SGLFuncs@SDL_GL@ui@modules@UModSys@@2PAIA 1004d5ec     umodsys_lib_libui:umodsys.mod.ui.SDL_GL.obj
 0003:00000614       ?mapTransparrentMode_DST@SGLFuncs@SDL_GL@ui@modules@UModSys@@2PAIA 1004d614     umodsys_lib_libui:umodsys.mod.ui.SDL_GL.obj
 0003:00000644       ?cube_faceshift@lib3d@UModSys@@3PAY03CA 1004d644     umodsys_lib_lib3d:umodsys.lib.3d.common.obj
 0003:0000065c       ?cube_quad_texpoints@lib3d@UModSys@@3PAY131EA 1004d65c     umodsys_lib_lib3d:umodsys.lib.3d.common.obj
 0003:00000690       ?cube_quad_points@lib3d@UModSys@@3PAY133EA 1004d690     umodsys_lib_lib3d:umodsys.lib.3d.common.obj
 0003:00000700       ?auto_flags@RLines_Filter@test1@test@modules@UModSys@@2U?$TFlags4State@USMediaFlagUid@libmedia@UModSys@@I@tl@5@A 1004d700     plugin_test1.obj
 0003:00000768       ??_R0?AURModuleReg@stdlib@lib2d@modules@UModSys@@@8 1004d768     umodsys_lib_lib2d:umodsys.mod.2d.stdlib.obj
 0003:000007a0       ??_R0?AURMultiImage@stdlib@lib2d@modules@UModSys@@@8 1004d7a0     umodsys_lib_lib2d:umodsys.mod.2d.stdlib.obj
 0003:000007d8       ??_R0?AURImageFactory_Memory@stdlib@lib2d@modules@UModSys@@@8 1004d7d8     umodsys_lib_lib2d:umodsys.mod.2d.stdlib.obj
 0003:00000818       ??_R0?AURImage_Memory@stdlib@lib2d@modules@UModSys@@@8 1004d818     umodsys_lib_lib2d:umodsys.mod.2d.stdlib.obj
 0003:00000854       ??_R0?AURGenerator@stdlib@lib2d@modules@UModSys@@@8 1004d854     umodsys_lib_lib2d:umodsys.mod.2d.stdlib.obj
 0003:0000088c       ??_R0?AUIMultiImage@lib2d@UModSys@@@8 1004d88c     umodsys_lib_lib2d:umodsys.mod.2d.stdlib.obj
 0003:000008b4       ??_R0?AUIImageFactory@lib2d@UModSys@@@8 1004d8b4     umodsys_lib_lib2d:umodsys.mod.2d.stdlib.obj
 0003:000008e0       ??_R0?AUIImage@lib2d@UModSys@@@8 1004d8e0     umodsys_lib_lib2d:umodsys.mod.2d.stdlib.obj
 0003:00000904       ??_R0?AURModuleReg@SDL_GL@ui@modules@UModSys@@@8 1004d904     umodsys_lib_libui:umodsys.mod.ui.SDL_GL.obj
 0003:00000938       ??_R0?AURVertexArray@SDL_GL@ui@modules@UModSys@@@8 1004d938     umodsys_lib_libui:umodsys.mod.ui.SDL_GL.obj
 0003:00000970       ??_R0?AURTerminalX@SDL_GL@ui@modules@UModSys@@@8 1004d970     umodsys_lib_libui:umodsys.mod.ui.SDL_GL.obj
 0003:000009a4       ??_R0?AURMultiImage2D_SDL_ttf@SDL_GL@ui@modules@UModSys@@@8 1004d9a4     umodsys_lib_libui:umodsys.mod.ui.SDL_GL.obj
 0003:000009e4       ??_R0?AURMouseController@SDL_GL@ui@modules@UModSys@@@8 1004d9e4     umodsys_lib_libui:umodsys.mod.ui.SDL_GL.obj
 0003:00000a20       ??_R0?AURKeyboardController@SDL_GL@ui@modules@UModSys@@@8 1004da20     umodsys_lib_libui:umodsys.mod.ui.SDL_GL.obj
 0003:00000a5c       ??_R0?AURTerminal@SDL_GL@ui@modules@UModSys@@@8 1004da5c     umodsys_lib_libui:umodsys.mod.ui.SDL_GL.obj
 0003:00000a90       ??_R0?AUSGLFuncsLegacy@SDL_GL@ui@modules@UModSys@@@8 1004da90     umodsys_lib_libui:umodsys.mod.ui.SDL_GL.obj
 0003:00000ac8       ??_R0?AUSGLFuncsBase@SDL_GL@ui@modules@UModSys@@@8 1004dac8     umodsys_lib_libui:umodsys.mod.ui.SDL_GL.obj
 0003:00000b00       ??_R0?AUSGLFuncs@SDL_GL@ui@modules@UModSys@@@8 1004db00     umodsys_lib_libui:umodsys.mod.ui.SDL_GL.obj
 0003:00000b34       ??_R0?AURRenderDriver3D@SDL_GL@ui@modules@UModSys@@@8 1004db34     umodsys_lib_libui:umodsys.mod.ui.SDL_GL.obj
 0003:00000b6c       ??_R0?AURGenerator@SDL_GL@ui@modules@UModSys@@@8 1004db6c     umodsys_lib_libui:umodsys.mod.ui.SDL_GL.obj
 0003:00000ba0       ??_R0?AUIMouseController@libui@UModSys@@@8 1004dba0     umodsys_lib_libui:umodsys.mod.ui.SDL_GL.obj
 0003:00000bd0       ??_R0?AUIKeyboardController@libui@UModSys@@@8 1004dbd0     umodsys_lib_libui:umodsys.mod.ui.SDL_GL.obj
 0003:00000c00       ??_R0?AUITerminal@libui@UModSys@@@8 1004dc00     umodsys_lib_libui:umodsys.mod.ui.SDL_GL.obj
 0003:00000c28       ??_R0?AUIVertexArray@lib3d@UModSys@@@8 1004dc28     umodsys_lib_libui:umodsys.mod.ui.SDL_GL.obj
 0003:00000c54       ??_R0?AUIRenderDriver@lib3d@UModSys@@@8 1004dc54     umodsys_lib_libui:umodsys.mod.ui.SDL_GL.obj
 0003:00000c80       ??_R0?AUIRenderDriver@lib2d@UModSys@@@8 1004dc80     umodsys_lib_libui:umodsys.mod.ui.SDL_GL.obj
 0003:00000cac       ??_R0?AURModuleReg@SDL_core@ui@modules@UModSys@@@8 1004dcac     umodsys_lib_libui:umodsys.mod.ui.SDL_core.obj
 0003:00000ce4       ??_R0?AURTerminalX@SDL_core@ui@modules@UModSys@@@8 1004dce4     umodsys_lib_libui:umodsys.mod.ui.SDL_core.obj
 0003:00000d20       ??_R0?AURMultiImage2D_SDL_ttf@SDL_core@ui@modules@UModSys@@@8 1004dd20     umodsys_lib_libui:umodsys.mod.ui.SDL_core.obj
 0003:00000d60       ??_R0?AURMouseController@SDL_core@ui@modules@UModSys@@@8 1004dd60     umodsys_lib_libui:umodsys.mod.ui.SDL_core.obj
 0003:00000d9c       ??_R0?AURKeyboardController@SDL_core@ui@modules@UModSys@@@8 1004dd9c     umodsys_lib_libui:umodsys.mod.ui.SDL_core.obj
 0003:00000ddc       ??_R0?AURTerminal@SDL_core@ui@modules@UModSys@@@8 1004dddc     umodsys_lib_libui:umodsys.mod.ui.SDL_core.obj
 0003:00000e10       ??_R0?AURRenderDriver2D@SDL_core@ui@modules@UModSys@@@8 1004de10     umodsys_lib_libui:umodsys.mod.ui.SDL_core.obj
 0003:00000e4c       ??_R0?AURGenerator@SDL_core@ui@modules@UModSys@@@8 1004de4c     umodsys_lib_libui:umodsys.mod.ui.SDL_core.obj
 0003:00000e84       ??_R0?AURModuleReg@frames@ui@modules@UModSys@@@8 1004de84     umodsys_lib_libui:umodsys.mod.ui.frames.obj
 0003:00000eb8       ??_R0?AURFrame_List@frames@ui@modules@UModSys@@@8 1004deb8     umodsys_lib_libui:umodsys.mod.ui.frames.obj
 0003:00000eec       ??_R0?AURFrame_Edit@frames@ui@modules@UModSys@@@8 1004deec     umodsys_lib_libui:umodsys.mod.ui.frames.obj
 0003:00000f20       ??_R0?AURFrame_Button@frames@ui@modules@UModSys@@@8 1004df20     umodsys_lib_libui:umodsys.mod.ui.frames.obj
 0003:00000f58       ??_R0?AURFrame_Text@frames@ui@modules@UModSys@@@8 1004df58     umodsys_lib_libui:umodsys.mod.ui.frames.obj
 0003:00000f8c       ??_R0?AURFrame_Image@frames@ui@modules@UModSys@@@8 1004df8c     umodsys_lib_libui:umodsys.mod.ui.frames.obj
 0003:00000fc4       ??_R0?AURFrame_Frame@frames@ui@modules@UModSys@@@8 1004dfc4     umodsys_lib_libui:umodsys.mod.ui.frames.obj
 0003:00000ffc       ??_R0?AURCollectorTheme@frames@ui@modules@UModSys@@@8 1004dffc     umodsys_lib_libui:umodsys.mod.ui.frames.obj
 0003:00001034       ??_R0?AURFrame_Common@frames@ui@modules@UModSys@@@8 1004e034     umodsys_lib_libui:umodsys.mod.ui.frames.obj
 0003:0000106c       ??_R0?AURDialog@frames@ui@modules@UModSys@@@8 1004e06c     umodsys_lib_libui:umodsys.mod.ui.frames.obj
 0003:0000109c       ??_R0?AURCollector@frames@ui@modules@UModSys@@@8 1004e09c     umodsys_lib_libui:umodsys.mod.ui.frames.obj
 0003:000010d0       ??_R0?AURGenerator@frames@ui@modules@UModSys@@@8 1004e0d0     umodsys_lib_libui:umodsys.mod.ui.frames.obj
 0003:00001104       ??_R0?AUICollectorThemeTemplate@libui@UModSys@@@8 1004e104     umodsys_lib_libui:umodsys.mod.ui.frames.obj
 0003:00001138       ??_R0?AUIFrameList@libui@UModSys@@@8 1004e138     umodsys_lib_libui:umodsys.mod.ui.frames.obj
 0003:00001160       ??_R0?AUIFrameData@libui@UModSys@@@8 1004e160     umodsys_lib_libui:umodsys.mod.ui.frames.obj
 0003:00001188       ??_R0?AUIDialog@libui@UModSys@@@8 1004e188     umodsys_lib_libui:umodsys.mod.ui.frames.obj
 0003:000011ac       ??_R0?AUIFrame@libui@UModSys@@@8 1004e1ac     umodsys_lib_libui:umodsys.mod.ui.frames.obj
 0003:000011d0       ??_R0?AUICollectorTheme@libui@UModSys@@@8 1004e1d0     umodsys_lib_libui:umodsys.mod.ui.frames.obj
 0003:000011fc       ??_R0?AUICollectorThemeTree@libui@UModSys@@@8 1004e1fc     umodsys_lib_libui:umodsys.mod.ui.frames.obj
 0003:0000122c       ??_R0?AUICollector@libui@UModSys@@@8 1004e22c     umodsys_lib_libui:umodsys.mod.ui.frames.obj
 0003:00001254       ??_R0?AURModuleReg@images_std@media@modules@UModSys@@@8 1004e254     umodsys_lib_libmedia:umodsys.mod.media.images_std.obj
 0003:00001290       ??_R0?AURMediaFilter@images_std@media@modules@UModSys@@@8 1004e290     umodsys_lib_libmedia:umodsys.mod.media.images_std.obj
 0003:000012cc       ??_R0?AURGenerator@images_std@media@modules@UModSys@@@8 1004e2cc     umodsys_lib_libmedia:umodsys.mod.media.images_std.obj
 0003:00001308       ??_R0?AURModuleReg@serialize_json@media@modules@UModSys@@@8 1004e308     umodsys_lib_libmedia:umodsys.mod.media.serialize_json.obj
 0003:00001348       ??_R0?AURSerializeWriter@serialize_json@media@modules@UModSys@@@8 1004e348     umodsys_lib_libmedia:umodsys.mod.media.serialize_json.obj
 0003:00001390       ??_R0?AURSerializeReader@serialize_json@media@modules@UModSys@@@8 1004e390     umodsys_lib_libmedia:umodsys.mod.media.serialize_json.obj
 0003:000013d4       ??_R0?AURGenerator@serialize_json@media@modules@UModSys@@@8 1004e3d4     umodsys_lib_libmedia:umodsys.mod.media.serialize_json.obj
 0003:00001414       ??_R0?AUISerializeParser@libmedia@UModSys@@@8 1004e414     umodsys_lib_libmedia:umodsys.mod.media.serialize_json.obj
 0003:00001444       ??_R0?AUISerializeWriter@libmedia@UModSys@@@8 1004e444     umodsys_lib_libmedia:umodsys.mod.media.serialize_json.obj
 0003:00001474       ??_R0?AUISerializeReader@libmedia@UModSys@@@8 1004e474     umodsys_lib_libmedia:umodsys.mod.media.serialize_json.obj
 0003:000014a4       ??_R0?AURModuleReg@zlib@media@modules@UModSys@@@8 1004e4a4     umodsys_lib_libmedia:umodsys.mod.media.zlib.obj
 0003:000014d8       ??_R0?AURBinArchiveFrameClient_ZIP@zlib@media@modules@UModSys@@@8 1004e4d8     umodsys_lib_libmedia:umodsys.mod.media.zlib.obj
 0003:0000151c       ??_R0?AURGenerator@zlib@media@modules@UModSys@@@8 1004e51c     umodsys_lib_libmedia:umodsys.mod.media.zlib.obj
 0003:00001550       ??_R0?AUIClient@IBinArchiveFrame@libmedia@UModSys@@@8 1004e550     umodsys_lib_libmedia:umodsys.mod.media.zlib.obj
 0003:00001588       ??_R0?AUIModuleLibraryReg@base@UModSys@@@8 1004e588     umodsys_lib_base:umodsys.base.moduleregchain.obj
 0003:000015b8       ??_R0?AURModuleLibraryReg_Chain@base@UModSys@@@8 1004e5b8     umodsys_lib_base:umodsys.base.moduleregchain.obj
 0003:000015f4       __forceCRTManifestRTM      1004e5f4     MSVCRT:crtmanifestrtm.obj
 0003:000015f8       ?__type_info_root_node@@3U__type_info_node@@A 1004e5f8     MSVCRT:tncleanup.obj
 0003:00001924       ?s_null@?1??get_null@?$TSCoreShared@USIMemAlloc@core@UModSys@@D@su@tl@UModSys@@SAPAU?$TSharedStringInfo@DUSIMemAlloc@core@UModSys@@@345@XZ@4U6345@A 1004e924     plugin_test1.obj
 0003:00001938       ??_B?1??get_null@?$TSCoreShared@USIMemAlloc@core@UModSys@@D@su@tl@UModSys@@SAPAU?$TSharedStringInfo@DUSIMemAlloc@core@UModSys@@@234@XZ@51 1004e938     plugin_test1.obj
 0003:00001940       ?s_escapes@serialize_json@media@modules@UModSys@@3PAY07DA 1004e940     umodsys_lib_libmedia:umodsys.mod.media.serialize_json.obj
 0003:00002140       ?fmodule@stdlib@lib2d@modules@UModSys@@3DA 1004f140     umodsys_lib_lib2d:umodsys.mod.2d.stdlib.obj
 0003:00002141       ?fmodule@SDL_GL@ui@modules@UModSys@@3DA 1004f141     umodsys_lib_libui:umodsys.mod.ui.SDL_GL.obj
 0003:00002142       ?fmodule@SDL_core@ui@modules@UModSys@@3DA 1004f142     umodsys_lib_libui:umodsys.mod.ui.SDL_core.obj
 0003:00002143       ?fmodule@frames@ui@modules@UModSys@@3DA 1004f143     umodsys_lib_libui:umodsys.mod.ui.frames.obj
 0003:00002144       ?fmodule@images_std@media@modules@UModSys@@3DA 1004f144     umodsys_lib_libmedia:umodsys.mod.media.images_std.obj
 0003:00002145       ?fmodule@serialize_json@media@modules@UModSys@@3DA 1004f145     umodsys_lib_libmedia:umodsys.mod.media.serialize_json.obj
 0003:00002146       ?fmodule@zlib@media@modules@UModSys@@3DA 1004f146     umodsys_lib_libmedia:umodsys.mod.media.zlib.obj
 0003:00002148       ?null_time@core@UModSys@@3_JA 1004f148     umodsys_lib_core:umodsys.core.stdtypedefs.obj
 0003:00002150       ?s_modreg@RModuleReg@test1@test@modules@UModSys@@2U12345@A 1004f150     plugin_test1.obj
 0003:00002190       ?s_dbg@test1@test@modules@UModSys@@3USDebug@base@4@A 1004f190     plugin_test1.obj
 0003:00002198       ?s_modreg_chain@RModuleReg@test1@test@modules@UModSys@@2USModuleRegChain@base@5@A 1004f198     plugin_test1.obj
 0003:000021a4       ?s_uid@RGenerator@test1@test@modules@UModSys@@2USUniquePointer@core@5@A 1004f1a4     plugin_test1.obj
 0003:000021bc       ?s_modreg_chain@RModuleReg@stdlib@lib2d@modules@UModSys@@2USModuleRegChain@base@5@A 1004f1bc     umodsys_lib_lib2d:umodsys.mod.2d.stdlib.obj
 0003:000021c8       ?s_dbg@stdlib@lib2d@modules@UModSys@@3USDebug@base@4@A 1004f1c8     umodsys_lib_lib2d:umodsys.mod.2d.stdlib.obj
 0003:000021d0       ?s_uid@RGenerator@stdlib@lib2d@modules@UModSys@@2USUniquePointer@core@5@A 1004f1d0     umodsys_lib_lib2d:umodsys.mod.2d.stdlib.obj
 0003:000021e8       ?s_modreg@RModuleReg@stdlib@lib2d@modules@UModSys@@2U12345@A 1004f1e8     umodsys_lib_lib2d:umodsys.mod.2d.stdlib.obj
 0003:00002228       ?s_dbg@SDL_GL@ui@modules@UModSys@@3USDebug@base@4@A 1004f228     umodsys_lib_libui:umodsys.mod.ui.SDL_GL.obj
 0003:00002230       ?s_modreg_chain@RModuleReg@SDL_GL@ui@modules@UModSys@@2USModuleRegChain@base@5@A 1004f230     umodsys_lib_libui:umodsys.mod.ui.SDL_GL.obj
 0003:00002240       ?s_modreg@RModuleReg@SDL_GL@ui@modules@UModSys@@2U12345@A 1004f240     umodsys_lib_libui:umodsys.mod.ui.SDL_GL.obj
 0003:00002280       ?s_uid@RGenerator@SDL_GL@ui@modules@UModSys@@2USUniquePointer@core@5@A 1004f280     umodsys_lib_libui:umodsys.mod.ui.SDL_GL.obj
 0003:00002298       ?s_modreg_chain@RModuleReg@SDL_core@ui@modules@UModSys@@2USModuleRegChain@base@5@A 1004f298     umodsys_lib_libui:umodsys.mod.ui.SDL_core.obj
 0003:000022a4       ?s_dbg@SDL_core@ui@modules@UModSys@@3USDebug@base@4@A 1004f2a4     umodsys_lib_libui:umodsys.mod.ui.SDL_core.obj
 0003:000022ac       ?s_uid@RGenerator@SDL_core@ui@modules@UModSys@@2USUniquePointer@core@5@A 1004f2ac     umodsys_lib_libui:umodsys.mod.ui.SDL_core.obj
 0003:000022c8       ?s_modreg@RModuleReg@SDL_core@ui@modules@UModSys@@2U12345@A 1004f2c8     umodsys_lib_libui:umodsys.mod.ui.SDL_core.obj
 0003:00002308       ?s_uid@RGenerator@frames@ui@modules@UModSys@@2USUniquePointer@core@5@A 1004f308     umodsys_lib_libui:umodsys.mod.ui.frames.obj
 0003:00002320       ?s_dbg@frames@ui@modules@UModSys@@3USDebug@base@4@A 1004f320     umodsys_lib_libui:umodsys.mod.ui.frames.obj
 0003:00002328       ?s_modreg@RModuleReg@frames@ui@modules@UModSys@@2U12345@A 1004f328     umodsys_lib_libui:umodsys.mod.ui.frames.obj
 0003:00002368       ?s_modreg_chain@RModuleReg@frames@ui@modules@UModSys@@2USModuleRegChain@base@5@A 1004f368     umodsys_lib_libui:umodsys.mod.ui.frames.obj
 0003:00002374       ?s_dbg@images_std@media@modules@UModSys@@3USDebug@base@4@A 1004f374     umodsys_lib_libmedia:umodsys.mod.media.images_std.obj
 0003:0000237c       ?s_uid@RGenerator@images_std@media@modules@UModSys@@2USUniquePointer@core@5@A 1004f37c     umodsys_lib_libmedia:umodsys.mod.media.images_std.obj
 0003:00002394       ?auto_flags@RMediaFilter@images_std@media@modules@UModSys@@1U?$TFlags4State@USMediaFlagUid@libmedia@UModSys@@I@tl@5@A 1004f394     umodsys_lib_libmedia:umodsys.mod.media.images_std.obj
 0003:00002398       ?s_modreg_chain@RModuleReg@images_std@media@modules@UModSys@@2USModuleRegChain@base@5@A 1004f398     umodsys_lib_libmedia:umodsys.mod.media.images_std.obj
 0003:000023a8       ?s_modreg@RModuleReg@images_std@media@modules@UModSys@@2U12345@A 1004f3a8     umodsys_lib_libmedia:umodsys.mod.media.images_std.obj
 0003:000023e8       ?s_modreg@RModuleReg@serialize_json@media@modules@UModSys@@2U12345@A 1004f3e8     umodsys_lib_libmedia:umodsys.mod.media.serialize_json.obj
 0003:00002428       ?s_dbg@serialize_json@media@modules@UModSys@@3USDebug@base@4@A 1004f428     umodsys_lib_libmedia:umodsys.mod.media.serialize_json.obj
 0003:00002430       ?s_modreg_chain@RModuleReg@serialize_json@media@modules@UModSys@@2USModuleRegChain@base@5@A 1004f430     umodsys_lib_libmedia:umodsys.mod.media.serialize_json.obj
 0003:0000243c       ?s_uid@RGenerator@serialize_json@media@modules@UModSys@@2USUniquePointer@core@5@A 1004f43c     umodsys_lib_libmedia:umodsys.mod.media.serialize_json.obj
 0003:00002454       ?s_dbg@zlib@media@modules@UModSys@@3USDebug@base@4@A 1004f454     umodsys_lib_libmedia:umodsys.mod.media.zlib.obj
 0003:0000245c       ?s_modreg_chain@RModuleReg@zlib@media@modules@UModSys@@2USModuleRegChain@base@5@A 1004f45c     umodsys_lib_libmedia:umodsys.mod.media.zlib.obj
 0003:00002468       ?s_modreg@RModuleReg@zlib@media@modules@UModSys@@2U12345@A 1004f468     umodsys_lib_libmedia:umodsys.mod.media.zlib.obj
 0003:000024a8       ?s_uid@RGenerator@zlib@media@modules@UModSys@@2USUniquePointer@core@5@A 1004f4a8     umodsys_lib_libmedia:umodsys.mod.media.zlib.obj
 0003:000024c0       ?M@UModSys@@3USModuleContext@base@1@A 1004f4c0     umodsys_lib_base:umodsys.base.modulecontext.obj
 0003:000024d4       ?s_library@RModuleLibraryReg_Chain@base@UModSys@@2U123@A 1004f4d4     umodsys_lib_base:umodsys.base.moduleregchain.obj
 0003:000024d8       ?root@SModuleRegChain@base@UModSys@@2U123@A 1004f4d8     umodsys_lib_base:umodsys.base.moduleregchain.obj
 0003:000024e4       ?root@SUniquePointer@core@UModSys@@2U123@A 1004f4e4     umodsys_lib_core:umodsys.core.uniqueptr.obj
 0003:000025fc       ?s_id@?$TObjectUniqueID@UIImage@lib2d@UModSys@@@tl@UModSys@@2USUniquePointer@core@3@A 1004f5fc     plugin_test1.obj
 0003:00002614       ?s_id@?$TObjectUniqueID@UITerminal@libui@UModSys@@@tl@UModSys@@2USUniquePointer@core@3@A 1004f614     plugin_test1.obj
 0003:0000262c       ?s_id@?$TObjectUniqueID@UITexture@lib3d@UModSys@@@tl@UModSys@@2USUniquePointer@core@3@A 1004f62c     plugin_test1.obj
 0003:00002644       ?s_id@?$TObjectUniqueID@UIMultiImage@lib2d@UModSys@@@tl@UModSys@@2USUniquePointer@core@3@A 1004f644     plugin_test1.obj
 0003:0000265c       ?s_id@?$TObjectUniqueID@UIRenderObject@lib3d@UModSys@@@tl@UModSys@@2USUniquePointer@core@3@A 1004f65c     plugin_test1.obj
 0003:00002674       ?s_id@?$TObjectUniqueID@UIConsoleHelperOutput@base@UModSys@@@tl@UModSys@@2USUniquePointer@core@3@A 1004f674     plugin_test1.obj
 0003:0000268c       ?s_id@?$TObjectUniqueID@UIConsoleExt@base@UModSys@@@tl@UModSys@@2USUniquePointer@core@3@A 1004f68c     plugin_test1.obj
 0003:000026a4       ?s_id@?$TObjectUniqueID@UILibraryLayered@libmedia@UModSys@@@tl@UModSys@@2USUniquePointer@core@3@A 1004f6a4     plugin_test1.obj
 0003:000026bc       ?s_id@?$TObjectUniqueID@UIRefObject@core@UModSys@@@tl@UModSys@@2USUniquePointer@core@3@A 1004f6bc     plugin_test1.obj
 0003:000026d4       ?s_id@?$TObjectUniqueID@UILibrary@libmedia@UModSys@@@tl@UModSys@@2USUniquePointer@core@3@A 1004f6d4     plugin_test1.obj
 0003:000026ec       ?s_id@?$TObjectUniqueID@UIRoot@core@UModSys@@@tl@UModSys@@2USUniquePointer@core@3@A 1004f6ec     plugin_test1.obj
 0003:00002704       ?s_id@?$TObjectUniqueID@UIBinArchive@libmedia@UModSys@@@tl@UModSys@@2USUniquePointer@core@3@A 1004f704     plugin_test1.obj
 0003:0000271c       ?s_id@?$TObjectUniqueID@UILibraryObjCache@libmedia@UModSys@@@tl@UModSys@@2USUniquePointer@core@3@A 1004f71c     plugin_test1.obj
 0003:00002734       ?s_id@?$TObjectUniqueID@UIRenderDriver@lib2d@UModSys@@@tl@UModSys@@2USUniquePointer@core@3@A 1004f734     plugin_test1.obj
 0003:0000274c       ?s_id@?$TObjectUniqueID@UIConsoleHelperInput@base@UModSys@@@tl@UModSys@@2USUniquePointer@core@3@A 1004f74c     plugin_test1.obj
 0003:00002764       ?s_id@?$TObjectUniqueID@UIModule@base@UModSys@@@tl@UModSys@@2USUniquePointer@core@3@A 1004f764     plugin_test1.obj
 0003:0000277c       ?s_id@?$TObjectUniqueID@UIStreamWriter@libmedia@UModSys@@@tl@UModSys@@2USUniquePointer@core@3@A 1004f77c     plugin_test1.obj
 0003:00002794       ?s_id@?$TObjectUniqueID@UIGenerator@base@UModSys@@@tl@UModSys@@2USUniquePointer@core@3@A 1004f794     plugin_test1.obj
 0003:000027ac       ?s_id@?$TObjectUniqueID@UIBinObjFilter@libmedia@UModSys@@@tl@UModSys@@2USUniquePointer@core@3@A 1004f7ac     plugin_test1.obj
 0003:000027c4       ?s_id@?$TObjectUniqueID@UIConsoleHelper@base@UModSys@@@tl@UModSys@@2USUniquePointer@core@3@A 1004f7c4     plugin_test1.obj
 0003:000027dc       ?s_id@?$TObjectUniqueID@UIModuleLibrary@base@UModSys@@@tl@UModSys@@2USUniquePointer@core@3@A 1004f7dc     plugin_test1.obj
 0003:000027f4       ?s_id@?$TObjectUniqueID@UIMouseController@libui@UModSys@@@tl@UModSys@@2USUniquePointer@core@3@A 1004f7f4     plugin_test1.obj
 0003:0000280c       ?s_id@?$TObjectUniqueID@UIConsoleHelperInput_UIKey@libui@UModSys@@@tl@UModSys@@2USUniquePointer@core@3@A 1004f80c     plugin_test1.obj
 0003:00002824       ?s_id@?$TObjectUniqueID@URLines@test1@test@modules@UModSys@@@tl@UModSys@@2USUniquePointer@core@3@A 1004f824     plugin_test1.obj
 0003:0000283c       ?s_id@?$TObjectUniqueID@UIParameters@core@UModSys@@@tl@UModSys@@2USUniquePointer@core@3@A 1004f83c     plugin_test1.obj
 0003:00002854       ?s_id@?$TObjectUniqueID@UISerializeWriter@libmedia@UModSys@@@tl@UModSys@@2USUniquePointer@core@3@A 1004f854     plugin_test1.obj
 0003:0000286c       ?s_id@?$TObjectUniqueID@UISystem@base@UModSys@@@tl@UModSys@@2USUniquePointer@core@3@A 1004f86c     plugin_test1.obj
 0003:00002884       ?s_id@?$TObjectUniqueID@UIDialog@libui@UModSys@@@tl@UModSys@@2USUniquePointer@core@3@A 1004f884     plugin_test1.obj
 0003:0000289c       ?s_id@?$TObjectUniqueID@UIConsoleHelperHistory@base@UModSys@@@tl@UModSys@@2USUniquePointer@core@3@A 1004f89c     plugin_test1.obj
 0003:000028b4       ?s_id@?$TObjectUniqueID@UILibraryBinCache@libmedia@UModSys@@@tl@UModSys@@2USUniquePointer@core@3@A 1004f8b4     plugin_test1.obj
 0003:000028cc       ?s_id@?$TObjectUniqueID@UITextureCells@lib3d@UModSys@@@tl@UModSys@@2USUniquePointer@core@3@A 1004f8cc     plugin_test1.obj
 0003:000028e4       ?s_id@?$TObjectUniqueID@UIFrame@libui@UModSys@@@tl@UModSys@@2USUniquePointer@core@3@A 1004f8e4     plugin_test1.obj
 0003:000028fc       ?s_id@?$TObjectUniqueID@UILines@test1@test@modules@UModSys@@@tl@UModSys@@2USUniquePointer@core@3@A 1004f8fc     plugin_test1.obj
 0003:00002914       ?s_id@?$TObjectUniqueID@URTest1_Shell@test1@test@modules@UModSys@@@tl@UModSys@@2USUniquePointer@core@3@A 1004f914     plugin_test1.obj
 0003:0000292c       ?s_id@?$TObjectUniqueID@UIKeyboardController@libui@UModSys@@@tl@UModSys@@2USUniquePointer@core@3@A 1004f92c     plugin_test1.obj
 0003:00002944       ?s_id@?$TObjectUniqueID@UILibraryBinTree@libmedia@UModSys@@@tl@UModSys@@2USUniquePointer@core@3@A 1004f944     plugin_test1.obj
 0003:0000295c       ?s_id@?$TObjectUniqueID@UIJoystickController@libui@UModSys@@@tl@UModSys@@2USUniquePointer@core@3@A 1004f95c     plugin_test1.obj
 0003:00002974       ?s_id@?$TObjectUniqueID@UIModObject@base@UModSys@@@tl@UModSys@@2USUniquePointer@core@3@A 1004f974     plugin_test1.obj
 0003:0000298c       ?s_id@?$TObjectUniqueID@UILibraryObjFilter@libmedia@UModSys@@@tl@UModSys@@2USUniquePointer@core@3@A 1004f98c     plugin_test1.obj
 0003:000029a4       ?s_id@?$TObjectUniqueID@UIRenderer@lib3d@UModSys@@@tl@UModSys@@2USUniquePointer@core@3@A 1004f9a4     plugin_test1.obj
 0003:000029bc       ?s_id@?$TObjectUniqueID@UIStreamReader@libmedia@UModSys@@@tl@UModSys@@2USUniquePointer@core@3@A 1004f9bc     plugin_test1.obj
 0003:000029d4       ?s_id@?$TObjectUniqueID@UIConsoleHelperOutputFCS@base@UModSys@@@tl@UModSys@@2USUniquePointer@core@3@A 1004f9d4     plugin_test1.obj
 0003:000029ec       ?s_id@?$TObjectUniqueID@URGenerator@test1@test@modules@UModSys@@@tl@UModSys@@2USUniquePointer@core@3@A 1004f9ec     plugin_test1.obj
 0003:00002a04       ?s_id@?$TObjectUniqueID@UIClient@IBinArchiveFrame@libmedia@UModSys@@@tl@UModSys@@2USUniquePointer@core@3@A 1004fa04     plugin_test1.obj
 0003:00002a1c       ?s_id@?$TObjectUniqueID@UIVertexArray@lib3d@UModSys@@@tl@UModSys@@2USUniquePointer@core@3@A 1004fa1c     plugin_test1.obj
 0003:00002a34       ?s_id@?$TObjectUniqueID@UILibObject@libmedia@UModSys@@@tl@UModSys@@2USUniquePointer@core@3@A 1004fa34     plugin_test1.obj
 0003:00002a4c       ?s_id@?$TObjectUniqueID@UIObject@lib3d@UModSys@@@tl@UModSys@@2USUniquePointer@core@3@A 1004fa4c     plugin_test1.obj
 0003:00002a64       ?s_id@?$TObjectUniqueID@UIShell@base@UModSys@@@tl@UModSys@@2USUniquePointer@core@3@A 1004fa64     plugin_test1.obj
 0003:00002a7c       ?s_id@?$TObjectUniqueID@URLines_Filter@test1@test@modules@UModSys@@@tl@UModSys@@2USUniquePointer@core@3@A 1004fa7c     plugin_test1.obj
 0003:00002a94       ?s_id@?$TObjectUniqueID@UIBinArchiveFrame@libmedia@UModSys@@@tl@UModSys@@2USUniquePointer@core@3@A 1004fa94     plugin_test1.obj
 0003:00002aac       ?s_id@?$TObjectUniqueID@UIAsyncController@libui@UModSys@@@tl@UModSys@@2USUniquePointer@core@3@A 1004faac     plugin_test1.obj
 0003:00002ac4       ?s_id@?$TObjectUniqueID@UINodeObject@lib3d@UModSys@@@tl@UModSys@@2USUniquePointer@core@3@A 1004fac4     plugin_test1.obj
 0003:00002adc       ?s_id@?$TObjectUniqueID@UICollector@libui@UModSys@@@tl@UModSys@@2USUniquePointer@core@3@A 1004fadc     plugin_test1.obj
 0003:00002af4       ?s_id@?$TObjectUniqueID@UIRenderDriver@lib3d@UModSys@@@tl@UModSys@@2USUniquePointer@core@3@A 1004faf4     plugin_test1.obj
 0003:00002b0c       ?s_id@?$TObjectUniqueID@UIImageFactory@lib2d@UModSys@@@tl@UModSys@@2USUniquePointer@core@3@A 1004fb0c     plugin_test1.obj
 0003:00002b24       ?s_id@?$TObjectUniqueID@UISharedLibrary@lib3d@UModSys@@@tl@UModSys@@2USUniquePointer@core@3@A 1004fb24     plugin_test1.obj
 0003:00002b3c       ?s_id@?$TObjectUniqueID@UIAsyncCollector@libui@UModSys@@@tl@UModSys@@2USUniquePointer@core@3@A 1004fb3c     plugin_test1.obj
 0003:00002b54       ?s_id@?$TObjectUniqueID@UISerializeReader@libmedia@UModSys@@@tl@UModSys@@2USUniquePointer@core@3@A 1004fb54     plugin_test1.obj
 0003:00002b6c       ?s_id@?$TObjectUniqueID@UIUtilities@libmedia@UModSys@@@tl@UModSys@@2USUniquePointer@core@3@A 1004fb6c     plugin_test1.obj
 0003:00002b84       ?s_id@?$TObjectUniqueID@UIConsole@base@UModSys@@@tl@UModSys@@2USUniquePointer@core@3@A 1004fb84     plugin_test1.obj
 0003:00002b9c       ?s_id@?$TObjectUniqueID@UINodeObject_Picture@lib3d@UModSys@@@tl@UModSys@@2USUniquePointer@core@3@A 1004fb9c     umodsys_lib_lib3d:umodsys.lib.3d.common.obj
 0003:00002bb4       ?s_id@?$TObjectUniqueID@UINodeObject_Brush@lib3d@UModSys@@@tl@UModSys@@2USUniquePointer@core@3@A 1004fbb4     umodsys_lib_lib3d:umodsys.lib.3d.common.obj
 0003:00002bcc       ?s_id@?$TObjectUniqueID@UINodeObject_Mesh@lib3d@UModSys@@@tl@UModSys@@2USUniquePointer@core@3@A 1004fbcc     umodsys_lib_lib3d:umodsys.lib.3d.common.obj
 0003:00002be4       ?s_id@?$TObjectUniqueID@UISceneController@lib3d@UModSys@@@tl@UModSys@@2USUniquePointer@core@3@A 1004fbe4     umodsys_lib_lib3d:umodsys.lib.3d.common.obj
 0003:00002bfc       ?s_id@?$TObjectUniqueID@UIScene@lib3d@UModSys@@@tl@UModSys@@2USUniquePointer@core@3@A 1004fbfc     umodsys_lib_lib3d:umodsys.lib.3d.common.obj
 0003:00002c14       ?s_id@?$TObjectUniqueID@UINodeObject_Particles@lib3d@UModSys@@@tl@UModSys@@2USUniquePointer@core@3@A 1004fc14     umodsys_lib_lib3d:umodsys.lib.3d.common.obj
 0003:00002c2c       ?s_id@?$TObjectUniqueID@UINodeObject_Camera@lib3d@UModSys@@@tl@UModSys@@2USUniquePointer@core@3@A 1004fc2c     umodsys_lib_lib3d:umodsys.lib.3d.common.obj
 0003:00002c44       ?s_id@?$TObjectUniqueID@UINodeObject_Light@lib3d@UModSys@@@tl@UModSys@@2USUniquePointer@core@3@A 1004fc44     umodsys_lib_lib3d:umodsys.lib.3d.common.obj
 0003:00002c5c       ?s_id@?$TObjectUniqueID@URGenerator@stdlib@lib2d@modules@UModSys@@@tl@UModSys@@2USUniquePointer@core@3@A 1004fc5c     umodsys_lib_lib2d:umodsys.mod.2d.stdlib.obj
 0003:00002c74       ?s_id@?$TObjectUniqueID@URImage_Memory@stdlib@lib2d@modules@UModSys@@@tl@UModSys@@2USUniquePointer@core@3@A 1004fc74     umodsys_lib_lib2d:umodsys.mod.2d.stdlib.obj
 0003:00002c8c       ?s_id@?$TObjectUniqueID@URImageFactory_Memory@stdlib@lib2d@modules@UModSys@@@tl@UModSys@@2USUniquePointer@core@3@A 1004fc8c     umodsys_lib_lib2d:umodsys.mod.2d.stdlib.obj
 0003:00002ca4       ?s_id@?$TObjectUniqueID@URMultiImage@stdlib@lib2d@modules@UModSys@@@tl@UModSys@@2USUniquePointer@core@3@A 1004fca4     umodsys_lib_lib2d:umodsys.mod.2d.stdlib.obj
 0003:00002cbc       ?s_id@?$TObjectUniqueID@URMouseController@SDL_GL@ui@modules@UModSys@@@tl@UModSys@@2USUniquePointer@core@3@A 1004fcbc     umodsys_lib_libui:umodsys.mod.ui.SDL_GL.obj
 0003:00002cd4       ?s_id@?$TObjectUniqueID@URGenerator@SDL_GL@ui@modules@UModSys@@@tl@UModSys@@2USUniquePointer@core@3@A 1004fcd4     umodsys_lib_libui:umodsys.mod.ui.SDL_GL.obj
 0003:00002cec       ?s_id@?$TObjectUniqueID@URMultiImage2D_SDL_ttf@SDL_GL@ui@modules@UModSys@@@tl@UModSys@@2USUniquePointer@core@3@A 1004fcec     umodsys_lib_libui:umodsys.mod.ui.SDL_GL.obj
 0003:00002d04       ?s_id@?$TObjectUniqueID@URTerminalX@SDL_GL@ui@modules@UModSys@@@tl@UModSys@@2USUniquePointer@core@3@A 1004fd04     umodsys_lib_libui:umodsys.mod.ui.SDL_GL.obj
 0003:00002d1c       ?s_id@?$TObjectUniqueID@URRenderDriver3D@SDL_GL@ui@modules@UModSys@@@tl@UModSys@@2USUniquePointer@core@3@A 1004fd1c     umodsys_lib_libui:umodsys.mod.ui.SDL_GL.obj
 0003:00002d34       ?s_id@?$TObjectUniqueID@URKeyboardController@SDL_GL@ui@modules@UModSys@@@tl@UModSys@@2USUniquePointer@core@3@A 1004fd34     umodsys_lib_libui:umodsys.mod.ui.SDL_GL.obj
 0003:00002d4c       ?s_id@?$TObjectUniqueID@URVertexArray@SDL_GL@ui@modules@UModSys@@@tl@UModSys@@2USUniquePointer@core@3@A 1004fd4c     umodsys_lib_libui:umodsys.mod.ui.SDL_GL.obj
 0003:00002d64       ?s_id@?$TObjectUniqueID@URTerminal@SDL_GL@ui@modules@UModSys@@@tl@UModSys@@2USUniquePointer@core@3@A 1004fd64     umodsys_lib_libui:umodsys.mod.ui.SDL_GL.obj
 0003:00002d7c       ?s_id@?$TObjectUniqueID@URMouseController@SDL_core@ui@modules@UModSys@@@tl@UModSys@@2USUniquePointer@core@3@A 1004fd7c     umodsys_lib_libui:umodsys.mod.ui.SDL_core.obj
 0003:00002d94       ?s_id@?$TObjectUniqueID@URTerminalX@SDL_core@ui@modules@UModSys@@@tl@UModSys@@2USUniquePointer@core@3@A 1004fd94     umodsys_lib_libui:umodsys.mod.ui.SDL_core.obj
 0003:00002dac       ?s_id@?$TObjectUniqueID@URGenerator@SDL_core@ui@modules@UModSys@@@tl@UModSys@@2USUniquePointer@core@3@A 1004fdac     umodsys_lib_libui:umodsys.mod.ui.SDL_core.obj
 0003:00002dc4       ?s_id@?$TObjectUniqueID@URMultiImage2D_SDL_ttf@SDL_core@ui@modules@UModSys@@@tl@UModSys@@2USUniquePointer@core@3@A 1004fdc4     umodsys_lib_libui:umodsys.mod.ui.SDL_core.obj
 0003:00002ddc       ?s_id@?$TObjectUniqueID@URRenderDriver2D@SDL_core@ui@modules@UModSys@@@tl@UModSys@@2USUniquePointer@core@3@A 1004fddc     umodsys_lib_libui:umodsys.mod.ui.SDL_core.obj
 0003:00002df4       ?s_id@?$TObjectUniqueID@URKeyboardController@SDL_core@ui@modules@UModSys@@@tl@UModSys@@2USUniquePointer@core@3@A 1004fdf4     umodsys_lib_libui:umodsys.mod.ui.SDL_core.obj
 0003:00002e0c       ?s_id@?$TObjectUniqueID@URTerminal@SDL_core@ui@modules@UModSys@@@tl@UModSys@@2USUniquePointer@core@3@A 1004fe0c     umodsys_lib_libui:umodsys.mod.ui.SDL_core.obj
 0003:00002e24       ?s_id@?$TObjectUniqueID@URDialog@frames@ui@modules@UModSys@@@tl@UModSys@@2USUniquePointer@core@3@A 1004fe24     umodsys_lib_libui:umodsys.mod.ui.frames.obj
 0003:00002e3c       ?s_id@?$TObjectUniqueID@URFrame_Frame@frames@ui@modules@UModSys@@@tl@UModSys@@2USUniquePointer@core@3@A 1004fe3c     umodsys_lib_libui:umodsys.mod.ui.frames.obj
 0003:00002e54       ?s_id@?$TObjectUniqueID@URGenerator@frames@ui@modules@UModSys@@@tl@UModSys@@2USUniquePointer@core@3@A 1004fe54     umodsys_lib_libui:umodsys.mod.ui.frames.obj
 0003:00002e6c       ?s_id@?$TObjectUniqueID@URFrame_Text@frames@ui@modules@UModSys@@@tl@UModSys@@2USUniquePointer@core@3@A 1004fe6c     umodsys_lib_libui:umodsys.mod.ui.frames.obj
 0003:00002e84       ?s_id@?$TObjectUniqueID@URFrame_Button@frames@ui@modules@UModSys@@@tl@UModSys@@2USUniquePointer@core@3@A 1004fe84     umodsys_lib_libui:umodsys.mod.ui.frames.obj
 0003:00002e9c       ?s_id@?$TObjectUniqueID@URFrame_Edit@frames@ui@modules@UModSys@@@tl@UModSys@@2USUniquePointer@core@3@A 1004fe9c     umodsys_lib_libui:umodsys.mod.ui.frames.obj
 0003:00002eb4       ?s_id@?$TObjectUniqueID@URFrame_Common@frames@ui@modules@UModSys@@@tl@UModSys@@2USUniquePointer@core@3@A 1004feb4     umodsys_lib_libui:umodsys.mod.ui.frames.obj
 0003:00002ecc       ?s_id@?$TObjectUniqueID@URCollector@frames@ui@modules@UModSys@@@tl@UModSys@@2USUniquePointer@core@3@A 1004fecc     umodsys_lib_libui:umodsys.mod.ui.frames.obj
 0003:00002ee4       ?s_id@?$TObjectUniqueID@URFrame_List@frames@ui@modules@UModSys@@@tl@UModSys@@2USUniquePointer@core@3@A 1004fee4     umodsys_lib_libui:umodsys.mod.ui.frames.obj
 0003:00002efc       ?s_id@?$TObjectUniqueID@URFrame_Image@frames@ui@modules@UModSys@@@tl@UModSys@@2USUniquePointer@core@3@A 1004fefc     umodsys_lib_libui:umodsys.mod.ui.frames.obj
 0003:00002f14       ?s_id@?$TObjectUniqueID@URGenerator@images_std@media@modules@UModSys@@@tl@UModSys@@2USUniquePointer@core@3@A 1004ff14     umodsys_lib_libmedia:umodsys.mod.media.images_std.obj
 0003:00002f2c       ?s_id@?$TObjectUniqueID@URMediaFilter@images_std@media@modules@UModSys@@@tl@UModSys@@2USUniquePointer@core@3@A 1004ff2c     umodsys_lib_libmedia:umodsys.mod.media.images_std.obj
 0003:00002f44       ?s_id@?$TObjectUniqueID@URSerializeReader@serialize_json@media@modules@UModSys@@@tl@UModSys@@2USUniquePointer@core@3@A 1004ff44     umodsys_lib_libmedia:umodsys.mod.media.serialize_json.obj
 0003:00002f5c       ?s_id@?$TObjectUniqueID@URSerializeWriter@serialize_json@media@modules@UModSys@@@tl@UModSys@@2USUniquePointer@core@3@A 1004ff5c     umodsys_lib_libmedia:umodsys.mod.media.serialize_json.obj
 0003:00002f74       ?s_id@?$TObjectUniqueID@URGenerator@serialize_json@media@modules@UModSys@@@tl@UModSys@@2USUniquePointer@core@3@A 1004ff74     umodsys_lib_libmedia:umodsys.mod.media.serialize_json.obj
 0003:00002f8c       ?s_id@?$TObjectUniqueID@URGenerator@zlib@media@modules@UModSys@@@tl@UModSys@@2USUniquePointer@core@3@A 1004ff8c     umodsys_lib_libmedia:umodsys.mod.media.zlib.obj
 0003:00002fa4       ?s_id@?$TObjectUniqueID@URBinArchiveFrameClient_ZIP@zlib@media@modules@UModSys@@@tl@UModSys@@2USUniquePointer@core@3@A 1004ffa4     umodsys_lib_libmedia:umodsys.mod.media.zlib.obj
 0003:00002fbc       ___sse2_available          1004ffbc     <common>
 0003:00002fc0       __adjust_fdiv              1004ffc0     <common>
 0003:00002fc4       ___native_startup_state    1004ffc4     <common>
 0003:00002fc8       ___native_startup_lock     1004ffc8     <common>
 0003:00002fcc       ___dyn_tls_init_callback   1004ffcc     <common>
 0003:00002fd0       ___onexitend               1004ffd0     <common>
 0003:00002fd4       ___onexitbegin             1004ffd4     <common>

 entry point at        0001:0000a19b

 Static symbols

 0001:00009e10       _pre_c_init                1000ae10 f   MSVCRT:crtdll.obj
 0001:0000a085       ___DllMainCRTStartup       1000b085 f   MSVCRT:crtdll.obj
 0001:0000ebe0       ?term_source@images_std@media@modules@UModSys@@YAXPAUjpeg_decompress_struct@@@Z 1000fbe0 f    CIL library: CIL module
 0001:0000ebf0       ?skip_input_data@images_std@media@modules@UModSys@@YAXPAUjpeg_decompress_struct@@J@Z 1000fbf0 f    CIL library: CIL module
 0001:0000ec10       ?fill_input_buffer@images_std@media@modules@UModSys@@YAEPAUjpeg_decompress_struct@@@Z 1000fc10 f    CIL library: CIL module
 0001:0000ec20       ?init_source@images_std@media@modules@UModSys@@YAXPAUjpeg_decompress_struct@@@Z 1000fc20 f    CIL library: CIL module
 0001:0000ec30       ?error_exit@images_std@media@modules@UModSys@@YAXPAUjpeg_common_struct@@@Z 1000fc30 f    CIL library: CIL module
 0001:00032ff0       ?refer@@YAXXZ              10033ff0 f    CIL library: CIL module
 0001:00035182       _has_osfxsr_set            10036182 f   MSVCRT:cpu_disp.obj
 0001:00035250       __unwindfunclet$??1ICollectorThemeTemplate@libui@UModSys@@QAE@XZ$0 10036250 f    CIL library: CIL module
 0001:0003525b       __unwindfunclet$??1ICollectorThemeTemplate@libui@UModSys@@QAE@XZ$1 1003625b f    CIL library: CIL module
 0001:00035266       __ehhandler$??1ICollectorThemeTemplate@libui@UModSys@@QAE@XZ 10036266 f    CIL library: CIL module
 0001:00035270       __unwindfunclet$??1UI_Info@RTest1_Shell@test1@test@modules@UModSys@@QAE@XZ$0 10036270 f    CIL library: CIL module
 0001:0003527b       __unwindfunclet$??1UI_Info@RTest1_Shell@test1@test@modules@UModSys@@QAE@XZ$1 1003627b f    CIL library: CIL module
 0001:00035286       __unwindfunclet$??1UI_Info@RTest1_Shell@test1@test@modules@UModSys@@QAE@XZ$2 10036286 f    CIL library: CIL module
 0001:00035291       __unwindfunclet$??1UI_Info@RTest1_Shell@test1@test@modules@UModSys@@QAE@XZ$3 10036291 f    CIL library: CIL module
 0001:0003529c       __unwindfunclet$??1UI_Info@RTest1_Shell@test1@test@modules@UModSys@@QAE@XZ$4 1003629c f    CIL library: CIL module
 0001:000352a7       __unwindfunclet$??1UI_Info@RTest1_Shell@test1@test@modules@UModSys@@QAE@XZ$5 100362a7 f    CIL library: CIL module
 0001:000352b2       __unwindfunclet$??1UI_Info@RTest1_Shell@test1@test@modules@UModSys@@QAE@XZ$6 100362b2 f    CIL library: CIL module
 0001:000352bd       __unwindfunclet$??1UI_Info@RTest1_Shell@test1@test@modules@UModSys@@QAE@XZ$7 100362bd f    CIL library: CIL module
 0001:000352c8       __unwindfunclet$??1UI_Info@RTest1_Shell@test1@test@modules@UModSys@@QAE@XZ$8 100362c8 f    CIL library: CIL module
 0001:000352d3       __unwindfunclet$??1UI_Info@RTest1_Shell@test1@test@modules@UModSys@@QAE@XZ$9 100362d3 f    CIL library: CIL module
 0001:000352de       __ehhandler$??1UI_Info@RTest1_Shell@test1@test@modules@UModSys@@QAE@XZ 100362de f    CIL library: CIL module
 0001:000352f0       __unwindfunclet$?obj_delete@?$TRefObjectLinksModObject@URMultiImage@stdlib@lib2d@modules@UModSys@@UIModObject@base@5@@tl@UModSys@@QBEXPAURMultiImage@stdlib@lib2d@modules@3@@Z$0 100362f0 f    CIL library: CIL module
 0001:000352f0       __unwindfunclet$?obj_delete@?$TRefObjectLinksModObject@URImageFactory_Memory@stdlib@lib2d@modules@UModSys@@UIModObject@base@5@@tl@UModSys@@QBEXPAURImageFactory_Memory@stdlib@lib2d@modules@3@@Z$0 100362f0 f    CIL library: CIL module
 0001:000352f0       __unwindfunclet$?obj_delete@?$TRefObjectLinksModObject@URBinArchiveFrameClient_ZIP@zlib@media@modules@UModSys@@UIModObject@base@5@@tl@UModSys@@QBEXPAURBinArchiveFrameClient_ZIP@zlib@media@modules@3@@Z$0 100362f0 f    CIL library: CIL module
 0001:000352f0       __unwindfunclet$?obj_delete@?$TRefObjectLinksModObject@URTest1_Shell@test1@test@modules@UModSys@@UIModObject@base@5@@tl@UModSys@@QBEXPAURTest1_Shell@test1@test@modules@3@@Z$0 100362f0 f    CIL library: CIL module
 0001:000352f0       __unwindfunclet$?obj_delete@?$TRefObjectLinksModObject@URTerminal@SDL_GL@ui@modules@UModSys@@UIModObject@base@5@@tl@UModSys@@QBEXPAURTerminal@SDL_GL@ui@modules@3@@Z$0 100362f0 f    CIL library: CIL module
 0001:000352f0       __unwindfunclet$?obj_delete@?$TRefObjectLinksModObject@URSerializeWriter@serialize_json@media@modules@UModSys@@UIModObject@base@5@@tl@UModSys@@QBEXPAURSerializeWriter@serialize_json@media@modules@3@@Z$0 100362f0 f    CIL library: CIL module
 0001:000352f0       __unwindfunclet$?obj_delete@?$TRefObjectLinksModObject@URTerminal@SDL_core@ui@modules@UModSys@@UIModObject@base@5@@tl@UModSys@@QBEXPAURTerminal@SDL_core@ui@modules@3@@Z$0 100362f0 f    CIL library: CIL module
 0001:000352f0       __unwindfunclet$?obj_delete@?$TRefObjectLinksModObject@URSerializeReader@serialize_json@media@modules@UModSys@@UIModObject@base@5@@tl@UModSys@@QBEXPAURSerializeReader@serialize_json@media@modules@3@@Z$0 100362f0 f    CIL library: CIL module
 0001:000352f0       __unwindfunclet$?obj_delete@?$TRefObjectLinksModObject@URImage_Memory@stdlib@lib2d@modules@UModSys@@UIModObject@base@5@@tl@UModSys@@QBEXPAURImage_Memory@stdlib@lib2d@modules@3@@Z$0 100362f0 f    CIL library: CIL module
 0001:000352f0       __unwindfunclet$?obj_delete@?$TRefObjectLinksModObject@URCollector@frames@ui@modules@UModSys@@UIModObject@base@5@@tl@UModSys@@QBEXPAURCollector@frames@ui@modules@3@@Z$0 100362f0 f    CIL library: CIL module
 0001:000352f0       __unwindfunclet$?obj_delete@?$TRefObjectLinksModObject@URMediaFilter@images_std@media@modules@UModSys@@UIModObject@base@5@@tl@UModSys@@QBEXPAURMediaFilter@images_std@media@modules@3@@Z$0 100362f0 f    CIL library: CIL module
 0001:000352f8       __ehhandler$?obj_delete@?$TRefObjectLinksModObject@URSerializeReader@serialize_json@media@modules@UModSys@@UIModObject@base@5@@tl@UModSys@@QBEXPAURSerializeReader@serialize_json@media@modules@3@@Z 100362f8 f    CIL library: CIL module
 0001:000352f8       __ehhandler$?obj_delete@?$TRefObjectLinksModObject@URImageFactory_Memory@stdlib@lib2d@modules@UModSys@@UIModObject@base@5@@tl@UModSys@@QBEXPAURImageFactory_Memory@stdlib@lib2d@modules@3@@Z 100362f8 f    CIL library: CIL module
 0001:000352f8       __ehhandler$?obj_delete@?$TRefObjectLinksModObject@URBinArchiveFrameClient_ZIP@zlib@media@modules@UModSys@@UIModObject@base@5@@tl@UModSys@@QBEXPAURBinArchiveFrameClient_ZIP@zlib@media@modules@3@@Z 100362f8 f    CIL library: CIL module
 0001:000352f8       __ehhandler$?obj_delete@?$TRefObjectLinksModObject@URMultiImage@stdlib@lib2d@modules@UModSys@@UIModObject@base@5@@tl@UModSys@@QBEXPAURMultiImage@stdlib@lib2d@modules@3@@Z 100362f8 f    CIL library: CIL module
 0001:000352f8       __ehhandler$?obj_delete@?$TRefObjectLinksModObject@URImage_Memory@stdlib@lib2d@modules@UModSys@@UIModObject@base@5@@tl@UModSys@@QBEXPAURImage_Memory@stdlib@lib2d@modules@3@@Z 100362f8 f    CIL library: CIL module
 0001:000352f8       __ehhandler$?obj_delete@?$TRefObjectLinksModObject@URCollector@frames@ui@modules@UModSys@@UIModObject@base@5@@tl@UModSys@@QBEXPAURCollector@frames@ui@modules@3@@Z 100362f8 f    CIL library: CIL module
 0001:000352f8       __ehhandler$?obj_delete@?$TRefObjectLinksModObject@URSerializeWriter@serialize_json@media@modules@UModSys@@UIModObject@base@5@@tl@UModSys@@QBEXPAURSerializeWriter@serialize_json@media@modules@3@@Z 100362f8 f    CIL library: CIL module
 0001:000352f8       __ehhandler$?obj_delete@?$TRefObjectLinksModObject@URMediaFilter@images_std@media@modules@UModSys@@UIModObject@base@5@@tl@UModSys@@QBEXPAURMediaFilter@images_std@media@modules@3@@Z 100362f8 f    CIL library: CIL module
 0001:000352f8       __ehhandler$?obj_delete@?$TRefObjectLinksModObject@URTest1_Shell@test1@test@modules@UModSys@@UIModObject@base@5@@tl@UModSys@@QBEXPAURTest1_Shell@test1@test@modules@3@@Z 100362f8 f    CIL library: CIL module
 0001:000352f8       __ehhandler$?obj_delete@?$TRefObjectLinksModObject@URTerminal@SDL_core@ui@modules@UModSys@@UIModObject@base@5@@tl@UModSys@@QBEXPAURTerminal@SDL_core@ui@modules@3@@Z 100362f8 f    CIL library: CIL module
 0001:000352f8       __ehhandler$?obj_delete@?$TRefObjectLinksModObject@URTerminal@SDL_GL@ui@modules@UModSys@@UIModObject@base@5@@tl@UModSys@@QBEXPAURTerminal@SDL_GL@ui@modules@3@@Z 100362f8 f    CIL library: CIL module
 0001:00035310       __unwindfunclet$??1SBuffer@libmedia@UModSys@@QAE@XZ$0 10036310 f    CIL library: CIL module
 0001:0003531b       __ehhandler$??1SBuffer@libmedia@UModSys@@QAE@XZ 1003631b f    CIL library: CIL module
 0001:00035330       __unwindfunclet$??1?$TTextStreamWriter@D@libmedia@UModSys@@QAE@XZ$0 10036330 f    CIL library: CIL module
 0001:0003533b       __ehhandler$??1?$TTextStreamWriter@D@libmedia@UModSys@@QAE@XZ 1003633b f    CIL library: CIL module
 0001:00035350       __unwindfunclet$?obj_delete@?$TRefObjectLinksParent@URFrame_Button@frames@ui@modules@UModSys@@URCollector@2345@@tl@UModSys@@QBEXPAURFrame_Button@frames@ui@modules@3@@Z$0 10036350 f    CIL library: CIL module
 0001:00035350       __unwindfunclet$?obj_delete@?$TRefObjectLinksParent@URMultiImage2D_SDL_ttf@SDL_GL@ui@modules@UModSys@@URRenderDriver3D@2345@@tl@UModSys@@QBEXPAURMultiImage2D_SDL_ttf@SDL_GL@ui@modules@3@@Z$0 10036350 f    CIL library: CIL module
 0001:00035350       __unwindfunclet$?obj_delete@?$TRefObjectLinksParent@URFrame_Text@frames@ui@modules@UModSys@@URCollector@2345@@tl@UModSys@@QBEXPAURFrame_Text@frames@ui@modules@3@@Z$0 10036350 f    CIL library: CIL module
 0001:00035350       __unwindfunclet$?obj_delete@?$TRefObjectLinksParent@URFrame_List@frames@ui@modules@UModSys@@URCollector@2345@@tl@UModSys@@QBEXPAURFrame_List@frames@ui@modules@3@@Z$0 10036350 f    CIL library: CIL module
 0001:00035350       __unwindfunclet$?obj_delete@?$TRefObjectLinksParent@URFrame_Edit@frames@ui@modules@UModSys@@URCollector@2345@@tl@UModSys@@QBEXPAURFrame_Edit@frames@ui@modules@3@@Z$0 10036350 f    CIL library: CIL module
 0001:00035350       __unwindfunclet$?obj_delete@?$TRefObjectLinksParent@URVertexArray@SDL_GL@ui@modules@UModSys@@URRenderDriver3D@2345@@tl@UModSys@@QBEXPAURVertexArray@SDL_GL@ui@modules@3@@Z$0 10036350 f    CIL library: CIL module
 0001:00035350       __unwindfunclet$?obj_delete@?$TRefObjectLinksParent@URMultiImage2D_SDL_ttf@SDL_core@ui@modules@UModSys@@URRenderDriver2D@2345@@tl@UModSys@@QBEXPAURMultiImage2D_SDL_ttf@SDL_core@ui@modules@3@@Z$0 10036350 f    CIL library: CIL module
 0001:00035350       __unwindfunclet$?obj_delete@?$TRefObjectLinksParent@URFrame_Frame@frames@ui@modules@UModSys@@URCollector@2345@@tl@UModSys@@QBEXPAURFrame_Frame@frames@ui@modules@3@@Z$0 10036350 f    CIL library: CIL module
 0001:00035350       __unwindfunclet$?obj_delete@?$TRefObjectLinksParent@URFrame_Image@frames@ui@modules@UModSys@@URCollector@2345@@tl@UModSys@@QBEXPAURFrame_Image@frames@ui@modules@3@@Z$0 10036350 f    CIL library: CIL module
 0001:00035350       __unwindfunclet$?obj_delete@?$TRefObjectLinksParent@URDialog@frames@ui@modules@UModSys@@URCollector@2345@@tl@UModSys@@QBEXPAURDialog@frames@ui@modules@3@@Z$0 10036350 f    CIL library: CIL module
 0001:00035358       __ehhandler$?obj_delete@?$TRefObjectLinksParent@URDialog@frames@ui@modules@UModSys@@URCollector@2345@@tl@UModSys@@QBEXPAURDialog@frames@ui@modules@3@@Z 10036358 f    CIL library: CIL module
 0001:00035358       __ehhandler$?obj_delete@?$TRefObjectLinksParent@URMultiImage2D_SDL_ttf@SDL_GL@ui@modules@UModSys@@URRenderDriver3D@2345@@tl@UModSys@@QBEXPAURMultiImage2D_SDL_ttf@SDL_GL@ui@modules@3@@Z 10036358 f    CIL library: CIL module
 0001:00035358       __ehhandler$?obj_delete@?$TRefObjectLinksParent@URVertexArray@SDL_GL@ui@modules@UModSys@@URRenderDriver3D@2345@@tl@UModSys@@QBEXPAURVertexArray@SDL_GL@ui@modules@3@@Z 10036358 f    CIL library: CIL module
 0001:00035358       __ehhandler$?obj_delete@?$TRefObjectLinksParent@URFrame_List@frames@ui@modules@UModSys@@URCollector@2345@@tl@UModSys@@QBEXPAURFrame_List@frames@ui@modules@3@@Z 10036358 f    CIL library: CIL module
 0001:00035358       __ehhandler$?obj_delete@?$TRefObjectLinksParent@URFrame_Edit@frames@ui@modules@UModSys@@URCollector@2345@@tl@UModSys@@QBEXPAURFrame_Edit@frames@ui@modules@3@@Z 10036358 f    CIL library: CIL module
 0001:00035358       __ehhandler$?obj_delete@?$TRefObjectLinksParent@URFrame_Button@frames@ui@modules@UModSys@@URCollector@2345@@tl@UModSys@@QBEXPAURFrame_Button@frames@ui@modules@3@@Z 10036358 f    CIL library: CIL module
 0001:00035358       __ehhandler$?obj_delete@?$TRefObjectLinksParent@URFrame_Text@frames@ui@modules@UModSys@@URCollector@2345@@tl@UModSys@@QBEXPAURFrame_Text@frames@ui@modules@3@@Z 10036358 f    CIL library: CIL module
 0001:00035358       __ehhandler$?obj_delete@?$TRefObjectLinksParent@URMultiImage2D_SDL_ttf@SDL_core@ui@modules@UModSys@@URRenderDriver2D@2345@@tl@UModSys@@QBEXPAURMultiImage2D_SDL_ttf@SDL_core@ui@modules@3@@Z 10036358 f    CIL library: CIL module
 0001:00035358       __ehhandler$?obj_delete@?$TRefObjectLinksParent@URFrame_Image@frames@ui@modules@UModSys@@URCollector@2345@@tl@UModSys@@QBEXPAURFrame_Image@frames@ui@modules@3@@Z 10036358 f    CIL library: CIL module
 0001:00035358       __ehhandler$?obj_delete@?$TRefObjectLinksParent@URFrame_Frame@frames@ui@modules@UModSys@@URCollector@2345@@tl@UModSys@@QBEXPAURFrame_Frame@frames@ui@modules@3@@Z 10036358 f    CIL library: CIL module
 0001:00035370       __unwindfunclet$??1?$TRefObjectComposite@UIController@libui@UModSys@@UIRefObject@core@3@U?$TRefObjectFunc@UIRefObject@core@UModSys@@@tl@3@@tl@UModSys@@QAE@XZ$0 10036370 f    CIL library: CIL module
 0001:00035370       __unwindfunclet$??1?$TRefObjectCompositeExtra@UIMouseClient@libui@UModSys@@HUIRefObject@core@3@U?$TRefObjectFunc@UIRefObject@core@UModSys@@@tl@3@@tl@UModSys@@QAE@XZ$0 10036370 f    CIL library: CIL module
 0001:00035370       __unwindfunclet$??1?$TRefObjectComposite@UIKeyboardClient@libui@UModSys@@UIRefObject@core@3@U?$TRefObjectFunc@UIRefObject@core@UModSys@@@tl@3@@tl@UModSys@@QAE@XZ$0 10036370 f    CIL library: CIL module
 0001:00035378       __ehhandler$??1?$TRefObjectComposite@UIKeyboardClient@libui@UModSys@@UIRefObject@core@3@U?$TRefObjectFunc@UIRefObject@core@UModSys@@@tl@3@@tl@UModSys@@QAE@XZ 10036378 f    CIL library: CIL module
 0001:00035378       __ehhandler$??1?$TRefObjectComposite@UIController@libui@UModSys@@UIRefObject@core@3@U?$TRefObjectFunc@UIRefObject@core@UModSys@@@tl@3@@tl@UModSys@@QAE@XZ 10036378 f    CIL library: CIL module
 0001:00035378       __ehhandler$??1?$TRefObjectCompositeExtra@UIMouseClient@libui@UModSys@@HUIRefObject@core@3@U?$TRefObjectFunc@UIRefObject@core@UModSys@@@tl@3@@tl@UModSys@@QAE@XZ 10036378 f    CIL library: CIL module
 0001:00035390       __unwindfunclet$?dialog_close_all@RCollector@frames@ui@modules@UModSys@@UAE_NXZ$0 10036390 f    CIL library: CIL module
 0001:00035398       __ehhandler$?dialog_close_all@RCollector@frames@ui@modules@UModSys@@UAE_NXZ 10036398 f    CIL library: CIL module
 0001:000353a2       __unwindfunclet$?dialog_close@RCollector@frames@ui@modules@UModSys@@UAE_NXZ$0 100363a2 f    CIL library: CIL module
 0001:000353aa       __ehhandler$?dialog_close@RCollector@frames@ui@modules@UModSys@@UAE_NXZ 100363aa f    CIL library: CIL module
 0001:000353b4       __unwindfunclet$??0RDialog@frames@ui@modules@UModSys@@QAE@PAURCollector@1234@PAURFrame_Common@1234@@Z$0 100363b4 f    CIL library: CIL module
 0001:000353bc       __ehhandler$??0RDialog@frames@ui@modules@UModSys@@QAE@PAURCollector@1234@PAURFrame_Common@1234@@Z 100363bc f    CIL library: CIL module
 0001:000353c6       __unwindfunclet$??1STextureGL@SDL_GL@ui@modules@UModSys@@QAE@XZ$0 100363c6 f    CIL library: CIL module
 0001:000353d1       __unwindfunclet$??1STextureGL@SDL_GL@ui@modules@UModSys@@QAE@XZ$1 100363d1 f    CIL library: CIL module
 0001:000353dc       __ehhandler$??1STextureGL@SDL_GL@ui@modules@UModSys@@QAE@XZ 100363dc f    CIL library: CIL module
 0001:000353e6       __unwindfunclet$??0RImageFactory_Memory@stdlib@lib2d@modules@UModSys@@QAE@PAUIModObject@base@4@ABUSParameters@core@4@@Z$0 100363e6 f    CIL library: CIL module
 0001:000353ee       __ehhandler$??0RImageFactory_Memory@stdlib@lib2d@modules@UModSys@@QAE@PAUIModObject@base@4@ABUSParameters@core@4@@Z 100363ee f    CIL library: CIL module
 0001:000353f8       __unwindfunclet$?new_va_1@UI_Info@RTest1_Shell@test1@test@modules@UModSys@@QAE_NXZ$0 100363f8 f    CIL library: CIL module
 0001:00035403       __unwindfunclet$?new_va_1@UI_Info@RTest1_Shell@test1@test@modules@UModSys@@QAE_NXZ$1 10036403 f    CIL library: CIL module
 0001:0003540e       __unwindfunclet$?new_va_1@UI_Info@RTest1_Shell@test1@test@modules@UModSys@@QAE_NXZ$2 1003640e f    CIL library: CIL module
 0001:00035419       __ehhandler$?new_va_1@UI_Info@RTest1_Shell@test1@test@modules@UModSys@@QAE_NXZ 10036419 f    CIL library: CIL module
 0001:00035423       __unwindfunclet$?dialog_open@RCollector@frames@ui@modules@UModSys@@UAEPAUIDialog@libui@5@PAUIFrame@75@@Z$0 10036423 f    CIL library: CIL module
 0001:0003542b       __unwindfunclet$?dialog_open@RCollector@frames@ui@modules@UModSys@@UAEPAUIDialog@libui@5@PAUIFrame@75@@Z$1 1003642b f    CIL library: CIL module
 0001:00035433       __ehhandler$?dialog_open@RCollector@frames@ui@modules@UModSys@@UAEPAUIDialog@libui@5@PAUIFrame@75@@Z 10036433 f    CIL library: CIL module
 0001:0003543d       __unwindfunclet$??1RCollector@frames@ui@modules@UModSys@@UAE@XZ$0 1003643d f    CIL library: CIL module
 0001:00035445       __unwindfunclet$??1RCollector@frames@ui@modules@UModSys@@UAE@XZ$1 10036445 f    CIL library: CIL module
 0001:00035450       __unwindfunclet$??1RCollector@frames@ui@modules@UModSys@@UAE@XZ$2 10036450 f    CIL library: CIL module
 0001:0003545b       __unwindfunclet$??1RCollector@frames@ui@modules@UModSys@@UAE@XZ$3 1003645b f    CIL library: CIL module
 0001:00035466       __unwindfunclet$??1RCollector@frames@ui@modules@UModSys@@UAE@XZ$4 10036466 f    CIL library: CIL module
 0001:00035471       __unwindfunclet$??1RCollector@frames@ui@modules@UModSys@@UAE@XZ$5 10036471 f    CIL library: CIL module
 0001:0003547f       __unwindfunclet$??1RCollector@frames@ui@modules@UModSys@@UAE@XZ$6 1003647f f    CIL library: CIL module
 0001:0003548d       __unwindfunclet$??1RCollector@frames@ui@modules@UModSys@@UAE@XZ$7 1003648d f    CIL library: CIL module
 0001:0003549b       __ehhandler$??1RCollector@frames@ui@modules@UModSys@@UAE@XZ 1003649b f    CIL library: CIL module
 0001:000354a5       __unwindfunclet$??1RDialog@frames@ui@modules@UModSys@@UAE@XZ$0 100364a5 f    CIL library: CIL module
 0001:000354ad       __unwindfunclet$??1RDialog@frames@ui@modules@UModSys@@UAE@XZ$1 100364ad f    CIL library: CIL module
 0001:000354b8       __ehhandler$??1RDialog@frames@ui@modules@UModSys@@UAE@XZ 100364b8 f    CIL library: CIL module
 0001:000354c2       __unwindfunclet$??1RFrame_Common@frames@ui@modules@UModSys@@UAE@XZ$0 100364c2 f    CIL library: CIL module
 0001:000354ca       __unwindfunclet$??1RFrame_Common@frames@ui@modules@UModSys@@UAE@XZ$1 100364ca f    CIL library: CIL module
 0001:000354d5       __unwindfunclet$??1RFrame_Common@frames@ui@modules@UModSys@@UAE@XZ$2 100364d5 f    CIL library: CIL module
 0001:000354e0       __unwindfunclet$??1RFrame_Common@frames@ui@modules@UModSys@@UAE@XZ$3 100364e0 f    CIL library: CIL module
 0001:000354ee       __ehhandler$??1RFrame_Common@frames@ui@modules@UModSys@@UAE@XZ 100364ee f    CIL library: CIL module
 0001:000354f8       __unwindfunclet$??1RRenderDriver2D@SDL_core@ui@modules@UModSys@@UAE@XZ$0 100364f8 f    CIL library: CIL module
 0001:00035500       __unwindfunclet$??1RRenderDriver2D@SDL_core@ui@modules@UModSys@@UAE@XZ$1 10036500 f    CIL library: CIL module
 0001:0003550b       __unwindfunclet$??1RRenderDriver2D@SDL_core@ui@modules@UModSys@@UAE@XZ$2 1003650b f    CIL library: CIL module
 0001:00035516       __ehhandler$??1RRenderDriver2D@SDL_core@ui@modules@UModSys@@UAE@XZ 10036516 f    CIL library: CIL module
 0001:00035520       __unwindfunclet$??1RMultiImage2D_SDL_ttf@SDL_core@ui@modules@UModSys@@UAE@XZ$0 10036520 f    CIL library: CIL module
 0001:00035528       __ehhandler$??1RMultiImage2D_SDL_ttf@SDL_core@ui@modules@UModSys@@UAE@XZ 10036528 f    CIL library: CIL module
 0001:00035532       __unwindfunclet$??0RMultiImage2D_SDL_ttf@SDL_core@ui@modules@UModSys@@QAE@PAURRenderDriver2D@1234@ABUSParameters@core@4@@Z$0 10036532 f    CIL library: CIL module
 0001:0003553a       __unwindfunclet$??0RMultiImage2D_SDL_ttf@SDL_core@ui@modules@UModSys@@QAE@PAURRenderDriver2D@1234@ABUSParameters@core@4@@Z$1 1003653a f    CIL library: CIL module
 0001:00035545       __ehhandler$??0RMultiImage2D_SDL_ttf@SDL_core@ui@modules@UModSys@@QAE@PAURRenderDriver2D@1234@ABUSParameters@core@4@@Z 10036545 f    CIL library: CIL module
 0001:0003554f       __unwindfunclet$??1RVertexArray@SDL_GL@ui@modules@UModSys@@UAE@XZ$0 1003654f f    CIL library: CIL module
 0001:00035557       __unwindfunclet$??1RVertexArray@SDL_GL@ui@modules@UModSys@@UAE@XZ$1 10036557 f    CIL library: CIL module
 0001:00035562       __ehhandler$??1RVertexArray@SDL_GL@ui@modules@UModSys@@UAE@XZ 10036562 f    CIL library: CIL module
 0001:0003556c       __unwindfunclet$??0RVertexArray@SDL_GL@ui@modules@UModSys@@QAE@PAURRenderDriver3D@1234@_N1@Z$0 1003656c f    CIL library: CIL module
 0001:00035574       __ehhandler$??0RVertexArray@SDL_GL@ui@modules@UModSys@@QAE@PAURRenderDriver3D@1234@_N1@Z 10036574 f    CIL library: CIL module
 0001:0003557e       __unwindfunclet$?setup_array@RRenderDriver3D@SDL_GL@ui@modules@UModSys@@UAE_NPAUIVertexArray@lib3d@5@HH@Z$0 1003657e f    CIL library: CIL module
 0001:00035586       __ehhandler$?setup_array@RRenderDriver3D@SDL_GL@ui@modules@UModSys@@UAE_NPAUIVertexArray@lib3d@5@HH@Z 10036586 f    CIL library: CIL module
 0001:00035590       __unwindfunclet$??1RRenderDriver3D@SDL_GL@ui@modules@UModSys@@UAE@XZ$0 10036590 f    CIL library: CIL module
 0001:00035598       __unwindfunclet$??1RRenderDriver3D@SDL_GL@ui@modules@UModSys@@UAE@XZ$1 10036598 f    CIL library: CIL module
 0001:000355a3       __unwindfunclet$??1RRenderDriver3D@SDL_GL@ui@modules@UModSys@@UAE@XZ$2 100365a3 f    CIL library: CIL module
 0001:000355ae       __ehhandler$??1RRenderDriver3D@SDL_GL@ui@modules@UModSys@@UAE@XZ 100365ae f    CIL library: CIL module
 0001:000355b8       __unwindfunclet$??0STextureGL@SDL_GL@ui@modules@UModSys@@QAE@PBUSGLFuncs@1234@@Z$0 100365b8 f    CIL library: CIL module
 0001:000355c3       __unwindfunclet$??0STextureGL@SDL_GL@ui@modules@UModSys@@QAE@PBUSGLFuncs@1234@@Z$1 100365c3 f    CIL library: CIL module
 0001:000355ce       __ehhandler$??0STextureGL@SDL_GL@ui@modules@UModSys@@QAE@PBUSGLFuncs@1234@@Z 100365ce f    CIL library: CIL module
 0001:000355d8       __unwindfunclet$??1RMouseController@SDL_GL@ui@modules@UModSys@@UAE@XZ$0 100365d8 f    CIL library: CIL module
 0001:000355e0       __ehhandler$??1RMouseController@SDL_GL@ui@modules@UModSys@@UAE@XZ 100365e0 f    CIL library: CIL module
 0001:000355ea       __unwindfunclet$??1RKeyboardController@SDL_GL@ui@modules@UModSys@@UAE@XZ$0 100365ea f    CIL library: CIL module
 0001:000355f2       __ehhandler$??1RKeyboardController@SDL_GL@ui@modules@UModSys@@UAE@XZ 100365f2 f    CIL library: CIL module
 0001:000355fc       __unwindfunclet$?set_layer_count@RMultiImage@stdlib@lib2d@modules@UModSys@@UAE_NG@Z$0 100365fc f    CIL library: CIL module
 0001:00035604       __ehhandler$?set_layer_count@RMultiImage@stdlib@lib2d@modules@UModSys@@UAE_NG@Z 10036604 f    CIL library: CIL module
 0001:0003560e       __unwindfunclet$??1RImage_Memory@stdlib@lib2d@modules@UModSys@@UAE@XZ$0 1003660e f    CIL library: CIL module
 0001:00035616       __ehhandler$??1RImage_Memory@stdlib@lib2d@modules@UModSys@@UAE@XZ 10036616 f    CIL library: CIL module
 0001:00035620       __unwindfunclet$?new_va_qc@UI_Info@RTest1_Shell@test1@test@modules@UModSys@@QAE_NXZ$0 10036620 f    CIL library: CIL module
 0001:00035628       __ehhandler$?new_va_qc@UI_Info@RTest1_Shell@test1@test@modules@UModSys@@QAE_NXZ 10036628 f    CIL library: CIL module
 0001:00035632       __unwindfunclet$?saver_png@RMediaFilter@images_std@media@modules@UModSys@@QAE_NPBUIImage@lib2d@5@AAUSInfo@IBinObjFilter@libmedia@5@ABUSParameters@core@5@PBD_N@Z$0 10036632 f    CIL library: CIL module
 0001:0003563a       __unwindfunclet$?saver_png@RMediaFilter@images_std@media@modules@UModSys@@QAE_NPBUIImage@lib2d@5@AAUSInfo@IBinObjFilter@libmedia@5@ABUSParameters@core@5@PBD_N@Z$1 1003663a f    CIL library: CIL module
 0001:00035642       __ehhandler$?saver_png@RMediaFilter@images_std@media@modules@UModSys@@QAE_NPBUIImage@lib2d@5@AAUSInfo@IBinObjFilter@libmedia@5@ABUSParameters@core@5@PBD_N@Z 10036642 f    CIL library: CIL module
 0001:0003564c       __unwindfunclet$?loader_png@RMediaFilter@images_std@media@modules@UModSys@@QAE_NPAUIImage@lib2d@5@ABUSInfo@IBinObjFilter@libmedia@5@ABUSParameters@core@5@HPBD_N@Z$0 1003664c f    CIL library: CIL module
 0001:00035654       __ehhandler$?loader_png@RMediaFilter@images_std@media@modules@UModSys@@QAE_NPAUIImage@lib2d@5@ABUSInfo@IBinObjFilter@libmedia@5@ABUSParameters@core@5@HPBD_N@Z 10036654 f    CIL library: CIL module
 0001:0003565e       __unwindfunclet$?loader_jpeg@RMediaFilter@images_std@media@modules@UModSys@@QAE_NPAUIImage@lib2d@5@ABUSInfo@IBinObjFilter@libmedia@5@ABUSParameters@core@5@HPBD_N@Z$0 1003665e f    CIL library: CIL module
 0001:00035666       __ehhandler$?loader_jpeg@RMediaFilter@images_std@media@modules@UModSys@@QAE_NPAUIImage@lib2d@5@ABUSInfo@IBinObjFilter@libmedia@5@ABUSParameters@core@5@HPBD_N@Z 10036666 f    CIL library: CIL module
 0001:00035670       __unwindfunclet$??0RCollector@frames@ui@modules@UModSys@@QAE@PAUIModObject@base@4@ABUSParameters@core@4@@Z$0 10036670 f    CIL library: CIL module
 0001:00035678       __unwindfunclet$??0RCollector@frames@ui@modules@UModSys@@QAE@PAUIModObject@base@4@ABUSParameters@core@4@@Z$1 10036678 f    CIL library: CIL module
 0001:00035683       __unwindfunclet$??0RCollector@frames@ui@modules@UModSys@@QAE@PAUIModObject@base@4@ABUSParameters@core@4@@Z$2 10036683 f    CIL library: CIL module
 0001:0003568e       __unwindfunclet$??0RCollector@frames@ui@modules@UModSys@@QAE@PAUIModObject@base@4@ABUSParameters@core@4@@Z$3 1003668e f    CIL library: CIL module
 0001:00035699       __unwindfunclet$??0RCollector@frames@ui@modules@UModSys@@QAE@PAUIModObject@base@4@ABUSParameters@core@4@@Z$4 10036699 f    CIL library: CIL module
 0001:000356a4       __unwindfunclet$??0RCollector@frames@ui@modules@UModSys@@QAE@PAUIModObject@base@4@ABUSParameters@core@4@@Z$5 100366a4 f    CIL library: CIL module
 0001:000356b2       __unwindfunclet$??0RCollector@frames@ui@modules@UModSys@@QAE@PAUIModObject@base@4@ABUSParameters@core@4@@Z$6 100366b2 f    CIL library: CIL module
 0001:000356c0       __unwindfunclet$??0RCollector@frames@ui@modules@UModSys@@QAE@PAUIModObject@base@4@ABUSParameters@core@4@@Z$7 100366c0 f    CIL library: CIL module
 0001:000356ce       __unwindfunclet$??0RCollector@frames@ui@modules@UModSys@@QAE@PAUIModObject@base@4@ABUSParameters@core@4@@Z$8 100366ce f    CIL library: CIL module
 0001:000356dc       __unwindfunclet$??0RCollector@frames@ui@modules@UModSys@@QAE@PAUIModObject@base@4@ABUSParameters@core@4@@Z$9 100366dc f    CIL library: CIL module
 0001:000356ea       __ehhandler$??0RCollector@frames@ui@modules@UModSys@@QAE@PAUIModObject@base@4@ABUSParameters@core@4@@Z 100366ea f    CIL library: CIL module
 0001:000356f4       __unwindfunclet$?set_buf@RFrame_Edit@frames@ui@modules@UModSys@@IAE_NPBDH@Z$0 100366f4 f    CIL library: CIL module
 0001:000356fc       __ehhandler$?set_buf@RFrame_Edit@frames@ui@modules@UModSys@@IAE_NPBDH@Z 100366fc f    CIL library: CIL module
 0001:00035706       __unwindfunclet$??1RFrame_Button@frames@ui@modules@UModSys@@UAE@XZ$0 10036706 f    CIL library: CIL module
 0001:00035710       __ehhandler$??1RFrame_Button@frames@ui@modules@UModSys@@UAE@XZ 10036710 f    CIL library: CIL module
 0001:0003571a       __unwindfunclet$??1RFrame_Image@frames@ui@modules@UModSys@@UAE@XZ$0 1003671a f    CIL library: CIL module
 0001:00035724       __ehhandler$??1RFrame_Image@frames@ui@modules@UModSys@@UAE@XZ 10036724 f    CIL library: CIL module
 0001:0003572e       __unwindfunclet$??1RFrame_Text@frames@ui@modules@UModSys@@UAE@XZ$0 1003672e f    CIL library: CIL module
 0001:00035738       __ehhandler$??1RFrame_Text@frames@ui@modules@UModSys@@UAE@XZ 10036738 f    CIL library: CIL module
 0001:00035742       __unwindfunclet$??0RFrame_Common@frames@ui@modules@UModSys@@QAE@PAURCollector@1234@PAU01234@@Z$0 10036742 f    CIL library: CIL module
 0001:0003574a       __unwindfunclet$??0RFrame_Common@frames@ui@modules@UModSys@@QAE@PAURCollector@1234@PAU01234@@Z$1 1003674a f    CIL library: CIL module
 0001:00035755       __ehhandler$??0RFrame_Common@frames@ui@modules@UModSys@@QAE@PAURCollector@1234@PAU01234@@Z 10036755 f    CIL library: CIL module
 0001:0003575f       __unwindfunclet$??1RKeyboardController@SDL_core@ui@modules@UModSys@@UAE@XZ$0 1003675f f    CIL library: CIL module
 0001:00035767       __ehhandler$??1RKeyboardController@SDL_core@ui@modules@UModSys@@UAE@XZ 10036767 f    CIL library: CIL module
 0001:00035771       __unwindfunclet$??1RMouseController@SDL_core@ui@modules@UModSys@@UAE@XZ$0 10036771 f    CIL library: CIL module
 0001:00035779       __ehhandler$??1RMouseController@SDL_core@ui@modules@UModSys@@UAE@XZ 10036779 f    CIL library: CIL module
 0001:00035783       __unwindfunclet$?new_font@RRenderDriver2D@SDL_core@ui@modules@UModSys@@UAE?AU?$TRefObject@UIMultiImage@lib2d@UModSys@@U?$TRefObjectFunc@UIMultiImage@lib2d@UModSys@@@tl@3@@tl@5@ABUSParameters@core@5@ABU?$TString@U?$TSCoreConst@D@su@tl@UModSys@@U?$TComparerBinaryHash@D@234@@75@@Z$0 10036783 f    CIL library: CIL module
 0001:0003578b       __unwindfunclet$?new_font@RRenderDriver2D@SDL_core@ui@modules@UModSys@@UAE?AU?$TRefObject@UIMultiImage@lib2d@UModSys@@U?$TRefObjectFunc@UIMultiImage@lib2d@UModSys@@@tl@3@@tl@5@ABUSParameters@core@5@ABU?$TString@U?$TSCoreConst@D@su@tl@UModSys@@U?$TComparerBinaryHash@D@234@@75@@Z$1 1003678b f    CIL library: CIL module
 0001:00035799       __unwindfunclet$?new_font@RRenderDriver2D@SDL_core@ui@modules@UModSys@@UAE?AU?$TRefObject@UIMultiImage@lib2d@UModSys@@U?$TRefObjectFunc@UIMultiImage@lib2d@UModSys@@@tl@3@@tl@5@ABUSParameters@core@5@ABU?$TString@U?$TSCoreConst@D@su@tl@UModSys@@U?$TComparerBinaryHash@D@234@@75@@Z$2 10036799 f    CIL library: CIL module
 0001:000357b2       __ehhandler$?new_font@RRenderDriver2D@SDL_core@ui@modules@UModSys@@UAE?AU?$TRefObject@UIMultiImage@lib2d@UModSys@@U?$TRefObjectFunc@UIMultiImage@lib2d@UModSys@@@tl@3@@tl@5@ABUSParameters@core@5@ABU?$TString@U?$TSCoreConst@D@su@tl@UModSys@@U?$TComparerBinaryHash@D@234@@75@@Z 100367b2 f    CIL library: CIL module
 0001:000357bc       __unwindfunclet$?create_array@RRenderDriver3D@SDL_GL@ui@modules@UModSys@@UAE?AU?$TRefObject@UIVertexArray@lib3d@UModSys@@U?$TRefObjectFunc@UIVertexArray@lib3d@UModSys@@@tl@3@@tl@5@HQBUSVertexElemInfo@lib3d@5@HPBXI@Z$0 100367bc f    CIL library: CIL module
 0001:000357ca       __unwindfunclet$?create_array@RRenderDriver3D@SDL_GL@ui@modules@UModSys@@UAE?AU?$TRefObject@UIVertexArray@lib3d@UModSys@@U?$TRefObjectFunc@UIVertexArray@lib3d@UModSys@@@tl@3@@tl@5@HQBUSVertexElemInfo@lib3d@5@HPBXI@Z$1 100367ca f    CIL library: CIL module
 0001:000357d2       __unwindfunclet$?create_array@RRenderDriver3D@SDL_GL@ui@modules@UModSys@@UAE?AU?$TRefObject@UIVertexArray@lib3d@UModSys@@U?$TRefObjectFunc@UIVertexArray@lib3d@UModSys@@@tl@3@@tl@5@HQBUSVertexElemInfo@lib3d@5@HPBXI@Z$2 100367d2 f    CIL library: CIL module
 0001:000357eb       __ehhandler$?create_array@RRenderDriver3D@SDL_GL@ui@modules@UModSys@@UAE?AU?$TRefObject@UIVertexArray@lib3d@UModSys@@U?$TRefObjectFunc@UIVertexArray@lib3d@UModSys@@@tl@3@@tl@5@HQBUSVertexElemInfo@lib3d@5@HPBXI@Z 100367eb f    CIL library: CIL module
 0001:000357f5       __unwindfunclet$?create_array@RRenderDriver3D@SDL_GL@ui@modules@UModSys@@UAE?AU?$TRefObject@UIVertexArray@lib3d@UModSys@@U?$TRefObjectFunc@UIVertexArray@lib3d@UModSys@@@tl@3@@tl@5@HQBUSVertexElemInfo@lib3d@5@H@Z$0 100367f5 f    CIL library: CIL module
 0001:00035803       __unwindfunclet$?create_array@RRenderDriver3D@SDL_GL@ui@modules@UModSys@@UAE?AU?$TRefObject@UIVertexArray@lib3d@UModSys@@U?$TRefObjectFunc@UIVertexArray@lib3d@UModSys@@@tl@3@@tl@5@HQBUSVertexElemInfo@lib3d@5@H@Z$1 10036803 f    CIL library: CIL module
 0001:0003580b       __unwindfunclet$?create_array@RRenderDriver3D@SDL_GL@ui@modules@UModSys@@UAE?AU?$TRefObject@UIVertexArray@lib3d@UModSys@@U?$TRefObjectFunc@UIVertexArray@lib3d@UModSys@@@tl@3@@tl@5@HQBUSVertexElemInfo@lib3d@5@H@Z$2 1003680b f    CIL library: CIL module
 0001:00035824       __ehhandler$?create_array@RRenderDriver3D@SDL_GL@ui@modules@UModSys@@UAE?AU?$TRefObject@UIVertexArray@lib3d@UModSys@@U?$TRefObjectFunc@UIVertexArray@lib3d@UModSys@@@tl@3@@tl@5@HQBUSVertexElemInfo@lib3d@5@H@Z 10036824 f    CIL library: CIL module
 0001:0003582e       __unwindfunclet$??1RTerminal@SDL_GL@ui@modules@UModSys@@UAE@XZ$0 1003682e f    CIL library: CIL module
 0001:00035836       __unwindfunclet$??1RTerminal@SDL_GL@ui@modules@UModSys@@UAE@XZ$1 10036836 f    CIL library: CIL module
 0001:00035843       __ehhandler$??1RTerminal@SDL_GL@ui@modules@UModSys@@UAE@XZ 10036843 f    CIL library: CIL module
 0001:0003584d       __unwindfunclet$??0RTerminal@SDL_GL@ui@modules@UModSys@@QAE@PAUIModObject@base@4@@Z$0 1003684d f    CIL library: CIL module
 0001:00035855       __ehhandler$??0RTerminal@SDL_GL@ui@modules@UModSys@@QAE@PAUIModObject@base@4@@Z 10036855 f    CIL library: CIL module
 0001:0003585f       __unwindfunclet$??1RMultiImage@stdlib@lib2d@modules@UModSys@@UAE@XZ$0 1003685f f    CIL library: CIL module
 0001:00035867       __unwindfunclet$??1RMultiImage@stdlib@lib2d@modules@UModSys@@UAE@XZ$1 10036867 f    CIL library: CIL module
 0001:00035872       __unwindfunclet$??1RMultiImage@stdlib@lib2d@modules@UModSys@@UAE@XZ$2 10036872 f    CIL library: CIL module
 0001:0003587d       __ehhandler$??1RMultiImage@stdlib@lib2d@modules@UModSys@@UAE@XZ 1003687d f    CIL library: CIL module
 0001:00035887       __unwindfunclet$??0RMultiImage@stdlib@lib2d@modules@UModSys@@QAE@PAUIModObject@base@4@ABUSParameters@core@4@@Z$0 10036887 f    CIL library: CIL module
 0001:0003588f       __unwindfunclet$??0RMultiImage@stdlib@lib2d@modules@UModSys@@QAE@PAUIModObject@base@4@ABUSParameters@core@4@@Z$1 1003688f f    CIL library: CIL module
 0001:0003589a       __unwindfunclet$??0RMultiImage@stdlib@lib2d@modules@UModSys@@QAE@PAUIModObject@base@4@ABUSParameters@core@4@@Z$2 1003689a f    CIL library: CIL module
 0001:000358a5       __unwindfunclet$??0RMultiImage@stdlib@lib2d@modules@UModSys@@QAE@PAUIModObject@base@4@ABUSParameters@core@4@@Z$3 100368a5 f    CIL library: CIL module
 0001:000358b0       __ehhandler$??0RMultiImage@stdlib@lib2d@modules@UModSys@@QAE@PAUIModObject@base@4@ABUSParameters@core@4@@Z 100368b0 f    CIL library: CIL module
 0001:000358ba       __unwindfunclet$??0RImage_Memory@stdlib@lib2d@modules@UModSys@@QAE@PAUIModObject@base@4@ABUSParameters@core@4@@Z$0 100368ba f    CIL library: CIL module
 0001:000358c2       __ehhandler$??0RImage_Memory@stdlib@lib2d@modules@UModSys@@QAE@PAUIModObject@base@4@ABUSParameters@core@4@@Z 100368c2 f    CIL library: CIL module
 0001:000358cc       __unwindfunclet$?set_info@RImage_Memory@stdlib@lib2d@modules@UModSys@@UAE_NABUSImagePatchInfo@35@PBD@Z$0 100368cc f    CIL library: CIL module
 0001:000358d4       __ehhandler$?set_info@RImage_Memory@stdlib@lib2d@modules@UModSys@@UAE_NABUSImagePatchInfo@35@PBD@Z 100368d4 f    CIL library: CIL module
 0001:000358de       __unwindfunclet$??1RFrame_Edit@frames@ui@modules@UModSys@@UAE@XZ$0 100368de f    CIL library: CIL module
 0001:000358e8       __unwindfunclet$??1RFrame_Edit@frames@ui@modules@UModSys@@UAE@XZ$1 100368e8 f    CIL library: CIL module
 0001:000358f6       __ehhandler$??1RFrame_Edit@frames@ui@modules@UModSys@@UAE@XZ 100368f6 f    CIL library: CIL module
 0001:00035900       __unwindfunclet$??0RFrame_Edit@frames@ui@modules@UModSys@@QAE@PAURCollector@1234@PAURFrame_Common@1234@@Z$0 10036900 f    CIL library: CIL module
 0001:0003590a       __ehhandler$??0RFrame_Edit@frames@ui@modules@UModSys@@QAE@PAURCollector@1234@PAURFrame_Common@1234@@Z 1003690a f    CIL library: CIL module
 0001:00035914       __unwindfunclet$??0RFrame_Button@frames@ui@modules@UModSys@@QAE@PAURCollector@1234@PAURFrame_Common@1234@@Z$0 10036914 f    CIL library: CIL module
 0001:0003591e       __ehhandler$??0RFrame_Button@frames@ui@modules@UModSys@@QAE@PAURCollector@1234@PAURFrame_Common@1234@@Z 1003691e f    CIL library: CIL module
 0001:00035928       __unwindfunclet$??0RFrame_Image@frames@ui@modules@UModSys@@QAE@PAURCollector@1234@PAURFrame_Common@1234@@Z$0 10036928 f    CIL library: CIL module
 0001:00035932       __ehhandler$??0RFrame_Image@frames@ui@modules@UModSys@@QAE@PAURCollector@1234@PAURFrame_Common@1234@@Z 10036932 f    CIL library: CIL module
 0001:0003593c       __unwindfunclet$??0RFrame_Text@frames@ui@modules@UModSys@@QAE@PAURCollector@1234@PAURFrame_Common@1234@@Z$0 1003693c f    CIL library: CIL module
 0001:00035946       __ehhandler$??0RFrame_Text@frames@ui@modules@UModSys@@QAE@PAURCollector@1234@PAURFrame_Common@1234@@Z 10036946 f    CIL library: CIL module
 0001:00035950       __unwindfunclet$??0RFrame_Frame@frames@ui@modules@UModSys@@QAE@PAURCollector@1234@PAURFrame_Common@1234@@Z$0 10036950 f    CIL library: CIL module
 0001:0003595a       __ehhandler$??0RFrame_Frame@frames@ui@modules@UModSys@@QAE@PAURCollector@1234@PAURFrame_Common@1234@@Z 1003695a f    CIL library: CIL module
 0001:00035964       __unwindfunclet$??1RTerminal@SDL_core@ui@modules@UModSys@@UAE@XZ$0 10036964 f    CIL library: CIL module
 0001:0003596c       __unwindfunclet$??1RTerminal@SDL_core@ui@modules@UModSys@@UAE@XZ$1 1003696c f    CIL library: CIL module
 0001:00035979       __ehhandler$??1RTerminal@SDL_core@ui@modules@UModSys@@UAE@XZ 10036979 f    CIL library: CIL module
 0001:00035983       __unwindfunclet$??0RTerminal@SDL_core@ui@modules@UModSys@@QAE@PAUIModObject@base@4@@Z$0 10036983 f    CIL library: CIL module
 0001:0003598b       __ehhandler$??0RTerminal@SDL_core@ui@modules@UModSys@@QAE@PAUIModObject@base@4@@Z 1003698b f    CIL library: CIL module
 0001:00035995       __unwindfunclet$??0RRenderDriver2D@SDL_core@ui@modules@UModSys@@QAE@PAURTerminalX@1234@@Z$0 10036995 f    CIL library: CIL module
 0001:0003599d       __unwindfunclet$??0RRenderDriver2D@SDL_core@ui@modules@UModSys@@QAE@PAURTerminalX@1234@@Z$1 1003699d f    CIL library: CIL module
 0001:000359a8       __unwindfunclet$??0RRenderDriver2D@SDL_core@ui@modules@UModSys@@QAE@PAURTerminalX@1234@@Z$2 100369a8 f    CIL library: CIL module
 0001:000359b3       __ehhandler$??0RRenderDriver2D@SDL_core@ui@modules@UModSys@@QAE@PAURTerminalX@1234@@Z 100369b3 f    CIL library: CIL module
 0001:000359bd       __unwindfunclet$??1RTerminalX@SDL_GL@ui@modules@UModSys@@UAE@XZ$0 100369bd f    CIL library: CIL module
 0001:000359c7       __ehhandler$??1RTerminalX@SDL_GL@ui@modules@UModSys@@UAE@XZ 100369c7 f    CIL library: CIL module
 0001:000359d1       __unwindfunclet$??1RMultiImage2D_SDL_ttf@SDL_GL@ui@modules@UModSys@@UAE@XZ$0 100369d1 f    CIL library: CIL module
 0001:000359d9       __ehhandler$??1RMultiImage2D_SDL_ttf@SDL_GL@ui@modules@UModSys@@UAE@XZ 100369d9 f    CIL library: CIL module
 0001:000359e3       __unwindfunclet$?image_new@RImageFactory_Memory@stdlib@lib2d@modules@UModSys@@UAE?AU?$TRefObject@UIImage@lib2d@UModSys@@U?$TRefObjectFunc@UIImage@lib2d@UModSys@@@tl@3@@tl@5@ABUSImagePatchInfo@35@PBD@Z$0 100369e3 f    CIL library: CIL module
 0001:000359ee       __unwindfunclet$?image_new@RImageFactory_Memory@stdlib@lib2d@modules@UModSys@@UAE?AU?$TRefObject@UIImage@lib2d@UModSys@@U?$TRefObjectFunc@UIImage@lib2d@UModSys@@@tl@3@@tl@5@ABUSImagePatchInfo@35@PBD@Z$1 100369ee f    CIL library: CIL module
 0001:000359f9       __unwindfunclet$?image_new@RImageFactory_Memory@stdlib@lib2d@modules@UModSys@@UAE?AU?$TRefObject@UIImage@lib2d@UModSys@@U?$TRefObjectFunc@UIImage@lib2d@UModSys@@@tl@3@@tl@5@ABUSImagePatchInfo@35@PBD@Z$2 100369f9 f    CIL library: CIL module
 0001:00035a0d       __unwindfunclet$?image_new@RImageFactory_Memory@stdlib@lib2d@modules@UModSys@@UAE?AU?$TRefObject@UIImage@lib2d@UModSys@@U?$TRefObjectFunc@UIImage@lib2d@UModSys@@@tl@3@@tl@5@ABUSImagePatchInfo@35@PBD@Z$3 10036a0d f    CIL library: CIL module
 0001:00035a2c       __ehhandler$?image_new@RImageFactory_Memory@stdlib@lib2d@modules@UModSys@@UAE?AU?$TRefObject@UIImage@lib2d@UModSys@@U?$TRefObjectFunc@UIImage@lib2d@UModSys@@@tl@3@@tl@5@ABUSImagePatchInfo@35@PBD@Z 10036a2c f    CIL library: CIL module
 0001:00035a36       __unwindfunclet$?image_new@RImageFactory_Memory@stdlib@lib2d@modules@UModSys@@UAE?AU?$TRefObject@UIImage@lib2d@UModSys@@U?$TRefObjectFunc@UIImage@lib2d@UModSys@@@tl@3@@tl@5@XZ$0 10036a36 f    CIL library: CIL module
 0001:00035a41       __unwindfunclet$?image_new@RImageFactory_Memory@stdlib@lib2d@modules@UModSys@@UAE?AU?$TRefObject@UIImage@lib2d@UModSys@@U?$TRefObjectFunc@UIImage@lib2d@UModSys@@@tl@3@@tl@5@XZ$1 10036a41 f    CIL library: CIL module
 0001:00035a4c       __unwindfunclet$?image_new@RImageFactory_Memory@stdlib@lib2d@modules@UModSys@@UAE?AU?$TRefObject@UIImage@lib2d@UModSys@@U?$TRefObjectFunc@UIImage@lib2d@UModSys@@@tl@3@@tl@5@XZ$2 10036a4c f    CIL library: CIL module
 0001:00035a60       __unwindfunclet$?image_new@RImageFactory_Memory@stdlib@lib2d@modules@UModSys@@UAE?AU?$TRefObject@UIImage@lib2d@UModSys@@U?$TRefObjectFunc@UIImage@lib2d@UModSys@@@tl@3@@tl@5@XZ$3 10036a60 f    CIL library: CIL module
 0001:00035a7f       __ehhandler$?image_new@RImageFactory_Memory@stdlib@lib2d@modules@UModSys@@UAE?AU?$TRefObject@UIImage@lib2d@UModSys@@U?$TRefObjectFunc@UIImage@lib2d@UModSys@@@tl@3@@tl@5@XZ 10036a7f f    CIL library: CIL module
 0001:00035a89       __unwindfunclet$?new_frames@UI_Info@RTest1_Shell@test1@test@modules@UModSys@@QAE_NPAUIController@libui@6@@Z$0 10036a89 f    CIL library: CIL module
 0001:00035a94       __unwindfunclet$?new_frames@UI_Info@RTest1_Shell@test1@test@modules@UModSys@@QAE_NPAUIController@libui@6@@Z$1 10036a94 f    CIL library: CIL module
 0001:00035a9f       __unwindfunclet$?new_frames@UI_Info@RTest1_Shell@test1@test@modules@UModSys@@QAE_NPAUIController@libui@6@@Z$2 10036a9f f    CIL library: CIL module
 0001:00035aaa       __unwindfunclet$?new_frames@UI_Info@RTest1_Shell@test1@test@modules@UModSys@@QAE_NPAUIController@libui@6@@Z$3 10036aaa f    CIL library: CIL module
 0001:00035ab5       __unwindfunclet$?new_frames@UI_Info@RTest1_Shell@test1@test@modules@UModSys@@QAE_NPAUIController@libui@6@@Z$4 10036ab5 f    CIL library: CIL module
 0001:00035ac0       __ehhandler$?new_frames@UI_Info@RTest1_Shell@test1@test@modules@UModSys@@QAE_NPAUIController@libui@6@@Z 10036ac0 f    CIL library: CIL module
 0001:00035aca       __unwindfunclet$?create_3d@UI_Info@RTest1_Shell@test1@test@modules@UModSys@@QAE_NPBD@Z$0 10036aca f    CIL library: CIL module
 0001:00035ad5       __ehhandler$?create_3d@UI_Info@RTest1_Shell@test1@test@modules@UModSys@@QAE_NPBD@Z 10036ad5 f    CIL library: CIL module
 0001:00035adf       __unwindfunclet$?init_term@UI_Info@RTest1_Shell@test1@test@modules@UModSys@@QAE_NPBD@Z$0 10036adf f    CIL library: CIL module
 0001:00035aea       __unwindfunclet$?init_term@UI_Info@RTest1_Shell@test1@test@modules@UModSys@@QAE_NPBD@Z$1 10036aea f    CIL library: CIL module
 0001:00035af5       __unwindfunclet$?init_term@UI_Info@RTest1_Shell@test1@test@modules@UModSys@@QAE_NPBD@Z$2 10036af5 f    CIL library: CIL module
 0001:00035b00       __unwindfunclet$?init_term@UI_Info@RTest1_Shell@test1@test@modules@UModSys@@QAE_NPBD@Z$3 10036b00 f    CIL library: CIL module
 0001:00035b0b       __ehhandler$?init_term@UI_Info@RTest1_Shell@test1@test@modules@UModSys@@QAE_NPBD@Z 10036b0b f    CIL library: CIL module
 0001:00035b15       __unwindfunclet$?font_2d@UI_Info@RTest1_Shell@test1@test@modules@UModSys@@QAE_NXZ$0 10036b15 f    CIL library: CIL module
 0001:00035b20       __unwindfunclet$?font_2d@UI_Info@RTest1_Shell@test1@test@modules@UModSys@@QAE_NXZ$1 10036b20 f    CIL library: CIL module
 0001:00035b2b       __ehhandler$?font_2d@UI_Info@RTest1_Shell@test1@test@modules@UModSys@@QAE_NXZ 10036b2b f    CIL library: CIL module
 0001:00035b35       __unwindfunclet$??0RFrame_List@frames@ui@modules@UModSys@@QAE@PAURCollector@1234@PAURFrame_Common@1234@@Z$0 10036b35 f    CIL library: CIL module
 0001:00035b3f       __ehhandler$??0RFrame_List@frames@ui@modules@UModSys@@QAE@PAURCollector@1234@PAURFrame_Common@1234@@Z 10036b3f f    CIL library: CIL module
 0001:00035b49       __unwindfunclet$??1RTerminalX@SDL_core@ui@modules@UModSys@@UAE@XZ$0 10036b49 f    CIL library: CIL module
 0001:00035b53       __ehhandler$??1RTerminalX@SDL_core@ui@modules@UModSys@@UAE@XZ 10036b53 f    CIL library: CIL module
 0001:00035b5d       __unwindfunclet$??0RTerminalX@SDL_core@ui@modules@UModSys@@QAE@PAUIModObject@base@4@ABUSParameters@core@4@@Z$0 10036b5d f    CIL library: CIL module
 0001:00035b67       __ehhandler$??0RTerminalX@SDL_core@ui@modules@UModSys@@QAE@PAUIModObject@base@4@ABUSParameters@core@4@@Z 10036b67 f    CIL library: CIL module
 0001:00035b71       __unwindfunclet$??0RRenderDriver3D@SDL_GL@ui@modules@UModSys@@QAE@PAURTerminalX@1234@@Z$0 10036b71 f    CIL library: CIL module
 0001:00035b79       __unwindfunclet$??0RRenderDriver3D@SDL_GL@ui@modules@UModSys@@QAE@PAURTerminalX@1234@@Z$1 10036b79 f    CIL library: CIL module
 0001:00035b84       __unwindfunclet$??0RRenderDriver3D@SDL_GL@ui@modules@UModSys@@QAE@PAURTerminalX@1234@@Z$2 10036b84 f    CIL library: CIL module
 0001:00035b8f       __ehhandler$??0RRenderDriver3D@SDL_GL@ui@modules@UModSys@@QAE@PAURTerminalX@1234@@Z 10036b8f f    CIL library: CIL module
 0001:00035b99       __unwindfunclet$??0RMultiImage2D_SDL_ttf@SDL_GL@ui@modules@UModSys@@QAE@PAURRenderDriver3D@1234@ABUSParameters@core@4@@Z$0 10036b99 f    CIL library: CIL module
 0001:00035ba1       __unwindfunclet$??0RMultiImage2D_SDL_ttf@SDL_GL@ui@modules@UModSys@@QAE@PAURRenderDriver3D@1234@ABUSParameters@core@4@@Z$1 10036ba1 f    CIL library: CIL module
 0001:00035bac       __ehhandler$??0RMultiImage2D_SDL_ttf@SDL_GL@ui@modules@UModSys@@QAE@PAURRenderDriver3D@1234@ABUSParameters@core@4@@Z 10036bac f    CIL library: CIL module
 0001:00035bb6       __unwindfunclet$?ui_test2@RTest1_Shell@test1@test@modules@UModSys@@QAEXXZ$0 10036bb6 f    CIL library: CIL module
 0001:00035bc0       __ehhandler$?ui_test2@RTest1_Shell@test1@test@modules@UModSys@@QAEXXZ 10036bc0 f    CIL library: CIL module
 0001:00035bca       __unwindfunclet$?frame_create_s@RCollector@frames@ui@modules@UModSys@@UAEPAUIFrame@libui@5@ABU?$TString@U?$TSCoreConst@D@su@tl@UModSys@@U?$TComparerBinaryHash@D@234@@tl@5@ABUSFrameCreateParameters@75@PBUSParameters@core@5@@Z$0 10036bca f    CIL library: CIL module
 0001:00035bd2       __unwindfunclet$?frame_create_s@RCollector@frames@ui@modules@UModSys@@UAEPAUIFrame@libui@5@ABU?$TString@U?$TSCoreConst@D@su@tl@UModSys@@U?$TComparerBinaryHash@D@234@@tl@5@ABUSFrameCreateParameters@75@PBUSParameters@core@5@@Z$2 10036bd2 f    CIL library: CIL module
 0001:00035bda       __unwindfunclet$?frame_create_s@RCollector@frames@ui@modules@UModSys@@UAEPAUIFrame@libui@5@ABU?$TString@U?$TSCoreConst@D@su@tl@UModSys@@U?$TComparerBinaryHash@D@234@@tl@5@ABUSFrameCreateParameters@75@PBUSParameters@core@5@@Z$4 10036bda f    CIL library: CIL module
 0001:00035be2       __unwindfunclet$?frame_create_s@RCollector@frames@ui@modules@UModSys@@UAEPAUIFrame@libui@5@ABU?$TString@U?$TSCoreConst@D@su@tl@UModSys@@U?$TComparerBinaryHash@D@234@@tl@5@ABUSFrameCreateParameters@75@PBUSParameters@core@5@@Z$5 10036be2 f    CIL library: CIL module
 0001:00035bea       __unwindfunclet$?frame_create_s@RCollector@frames@ui@modules@UModSys@@UAEPAUIFrame@libui@5@ABU?$TString@U?$TSCoreConst@D@su@tl@UModSys@@U?$TComparerBinaryHash@D@234@@tl@5@ABUSFrameCreateParameters@75@PBUSParameters@core@5@@Z$6 10036bea f    CIL library: CIL module
 0001:00035bf2       __unwindfunclet$?frame_create_s@RCollector@frames@ui@modules@UModSys@@UAEPAUIFrame@libui@5@ABU?$TString@U?$TSCoreConst@D@su@tl@UModSys@@U?$TComparerBinaryHash@D@234@@tl@5@ABUSFrameCreateParameters@75@PBUSParameters@core@5@@Z$3 10036bf2 f    CIL library: CIL module
 0001:00035bfa       __unwindfunclet$?frame_create_s@RCollector@frames@ui@modules@UModSys@@UAEPAUIFrame@libui@5@ABU?$TString@U?$TSCoreConst@D@su@tl@UModSys@@U?$TComparerBinaryHash@D@234@@tl@5@ABUSFrameCreateParameters@75@PBUSParameters@core@5@@Z$1 10036bfa f    CIL library: CIL module
 0001:00035c02       __ehhandler$?frame_create_s@RCollector@frames@ui@modules@UModSys@@UAEPAUIFrame@libui@5@ABU?$TString@U?$TSCoreConst@D@su@tl@UModSys@@U?$TComparerBinaryHash@D@234@@tl@5@ABUSFrameCreateParameters@75@PBUSParameters@core@5@@Z 10036c02 f    CIL library: CIL module
 0001:00035c0c       __unwindfunclet$?frame_create_n@RCollector@frames@ui@modules@UModSys@@UAEPAUIFrame@libui@5@HABUSFrameCreateParameters@75@PBUSParameters@core@5@@Z$0 10036c0c f    CIL library: CIL module
 0001:00035c14       __unwindfunclet$?frame_create_n@RCollector@frames@ui@modules@UModSys@@UAEPAUIFrame@libui@5@HABUSFrameCreateParameters@75@PBUSParameters@core@5@@Z$2 10036c14 f    CIL library: CIL module
 0001:00035c1c       __unwindfunclet$?frame_create_n@RCollector@frames@ui@modules@UModSys@@UAEPAUIFrame@libui@5@HABUSFrameCreateParameters@75@PBUSParameters@core@5@@Z$4 10036c1c f    CIL library: CIL module
 0001:00035c24       __unwindfunclet$?frame_create_n@RCollector@frames@ui@modules@UModSys@@UAEPAUIFrame@libui@5@HABUSFrameCreateParameters@75@PBUSParameters@core@5@@Z$1 10036c24 f    CIL library: CIL module
 0001:00035c2c       __unwindfunclet$?frame_create_n@RCollector@frames@ui@modules@UModSys@@UAEPAUIFrame@libui@5@HABUSFrameCreateParameters@75@PBUSParameters@core@5@@Z$3 10036c2c f    CIL library: CIL module
 0001:00035c34       __unwindfunclet$?frame_create_n@RCollector@frames@ui@modules@UModSys@@UAEPAUIFrame@libui@5@HABUSFrameCreateParameters@75@PBUSParameters@core@5@@Z$5 10036c34 f    CIL library: CIL module
 0001:00035c3c       __unwindfunclet$?frame_create_n@RCollector@frames@ui@modules@UModSys@@UAEPAUIFrame@libui@5@HABUSFrameCreateParameters@75@PBUSParameters@core@5@@Z$6 10036c3c f    CIL library: CIL module
 0001:00035c44       __ehhandler$?frame_create_n@RCollector@frames@ui@modules@UModSys@@UAEPAUIFrame@libui@5@HABUSFrameCreateParameters@75@PBUSParameters@core@5@@Z 10036c44 f    CIL library: CIL module
 0001:00035c4e       __unwindfunclet$??0RTerminalX@SDL_GL@ui@modules@UModSys@@QAE@PAUIModObject@base@4@ABUSParameters@core@4@@Z$0 10036c4e f    CIL library: CIL module
 0001:00035c58       __ehhandler$??0RTerminalX@SDL_GL@ui@modules@UModSys@@QAE@PAUIModObject@base@4@ABUSParameters@core@4@@Z 10036c58 f    CIL library: CIL module
 0001:00035c62       __unwindfunclet$?new_font@RRenderDriver3D@SDL_GL@ui@modules@UModSys@@UAE?AU?$TRefObject@UIMultiImage@lib2d@UModSys@@U?$TRefObjectFunc@UIMultiImage@lib2d@UModSys@@@tl@3@@tl@5@ABUSParameters@core@5@ABU?$TString@U?$TSCoreConst@D@su@tl@UModSys@@U?$TComparerBinaryHash@D@234@@75@@Z$0 10036c62 f    CIL library: CIL module
 0001:00035c6a       __unwindfunclet$?new_font@RRenderDriver3D@SDL_GL@ui@modules@UModSys@@UAE?AU?$TRefObject@UIMultiImage@lib2d@UModSys@@U?$TRefObjectFunc@UIMultiImage@lib2d@UModSys@@@tl@3@@tl@5@ABUSParameters@core@5@ABU?$TString@U?$TSCoreConst@D@su@tl@UModSys@@U?$TComparerBinaryHash@D@234@@75@@Z$1 10036c6a f    CIL library: CIL module
 0001:00035c78       __unwindfunclet$?new_font@RRenderDriver3D@SDL_GL@ui@modules@UModSys@@UAE?AU?$TRefObject@UIMultiImage@lib2d@UModSys@@U?$TRefObjectFunc@UIMultiImage@lib2d@UModSys@@@tl@3@@tl@5@ABUSParameters@core@5@ABU?$TString@U?$TSCoreConst@D@su@tl@UModSys@@U?$TComparerBinaryHash@D@234@@75@@Z$2 10036c78 f    CIL library: CIL module
 0001:00035c91       __ehhandler$?new_font@RRenderDriver3D@SDL_GL@ui@modules@UModSys@@UAE?AU?$TRefObject@UIMultiImage@lib2d@UModSys@@U?$TRefObjectFunc@UIMultiImage@lib2d@UModSys@@@tl@3@@tl@5@ABUSParameters@core@5@ABU?$TString@U?$TSCoreConst@D@su@tl@UModSys@@U?$TComparerBinaryHash@D@234@@75@@Z 10036c91 f    CIL library: CIL module
 0001:00035c9b       __unwindfunclet$?data_reader@RBinArchiveFrameClient_ZIP@zlib@media@modules@UModSys@@UAE?AU?$TRefObject@UIStreamReader@libmedia@UModSys@@U?$TRefObjectFunc@UIStreamReader@libmedia@UModSys@@@tl@3@@tl@5@PAUIBinArchiveFrame@libmedia@5@PAUNameNode@895@ABUSFlags@95@@Z$0 10036c9b f    CIL library: CIL module
 0001:00035cb4       __unwindfunclet$?data_reader@RBinArchiveFrameClient_ZIP@zlib@media@modules@UModSys@@UAE?AU?$TRefObject@UIStreamReader@libmedia@UModSys@@U?$TRefObjectFunc@UIStreamReader@libmedia@UModSys@@@tl@3@@tl@5@PAUIBinArchiveFrame@libmedia@5@PAUNameNode@895@ABUSFlags@95@@Z$1 10036cb4 f    CIL library: CIL module
 0001:00035cbc       __ehhandler$?data_reader@RBinArchiveFrameClient_ZIP@zlib@media@modules@UModSys@@UAE?AU?$TRefObject@UIStreamReader@libmedia@UModSys@@U?$TRefObjectFunc@UIStreamReader@libmedia@UModSys@@@tl@3@@tl@5@PAUIBinArchiveFrame@libmedia@5@PAUNameNode@895@ABUSFlags@95@@Z 10036cbc f    CIL library: CIL module
 0001:00035cc6       __unwindfunclet$?data_save@RBinArchiveFrameClient_ZIP@zlib@media@modules@UModSys@@UAE_NPAUIBinArchiveFrame@libmedia@5@ABUSCMem@core@5@ABU?$TString@U?$TSCoreConst@D@su@tl@UModSys@@U?$TComparerBinaryHash@D@234@@tl@5@ABUSFlags@75@@Z$0 10036cc6 f    CIL library: CIL module
 0001:00035cd3       __ehhandler$?data_save@RBinArchiveFrameClient_ZIP@zlib@media@modules@UModSys@@UAE_NPAUIBinArchiveFrame@libmedia@5@ABUSCMem@core@5@ABU?$TString@U?$TSCoreConst@D@su@tl@UModSys@@U?$TComparerBinaryHash@D@234@@tl@5@ABUSFlags@75@@Z 10036cd3 f    CIL library: CIL module
 0001:00035cdd       __unwindfunclet$?data_load@RBinArchiveFrameClient_ZIP@zlib@media@modules@UModSys@@UAE_NPAUIBinArchiveFrame@libmedia@5@AAUSCMemShared@core@5@PAUNameNode@675@ABUSFlags@75@@Z$0 10036cdd f    CIL library: CIL module
 0001:00035ce8       __unwindfunclet$?data_load@RBinArchiveFrameClient_ZIP@zlib@media@modules@UModSys@@UAE_NPAUIBinArchiveFrame@libmedia@5@AAUSCMemShared@core@5@PAUNameNode@675@ABUSFlags@75@@Z$1 10036ce8 f    CIL library: CIL module
 0001:00035cf5       __ehhandler$?data_load@RBinArchiveFrameClient_ZIP@zlib@media@modules@UModSys@@UAE_NPAUIBinArchiveFrame@libmedia@5@AAUSCMemShared@core@5@PAUNameNode@675@ABUSFlags@75@@Z 10036cf5 f    CIL library: CIL module
 0001:00035d00       __unwindfunclet$??0RBinArchiveFrameClient_ZIP@zlib@media@modules@UModSys@@QAE@PAUIModObject@base@4@ABUSParameters@core@4@@Z$0 10036d00 f    CIL library: CIL module
 0001:00035d00       __unwindfunclet$??1RTest1_Shell@test1@test@modules@UModSys@@UAE@XZ$0 10036d00 f    CIL library: CIL module
 0001:00035d00       __unwindfunclet$??0RTest1_Shell@test1@test@modules@UModSys@@QAE@PAUIModObject@base@4@@Z$0 10036d00 f    CIL library: CIL module
 0001:00035d00       __unwindfunclet$??1RSerializeReader@serialize_json@media@modules@UModSys@@UAE@XZ$0 10036d00 f    CIL library: CIL module
 0001:00035d08       __ehhandler$??0RBinArchiveFrameClient_ZIP@zlib@media@modules@UModSys@@QAE@PAUIModObject@base@4@ABUSParameters@core@4@@Z 10036d08 f    CIL library: CIL module
 0001:00035d08       __ehhandler$??1RTest1_Shell@test1@test@modules@UModSys@@UAE@XZ 10036d08 f    CIL library: CIL module
 0001:00035d08       __ehhandler$??1RSerializeReader@serialize_json@media@modules@UModSys@@UAE@XZ 10036d08 f    CIL library: CIL module
 0001:00035d08       __ehhandler$??0RTest1_Shell@test1@test@modules@UModSys@@QAE@PAUIModObject@base@4@@Z 10036d08 f    CIL library: CIL module
 0001:00035d20       __unwindfunclet$??1IBinObjFilter@libmedia@UModSys@@UAE@XZ$1 10036d20 f    CIL library: CIL module
 0001:00035d28       __ehhandler$??1IBinObjFilter@libmedia@UModSys@@UAE@XZ 10036d28 f    CIL library: CIL module
 0001:00035d40       __unwindfunclet$??$ValidateConstruction@UIRefObject@core@UModSys@@URTerminalX@SDL_core@ui@modules@3@@core@UModSys@@YA_NAAU?$TRefObject@UIRefObject@core@UModSys@@U?$TRefObjectFunc@UIRefObject@core@UModSys@@@tl@3@@tl@1@PAURTerminalX@SDL_core@ui@modules@1@@Z$0 10036d40 f    CIL library: CIL module
 0001:00035d40       __unwindfunclet$??$ValidateConstruction@UIMultiImage@lib2d@UModSys@@URMultiImage2D_SDL_ttf@SDL_core@ui@modules@3@@core@UModSys@@YA_NAAU?$TRefObject@UIMultiImage@lib2d@UModSys@@U?$TRefObjectFunc@UIMultiImage@lib2d@UModSys@@@tl@3@@tl@1@PAURMultiImage2D_SDL_ttf@SDL_core@ui@modules@1@@Z$0 10036d40 f    CIL library: CIL module
 0001:00035d40       __unwindfunclet$??$ValidateConstruction@UIRefObject@core@UModSys@@URTerminalX@SDL_GL@ui@modules@3@@core@UModSys@@YA_NAAU?$TRefObject@UIRefObject@core@UModSys@@U?$TRefObjectFunc@UIRefObject@core@UModSys@@@tl@3@@tl@1@PAURTerminalX@SDL_GL@ui@modules@1@@Z$0 10036d40 f    CIL library: CIL module
 0001:00035d40       __unwindfunclet$??$ValidateConstruction@UIRefObject@core@UModSys@@URImageFactory_Memory@stdlib@lib2d@modules@3@@core@UModSys@@YA_NAAU?$TRefObject@UIRefObject@core@UModSys@@U?$TRefObjectFunc@UIRefObject@core@UModSys@@@tl@3@@tl@1@PAURImageFactory_Memory@stdlib@lib2d@modules@1@@Z$0 10036d40 f    CIL library: CIL module
 0001:00035d40       __unwindfunclet$??$t_create_handler@UIKeyboardController@libui@UModSys@@@ITerminal@libui@UModSys@@QAE_NAAU?$TRefObject@UIKeyboardController@libui@UModSys@@U?$TRefObjectFunc@UIKeyboardController@libui@UModSys@@@tl@3@@tl@2@PBDPBUSParameters@core@2@@Z$0 10036d40 f    CIL library: CIL module
 0001:00035d40       __unwindfunclet$??$ValidateConstruction@UIRefObject@core@UModSys@@URImage_Memory@stdlib@lib2d@modules@3@@core@UModSys@@YA_NAAU?$TRefObject@UIRefObject@core@UModSys@@U?$TRefObjectFunc@UIRefObject@core@UModSys@@@tl@3@@tl@1@PAURImage_Memory@stdlib@lib2d@modules@1@@Z$0 10036d40 f    CIL library: CIL module
 0001:00035d40       __unwindfunclet$??$ValidateConstruction@UIRefObject@core@UModSys@@URBinArchiveFrameClient_ZIP@zlib@media@modules@3@@core@UModSys@@YA_NAAU?$TRefObject@UIRefObject@core@UModSys@@U?$TRefObjectFunc@UIRefObject@core@UModSys@@@tl@3@@tl@1@PAURBinArchiveFrameClient_ZIP@zlib@media@modules@1@@Z$0 10036d40 f    CIL library: CIL module
 0001:00035d40       __unwindfunclet$??$ValidateConstruction@UIImage@lib2d@UModSys@@URImage_Memory@stdlib@2modules@3@@core@UModSys@@YA_NAAU?$TRefObject@UIImage@lib2d@UModSys@@U?$TRefObjectFunc@UIImage@lib2d@UModSys@@@tl@3@@tl@1@PAURImage_Memory@stdlib@lib2d@modules@1@@Z$0 10036d40 f    CIL library: CIL module
 0001:00035d40       __unwindfunclet$??$t_generate@UITerminal@libui@UModSys@@@SModuleContext@base@UModSys@@QAE_NAAU?$TRefObject@UITerminal@libui@UModSys@@U?$TRefObjectFunc@UITerminal@libui@UModSys@@@tl@3@@tl@2@PBUSUniquePointerInfo@core@2@ABUSParameters@62@@Z$0 10036d40 f    CIL library: CIL module
 0001:00035d40       __unwindfunclet$??$ValidateConstruction@UIRefObject@core@UModSys@@URSerializeReader@serialize_json@media@modules@3@@core@UModSys@@YA_NAAU?$TRefObject@UIRefObject@core@UModSys@@U?$TRefObjectFunc@UIRefObject@core@UModSys@@@tl@3@@tl@1@PAURSerializeReader@serialize_json@media@modules@1@@Z$0 10036d40 f    CIL library: CIL module
 0001:00035d40       __unwindfunclet$??$ValidateConstruction@UIRefObject@core@UModSys@@URMediaFilter@images_std@media@modules@3@@core@UModSys@@YA_NAAU?$TRefObject@UIRefObject@core@UModSys@@U?$TRefObjectFunc@UIRefObject@core@UModSys@@@tl@3@@tl@1@PAURMediaFilter@images_std@media@modules@1@@Z$0 10036d40 f    CIL library: CIL module
 0001:00035d40       __unwindfunclet$??$ValidateConstruction@UIRefObject@core@UModSys@@URSerializeWriter@serialize_json@media@modules@3@@core@UModSys@@YA_NAAU?$TRefObject@UIRefObject@core@UModSys@@U?$TRefObjectFunc@UIRefObject@core@UModSys@@@tl@3@@tl@1@PAURSerializeWriter@serialize_json@media@modules@1@@Z$0 10036d40 f    CIL library: CIL module
 0001:00035d40       __unwindfunclet$??$t_create_handler@UIRenderDriver@lib3d@UModSys@@@ITerminal@libui@UModSys@@QAE_NAAU?$TRefObject@UIRenderDriver@lib3d@UModSys@@U?$TRefObjectFunc@UIRenderDriver@lib3d@UModSys@@@tl@3@@tl@2@PBDPBUSParameters@core@2@@Z$0 10036d40 f    CIL library: CIL module
 0001:00035d40       __unwindfunclet$??$ValidateConstruction@UIRefObject@core@UModSys@@URMultiImage@stdlib@lib2d@modules@3@@core@UModSys@@YA_NAAU?$TRefObject@UIRefObject@core@UModSys@@U?$TRefObjectFunc@UIRefObject@core@UModSys@@@tl@3@@tl@1@PAURMultiImage@stdlib@lib2d@modules@1@@Z$0 10036d40 f    CIL library: CIL module
 0001:00035d40       __unwindfunclet$??$t_create_handler@UIMouseController@libui@UModSys@@@ITerminal@libui@UModSys@@QAE_NAAU?$TRefObject@UIMouseController@libui@UModSys@@U?$TRefObjectFunc@UIMouseController@libui@UModSys@@@tl@3@@tl@2@PBDPBUSParameters@core@2@@Z$0 10036d40 f    CIL library: CIL module
 0001:00035d40       __unwindfunclet$??$t_generate@UICollector@libui@UModSys@@@SModuleContext@base@UModSys@@QAE_NAAU?$TRefObject@UICollector@libui@UModSys@@U?$TRefObjectFunc@UICollector@libui@UModSys@@@tl@3@@tl@2@PBUSUniquePointerInfo@core@2@ABUSParameters@62@@Z$0 10036d40 f    CIL library: CIL module
 0001:00035d40       __unwindfunclet$??$ValidateConstruction@UIMultiImage@lib2d@UModSys@@URMultiImage2D_SDL_ttf@SDL_GL@ui@modules@3@@core@UModSys@@YA_NAAU?$TRefObject@UIMultiImage@lib2d@UModSys@@U?$TRefObjectFunc@UIMultiImage@lib2d@UModSys@@@tl@3@@tl@1@PAURMultiImage2D_SDL_ttf@SDL_GL@ui@modules@1@@Z$0 10036d40 f    CIL library: CIL module
 0001:00035d40       __unwindfunclet$??$ValidateConstruction@UIRefObject@core@UModSys@@URCollector@frames@ui@modules@3@@core@UModSys@@YA_NAAU?$TRefObject@UIRefObject@core@UModSys@@U?$TRefObjectFunc@UIRefObject@core@UModSys@@@tl@3@@tl@1@PAURCollector@frames@ui@modules@1@@Z$0 10036d40 f    CIL library: CIL module
 0001:00035d48       __ehhandler$??$ValidateConstruction@UIMultiImage@lib2d@UModSys@@URMultiImage2D_SDL_ttf@SDL_GL@ui@modules@3@@core@UModSys@@YA_NAAU?$TRefObject@UIMultiImage@lib2d@UModSys@@U?$TRefObjectFunc@UIMultiImage@lib2d@UModSys@@@tl@3@@tl@1@PAURMultiImage2D_SDL_ttf@SDL_GL@ui@modules@1@@Z 10036d48 f    CIL library: CIL module
 0001:00035d48       __ehhandler$??$t_generate@UICollector@libui@UModSys@@@SModuleContext@base@UModSys@@QAE_NAAU?$TRefObject@UICollector@libui@UModSys@@U?$TRefObjectFunc@UICollector@libui@UModSys@@@tl@3@@tl@2@PBUSUniquePointerInfo@core@2@ABUSParameters@62@@Z 10036d48 f    CIL library: CIL module
 0001:00035d48       __ehhandler$??$ValidateConstruction@UIImage@lib2d@UModSys@@URImage_Memory@stdlib@2modules@3@@core@UModSys@@YA_NAAU?$TRefObject@UIImage@lib2d@UModSys@@U?$TRefObjectFunc@UIImage@lib2d@UModSys@@@tl@3@@tl@1@PAURImage_Memory@stdlib@lib2d@modules@1@@Z 10036d48 f    CIL library: CIL module
 0001:00035d48       __ehhandler$??$ValidateConstruction@UIRefObject@core@UModSys@@URSerializeWriter@serialize_json@media@modules@3@@core@UModSys@@YA_NAAU?$TRefObject@UIRefObject@core@UModSys@@U?$TRefObjectFunc@UIRefObject@core@UModSys@@@tl@3@@tl@1@PAURSerializeWriter@serialize_json@media@modules@1@@Z 10036d48 f    CIL library: CIL module
 0001:00035d48       __ehhandler$??$ValidateConstruction@UIRefObject@core@UModSys@@URSerializeReader@serialize_json@media@modules@3@@core@UModSys@@YA_NAAU?$TRefObject@UIRefObject@core@UModSys@@U?$TRefObjectFunc@UIRefObject@core@UModSys@@@tl@3@@tl@1@PAURSerializeReader@serialize_json@media@modules@1@@Z 10036d48 f    CIL library: CIL module
 0001:00035d48       __ehhandler$??$t_generate@UITerminal@libui@UModSys@@@SModuleContext@base@UModSys@@QAE_NAAU?$TRefObject@UITerminal@libui@UModSys@@U?$TRefObjectFunc@UITerminal@libui@UModSys@@@tl@3@@tl@2@PBUSUniquePointerInfo@core@2@ABUSParameters@62@@Z 10036d48 f    CIL library: CIL module
 0001:00035d48       __ehhandler$??$ValidateConstruction@UIRefObject@core@UModSys@@URMultiImage@stdlib@lib2d@modules@3@@core@UModSys@@YA_NAAU?$TRefObject@UIRefObject@core@UModSys@@U?$TRefObjectFunc@UIRefObject@core@UModSys@@@tl@3@@tl@1@PAURMultiImage@stdlib@lib2d@modules@1@@Z 10036d48 f    CIL library: CIL module
 0001:00035d48       __ehhandler$??$t_create_handler@UIRenderDriver@lib3d@UModSys@@@ITerminal@libui@UModSys@@QAE_NAAU?$TRefObject@UIRenderDriver@lib3d@UModSys@@U?$TRefObjectFunc@UIRenderDriver@lib3d@UModSys@@@tl@3@@tl@2@PBDPBUSParameters@core@2@@Z 10036d48 f    CIL library: CIL module
 0001:00035d48       __ehhandler$??$ValidateConstruction@UIRefObject@core@UModSys@@URImage_Memory@stdlib@lib2d@modules@3@@core@UModSys@@YA_NAAU?$TRefObject@UIRefObject@core@UModSys@@U?$TRefObjectFunc@UIRefObject@core@UModSys@@@tl@3@@tl@1@PAURImage_Memory@stdlib@lib2d@modules@1@@Z 10036d48 f    CIL library: CIL module
 0001:00035d48       __ehhandler$??$t_create_handler@UIMouseController@libui@UModSys@@@ITerminal@libui@UModSys@@QAE_NAAU?$TRefObject@UIMouseController@libui@UModSys@@U?$TRefObjectFunc@UIMouseController@libui@UModSys@@@tl@3@@tl@2@PBDPBUSParameters@core@2@@Z 10036d48 f    CIL library: CIL module
 0001:00035d48       __ehhandler$??$ValidateConstruction@UIRefObject@core@UModSys@@URImageFactory_Memory@stdlib@lib2d@modules@3@@core@UModSys@@YA_NAAU?$TRefObject@UIRefObject@core@UModSys@@U?$TRefObjectFunc@UIRefObject@core@UModSys@@@tl@3@@tl@1@PAURImageFactory_Memory@stdlib@lib2d@modules@1@@Z 10036d48 f    CIL library: CIL module
 0001:00035d48       __ehhandler$??$t_create_handler@UIKeyboardController@libui@UModSys@@@ITerminal@libui@UModSys@@QAE_NAAU?$TRefObject@UIKeyboardController@libui@UModSys@@U?$TRefObjectFunc@UIKeyboardController@libui@UModSys@@@tl@3@@tl@2@PBDPBUSParameters@core@2@@Z 10036d48 f    CIL library: CIL module
 0001:00035d48       __ehhandler$??$ValidateConstruction@UIRefObject@core@UModSys@@URTerminalX@SDL_GL@ui@modules@3@@core@UModSys@@YA_NAAU?$TRefObject@UIRefObject@core@UModSys@@U?$TRefObjectFunc@UIRefObject@core@UModSys@@@tl@3@@tl@1@PAURTerminalX@SDL_GL@ui@modules@1@@Z 10036d48 f    CIL library: CIL module
 0001:00035d48       __ehhandler$??$ValidateConstruction@UIRefObject@core@UModSys@@URBinArchiveFrameClient_ZIP@zlib@media@modules@3@@core@UModSys@@YA_NAAU?$TRefObject@UIRefObject@core@UModSys@@U?$TRefObjectFunc@UIRefObject@core@UModSys@@@tl@3@@tl@1@PAURBinArchiveFrameClient_ZIP@zlib@media@modules@1@@Z 10036d48 f    CIL library: CIL module
 0001:00035d48       __ehhandler$??$ValidateConstruction@UIRefObject@core@UModSys@@URTerminalX@SDL_core@ui@modules@3@@core@UModSys@@YA_NAAU?$TRefObject@UIRefObject@core@UModSys@@U?$TRefObjectFunc@UIRefObject@core@UModSys@@@tl@3@@tl@1@PAURTerminalX@SDL_core@ui@modules@1@@Z 10036d48 f    CIL library: CIL module
 0001:00035d48       __ehhandler$??$ValidateConstruction@UIMultiImage@lib2d@UModSys@@URMultiImage2D_SDL_ttf@SDL_core@ui@modules@3@@core@UModSys@@YA_NAAU?$TRefObject@UIMultiImage@lib2d@UModSys@@U?$TRefObjectFunc@UIMultiImage@lib2d@UModSys@@@tl@3@@tl@1@PAURMultiImage2D_SDL_ttf@SDL_core@ui@modules@1@@Z 10036d48 f    CIL library: CIL module
 0001:00035d48       __ehhandler$??$ValidateConstruction@UIRefObject@core@UModSys@@URCollector@frames@ui@modules@3@@core@UModSys@@YA_NAAU?$TRefObject@UIRefObject@core@UModSys@@U?$TRefObjectFunc@UIRefObject@core@UModSys@@@tl@3@@tl@1@PAURCollector@frames@ui@modules@1@@Z 10036d48 f    CIL library: CIL module
 0001:00035d48       __ehhandler$??$ValidateConstruction@UIRefObject@core@UModSys@@URMediaFilter@images_std@media@modules@3@@core@UModSys@@YA_NAAU?$TRefObject@UIRefObject@core@UModSys@@U?$TRefObjectFunc@UIRefObject@core@UModSys@@@tl@3@@tl@1@PAURMediaFilter@images_std@media@modules@1@@Z 10036d48 f    CIL library: CIL module
 0001:00035d60       __unwindfunclet$??1RMediaFilter@images_std@media@modules@UModSys@@UAE@XZ$0 10036d60 f    CIL library: CIL module
 0001:00035d6a       __unwindfunclet$??1RMediaFilter@images_std@media@modules@UModSys@@UAE@XZ$1 10036d6a f    CIL library: CIL module
 0001:00035d75       __unwindfunclet$??1RMediaFilter@images_std@media@modules@UModSys@@UAE@XZ$4 10036d75 f    CIL library: CIL module
 0001:00035d7d       __ehhandler$??1RMediaFilter@images_std@media@modules@UModSys@@UAE@XZ 10036d7d f    CIL library: CIL module
 0001:00035d90       __unwindfunclet$??0STextureGL@SDL_GL@ui@modules@UModSys@@QAE@ABU01234@@Z$0 10036d90 f    CIL library: CIL module
 0001:00035d9b       __ehhandler$??0STextureGL@SDL_GL@ui@modules@UModSys@@QAE@ABU01234@@Z 10036d9b f    CIL library: CIL module
 0001:00035db0       __unwindfunclet$??0?$TScatterArrayNode@U?$TRefObjectCompositeExtra@UIMouseClient@libui@UModSys@@HUIRefObject@core@3@U?$TRefObjectFunc@UIRefObject@core@UModSys@@@tl@3@@tl@UModSys@@H@tl@UModSys@@QAE@ABH@Z$0 10036db0 f    CIL library: CIL module
 0001:00035dba       __unwindfunclet$??0?$TScatterArrayNode@U?$TRefObjectCompositeExtra@UIMouseClient@libui@UModSys@@HUIRefObject@core@3@U?$TRefObjectFunc@UIRefObject@core@UModSys@@@tl@3@@tl@UModSys@@H@tl@UModSys@@QAE@ABH@Z$1 10036dba f    CIL library: CIL module
 0001:00035dc5       __ehhandler$??0?$TScatterArrayNode@U?$TRefObjectCompositeExtra@UIMouseClient@libui@UModSys@@HUIRefObject@core@3@U?$TRefObjectFunc@UIRefObject@core@UModSys@@@tl@3@@tl@UModSys@@H@tl@UModSys@@QAE@ABH@Z 10036dc5 f    CIL library: CIL module
 0001:00035dd0       __unwindfunclet$??0?$TScatterArrayNode@U?$TRefObjectComposite@UIKeyboardClient@libui@UModSys@@UIRefObject@core@3@U?$TRefObjectFunc@UIRefObject@core@UModSys@@@tl@3@@tl@UModSys@@H@tl@UModSys@@QAE@ABH@Z$0 10036dd0 f    CIL library: CIL module
 0001:00035dda       __unwindfunclet$??0?$TScatterArrayNode@U?$TRefObjectComposite@UIKeyboardClient@libui@UModSys@@UIRefObject@core@3@U?$TRefObjectFunc@UIRefObject@core@UModSys@@@tl@3@@tl@UModSys@@H@tl@UModSys@@QAE@ABH@Z$1 10036dda f    CIL library: CIL module
 0001:00035de5       __ehhandler$??0?$TScatterArrayNode@U?$TRefObjectComposite@UIKeyboardClient@libui@UModSys@@UIRefObject@core@3@U?$TRefObjectFunc@UIRefObject@core@UModSys@@@tl@3@@tl@UModSys@@H@tl@UModSys@@QAE@ABH@Z 10036de5 f    CIL library: CIL module
 0001:00035df0       __unwindfunclet$??1Glyph@RMultiImage2D_SDL_ttf@SDL_GL@ui@modules@UModSys@@QAE@XZ$0 10036df0 f    CIL library: CIL module
 0001:00035dfa       __ehhandler$??1Glyph@RMultiImage2D_SDL_ttf@SDL_GL@ui@modules@UModSys@@QAE@XZ 10036dfa f    CIL library: CIL module
 0001:00035e10       __unwindfunclet$??$generate_type@UITerminal@libui@UModSys@@@RTest1_Shell@test1@test@modules@UModSys@@SA?AU?$TRefObject@UITerminal@libui@UModSys@@U?$TRefObjectFunc@UITerminal@libui@UModSys@@@tl@3@@tl@4@ABU?$TString@U?$TSCoreConst@D@su@tl@UModSys@@U?$TComparerBinaryHash@D@234@@64@ABUSParameters@core@4@PBD@Z$0 10036e10 f    CIL library: CIL module
 0001:00035e10       __unwindfunclet$??$generate_type@UICollector@libui@UModSys@@@RTest1_Shell@test1@test@modules@UModSys@@SA?AU?$TRefObject@UICollector@libui@UModSys@@U?$TRefObjectFunc@UICollector@libui@UModSys@@@tl@3@@tl@4@ABU?$TString@U?$TSCoreConst@D@su@tl@UModSys@@U?$TComparerBinaryHash@D@234@@64@ABUSParameters@core@4@PBD@Z$0 10036e10 f    CIL library: CIL module
 0001:00035e18       __unwindfunclet$??$generate_type@UICollector@libui@UModSys@@@RTest1_Shell@test1@test@modules@UModSys@@SA?AU?$TRefObject@UICollector@libui@UModSys@@U?$TRefObjectFunc@UICollector@libui@UModSys@@@tl@3@@tl@4@ABU?$TString@U?$TSCoreConst@D@su@tl@UModSys@@U?$TComparerBinaryHash@D@234@@64@ABUSParameters@core@4@PBD@Z$1 10036e18 f    CIL library: CIL module
 0001:00035e18       __unwindfunclet$??$generate_type@UITerminal@libui@UModSys@@@RTest1_Shell@test1@test@modules@UModSys@@SA?AU?$TRefObject@UITerminal@libui@UModSys@@U?$TRefObjectFunc@UITerminal@libui@UModSys@@@tl@3@@tl@4@ABU?$TString@U?$TSCoreConst@D@su@tl@UModSys@@U?$TComparerBinaryHash@D@234@@64@ABUSParameters@core@4@PBD@Z$1 10036e18 f    CIL library: CIL module
 0001:00035e31       __ehhandler$??$generate_type@UITerminal@libui@UModSys@@@RTest1_Shell@test1@test@modules@UModSys@@SA?AU?$TRefObject@UITerminal@libui@UModSys@@U?$TRefObjectFunc@UITerminal@libui@UModSys@@@tl@3@@tl@4@ABU?$TString@U?$TSCoreConst@D@su@tl@UModSys@@U?$TComparerBinaryHash@D@234@@64@ABUSParameters@core@4@PBD@Z 10036e31 f    CIL library: CIL module
 0001:00035e31       __ehhandler$??$generate_type@UICollector@libui@UModSys@@@RTest1_Shell@test1@test@modules@UModSys@@SA?AU?$TRefObject@UICollector@libui@UModSys@@U?$TRefObjectFunc@UICollector@libui@UModSys@@@tl@3@@tl@4@ABU?$TString@U?$TSCoreConst@D@su@tl@UModSys@@U?$TComparerBinaryHash@D@234@@64@ABUSParameters@core@4@PBD@Z 10036e31 f    CIL library: CIL module
 0001:00035e40       __unwindfunclet$??1RSerializeWriter@serialize_json@media@modules@UModSys@@UAE@XZ$0 10036e40 f    CIL library: CIL module
 0001:00035e40       __unwindfunclet$??0RSerializeWriter@serialize_json@media@modules@UModSys@@QAE@PAUIModObject@base@4@ABUSParameters@core@4@@Z$0 10036e40 f    CIL library: CIL module
 0001:00035e48       __unwindfunclet$??0RSerializeWriter@serialize_json@media@modules@UModSys@@QAE@PAUIModObject@base@4@ABUSParameters@core@4@@Z$1 10036e48 f    CIL library: CIL module
 0001:00035e48       __unwindfunclet$??1RSerializeWriter@serialize_json@media@modules@UModSys@@UAE@XZ$1 10036e48 f    CIL library: CIL module
 0001:00035e53       __unwindfunclet$??0RSerializeWriter@serialize_json@media@modules@UModSys@@QAE@PAUIModObject@base@4@ABUSParameters@core@4@@Z$2 10036e53 f    CIL library: CIL module
 0001:00035e53       __unwindfunclet$??1RSerializeWriter@serialize_json@media@modules@UModSys@@UAE@XZ$2 10036e53 f    CIL library: CIL module
 0001:00035e5e       __ehhandler$??1RSerializeWriter@serialize_json@media@modules@UModSys@@UAE@XZ 10036e5e f    CIL library: CIL module
 0001:00035e5e       __ehhandler$??0RSerializeWriter@serialize_json@media@modules@UModSys@@QAE@PAUIModObject@base@4@ABUSParameters@core@4@@Z 10036e5e f    CIL library: CIL module
 0001:00035e70       __unwindfunclet$??0RSerializeReader@serialize_json@media@modules@UModSys@@QAE@PAUIModObject@base@4@ABUSParameters@core@4@@Z$0 10036e70 f    CIL library: CIL module
 0001:00035e78       __unwindfunclet$??0RSerializeReader@serialize_json@media@modules@UModSys@@QAE@PAUIModObject@base@4@ABUSParameters@core@4@@Z$1 10036e78 f    CIL library: CIL module
 0001:00035e83       __unwindfunclet$??0RSerializeReader@serialize_json@media@modules@UModSys@@QAE@PAUIModObject@base@4@ABUSParameters@core@4@@Z$2 10036e83 f    CIL library: CIL module
 0001:00035e91       __ehhandler$??0RSerializeReader@serialize_json@media@modules@UModSys@@QAE@PAUIModObject@base@4@ABUSParameters@core@4@@Z 10036e91 f    CIL library: CIL module
 0001:00035ea0       __unwindfunclet$?reader_parse@RSerializeReader@serialize_json@media@modules@UModSys@@UAE_NPAUISerializeParser@libmedia@5@@Z$0 10036ea0 f    CIL library: CIL module
 0001:00035ea8       __ehhandler$?reader_parse@RSerializeReader@serialize_json@media@modules@UModSys@@UAE_NPAUISerializeParser@libmedia@5@@Z 10036ea8 f    CIL library: CIL module
 0001:00035ec0       __unwindfunclet$??0?$TScatterArrayNode@UGlyph@RMultiImage2D_SDL_ttf@SDL_GL@ui@modules@UModSys@@H@tl@UModSys@@QAE@ABH@Z$0 10036ec0 f    CIL library: CIL module
 0001:00035ecd       __unwindfunclet$??0?$TScatterArrayNode@UGlyph@RMultiImage2D_SDL_ttf@SDL_GL@ui@modules@UModSys@@H@tl@UModSys@@QAE@ABH@Z$1 10036ecd f    CIL library: CIL module
 0001:00035ed8       __unwindfunclet$??0?$TScatterArrayNode@UGlyph@RMultiImage2D_SDL_ttf@SDL_GL@ui@modules@UModSys@@H@tl@UModSys@@QAE@ABH@Z$5 10036ed8 f    CIL library: CIL module
 0001:00035ee5       __ehhandler$??0?$TScatterArrayNode@UGlyph@RMultiImage2D_SDL_ttf@SDL_GL@ui@modules@UModSys@@H@tl@UModSys@@QAE@ABH@Z 10036ee5 f    CIL library: CIL module
 0001:00035ef0       __unwindfunclet$??RGen0@?$TScatterArray@U?$TRefObjectComposite@UIKeyboardClient@libui@UModSys@@UIRefObject@core@3@U?$TRefObjectFunc@UIRefObject@core@UModSys@@@tl@3@@tl@UModSys@@HU?$TScalarCompare@H@core@3@U?$TNodeDeleter0@U?$TScatterArrayNode@U?$TRefObjectComposite@UIKeyboardClient@libui@UModSys@@UIRefObject@core@3@U?$TRefObjectFunc@UIRefObject@core@UModSys@@@tl@3@@tl@UModSys@@H@tl@UModSys@@@23@@tl@UModSys@@QBEPAU?$TScatterArrayNode@U?$TRefObjectComposite@UIKeyboardClient@libui@UModSys@@UIRefObject@core@3@U?$TRefObjectFunc@UIRefObject@core@UModSys@@@tl@3@@tl@UModSys@@H@23@ABUCmp@123@ABU?$TTreeHoldRBD@U?$TScatterArrayNode@U?$TRefObjectComposite@UIKeyboardClient@libui@UModSys@@UIRefObject@core@3@U?$TRefObjectFunc@UIRefObject@core@UModSys@@@tl@3@@tl@UModSys@@H@tl@UModSys@@U?$TNodeDeleter0@U?$TScatterArrayNode@U?$TRefObjectComposite@UIKeyboardClient@libui@UModSys@@UIRefObject@core@3@U?$TRefObjectFunc@UIRefObject@core@UModSys@@@tl@3@@tl@UModSys@@H@tl@UModSys@@@23@@23@@Z$0 10036ef0 f    CIL library: CIL module
 0001:00035ef0       __unwindfunclet$??RGen0@?$TScatterArray@U?$TRefObjectCompositeExtra@UIMouseClient@libui@UModSys@@HUIRefObject@core@3@U?$TRefObjectFunc@UIRefObject@core@UModSys@@@tl@3@@tl@UModSys@@HU?$TScalarCompare@H@core@3@U?$TNodeDeleter0@U?$TScatterArrayNode@U?$TRefObjectCompositeExtra@UIMouseClient@libui@UModSys@@HUIRefObject@core@3@U?$TRefObjectFunc@UIRefObject@core@UModSys@@@tl@3@@tl@UModSys@@H@tl@UModSys@@@23@@tl@UModSys@@QBEPAU?$TScatterArrayNode@U?$TRefObjectCompositeExtra@UIMouseClient@libui@UModSys@@HUIRefObject@core@3@U?$TRefObjectFunc@UIRefObject@core@UModSys@@@tl@3@@tl@UModSys@@H@23@ABUCmp@123@ABU?$TTreeHoldRBD@U?$TScatterArrayNode@U?$TRefObjectCompositeExtra@UIMouseClient@libui@UModSys@@HUIRefObject@core@3@U?$TRefObjectFunc@UIRefObject@core@UModSys@@@tl@3@@tl@UModSys@@H@tl@UModSys@@U?$TNodeDeleter0@U?$TScatterArrayNode@U?$TRefObjectCompositeExtra@UIMouseClient@libui@UModSys@@HUIRefObject@core@3@U?$TRefObjectFunc@UIRefObject@core@UModSys@@@tl@3@@tl@UModSys@@H@tl@UModSys@@@23@@23@@Z$0 10036ef0 f    CIL library: CIL module
 0001:00035ef0       __unwindfunclet$??RGen0@?$TScatterArray@UGlyph@RMultiImage2D_SDL_ttf@SDL_GL@ui@modules@UModSys@@HU?$TScalarCompare@H@core@6@U?$TNodeDeleter0@U?$TScatterArrayNode@UGlyph@RMultiImage2D_SDL_ttf@SDL_GL@ui@modules@UModSys@@H@tl@UModSys@@@tl@6@@tl@UModSys@@QBEPAU?$TScatterArrayNode@UGlyph@RMultiImage2D_SDL_ttf@SDL_GL@ui@modules@UModSys@@H@23@ABUCmp@123@ABU?$TTreeHoldRBD@U?$TScatterArrayNode@UGlyph@RMultiImage2D_SDL_ttf@SDL_GL@ui@modules@UModSys@@H@tl@UModSys@@U?$TNodeDeleter0@U?$TScatterArrayNode@UGlyph@RMultiImage2D_SDL_ttf@SDL_GL@ui@modules@UModSys@@H@tl@UModSys@@@23@@23@@Z$0 10036ef0 f    CIL library: CIL module
 0001:00035ef5       __ehhandler$??RGen0@?$TScatterArray@UGlyph@RMultiImage2D_SDL_ttf@SDL_GL@ui@modules@UModSys@@HU?$TScalarCompare@H@core@6@U?$TNodeDeleter0@U?$TScatterArrayNode@UGlyph@RMultiImage2D_SDL_ttf@SDL_GL@ui@modules@UModSys@@H@tl@UModSys@@@tl@6@@tl@UModSys@@QBEPAU?$TScatterArrayNode@UGlyph@RMultiImage2D_SDL_ttf@SDL_GL@ui@modules@UModSys@@H@23@ABUCmp@123@ABU?$TTreeHoldRBD@U?$TScatterArrayNode@UGlyph@RMultiImage2D_SDL_ttf@SDL_GL@ui@modules@UModSys@@H@tl@UModSys@@U?$TNodeDeleter0@U?$TScatterArrayNode@UGlyph@RMultiImage2D_SDL_ttf@SDL_GL@ui@modules@UModSys@@H@tl@UModSys@@@23@@23@@Z 10036ef5 f    CIL library: CIL module
 0001:00035ef5       __ehhandler$??RGen0@?$TScatterArray@U?$TRefObjectCompositeExtra@UIMouseClient@libui@UModSys@@HUIRefObject@core@3@U?$TRefObjectFunc@UIRefObject@core@UModSys@@@tl@3@@tl@UModSys@@HU?$TScalarCompare@H@core@3@U?$TNodeDeleter0@U?$TScatterArrayNode@U?$TRefObjectCompositeExtra@UIMouseClient@libui@UModSys@@HUIRefObject@core@3@U?$TRefObjectFunc@UIRefObject@core@UModSys@@@tl@3@@tl@UModSys@@H@tl@UModSys@@@23@@tl@UModSys@@QBEPAU?$TScatterArrayNode@U?$TRefObjectCompositeExtra@UIMouseClient@libui@UModSys@@HUIRefObject@core@3@U?$TRefObjectFunc@UIRefObject@core@UModSys@@@tl@3@@tl@UModSys@@H@23@ABUCmp@123@ABU?$TTreeHoldRBD@U?$TScatterArrayNode@U?$TRefObjectCompositeExtra@UIMouseClient@libui@UModSys@@HUIRefObject@core@3@U?$TRefObjectFunc@UIRefObject@core@UModSys@@@tl@3@@tl@UModSys@@H@tl@UModSys@@U?$TNodeDeleter0@U?$TScatterArrayNode@U?$TRefObjectCompositeExtra@UIMouseClient@libui@UModSys@@HUIRefObject@core@3@U?$TRefObjectFunc@UIRefObject@core@UModSys@@@tl@3@@tl@UModSys@@H@tl@UModSys@@@23@@23@@Z 10036ef5 f    CIL library: CIL module
 0001:00035ef5       __ehhandler$??RGen0@?$TScatterArray@U?$TRefObjectComposite@UIKeyboardClient@libui@UModSys@@UIRefObject@core@3@U?$TRefObjectFunc@UIRefObject@core@UModSys@@@tl@3@@tl@UModSys@@HU?$TScalarCompare@H@core@3@U?$TNodeDeleter0@U?$TScatterArrayNode@U?$TRefObjectComposite@UIKeyboardClient@libui@UModSys@@UIRefObject@core@3@U?$TRefObjectFunc@UIRefObject@core@UModSys@@@tl@3@@tl@UModSys@@H@tl@UModSys@@@23@@tl@UModSys@@QBEPAU?$TScatterArrayNode@U?$TRefObjectComposite@UIKeyboardClient@libui@UModSys@@UIRefObject@core@3@U?$TRefObjectFunc@UIRefObject@core@UModSys@@@tl@3@@tl@UModSys@@H@23@ABUCmp@123@ABU?$TTreeHoldRBD@U?$TScatterArrayNode@U?$TRefObjectComposite@UIKeyboardClient@libui@UModSys@@UIRefObject@core@3@U?$TRefObjectFunc@UIRefObject@core@UModSys@@@tl@3@@tl@UModSys@@H@tl@UModSys@@U?$TNodeDeleter0@U?$TScatterArrayNode@U?$TRefObjectComposite@UIKeyboardClient@libui@UModSys@@UIRefObject@core@3@U?$TRefObjectFunc@UIRefObject@core@UModSys@@@tl@3@@tl@UModSys@@H@tl@UModSys@@@23@@23@@Z 10036ef5 f    CIL library: CIL module
 0001:00035f00       __unwindfunclet$??$t_gen_param@URBinArchiveFrameClient_ZIP@zlib@media@modules@UModSys@@URGenerator@2345@@IGenerator@base@UModSys@@IAE_NPAURGenerator@zlib@media@modules@2@AAU?$TRefObject@UIRefObject@core@UModSys@@U?$TRefObjectFunc@UIRefObject@core@UModSys@@@tl@3@@tl@2@PBUSUniquePointerInfo@core@2@ABUSParameters@core@2@@Z$0 10036f00 f    CIL library: CIL module
 0001:00035f00       __unwindfunclet$??$t_gen_param@URTerminalX@SDL_GL@ui@modules@UModSys@@URGenerator@2345@@IGenerator@base@UModSys@@IAE_NPAURGenerator@SDL_GL@ui@modules@2@AAU?$TRefObject@UIRefObject@core@UModSys@@U?$TRefObjectFunc@UIRefObject@core@UModSys@@@tl@3@@tl@2@PBUSUniquePointerInfo@core@2@ABUSParameters@core@2@@Z$0 10036f00 f    CIL library: CIL module
 0001:00035f00       __unwindfunclet$??$t_gen_param@URImage_Memory@stdlib@lib2d@modules@UModSys@@URGenerator@2345@@IGenerator@base@UModSys@@IAE_NPAURGenerator@stdlib@lib2d@modules@2@AAU?$TRefObject@UIRefObject@core@UModSys@@U?$TRefObjectFunc@UIRefObject@core@UModSys@@@tl@3@@tl@2@PBUSUniquePointerInfo@core@2@ABUSParameters@core@2@@Z$0 10036f00 f    CIL library: CIL module
 0001:00035f00       __unwindfunclet$??$t_gen_param@URMediaFilter@images_std@media@modules@UModSys@@URGenerator@2345@@IGenerator@base@UModSys@@IAE_NPAURGenerator@images_std@media@modules@2@AAU?$TRefObject@UIRefObject@core@UModSys@@U?$TRefObjectFunc@UIRefObject@core@UModSys@@@tl@3@@tl@2@PBUSUniquePointerInfo@core@2@ABUSParameters@core@2@@Z$0 10036f00 f    CIL library: CIL module
 0001:00035f00       __unwindfunclet$??$t_gen_param@URCollector@frames@ui@modules@UModSys@@URGenerator@2345@@IGenerator@base@UModSys@@IAE_NPAURGenerator@frames@ui@modules@2@AAU?$TRefObject@UIRefObject@core@UModSys@@U?$TRefObjectFunc@UIRefObject@core@UModSys@@@tl@3@@tl@2@PBUSUniquePointerInfo@core@2@ABUSParameters@core@2@@Z$0 10036f00 f    CIL library: CIL module
 0001:00035f00       __unwindfunclet$??$t_gen_param@URMultiImage@stdlib@lib2d@modules@UModSys@@URGenerator@2345@@IGenerator@base@UModSys@@IAE_NPAURGenerator@stdlib@lib2d@modules@2@AAU?$TRefObject@UIRefObject@core@UModSys@@U?$TRefObjectFunc@UIRefObject@core@UModSys@@@tl@3@@tl@2@PBUSUniquePointerInfo@core@2@ABUSParameters@core@2@@Z$0 10036f00 f    CIL library: CIL module
 0001:00035f00       __unwindfunclet$??$t_gen_param@URTerminalX@SDL_core@ui@modules@UModSys@@URGenerator@2345@@IGenerator@base@UModSys@@IAE_NPAURGenerator@SDL_core@ui@modules@2@AAU?$TRefObject@UIRefObject@core@UModSys@@U?$TRefObjectFunc@UIRefObject@core@UModSys@@@tl@3@@tl@2@PBUSUniquePointerInfo@core@2@ABUSParameters@core@2@@Z$0 10036f00 f    CIL library: CIL module
 0001:00035f00       __unwindfunclet$??$t_gen_param@URImageFactory_Memory@stdlib@lib2d@modules@UModSys@@URGenerator@2345@@IGenerator@base@UModSys@@IAE_NPAURGenerator@stdlib@lib2d@modules@2@AAU?$TRefObject@UIRefObject@core@UModSys@@U?$TRefObjectFunc@UIRefObject@core@UModSys@@@tl@3@@tl@2@PBUSUniquePointerInfo@core@2@ABUSParameters@core@2@@Z$0 10036f00 f    CIL library: CIL module
 0001:00035f00       __unwindfunclet$??$t_gen_param@URSerializeReader@serialize_json@media@modules@UModSys@@URGenerator@2345@@IGenerator@base@UModSys@@IAE_NPAURGenerator@serialize_json@media@modules@2@AAU?$TRefObject@UIRefObject@core@UModSys@@U?$TRefObjectFunc@UIRefObject@core@UModSys@@@tl@3@@tl@2@PBUSUniquePointerInfo@core@2@ABUSParameters@core@2@@Z$0 10036f00 f    CIL library: CIL module
 0001:00035f00       __unwindfunclet$??$t_gen_param@URSerializeWriter@serialize_json@media@modules@UModSys@@URGenerator@2345@@IGenerator@base@UModSys@@IAE_NPAURGenerator@serialize_json@media@modules@2@AAU?$TRefObject@UIRefObject@core@UModSys@@U?$TRefObjectFunc@UIRefObject@core@UModSys@@@tl@3@@tl@2@PBUSUniquePointerInfo@core@2@ABUSParameters@core@2@@Z$0 10036f00 f    CIL library: CIL module
 0001:00035f0e       __ehhandler$??$t_gen_param@URSerializeWriter@serialize_json@media@modules@UModSys@@URGenerator@2345@@IGenerator@base@UModSys@@IAE_NPAURGenerator@serialize_json@media@modules@2@AAU?$TRefObject@UIRefObject@core@UModSys@@U?$TRefObjectFunc@UIRefObject@core@UModSys@@@tl@3@@tl@2@PBUSUniquePointerInfo@core@2@ABUSParameters@core@2@@Z 10036f0e f    CIL library: CIL module
 0001:00035f0e       __ehhandler$??$t_gen_param@URTerminalX@SDL_core@ui@modules@UModSys@@URGenerator@2345@@IGenerator@base@UModSys@@IAE_NPAURGenerator@SDL_core@ui@modules@2@AAU?$TRefObject@UIRefObject@core@UModSys@@U?$TRefObjectFunc@UIRefObject@core@UModSys@@@tl@3@@tl@2@PBUSUniquePointerInfo@core@2@ABUSParameters@core@2@@Z 10036f0e f    CIL library: CIL module
 0001:00035f0e       __ehhandler$??$t_gen_param@URSerializeReader@serialize_json@media@modules@UModSys@@URGenerator@2345@@IGenerator@base@UModSys@@IAE_NPAURGenerator@serialize_json@media@modules@2@AAU?$TRefObject@UIRefObject@core@UModSys@@U?$TRefObjectFunc@UIRefObject@core@UModSys@@@tl@3@@tl@2@PBUSUniquePointerInfo@core@2@ABUSParameters@core@2@@Z 10036f0e f    CIL library: CIL module
 0001:00035f0e       __ehhandler$??$t_gen_param@URImage_Memory@stdlib@lib2d@modules@UModSys@@URGenerator@2345@@IGenerator@base@UModSys@@IAE_NPAURGenerator@stdlib@lib2d@modules@2@AAU?$TRefObject@UIRefObject@core@UModSys@@U?$TRefObjectFunc@UIRefObject@core@UModSys@@@tl@3@@tl@2@PBUSUniquePointerInfo@core@2@ABUSParameters@core@2@@Z 10036f0e f    CIL library: CIL module
 0001:00035f0e       __ehhandler$??$t_gen_param@URMultiImage@stdlib@lib2d@modules@UModSys@@URGenerator@2345@@IGenerator@base@UModSys@@IAE_NPAURGenerator@stdlib@lib2d@modules@2@AAU?$TRefObject@UIRefObject@core@UModSys@@U?$TRefObjectFunc@UIRefObject@core@UModSys@@@tl@3@@tl@2@PBUSUniquePointerInfo@core@2@ABUSParameters@core@2@@Z 10036f0e f    CIL library: CIL module
 0001:00035f0e       __ehhandler$??$t_gen_param@URImageFactory_Memory@stdlib@lib2d@modules@UModSys@@URGenerator@2345@@IGenerator@base@UModSys@@IAE_NPAURGenerator@stdlib@lib2d@modules@2@AAU?$TRefObject@UIRefObject@core@UModSys@@U?$TRefObjectFunc@UIRefObject@core@UModSys@@@tl@3@@tl@2@PBUSUniquePointerInfo@core@2@ABUSParameters@core@2@@Z 10036f0e f    CIL library: CIL module
 0001:00035f0e       __ehhandler$??$t_gen_param@URBinArchiveFrameClient_ZIP@zlib@media@modules@UModSys@@URGenerator@2345@@IGenerator@base@UModSys@@IAE_NPAURGenerator@zlib@media@modules@2@AAU?$TRefObject@UIRefObject@core@UModSys@@U?$TRefObjectFunc@UIRefObject@core@UModSys@@@tl@3@@tl@2@PBUSUniquePointerInfo@core@2@ABUSParameters@core@2@@Z 10036f0e f    CIL library: CIL module
 0001:00035f0e       __ehhandler$??$t_gen_param@URTerminalX@SDL_GL@ui@modules@UModSys@@URGenerator@2345@@IGenerator@base@UModSys@@IAE_NPAURGenerator@SDL_GL@ui@modules@2@AAU?$TRefObject@UIRefObject@core@UModSys@@U?$TRefObjectFunc@UIRefObject@core@UModSys@@@tl@3@@tl@2@PBUSUniquePointerInfo@core@2@ABUSParameters@core@2@@Z 10036f0e f    CIL library: CIL module
 0001:00035f0e       __ehhandler$??$t_gen_param@URCollector@frames@ui@modules@UModSys@@URGenerator@2345@@IGenerator@base@UModSys@@IAE_NPAURGenerator@frames@ui@modules@2@AAU?$TRefObject@UIRefObject@core@UModSys@@U?$TRefObjectFunc@UIRefObject@core@UModSys@@@tl@3@@tl@2@PBUSUniquePointerInfo@core@2@ABUSParameters@core@2@@Z 10036f0e f    CIL library: CIL module
 0001:00035f0e       __ehhandler$??$t_gen_param@URMediaFilter@images_std@media@modules@UModSys@@URGenerator@2345@@IGenerator@base@UModSys@@IAE_NPAURGenerator@images_std@media@modules@2@AAU?$TRefObject@UIRefObject@core@UModSys@@U?$TRefObjectFunc@UIRefObject@core@UModSys@@@tl@3@@tl@2@PBUSUniquePointerInfo@core@2@ABUSParameters@core@2@@Z 10036f0e f    CIL library: CIL module
 0001:00035f20       __unwindfunclet$??0RMediaFilter@images_std@media@modules@UModSys@@QAE@PAUIModObject@base@4@ABUSParameters@core@4@@Z$0 10036f20 f    CIL library: CIL module
 0001:00035f2a       __unwindfunclet$??0RMediaFilter@images_std@media@modules@UModSys@@QAE@PAUIModObject@base@4@ABUSParameters@core@4@@Z$1 10036f2a f    CIL library: CIL module
 0001:00035f35       __ehhandler$??0RMediaFilter@images_std@media@modules@UModSys@@QAE@PAUIModObject@base@4@ABUSParameters@core@4@@Z 10036f35 f    CIL library: CIL module
 0001:00035f40       __unwindfunclet$??1?$TPair@HUGlyph@RMultiImage2D_SDL_ttf@SDL_GL@ui@modules@UModSys@@@tl@UModSys@@QAE@XZ$1 10036f40 f    CIL library: CIL module
 0001:00035f40       __unwindfunclet$??_G?$TScatterArrayNode@UGlyph@RMultiImage2D_SDL_ttf@SDL_GL@ui@modules@UModSys@@H@tl@UModSys@@QAEPAXI@Z$2 10036f40 f    CIL library: CIL module
 0001:00035f4a       __ehhandler$??_G?$TScatterArrayNode@UGlyph@RMultiImage2D_SDL_ttf@SDL_GL@ui@modules@UModSys@@H@tl@UModSys@@QAEPAXI@Z 10036f4a f    CIL library: CIL module
 0001:00035f4a       __ehhandler$??1?$TPair@HUGlyph@RMultiImage2D_SDL_ttf@SDL_GL@ui@modules@UModSys@@@tl@UModSys@@QAE@XZ 10036f4a f    CIL library: CIL module
 0001:00035f60       __unwindfunclet$?generate@RGenerator@test1@test@modules@UModSys@@UAE_NAAU?$TRefObject@UIRefObject@core@UModSys@@U?$TRefObjectFunc@UIRefObject@core@UModSys@@@tl@3@@tl@5@PBUSUniquePointerInfo@core@5@ABUSParameters@95@@Z$0 10036f60 f    CIL library: CIL module
 0001:00035f6e       __ehhandler$?generate@RGenerator@test1@test@modules@UModSys@@UAE_NAAU?$TRefObject@UIRefObject@core@UModSys@@U?$TRefObjectFunc@UIRefObject@core@UModSys@@@tl@3@@tl@5@PBUSUniquePointerInfo@core@5@ABUSParameters@95@@Z 10036f6e f    CIL library: CIL module
 0001:00035f80       ??__Es_dbg@test1@test@modules@UModSys@@YAXXZ 10036f80 f    CIL library: CIL module
 0001:00035fa0       ??__E?s_modreg@RModuleReg@test1@test@modules@UModSys@@2U12345@A@@YAXXZ 10036fa0 f    CIL library: CIL module
 0001:00035ff0       ??__E?s_modreg_chain@RModuleReg@test1@test@modules@UModSys@@2USModuleRegChain@base@5@A@@YAXXZ 10036ff0 f    CIL library: CIL module
 0001:00036010       ??__E?s_uid@RGenerator@test1@test@modules@UModSys@@2USUniquePointer@core@5@A@@YAXXZ 10037010 f    CIL library: CIL module
 0001:00036040       ??__E?s_id@?$TObjectUniqueID@UIRoot@core@UModSys@@@tl@UModSys@@2USUniquePointer@core@3@A@@YAXXZ 10037040 f    CIL library: CIL module
 0001:00036070       ??__E?s_id@?$TObjectUniqueID@UIRefObject@core@UModSys@@@tl@UModSys@@2USUniquePointer@core@3@A@@YAXXZ 10037070 f    CIL library: CIL module
 0001:000360a0       ??__E?s_id@?$TObjectUniqueID@UIParameters@core@UModSys@@@tl@UModSys@@2USUniquePointer@core@3@A@@YAXXZ 100370a0 f    CIL library: CIL module
 0001:000360d0       ??__E?s_id@?$TObjectUniqueID@UIConsole@base@UModSys@@@tl@UModSys@@2USUniquePointer@core@3@A@@YAXXZ 100370d0 f    CIL library: CIL module
 0001:00036100       ??__E?s_id@?$TObjectUniqueID@UIModule@base@UModSys@@@tl@UModSys@@2USUniquePointer@core@3@A@@YAXXZ 10037100 f    CIL library: CIL module
 0001:00036130       ??__E?s_id@?$TObjectUniqueID@UIModuleLibrary@base@UModSys@@@tl@UModSys@@2USUniquePointer@core@3@A@@YAXXZ 10037130 f    CIL library: CIL module
 0001:00036160       ??__E?s_id@?$TObjectUniqueID@UIModObject@base@UModSys@@@tl@UModSys@@2USUniquePointer@core@3@A@@YAXXZ 10037160 f    CIL library: CIL module
 0001:00036190       ??__E?s_id@?$TObjectUniqueID@UIGenerator@base@UModSys@@@tl@UModSys@@2USUniquePointer@core@3@A@@YAXXZ 10037190 f    CIL library: CIL module
 0001:000361c0       ??__E?s_id@?$TObjectUniqueID@UIShell@base@UModSys@@@tl@UModSys@@2USUniquePointer@core@3@A@@YAXXZ 100371c0 f    CIL library: CIL module
 0001:000361f0       ??__E?s_id@?$TObjectUniqueID@UISystem@base@UModSys@@@tl@UModSys@@2USUniquePointer@core@3@A@@YAXXZ 100371f0 f    CIL library: CIL module
 0001:00036220       ??__E?s_id@?$TObjectUniqueID@UIStreamReader@libmedia@UModSys@@@tl@UModSys@@2USUniquePointer@core@3@A@@YAXXZ 10037220 f    CIL library: CIL module
 0001:00036250       ??__E?s_id@?$TObjectUniqueID@UIStreamWriter@libmedia@UModSys@@@tl@UModSys@@2USUniquePointer@core@3@A@@YAXXZ 10037250 f    CIL library: CIL module
 0001:00036280       ??__E?s_id@?$TObjectUniqueID@UIUtilities@libmedia@UModSys@@@tl@UModSys@@2USUniquePointer@core@3@A@@YAXXZ 10037280 f    CIL library: CIL module
 0001:000362b0       ??__E?s_id@?$TObjectUniqueID@UILibObject@libmedia@UModSys@@@tl@UModSys@@2USUniquePointer@core@3@A@@YAXXZ 100372b0 f    CIL library: CIL module
 0001:000362e0       ??__E?s_id@?$TObjectUniqueID@UIBinArchive@libmedia@UModSys@@@tl@UModSys@@2USUniquePointer@core@3@A@@YAXXZ 100372e0 f    CIL library: CIL module
 0001:00036310       ??__E?s_id@?$TObjectUniqueID@UIBinObjFilter@libmedia@UModSys@@@tl@UModSys@@2USUniquePointer@core@3@A@@YAXXZ 10037310 f    CIL library: CIL module
 0001:00036340       ??__E?s_id@?$TObjectUniqueID@UILibrary@libmedia@UModSys@@@tl@UModSys@@2USUniquePointer@core@3@A@@YAXXZ 10037340 f    CIL library: CIL module
 0001:00036370       ??__E?s_id@?$TObjectUniqueID@UILibraryBinTree@libmedia@UModSys@@@tl@UModSys@@2USUniquePointer@core@3@A@@YAXXZ 10037370 f    CIL library: CIL module
 0001:000363a0       ??__E?s_id@?$TObjectUniqueID@UILibraryBinCache@libmedia@UModSys@@@tl@UModSys@@2USUniquePointer@core@3@A@@YAXXZ 100373a0 f    CIL library: CIL module
 0001:000363d0       ??__E?s_id@?$TObjectUniqueID@UILibraryObjFilter@libmedia@UModSys@@@tl@UModSys@@2USUniquePointer@core@3@A@@YAXXZ 100373d0 f    CIL library: CIL module
 0001:00036400       ??__E?s_id@?$TObjectUniqueID@UILibraryObjCache@libmedia@UModSys@@@tl@UModSys@@2USUniquePointer@core@3@A@@YAXXZ 10037400 f    CIL library: CIL module
 0001:00036430       ??__E?s_id@?$TObjectUniqueID@UILibraryLayered@libmedia@UModSys@@@tl@UModSys@@2USUniquePointer@core@3@A@@YAXXZ 10037430 f    CIL library: CIL module
 0001:00036460       ??__E?s_id@?$TObjectUniqueID@UIBinArchiveFrame@libmedia@UModSys@@@tl@UModSys@@2USUniquePointer@core@3@A@@YAXXZ 10037460 f    CIL library: CIL module
 0001:00036490       ??__E?s_id@?$TObjectUniqueID@UIClient@IBinArchiveFrame@libmedia@UModSys@@@tl@UModSys@@2USUniquePointer@core@3@A@@YAXXZ 10037490 f    CIL library: CIL module
 0001:000364c0       ??__E?s_id@?$TObjectUniqueID@UISerializeReader@libmedia@UModSys@@@tl@UModSys@@2USUniquePointer@core@3@A@@YAXXZ 100374c0 f    CIL library: CIL module
 0001:000364f0       ??__E?s_id@?$TObjectUniqueID@UISerializeWriter@libmedia@UModSys@@@tl@UModSys@@2USUniquePointer@core@3@A@@YAXXZ 100374f0 f    CIL library: CIL module
 0001:00036520       ??__E?s_id@?$TObjectUniqueID@UIConsoleExt@base@UModSys@@@tl@UModSys@@2USUniquePointer@core@3@A@@YAXXZ 10037520 f    CIL library: CIL module
 0001:00036550       ??__E?s_id@?$TObjectUniqueID@UIConsoleHelper@base@UModSys@@@tl@UModSys@@2USUniquePointer@core@3@A@@YAXXZ 10037550 f    CIL library: CIL module
 0001:00036580       ??__E?s_id@?$TObjectUniqueID@UIConsoleHelperHistory@base@UModSys@@@tl@UModSys@@2USUniquePointer@core@3@A@@YAXXZ 10037580 f    CIL library: CIL module
 0001:000365b0       ??__E?s_id@?$TObjectUniqueID@UIConsoleHelperInput@base@UModSys@@@tl@UModSys@@2USUniquePointer@core@3@A@@YAXXZ 100375b0 f    CIL library: CIL module
 0001:000365e0       ??__E?s_id@?$TObjectUniqueID@UIConsoleHelperOutput@base@UModSys@@@tl@UModSys@@2USUniquePointer@core@3@A@@YAXXZ 100375e0 f    CIL library: CIL module
 0001:00036610       ??__E?s_id@?$TObjectUniqueID@UIConsoleHelperOutputFCS@base@UModSys@@@tl@UModSys@@2USUniquePointer@core@3@A@@YAXXZ 10037610 f    CIL library: CIL module
 0001:00036640       ??__E?s_id@?$TObjectUniqueID@UIKeyboardController@libui@UModSys@@@tl@UModSys@@2USUniquePointer@core@3@A@@YAXXZ 10037640 f    CIL library: CIL module
 0001:00036670       ??__E?s_id@?$TObjectUniqueID@UIMouseController@libui@UModSys@@@tl@UModSys@@2USUniquePointer@core@3@A@@YAXXZ 10037670 f    CIL library: CIL module
 0001:000366a0       ??__E?s_id@?$TObjectUniqueID@UIJoystickController@libui@UModSys@@@tl@UModSys@@2USUniquePointer@core@3@A@@YAXXZ 100376a0 f    CIL library: CIL module
 0001:000366d0       ??__E?s_id@?$TObjectUniqueID@UITerminal@libui@UModSys@@@tl@UModSys@@2USUniquePointer@core@3@A@@YAXXZ 100376d0 f    CIL library: CIL module
 0001:00036700       ??__E?s_id@?$TObjectUniqueID@UIConsoleHelperInput_UIKey@libui@UModSys@@@tl@UModSys@@2USUniquePointer@core@3@A@@YAXXZ 10037700 f    CIL library: CIL module
 0001:00036730       ??__E?s_id@?$TObjectUniqueID@UICollector@libui@UModSys@@@tl@UModSys@@2USUniquePointer@core@3@A@@YAXXZ 10037730 f    CIL library: CIL module
 0001:00036760       ??__E?s_id@?$TObjectUniqueID@UIAsyncController@libui@UModSys@@@tl@UModSys@@2USUniquePointer@core@3@A@@YAXXZ 10037760 f    CIL library: CIL module
 0001:00036790       ??__E?s_id@?$TObjectUniqueID@UIAsyncCollector@libui@UModSys@@@tl@UModSys@@2USUniquePointer@core@3@A@@YAXXZ 10037790 f    CIL library: CIL module
 0001:000367c0       ??__E?s_id@?$TObjectUniqueID@UIFrame@libui@UModSys@@@tl@UModSys@@2USUniquePointer@core@3@A@@YAXXZ 100377c0 f    CIL library: CIL module
 0001:000367f0       ??__E?s_id@?$TObjectUniqueID@UIDialog@libui@UModSys@@@tl@UModSys@@2USUniquePointer@core@3@A@@YAXXZ 100377f0 f    CIL library: CIL module
 0001:00036820       ??__E?s_id@?$TObjectUniqueID@UIImage@lib2d@UModSys@@@tl@UModSys@@2USUniquePointer@core@3@A@@YAXXZ 10037820 f    CIL library: CIL module
 0001:00036850       ??__E?s_id@?$TObjectUniqueID@UIImageFactory@lib2d@UModSys@@@tl@UModSys@@2USUniquePointer@core@3@A@@YAXXZ 10037850 f    CIL library: CIL module
 0001:00036880       ??__E?s_id@?$TObjectUniqueID@UIMultiImage@lib2d@UModSys@@@tl@UModSys@@2USUniquePointer@core@3@A@@YAXXZ 10037880 f    CIL library: CIL module
 0001:000368b0       ??__E?s_id@?$TObjectUniqueID@UIRenderDriver@lib2d@UModSys@@@tl@UModSys@@2USUniquePointer@core@3@A@@YAXXZ 100378b0 f    CIL library: CIL module
 0001:000368e0       ??__E?s_id@?$TObjectUniqueID@UIObject@lib3d@UModSys@@@tl@UModSys@@2USUniquePointer@core@3@A@@YAXXZ 100378e0 f    CIL library: CIL module
 0001:00036910       ??__E?s_id@?$TObjectUniqueID@UIRenderObject@lib3d@UModSys@@@tl@UModSys@@2USUniquePointer@core@3@A@@YAXXZ 10037910 f    CIL library: CIL module
 0001:00036940       ??__E?s_id@?$TObjectUniqueID@UINodeObject@lib3d@UModSys@@@tl@UModSys@@2USUniquePointer@core@3@A@@YAXXZ 10037940 f    CIL library: CIL module
 0001:00036970       ??__E?s_id@?$TObjectUniqueID@UISharedLibrary@lib3d@UModSys@@@tl@UModSys@@2USUniquePointer@core@3@A@@YAXXZ 10037970 f    CIL library: CIL module
 0001:000369a0       ??__E?s_id@?$TObjectUniqueID@UIRenderer@lib3d@UModSys@@@tl@UModSys@@2USUniquePointer@core@3@A@@YAXXZ 100379a0 f    CIL library: CIL module
 0001:000369d0       ??__E?s_id@?$TObjectUniqueID@UITexture@lib3d@UModSys@@@tl@UModSys@@2USUniquePointer@core@3@A@@YAXXZ 100379d0 f    CIL library: CIL module
 0001:00036a00       ??__E?s_id@?$TObjectUniqueID@UITextureCells@lib3d@UModSys@@@tl@UModSys@@2USUniquePointer@core@3@A@@YAXXZ 10037a00 f    CIL library: CIL module
 0001:00036a30       ??__E?s_id@?$TObjectUniqueID@UIVertexArray@lib3d@UModSys@@@tl@UModSys@@2USUniquePointer@core@3@A@@YAXXZ 10037a30 f    CIL library: CIL module
 0001:00036a60       ??__E?s_id@?$TObjectUniqueID@UIRenderDriver@lib3d@UModSys@@@tl@UModSys@@2USUniquePointer@core@3@A@@YAXXZ 10037a60 f    CIL library: CIL module
 0001:00036a90       ??__E?s_id@?$TObjectUniqueID@UILines@test1@test@modules@UModSys@@@tl@UModSys@@2USUniquePointer@core@3@A@@YAXXZ 10037a90 f    CIL library: CIL module
 0001:00036ac0       ??__E?s_id@?$TObjectUniqueID@URLines@test1@test@modules@UModSys@@@tl@UModSys@@2USUniquePointer@core@3@A@@YAXXZ 10037ac0 f    CIL library: CIL module
 0001:00036af0       ??__E?s_id@?$TObjectUniqueID@URLines_Filter@test1@test@modules@UModSys@@@tl@UModSys@@2USUniquePointer@core@3@A@@YAXXZ 10037af0 f    CIL library: CIL module
 0001:00036b20       ??__E?s_id@?$TObjectUniqueID@URTest1_Shell@test1@test@modules@UModSys@@@tl@UModSys@@2USUniquePointer@core@3@A@@YAXXZ 10037b20 f    CIL library: CIL module
 0001:00036b50       ??__E?s_id@?$TObjectUniqueID@URGenerator@test1@test@modules@UModSys@@@tl@UModSys@@2USUniquePointer@core@3@A@@YAXXZ 10037b50 f    CIL library: CIL module
 0001:00036b80       ??__E?s_id@?$TObjectUniqueID@UINodeObject_Brush@lib3d@UModSys@@@tl@UModSys@@2USUniquePointer@core@3@A@@YAXXZ 10037b80 f    CIL library: CIL module
 0001:00036bb0       ??__E?s_id@?$TObjectUniqueID@UINodeObject_Mesh@lib3d@UModSys@@@tl@UModSys@@2USUniquePointer@core@3@A@@YAXXZ 10037bb0 f    CIL library: CIL module
 0001:00036be0       ??__E?s_id@?$TObjectUniqueID@UINodeObject_Picture@lib3d@UModSys@@@tl@UModSys@@2USUniquePointer@core@3@A@@YAXXZ 10037be0 f    CIL library: CIL module
 0001:00036c10       ??__E?s_id@?$TObjectUniqueID@UINodeObject_Particles@lib3d@UModSys@@@tl@UModSys@@2USUniquePointer@core@3@A@@YAXXZ 10037c10 f    CIL library: CIL module
 0001:00036c40       ??__E?s_id@?$TObjectUniqueID@UINodeObject_Camera@lib3d@UModSys@@@tl@UModSys@@2USUniquePointer@core@3@A@@YAXXZ 10037c40 f    CIL library: CIL module
 0001:00036c70       ??__E?s_id@?$TObjectUniqueID@UINodeObject_Light@lib3d@UModSys@@@tl@UModSys@@2USUniquePointer@core@3@A@@YAXXZ 10037c70 f    CIL library: CIL module
 0001:00036ca0       ??__E?s_id@?$TObjectUniqueID@UISceneController@lib3d@UModSys@@@tl@UModSys@@2USUniquePointer@core@3@A@@YAXXZ 10037ca0 f    CIL library: CIL module
 0001:00036cd0       ??__E?s_id@?$TObjectUniqueID@UIScene@lib3d@UModSys@@@tl@UModSys@@2USUniquePointer@core@3@A@@YAXXZ 10037cd0 f    CIL library: CIL module
 0001:00036d00       ??__Es_dbg@stdlib@lib2d@modules@UModSys@@YAXXZ 10037d00 f    CIL library: CIL module
 0001:00036d20       ??__E?s_modreg@RModuleReg@stdlib@lib2d@modules@UModSys@@2U12345@A@@YAXXZ 10037d20 f    CIL library: CIL module
 0001:00036d70       ??__E?s_modreg_chain@RModuleReg@stdlib@lib2d@modules@UModSys@@2USModuleRegChain@base@5@A@@YAXXZ 10037d70 f    CIL library: CIL module
 0001:00036d90       ??__E?s_uid@RGenerator@stdlib@lib2d@modules@UModSys@@2USUniquePointer@core@5@A@@YAXXZ 10037d90 f    CIL library: CIL module
 0001:00036dc0       ??__E?s_id@?$TObjectUniqueID@URImage_Memory@stdlib@lib2d@modules@UModSys@@@tl@UModSys@@2USUniquePointer@core@3@A@@YAXXZ 10037dc0 f    CIL library: CIL module
 0001:00036df0       ??__E?s_id@?$TObjectUniqueID@URImageFactory_Memory@stdlib@lib2d@modules@UModSys@@@tl@UModSys@@2USUniquePointer@core@3@A@@YAXXZ 10037df0 f    CIL library: CIL module
 0001:00036e20       ??__E?s_id@?$TObjectUniqueID@URMultiImage@stdlib@lib2d@modules@UModSys@@@tl@UModSys@@2USUniquePointer@core@3@A@@YAXXZ 10037e20 f    CIL library: CIL module
 0001:00036e50       ??__E?s_id@?$TObjectUniqueID@URGenerator@stdlib@lib2d@modules@UModSys@@@tl@UModSys@@2USUniquePointer@core@3@A@@YAXXZ 10037e50 f    CIL library: CIL module
 0001:00036e80       ??__Es_dbg@SDL_GL@ui@modules@UModSys@@YAXXZ 10037e80 f    CIL library: CIL module
 0001:00036ea0       ??__E?s_modreg@RModuleReg@SDL_GL@ui@modules@UModSys@@2U12345@A@@YAXXZ 10037ea0 f    CIL library: CIL module
 0001:00036ef0       ??__E?s_modreg_chain@RModuleReg@SDL_GL@ui@modules@UModSys@@2USModuleRegChain@base@5@A@@YAXXZ 10037ef0 f    CIL library: CIL module
 0001:00036f10       ??__E?s_uid@RGenerator@SDL_GL@ui@modules@UModSys@@2USUniquePointer@core@5@A@@YAXXZ 10037f10 f    CIL library: CIL module
 0001:00036f40       ??__E?s_id@?$TObjectUniqueID@URKeyboardController@SDL_GL@ui@modules@UModSys@@@tl@UModSys@@2USUniquePointer@core@3@A@@YAXXZ 10037f40 f    CIL library: CIL module
 0001:00036f70       ??__E?s_id@?$TObjectUniqueID@URMouseController@SDL_GL@ui@modules@UModSys@@@tl@UModSys@@2USUniquePointer@core@3@A@@YAXXZ 10037f70 f    CIL library: CIL module
 0001:00036fa0       ??__E?s_id@?$TObjectUniqueID@URTerminal@SDL_GL@ui@modules@UModSys@@@tl@UModSys@@2USUniquePointer@core@3@A@@YAXXZ 10037fa0 f    CIL library: CIL module
 0001:00036fd0       ??__E?s_id@?$TObjectUniqueID@URMultiImage2D_SDL_ttf@SDL_GL@ui@modules@UModSys@@@tl@UModSys@@2USUniquePointer@core@3@A@@YAXXZ 10037fd0 f    CIL library: CIL module
 0001:00037000       ??__E?s_id@?$TObjectUniqueID@URRenderDriver3D@SDL_GL@ui@modules@UModSys@@@tl@UModSys@@2USUniquePointer@core@3@A@@YAXXZ 10038000 f    CIL library: CIL module
 0001:00037030       ??__E?s_id@?$TObjectUniqueID@URTerminalX@SDL_GL@ui@modules@UModSys@@@tl@UModSys@@2USUniquePointer@core@3@A@@YAXXZ 10038030 f    CIL library: CIL module
 0001:00037060       ??__E?s_id@?$TObjectUniqueID@URVertexArray@SDL_GL@ui@modules@UModSys@@@tl@UModSys@@2USUniquePointer@core@3@A@@YAXXZ 10038060 f    CIL library: CIL module
 0001:00037090       ??__E?s_id@?$TObjectUniqueID@URGenerator@SDL_GL@ui@modules@UModSys@@@tl@UModSys@@2USUniquePointer@core@3@A@@YAXXZ 10038090 f    CIL library: CIL module
 0001:000370c0       ??__Es_dbg@SDL_core@ui@modules@UModSys@@YAXXZ 100380c0 f    CIL library: CIL module
 0001:000370e0       ??__E?s_modreg@RModuleReg@SDL_core@ui@modules@UModSys@@2U12345@A@@YAXXZ 100380e0 f    CIL library: CIL module
 0001:00037130       ??__E?s_modreg_chain@RModuleReg@SDL_core@ui@modules@UModSys@@2USModuleRegChain@base@5@A@@YAXXZ 10038130 f    CIL library: CIL module
 0001:00037150       ??__E?s_uid@RGenerator@SDL_core@ui@modules@UModSys@@2USUniquePointer@core@5@A@@YAXXZ 10038150 f    CIL library: CIL module
 0001:00037180       ??__E?s_id@?$TObjectUniqueID@URKeyboardController@SDL_core@ui@modules@UModSys@@@tl@UModSys@@2USUniquePointer@core@3@A@@YAXXZ 10038180 f    CIL library: CIL module
 0001:000371b0       ??__E?s_id@?$TObjectUniqueID@URMouseController@SDL_core@ui@modules@UModSys@@@tl@UModSys@@2USUniquePointer@core@3@A@@YAXXZ 100381b0 f    CIL library: CIL module
 0001:000371e0       ??__E?s_id@?$TObjectUniqueID@URTerminal@SDL_core@ui@modules@UModSys@@@tl@UModSys@@2USUniquePointer@core@3@A@@YAXXZ 100381e0 f    CIL library: CIL module
 0001:00037210       ??__E?s_id@?$TObjectUniqueID@URMultiImage2D_SDL_ttf@SDL_core@ui@modules@UModSys@@@tl@UModSys@@2USUniquePointer@core@3@A@@YAXXZ 10038210 f    CIL library: CIL module
 0001:00037240       ??__E?s_id@?$TObjectUniqueID@URRenderDriver2D@SDL_core@ui@modules@UModSys@@@tl@UModSys@@2USUniquePointer@core@3@A@@YAXXZ 10038240 f    CIL library: CIL module
 0001:00037270       ??__E?s_id@?$TObjectUniqueID@URTerminalX@SDL_core@ui@modules@UModSys@@@tl@UModSys@@2USUniquePointer@core@3@A@@YAXXZ 10038270 f    CIL library: CIL module
 0001:000372a0       ??__E?s_id@?$TObjectUniqueID@URGenerator@SDL_core@ui@modules@UModSys@@@tl@UModSys@@2USUniquePointer@core@3@A@@YAXXZ 100382a0 f    CIL library: CIL module
 0001:000372d0       ??__Es_dbg@frames@ui@modules@UModSys@@YAXXZ 100382d0 f    CIL library: CIL module
 0001:000372f0       ??__E?s_modreg@RModuleReg@frames@ui@modules@UModSys@@2U12345@A@@YAXXZ 100382f0 f    CIL library: CIL module
 0001:00037340       ??__E?s_modreg_chain@RModuleReg@frames@ui@modules@UModSys@@2USModuleRegChain@base@5@A@@YAXXZ 10038340 f    CIL library: CIL module
 0001:00037360       ??__E?s_uid@RGenerator@frames@ui@modules@UModSys@@2USUniquePointer@core@5@A@@YAXXZ 10038360 f    CIL library: CIL module
 0001:00037390       ??__E?s_id@?$TObjectUniqueID@URFrame_Common@frames@ui@modules@UModSys@@@tl@UModSys@@2USUniquePointer@core@3@A@@YAXXZ 10038390 f    CIL library: CIL module
 0001:000373c0       ??__E?s_id@?$TObjectUniqueID@URDialog@frames@ui@modules@UModSys@@@tl@UModSys@@2USUniquePointer@core@3@A@@YAXXZ 100383c0 f    CIL library: CIL module
 0001:000373f0       ??__E?s_id@?$TObjectUniqueID@URFrame_Frame@frames@ui@modules@UModSys@@@tl@UModSys@@2USUniquePointer@core@3@A@@YAXXZ 100383f0 f    CIL library: CIL module
 0001:00037420       ??__E?s_id@?$TObjectUniqueID@URFrame_Image@frames@ui@modules@UModSys@@@tl@UModSys@@2USUniquePointer@core@3@A@@YAXXZ 10038420 f    CIL library: CIL module
 0001:00037450       ??__E?s_id@?$TObjectUniqueID@URFrame_Text@frames@ui@modules@UModSys@@@tl@UModSys@@2USUniquePointer@core@3@A@@YAXXZ 10038450 f    CIL library: CIL module
 0001:00037480       ??__E?s_id@?$TObjectUniqueID@URFrame_Button@frames@ui@modules@UModSys@@@tl@UModSys@@2USUniquePointer@core@3@A@@YAXXZ 10038480 f    CIL library: CIL module
 0001:000374b0       ??__E?s_id@?$TObjectUniqueID@URFrame_Edit@frames@ui@modules@UModSys@@@tl@UModSys@@2USUniquePointer@core@3@A@@YAXXZ 100384b0 f    CIL library: CIL module
 0001:000374e0       ??__E?s_id@?$TObjectUniqueID@URFrame_List@frames@ui@modules@UModSys@@@tl@UModSys@@2USUniquePointer@core@3@A@@YAXXZ 100384e0 f    CIL library: CIL module
 0001:00037510       ??__E?s_id@?$TObjectUniqueID@URCollector@frames@ui@modules@UModSys@@@tl@UModSys@@2USUniquePointer@core@3@A@@YAXXZ 10038510 f    CIL library: CIL module
 0001:00037540       ??__E?s_id@?$TObjectUniqueID@URGenerator@frames@ui@modules@UModSys@@@tl@UModSys@@2USUniquePointer@core@3@A@@YAXXZ 10038540 f    CIL library: CIL module
 0001:00037570       ??__Es_dbg@images_std@media@modules@UModSys@@YAXXZ 10038570 f    CIL library: CIL module
 0001:00037590       ??__E?s_modreg@RModuleReg@images_std@media@modules@UModSys@@2U12345@A@@YAXXZ 10038590 f    CIL library: CIL module
 0001:000375e0       ??__E?s_modreg_chain@RModuleReg@images_std@media@modules@UModSys@@2USModuleRegChain@base@5@A@@YAXXZ 100385e0 f    CIL library: CIL module
 0001:00037600       ??__E?s_uid@RGenerator@images_std@media@modules@UModSys@@2USUniquePointer@core@5@A@@YAXXZ 10038600 f    CIL library: CIL module
 0001:00037630       ??__E?s_id@?$TObjectUniqueID@URMediaFilter@images_std@media@modules@UModSys@@@tl@UModSys@@2USUniquePointer@core@3@A@@YAXXZ 10038630 f    CIL library: CIL module
 0001:00037660       ??__E?s_id@?$TObjectUniqueID@URGenerator@images_std@media@modules@UModSys@@@tl@UModSys@@2USUniquePointer@core@3@A@@YAXXZ 10038660 f    CIL library: CIL module
 0001:00037690       ??__Es_dbg@serialize_json@media@modules@UModSys@@YAXXZ 10038690 f    CIL library: CIL module
 0001:000376b0       ??__E?s_modreg@RModuleReg@serialize_json@media@modules@UModSys@@2U12345@A@@YAXXZ 100386b0 f    CIL library: CIL module
 0001:00037700       ??__E?s_modreg_chain@RModuleReg@serialize_json@media@modules@UModSys@@2USModuleRegChain@base@5@A@@YAXXZ 10038700 f    CIL library: CIL module
 0001:00037720       ??__E?s_uid@RGenerator@serialize_json@media@modules@UModSys@@2USUniquePointer@core@5@A@@YAXXZ 10038720 f    CIL library: CIL module
 0001:00037750       ??__E?s_id@?$TObjectUniqueID@URSerializeReader@serialize_json@media@modules@UModSys@@@tl@UModSys@@2USUniquePointer@core@3@A@@YAXXZ 10038750 f    CIL library: CIL module
 0001:00037780       ??__E?s_id@?$TObjectUniqueID@URSerializeWriter@serialize_json@media@modules@UModSys@@@tl@UModSys@@2USUniquePointer@core@3@A@@YAXXZ 10038780 f    CIL library: CIL module
 0001:000377b0       ??__E?s_id@?$TObjectUniqueID@URGenerator@serialize_json@media@modules@UModSys@@@tl@UModSys@@2USUniquePointer@core@3@A@@YAXXZ 100387b0 f    CIL library: CIL module
 0001:000377e0       ??__Es_dbg@zlib@media@modules@UModSys@@YAXXZ 100387e0 f    CIL library: CIL module
 0001:00037800       ??__E?s_modreg@RModuleReg@zlib@media@modules@UModSys@@2U12345@A@@YAXXZ 10038800 f    CIL library: CIL module
 0001:00037850       ??__E?s_modreg_chain@RModuleReg@zlib@media@modules@UModSys@@2USModuleRegChain@base@5@A@@YAXXZ 10038850 f    CIL library: CIL module
 0001:00037870       ??__E?s_uid@RGenerator@zlib@media@modules@UModSys@@2USUniquePointer@core@5@A@@YAXXZ 10038870 f    CIL library: CIL module
 0001:000378a0       ??__E?s_id@?$TObjectUniqueID@URBinArchiveFrameClient_ZIP@zlib@media@modules@UModSys@@@tl@UModSys@@2USUniquePointer@core@3@A@@YAXXZ 100388a0 f    CIL library: CIL module
 0001:000378d0       ??__E?s_id@?$TObjectUniqueID@URGenerator@zlib@media@modules@UModSys@@@tl@UModSys@@2USUniquePointer@core@3@A@@YAXXZ 100388d0 f    CIL library: CIL module
 0001:00037900       ??__EM@UModSys@@YAXXZ      10038900 f    CIL library: CIL module
 0001:00037920       ??__E?root@SModuleRegChain@base@UModSys@@2U123@A@@YAXXZ 10038920 f    CIL library: CIL module
 0001:00037940       ??__E?s_library@RModuleLibraryReg_Chain@base@UModSys@@2U123@A@@YAXXZ 10038940 f    CIL library: CIL module
 0001:00037960       ??__E?root@SUniquePointer@core@UModSys@@2U123@A@@YAXXZ 10038960 f    CIL library: CIL module
 0001:00037980       ??__Fs_dbg@test1@test@modules@UModSys@@YAXXZ 10038980 f    CIL library: CIL module
 0001:00037990       ??__F?s_modreg@RModuleReg@test1@test@modules@UModSys@@2U12345@A@@YAXXZ 10038990 f    CIL library: CIL module
 0001:000379b0       ??__F?s_modreg_chain@RModuleReg@test1@test@modules@UModSys@@2USModuleRegChain@base@5@A@@YAXXZ 100389b0 f    CIL library: CIL module
 0001:000379c0       ??__F?s_uid@RGenerator@test1@test@modules@UModSys@@2USUniquePointer@core@5@A@@YAXXZ 100389c0 f    CIL library: CIL module
 0001:000379d0       ??__Fh@?1??s_holder@RGenerator@test1@test@modules@UModSys@@SAAAU?$TTypeStaticHolder@URGenerator@test1@test@modules@UModSys@@@tl@5@XZ@YAXXZ 100389d0 f    CIL library: CIL module
 0001:000379f0       ??__F?s_id@?$TObjectUniqueID@URGenerator@test1@test@modules@UModSys@@@tl@UModSys@@2USUniquePointer@core@3@A@@YAXXZ 100389f0 f    CIL library: CIL module
 0001:00037a00       ??__F?s_id@?$TObjectUniqueID@URTest1_Shell@test1@test@modules@UModSys@@@tl@UModSys@@2USUniquePointer@core@3@A@@YAXXZ 10038a00 f    CIL library: CIL module
 0001:00037a10       ??__F?s_id@?$TObjectUniqueID@URLines_Filter@test1@test@modules@UModSys@@@tl@UModSys@@2USUniquePointer@core@3@A@@YAXXZ 10038a10 f    CIL library: CIL module
 0001:00037a20       ??__F?s_id@?$TObjectUniqueID@URLines@test1@test@modules@UModSys@@@tl@UModSys@@2USUniquePointer@core@3@A@@YAXXZ 10038a20 f    CIL library: CIL module
 0001:00037a30       ??__F?s_id@?$TObjectUniqueID@UILines@test1@test@modules@UModSys@@@tl@UModSys@@2USUniquePointer@core@3@A@@YAXXZ 10038a30 f    CIL library: CIL module
 0001:00037a40       ??__F?s_id@?$TObjectUniqueID@UIRenderDriver@lib3d@UModSys@@@tl@UModSys@@2USUniquePointer@core@3@A@@YAXXZ 10038a40 f    CIL library: CIL module
 0001:00037a50       ??__F?s_id@?$TObjectUniqueID@UIVertexArray@lib3d@UModSys@@@tl@UModSys@@2USUniquePointer@core@3@A@@YAXXZ 10038a50 f    CIL library: CIL module
 0001:00037a60       ??__F?s_id@?$TObjectUniqueID@UITextureCells@lib3d@UModSys@@@tl@UModSys@@2USUniquePointer@core@3@A@@YAXXZ 10038a60 f    CIL library: CIL module
 0001:00037a70       ??__F?s_id@?$TObjectUniqueID@UITexture@lib3d@UModSys@@@tl@UModSys@@2USUniquePointer@core@3@A@@YAXXZ 10038a70 f    CIL library: CIL module
 0001:00037a80       ??__F?s_id@?$TObjectUniqueID@UIRenderer@lib3d@UModSys@@@tl@UModSys@@2USUniquePointer@core@3@A@@YAXXZ 10038a80 f    CIL library: CIL module
 0001:00037a90       ??__F?s_id@?$TObjectUniqueID@UISharedLibrary@lib3d@UModSys@@@tl@UModSys@@2USUniquePointer@core@3@A@@YAXXZ 10038a90 f    CIL library: CIL module
 0001:00037aa0       ??__F?s_id@?$TObjectUniqueID@UINodeObject@lib3d@UModSys@@@tl@UModSys@@2USUniquePointer@core@3@A@@YAXXZ 10038aa0 f    CIL library: CIL module
 0001:00037ab0       ??__F?s_id@?$TObjectUniqueID@UIRenderObject@lib3d@UModSys@@@tl@UModSys@@2USUniquePointer@core@3@A@@YAXXZ 10038ab0 f    CIL library: CIL module
 0001:00037ac0       ??__F?s_id@?$TObjectUniqueID@UIObject@lib3d@UModSys@@@tl@UModSys@@2USUniquePointer@core@3@A@@YAXXZ 10038ac0 f    CIL library: CIL module
 0001:00037ad0       ??__F?s_id@?$TObjectUniqueID@UIRenderDriver@lib2d@UModSys@@@tl@UModSys@@2USUniquePointer@core@3@A@@YAXXZ 10038ad0 f    CIL library: CIL module
 0001:00037ae0       ??__F?s_id@?$TObjectUniqueID@UIMultiImage@lib2d@UModSys@@@tl@UModSys@@2USUniquePointer@core@3@A@@YAXXZ 10038ae0 f    CIL library: CIL module
 0001:00037af0       ??__F?s_id@?$TObjectUniqueID@UIImageFactory@lib2d@UModSys@@@tl@UModSys@@2USUniquePointer@core@3@A@@YAXXZ 10038af0 f    CIL library: CIL module
 0001:00037b00       ??__F?s_id@?$TObjectUniqueID@UIImage@lib2d@UModSys@@@tl@UModSys@@2USUniquePointer@core@3@A@@YAXXZ 10038b00 f    CIL library: CIL module
 0001:00037b10       ??__F?s_id@?$TObjectUniqueID@UIDialog@libui@UModSys@@@tl@UModSys@@2USUniquePointer@core@3@A@@YAXXZ 10038b10 f    CIL library: CIL module
 0001:00037b20       ??__F?s_id@?$TObjectUniqueID@UIFrame@libui@UModSys@@@tl@UModSys@@2USUniquePointer@core@3@A@@YAXXZ 10038b20 f    CIL library: CIL module
 0001:00037b30       ??__F?s_id@?$TObjectUniqueID@UIAsyncCollector@libui@UModSys@@@tl@UModSys@@2USUniquePointer@core@3@A@@YAXXZ 10038b30 f    CIL library: CIL module
 0001:00037b40       ??__F?s_id@?$TObjectUniqueID@UIAsyncController@libui@UModSys@@@tl@UModSys@@2USUniquePointer@core@3@A@@YAXXZ 10038b40 f    CIL library: CIL module
 0001:00037b50       ??__F?s_id@?$TObjectUniqueID@UICollector@libui@UModSys@@@tl@UModSys@@2USUniquePointer@core@3@A@@YAXXZ 10038b50 f    CIL library: CIL module
 0001:00037b60       ??__F?s_id@?$TObjectUniqueID@UIConsoleHelperInput_UIKey@libui@UModSys@@@tl@UModSys@@2USUniquePointer@core@3@A@@YAXXZ 10038b60 f    CIL library: CIL module
 0001:00037b70       ??__F?s_id@?$TObjectUniqueID@UITerminal@libui@UModSys@@@tl@UModSys@@2USUniquePointer@core@3@A@@YAXXZ 10038b70 f    CIL library: CIL module
 0001:00037b80       ??__F?s_id@?$TObjectUniqueID@UIJoystickController@libui@UModSys@@@tl@UModSys@@2USUniquePointer@core@3@A@@YAXXZ 10038b80 f    CIL library: CIL module
 0001:00037b90       ??__F?s_id@?$TObjectUniqueID@UIMouseController@libui@UModSys@@@tl@UModSys@@2USUniquePointer@core@3@A@@YAXXZ 10038b90 f    CIL library: CIL module
 0001:00037ba0       ??__F?s_id@?$TObjectUniqueID@UIKeyboardController@libui@UModSys@@@tl@UModSys@@2USUniquePointer@core@3@A@@YAXXZ 10038ba0 f    CIL library: CIL module
 0001:00037bb0       ??__F?s_id@?$TObjectUniqueID@UIConsoleHelperOutputFCS@base@UModSys@@@tl@UModSys@@2USUniquePointer@core@3@A@@YAXXZ 10038bb0 f    CIL library: CIL module
 0001:00037bc0       ??__F?s_id@?$TObjectUniqueID@UIConsoleHelperOutput@base@UModSys@@@tl@UModSys@@2USUniquePointer@core@3@A@@YAXXZ 10038bc0 f    CIL library: CIL module
 0001:00037bd0       ??__F?s_id@?$TObjectUniqueID@UIConsoleHelperInput@base@UModSys@@@tl@UModSys@@2USUniquePointer@core@3@A@@YAXXZ 10038bd0 f    CIL library: CIL module
 0001:00037be0       ??__F?s_id@?$TObjectUniqueID@UIConsoleHelperHistory@base@UModSys@@@tl@UModSys@@2USUniquePointer@core@3@A@@YAXXZ 10038be0 f    CIL library: CIL module
 0001:00037bf0       ??__F?s_id@?$TObjectUniqueID@UIConsoleHelper@base@UModSys@@@tl@UModSys@@2USUniquePointer@core@3@A@@YAXXZ 10038bf0 f    CIL library: CIL module
 0001:00037c00       ??__F?s_id@?$TObjectUniqueID@UIConsoleExt@base@UModSys@@@tl@UModSys@@2USUniquePointer@core@3@A@@YAXXZ 10038c00 f    CIL library: CIL module
 0001:00037c10       ??__F?s_id@?$TObjectUniqueID@UISerializeWriter@libmedia@UModSys@@@tl@UModSys@@2USUniquePointer@core@3@A@@YAXXZ 10038c10 f    CIL library: CIL module
 0001:00037c20       ??__F?s_id@?$TObjectUniqueID@UISerializeReader@libmedia@UModSys@@@tl@UModSys@@2USUniquePointer@core@3@A@@YAXXZ 10038c20 f    CIL library: CIL module
 0001:00037c30       ??__F?s_id@?$TObjectUniqueID@UIClient@IBinArchiveFrame@libmedia@UModSys@@@tl@UModSys@@2USUniquePointer@core@3@A@@YAXXZ 10038c30 f    CIL library: CIL module
 0001:00037c40       ??__F?s_id@?$TObjectUniqueID@UIBinArchiveFrame@libmedia@UModSys@@@tl@UModSys@@2USUniquePointer@core@3@A@@YAXXZ 10038c40 f    CIL library: CIL module
 0001:00037c50       ??__F?s_id@?$TObjectUniqueID@UILibraryLayered@libmedia@UModSys@@@tl@UModSys@@2USUniquePointer@core@3@A@@YAXXZ 10038c50 f    CIL library: CIL module
 0001:00037c60       ??__F?s_id@?$TObjectUniqueID@UILibraryObjCache@libmedia@UModSys@@@tl@UModSys@@2USUniquePointer@core@3@A@@YAXXZ 10038c60 f    CIL library: CIL module
 0001:00037c70       ??__F?s_id@?$TObjectUniqueID@UILibraryObjFilter@libmedia@UModSys@@@tl@UModSys@@2USUniquePointer@core@3@A@@YAXXZ 10038c70 f    CIL library: CIL module
 0001:00037c80       ??__F?s_id@?$TObjectUniqueID@UILibraryBinCache@libmedia@UModSys@@@tl@UModSys@@2USUniquePointer@core@3@A@@YAXXZ 10038c80 f    CIL library: CIL module
 0001:00037c90       ??__F?s_id@?$TObjectUniqueID@UILibraryBinTree@libmedia@UModSys@@@tl@UModSys@@2USUniquePointer@core@3@A@@YAXXZ 10038c90 f    CIL library: CIL module
 0001:00037ca0       ??__F?s_id@?$TObjectUniqueID@UILibrary@libmedia@UModSys@@@tl@UModSys@@2USUniquePointer@core@3@A@@YAXXZ 10038ca0 f    CIL library: CIL module
 0001:00037cb0       ??__F?s_id@?$TObjectUniqueID@UIBinObjFilter@libmedia@UModSys@@@tl@UModSys@@2USUniquePointer@core@3@A@@YAXXZ 10038cb0 f    CIL library: CIL module
 0001:00037cc0       ??__F?s_id@?$TObjectUniqueID@UIBinArchive@libmedia@UModSys@@@tl@UModSys@@2USUniquePointer@core@3@A@@YAXXZ 10038cc0 f    CIL library: CIL module
 0001:00037cd0       ??__F?s_id@?$TObjectUniqueID@UILibObject@libmedia@UModSys@@@tl@UModSys@@2USUniquePointer@core@3@A@@YAXXZ 10038cd0 f    CIL library: CIL module
 0001:00037ce0       ??__F?s_id@?$TObjectUniqueID@UIUtilities@libmedia@UModSys@@@tl@UModSys@@2USUniquePointer@core@3@A@@YAXXZ 10038ce0 f    CIL library: CIL module
 0001:00037cf0       ??__F?s_id@?$TObjectUniqueID@UIStreamWriter@libmedia@UModSys@@@tl@UModSys@@2USUniquePointer@core@3@A@@YAXXZ 10038cf0 f    CIL library: CIL module
 0001:00037d00       ??__F?s_id@?$TObjectUniqueID@UIStreamReader@libmedia@UModSys@@@tl@UModSys@@2USUniquePointer@core@3@A@@YAXXZ 10038d00 f    CIL library: CIL module
 0001:00037d10       ??__F?s_id@?$TObjectUniqueID@UISystem@base@UModSys@@@tl@UModSys@@2USUniquePointer@core@3@A@@YAXXZ 10038d10 f    CIL library: CIL module
 0001:00037d20       ??__F?s_id@?$TObjectUniqueID@UIShell@base@UModSys@@@tl@UModSys@@2USUniquePointer@core@3@A@@YAXXZ 10038d20 f    CIL library: CIL module
 0001:00037d30       ??__F?s_id@?$TObjectUniqueID@UIGenerator@base@UModSys@@@tl@UModSys@@2USUniquePointer@core@3@A@@YAXXZ 10038d30 f    CIL library: CIL module
 0001:00037d40       ??__F?s_id@?$TObjectUniqueID@UIModObject@base@UModSys@@@tl@UModSys@@2USUniquePointer@core@3@A@@YAXXZ 10038d40 f    CIL library: CIL module
 0001:00037d50       ??__F?s_id@?$TObjectUniqueID@UIModuleLibrary@base@UModSys@@@tl@UModSys@@2USUniquePointer@core@3@A@@YAXXZ 10038d50 f    CIL library: CIL module
 0001:00037d60       ??__F?s_id@?$TObjectUniqueID@UIModule@base@UModSys@@@tl@UModSys@@2USUniquePointer@core@3@A@@YAXXZ 10038d60 f    CIL library: CIL module
 0001:00037d70       ??__F?s_id@?$TObjectUniqueID@UIConsole@base@UModSys@@@tl@UModSys@@2USUniquePointer@core@3@A@@YAXXZ 10038d70 f    CIL library: CIL module
 0001:00037d80       ??__F?s_id@?$TObjectUniqueID@UIParameters@core@UModSys@@@tl@UModSys@@2USUniquePointer@core@3@A@@YAXXZ 10038d80 f    CIL library: CIL module
 0001:00037d90       ??__F?s_id@?$TObjectUniqueID@UIRefObject@core@UModSys@@@tl@UModSys@@2USUniquePointer@core@3@A@@YAXXZ 10038d90 f    CIL library: CIL module
 0001:00037da0       ??__F?s_id@?$TObjectUniqueID@UIRoot@core@UModSys@@@tl@UModSys@@2USUniquePointer@core@3@A@@YAXXZ 10038da0 f    CIL library: CIL module
 0001:00037db0       ??__F?s_id@?$TObjectUniqueID@UIScene@lib3d@UModSys@@@tl@UModSys@@2USUniquePointer@core@3@A@@YAXXZ 10038db0 f    CIL library: CIL module
 0001:00037dc0       ??__F?s_id@?$TObjectUniqueID@UISceneController@lib3d@UModSys@@@tl@UModSys@@2USUniquePointer@core@3@A@@YAXXZ 10038dc0 f    CIL library: CIL module
 0001:00037dd0       ??__F?s_id@?$TObjectUniqueID@UINodeObject_Light@lib3d@UModSys@@@tl@UModSys@@2USUniquePointer@core@3@A@@YAXXZ 10038dd0 f    CIL library: CIL module
 0001:00037de0       ??__F?s_id@?$TObjectUniqueID@UINodeObject_Camera@lib3d@UModSys@@@tl@UModSys@@2USUniquePointer@core@3@A@@YAXXZ 10038de0 f    CIL library: CIL module
 0001:00037df0       ??__F?s_id@?$TObjectUniqueID@UINodeObject_Particles@lib3d@UModSys@@@tl@UModSys@@2USUniquePointer@core@3@A@@YAXXZ 10038df0 f    CIL library: CIL module
 0001:00037e00       ??__F?s_id@?$TObjectUniqueID@UINodeObject_Picture@lib3d@UModSys@@@tl@UModSys@@2USUniquePointer@core@3@A@@YAXXZ 10038e00 f    CIL library: CIL module
 0001:00037e10       ??__F?s_id@?$TObjectUniqueID@UINodeObject_Mesh@lib3d@UModSys@@@tl@UModSys@@2USUniquePointer@core@3@A@@YAXXZ 10038e10 f    CIL library: CIL module
 0001:00037e20       ??__F?s_id@?$TObjectUniqueID@UINodeObject_Brush@lib3d@UModSys@@@tl@UModSys@@2USUniquePointer@core@3@A@@YAXXZ 10038e20 f    CIL library: CIL module
 0001:00037e30       ??__Fs_dbg@stdlib@lib2d@modules@UModSys@@YAXXZ 10038e30 f    CIL library: CIL module
 0001:00037e40       ??__F?s_modreg@RModuleReg@stdlib@lib2d@modules@UModSys@@2U12345@A@@YAXXZ 10038e40 f    CIL library: CIL module
 0001:00037e60       ??__F?s_modreg_chain@RModuleReg@stdlib@lib2d@modules@UModSys@@2USModuleRegChain@base@5@A@@YAXXZ 10038e60 f    CIL library: CIL module
 0001:00037e70       ??__F?s_uid@RGenerator@stdlib@lib2d@modules@UModSys@@2USUniquePointer@core@5@A@@YAXXZ 10038e70 f    CIL library: CIL module
 0001:00037e80       ??__Fh@?1??s_holder@RGenerator@stdlib@lib2d@modules@UModSys@@SAAAU?$TTypeStaticHolder@URGenerator@stdlib@lib2d@modules@UModSys@@@tl@5@XZ@YAXXZ 10038e80 f    CIL library: CIL module
 0001:00037ea0       ??__F?s_id@?$TObjectUniqueID@URGenerator@stdlib@lib2d@modules@UModSys@@@tl@UModSys@@2USUniquePointer@core@3@A@@YAXXZ 10038ea0 f    CIL library: CIL module
 0001:00037eb0       ??__F?s_id@?$TObjectUniqueID@URMultiImage@stdlib@lib2d@modules@UModSys@@@tl@UModSys@@2USUniquePointer@core@3@A@@YAXXZ 10038eb0 f    CIL library: CIL module
 0001:00037ec0       ??__F?s_id@?$TObjectUniqueID@URImageFactory_Memory@stdlib@lib2d@modules@UModSys@@@tl@UModSys@@2USUniquePointer@core@3@A@@YAXXZ 10038ec0 f    CIL library: CIL module
 0001:00037ed0       ??__F?s_id@?$TObjectUniqueID@URImage_Memory@stdlib@lib2d@modules@UModSys@@@tl@UModSys@@2USUniquePointer@core@3@A@@YAXXZ 10038ed0 f    CIL library: CIL module
 0001:00037ee0       ??__Fs_dbg@SDL_GL@ui@modules@UModSys@@YAXXZ 10038ee0 f    CIL library: CIL module
 0001:00037ef0       ??__F?s_modreg@RModuleReg@SDL_GL@ui@modules@UModSys@@2U12345@A@@YAXXZ 10038ef0 f    CIL library: CIL module
 0001:00037f10       ??__F?s_modreg_chain@RModuleReg@SDL_GL@ui@modules@UModSys@@2USModuleRegChain@base@5@A@@YAXXZ 10038f10 f    CIL library: CIL module
 0001:00037f20       ??__F?s_uid@RGenerator@SDL_GL@ui@modules@UModSys@@2USUniquePointer@core@5@A@@YAXXZ 10038f20 f    CIL library: CIL module
 0001:00037f30       ??__Fh@?1??s_holder@RGenerator@SDL_GL@ui@modules@UModSys@@SAAAU?$TTypeStaticHolder@URGenerator@SDL_GL@ui@modules@UModSys@@@tl@5@XZ@YAXXZ 10038f30 f    CIL library: CIL module
 0001:00037f50       ??__F?s_id@?$TObjectUniqueID@URGenerator@SDL_GL@ui@modules@UModSys@@@tl@UModSys@@2USUniquePointer@core@3@A@@YAXXZ 10038f50 f    CIL library: CIL module
 0001:00037f60       ??__F?s_id@?$TObjectUniqueID@URVertexArray@SDL_GL@ui@modules@UModSys@@@tl@UModSys@@2USUniquePointer@core@3@A@@YAXXZ 10038f60 f    CIL library: CIL module
 0001:00037f70       ??__F?s_id@?$TObjectUniqueID@URTerminalX@SDL_GL@ui@modules@UModSys@@@tl@UModSys@@2USUniquePointer@core@3@A@@YAXXZ 10038f70 f    CIL library: CIL module
 0001:00037f80       ??__F?s_id@?$TObjectUniqueID@URRenderDriver3D@SDL_GL@ui@modules@UModSys@@@tl@UModSys@@2USUniquePointer@core@3@A@@YAXXZ 10038f80 f    CIL library: CIL module
 0001:00037f90       ??__F?s_id@?$TObjectUniqueID@URMultiImage2D_SDL_ttf@SDL_GL@ui@modules@UModSys@@@tl@UModSys@@2USUniquePointer@core@3@A@@YAXXZ 10038f90 f    CIL library: CIL module
 0001:00037fa0       ??__F?s_id@?$TObjectUniqueID@URTerminal@SDL_GL@ui@modules@UModSys@@@tl@UModSys@@2USUniquePointer@core@3@A@@YAXXZ 10038fa0 f    CIL library: CIL module
 0001:00037fb0       ??__F?s_id@?$TObjectUniqueID@URMouseController@SDL_GL@ui@modules@UModSys@@@tl@UModSys@@2USUniquePointer@core@3@A@@YAXXZ 10038fb0 f    CIL library: CIL module
 0001:00037fc0       ??__F?s_id@?$TObjectUniqueID@URKeyboardController@SDL_GL@ui@modules@UModSys@@@tl@UModSys@@2USUniquePointer@core@3@A@@YAXXZ 10038fc0 f    CIL library: CIL module
 0001:00037fd0       ??__Fs_dbg@SDL_core@ui@modules@UModSys@@YAXXZ 10038fd0 f    CIL library: CIL module
 0001:00037fe0       ??__F?s_modreg@RModuleReg@SDL_core@ui@modules@UModSys@@2U12345@A@@YAXXZ 10038fe0 f    CIL library: CIL module
 0001:00038000       ??__F?s_modreg_chain@RModuleReg@SDL_core@ui@modules@UModSys@@2USModuleRegChain@base@5@A@@YAXXZ 10039000 f    CIL library: CIL module
 0001:00038010       ??__F?s_uid@RGenerator@SDL_core@ui@modules@UModSys@@2USUniquePointer@core@5@A@@YAXXZ 10039010 f    CIL library: CIL module
 0001:00038020       ??__Fh@?1??s_holder@RGenerator@SDL_core@ui@modules@UModSys@@SAAAU?$TTypeStaticHolder@URGenerator@SDL_core@ui@modules@UModSys@@@tl@5@XZ@YAXXZ 10039020 f    CIL library: CIL module
 0001:00038040       ??__F?s_id@?$TObjectUniqueID@URGenerator@SDL_core@ui@modules@UModSys@@@tl@UModSys@@2USUniquePointer@core@3@A@@YAXXZ 10039040 f    CIL library: CIL module
 0001:00038050       ??__F?s_id@?$TObjectUniqueID@URTerminalX@SDL_core@ui@modules@UModSys@@@tl@UModSys@@2USUniquePointer@core@3@A@@YAXXZ 10039050 f    CIL library: CIL module
 0001:00038060       ??__F?s_id@?$TObjectUniqueID@URRenderDriver2D@SDL_core@ui@modules@UModSys@@@tl@UModSys@@2USUniquePointer@core@3@A@@YAXXZ 10039060 f    CIL library: CIL module
 0001:00038070       ??__F?s_id@?$TObjectUniqueID@URMultiImage2D_SDL_ttf@SDL_core@ui@modules@UModSys@@@tl@UModSys@@2USUniquePointer@core@3@A@@YAXXZ 10039070 f    CIL library: CIL module
 0001:00038080       ??__F?s_id@?$TObjectUniqueID@URTerminal@SDL_core@ui@modules@UModSys@@@tl@UModSys@@2USUniquePointer@core@3@A@@YAXXZ 10039080 f    CIL library: CIL module
 0001:00038090       ??__F?s_id@?$TObjectUniqueID@URMouseController@SDL_core@ui@modules@UModSys@@@tl@UModSys@@2USUniquePointer@core@3@A@@YAXXZ 10039090 f    CIL library: CIL module
 0001:000380a0       ??__F?s_id@?$TObjectUniqueID@URKeyboardController@SDL_core@ui@modules@UModSys@@@tl@UModSys@@2USUniquePointer@core@3@A@@YAXXZ 100390a0 f    CIL library: CIL module
 0001:000380b0       ??__Fs_dbg@frames@ui@modules@UModSys@@YAXXZ 100390b0 f    CIL library: CIL module
 0001:000380c0       ??__F?s_modreg@RModuleReg@frames@ui@modules@UModSys@@2U12345@A@@YAXXZ 100390c0 f    CIL library: CIL module
 0001:000380e0       ??__F?s_modreg_chain@RModuleReg@frames@ui@modules@UModSys@@2USModuleRegChain@base@5@A@@YAXXZ 100390e0 f    CIL library: CIL module
 0001:000380f0       ??__F?s_uid@RGenerator@frames@ui@modules@UModSys@@2USUniquePointer@core@5@A@@YAXXZ 100390f0 f    CIL library: CIL module
 0001:00038100       ??__Fh@?1??s_holder@RGenerator@frames@ui@modules@UModSys@@SAAAU?$TTypeStaticHolder@URGenerator@frames@ui@modules@UModSys@@@tl@5@XZ@YAXXZ 10039100 f    CIL library: CIL module
 0001:00038120       ??__F?s_id@?$TObjectUniqueID@URGenerator@frames@ui@modules@UModSys@@@tl@UModSys@@2USUniquePointer@core@3@A@@YAXXZ 10039120 f    CIL library: CIL module
 0001:00038130       ??__F?s_id@?$TObjectUniqueID@URCollector@frames@ui@modules@UModSys@@@tl@UModSys@@2USUniquePointer@core@3@A@@YAXXZ 10039130 f    CIL library: CIL module
 0001:00038140       ??__F?s_id@?$TObjectUniqueID@URFrame_List@frames@ui@modules@UModSys@@@tl@UModSys@@2USUniquePointer@core@3@A@@YAXXZ 10039140 f    CIL library: CIL module
 0001:00038150       ??__F?s_id@?$TObjectUniqueID@URFrame_Edit@frames@ui@modules@UModSys@@@tl@UModSys@@2USUniquePointer@core@3@A@@YAXXZ 10039150 f    CIL library: CIL module
 0001:00038160       ??__F?s_id@?$TObjectUniqueID@URFrame_Button@frames@ui@modules@UModSys@@@tl@UModSys@@2USUniquePointer@core@3@A@@YAXXZ 10039160 f    CIL library: CIL module
 0001:00038170       ??__F?s_id@?$TObjectUniqueID@URFrame_Text@frames@ui@modules@UModSys@@@tl@UModSys@@2USUniquePointer@core@3@A@@YAXXZ 10039170 f    CIL library: CIL module
 0001:00038180       ??__F?s_id@?$TObjectUniqueID@URFrame_Image@frames@ui@modules@UModSys@@@tl@UModSys@@2USUniquePointer@core@3@A@@YAXXZ 10039180 f    CIL library: CIL module
 0001:00038190       ??__F?s_id@?$TObjectUniqueID@URFrame_Frame@frames@ui@modules@UModSys@@@tl@UModSys@@2USUniquePointer@core@3@A@@YAXXZ 10039190 f    CIL library: CIL module
 0001:000381a0       ??__F?s_id@?$TObjectUniqueID@URDialog@frames@ui@modules@UModSys@@@tl@UModSys@@2USUniquePointer@core@3@A@@YAXXZ 100391a0 f    CIL library: CIL module
 0001:000381b0       ??__F?s_id@?$TObjectUniqueID@URFrame_Common@frames@ui@modules@UModSys@@@tl@UModSys@@2USUniquePointer@core@3@A@@YAXXZ 100391b0 f    CIL library: CIL module
 0001:000381c0       ??__Fs_dbg@images_std@media@modules@UModSys@@YAXXZ 100391c0 f    CIL library: CIL module
 0001:000381d0       ??__F?s_modreg@RModuleReg@images_std@media@modules@UModSys@@2U12345@A@@YAXXZ 100391d0 f    CIL library: CIL module
 0001:000381f0       ??__F?s_modreg_chain@RModuleReg@images_std@media@modules@UModSys@@2USModuleRegChain@base@5@A@@YAXXZ 100391f0 f    CIL library: CIL module
 0001:00038200       ??__F?s_uid@RGenerator@images_std@media@modules@UModSys@@2USUniquePointer@core@5@A@@YAXXZ 10039200 f    CIL library: CIL module
 0001:00038210       ??__Fh@?1??s_holder@RGenerator@images_std@media@modules@UModSys@@SAAAU?$TTypeStaticHolder@URGenerator@images_std@media@modules@UModSys@@@tl@5@XZ@YAXXZ 10039210 f    CIL library: CIL module
 0001:00038230       ??__F?s_id@?$TObjectUniqueID@URGenerator@images_std@media@modules@UModSys@@@tl@UModSys@@2USUniquePointer@core@3@A@@YAXXZ 10039230 f    CIL library: CIL module
 0001:00038240       ??__F?s_id@?$TObjectUniqueID@URMediaFilter@images_std@media@modules@UModSys@@@tl@UModSys@@2USUniquePointer@core@3@A@@YAXXZ 10039240 f    CIL library: CIL module
 0001:00038250       ??__Fs_dbg@serialize_json@media@modules@UModSys@@YAXXZ 10039250 f    CIL library: CIL module
 0001:00038260       ??__F?s_modreg@RModuleReg@serialize_json@media@modules@UModSys@@2U12345@A@@YAXXZ 10039260 f    CIL library: CIL module
 0001:00038280       ??__F?s_modreg_chain@RModuleReg@serialize_json@media@modules@UModSys@@2USModuleRegChain@base@5@A@@YAXXZ 10039280 f    CIL library: CIL module
 0001:00038290       ??__F?s_uid@RGenerator@serialize_json@media@modules@UModSys@@2USUniquePointer@core@5@A@@YAXXZ 10039290 f    CIL library: CIL module
 0001:000382a0       ??__Fh@?1??s_holder@RGenerator@serialize_json@media@modules@UModSys@@SAAAU?$TTypeStaticHolder@URGenerator@serialize_json@media@modules@UModSys@@@tl@5@XZ@YAXXZ 100392a0 f    CIL library: CIL module
 0001:000382c0       ??__F?s_id@?$TObjectUniqueID@URGenerator@serialize_json@media@modules@UModSys@@@tl@UModSys@@2USUniquePointer@core@3@A@@YAXXZ 100392c0 f    CIL library: CIL module
 0001:000382d0       ??__F?s_id@?$TObjectUniqueID@URSerializeWriter@serialize_json@media@modules@UModSys@@@tl@UModSys@@2USUniquePointer@core@3@A@@YAXXZ 100392d0 f    CIL library: CIL module
 0001:000382e0       ??__F?s_id@?$TObjectUniqueID@URSerializeReader@serialize_json@media@modules@UModSys@@@tl@UModSys@@2USUniquePointer@core@3@A@@YAXXZ 100392e0 f    CIL library: CIL module
 0001:000382f0       ??__Fs_dbg@zlib@media@modules@UModSys@@YAXXZ 100392f0 f    CIL library: CIL module
 0001:00038300       ??__F?s_modreg@RModuleReg@zlib@media@modules@UModSys@@2U12345@A@@YAXXZ 10039300 f    CIL library: CIL module
 0001:00038320       ??__F?s_modreg_chain@RModuleReg@zlib@media@modules@UModSys@@2USModuleRegChain@base@5@A@@YAXXZ 10039320 f    CIL library: CIL module
 0001:00038330       ??__F?s_uid@RGenerator@zlib@media@modules@UModSys@@2USUniquePointer@core@5@A@@YAXXZ 10039330 f    CIL library: CIL module
 0001:00038340       ??__Fh@?1??s_holder@RGenerator@zlib@media@modules@UModSys@@SAAAU?$TTypeStaticHolder@URGenerator@zlib@media@modules@UModSys@@@tl@5@XZ@YAXXZ 10039340 f    CIL library: CIL module
 0001:00038360       ??__F?s_id@?$TObjectUniqueID@URGenerator@zlib@media@modules@UModSys@@@tl@UModSys@@2USUniquePointer@core@3@A@@YAXXZ 10039360 f    CIL library: CIL module
 0001:00038370       ??__F?s_id@?$TObjectUniqueID@URBinArchiveFrameClient_ZIP@zlib@media@modules@UModSys@@@tl@UModSys@@2USUniquePointer@core@3@A@@YAXXZ 10039370 f    CIL library: CIL module
 0001:00038380       ??__FM@UModSys@@YAXXZ      10039380 f    CIL library: CIL module
 0001:00038390       ??__F?root@SModuleRegChain@base@UModSys@@2U123@A@@YAXXZ 10039390 f    CIL library: CIL module
 0001:000383a0       ??__F?s_library@RModuleLibraryReg_Chain@base@UModSys@@2U123@A@@YAXXZ 100393a0 f    CIL library: CIL module
 0001:000383b0       ??__F?root@SUniquePointer@core@UModSys@@2U123@A@@YAXXZ 100393b0 f    CIL library: CIL module

 Exports

  ordinal    name

        1    _UModSys_Plugin_Entry2@0
