 plugin_test1

 Timestamp is 53481e61 (Fri Apr 11 19:54:57 2014)

 Preferred load address is 10000000

 Start         Length     Name                   Class
 0001:00000000 0003c881H .text                   CODE
 0001:0003c890 00001328H .text$x                 CODE
 0001:0003dbc0 00001f31H .text$yc                CODE
 0001:0003fb00 00000c0aH .text$yd                CODE
 0002:00000000 0000022cH .idata$5                DATA
 0002:0000022c 00000004H .CRT$XCA                DATA
 0002:00000230 000015e4H .CRT$XCU                DATA
 0002:00001814 00000004H .CRT$XCZ                DATA
 0002:00001818 00000004H .CRT$XIA                DATA
 0002:0000181c 00000004H .CRT$XIAA               DATA
 0002:00001820 00000004H .CRT$XIC                DATA
 0002:00001824 00000004H .CRT$XIZ                DATA
 0002:00001828 0000d908H .rdata                  DATA
 0002:0000f130 000026bcH .rdata$r                DATA
 0002:000117f0 0000021cH .rdata$sxdata           DATA
 0002:00011a0c 00000004H .rtc$IAA                DATA
 0002:00011a10 00000004H .rtc$IZZ                DATA
 0002:00011a14 00000004H .rtc$TAA                DATA
 0002:00011a18 00000004H .rtc$TZZ                DATA
 0002:00011a20 00001d0cH .xdata$x                DATA
 0002:0001372c 00000078H .idata$2                DATA
 0002:000137a4 00000014H .idata$3                DATA
 0002:000137b8 0000022cH .idata$4                DATA
 0002:000139e4 000009f4H .idata$6                DATA
 0002:000143e0 0000005cH .edata                  DATA
 0003:00000000 00001c70H .data                   DATA
 0003:00001c70 00001ca0H .bss                    DATA

  Address         Publics by Value              Rva+Base       Lib:Object

 0000:00000000       __except_list              00000000     <absolute>
 0000:00000087       ___safe_se_handler_count   00000087     <absolute>
 0000:00009876       __ldused                   00009876     <absolute>
 0000:00009876       __fltused                  00009876     <absolute>
 0000:00000000       ___ImageBase               10000000     <linker-defined>
 0001:00000000       ??4SCMemShared@core@UModSys@@QAEABU012@ABUSMemShared@12@@Z 10001000 f i plugin_test1.obj
 0001:00000030       ??3IRoot@core@UModSys@@SAXPAXABUSIMemAlloc@12@@Z 10001030 f i plugin_test1.obj
 0001:00000040       ??$seq@D@su@tl@UModSys@@YA_NPBD0@Z 10001040 f i plugin_test1.obj
 0001:00000080       ?add@SParameters@core@UModSys@@QAE_NPBD0@Z 10001080 f i plugin_test1.obj
 0001:000000b0       ?add@SParameters@core@UModSys@@QAE_NPBDABN@Z 100010b0 f i plugin_test1.obj
 0001:000000e0       ?obj_load@ILibrary@libmedia@UModSys@@QAE_NABU?$TString@U?$TSCoreConst@D@su@tl@UModSys@@U?$TComparerBinaryHash@D@234@@tl@3@PAUIRefObject@core@3@0PBUSParameters@73@ABU?$TFlags4State@USMediaFlagUid@libmedia@UModSys@@I@53@@Z 100010e0 f i plugin_test1.obj
 0001:00000140       ?mount_add@ILibraryBinTree@libmedia@UModSys@@QAE_NABU?$TString@U?$TSCoreConst@D@su@tl@UModSys@@U?$TComparerBinaryHash@D@234@@tl@3@PAUIBinArchive@23@H@Z 10001140 f i plugin_test1.obj
 0001:000001e0       ?mount_add@ILibraryBinTree@libmedia@UModSys@@QAE_NABU?$TString@U?$TSCoreConst@D@su@tl@UModSys@@U?$TComparerBinaryHash@D@234@@tl@3@HPAUIBinArchive@23@H@Z 100011e0 f i plugin_test1.obj
 0001:00000280       ?layer_push@ILibraryLayered@libmedia@UModSys@@QAE_NPAUILibrary@23@HABU?$TString@U?$TSCoreConst@D@su@tl@UModSys@@U?$TComparerBinaryHash@D@234@@tl@3@@Z 10001280 f i plugin_test1.obj
 0001:00000310       ??1SLayer@ILibraryLayered@libmedia@UModSys@@QAE@XZ 10001310 f i plugin_test1.obj
 0001:00000310       ??1SPoint@ILibraryBinTree@libmedia@UModSys@@QAE@XZ 10001310 f i plugin_test1.obj
 0001:00000330       ?s@SFrameDataOut@libui@UModSys@@QBEXQBD@Z 10001330 f i plugin_test1.obj
 0001:00000370       ?set_info@IImage@lib2d@UModSys@@QAE_NW4eImageType@23@HHPBD@Z 10001370 f i plugin_test1.obj
 0001:000003a0       ??1SMaterialTexture@lib3d@UModSys@@QAE@XZ 100013a0 f i plugin_test1.obj
 0001:000003c0       ??0SMaterialTexture@lib3d@UModSys@@QAE@XZ 100013c0 f i plugin_test1.obj
 0001:00000400       ??_GIRoot@core@UModSys@@UAEPAXI@Z 10001400 f i plugin_test1.obj
 0001:00000400       ??_EIRoot@core@UModSys@@UAEPAXI@Z 10001400 f i  CIL library: CIL module
 0001:00000420       ?root_get_interface_info@RTest1_Shell@test1@test@modules@UModSys@@UBEABUSUniquePointerInfo@core@5@XZ 10001420 f i plugin_test1.obj
 0001:00000430       ?root_get_interface_type@RTest1_Shell@test1@test@modules@UModSys@@UBEPBUSUniquePointerInfo@core@5@XZ 10001430 f i plugin_test1.obj
 0001:00000440       ?root_get_other_interface@RTest1_Shell@test1@test@modules@UModSys@@UBEPBUIRoot@core@5@PBUSUniquePointerInfo@75@@Z 10001440 f i plugin_test1.obj
 0001:00000440       ?root_get_other_interface@RTest1_Shell@test1@test@modules@UModSys@@UAEPAUIRoot@core@5@PBUSUniquePointerInfo@75@@Z 10001440 f i plugin_test1.obj
 0001:00000470       ?root_is_interface_supported@RTest1_Shell@test1@test@modules@UModSys@@UBE_NPBUSUniquePointerInfo@core@5@@Z 10001470 f i plugin_test1.obj
 0001:000004b0       ?ref_add@RTest1_Shell@test1@test@modules@UModSys@@UBEXXZ 100014b0 f i plugin_test1.obj
 0001:000004c0       ?ref_remove@RTest1_Shell@test1@test@modules@UModSys@@UBEXXZ 100014c0 f i plugin_test1.obj
 0001:000004d0       ?ref_links@RTest1_Shell@test1@test@modules@UModSys@@UBEHXZ 100014d0 f i plugin_test1.obj
 0001:000004e0       ?ref_weak@RTest1_Shell@test1@test@modules@UModSys@@UBE_NAAUWeakPointer@IRefObject@core@5@@Z 100014e0 f i plugin_test1.obj
 0001:00000500       ?suicide@RTest1_Shell@test1@test@modules@UModSys@@UAEXXZ 10001500 f i plugin_test1.obj
 0001:00000510       ?set@VertexPC@UI_Info@RTest1_Shell@test1@test@modules@UModSys@@QAEXABU?$TVector3@N@math3d@7@ABU?$TVector3@M@97@@Z 10001510 f i plugin_test1.obj
 0001:000005e0       ??0UI_Info@RTest1_Shell@test1@test@modules@UModSys@@QAE@AAU12345@@Z 100015e0 f i plugin_test1.obj
 0001:00000680       ??0RTest1_Shell@test1@test@modules@UModSys@@QAE@PAUIModObject@base@4@@Z 10001680 f i plugin_test1.obj
 0001:000007d0       ??1RTest1_Shell@test1@test@modules@UModSys@@UAE@XZ 100017d0 f i plugin_test1.obj
 0001:00000880       ?connect@RTest1_Shell@test1@test@modules@UModSys@@UAE_NXZ 10001880 f i plugin_test1.obj
 0001:000008a0       ?disconnect@RTest1_Shell@test1@test@modules@UModSys@@UAE_NXZ 100018a0 f i plugin_test1.obj
 0001:000008c0       ?process_tick@RTest1_Shell@test1@test@modules@UModSys@@UAE_NABUSTimeMsec@core@5@@Z 100018c0 f i plugin_test1.obj
 0001:000008f0       ?process_command@RTest1_Shell@test1@test@modules@UModSys@@UAE_NHQBU?$TString@U?$TSCoreConst@D@su@tl@UModSys@@U?$TComparerBinaryHash@D@234@@tl@5@@Z 100018f0 f i plugin_test1.obj
 0001:00000910       ??_GRTest1_Shell@test1@test@modules@UModSys@@UAEPAXI@Z 10001910 f i plugin_test1.obj
 0001:00000910       ??_ERTest1_Shell@test1@test@modules@UModSys@@UAEPAXI@Z 10001910 f i  CIL library: CIL module
 0001:00000930       ?set_value@Prop@Aux@RTest1_Shell@test1@test@modules@UModSys@@UAE_NABUSPropValueR@core@7@@Z 10001930 f i plugin_test1.obj
 0001:000009e0       ?set_value@PropX@Aux@RTest1_Shell@test1@test@modules@UModSys@@UAE_NPBUSUniquePointerInfo@core@7@ABUSPropValueR@97@@Z 100019e0 f i plugin_test1.obj
 0001:00000b50       ??1SFrameCreateParameters@libui@UModSys@@QAE@XZ 10001b50 f i plugin_test1.obj
 0001:00000b70       ??1UI_Info@RTest1_Shell@test1@test@modules@UModSys@@QAE@XZ 10001b70 f i plugin_test1.obj
 0001:00000d20       ?get_generated_names@RGenerator@test1@test@modules@UModSys@@UBEHAAUSUniquePtrList@core@5@@Z 10001d20 f i plugin_test1.obj
 0001:00000d40       ?get_generated_types@RGenerator@test1@test@modules@UModSys@@UBEHAAUSUniquePtrList@core@5@PBUSUniquePointerInfo@75@@Z 10001d40 f i plugin_test1.obj
 0001:00000d90       ?generate@RGenerator@test1@test@modules@UModSys@@UAE_NAAU?$TRefObject@UIRefObject@core@UModSys@@U?$TRefObjectFunc@UIRefObject@core@UModSys@@@tl@3@@tl@5@PBUSUniquePointerInfo@core@5@ABUSParameters@95@@Z 10001d90 f i plugin_test1.obj
 0001:00000e50       ?root_get_interface_info@RGenerator@test1@test@modules@UModSys@@UBEABUSUniquePointerInfo@core@5@XZ 10001e50 f i plugin_test1.obj
 0001:00000e60       ?root_get_interface_type@RGenerator@test1@test@modules@UModSys@@UBEPBUSUniquePointerInfo@core@5@XZ 10001e60 f i plugin_test1.obj
 0001:00000e70       ?root_get_other_interface@RGenerator@test1@test@modules@UModSys@@UBEPBUIRoot@core@5@PBUSUniquePointerInfo@75@@Z 10001e70 f i plugin_test1.obj
 0001:00000e70       ?root_get_other_interface@RGenerator@test1@test@modules@UModSys@@UAEPAUIRoot@core@5@PBUSUniquePointerInfo@75@@Z 10001e70 f i plugin_test1.obj
 0001:00000eb0       ?root_is_interface_supported@RGenerator@test1@test@modules@UModSys@@UBE_NPBUSUniquePointerInfo@core@5@@Z 10001eb0 f i plugin_test1.obj
 0001:00000ef0       ?get_uid@RGenerator@test1@test@modules@UModSys@@UBEPBUSUniquePointerInfo@core@5@XZ 10001ef0 f i plugin_test1.obj
 0001:00000f00       ?do_open@RModuleReg@test1@test@modules@UModSys@@UAE_NXZ 10001f00 f i plugin_test1.obj
 0001:00000f30       ?do_close@RModuleReg@test1@test@modules@UModSys@@UAE_NXZ 10001f30 f i plugin_test1.obj
 0001:00000f60       ??_GRModuleReg@test1@test@modules@UModSys@@UAEPAXI@Z 10001f60 f i plugin_test1.obj
 0001:00000f60       ??_ERModuleReg@test1@test@modules@UModSys@@UAEPAXI@Z 10001f60 f i  CIL library: CIL module
 0001:00000f90       ??0?$TString@U?$TSCoreConst@D@su@tl@UModSys@@U?$TComparerBinaryHash@D@234@@tl@UModSys@@QAE@PBD@Z 10001f90 f i plugin_test1.obj
 0001:00000fe0       ??8?$TString@U?$TSCoreConst@D@su@tl@UModSys@@U?$TComparerBinaryHash@D@234@@tl@UModSys@@QBE_NPBD@Z 10001fe0 f i plugin_test1.obj
 0001:00001010       ??4?$TString@U?$TSCoreShared@USIMemAlloc@core@UModSys@@D@su@tl@UModSys@@U?$TComparerBinaryHash@D@234@@tl@UModSys@@QAEABU012@ABU012@@Z 10002010 f i plugin_test1.obj
 0001:00001040       ?normalize@?$TVector3@N@math3d@UModSys@@QAENXZ 10002040 f i plugin_test1.obj
 0001:000010a0       ??4?$TRefObject@UIRenderDriver@lib2d@UModSys@@U?$TRefObjectFunc@UIRenderDriver@lib2d@UModSys@@@tl@3@@tl@UModSys@@QAEABU012@PAUIRenderDriver@lib2d@2@@Z 100020a0 f i plugin_test1.obj
 0001:000010a0       ??4?$TRefObject@URFrame_Common@frames@ui@modules@UModSys@@U?$TRefObjectFunc@URFrame_Common@frames@ui@modules@UModSys@@@tl@5@@tl@UModSys@@QAEABU012@PAURFrame_Common@frames@ui@modules@2@@Z 100020a0 f i umodsys_lib_libui:umodsys.mod.ui.frames.obj
 0001:000010a0       ??4?$TRefObject@UIRefObject@core@UModSys@@U?$TRefObjectFunc@UIRefObject@core@UModSys@@@tl@3@@tl@UModSys@@QAEABU012@PAUIRefObject@core@2@@Z 100020a0 f i plugin_test1.obj
 0001:000010c0       ??0?$TMaterialST@$00@lib3d@UModSys@@QAE@XZ 100020c0 f i plugin_test1.obj
 0001:00001140       ??0?$TParametersA@$0EAA@@core@UModSys@@QAE@XZ 10002140 f i plugin_test1.obj
 0001:00001170       ?info_release@?$TSCoreShared@USIMemAlloc@core@UModSys@@D@su@tl@UModSys@@QAEXXZ 10002170 f i plugin_test1.obj
 0001:000011f0       ?info_new@?$TSCoreShared@USIMemAlloc@core@UModSys@@D@su@tl@UModSys@@QAE_NPBDI@Z 100021f0 f i plugin_test1.obj
 0001:000012a0       ?get_null@?$TSCoreShared@USIMemAlloc@core@UModSys@@D@su@tl@UModSys@@SAPAU?$TSharedStringInfo@DUSIMemAlloc@core@UModSys@@@234@XZ 100022a0 f i plugin_test1.obj
 0001:000012e0       ?mult3@?$TMatrix44@N@math3d@UModSys@@QAEXABU123@0@Z 100022e0 f i plugin_test1.obj
 0001:000013c0       ?set_rotate_about@?$TMatrix44@N@math3d@UModSys@@QAEXABU?$TVector3@N@23@N@Z 100023c0 f i plugin_test1.obj
 0001:00001500       ?set_ER@?$TMatrix44@N@math3d@UModSys@@QAEXN@Z 10002500 f i plugin_test1.obj
 0001:00001530       ?set_inversed@?$TMatrix44@N@math3d@UModSys@@QAE_NABU123@@Z 10002530 f i plugin_test1.obj
 0001:00001910       ?obj_delete@?$TRefObjectLinksModObject@URGeneral@object_camera@stdlib@lib3d@modules@UModSys@@UIModObject@base@6@@tl@UModSys@@QBEXPAURGeneral@object_camera@stdlib@lib3d@modules@3@@Z 10002910 f i umodsys_lib_lib3d:umodsys.mod.3d.stdlib.obj
 0001:00001910       ?obj_delete@?$TRefObjectLinksModObject@URTest1_Shell@test1@test@modules@UModSys@@UIModObject@base@5@@tl@UModSys@@QBEXPAURTest1_Shell@test1@test@modules@3@@Z 10002910 f i plugin_test1.obj
 0001:00001910       ?obj_delete@?$TRefObjectLinksModObject@URMultiImage@stdlib@lib2d@modules@UModSys@@UIModObject@base@5@@tl@UModSys@@QBEXPAURMultiImage@stdlib@lib2d@modules@3@@Z 10002910 f i umodsys_lib_lib2d:umodsys.mod.2d.stdlib.obj
 0001:00001910       ?obj_delete@?$TRefObjectLinksModObject@URImage_Memory@stdlib@lib2d@modules@UModSys@@UIModObject@base@5@@tl@UModSys@@QBEXPAURImage_Memory@stdlib@lib2d@modules@3@@Z 10002910 f i umodsys_lib_lib2d:umodsys.mod.2d.stdlib.obj
 0001:00001910       ?obj_delete@?$TRefObjectLinksModObject@URVisualizerScene@stdlib@lib3d@modules@UModSys@@UIModObject@base@5@@tl@UModSys@@QBEXPAURVisualizerScene@stdlib@lib3d@modules@3@@Z 10002910 f i umodsys_lib_lib3d:umodsys.mod.3d.stdlib.obj
 0001:00001910       ?obj_delete@?$TRefObjectLinksModObject@URBinArchiveFrameClient_ZIP@zlib@media@modules@UModSys@@UIModObject@base@5@@tl@UModSys@@QBEXPAURBinArchiveFrameClient_ZIP@zlib@media@modules@3@@Z 10002910 f i umodsys_lib_libmedia:umodsys.mod.media.zlib.obj
 0001:00001910       ?obj_delete@?$TRefObjectLinksModObject@URMediaFilter@images_std@media@modules@UModSys@@UIModObject@base@5@@tl@UModSys@@QBEXPAURMediaFilter@images_std@media@modules@3@@Z 10002910 f i umodsys_lib_libmedia:umodsys.mod.media.images_std.obj
 0001:00001910       ?obj_delete@?$TRefObjectLinksModObject@URImageFactory_Memory@stdlib@lib2d@modules@UModSys@@UIModObject@base@5@@tl@UModSys@@QBEXPAURImageFactory_Memory@stdlib@lib2d@modules@3@@Z 10002910 f i umodsys_lib_lib2d:umodsys.mod.2d.stdlib.obj
 0001:00001910       ?obj_delete@?$TRefObjectLinksModObject@URTerminal@SDL_GL@ui@modules@UModSys@@UIModObject@base@5@@tl@UModSys@@QBEXPAURTerminal@SDL_GL@ui@modules@3@@Z 10002910 f i umodsys_lib_libui:umodsys.mod.ui.SDL_GL.obj
 0001:00001910       ?obj_delete@?$TRefObjectLinksModObject@URSerializeWriter@serialize_json@media@modules@UModSys@@UIModObject@base@5@@tl@UModSys@@QBEXPAURSerializeWriter@serialize_json@media@modules@3@@Z 10002910 f i umodsys_lib_libmedia:umodsys.mod.media.serialize_json.obj
 0001:00001910       ?obj_delete@?$TRefObjectLinksModObject@URGeneral@object_primitive@stdlib@lib3d@modules@UModSys@@UIModObject@base@6@@tl@UModSys@@QBEXPAURGeneral@object_primitive@stdlib@lib3d@modules@3@@Z 10002910 f i umodsys_lib_lib3d:umodsys.mod.3d.stdlib.obj
 0001:00001910       ?obj_delete@?$TRefObjectLinksModObject@URVisualSceneMapper_Direct@stdlib@lib3d@modules@UModSys@@UIModObject@base@5@@tl@UModSys@@QBEXPAURVisualSceneMapper_Direct@stdlib@lib3d@modules@3@@Z 10002910 f i umodsys_lib_lib3d:umodsys.mod.3d.stdlib.obj
 0001:00001910       ?obj_delete@?$TRefObjectLinksModObject@URSerializeReader@serialize_json@media@modules@UModSys@@UIModObject@base@5@@tl@UModSys@@QBEXPAURSerializeReader@serialize_json@media@modules@3@@Z 10002910 f i umodsys_lib_libmedia:umodsys.mod.media.serialize_json.obj
 0001:00001910       ?obj_delete@?$TRefObjectLinksModObject@URTerminal@SDL_core@ui@modules@UModSys@@UIModObject@base@5@@tl@UModSys@@QBEXPAURTerminal@SDL_core@ui@modules@3@@Z 10002910 f i umodsys_lib_libui:umodsys.mod.ui.SDL_core.obj
 0001:00001910       ?obj_delete@?$TRefObjectLinksModObject@URRenderer@stdlib@lib3d@modules@UModSys@@UIModObject@base@5@@tl@UModSys@@QBEXPAURRenderer@stdlib@lib3d@modules@3@@Z 10002910 f i umodsys_lib_lib3d:umodsys.mod.3d.stdlib.obj
 0001:00001910       ?obj_delete@?$TRefObjectLinksModObject@URCollector@frames@ui@modules@UModSys@@UIModObject@base@5@@tl@UModSys@@QBEXPAURCollector@frames@ui@modules@3@@Z 10002910 f i umodsys_lib_libui:umodsys.mod.ui.frames.obj
 0001:00001980       ??$generate_type@UIBinArchive@libmedia@UModSys@@@RTest1_Shell@test1@test@modules@UModSys@@SA?AU?$TRefObject@UIBinArchive@libmedia@UModSys@@U?$TRefObjectFunc@UIBinArchive@libmedia@UModSys@@@tl@3@@tl@4@ABU?$TString@U?$TSCoreConst@D@su@tl@UModSys@@U?$TComparerBinaryHash@D@234@@64@ABUSParameters@core@4@PBD@Z 10002980 f i plugin_test1.obj
 0001:00001ae0       ??$generate_type@UIClient@IBinArchiveFrame@libmedia@UModSys@@@RTest1_Shell@test1@test@modules@UModSys@@SA?AU?$TRefObject@UIClient@IBinArchiveFrame@libmedia@UModSys@@U?$TRefObjectFunc@UIClient@IBinArchiveFrame@libmedia@UModSys@@@tl@4@@tl@4@ABU?$TString@U?$TSCoreConst@D@su@tl@UModSys@@U?$TComparerBinaryHash@D@234@@64@ABUSParameters@core@4@PBD@Z 10002ae0 f i plugin_test1.obj
 0001:00001c40       ??$add@U?$TSCoreConst@D@su@tl@UModSys@@U?$TComparerBinaryHash@D@234@@SParameters@core@UModSys@@QAE_NPBDABU?$TString@U?$TSCoreConst@D@su@tl@UModSys@@U?$TComparerBinaryHash@D@234@@tl@2@@Z 10002c40 f i plugin_test1.obj
 0001:00001ca0       ??$generate_type@UIBinArchiveFrame@libmedia@UModSys@@@RTest1_Shell@test1@test@modules@UModSys@@SA?AU?$TRefObject@UIBinArchiveFrame@libmedia@UModSys@@U?$TRefObjectFunc@UIBinArchiveFrame@libmedia@UModSys@@@tl@3@@tl@4@ABU?$TString@U?$TSCoreConst@D@su@tl@UModSys@@U?$TComparerBinaryHash@D@234@@64@ABUSParameters@core@4@PBD@Z 10002ca0 f i plugin_test1.obj
 0001:00001e00       ??$generate_type@UIBinObjFilter@libmedia@UModSys@@@RTest1_Shell@test1@test@modules@UModSys@@SA?AU?$TRefObject@UIBinObjFilter@libmedia@UModSys@@U?$TRefObjectFunc@UIBinObjFilter@libmedia@UModSys@@@tl@3@@tl@4@ABU?$TString@U?$TSCoreConst@D@su@tl@UModSys@@U?$TComparerBinaryHash@D@234@@64@ABUSParameters@core@4@PBD@Z 10002e00 f i plugin_test1.obj
 0001:00001f70       ??$generate_type@UIUtilities@libmedia@UModSys@@@RTest1_Shell@test1@test@modules@UModSys@@SA?AU?$TRefObject@UIUtilities@libmedia@UModSys@@U?$TRefObjectFunc@UIUtilities@libmedia@UModSys@@@tl@3@@tl@4@ABU?$TString@U?$TSCoreConst@D@su@tl@UModSys@@U?$TComparerBinaryHash@D@234@@64@ABUSParameters@core@4@PBD@Z 10002f70 f i plugin_test1.obj
 0001:000020d0       ??$generate_type@UILibraryBinTree@libmedia@UModSys@@@RTest1_Shell@test1@test@modules@UModSys@@SA?AU?$TRefObject@UILibraryBinTree@libmedia@UModSys@@U?$TRefObjectFunc@UILibraryBinTree@libmedia@UModSys@@@tl@3@@tl@4@ABU?$TString@U?$TSCoreConst@D@su@tl@UModSys@@U?$TComparerBinaryHash@D@234@@64@ABUSParameters@core@4@PBD@Z 100030d0 f i plugin_test1.obj
 0001:00002230       ??$generate_type@UILibraryObjFilter@libmedia@UModSys@@@RTest1_Shell@test1@test@modules@UModSys@@SA?AU?$TRefObject@UILibraryObjFilter@libmedia@UModSys@@U?$TRefObjectFunc@UILibraryObjFilter@libmedia@UModSys@@@tl@3@@tl@4@ABU?$TString@U?$TSCoreConst@D@su@tl@UModSys@@U?$TComparerBinaryHash@D@234@@64@ABUSParameters@core@4@PBD@Z 10003230 f i plugin_test1.obj
 0001:00002390       ??$generate_type@UILibraryLayered@libmedia@UModSys@@@RTest1_Shell@test1@test@modules@UModSys@@SA?AU?$TRefObject@UILibraryLayered@libmedia@UModSys@@U?$TRefObjectFunc@UILibraryLayered@libmedia@UModSys@@@tl@3@@tl@4@ABU?$TString@U?$TSCoreConst@D@su@tl@UModSys@@U?$TComparerBinaryHash@D@234@@64@ABUSParameters@core@4@PBD@Z 10003390 f i plugin_test1.obj
 0001:000024f0       ??$generate_type@UILibraryObjCache@libmedia@UModSys@@@RTest1_Shell@test1@test@modules@UModSys@@SA?AU?$TRefObject@UILibraryObjCache@libmedia@UModSys@@U?$TRefObjectFunc@UILibraryObjCache@libmedia@UModSys@@@tl@3@@tl@4@ABU?$TString@U?$TSCoreConst@D@su@tl@UModSys@@U?$TComparerBinaryHash@D@234@@64@ABUSParameters@core@4@PBD@Z 100034f0 f i plugin_test1.obj
 0001:00002650       ??$generate_type@UILibraryBinCache@libmedia@UModSys@@@RTest1_Shell@test1@test@modules@UModSys@@SA?AU?$TRefObject@UILibraryBinCache@libmedia@UModSys@@U?$TRefObjectFunc@UILibraryBinCache@libmedia@UModSys@@@tl@3@@tl@4@ABU?$TString@U?$TSCoreConst@D@su@tl@UModSys@@U?$TComparerBinaryHash@D@234@@64@ABUSParameters@core@4@PBD@Z 10003650 f i plugin_test1.obj
 0001:000027b0       ??$generate_type@UICollector@libui@UModSys@@@RTest1_Shell@test1@test@modules@UModSys@@SA?AU?$TRefObject@UICollector@libui@UModSys@@U?$TRefObjectFunc@UICollector@libui@UModSys@@@tl@3@@tl@4@ABU?$TString@U?$TSCoreConst@D@su@tl@UModSys@@U?$TComparerBinaryHash@D@234@@64@ABUSParameters@core@4@PBD@Z 100037b0 f i plugin_test1.obj
 0001:00002910       ??$generate_type@UITerminal@libui@UModSys@@@RTest1_Shell@test1@test@modules@UModSys@@SA?AU?$TRefObject@UITerminal@libui@UModSys@@U?$TRefObjectFunc@UITerminal@libui@UModSys@@@tl@3@@tl@4@ABU?$TString@U?$TSCoreConst@D@su@tl@UModSys@@U?$TComparerBinaryHash@D@234@@64@ABUSParameters@core@4@PBD@Z 10003910 f i plugin_test1.obj
 0001:00002a70       ??$t_create_handler@UIKeyboardController@libui@UModSys@@@ITerminal@libui@UModSys@@QAE_NAAU?$TRefObject@UIKeyboardController@libui@UModSys@@U?$TRefObjectFunc@UIKeyboardController@libui@UModSys@@@tl@3@@tl@2@PBDPBUSParameters@core@2@@Z 10003a70 f i plugin_test1.obj
 0001:00002b20       ??$t_create_handler@UIMouseController@libui@UModSys@@@ITerminal@libui@UModSys@@QAE_NAAU?$TRefObject@UIMouseController@libui@UModSys@@U?$TRefObjectFunc@UIMouseController@libui@UModSys@@@tl@3@@tl@2@PBDPBUSParameters@core@2@@Z 10003b20 f i plugin_test1.obj
 0001:00002bd0       ??$generate_type@UIRenderer@lib3d@UModSys@@@RTest1_Shell@test1@test@modules@UModSys@@SA?AU?$TRefObject@UIRenderer@lib3d@UModSys@@U?$TRefObjectFunc@UIRenderer@lib3d@UModSys@@@tl@3@@tl@4@ABU?$TString@U?$TSCoreConst@D@su@tl@UModSys@@U?$TComparerBinaryHash@D@234@@64@ABUSParameters@core@4@PBD@Z 10003bd0 f i plugin_test1.obj
 0001:00002d30       ??$t_create_handler@UIRenderDriver@lib3d@UModSys@@@ITerminal@libui@UModSys@@QAE_NAAU?$TRefObject@UIRenderDriver@lib3d@UModSys@@U?$TRefObjectFunc@UIRenderDriver@lib3d@UModSys@@@tl@3@@tl@2@PBDPBUSParameters@core@2@@Z 10003d30 f i plugin_test1.obj
 0001:00002de0       ??$generate_type@UIVisualizerScene@lib3d@UModSys@@@RTest1_Shell@test1@test@modules@UModSys@@SA?AU?$TRefObject@UIVisualizerScene@lib3d@UModSys@@U?$TRefObjectFunc@UIVisualizerScene@lib3d@UModSys@@@tl@3@@tl@4@ABU?$TString@U?$TSCoreConst@D@su@tl@UModSys@@U?$TComparerBinaryHash@D@234@@64@ABUSParameters@core@4@PBD@Z 10003de0 f i plugin_test1.obj
 0001:00002f40       ??$generate_type@UIGeneralObject@lib3d@UModSys@@@RTest1_Shell@test1@test@modules@UModSys@@SA?AU?$TRefObject@UIGeneralObject@lib3d@UModSys@@U?$TRefObjectFunc@UIGeneralObject@lib3d@UModSys@@@tl@3@@tl@4@ABU?$TString@U?$TSCoreConst@D@su@tl@UModSys@@U?$TComparerBinaryHash@D@234@@64@ABUSParameters@core@4@PBD@Z 10003f40 f i plugin_test1.obj
 0001:000030a0       ??$t_ref_get_other_interface@UIVisualObject_Camera@lib3d@UModSys@@U?$TRefObjectFunc@UIVisualObject_Camera@lib3d@UModSys@@@tl@3@@IRefObject@core@UModSys@@QAE_NAAU?$TRefObject@UIVisualObject_Camera@lib3d@UModSys@@U?$TRefObjectFunc@UIVisualObject_Camera@lib3d@UModSys@@@tl@3@@tl@2@@Z 100040a0 f i plugin_test1.obj
 0001:000030e0       ??$shash@D@su@tl@UModSys@@YAIPBDI@Z 100040e0 f i plugin_test1.obj
 0001:00003120       ??1?$TRefObject@UIModObject@base@UModSys@@U?$TModObjectFunc@UIModObject@base@UModSys@@@tl@3@@tl@UModSys@@QAE@XZ 10004120 f i plugin_test1.obj
 0001:00003140       ?mult@?$TMatrix44@N@math3d@UModSys@@QAEXABU123@0@Z 10004140 f i plugin_test1.obj
 0001:00003350       ?get_determinant@?$TMatrix44@N@math3d@UModSys@@QBENXZ 10004350 f i plugin_test1.obj
 0001:00003410       ??$t_ref_get_other_interface@UIStreamReader@libmedia@UModSys@@U?$TRefObjectFunc@UIStreamReader@libmedia@UModSys@@@tl@3@@IRefObject@core@UModSys@@QAE_NAAU?$TRefObject@UIStreamReader@libmedia@UModSys@@U?$TRefObjectFunc@UIStreamReader@libmedia@UModSys@@@tl@3@@tl@2@@Z 10004410 f i plugin_test1.obj
 0001:00003450       ??$t_ref_get_other_interface@UIStreamWriter@libmedia@UModSys@@U?$TRefObjectFunc@UIStreamWriter@libmedia@UModSys@@@tl@3@@IRefObject@core@UModSys@@QAE_NAAU?$TRefObject@UIStreamWriter@libmedia@UModSys@@U?$TRefObjectFunc@UIStreamWriter@libmedia@UModSys@@@tl@3@@tl@2@@Z 10004450 f i plugin_test1.obj
 0001:00003490       ??$t_generate@UIBinArchive@libmedia@UModSys@@@SModuleContext@base@UModSys@@QAE_NAAU?$TRefObject@UIBinArchive@libmedia@UModSys@@U?$TRefObjectFunc@UIBinArchive@libmedia@UModSys@@@tl@3@@tl@2@PBUSUniquePointerInfo@core@2@ABUSParameters@62@@Z 10004490 f i plugin_test1.obj
 0001:00003540       ??$t_generate@UIClient@IBinArchiveFrame@libmedia@UModSys@@@SModuleContext@base@UModSys@@QAE_NAAU?$TRefObject@UIClient@IBinArchiveFrame@libmedia@UModSys@@U?$TRefObjectFunc@UIClient@IBinArchiveFrame@libmedia@UModSys@@@tl@4@@tl@2@PBUSUniquePointerInfo@core@2@ABUSParameters@62@@Z 10004540 f i plugin_test1.obj
 0001:000035f0       ??$t_generate@UIBinArchiveFrame@libmedia@UModSys@@@SModuleContext@base@UModSys@@QAE_NAAU?$TRefObject@UIBinArchiveFrame@libmedia@UModSys@@U?$TRefObjectFunc@UIBinArchiveFrame@libmedia@UModSys@@@tl@3@@tl@2@PBUSUniquePointerInfo@core@2@ABUSParameters@62@@Z 100045f0 f i plugin_test1.obj
 0001:000036a0       ??$t_generate@UIBinObjFilter@libmedia@UModSys@@@SModuleContext@base@UModSys@@QAE_NAAU?$TRefObject@UIBinObjFilter@libmedia@UModSys@@U?$TRefObjectFunc@UIBinObjFilter@libmedia@UModSys@@@tl@3@@tl@2@PBUSUniquePointerInfo@core@2@ABUSParameters@62@@Z 100046a0 f i plugin_test1.obj
 0001:00003750       ??$t_generate@UIUtilities@libmedia@UModSys@@@SModuleContext@base@UModSys@@QAE_NAAU?$TRefObject@UIUtilities@libmedia@UModSys@@U?$TRefObjectFunc@UIUtilities@libmedia@UModSys@@@tl@3@@tl@2@PBUSUniquePointerInfo@core@2@ABUSParameters@62@@Z 10004750 f i plugin_test1.obj
 0001:00003800       ??$t_generate@UILibraryBinTree@libmedia@UModSys@@@SModuleContext@base@UModSys@@QAE_NAAU?$TRefObject@UILibraryBinTree@libmedia@UModSys@@U?$TRefObjectFunc@UILibraryBinTree@libmedia@UModSys@@@tl@3@@tl@2@PBUSUniquePointerInfo@core@2@ABUSParameters@62@@Z 10004800 f i plugin_test1.obj
 0001:000038b0       ??$t_generate@UILibraryObjFilter@libmedia@UModSys@@@SModuleContext@base@UModSys@@QAE_NAAU?$TRefObject@UILibraryObjFilter@libmedia@UModSys@@U?$TRefObjectFunc@UILibraryObjFilter@libmedia@UModSys@@@tl@3@@tl@2@PBUSUniquePointerInfo@core@2@ABUSParameters@62@@Z 100048b0 f i plugin_test1.obj
 0001:00003960       ??$t_generate@UILibraryLayered@libmedia@UModSys@@@SModuleContext@base@UModSys@@QAE_NAAU?$TRefObject@UILibraryLayered@libmedia@UModSys@@U?$TRefObjectFunc@UILibraryLayered@libmedia@UModSys@@@tl@3@@tl@2@PBUSUniquePointerInfo@core@2@ABUSParameters@62@@Z 10004960 f i plugin_test1.obj
 0001:00003a10       ??$t_generate@UILibraryObjCache@libmedia@UModSys@@@SModuleContext@base@UModSys@@QAE_NAAU?$TRefObject@UILibraryObjCache@libmedia@UModSys@@U?$TRefObjectFunc@UILibraryObjCache@libmedia@UModSys@@@tl@3@@tl@2@PBUSUniquePointerInfo@core@2@ABUSParameters@62@@Z 10004a10 f i plugin_test1.obj
 0001:00003ac0       ??$t_generate@UILibraryBinCache@libmedia@UModSys@@@SModuleContext@base@UModSys@@QAE_NAAU?$TRefObject@UILibraryBinCache@libmedia@UModSys@@U?$TRefObjectFunc@UILibraryBinCache@libmedia@UModSys@@@tl@3@@tl@2@PBUSUniquePointerInfo@core@2@ABUSParameters@62@@Z 10004ac0 f i plugin_test1.obj
 0001:00003b70       ??$t_generate@UICollector@libui@UModSys@@@SModuleContext@base@UModSys@@QAE_NAAU?$TRefObject@UICollector@libui@UModSys@@U?$TRefObjectFunc@UICollector@libui@UModSys@@@tl@3@@tl@2@PBUSUniquePointerInfo@core@2@ABUSParameters@62@@Z 10004b70 f i plugin_test1.obj
 0001:00003c20       ??$t_generate@UITerminal@libui@UModSys@@@SModuleContext@base@UModSys@@QAE_NAAU?$TRefObject@UITerminal@libui@UModSys@@U?$TRefObjectFunc@UITerminal@libui@UModSys@@@tl@3@@tl@2@PBUSUniquePointerInfo@core@2@ABUSParameters@62@@Z 10004c20 f i plugin_test1.obj
 0001:00003cd0       ??$t_generate@UIRenderer@lib3d@UModSys@@@SModuleContext@base@UModSys@@QAE_NAAU?$TRefObject@UIRenderer@lib3d@UModSys@@U?$TRefObjectFunc@UIRenderer@lib3d@UModSys@@@tl@3@@tl@2@PBUSUniquePointerInfo@core@2@ABUSParameters@62@@Z 10004cd0 f i plugin_test1.obj
 0001:00003d80       ??$t_generate@UIVisualizerScene@lib3d@UModSys@@@SModuleContext@base@UModSys@@QAE_NAAU?$TRefObject@UIVisualizerScene@lib3d@UModSys@@U?$TRefObjectFunc@UIVisualizerScene@lib3d@UModSys@@@tl@3@@tl@2@PBUSUniquePointerInfo@core@2@ABUSParameters@62@@Z 10004d80 f i plugin_test1.obj
 0001:00003e30       ??$t_generate@UIGeneralObject@lib3d@UModSys@@@SModuleContext@base@UModSys@@QAE_NAAU?$TRefObject@UIGeneralObject@lib3d@UModSys@@U?$TRefObjectFunc@UIGeneralObject@lib3d@UModSys@@@tl@3@@tl@2@PBUSUniquePointerInfo@core@2@ABUSParameters@62@@Z 10004e30 f i plugin_test1.obj
 0001:00003ee0       ??$t_ref_get_other_interface@UIImage@lib2d@UModSys@@U?$TRefObjectFunc@UIImage@lib2d@UModSys@@@tl@3@@IRefObject@core@UModSys@@QAE_NAAU?$TRefObject@UIImage@lib2d@UModSys@@U?$TRefObjectFunc@UIImage@lib2d@UModSys@@@tl@3@@tl@2@@Z 10004ee0 f i plugin_test1.obj
 0001:00003f20       ??$t_ref_get_other_interface@UIImageFactory@lib2d@UModSys@@U?$TRefObjectFunc@UIImageFactory@lib2d@UModSys@@@tl@3@@IRefObject@core@UModSys@@QAE_NAAU?$TRefObject@UIImageFactory@lib2d@UModSys@@U?$TRefObjectFunc@UIImageFactory@lib2d@UModSys@@@tl@3@@tl@2@@Z 10004f20 f i plugin_test1.obj
 0001:00003f60       ??$t_ref_get_other_interface@UIMultiImage@lib2d@UModSys@@U?$TRefObjectFunc@UIMultiImage@lib2d@UModSys@@@tl@3@@IRefObject@core@UModSys@@QAE_NAAU?$TRefObject@UIMultiImage@lib2d@UModSys@@U?$TRefObjectFunc@UIMultiImage@lib2d@UModSys@@@tl@3@@tl@2@@Z 10004f60 f i plugin_test1.obj
 0001:00003fa0       ??$t_ref_get_other_interface@UIBinArchive@libmedia@UModSys@@U?$TRefObjectFunc@UIBinArchive@libmedia@UModSys@@@tl@3@@IRefObject@core@UModSys@@QAE_NAAU?$TRefObject@UIBinArchive@libmedia@UModSys@@U?$TRefObjectFunc@UIBinArchive@libmedia@UModSys@@@tl@3@@tl@2@@Z 10004fa0 f i plugin_test1.obj
 0001:00003fe0       ??$t_ref_get_other_interface@UIClient@IBinArchiveFrame@libmedia@UModSys@@U?$TRefObjectFunc@UIClient@IBinArchiveFrame@libmedia@UModSys@@@tl@4@@IRefObject@core@UModSys@@QAE_NAAU?$TRefObject@UIClient@IBinArchiveFrame@libmedia@UModSys@@U?$TRefObjectFunc@UIClient@IBinArchiveFrame@libmedia@UModSys@@@tl@4@@tl@2@@Z 10004fe0 f i plugin_test1.obj
 0001:00004020       ??$t_ref_get_other_interface@UIBinArchiveFrame@libmedia@UModSys@@U?$TRefObjectFunc@UIBinArchiveFrame@libmedia@UModSys@@@tl@3@@IRefObject@core@UModSys@@QAE_NAAU?$TRefObject@UIBinArchiveFrame@libmedia@UModSys@@U?$TRefObjectFunc@UIBinArchiveFrame@libmedia@UModSys@@@tl@3@@tl@2@@Z 10005020 f i plugin_test1.obj
 0001:00004060       ??$t_ref_get_other_interface@UIBinObjFilter@libmedia@UModSys@@U?$TRefObjectFunc@UIBinObjFilter@libmedia@UModSys@@@tl@3@@IRefObject@core@UModSys@@QAE_NAAU?$TRefObject@UIBinObjFilter@libmedia@UModSys@@U?$TRefObjectFunc@UIBinObjFilter@libmedia@UModSys@@@tl@3@@tl@2@@Z 10005060 f i plugin_test1.obj
 0001:000040a0       ??$t_ref_get_other_interface@UIUtilities@libmedia@UModSys@@U?$TRefObjectFunc@UIUtilities@libmedia@UModSys@@@tl@3@@IRefObject@core@UModSys@@QAE_NAAU?$TRefObject@UIUtilities@libmedia@UModSys@@U?$TRefObjectFunc@UIUtilities@libmedia@UModSys@@@tl@3@@tl@2@@Z 100050a0 f i plugin_test1.obj
 0001:000040e0       ??$t_ref_get_other_interface@UILibraryBinTree@libmedia@UModSys@@U?$TRefObjectFunc@UILibraryBinTree@libmedia@UModSys@@@tl@3@@IRefObject@core@UModSys@@QAE_NAAU?$TRefObject@UILibraryBinTree@libmedia@UModSys@@U?$TRefObjectFunc@UILibraryBinTree@libmedia@UModSys@@@tl@3@@tl@2@@Z 100050e0 f i plugin_test1.obj
 0001:00004120       ??$t_ref_get_other_interface@UILibraryObjFilter@libmedia@UModSys@@U?$TRefObjectFunc@UILibraryObjFilter@libmedia@UModSys@@@tl@3@@IRefObject@core@UModSys@@QAE_NAAU?$TRefObject@UILibraryObjFilter@libmedia@UModSys@@U?$TRefObjectFunc@UILibraryObjFilter@libmedia@UModSys@@@tl@3@@tl@2@@Z 10005120 f i plugin_test1.obj
 0001:00004160       ??$t_ref_get_other_interface@UILibraryLayered@libmedia@UModSys@@U?$TRefObjectFunc@UILibraryLayered@libmedia@UModSys@@@tl@3@@IRefObject@core@UModSys@@QAE_NAAU?$TRefObject@UILibraryLayered@libmedia@UModSys@@U?$TRefObjectFunc@UILibraryLayered@libmedia@UModSys@@@tl@3@@tl@2@@Z 10005160 f i plugin_test1.obj
 0001:000041a0       ??$t_ref_get_other_interface@UILibraryObjCache@libmedia@UModSys@@U?$TRefObjectFunc@UILibraryObjCache@libmedia@UModSys@@@tl@3@@IRefObject@core@UModSys@@QAE_NAAU?$TRefObject@UILibraryObjCache@libmedia@UModSys@@U?$TRefObjectFunc@UILibraryObjCache@libmedia@UModSys@@@tl@3@@tl@2@@Z 100051a0 f i plugin_test1.obj
 0001:000041e0       ??$t_ref_get_other_interface@UILibraryBinCache@libmedia@UModSys@@U?$TRefObjectFunc@UILibraryBinCache@libmedia@UModSys@@@tl@3@@IRefObject@core@UModSys@@QAE_NAAU?$TRefObject@UILibraryBinCache@libmedia@UModSys@@U?$TRefObjectFunc@UILibraryBinCache@libmedia@UModSys@@@tl@3@@tl@2@@Z 100051e0 f i plugin_test1.obj
 0001:00004220       ??$t_ref_get_other_interface@UICollector@libui@UModSys@@U?$TRefObjectFunc@UICollector@libui@UModSys@@@tl@3@@IRefObject@core@UModSys@@QAE_NAAU?$TRefObject@UICollector@libui@UModSys@@U?$TRefObjectFunc@UICollector@libui@UModSys@@@tl@3@@tl@2@@Z 10005220 f i plugin_test1.obj
 0001:00004260       ??$t_ref_get_other_interface@UITerminal@libui@UModSys@@U?$TRefObjectFunc@UITerminal@libui@UModSys@@@tl@3@@IRefObject@core@UModSys@@QAE_NAAU?$TRefObject@UITerminal@libui@UModSys@@U?$TRefObjectFunc@UITerminal@libui@UModSys@@@tl@3@@tl@2@@Z 10005260 f i plugin_test1.obj
 0001:000042a0       ??$t_ref_get_other_interface@UIRenderer@lib3d@UModSys@@U?$TRefObjectFunc@UIRenderer@lib3d@UModSys@@@tl@3@@IRefObject@core@UModSys@@QAE_NAAU?$TRefObject@UIRenderer@lib3d@UModSys@@U?$TRefObjectFunc@UIRenderer@lib3d@UModSys@@@tl@3@@tl@2@@Z 100052a0 f i plugin_test1.obj
 0001:000042e0       ??$t_ref_get_other_interface@UIVisualizerScene@lib3d@UModSys@@U?$TRefObjectFunc@UIVisualizerScene@lib3d@UModSys@@@tl@3@@IRefObject@core@UModSys@@QAE_NAAU?$TRefObject@UIVisualizerScene@lib3d@UModSys@@U?$TRefObjectFunc@UIVisualizerScene@lib3d@UModSys@@@tl@3@@tl@2@@Z 100052e0 f i plugin_test1.obj
 0001:00004320       ??$t_ref_get_other_interface@UIGeneralObject@lib3d@UModSys@@U?$TRefObjectFunc@UIGeneralObject@lib3d@UModSys@@@tl@3@@IRefObject@core@UModSys@@QAE_NAAU?$TRefObject@UIGeneralObject@lib3d@UModSys@@U?$TRefObjectFunc@UIGeneralObject@lib3d@UModSys@@@tl@3@@tl@2@@Z 10005320 f i plugin_test1.obj
 0001:00004360       ?root_get_interface_info@RRenderer@stdlib@lib3d@modules@UModSys@@UBEABUSUniquePointerInfo@core@5@XZ 10005360 f i umodsys_lib_lib3d:umodsys.mod.3d.stdlib.obj
 0001:00004370       ?root_get_interface_type@RRenderer@stdlib@lib3d@modules@UModSys@@UBEPBUSUniquePointerInfo@core@5@XZ 10005370 f i umodsys_lib_lib3d:umodsys.mod.3d.stdlib.obj
 0001:00004380       ?root_get_other_interface@RRenderer@stdlib@lib3d@modules@UModSys@@UAEPAUIRoot@core@5@PBUSUniquePointerInfo@75@@Z 10005380 f i umodsys_lib_lib3d:umodsys.mod.3d.stdlib.obj
 0001:00004380       ?root_get_other_interface@RRenderer@stdlib@lib3d@modules@UModSys@@UBEPBUIRoot@core@5@PBUSUniquePointerInfo@75@@Z 10005380 f i umodsys_lib_lib3d:umodsys.mod.3d.stdlib.obj
 0001:000043b0       ?root_is_interface_supported@RRenderer@stdlib@lib3d@modules@UModSys@@UBE_NPBUSUniquePointerInfo@core@5@@Z 100053b0 f i umodsys_lib_lib3d:umodsys.mod.3d.stdlib.obj
 0001:000043f0       ?ref_links@RSerializeWriter@serialize_json@media@modules@UModSys@@UBEHXZ 100053f0 f i umodsys_lib_libmedia:umodsys.mod.media.serialize_json.obj
 0001:000043f0       ?ref_links@RRenderer@stdlib@lib3d@modules@UModSys@@UBEHXZ 100053f0 f i umodsys_lib_lib3d:umodsys.mod.3d.stdlib.obj
 0001:000043f0       ?ref_links@RVisualSceneMapper_Direct@stdlib@lib3d@modules@UModSys@@UBEHXZ 100053f0 f i umodsys_lib_lib3d:umodsys.mod.3d.stdlib.obj
 0001:00004400       ?root_get_interface_info@RVisualizerScene@stdlib@lib3d@modules@UModSys@@UBEABUSUniquePointerInfo@core@5@XZ 10005400 f i umodsys_lib_lib3d:umodsys.mod.3d.stdlib.obj
 0001:00004410       ?root_get_interface_type@RVisualizerScene@stdlib@lib3d@modules@UModSys@@UBEPBUSUniquePointerInfo@core@5@XZ 10005410 f i umodsys_lib_lib3d:umodsys.mod.3d.stdlib.obj
 0001:00004420       ?root_get_other_interface@RVisualizerScene@stdlib@lib3d@modules@UModSys@@UAEPAUIRoot@core@5@PBUSUniquePointerInfo@75@@Z 10005420 f i umodsys_lib_lib3d:umodsys.mod.3d.stdlib.obj
 0001:00004420       ?root_get_other_interface@RVisualizerScene@stdlib@lib3d@modules@UModSys@@UBEPBUIRoot@core@5@PBUSUniquePointerInfo@75@@Z 10005420 f i umodsys_lib_lib3d:umodsys.mod.3d.stdlib.obj
 0001:00004460       ?root_is_interface_supported@RVisualizerScene@stdlib@lib3d@modules@UModSys@@UBE_NPBUSUniquePointerInfo@core@5@@Z 10005460 f i umodsys_lib_lib3d:umodsys.mod.3d.stdlib.obj
 0001:000044a0       ?suicide@RGeneral@object_camera@stdlib@lib3d@modules@UModSys@@UAEXXZ 100054a0 f i umodsys_lib_lib3d:umodsys.mod.3d.stdlib.obj
 0001:000044a0       ?suicide@RBinArchiveFrameClient_ZIP@zlib@media@modules@UModSys@@UAEXXZ 100054a0 f i umodsys_lib_libmedia:umodsys.mod.media.zlib.obj
 0001:000044a0       ?suicide@RSerializeReader@serialize_json@media@modules@UModSys@@UAEXXZ 100054a0 f i umodsys_lib_libmedia:umodsys.mod.media.serialize_json.obj
 0001:000044a0       ?suicide@RVisualizerScene@stdlib@lib3d@modules@UModSys@@UAEXXZ 100054a0 f i umodsys_lib_lib3d:umodsys.mod.3d.stdlib.obj
 0001:000044a0       ?suicide@RImage_Memory@stdlib@lib2d@modules@UModSys@@UAEXXZ 100054a0 f i umodsys_lib_lib2d:umodsys.mod.2d.stdlib.obj
 0001:000044a0       ?suicide@RImageFactory_Memory@stdlib@lib2d@modules@UModSys@@UAEXXZ 100054a0 f i umodsys_lib_lib2d:umodsys.mod.2d.stdlib.obj
 0001:000044a0       ?suicide@RMultiImage@stdlib@lib2d@modules@UModSys@@UAEXXZ 100054a0 f i umodsys_lib_lib2d:umodsys.mod.2d.stdlib.obj
 0001:000044a0       ?suicide@RTerminal@SDL_core@ui@modules@UModSys@@UAEXXZ 100054a0 f i umodsys_lib_libui:umodsys.mod.ui.SDL_core.obj
 0001:000044a0       ?suicide@RGeneral@object_primitive@stdlib@lib3d@modules@UModSys@@UAEXXZ 100054a0 f i umodsys_lib_lib3d:umodsys.mod.3d.stdlib.obj
 0001:000044a0       ?suicide@RTerminal@SDL_GL@ui@modules@UModSys@@UAEXXZ 100054a0 f i umodsys_lib_libui:umodsys.mod.ui.SDL_GL.obj
 0001:000044b0       ?root_get_interface_info@RVisualSceneMapper_Direct@stdlib@lib3d@modules@UModSys@@UBEABUSUniquePointerInfo@core@5@XZ 100054b0 f i umodsys_lib_lib3d:umodsys.mod.3d.stdlib.obj
 0001:000044c0       ?root_get_interface_type@RVisualSceneMapper_Direct@stdlib@lib3d@modules@UModSys@@UBEPBUSUniquePointerInfo@core@5@XZ 100054c0 f i umodsys_lib_lib3d:umodsys.mod.3d.stdlib.obj
 0001:000044d0       ?root_get_other_interface@RVisualSceneMapper_Direct@stdlib@lib3d@modules@UModSys@@UAEPAUIRoot@core@5@PBUSUniquePointerInfo@75@@Z 100054d0 f i umodsys_lib_lib3d:umodsys.mod.3d.stdlib.obj
 0001:000044d0       ?root_get_other_interface@RVisualSceneMapper_Direct@stdlib@lib3d@modules@UModSys@@UBEPBUIRoot@core@5@PBUSUniquePointerInfo@75@@Z 100054d0 f i umodsys_lib_lib3d:umodsys.mod.3d.stdlib.obj
 0001:00004500       ?root_is_interface_supported@RVisualSceneMapper_Direct@stdlib@lib3d@modules@UModSys@@UBE_NPBUSUniquePointerInfo@core@5@@Z 10005500 f i umodsys_lib_lib3d:umodsys.mod.3d.stdlib.obj
 0001:00004540       ?ref_add@RRenderer@stdlib@lib3d@modules@UModSys@@UBEXXZ 10005540 f i umodsys_lib_lib3d:umodsys.mod.3d.stdlib.obj
 0001:00004540       ?ref_add@RSerializeWriter@serialize_json@media@modules@UModSys@@UBEXXZ 10005540 f i umodsys_lib_libmedia:umodsys.mod.media.serialize_json.obj
 0001:00004540       ?ref_add@RVisualSceneMapper_Direct@stdlib@lib3d@modules@UModSys@@UBEXXZ 10005540 f i umodsys_lib_lib3d:umodsys.mod.3d.stdlib.obj
 0001:00004550       ?ref_weak@RRenderer@stdlib@lib3d@modules@UModSys@@UBE_NAAUWeakPointer@IRefObject@core@5@@Z 10005550 f i umodsys_lib_lib3d:umodsys.mod.3d.stdlib.obj
 0001:00004550       ?ref_weak@RVisualSceneMapper_Direct@stdlib@lib3d@modules@UModSys@@UBE_NAAUWeakPointer@IRefObject@core@5@@Z 10005550 f i umodsys_lib_lib3d:umodsys.mod.3d.stdlib.obj
 0001:00004550       ?ref_weak@RSerializeWriter@serialize_json@media@modules@UModSys@@UBE_NAAUWeakPointer@IRefObject@core@5@@Z 10005550 f i umodsys_lib_libmedia:umodsys.mod.media.serialize_json.obj
 0001:00004570       ?suicide@RVisualSceneMapper_Direct@stdlib@lib3d@modules@UModSys@@UAEXXZ 10005570 f i umodsys_lib_lib3d:umodsys.mod.3d.stdlib.obj
 0001:00004570       ?suicide@RRenderer@stdlib@lib3d@modules@UModSys@@UAEXXZ 10005570 f i umodsys_lib_lib3d:umodsys.mod.3d.stdlib.obj
 0001:00004570       ?suicide@RSerializeWriter@serialize_json@media@modules@UModSys@@UAEXXZ 10005570 f i umodsys_lib_libmedia:umodsys.mod.media.serialize_json.obj
 0001:00004580       ?root_get_interface_info@RGeneral@object_primitive@stdlib@lib3d@modules@UModSys@@UBEABUSUniquePointerInfo@core@6@XZ 10005580 f i umodsys_lib_lib3d:umodsys.mod.3d.stdlib.obj
 0001:00004590       ?root_get_interface_type@RGeneral@object_primitive@stdlib@lib3d@modules@UModSys@@UBEPBUSUniquePointerInfo@core@6@XZ 10005590 f i umodsys_lib_lib3d:umodsys.mod.3d.stdlib.obj
 0001:000045a0       ?root_get_other_interface@RGeneral@object_primitive@stdlib@lib3d@modules@UModSys@@UAEPAUIRoot@core@6@PBUSUniquePointerInfo@86@@Z 100055a0 f i umodsys_lib_lib3d:umodsys.mod.3d.stdlib.obj
 0001:000045a0       ?root_get_other_interface@RGeneral@object_primitive@stdlib@lib3d@modules@UModSys@@UBEPBUIRoot@core@6@PBUSUniquePointerInfo@86@@Z 100055a0 f i umodsys_lib_lib3d:umodsys.mod.3d.stdlib.obj
 0001:000045d0       ?root_is_interface_supported@RGeneral@object_primitive@stdlib@lib3d@modules@UModSys@@UBE_NPBUSUniquePointerInfo@core@6@@Z 100055d0 f i umodsys_lib_lib3d:umodsys.mod.3d.stdlib.obj
 0001:00004610       ?root_get_interface_info@RRender@object_primitive@stdlib@lib3d@modules@UModSys@@UBEABUSUniquePointerInfo@core@6@XZ 10005610 f i umodsys_lib_lib3d:umodsys.mod.3d.stdlib.obj
 0001:00004620       ?root_get_interface_type@RRender@object_primitive@stdlib@lib3d@modules@UModSys@@UBEPBUSUniquePointerInfo@core@6@XZ 10005620 f i umodsys_lib_lib3d:umodsys.mod.3d.stdlib.obj
 0001:00004630       ?root_get_other_interface@RRender@object_primitive@stdlib@lib3d@modules@UModSys@@UBEPBUIRoot@core@6@PBUSUniquePointerInfo@86@@Z 10005630 f i umodsys_lib_lib3d:umodsys.mod.3d.stdlib.obj
 0001:00004630       ?root_get_other_interface@RRender@object_primitive@stdlib@lib3d@modules@UModSys@@UAEPAUIRoot@core@6@PBUSUniquePointerInfo@86@@Z 10005630 f i umodsys_lib_lib3d:umodsys.mod.3d.stdlib.obj
 0001:00004670       ?root_is_interface_supported@RRender@object_primitive@stdlib@lib3d@modules@UModSys@@UBE_NPBUSUniquePointerInfo@core@6@@Z 10005670 f i umodsys_lib_lib3d:umodsys.mod.3d.stdlib.obj
 0001:000046b0       ?ref_remove@RRender@object_primitive@stdlib@lib3d@modules@UModSys@@UBEXXZ 100056b0 f i umodsys_lib_lib3d:umodsys.mod.3d.stdlib.obj
 0001:000046b0       ?ref_remove@RCollector@frames@ui@modules@UModSys@@UBEXXZ 100056b0 f i umodsys_lib_libui:umodsys.mod.ui.frames.obj
 0001:000046c0       ?ref_weak@RCollector@frames@ui@modules@UModSys@@UBE_NAAUWeakPointer@IRefObject@core@5@@Z 100056c0 f i umodsys_lib_libui:umodsys.mod.ui.frames.obj
 0001:000046c0       ?ref_weak@RRender@object_primitive@stdlib@lib3d@modules@UModSys@@UBE_NAAUWeakPointer@IRefObject@core@6@@Z 100056c0 f i umodsys_lib_lib3d:umodsys.mod.3d.stdlib.obj
 0001:000046e0       ?suicide@RRender@object_primitive@stdlib@lib3d@modules@UModSys@@UAEXXZ 100056e0 f i umodsys_lib_lib3d:umodsys.mod.3d.stdlib.obj
 0001:000046f0       ?root_get_interface_info@RVisual@object_primitive@stdlib@lib3d@modules@UModSys@@UBEABUSUniquePointerInfo@core@6@XZ 100056f0 f i umodsys_lib_lib3d:umodsys.mod.3d.stdlib.obj
 0001:00004700       ?root_get_interface_type@RVisual@object_primitive@stdlib@lib3d@modules@UModSys@@UBEPBUSUniquePointerInfo@core@6@XZ 10005700 f i umodsys_lib_lib3d:umodsys.mod.3d.stdlib.obj
 0001:00004710       ?root_get_other_interface@RVisual@object_primitive@stdlib@lib3d@modules@UModSys@@UBEPBUIRoot@core@6@PBUSUniquePointerInfo@86@@Z 10005710 f i umodsys_lib_lib3d:umodsys.mod.3d.stdlib.obj
 0001:00004710       ?root_get_other_interface@RVisual@object_primitive@stdlib@lib3d@modules@UModSys@@UAEPAUIRoot@core@6@PBUSUniquePointerInfo@86@@Z 10005710 f i umodsys_lib_lib3d:umodsys.mod.3d.stdlib.obj
 0001:00004750       ?root_is_interface_supported@RVisual@object_primitive@stdlib@lib3d@modules@UModSys@@UBE_NPBUSUniquePointerInfo@core@6@@Z 10005750 f i umodsys_lib_lib3d:umodsys.mod.3d.stdlib.obj
 0001:00004790       ?ref_add@RVisual@object_primitive@stdlib@lib3d@modules@UModSys@@UBEXXZ 10005790 f i umodsys_lib_lib3d:umodsys.mod.3d.stdlib.obj
 0001:00004790       ?ref_add@RVisual@object_camera@stdlib@lib3d@modules@UModSys@@UBEXXZ 10005790 f i umodsys_lib_lib3d:umodsys.mod.3d.stdlib.obj
 0001:000047a0       ?ref_links@RVisual@object_primitive@stdlib@lib3d@modules@UModSys@@UBEHXZ 100057a0 f i umodsys_lib_lib3d:umodsys.mod.3d.stdlib.obj
 0001:000047a0       ?ref_links@RVisual@object_camera@stdlib@lib3d@modules@UModSys@@UBEHXZ 100057a0 f i umodsys_lib_lib3d:umodsys.mod.3d.stdlib.obj
 0001:000047b0       ?root_get_interface_info@RGeneral@object_camera@stdlib@lib3d@modules@UModSys@@UBEABUSUniquePointerInfo@core@6@XZ 100057b0 f i umodsys_lib_lib3d:umodsys.mod.3d.stdlib.obj
 0001:000047c0       ?root_get_interface_type@RGeneral@object_camera@stdlib@lib3d@modules@UModSys@@UBEPBUSUniquePointerInfo@core@6@XZ 100057c0 f i umodsys_lib_lib3d:umodsys.mod.3d.stdlib.obj
 0001:000047d0       ?root_get_other_interface@RGeneral@object_camera@stdlib@lib3d@modules@UModSys@@UAEPAUIRoot@core@6@PBUSUniquePointerInfo@86@@Z 100057d0 f i umodsys_lib_lib3d:umodsys.mod.3d.stdlib.obj
 0001:000047d0       ?root_get_other_interface@RGeneral@object_camera@stdlib@lib3d@modules@UModSys@@UBEPBUIRoot@core@6@PBUSUniquePointerInfo@86@@Z 100057d0 f i umodsys_lib_lib3d:umodsys.mod.3d.stdlib.obj
 0001:00004800       ?root_is_interface_supported@RGeneral@object_camera@stdlib@lib3d@modules@UModSys@@UBE_NPBUSUniquePointerInfo@core@6@@Z 10005800 f i umodsys_lib_lib3d:umodsys.mod.3d.stdlib.obj
 0001:00004840       ?root_get_interface_info@RVisual@object_camera@stdlib@lib3d@modules@UModSys@@UBEABUSUniquePointerInfo@core@6@XZ 10005840 f i umodsys_lib_lib3d:umodsys.mod.3d.stdlib.obj
 0001:00004850       ?root_get_interface_type@RVisual@object_camera@stdlib@lib3d@modules@UModSys@@UBEPBUSUniquePointerInfo@core@6@XZ 10005850 f i umodsys_lib_lib3d:umodsys.mod.3d.stdlib.obj
 0001:00004860       ?root_get_other_interface@RVisual@object_camera@stdlib@lib3d@modules@UModSys@@UAEPAUIRoot@core@6@PBUSUniquePointerInfo@86@@Z 10005860 f i umodsys_lib_lib3d:umodsys.mod.3d.stdlib.obj
 0001:00004860       ?root_get_other_interface@RVisual@object_camera@stdlib@lib3d@modules@UModSys@@UBEPBUIRoot@core@6@PBUSUniquePointerInfo@86@@Z 10005860 f i umodsys_lib_lib3d:umodsys.mod.3d.stdlib.obj
 0001:000048a0       ?root_is_interface_supported@RVisual@object_camera@stdlib@lib3d@modules@UModSys@@UBE_NPBUSUniquePointerInfo@core@6@@Z 100058a0 f i umodsys_lib_lib3d:umodsys.mod.3d.stdlib.obj
 0001:000048e0       ?ref_remove@RVisual@object_camera@stdlib@lib3d@modules@UModSys@@UBEXXZ 100058e0 f i umodsys_lib_lib3d:umodsys.mod.3d.stdlib.obj
 0001:000048e0       ?ref_remove@RVisual@object_primitive@stdlib@lib3d@modules@UModSys@@UBEXXZ 100058e0 f i umodsys_lib_lib3d:umodsys.mod.3d.stdlib.obj
 0001:00004900       ?ref_weak@RVisual@object_primitive@stdlib@lib3d@modules@UModSys@@UBE_NAAUWeakPointer@IRefObject@core@6@@Z 10005900 f i umodsys_lib_lib3d:umodsys.mod.3d.stdlib.obj
 0001:00004900       ?ref_weak@RVisual@object_camera@stdlib@lib3d@modules@UModSys@@UBE_NAAUWeakPointer@IRefObject@core@6@@Z 10005900 f i umodsys_lib_lib3d:umodsys.mod.3d.stdlib.obj
 0001:00004930       ?suicide@RVisual@object_primitive@stdlib@lib3d@modules@UModSys@@UAEXXZ 10005930 f i umodsys_lib_lib3d:umodsys.mod.3d.stdlib.obj
 0001:00004930       ?suicide@RVisual@object_camera@stdlib@lib3d@modules@UModSys@@UAEXXZ 10005930 f i umodsys_lib_lib3d:umodsys.mod.3d.stdlib.obj
 0001:00004940       ?get_generated_names@RGenerator@stdlib@lib3d@modules@UModSys@@UBEHAAUSUniquePtrList@core@5@@Z 10005940 f i umodsys_lib_lib3d:umodsys.mod.3d.stdlib.obj
 0001:00004990       ?get_generated_types@RGenerator@stdlib@lib3d@modules@UModSys@@UBEHAAUSUniquePtrList@core@5@PBUSUniquePointerInfo@75@@Z 10005990 f i umodsys_lib_lib3d:umodsys.mod.3d.stdlib.obj
 0001:00004ab0       ?generate@RGenerator@stdlib@lib3d@modules@UModSys@@UAE_NAAU?$TRefObject@UIRefObject@core@UModSys@@U?$TRefObjectFunc@UIRefObject@core@UModSys@@@tl@3@@tl@5@PBUSUniquePointerInfo@core@5@ABUSParameters@95@@Z 10005ab0 f i umodsys_lib_lib3d:umodsys.mod.3d.stdlib.obj
 0001:00004b40       ?root_get_interface_info@RGenerator@stdlib@lib3d@modules@UModSys@@UBEABUSUniquePointerInfo@core@5@XZ 10005b40 f i umodsys_lib_lib3d:umodsys.mod.3d.stdlib.obj
 0001:00004b50       ?root_get_interface_type@RGenerator@stdlib@lib3d@modules@UModSys@@UBEPBUSUniquePointerInfo@core@5@XZ 10005b50 f i umodsys_lib_lib3d:umodsys.mod.3d.stdlib.obj
 0001:00004b60       ?root_get_other_interface@RGenerator@stdlib@lib3d@modules@UModSys@@UAEPAUIRoot@core@5@PBUSUniquePointerInfo@75@@Z 10005b60 f i umodsys_lib_lib3d:umodsys.mod.3d.stdlib.obj
 0001:00004b60       ?root_get_other_interface@RGenerator@stdlib@lib3d@modules@UModSys@@UBEPBUIRoot@core@5@PBUSUniquePointerInfo@75@@Z 10005b60 f i umodsys_lib_lib3d:umodsys.mod.3d.stdlib.obj
 0001:00004ba0       ?root_is_interface_supported@RGenerator@stdlib@lib3d@modules@UModSys@@UBE_NPBUSUniquePointerInfo@core@5@@Z 10005ba0 f i umodsys_lib_lib3d:umodsys.mod.3d.stdlib.obj
 0001:00004be0       ?get_uid@RGenerator@stdlib@lib3d@modules@UModSys@@UBEPBUSUniquePointerInfo@core@5@XZ 10005be0 f i umodsys_lib_lib3d:umodsys.mod.3d.stdlib.obj
 0001:00004bf0       ??_GRRenderer@stdlib@lib3d@modules@UModSys@@UAEPAXI@Z 10005bf0 f i umodsys_lib_lib3d:umodsys.mod.3d.stdlib.obj
 0001:00004bf0       ??_ERRenderer@stdlib@lib3d@modules@UModSys@@UAEPAXI@Z 10005bf0 f i  CIL library: CIL module
 0001:00004c10       ??0Scene@IVisualizerScene@lib3d@UModSys@@QAE@ABU0123@@Z 10005c10 f i umodsys_lib_lib3d:umodsys.mod.3d.stdlib.obj
 0001:00004c70       ??_ERVisualizerScene@stdlib@lib3d@modules@UModSys@@UAEPAXI@Z 10005c70 f i  CIL library: CIL module
 0001:00004c70       ??_GRVisualizerScene@stdlib@lib3d@modules@UModSys@@UAEPAXI@Z 10005c70 f i umodsys_lib_lib3d:umodsys.mod.3d.stdlib.obj
 0001:00004c90       ??1IFrame@libui@UModSys@@UAE@XZ 10005c90 f i umodsys_lib_libui:umodsys.mod.ui.frames.obj
 0001:00004c90       ??1IMouseController@libui@UModSys@@UAE@XZ 10005c90 f i umodsys_lib_libui:umodsys.mod.ui.SDL_GL.obj
 0001:00004c90       ??1IClient@IBinArchiveFrame@libmedia@UModSys@@UAE@XZ 10005c90 f i umodsys_lib_libmedia:umodsys.mod.media.zlib.obj
 0001:00004c90       ??1IDialog@libui@UModSys@@UAE@XZ 10005c90 f i umodsys_lib_libui:umodsys.mod.ui.frames.obj
 0001:00004c90       ??1IRenderer@lib3d@UModSys@@UAE@XZ 10005c90 f i umodsys_lib_lib3d:umodsys.mod.3d.stdlib.obj
 0001:00004c90       ??1IShell@base@UModSys@@UAE@XZ 10005c90 f i plugin_test1.obj
 0001:00004c90       ??1ITexture@lib3d@UModSys@@UAE@XZ 10005c90 f i umodsys_lib_libui:umodsys.mod.ui.SDL_GL.obj
 0001:00004c90       ??1IImageFactory@lib2d@UModSys@@UAE@XZ 10005c90 f i umodsys_lib_lib2d:umodsys.mod.2d.stdlib.obj
 0001:00004c90       ??1IVisualizerScene@lib3d@UModSys@@UAE@XZ 10005c90 f i umodsys_lib_lib3d:umodsys.mod.3d.stdlib.obj
 0001:00004c90       ??1IGeneralObject@lib3d@UModSys@@UAE@XZ 10005c90 f i umodsys_lib_lib3d:umodsys.mod.3d.stdlib.obj
 0001:00004c90       ??1IVisualSceneMapper@lib3d@UModSys@@UAE@XZ 10005c90 f i umodsys_lib_lib3d:umodsys.mod.3d.stdlib.obj
 0001:00004c90       ??1ICollector@libui@UModSys@@UAE@XZ 10005c90 f i umodsys_lib_libui:umodsys.mod.ui.frames.obj
 0001:00004c90       ??1IMultiImage@lib2d@UModSys@@UAE@XZ 10005c90 f i umodsys_lib_lib2d:umodsys.mod.2d.stdlib.obj
 0001:00004c90       ??1IImage@lib2d@UModSys@@UAE@XZ 10005c90 f i umodsys_lib_lib2d:umodsys.mod.2d.stdlib.obj
 0001:00004c90       ??1IRenderDriver@lib2d@UModSys@@UAE@XZ 10005c90 f i umodsys_lib_libui:umodsys.mod.ui.SDL_GL.obj
 0001:00004c90       ??1ITerminal@libui@UModSys@@UAE@XZ 10005c90 f i umodsys_lib_libui:umodsys.mod.ui.SDL_GL.obj
 0001:00004c90       ??1IKeyboardController@libui@UModSys@@UAE@XZ 10005c90 f i umodsys_lib_libui:umodsys.mod.ui.SDL_GL.obj
 0001:00004c90       ??1ISerializeReader@libmedia@UModSys@@UAE@XZ 10005c90 f i umodsys_lib_libmedia:umodsys.mod.media.serialize_json.obj
 0001:00004c90       ??1ISerializeWriter@libmedia@UModSys@@UAE@XZ 10005c90 f i umodsys_lib_libmedia:umodsys.mod.media.serialize_json.obj
 0001:00004c90       ??1IRenderDriver@lib3d@UModSys@@UAE@XZ 10005c90 f i umodsys_lib_libui:umodsys.mod.ui.SDL_GL.obj
 0001:00004c90       ??1IVertexArray@lib3d@UModSys@@UAE@XZ 10005c90 f i umodsys_lib_libui:umodsys.mod.ui.SDL_GL.obj
 0001:00004ca0       ??_GRVisualSceneMapper_Direct@stdlib@lib3d@modules@UModSys@@UAEPAXI@Z 10005ca0 f i umodsys_lib_lib3d:umodsys.mod.3d.stdlib.obj
 0001:00004ca0       ??_ERVisualSceneMapper_Direct@stdlib@lib3d@modules@UModSys@@UAEPAXI@Z 10005ca0 f i  CIL library: CIL module
 0001:00004cc0       ??_ERGeneral@object_camera@stdlib@lib3d@modules@UModSys@@UAEPAXI@Z 10005cc0 f i  CIL library: CIL module
 0001:00004cc0       ??_GRGeneral@object_camera@stdlib@lib3d@modules@UModSys@@UAEPAXI@Z 10005cc0 f i umodsys_lib_lib3d:umodsys.mod.3d.stdlib.obj
 0001:00004ce0       ??_GRVisual@object_camera@stdlib@lib3d@modules@UModSys@@UAEPAXI@Z 10005ce0 f i umodsys_lib_lib3d:umodsys.mod.3d.stdlib.obj
 0001:00004ce0       ??_ERVisual@object_camera@stdlib@lib3d@modules@UModSys@@UAEPAXI@Z 10005ce0 f i  CIL library: CIL module
 0001:00004d00       ??1IBinObjFilter@libmedia@UModSys@@UAE@XZ 10005d00 f i plugin_test1.obj
 0001:00004d00       ??1IVisualObject_Brush@lib3d@UModSys@@UAE@XZ 10005d00 f i umodsys_lib_lib3d:umodsys.mod.3d.stdlib.obj
 0001:00004d00       ??1IVisualObject_Camera@lib3d@UModSys@@UAE@XZ 10005d00 f i umodsys_lib_lib3d:umodsys.mod.3d.stdlib.obj
 0001:00004d50       ??_ERGeneral@object_primitive@stdlib@lib3d@modules@UModSys@@UAEPAXI@Z 10005d50 f i  CIL library: CIL module
 0001:00004d50       ??_GRGeneral@object_primitive@stdlib@lib3d@modules@UModSys@@UAEPAXI@Z 10005d50 f i umodsys_lib_lib3d:umodsys.mod.3d.stdlib.obj
 0001:00004d70       ??_GRRender@object_primitive@stdlib@lib3d@modules@UModSys@@UAEPAXI@Z 10005d70 f i umodsys_lib_lib3d:umodsys.mod.3d.stdlib.obj
 0001:00004d70       ??_ERRender@object_primitive@stdlib@lib3d@modules@UModSys@@UAEPAXI@Z 10005d70 f i  CIL library: CIL module
 0001:00004d90       ??1IRenderObject_Brush@lib3d@UModSys@@UAE@XZ 10005d90 f i umodsys_lib_lib3d:umodsys.mod.3d.stdlib.obj
 0001:00004de0       ??_GRVisual@object_primitive@stdlib@lib3d@modules@UModSys@@UAEPAXI@Z 10005de0 f i umodsys_lib_lib3d:umodsys.mod.3d.stdlib.obj
 0001:00004de0       ??_ERVisual@object_primitive@stdlib@lib3d@modules@UModSys@@UAEPAXI@Z 10005de0 f i  CIL library: CIL module
 0001:00004e00       ?do_open@RModuleReg@stdlib@lib3d@modules@UModSys@@UAE_NXZ 10005e00 f i umodsys_lib_lib3d:umodsys.mod.3d.stdlib.obj
 0001:00004e10       ?do_close@RModuleReg@stdlib@lib3d@modules@UModSys@@UAE_NXZ 10005e10 f i umodsys_lib_lib3d:umodsys.mod.3d.stdlib.obj
 0001:00004e20       ??_ERModuleReg@stdlib@lib3d@modules@UModSys@@UAEPAXI@Z 10005e20 f i  CIL library: CIL module
 0001:00004e20       ??_GRModuleReg@stdlib@lib3d@modules@UModSys@@UAEPAXI@Z 10005e20 f i umodsys_lib_lib3d:umodsys.mod.3d.stdlib.obj
 0001:00004e50       ?normalized@?$TVector3@N@math3d@UModSys@@QBE?AU123@XZ 10005e50 f i umodsys_lib_lib3d:umodsys.mod.3d.stdlib.obj
 0001:00004eb0       ?from_3pr@?$TPlane3@N@math3d@UModSys@@QAEXABU?$TVector3@N@23@00@Z 10005eb0 f i umodsys_lib_lib3d:umodsys.mod.3d.stdlib.obj
 0001:00004f20       ??1?$TRStackSocket@PAUIVisualObject@lib3d@UModSys@@U?$TDynarrayDynamic@PAUIVisualObject@lib3d@UModSys@@U?$TAllocator@USIMemAlloc@core@UModSys@@USCountCalcPower2@23@@tl@3@@tl@3@@tl@UModSys@@QAE@XZ 10005f20 f i umodsys_lib_lib3d:umodsys.mod.3d.stdlib.obj
 0001:00004f30       ?isempty@?$TRStackSocket@PAUIVisualObject@lib3d@UModSys@@U?$TDynarrayDynamic@PAUIVisualObject@lib3d@UModSys@@U?$TAllocator@USIMemAlloc@core@UModSys@@USCountCalcPower2@23@@tl@3@@tl@3@@tl@UModSys@@UBE_NXZ 10005f30 f i umodsys_lib_lib3d:umodsys.mod.3d.stdlib.obj
 0001:00004f40       ?isfull@?$TRStackSocket@PAUIVisualObject@lib3d@UModSys@@U?$TDynarrayDynamic@PAUIVisualObject@lib3d@UModSys@@U?$TAllocator@USIMemAlloc@core@UModSys@@USCountCalcPower2@23@@tl@3@@tl@3@@tl@UModSys@@UBE_NXZ 10005f40 f i umodsys_lib_lib3d:umodsys.mod.3d.stdlib.obj
 0001:00004f50       ?push@?$TRStackSocket@PAUIVisualObject@lib3d@UModSys@@U?$TDynarrayDynamic@PAUIVisualObject@lib3d@UModSys@@U?$TAllocator@USIMemAlloc@core@UModSys@@USCountCalcPower2@23@@tl@3@@tl@3@@tl@UModSys@@UAE_NABQAUIVisualObject@lib3d@3@@Z 10005f50 f i umodsys_lib_lib3d:umodsys.mod.3d.stdlib.obj
 0001:00004f90       ?pop@?$TRStackSocket@PAUIVisualObject@lib3d@UModSys@@U?$TDynarrayDynamic@PAUIVisualObject@lib3d@UModSys@@U?$TAllocator@USIMemAlloc@core@UModSys@@USCountCalcPower2@23@@tl@3@@tl@3@@tl@UModSys@@UAE_NAAPAUIVisualObject@lib3d@3@@Z 10005f90 f i umodsys_lib_lib3d:umodsys.mod.3d.stdlib.obj
 0001:00004fc0       ?Free@?$TDynarray@U?$TDynarrayHolderDynamic@PAUIVisualObject@lib3d@UModSys@@U?$TAllocator@USIMemAlloc@core@UModSys@@USCountCalcPower2@23@@tl@3@@tl@UModSys@@@tl@UModSys@@QAE_NXZ 10005fc0 f i umodsys_lib_lib3d:umodsys.mod.3d.stdlib.obj
 0001:00005020       ?ResizeRel@?$TDynarray@U?$TDynarrayHolderDynamic@UScene@IVisualizerScene@lib3d@UModSys@@U?$TAllocator@USIMemAlloc@core@UModSys@@USCountCalcPower2@23@@tl@4@@tl@UModSys@@@tl@UModSys@@QAE_NH@Z 10006020 f i umodsys_lib_lib3d:umodsys.mod.3d.stdlib.obj
 0001:000050a0       ?RemoveAt@?$TDynarray@U?$TDynarrayHolderDynamic@UScene@IVisualizerScene@lib3d@UModSys@@U?$TAllocator@USIMemAlloc@core@UModSys@@USCountCalcPower2@23@@tl@4@@tl@UModSys@@@tl@UModSys@@QAE_NII@Z 100060a0 f i umodsys_lib_lib3d:umodsys.mod.3d.stdlib.obj
 0001:000050f0       ?obj_delete@?$TRefObjectLinksParent@URDialog@frames@ui@modules@UModSys@@URCollector@2345@@tl@UModSys@@QBEXPAURDialog@frames@ui@modules@3@@Z 100060f0 f i umodsys_lib_libui:umodsys.mod.ui.frames.obj
 0001:000050f0       ?obj_delete@?$TRefObjectLinksParent@URMultiImage2D_SDL_ttf@SDL_core@ui@modules@UModSys@@URRenderDriver2D@2345@@tl@UModSys@@QBEXPAURMultiImage2D_SDL_ttf@SDL_core@ui@modules@3@@Z 100060f0 f i umodsys_lib_libui:umodsys.mod.ui.SDL_core.obj
 0001:000050f0       ?obj_delete@?$TRefObjectLinksParent@URFrame_Button@frames@ui@modules@UModSys@@URCollector@2345@@tl@UModSys@@QBEXPAURFrame_Button@frames@ui@modules@3@@Z 100060f0 f i umodsys_lib_libui:umodsys.mod.ui.frames.obj
 0001:000050f0       ?obj_delete@?$TRefObjectLinksParent@URMultiImage2D_SDL_ttf@SDL_GL@ui@modules@UModSys@@URRenderDriver3D@2345@@tl@UModSys@@QBEXPAURMultiImage2D_SDL_ttf@SDL_GL@ui@modules@3@@Z 100060f0 f i umodsys_lib_libui:umodsys.mod.ui.SDL_GL.obj
 0001:000050f0       ?obj_delete@?$TRefObjectLinksParent@URRender@object_primitive@stdlib@lib3d@modules@UModSys@@URGeneral@23456@@tl@UModSys@@QBEXPAURRender@object_primitive@stdlib@lib3d@modules@3@@Z 100060f0 f i umodsys_lib_lib3d:umodsys.mod.3d.stdlib.obj
 0001:000050f0       ?obj_delete@?$TRefObjectLinksParent@URVisual@object_camera@stdlib@lib3d@modules@UModSys@@URGeneral@23456@@tl@UModSys@@QBEXPAURVisual@object_camera@stdlib@lib3d@modules@3@@Z 100060f0 f i umodsys_lib_lib3d:umodsys.mod.3d.stdlib.obj
 0001:000050f0       ?obj_delete@?$TRefObjectLinksParent@URFrame_Edit@frames@ui@modules@UModSys@@URCollector@2345@@tl@UModSys@@QBEXPAURFrame_Edit@frames@ui@modules@3@@Z 100060f0 f i umodsys_lib_libui:umodsys.mod.ui.frames.obj
 0001:000050f0       ?obj_delete@?$TRefObjectLinksParent@URFrame_Image@frames@ui@modules@UModSys@@URCollector@2345@@tl@UModSys@@QBEXPAURFrame_Image@frames@ui@modules@3@@Z 100060f0 f i umodsys_lib_libui:umodsys.mod.ui.frames.obj
 0001:000050f0       ?obj_delete@?$TRefObjectLinksParent@URFrame_Text@frames@ui@modules@UModSys@@URCollector@2345@@tl@UModSys@@QBEXPAURFrame_Text@frames@ui@modules@3@@Z 100060f0 f i umodsys_lib_libui:umodsys.mod.ui.frames.obj
 0001:000050f0       ?obj_delete@?$TRefObjectLinksParent@URFrame_List@frames@ui@modules@UModSys@@URCollector@2345@@tl@UModSys@@QBEXPAURFrame_List@frames@ui@modules@3@@Z 100060f0 f i umodsys_lib_libui:umodsys.mod.ui.frames.obj
 0001:000050f0       ?obj_delete@?$TRefObjectLinksParent@URVisual@object_primitive@stdlib@lib3d@modules@UModSys@@URRender@23456@@tl@UModSys@@QBEXPAURVisual@object_primitive@stdlib@lib3d@modules@3@@Z 100060f0 f i umodsys_lib_lib3d:umodsys.mod.3d.stdlib.obj
 0001:000050f0       ?obj_delete@?$TRefObjectLinksParent@URVertexArray@SDL_GL@ui@modules@UModSys@@URRenderDriver3D@2345@@tl@UModSys@@QBEXPAURVertexArray@SDL_GL@ui@modules@3@@Z 100060f0 f i umodsys_lib_libui:umodsys.mod.ui.SDL_GL.obj
 0001:000050f0       ?obj_delete@?$TRefObjectLinksParent@URFrame_Frame@frames@ui@modules@UModSys@@URCollector@2345@@tl@UModSys@@QBEXPAURFrame_Frame@frames@ui@modules@3@@Z 100060f0 f i umodsys_lib_libui:umodsys.mod.ui.frames.obj
 0001:000050f0       ?obj_delete@?$TRefObjectLinksParent@URTextureGL@SDL_GL@ui@modules@UModSys@@URRenderDriver3D@2345@@tl@UModSys@@QBEXPAURTextureGL@SDL_GL@ui@modules@3@@Z 100060f0 f i umodsys_lib_libui:umodsys.mod.ui.SDL_GL.obj
 0001:00005160       ??$t_types@URGeneral@object_camera@stdlib@lib3d@modules@UModSys@@@IGenerator@base@UModSys@@KA_NAAHAAUSUniquePtrList@core@2@PBUSUniquePointerInfo@42@@Z 10006160 f i umodsys_lib_lib3d:umodsys.mod.3d.stdlib.obj
 0001:000051a0       ??$t_types@URGeneral@object_primitive@stdlib@lib3d@modules@UModSys@@@IGenerator@base@UModSys@@KA_NAAHAAUSUniquePtrList@core@2@PBUSUniquePointerInfo@42@@Z 100061a0 f i umodsys_lib_lib3d:umodsys.mod.3d.stdlib.obj
 0001:000051e0       ??$t_gen_param@URRenderer@stdlib@lib3d@modules@UModSys@@URGenerator@2345@@IGenerator@base@UModSys@@IAE_NPAURGenerator@stdlib@lib3d@modules@2@AAU?$TRefObject@UIRefObject@core@UModSys@@U?$TRefObjectFunc@UIRefObject@core@UModSys@@@tl@3@@tl@2@PBUSUniquePointerInfo@core@2@ABUSParameters@core@2@@Z 100061e0 f i umodsys_lib_lib3d:umodsys.mod.3d.stdlib.obj
 0001:00005250       ??$t_gen_param@URVisualizerScene@stdlib@lib3d@modules@UModSys@@URGenerator@2345@@IGenerator@base@UModSys@@IAE_NPAURGenerator@stdlib@lib3d@modules@2@AAU?$TRefObject@UIRefObject@core@UModSys@@U?$TRefObjectFunc@UIRefObject@core@UModSys@@@tl@3@@tl@2@PBUSUniquePointerInfo@core@2@ABUSParameters@core@2@@Z 10006250 f i umodsys_lib_lib3d:umodsys.mod.3d.stdlib.obj
 0001:000052c0       ??$t_gen_param@URVisualSceneMapper_Direct@stdlib@lib3d@modules@UModSys@@URGenerator@2345@@IGenerator@base@UModSys@@IAE_NPAURGenerator@stdlib@lib3d@modules@2@AAU?$TRefObject@UIRefObject@core@UModSys@@U?$TRefObjectFunc@UIRefObject@core@UModSys@@@tl@3@@tl@2@PBUSUniquePointerInfo@core@2@ABUSParameters@core@2@@Z 100062c0 f i umodsys_lib_lib3d:umodsys.mod.3d.stdlib.obj
 0001:00005340       ??$t_gen_param@URGeneral@object_camera@stdlib@lib3d@modules@UModSys@@URGenerator@3456@@IGenerator@base@UModSys@@IAE_NPAURGenerator@stdlib@lib3d@modules@2@AAU?$TRefObject@UIRefObject@core@UModSys@@U?$TRefObjectFunc@UIRefObject@core@UModSys@@@tl@3@@tl@2@PBUSUniquePointerInfo@core@2@ABUSParameters@core@2@@Z 10006340 f i umodsys_lib_lib3d:umodsys.mod.3d.stdlib.obj
 0001:000053c0       ??$t_gen_param@URGeneral@object_primitive@stdlib@lib3d@modules@UModSys@@URGenerator@3456@@IGenerator@base@UModSys@@IAE_NPAURGenerator@stdlib@lib3d@modules@2@AAU?$TRefObject@UIRefObject@core@UModSys@@U?$TRefObjectFunc@UIRefObject@core@UModSys@@@tl@3@@tl@2@PBUSUniquePointerInfo@core@2@ABUSParameters@core@2@@Z 100063c0 f i umodsys_lib_lib3d:umodsys.mod.3d.stdlib.obj
 0001:00005440       ?ReLink@?$TDynarray@U?$TDynarrayHolderDynamic@UScene@IVisualizerScene@lib3d@UModSys@@U?$TAllocator@USIMemAlloc@core@UModSys@@USCountCalcPower2@23@@tl@4@@tl@UModSys@@@tl@UModSys@@IAE_NI@Z 10006440 f i umodsys_lib_lib3d:umodsys.mod.3d.stdlib.obj
 0001:00005440       ?ReLink@?$TDynarray@U?$TDynarrayHolderDynamic@UNode@RSerializeReader@serialize_json@media@modules@UModSys@@U?$TAllocator@USIMemAlloc@core@UModSys@@USCountCalcPower2@23@@tl@6@@tl@UModSys@@@tl@UModSys@@IAE_NI@Z 10006440 f i umodsys_lib_libmedia:umodsys.mod.media.serialize_json.obj
 0001:00005490       ?ReLink@?$TDynarray@U?$TDynarrayHolderDynamic@PAUIVisualObject@lib3d@UModSys@@U?$TAllocator@USIMemAlloc@core@UModSys@@USCountCalcPower2@23@@tl@3@@tl@UModSys@@@tl@UModSys@@IAE_NI@Z 10006490 f i umodsys_lib_lib3d:umodsys.mod.3d.stdlib.obj
 0001:00005490       ?ReLink@?$TDynarray@U?$TDynarrayHolderDynamic@U?$TRefObject@URFrame_Common@frames@ui@modules@UModSys@@U?$TRefObjectFunc@URFrame_Common@frames@ui@modules@UModSys@@@tl@5@@tl@UModSys@@U?$TAllocator@USIMemAlloc@core@UModSys@@USCountCalcPower2@23@@23@@tl@UModSys@@@tl@UModSys@@IAE_NI@Z 10006490 f i umodsys_lib_libui:umodsys.mod.ui.frames.obj
 0001:00005490       ?ReLink@?$TDynarray@U?$TDynarrayHolderDynamic@U?$TRefObject@UIImage@lib2d@UModSys@@U?$TRefObjectFunc@UIImage@lib2d@UModSys@@@tl@3@@tl@UModSys@@U?$TAllocator@USIMemAlloc@core@UModSys@@USCountCalcPower2@23@@23@@tl@UModSys@@@tl@UModSys@@IAE_NI@Z 10006490 f i umodsys_lib_lib2d:umodsys.mod.2d.stdlib.obj
 0001:00005490       ?ReLink@?$TDynarray@U?$TDynarrayHolderDynamic@U?$TRefObject@URDialog@frames@ui@modules@UModSys@@U?$TRefObjectFunc@URDialog@frames@ui@modules@UModSys@@@tl@5@@tl@UModSys@@U?$TAllocator@USIMemAlloc@core@UModSys@@USCountCalcPower2@23@@23@@tl@UModSys@@@tl@UModSys@@IAE_NI@Z 10006490 f i umodsys_lib_libui:umodsys.mod.ui.frames.obj
 0001:000054e0       ?amoveleft@?$TTypeConstructor@UScene@IVisualizerScene@lib3d@UModSys@@@tl@UModSys@@SAXPAUScene@IVisualizerScene@lib3d@3@III@Z 100064e0 f i umodsys_lib_lib3d:umodsys.mod.3d.stdlib.obj
 0001:000055a0       ?aconstructcopy@?$TTypeConstructor@UScene@IVisualizerScene@lib3d@UModSys@@@tl@UModSys@@SAXPAUScene@IVisualizerScene@lib3d@3@IABU4563@@Z 100065a0 f i umodsys_lib_lib3d:umodsys.mod.3d.stdlib.obj
 0001:00005600       ?adestruct@?$TTypeConstructor@UScene@IVisualizerScene@lib3d@UModSys@@@tl@UModSys@@SAXPAUScene@IVisualizerScene@lib3d@3@I@Z 10006600 f i umodsys_lib_lib3d:umodsys.mod.3d.stdlib.obj
 0001:00005680       ??$ValidateConstruction@UIImage@lib2d@UModSys@@URImage_Memory@stdlib@2modules@3@@core@UModSys@@YA_NAAU?$TRefObject@UIImage@lib2d@UModSys@@U?$TRefObjectFunc@UIImage@lib2d@UModSys@@@tl@3@@tl@1@PAURImage_Memory@stdlib@lib2d@modules@1@@Z 10006680 f i umodsys_lib_lib2d:umodsys.mod.2d.stdlib.obj
 0001:00005680       ??$ValidateConstruction@UIRefObject@core@UModSys@@URImageFactory_Memory@stdlib@lib2d@modules@3@@core@UModSys@@YA_NAAU?$TRefObject@UIRefObject@core@UModSys@@U?$TRefObjectFunc@UIRefObject@core@UModSys@@@tl@3@@tl@1@PAURImageFactory_Memory@stdlib@lib2d@modules@1@@Z 10006680 f i umodsys_lib_lib2d:umodsys.mod.2d.stdlib.obj
 0001:00005680       ??$ValidateConstruction@UIRefObject@core@UModSys@@URVisualSceneMapper_Direct@stdlib@lib3d@modules@3@@core@UModSys@@YA_NAAU?$TRefObject@UIRefObject@core@UModSys@@U?$TRefObjectFunc@UIRefObject@core@UModSys@@@tl@3@@tl@1@PAURVisualSceneMapper_Direct@stdlib@lib3d@modules@1@@Z 10006680 f i umodsys_lib_lib3d:umodsys.mod.3d.stdlib.obj
 0001:00005680       ??$ValidateConstruction@UIRefObject@core@UModSys@@URTerminalX@SDL_core@ui@modules@3@@core@UModSys@@YA_NAAU?$TRefObject@UIRefObject@core@UModSys@@U?$TRefObjectFunc@UIRefObject@core@UModSys@@@tl@3@@tl@1@PAURTerminalX@SDL_core@ui@modules@1@@Z 10006680 f i umodsys_lib_libui:umodsys.mod.ui.SDL_core.obj
 0001:00005680       ??$ValidateConstruction@UIRefObject@core@UModSys@@URGeneral@object_camera@stdlib@lib3d@modules@3@@core@UModSys@@YA_NAAU?$TRefObject@UIRefObject@core@UModSys@@U?$TRefObjectFunc@UIRefObject@core@UModSys@@@tl@3@@tl@1@PAURGeneral@object_camera@stdlib@lib3d@modules@1@@Z 10006680 f i umodsys_lib_lib3d:umodsys.mod.3d.stdlib.obj
 0001:00005680       ??$ValidateConstruction@UIRefObject@core@UModSys@@URVisualizerScene@stdlib@lib3d@modules@3@@core@UModSys@@YA_NAAU?$TRefObject@UIRefObject@core@UModSys@@U?$TRefObjectFunc@UIRefObject@core@UModSys@@@tl@3@@tl@1@PAURVisualizerScene@stdlib@lib3d@modules@1@@Z 10006680 f i umodsys_lib_lib3d:umodsys.mod.3d.stdlib.obj
 0001:00005680       ??$ValidateConstruction@UIRefObject@core@UModSys@@URTerminalX@SDL_GL@ui@modules@3@@core@UModSys@@YA_NAAU?$TRefObject@UIRefObject@core@UModSys@@U?$TRefObjectFunc@UIRefObject@core@UModSys@@@tl@3@@tl@1@PAURTerminalX@SDL_GL@ui@modules@1@@Z 10006680 f i umodsys_lib_libui:umodsys.mod.ui.SDL_GL.obj
 0001:00005680       ??$ValidateConstruction@UIRefObject@core@UModSys@@URRenderer@stdlib@lib3d@modules@3@@core@UModSys@@YA_NAAU?$TRefObject@UIRefObject@core@UModSys@@U?$TRefObjectFunc@UIRefObject@core@UModSys@@@tl@3@@tl@1@PAURRenderer@stdlib@lib3d@modules@1@@Z 10006680 f i umodsys_lib_lib3d:umodsys.mod.3d.stdlib.obj
 0001:00005680       ??$ValidateConstruction@UIRefObject@core@UModSys@@URImage_Memory@stdlib@lib2d@modules@3@@core@UModSys@@YA_NAAU?$TRefObject@UIRefObject@core@UModSys@@U?$TRefObjectFunc@UIRefObject@core@UModSys@@@tl@3@@tl@1@PAURImage_Memory@stdlib@lib2d@modules@1@@Z 10006680 f i umodsys_lib_lib2d:umodsys.mod.2d.stdlib.obj
 0001:00005680       ??$ValidateConstruction@UIRefObject@core@UModSys@@URMediaFilter@images_std@media@modules@3@@core@UModSys@@YA_NAAU?$TRefObject@UIRefObject@core@UModSys@@U?$TRefObjectFunc@UIRefObject@core@UModSys@@@tl@3@@tl@1@PAURMediaFilter@images_std@media@modules@1@@Z 10006680 f i umodsys_lib_libmedia:umodsys.mod.media.images_std.obj
 0001:00005680       ??$ValidateConstruction@UIRefObject@core@UModSys@@URGeneral@object_primitive@stdlib@lib3d@modules@3@@core@UModSys@@YA_NAAU?$TRefObject@UIRefObject@core@UModSys@@U?$TRefObjectFunc@UIRefObject@core@UModSys@@@tl@3@@tl@1@PAURGeneral@object_primitive@stdlib@lib3d@modules@1@@Z 10006680 f i umodsys_lib_lib3d:umodsys.mod.3d.stdlib.obj
 0001:00005700       ??$process_nodes_r@U?$TNodeDeleter0@U?$TScatterArrayNode@U?$TRefObject@UIVisualObject@lib3d@UModSys@@U?$TRefObjectFunc@UIVisualObject@lib3d@UModSys@@@tl@3@@tl@UModSys@@PBUISceneNode@lib3d@3@@tl@UModSys@@@tl@UModSys@@@?$TTreeHoldRB@U?$TScatterArrayNode@U?$TRefObject@UIVisualObject@lib3d@UModSys@@U?$TRefObjectFunc@UIVisualObject@lib3d@UModSys@@@tl@3@@tl@UModSys@@PBUISceneNode@lib3d@3@@tl@UModSys@@@tl@UModSys@@KAHPAU?$TScatterArrayNode@U?$TRefObject@UIVisualObject@lib3d@UModSys@@U?$TRefObjectFunc@UIVisualObject@lib3d@UModSys@@@tl@3@@tl@UModSys@@PBUISceneNode@lib3d@3@@12@ABU?$TNodeDeleter0@U?$TScatterArrayNode@U?$TRefObject@UIVisualObject@lib3d@UModSys@@U?$TRefObjectFunc@UIVisualObject@lib3d@UModSys@@@tl@3@@tl@UModSys@@PBUISceneNode@lib3d@3@@tl@UModSys@@@12@@Z 10006700 f i umodsys_lib_lib3d:umodsys.mod.3d.stdlib.obj
 0001:00005760       ?alloc@SMemShared@core@UModSys@@QAE_NIPAUSSourceContext@23@@Z 10006760 f i umodsys_lib_lib2d:umodsys.mod.2d.stdlib.obj
 0001:000057a0       ?ConvertSameSize@stdlib@lib2d@modules@UModSys@@YA_NW4eImageType@24@ABU?$TVector2@H@math3d@4@11ABUSMem@core@4@11ABUSCMem@94@@Z 100067a0 f i umodsys_lib_lib2d:umodsys.mod.2d.stdlib.obj
 0001:00005830       ?ConvertSame@stdlib@lib2d@modules@UModSys@@YA_NW4eImageType@24@ABU?$TBoundBox2@H@math3d@4@ABU?$TVector2@H@74@ABUSMem@core@4@12ABUSCMem@core@4@@Z 10006830 f i umodsys_lib_lib2d:umodsys.mod.2d.stdlib.obj
 0001:000058b0       ?Convert@stdlib@lib2d@modules@UModSys@@YA_NABU?$TBoundBox2@H@math3d@4@ABUSImageInfo@24@ABUSMem@core@4@01ABUSCMem@94@@Z 100068b0 f i umodsys_lib_lib2d:umodsys.mod.2d.stdlib.obj
 0001:00005920       ?root_get_interface_info@RImage_Memory@stdlib@lib2d@modules@UModSys@@UBEABUSUniquePointerInfo@core@5@XZ 10006920 f i umodsys_lib_lib2d:umodsys.mod.2d.stdlib.obj
 0001:00005930       ?root_get_interface_type@RImage_Memory@stdlib@lib2d@modules@UModSys@@UBEPBUSUniquePointerInfo@core@5@XZ 10006930 f i umodsys_lib_lib2d:umodsys.mod.2d.stdlib.obj
 0001:00005940       ?root_get_other_interface@RImage_Memory@stdlib@lib2d@modules@UModSys@@UBEPBUIRoot@core@5@PBUSUniquePointerInfo@75@@Z 10006940 f i umodsys_lib_lib2d:umodsys.mod.2d.stdlib.obj
 0001:00005940       ?root_get_other_interface@RImage_Memory@stdlib@lib2d@modules@UModSys@@UAEPAUIRoot@core@5@PBUSUniquePointerInfo@75@@Z 10006940 f i umodsys_lib_lib2d:umodsys.mod.2d.stdlib.obj
 0001:00005970       ?root_is_interface_supported@RImage_Memory@stdlib@lib2d@modules@UModSys@@UBE_NPBUSUniquePointerInfo@core@5@@Z 10006970 f i umodsys_lib_lib2d:umodsys.mod.2d.stdlib.obj
 0001:000059b0       ?root_get_interface_info@RImageFactory_Memory@stdlib@lib2d@modules@UModSys@@UBEABUSUniquePointerInfo@core@5@XZ 100069b0 f i umodsys_lib_lib2d:umodsys.mod.2d.stdlib.obj
 0001:000059c0       ?root_get_interface_type@RImageFactory_Memory@stdlib@lib2d@modules@UModSys@@UBEPBUSUniquePointerInfo@core@5@XZ 100069c0 f i umodsys_lib_lib2d:umodsys.mod.2d.stdlib.obj
 0001:000059d0       ?root_get_other_interface@RImageFactory_Memory@stdlib@lib2d@modules@UModSys@@UBEPBUIRoot@core@5@PBUSUniquePointerInfo@75@@Z 100069d0 f i umodsys_lib_lib2d:umodsys.mod.2d.stdlib.obj
 0001:000059d0       ?root_get_other_interface@RImageFactory_Memory@stdlib@lib2d@modules@UModSys@@UAEPAUIRoot@core@5@PBUSUniquePointerInfo@75@@Z 100069d0 f i umodsys_lib_lib2d:umodsys.mod.2d.stdlib.obj
 0001:00005a00       ?root_is_interface_supported@RImageFactory_Memory@stdlib@lib2d@modules@UModSys@@UBE_NPBUSUniquePointerInfo@core@5@@Z 10006a00 f i umodsys_lib_lib2d:umodsys.mod.2d.stdlib.obj
 0001:00005a40       ?ref_links@RMultiImage2D_SDL_ttf@SDL_GL@ui@modules@UModSys@@UBEHXZ 10006a40 f i umodsys_lib_libui:umodsys.mod.ui.SDL_GL.obj
 0001:00005a40       ?ref_links@RGenerator@stdlib@lib3d@modules@UModSys@@UBEHXZ 10006a40 f i umodsys_lib_lib3d:umodsys.mod.3d.stdlib.obj
 0001:00005a40       ?ref_links@RGenerator@serialize_json@media@modules@UModSys@@UBEHXZ 10006a40 f i umodsys_lib_libmedia:umodsys.mod.media.serialize_json.obj
 0001:00005a40       ?ref_links@RGenerator@SDL_GL@ui@modules@UModSys@@UBEHXZ 10006a40 f i umodsys_lib_libui:umodsys.mod.ui.SDL_GL.obj
 0001:00005a40       ?ref_links@RGenerator@stdlib@lib2d@modules@UModSys@@UBEHXZ 10006a40 f i umodsys_lib_lib2d:umodsys.mod.2d.stdlib.obj
 0001:00005a40       ?ref_links@RMultiImage2D_SDL_ttf@SDL_core@ui@modules@UModSys@@UBEHXZ 10006a40 f i umodsys_lib_libui:umodsys.mod.ui.SDL_core.obj
 0001:00005a40       ?ref_links@RDialog@frames@ui@modules@UModSys@@UBEHXZ 10006a40 f i umodsys_lib_libui:umodsys.mod.ui.frames.obj
 0001:00005a40       ?ref_links@RTerminal@SDL_core@ui@modules@UModSys@@UBEHXZ 10006a40 f i umodsys_lib_libui:umodsys.mod.ui.SDL_core.obj
 0001:00005a40       ?ref_links@RGenerator@images_std@media@modules@UModSys@@UBEHXZ 10006a40 f i umodsys_lib_libmedia:umodsys.mod.media.images_std.obj
 0001:00005a40       ?ref_links@RBinArchiveFrameClient_ZIP@zlib@media@modules@UModSys@@UBEHXZ 10006a40 f i umodsys_lib_libmedia:umodsys.mod.media.zlib.obj
 0001:00005a40       ?ref_links@RVertexArray@SDL_GL@ui@modules@UModSys@@UBEHXZ 10006a40 f i umodsys_lib_libui:umodsys.mod.ui.SDL_GL.obj
 0001:00005a40       ?ref_links@RGenerator@zlib@media@modules@UModSys@@UBEHXZ 10006a40 f i umodsys_lib_libmedia:umodsys.mod.media.zlib.obj
 0001:00005a40       ?ref_links@RGenerator@frames@ui@modules@UModSys@@UBEHXZ 10006a40 f i umodsys_lib_libui:umodsys.mod.ui.frames.obj
 0001:00005a40       ?ref_links@RGenerator@test1@test@modules@UModSys@@UBEHXZ 10006a40 f i plugin_test1.obj
 0001:00005a40       ?ref_links@RGeneral@object_primitive@stdlib@lib3d@modules@UModSys@@UBEHXZ 10006a40 f i umodsys_lib_lib3d:umodsys.mod.3d.stdlib.obj
 0001:00005a40       ?ref_links@RTerminal@SDL_GL@ui@modules@UModSys@@UBEHXZ 10006a40 f i umodsys_lib_libui:umodsys.mod.ui.SDL_GL.obj
 0001:00005a40       ?ref_links@RImageFactory_Memory@stdlib@lib2d@modules@UModSys@@UBEHXZ 10006a40 f i umodsys_lib_lib2d:umodsys.mod.2d.stdlib.obj
 0001:00005a40       ?ref_links@RGenerator@SDL_core@ui@modules@UModSys@@UBEHXZ 10006a40 f i umodsys_lib_libui:umodsys.mod.ui.SDL_core.obj
 0001:00005a40       ?ref_links@RSerializeReader@serialize_json@media@modules@UModSys@@UBEHXZ 10006a40 f i umodsys_lib_libmedia:umodsys.mod.media.serialize_json.obj
 0001:00005a40       ?ref_links@RVisualizerScene@stdlib@lib3d@modules@UModSys@@UBEHXZ 10006a40 f i umodsys_lib_lib3d:umodsys.mod.3d.stdlib.obj
 0001:00005a40       ?ref_links@RMultiImage@stdlib@lib2d@modules@UModSys@@UBEHXZ 10006a40 f i umodsys_lib_lib2d:umodsys.mod.2d.stdlib.obj
 0001:00005a40       ?ref_links@RImage_Memory@stdlib@lib2d@modules@UModSys@@UBEHXZ 10006a40 f i umodsys_lib_lib2d:umodsys.mod.2d.stdlib.obj
 0001:00005a40       ?ref_links@RTextureGL@SDL_GL@ui@modules@UModSys@@UBEHXZ 10006a40 f i umodsys_lib_libui:umodsys.mod.ui.SDL_GL.obj
 0001:00005a40       ?ref_links@RGeneral@object_camera@stdlib@lib3d@modules@UModSys@@UBEHXZ 10006a40 f i umodsys_lib_lib3d:umodsys.mod.3d.stdlib.obj
 0001:00005a50       ?root_get_interface_info@RMultiImage@stdlib@lib2d@modules@UModSys@@UBEABUSUniquePointerInfo@core@5@XZ 10006a50 f i umodsys_lib_lib2d:umodsys.mod.2d.stdlib.obj
 0001:00005a60       ?root_get_interface_type@RMultiImage@stdlib@lib2d@modules@UModSys@@UBEPBUSUniquePointerInfo@core@5@XZ 10006a60 f i umodsys_lib_lib2d:umodsys.mod.2d.stdlib.obj
 0001:00005a70       ?root_get_other_interface@RMultiImage@stdlib@lib2d@modules@UModSys@@UBEPBUIRoot@core@5@PBUSUniquePointerInfo@75@@Z 10006a70 f i umodsys_lib_lib2d:umodsys.mod.2d.stdlib.obj
 0001:00005a70       ?root_get_other_interface@RMultiImage@stdlib@lib2d@modules@UModSys@@UAEPAUIRoot@core@5@PBUSUniquePointerInfo@75@@Z 10006a70 f i umodsys_lib_lib2d:umodsys.mod.2d.stdlib.obj
 0001:00005aa0       ?root_is_interface_supported@RMultiImage@stdlib@lib2d@modules@UModSys@@UBE_NPBUSUniquePointerInfo@core@5@@Z 10006aa0 f i umodsys_lib_lib2d:umodsys.mod.2d.stdlib.obj
 0001:00005ae0       ?get_generated_names@RGenerator@stdlib@lib2d@modules@UModSys@@UBEHAAUSUniquePtrList@core@5@@Z 10006ae0 f i umodsys_lib_lib2d:umodsys.mod.2d.stdlib.obj
 0001:00005b20       ?get_generated_types@RGenerator@stdlib@lib2d@modules@UModSys@@UBEHAAUSUniquePtrList@core@5@PBUSUniquePointerInfo@75@@Z 10006b20 f i umodsys_lib_lib2d:umodsys.mod.2d.stdlib.obj
 0001:00005ba0       ?generate@RGenerator@stdlib@lib2d@modules@UModSys@@UAE_NAAU?$TRefObject@UIRefObject@core@UModSys@@U?$TRefObjectFunc@UIRefObject@core@UModSys@@@tl@3@@tl@5@PBUSUniquePointerInfo@core@5@ABUSParameters@95@@Z 10006ba0 f i umodsys_lib_lib2d:umodsys.mod.2d.stdlib.obj
 0001:00005c00       ?root_get_interface_info@RGenerator@stdlib@lib2d@modules@UModSys@@UBEABUSUniquePointerInfo@core@5@XZ 10006c00 f i umodsys_lib_lib2d:umodsys.mod.2d.stdlib.obj
 0001:00005c10       ?root_get_interface_type@RGenerator@stdlib@lib2d@modules@UModSys@@UBEPBUSUniquePointerInfo@core@5@XZ 10006c10 f i umodsys_lib_lib2d:umodsys.mod.2d.stdlib.obj
 0001:00005c20       ?root_get_other_interface@RGenerator@stdlib@lib2d@modules@UModSys@@UAEPAUIRoot@core@5@PBUSUniquePointerInfo@75@@Z 10006c20 f i umodsys_lib_lib2d:umodsys.mod.2d.stdlib.obj
 0001:00005c20       ?root_get_other_interface@RGenerator@stdlib@lib2d@modules@UModSys@@UBEPBUIRoot@core@5@PBUSUniquePointerInfo@75@@Z 10006c20 f i umodsys_lib_lib2d:umodsys.mod.2d.stdlib.obj
 0001:00005c60       ?root_is_interface_supported@RGenerator@stdlib@lib2d@modules@UModSys@@UBE_NPBUSUniquePointerInfo@core@5@@Z 10006c60 f i umodsys_lib_lib2d:umodsys.mod.2d.stdlib.obj
 0001:00005ca0       ?suicide@RGenerator@images_std@media@modules@UModSys@@UAEXXZ 10006ca0 f i umodsys_lib_libmedia:umodsys.mod.media.images_std.obj
 0001:00005ca0       ??3@YAXPAX0@Z              10006ca0 f i plugin_test1.obj
 0001:00005ca0       ?suicide@RGenerator@serialize_json@media@modules@UModSys@@UAEXXZ 10006ca0 f i umodsys_lib_libmedia:umodsys.mod.media.serialize_json.obj
 0001:00005ca0       ?suicide@RGenerator@zlib@media@modules@UModSys@@UAEXXZ 10006ca0 f i umodsys_lib_libmedia:umodsys.mod.media.zlib.obj
 0001:00005ca0       ?suicide@RGenerator@stdlib@lib2d@modules@UModSys@@UAEXXZ 10006ca0 f i umodsys_lib_lib2d:umodsys.mod.2d.stdlib.obj
 0001:00005ca0       ?suicide@RGenerator@SDL_core@ui@modules@UModSys@@UAEXXZ 10006ca0 f i umodsys_lib_libui:umodsys.mod.ui.SDL_core.obj
 0001:00005ca0       ?suicide@RGenerator@SDL_GL@ui@modules@UModSys@@UAEXXZ 10006ca0 f i umodsys_lib_libui:umodsys.mod.ui.SDL_GL.obj
 0001:00005ca0       ?suicide@RGenerator@test1@test@modules@UModSys@@UAEXXZ 10006ca0 f i plugin_test1.obj
 0001:00005ca0       ?suicide@RGenerator@stdlib@lib3d@modules@UModSys@@UAEXXZ 10006ca0 f i umodsys_lib_lib3d:umodsys.mod.3d.stdlib.obj
 0001:00005ca0       ?suicide@RGenerator@frames@ui@modules@UModSys@@UAEXXZ 10006ca0 f i umodsys_lib_libui:umodsys.mod.ui.frames.obj
 0001:00005cb0       ?get_uid@RGenerator@stdlib@lib2d@modules@UModSys@@UBEPBUSUniquePointerInfo@core@5@XZ 10006cb0 f i umodsys_lib_lib2d:umodsys.mod.2d.stdlib.obj
 0001:00005cc0       ??1SMemShared@core@UModSys@@QAE@XZ 10006cc0 f i plugin_test1.obj
 0001:00005cc0       ??1State@RImage_Memory@stdlib@lib2d@modules@UModSys@@QAE@XZ 10006cc0 f i umodsys_lib_lib2d:umodsys.mod.2d.stdlib.obj
 0001:00005cc0       ??1SCMemShared@core@UModSys@@QAE@XZ 10006cc0 f i plugin_test1.obj
 0001:00005ce0       ??4State@RImage_Memory@stdlib@lib2d@modules@UModSys@@QAEAAU012345@ABU012345@@Z 10006ce0 f i umodsys_lib_lib2d:umodsys.mod.2d.stdlib.obj
 0001:00005d90       ??_GRImage_Memory@stdlib@lib2d@modules@UModSys@@UAEPAXI@Z 10006d90 f i umodsys_lib_lib2d:umodsys.mod.2d.stdlib.obj
 0001:00005d90       ??_ERImage_Memory@stdlib@lib2d@modules@UModSys@@UAEPAXI@Z 10006d90 f i  CIL library: CIL module
 0001:00005db0       ??1SParameters@core@UModSys@@QAE@XZ 10006db0 f i plugin_test1.obj
 0001:00005db0       ??1?$TParametersA@$0BAL@@core@UModSys@@QAE@XZ 10006db0 f i umodsys_lib_lib2d:umodsys.mod.2d.stdlib.obj
 0001:00005db0       ??1?$TParametersA@$0EAA@@core@UModSys@@QAE@XZ 10006db0 f i plugin_test1.obj
 0001:00005db0       ??1?$TParametersA@$0BAA@@core@UModSys@@QAE@XZ 10006db0 f i umodsys_lib_libui:umodsys.mod.ui.SDL_core.obj
 0001:00005dc0       ??_GRImageFactory_Memory@stdlib@lib2d@modules@UModSys@@UAEPAXI@Z 10006dc0 f i umodsys_lib_lib2d:umodsys.mod.2d.stdlib.obj
 0001:00005dc0       ??_ERImageFactory_Memory@stdlib@lib2d@modules@UModSys@@UAEPAXI@Z 10006dc0 f i  CIL library: CIL module
 0001:00005de0       ??_GRMultiImage@stdlib@lib2d@modules@UModSys@@UAEPAXI@Z 10006de0 f i umodsys_lib_lib2d:umodsys.mod.2d.stdlib.obj
 0001:00005de0       ??_ERMultiImage@stdlib@lib2d@modules@UModSys@@UAEPAXI@Z 10006de0 f i  CIL library: CIL module
 0001:00005e00       ?do_open@RModuleReg@stdlib@lib2d@modules@UModSys@@UAE_NXZ 10006e00 f i umodsys_lib_lib2d:umodsys.mod.2d.stdlib.obj
 0001:00005e10       ?do_close@RModuleReg@stdlib@lib2d@modules@UModSys@@UAE_NXZ 10006e10 f i umodsys_lib_lib2d:umodsys.mod.2d.stdlib.obj
 0001:00005e20       ??_GRModuleReg@stdlib@lib2d@modules@UModSys@@UAEPAXI@Z 10006e20 f i umodsys_lib_lib2d:umodsys.mod.2d.stdlib.obj
 0001:00005e20       ??_ERModuleReg@stdlib@lib2d@modules@UModSys@@UAEPAXI@Z 10006e20 f i  CIL library: CIL module
 0001:00005e50       ??1?$TDynarrayDynamic@USImageCellInfo@lib2d@UModSys@@U?$TAllocator@USIMemAlloc@core@UModSys@@USCountCalcPower2@23@@tl@3@@tl@UModSys@@QAE@XZ 10006e50 f i umodsys_lib_lib2d:umodsys.mod.2d.stdlib.obj
 0001:00005e80       ??1?$TDynarrayDynamic@U?$TRefObject@UIImage@lib2d@UModSys@@U?$TRefObjectFunc@UIImage@lib2d@UModSys@@@tl@3@@tl@UModSys@@U?$TAllocator@USIMemAlloc@core@UModSys@@USCountCalcPower2@23@@23@@tl@UModSys@@QAE@XZ 10006e80 f i umodsys_lib_lib2d:umodsys.mod.2d.stdlib.obj
 0001:00005ed0       ?Free@?$TDynarray@U?$TDynarrayHolderDynamic@USImageCellInfo@lib2d@UModSys@@U?$TAllocator@USIMemAlloc@core@UModSys@@USCountCalcPower2@23@@tl@3@@tl@UModSys@@@tl@UModSys@@QAE_NXZ 10006ed0 f i umodsys_lib_lib2d:umodsys.mod.2d.stdlib.obj
 0001:00005f30       ?ResizeRel@?$TDynarray@U?$TDynarrayHolderDynamic@U?$TRefObject@UIImage@lib2d@UModSys@@U?$TRefObjectFunc@UIImage@lib2d@UModSys@@@tl@3@@tl@UModSys@@U?$TAllocator@USIMemAlloc@core@UModSys@@USCountCalcPower2@23@@23@@tl@UModSys@@@tl@UModSys@@QAE_NH@Z 10006f30 f i umodsys_lib_lib2d:umodsys.mod.2d.stdlib.obj
 0001:00005fa0       ??$t_gen_param@URImage_Memory@stdlib@lib2d@modules@UModSys@@URGenerator@2345@@IGenerator@base@UModSys@@IAE_NPAURGenerator@stdlib@lib2d@modules@2@AAU?$TRefObject@UIRefObject@core@UModSys@@U?$TRefObjectFunc@UIRefObject@core@UModSys@@@tl@3@@tl@2@PBUSUniquePointerInfo@core@2@ABUSParameters@core@2@@Z 10006fa0 f i umodsys_lib_lib2d:umodsys.mod.2d.stdlib.obj
 0001:00006010       ??$t_gen_param@URImageFactory_Memory@stdlib@lib2d@modules@UModSys@@URGenerator@2345@@IGenerator@base@UModSys@@IAE_NPAURGenerator@stdlib@lib2d@modules@2@AAU?$TRefObject@UIRefObject@core@UModSys@@U?$TRefObjectFunc@UIRefObject@core@UModSys@@@tl@3@@tl@2@PBUSUniquePointerInfo@core@2@ABUSParameters@core@2@@Z 10007010 f i umodsys_lib_lib2d:umodsys.mod.2d.stdlib.obj
 0001:00006090       ??$t_gen_param@URMultiImage@stdlib@lib2d@modules@UModSys@@URGenerator@2345@@IGenerator@base@UModSys@@IAE_NPAURGenerator@stdlib@lib2d@modules@2@AAU?$TRefObject@UIRefObject@core@UModSys@@U?$TRefObjectFunc@UIRefObject@core@UModSys@@@tl@3@@tl@2@PBUSUniquePointerInfo@core@2@ABUSParameters@core@2@@Z 10007090 f i umodsys_lib_lib2d:umodsys.mod.2d.stdlib.obj
 0001:00006110       ??$ValidateConstruction@UIRefObject@core@UModSys@@URMultiImage@stdlib@lib2d@modules@3@@core@UModSys@@YA_NAAU?$TRefObject@UIRefObject@core@UModSys@@U?$TRefObjectFunc@UIRefObject@core@UModSys@@@tl@3@@tl@1@PAURMultiImage@stdlib@lib2d@modules@1@@Z 10007110 f i umodsys_lib_lib2d:umodsys.mod.2d.stdlib.obj
 0001:000061a0       ??1?$TRefObject@UIClient@IBinArchiveFrame@libmedia@UModSys@@U?$TRefObjectFunc@UIClient@IBinArchiveFrame@libmedia@UModSys@@@tl@4@@tl@UModSys@@QAE@XZ 100071a0 f i plugin_test1.obj
 0001:000061a0       ??1?$TRefObject@UIBinArchiveFrame@libmedia@UModSys@@U?$TRefObjectFunc@UIBinArchiveFrame@libmedia@UModSys@@@tl@3@@tl@UModSys@@QAE@XZ 100071a0 f i plugin_test1.obj
 0001:000061a0       ??1?$TRefObject@URMultiImage2D_SDL_ttf@SDL_GL@ui@modules@UModSys@@U?$TRefObjectFunc@URMultiImage2D_SDL_ttf@SDL_GL@ui@modules@UModSys@@@tl@5@@tl@UModSys@@QAE@XZ 100071a0 f i umodsys_lib_libui:umodsys.mod.ui.SDL_GL.obj
 0001:000061a0       ??1?$TRefObject@UITexture@lib3d@UModSys@@U?$TRefObjectFunc@UITexture@lib3d@UModSys@@@tl@3@@tl@UModSys@@QAE@XZ 100071a0 f i plugin_test1.obj
 0001:000061a0       ??1?$TRefObject@UILibrary@libmedia@UModSys@@U?$TRefObjectFunc@UILibrary@libmedia@UModSys@@@tl@3@@tl@UModSys@@QAE@XZ 100071a0 f i plugin_test1.obj
 0001:000061a0       ??1?$TRefObject@URTextureGL@SDL_GL@ui@modules@UModSys@@U?$TRefObjectFunc@URTextureGL@SDL_GL@ui@modules@UModSys@@@tl@5@@tl@UModSys@@QAE@XZ 100071a0 f i umodsys_lib_libui:umodsys.mod.ui.SDL_GL.obj
 0001:000061a0       ??1?$TRefObject@UICollector@libui@UModSys@@U?$TRefObjectFunc@UICollector@libui@UModSys@@@tl@3@@tl@UModSys@@QAE@XZ 100071a0 f i plugin_test1.obj
 0001:000061a0       ??1?$TRefObject@UIRenderDriver@lib2d@UModSys@@U?$TRefObjectFunc@UIRenderDriver@lib2d@UModSys@@@tl@3@@tl@UModSys@@QAE@XZ 100071a0 f i plugin_test1.obj
 0001:000061a0       ??1?$TRefObject@UIMultiImage@lib2d@UModSys@@U?$TRefObjectFunc@UIMultiImage@lib2d@UModSys@@@tl@3@@tl@UModSys@@QAE@XZ 100071a0 f i plugin_test1.obj
 0001:000061a0       ??1?$TRefObject@URDialog@frames@ui@modules@UModSys@@U?$TRefObjectFunc@URDialog@frames@ui@modules@UModSys@@@tl@5@@tl@UModSys@@QAE@XZ 100071a0 f i umodsys_lib_libui:umodsys.mod.ui.frames.obj
 0001:000061a0       ??1?$TRefObject@URCollector@frames@ui@modules@UModSys@@U?$TRefObjectFunc@URCollector@frames@ui@modules@UModSys@@@tl@5@@tl@UModSys@@QAE@XZ 100071a0 f i umodsys_lib_libui:umodsys.mod.ui.frames.obj
 0001:000061a0       ??1?$TRefObject@URVisualizerScene@stdlib@lib3d@modules@UModSys@@U?$TRefObjectFunc@URVisualizerScene@stdlib@lib3d@modules@UModSys@@@tl@5@@tl@UModSys@@QAE@XZ 100071a0 f i umodsys_lib_lib3d:umodsys.mod.3d.stdlib.obj
 0001:000061a0       ??1?$TRefObject@URMediaFilter@images_std@media@modules@UModSys@@U?$TRefObjectFunc@URMediaFilter@images_std@media@modules@UModSys@@@tl@5@@tl@UModSys@@QAE@XZ 100071a0 f i umodsys_lib_libmedia:umodsys.mod.media.images_std.obj
 0001:000061a0       ??1?$TRefObject@UIRenderer@lib3d@UModSys@@U?$TRefObjectFunc@UIRenderer@lib3d@UModSys@@@tl@3@@tl@UModSys@@QAE@XZ 100071a0 f i plugin_test1.obj
 0001:000061a0       ??1?$TRefObject@URImage_Memory@stdlib@lib2d@modules@UModSys@@U?$TRefObjectFunc@URImage_Memory@stdlib@lib2d@modules@UModSys@@@tl@5@@tl@UModSys@@QAE@XZ 100071a0 f i umodsys_lib_lib2d:umodsys.mod.2d.stdlib.obj
 0001:000061a0       ??1?$TRefObject@URGeneral@object_camera@stdlib@lib3d@modules@UModSys@@U?$TRefObjectFunc@URGeneral@object_camera@stdlib@lib3d@modules@UModSys@@@tl@6@@tl@UModSys@@QAE@XZ 100071a0 f i umodsys_lib_lib3d:umodsys.mod.3d.stdlib.obj
 0001:000061a0       ??1?$TRefObject@URTerminalX@SDL_core@ui@modules@UModSys@@U?$TRefObjectFunc@URTerminalX@SDL_core@ui@modules@UModSys@@@tl@5@@tl@UModSys@@QAE@XZ 100071a0 f i umodsys_lib_libui:umodsys.mod.ui.SDL_core.obj
 0001:000061a0       ??1?$TRefObject@UIRenderDriver@lib3d@UModSys@@U?$TRefObjectFunc@UIRenderDriver@lib3d@UModSys@@@tl@3@@tl@UModSys@@QAE@XZ 100071a0 f i plugin_test1.obj
 0001:000061a0       ??1?$TRefObject@UILibraryLayered@libmedia@UModSys@@U?$TRefObjectFunc@UILibraryLayered@libmedia@UModSys@@@tl@3@@tl@UModSys@@QAE@XZ 100071a0 f i plugin_test1.obj
 0001:000061a0       ??1?$TRefObject@URVisualSceneMapper_Direct@stdlib@lib3d@modules@UModSys@@U?$TRefObjectFunc@URVisualSceneMapper_Direct@stdlib@lib3d@modules@UModSys@@@tl@5@@tl@UModSys@@QAE@XZ 100071a0 f i umodsys_lib_lib3d:umodsys.mod.3d.stdlib.obj
 0001:000061a0       ??1?$TRefObject@URMultiImage@stdlib@lib2d@modules@UModSys@@U?$TRefObjectFunc@URMultiImage@stdlib@lib2d@modules@UModSys@@@tl@5@@tl@UModSys@@QAE@XZ 100071a0 f i umodsys_lib_lib2d:umodsys.mod.2d.stdlib.obj
 0001:000061a0       ??1?$TRefObject@UIVisualObject@lib3d@UModSys@@U?$TRefObjectFunc@UIVisualObject@lib3d@UModSys@@@tl@3@@tl@UModSys@@QAE@XZ 100071a0 f i plugin_test1.obj
 0001:000061a0       ??1?$TRefObject@URGeneral@object_primitive@stdlib@lib3d@modules@UModSys@@U?$TRefObjectFunc@URGeneral@object_primitive@stdlib@lib3d@modules@UModSys@@@tl@6@@tl@UModSys@@QAE@XZ 100071a0 f i umodsys_lib_lib3d:umodsys.mod.3d.stdlib.obj
 0001:000061a0       ??1?$TRefObject@UIImage@lib2d@UModSys@@U?$TRefObjectFunc@UIImage@lib2d@UModSys@@@tl@3@@tl@UModSys@@QAE@XZ 100071a0 f i plugin_test1.obj
 0001:000061a0       ??1?$TRefObject@UIKeyboardController@libui@UModSys@@U?$TRefObjectFunc@UIKeyboardController@libui@UModSys@@@tl@3@@tl@UModSys@@QAE@XZ 100071a0 f i plugin_test1.obj
 0001:000061a0       ??1?$TRefObject@URSerializeWriter@serialize_json@media@modules@UModSys@@U?$TRefObjectFunc@URSerializeWriter@serialize_json@media@modules@UModSys@@@tl@5@@tl@UModSys@@QAE@XZ 100071a0 f i umodsys_lib_libmedia:umodsys.mod.media.serialize_json.obj
 0001:000061a0       ??1?$TRefObject@UIGeneralObject@lib3d@UModSys@@U?$TRefObjectFunc@UIGeneralObject@lib3d@UModSys@@@tl@3@@tl@UModSys@@QAE@XZ 100071a0 f i plugin_test1.obj
 0001:000061a0       ??1?$TRefObject@UITerminal@libui@UModSys@@U?$TRefObjectFunc@UITerminal@libui@UModSys@@@tl@3@@tl@UModSys@@QAE@XZ 100071a0 f i plugin_test1.obj
 0001:000061a0       ??1?$TRefObject@UIStreamWriter@libmedia@UModSys@@U?$TRefObjectFunc@UIStreamWriter@libmedia@UModSys@@@tl@3@@tl@UModSys@@QAE@XZ 100071a0 f i plugin_test1.obj
 0001:000061a0       ??1?$TRefObject@UIBinArchive@libmedia@UModSys@@U?$TRefObjectFunc@UIBinArchive@libmedia@UModSys@@@tl@3@@tl@UModSys@@QAE@XZ 100071a0 f i plugin_test1.obj
 0001:000061a0       ??1?$TRefObject@UIUtilities@libmedia@UModSys@@U?$TRefObjectFunc@UIUtilities@libmedia@UModSys@@@tl@3@@tl@UModSys@@QAE@XZ 100071a0 f i plugin_test1.obj
 0001:000061a0       ??1?$TRefObject@URMultiImage2D_SDL_ttf@SDL_core@ui@modules@UModSys@@U?$TRefObjectFunc@URMultiImage2D_SDL_ttf@SDL_core@ui@modules@UModSys@@@tl@5@@tl@UModSys@@QAE@XZ 100071a0 f i umodsys_lib_libui:umodsys.mod.ui.SDL_core.obj
 0001:000061a0       ??1?$TRefObject@UIStreamReader@libmedia@UModSys@@U?$TRefObjectFunc@UIStreamReader@libmedia@UModSys@@@tl@3@@tl@UModSys@@QAE@XZ 100071a0 f i plugin_test1.obj
 0001:000061a0       ??1?$TRefObject@URVertexArray@SDL_GL@ui@modules@UModSys@@U?$TRefObjectFunc@URVertexArray@SDL_GL@ui@modules@UModSys@@@tl@5@@tl@UModSys@@QAE@XZ 100071a0 f i umodsys_lib_libui:umodsys.mod.ui.SDL_GL.obj
 0001:000061a0       ??1?$TRefObject@UIVisualObject_Camera@lib3d@UModSys@@U?$TRefObjectFunc@UIVisualObject_Camera@lib3d@UModSys@@@tl@3@@tl@UModSys@@QAE@XZ 100071a0 f i plugin_test1.obj
 0001:000061a0       ??1?$TRefObject@URFrame_Common@frames@ui@modules@UModSys@@U?$TRefObjectFunc@URFrame_Common@frames@ui@modules@UModSys@@@tl@5@@tl@UModSys@@QAE@XZ 100071a0 f i umodsys_lib_libui:umodsys.mod.ui.frames.obj
 0001:000061a0       ??1?$TRefObject@URRenderDriver3D@SDL_GL@ui@modules@UModSys@@U?$TRefObjectFunc@URRenderDriver3D@SDL_GL@ui@modules@UModSys@@@tl@5@@tl@UModSys@@QAE@XZ 100071a0 f i umodsys_lib_libui:umodsys.mod.ui.SDL_GL.obj
 0001:000061a0       ??1?$TRefObject@URRenderer@stdlib@lib3d@modules@UModSys@@U?$TRefObjectFunc@URRenderer@stdlib@lib3d@modules@UModSys@@@tl@5@@tl@UModSys@@QAE@XZ 100071a0 f i umodsys_lib_lib3d:umodsys.mod.3d.stdlib.obj
 0001:000061a0       ??1?$TRefObject@URSerializeReader@serialize_json@media@modules@UModSys@@U?$TRefObjectFunc@URSerializeReader@serialize_json@media@modules@UModSys@@@tl@5@@tl@UModSys@@QAE@XZ 100071a0 f i umodsys_lib_libmedia:umodsys.mod.media.serialize_json.obj
 0001:000061a0       ??1?$TRefObject@UIRenderObject@lib3d@UModSys@@U?$TRefObjectFunc@UIRenderObject@lib3d@UModSys@@@tl@3@@tl@UModSys@@QAE@XZ 100071a0 f i plugin_test1.obj
 0001:000061a0       ??1?$TRefObject@UIImageFactory@lib2d@UModSys@@U?$TRefObjectFunc@UIImageFactory@lib2d@UModSys@@@tl@3@@tl@UModSys@@QAE@XZ 100071a0 f i plugin_test1.obj
 0001:000061a0       ??1?$TRefObject@UIScene@lib3d@UModSys@@U?$TRefObjectFunc@UIScene@lib3d@UModSys@@@tl@3@@tl@UModSys@@QAE@XZ 100071a0 f i umodsys_lib_lib3d:umodsys.mod.3d.stdlib.obj
 0001:000061a0       ??1?$TRefObject@URImageFactory_Memory@stdlib@lib2d@modules@UModSys@@U?$TRefObjectFunc@URImageFactory_Memory@stdlib@lib2d@modules@UModSys@@@tl@5@@tl@UModSys@@QAE@XZ 100071a0 f i umodsys_lib_lib2d:umodsys.mod.2d.stdlib.obj
 0001:000061a0       ??1?$TRefObject@UIVertexArray@lib3d@UModSys@@U?$TRefObjectFunc@UIVertexArray@lib3d@UModSys@@@tl@3@@tl@UModSys@@QAE@XZ 100071a0 f i plugin_test1.obj
 0001:000061a0       ??1?$TRefObject@UILibraryObjFilter@libmedia@UModSys@@U?$TRefObjectFunc@UILibraryObjFilter@libmedia@UModSys@@@tl@3@@tl@UModSys@@QAE@XZ 100071a0 f i plugin_test1.obj
 0001:000061a0       ??1?$TRefObject@URBinArchiveFrameClient_ZIP@zlib@media@modules@UModSys@@U?$TRefObjectFunc@URBinArchiveFrameClient_ZIP@zlib@media@modules@UModSys@@@tl@5@@tl@UModSys@@QAE@XZ 100071a0 f i umodsys_lib_libmedia:umodsys.mod.media.zlib.obj
 0001:000061a0       ??1?$TRefObject@UILibraryObjCache@libmedia@UModSys@@U?$TRefObjectFunc@UILibraryObjCache@libmedia@UModSys@@@tl@3@@tl@UModSys@@QAE@XZ 100071a0 f i plugin_test1.obj
 0001:000061a0       ??1?$TRefObject@UIFrame@libui@UModSys@@U?$TRefObjectFunc@UIFrame@libui@UModSys@@@tl@3@@tl@UModSys@@QAE@XZ 100071a0 f i umodsys_lib_libui:umodsys.mod.ui.frames.obj
 0001:000061a0       ??1?$TRefObject@UIVisualizerScene@lib3d@UModSys@@U?$TRefObjectFunc@UIVisualizerScene@lib3d@UModSys@@@tl@3@@tl@UModSys@@QAE@XZ 100071a0 f i plugin_test1.obj
 0001:000061a0       ??1?$TRefObject@URTerminalX@SDL_GL@ui@modules@UModSys@@U?$TRefObjectFunc@URTerminalX@SDL_GL@ui@modules@UModSys@@@tl@5@@tl@UModSys@@QAE@XZ 100071a0 f i umodsys_lib_libui:umodsys.mod.ui.SDL_GL.obj
 0001:000061a0       ??1?$TRefObject@URRenderDriver2D@SDL_core@ui@modules@UModSys@@U?$TRefObjectFunc@URRenderDriver2D@SDL_core@ui@modules@UModSys@@@tl@5@@tl@UModSys@@QAE@XZ 100071a0 f i umodsys_lib_libui:umodsys.mod.ui.SDL_core.obj
 0001:000061a0       ??1?$TRefObject@UIBinObjFilter@libmedia@UModSys@@U?$TRefObjectFunc@UIBinObjFilter@libmedia@UModSys@@@tl@3@@tl@UModSys@@QAE@XZ 100071a0 f i plugin_test1.obj
 0001:000061a0       ??1?$TRefObject@UIMouseController@libui@UModSys@@U?$TRefObjectFunc@UIMouseController@libui@UModSys@@@tl@3@@tl@UModSys@@QAE@XZ 100071a0 f i plugin_test1.obj
 0001:000061a0       ??1?$TRefObject@UILibraryBinCache@libmedia@UModSys@@U?$TRefObjectFunc@UILibraryBinCache@libmedia@UModSys@@@tl@3@@tl@UModSys@@QAE@XZ 100071a0 f i plugin_test1.obj
 0001:000061a0       ??1?$TRefObject@UILibraryBinTree@libmedia@UModSys@@U?$TRefObjectFunc@UILibraryBinTree@libmedia@UModSys@@@tl@3@@tl@UModSys@@QAE@XZ 100071a0 f i plugin_test1.obj
 0001:000061a0       ??1?$TRefObject@URRender@object_primitive@stdlib@lib3d@modules@UModSys@@U?$TRefObjectFunc@URRender@object_primitive@stdlib@lib3d@modules@UModSys@@@tl@6@@tl@UModSys@@QAE@XZ 100071a0 f i umodsys_lib_lib3d:umodsys.mod.3d.stdlib.obj
 0001:000061a0       ??1?$TRefObject@UIRefObject@core@UModSys@@U?$TRefObjectFunc@UIRefObject@core@UModSys@@@tl@3@@tl@UModSys@@QAE@XZ 100071a0 f i plugin_test1.obj
 0001:000061c0       ?isinside@SImagePatchInfo@lib2d@UModSys@@QBE_NABU123@@Z 100071c0 f i umodsys_lib_libui:umodsys.mod.ui.SDL_GL.obj
 0001:00006210       ?bin_move@lib2d@UModSys@@YA_NABUSMem@core@2@ABUSImagePatchInfo@12@ABUSCMem@42@1@Z 10007210 f i umodsys_lib_libui:umodsys.mod.ui.SDL_GL.obj
 0001:00006320       ?bin_move_cvt@lib2d@UModSys@@YA_NABUSMem@core@2@ABUSImagePatchInfo@12@ABUSCMem@42@1P6A_NPAXPBXI34@Z3@Z 10007320 f i umodsys_lib_libui:umodsys.mod.ui.SDL_GL.obj
 0001:000063e0       ?bin_cvt_L8_L8A8@lib2d@UModSys@@YA_NPAXPBXI01@Z 100073e0 f i umodsys_lib_libui:umodsys.mod.ui.SDL_GL.obj
 0001:00006410       ?bin_cvt_X24_X24A8@lib2d@UModSys@@YA_NPAXPBXI01@Z 10007410 f i umodsys_lib_libui:umodsys.mod.ui.SDL_GL.obj
 0001:00006460       ?bin_cvt_X24A8_X24@lib2d@UModSys@@YA_NPAXPBXI01@Z 10007460 f i umodsys_lib_libui:umodsys.mod.ui.SDL_GL.obj
 0001:000064a0       ?set_stage@SGLFuncs@SDL_GL@ui@modules@UModSys@@QBEXH@Z 100074a0 f i umodsys_lib_libui:umodsys.mod.ui.SDL_GL.obj
 0001:000064f0       ?set_bound@SGLFuncs@SDL_GL@ui@modules@UModSys@@QBEXI@Z 100074f0 f i umodsys_lib_libui:umodsys.mod.ui.SDL_GL.obj
 0001:00006520       ?set_composite_all@SGLFuncsLegacy@SDL_GL@ui@modules@UModSys@@QBEXH@Z 10007520 f i umodsys_lib_libui:umodsys.mod.ui.SDL_GL.obj
 0001:000065b0       ?set_stage_num@SGLFuncsLegacy@SDL_GL@ui@modules@UModSys@@QBEXH@Z 100075b0 f i umodsys_lib_libui:umodsys.mod.ui.SDL_GL.obj
 0001:00006760       ?force@TextureInfo@SGLFuncs@SDL_GL@ui@modules@UModSys@@QBEXABU23456@@Z 10007760 f i umodsys_lib_libui:umodsys.mod.ui.SDL_GL.obj
 0001:000067c0       ?set_minmag@TextureInfo@SGLFuncs@SDL_GL@ui@modules@UModSys@@QBEXABU23456@HH@Z 100077c0 f i umodsys_lib_libui:umodsys.mod.ui.SDL_GL.obj
 0001:00006800       ?set_wrap@TextureInfo@SGLFuncs@SDL_GL@ui@modules@UModSys@@QBEXABU23456@HH@Z 10007800 f i umodsys_lib_libui:umodsys.mod.ui.SDL_GL.obj
 0001:00006840       ?crebind@STextureGL@SDL_GL@ui@modules@UModSys@@QAEX_N@Z 10007840 f i umodsys_lib_libui:umodsys.mod.ui.SDL_GL.obj
 0001:00006870       ?bind@STextureGL@SDL_GL@ui@modules@UModSys@@QAEXXZ 10007870 f i umodsys_lib_libui:umodsys.mod.ui.SDL_GL.obj
 0001:000068d0       ?root_get_interface_info@RKeyboardController@SDL_GL@ui@modules@UModSys@@UBEABUSUniquePointerInfo@core@5@XZ 100078d0 f i umodsys_lib_libui:umodsys.mod.ui.SDL_GL.obj
 0001:000068e0       ?root_get_interface_type@RKeyboardController@SDL_GL@ui@modules@UModSys@@UBEPBUSUniquePointerInfo@core@5@XZ 100078e0 f i umodsys_lib_libui:umodsys.mod.ui.SDL_GL.obj
 0001:000068f0       ?root_get_other_interface@RKeyboardController@SDL_GL@ui@modules@UModSys@@UAEPAUIRoot@core@5@PBUSUniquePointerInfo@75@@Z 100078f0 f i umodsys_lib_libui:umodsys.mod.ui.SDL_GL.obj
 0001:000068f0       ?root_get_other_interface@RKeyboardController@SDL_GL@ui@modules@UModSys@@UBEPBUIRoot@core@5@PBUSUniquePointerInfo@75@@Z 100078f0 f i umodsys_lib_libui:umodsys.mod.ui.SDL_GL.obj
 0001:00006920       ?root_is_interface_supported@RKeyboardController@SDL_GL@ui@modules@UModSys@@UBE_NPBUSUniquePointerInfo@core@5@@Z 10007920 f i umodsys_lib_libui:umodsys.mod.ui.SDL_GL.obj
 0001:00006960       ?ref_add@RMouseController@SDL_GL@ui@modules@UModSys@@UBEXXZ 10007960 f i umodsys_lib_libui:umodsys.mod.ui.SDL_GL.obj
 0001:00006960       ?ref_add@RRenderDriver2D@SDL_core@ui@modules@UModSys@@UBEXXZ 10007960 f i umodsys_lib_libui:umodsys.mod.ui.SDL_core.obj
 0001:00006960       ?ref_add@RRenderDriver3D@SDL_GL@ui@modules@UModSys@@UBEXXZ 10007960 f i umodsys_lib_libui:umodsys.mod.ui.SDL_GL.obj
 0001:00006960       ?ref_add@RKeyboardController@SDL_GL@ui@modules@UModSys@@UBEXXZ 10007960 f i umodsys_lib_libui:umodsys.mod.ui.SDL_GL.obj
 0001:00006960       ?ref_add@RKeyboardController@SDL_core@ui@modules@UModSys@@UBEXXZ 10007960 f i umodsys_lib_libui:umodsys.mod.ui.SDL_core.obj
 0001:00006960       ?ref_add@RMouseController@SDL_core@ui@modules@UModSys@@UBEXXZ 10007960 f i umodsys_lib_libui:umodsys.mod.ui.SDL_core.obj
 0001:00006970       ?suicide@RKeyboardController@SDL_core@ui@modules@UModSys@@UAEXXZ 10007970 f i umodsys_lib_libui:umodsys.mod.ui.SDL_core.obj
 0001:00006970       ?suicide@RMouseController@SDL_GL@ui@modules@UModSys@@UAEXXZ 10007970 f i umodsys_lib_libui:umodsys.mod.ui.SDL_GL.obj
 0001:00006970       ?suicide@RRenderDriver2D@SDL_core@ui@modules@UModSys@@UAEXXZ 10007970 f i umodsys_lib_libui:umodsys.mod.ui.SDL_core.obj
 0001:00006970       ?suicide@RMouseController@SDL_core@ui@modules@UModSys@@UAEXXZ 10007970 f i umodsys_lib_libui:umodsys.mod.ui.SDL_core.obj
 0001:00006970       ?suicide@RKeyboardController@SDL_GL@ui@modules@UModSys@@UAEXXZ 10007970 f i umodsys_lib_libui:umodsys.mod.ui.SDL_GL.obj
 0001:00006970       ?suicide@RRenderDriver3D@SDL_GL@ui@modules@UModSys@@UAEXXZ 10007970 f i umodsys_lib_libui:umodsys.mod.ui.SDL_GL.obj
 0001:00006980       ?root_get_interface_info@RMouseController@SDL_GL@ui@modules@UModSys@@UBEABUSUniquePointerInfo@core@5@XZ 10007980 f i umodsys_lib_libui:umodsys.mod.ui.SDL_GL.obj
 0001:00006990       ?root_get_interface_type@RMouseController@SDL_GL@ui@modules@UModSys@@UBEPBUSUniquePointerInfo@core@5@XZ 10007990 f i umodsys_lib_libui:umodsys.mod.ui.SDL_GL.obj
 0001:000069a0       ?root_get_other_interface@RMouseController@SDL_GL@ui@modules@UModSys@@UAEPAUIRoot@core@5@PBUSUniquePointerInfo@75@@Z 100079a0 f i umodsys_lib_libui:umodsys.mod.ui.SDL_GL.obj
 0001:000069a0       ?root_get_other_interface@RMouseController@SDL_GL@ui@modules@UModSys@@UBEPBUIRoot@core@5@PBUSUniquePointerInfo@75@@Z 100079a0 f i umodsys_lib_libui:umodsys.mod.ui.SDL_GL.obj
 0001:000069d0       ?root_is_interface_supported@RMouseController@SDL_GL@ui@modules@UModSys@@UBE_NPBUSUniquePointerInfo@core@5@@Z 100079d0 f i umodsys_lib_libui:umodsys.mod.ui.SDL_GL.obj
 0001:00006a10       ?ref_links@RRenderDriver2D@SDL_core@ui@modules@UModSys@@UBEHXZ 10007a10 f i umodsys_lib_libui:umodsys.mod.ui.SDL_core.obj
 0001:00006a10       ?ref_links@RMouseController@SDL_GL@ui@modules@UModSys@@UBEHXZ 10007a10 f i umodsys_lib_libui:umodsys.mod.ui.SDL_GL.obj
 0001:00006a10       ?ref_links@RMouseController@SDL_core@ui@modules@UModSys@@UBEHXZ 10007a10 f i umodsys_lib_libui:umodsys.mod.ui.SDL_core.obj
 0001:00006a10       ?ref_links@RKeyboardController@SDL_core@ui@modules@UModSys@@UBEHXZ 10007a10 f i umodsys_lib_libui:umodsys.mod.ui.SDL_core.obj
 0001:00006a10       ?ref_links@RKeyboardController@SDL_GL@ui@modules@UModSys@@UBEHXZ 10007a10 f i umodsys_lib_libui:umodsys.mod.ui.SDL_GL.obj
 0001:00006a10       ?ref_links@RRenderDriver3D@SDL_GL@ui@modules@UModSys@@UBEHXZ 10007a10 f i umodsys_lib_libui:umodsys.mod.ui.SDL_GL.obj
 0001:00006a20       ?root_get_interface_info@RTerminal@SDL_GL@ui@modules@UModSys@@UBEABUSUniquePointerInfo@core@5@XZ 10007a20 f i umodsys_lib_libui:umodsys.mod.ui.SDL_GL.obj
 0001:00006a30       ?root_get_interface_type@RTerminal@SDL_GL@ui@modules@UModSys@@UBEPBUSUniquePointerInfo@core@5@XZ 10007a30 f i umodsys_lib_libui:umodsys.mod.ui.SDL_GL.obj
 0001:00006a40       ?root_get_other_interface@RTerminal@SDL_GL@ui@modules@UModSys@@UBEPBUIRoot@core@5@PBUSUniquePointerInfo@75@@Z 10007a40 f i umodsys_lib_libui:umodsys.mod.ui.SDL_GL.obj
 0001:00006a40       ?root_get_other_interface@RTerminal@SDL_GL@ui@modules@UModSys@@UAEPAUIRoot@core@5@PBUSUniquePointerInfo@75@@Z 10007a40 f i umodsys_lib_libui:umodsys.mod.ui.SDL_GL.obj
 0001:00006a70       ?root_is_interface_supported@RTerminal@SDL_GL@ui@modules@UModSys@@UBE_NPBUSUniquePointerInfo@core@5@@Z 10007a70 f i umodsys_lib_libui:umodsys.mod.ui.SDL_GL.obj
 0001:00006ab0       ?root_get_interface_info@RMultiImage2D_SDL_ttf@SDL_GL@ui@modules@UModSys@@UBEABUSUniquePointerInfo@core@5@XZ 10007ab0 f i umodsys_lib_libui:umodsys.mod.ui.SDL_GL.obj
 0001:00006ac0       ?root_get_interface_type@RMultiImage2D_SDL_ttf@SDL_GL@ui@modules@UModSys@@UBEPBUSUniquePointerInfo@core@5@XZ 10007ac0 f i umodsys_lib_libui:umodsys.mod.ui.SDL_GL.obj
 0001:00006ad0       ?root_get_other_interface@RMultiImage2D_SDL_ttf@SDL_GL@ui@modules@UModSys@@UAEPAUIRoot@core@5@PBUSUniquePointerInfo@75@@Z 10007ad0 f i umodsys_lib_libui:umodsys.mod.ui.SDL_GL.obj
 0001:00006ad0       ?root_get_other_interface@RMultiImage2D_SDL_ttf@SDL_GL@ui@modules@UModSys@@UBEPBUIRoot@core@5@PBUSUniquePointerInfo@75@@Z 10007ad0 f i umodsys_lib_libui:umodsys.mod.ui.SDL_GL.obj
 0001:00006b00       ?root_is_interface_supported@RMultiImage2D_SDL_ttf@SDL_GL@ui@modules@UModSys@@UBE_NPBUSUniquePointerInfo@core@5@@Z 10007b00 f i umodsys_lib_libui:umodsys.mod.ui.SDL_GL.obj
 0001:00006b40       ?ref_add@RGenerator@stdlib@lib3d@modules@UModSys@@UBEXXZ 10007b40 f i umodsys_lib_lib3d:umodsys.mod.3d.stdlib.obj
 0001:00006b40       ?ref_add@RGenerator@SDL_core@ui@modules@UModSys@@UBEXXZ 10007b40 f i umodsys_lib_libui:umodsys.mod.ui.SDL_core.obj
 0001:00006b40       ?ref_add@RGenerator@frames@ui@modules@UModSys@@UBEXXZ 10007b40 f i umodsys_lib_libui:umodsys.mod.ui.frames.obj
 0001:00006b40       ?ref_add@RGenerator@stdlib@lib2d@modules@UModSys@@UBEXXZ 10007b40 f i umodsys_lib_lib2d:umodsys.mod.2d.stdlib.obj
 0001:00006b40       ?ref_add@RGeneral@object_primitive@stdlib@lib3d@modules@UModSys@@UBEXXZ 10007b40 f i umodsys_lib_lib3d:umodsys.mod.3d.stdlib.obj
 0001:00006b40       ?ref_add@RDialog@frames@ui@modules@UModSys@@UBEXXZ 10007b40 f i umodsys_lib_libui:umodsys.mod.ui.frames.obj
 0001:00006b40       ?ref_add@RVertexArray@SDL_GL@ui@modules@UModSys@@UBEXXZ 10007b40 f i umodsys_lib_libui:umodsys.mod.ui.SDL_GL.obj
 0001:00006b40       ?ref_add@RGenerator@serialize_json@media@modules@UModSys@@UBEXXZ 10007b40 f i umodsys_lib_libmedia:umodsys.mod.media.serialize_json.obj
 0001:00006b40       ?ref_add@RMultiImage2D_SDL_ttf@SDL_GL@ui@modules@UModSys@@UBEXXZ 10007b40 f i umodsys_lib_libui:umodsys.mod.ui.SDL_GL.obj
 0001:00006b40       ?ref_add@RTextureGL@SDL_GL@ui@modules@UModSys@@UBEXXZ 10007b40 f i umodsys_lib_libui:umodsys.mod.ui.SDL_GL.obj
 0001:00006b40       ?ref_add@RMultiImage@stdlib@lib2d@modules@UModSys@@UBEXXZ 10007b40 f i umodsys_lib_lib2d:umodsys.mod.2d.stdlib.obj
 0001:00006b40       ?ref_add@RGenerator@zlib@media@modules@UModSys@@UBEXXZ 10007b40 f i umodsys_lib_libmedia:umodsys.mod.media.zlib.obj
 0001:00006b40       ?ref_add@RGenerator@images_std@media@modules@UModSys@@UBEXXZ 10007b40 f i umodsys_lib_libmedia:umodsys.mod.media.images_std.obj
 0001:00006b40       ?ref_add@RSerializeReader@serialize_json@media@modules@UModSys@@UBEXXZ 10007b40 f i umodsys_lib_libmedia:umodsys.mod.media.serialize_json.obj
 0001:00006b40       ?ref_add@RMultiImage2D_SDL_ttf@SDL_core@ui@modules@UModSys@@UBEXXZ 10007b40 f i umodsys_lib_libui:umodsys.mod.ui.SDL_core.obj
 0001:00006b40       ?ref_add@RGeneral@object_camera@stdlib@lib3d@modules@UModSys@@UBEXXZ 10007b40 f i umodsys_lib_lib3d:umodsys.mod.3d.stdlib.obj
 0001:00006b40       ?ref_add@RImage_Memory@stdlib@lib2d@modules@UModSys@@UBEXXZ 10007b40 f i umodsys_lib_lib2d:umodsys.mod.2d.stdlib.obj
 0001:00006b40       ?ref_add@RTerminal@SDL_GL@ui@modules@UModSys@@UBEXXZ 10007b40 f i umodsys_lib_libui:umodsys.mod.ui.SDL_GL.obj
 0001:00006b40       ?ref_add@RGenerator@test1@test@modules@UModSys@@UBEXXZ 10007b40 f i plugin_test1.obj
 0001:00006b40       ?ref_add@RGenerator@SDL_GL@ui@modules@UModSys@@UBEXXZ 10007b40 f i umodsys_lib_libui:umodsys.mod.ui.SDL_GL.obj
 0001:00006b40       ?ref_add@RImageFactory_Memory@stdlib@lib2d@modules@UModSys@@UBEXXZ 10007b40 f i umodsys_lib_lib2d:umodsys.mod.2d.stdlib.obj
 0001:00006b40       ?ref_add@RBinArchiveFrameClient_ZIP@zlib@media@modules@UModSys@@UBEXXZ 10007b40 f i umodsys_lib_libmedia:umodsys.mod.media.zlib.obj
 0001:00006b40       ?ref_add@RVisualizerScene@stdlib@lib3d@modules@UModSys@@UBEXXZ 10007b40 f i umodsys_lib_lib3d:umodsys.mod.3d.stdlib.obj
 0001:00006b40       ?ref_add@RTerminal@SDL_core@ui@modules@UModSys@@UBEXXZ 10007b40 f i umodsys_lib_libui:umodsys.mod.ui.SDL_core.obj
 0001:00006b50       ??1Glyph@RMultiImage2D_SDL_ttf@SDL_GL@ui@modules@UModSys@@QAE@XZ 10007b50 f i umodsys_lib_libui:umodsys.mod.ui.SDL_GL.obj
 0001:00006ba0       ?get_layer@RMultiImage2D_SDL_ttf@SDL_GL@ui@modules@UModSys@@UBEPAUIImage@lib2d@5@G@Z 10007ba0 f i umodsys_lib_libui:umodsys.mod.ui.SDL_GL.obj
 0001:00006ba0       ?get_layer@RMultiImage2D_SDL_ttf@SDL_core@ui@modules@UModSys@@UBEPAUIImage@lib2d@5@G@Z 10007ba0 f i umodsys_lib_libui:umodsys.mod.ui.SDL_core.obj
 0001:00006bb0       ?get_cell@RMultiImage2D_SDL_ttf@SDL_core@ui@modules@UModSys@@UBE_NIAAU?$TVector2@H@math3d@5@PAU675@PAG@Z 10007bb0 f i umodsys_lib_libui:umodsys.mod.ui.SDL_core.obj
 0001:00006bb0       ?get_cell@RMultiImage2D_SDL_ttf@SDL_GL@ui@modules@UModSys@@UBE_NIAAU?$TVector2@H@math3d@5@PAU675@PAG@Z 10007bb0 f i umodsys_lib_libui:umodsys.mod.ui.SDL_GL.obj
 0001:00006bc0       ?key_event@RFrame_Common@frames@ui@modules@UModSys@@MAE_NABUSKeyboardInputText@libui@5@@Z 10007bc0 f i umodsys_lib_libui:umodsys.mod.ui.frames.obj
 0001:00006bc0       ?key_event@RFrame_Common@frames@ui@modules@UModSys@@MAE_NABUSKeyboardInputRaw@libui@5@@Z 10007bc0 f i umodsys_lib_libui:umodsys.mod.ui.frames.obj
 0001:00006bc0       ?mouse_event@RFrame_Common@frames@ui@modules@UModSys@@MAE_NPBUSMouseInput@libui@5@@Z 10007bc0 f i umodsys_lib_libui:umodsys.mod.ui.frames.obj
 0001:00006bc0       ?set_layer_count@RMultiImage2D_SDL_ttf@SDL_GL@ui@modules@UModSys@@UAE_NG@Z 10007bc0 f i umodsys_lib_libui:umodsys.mod.ui.SDL_GL.obj
 0001:00006bc0       ?set_layer_count@RMultiImage2D_SDL_ttf@SDL_core@ui@modules@UModSys@@UAE_NG@Z 10007bc0 f i umodsys_lib_libui:umodsys.mod.ui.SDL_core.obj
 0001:00006bc0       ?set_insize@RFrame_Common@frames@ui@modules@UModSys@@UAE_NABU?$TVector2@H@math3d@5@@Z 10007bc0 f i umodsys_lib_libui:umodsys.mod.ui.frames.obj
 0001:00006bd0       ?setup_variable_cell@RMultiImage2D_SDL_ttf@SDL_GL@ui@modules@UModSys@@UAE_NPBUSImageCellInfo@lib2d@5@KK@Z 10007bd0 f i umodsys_lib_libui:umodsys.mod.ui.SDL_GL.obj
 0001:00006bd0       ?setup_variable_cell@RMultiImage2D_SDL_ttf@SDL_core@ui@modules@UModSys@@UAE_NPBUSImageCellInfo@lib2d@5@KK@Z 10007bd0 f i umodsys_lib_libui:umodsys.mod.ui.SDL_core.obj
 0001:00006be0       ?root_get_interface_info@RRenderDriver3D@SDL_GL@ui@modules@UModSys@@UBEABUSUniquePointerInfo@core@5@XZ 10007be0 f i umodsys_lib_libui:umodsys.mod.ui.SDL_GL.obj
 0001:00006bf0       ?root_get_interface_type@RRenderDriver3D@SDL_GL@ui@modules@UModSys@@UBEPBUSUniquePointerInfo@core@5@XZ 10007bf0 f i umodsys_lib_libui:umodsys.mod.ui.SDL_GL.obj
 0001:00006c00       ?root_get_other_interface@RRenderDriver3D@SDL_GL@ui@modules@UModSys@@UAEPAUIRoot@core@5@PBUSUniquePointerInfo@75@@Z 10007c00 f i umodsys_lib_libui:umodsys.mod.ui.SDL_GL.obj
 0001:00006c00       ?root_get_other_interface@RRenderDriver3D@SDL_GL@ui@modules@UModSys@@UBEPBUIRoot@core@5@PBUSUniquePointerInfo@75@@Z 10007c00 f i umodsys_lib_libui:umodsys.mod.ui.SDL_GL.obj
 0001:00006c40       ?root_is_interface_supported@RRenderDriver3D@SDL_GL@ui@modules@UModSys@@UBE_NPBUSUniquePointerInfo@core@5@@Z 10007c40 f i umodsys_lib_libui:umodsys.mod.ui.SDL_GL.obj
 0001:00006c80       ?root_get_interface_info@RTerminalX@SDL_GL@ui@modules@UModSys@@UBEABUSUniquePointerInfo@core@5@XZ 10007c80 f i umodsys_lib_libui:umodsys.mod.ui.SDL_GL.obj
 0001:00006c90       ?root_get_interface_type@RTerminalX@SDL_GL@ui@modules@UModSys@@UBEPBUSUniquePointerInfo@core@5@XZ 10007c90 f i umodsys_lib_libui:umodsys.mod.ui.SDL_GL.obj
 0001:00006ca0       ?root_get_other_interface@RTerminalX@SDL_GL@ui@modules@UModSys@@UBEPBUIRoot@core@5@PBUSUniquePointerInfo@75@@Z 10007ca0 f i umodsys_lib_libui:umodsys.mod.ui.SDL_GL.obj
 0001:00006ca0       ?root_get_other_interface@RTerminalX@SDL_GL@ui@modules@UModSys@@UAEPAUIRoot@core@5@PBUSUniquePointerInfo@75@@Z 10007ca0 f i umodsys_lib_libui:umodsys.mod.ui.SDL_GL.obj
 0001:00006cd0       ?root_is_interface_supported@RTerminalX@SDL_GL@ui@modules@UModSys@@UBE_NPBUSUniquePointerInfo@core@5@@Z 10007cd0 f i umodsys_lib_libui:umodsys.mod.ui.SDL_GL.obj
 0001:00006d10       ?root_get_interface_info@RVertexArray@SDL_GL@ui@modules@UModSys@@UBEABUSUniquePointerInfo@core@5@XZ 10007d10 f i umodsys_lib_libui:umodsys.mod.ui.SDL_GL.obj
 0001:00006d20       ?root_get_interface_type@RVertexArray@SDL_GL@ui@modules@UModSys@@UBEPBUSUniquePointerInfo@core@5@XZ 10007d20 f i umodsys_lib_libui:umodsys.mod.ui.SDL_GL.obj
 0001:00006d30       ?root_get_other_interface@RVertexArray@SDL_GL@ui@modules@UModSys@@UAEPAUIRoot@core@5@PBUSUniquePointerInfo@75@@Z 10007d30 f i umodsys_lib_libui:umodsys.mod.ui.SDL_GL.obj
 0001:00006d30       ?root_get_other_interface@RVertexArray@SDL_GL@ui@modules@UModSys@@UBEPBUIRoot@core@5@PBUSUniquePointerInfo@75@@Z 10007d30 f i umodsys_lib_libui:umodsys.mod.ui.SDL_GL.obj
 0001:00006d60       ?root_is_interface_supported@RVertexArray@SDL_GL@ui@modules@UModSys@@UBE_NPBUSUniquePointerInfo@core@5@@Z 10007d60 f i umodsys_lib_libui:umodsys.mod.ui.SDL_GL.obj
 0001:00006da0       ?root_get_interface_info@RTextureGL@SDL_GL@ui@modules@UModSys@@UBEABUSUniquePointerInfo@core@5@XZ 10007da0 f i umodsys_lib_libui:umodsys.mod.ui.SDL_GL.obj
 0001:00006db0       ?root_get_interface_type@RTextureGL@SDL_GL@ui@modules@UModSys@@UBEPBUSUniquePointerInfo@core@5@XZ 10007db0 f i umodsys_lib_libui:umodsys.mod.ui.SDL_GL.obj
 0001:00006dc0       ?root_get_other_interface@RTextureGL@SDL_GL@ui@modules@UModSys@@UAEPAUIRoot@core@5@PBUSUniquePointerInfo@75@@Z 10007dc0 f i umodsys_lib_libui:umodsys.mod.ui.SDL_GL.obj
 0001:00006dc0       ?root_get_other_interface@RTextureGL@SDL_GL@ui@modules@UModSys@@UBEPBUIRoot@core@5@PBUSUniquePointerInfo@75@@Z 10007dc0 f i umodsys_lib_libui:umodsys.mod.ui.SDL_GL.obj
 0001:00006e00       ?root_is_interface_supported@RTextureGL@SDL_GL@ui@modules@UModSys@@UBE_NPBUSUniquePointerInfo@core@5@@Z 10007e00 f i umodsys_lib_libui:umodsys.mod.ui.SDL_GL.obj
 0001:00006e40       ?get_generated_names@RGenerator@SDL_GL@ui@modules@UModSys@@UBEHAAUSUniquePtrList@core@5@@Z 10007e40 f i umodsys_lib_libui:umodsys.mod.ui.SDL_GL.obj
 0001:00006e60       ?get_generated_types@RGenerator@SDL_GL@ui@modules@UModSys@@UBEHAAUSUniquePtrList@core@5@PBUSUniquePointerInfo@75@@Z 10007e60 f i umodsys_lib_libui:umodsys.mod.ui.SDL_GL.obj
 0001:00006eb0       ?generate@RGenerator@SDL_GL@ui@modules@UModSys@@UAE_NAAU?$TRefObject@UIRefObject@core@UModSys@@U?$TRefObjectFunc@UIRefObject@core@UModSys@@@tl@3@@tl@5@PBUSUniquePointerInfo@core@5@ABUSParameters@95@@Z 10007eb0 f i umodsys_lib_libui:umodsys.mod.ui.SDL_GL.obj
 0001:00006ee0       ?root_get_interface_info@RGenerator@SDL_GL@ui@modules@UModSys@@UBEABUSUniquePointerInfo@core@5@XZ 10007ee0 f i umodsys_lib_libui:umodsys.mod.ui.SDL_GL.obj
 0001:00006ef0       ?root_get_interface_type@RGenerator@SDL_GL@ui@modules@UModSys@@UBEPBUSUniquePointerInfo@core@5@XZ 10007ef0 f i umodsys_lib_libui:umodsys.mod.ui.SDL_GL.obj
 0001:00006f00       ?root_get_other_interface@RGenerator@SDL_GL@ui@modules@UModSys@@UBEPBUIRoot@core@5@PBUSUniquePointerInfo@75@@Z 10007f00 f i umodsys_lib_libui:umodsys.mod.ui.SDL_GL.obj
 0001:00006f00       ?root_get_other_interface@RGenerator@SDL_GL@ui@modules@UModSys@@UAEPAUIRoot@core@5@PBUSUniquePointerInfo@75@@Z 10007f00 f i umodsys_lib_libui:umodsys.mod.ui.SDL_GL.obj
 0001:00006f40       ?root_is_interface_supported@RGenerator@SDL_GL@ui@modules@UModSys@@UBE_NPBUSUniquePointerInfo@core@5@@Z 10007f40 f i umodsys_lib_libui:umodsys.mod.ui.SDL_GL.obj
 0001:00006f80       ?ref_remove@RVisualizerScene@stdlib@lib3d@modules@UModSys@@UBEXXZ 10007f80 f i umodsys_lib_lib3d:umodsys.mod.3d.stdlib.obj
 0001:00006f80       ?ref_remove@RTextureGL@SDL_GL@ui@modules@UModSys@@UBEXXZ 10007f80 f i umodsys_lib_libui:umodsys.mod.ui.SDL_GL.obj
 0001:00006f80       ?ref_remove@RBinArchiveFrameClient_ZIP@zlib@media@modules@UModSys@@UBEXXZ 10007f80 f i umodsys_lib_libmedia:umodsys.mod.media.zlib.obj
 0001:00006f80       ?ref_remove@RImage_Memory@stdlib@lib2d@modules@UModSys@@UBEXXZ 10007f80 f i umodsys_lib_lib2d:umodsys.mod.2d.stdlib.obj
 0001:00006f80       ?ref_remove@RGeneral@object_primitive@stdlib@lib3d@modules@UModSys@@UBEXXZ 10007f80 f i umodsys_lib_lib3d:umodsys.mod.3d.stdlib.obj
 0001:00006f80       ?ref_remove@RGenerator@SDL_GL@ui@modules@UModSys@@UBEXXZ 10007f80 f i umodsys_lib_libui:umodsys.mod.ui.SDL_GL.obj
 0001:00006f80       ?ref_remove@RTerminal@SDL_core@ui@modules@UModSys@@UBEXXZ 10007f80 f i umodsys_lib_libui:umodsys.mod.ui.SDL_core.obj
 0001:00006f80       ?ref_remove@RGeneral@object_camera@stdlib@lib3d@modules@UModSys@@UBEXXZ 10007f80 f i umodsys_lib_lib3d:umodsys.mod.3d.stdlib.obj
 0001:00006f80       ?ref_remove@RGenerator@test1@test@modules@UModSys@@UBEXXZ 10007f80 f i plugin_test1.obj
 0001:00006f80       ?ref_remove@RGenerator@stdlib@lib3d@modules@UModSys@@UBEXXZ 10007f80 f i umodsys_lib_lib3d:umodsys.mod.3d.stdlib.obj
 0001:00006f80       ?ref_remove@RGenerator@serialize_json@media@modules@UModSys@@UBEXXZ 10007f80 f i umodsys_lib_libmedia:umodsys.mod.media.serialize_json.obj
 0001:00006f80       ?ref_remove@RMultiImage2D_SDL_ttf@SDL_GL@ui@modules@UModSys@@UBEXXZ 10007f80 f i umodsys_lib_libui:umodsys.mod.ui.SDL_GL.obj
 0001:00006f80       ?ref_remove@RImageFactory_Memory@stdlib@lib2d@modules@UModSys@@UBEXXZ 10007f80 f i umodsys_lib_lib2d:umodsys.mod.2d.stdlib.obj
 0001:00006f80       ?ref_remove@RGenerator@SDL_core@ui@modules@UModSys@@UBEXXZ 10007f80 f i umodsys_lib_libui:umodsys.mod.ui.SDL_core.obj
 0001:00006f80       ?ref_remove@RGenerator@frames@ui@modules@UModSys@@UBEXXZ 10007f80 f i umodsys_lib_libui:umodsys.mod.ui.frames.obj
 0001:00006f80       ?ref_remove@RMultiImage@stdlib@lib2d@modules@UModSys@@UBEXXZ 10007f80 f i umodsys_lib_lib2d:umodsys.mod.2d.stdlib.obj
 0001:00006f80       ?ref_remove@RGenerator@stdlib@lib2d@modules@UModSys@@UBEXXZ 10007f80 f i umodsys_lib_lib2d:umodsys.mod.2d.stdlib.obj
 0001:00006f80       ?ref_remove@RGenerator@zlib@media@modules@UModSys@@UBEXXZ 10007f80 f i umodsys_lib_libmedia:umodsys.mod.media.zlib.obj
 0001:00006f80       ?ref_remove@RMultiImage2D_SDL_ttf@SDL_core@ui@modules@UModSys@@UBEXXZ 10007f80 f i umodsys_lib_libui:umodsys.mod.ui.SDL_core.obj
 0001:00006f80       ?ref_remove@RDialog@frames@ui@modules@UModSys@@UBEXXZ 10007f80 f i umodsys_lib_libui:umodsys.mod.ui.frames.obj
 0001:00006f80       ?ref_remove@RGenerator@images_std@media@modules@UModSys@@UBEXXZ 10007f80 f i umodsys_lib_libmedia:umodsys.mod.media.images_std.obj
 0001:00006f80       ?ref_remove@RSerializeReader@serialize_json@media@modules@UModSys@@UBEXXZ 10007f80 f i umodsys_lib_libmedia:umodsys.mod.media.serialize_json.obj
 0001:00006f80       ?ref_remove@RTerminal@SDL_GL@ui@modules@UModSys@@UBEXXZ 10007f80 f i umodsys_lib_libui:umodsys.mod.ui.SDL_GL.obj
 0001:00006f80       ?ref_remove@RVertexArray@SDL_GL@ui@modules@UModSys@@UBEXXZ 10007f80 f i umodsys_lib_libui:umodsys.mod.ui.SDL_GL.obj
 0001:00006f90       ?get_uid@RGenerator@SDL_GL@ui@modules@UModSys@@UBEPBUSUniquePointerInfo@core@5@XZ 10007f90 f i umodsys_lib_libui:umodsys.mod.ui.SDL_GL.obj
 0001:00006fa0       ??_ERKeyboardController@SDL_GL@ui@modules@UModSys@@UAEPAXI@Z 10007fa0 f i  CIL library: CIL module
 0001:00006fa0       ??_GRKeyboardController@SDL_GL@ui@modules@UModSys@@UAEPAXI@Z 10007fa0 f i umodsys_lib_libui:umodsys.mod.ui.SDL_GL.obj
 0001:00006fc0       ??_GRMouseController@SDL_GL@ui@modules@UModSys@@UAEPAXI@Z 10007fc0 f i umodsys_lib_libui:umodsys.mod.ui.SDL_GL.obj
 0001:00006fc0       ??_ERMouseController@SDL_GL@ui@modules@UModSys@@UAEPAXI@Z 10007fc0 f i  CIL library: CIL module
 0001:00006fe0       ??_ERTerminal@SDL_GL@ui@modules@UModSys@@UAEPAXI@Z 10007fe0 f i  CIL library: CIL module
 0001:00006fe0       ??_GRTerminal@SDL_GL@ui@modules@UModSys@@UAEPAXI@Z 10007fe0 f i umodsys_lib_libui:umodsys.mod.ui.SDL_GL.obj
 0001:00007000       ??_ERMultiImage2D_SDL_ttf@SDL_GL@ui@modules@UModSys@@UAEPAXI@Z 10008000 f i  CIL library: CIL module
 0001:00007000       ??_GRMultiImage2D_SDL_ttf@SDL_GL@ui@modules@UModSys@@UAEPAXI@Z 10008000 f i umodsys_lib_libui:umodsys.mod.ui.SDL_GL.obj
 0001:00007020       ?set_flags@SGLFuncs@SDL_GL@ui@modules@UModSys@@QBEXPBUTextureInfo@12345@ABUSRenderMapFlags@lib3d@5@@Z 10008020 f i umodsys_lib_libui:umodsys.mod.ui.SDL_GL.obj
 0001:00007080       ??_ERTextureGL@SDL_GL@ui@modules@UModSys@@UAEPAXI@Z 10008080 f i  CIL library: CIL module
 0001:00007080       ??_GRTextureGL@SDL_GL@ui@modules@UModSys@@UAEPAXI@Z 10008080 f i umodsys_lib_libui:umodsys.mod.ui.SDL_GL.obj
 0001:000070a0       ??_GRRenderDriver3D@SDL_GL@ui@modules@UModSys@@UAEPAXI@Z 100080a0 f i umodsys_lib_libui:umodsys.mod.ui.SDL_GL.obj
 0001:000070a0       ??_ERRenderDriver3D@SDL_GL@ui@modules@UModSys@@UAEPAXI@Z 100080a0 f i  CIL library: CIL module
 0001:000070c0       ??_ERVertexArray@SDL_GL@ui@modules@UModSys@@UAEPAXI@Z 100080c0 f i  CIL library: CIL module
 0001:000070c0       ??_GRVertexArray@SDL_GL@ui@modules@UModSys@@UAEPAXI@Z 100080c0 f i umodsys_lib_libui:umodsys.mod.ui.SDL_GL.obj
 0001:000070e0       ??_GRTerminalX@SDL_GL@ui@modules@UModSys@@UAEPAXI@Z 100080e0 f i umodsys_lib_libui:umodsys.mod.ui.SDL_GL.obj
 0001:000070e0       ??_ERTerminalX@SDL_GL@ui@modules@UModSys@@UAEPAXI@Z 100080e0 f i  CIL library: CIL module
 0001:00007100       ?do_open@RModuleReg@SDL_GL@ui@modules@UModSys@@UAE_NXZ 10008100 f i umodsys_lib_libui:umodsys.mod.ui.SDL_GL.obj
 0001:00007110       ?do_close@RModuleReg@SDL_GL@ui@modules@UModSys@@UAE_NXZ 10008110 f i umodsys_lib_libui:umodsys.mod.ui.SDL_GL.obj
 0001:00007120       ??_ERModuleReg@SDL_GL@ui@modules@UModSys@@UAEPAXI@Z 10008120 f i  CIL library: CIL module
 0001:00007120       ??_GRModuleReg@SDL_GL@ui@modules@UModSys@@UAEPAXI@Z 10008120 f i umodsys_lib_libui:umodsys.mod.ui.SDL_GL.obj
 0001:00007150       ??1?$TScatterArray@UGlyph@RMultiImage2D_SDL_ttf@SDL_GL@ui@modules@UModSys@@HU?$TScalarCompare@H@core@6@U?$TNodeDeleter0@U?$TScatterArrayNode@UGlyph@RMultiImage2D_SDL_ttf@SDL_GL@ui@modules@UModSys@@H@tl@UModSys@@@tl@6@@tl@UModSys@@QAE@XZ 10008150 f i umodsys_lib_libui:umodsys.mod.ui.SDL_GL.obj
 0001:000071a0       ??1?$TDynarrayDynamic@USLayInfo@RVertexArray@SDL_GL@ui@modules@UModSys@@U?$TAllocator@USIMemAlloc@core@UModSys@@USCountCalcExact@23@@tl@6@@tl@UModSys@@QAE@XZ 100081a0 f i umodsys_lib_libui:umodsys.mod.ui.SDL_GL.obj
 0001:000071d0       ?Resize@?$TDynarray@U?$TDynarrayHolderDynamic@USLayInfo@RVertexArray@SDL_GL@ui@modules@UModSys@@U?$TAllocator@USIMemAlloc@core@UModSys@@USCountCalcExact@23@@tl@6@@tl@UModSys@@@tl@UModSys@@QAE_NI@Z 100081d0 f i umodsys_lib_libui:umodsys.mod.ui.SDL_GL.obj
 0001:00007220       ?remove_node@?$TTreeHoldRB@U?$TScatterArrayNode@U?$TRefObjectCompositeExtra@UIMouseClient@libui@UModSys@@HUIRefObject@core@3@U?$TRefObjectFunc@UIRefObject@core@UModSys@@@tl@3@@tl@UModSys@@H@tl@UModSys@@@tl@UModSys@@QAEXPAU?$TScatterArrayNode@U?$TRefObjectCompositeExtra@UIMouseClient@libui@UModSys@@HUIRefObject@core@3@U?$TRefObjectFunc@UIRefObject@core@UModSys@@@tl@3@@tl@UModSys@@H@23@@Z 10008220 f i umodsys_lib_libui:umodsys.mod.ui.SDL_GL.obj
 0001:00007220       ?remove_node@?$TTreeHoldRB@U?$TScatterArrayNode@U?$TRefObjectComposite@UIKeyboardClient@libui@UModSys@@UIRefObject@core@3@U?$TRefObjectFunc@UIRefObject@core@UModSys@@@tl@3@@tl@UModSys@@H@tl@UModSys@@@tl@UModSys@@QAEXPAU?$TScatterArrayNode@U?$TRefObjectComposite@UIKeyboardClient@libui@UModSys@@UIRefObject@core@3@U?$TRefObjectFunc@UIRefObject@core@UModSys@@@tl@3@@tl@UModSys@@H@23@@Z 10008220 f i umodsys_lib_libui:umodsys.mod.ui.SDL_GL.obj
 0001:00007310       ?Free@?$TDynarray@U?$TDynarrayHolderDynamic@USLayInfo@RVertexArray@SDL_GL@ui@modules@UModSys@@U?$TAllocator@USIMemAlloc@core@UModSys@@USCountCalcExact@23@@tl@6@@tl@UModSys@@@tl@UModSys@@QAE_NXZ 10008310 f i umodsys_lib_libui:umodsys.mod.ui.SDL_GL.obj
 0001:00007380       ??1?$TPair@HU?$TRefObjectComposite@UIKeyboardClient@libui@UModSys@@UIRefObject@core@3@U?$TRefObjectFunc@UIRefObject@core@UModSys@@@tl@3@@tl@UModSys@@@tl@UModSys@@QAE@XZ 10008380 f i umodsys_lib_libui:umodsys.mod.ui.SDL_GL.obj
 0001:00007380       ??1?$TPair@HU?$TRefObjectCompositeExtra@UIMouseClient@libui@UModSys@@HUIRefObject@core@3@U?$TRefObjectFunc@UIRefObject@core@UModSys@@@tl@3@@tl@UModSys@@@tl@UModSys@@QAE@XZ 10008380 f i umodsys_lib_libui:umodsys.mod.ui.SDL_GL.obj
 0001:00007390       ??1?$TRefObjectComposite@UIKeyboardClient@libui@UModSys@@UIRefObject@core@3@U?$TRefObjectFunc@UIRefObject@core@UModSys@@@tl@3@@tl@UModSys@@QAE@XZ 10008390 f i umodsys_lib_libui:umodsys.mod.ui.SDL_GL.obj
 0001:00007390       ??1?$TRefObjectComposite@UIController@libui@UModSys@@UIRefObject@core@3@U?$TRefObjectFunc@UIRefObject@core@UModSys@@@tl@3@@tl@UModSys@@QAE@XZ 10008390 f i umodsys_lib_libui:umodsys.mod.ui.frames.obj
 0001:00007390       ??1?$TRefObjectCompositeExtra@UIMouseClient@libui@UModSys@@HUIRefObject@core@3@U?$TRefObjectFunc@UIRefObject@core@UModSys@@@tl@3@@tl@UModSys@@QAE@XZ 10008390 f i umodsys_lib_libui:umodsys.mod.ui.SDL_GL.obj
 0001:00007400       ??$slen@H@su@tl@UModSys@@YAIPBH@Z 10008400 f i umodsys_lib_libui:umodsys.mod.ui.SDL_GL.obj
 0001:00007420       ?remove_color@?$TTreeHoldRB@U?$TScatterArrayNode@U?$TRefObjectCompositeExtra@UIMouseClient@libui@UModSys@@HUIRefObject@core@3@U?$TRefObjectFunc@UIRefObject@core@UModSys@@@tl@3@@tl@UModSys@@H@tl@UModSys@@@tl@UModSys@@IAEXPAU?$TScatterArrayNode@U?$TRefObjectCompositeExtra@UIMouseClient@libui@UModSys@@HUIRefObject@core@3@U?$TRefObjectFunc@UIRefObject@core@UModSys@@@tl@3@@tl@UModSys@@H@23@0@Z 10008420 f i umodsys_lib_libui:umodsys.mod.ui.SDL_GL.obj
 0001:00007420       ?remove_color@?$TTreeHoldRB@U?$TScatterArrayNode@U?$TRefObjectComposite@UIKeyboardClient@libui@UModSys@@UIRefObject@core@3@U?$TRefObjectFunc@UIRefObject@core@UModSys@@@tl@3@@tl@UModSys@@H@tl@UModSys@@@tl@UModSys@@IAEXPAU?$TScatterArrayNode@U?$TRefObjectComposite@UIKeyboardClient@libui@UModSys@@UIRefObject@core@3@U?$TRefObjectFunc@UIRefObject@core@UModSys@@@tl@3@@tl@UModSys@@H@23@0@Z 10008420 f i umodsys_lib_libui:umodsys.mod.ui.SDL_GL.obj
 0001:000075a0       ?ref_weak@?$TRefObjectLinksComposite@URRenderDriver2D@SDL_core@ui@modules@UModSys@@URTerminalX@2345@@tl@UModSys@@QBE_NPAURRenderDriver2D@SDL_core@ui@modules@3@AAUWeakPointer@IRefObject@core@3@@Z 100085a0 f i umodsys_lib_libui:umodsys.mod.ui.SDL_core.obj
 0001:000075a0       ?ref_weak@?$TRefObjectLinksComposite@URMouseController@SDL_core@ui@modules@UModSys@@URTerminal@2345@@tl@UModSys@@QBE_NPAURMouseController@SDL_core@ui@modules@3@AAUWeakPointer@IRefObject@core@3@@Z 100085a0 f i umodsys_lib_libui:umodsys.mod.ui.SDL_core.obj
 0001:000075a0       ?ref_weak@?$TRefObjectLinksComposite@URMouseController@SDL_GL@ui@modules@UModSys@@URTerminal@2345@@tl@UModSys@@QBE_NPAURMouseController@SDL_GL@ui@modules@3@AAUWeakPointer@IRefObject@core@3@@Z 100085a0 f i umodsys_lib_libui:umodsys.mod.ui.SDL_GL.obj
 0001:000075a0       ?ref_weak@?$TRefObjectLinksComposite@URKeyboardController@SDL_GL@ui@modules@UModSys@@URTerminal@2345@@tl@UModSys@@QBE_NPAURKeyboardController@SDL_GL@ui@modules@3@AAUWeakPointer@IRefObject@core@3@@Z 100085a0 f i umodsys_lib_libui:umodsys.mod.ui.SDL_GL.obj
 0001:000075a0       ?ref_weak@?$TRefObjectLinksComposite@URRenderDriver3D@SDL_GL@ui@modules@UModSys@@URTerminalX@2345@@tl@UModSys@@QBE_NPAURRenderDriver3D@SDL_GL@ui@modules@3@AAUWeakPointer@IRefObject@core@3@@Z 100085a0 f i umodsys_lib_libui:umodsys.mod.ui.SDL_GL.obj
 0001:000075a0       ?ref_weak@?$TRefObjectLinksComposite@URKeyboardController@SDL_core@ui@modules@UModSys@@URTerminal@2345@@tl@UModSys@@QBE_NPAURKeyboardController@SDL_core@ui@modules@3@AAUWeakPointer@IRefObject@core@3@@Z 100085a0 f i umodsys_lib_libui:umodsys.mod.ui.SDL_core.obj
 0001:000075c0       ??$t_gen_param@URTerminalX@SDL_GL@ui@modules@UModSys@@URGenerator@2345@@IGenerator@base@UModSys@@IAE_NPAURGenerator@SDL_GL@ui@modules@2@AAU?$TRefObject@UIRefObject@core@UModSys@@U?$TRefObjectFunc@UIRefObject@core@UModSys@@@tl@3@@tl@2@PBUSUniquePointerInfo@core@2@ABUSParameters@core@2@@Z 100085c0 f i umodsys_lib_libui:umodsys.mod.ui.SDL_GL.obj
 0001:00007640       ??$t_ref_get_other_interface@URMultiImage2D_SDL_ttf@SDL_GL@ui@modules@UModSys@@U?$TRefObjectWeakFunc@URMultiImage2D_SDL_ttf@SDL_GL@ui@modules@UModSys@@@tl@5@@IRefObject@core@UModSys@@QAE_NAAU?$TRefObject@URMultiImage2D_SDL_ttf@SDL_GL@ui@modules@UModSys@@U?$TRefObjectWeakFunc@URMultiImage2D_SDL_ttf@SDL_GL@ui@modules@UModSys@@@tl@5@@tl@2@@Z 10008640 f i umodsys_lib_libui:umodsys.mod.ui.SDL_GL.obj
 0001:000076a0       ??$ValidateConstruction@UITexture@lib3d@UModSys@@URTextureGL@SDL_GL@ui@modules@3@@core@UModSys@@YA_NAAU?$TRefObject@UITexture@lib3d@UModSys@@U?$TRefObjectFunc@UITexture@lib3d@UModSys@@@tl@3@@tl@1@PAURTextureGL@SDL_GL@ui@modules@1@@Z 100086a0 f i umodsys_lib_libui:umodsys.mod.ui.SDL_GL.obj
 0001:00007730       ??$genx_node@UCmp@?$TScatterArray@U?$TRefObjectComposite@UIKeyboardClient@libui@UModSys@@UIRefObject@core@3@U?$TRefObjectFunc@UIRefObject@core@UModSys@@@tl@3@@tl@UModSys@@HU?$TScalarCompare@H@core@3@U?$TNodeDeleter0@U?$TScatterArrayNode@U?$TRefObjectComposite@UIKeyboardClient@libui@UModSys@@UIRefObject@core@3@U?$TRefObjectFunc@UIRefObject@core@UModSys@@@tl@3@@tl@UModSys@@H@tl@UModSys@@@23@@tl@UModSys@@UGen0@234@@?$TTreeHoldRBD@U?$TScatterArrayNode@U?$TRefObjectComposite@UIKeyboardClient@libui@UModSys@@UIRefObject@core@3@U?$TRefObjectFunc@UIRefObject@core@UModSys@@@tl@3@@tl@UModSys@@H@tl@UModSys@@U?$TNodeDeleter0@U?$TScatterArrayNode@U?$TRefObjectComposite@UIKeyboardClient@libui@UModSys@@UIRefObject@core@3@U?$TRefObjectFunc@UIRefObject@core@UModSys@@@tl@3@@tl@UModSys@@H@tl@UModSys@@@23@@tl@UModSys@@QAEPAU?$TScatterArrayNode@U?$TRefObjectComposite@UIKeyboardClient@libui@UModSys@@UIRefObject@core@3@U?$TRefObjectFunc@UIRefObject@core@UModSys@@@tl@3@@tl@UModSys@@H@12@UCmp@?$TScatterArray@U?$TRefObjectComposite@UIKeyboardClient@libui@UModSys@@UIRefObject@core@3@U?$TRefObjectFunc@UIRefObject@core@UModSys@@@tl@3@@tl@UModSys@@HU?$TScalarCompare@H@core@3@U?$TNodeDeleter0@U?$TScatterArrayNode@U?$TRefObjectComposite@UIKeyboardClient@libui@UModSys@@UIRefObject@core@3@U?$TRefObjectFunc@UIRefObject@core@UModSys@@@tl@3@@tl@UModSys@@H@tl@UModSys@@@23@@12@ABUGen0@512@PAPAU312@2_N@Z 10008730 f i umodsys_lib_libui:umodsys.mod.ui.SDL_GL.obj
 0001:000077a0       ??$genx_node@UCmp@?$TScatterArray@U?$TRefObjectCompositeExtra@UIMouseClient@libui@UModSys@@HUIRefObject@core@3@U?$TRefObjectFunc@UIRefObject@core@UModSys@@@tl@3@@tl@UModSys@@HU?$TScalarCompare@H@core@3@U?$TNodeDeleter0@U?$TScatterArrayNode@U?$TRefObjectCompositeExtra@UIMouseClient@libui@UModSys@@HUIRefObject@core@3@U?$TRefObjectFunc@UIRefObject@core@UModSys@@@tl@3@@tl@UModSys@@H@tl@UModSys@@@23@@tl@UModSys@@UGen0@234@@?$TTreeHoldRBD@U?$TScatterArrayNode@U?$TRefObjectCompositeExtra@UIMouseClient@libui@UModSys@@HUIRefObject@core@3@U?$TRefObjectFunc@UIRefObject@core@UModSys@@@tl@3@@tl@UModSys@@H@tl@UModSys@@U?$TNodeDeleter0@U?$TScatterArrayNode@U?$TRefObjectCompositeExtra@UIMouseClient@libui@UModSys@@HUIRefObject@core@3@U?$TRefObjectFunc@UIRefObject@core@UModSys@@@tl@3@@tl@UModSys@@H@tl@UModSys@@@23@@tl@UModSys@@QAEPAU?$TScatterArrayNode@U?$TRefObjectCompositeExtra@UIMouseClient@libui@UModSys@@HUIRefObject@core@3@U?$TRefObjectFunc@UIRefObject@core@UModSys@@@tl@3@@tl@UModSys@@H@12@UCmp@?$TScatterArray@U?$TRefObjectCompositeExtra@UIMouseClient@libui@UModSys@@HUIRefObject@core@3@U?$TRefObjectFunc@UIRefObject@core@UModSys@@@tl@3@@tl@UModSys@@HU?$TScalarCompare@H@core@3@U?$TNodeDeleter0@U?$TScatterArrayNode@U?$TRefObjectCompositeExtra@UIMouseClient@libui@UModSys@@HUIRefObject@core@3@U?$TRefObjectFunc@UIRefObject@core@UModSys@@@tl@3@@tl@UModSys@@H@tl@UModSys@@@23@@12@ABUGen0@512@PAPAU312@2_N@Z 100087a0 f i umodsys_lib_libui:umodsys.mod.ui.SDL_GL.obj
 0001:00007810       ??$genx_node@UCmp@?$TScatterArray@UGlyph@RMultiImage2D_SDL_ttf@SDL_GL@ui@modules@UModSys@@HU?$TScalarCompare@H@core@6@U?$TNodeDeleter0@U?$TScatterArrayNode@UGlyph@RMultiImage2D_SDL_ttf@SDL_GL@ui@modules@UModSys@@H@tl@UModSys@@@tl@6@@tl@UModSys@@UGen0@234@@?$TTreeHoldRBD@U?$TScatterArrayNode@UGlyph@RMultiImage2D_SDL_ttf@SDL_GL@ui@modules@UModSys@@H@tl@UModSys@@U?$TNodeDeleter0@U?$TScatterArrayNode@UGlyph@RMultiImage2D_SDL_ttf@SDL_GL@ui@modules@UModSys@@H@tl@UModSys@@@23@@tl@UModSys@@QAEPAU?$TScatterArrayNode@UGlyph@RMultiImage2D_SDL_ttf@SDL_GL@ui@modules@UModSys@@H@12@UCmp@?$TScatterArray@UGlyph@RMultiImage2D_SDL_ttf@SDL_GL@ui@modules@UModSys@@HU?$TScalarCompare@H@core@6@U?$TNodeDeleter0@U?$TScatterArrayNode@UGlyph@RMultiImage2D_SDL_ttf@SDL_GL@ui@modules@UModSys@@H@tl@UModSys@@@tl@6@@12@ABUGen0@512@PAPAU312@2_N@Z 10008810 f i umodsys_lib_libui:umodsys.mod.ui.SDL_GL.obj
 0001:00007880       ?rotate_left@?$TTreeHoldRB@U?$TScatterArrayNode@U?$TRefObjectCompositeExtra@UIMouseClient@libui@UModSys@@HUIRefObject@core@3@U?$TRefObjectFunc@UIRefObject@core@UModSys@@@tl@3@@tl@UModSys@@H@tl@UModSys@@@tl@UModSys@@IAEXPAU?$TScatterArrayNode@U?$TRefObjectCompositeExtra@UIMouseClient@libui@UModSys@@HUIRefObject@core@3@U?$TRefObjectFunc@UIRefObject@core@UModSys@@@tl@3@@tl@UModSys@@H@23@@Z 10008880 f i umodsys_lib_libui:umodsys.mod.ui.SDL_GL.obj
 0001:00007880       ?rotate_left@?$TTreeHoldRB@U?$TScatterArrayNode@U?$TRefObjectComposite@UIKeyboardClient@libui@UModSys@@UIRefObject@core@3@U?$TRefObjectFunc@UIRefObject@core@UModSys@@@tl@3@@tl@UModSys@@H@tl@UModSys@@@tl@UModSys@@IAEXPAU?$TScatterArrayNode@U?$TRefObjectComposite@UIKeyboardClient@libui@UModSys@@UIRefObject@core@3@U?$TRefObjectFunc@UIRefObject@core@UModSys@@@tl@3@@tl@UModSys@@H@23@@Z 10008880 f i umodsys_lib_libui:umodsys.mod.ui.SDL_GL.obj
 0001:000078d0       ?sub_insert_node@?$TTreeHoldRB@U?$TScatterArrayNode@UGlyph@RMultiImage2D_SDL_ttf@SDL_core@ui@modules@UModSys@@H@tl@UModSys@@@tl@UModSys@@QAEXPAU?$TScatterArrayNode@UGlyph@RMultiImage2D_SDL_ttf@SDL_core@ui@modules@UModSys@@H@23@0H@Z 100088d0 f i umodsys_lib_libui:umodsys.mod.ui.SDL_core.obj
 0001:000078d0       ?sub_insert_node@?$TTreeHoldRB@U?$TScatterArrayNode@U?$TRefObjectComposite@UIKeyboardClient@libui@UModSys@@UIRefObject@core@3@U?$TRefObjectFunc@UIRefObject@core@UModSys@@@tl@3@@tl@UModSys@@H@tl@UModSys@@@tl@UModSys@@QAEXPAU?$TScatterArrayNode@U?$TRefObjectComposite@UIKeyboardClient@libui@UModSys@@UIRefObject@core@3@U?$TRefObjectFunc@UIRefObject@core@UModSys@@@tl@3@@tl@UModSys@@H@23@0H@Z 100088d0 f i umodsys_lib_libui:umodsys.mod.ui.SDL_GL.obj
 0001:000078d0       ?sub_insert_node@?$TTreeHoldRB@U?$TScatterArrayNode@U?$TVector4@M@math3d@UModSys@@H@tl@UModSys@@@tl@UModSys@@QAEXPAU?$TScatterArrayNode@U?$TVector4@M@math3d@UModSys@@H@23@0H@Z 100088d0 f i umodsys_lib_libui:umodsys.mod.ui.frames.obj
 0001:000078d0       ?sub_insert_node@?$TTreeHoldRB@U?$TScatterArrayNode@U?$TRefObjectCompositeExtra@UIMouseClient@libui@UModSys@@HUIRefObject@core@3@U?$TRefObjectFunc@UIRefObject@core@UModSys@@@tl@3@@tl@UModSys@@H@tl@UModSys@@@tl@UModSys@@QAEXPAU?$TScatterArrayNode@U?$TRefObjectCompositeExtra@UIMouseClient@libui@UModSys@@HUIRefObject@core@3@U?$TRefObjectFunc@UIRefObject@core@UModSys@@@tl@3@@tl@UModSys@@H@23@0H@Z 100088d0 f i umodsys_lib_libui:umodsys.mod.ui.SDL_GL.obj
 0001:000078d0       ?sub_insert_node@?$TTreeHoldRB@U?$TScatterArrayNode@HH@tl@UModSys@@@tl@UModSys@@QAEXPAU?$TScatterArrayNode@HH@23@0H@Z 100088d0 f i umodsys_lib_libui:umodsys.mod.ui.frames.obj
 0001:000078d0       ?sub_insert_node@?$TTreeHoldRB@U?$TScatterArrayNode@U?$TVector2@M@math3d@UModSys@@H@tl@UModSys@@@tl@UModSys@@QAEXPAU?$TScatterArrayNode@U?$TVector2@M@math3d@UModSys@@H@23@0H@Z 100088d0 f i umodsys_lib_libui:umodsys.mod.ui.frames.obj
 0001:000078d0       ?sub_insert_node@?$TTreeHoldRB@U?$TScatterArrayNode@UGlyph@RMultiImage2D_SDL_ttf@SDL_GL@ui@modules@UModSys@@H@tl@UModSys@@@tl@UModSys@@QAEXPAU?$TScatterArrayNode@UGlyph@RMultiImage2D_SDL_ttf@SDL_GL@ui@modules@UModSys@@H@23@0H@Z 100088d0 f i umodsys_lib_libui:umodsys.mod.ui.SDL_GL.obj
 0001:00007940       ?rotate_right@?$TTreeHoldRB@U?$TScatterArrayNode@U?$TRefObjectComposite@UIKeyboardClient@libui@UModSys@@UIRefObject@core@3@U?$TRefObjectFunc@UIRefObject@core@UModSys@@@tl@3@@tl@UModSys@@H@tl@UModSys@@@tl@UModSys@@IAEXPAU?$TScatterArrayNode@U?$TRefObjectComposite@UIKeyboardClient@libui@UModSys@@UIRefObject@core@3@U?$TRefObjectFunc@UIRefObject@core@UModSys@@@tl@3@@tl@UModSys@@H@23@@Z 10008940 f i umodsys_lib_libui:umodsys.mod.ui.SDL_GL.obj
 0001:00007940       ?rotate_right@?$TTreeHoldRB@U?$TScatterArrayNode@U?$TRefObjectCompositeExtra@UIMouseClient@libui@UModSys@@HUIRefObject@core@3@U?$TRefObjectFunc@UIRefObject@core@UModSys@@@tl@3@@tl@UModSys@@H@tl@UModSys@@@tl@UModSys@@IAEXPAU?$TScatterArrayNode@U?$TRefObjectCompositeExtra@UIMouseClient@libui@UModSys@@HUIRefObject@core@3@U?$TRefObjectFunc@UIRefObject@core@UModSys@@@tl@3@@tl@UModSys@@H@23@@Z 10008940 f i umodsys_lib_libui:umodsys.mod.ui.SDL_GL.obj
 0001:00007990       ?ReLink@?$TDynarray@U?$TDynarrayHolderDynamic@USLayInfo@RVertexArray@SDL_GL@ui@modules@UModSys@@U?$TAllocator@USIMemAlloc@core@UModSys@@USCountCalcExact@23@@tl@6@@tl@UModSys@@@tl@UModSys@@IAE_NI@Z 10008990 f i umodsys_lib_libui:umodsys.mod.ui.SDL_GL.obj
 0001:000079e0       ?items_construct@?$TDynarray@U?$TDynarrayHolderDynamic@USLayInfo@RVertexArray@SDL_GL@ui@modules@UModSys@@U?$TAllocator@USIMemAlloc@core@UModSys@@USCountCalcExact@23@@tl@6@@tl@UModSys@@@tl@UModSys@@IAEXII@Z 100089e0 f i umodsys_lib_libui:umodsys.mod.ui.SDL_GL.obj
 0001:00007a20       ??RGen0@?$TScatterArray@U?$TRefObjectComposite@UIKeyboardClient@libui@UModSys@@UIRefObject@core@3@U?$TRefObjectFunc@UIRefObject@core@UModSys@@@tl@3@@tl@UModSys@@HU?$TScalarCompare@H@core@3@U?$TNodeDeleter0@U?$TScatterArrayNode@U?$TRefObjectComposite@UIKeyboardClient@libui@UModSys@@UIRefObject@core@3@U?$TRefObjectFunc@UIRefObject@core@UModSys@@@tl@3@@tl@UModSys@@H@tl@UModSys@@@23@@tl@UModSys@@QBEPAU?$TScatterArrayNode@U?$TRefObjectComposite@UIKeyboardClient@libui@UModSys@@UIRefObject@core@3@U?$TRefObjectFunc@UIRefObject@core@UModSys@@@tl@3@@tl@UModSys@@H@23@ABUCmp@123@ABU?$TTreeHoldRBD@U?$TScatterArrayNode@U?$TRefObjectComposite@UIKeyboardClient@libui@UModSys@@UIRefObject@core@3@U?$TRefObjectFunc@UIRefObject@core@UModSys@@@tl@3@@tl@UModSys@@H@tl@UModSys@@U?$TNodeDeleter0@U?$TScatterArrayNode@U?$TRefObjectComposite@UIKeyboardClient@libui@UModSys@@UIRefObject@core@3@U?$TRefObjectFunc@UIRefObject@core@UModSys@@@tl@3@@tl@UModSys@@H@tl@UModSys@@@23@@23@@Z 10008a20 f i umodsys_lib_libui:umodsys.mod.ui.SDL_GL.obj
 0001:00007a80       ??RGen0@?$TScatterArray@U?$TRefObjectCompositeExtra@UIMouseClient@libui@UModSys@@HUIRefObject@core@3@U?$TRefObjectFunc@UIRefObject@core@UModSys@@@tl@3@@tl@UModSys@@HU?$TScalarCompare@H@core@3@U?$TNodeDeleter0@U?$TScatterArrayNode@U?$TRefObjectCompositeExtra@UIMouseClient@libui@UModSys@@HUIRefObject@core@3@U?$TRefObjectFunc@UIRefObject@core@UModSys@@@tl@3@@tl@UModSys@@H@tl@UModSys@@@23@@tl@UModSys@@QBEPAU?$TScatterArrayNode@U?$TRefObjectCompositeExtra@UIMouseClient@libui@UModSys@@HUIRefObject@core@3@U?$TRefObjectFunc@UIRefObject@core@UModSys@@@tl@3@@tl@UModSys@@H@23@ABUCmp@123@ABU?$TTreeHoldRBD@U?$TScatterArrayNode@U?$TRefObjectCompositeExtra@UIMouseClient@libui@UModSys@@HUIRefObject@core@3@U?$TRefObjectFunc@UIRefObject@core@UModSys@@@tl@3@@tl@UModSys@@H@tl@UModSys@@U?$TNodeDeleter0@U?$TScatterArrayNode@U?$TRefObjectCompositeExtra@UIMouseClient@libui@UModSys@@HUIRefObject@core@3@U?$TRefObjectFunc@UIRefObject@core@UModSys@@@tl@3@@tl@UModSys@@H@tl@UModSys@@@23@@23@@Z 10008a80 f i umodsys_lib_libui:umodsys.mod.ui.SDL_GL.obj
 0001:00007ae0       ??RGen0@?$TScatterArray@UGlyph@RMultiImage2D_SDL_ttf@SDL_GL@ui@modules@UModSys@@HU?$TScalarCompare@H@core@6@U?$TNodeDeleter0@U?$TScatterArrayNode@UGlyph@RMultiImage2D_SDL_ttf@SDL_GL@ui@modules@UModSys@@H@tl@UModSys@@@tl@6@@tl@UModSys@@QBEPAU?$TScatterArrayNode@UGlyph@RMultiImage2D_SDL_ttf@SDL_GL@ui@modules@UModSys@@H@23@ABUCmp@123@ABU?$TTreeHoldRBD@U?$TScatterArrayNode@UGlyph@RMultiImage2D_SDL_ttf@SDL_GL@ui@modules@UModSys@@H@tl@UModSys@@U?$TNodeDeleter0@U?$TScatterArrayNode@UGlyph@RMultiImage2D_SDL_ttf@SDL_GL@ui@modules@UModSys@@H@tl@UModSys@@@23@@23@@Z 10008ae0 f i umodsys_lib_libui:umodsys.mod.ui.SDL_GL.obj
 0001:00007b40       ??0?$TScatterArrayNode@U?$TRefObjectComposite@UIKeyboardClient@libui@UModSys@@UIRefObject@core@3@U?$TRefObjectFunc@UIRefObject@core@UModSys@@@tl@3@@tl@UModSys@@H@tl@UModSys@@QAE@ABH@Z 10008b40 f i umodsys_lib_libui:umodsys.mod.ui.SDL_GL.obj
 0001:00007bb0       ??0?$TScatterArrayNode@U?$TRefObjectCompositeExtra@UIMouseClient@libui@UModSys@@HUIRefObject@core@3@U?$TRefObjectFunc@UIRefObject@core@UModSys@@@tl@3@@tl@UModSys@@H@tl@UModSys@@QAE@ABH@Z 10008bb0 f i umodsys_lib_libui:umodsys.mod.ui.SDL_GL.obj
 0001:00007c20       ??0?$TScatterArrayNode@UGlyph@RMultiImage2D_SDL_ttf@SDL_GL@ui@modules@UModSys@@H@tl@UModSys@@QAE@ABH@Z 10008c20 f i umodsys_lib_libui:umodsys.mod.ui.SDL_GL.obj
 0001:00007d20       ??1?$TPair@HUGlyph@RMultiImage2D_SDL_ttf@SDL_GL@ui@modules@UModSys@@@tl@UModSys@@QAE@XZ 10008d20 f i umodsys_lib_libui:umodsys.mod.ui.SDL_GL.obj
 0001:00007d70       ??0STextureGL@SDL_GL@ui@modules@UModSys@@QAE@ABU01234@@Z 10008d70 f i umodsys_lib_libui:umodsys.mod.ui.SDL_GL.obj
 0001:00007e80       ?insert_color@?$TTreeHoldRB@U?$TScatterArrayNode@U?$TVector2@M@math3d@UModSys@@H@tl@UModSys@@@tl@UModSys@@IAEXPAU?$TScatterArrayNode@U?$TVector2@M@math3d@UModSys@@H@23@@Z 10008e80 f i umodsys_lib_libui:umodsys.mod.ui.frames.obj
 0001:00007e80       ?insert_color@?$TTreeHoldRB@U?$TScatterArrayNode@HH@tl@UModSys@@@tl@UModSys@@IAEXPAU?$TScatterArrayNode@HH@23@@Z 10008e80 f i umodsys_lib_libui:umodsys.mod.ui.frames.obj
 0001:00007e80       ?insert_color@?$TTreeHoldRB@U?$TScatterArrayNode@UGlyph@RMultiImage2D_SDL_ttf@SDL_GL@ui@modules@UModSys@@H@tl@UModSys@@@tl@UModSys@@IAEXPAU?$TScatterArrayNode@UGlyph@RMultiImage2D_SDL_ttf@SDL_GL@ui@modules@UModSys@@H@23@@Z 10008e80 f i umodsys_lib_libui:umodsys.mod.ui.SDL_GL.obj
 0001:00007e80       ?insert_color@?$TTreeHoldRB@U?$TScatterArrayNode@U?$TRefObjectCompositeExtra@UIMouseClient@libui@UModSys@@HUIRefObject@core@3@U?$TRefObjectFunc@UIRefObject@core@UModSys@@@tl@3@@tl@UModSys@@H@tl@UModSys@@@tl@UModSys@@IAEXPAU?$TScatterArrayNode@U?$TRefObjectCompositeExtra@UIMouseClient@libui@UModSys@@HUIRefObject@core@3@U?$TRefObjectFunc@UIRefObject@core@UModSys@@@tl@3@@tl@UModSys@@H@23@@Z 10008e80 f i umodsys_lib_libui:umodsys.mod.ui.SDL_GL.obj
 0001:00007e80       ?insert_color@?$TTreeHoldRB@U?$TScatterArrayNode@U?$TVector4@M@math3d@UModSys@@H@tl@UModSys@@@tl@UModSys@@IAEXPAU?$TScatterArrayNode@U?$TVector4@M@math3d@UModSys@@H@23@@Z 10008e80 f i umodsys_lib_libui:umodsys.mod.ui.frames.obj
 0001:00007e80       ?insert_color@?$TTreeHoldRB@U?$TScatterArrayNode@U?$TRefObjectComposite@UIKeyboardClient@libui@UModSys@@UIRefObject@core@3@U?$TRefObjectFunc@UIRefObject@core@UModSys@@@tl@3@@tl@UModSys@@H@tl@UModSys@@@tl@UModSys@@IAEXPAU?$TScatterArrayNode@U?$TRefObjectComposite@UIKeyboardClient@libui@UModSys@@UIRefObject@core@3@U?$TRefObjectFunc@UIRefObject@core@UModSys@@@tl@3@@tl@UModSys@@H@23@@Z 10008e80 f i umodsys_lib_libui:umodsys.mod.ui.SDL_GL.obj
 0001:00007e80       ?insert_color@?$TTreeHoldRB@U?$TScatterArrayNode@UGlyph@RMultiImage2D_SDL_ttf@SDL_core@ui@modules@UModSys@@H@tl@UModSys@@@tl@UModSys@@IAEXPAU?$TScatterArrayNode@UGlyph@RMultiImage2D_SDL_ttf@SDL_core@ui@modules@UModSys@@H@23@@Z 10008e80 f i umodsys_lib_libui:umodsys.mod.ui.SDL_core.obj
 0001:00008020       ??$process_nodes_r@U?$TNodeDeleter0@U?$TScatterArrayNode@U?$TRefObjectComposite@UIKeyboardClient@libui@UModSys@@UIRefObject@core@3@U?$TRefObjectFunc@UIRefObject@core@UModSys@@@tl@3@@tl@UModSys@@H@tl@UModSys@@@tl@UModSys@@@?$TTreeHoldRB@U?$TScatterArrayNode@U?$TRefObjectComposite@UIKeyboardClient@libui@UModSys@@UIRefObject@core@3@U?$TRefObjectFunc@UIRefObject@core@UModSys@@@tl@3@@tl@UModSys@@H@tl@UModSys@@@tl@UModSys@@KAHPAU?$TScatterArrayNode@U?$TRefObjectComposite@UIKeyboardClient@libui@UModSys@@UIRefObject@core@3@U?$TRefObjectFunc@UIRefObject@core@UModSys@@@tl@3@@tl@UModSys@@H@12@ABU?$TNodeDeleter0@U?$TScatterArrayNode@U?$TRefObjectComposite@UIKeyboardClient@libui@UModSys@@UIRefObject@core@3@U?$TRefObjectFunc@UIRefObject@core@UModSys@@@tl@3@@tl@UModSys@@H@tl@UModSys@@@12@@Z 10009020 f i umodsys_lib_libui:umodsys.mod.ui.SDL_GL.obj
 0001:00008020       ??$process_nodes_r@U?$TNodeDeleter0@U?$TScatterArrayNode@U?$TRefObjectCompositeExtra@UIMouseClient@libui@UModSys@@HUIRefObject@core@3@U?$TRefObjectFunc@UIRefObject@core@UModSys@@@tl@3@@tl@UModSys@@H@tl@UModSys@@@tl@UModSys@@@?$TTreeHoldRB@U?$TScatterArrayNode@U?$TRefObjectCompositeExtra@UIMouseClient@libui@UModSys@@HUIRefObject@core@3@U?$TRefObjectFunc@UIRefObject@core@UModSys@@@tl@3@@tl@UModSys@@H@tl@UModSys@@@tl@UModSys@@KAHPAU?$TScatterArrayNode@U?$TRefObjectCompositeExtra@UIMouseClient@libui@UModSys@@HUIRefObject@core@3@U?$TRefObjectFunc@UIRefObject@core@UModSys@@@tl@3@@tl@UModSys@@H@12@ABU?$TNodeDeleter0@U?$TScatterArrayNode@U?$TRefObjectCompositeExtra@UIMouseClient@libui@UModSys@@HUIRefObject@core@3@U?$TRefObjectFunc@UIRefObject@core@UModSys@@@tl@3@@tl@UModSys@@H@tl@UModSys@@@12@@Z 10009020 f i umodsys_lib_libui:umodsys.mod.ui.SDL_GL.obj
 0001:00008070       ??$process_nodes_r@U?$TNodeDeleter0@U?$TScatterArrayNode@UGlyph@RMultiImage2D_SDL_ttf@SDL_GL@ui@modules@UModSys@@H@tl@UModSys@@@tl@UModSys@@@?$TTreeHoldRB@U?$TScatterArrayNode@UGlyph@RMultiImage2D_SDL_ttf@SDL_GL@ui@modules@UModSys@@H@tl@UModSys@@@tl@UModSys@@KAHPAU?$TScatterArrayNode@UGlyph@RMultiImage2D_SDL_ttf@SDL_GL@ui@modules@UModSys@@H@12@ABU?$TNodeDeleter0@U?$TScatterArrayNode@UGlyph@RMultiImage2D_SDL_ttf@SDL_GL@ui@modules@UModSys@@H@tl@UModSys@@@12@@Z 10009070 f i umodsys_lib_libui:umodsys.mod.ui.SDL_GL.obj
 0001:000080c0       ??_G?$TScatterArrayNode@UGlyph@RMultiImage2D_SDL_ttf@SDL_GL@ui@modules@UModSys@@H@tl@UModSys@@QAEPAXI@Z 100090c0 f i umodsys_lib_libui:umodsys.mod.ui.SDL_GL.obj
 0001:00008120       ?root_get_interface_info@RKeyboardController@SDL_core@ui@modules@UModSys@@UBEABUSUniquePointerInfo@core@5@XZ 10009120 f i umodsys_lib_libui:umodsys.mod.ui.SDL_core.obj
 0001:00008130       ?root_get_interface_type@RKeyboardController@SDL_core@ui@modules@UModSys@@UBEPBUSUniquePointerInfo@core@5@XZ 10009130 f i umodsys_lib_libui:umodsys.mod.ui.SDL_core.obj
 0001:00008140       ?root_get_other_interface@RKeyboardController@SDL_core@ui@modules@UModSys@@UBEPBUIRoot@core@5@PBUSUniquePointerInfo@75@@Z 10009140 f i umodsys_lib_libui:umodsys.mod.ui.SDL_core.obj
 0001:00008140       ?root_get_other_interface@RKeyboardController@SDL_core@ui@modules@UModSys@@UAEPAUIRoot@core@5@PBUSUniquePointerInfo@75@@Z 10009140 f i umodsys_lib_libui:umodsys.mod.ui.SDL_core.obj
 0001:00008170       ?root_is_interface_supported@RKeyboardController@SDL_core@ui@modules@UModSys@@UBE_NPBUSUniquePointerInfo@core@5@@Z 10009170 f i umodsys_lib_libui:umodsys.mod.ui.SDL_core.obj
 0001:000081b0       ?ref_weak@RMouseController@SDL_GL@ui@modules@UModSys@@UBE_NAAUWeakPointer@IRefObject@core@5@@Z 100091b0 f i umodsys_lib_libui:umodsys.mod.ui.SDL_GL.obj
 0001:000081b0       ?ref_weak@RRenderDriver2D@SDL_core@ui@modules@UModSys@@UBE_NAAUWeakPointer@IRefObject@core@5@@Z 100091b0 f i umodsys_lib_libui:umodsys.mod.ui.SDL_core.obj
 0001:000081b0       ?ref_weak@RKeyboardController@SDL_core@ui@modules@UModSys@@UBE_NAAUWeakPointer@IRefObject@core@5@@Z 100091b0 f i umodsys_lib_libui:umodsys.mod.ui.SDL_core.obj
 0001:000081b0       ?ref_weak@RMouseController@SDL_core@ui@modules@UModSys@@UBE_NAAUWeakPointer@IRefObject@core@5@@Z 100091b0 f i umodsys_lib_libui:umodsys.mod.ui.SDL_core.obj
 0001:000081b0       ?ref_weak@RRenderDriver3D@SDL_GL@ui@modules@UModSys@@UBE_NAAUWeakPointer@IRefObject@core@5@@Z 100091b0 f i umodsys_lib_libui:umodsys.mod.ui.SDL_GL.obj
 0001:000081b0       ?ref_weak@RKeyboardController@SDL_GL@ui@modules@UModSys@@UBE_NAAUWeakPointer@IRefObject@core@5@@Z 100091b0 f i umodsys_lib_libui:umodsys.mod.ui.SDL_GL.obj
 0001:000081c0       ?root_get_interface_info@RMouseController@SDL_core@ui@modules@UModSys@@UBEABUSUniquePointerInfo@core@5@XZ 100091c0 f i umodsys_lib_libui:umodsys.mod.ui.SDL_core.obj
 0001:000081d0       ?root_get_interface_type@RMouseController@SDL_core@ui@modules@UModSys@@UBEPBUSUniquePointerInfo@core@5@XZ 100091d0 f i umodsys_lib_libui:umodsys.mod.ui.SDL_core.obj
 0001:000081e0       ?root_get_other_interface@RMouseController@SDL_core@ui@modules@UModSys@@UBEPBUIRoot@core@5@PBUSUniquePointerInfo@75@@Z 100091e0 f i umodsys_lib_libui:umodsys.mod.ui.SDL_core.obj
 0001:000081e0       ?root_get_other_interface@RMouseController@SDL_core@ui@modules@UModSys@@UAEPAUIRoot@core@5@PBUSUniquePointerInfo@75@@Z 100091e0 f i umodsys_lib_libui:umodsys.mod.ui.SDL_core.obj
 0001:00008210       ?root_is_interface_supported@RMouseController@SDL_core@ui@modules@UModSys@@UBE_NPBUSUniquePointerInfo@core@5@@Z 10009210 f i umodsys_lib_libui:umodsys.mod.ui.SDL_core.obj
 0001:00008250       ?ref_remove@RKeyboardController@SDL_GL@ui@modules@UModSys@@UBEXXZ 10009250 f i umodsys_lib_libui:umodsys.mod.ui.SDL_GL.obj
 0001:00008250       ?ref_remove@RMouseController@SDL_GL@ui@modules@UModSys@@UBEXXZ 10009250 f i umodsys_lib_libui:umodsys.mod.ui.SDL_GL.obj
 0001:00008250       ?ref_remove@RKeyboardController@SDL_core@ui@modules@UModSys@@UBEXXZ 10009250 f i umodsys_lib_libui:umodsys.mod.ui.SDL_core.obj
 0001:00008250       ?ref_remove@RRenderDriver2D@SDL_core@ui@modules@UModSys@@UBEXXZ 10009250 f i umodsys_lib_libui:umodsys.mod.ui.SDL_core.obj
 0001:00008250       ?ref_remove@RRenderDriver3D@SDL_GL@ui@modules@UModSys@@UBEXXZ 10009250 f i umodsys_lib_libui:umodsys.mod.ui.SDL_GL.obj
 0001:00008250       ?ref_remove@RMouseController@SDL_core@ui@modules@UModSys@@UBEXXZ 10009250 f i umodsys_lib_libui:umodsys.mod.ui.SDL_core.obj
 0001:00008260       ?root_get_interface_info@RTerminal@SDL_core@ui@modules@UModSys@@UBEABUSUniquePointerInfo@core@5@XZ 10009260 f i umodsys_lib_libui:umodsys.mod.ui.SDL_core.obj
 0001:00008270       ?root_get_interface_type@RTerminal@SDL_core@ui@modules@UModSys@@UBEPBUSUniquePointerInfo@core@5@XZ 10009270 f i umodsys_lib_libui:umodsys.mod.ui.SDL_core.obj
 0001:00008280       ?root_get_other_interface@RTerminal@SDL_core@ui@modules@UModSys@@UAEPAUIRoot@core@5@PBUSUniquePointerInfo@75@@Z 10009280 f i umodsys_lib_libui:umodsys.mod.ui.SDL_core.obj
 0001:00008280       ?root_get_other_interface@RTerminal@SDL_core@ui@modules@UModSys@@UBEPBUIRoot@core@5@PBUSUniquePointerInfo@75@@Z 10009280 f i umodsys_lib_libui:umodsys.mod.ui.SDL_core.obj
 0001:000082b0       ?root_is_interface_supported@RTerminal@SDL_core@ui@modules@UModSys@@UBE_NPBUSUniquePointerInfo@core@5@@Z 100092b0 f i umodsys_lib_libui:umodsys.mod.ui.SDL_core.obj
 0001:000082f0       ?root_get_interface_info@RMultiImage2D_SDL_ttf@SDL_core@ui@modules@UModSys@@UBEABUSUniquePointerInfo@core@5@XZ 100092f0 f i umodsys_lib_libui:umodsys.mod.ui.SDL_core.obj
 0001:00008300       ?root_get_interface_type@RMultiImage2D_SDL_ttf@SDL_core@ui@modules@UModSys@@UBEPBUSUniquePointerInfo@core@5@XZ 10009300 f i umodsys_lib_libui:umodsys.mod.ui.SDL_core.obj
 0001:00008310       ?root_get_other_interface@RMultiImage2D_SDL_ttf@SDL_core@ui@modules@UModSys@@UBEPBUIRoot@core@5@PBUSUniquePointerInfo@75@@Z 10009310 f i umodsys_lib_libui:umodsys.mod.ui.SDL_core.obj
 0001:00008310       ?root_get_other_interface@RMultiImage2D_SDL_ttf@SDL_core@ui@modules@UModSys@@UAEPAUIRoot@core@5@PBUSUniquePointerInfo@75@@Z 10009310 f i umodsys_lib_libui:umodsys.mod.ui.SDL_core.obj
 0001:00008340       ?root_is_interface_supported@RMultiImage2D_SDL_ttf@SDL_core@ui@modules@UModSys@@UBE_NPBUSUniquePointerInfo@core@5@@Z 10009340 f i umodsys_lib_libui:umodsys.mod.ui.SDL_core.obj
 0001:00008380       ?suicide@RVertexArray@SDL_GL@ui@modules@UModSys@@UAEXXZ 10009380 f i umodsys_lib_libui:umodsys.mod.ui.SDL_GL.obj
 0001:00008380       ?suicide@RDialog@frames@ui@modules@UModSys@@UAEXXZ 10009380 f i umodsys_lib_libui:umodsys.mod.ui.frames.obj
 0001:00008380       ?suicide@RMultiImage2D_SDL_ttf@SDL_GL@ui@modules@UModSys@@UAEXXZ 10009380 f i umodsys_lib_libui:umodsys.mod.ui.SDL_GL.obj
 0001:00008380       ?suicide@RMultiImage2D_SDL_ttf@SDL_core@ui@modules@UModSys@@UAEXXZ 10009380 f i umodsys_lib_libui:umodsys.mod.ui.SDL_core.obj
 0001:00008380       ?suicide@RTextureGL@SDL_GL@ui@modules@UModSys@@UAEXXZ 10009380 f i umodsys_lib_libui:umodsys.mod.ui.SDL_GL.obj
 0001:00008390       ?get_max_layer_size@RMultiImage2D_SDL_ttf@SDL_GL@ui@modules@UModSys@@UBE?AU?$TVector2@H@math3d@5@XZ 10009390 f i umodsys_lib_libui:umodsys.mod.ui.SDL_GL.obj
 0001:00008390       ?get_max_layer_size@RMultiImage2D_SDL_ttf@SDL_core@ui@modules@UModSys@@UBE?AU?$TVector2@H@math3d@5@XZ 10009390 f i umodsys_lib_libui:umodsys.mod.ui.SDL_core.obj
 0001:00008390       ?get_fixed_cell_size@RMultiImage2D_SDL_ttf@SDL_GL@ui@modules@UModSys@@UBE?AU?$TVector2@H@math3d@5@XZ 10009390 f i umodsys_lib_libui:umodsys.mod.ui.SDL_GL.obj
 0001:00008390       ?get_max_cell_size@RMultiImage2D_SDL_ttf@SDL_GL@ui@modules@UModSys@@UBE?AU?$TVector2@H@math3d@5@XZ 10009390 f i umodsys_lib_libui:umodsys.mod.ui.SDL_GL.obj
 0001:00008390       ?get_max_cell_size@RMultiImage2D_SDL_ttf@SDL_core@ui@modules@UModSys@@UBE?AU?$TVector2@H@math3d@5@XZ 10009390 f i umodsys_lib_libui:umodsys.mod.ui.SDL_core.obj
 0001:00008390       ?get_fixed_cell_size@RMultiImage2D_SDL_ttf@SDL_core@ui@modules@UModSys@@UBE?AU?$TVector2@H@math3d@5@XZ 10009390 f i umodsys_lib_libui:umodsys.mod.ui.SDL_core.obj
 0001:000083b0       ?setup_fixed_cell@RMultiImage2D_SDL_ttf@SDL_core@ui@modules@UModSys@@UAE_NHH@Z 100093b0 f i umodsys_lib_libui:umodsys.mod.ui.SDL_core.obj
 0001:000083b0       ?get_cell@RMultiImage2D_SDL_ttf@SDL_GL@ui@modules@UModSys@@UBE_NIAAUSImageCellInfo@lib2d@5@@Z 100093b0 f i umodsys_lib_libui:umodsys.mod.ui.SDL_GL.obj
 0001:000083b0       ?get_cell@RMultiImage2D_SDL_ttf@SDL_core@ui@modules@UModSys@@UBE_NIAAUSImageCellInfo@lib2d@5@@Z 100093b0 f i umodsys_lib_libui:umodsys.mod.ui.SDL_core.obj
 0001:000083b0       ?setup_fixed_cell@RMultiImage2D_SDL_ttf@SDL_GL@ui@modules@UModSys@@UAE_NHH@Z 100093b0 f i umodsys_lib_libui:umodsys.mod.ui.SDL_GL.obj
 0001:000083b0       ?set_hint@RMultiImage2D_SDL_ttf@SDL_core@ui@modules@UModSys@@UAE_NPBD0@Z 100093b0 f i umodsys_lib_libui:umodsys.mod.ui.SDL_core.obj
 0001:000083b0       ?set_hint@RMultiImage2D_SDL_ttf@SDL_GL@ui@modules@UModSys@@UAE_NPBD0@Z 100093b0 f i umodsys_lib_libui:umodsys.mod.ui.SDL_GL.obj
 0001:000083c0       ?root_get_interface_info@RRenderDriver2D@SDL_core@ui@modules@UModSys@@UBEABUSUniquePointerInfo@core@5@XZ 100093c0 f i umodsys_lib_libui:umodsys.mod.ui.SDL_core.obj
 0001:000083d0       ?root_get_interface_type@RRenderDriver2D@SDL_core@ui@modules@UModSys@@UBEPBUSUniquePointerInfo@core@5@XZ 100093d0 f i umodsys_lib_libui:umodsys.mod.ui.SDL_core.obj
 0001:000083e0       ?root_get_other_interface@RRenderDriver2D@SDL_core@ui@modules@UModSys@@UBEPBUIRoot@core@5@PBUSUniquePointerInfo@75@@Z 100093e0 f i umodsys_lib_libui:umodsys.mod.ui.SDL_core.obj
 0001:000083e0       ?root_get_other_interface@RRenderDriver2D@SDL_core@ui@modules@UModSys@@UAEPAUIRoot@core@5@PBUSUniquePointerInfo@75@@Z 100093e0 f i umodsys_lib_libui:umodsys.mod.ui.SDL_core.obj
 0001:00008410       ?root_is_interface_supported@RRenderDriver2D@SDL_core@ui@modules@UModSys@@UBE_NPBUSUniquePointerInfo@core@5@@Z 10009410 f i umodsys_lib_libui:umodsys.mod.ui.SDL_core.obj
 0001:00008450       ?root_get_interface_info@RTerminalX@SDL_core@ui@modules@UModSys@@UBEABUSUniquePointerInfo@core@5@XZ 10009450 f i umodsys_lib_libui:umodsys.mod.ui.SDL_core.obj
 0001:00008460       ?root_get_interface_type@RTerminalX@SDL_core@ui@modules@UModSys@@UBEPBUSUniquePointerInfo@core@5@XZ 10009460 f i umodsys_lib_libui:umodsys.mod.ui.SDL_core.obj
 0001:00008470       ?root_get_other_interface@RTerminalX@SDL_core@ui@modules@UModSys@@UBEPBUIRoot@core@5@PBUSUniquePointerInfo@75@@Z 10009470 f i umodsys_lib_libui:umodsys.mod.ui.SDL_core.obj
 0001:00008470       ?root_get_other_interface@RTerminalX@SDL_core@ui@modules@UModSys@@UAEPAUIRoot@core@5@PBUSUniquePointerInfo@75@@Z 10009470 f i umodsys_lib_libui:umodsys.mod.ui.SDL_core.obj
 0001:000084a0       ?root_is_interface_supported@RTerminalX@SDL_core@ui@modules@UModSys@@UBE_NPBUSUniquePointerInfo@core@5@@Z 100094a0 f i umodsys_lib_libui:umodsys.mod.ui.SDL_core.obj
 0001:000084e0       ?get_generated_names@RGenerator@SDL_core@ui@modules@UModSys@@UBEHAAUSUniquePtrList@core@5@@Z 100094e0 f i umodsys_lib_libui:umodsys.mod.ui.SDL_core.obj
 0001:00008500       ?get_generated_types@RGenerator@SDL_core@ui@modules@UModSys@@UBEHAAUSUniquePtrList@core@5@PBUSUniquePointerInfo@75@@Z 10009500 f i umodsys_lib_libui:umodsys.mod.ui.SDL_core.obj
 0001:00008550       ?generate@RGenerator@SDL_core@ui@modules@UModSys@@UAE_NAAU?$TRefObject@UIRefObject@core@UModSys@@U?$TRefObjectFunc@UIRefObject@core@UModSys@@@tl@3@@tl@5@PBUSUniquePointerInfo@core@5@ABUSParameters@95@@Z 10009550 f i umodsys_lib_libui:umodsys.mod.ui.SDL_core.obj
 0001:00008580       ?root_get_interface_info@RGenerator@SDL_core@ui@modules@UModSys@@UBEABUSUniquePointerInfo@core@5@XZ 10009580 f i umodsys_lib_libui:umodsys.mod.ui.SDL_core.obj
 0001:00008590       ?root_get_interface_type@RGenerator@SDL_core@ui@modules@UModSys@@UBEPBUSUniquePointerInfo@core@5@XZ 10009590 f i umodsys_lib_libui:umodsys.mod.ui.SDL_core.obj
 0001:000085a0       ?root_get_other_interface@RGenerator@SDL_core@ui@modules@UModSys@@UAEPAUIRoot@core@5@PBUSUniquePointerInfo@75@@Z 100095a0 f i umodsys_lib_libui:umodsys.mod.ui.SDL_core.obj
 0001:000085a0       ?root_get_other_interface@RGenerator@SDL_core@ui@modules@UModSys@@UBEPBUIRoot@core@5@PBUSUniquePointerInfo@75@@Z 100095a0 f i umodsys_lib_libui:umodsys.mod.ui.SDL_core.obj
 0001:000085e0       ?root_is_interface_supported@RGenerator@SDL_core@ui@modules@UModSys@@UBE_NPBUSUniquePointerInfo@core@5@@Z 100095e0 f i umodsys_lib_libui:umodsys.mod.ui.SDL_core.obj
 0001:00008620       ?get_uid@RGenerator@SDL_core@ui@modules@UModSys@@UBEPBUSUniquePointerInfo@core@5@XZ 10009620 f i umodsys_lib_libui:umodsys.mod.ui.SDL_core.obj
 0001:00008630       ??_GRMultiImage2D_SDL_ttf@SDL_core@ui@modules@UModSys@@UAEPAXI@Z 10009630 f i umodsys_lib_libui:umodsys.mod.ui.SDL_core.obj
 0001:00008630       ??_ERMultiImage2D_SDL_ttf@SDL_core@ui@modules@UModSys@@UAEPAXI@Z 10009630 f i  CIL library: CIL module
 0001:00008650       ??_GRRenderDriver2D@SDL_core@ui@modules@UModSys@@UAEPAXI@Z 10009650 f i umodsys_lib_libui:umodsys.mod.ui.SDL_core.obj
 0001:00008650       ??_ERRenderDriver2D@SDL_core@ui@modules@UModSys@@UAEPAXI@Z 10009650 f i  CIL library: CIL module
 0001:00008670       ??_GRMouseController@SDL_core@ui@modules@UModSys@@UAEPAXI@Z 10009670 f i umodsys_lib_libui:umodsys.mod.ui.SDL_core.obj
 0001:00008670       ??_ERMouseController@SDL_core@ui@modules@UModSys@@UAEPAXI@Z 10009670 f i  CIL library: CIL module
 0001:00008690       ??_GRKeyboardController@SDL_core@ui@modules@UModSys@@UAEPAXI@Z 10009690 f i umodsys_lib_libui:umodsys.mod.ui.SDL_core.obj
 0001:00008690       ??_ERKeyboardController@SDL_core@ui@modules@UModSys@@UAEPAXI@Z 10009690 f i  CIL library: CIL module
 0001:000086b0       ??_GRTerminal@SDL_core@ui@modules@UModSys@@UAEPAXI@Z 100096b0 f i umodsys_lib_libui:umodsys.mod.ui.SDL_core.obj
 0001:000086b0       ??_ERTerminal@SDL_core@ui@modules@UModSys@@UAEPAXI@Z 100096b0 f i  CIL library: CIL module
 0001:000086d0       ??_GRTerminalX@SDL_core@ui@modules@UModSys@@UAEPAXI@Z 100096d0 f i umodsys_lib_libui:umodsys.mod.ui.SDL_core.obj
 0001:000086d0       ??_ERTerminalX@SDL_core@ui@modules@UModSys@@UAEPAXI@Z 100096d0 f i  CIL library: CIL module
 0001:000086f0       ?do_open@RModuleReg@SDL_core@ui@modules@UModSys@@UAE_NXZ 100096f0 f i umodsys_lib_libui:umodsys.mod.ui.SDL_core.obj
 0001:00008700       ?do_close@RModuleReg@SDL_core@ui@modules@UModSys@@UAE_NXZ 10009700 f i umodsys_lib_libui:umodsys.mod.ui.SDL_core.obj
 0001:00008710       ??_ERModuleReg@SDL_core@ui@modules@UModSys@@UAEPAXI@Z 10009710 f i  CIL library: CIL module
 0001:00008710       ??_GRModuleReg@SDL_core@ui@modules@UModSys@@UAEPAXI@Z 10009710 f i umodsys_lib_libui:umodsys.mod.ui.SDL_core.obj
 0001:00008740       ??1?$TScatterArray@UGlyph@RMultiImage2D_SDL_ttf@SDL_core@ui@modules@UModSys@@HU?$TScalarCompare@H@core@6@U?$TNodeDeleter0@U?$TScatterArrayNode@UGlyph@RMultiImage2D_SDL_ttf@SDL_core@ui@modules@UModSys@@H@tl@UModSys@@@tl@6@@tl@UModSys@@QAE@XZ 10009740 f i umodsys_lib_libui:umodsys.mod.ui.SDL_core.obj
 0001:00008760       ??$t_gen_param@URTerminalX@SDL_core@ui@modules@UModSys@@URGenerator@2345@@IGenerator@base@UModSys@@IAE_NPAURGenerator@SDL_core@ui@modules@2@AAU?$TRefObject@UIRefObject@core@UModSys@@U?$TRefObjectFunc@UIRefObject@core@UModSys@@@tl@3@@tl@2@PBUSUniquePointerInfo@core@2@ABUSParameters@core@2@@Z 10009760 f i umodsys_lib_libui:umodsys.mod.ui.SDL_core.obj
 0001:000087e0       ??$ValidateConstruction@UIMultiImage@lib2d@UModSys@@URMultiImage2D_SDL_ttf@SDL_GL@ui@modules@3@@core@UModSys@@YA_NAAU?$TRefObject@UIMultiImage@lib2d@UModSys@@U?$TRefObjectFunc@UIMultiImage@lib2d@UModSys@@@tl@3@@tl@1@PAURMultiImage2D_SDL_ttf@SDL_GL@ui@modules@1@@Z 100097e0 f i umodsys_lib_libui:umodsys.mod.ui.SDL_GL.obj
 0001:000087e0       ??$ValidateConstruction@UIMultiImage@lib2d@UModSys@@URMultiImage2D_SDL_ttf@SDL_core@ui@modules@3@@core@UModSys@@YA_NAAU?$TRefObject@UIMultiImage@lib2d@UModSys@@U?$TRefObjectFunc@UIMultiImage@lib2d@UModSys@@@tl@3@@tl@1@PAURMultiImage2D_SDL_ttf@SDL_core@ui@modules@1@@Z 100097e0 f i umodsys_lib_libui:umodsys.mod.ui.SDL_core.obj
 0001:00008870       ??$t_ref_get_other_interface@URMultiImage2D_SDL_ttf@SDL_core@ui@modules@UModSys@@U?$TRefObjectWeakFunc@URMultiImage2D_SDL_ttf@SDL_core@ui@modules@UModSys@@@tl@5@@IRefObject@core@UModSys@@QAE_NAAU?$TRefObject@URMultiImage2D_SDL_ttf@SDL_core@ui@modules@UModSys@@U?$TRefObjectWeakFunc@URMultiImage2D_SDL_ttf@SDL_core@ui@modules@UModSys@@@tl@5@@tl@2@@Z 10009870 f i umodsys_lib_libui:umodsys.mod.ui.SDL_core.obj
 0001:000088d0       ??$genx_node@UCmp@?$TScatterArray@UGlyph@RMultiImage2D_SDL_ttf@SDL_core@ui@modules@UModSys@@HU?$TScalarCompare@H@core@6@U?$TNodeDeleter0@U?$TScatterArrayNode@UGlyph@RMultiImage2D_SDL_ttf@SDL_core@ui@modules@UModSys@@H@tl@UModSys@@@tl@6@@tl@UModSys@@UGen0@234@@?$TTreeHoldRBD@U?$TScatterArrayNode@UGlyph@RMultiImage2D_SDL_ttf@SDL_core@ui@modules@UModSys@@H@tl@UModSys@@U?$TNodeDeleter0@U?$TScatterArrayNode@UGlyph@RMultiImage2D_SDL_ttf@SDL_core@ui@modules@UModSys@@H@tl@UModSys@@@23@@tl@UModSys@@QAEPAU?$TScatterArrayNode@UGlyph@RMultiImage2D_SDL_ttf@SDL_core@ui@modules@UModSys@@H@12@UCmp@?$TScatterArray@UGlyph@RMultiImage2D_SDL_ttf@SDL_core@ui@modules@UModSys@@HU?$TScalarCompare@H@core@6@U?$TNodeDeleter0@U?$TScatterArrayNode@UGlyph@RMultiImage2D_SDL_ttf@SDL_core@ui@modules@UModSys@@H@tl@UModSys@@@tl@6@@12@ABUGen0@512@PAPAU312@2_N@Z 100098d0 f i umodsys_lib_libui:umodsys.mod.ui.SDL_core.obj
 0001:00008950       ??$find_node_u@UCmp@?$TScatterArray@U?$TRefObjectCompositeExtra@UIMouseClient@libui@UModSys@@HUIRefObject@core@3@U?$TRefObjectFunc@UIRefObject@core@UModSys@@@tl@3@@tl@UModSys@@HU?$TScalarCompare@H@core@3@U?$TNodeDeleter0@U?$TScatterArrayNode@U?$TRefObjectCompositeExtra@UIMouseClient@libui@UModSys@@HUIRefObject@core@3@U?$TRefObjectFunc@UIRefObject@core@UModSys@@@tl@3@@tl@UModSys@@H@tl@UModSys@@@23@@tl@UModSys@@@?$TTreeHoldRB@U?$TScatterArrayNode@U?$TRefObjectCompositeExtra@UIMouseClient@libui@UModSys@@HUIRefObject@core@3@U?$TRefObjectFunc@UIRefObject@core@UModSys@@@tl@3@@tl@UModSys@@H@tl@UModSys@@@tl@UModSys@@QBEPAU?$TScatterArrayNode@U?$TRefObjectCompositeExtra@UIMouseClient@libui@UModSys@@HUIRefObject@core@3@U?$TRefObjectFunc@UIRefObject@core@UModSys@@@tl@3@@tl@UModSys@@H@12@UCmp@?$TScatterArray@U?$TRefObjectCompositeExtra@UIMouseClient@libui@UModSys@@HUIRefObject@core@3@U?$TRefObjectFunc@UIRefObject@core@UModSys@@@tl@3@@tl@UModSys@@HU?$TScalarCompare@H@core@3@U?$TNodeDeleter0@U?$TScatterArrayNode@U?$TRefObjectCompositeExtra@UIMouseClient@libui@UModSys@@HUIRefObject@core@3@U?$TRefObjectFunc@UIRefObject@core@UModSys@@@tl@3@@tl@UModSys@@H@tl@UModSys@@@23@@12@@Z 10009950 f i umodsys_lib_libui:umodsys.mod.ui.SDL_GL.obj
 0001:00008950       ??$find_node_u@UCmp@?$TScatterArray@U?$TRefObjectComposite@UIKeyboardClient@libui@UModSys@@UIRefObject@core@3@U?$TRefObjectFunc@UIRefObject@core@UModSys@@@tl@3@@tl@UModSys@@HU?$TScalarCompare@H@core@3@U?$TNodeDeleter0@U?$TScatterArrayNode@U?$TRefObjectComposite@UIKeyboardClient@libui@UModSys@@UIRefObject@core@3@U?$TRefObjectFunc@UIRefObject@core@UModSys@@@tl@3@@tl@UModSys@@H@tl@UModSys@@@23@@tl@UModSys@@@?$TTreeHoldRB@U?$TScatterArrayNode@U?$TRefObjectComposite@UIKeyboardClient@libui@UModSys@@UIRefObject@core@3@U?$TRefObjectFunc@UIRefObject@core@UModSys@@@tl@3@@tl@UModSys@@H@tl@UModSys@@@tl@UModSys@@QBEPAU?$TScatterArrayNode@U?$TRefObjectComposite@UIKeyboardClient@libui@UModSys@@UIRefObject@core@3@U?$TRefObjectFunc@UIRefObject@core@UModSys@@@tl@3@@tl@UModSys@@H@12@UCmp@?$TScatterArray@U?$TRefObjectComposite@UIKeyboardClient@libui@UModSys@@UIRefObject@core@3@U?$TRefObjectFunc@UIRefObject@core@UModSys@@@tl@3@@tl@UModSys@@HU?$TScalarCompare@H@core@3@U?$TNodeDeleter0@U?$TScatterArrayNode@U?$TRefObjectComposite@UIKeyboardClient@libui@UModSys@@UIRefObject@core@3@U?$TRefObjectFunc@UIRefObject@core@UModSys@@@tl@3@@tl@UModSys@@H@tl@UModSys@@@23@@12@@Z 10009950 f i umodsys_lib_libui:umodsys.mod.ui.SDL_GL.obj
 0001:00008950       ??$find_node_u@UCmp@?$TScatterArray@HHU?$TScalarCompare@H@core@UModSys@@U?$TNodeDeleter0@U?$TScatterArrayNode@HH@tl@UModSys@@@tl@3@@tl@UModSys@@@?$TTreeHoldRB@U?$TScatterArrayNode@HH@tl@UModSys@@@tl@UModSys@@QBEPAU?$TScatterArrayNode@HH@12@UCmp@?$TScatterArray@HHU?$TScalarCompare@H@core@UModSys@@U?$TNodeDeleter0@U?$TScatterArrayNode@HH@tl@UModSys@@@tl@3@@12@@Z 10009950 f i umodsys_lib_libui:umodsys.mod.ui.frames.obj
 0001:00008950       ??$find_node_u@UCmp@?$TScatterArray@UGlyph@RMultiImage2D_SDL_ttf@SDL_GL@ui@modules@UModSys@@HU?$TScalarCompare@H@core@6@U?$TNodeDeleter0@U?$TScatterArrayNode@UGlyph@RMultiImage2D_SDL_ttf@SDL_GL@ui@modules@UModSys@@H@tl@UModSys@@@tl@6@@tl@UModSys@@@?$TTreeHoldRB@U?$TScatterArrayNode@UGlyph@RMultiImage2D_SDL_ttf@SDL_GL@ui@modules@UModSys@@H@tl@UModSys@@@tl@UModSys@@QBEPAU?$TScatterArrayNode@UGlyph@RMultiImage2D_SDL_ttf@SDL_GL@ui@modules@UModSys@@H@12@UCmp@?$TScatterArray@UGlyph@RMultiImage2D_SDL_ttf@SDL_GL@ui@modules@UModSys@@HU?$TScalarCompare@H@core@6@U?$TNodeDeleter0@U?$TScatterArrayNode@UGlyph@RMultiImage2D_SDL_ttf@SDL_GL@ui@modules@UModSys@@H@tl@UModSys@@@tl@6@@12@@Z 10009950 f i umodsys_lib_libui:umodsys.mod.ui.SDL_GL.obj
 0001:00008950       ??$find_node_u@UCmp@?$TScatterArray@U?$TVector4@M@math3d@UModSys@@HU?$TScalarCompare@H@core@3@U?$TNodeDeleter0@U?$TScatterArrayNode@U?$TVector4@M@math3d@UModSys@@H@tl@UModSys@@@tl@3@@tl@UModSys@@@?$TTreeHoldRB@U?$TScatterArrayNode@U?$TVector4@M@math3d@UModSys@@H@tl@UModSys@@@tl@UModSys@@QBEPAU?$TScatterArrayNode@U?$TVector4@M@math3d@UModSys@@H@12@UCmp@?$TScatterArray@U?$TVector4@M@math3d@UModSys@@HU?$TScalarCompare@H@core@3@U?$TNodeDeleter0@U?$TScatterArrayNode@U?$TVector4@M@math3d@UModSys@@H@tl@UModSys@@@tl@3@@12@@Z 10009950 f i umodsys_lib_libui:umodsys.mod.ui.frames.obj
 0001:00008950       ??$find_node_u@UCmp@?$TScatterArray@U?$TVector2@M@math3d@UModSys@@HU?$TScalarCompare@H@core@3@U?$TNodeDeleter0@U?$TScatterArrayNode@U?$TVector2@M@math3d@UModSys@@H@tl@UModSys@@@tl@3@@tl@UModSys@@@?$TTreeHoldRB@U?$TScatterArrayNode@U?$TVector2@M@math3d@UModSys@@H@tl@UModSys@@@tl@UModSys@@QBEPAU?$TScatterArrayNode@U?$TVector2@M@math3d@UModSys@@H@12@UCmp@?$TScatterArray@U?$TVector2@M@math3d@UModSys@@HU?$TScalarCompare@H@core@3@U?$TNodeDeleter0@U?$TScatterArrayNode@U?$TVector2@M@math3d@UModSys@@H@tl@UModSys@@@tl@3@@12@@Z 10009950 f i umodsys_lib_libui:umodsys.mod.ui.frames.obj
 0001:00008950       ??$find_node_u@UCmp@?$TScatterArray@UGlyph@RMultiImage2D_SDL_ttf@SDL_core@ui@modules@UModSys@@HU?$TScalarCompare@H@core@6@U?$TNodeDeleter0@U?$TScatterArrayNode@UGlyph@RMultiImage2D_SDL_ttf@SDL_core@ui@modules@UModSys@@H@tl@UModSys@@@tl@6@@tl@UModSys@@@?$TTreeHoldRB@U?$TScatterArrayNode@UGlyph@RMultiImage2D_SDL_ttf@SDL_core@ui@modules@UModSys@@H@tl@UModSys@@@tl@UModSys@@QBEPAU?$TScatterArrayNode@UGlyph@RMultiImage2D_SDL_ttf@SDL_core@ui@modules@UModSys@@H@12@UCmp@?$TScatterArray@UGlyph@RMultiImage2D_SDL_ttf@SDL_core@ui@modules@UModSys@@HU?$TScalarCompare@H@core@6@U?$TNodeDeleter0@U?$TScatterArrayNode@UGlyph@RMultiImage2D_SDL_ttf@SDL_core@ui@modules@UModSys@@H@tl@UModSys@@@tl@6@@12@@Z 10009950 f i umodsys_lib_libui:umodsys.mod.ui.SDL_core.obj
 0001:00008990       ??0?$TScatterArrayNode@UGlyph@RMultiImage2D_SDL_ttf@SDL_core@ui@modules@UModSys@@H@tl@UModSys@@QAE@ABH@Z 10009990 f i umodsys_lib_libui:umodsys.mod.ui.SDL_core.obj
 0001:00008a00       ??$process_nodes_r@U?$TNodeDeleter0@U?$TScatterArrayNode@UGlyph@RMultiImage2D_SDL_ttf@SDL_core@ui@modules@UModSys@@H@tl@UModSys@@@tl@UModSys@@@?$TTreeHoldRB@U?$TScatterArrayNode@UGlyph@RMultiImage2D_SDL_ttf@SDL_core@ui@modules@UModSys@@H@tl@UModSys@@@tl@UModSys@@KAHPAU?$TScatterArrayNode@UGlyph@RMultiImage2D_SDL_ttf@SDL_core@ui@modules@UModSys@@H@12@ABU?$TNodeDeleter0@U?$TScatterArrayNode@UGlyph@RMultiImage2D_SDL_ttf@SDL_core@ui@modules@UModSys@@H@tl@UModSys@@@12@@Z 10009a00 f i umodsys_lib_libui:umodsys.mod.ui.SDL_core.obj
 0001:00008a60       ?get@SParameters@core@UModSys@@QBE_NPBDAA_N@Z 10009a60 f i umodsys_lib_libui:umodsys.mod.ui.frames.obj
 0001:00008aa0       ?ss@SFrameDataOut@libui@UModSys@@QBEXABU?$TString@U?$TSCoreShared@USIMemAlloc@core@UModSys@@D@su@tl@UModSys@@U?$TComparerBinaryHash@D@234@@tl@3@@Z 10009aa0 f i umodsys_lib_libui:umodsys.mod.ui.frames.obj
 0001:00008ad0       ??1SController@libui@UModSys@@QAE@XZ 10009ad0 f i umodsys_lib_libui:umodsys.mod.ui.frames.obj
 0001:00008ae0       ?db_get_i@SController@libui@UModSys@@QAEHQBD@Z 10009ae0 f i umodsys_lib_libui:umodsys.mod.ui.frames.obj
 0001:00008b60       ?update_size@libui@UModSys@@YA_NAAU?$TBoundBox2@H@math3d@2@ABUSFrameSize@12@ABU342@@Z 10009b60 f i umodsys_lib_libui:umodsys.mod.ui.frames.obj
 0001:00008c70       ?command@SController@libui@UModSys@@QAE_NHABUSFrameDataIn@23@@Z 10009c70 f i umodsys_lib_libui:umodsys.mod.ui.frames.obj
 0001:00008cb0       ?get_property@ICollectorThemeTemplate@libui@UModSys@@UBE_NHHAAU?$TVector4@M@math3d@3@@Z 10009cb0 f i umodsys_lib_libui:umodsys.mod.ui.frames.obj
 0001:00008cd0       ?get_property@ICollectorThemeTemplate@libui@UModSys@@UBE_NHHAAU?$TVector4@H@math3d@3@@Z 10009cd0 f i umodsys_lib_libui:umodsys.mod.ui.frames.obj
 0001:00008cf0       ?get_property@ICollectorThemeTemplate@libui@UModSys@@UBE_NHHAAU?$TVector2@M@math3d@3@@Z 10009cf0 f i umodsys_lib_libui:umodsys.mod.ui.frames.obj
 0001:00008d10       ?get_property@ICollectorThemeTemplate@libui@UModSys@@UBE_NHHAAU?$TVector2@H@math3d@3@@Z 10009d10 f i umodsys_lib_libui:umodsys.mod.ui.frames.obj
 0001:00008d30       ?get_property@ICollectorThemeTemplate@libui@UModSys@@UBE_NHHAAH@Z 10009d30 f i umodsys_lib_libui:umodsys.mod.ui.frames.obj
 0001:00008d50       ?set_property@ICollectorThemeTemplate@libui@UModSys@@UAE_NHHABU?$TVector4@M@math3d@3@@Z 10009d50 f i umodsys_lib_libui:umodsys.mod.ui.frames.obj
 0001:00008db0       ?set_property@ICollectorThemeTemplate@libui@UModSys@@UAE_NHHABU?$TVector4@H@math3d@3@@Z 10009db0 f i umodsys_lib_libui:umodsys.mod.ui.frames.obj
 0001:00008dd0       ?set_property@ICollectorThemeTemplate@libui@UModSys@@UAE_NHHABU?$TVector2@M@math3d@3@@Z 10009dd0 f i umodsys_lib_libui:umodsys.mod.ui.frames.obj
 0001:00008e20       ?set_property@ICollectorThemeTemplate@libui@UModSys@@UAE_NHHABU?$TVector2@H@math3d@3@@Z 10009e20 f i umodsys_lib_libui:umodsys.mod.ui.frames.obj
 0001:00008e80       ?set_property@ICollectorThemeTemplate@libui@UModSys@@UAE_NHHH@Z 10009e80 f i umodsys_lib_libui:umodsys.mod.ui.frames.obj
 0001:00008ec0       ??1ICollectorThemeTemplate@libui@UModSys@@QAE@XZ 10009ec0 f i umodsys_lib_libui:umodsys.mod.ui.frames.obj
 0001:00008fe0       ?set_controller@RFrame_Common@frames@ui@modules@UModSys@@UAE_NHPAUIController@libui@5@PAUIRefObject@core@5@@Z 10009fe0 f i umodsys_lib_libui:umodsys.mod.ui.frames.obj
 0001:00009030       ?get_controller@RFrame_Common@frames@ui@modules@UModSys@@UAEPAUIController@libui@5@XZ 1000a030 f i umodsys_lib_libui:umodsys.mod.ui.frames.obj
 0001:00009040       ?get_controller_context@RFrame_Common@frames@ui@modules@UModSys@@UAEHXZ 1000a040 f i umodsys_lib_libui:umodsys.mod.ui.frames.obj
 0001:00009050       ?controller_update@RFrame_Common@frames@ui@modules@UModSys@@UAE_NXZ 1000a050 f i umodsys_lib_libui:umodsys.mod.ui.frames.obj
 0001:00009060       ?get_theme@RCollector@frames@ui@modules@UModSys@@UAEPAUICollectorTheme@libui@5@XZ 1000a060 f i umodsys_lib_libui:umodsys.mod.ui.frames.obj
 0001:00009060       ?get_box@RFrame_Common@frames@ui@modules@UModSys@@UAEABU?$TBoundBox2@H@math3d@5@XZ 1000a060 f i umodsys_lib_libui:umodsys.mod.ui.frames.obj
 0001:00009070       ?get_framesize@RFrame_Common@frames@ui@modules@UModSys@@UAEABUSFrameSize@libui@5@XZ 1000a070 f i umodsys_lib_libui:umodsys.mod.ui.frames.obj
 0001:00009080       ?set_framesize@RFrame_Common@frames@ui@modules@UModSys@@UAE_NABUSFrameSize@libui@5@@Z 1000a080 f i umodsys_lib_libui:umodsys.mod.ui.frames.obj
 0001:000090b0       ?get_insize@RFrame_Common@frames@ui@modules@UModSys@@UAE?AU?$TVector2@H@math3d@5@XZ 1000a0b0 f i umodsys_lib_libui:umodsys.mod.ui.frames.obj
 0001:000090d0       ?get_theme@RFrame_Common@frames@ui@modules@UModSys@@UAEPAUICollectorTheme@libui@5@XZ 1000a0d0 f i umodsys_lib_libui:umodsys.mod.ui.frames.obj
 0001:000090e0       ?draw_pre@RFrame_Common@frames@ui@modules@UModSys@@MAE_NABUSDrawState@2345@@Z 1000a0e0 f i umodsys_lib_libui:umodsys.mod.ui.frames.obj
 0001:000090e0       ?draw_post@RFrame_Common@frames@ui@modules@UModSys@@MAE_NABUSDrawState@2345@@Z 1000a0e0 f i umodsys_lib_libui:umodsys.mod.ui.frames.obj
 0001:000090f0       ?button_cmd@RFrame_Common@frames@ui@modules@UModSys@@MAE_NPAUSButton@2345@HH@Z 1000a0f0 f i umodsys_lib_libui:umodsys.mod.ui.frames.obj
 0001:000090f0       ?button_draw@RFrame_Common@frames@ui@modules@UModSys@@MAE_NPAUSButton@2345@ABUSDrawState@2345@H@Z 1000a0f0 f i umodsys_lib_libui:umodsys.mod.ui.frames.obj
 0001:00009100       ??_GRFrame_Common@frames@ui@modules@UModSys@@UAEPAXI@Z 1000a100 f i umodsys_lib_libui:umodsys.mod.ui.frames.obj
 0001:00009100       ??_ERFrame_Common@frames@ui@modules@UModSys@@UAEPAXI@Z 1000a100 f i  CIL library: CIL module
 0001:00009120       ?root_get_interface_info@RDialog@frames@ui@modules@UModSys@@UBEABUSUniquePointerInfo@core@5@XZ 1000a120 f i umodsys_lib_libui:umodsys.mod.ui.frames.obj
 0001:00009130       ?root_get_interface_type@RDialog@frames@ui@modules@UModSys@@UBEPBUSUniquePointerInfo@core@5@XZ 1000a130 f i umodsys_lib_libui:umodsys.mod.ui.frames.obj
 0001:00009140       ?root_get_other_interface@RDialog@frames@ui@modules@UModSys@@UAEPAUIRoot@core@5@PBUSUniquePointerInfo@75@@Z 1000a140 f i umodsys_lib_libui:umodsys.mod.ui.frames.obj
 0001:00009140       ?root_get_other_interface@RDialog@frames@ui@modules@UModSys@@UBEPBUIRoot@core@5@PBUSUniquePointerInfo@75@@Z 1000a140 f i umodsys_lib_libui:umodsys.mod.ui.frames.obj
 0001:00009170       ?root_is_interface_supported@RDialog@frames@ui@modules@UModSys@@UBE_NPBUSUniquePointerInfo@core@5@@Z 1000a170 f i umodsys_lib_libui:umodsys.mod.ui.frames.obj
 0001:000091b0       ??_GRDialog@frames@ui@modules@UModSys@@UAEPAXI@Z 1000a1b0 f i umodsys_lib_libui:umodsys.mod.ui.frames.obj
 0001:000091b0       ??_ERDialog@frames@ui@modules@UModSys@@UAEPAXI@Z 1000a1b0 f i  CIL library: CIL module
 0001:000091d0       ?root_get_interface_info@RFrame_Frame@frames@ui@modules@UModSys@@UBEABUSUniquePointerInfo@core@5@XZ 1000a1d0 f i umodsys_lib_libui:umodsys.mod.ui.frames.obj
 0001:000091e0       ?root_get_interface_type@RFrame_Frame@frames@ui@modules@UModSys@@UBEPBUSUniquePointerInfo@core@5@XZ 1000a1e0 f i umodsys_lib_libui:umodsys.mod.ui.frames.obj
 0001:000091f0       ?root_get_other_interface@RFrame_Frame@frames@ui@modules@UModSys@@UAEPAUIRoot@core@5@PBUSUniquePointerInfo@75@@Z 1000a1f0 f i umodsys_lib_libui:umodsys.mod.ui.frames.obj
 0001:000091f0       ?root_get_other_interface@RFrame_Frame@frames@ui@modules@UModSys@@UBEPBUIRoot@core@5@PBUSUniquePointerInfo@75@@Z 1000a1f0 f i umodsys_lib_libui:umodsys.mod.ui.frames.obj
 0001:00009230       ?root_is_interface_supported@RFrame_Frame@frames@ui@modules@UModSys@@UBE_NPBUSUniquePointerInfo@core@5@@Z 1000a230 f i umodsys_lib_libui:umodsys.mod.ui.frames.obj
 0001:00009270       ?suicide@RFrame_Image@frames@ui@modules@UModSys@@UAEXXZ 1000a270 f i umodsys_lib_libui:umodsys.mod.ui.frames.obj
 0001:00009270       ?suicide@RFrame_Frame@frames@ui@modules@UModSys@@UAEXXZ 1000a270 f i umodsys_lib_libui:umodsys.mod.ui.frames.obj
 0001:00009270       ?suicide@RFrame_Button@frames@ui@modules@UModSys@@UAEXXZ 1000a270 f i umodsys_lib_libui:umodsys.mod.ui.frames.obj
 0001:00009280       ?get_cids@RFrame_Frame@frames@ui@modules@UModSys@@UAE?AU?$TString@U?$TSCoreConst@D@su@tl@UModSys@@U?$TComparerBinaryHash@D@234@@tl@5@XZ 1000a280 f i umodsys_lib_libui:umodsys.mod.ui.frames.obj
 0001:000092b0       ?get_cidn@RFrame_Frame@frames@ui@modules@UModSys@@UAEHXZ 1000a2b0 f i umodsys_lib_libui:umodsys.mod.ui.frames.obj
 0001:000092c0       ?root_get_interface_info@RFrame_Image@frames@ui@modules@UModSys@@UBEABUSUniquePointerInfo@core@5@XZ 1000a2c0 f i umodsys_lib_libui:umodsys.mod.ui.frames.obj
 0001:000092d0       ?root_get_interface_type@RFrame_Image@frames@ui@modules@UModSys@@UBEPBUSUniquePointerInfo@core@5@XZ 1000a2d0 f i umodsys_lib_libui:umodsys.mod.ui.frames.obj
 0001:000092e0       ?root_get_other_interface@RFrame_Image@frames@ui@modules@UModSys@@UBEPBUIRoot@core@5@PBUSUniquePointerInfo@75@@Z 1000a2e0 f i umodsys_lib_libui:umodsys.mod.ui.frames.obj
 0001:000092e0       ?root_get_other_interface@RFrame_Image@frames@ui@modules@UModSys@@UAEPAUIRoot@core@5@PBUSUniquePointerInfo@75@@Z 1000a2e0 f i umodsys_lib_libui:umodsys.mod.ui.frames.obj
 0001:00009320       ?root_is_interface_supported@RFrame_Image@frames@ui@modules@UModSys@@UBE_NPBUSUniquePointerInfo@core@5@@Z 1000a320 f i umodsys_lib_libui:umodsys.mod.ui.frames.obj
 0001:00009360       ?ref_add@RFrame_Image@frames@ui@modules@UModSys@@UBEXXZ 1000a360 f i umodsys_lib_libui:umodsys.mod.ui.frames.obj
 0001:00009360       ?ref_add@RFrame_Button@frames@ui@modules@UModSys@@UBEXXZ 1000a360 f i umodsys_lib_libui:umodsys.mod.ui.frames.obj
 0001:00009360       ?ref_add@RFrame_Frame@frames@ui@modules@UModSys@@UBEXXZ 1000a360 f i umodsys_lib_libui:umodsys.mod.ui.frames.obj
 0001:00009370       ?ref_links@RFrame_Image@frames@ui@modules@UModSys@@UBEHXZ 1000a370 f i umodsys_lib_libui:umodsys.mod.ui.frames.obj
 0001:00009370       ?ref_links@RFrame_Frame@frames@ui@modules@UModSys@@UBEHXZ 1000a370 f i umodsys_lib_libui:umodsys.mod.ui.frames.obj
 0001:00009370       ?ref_links@RFrame_Button@frames@ui@modules@UModSys@@UBEHXZ 1000a370 f i umodsys_lib_libui:umodsys.mod.ui.frames.obj
 0001:00009380       ?ref_weak@RFrame_Button@frames@ui@modules@UModSys@@UBE_NAAUWeakPointer@IRefObject@core@5@@Z 1000a380 f i umodsys_lib_libui:umodsys.mod.ui.frames.obj
 0001:00009380       ?ref_weak@RFrame_Image@frames@ui@modules@UModSys@@UBE_NAAUWeakPointer@IRefObject@core@5@@Z 1000a380 f i umodsys_lib_libui:umodsys.mod.ui.frames.obj
 0001:00009380       ?ref_weak@RFrame_Frame@frames@ui@modules@UModSys@@UBE_NAAUWeakPointer@IRefObject@core@5@@Z 1000a380 f i umodsys_lib_libui:umodsys.mod.ui.frames.obj
 0001:000093b0       ?get_cids@RFrame_Image@frames@ui@modules@UModSys@@UAE?AU?$TString@U?$TSCoreConst@D@su@tl@UModSys@@U?$TComparerBinaryHash@D@234@@tl@5@XZ 1000a3b0 f i umodsys_lib_libui:umodsys.mod.ui.frames.obj
 0001:000093e0       ?get_cidn@RFrame_Image@frames@ui@modules@UModSys@@UAEHXZ 1000a3e0 f i umodsys_lib_libui:umodsys.mod.ui.frames.obj
 0001:000093f0       ?root_get_interface_info@RFrame_Text@frames@ui@modules@UModSys@@UBEABUSUniquePointerInfo@core@5@XZ 1000a3f0 f i umodsys_lib_libui:umodsys.mod.ui.frames.obj
 0001:00009400       ?root_get_interface_type@RFrame_Text@frames@ui@modules@UModSys@@UBEPBUSUniquePointerInfo@core@5@XZ 1000a400 f i umodsys_lib_libui:umodsys.mod.ui.frames.obj
 0001:00009410       ?root_get_other_interface@RFrame_Text@frames@ui@modules@UModSys@@UAEPAUIRoot@core@5@PBUSUniquePointerInfo@75@@Z 1000a410 f i umodsys_lib_libui:umodsys.mod.ui.frames.obj
 0001:00009410       ?root_get_other_interface@RFrame_Text@frames@ui@modules@UModSys@@UBEPBUIRoot@core@5@PBUSUniquePointerInfo@75@@Z 1000a410 f i umodsys_lib_libui:umodsys.mod.ui.frames.obj
 0001:00009450       ?root_is_interface_supported@RFrame_Text@frames@ui@modules@UModSys@@UBE_NPBUSUniquePointerInfo@core@5@@Z 1000a450 f i umodsys_lib_libui:umodsys.mod.ui.frames.obj
 0001:00009490       ?ref_remove@RFrame_Text@frames@ui@modules@UModSys@@UBEXXZ 1000a490 f i umodsys_lib_libui:umodsys.mod.ui.frames.obj
 0001:00009490       ?ref_remove@RFrame_Edit@frames@ui@modules@UModSys@@UBEXXZ 1000a490 f i umodsys_lib_libui:umodsys.mod.ui.frames.obj
 0001:000094b0       ?ref_links@RFrame_Edit@frames@ui@modules@UModSys@@UBEHXZ 1000a4b0 f i umodsys_lib_libui:umodsys.mod.ui.frames.obj
 0001:000094b0       ?ref_links@RFrame_Text@frames@ui@modules@UModSys@@UBEHXZ 1000a4b0 f i umodsys_lib_libui:umodsys.mod.ui.frames.obj
 0001:000094c0       ?suicide@RFrame_Text@frames@ui@modules@UModSys@@UAEXXZ 1000a4c0 f i umodsys_lib_libui:umodsys.mod.ui.frames.obj
 0001:000094c0       ?suicide@RFrame_Edit@frames@ui@modules@UModSys@@UAEXXZ 1000a4c0 f i umodsys_lib_libui:umodsys.mod.ui.frames.obj
 0001:000094d0       ??_GRFrame_Frame@frames@ui@modules@UModSys@@UAEPAXI@Z 1000a4d0 f i umodsys_lib_libui:umodsys.mod.ui.frames.obj
 0001:000094d0       ??_ERFrame_Frame@frames@ui@modules@UModSys@@UAEPAXI@Z 1000a4d0 f i  CIL library: CIL module
 0001:000094f0       ??_GRFrame_Text@frames@ui@modules@UModSys@@UAEPAXI@Z 1000a4f0 f i umodsys_lib_libui:umodsys.mod.ui.frames.obj
 0001:000094f0       ??_ERFrame_Text@frames@ui@modules@UModSys@@UAEPAXI@Z 1000a4f0 f i  CIL library: CIL module
 0001:00009510       ??_ERFrame_Image@frames@ui@modules@UModSys@@UAEPAXI@Z 1000a510 f i  CIL library: CIL module
 0001:00009510       ??_GRFrame_Image@frames@ui@modules@UModSys@@UAEPAXI@Z 1000a510 f i umodsys_lib_libui:umodsys.mod.ui.frames.obj
 0001:00009530       ?root_get_interface_info@RFrame_Button@frames@ui@modules@UModSys@@UBEABUSUniquePointerInfo@core@5@XZ 1000a530 f i umodsys_lib_libui:umodsys.mod.ui.frames.obj
 0001:00009540       ?root_get_interface_type@RFrame_Button@frames@ui@modules@UModSys@@UBEPBUSUniquePointerInfo@core@5@XZ 1000a540 f i umodsys_lib_libui:umodsys.mod.ui.frames.obj
 0001:00009550       ?root_get_other_interface@RFrame_Button@frames@ui@modules@UModSys@@UBEPBUIRoot@core@5@PBUSUniquePointerInfo@75@@Z 1000a550 f i umodsys_lib_libui:umodsys.mod.ui.frames.obj
 0001:00009550       ?root_get_other_interface@RFrame_Button@frames@ui@modules@UModSys@@UAEPAUIRoot@core@5@PBUSUniquePointerInfo@75@@Z 1000a550 f i umodsys_lib_libui:umodsys.mod.ui.frames.obj
 0001:00009590       ?root_is_interface_supported@RFrame_Button@frames@ui@modules@UModSys@@UBE_NPBUSUniquePointerInfo@core@5@@Z 1000a590 f i umodsys_lib_libui:umodsys.mod.ui.frames.obj
 0001:000095d0       ?ref_remove@RFrame_Frame@frames@ui@modules@UModSys@@UBEXXZ 1000a5d0 f i umodsys_lib_libui:umodsys.mod.ui.frames.obj
 0001:000095d0       ?ref_remove@RFrame_Button@frames@ui@modules@UModSys@@UBEXXZ 1000a5d0 f i umodsys_lib_libui:umodsys.mod.ui.frames.obj
 0001:000095d0       ?ref_remove@RFrame_Image@frames@ui@modules@UModSys@@UBEXXZ 1000a5d0 f i umodsys_lib_libui:umodsys.mod.ui.frames.obj
 0001:000095f0       ??_ERFrame_Button@frames@ui@modules@UModSys@@UAEPAXI@Z 1000a5f0 f i  CIL library: CIL module
 0001:000095f0       ??_GRFrame_Button@frames@ui@modules@UModSys@@UAEPAXI@Z 1000a5f0 f i umodsys_lib_libui:umodsys.mod.ui.frames.obj
 0001:00009610       ?root_get_interface_info@RFrame_Edit@frames@ui@modules@UModSys@@UBEABUSUniquePointerInfo@core@5@XZ 1000a610 f i umodsys_lib_libui:umodsys.mod.ui.frames.obj
 0001:00009620       ?root_get_interface_type@RFrame_Edit@frames@ui@modules@UModSys@@UBEPBUSUniquePointerInfo@core@5@XZ 1000a620 f i umodsys_lib_libui:umodsys.mod.ui.frames.obj
 0001:00009630       ?root_get_other_interface@RFrame_Edit@frames@ui@modules@UModSys@@UBEPBUIRoot@core@5@PBUSUniquePointerInfo@75@@Z 1000a630 f i umodsys_lib_libui:umodsys.mod.ui.frames.obj
 0001:00009630       ?root_get_other_interface@RFrame_Edit@frames@ui@modules@UModSys@@UAEPAUIRoot@core@5@PBUSUniquePointerInfo@75@@Z 1000a630 f i umodsys_lib_libui:umodsys.mod.ui.frames.obj
 0001:00009670       ?root_is_interface_supported@RFrame_Edit@frames@ui@modules@UModSys@@UBE_NPBUSUniquePointerInfo@core@5@@Z 1000a670 f i umodsys_lib_libui:umodsys.mod.ui.frames.obj
 0001:000096b0       ?ref_add@RFrame_Edit@frames@ui@modules@UModSys@@UBEXXZ 1000a6b0 f i umodsys_lib_libui:umodsys.mod.ui.frames.obj
 0001:000096b0       ?ref_add@RFrame_Text@frames@ui@modules@UModSys@@UBEXXZ 1000a6b0 f i umodsys_lib_libui:umodsys.mod.ui.frames.obj
 0001:000096c0       ?ref_weak@RFrame_Edit@frames@ui@modules@UModSys@@UBE_NAAUWeakPointer@IRefObject@core@5@@Z 1000a6c0 f i umodsys_lib_libui:umodsys.mod.ui.frames.obj
 0001:000096c0       ?ref_weak@RFrame_Text@frames@ui@modules@UModSys@@UBE_NAAUWeakPointer@IRefObject@core@5@@Z 1000a6c0 f i umodsys_lib_libui:umodsys.mod.ui.frames.obj
 0001:000096f0       ?get_cids@RFrame_Edit@frames@ui@modules@UModSys@@UAE?AU?$TString@U?$TSCoreConst@D@su@tl@UModSys@@U?$TComparerBinaryHash@D@234@@tl@5@XZ 1000a6f0 f i umodsys_lib_libui:umodsys.mod.ui.frames.obj
 0001:00009720       ?get_cidn@RFrame_Edit@frames@ui@modules@UModSys@@UAEHXZ 1000a720 f i umodsys_lib_libui:umodsys.mod.ui.frames.obj
 0001:00009730       ?get_data@RFrame_Text@frames@ui@modules@UModSys@@UAEPAUIFrameData@libui@5@XZ 1000a730 f i umodsys_lib_libui:umodsys.mod.ui.frames.obj
 0001:00009730       ?get_data@RFrame_Edit@frames@ui@modules@UModSys@@UAEPAUIFrameData@libui@5@XZ 1000a730 f i umodsys_lib_libui:umodsys.mod.ui.frames.obj
 0001:00009730       ?get_list@RFrame_List@frames@ui@modules@UModSys@@UAEPAUIFrameList@libui@5@XZ 1000a730 f i umodsys_lib_libui:umodsys.mod.ui.frames.obj
 0001:00009740       ?get_list@RFrame_Text@frames@ui@modules@UModSys@@UAEPAUIFrameList@libui@5@XZ 1000a740 f i umodsys_lib_libui:umodsys.mod.ui.frames.obj
 0001:00009740       ?get_ctrlcmd@RFrame_List@frames@ui@modules@UModSys@@UAEPAUIControllerCommand@libui@5@XZ 1000a740 f i umodsys_lib_libui:umodsys.mod.ui.frames.obj
 0001:00009740       ?get_data@RFrame_Button@frames@ui@modules@UModSys@@UAEPAUIFrameData@libui@5@XZ 1000a740 f i umodsys_lib_libui:umodsys.mod.ui.frames.obj
 0001:00009740       ?get_list@RFrame_Button@frames@ui@modules@UModSys@@UAEPAUIFrameList@libui@5@XZ 1000a740 f i umodsys_lib_libui:umodsys.mod.ui.frames.obj
 0001:00009740       ?get_ctrldata@RFrame_Image@frames@ui@modules@UModSys@@UAEPAUIControllerData@libui@5@XZ 1000a740 f i umodsys_lib_libui:umodsys.mod.ui.frames.obj
 0001:00009740       ?get_ctrldata@RFrame_Button@frames@ui@modules@UModSys@@UAEPAUIControllerData@libui@5@XZ 1000a740 f i umodsys_lib_libui:umodsys.mod.ui.frames.obj
 0001:00009740       ?get_ctrlcmd@RFrame_Image@frames@ui@modules@UModSys@@UAEPAUIControllerCommand@libui@5@XZ 1000a740 f i umodsys_lib_libui:umodsys.mod.ui.frames.obj
 0001:00009740       ?get_data@RFrame_Image@frames@ui@modules@UModSys@@UAEPAUIFrameData@libui@5@XZ 1000a740 f i umodsys_lib_libui:umodsys.mod.ui.frames.obj
 0001:00009740       ?get_up_theme@RCollector@frames@ui@modules@UModSys@@UAEPAUICollectorTheme@libui@5@XZ 1000a740 f i umodsys_lib_libui:umodsys.mod.ui.frames.obj
 0001:00009740       ?get_ctrlcmd@RFrame_Edit@frames@ui@modules@UModSys@@UAEPAUIControllerCommand@libui@5@XZ 1000a740 f i umodsys_lib_libui:umodsys.mod.ui.frames.obj
 0001:00009740       ?get_ctrlcmd@RFrame_Text@frames@ui@modules@UModSys@@UAEPAUIControllerCommand@libui@5@XZ 1000a740 f i umodsys_lib_libui:umodsys.mod.ui.frames.obj
 0001:00009740       ?get_ctrldata@RFrame_Edit@frames@ui@modules@UModSys@@UAEPAUIControllerData@libui@5@XZ 1000a740 f i umodsys_lib_libui:umodsys.mod.ui.frames.obj
 0001:00009740       ?get_cell_count@RMultiImage2D_SDL_ttf@SDL_core@ui@modules@UModSys@@UBEIXZ 1000a740 f i umodsys_lib_libui:umodsys.mod.ui.SDL_core.obj
 0001:00009740       ?get_list@RFrame_Frame@frames@ui@modules@UModSys@@UAEPAUIFrameList@libui@5@XZ 1000a740 f i umodsys_lib_libui:umodsys.mod.ui.frames.obj
 0001:00009740       ?get_list@RFrame_Edit@frames@ui@modules@UModSys@@UAEPAUIFrameList@libui@5@XZ 1000a740 f i umodsys_lib_libui:umodsys.mod.ui.frames.obj
 0001:00009740       ?get_ctrlcmd@RFrame_Frame@frames@ui@modules@UModSys@@UAEPAUIControllerCommand@libui@5@XZ 1000a740 f i umodsys_lib_libui:umodsys.mod.ui.frames.obj
 0001:00009740       ?get_data@RFrame_Frame@frames@ui@modules@UModSys@@UAEPAUIFrameData@libui@5@XZ 1000a740 f i umodsys_lib_libui:umodsys.mod.ui.frames.obj
 0001:00009740       ?get_ctrldata@RFrame_Frame@frames@ui@modules@UModSys@@UAEPAUIControllerData@libui@5@XZ 1000a740 f i umodsys_lib_libui:umodsys.mod.ui.frames.obj
 0001:00009740       ?get_layer_count@RMultiImage2D_SDL_ttf@SDL_core@ui@modules@UModSys@@UBEGXZ 1000a740 f i umodsys_lib_libui:umodsys.mod.ui.SDL_core.obj
 0001:00009740       ?get_ctrldata@RFrame_Text@frames@ui@modules@UModSys@@UAEPAUIControllerData@libui@5@XZ 1000a740 f i umodsys_lib_libui:umodsys.mod.ui.frames.obj
 0001:00009740       ?get_ctrldata@RFrame_List@frames@ui@modules@UModSys@@UAEPAUIControllerData@libui@5@XZ 1000a740 f i umodsys_lib_libui:umodsys.mod.ui.frames.obj
 0001:00009740       ?get_layer_count@RMultiImage2D_SDL_ttf@SDL_GL@ui@modules@UModSys@@UBEGXZ 1000a740 f i umodsys_lib_libui:umodsys.mod.ui.SDL_GL.obj
 0001:00009740       ?get_ctrlcmd@RFrame_Button@frames@ui@modules@UModSys@@UAEPAUIControllerCommand@libui@5@XZ 1000a740 f i umodsys_lib_libui:umodsys.mod.ui.frames.obj
 0001:00009740       ?get_list@RFrame_Image@frames@ui@modules@UModSys@@UAEPAUIFrameList@libui@5@XZ 1000a740 f i umodsys_lib_libui:umodsys.mod.ui.frames.obj
 0001:00009740       ?get_cell_count@RMultiImage2D_SDL_ttf@SDL_GL@ui@modules@UModSys@@UBEIXZ 1000a740 f i umodsys_lib_libui:umodsys.mod.ui.SDL_GL.obj
 0001:00009750       ??_ERFrame_Edit@frames@ui@modules@UModSys@@UAEPAXI@Z 1000a750 f i  CIL library: CIL module
 0001:00009750       ??_GRFrame_Edit@frames@ui@modules@UModSys@@UAEPAXI@Z 1000a750 f i umodsys_lib_libui:umodsys.mod.ui.frames.obj
 0001:00009770       ??1?$TStringBuf@U?$TSCoreShared@USIMemAlloc@core@UModSys@@D@su@tl@UModSys@@U?$TComparerBinaryHash@D@234@@tl@UModSys@@QAE@XZ 1000a770 f i umodsys_lib_libui:umodsys.mod.ui.frames.obj
 0001:00009780       ?root_get_interface_info@RFrame_List@frames@ui@modules@UModSys@@UBEABUSUniquePointerInfo@core@5@XZ 1000a780 f i umodsys_lib_libui:umodsys.mod.ui.frames.obj
 0001:00009790       ?root_get_interface_type@RFrame_List@frames@ui@modules@UModSys@@UBEPBUSUniquePointerInfo@core@5@XZ 1000a790 f i umodsys_lib_libui:umodsys.mod.ui.frames.obj
 0001:000097a0       ?root_get_interface_types@RSerializeReader@serialize_json@media@modules@UModSys@@UBEIAAUSUniquePtrList@core@5@@Z 1000a7a0 f i umodsys_lib_libmedia:umodsys.mod.media.serialize_json.obj
 0001:000097a0       ?root_get_interface_types@RTerminalX@SDL_GL@ui@modules@UModSys@@UBEIAAUSUniquePtrList@core@5@@Z 1000a7a0 f i umodsys_lib_libui:umodsys.mod.ui.SDL_GL.obj
 0001:000097a0       ?root_get_interface_types@RMouseController@SDL_core@ui@modules@UModSys@@UBEIAAUSUniquePtrList@core@5@@Z 1000a7a0 f i umodsys_lib_libui:umodsys.mod.ui.SDL_core.obj
 0001:000097a0       ?root_get_interface_types@RMediaFilter@images_std@media@modules@UModSys@@UBEIAAUSUniquePtrList@core@5@@Z 1000a7a0 f i umodsys_lib_libmedia:umodsys.mod.media.images_std.obj
 0001:000097a0       ?root_get_interface_types@RTerminal@SDL_GL@ui@modules@UModSys@@UBEIAAUSUniquePtrList@core@5@@Z 1000a7a0 f i umodsys_lib_libui:umodsys.mod.ui.SDL_GL.obj
 0001:000097a0       ?root_get_interface_types@RFrame_Frame@frames@ui@modules@UModSys@@UBEIAAUSUniquePtrList@core@5@@Z 1000a7a0 f i umodsys_lib_libui:umodsys.mod.ui.frames.obj
 0001:000097a0       ?root_get_interface_types@RBinArchiveFrameClient_ZIP@zlib@media@modules@UModSys@@UBEIAAUSUniquePtrList@core@5@@Z 1000a7a0 f i umodsys_lib_libmedia:umodsys.mod.media.zlib.obj
 0001:000097a0       ?root_get_interface_types@RGenerator@serialize_json@media@modules@UModSys@@UBEIAAUSUniquePtrList@core@5@@Z 1000a7a0 f i umodsys_lib_libmedia:umodsys.mod.media.serialize_json.obj
 0001:000097a0       ?root_get_interface_types@RVisualizerScene@stdlib@lib3d@modules@UModSys@@UBEIAAUSUniquePtrList@core@5@@Z 1000a7a0 f i umodsys_lib_lib3d:umodsys.mod.3d.stdlib.obj
 0001:000097a0       ?root_get_interface_types@RGeneral@object_camera@stdlib@lib3d@modules@UModSys@@UBEIAAUSUniquePtrList@core@6@@Z 1000a7a0 f i umodsys_lib_lib3d:umodsys.mod.3d.stdlib.obj
 0001:000097a0       ?root_get_interface_types@RFrame_Edit@frames@ui@modules@UModSys@@UBEIAAUSUniquePtrList@core@5@@Z 1000a7a0 f i umodsys_lib_libui:umodsys.mod.ui.frames.obj
 0001:000097a0       ?root_get_interface_types@RTextureGL@SDL_GL@ui@modules@UModSys@@UBEIAAUSUniquePtrList@core@5@@Z 1000a7a0 f i umodsys_lib_libui:umodsys.mod.ui.SDL_GL.obj
 0001:000097a0       ?root_get_interface_types@RMouseController@SDL_GL@ui@modules@UModSys@@UBEIAAUSUniquePtrList@core@5@@Z 1000a7a0 f i umodsys_lib_libui:umodsys.mod.ui.SDL_GL.obj
 0001:000097a0       ?root_get_interface_types@RVisualSceneMapper_Direct@stdlib@lib3d@modules@UModSys@@UBEIAAUSUniquePtrList@core@5@@Z 1000a7a0 f i umodsys_lib_lib3d:umodsys.mod.3d.stdlib.obj
 0001:000097a0       ?root_get_interface_types@RGenerator@images_std@media@modules@UModSys@@UBEIAAUSUniquePtrList@core@5@@Z 1000a7a0 f i umodsys_lib_libmedia:umodsys.mod.media.images_std.obj
 0001:000097a0       ?root_get_interface_types@RDialog@frames@ui@modules@UModSys@@UBEIAAUSUniquePtrList@core@5@@Z 1000a7a0 f i umodsys_lib_libui:umodsys.mod.ui.frames.obj
 0001:000097a0       ?root_get_interface_types@RFrame_Image@frames@ui@modules@UModSys@@UBEIAAUSUniquePtrList@core@5@@Z 1000a7a0 f i umodsys_lib_libui:umodsys.mod.ui.frames.obj
 0001:000097a0       ?root_get_interface_types@RVertexArray@SDL_GL@ui@modules@UModSys@@UBEIAAUSUniquePtrList@core@5@@Z 1000a7a0 f i umodsys_lib_libui:umodsys.mod.ui.SDL_GL.obj
 0001:000097a0       ?root_get_interface_types@RTest1_Shell@test1@test@modules@UModSys@@UBEIAAUSUniquePtrList@core@5@@Z 1000a7a0 f i plugin_test1.obj
 0001:000097a0       ?root_get_interface_types@RRender@object_primitive@stdlib@lib3d@modules@UModSys@@UBEIAAUSUniquePtrList@core@6@@Z 1000a7a0 f i umodsys_lib_lib3d:umodsys.mod.3d.stdlib.obj
 0001:000097a0       ?root_get_interface_types@RRenderer@stdlib@lib3d@modules@UModSys@@UBEIAAUSUniquePtrList@core@5@@Z 1000a7a0 f i umodsys_lib_lib3d:umodsys.mod.3d.stdlib.obj
 0001:000097a0       ?root_get_interface_types@RGenerator@SDL_core@ui@modules@UModSys@@UBEIAAUSUniquePtrList@core@5@@Z 1000a7a0 f i umodsys_lib_libui:umodsys.mod.ui.SDL_core.obj
 0001:000097a0       ?root_get_interface_types@RFrame_Button@frames@ui@modules@UModSys@@UBEIAAUSUniquePtrList@core@5@@Z 1000a7a0 f i umodsys_lib_libui:umodsys.mod.ui.frames.obj
 0001:000097a0       ?root_get_interface_types@RGenerator@stdlib@lib2d@modules@UModSys@@UBEIAAUSUniquePtrList@core@5@@Z 1000a7a0 f i umodsys_lib_lib2d:umodsys.mod.2d.stdlib.obj
 0001:000097a0       ?root_get_interface_types@RTerminalX@SDL_core@ui@modules@UModSys@@UBEIAAUSUniquePtrList@core@5@@Z 1000a7a0 f i umodsys_lib_libui:umodsys.mod.ui.SDL_core.obj
 0001:000097a0       ?root_get_interface_types@RMultiImage2D_SDL_ttf@SDL_core@ui@modules@UModSys@@UBEIAAUSUniquePtrList@core@5@@Z 1000a7a0 f i umodsys_lib_libui:umodsys.mod.ui.SDL_core.obj
 0001:000097a0       ?root_get_interface_types@RVisual@object_primitive@stdlib@lib3d@modules@UModSys@@UBEIAAUSUniquePtrList@core@6@@Z 1000a7a0 f i umodsys_lib_lib3d:umodsys.mod.3d.stdlib.obj
 0001:000097a0       ?root_get_interface_types@RKeyboardController@SDL_GL@ui@modules@UModSys@@UBEIAAUSUniquePtrList@core@5@@Z 1000a7a0 f i umodsys_lib_libui:umodsys.mod.ui.SDL_GL.obj
 0001:000097a0       ?root_get_interface_types@RVisual@object_camera@stdlib@lib3d@modules@UModSys@@UBEIAAUSUniquePtrList@core@6@@Z 1000a7a0 f i umodsys_lib_lib3d:umodsys.mod.3d.stdlib.obj
 0001:000097a0       ?root_get_interface_types@RImageFactory_Memory@stdlib@lib2d@modules@UModSys@@UBEIAAUSUniquePtrList@core@5@@Z 1000a7a0 f i umodsys_lib_lib2d:umodsys.mod.2d.stdlib.obj
 0001:000097a0       ?root_get_interface_types@RKeyboardController@SDL_core@ui@modules@UModSys@@UBEIAAUSUniquePtrList@core@5@@Z 1000a7a0 f i umodsys_lib_libui:umodsys.mod.ui.SDL_core.obj
 0001:000097a0       ?root_get_interface_types@RGenerator@SDL_GL@ui@modules@UModSys@@UBEIAAUSUniquePtrList@core@5@@Z 1000a7a0 f i umodsys_lib_libui:umodsys.mod.ui.SDL_GL.obj
 0001:000097a0       ?root_get_interface_types@RCollector@frames@ui@modules@UModSys@@UBEIAAUSUniquePtrList@core@5@@Z 1000a7a0 f i umodsys_lib_libui:umodsys.mod.ui.frames.obj
 0001:000097a0       ?root_get_interface_types@RRenderDriver2D@SDL_core@ui@modules@UModSys@@UBEIAAUSUniquePtrList@core@5@@Z 1000a7a0 f i umodsys_lib_libui:umodsys.mod.ui.SDL_core.obj
 0001:000097a0       ?root_get_interface_types@RGenerator@test1@test@modules@UModSys@@UBEIAAUSUniquePtrList@core@5@@Z 1000a7a0 f i plugin_test1.obj
 0001:000097a0       ?root_get_interface_types@RMultiImage2D_SDL_ttf@SDL_GL@ui@modules@UModSys@@UBEIAAUSUniquePtrList@core@5@@Z 1000a7a0 f i umodsys_lib_libui:umodsys.mod.ui.SDL_GL.obj
 0001:000097a0       ?root_get_interface_types@RImage_Memory@stdlib@lib2d@modules@UModSys@@UBEIAAUSUniquePtrList@core@5@@Z 1000a7a0 f i umodsys_lib_lib2d:umodsys.mod.2d.stdlib.obj
 0001:000097a0       ?root_get_interface_types@RGenerator@frames@ui@modules@UModSys@@UBEIAAUSUniquePtrList@core@5@@Z 1000a7a0 f i umodsys_lib_libui:umodsys.mod.ui.frames.obj
 0001:000097a0       ?root_get_interface_types@RSerializeWriter@serialize_json@media@modules@UModSys@@UBEIAAUSUniquePtrList@core@5@@Z 1000a7a0 f i umodsys_lib_libmedia:umodsys.mod.media.serialize_json.obj
 0001:000097a0       ?root_get_interface_types@RGenerator@zlib@media@modules@UModSys@@UBEIAAUSUniquePtrList@core@5@@Z 1000a7a0 f i umodsys_lib_libmedia:umodsys.mod.media.zlib.obj
 0001:000097a0       ?root_get_interface_types@RFrame_List@frames@ui@modules@UModSys@@UBEIAAUSUniquePtrList@core@5@@Z 1000a7a0 f i umodsys_lib_libui:umodsys.mod.ui.frames.obj
 0001:000097a0       ?root_get_interface_types@RRenderDriver3D@SDL_GL@ui@modules@UModSys@@UBEIAAUSUniquePtrList@core@5@@Z 1000a7a0 f i umodsys_lib_libui:umodsys.mod.ui.SDL_GL.obj
 0001:000097a0       ?root_get_interface_types@RMultiImage@stdlib@lib2d@modules@UModSys@@UBEIAAUSUniquePtrList@core@5@@Z 1000a7a0 f i umodsys_lib_lib2d:umodsys.mod.2d.stdlib.obj
 0001:000097a0       ?root_get_interface_types@RGeneral@object_primitive@stdlib@lib3d@modules@UModSys@@UBEIAAUSUniquePtrList@core@6@@Z 1000a7a0 f i umodsys_lib_lib3d:umodsys.mod.3d.stdlib.obj
 0001:000097a0       ?root_get_interface_types@RGenerator@stdlib@lib3d@modules@UModSys@@UBEIAAUSUniquePtrList@core@5@@Z 1000a7a0 f i umodsys_lib_lib3d:umodsys.mod.3d.stdlib.obj
 0001:000097a0       ?root_get_interface_types@RTerminal@SDL_core@ui@modules@UModSys@@UBEIAAUSUniquePtrList@core@5@@Z 1000a7a0 f i umodsys_lib_libui:umodsys.mod.ui.SDL_core.obj
 0001:000097a0       ?root_get_interface_types@RFrame_Text@frames@ui@modules@UModSys@@UBEIAAUSUniquePtrList@core@5@@Z 1000a7a0 f i umodsys_lib_libui:umodsys.mod.ui.frames.obj
 0001:000097b0       ?root_get_other_interface@RFrame_List@frames@ui@modules@UModSys@@UAEPAUIRoot@core@5@PBUSUniquePointerInfo@75@@Z 1000a7b0 f i umodsys_lib_libui:umodsys.mod.ui.frames.obj
 0001:000097b0       ?root_get_other_interface@RFrame_List@frames@ui@modules@UModSys@@UBEPBUIRoot@core@5@PBUSUniquePointerInfo@75@@Z 1000a7b0 f i umodsys_lib_libui:umodsys.mod.ui.frames.obj
 0001:000097f0       ?root_is_interface_supported@RFrame_List@frames@ui@modules@UModSys@@UBE_NPBUSUniquePointerInfo@core@5@@Z 1000a7f0 f i umodsys_lib_libui:umodsys.mod.ui.frames.obj
 0001:00009830       ?ref_add@RFrame_List@frames@ui@modules@UModSys@@UBEXXZ 1000a830 f i umodsys_lib_libui:umodsys.mod.ui.frames.obj
 0001:00009840       ?ref_remove@RFrame_List@frames@ui@modules@UModSys@@UBEXXZ 1000a840 f i umodsys_lib_libui:umodsys.mod.ui.frames.obj
 0001:00009860       ?ref_links@RFrame_List@frames@ui@modules@UModSys@@UBEHXZ 1000a860 f i umodsys_lib_libui:umodsys.mod.ui.frames.obj
 0001:00009870       ?ref_weak@RFrame_List@frames@ui@modules@UModSys@@UBE_NAAUWeakPointer@IRefObject@core@5@@Z 1000a870 f i umodsys_lib_libui:umodsys.mod.ui.frames.obj
 0001:000098a0       ?suicide@RFrame_List@frames@ui@modules@UModSys@@UAEXXZ 1000a8a0 f i umodsys_lib_libui:umodsys.mod.ui.frames.obj
 0001:000098b0       ?get_cids@RFrame_List@frames@ui@modules@UModSys@@UAE?AU?$TString@U?$TSCoreConst@D@su@tl@UModSys@@U?$TComparerBinaryHash@D@234@@tl@5@XZ 1000a8b0 f i umodsys_lib_libui:umodsys.mod.ui.frames.obj
 0001:000098b0       ?get_cids@RFrame_Button@frames@ui@modules@UModSys@@UAE?AU?$TString@U?$TSCoreConst@D@su@tl@UModSys@@U?$TComparerBinaryHash@D@234@@tl@5@XZ 1000a8b0 f i umodsys_lib_libui:umodsys.mod.ui.frames.obj
 0001:000098b0       ?get_cids@RFrame_Text@frames@ui@modules@UModSys@@UAE?AU?$TString@U?$TSCoreConst@D@su@tl@UModSys@@U?$TComparerBinaryHash@D@234@@tl@5@XZ 1000a8b0 f i umodsys_lib_libui:umodsys.mod.ui.frames.obj
 0001:000098e0       ?get_cidn@RFrame_Button@frames@ui@modules@UModSys@@UAEHXZ 1000a8e0 f i umodsys_lib_libui:umodsys.mod.ui.frames.obj
 0001:000098e0       ?get_cidn@RFrame_List@frames@ui@modules@UModSys@@UAEHXZ 1000a8e0 f i umodsys_lib_libui:umodsys.mod.ui.frames.obj
 0001:000098e0       ?get_cidn@RFrame_Text@frames@ui@modules@UModSys@@UAEHXZ 1000a8e0 f i umodsys_lib_libui:umodsys.mod.ui.frames.obj
 0001:000098f0       ?get_data@RFrame_List@frames@ui@modules@UModSys@@UAEPAUIFrameData@libui@5@XZ 1000a8f0 f i umodsys_lib_libui:umodsys.mod.ui.frames.obj
 0001:00009900       ??_ERFrame_List@frames@ui@modules@UModSys@@UAEPAXI@Z 1000a900 f i  CIL library: CIL module
 0001:00009900       ??_GRFrame_List@frames@ui@modules@UModSys@@UAEPAXI@Z 1000a900 f i umodsys_lib_libui:umodsys.mod.ui.frames.obj
 0001:00009920       ?root_get_interface_info@RCollector@frames@ui@modules@UModSys@@UBEABUSUniquePointerInfo@core@5@XZ 1000a920 f i umodsys_lib_libui:umodsys.mod.ui.frames.obj
 0001:00009930       ?root_get_interface_type@RCollector@frames@ui@modules@UModSys@@UBEPBUSUniquePointerInfo@core@5@XZ 1000a930 f i umodsys_lib_libui:umodsys.mod.ui.frames.obj
 0001:00009940       ?root_get_other_interface@RCollector@frames@ui@modules@UModSys@@UBEPBUIRoot@core@5@PBUSUniquePointerInfo@75@@Z 1000a940 f i umodsys_lib_libui:umodsys.mod.ui.frames.obj
 0001:00009940       ?root_get_other_interface@RCollector@frames@ui@modules@UModSys@@UAEPAUIRoot@core@5@PBUSUniquePointerInfo@75@@Z 1000a940 f i umodsys_lib_libui:umodsys.mod.ui.frames.obj
 0001:00009970       ?root_is_interface_supported@RCollector@frames@ui@modules@UModSys@@UBE_NPBUSUniquePointerInfo@core@5@@Z 1000a970 f i umodsys_lib_libui:umodsys.mod.ui.frames.obj
 0001:000099b0       ?ref_add@RCollector@frames@ui@modules@UModSys@@UBEXXZ 1000a9b0 f i umodsys_lib_libui:umodsys.mod.ui.frames.obj
 0001:000099b0       ?ref_add@RRender@object_primitive@stdlib@lib3d@modules@UModSys@@UBEXXZ 1000a9b0 f i umodsys_lib_lib3d:umodsys.mod.3d.stdlib.obj
 0001:000099c0       ?ref_links@RCollector@frames@ui@modules@UModSys@@UBEHXZ 1000a9c0 f i umodsys_lib_libui:umodsys.mod.ui.frames.obj
 0001:000099c0       ?ref_links@RRender@object_primitive@stdlib@lib3d@modules@UModSys@@UBEHXZ 1000a9c0 f i umodsys_lib_lib3d:umodsys.mod.3d.stdlib.obj
 0001:000099d0       ?suicide@RCollector@frames@ui@modules@UModSys@@UAEXXZ 1000a9d0 f i umodsys_lib_libui:umodsys.mod.ui.frames.obj
 0001:000099e0       ?broadcast@RCollector@frames@ui@modules@UModSys@@UAEHHABUSFrameDataIn@libui@5@H@Z 1000a9e0 f i umodsys_lib_libui:umodsys.mod.ui.frames.obj
 0001:00009a00       ??_ERCollector@frames@ui@modules@UModSys@@UAEPAXI@Z 1000aa00 f i  CIL library: CIL module
 0001:00009a00       ??_GRCollector@frames@ui@modules@UModSys@@UAEPAXI@Z 1000aa00 f i umodsys_lib_libui:umodsys.mod.ui.frames.obj
 0001:00009a20       ?get_up_theme@RFrame_Common@frames@ui@modules@UModSys@@UAEPAUICollectorTheme@libui@5@XZ 1000aa20 f i umodsys_lib_libui:umodsys.mod.ui.frames.obj
 0001:00009a40       ?draw_button@SButton@frames@ui@modules@UModSys@@QAE_NABUSDrawState@2345@HH@Z 1000aa40 f i umodsys_lib_libui:umodsys.mod.ui.frames.obj
 0001:00009ab0       ?draw_text@SButton@frames@ui@modules@UModSys@@QAE_NABUSDrawState@2345@ABU?$TString@U?$TSCoreConst@D@su@tl@UModSys@@U?$TComparerBinaryHash@D@234@@tl@5@HH@Z 1000aab0 f i umodsys_lib_libui:umodsys.mod.ui.frames.obj
 0001:00009bc0       ?get_generated_names@RGenerator@frames@ui@modules@UModSys@@UBEHAAUSUniquePtrList@core@5@@Z 1000abc0 f i umodsys_lib_libui:umodsys.mod.ui.frames.obj
 0001:00009be0       ?get_generated_types@RGenerator@frames@ui@modules@UModSys@@UBEHAAUSUniquePtrList@core@5@PBUSUniquePointerInfo@75@@Z 1000abe0 f i umodsys_lib_libui:umodsys.mod.ui.frames.obj
 0001:00009c30       ?generate@RGenerator@frames@ui@modules@UModSys@@UAE_NAAU?$TRefObject@UIRefObject@core@UModSys@@U?$TRefObjectFunc@UIRefObject@core@UModSys@@@tl@3@@tl@5@PBUSUniquePointerInfo@core@5@ABUSParameters@95@@Z 1000ac30 f i umodsys_lib_libui:umodsys.mod.ui.frames.obj
 0001:00009c60       ?root_get_interface_info@RGenerator@frames@ui@modules@UModSys@@UBEABUSUniquePointerInfo@core@5@XZ 1000ac60 f i umodsys_lib_libui:umodsys.mod.ui.frames.obj
 0001:00009c70       ?root_get_interface_type@RGenerator@frames@ui@modules@UModSys@@UBEPBUSUniquePointerInfo@core@5@XZ 1000ac70 f i umodsys_lib_libui:umodsys.mod.ui.frames.obj
 0001:00009c80       ?root_get_other_interface@RGenerator@frames@ui@modules@UModSys@@UBEPBUIRoot@core@5@PBUSUniquePointerInfo@75@@Z 1000ac80 f i umodsys_lib_libui:umodsys.mod.ui.frames.obj
 0001:00009c80       ?root_get_other_interface@RGenerator@frames@ui@modules@UModSys@@UAEPAUIRoot@core@5@PBUSUniquePointerInfo@75@@Z 1000ac80 f i umodsys_lib_libui:umodsys.mod.ui.frames.obj
 0001:00009cc0       ?root_is_interface_supported@RGenerator@frames@ui@modules@UModSys@@UBE_NPBUSUniquePointerInfo@core@5@@Z 1000acc0 f i umodsys_lib_libui:umodsys.mod.ui.frames.obj
 0001:00009d00       ?get_uid@RGenerator@frames@ui@modules@UModSys@@UBEPBUSUniquePointerInfo@core@5@XZ 1000ad00 f i umodsys_lib_libui:umodsys.mod.ui.frames.obj
 0001:00009d10       ?do_open@RModuleReg@frames@ui@modules@UModSys@@UAE_NXZ 1000ad10 f i umodsys_lib_libui:umodsys.mod.ui.frames.obj
 0001:00009d20       ?do_close@RModuleReg@frames@ui@modules@UModSys@@UAE_NXZ 1000ad20 f i umodsys_lib_libui:umodsys.mod.ui.frames.obj
 0001:00009d30       ??_GRModuleReg@frames@ui@modules@UModSys@@UAEPAXI@Z 1000ad30 f i umodsys_lib_libui:umodsys.mod.ui.frames.obj
 0001:00009d30       ??_ERModuleReg@frames@ui@modules@UModSys@@UAEPAXI@Z 1000ad30 f i  CIL library: CIL module
 0001:00009d60       ?set_length@?$TStringBuf@U?$TSCoreShared@USIMemAlloc@core@UModSys@@D@su@tl@UModSys@@U?$TComparerBinaryHash@D@234@@tl@UModSys@@QAEXI@Z 1000ad60 f i umodsys_lib_libui:umodsys.mod.ui.frames.obj
 0001:00009dc0       ??1?$TScatterArray@U?$TVector4@M@math3d@UModSys@@HU?$TScalarCompare@H@core@3@U?$TNodeDeleter0@U?$TScatterArrayNode@U?$TVector4@M@math3d@UModSys@@H@tl@UModSys@@@tl@3@@tl@UModSys@@QAE@XZ 1000adc0 f i umodsys_lib_libui:umodsys.mod.ui.frames.obj
 0001:00009dc0       ??1?$TScatterArray@U?$TVector2@M@math3d@UModSys@@HU?$TScalarCompare@H@core@3@U?$TNodeDeleter0@U?$TScatterArrayNode@U?$TVector2@M@math3d@UModSys@@H@tl@UModSys@@@tl@3@@tl@UModSys@@QAE@XZ 1000adc0 f i umodsys_lib_libui:umodsys.mod.ui.frames.obj
 0001:00009e10       ??1?$TDynarrayDynamic@U?$TRefObject@URFrame_Common@frames@ui@modules@UModSys@@U?$TRefObjectFunc@URFrame_Common@frames@ui@modules@UModSys@@@tl@5@@tl@UModSys@@U?$TAllocator@USIMemAlloc@core@UModSys@@USCountCalcPower2@23@@23@@tl@UModSys@@QAE@XZ 1000ae10 f i umodsys_lib_libui:umodsys.mod.ui.frames.obj
 0001:00009e10       ??1?$TDynarrayDynamic@U?$TRefObject@URDialog@frames@ui@modules@UModSys@@U?$TRefObjectFunc@URDialog@frames@ui@modules@UModSys@@@tl@5@@tl@UModSys@@U?$TAllocator@USIMemAlloc@core@UModSys@@USCountCalcPower2@23@@23@@tl@UModSys@@QAE@XZ 1000ae10 f i umodsys_lib_libui:umodsys.mod.ui.frames.obj
 0001:00009e60       ??_GRGenerator@stdlib@lib3d@modules@UModSys@@UAEPAXI@Z 1000ae60 f i umodsys_lib_lib3d:umodsys.mod.3d.stdlib.obj
 0001:00009e60       ??_ERGenerator@SDL_GL@ui@modules@UModSys@@UAEPAXI@Z 1000ae60 f i  CIL library: CIL module
 0001:00009e60       ??_GRGenerator@images_std@media@modules@UModSys@@UAEPAXI@Z 1000ae60 f i umodsys_lib_libmedia:umodsys.mod.media.images_std.obj
 0001:00009e60       ??_EIRefObject@core@UModSys@@UAEPAXI@Z 1000ae60 f i  CIL library: CIL module
 0001:00009e60       ??_GIRefObject@core@UModSys@@UAEPAXI@Z 1000ae60 f i plugin_test1.obj
 0001:00009e60       ??_ERGenerator@zlib@media@modules@UModSys@@UAEPAXI@Z 1000ae60 f i  CIL library: CIL module
 0001:00009e60       ??_GRGenerator@SDL_GL@ui@modules@UModSys@@UAEPAXI@Z 1000ae60 f i umodsys_lib_libui:umodsys.mod.ui.SDL_GL.obj
 0001:00009e60       ??_GRGenerator@stdlib@lib2d@modules@UModSys@@UAEPAXI@Z 1000ae60 f i umodsys_lib_lib2d:umodsys.mod.2d.stdlib.obj
 0001:00009e60       ??_GRGenerator@serialize_json@media@modules@UModSys@@UAEPAXI@Z 1000ae60 f i umodsys_lib_libmedia:umodsys.mod.media.serialize_json.obj
 0001:00009e60       ??_ERGenerator@images_std@media@modules@UModSys@@UAEPAXI@Z 1000ae60 f i  CIL library: CIL module
 0001:00009e60       ??_GRGenerator@zlib@media@modules@UModSys@@UAEPAXI@Z 1000ae60 f i umodsys_lib_libmedia:umodsys.mod.media.zlib.obj
 0001:00009e60       ??_GRGenerator@test1@test@modules@UModSys@@UAEPAXI@Z 1000ae60 f i plugin_test1.obj
 0001:00009e60       ??_ERGenerator@test1@test@modules@UModSys@@UAEPAXI@Z 1000ae60 f i  CIL library: CIL module
 0001:00009e60       ??_ERGenerator@serialize_json@media@modules@UModSys@@UAEPAXI@Z 1000ae60 f i  CIL library: CIL module
 0001:00009e60       ??_ERGenerator@SDL_core@ui@modules@UModSys@@UAEPAXI@Z 1000ae60 f i  CIL library: CIL module
 0001:00009e60       ??_ERGenerator@stdlib@lib3d@modules@UModSys@@UAEPAXI@Z 1000ae60 f i  CIL library: CIL module
 0001:00009e60       ??_ERGenerator@frames@ui@modules@UModSys@@UAEPAXI@Z 1000ae60 f i  CIL library: CIL module
 0001:00009e60       ??_GRGenerator@SDL_core@ui@modules@UModSys@@UAEPAXI@Z 1000ae60 f i umodsys_lib_libui:umodsys.mod.ui.SDL_core.obj
 0001:00009e60       ??_GRGenerator@frames@ui@modules@UModSys@@UAEPAXI@Z 1000ae60 f i umodsys_lib_libui:umodsys.mod.ui.frames.obj
 0001:00009e60       ??_ERGenerator@stdlib@lib2d@modules@UModSys@@UAEPAXI@Z 1000ae60 f i  CIL library: CIL module
 0001:00009e80       ?info_alloc@?$TSCoreShared@USIMemAlloc@core@UModSys@@D@su@tl@UModSys@@QAE_NI@Z 1000ae80 f i umodsys_lib_libui:umodsys.mod.ui.frames.obj
 0001:00009ef0       ??$t_get@U?$TScatterArray@U?$TVector4@M@math3d@UModSys@@HU?$TScalarCompare@H@core@3@U?$TNodeDeleter0@U?$TScatterArrayNode@U?$TVector4@M@math3d@UModSys@@H@tl@UModSys@@@tl@3@@tl@UModSys@@U?$TVector4@M@math3d@3@@ICollectorThemeTemplate@libui@UModSys@@IBE_NABU?$TScatterArray@U?$TVector4@M@math3d@UModSys@@HU?$TScalarCompare@H@core@3@U?$TNodeDeleter0@U?$TScatterArrayNode@U?$TVector4@M@math3d@UModSys@@H@tl@UModSys@@@tl@3@@tl@2@HHAAU?$TVector4@M@math3d@2@@Z 1000aef0 f i umodsys_lib_libui:umodsys.mod.ui.frames.obj
 0001:00009f60       ??$t_get@U?$TScatterArray@U?$TVector4@M@math3d@UModSys@@HU?$TScalarCompare@H@core@3@U?$TNodeDeleter0@U?$TScatterArrayNode@U?$TVector4@M@math3d@UModSys@@H@tl@UModSys@@@tl@3@@tl@UModSys@@U?$TVector4@H@math3d@3@@ICollectorThemeTemplate@libui@UModSys@@IBE_NABU?$TScatterArray@U?$TVector4@M@math3d@UModSys@@HU?$TScalarCompare@H@core@3@U?$TNodeDeleter0@U?$TScatterArrayNode@U?$TVector4@M@math3d@UModSys@@H@tl@UModSys@@@tl@3@@tl@2@HHAAU?$TVector4@H@math3d@2@@Z 1000af60 f i umodsys_lib_libui:umodsys.mod.ui.frames.obj
 0001:0000a020       ??$t_get@U?$TScatterArray@U?$TVector2@M@math3d@UModSys@@HU?$TScalarCompare@H@core@3@U?$TNodeDeleter0@U?$TScatterArrayNode@U?$TVector2@M@math3d@UModSys@@H@tl@UModSys@@@tl@3@@tl@UModSys@@U?$TVector2@M@math3d@3@@ICollectorThemeTemplate@libui@UModSys@@IBE_NABU?$TScatterArray@U?$TVector2@M@math3d@UModSys@@HU?$TScalarCompare@H@core@3@U?$TNodeDeleter0@U?$TScatterArrayNode@U?$TVector2@M@math3d@UModSys@@H@tl@UModSys@@@tl@3@@tl@2@HHAAU?$TVector2@M@math3d@2@@Z 1000b020 f i umodsys_lib_libui:umodsys.mod.ui.frames.obj
 0001:0000a080       ??$t_get@U?$TScatterArray@U?$TVector2@M@math3d@UModSys@@HU?$TScalarCompare@H@core@3@U?$TNodeDeleter0@U?$TScatterArrayNode@U?$TVector2@M@math3d@UModSys@@H@tl@UModSys@@@tl@3@@tl@UModSys@@U?$TVector2@H@math3d@3@@ICollectorThemeTemplate@libui@UModSys@@IBE_NABU?$TScatterArray@U?$TVector2@M@math3d@UModSys@@HU?$TScalarCompare@H@core@3@U?$TNodeDeleter0@U?$TScatterArrayNode@U?$TVector2@M@math3d@UModSys@@H@tl@UModSys@@@tl@3@@tl@2@HHAAU?$TVector2@H@math3d@2@@Z 1000b080 f i umodsys_lib_libui:umodsys.mod.ui.frames.obj
 0001:0000a100       ??$t_get@U?$TScatterArray@HHU?$TScalarCompare@H@core@UModSys@@U?$TNodeDeleter0@U?$TScatterArrayNode@HH@tl@UModSys@@@tl@3@@tl@UModSys@@H@ICollectorThemeTemplate@libui@UModSys@@IBE_NABU?$TScatterArray@HHU?$TScalarCompare@H@core@UModSys@@U?$TNodeDeleter0@U?$TScatterArrayNode@HH@tl@UModSys@@@tl@3@@tl@2@HHAAH@Z 1000b100 f i umodsys_lib_libui:umodsys.mod.ui.frames.obj
 0001:0000a160       ??$t_set@U?$TScatterArray@U?$TVector4@M@math3d@UModSys@@HU?$TScalarCompare@H@core@3@U?$TNodeDeleter0@U?$TScatterArrayNode@U?$TVector4@M@math3d@UModSys@@H@tl@UModSys@@@tl@3@@tl@UModSys@@U?$TVector4@H@math3d@3@@ICollectorThemeTemplate@libui@UModSys@@IAE_NAAU?$TScatterArray@U?$TVector4@M@math3d@UModSys@@HU?$TScalarCompare@H@core@3@U?$TNodeDeleter0@U?$TScatterArrayNode@U?$TVector4@M@math3d@UModSys@@H@tl@UModSys@@@tl@3@@tl@2@HHABU?$TVector4@H@math3d@2@@Z 1000b160 f i umodsys_lib_libui:umodsys.mod.ui.frames.obj
 0001:0000a1e0       ??$?4U?$TSCoreConst@D@su@tl@UModSys@@U?$TComparerBinaryHash@D@123@@?$TString@U?$TSCoreShared@USIMemAlloc@core@UModSys@@D@su@tl@UModSys@@U?$TComparerBinaryHash@D@234@@tl@UModSys@@QAEXABU?$TString@U?$TSCoreConst@D@su@tl@UModSys@@U?$TComparerBinaryHash@D@234@@12@@Z 1000b1e0 f i umodsys_lib_libui:umodsys.mod.ui.frames.obj
 0001:0000a210       ??$smemmove@H@su@tl@UModSys@@YAXPAHPBHI@Z 1000b210 f i umodsys_lib_libui:umodsys.mod.ui.frames.obj
 0001:0000a230       ?ResizeRel@?$TDynarray@U?$TDynarrayHolderDynamic@UListItem@RFrame_List@frames@ui@modules@UModSys@@U?$TAllocator@USIMemAlloc@core@UModSys@@USCountCalcPower2@23@@tl@6@@tl@UModSys@@@tl@UModSys@@QAE_NH@Z 1000b230 f i umodsys_lib_libui:umodsys.mod.ui.frames.obj
 0001:0000a2c0       ?ResizeRel@?$TDynarray@U?$TDynarrayHolderDynamic@U?$TRefObject@URDialog@frames@ui@modules@UModSys@@U?$TRefObjectFunc@URDialog@frames@ui@modules@UModSys@@@tl@5@@tl@UModSys@@U?$TAllocator@USIMemAlloc@core@UModSys@@USCountCalcPower2@23@@23@@tl@UModSys@@@tl@UModSys@@QAE_NH@Z 1000b2c0 f i umodsys_lib_libui:umodsys.mod.ui.frames.obj
 0001:0000a2c0       ?ResizeRel@?$TDynarray@U?$TDynarrayHolderDynamic@U?$TRefObject@URFrame_Common@frames@ui@modules@UModSys@@U?$TRefObjectFunc@URFrame_Common@frames@ui@modules@UModSys@@@tl@5@@tl@UModSys@@U?$TAllocator@USIMemAlloc@core@UModSys@@USCountCalcPower2@23@@23@@tl@UModSys@@@tl@UModSys@@QAE_NH@Z 1000b2c0 f i umodsys_lib_libui:umodsys.mod.ui.frames.obj
 0001:0000a330       ??$t_gen_param@URCollector@frames@ui@modules@UModSys@@URGenerator@2345@@IGenerator@base@UModSys@@IAE_NPAURGenerator@frames@ui@modules@2@AAU?$TRefObject@UIRefObject@core@UModSys@@U?$TRefObjectFunc@UIRefObject@core@UModSys@@@tl@3@@tl@2@PBUSUniquePointerInfo@core@2@ABUSParameters@core@2@@Z 1000b330 f i umodsys_lib_libui:umodsys.mod.ui.frames.obj
 0001:0000a3b0       ?ReLink@?$TDynarray@U?$TDynarrayHolderDynamic@UListItem@RFrame_List@frames@ui@modules@UModSys@@U?$TAllocator@USIMemAlloc@core@UModSys@@USCountCalcPower2@23@@tl@6@@tl@UModSys@@@tl@UModSys@@IAE_NI@Z 1000b3b0 f i umodsys_lib_libui:umodsys.mod.ui.frames.obj
 0001:0000a400       ?adestruct@?$TTypeConstructor@U?$TRefObject@URDialog@frames@ui@modules@UModSys@@U?$TRefObjectFunc@URDialog@frames@ui@modules@UModSys@@@tl@5@@tl@UModSys@@@tl@UModSys@@SAXPAU?$TRefObject@URDialog@frames@ui@modules@UModSys@@U?$TRefObjectFunc@URDialog@frames@ui@modules@UModSys@@@tl@5@@23@I@Z 1000b400 f i umodsys_lib_libui:umodsys.mod.ui.frames.obj
 0001:0000a400       ?adestruct@?$TTypeConstructor@U?$TRefObject@URFrame_Common@frames@ui@modules@UModSys@@U?$TRefObjectFunc@URFrame_Common@frames@ui@modules@UModSys@@@tl@5@@tl@UModSys@@@tl@UModSys@@SAXPAU?$TRefObject@URFrame_Common@frames@ui@modules@UModSys@@U?$TRefObjectFunc@URFrame_Common@frames@ui@modules@UModSys@@@tl@5@@23@I@Z 1000b400 f i umodsys_lib_libui:umodsys.mod.ui.frames.obj
 0001:0000a400       ?adestruct@?$TTypeConstructor@U?$TRefObject@UIImage@lib2d@UModSys@@U?$TRefObjectFunc@UIImage@lib2d@UModSys@@@tl@3@@tl@UModSys@@@tl@UModSys@@SAXPAU?$TRefObject@UIImage@lib2d@UModSys@@U?$TRefObjectFunc@UIImage@lib2d@UModSys@@@tl@3@@23@I@Z 1000b400 f i umodsys_lib_lib2d:umodsys.mod.2d.stdlib.obj
 0001:0000a440       ?aconstruct@?$TTypeConstructor@UListItem@RFrame_List@frames@ui@modules@UModSys@@@tl@UModSys@@SAXPAUListItem@RFrame_List@frames@ui@modules@3@I@Z 1000b440 f i umodsys_lib_libui:umodsys.mod.ui.frames.obj
 0001:0000a4b0       ??$ValidateConstruction@UIRefObject@core@UModSys@@URCollector@frames@ui@modules@3@@core@UModSys@@YA_NAAU?$TRefObject@UIRefObject@core@UModSys@@U?$TRefObjectFunc@UIRefObject@core@UModSys@@@tl@3@@tl@1@PAURCollector@frames@ui@modules@1@@Z 1000b4b0 f i umodsys_lib_libui:umodsys.mod.ui.frames.obj
 0001:0000a540       ??$process_nodes_r@U?$TNodeDeleter0@U?$TScatterArrayNode@HH@tl@UModSys@@@tl@UModSys@@@?$TTreeHoldRB@U?$TScatterArrayNode@HH@tl@UModSys@@@tl@UModSys@@KAHPAU?$TScatterArrayNode@HH@12@ABU?$TNodeDeleter0@U?$TScatterArrayNode@HH@tl@UModSys@@@12@@Z 1000b540 f i umodsys_lib_libui:umodsys.mod.ui.frames.obj
 0001:0000a540       ??$process_nodes_r@U?$TNodeDeleter0@U?$TScatterArrayNode@U?$TVector4@M@math3d@UModSys@@H@tl@UModSys@@@tl@UModSys@@@?$TTreeHoldRB@U?$TScatterArrayNode@U?$TVector4@M@math3d@UModSys@@H@tl@UModSys@@@tl@UModSys@@KAHPAU?$TScatterArrayNode@U?$TVector4@M@math3d@UModSys@@H@12@ABU?$TNodeDeleter0@U?$TScatterArrayNode@U?$TVector4@M@math3d@UModSys@@H@tl@UModSys@@@12@@Z 1000b540 f i umodsys_lib_libui:umodsys.mod.ui.frames.obj
 0001:0000a540       ??$process_nodes_r@U?$TNodeDeleter0@U?$TScatterArrayNode@U?$TVector2@M@math3d@UModSys@@H@tl@UModSys@@@tl@UModSys@@@?$TTreeHoldRB@U?$TScatterArrayNode@U?$TVector2@M@math3d@UModSys@@H@tl@UModSys@@@tl@UModSys@@KAHPAU?$TScatterArrayNode@U?$TVector2@M@math3d@UModSys@@H@12@ABU?$TNodeDeleter0@U?$TScatterArrayNode@U?$TVector2@M@math3d@UModSys@@H@tl@UModSys@@@12@@Z 1000b540 f i umodsys_lib_libui:umodsys.mod.ui.frames.obj
 0001:0000a590       ??$genx_node@UCmp@?$TScatterArray@U?$TVector4@M@math3d@UModSys@@HU?$TScalarCompare@H@core@3@U?$TNodeDeleter0@U?$TScatterArrayNode@U?$TVector4@M@math3d@UModSys@@H@tl@UModSys@@@tl@3@@tl@UModSys@@UGen0@234@@?$TTreeHoldRBD@U?$TScatterArrayNode@U?$TVector4@M@math3d@UModSys@@H@tl@UModSys@@U?$TNodeDeleter0@U?$TScatterArrayNode@U?$TVector4@M@math3d@UModSys@@H@tl@UModSys@@@23@@tl@UModSys@@QAEPAU?$TScatterArrayNode@U?$TVector4@M@math3d@UModSys@@H@12@UCmp@?$TScatterArray@U?$TVector4@M@math3d@UModSys@@HU?$TScalarCompare@H@core@3@U?$TNodeDeleter0@U?$TScatterArrayNode@U?$TVector4@M@math3d@UModSys@@H@tl@UModSys@@@tl@3@@12@ABUGen0@512@PAPAU312@2_N@Z 1000b590 f i umodsys_lib_libui:umodsys.mod.ui.frames.obj
 0001:0000a600       ??$genx_node@UCmp@?$TScatterArray@U?$TVector2@M@math3d@UModSys@@HU?$TScalarCompare@H@core@3@U?$TNodeDeleter0@U?$TScatterArrayNode@U?$TVector2@M@math3d@UModSys@@H@tl@UModSys@@@tl@3@@tl@UModSys@@UGen0@234@@?$TTreeHoldRBD@U?$TScatterArrayNode@U?$TVector2@M@math3d@UModSys@@H@tl@UModSys@@U?$TNodeDeleter0@U?$TScatterArrayNode@U?$TVector2@M@math3d@UModSys@@H@tl@UModSys@@@23@@tl@UModSys@@QAEPAU?$TScatterArrayNode@U?$TVector2@M@math3d@UModSys@@H@12@UCmp@?$TScatterArray@U?$TVector2@M@math3d@UModSys@@HU?$TScalarCompare@H@core@3@U?$TNodeDeleter0@U?$TScatterArrayNode@U?$TVector2@M@math3d@UModSys@@H@tl@UModSys@@@tl@3@@12@ABUGen0@512@PAPAU312@2_N@Z 1000b600 f i umodsys_lib_libui:umodsys.mod.ui.frames.obj
 0001:0000a6b0       ??$genx_node@UCmp@?$TScatterArray@HHU?$TScalarCompare@H@core@UModSys@@U?$TNodeDeleter0@U?$TScatterArrayNode@HH@tl@UModSys@@@tl@3@@tl@UModSys@@UGen0@234@@?$TTreeHoldRBD@U?$TScatterArrayNode@HH@tl@UModSys@@U?$TNodeDeleter0@U?$TScatterArrayNode@HH@tl@UModSys@@@23@@tl@UModSys@@QAEPAU?$TScatterArrayNode@HH@12@UCmp@?$TScatterArray@HHU?$TScalarCompare@H@core@UModSys@@U?$TNodeDeleter0@U?$TScatterArrayNode@HH@tl@UModSys@@@tl@3@@12@ABUGen0@512@PAPAU312@2_N@Z 1000b6b0 f i umodsys_lib_libui:umodsys.mod.ui.frames.obj
 0001:0000a740       ??RGen0@?$TScatterArray@U?$TVector4@M@math3d@UModSys@@HU?$TScalarCompare@H@core@3@U?$TNodeDeleter0@U?$TScatterArrayNode@U?$TVector4@M@math3d@UModSys@@H@tl@UModSys@@@tl@3@@tl@UModSys@@QBEPAU?$TScatterArrayNode@U?$TVector4@M@math3d@UModSys@@H@23@ABUCmp@123@ABU?$TTreeHoldRBD@U?$TScatterArrayNode@U?$TVector4@M@math3d@UModSys@@H@tl@UModSys@@U?$TNodeDeleter0@U?$TScatterArrayNode@U?$TVector4@M@math3d@UModSys@@H@tl@UModSys@@@23@@23@@Z 1000b740 f i umodsys_lib_libui:umodsys.mod.ui.frames.obj
 0001:0000a7a0       ??0SMemShared@core@UModSys@@QAE@IPAUSSourceContext@12@@Z 1000b7a0 f i umodsys_lib_libmedia:umodsys.mod.media.images_std.obj
 0001:0000a7e0       ?alloc@SMemShared@core@UModSys@@QAE_NABUSCMem@23@PAUSSourceContext@23@@Z 1000b7e0 f i umodsys_lib_libmedia:umodsys.mod.media.images_std.obj
 0001:0000a840       ??BSMemShared@core@UModSys@@QBE?AUSMem@12@XZ 1000b840 f i umodsys_lib_lib2d:umodsys.mod.2d.stdlib.obj
 0001:0000a840       ?get@SMemShared@core@UModSys@@QBE?AUSMem@23@XZ 1000b840 f i umodsys_lib_libmedia:umodsys.mod.media.images_std.obj
 0001:0000a890       ?utf8_cmp_nocase@su@tl@UModSys@@YAHPBD0I@Z 1000b890 f i umodsys_lib_libmedia:umodsys.mod.media.images_std.obj
 0001:0000a930       ?is_extension_nocase@libmedia@UModSys@@YA_NABU?$TString@U?$TSCoreConst@D@su@tl@UModSys@@U?$TComparerBinaryHash@D@234@@tl@2@0@Z 1000b930 f i umodsys_lib_libmedia:umodsys.mod.media.images_std.obj
 0001:0000a960       ?root_get_interface_info@RMediaFilter@images_std@media@modules@UModSys@@UBEABUSUniquePointerInfo@core@5@XZ 1000b960 f i umodsys_lib_libmedia:umodsys.mod.media.images_std.obj
 0001:0000a970       ?root_get_interface_type@RMediaFilter@images_std@media@modules@UModSys@@UBEPBUSUniquePointerInfo@core@5@XZ 1000b970 f i umodsys_lib_libmedia:umodsys.mod.media.images_std.obj
 0001:0000a980       ?root_get_other_interface@RMediaFilter@images_std@media@modules@UModSys@@UAEPAUIRoot@core@5@PBUSUniquePointerInfo@75@@Z 1000b980 f i umodsys_lib_libmedia:umodsys.mod.media.images_std.obj
 0001:0000a980       ?root_get_other_interface@RMediaFilter@images_std@media@modules@UModSys@@UBEPBUIRoot@core@5@PBUSUniquePointerInfo@75@@Z 1000b980 f i umodsys_lib_libmedia:umodsys.mod.media.images_std.obj
 0001:0000a9c0       ?root_is_interface_supported@RMediaFilter@images_std@media@modules@UModSys@@UBE_NPBUSUniquePointerInfo@core@5@@Z 1000b9c0 f i umodsys_lib_libmedia:umodsys.mod.media.images_std.obj
 0001:0000aa00       ?ref_add@RMediaFilter@images_std@media@modules@UModSys@@UBEXXZ 1000ba00 f i umodsys_lib_libmedia:umodsys.mod.media.images_std.obj
 0001:0000aa10       ?ref_remove@RMediaFilter@images_std@media@modules@UModSys@@UBEXXZ 1000ba10 f i umodsys_lib_libmedia:umodsys.mod.media.images_std.obj
 0001:0000aa20       ?ref_links@RMediaFilter@images_std@media@modules@UModSys@@UBEHXZ 1000ba20 f i umodsys_lib_libmedia:umodsys.mod.media.images_std.obj
 0001:0000aa30       ?ref_weak@RMediaFilter@images_std@media@modules@UModSys@@UBE_NAAUWeakPointer@IRefObject@core@5@@Z 1000ba30 f i umodsys_lib_libmedia:umodsys.mod.media.images_std.obj
 0001:0000aa50       ?suicide@RMediaFilter@images_std@media@modules@UModSys@@UAEXXZ 1000ba50 f i umodsys_lib_libmedia:umodsys.mod.media.images_std.obj
 0001:0000aa60       ?get_flag@RMediaFilter@images_std@media@modules@UModSys@@UBE?AW4eStates@?$TFlags4State@USMediaFlagUid@libmedia@UModSys@@I@tl@5@H@Z 1000ba60 f i umodsys_lib_libmedia:umodsys.mod.media.images_std.obj
 0001:0000aa80       ?get_flags_auto@RMediaFilter@images_std@media@modules@UModSys@@UBE?AU?$TFlags4State@USMediaFlagUid@libmedia@UModSys@@I@tl@5@XZ 1000ba80 f i umodsys_lib_libmedia:umodsys.mod.media.images_std.obj
 0001:0000aa90       ?set_flag@RMediaFilter@images_std@media@modules@UModSys@@UAE?AW4eStates@?$TFlags4State@USMediaFlagUid@libmedia@UModSys@@I@tl@5@HW46785@@Z 1000ba90 f i umodsys_lib_libmedia:umodsys.mod.media.images_std.obj
 0001:0000aac0       ??0RMediaFilter@images_std@media@modules@UModSys@@QAE@PAUIModObject@base@4@ABUSParameters@core@4@@Z 1000bac0 f i umodsys_lib_libmedia:umodsys.mod.media.images_std.obj
 0001:0000ab90       ??1RMediaFilter@images_std@media@modules@UModSys@@UAE@XZ 1000bb90 f i umodsys_lib_libmedia:umodsys.mod.media.images_std.obj
 0001:0000ac20       ??_ERMediaFilter@images_std@media@modules@UModSys@@UAEPAXI@Z 1000bc20 f i  CIL library: CIL module
 0001:0000ac20       ??_GRMediaFilter@images_std@media@modules@UModSys@@UAEPAXI@Z 1000bc20 f i umodsys_lib_libmedia:umodsys.mod.media.images_std.obj
 0001:0000ac40       ?get_generated_names@RGenerator@images_std@media@modules@UModSys@@UBEHAAUSUniquePtrList@core@5@@Z 1000bc40 f i umodsys_lib_libmedia:umodsys.mod.media.images_std.obj
 0001:0000ac60       ?get_generated_types@RGenerator@images_std@media@modules@UModSys@@UBEHAAUSUniquePtrList@core@5@PBUSUniquePointerInfo@75@@Z 1000bc60 f i umodsys_lib_libmedia:umodsys.mod.media.images_std.obj
 0001:0000acb0       ?generate@RGenerator@images_std@media@modules@UModSys@@UAE_NAAU?$TRefObject@UIRefObject@core@UModSys@@U?$TRefObjectFunc@UIRefObject@core@UModSys@@@tl@3@@tl@5@PBUSUniquePointerInfo@core@5@ABUSParameters@95@@Z 1000bcb0 f i umodsys_lib_libmedia:umodsys.mod.media.images_std.obj
 0001:0000ace0       ?root_get_interface_info@RGenerator@images_std@media@modules@UModSys@@UBEABUSUniquePointerInfo@core@5@XZ 1000bce0 f i umodsys_lib_libmedia:umodsys.mod.media.images_std.obj
 0001:0000acf0       ?root_get_interface_type@RGenerator@images_std@media@modules@UModSys@@UBEPBUSUniquePointerInfo@core@5@XZ 1000bcf0 f i umodsys_lib_libmedia:umodsys.mod.media.images_std.obj
 0001:0000ad00       ?root_get_other_interface@RGenerator@images_std@media@modules@UModSys@@UBEPBUIRoot@core@5@PBUSUniquePointerInfo@75@@Z 1000bd00 f i umodsys_lib_libmedia:umodsys.mod.media.images_std.obj
 0001:0000ad00       ?root_get_other_interface@RGenerator@images_std@media@modules@UModSys@@UAEPAUIRoot@core@5@PBUSUniquePointerInfo@75@@Z 1000bd00 f i umodsys_lib_libmedia:umodsys.mod.media.images_std.obj
 0001:0000ad40       ?root_is_interface_supported@RGenerator@images_std@media@modules@UModSys@@UBE_NPBUSUniquePointerInfo@core@5@@Z 1000bd40 f i umodsys_lib_libmedia:umodsys.mod.media.images_std.obj
 0001:0000ad80       ?get_uid@RGenerator@images_std@media@modules@UModSys@@UBEPBUSUniquePointerInfo@core@5@XZ 1000bd80 f i umodsys_lib_libmedia:umodsys.mod.media.images_std.obj
 0001:0000ad90       ?do_open@RModuleReg@images_std@media@modules@UModSys@@UAE_NXZ 1000bd90 f i umodsys_lib_libmedia:umodsys.mod.media.images_std.obj
 0001:0000ada0       ?do_close@RModuleReg@images_std@media@modules@UModSys@@UAE_NXZ 1000bda0 f i umodsys_lib_libmedia:umodsys.mod.media.images_std.obj
 0001:0000adb0       ??_GRModuleReg@images_std@media@modules@UModSys@@UAEPAXI@Z 1000bdb0 f i umodsys_lib_libmedia:umodsys.mod.media.images_std.obj
 0001:0000adb0       ??_ERModuleReg@images_std@media@modules@UModSys@@UAEPAXI@Z 1000bdb0 f i  CIL library: CIL module
 0001:0000ade0       ??$t_gen_param@URMediaFilter@images_std@media@modules@UModSys@@URGenerator@2345@@IGenerator@base@UModSys@@IAE_NPAURGenerator@images_std@media@modules@2@AAU?$TRefObject@UIRefObject@core@UModSys@@U?$TRefObjectFunc@UIRefObject@core@UModSys@@@tl@3@@tl@2@PBUSUniquePointerInfo@core@2@ABUSParameters@core@2@@Z 1000bde0 f i umodsys_lib_libmedia:umodsys.mod.media.images_std.obj
 0001:0000ae50       ?init_escapes@serialize_json@media@modules@UModSys@@YAXXZ 1000be50 f i umodsys_lib_libmedia:umodsys.mod.media.serialize_json.obj
 0001:0000af50       ?root_get_interface_info@RSerializeReader@serialize_json@media@modules@UModSys@@UBEABUSUniquePointerInfo@core@5@XZ 1000bf50 f i umodsys_lib_libmedia:umodsys.mod.media.serialize_json.obj
 0001:0000af60       ?root_get_interface_type@RSerializeReader@serialize_json@media@modules@UModSys@@UBEPBUSUniquePointerInfo@core@5@XZ 1000bf60 f i umodsys_lib_libmedia:umodsys.mod.media.serialize_json.obj
 0001:0000af70       ?root_get_other_interface@RSerializeReader@serialize_json@media@modules@UModSys@@UAEPAUIRoot@core@5@PBUSUniquePointerInfo@75@@Z 1000bf70 f i umodsys_lib_libmedia:umodsys.mod.media.serialize_json.obj
 0001:0000af70       ?root_get_other_interface@RSerializeReader@serialize_json@media@modules@UModSys@@UBEPBUIRoot@core@5@PBUSUniquePointerInfo@75@@Z 1000bf70 f i umodsys_lib_libmedia:umodsys.mod.media.serialize_json.obj
 0001:0000afa0       ?root_is_interface_supported@RSerializeReader@serialize_json@media@modules@UModSys@@UBE_NPBUSUniquePointerInfo@core@5@@Z 1000bfa0 f i umodsys_lib_libmedia:umodsys.mod.media.serialize_json.obj
 0001:0000afe0       ?reader_lasterror@RSerializeReader@serialize_json@media@modules@UModSys@@UBEPBDXZ 1000bfe0 f i umodsys_lib_libmedia:umodsys.mod.media.serialize_json.obj
 0001:0000aff0       ?reader_parse@RSerializeReader@serialize_json@media@modules@UModSys@@UAE_NPAUISerializeParser@libmedia@5@@Z 1000bff0 f i umodsys_lib_libmedia:umodsys.mod.media.serialize_json.obj
 0001:0000b880       ?uni@RSerializeReader@serialize_json@media@modules@UModSys@@IAE_NHAAH@Z 1000c880 f i umodsys_lib_libmedia:umodsys.mod.media.serialize_json.obj
 0001:0000b930       ?emit@RSerializeReader@serialize_json@media@modules@UModSys@@IAE_NPAUISerializeParser@libmedia@5@PAUNode@12345@_N@Z 1000c930 f i umodsys_lib_libmedia:umodsys.mod.media.serialize_json.obj
 0001:0000bcd0       ??0RSerializeReader@serialize_json@media@modules@UModSys@@QAE@PAUIModObject@base@4@ABUSParameters@core@4@@Z 1000ccd0 f i umodsys_lib_libmedia:umodsys.mod.media.serialize_json.obj
 0001:0000bde0       ??1RSerializeReader@serialize_json@media@modules@UModSys@@UAE@XZ 1000cde0 f i umodsys_lib_libmedia:umodsys.mod.media.serialize_json.obj
 0001:0000be60       ??_GRSerializeReader@serialize_json@media@modules@UModSys@@UAEPAXI@Z 1000ce60 f i umodsys_lib_libmedia:umodsys.mod.media.serialize_json.obj
 0001:0000be60       ??_ERSerializeReader@serialize_json@media@modules@UModSys@@UAEPAXI@Z 1000ce60 f i  CIL library: CIL module
 0001:0000be80       ?root_get_interface_info@RSerializeWriter@serialize_json@media@modules@UModSys@@UBEABUSUniquePointerInfo@core@5@XZ 1000ce80 f i umodsys_lib_libmedia:umodsys.mod.media.serialize_json.obj
 0001:0000be90       ?root_get_interface_type@RSerializeWriter@serialize_json@media@modules@UModSys@@UBEPBUSUniquePointerInfo@core@5@XZ 1000ce90 f i umodsys_lib_libmedia:umodsys.mod.media.serialize_json.obj
 0001:0000bea0       ?root_get_other_interface@RSerializeWriter@serialize_json@media@modules@UModSys@@UBEPBUIRoot@core@5@PBUSUniquePointerInfo@75@@Z 1000cea0 f i umodsys_lib_libmedia:umodsys.mod.media.serialize_json.obj
 0001:0000bea0       ?root_get_other_interface@RSerializeWriter@serialize_json@media@modules@UModSys@@UAEPAUIRoot@core@5@PBUSUniquePointerInfo@75@@Z 1000cea0 f i umodsys_lib_libmedia:umodsys.mod.media.serialize_json.obj
 0001:0000bed0       ?root_is_interface_supported@RSerializeWriter@serialize_json@media@modules@UModSys@@UBE_NPBUSUniquePointerInfo@core@5@@Z 1000ced0 f i umodsys_lib_libmedia:umodsys.mod.media.serialize_json.obj
 0001:0000bf10       ?ref_remove@RVisualSceneMapper_Direct@stdlib@lib3d@modules@UModSys@@UBEXXZ 1000cf10 f i umodsys_lib_lib3d:umodsys.mod.3d.stdlib.obj
 0001:0000bf10       ?ref_remove@RSerializeWriter@serialize_json@media@modules@UModSys@@UBEXXZ 1000cf10 f i umodsys_lib_libmedia:umodsys.mod.media.serialize_json.obj
 0001:0000bf10       ?ref_remove@RRenderer@stdlib@lib3d@modules@UModSys@@UBEXXZ 1000cf10 f i umodsys_lib_lib3d:umodsys.mod.3d.stdlib.obj
 0001:0000bf20       ?writer_lasterror@RSerializeWriter@serialize_json@media@modules@UModSys@@UBEPBDXZ 1000cf20 f i umodsys_lib_libmedia:umodsys.mod.media.serialize_json.obj
 0001:0000bf30       ?put_value@RSerializeWriter@serialize_json@media@modules@UModSys@@UAE_NABU?$TString@U?$TSCoreConst@D@su@tl@UModSys@@U?$TComparerBinaryHash@D@234@@tl@5@ABUSSerializeValue@libmedia@5@H@Z 1000cf30 f i umodsys_lib_libmedia:umodsys.mod.media.serialize_json.obj
 0001:0000c2c0       ?put_key@RSerializeWriter@serialize_json@media@modules@UModSys@@UAE_NABU?$TString@U?$TSCoreConst@D@su@tl@UModSys@@U?$TComparerBinaryHash@D@234@@tl@5@ABUSSerializeValue@libmedia@5@H@Z 1000d2c0 f i umodsys_lib_libmedia:umodsys.mod.media.serialize_json.obj
 0001:0000c380       ?put_begin@RSerializeWriter@serialize_json@media@modules@UModSys@@UAE_NABU?$TString@U?$TSCoreConst@D@su@tl@UModSys@@U?$TComparerBinaryHash@D@234@@tl@5@W4eType@SSerializeValue@libmedia@5@H@Z 1000d380 f i umodsys_lib_libmedia:umodsys.mod.media.serialize_json.obj
 0001:0000c4b0       ?put_end@RSerializeWriter@serialize_json@media@modules@UModSys@@UAE_NXZ 1000d4b0 f i umodsys_lib_libmedia:umodsys.mod.media.serialize_json.obj
 0001:0000c570       ?write_s@RSerializeWriter@serialize_json@media@modules@UModSys@@IAE_NABUStr@SSerializeValue@libmedia@5@@Z 1000d570 f i umodsys_lib_libmedia:umodsys.mod.media.serialize_json.obj
 0001:0000c630       ?skip@RSerializeWriter@serialize_json@media@modules@UModSys@@IAE_NH@Z 1000d630 f i umodsys_lib_libmedia:umodsys.mod.media.serialize_json.obj
 0001:0000c690       ?delim@RSerializeWriter@serialize_json@media@modules@UModSys@@IAE_NAAUNode@12345@H@Z 1000d690 f i umodsys_lib_libmedia:umodsys.mod.media.serialize_json.obj
 0001:0000c6d0       ?writef@RSerializeWriter@serialize_json@media@modules@UModSys@@IAA_NPBDZZ 1000d6d0 f i umodsys_lib_libmedia:umodsys.mod.media.serialize_json.obj
 0001:0000c730       ??0RSerializeWriter@serialize_json@media@modules@UModSys@@QAE@PAUIModObject@base@4@ABUSParameters@core@4@@Z 1000d730 f i umodsys_lib_libmedia:umodsys.mod.media.serialize_json.obj
 0001:0000c850       ??1RSerializeWriter@serialize_json@media@modules@UModSys@@UAE@XZ 1000d850 f i umodsys_lib_libmedia:umodsys.mod.media.serialize_json.obj
 0001:0000c930       ??_ERSerializeWriter@serialize_json@media@modules@UModSys@@UAEPAXI@Z 1000d930 f i  CIL library: CIL module
 0001:0000c930       ??_GRSerializeWriter@serialize_json@media@modules@UModSys@@UAEPAXI@Z 1000d930 f i umodsys_lib_libmedia:umodsys.mod.media.serialize_json.obj
 0001:0000c950       ?get_generated_names@RGenerator@serialize_json@media@modules@UModSys@@UBEHAAUSUniquePtrList@core@5@@Z 1000d950 f i umodsys_lib_libmedia:umodsys.mod.media.serialize_json.obj
 0001:0000c980       ?get_generated_types@RGenerator@serialize_json@media@modules@UModSys@@UBEHAAUSUniquePtrList@core@5@PBUSUniquePointerInfo@75@@Z 1000d980 f i umodsys_lib_libmedia:umodsys.mod.media.serialize_json.obj
 0001:0000c9f0       ?generate@RGenerator@serialize_json@media@modules@UModSys@@UAE_NAAU?$TRefObject@UIRefObject@core@UModSys@@U?$TRefObjectFunc@UIRefObject@core@UModSys@@@tl@3@@tl@5@PBUSUniquePointerInfo@core@5@ABUSParameters@95@@Z 1000d9f0 f i umodsys_lib_libmedia:umodsys.mod.media.serialize_json.obj
 0001:0000ca50       ?root_get_interface_info@RGenerator@serialize_json@media@modules@UModSys@@UBEABUSUniquePointerInfo@core@5@XZ 1000da50 f i umodsys_lib_libmedia:umodsys.mod.media.serialize_json.obj
 0001:0000ca60       ?root_get_interface_type@RGenerator@serialize_json@media@modules@UModSys@@UBEPBUSUniquePointerInfo@core@5@XZ 1000da60 f i umodsys_lib_libmedia:umodsys.mod.media.serialize_json.obj
 0001:0000ca70       ?root_get_other_interface@RGenerator@serialize_json@media@modules@UModSys@@UAEPAUIRoot@core@5@PBUSUniquePointerInfo@75@@Z 1000da70 f i umodsys_lib_libmedia:umodsys.mod.media.serialize_json.obj
 0001:0000ca70       ?root_get_other_interface@RGenerator@serialize_json@media@modules@UModSys@@UBEPBUIRoot@core@5@PBUSUniquePointerInfo@75@@Z 1000da70 f i umodsys_lib_libmedia:umodsys.mod.media.serialize_json.obj
 0001:0000cab0       ?root_is_interface_supported@RGenerator@serialize_json@media@modules@UModSys@@UBE_NPBUSUniquePointerInfo@core@5@@Z 1000dab0 f i umodsys_lib_libmedia:umodsys.mod.media.serialize_json.obj
 0001:0000caf0       ?get_uid@RGenerator@serialize_json@media@modules@UModSys@@UBEPBUSUniquePointerInfo@core@5@XZ 1000daf0 f i umodsys_lib_libmedia:umodsys.mod.media.serialize_json.obj
 0001:0000cb00       ?do_open@RModuleReg@serialize_json@media@modules@UModSys@@UAE_NXZ 1000db00 f i umodsys_lib_libmedia:umodsys.mod.media.serialize_json.obj
 0001:0000cb10       ?do_close@RModuleReg@serialize_json@media@modules@UModSys@@UAE_NXZ 1000db10 f i umodsys_lib_libmedia:umodsys.mod.media.serialize_json.obj
 0001:0000cb20       ??_ERModuleReg@serialize_json@media@modules@UModSys@@UAEPAXI@Z 1000db20 f i  CIL library: CIL module
 0001:0000cb20       ??_GRModuleReg@serialize_json@media@modules@UModSys@@UAEPAXI@Z 1000db20 f i umodsys_lib_libmedia:umodsys.mod.media.serialize_json.obj
 0001:0000cb50       ??1?$TTextStreamReaderBuf@D$0BAAA@@libmedia@UModSys@@QAE@XZ 1000db50 f i umodsys_lib_libmedia:umodsys.mod.media.serialize_json.obj
 0001:0000cb70       ??1?$TDynarrayDynamic@DU?$TAllocator@USIMemAlloc@core@UModSys@@USCountCalcPower2@23@@tl@UModSys@@@tl@UModSys@@QAE@XZ 1000db70 f i umodsys_lib_libmedia:umodsys.mod.media.serialize_json.obj
 0001:0000cba0       ?Clear@?$TDynarray@U?$TDynarrayHolderDynamic@DU?$TAllocator@USIMemAlloc@core@UModSys@@USCountCalcPower2@23@@tl@UModSys@@@tl@UModSys@@@tl@UModSys@@QAE_NXZ 1000dba0 f i umodsys_lib_libmedia:umodsys.mod.media.serialize_json.obj
 0001:0000cbe0       ??1?$TDynarrayDynamic@UNode@RSerializeReader@serialize_json@media@modules@UModSys@@U?$TAllocator@USIMemAlloc@core@UModSys@@USCountCalcPower2@23@@tl@6@@tl@UModSys@@QAE@XZ 1000dbe0 f i umodsys_lib_libmedia:umodsys.mod.media.serialize_json.obj
 0001:0000cc30       ??1?$TDynarrayDynamic@UNode@RSerializeWriter@serialize_json@media@modules@UModSys@@U?$TAllocator@USIMemAlloc@core@UModSys@@USCountCalcPower2@23@@tl@6@@tl@UModSys@@QAE@XZ 1000dc30 f i umodsys_lib_libmedia:umodsys.mod.media.serialize_json.obj
 0001:0000cc60       ??1?$TTextStreamWriterBuf@D$0BAAA@@libmedia@UModSys@@QAE@XZ 1000dc60 f i umodsys_lib_libmedia:umodsys.mod.media.serialize_json.obj
 0001:0000cc70       ?put_z@?$TTextStreamWriter@D@libmedia@UModSys@@QAE_NPBD@Z 1000dc70 f i umodsys_lib_libmedia:umodsys.mod.media.serialize_json.obj
 0001:0000ccb0       ?check@?$TTextStreamReader@D@libmedia@UModSys@@IAE_NI@Z 1000dcb0 f i umodsys_lib_libmedia:umodsys.mod.media.serialize_json.obj
 0001:0000cd60       ??1?$TTextStreamWriter@D@libmedia@UModSys@@QAE@XZ 1000dd60 f i umodsys_lib_libmedia:umodsys.mod.media.serialize_json.obj
 0001:0000cde0       ?put_chars@?$TTextStreamWriter@D@libmedia@UModSys@@QAE_NPBDI@Z 1000dde0 f i umodsys_lib_libmedia:umodsys.mod.media.serialize_json.obj
 0001:0000ce70       ?Free@?$TDynarray@U?$TDynarrayHolderDynamic@DU?$TAllocator@USIMemAlloc@core@UModSys@@USCountCalcPower2@23@@tl@UModSys@@@tl@UModSys@@@tl@UModSys@@QAE_NXZ 1000de70 f i umodsys_lib_libmedia:umodsys.mod.media.serialize_json.obj
 0001:0000ced0       ?Free@?$TDynarray@U?$TDynarrayHolderDynamic@UNode@RSerializeWriter@serialize_json@media@modules@UModSys@@U?$TAllocator@USIMemAlloc@core@UModSys@@USCountCalcPower2@23@@tl@6@@tl@UModSys@@@tl@UModSys@@QAE_NXZ 1000ded0 f i umodsys_lib_libmedia:umodsys.mod.media.serialize_json.obj
 0001:0000cf40       ?Resize@?$TDynarray@U?$TDynarrayHolderDynamic@UNode@RSerializeReader@serialize_json@media@modules@UModSys@@U?$TAllocator@USIMemAlloc@core@UModSys@@USCountCalcPower2@23@@tl@6@@tl@UModSys@@@tl@UModSys@@QAE_NI@Z 1000df40 f i umodsys_lib_libmedia:umodsys.mod.media.serialize_json.obj
 0001:0000cfb0       ?Push@?$TDynarray@U?$TDynarrayHolderDynamic@DU?$TAllocator@USIMemAlloc@core@UModSys@@USCountCalcPower2@23@@tl@UModSys@@@tl@UModSys@@@tl@UModSys@@QAE_NABD@Z 1000dfb0 f i umodsys_lib_libmedia:umodsys.mod.media.serialize_json.obj
 0001:0000d020       ?Reserve@?$TDynarray@U?$TDynarrayHolderDynamic@DU?$TAllocator@USIMemAlloc@core@UModSys@@USCountCalcPower2@23@@tl@UModSys@@@tl@UModSys@@@tl@UModSys@@QAE_NI@Z 1000e020 f i umodsys_lib_libmedia:umodsys.mod.media.serialize_json.obj
 0001:0000d070       ?Push@?$TDynarray@U?$TDynarrayHolderDynamic@UNode@RSerializeReader@serialize_json@media@modules@UModSys@@U?$TAllocator@USIMemAlloc@core@UModSys@@USCountCalcPower2@23@@tl@6@@tl@UModSys@@@tl@UModSys@@QAE_NABUNode@RSerializeReader@serialize_json@media@modules@3@@Z 1000e070 f i umodsys_lib_libmedia:umodsys.mod.media.serialize_json.obj
 0001:0000d0b0       ?Push@?$TDynarray@U?$TDynarrayHolderDynamic@UNode@RSerializeWriter@serialize_json@media@modules@UModSys@@U?$TAllocator@USIMemAlloc@core@UModSys@@USCountCalcPower2@23@@tl@6@@tl@UModSys@@@tl@UModSys@@QAE_NABUNode@RSerializeWriter@serialize_json@media@modules@3@@Z 1000e0b0 f i umodsys_lib_libmedia:umodsys.mod.media.serialize_json.obj
 0001:0000d110       ??$t_gen_param@URSerializeReader@serialize_json@media@modules@UModSys@@URGenerator@2345@@IGenerator@base@UModSys@@IAE_NPAURGenerator@serialize_json@media@modules@2@AAU?$TRefObject@UIRefObject@core@UModSys@@U?$TRefObjectFunc@UIRefObject@core@UModSys@@@tl@3@@tl@2@PBUSUniquePointerInfo@core@2@ABUSParameters@core@2@@Z 1000e110 f i umodsys_lib_libmedia:umodsys.mod.media.serialize_json.obj
 0001:0000d190       ??$t_gen_param@URSerializeWriter@serialize_json@media@modules@UModSys@@URGenerator@2345@@IGenerator@base@UModSys@@IAE_NPAURGenerator@serialize_json@media@modules@2@AAU?$TRefObject@UIRefObject@core@UModSys@@U?$TRefObjectFunc@UIRefObject@core@UModSys@@@tl@3@@tl@2@PBUSUniquePointerInfo@core@2@ABUSParameters@core@2@@Z 1000e190 f i umodsys_lib_libmedia:umodsys.mod.media.serialize_json.obj
 0001:0000d210       ??$smemmove@D@su@tl@UModSys@@YAXPADPBDI@Z 1000e210 f i umodsys_lib_libmedia:umodsys.mod.media.serialize_json.obj
 0001:0000d220       ?ReLink@?$TDynarray@U?$TDynarrayHolderDynamic@DU?$TAllocator@USIMemAlloc@core@UModSys@@USCountCalcPower2@23@@tl@UModSys@@@tl@UModSys@@@tl@UModSys@@IAE_NI@Z 1000e220 f i umodsys_lib_libmedia:umodsys.mod.media.serialize_json.obj
 0001:0000d260       ?ReLink@?$TDynarray@U?$TDynarrayHolderDynamic@UNode@RSerializeWriter@serialize_json@media@modules@UModSys@@U?$TAllocator@USIMemAlloc@core@UModSys@@USCountCalcPower2@23@@tl@6@@tl@UModSys@@@tl@UModSys@@IAE_NI@Z 1000e260 f i umodsys_lib_libmedia:umodsys.mod.media.serialize_json.obj
 0001:0000d260       ?ReLink@?$TDynarray@U?$TDynarrayHolderDynamic@USImageCellInfo@lib2d@UModSys@@U?$TAllocator@USIMemAlloc@core@UModSys@@USCountCalcPower2@23@@tl@3@@tl@UModSys@@@tl@UModSys@@IAE_NI@Z 1000e260 f i umodsys_lib_lib2d:umodsys.mod.2d.stdlib.obj
 0001:0000d2b0       ?items_construct@?$TDynarray@U?$TDynarrayHolderDynamic@UNode@RSerializeWriter@serialize_json@media@modules@UModSys@@U?$TAllocator@USIMemAlloc@core@UModSys@@USCountCalcPower2@23@@tl@6@@tl@UModSys@@@tl@UModSys@@IAEXII@Z 1000e2b0 f i umodsys_lib_libmedia:umodsys.mod.media.serialize_json.obj
 0001:0000d2f0       ??$ValidateConstruction@UIRefObject@core@UModSys@@URSerializeReader@serialize_json@media@modules@3@@core@UModSys@@YA_NAAU?$TRefObject@UIRefObject@core@UModSys@@U?$TRefObjectFunc@UIRefObject@core@UModSys@@@tl@3@@tl@1@PAURSerializeReader@serialize_json@media@modules@1@@Z 1000e2f0 f i umodsys_lib_libmedia:umodsys.mod.media.serialize_json.obj
 0001:0000d380       ??$ValidateConstruction@UIRefObject@core@UModSys@@URSerializeWriter@serialize_json@media@modules@3@@core@UModSys@@YA_NAAU?$TRefObject@UIRefObject@core@UModSys@@U?$TRefObjectFunc@UIRefObject@core@UModSys@@@tl@3@@tl@1@PAURSerializeWriter@serialize_json@media@modules@1@@Z 1000e380 f i umodsys_lib_libmedia:umodsys.mod.media.serialize_json.obj
 0001:0000d410       ??1SBuffer@libmedia@UModSys@@QAE@XZ 1000e410 f i umodsys_lib_libmedia:umodsys.mod.media.zlib.obj
 0001:0000d480       ??0SBuffer@libmedia@UModSys@@QAE@PAUIUtilities@12@@Z 1000e480 f i umodsys_lib_libmedia:umodsys.mod.media.zlib.obj
 0001:0000d4b0       ?get@Holder@fileFilePrefix@zlib@media@modules@UModSys@@QAEXXZ 1000e4b0 f i umodsys_lib_libmedia:umodsys.mod.media.zlib.obj
 0001:0000d500       ?set@Holder@fileFilePrefix@zlib@media@modules@UModSys@@QAEXXZ 1000e500 f i umodsys_lib_libmedia:umodsys.mod.media.zlib.obj
 0001:0000d550       ?root_get_interface_info@RBinArchiveFrameClient_ZIP@zlib@media@modules@UModSys@@UBEABUSUniquePointerInfo@core@5@XZ 1000e550 f i umodsys_lib_libmedia:umodsys.mod.media.zlib.obj
 0001:0000d560       ?root_get_interface_type@RBinArchiveFrameClient_ZIP@zlib@media@modules@UModSys@@UBEPBUSUniquePointerInfo@core@5@XZ 1000e560 f i umodsys_lib_libmedia:umodsys.mod.media.zlib.obj
 0001:0000d570       ?root_get_other_interface@RBinArchiveFrameClient_ZIP@zlib@media@modules@UModSys@@UBEPBUIRoot@core@5@PBUSUniquePointerInfo@75@@Z 1000e570 f i umodsys_lib_libmedia:umodsys.mod.media.zlib.obj
 0001:0000d570       ?root_get_other_interface@RBinArchiveFrameClient_ZIP@zlib@media@modules@UModSys@@UAEPAUIRoot@core@5@PBUSUniquePointerInfo@75@@Z 1000e570 f i umodsys_lib_libmedia:umodsys.mod.media.zlib.obj
 0001:0000d5a0       ?root_is_interface_supported@RBinArchiveFrameClient_ZIP@zlib@media@modules@UModSys@@UBE_NPBUSUniquePointerInfo@core@5@@Z 1000e5a0 f i umodsys_lib_libmedia:umodsys.mod.media.zlib.obj
 0001:0000d5e0       ?ref_weak@RGenerator@images_std@media@modules@UModSys@@UBE_NAAUWeakPointer@IRefObject@core@5@@Z 1000e5e0 f i umodsys_lib_libmedia:umodsys.mod.media.images_std.obj
 0001:0000d5e0       ?ref_weak@RImageFactory_Memory@stdlib@lib2d@modules@UModSys@@UBE_NAAUWeakPointer@IRefObject@core@5@@Z 1000e5e0 f i umodsys_lib_lib2d:umodsys.mod.2d.stdlib.obj
 0001:0000d5e0       ?ref_weak@RDialog@frames@ui@modules@UModSys@@UBE_NAAUWeakPointer@IRefObject@core@5@@Z 1000e5e0 f i umodsys_lib_libui:umodsys.mod.ui.frames.obj
 0001:0000d5e0       ?ref_weak@RSerializeReader@serialize_json@media@modules@UModSys@@UBE_NAAUWeakPointer@IRefObject@core@5@@Z 1000e5e0 f i umodsys_lib_libmedia:umodsys.mod.media.serialize_json.obj
 0001:0000d5e0       ?ref_weak@RGenerator@test1@test@modules@UModSys@@UBE_NAAUWeakPointer@IRefObject@core@5@@Z 1000e5e0 f i plugin_test1.obj
 0001:0000d5e0       ?ref_weak@RVertexArray@SDL_GL@ui@modules@UModSys@@UBE_NAAUWeakPointer@IRefObject@core@5@@Z 1000e5e0 f i umodsys_lib_libui:umodsys.mod.ui.SDL_GL.obj
 0001:0000d5e0       ?ref_weak@RImage_Memory@stdlib@lib2d@modules@UModSys@@UBE_NAAUWeakPointer@IRefObject@core@5@@Z 1000e5e0 f i umodsys_lib_lib2d:umodsys.mod.2d.stdlib.obj
 0001:0000d5e0       ?ref_weak@RVisualizerScene@stdlib@lib3d@modules@UModSys@@UBE_NAAUWeakPointer@IRefObject@core@5@@Z 1000e5e0 f i umodsys_lib_lib3d:umodsys.mod.3d.stdlib.obj
 0001:0000d5e0       ?ref_weak@RGeneral@object_primitive@stdlib@lib3d@modules@UModSys@@UBE_NAAUWeakPointer@IRefObject@core@6@@Z 1000e5e0 f i umodsys_lib_lib3d:umodsys.mod.3d.stdlib.obj
 0001:0000d5e0       ?ref_weak@RGenerator@serialize_json@media@modules@UModSys@@UBE_NAAUWeakPointer@IRefObject@core@5@@Z 1000e5e0 f i umodsys_lib_libmedia:umodsys.mod.media.serialize_json.obj
 0001:0000d5e0       ?ref_weak@RMultiImage2D_SDL_ttf@SDL_GL@ui@modules@UModSys@@UBE_NAAUWeakPointer@IRefObject@core@5@@Z 1000e5e0 f i umodsys_lib_libui:umodsys.mod.ui.SDL_GL.obj
 0001:0000d5e0       ?ref_weak@RGenerator@frames@ui@modules@UModSys@@UBE_NAAUWeakPointer@IRefObject@core@5@@Z 1000e5e0 f i umodsys_lib_libui:umodsys.mod.ui.frames.obj
 0001:0000d5e0       ?ref_weak@RMultiImage@stdlib@lib2d@modules@UModSys@@UBE_NAAUWeakPointer@IRefObject@core@5@@Z 1000e5e0 f i umodsys_lib_lib2d:umodsys.mod.2d.stdlib.obj
 0001:0000d5e0       ?ref_weak@RTerminal@SDL_core@ui@modules@UModSys@@UBE_NAAUWeakPointer@IRefObject@core@5@@Z 1000e5e0 f i umodsys_lib_libui:umodsys.mod.ui.SDL_core.obj
 0001:0000d5e0       ?ref_weak@RMultiImage2D_SDL_ttf@SDL_core@ui@modules@UModSys@@UBE_NAAUWeakPointer@IRefObject@core@5@@Z 1000e5e0 f i umodsys_lib_libui:umodsys.mod.ui.SDL_core.obj
 0001:0000d5e0       ?ref_weak@RGenerator@zlib@media@modules@UModSys@@UBE_NAAUWeakPointer@IRefObject@core@5@@Z 1000e5e0 f i umodsys_lib_libmedia:umodsys.mod.media.zlib.obj
 0001:0000d5e0       ?ref_weak@RTerminal@SDL_GL@ui@modules@UModSys@@UBE_NAAUWeakPointer@IRefObject@core@5@@Z 1000e5e0 f i umodsys_lib_libui:umodsys.mod.ui.SDL_GL.obj
 0001:0000d5e0       ?ref_weak@RGeneral@object_camera@stdlib@lib3d@modules@UModSys@@UBE_NAAUWeakPointer@IRefObject@core@6@@Z 1000e5e0 f i umodsys_lib_lib3d:umodsys.mod.3d.stdlib.obj
 0001:0000d5e0       ?ref_weak@RGenerator@SDL_GL@ui@modules@UModSys@@UBE_NAAUWeakPointer@IRefObject@core@5@@Z 1000e5e0 f i umodsys_lib_libui:umodsys.mod.ui.SDL_GL.obj
 0001:0000d5e0       ?ref_weak@RBinArchiveFrameClient_ZIP@zlib@media@modules@UModSys@@UBE_NAAUWeakPointer@IRefObject@core@5@@Z 1000e5e0 f i umodsys_lib_libmedia:umodsys.mod.media.zlib.obj
 0001:0000d5e0       ?ref_weak@RGenerator@SDL_core@ui@modules@UModSys@@UBE_NAAUWeakPointer@IRefObject@core@5@@Z 1000e5e0 f i umodsys_lib_libui:umodsys.mod.ui.SDL_core.obj
 0001:0000d5e0       ?ref_weak@RGenerator@stdlib@lib2d@modules@UModSys@@UBE_NAAUWeakPointer@IRefObject@core@5@@Z 1000e5e0 f i umodsys_lib_lib2d:umodsys.mod.2d.stdlib.obj
 0001:0000d5e0       ?ref_weak@RGenerator@stdlib@lib3d@modules@UModSys@@UBE_NAAUWeakPointer@IRefObject@core@5@@Z 1000e5e0 f i umodsys_lib_lib3d:umodsys.mod.3d.stdlib.obj
 0001:0000d5e0       ?ref_weak@RTextureGL@SDL_GL@ui@modules@UModSys@@UBE_NAAUWeakPointer@IRefObject@core@5@@Z 1000e5e0 f i umodsys_lib_libui:umodsys.mod.ui.SDL_GL.obj
 0001:0000d600       ??0RBinArchiveFrameClient_ZIP@zlib@media@modules@UModSys@@QAE@PAUIModObject@base@4@ABUSParameters@core@4@@Z 1000e600 f i umodsys_lib_libmedia:umodsys.mod.media.zlib.obj
 0001:0000d670       ??_ERBinArchiveFrameClient_ZIP@zlib@media@modules@UModSys@@UAEPAXI@Z 1000e670 f i  CIL library: CIL module
 0001:0000d670       ??_GRBinArchiveFrameClient_ZIP@zlib@media@modules@UModSys@@UAEPAXI@Z 1000e670 f i umodsys_lib_libmedia:umodsys.mod.media.zlib.obj
 0001:0000d6a0       ?get_generated_names@RGenerator@zlib@media@modules@UModSys@@UBEHAAUSUniquePtrList@core@5@@Z 1000e6a0 f i umodsys_lib_libmedia:umodsys.mod.media.zlib.obj
 0001:0000d6c0       ?get_generated_types@RGenerator@zlib@media@modules@UModSys@@UBEHAAUSUniquePtrList@core@5@PBUSUniquePointerInfo@75@@Z 1000e6c0 f i umodsys_lib_libmedia:umodsys.mod.media.zlib.obj
 0001:0000d710       ?generate@RGenerator@zlib@media@modules@UModSys@@UAE_NAAU?$TRefObject@UIRefObject@core@UModSys@@U?$TRefObjectFunc@UIRefObject@core@UModSys@@@tl@3@@tl@5@PBUSUniquePointerInfo@core@5@ABUSParameters@95@@Z 1000e710 f i umodsys_lib_libmedia:umodsys.mod.media.zlib.obj
 0001:0000d740       ?root_get_interface_info@RGenerator@zlib@media@modules@UModSys@@UBEABUSUniquePointerInfo@core@5@XZ 1000e740 f i umodsys_lib_libmedia:umodsys.mod.media.zlib.obj
 0001:0000d750       ?root_get_interface_type@RGenerator@zlib@media@modules@UModSys@@UBEPBUSUniquePointerInfo@core@5@XZ 1000e750 f i umodsys_lib_libmedia:umodsys.mod.media.zlib.obj
 0001:0000d760       ?root_get_other_interface@RGenerator@zlib@media@modules@UModSys@@UAEPAUIRoot@core@5@PBUSUniquePointerInfo@75@@Z 1000e760 f i umodsys_lib_libmedia:umodsys.mod.media.zlib.obj
 0001:0000d760       ?root_get_other_interface@RGenerator@zlib@media@modules@UModSys@@UBEPBUIRoot@core@5@PBUSUniquePointerInfo@75@@Z 1000e760 f i umodsys_lib_libmedia:umodsys.mod.media.zlib.obj
 0001:0000d7a0       ?root_is_interface_supported@RGenerator@zlib@media@modules@UModSys@@UBE_NPBUSUniquePointerInfo@core@5@@Z 1000e7a0 f i umodsys_lib_libmedia:umodsys.mod.media.zlib.obj
 0001:0000d7e0       ?get_uid@RGenerator@zlib@media@modules@UModSys@@UBEPBUSUniquePointerInfo@core@5@XZ 1000e7e0 f i umodsys_lib_libmedia:umodsys.mod.media.zlib.obj
 0001:0000d7f0       ?do_open@RModuleReg@zlib@media@modules@UModSys@@UAE_NXZ 1000e7f0 f i umodsys_lib_libmedia:umodsys.mod.media.zlib.obj
 0001:0000d800       ?do_close@RModuleReg@zlib@media@modules@UModSys@@UAE_NXZ 1000e800 f i umodsys_lib_libmedia:umodsys.mod.media.zlib.obj
 0001:0000d810       ??_ERModuleReg@zlib@media@modules@UModSys@@UAEPAXI@Z 1000e810 f i  CIL library: CIL module
 0001:0000d810       ??_GRModuleReg@zlib@media@modules@UModSys@@UAEPAXI@Z 1000e810 f i umodsys_lib_libmedia:umodsys.mod.media.zlib.obj
 0001:0000d840       ??$t_gen_param@URBinArchiveFrameClient_ZIP@zlib@media@modules@UModSys@@URGenerator@2345@@IGenerator@base@UModSys@@IAE_NPAURGenerator@zlib@media@modules@2@AAU?$TRefObject@UIRefObject@core@UModSys@@U?$TRefObjectFunc@UIRefObject@core@UModSys@@@tl@3@@tl@2@PBUSUniquePointerInfo@core@2@ABUSParameters@core@2@@Z 1000e840 f i umodsys_lib_libmedia:umodsys.mod.media.zlib.obj
 0001:0000d8c0       ??$ValidateConstruction@UIRefObject@core@UModSys@@URBinArchiveFrameClient_ZIP@zlib@media@modules@3@@core@UModSys@@YA_NAAU?$TRefObject@UIRefObject@core@UModSys@@U?$TRefObjectFunc@UIRefObject@core@UModSys@@@tl@3@@tl@1@PAURBinArchiveFrameClient_ZIP@zlib@media@modules@1@@Z 1000e8c0 f i umodsys_lib_libmedia:umodsys.mod.media.zlib.obj
 0001:0000d950       ??_GRModuleLibraryReg_Chain@base@UModSys@@UAEPAXI@Z 1000e950 f i umodsys_lib_base:umodsys.base.moduleregchain.obj
 0001:0000d950       ??_ERModuleLibraryReg_Chain@base@UModSys@@UAEPAXI@Z 1000e950 f i  CIL library: CIL module
 0001:0000d970       ??_EIModuleReg@base@UModSys@@UAEPAXI@Z 1000e970 f i  CIL library: CIL module
 0001:0000d970       ??_GIModuleReg@base@UModSys@@UAEPAXI@Z 1000e970 f i umodsys_lib_base:umodsys.base.modulereg.obj
 0001:0000d990       ??_GIModuleLibraryReg@base@UModSys@@UAEPAXI@Z 1000e990 f i umodsys_lib_base:umodsys.base.modulereg.obj
 0001:0000d990       ??_EIModuleLibraryReg@base@UModSys@@UAEPAXI@Z 1000e990 f i  CIL library: CIL module
 0001:0000d9b0       ?Find@?$TSet@U?$TArray@PBUSUniquePointerInfo@core@UModSys@@@tl@UModSys@@U?$TScalarCompare@PBUSUniquePointerInfo@core@UModSys@@@core@3@@tl@UModSys@@QBEPBQBUSUniquePointerInfo@core@3@ABQBU453@@Z 1000e9b0 f i umodsys_lib_core:umodsys.core.uniqueptrlist.obj
 0001:0000da3b       ?__ArrayUnwind@@YGXPAXIHP6EX0@Z@Z 1000ea3b f   MSVCRT:ehvecdtr.obj
 0001:0000da99       ??_M@YGXPAXIHP6EX0@Z@Z     1000ea99 f   MSVCRT:ehvecdtr.obj
 0001:0000dafc       __onexit                   1000eafc f   MSVCRT:atonexit.obj
 0001:0000dba1       _atexit                    1000eba1 f   MSVCRT:atonexit.obj
 0001:0000dbb8       ??_L@YGXPAXIHP6EX0@Z1@Z    1000ebb8 f   MSVCRT:ehvecctr.obj
 0001:0000dc1e       __purecall                 1000ec1e f   MSVCRT:MSVCR90.dll
 0001:0000dc24       ??3@YAXPAX@Z               1000ec24 f   MSVCRT:MSVCR90.dll
 0001:0000dc2a       ??_Etype_info@@UAEPAXI@Z   1000ec2a f i MSVCRT:ti_inst.obj
 0001:0000dcc5       __CRT_INIT@12              1000ecc5 f   MSVCRT:crtdll.obj
 0001:0000e001       __DllMainCRTStartup@12     1000f001 f   MSVCRT:crtdll.obj
 0001:0000e024       ??2@YAPAXI@Z               1000f024 f   MSVCRT:MSVCR90.dll
 0001:0000e02a       ?terminate@@YAXXZ          1000f02a f   MSVCRT:MSVCR90.dll
 0001:0000e030       __SEH_prolog4              1000f030 f   MSVCRT:sehprolg4.obj
 0001:0000e075       __SEH_epilog4              1000f075 f   MSVCRT:sehprolg4.obj
 0001:0000e089       __except_handler4          1000f089 f   MSVCRT:chandler4gs.obj
 0001:0000e0ae       __unlock                   1000f0ae f   MSVCRT:MSVCR90.dll
 0001:0000e0b4       ___dllonexit               1000f0b4 f   MSVCRT:MSVCR90.dll
 0001:0000e0ba       __lock                     1000f0ba f   MSVCRT:MSVCR90.dll
 0001:0000e0c0       ___clean_type_info_names   1000f0c0 f   MSVCRT:tncleanup.obj
 0001:0000e0cc       __RTC_Initialize           1000f0cc f   MSVCRT:_initsect_.obj
 0001:0000e0f2       __RTC_Terminate            1000f0f2 f   MSVCRT:_initsect_.obj
 0001:0000e120       __ValidateImageBase        1000f120 f   MSVCRT:pesect.obj
 0001:0000e160       __FindPESection            1000f160 f   MSVCRT:pesect.obj
 0001:0000e1b0       __IsNonwritableInCurrentImage 1000f1b0 f   MSVCRT:pesect.obj
 0001:0000e26e       __initterm                 1000f26e f   MSVCRT:MSVCR90.dll
 0001:0000e274       __initterm_e               1000f274 f   MSVCRT:MSVCR90.dll
 0001:0000e27a       __amsg_exit                1000f27a f   MSVCRT:MSVCR90.dll
 0001:0000e280       ___CppXcptFilter           1000f280 f   MSVCRT:MSVCR90.dll
 0001:0000e286       _DllMain@12                1000f286 f   MSVCRT:dllmain.obj
 0001:0000e2aa       ___security_init_cookie    1000f2aa f   MSVCRT:gs_support.obj
 0001:0000e340       @__security_check_cookie@4 1000f340 f   MSVCRT:secchk.obj
 0001:0000e350       __except_handler4_common   1000f350 f   MSVCRT:MSVCR90.dll
 0001:0000e356       ?_type_info_dtor_internal_method@type_info@@QAEXXZ 1000f356 f   MSVCRT:MSVCR90.dll
 0001:0000e356       ??1type_info@@UAE@XZ       1000f356 f   MSVCRT:MSVCR90.dll
 0001:0000e35c       ___clean_type_info_names_internal 1000f35c f   MSVCRT:MSVCR90.dll
 0001:0000e362       ___report_gsfailure        1000f362 f   MSVCRT:gs_report.obj
 0001:0000e468       __crt_debugger_hook        1000f468 f   MSVCRT:MSVCR90.dll
 0001:0000e46e       _crc32                     1000f46e f   lib_zlib:lib_zlib.dll
 0001:0000e474       _deflateEnd                1000f474 f   lib_zlib:lib_zlib.dll
 0001:0000e47a       _inflateInit2_             1000f47a f   lib_zlib:lib_zlib.dll
 0001:0000e480       _inflate                   1000f480 f   lib_zlib:lib_zlib.dll
 0001:0000e486       _inflateEnd                1000f486 f   lib_zlib:lib_zlib.dll
 0001:0000e48c       _deflate                   1000f48c f   lib_zlib:lib_zlib.dll
 0001:0000e492       _deflateInit2_             1000f492 f   lib_zlib:lib_zlib.dll
 0001:0000e498       _png_get_IHDR              1000f498 f   lib_libpng:lib_libpng.dll
 0001:0000e49e       _png_write_info            1000f49e f   lib_libpng:lib_libpng.dll
 0001:0000e4a4       _png_destroy_write_struct  1000f4a4 f   lib_libpng:lib_libpng.dll
 0001:0000e4aa       _png_set_write_fn          1000f4aa f   lib_libpng:lib_libpng.dll
 0001:0000e4b0       _png_read_info             1000f4b0 f   lib_libpng:lib_libpng.dll
 0001:0000e4b6       _png_sig_cmp               1000f4b6 f   lib_libpng:lib_libpng.dll
 0001:0000e4bc       _png_write_rows            1000f4bc f   lib_libpng:lib_libpng.dll
 0001:0000e4c2       _png_create_read_struct    1000f4c2 f   lib_libpng:lib_libpng.dll
 0001:0000e4c8       _png_write_end             1000f4c8 f   lib_libpng:lib_libpng.dll
 0001:0000e4ce       _png_get_io_ptr            1000f4ce f   lib_libpng:lib_libpng.dll
 0001:0000e4d4       _png_create_info_struct    1000f4d4 f   lib_libpng:lib_libpng.dll
 0001:0000e4da       _png_set_read_fn           1000f4da f   lib_libpng:lib_libpng.dll
 0001:0000e4e0       _png_read_update_info      1000f4e0 f   lib_libpng:lib_libpng.dll
 0001:0000e4e6       _png_set_sig_bytes         1000f4e6 f   lib_libpng:lib_libpng.dll
 0001:0000e4ec       _png_set_longjmp_fn        1000f4ec f   lib_libpng:lib_libpng.dll
 0001:0000e4f2       _png_create_write_struct   1000f4f2 f   lib_libpng:lib_libpng.dll
 0001:0000e4f8       _png_read_row              1000f4f8 f   lib_libpng:lib_libpng.dll
 0001:0000e4fe       _png_error                 1000f4fe f   lib_libpng:lib_libpng.dll
 0001:0000e504       _png_set_IHDR              1000f504 f   lib_libpng:lib_libpng.dll
 0001:0000e50a       _png_destroy_read_struct   1000f50a f   lib_libpng:lib_libpng.dll
 0001:0000e510       _SDL_StopTextInput         1000f510 f   lib_SDL2:lib_SDL2.dll
 0001:0000e516       _SDL_GL_ExtensionSupported 1000f516 f   lib_SDL2:lib_SDL2.dll
 0001:0000e51c       _SDL_Init                  1000f51c f   lib_SDL2:lib_SDL2.dll
 0001:0000e522       _SDL_DestroyWindow         1000f522 f   lib_SDL2:lib_SDL2.dll
 0001:0000e528       _TTF_GlyphMetrics          1000f528 f   lib_SDL2:lib_SDL2.dll
 0001:0000e52e       _SDL_GL_DeleteContext      1000f52e f   lib_SDL2:lib_SDL2.dll
 0001:0000e534       _SDL_GL_SwapWindow         1000f534 f   lib_SDL2:lib_SDL2.dll
 0001:0000e53a       _SDL_CreateWindow          1000f53a f   lib_SDL2:lib_SDL2.dll
 0001:0000e540       _SDL_ShowCursor            1000f540 f   lib_SDL2:lib_SDL2.dll
 0001:0000e546       _SDL_GL_MakeCurrent        1000f546 f   lib_SDL2:lib_SDL2.dll
 0001:0000e54c       _SDL_SetRelativeMouseMode  1000f54c f   lib_SDL2:lib_SDL2.dll
 0001:0000e552       _SDL_GL_CreateContext      1000f552 f   lib_SDL2:lib_SDL2.dll
 0001:0000e558       _TTF_OpenFont              1000f558 f   lib_SDL2:lib_SDL2.dll
 0001:0000e55e       _TTF_CloseFont             1000f55e f   lib_SDL2:lib_SDL2.dll
 0001:0000e564       _TTF_Init                  1000f564 f   lib_SDL2:lib_SDL2.dll
 0001:0000e56a       _SDL_PumpEvents            1000f56a f   lib_SDL2:lib_SDL2.dll
 0001:0000e570       _TTF_RenderGlyph_Shaded    1000f570 f   lib_SDL2:lib_SDL2.dll
 0001:0000e576       _SDL_Delay                 1000f576 f   lib_SDL2:lib_SDL2.dll
 0001:0000e57c       _SDL_GL_GetProcAddress     1000f57c f   lib_SDL2:lib_SDL2.dll
 0001:0000e582       _SDL_StartTextInput        1000f582 f   lib_SDL2:lib_SDL2.dll
 0001:0000e588       _SDL_PeepEvents            1000f588 f   lib_SDL2:lib_SDL2.dll
 0001:0000e58e       _SDL_GetTicks              1000f58e f   lib_SDL2:lib_SDL2.dll
 0001:0000e594       _SDL_GL_SetAttribute       1000f594 f   lib_SDL2:lib_SDL2.dll
 0001:0000e59a       _TTF_Quit                  1000f59a f   lib_SDL2:lib_SDL2.dll
 0001:0000e5a0       _SDL_Quit                  1000f5a0 f   lib_SDL2:lib_SDL2.dll
 0001:0000e5a6       _SDL_FreeSurface           1000f5a6 f   lib_SDL2:lib_SDL2.dll
 0001:0000e5ac       _SDL_RenderDrawLine        1000f5ac f   lib_SDL2:lib_SDL2.dll
 0001:0000e5b2       _SDL_RenderDrawLines       1000f5b2 f   lib_SDL2:lib_SDL2.dll
 0001:0000e5b8       _SDL_RenderCopy            1000f5b8 f   lib_SDL2:lib_SDL2.dll
 0001:0000e5be       _SDL_DestroyRenderer       1000f5be f   lib_SDL2:lib_SDL2.dll
 0001:0000e5c4       _SDL_DestroyTexture        1000f5c4 f   lib_SDL2:lib_SDL2.dll
 0001:0000e5ca       _SDL_CreateTextureFromSurface 1000f5ca f   lib_SDL2:lib_SDL2.dll
 0001:0000e5d0       _SDL_RenderPresent         1000f5d0 f   lib_SDL2:lib_SDL2.dll
 0001:0000e5d6       _SDL_SetRenderDrawBlendMode 1000f5d6 f   lib_SDL2:lib_SDL2.dll
 0001:0000e5dc       _SDL_SetRenderDrawColor    1000f5dc f   lib_SDL2:lib_SDL2.dll
 0001:0000e5e2       _SDL_RenderClear           1000f5e2 f   lib_SDL2:lib_SDL2.dll
 0001:0000e5e8       _SDL_CreateRenderer        1000f5e8 f   lib_SDL2:lib_SDL2.dll
 0001:0000e5ee       _SDL_SetTextureColorMod    1000f5ee f   lib_SDL2:lib_SDL2.dll
 0001:0000e5f4       _SDL_RenderFillRect        1000f5f4 f   lib_SDL2:lib_SDL2.dll
 0001:0000e5fa       _SDL_RenderDrawRect        1000f5fa f   lib_SDL2:lib_SDL2.dll
 0001:0000e600       ?utf_nocase32@su@tl@UModSys@@YAHH@Z 1000f600 f   umodsys_lib_core:umodsys.tl.utfcase.obj
 0001:00010a30       ?utf8_cmp_nocase_bin@su@tl@UModSys@@YAHPBD0II@Z 10011a30 f   umodsys_lib_core:umodsys.tl.utfcase.obj
 0001:00010ae0       ??3IRoot@core@UModSys@@SAXPAX@Z 10011ae0 f   umodsys_lib_core:umodsys.core.objects.obj
 0001:00010b00       ??3IRoot@core@UModSys@@SAXPAXPAUIMemAlloc@12@@Z 10011b00 f   umodsys_lib_core:umodsys.core.objects.obj
 0001:00010b20       ??2IRoot@core@UModSys@@SAPAXIPAUIMemAlloc@12@@Z 10011b20 f   umodsys_lib_core:umodsys.core.objects.obj
 0001:00010b40       ?suicide@IRoot@core@UModSys@@UAEXXZ 10011b40 f   umodsys_lib_core:umodsys.core.objects.obj
 0001:00010b50       ??1IRoot@core@UModSys@@UAE@XZ 10011b50 f   umodsys_lib_core:umodsys.core.objects.obj
 0001:00010b60       ??1IRefObject@core@UModSys@@UAE@XZ 10011b60 f   umodsys_lib_core:umodsys.core.objects.obj
 0001:00010b70       ?lost@core@UModSys@@YAEPBX@Z 10011b70 f   umodsys_lib_core:umodsys.core.stdtypedefs.obj
 0001:00010b80       ?s_unresolve@SUniquePointer@core@UModSys@@SAXPAUIUniquePointerResolver@23@@Z 10011b80 f   umodsys_lib_core:umodsys.core.uniqueptr.obj
 0001:00010bc0       ?s_resolve@SUniquePointer@core@UModSys@@SAXPAUIUniquePointerResolver@23@@Z 10011bc0 f   umodsys_lib_core:umodsys.core.uniqueptr.obj
 0001:00010c10       ??1SUniquePointer@core@UModSys@@QAE@XZ 10011c10 f   umodsys_lib_core:umodsys.core.uniqueptr.obj
 0001:00010c40       ??0SUniquePointer@core@UModSys@@QAE@H@Z 10011c40 f   umodsys_lib_core:umodsys.core.uniqueptr.obj
 0001:00010c60       ??0SUniquePointer@core@UModSys@@QAE@PBD0H@Z 10011c60 f   umodsys_lib_core:umodsys.core.uniqueptr.obj
 0001:00010cb0       ?utf_8to32@su@tl@UModSys@@YA_NAAHAAPBDAAI@Z 10011cb0 f   umodsys_lib_core:umodsys.tl.utf8.obj
 0001:00010d80       ?utf_32to8@su@tl@UModSys@@YAIPADIH@Z 10011d80 f   umodsys_lib_core:umodsys.tl.utf8.obj
 0001:00010e50       ?utf_8to32_len@su@tl@UModSys@@YAIPBDI@Z 10011e50 f   umodsys_lib_core:umodsys.tl.utf8.obj
 0001:00010e90       ?utf_8to32@su@tl@UModSys@@YAIPAHIPBDI_N@Z 10011e90 f   umodsys_lib_core:umodsys.tl.utf8.obj
 0001:00010ef0       ?utf_32to8_len@su@tl@UModSys@@YAIPBHI@Z 10011ef0 f   umodsys_lib_core:umodsys.tl.utf8.obj
 0001:00010f70       ?utf_32to8@su@tl@UModSys@@YAIPADIPBHI_N@Z 10011f70 f   umodsys_lib_core:umodsys.tl.utf8.obj
 0001:00010fb0       ??1SModuleInfo@base@UModSys@@QAE@XZ 10011fb0 f   umodsys_lib_base:umodsys.base.moduleinfo.obj
 0001:00010fc0       ??0SModuleInfo@base@UModSys@@QAE@PBDGG0K_J@Z 10011fc0 f   umodsys_lib_base:umodsys.base.moduleinfo.obj
 0001:00011060       ??1IModuleLibraryReg@base@UModSys@@UAE@XZ 10012060 f   umodsys_lib_base:umodsys.base.modulereg.obj
 0001:00011070       ??0IModuleLibraryReg@base@UModSys@@QAE@XZ 10012070 f   umodsys_lib_base:umodsys.base.modulereg.obj
 0001:00011080       ?mr_close@IModuleReg@base@UModSys@@UAE_NXZ 10012080 f   umodsys_lib_base:umodsys.base.modulereg.obj
 0001:000110c0       ?mr_isopen@IModuleReg@base@UModSys@@UBE_NXZ 100120c0 f   umodsys_lib_base:umodsys.base.modulereg.obj
 0001:000110d0       ?mr_getdebug@IModuleReg@base@UModSys@@UBEPAUSDebug@23@XZ 100120d0 f   umodsys_lib_base:umodsys.base.modulereg.obj
 0001:000110e0       ??1IModuleReg@base@UModSys@@UAE@XZ 100120e0 f   umodsys_lib_base:umodsys.base.modulereg.obj
 0001:000110f0       ?mr_open@IModuleReg@base@UModSys@@UAE_NXZ 100120f0 f   umodsys_lib_base:umodsys.base.modulereg.obj
 0001:00011150       ??0IModuleReg@base@UModSys@@QAE@PBDGG0K_JPAUSDebug@12@@Z 10012150 f   umodsys_lib_base:umodsys.base.modulereg.obj
 0001:00011190       _UModSys_Plugin_Entry2@0   10012190 f   umodsys_lib_base:umodsys.so_main.win32.obj
 0001:000111a0       ??1RModuleLibraryReg_Chain@base@UModSys@@UAE@XZ 100121a0 f   umodsys_lib_base:umodsys.base.moduleregchain.obj
 0001:000111b0       ??0RModuleLibraryReg_Chain@base@UModSys@@QAE@XZ 100121b0 f   umodsys_lib_base:umodsys.base.moduleregchain.obj
 0001:000111d0       ?s_get@SModuleRegChain@base@UModSys@@SAPAUIModuleReg@23@I@Z 100121d0 f   umodsys_lib_base:umodsys.base.moduleregchain.obj
 0001:00011200       ??1SModuleRegChain@base@UModSys@@QAE@XZ 10012200 f   umodsys_lib_base:umodsys.base.moduleregchain.obj
 0001:00011230       ??0SModuleRegChain@base@UModSys@@QAE@AAUIModuleReg@12@@Z 10012230 f   umodsys_lib_base:umodsys.base.moduleregchain.obj
 0001:00011270       ?mlr_isopen@RModuleLibraryReg_Chain@base@UModSys@@UBE_NXZ 10012270 f   umodsys_lib_base:umodsys.base.moduleregchain.obj
 0001:00011280       ?mlr_close@RModuleLibraryReg_Chain@base@UModSys@@UAE_NXZ 10012280 f   umodsys_lib_base:umodsys.base.moduleregchain.obj
 0001:000112b0       ?mlr_open@RModuleLibraryReg_Chain@base@UModSys@@UAE_NPAUISystem@23@PAUIMemAlloc@core@3@@Z 100122b0 f   umodsys_lib_base:umodsys.base.moduleregchain.obj
 0001:000112e0       ?mlr_get@RModuleLibraryReg_Chain@base@UModSys@@UBEPAUIModuleReg@23@I@Z 100122e0 f   umodsys_lib_base:umodsys.base.moduleregchain.obj
 0001:000112f0       ?mlr_count@RModuleLibraryReg_Chain@base@UModSys@@UBEIXZ 100122f0 f   umodsys_lib_base:umodsys.base.moduleregchain.obj
 0001:00011310       ??0SModuleRegChain@base@UModSys@@QAE@H@Z 10012310 f   umodsys_lib_base:umodsys.base.moduleregchain.obj
 0001:00011320       ?put@SDebug@base@UModSys@@QBA_NEW4eConsoleLevels@23@PBDZZ 10012320 f   umodsys_lib_base:umodsys.base.debug.obj
 0001:00011350       ??1SDebug@base@UModSys@@QAE@XZ 10012350 f   umodsys_lib_base:umodsys.base.debug.obj
 0001:00011370       ??0SDebug@base@UModSys@@QAE@PAUIConsole@12@I@Z 10012370 f   umodsys_lib_base:umodsys.base.debug.obj
 0001:00011380       ?unlink@SMemorySharedData@core@UModSys@@QAEXPBUSSourceContext@23@@Z 10012380 f   umodsys_lib_base:umodsys.base.modulecontext.obj
 0001:000113a0       ?link@SMemorySharedData@core@UModSys@@QAEXPBUSSourceContext@23@@Z 100123a0 f   umodsys_lib_base:umodsys.base.modulecontext.obj
 0001:000113b0       ?Link@SModuleContext@base@UModSys@@QAEXPAUISystem@23@PAUIMemAlloc@core@3@@Z 100123b0 f   umodsys_lib_base:umodsys.base.modulecontext.obj
 0001:00011410       ??1SModuleContext@base@UModSys@@QAE@XZ 10012410 f   umodsys_lib_base:umodsys.base.modulecontext.obj
 0001:00011420       ?new_data@SMemorySharedData@core@UModSys@@SAPAU123@PAUIMemAlloc@23@IPBUSSourceContext@23@@Z 10012420 f   umodsys_lib_base:umodsys.base.modulecontext.obj
 0001:00011440       ?get_paramworker@SParameters@core@UModSys@@KAPAUIParameters@23@XZ 10012440 f   umodsys_lib_base:umodsys.base.modulecontext.obj
 0001:00011450       ?shared_memory@UModSys@@YAABUSIMemAlloc@core@1@XZ 10012450 f   umodsys_lib_base:umodsys.base.modulecontext.obj
 0001:00011460       ?local_memory@UModSys@@YAABUSIMemAlloc@core@1@XZ 10012460 f   umodsys_lib_base:umodsys.base.modulecontext.obj
 0001:00011470       ??0SModuleContext@base@UModSys@@QAE@XZ 10012470 f   umodsys_lib_base:umodsys.base.modulecontext.obj
 0001:00011490       ?mod_dec@RGenerator@zlib@media@modules@UModSys@@UBE_NXZ 10012490 f   umodsys_lib_libmedia:umodsys.mod.media.zlib.obj
 0001:000114a0       ?mod_inc@RGenerator@zlib@media@modules@UModSys@@UBE_NXZ 100124a0 f   umodsys_lib_libmedia:umodsys.mod.media.zlib.obj
 0001:000114b0       ?get_module@RGenerator@zlib@media@modules@UModSys@@UBEPAUIModule@base@5@XZ 100124b0 f   umodsys_lib_libmedia:umodsys.mod.media.zlib.obj
 0001:000114c0       ?arc_deinit@RBinArchiveFrameClient_ZIP@zlib@media@modules@UModSys@@UAE_NPAUIBinArchiveFrame@libmedia@5@@Z 100124c0 f   umodsys_lib_libmedia:umodsys.mod.media.zlib.obj
 0001:000114d0       ?s_holder@RGenerator@zlib@media@modules@UModSys@@SAAAU?$TTypeStaticHolder@URGenerator@zlib@media@modules@UModSys@@@tl@5@XZ 100124d0 f   umodsys_lib_libmedia:umodsys.mod.media.zlib.obj
 0001:00011510       ?filew_writedir_start@RBinArchiveFrameClient_ZIP@zlib@media@modules@UModSys@@UAE_NPAUIBinArchiveFrame@libmedia@5@@Z 10012510 f   umodsys_lib_libmedia:umodsys.mod.media.zlib.obj
 0001:00011530       ?filew_init@RBinArchiveFrameClient_ZIP@zlib@media@modules@UModSys@@UAE_NPAUIBinArchiveFrame@libmedia@5@PBUSParameters@core@5@@Z 10012530 f   umodsys_lib_libmedia:umodsys.mod.media.zlib.obj
 0001:00011550       ?arc_init@RBinArchiveFrameClient_ZIP@zlib@media@modules@UModSys@@UAE_NPAUIBinArchiveFrame@libmedia@5@PBUSParameters@core@5@@Z 10012550 f   umodsys_lib_libmedia:umodsys.mod.media.zlib.obj
 0001:000115c0       ?node_info@RBinArchiveFrameClient_ZIP@zlib@media@modules@UModSys@@UAE_NPAUIBinArchiveFrame@libmedia@5@AAUSFileInfo@75@PAUNameNode@675@@Z 100125c0 f   umodsys_lib_libmedia:umodsys.mod.media.zlib.obj
 0001:000115e0       ?data_writer@RBinArchiveFrameClient_ZIP@zlib@media@modules@UModSys@@UAE?AU?$TRefObject@UIStreamWriter@libmedia@UModSys@@U?$TRefObjectFunc@UIStreamWriter@libmedia@UModSys@@@tl@3@@tl@5@PAUIBinArchiveFrame@libmedia@5@ABU?$TString@U?$TSCoreConst@D@su@tl@UModSys@@U?$TComparerBinaryHash@D@234@@75@ABUSFlags@95@@Z 100125e0 f   umodsys_lib_libmedia:umodsys.mod.media.zlib.obj
 0001:00011600       ?s_unreg@RGenerator@zlib@media@modules@UModSys@@SA_NPAUIModuleReg@base@5@@Z 10012600 f   umodsys_lib_libmedia:umodsys.mod.media.zlib.obj
 0001:00011650       ?s_reg@RGenerator@zlib@media@modules@UModSys@@SA_NPAUIModuleReg@base@5@@Z 10012650 f   umodsys_lib_libmedia:umodsys.mod.media.zlib.obj
 0001:000116d0       ?filew_writedir_end@RBinArchiveFrameClient_ZIP@zlib@media@modules@UModSys@@UAE_NPAUIBinArchiveFrame@libmedia@5@@Z 100126d0 f   umodsys_lib_libmedia:umodsys.mod.media.zlib.obj
 0001:00011780       ?filew_copy_data@RBinArchiveFrameClient_ZIP@zlib@media@modules@UModSys@@UAE_NPAUIBinArchiveFrame@libmedia@5@PAUNameNode@675@@Z 10012780 f   umodsys_lib_libmedia:umodsys.mod.media.zlib.obj
 0001:000118f0       ?data_reader@RBinArchiveFrameClient_ZIP@zlib@media@modules@UModSys@@UAE?AU?$TRefObject@UIStreamReader@libmedia@UModSys@@U?$TRefObjectFunc@UIStreamReader@libmedia@UModSys@@@tl@3@@tl@5@PAUIBinArchiveFrame@libmedia@5@PAUNameNode@895@ABUSFlags@95@@Z 100128f0 f   umodsys_lib_libmedia:umodsys.mod.media.zlib.obj
 0001:00011ad0       ?data_save@RBinArchiveFrameClient_ZIP@zlib@media@modules@UModSys@@UAE_NPAUIBinArchiveFrame@libmedia@5@ABUSCMem@core@5@ABU?$TString@U?$TSCoreConst@D@su@tl@UModSys@@U?$TComparerBinaryHash@D@234@@tl@5@ABUSFlags@75@@Z 10012ad0 f   umodsys_lib_libmedia:umodsys.mod.media.zlib.obj
 0001:00011e10       ?data_load@RBinArchiveFrameClient_ZIP@zlib@media@modules@UModSys@@UAE_NPAUIBinArchiveFrame@libmedia@5@AAUSCMemShared@core@5@PAUNameNode@675@ABUSFlags@75@@Z 10012e10 f   umodsys_lib_libmedia:umodsys.mod.media.zlib.obj
 0001:00012200       ?filew_writedir_entry@RBinArchiveFrameClient_ZIP@zlib@media@modules@UModSys@@UAE_NPAUIBinArchiveFrame@libmedia@5@PAUNameNode@675@@Z 10013200 f   umodsys_lib_libmedia:umodsys.mod.media.zlib.obj
 0001:00012380       ?filer_scan@RBinArchiveFrameClient_ZIP@zlib@media@modules@UModSys@@UAE_NPAUIBinArchiveFrame@libmedia@5@AAUSMem@core@5@PBUSParameters@95@@Z 10013380 f   umodsys_lib_libmedia:umodsys.mod.media.zlib.obj
 0001:00012570       ?filer_pre_scan@RBinArchiveFrameClient_ZIP@zlib@media@modules@UModSys@@UAE_NPAUIBinArchiveFrame@libmedia@5@AAIPBUSParameters@core@5@@Z 10013570 f   umodsys_lib_libmedia:umodsys.mod.media.zlib.obj
 0001:000127d0       ?mod_dec@RGenerator@serialize_json@media@modules@UModSys@@UBE_NXZ 100137d0 f   umodsys_lib_libmedia:umodsys.mod.media.serialize_json.obj
 0001:000127e0       ?mod_inc@RGenerator@serialize_json@media@modules@UModSys@@UBE_NXZ 100137e0 f   umodsys_lib_libmedia:umodsys.mod.media.serialize_json.obj
 0001:000127f0       ?get_module@RGenerator@serialize_json@media@modules@UModSys@@UBEPAUIModule@base@5@XZ 100137f0 f   umodsys_lib_libmedia:umodsys.mod.media.serialize_json.obj
 0001:00012800       ?s_holder@RGenerator@serialize_json@media@modules@UModSys@@SAAAU?$TTypeStaticHolder@URGenerator@serialize_json@media@modules@UModSys@@@tl@5@XZ 10013800 f   umodsys_lib_libmedia:umodsys.mod.media.serialize_json.obj
 0001:00012840       ?s_unreg@RGenerator@serialize_json@media@modules@UModSys@@SA_NPAUIModuleReg@base@5@@Z 10013840 f   umodsys_lib_libmedia:umodsys.mod.media.serialize_json.obj
 0001:00012890       ?s_reg@RGenerator@serialize_json@media@modules@UModSys@@SA_NPAUIModuleReg@base@5@@Z 10013890 f   umodsys_lib_libmedia:umodsys.mod.media.serialize_json.obj
 0001:00012910       ?mod_dec@RGenerator@images_std@media@modules@UModSys@@UBE_NXZ 10013910 f   umodsys_lib_libmedia:umodsys.mod.media.images_std.obj
 0001:00012920       ?mod_inc@RGenerator@images_std@media@modules@UModSys@@UBE_NXZ 10013920 f   umodsys_lib_libmedia:umodsys.mod.media.images_std.obj
 0001:00012930       ?get_module@RGenerator@images_std@media@modules@UModSys@@UBEPAUIModule@base@5@XZ 10013930 f   umodsys_lib_libmedia:umodsys.mod.media.images_std.obj
 0001:00012940       ?png_err@RMediaFilter@images_std@media@modules@UModSys@@KAXPAUpng_struct_def@@PBD@Z 10013940 f   umodsys_lib_libmedia:umodsys.mod.media.images_std.obj
 0001:00012970       ?saver_jpeg@RMediaFilter@images_std@media@modules@UModSys@@QAE_NPBUIImage@lib2d@5@AAUSInfo@IBinObjFilter@libmedia@5@ABUSParameters@core@5@PBD_N@Z 10013970 f   umodsys_lib_libmedia:umodsys.mod.media.images_std.obj
 0001:00012a10       ?filter_load@RMediaFilter@images_std@media@modules@UModSys@@UAE_NABUSInfo@IBinObjFilter@libmedia@5@AAU?$TRefObject@UIRefObject@core@UModSys@@U?$TRefObjectFunc@UIRefObject@core@UModSys@@@tl@3@@tl@5@@Z 10013a10 f   umodsys_lib_libmedia:umodsys.mod.media.images_std.obj
 0001:00012a20       ?s_holder@RGenerator@images_std@media@modules@UModSys@@SAAAU?$TTypeStaticHolder@URGenerator@images_std@media@modules@UModSys@@@tl@5@XZ 10013a20 f   umodsys_lib_libmedia:umodsys.mod.media.images_std.obj
 0001:00012a60       ?png_write@RMediaFilter@images_std@media@modules@UModSys@@KAXPAUpng_struct_def@@PAEI@Z 10013a60 f   umodsys_lib_libmedia:umodsys.mod.media.images_std.obj
 0001:00012aa0       ?png_read@RMediaFilter@images_std@media@modules@UModSys@@KAXPAUpng_struct_def@@PAEI@Z 10013aa0 f   umodsys_lib_libmedia:umodsys.mod.media.images_std.obj
 0001:00012ae0       ?s_unreg@RGenerator@images_std@media@modules@UModSys@@SA_NPAUIModuleReg@base@5@@Z 10013ae0 f   umodsys_lib_libmedia:umodsys.mod.media.images_std.obj
 0001:00012b30       ?s_reg@RGenerator@images_std@media@modules@UModSys@@SA_NPAUIModuleReg@base@5@@Z 10013b30 f   umodsys_lib_libmedia:umodsys.mod.media.images_std.obj
 0001:00012bb0       ?saver_png@RMediaFilter@images_std@media@modules@UModSys@@QAE_NPBUIImage@lib2d@5@AAUSInfo@IBinObjFilter@libmedia@5@ABUSParameters@core@5@PBD_N@Z 10013bb0 f   umodsys_lib_libmedia:umodsys.mod.media.images_std.obj
 0001:00012f20       ?loader_png@RMediaFilter@images_std@media@modules@UModSys@@QAE_NPAUIImage@lib2d@5@ABUSInfo@IBinObjFilter@libmedia@5@ABUSParameters@core@5@HPBD_N@Z 10013f20 f   umodsys_lib_libmedia:umodsys.mod.media.images_std.obj
 0001:00013270       ?loader_jpeg@RMediaFilter@images_std@media@modules@UModSys@@QAE_NPAUIImage@lib2d@5@ABUSInfo@IBinObjFilter@libmedia@5@ABUSParameters@core@5@HPBD_N@Z 10014270 f   umodsys_lib_libmedia:umodsys.mod.media.images_std.obj
 0001:00013560       ?filter_save@RMediaFilter@images_std@media@modules@UModSys@@UAE_NAAUSInfo@IBinObjFilter@libmedia@5@PBUIRefObject@core@5@@Z 10014560 f   umodsys_lib_libmedia:umodsys.mod.media.images_std.obj
 0001:00013750       ?filter_load@RMediaFilter@images_std@media@modules@UModSys@@UAE_NABUSInfo@IBinObjFilter@libmedia@5@PAUIRefObject@core@5@@Z 10014750 f   umodsys_lib_libmedia:umodsys.mod.media.images_std.obj
 0001:000139c0       ?mod_dec@RGenerator@frames@ui@modules@UModSys@@UBE_NXZ 100149c0 f   umodsys_lib_libui:umodsys.mod.ui.frames.obj
 0001:000139d0       ?mod_inc@RGenerator@frames@ui@modules@UModSys@@UBE_NXZ 100149d0 f   umodsys_lib_libui:umodsys.mod.ui.frames.obj
 0001:000139e0       ?get_module@RGenerator@frames@ui@modules@UModSys@@UBEPAUIModule@base@5@XZ 100149e0 f   umodsys_lib_libui:umodsys.mod.ui.frames.obj
 0001:000139f0       ??1SButton@frames@ui@modules@UModSys@@QAE@XZ 100149f0 f   umodsys_lib_libui:umodsys.mod.ui.frames.obj
 0001:00013a00       ?close@RDialog@frames@ui@modules@UModSys@@UAE_NXZ 10014a00 f   umodsys_lib_libui:umodsys.mod.ui.frames.obj
 0001:00013a20       ?cont_next@RFrame_Common@frames@ui@modules@UModSys@@IAEPAU12345@PAU12345@@Z 10014a20 f   umodsys_lib_libui:umodsys.mod.ui.frames.obj
 0001:00013ab0       ?cont_prev@RFrame_Common@frames@ui@modules@UModSys@@IAEPAU12345@PAU12345@@Z 10014ab0 f   umodsys_lib_libui:umodsys.mod.ui.frames.obj
 0001:00013b40       ?get_collector@RFrame_Common@frames@ui@modules@UModSys@@UAEPAUICollector@libui@5@XZ 10014b40 f   umodsys_lib_libui:umodsys.mod.ui.frames.obj
 0001:00013b50       ?dialog_get@RCollector@frames@ui@modules@UModSys@@UAEPAUIDialog@libui@5@XZ 10014b50 f   umodsys_lib_libui:umodsys.mod.ui.frames.obj
 0001:00013b70       ?cont_last@RCollector@frames@ui@modules@UModSys@@IAEPAURFrame_Common@2345@PAU62345@@Z 10014b70 f   umodsys_lib_libui:umodsys.mod.ui.frames.obj
 0001:00013bb0       ?cont_first@RCollector@frames@ui@modules@UModSys@@IAEPAURFrame_Common@2345@PAU62345@@Z 10014bb0 f   umodsys_lib_libui:umodsys.mod.ui.frames.obj
 0001:00013be0       ?set_focused@RCollector@frames@ui@modules@UModSys@@IAE_NPAUIFrame@libui@5@@Z 10014be0 f   umodsys_lib_libui:umodsys.mod.ui.frames.obj
 0001:00013c40       ?update_size@RCollector@frames@ui@modules@UModSys@@IAE_NABU?$TBoundBox2@H@math3d@5@ABU?$TDynarrayDynamic@U?$TRefObject@URFrame_Common@frames@ui@modules@UModSys@@U?$TRefObjectFunc@URFrame_Common@frames@ui@modules@UModSys@@@tl@5@@tl@UModSys@@U?$TAllocator@USIMemAlloc@core@UModSys@@USCountCalcPower2@23@@23@@tl@5@_N@Z 10014c40 f   umodsys_lib_libui:umodsys.mod.ui.frames.obj
 0001:00013cc0       ?evmouse@RCollector@frames@ui@modules@UModSys@@IAE_NABU?$TDynarrayDynamic@U?$TRefObject@URFrame_Common@frames@ui@modules@UModSys@@U?$TRefObjectFunc@URFrame_Common@frames@ui@modules@UModSys@@@tl@5@@tl@UModSys@@U?$TAllocator@USIMemAlloc@core@UModSys@@USCountCalcPower2@23@@23@@tl@5@@Z 10014cc0 f   umodsys_lib_libui:umodsys.mod.ui.frames.obj
 0001:00013d20       ?output_attach_3d@RCollector@frames@ui@modules@UModSys@@UAE_NPAUIRenderDriver@lib3d@5@H@Z 10014d20 f   umodsys_lib_libui:umodsys.mod.ui.frames.obj
 0001:00013d30       ?get_minsize@RCollector@frames@ui@modules@UModSys@@UAE_NAAU?$TVector2@H@math3d@5@@Z 10014d30 f   umodsys_lib_libui:umodsys.mod.ui.frames.obj
 0001:00013d40       ?get_maxbox@RCollector@frames@ui@modules@UModSys@@UAE_NAAU?$TBoundBox2@H@math3d@5@@Z 10014d40 f   umodsys_lib_libui:umodsys.mod.ui.frames.obj
 0001:00013d50       ?frame_remove@RCollector@frames@ui@modules@UModSys@@UAE_NPAUIFrame@libui@5@@Z 10014d50 f   umodsys_lib_libui:umodsys.mod.ui.frames.obj
 0001:00013d60       ?get_lcount@RFrame_List@frames@ui@modules@UModSys@@UAEHXZ 10014d60 f   umodsys_lib_libui:umodsys.mod.ui.frames.obj
 0001:00013d70       ?sselect@RFrame_Edit@frames@ui@modules@UModSys@@IAE_NH@Z 10014d70 f   umodsys_lib_libui:umodsys.mod.ui.frames.obj
 0001:00013da0       ?mouse_event@RFrame_Edit@frames@ui@modules@UModSys@@MAE_NPBUSMouseInput@libui@5@@Z 10014da0 f   umodsys_lib_libui:umodsys.mod.ui.frames.obj
 0001:00013e00       ?dpause@RDialog@frames@ui@modules@UModSys@@QAE_N_N@Z 10014e00 f   umodsys_lib_libui:umodsys.mod.ui.frames.obj
 0001:00013e20       ?dclose@RDialog@frames@ui@modules@UModSys@@QAE_NXZ 10014e20 f   umodsys_lib_libui:umodsys.mod.ui.frames.obj
 0001:00013e40       ?set_focused@RDialog@frames@ui@modules@UModSys@@UAE_NPAUIFrame@libui@5@@Z 10014e40 f   umodsys_lib_libui:umodsys.mod.ui.frames.obj
 0001:00013ea0       ?get_focused@RDialog@frames@ui@modules@UModSys@@UAEPAUIFrame@libui@5@XZ 10014ea0 f   umodsys_lib_libui:umodsys.mod.ui.frames.obj
 0001:00013eb0       ?get_root@RDialog@frames@ui@modules@UModSys@@UAEPAUIFrame@libui@5@XZ 10014eb0 f   umodsys_lib_libui:umodsys.mod.ui.frames.obj
 0001:00013ec0       ?is_enabled@RFrame_Common@frames@ui@modules@UModSys@@MAE_NXZ 10014ec0 f   umodsys_lib_libui:umodsys.mod.ui.frames.obj
 0001:00013f00       ?draw@RFrame_Common@frames@ui@modules@UModSys@@MAE_NABUSDrawState@2345@@Z 10014f00 f   umodsys_lib_libui:umodsys.mod.ui.frames.obj
 0001:00013f80       ?find_context@RFrame_Common@frames@ui@modules@UModSys@@UAEPAUIFrame@libui@5@HPAUIController@75@@Z 10014f80 f   umodsys_lib_libui:umodsys.mod.ui.frames.obj
 0001:00013fe0       ?get_sub@RFrame_Common@frames@ui@modules@UModSys@@UAEPAUIFrame@libui@5@PAU675@H@Z 10014fe0 f   umodsys_lib_libui:umodsys.mod.ui.frames.obj
 0001:00013ff0       ?get_parent@RFrame_Common@frames@ui@modules@UModSys@@UAEPAUIFrame@libui@5@XZ 10014ff0 f   umodsys_lib_libui:umodsys.mod.ui.frames.obj
 0001:00014000       ?set_repeater@RFrame_Common@frames@ui@modules@UModSys@@UAE_NHH@Z 10015000 f   umodsys_lib_libui:umodsys.mod.ui.frames.obj
 0001:00014010       ?get_flag@RFrame_Common@frames@ui@modules@UModSys@@UAE_NH@Z 10015010 f   umodsys_lib_libui:umodsys.mod.ui.frames.obj
 0001:00014070       ?set_flag@RFrame_Common@frames@ui@modules@UModSys@@UAE_NH_N@Z 10015070 f   umodsys_lib_libui:umodsys.mod.ui.frames.obj
 0001:00014140       ?s_holder@RGenerator@frames@ui@modules@UModSys@@SAAAU?$TTypeStaticHolder@URGenerator@frames@ui@modules@UModSys@@@tl@5@XZ 10015140 f   umodsys_lib_libui:umodsys.mod.ui.frames.obj
 0001:00014180       ?mouse@SButton@frames@ui@modules@UModSys@@QAE_NPBUSMouseInput@libui@5@@Z 10015180 f   umodsys_lib_libui:umodsys.mod.ui.frames.obj
 0001:000142e0       ?dialog_close_all@RCollector@frames@ui@modules@UModSys@@UAE_NXZ 100152e0 f   umodsys_lib_libui:umodsys.mod.ui.frames.obj
 0001:00014390       ?dialog_close@RCollector@frames@ui@modules@UModSys@@UAE_NXZ 10015390 f   umodsys_lib_libui:umodsys.mod.ui.frames.obj
 0001:00014450       ?find_next_focused@RCollector@frames@ui@modules@UModSys@@IAEPAURFrame_Common@2345@PAU62345@0_N@Z 10015450 f   umodsys_lib_libui:umodsys.mod.ui.frames.obj
 0001:000145d0       ?broadcast@RCollector@frames@ui@modules@UModSys@@IAEHABU?$TDynarrayDynamic@U?$TRefObject@URFrame_Common@frames@ui@modules@UModSys@@U?$TRefObjectFunc@URFrame_Common@frames@ui@modules@UModSys@@@tl@5@@tl@UModSys@@U?$TAllocator@USIMemAlloc@core@UModSys@@USCountCalcPower2@23@@23@@tl@5@HABUSFrameDataIn@libui@5@H@Z 100155d0 f   umodsys_lib_libui:umodsys.mod.ui.frames.obj
 0001:00014660       ?evmouse@RCollector@frames@ui@modules@UModSys@@IAE_NABU?$TBoundBox2@H@math3d@5@ABU?$TDynarrayDynamic@U?$TRefObject@URFrame_Common@frames@ui@modules@UModSys@@U?$TRefObjectFunc@URFrame_Common@frames@ui@modules@UModSys@@@tl@5@@tl@UModSys@@U?$TAllocator@USIMemAlloc@core@UModSys@@USCountCalcPower2@23@@23@@tl@5@ABUSMouseInput@libui@5@PAURFrame_Common@2345@@Z 10015660 f   umodsys_lib_libui:umodsys.mod.ui.frames.obj
 0001:000147c0       ?insert@RCollector@frames@ui@modules@UModSys@@IAE_NPAURFrame_Common@2345@0@Z 100157c0 f   umodsys_lib_libui:umodsys.mod.ui.frames.obj
 0001:00014840       ?shutdown@RCollector@frames@ui@modules@UModSys@@UAE_NXZ 10015840 f   umodsys_lib_libui:umodsys.mod.ui.frames.obj
 0001:000148e0       ?input_attach_k@RCollector@frames@ui@modules@UModSys@@UAE_NPAUIKeyboardController@libui@5@H@Z 100158e0 f   umodsys_lib_libui:umodsys.mod.ui.frames.obj
 0001:00014940       ?input_attach_m@RCollector@frames@ui@modules@UModSys@@UAE_NPAUIMouseController@libui@5@H@Z 10015940 f   umodsys_lib_libui:umodsys.mod.ui.frames.obj
 0001:000149b0       ?input_process@RCollector@frames@ui@modules@UModSys@@UAE_NH@Z 100159b0 f   umodsys_lib_libui:umodsys.mod.ui.frames.obj
 0001:000149d0       ?output_attach_2d@RCollector@frames@ui@modules@UModSys@@UAE_NPAUIRenderDriver@lib2d@5@H@Z 100159d0 f   umodsys_lib_libui:umodsys.mod.ui.frames.obj
 0001:00014a00       ?sselect@RFrame_List@frames@ui@modules@UModSys@@IAE_NH@Z 10015a00 f   umodsys_lib_libui:umodsys.mod.ui.frames.obj
 0001:00014a90       ?get_value@RFrame_List@frames@ui@modules@UModSys@@UAE_NHABUSFrameDataOut@libui@5@@Z 10015a90 f   umodsys_lib_libui:umodsys.mod.ui.frames.obj
 0001:00014ac0       ?set_value@RFrame_List@frames@ui@modules@UModSys@@UAE_NHABUSFrameDataIn@libui@5@@Z 10015ac0 f   umodsys_lib_libui:umodsys.mod.ui.frames.obj
 0001:00014af0       ?mouse_event@RFrame_List@frames@ui@modules@UModSys@@MAE_NPBUSMouseInput@libui@5@@Z 10015af0 f   umodsys_lib_libui:umodsys.mod.ui.frames.obj
 0001:00014c70       ?key_event@RFrame_List@frames@ui@modules@UModSys@@MAE_NABUSKeyboardInputRaw@libui@5@@Z 10015c70 f   umodsys_lib_libui:umodsys.mod.ui.frames.obj
 0001:00014d50       ?button_cmd@RFrame_List@frames@ui@modules@UModSys@@MAE_NPAUSButton@2345@HH@Z 10015d50 f   umodsys_lib_libui:umodsys.mod.ui.frames.obj
 0001:00014e50       ?sinsert@RFrame_Edit@frames@ui@modules@UModSys@@IAE_NHPBHH@Z 10015e50 f   umodsys_lib_libui:umodsys.mod.ui.frames.obj
 0001:00014f00       ?sdelete@RFrame_Edit@frames@ui@modules@UModSys@@IAE_NHH@Z 10015f00 f   umodsys_lib_libui:umodsys.mod.ui.frames.obj
 0001:00014fc0       ?key_event@RFrame_Edit@frames@ui@modules@UModSys@@MAE_NABUSKeyboardInputRaw@libui@5@@Z 10015fc0 f   umodsys_lib_libui:umodsys.mod.ui.frames.obj
 0001:00015070       ?mouse_event@RFrame_Button@frames@ui@modules@UModSys@@MAE_NPBUSMouseInput@libui@5@@Z 10016070 f   umodsys_lib_libui:umodsys.mod.ui.frames.obj
 0001:00015090       ?key_event@RFrame_Button@frames@ui@modules@UModSys@@MAE_NABUSKeyboardInputRaw@libui@5@@Z 10016090 f   umodsys_lib_libui:umodsys.mod.ui.frames.obj
 0001:00015130       ?button_cmd@RFrame_Button@frames@ui@modules@UModSys@@MAE_NPAUSButton@2345@HH@Z 10016130 f   umodsys_lib_libui:umodsys.mod.ui.frames.obj
 0001:000151c0       ??0RDialog@frames@ui@modules@UModSys@@QAE@PAURCollector@1234@PAURFrame_Common@1234@@Z 100161c0 f   umodsys_lib_libui:umodsys.mod.ui.frames.obj
 0001:00015240       ?configure@RFrame_Common@frames@ui@modules@UModSys@@UAE_NPBD0ABUSParameters@core@5@@Z 10016240 f   umodsys_lib_libui:umodsys.mod.ui.frames.obj
 0001:00015310       ??1RCollectorTheme@frames@ui@modules@UModSys@@QAE@XZ 10016310 f   umodsys_lib_libui:umodsys.mod.ui.frames.obj
 0001:00015320       ??0RCollectorTheme@frames@ui@modules@UModSys@@QAE@PAUICollectorThemeTree@libui@4@@Z 10016320 f   umodsys_lib_libui:umodsys.mod.ui.frames.obj
 0001:00015340       ?get_elem_index@RCollectorTheme@frames@ui@modules@UModSys@@UAEHPBD@Z 10016340 f   umodsys_lib_libui:umodsys.mod.ui.frames.obj
 0001:000154a0       ?get_group_index@RCollectorTheme@frames@ui@modules@UModSys@@UAEHPBD@Z 100164a0 f   umodsys_lib_libui:umodsys.mod.ui.frames.obj
 0001:000155f0       ?s_unreg@RGenerator@frames@ui@modules@UModSys@@SA_NPAUIModuleReg@base@5@@Z 100165f0 f   umodsys_lib_libui:umodsys.mod.ui.frames.obj
 0001:00015640       ?s_reg@RGenerator@frames@ui@modules@UModSys@@SA_NPAUIModuleReg@base@5@@Z 10016640 f   umodsys_lib_libui:umodsys.mod.ui.frames.obj
 0001:000156c0       ?draw_progress@SButton@frames@ui@modules@UModSys@@QAE_NABUSDrawState@2345@MHHH@Z 100166c0 f   umodsys_lib_libui:umodsys.mod.ui.frames.obj
 0001:000157a0       ?draw_arrow@SButton@frames@ui@modules@UModSys@@QAE_NABUSDrawState@2345@HHH@Z 100167a0 f   umodsys_lib_libui:umodsys.mod.ui.frames.obj
 0001:000158b0       ?draw@SButton@frames@ui@modules@UModSys@@QAE_NABUSDrawState@2345@@Z 100168b0 f   umodsys_lib_libui:umodsys.mod.ui.frames.obj
 0001:00015980       ??0SButton@frames@ui@modules@UModSys@@QAE@PAURFrame_Common@1234@HABUSFrameSize@libui@4@@Z 10016980 f   umodsys_lib_libui:umodsys.mod.ui.frames.obj
 0001:000159d0       ?dopen@RDialog@frames@ui@modules@UModSys@@QAE_NXZ 100169d0 f   umodsys_lib_libui:umodsys.mod.ui.frames.obj
 0001:00015a10       ?set_focus@RFrame_Common@frames@ui@modules@UModSys@@MAE_N_N@Z 10016a10 f   umodsys_lib_libui:umodsys.mod.ui.frames.obj
 0001:00015a90       ?dialog_open@RCollector@frames@ui@modules@UModSys@@UAEPAUIDialog@libui@5@PAUIFrame@75@@Z 10016a90 f   umodsys_lib_libui:umodsys.mod.ui.frames.obj
 0001:00015bf0       ??1RCollector@frames@ui@modules@UModSys@@UAE@XZ 10016bf0 f   umodsys_lib_libui:umodsys.mod.ui.frames.obj
 0001:00015d90       ?get_focused@RCollector@frames@ui@modules@UModSys@@IAEPAURFrame_Common@2345@XZ 10016d90 f   umodsys_lib_libui:umodsys.mod.ui.frames.obj
 0001:00015dd0       ?update_size@RCollector@frames@ui@modules@UModSys@@IAE_NXZ 10016dd0 f   umodsys_lib_libui:umodsys.mod.ui.frames.obj
 0001:00015f60       ?draw@RCollector@frames@ui@modules@UModSys@@IAE_NABUSDrawState@2345@ABU?$TDynarrayDynamic@U?$TRefObject@URFrame_Common@frames@ui@modules@UModSys@@U?$TRefObjectFunc@URFrame_Common@frames@ui@modules@UModSys@@@tl@5@@tl@UModSys@@U?$TAllocator@USIMemAlloc@core@UModSys@@USCountCalcPower2@23@@23@@tl@5@@Z 10016f60 f   umodsys_lib_libui:umodsys.mod.ui.frames.obj
 0001:00016020       ?key_text@RCollector@frames@ui@modules@UModSys@@UAE_NABUSKeyboardInputText@libui@5@@Z 10017020 f   umodsys_lib_libui:umodsys.mod.ui.frames.obj
 0001:00016050       ?mouse_event@RCollector@frames@ui@modules@UModSys@@UAE_NABUSMouseInput@libui@5@@Z 10017050 f   umodsys_lib_libui:umodsys.mod.ui.frames.obj
 0001:000160c0       ?output_process@RCollector@frames@ui@modules@UModSys@@UAE_NXZ 100170c0 f   umodsys_lib_libui:umodsys.mod.ui.frames.obj
 0001:000161c0       ?button_draw@RFrame_List@frames@ui@modules@UModSys@@MAE_NPAUSButton@2345@ABUSDrawState@2345@H@Z 100171c0 f   umodsys_lib_libui:umodsys.mod.ui.frames.obj
 0001:00016280       ?key_event@RFrame_Edit@frames@ui@modules@UModSys@@MAE_NABUSKeyboardInputText@libui@5@@Z 10017280 f   umodsys_lib_libui:umodsys.mod.ui.frames.obj
 0001:000162a0       ?draw_post@RFrame_Button@frames@ui@modules@UModSys@@MAE_NABUSDrawState@2345@@Z 100172a0 f   umodsys_lib_libui:umodsys.mod.ui.frames.obj
 0001:000162c0       ?draw_pre@RFrame_Image@frames@ui@modules@UModSys@@MAE_NABUSDrawState@2345@@Z 100172c0 f   umodsys_lib_libui:umodsys.mod.ui.frames.obj
 0001:000163d0       ??1RDialog@frames@ui@modules@UModSys@@UAE@XZ 100173d0 f   umodsys_lib_libui:umodsys.mod.ui.frames.obj
 0001:00016450       ??1RFrame_Common@frames@ui@modules@UModSys@@UAE@XZ 10017450 f   umodsys_lib_libui:umodsys.mod.ui.frames.obj
 0001:00016520       ?update_size@RFrame_Common@frames@ui@modules@UModSys@@MAE_NABU?$TBoundBox2@H@math3d@5@@Z 10017520 f   umodsys_lib_libui:umodsys.mod.ui.frames.obj
 0001:00016550       ?draw_focus@RFrame_Common@frames@ui@modules@UModSys@@MAE_NABUSDrawState@2345@@Z 10017550 f   umodsys_lib_libui:umodsys.mod.ui.frames.obj
 0001:000165e0       ?draw_sub@RFrame_Common@frames@ui@modules@UModSys@@MAE_NABUSDrawState@2345@@Z 100175e0 f   umodsys_lib_libui:umodsys.mod.ui.frames.obj
 0001:00016600       ??0RCollector@frames@ui@modules@UModSys@@QAE@PAUIModObject@base@4@ABUSParameters@core@4@@Z 10017600 f   umodsys_lib_libui:umodsys.mod.ui.frames.obj
 0001:00016b30       ?master_key_pressed@RCollector@frames@ui@modules@UModSys@@IAE_NABUSKeyboardInputRaw@libui@5@@Z 10017b30 f   umodsys_lib_libui:umodsys.mod.ui.frames.obj
 0001:00016bb0       ?key_pressed@RCollector@frames@ui@modules@UModSys@@UAE_NABUSKeyboardInputRaw@libui@5@@Z 10017bb0 f   umodsys_lib_libui:umodsys.mod.ui.frames.obj
 0001:00016c00       ?update_size@RFrame_List@frames@ui@modules@UModSys@@MAE_NABU?$TBoundBox2@H@math3d@5@@Z 10017c00 f   umodsys_lib_libui:umodsys.mod.ui.frames.obj
 0001:00016c50       ?draw_post@RFrame_List@frames@ui@modules@UModSys@@MAE_NABUSDrawState@2345@@Z 10017c50 f   umodsys_lib_libui:umodsys.mod.ui.frames.obj
 0001:000171e0       ?set_buf@RFrame_Edit@frames@ui@modules@UModSys@@IAE_NPBDH@Z 100181e0 f   umodsys_lib_libui:umodsys.mod.ui.frames.obj
 0001:00017380       ?set_value@RFrame_Edit@frames@ui@modules@UModSys@@UAE_NHABUSFrameDataIn@libui@5@@Z 10018380 f   umodsys_lib_libui:umodsys.mod.ui.frames.obj
 0001:000173f0       ?draw_post@RFrame_Edit@frames@ui@modules@UModSys@@MAE_NABUSDrawState@2345@@Z 100183f0 f   umodsys_lib_libui:umodsys.mod.ui.frames.obj
 0001:000175b0       ??1RFrame_Button@frames@ui@modules@UModSys@@UAE@XZ 100185b0 f   umodsys_lib_libui:umodsys.mod.ui.frames.obj
 0001:00017610       ?update_size@RFrame_Button@frames@ui@modules@UModSys@@MAE_NABU?$TBoundBox2@H@math3d@5@@Z 10018610 f   umodsys_lib_libui:umodsys.mod.ui.frames.obj
 0001:00017640       ??1RFrame_Image@frames@ui@modules@UModSys@@UAE@XZ 10018640 f   umodsys_lib_libui:umodsys.mod.ui.frames.obj
 0001:000176b0       ??1RFrame_Text@frames@ui@modules@UModSys@@UAE@XZ 100186b0 f   umodsys_lib_libui:umodsys.mod.ui.frames.obj
 0001:00017720       ??1RFrame_Frame@frames@ui@modules@UModSys@@UAE@XZ 10018720 f   umodsys_lib_libui:umodsys.mod.ui.frames.obj
 0001:00017740       ??0RFrame_Common@frames@ui@modules@UModSys@@QAE@PAURCollector@1234@PAU01234@@Z 10018740 f   umodsys_lib_libui:umodsys.mod.ui.frames.obj
 0001:00017820       ?set_fcp@RFrame_Common@frames@ui@modules@UModSys@@MAE_NABUSFrameCreateParameters@libui@5@PBUSParameters@core@5@@Z 10018820 f   umodsys_lib_libui:umodsys.mod.ui.frames.obj
 0001:000178c0       ?set_lvalue@RFrame_List@frames@ui@modules@UModSys@@UAE_NHHABUSFrameDataIn@libui@5@@Z 100188c0 f   umodsys_lib_libui:umodsys.mod.ui.frames.obj
 0001:00017930       ?set_lcount@RFrame_List@frames@ui@modules@UModSys@@UAE_NH@Z 10018930 f   umodsys_lib_libui:umodsys.mod.ui.frames.obj
 0001:00017970       ?controller_update@RFrame_List@frames@ui@modules@UModSys@@UAE_NXZ 10018970 f   umodsys_lib_libui:umodsys.mod.ui.frames.obj
 0001:00017a60       ?set_fcp@RFrame_List@frames@ui@modules@UModSys@@MAE_NABUSFrameCreateParameters@libui@5@PBUSParameters@core@5@@Z 10018a60 f   umodsys_lib_libui:umodsys.mod.ui.frames.obj
 0001:00017b60       ??1RFrame_Edit@frames@ui@modules@UModSys@@UAE@XZ 10018b60 f   umodsys_lib_libui:umodsys.mod.ui.frames.obj
 0001:00017bf0       ??0RFrame_Edit@frames@ui@modules@UModSys@@QAE@PAURCollector@1234@PAURFrame_Common@1234@@Z 10018bf0 f   umodsys_lib_libui:umodsys.mod.ui.frames.obj
 0001:00017d00       ?update_last@RFrame_Edit@frames@ui@modules@UModSys@@IAE_NXZ 10018d00 f   umodsys_lib_libui:umodsys.mod.ui.frames.obj
 0001:00017d60       ?get_value@RFrame_Edit@frames@ui@modules@UModSys@@UAE_NHABUSFrameDataOut@libui@5@@Z 10018d60 f   umodsys_lib_libui:umodsys.mod.ui.frames.obj
 0001:00017de0       ?set_fcp@RFrame_Edit@frames@ui@modules@UModSys@@MAE_NABUSFrameCreateParameters@libui@5@PBUSParameters@core@5@@Z 10018de0 f   umodsys_lib_libui:umodsys.mod.ui.frames.obj
 0001:00017e50       ??0RFrame_Button@frames@ui@modules@UModSys@@QAE@PAURCollector@1234@PAURFrame_Common@1234@@Z 10018e50 f   umodsys_lib_libui:umodsys.mod.ui.frames.obj
 0001:00017f70       ?set_fcp@RFrame_Button@frames@ui@modules@UModSys@@MAE_NABUSFrameCreateParameters@libui@5@PBUSParameters@core@5@@Z 10018f70 f   umodsys_lib_libui:umodsys.mod.ui.frames.obj
 0001:00017ff0       ?button_draw@RFrame_Button@frames@ui@modules@UModSys@@MAE_NPAUSButton@2345@ABUSDrawState@2345@H@Z 10018ff0 f   umodsys_lib_libui:umodsys.mod.ui.frames.obj
 0001:000180e0       ??0RFrame_Image@frames@ui@modules@UModSys@@QAE@PAURCollector@1234@PAURFrame_Common@1234@@Z 100190e0 f   umodsys_lib_libui:umodsys.mod.ui.frames.obj
 0001:00018170       ?set_fcp@RFrame_Image@frames@ui@modules@UModSys@@MAE_NABUSFrameCreateParameters@libui@5@PBUSParameters@core@5@@Z 10019170 f   umodsys_lib_libui:umodsys.mod.ui.frames.obj
 0001:000181d0       ??0RFrame_Text@frames@ui@modules@UModSys@@QAE@PAURCollector@1234@PAURFrame_Common@1234@@Z 100191d0 f   umodsys_lib_libui:umodsys.mod.ui.frames.obj
 0001:000182c0       ?set_value@RFrame_Text@frames@ui@modules@UModSys@@UAE_NHABUSFrameDataIn@libui@5@@Z 100192c0 f   umodsys_lib_libui:umodsys.mod.ui.frames.obj
 0001:00018330       ?set_fcp@RFrame_Text@frames@ui@modules@UModSys@@MAE_NABUSFrameCreateParameters@libui@5@PBUSParameters@core@5@@Z 10019330 f   umodsys_lib_libui:umodsys.mod.ui.frames.obj
 0001:000183b0       ?draw_post@RFrame_Text@frames@ui@modules@UModSys@@MAE_NABUSDrawState@2345@@Z 100193b0 f   umodsys_lib_libui:umodsys.mod.ui.frames.obj
 0001:00018560       ??0RFrame_Frame@frames@ui@modules@UModSys@@QAE@PAURCollector@1234@PAURFrame_Common@1234@@Z 10019560 f   umodsys_lib_libui:umodsys.mod.ui.frames.obj
 0001:000185e0       ??1RFrame_List@frames@ui@modules@UModSys@@UAE@XZ 100195e0 f   umodsys_lib_libui:umodsys.mod.ui.frames.obj
 0001:00018660       ??0RFrame_List@frames@ui@modules@UModSys@@QAE@PAURCollector@1234@PAURFrame_Common@1234@@Z 10019660 f   umodsys_lib_libui:umodsys.mod.ui.frames.obj
 0001:00018810       ?get_lvalue@RFrame_List@frames@ui@modules@UModSys@@UAE_NHHABUSFrameDataOut@libui@5@@Z 10019810 f   umodsys_lib_libui:umodsys.mod.ui.frames.obj
 0001:000188a0       ?get_value@RFrame_Text@frames@ui@modules@UModSys@@UAE_NHABUSFrameDataOut@libui@5@@Z 100198a0 f   umodsys_lib_libui:umodsys.mod.ui.frames.obj
 0001:00018910       ?frame_create_s@RCollector@frames@ui@modules@UModSys@@UAEPAUIFrame@libui@5@ABU?$TString@U?$TSCoreConst@D@su@tl@UModSys@@U?$TComparerBinaryHash@D@234@@tl@5@ABUSFrameCreateParameters@75@PBUSParameters@core@5@@Z 10019910 f   umodsys_lib_libui:umodsys.mod.ui.frames.obj
 0001:00018c10       ?frame_create_n@RCollector@frames@ui@modules@UModSys@@UAEPAUIFrame@libui@5@HABUSFrameCreateParameters@75@PBUSParameters@core@5@@Z 10019c10 f   umodsys_lib_libui:umodsys.mod.ui.frames.obj
 0001:00018e60       ?mod_dec@RGenerator@SDL_core@ui@modules@UModSys@@UBE_NXZ 10019e60 f   umodsys_lib_libui:umodsys.mod.ui.SDL_core.obj
 0001:00018e70       ?mod_inc@RGenerator@SDL_core@ui@modules@UModSys@@UBE_NXZ 10019e70 f   umodsys_lib_libui:umodsys.mod.ui.SDL_core.obj
 0001:00018e80       ?get_module@RGenerator@SDL_core@ui@modules@UModSys@@UBEPAUIModule@base@5@XZ 10019e80 f   umodsys_lib_libui:umodsys.mod.ui.SDL_core.obj
 0001:00018e90       ?open_drv3d@RTerminalX@SDL_core@ui@modules@UModSys@@UAEPAUIRenderDriver@lib3d@5@PBUSParameters@core@5@@Z 10019e90 f   umodsys_lib_libui:umodsys.mod.ui.SDL_core.obj
 0001:00018ea0       ?get_drv3d@RTerminalX@SDL_core@ui@modules@UModSys@@UBEPAUIRenderDriver@lib3d@5@XZ 10019ea0 f   umodsys_lib_libui:umodsys.mod.ui.SDL_core.obj
 0001:00018eb0       ?get_drv2d@RTerminalX@SDL_core@ui@modules@UModSys@@UBEPAUIRenderDriver@lib2d@5@XZ 10019eb0 f   umodsys_lib_libui:umodsys.mod.ui.SDL_core.obj
 0001:00018ec0       ?wait@RTerminal@SDL_core@ui@modules@UModSys@@UAE_NM@Z 10019ec0 f   umodsys_lib_libui:umodsys.mod.ui.SDL_core.obj
 0001:00018f00       ?get_clock@RTerminal@SDL_core@ui@modules@UModSys@@UAENXZ 10019f00 f   umodsys_lib_libui:umodsys.mod.ui.SDL_core.obj
 0001:00018f20       ?set_terminal_state@RTerminal@SDL_core@ui@modules@UModSys@@UAE_NW4eTerminalState@libui@5@_N@Z 10019f20 f   umodsys_lib_libui:umodsys.mod.ui.SDL_core.obj
 0001:00018f80       ?get_terminal_state@RTerminal@SDL_core@ui@modules@UModSys@@UAE_NW4eTerminalState@libui@5@@Z 10019f80 f   umodsys_lib_libui:umodsys.mod.ui.SDL_core.obj
 0001:00018fa0       ?key_setvisible@RKeyboardController@SDL_core@ui@modules@UModSys@@UAE_N_N@Z 10019fa0 f   umodsys_lib_libui:umodsys.mod.ui.SDL_core.obj
 0001:00018fc0       ?key_reset@RKeyboardController@SDL_core@ui@modules@UModSys@@UAE_NXZ 10019fc0 f   umodsys_lib_libui:umodsys.mod.ui.SDL_core.obj
 0001:00018fd0       ?key_setrepeat@RKeyboardController@SDL_core@ui@modules@UModSys@@UAE_NMM@Z 10019fd0 f   umodsys_lib_libui:umodsys.mod.ui.SDL_core.obj
 0001:00018fe0       ?key_setmodifier@RKeyboardController@SDL_core@ui@modules@UModSys@@UAE_NHHH@Z 10019fe0 f   umodsys_lib_libui:umodsys.mod.ui.SDL_core.obj
 0001:00018ff0       ?map_keyspecial@RKeyboardController@SDL_core@ui@modules@UModSys@@QAEFG@Z 10019ff0 f   umodsys_lib_libui:umodsys.mod.ui.SDL_core.obj
 0001:00019070       ?map_keyoscode@RKeyboardController@SDL_core@ui@modules@UModSys@@QAEFW4SDL_Scancode@@@Z 1001a070 f   umodsys_lib_libui:umodsys.mod.ui.SDL_core.obj
 0001:00019080       ?map_keystatus@RKeyboardController@SDL_core@ui@modules@UModSys@@QAEFEE@Z 1001a080 f   umodsys_lib_libui:umodsys.mod.ui.SDL_core.obj
 0001:00019090       ?map_keycode@RKeyboardController@SDL_core@ui@modules@UModSys@@QAE?AW4eKeyCode@libui@5@H@Z 1001a090 f   umodsys_lib_libui:umodsys.mod.ui.SDL_core.obj
 0001:000195d0       ?mouse_setposition@RMouseController@SDL_core@ui@modules@UModSys@@UAE_NHH@Z 1001a5d0 f   umodsys_lib_libui:umodsys.mod.ui.SDL_core.obj
 0001:000195e0       ?mouse_setvisible@RMouseController@SDL_core@ui@modules@UModSys@@UAE_N_N@Z 1001a5e0 f   umodsys_lib_libui:umodsys.mod.ui.SDL_core.obj
 0001:00019620       ?mouse_reset@RMouseController@SDL_core@ui@modules@UModSys@@UAE_NXZ 1001a620 f   umodsys_lib_libui:umodsys.mod.ui.SDL_core.obj
 0001:00019630       ?set_parameters@RRenderDriver2D@SDL_core@ui@modules@UModSys@@UAE_NPBDABUSParameters@core@5@@Z 1001a630 f   umodsys_lib_libui:umodsys.mod.ui.SDL_core.obj
 0001:00019640       ?get_frame_values@RRenderDriver2D@SDL_core@ui@modules@UModSys@@UBEPBUSParameters@core@5@XZ 1001a640 f   umodsys_lib_libui:umodsys.mod.ui.SDL_core.obj
 0001:00019650       ?get_max_values@RRenderDriver2D@SDL_core@ui@modules@UModSys@@UBEPBUSParameters@core@5@XZ 1001a650 f   umodsys_lib_libui:umodsys.mod.ui.SDL_core.obj
 0001:00019660       ?get_controller@RRenderDriver2D@SDL_core@ui@modules@UModSys@@UBEPAUIRefObject@core@5@PBUSUniquePointerInfo@75@@Z 1001a660 f   umodsys_lib_libui:umodsys.mod.ui.SDL_core.obj
 0001:00019670       ?get_terminal@RRenderDriver2D@SDL_core@ui@modules@UModSys@@UBEPAUITerminal@libui@5@XZ 1001a670 f   umodsys_lib_libui:umodsys.mod.ui.SDL_core.obj
 0001:00019680       ?kill_texture@RMultiImage2D_SDL_ttf@SDL_core@ui@modules@UModSys@@SAXAAPAUSDL_Texture@@@Z 1001a680 f   umodsys_lib_libui:umodsys.mod.ui.SDL_core.obj
 0001:000196a0       ?close@RMultiImage2D_SDL_ttf@SDL_core@ui@modules@UModSys@@QAEXXZ 1001a6a0 f   umodsys_lib_libui:umodsys.mod.ui.SDL_core.obj
 0001:000196c0       ?close@SWindow@SDL_core@ui@modules@UModSys@@QAEXXZ 1001a6c0 f   umodsys_lib_libui:umodsys.mod.ui.SDL_core.obj
 0001:000196e0       ??1SWindow@SDL_core@ui@modules@UModSys@@QAE@XZ 1001a6e0 f   umodsys_lib_libui:umodsys.mod.ui.SDL_core.obj
 0001:000196f0       ??0SWindow@SDL_core@ui@modules@UModSys@@QAE@XZ 1001a6f0 f   umodsys_lib_libui:umodsys.mod.ui.SDL_core.obj
 0001:00019720       ?s_holder@RGenerator@SDL_core@ui@modules@UModSys@@SAAAU?$TTypeStaticHolder@URGenerator@SDL_core@ui@modules@UModSys@@@tl@5@XZ 1001a720 f   umodsys_lib_libui:umodsys.mod.ui.SDL_core.obj
 0001:00019760       ?process@RKeyboardController@SDL_core@ui@modules@UModSys@@QAE_NAAUSDL_TextInputEvent@@@Z 1001a760 f   umodsys_lib_libui:umodsys.mod.ui.SDL_core.obj
 0001:00019850       ?process@RKeyboardController@SDL_core@ui@modules@UModSys@@QAE_NAAUSDL_KeyboardEvent@@@Z 1001a850 f   umodsys_lib_libui:umodsys.mod.ui.SDL_core.obj
 0001:00019930       ?process@RMouseController@SDL_core@ui@modules@UModSys@@QAE_NAAUSDL_MouseWheelEvent@@@Z 1001a930 f   umodsys_lib_libui:umodsys.mod.ui.SDL_core.obj
 0001:00019a40       ?process@RMouseController@SDL_core@ui@modules@UModSys@@QAE_NAAUSDL_MouseButtonEvent@@@Z 1001aa40 f   umodsys_lib_libui:umodsys.mod.ui.SDL_core.obj
 0001:00019b70       ?process@RMouseController@SDL_core@ui@modules@UModSys@@QAE_NAAUSDL_MouseMotionEvent@@@Z 1001ab70 f   umodsys_lib_libui:umodsys.mod.ui.SDL_core.obj
 0001:00019cc0       ?render_line@RRenderDriver2D@SDL_core@ui@modules@UModSys@@UAEXABU?$TVector2@H@math3d@5@0@Z 1001acc0 f   umodsys_lib_libui:umodsys.mod.ui.SDL_core.obj
 0001:00019cf0       ?render_box@RRenderDriver2D@SDL_core@ui@modules@UModSys@@UAEXPAUIImage@lib2d@5@ABU?$TVector2@H@math3d@5@1ABU?$TVector2@M@95@2@Z 1001acf0 f   umodsys_lib_libui:umodsys.mod.ui.SDL_core.obj
 0001:00019d00       ?end@RRenderDriver2D@SDL_core@ui@modules@UModSys@@UAEXXZ 1001ad00 f   umodsys_lib_libui:umodsys.mod.ui.SDL_core.obj
 0001:00019d10       ?begin@RRenderDriver2D@SDL_core@ui@modules@UModSys@@UAEXXZ 1001ad10 f   umodsys_lib_libui:umodsys.mod.ui.SDL_core.obj
 0001:00019df0       ?new_picture@RRenderDriver2D@SDL_core@ui@modules@UModSys@@UAE?AU?$TRefObject@UIImage@lib2d@UModSys@@U?$TRefObjectFunc@UIImage@lib2d@UModSys@@@tl@3@@tl@5@ABUSParameters@core@5@ABU?$TString@U?$TSCoreConst@D@su@tl@UModSys@@U?$TComparerBinaryHash@D@234@@75@@Z 1001adf0 f   umodsys_lib_libui:umodsys.mod.ui.SDL_core.obj
 0001:00019e10       ?set_color@RRenderDriver2D@SDL_core@ui@modules@UModSys@@QAEXXZ 1001ae10 f   umodsys_lib_libui:umodsys.mod.ui.SDL_core.obj
 0001:00019f00       ?close@RRenderDriver2D@SDL_core@ui@modules@UModSys@@QAEXXZ 1001af00 f   umodsys_lib_libui:umodsys.mod.ui.SDL_core.obj
 0001:00019f30       ?new_texture@RMultiImage2D_SDL_ttf@SDL_core@ui@modules@UModSys@@SA_NAAPAUSDL_Texture@@PAUSDL_Surface@@PAURRenderDriver2D@2345@@Z 1001af30 f   umodsys_lib_libui:umodsys.mod.ui.SDL_core.obj
 0001:00019f60       ?open@SWindow@SDL_core@ui@modules@UModSys@@QAE_NABUSParameters@core@5@@Z 1001af60 f   umodsys_lib_libui:umodsys.mod.ui.SDL_core.obj
 0001:0001a010       ?s_unreg@RGenerator@SDL_core@ui@modules@UModSys@@SA_NPAUIModuleReg@base@5@@Z 1001b010 f   umodsys_lib_libui:umodsys.mod.ui.SDL_core.obj
 0001:0001a060       ?s_reg@RGenerator@SDL_core@ui@modules@UModSys@@SA_NPAUIModuleReg@base@5@@Z 1001b060 f   umodsys_lib_libui:umodsys.mod.ui.SDL_core.obj
 0001:0001a0e0       ?close_drvxd@RTerminalX@SDL_core@ui@modules@UModSys@@UAE_NXZ 1001b0e0 f   umodsys_lib_libui:umodsys.mod.ui.SDL_core.obj
 0001:0001a0f0       ?create_handler@RTerminal@SDL_core@ui@modules@UModSys@@UAE_NPBUSUniquePointerInfo@core@5@AAU?$TRefObject@UIRefObject@core@UModSys@@U?$TRefObjectFunc@UIRefObject@core@UModSys@@@tl@3@@tl@5@PBDPBUSParameters@75@@Z 1001b0f0 f   umodsys_lib_libui:umodsys.mod.ui.SDL_core.obj
 0001:0001a1b0       ?get_friend_handler@RTerminal@SDL_core@ui@modules@UModSys@@UBEPAUIRefObject@core@5@PBUSUniquePointerInfo@75@PAU675@@Z 1001b1b0 f   umodsys_lib_libui:umodsys.mod.ui.SDL_core.obj
 0001:0001a1c0       ?get_handler@RTerminal@SDL_core@ui@modules@UModSys@@UBEPAUIRefObject@core@5@PBUSUniquePointerInfo@75@PBD@Z 1001b1c0 f   umodsys_lib_libui:umodsys.mod.ui.SDL_core.obj
 0001:0001a1d0       ?get_handler@RTerminal@SDL_core@ui@modules@UModSys@@UBEPAUIRefObject@core@5@PBUSUniquePointerInfo@75@I@Z 1001b1d0 f   umodsys_lib_libui:umodsys.mod.ui.SDL_core.obj
 0001:0001a240       ?get_count@RTerminal@SDL_core@ui@modules@UModSys@@UBEIPBUSUniquePointerInfo@core@5@@Z 1001b240 f   umodsys_lib_libui:umodsys.mod.ui.SDL_core.obj
 0001:0001a2a0       ?poll_events@RTerminal@SDL_core@ui@modules@UModSys@@UAE_NH@Z 1001b2a0 f   umodsys_lib_libui:umodsys.mod.ui.SDL_core.obj
 0001:0001a3c0       ?key_unlink@RKeyboardController@SDL_core@ui@modules@UModSys@@UAE_NH@Z 1001b3c0 f   umodsys_lib_libui:umodsys.mod.ui.SDL_core.obj
 0001:0001a400       ?mouse_unlink@RMouseController@SDL_core@ui@modules@UModSys@@UAE_NH@Z 1001b400 f   umodsys_lib_libui:umodsys.mod.ui.SDL_core.obj
 0001:0001a440       ?render_rect@RRenderDriver2D@SDL_core@ui@modules@UModSys@@UAEXABU?$TVector2@H@math3d@5@0@Z 1001b440 f   umodsys_lib_libui:umodsys.mod.ui.SDL_core.obj
 0001:0001a490       ?render_quad@RRenderDriver2D@SDL_core@ui@modules@UModSys@@UAEXABU?$TVector2@H@math3d@5@000@Z 1001b490 f   umodsys_lib_libui:umodsys.mod.ui.SDL_core.obj
 0001:0001a510       ?render_tri@RRenderDriver2D@SDL_core@ui@modules@UModSys@@UAEXABU?$TVector2@H@math3d@5@00@Z 1001b510 f   umodsys_lib_libui:umodsys.mod.ui.SDL_core.obj
 0001:0001a580       ?render_box@RRenderDriver2D@SDL_core@ui@modules@UModSys@@UAEXABU?$TVector2@H@math3d@5@0@Z 1001b580 f   umodsys_lib_libui:umodsys.mod.ui.SDL_core.obj
 0001:0001a5d0       ?setup_alpha@RRenderDriver2D@SDL_core@ui@modules@UModSys@@UAEXMH@Z 1001b5d0 f   umodsys_lib_libui:umodsys.mod.ui.SDL_core.obj
 0001:0001a5f0       ?setup_alpha@RRenderDriver2D@SDL_core@ui@modules@UModSys@@UAEXHH@Z 1001b5f0 f   umodsys_lib_libui:umodsys.mod.ui.SDL_core.obj
 0001:0001a620       ?setup_blendcolor@RRenderDriver2D@SDL_core@ui@modules@UModSys@@UAEXABUSBlendColorf@lib2d@5@@Z 1001b620 f   umodsys_lib_libui:umodsys.mod.ui.SDL_core.obj
 0001:0001a680       ?setup_blendcolor@RRenderDriver2D@SDL_core@ui@modules@UModSys@@UAEXABUSBlendColor@lib2d@5@@Z 1001b680 f   umodsys_lib_libui:umodsys.mod.ui.SDL_core.obj
 0001:0001a6e0       ?setup_coloralpha@RRenderDriver2D@SDL_core@ui@modules@UModSys@@UAEXABU?$TVector4@H@math3d@5@H@Z 1001b6e0 f   umodsys_lib_libui:umodsys.mod.ui.SDL_core.obj
 0001:0001a740       ?setup_coloralpha@RRenderDriver2D@SDL_core@ui@modules@UModSys@@UAEXABU?$TVector4@M@math3d@5@H@Z 1001b740 f   umodsys_lib_libui:umodsys.mod.ui.SDL_core.obj
 0001:0001a780       ?setup_color@RRenderDriver2D@SDL_core@ui@modules@UModSys@@UAEXABU?$TVector3@H@math3d@5@@Z 1001b780 f   umodsys_lib_libui:umodsys.mod.ui.SDL_core.obj
 0001:0001a7d0       ?setup_color@RRenderDriver2D@SDL_core@ui@modules@UModSys@@UAEXABU?$TVector3@M@math3d@5@@Z 1001b7d0 f   umodsys_lib_libui:umodsys.mod.ui.SDL_core.obj
 0001:0001a800       ?setup_font@RRenderDriver2D@SDL_core@ui@modules@UModSys@@UAE_NPAUIMultiImage@lib2d@5@PBU?$TVector2@M@math3d@5@@Z 1001b800 f   umodsys_lib_libui:umodsys.mod.ui.SDL_core.obj
 0001:0001a860       ?open@RRenderDriver2D@SDL_core@ui@modules@UModSys@@QAE_NABUSParameters@core@5@@Z 1001b860 f   umodsys_lib_libui:umodsys.mod.ui.SDL_core.obj
 0001:0001a910       ??1RRenderDriver2D@SDL_core@ui@modules@UModSys@@UAE@XZ 1001b910 f   umodsys_lib_libui:umodsys.mod.ui.SDL_core.obj
 0001:0001a9d0       ?generate_glyphs@RMultiImage2D_SDL_ttf@SDL_core@ui@modules@UModSys@@QAE_NXZ 1001b9d0 f   umodsys_lib_libui:umodsys.mod.ui.SDL_core.obj
 0001:0001aae0       ?open@RMultiImage2D_SDL_ttf@SDL_core@ui@modules@UModSys@@QAE_NABUSParameters@core@5@@Z 1001bae0 f   umodsys_lib_libui:umodsys.mod.ui.SDL_core.obj
 0001:0001ab90       ??1RMultiImage2D_SDL_ttf@SDL_core@ui@modules@UModSys@@UAE@XZ 1001bb90 f   umodsys_lib_libui:umodsys.mod.ui.SDL_core.obj
 0001:0001ac00       ??0RMultiImage2D_SDL_ttf@SDL_core@ui@modules@UModSys@@QAE@PAURRenderDriver2D@1234@ABUSParameters@core@4@@Z 1001bc00 f   umodsys_lib_libui:umodsys.mod.ui.SDL_core.obj
 0001:0001ac80       ?open_drv2d@RTerminalX@SDL_core@ui@modules@UModSys@@UAEPAUIRenderDriver@lib2d@5@PBUSParameters@core@5@@Z 1001bc80 f   umodsys_lib_libui:umodsys.mod.ui.SDL_core.obj
 0001:0001aca0       ?key_link@RKeyboardController@SDL_core@ui@modules@UModSys@@UAE_NHPAUIRefObject@core@5@PAUIKeyboardClient@libui@5@@Z 1001bca0 f   umodsys_lib_libui:umodsys.mod.ui.SDL_core.obj
 0001:0001acf0       ??1RKeyboardController@SDL_core@ui@modules@UModSys@@UAE@XZ 1001bcf0 f   umodsys_lib_libui:umodsys.mod.ui.SDL_core.obj
 0001:0001ad50       ??0RKeyboardController@SDL_core@ui@modules@UModSys@@QAE@PAURTerminal@1234@@Z 1001bd50 f   umodsys_lib_libui:umodsys.mod.ui.SDL_core.obj
 0001:0001ad70       ?mouse_link@RMouseController@SDL_core@ui@modules@UModSys@@UAE_NHPAUIRefObject@core@5@PAUIMouseClient@libui@5@H@Z 1001bd70 f   umodsys_lib_libui:umodsys.mod.ui.SDL_core.obj
 0001:0001add0       ??1RMouseController@SDL_core@ui@modules@UModSys@@UAE@XZ 1001bdd0 f   umodsys_lib_libui:umodsys.mod.ui.SDL_core.obj
 0001:0001ae30       ??0RMouseController@SDL_core@ui@modules@UModSys@@QAE@PAURTerminal@1234@@Z 1001be30 f   umodsys_lib_libui:umodsys.mod.ui.SDL_core.obj
 0001:0001ae50       ?render_text_advanced@RRenderDriver2D@SDL_core@ui@modules@UModSys@@UAE_NAAUTextInfo@IRenderDriver@lib2d@5@PBHH@Z 1001be50 f   umodsys_lib_libui:umodsys.mod.ui.SDL_core.obj
 0001:0001b040       ?new_font@RRenderDriver2D@SDL_core@ui@modules@UModSys@@UAE?AU?$TRefObject@UIMultiImage@lib2d@UModSys@@U?$TRefObjectFunc@UIMultiImage@lib2d@UModSys@@@tl@3@@tl@5@ABUSParameters@core@5@ABU?$TString@U?$TSCoreConst@D@su@tl@UModSys@@U?$TComparerBinaryHash@D@234@@75@@Z 1001c040 f   umodsys_lib_libui:umodsys.mod.ui.SDL_core.obj
 0001:0001b140       ??1RTerminal@SDL_core@ui@modules@UModSys@@UAE@XZ 1001c140 f   umodsys_lib_libui:umodsys.mod.ui.SDL_core.obj
 0001:0001b1b0       ??0RTerminal@SDL_core@ui@modules@UModSys@@QAE@PAUIModObject@base@4@@Z 1001c1b0 f   umodsys_lib_libui:umodsys.mod.ui.SDL_core.obj
 0001:0001b240       ??0RRenderDriver2D@SDL_core@ui@modules@UModSys@@QAE@PAURTerminalX@1234@@Z 1001c240 f   umodsys_lib_libui:umodsys.mod.ui.SDL_core.obj
 0001:0001b330       ??1RTerminalX@SDL_core@ui@modules@UModSys@@UAE@XZ 1001c330 f   umodsys_lib_libui:umodsys.mod.ui.SDL_core.obj
 0001:0001b390       ??0RTerminalX@SDL_core@ui@modules@UModSys@@QAE@PAUIModObject@base@4@ABUSParameters@core@4@@Z 1001c390 f   umodsys_lib_libui:umodsys.mod.ui.SDL_core.obj
 0001:0001b400       ?mod_dec@RGenerator@SDL_GL@ui@modules@UModSys@@UBE_NXZ 1001c400 f   umodsys_lib_libui:umodsys.mod.ui.SDL_GL.obj
 0001:0001b410       ?mod_inc@RGenerator@SDL_GL@ui@modules@UModSys@@UBE_NXZ 1001c410 f   umodsys_lib_libui:umodsys.mod.ui.SDL_GL.obj
 0001:0001b420       ?get_module@RGenerator@SDL_GL@ui@modules@UModSys@@UBEPAUIModule@base@5@XZ 1001c420 f   umodsys_lib_libui:umodsys.mod.ui.SDL_GL.obj
 0001:0001b430       ?h_Rect@SGLFuncs@SDL_GL@ui@modules@UModSys@@UBEXHHHH@Z 1001c430 f   umodsys_lib_libui:umodsys.mod.ui.SDL_GL.obj
 0001:0001b440       ?h_glColor4fv@SGLFuncs@SDL_GL@ui@modules@UModSys@@UBEXQBM@Z 1001c440 f   umodsys_lib_libui:umodsys.mod.ui.SDL_GL.obj
 0001:0001b460       ?h_glClientActiveTexture@SGLFuncs@SDL_GL@ui@modules@UModSys@@UBEXH@Z 1001c460 f   umodsys_lib_libui:umodsys.mod.ui.SDL_GL.obj
 0001:0001b470       ?image_hint_format@SGLFuncs@SDL_GL@ui@modules@UModSys@@SAHW4eImageType@lib2d@5@AAH1@Z 1001c470 f   umodsys_lib_libui:umodsys.mod.ui.SDL_GL.obj
 0001:0001b4f0       ?clear_min@SGLFuncsLegacy@SDL_GL@ui@modules@UModSys@@QAEXXZ 1001c4f0 f   umodsys_lib_libui:umodsys.mod.ui.SDL_GL.obj
 0001:0001c030       ?check_base@SGLFuncs@SDL_GL@ui@modules@UModSys@@QAE_NPBD@Z 1001d030 f   umodsys_lib_libui:umodsys.mod.ui.SDL_GL.obj
 0001:0001c0e0       ?clear_min@SGLFuncs@SDL_GL@ui@modules@UModSys@@QAEXXZ 1001d0e0 f   umodsys_lib_libui:umodsys.mod.ui.SDL_GL.obj
 0001:0001f4d0       ?get_drv3d@RTerminalX@SDL_GL@ui@modules@UModSys@@UBEPAUIRenderDriver@lib3d@5@XZ 100204d0 f   umodsys_lib_libui:umodsys.mod.ui.SDL_GL.obj
 0001:0001f4e0       ?get_drv2d@RTerminalX@SDL_GL@ui@modules@UModSys@@UBEPAUIRenderDriver@lib2d@5@XZ 100204e0 f   umodsys_lib_libui:umodsys.mod.ui.SDL_GL.obj
 0001:0001f4f0       ?check_single@SArrayFill@RVertexArray@SDL_GL@ui@modules@UModSys@@QAE_NABUSVertexElemInfo@lib3d@6@@Z 100204f0 f   umodsys_lib_libui:umodsys.mod.ui.SDL_GL.obj
 0001:0001f5a0       ?check@SArrayFill@RVertexArray@SDL_GL@ui@modules@UModSys@@QAE_NAAUSVertexElemInfo@lib3d@6@_N@Z 100205a0 f   umodsys_lib_libui:umodsys.mod.ui.SDL_GL.obj
 0001:0001f600       ?clear@SArrayFill@RVertexArray@SDL_GL@ui@modules@UModSys@@QAEXXZ 10020600 f   umodsys_lib_libui:umodsys.mod.ui.SDL_GL.obj
 0001:0001f630       ?get_layer_vdata@RVertexArray@SDL_GL@ui@modules@UModSys@@UBE_NW4eVertexAType@lib3d@5@PAXHHH@Z 10020630 f   umodsys_lib_libui:umodsys.mod.ui.SDL_GL.obj
 0001:0001f670       ?get_layer_count@RVertexArray@SDL_GL@ui@modules@UModSys@@UBEHXZ 10020670 f   umodsys_lib_libui:umodsys.mod.ui.SDL_GL.obj
 0001:0001f680       ?get_array_count@RVertexArray@SDL_GL@ui@modules@UModSys@@UBEHXZ 10020680 f   umodsys_lib_libui:umodsys.mod.ui.SDL_GL.obj
 0001:0001f690       ?is_valid@RVertexArray@SDL_GL@ui@modules@UModSys@@UBE_NXZ 10020690 f   umodsys_lib_libui:umodsys.mod.ui.SDL_GL.obj
 0001:0001f6a0       ?StrideConvert@RVertexArray@SDL_GL@ui@modules@UModSys@@SA_NW4eVertexAType@lib3d@5@EPAXH0EPBXHH@Z 100206a0 f   umodsys_lib_libui:umodsys.mod.ui.SDL_GL.obj
 0001:0001f6f0       ?Upload@RVertexArray@SDL_GL@ui@modules@UModSys@@QAE_NPBXI@Z 100206f0 f   umodsys_lib_libui:umodsys.mod.ui.SDL_GL.obj
 0001:0001f750       ?gl_type@RVertexArray@SDL_GL@ui@modules@UModSys@@SAIW4eVertexAType@lib3d@5@@Z 10020750 f   umodsys_lib_libui:umodsys.mod.ui.SDL_GL.obj
 0001:0001f7b0       ?setup_state@RRenderDriver3D@SDL_GL@ui@modules@UModSys@@UAE_NABUSRenderState@lib3d@5@@Z 100207b0 f   umodsys_lib_libui:umodsys.mod.ui.SDL_GL.obj
 0001:0001f7c0       ?render_text_3d@RRenderDriver3D@SDL_GL@ui@modules@UModSys@@UAEXPBHH@Z 100207c0 f   umodsys_lib_libui:umodsys.mod.ui.SDL_GL.obj
 0001:0001f7d0       ?render_particles@RRenderDriver3D@SDL_GL@ui@modules@UModSys@@UAEXPBUSObjectParticle@lib3d@5@@Z 100207d0 f   umodsys_lib_libui:umodsys.mod.ui.SDL_GL.obj
 0001:0001f7e0       ?render_picture@RRenderDriver3D@SDL_GL@ui@modules@UModSys@@UAEXABUSPicture@lib3d@5@0M@Z 100207e0 f   umodsys_lib_libui:umodsys.mod.ui.SDL_GL.obj
 0001:0001f7f0       ?render_picture@RRenderDriver3D@SDL_GL@ui@modules@UModSys@@UAEXABUSPicture@lib3d@5@@Z 100207f0 f   umodsys_lib_libui:umodsys.mod.ui.SDL_GL.obj
 0001:0001f800       ?setup_array_none@RRenderDriver3D@SDL_GL@ui@modules@UModSys@@UAE_NXZ 10020800 f   umodsys_lib_libui:umodsys.mod.ui.SDL_GL.obj
 0001:0001f810       ?setup_array@RRenderDriver3D@SDL_GL@ui@modules@UModSys@@UAE_NPAUIVertexArray@lib3d@5@W4eVertexClass@75@H@Z 10020810 f   umodsys_lib_libui:umodsys.mod.ui.SDL_GL.obj
 0001:0001f820       ?setup_setlight@RRenderDriver3D@SDL_GL@ui@modules@UModSys@@UAE_NH_N@Z 10020820 f   umodsys_lib_libui:umodsys.mod.ui.SDL_GL.obj
 0001:0001f830       ?setup_setlight@RRenderDriver3D@SDL_GL@ui@modules@UModSys@@UAE_NHW4eLightType@lib3d@5@ABUSLight@75@ABU?$TMatrix44@N@math3d@5@@Z 10020830 f   umodsys_lib_libui:umodsys.mod.ui.SDL_GL.obj
 0001:0001f840       ?setup_addlight@RRenderDriver3D@SDL_GL@ui@modules@UModSys@@UAEHW4eLightType@lib3d@5@ABUSLight@75@ABU?$TMatrix44@N@math3d@5@@Z 10020840 f   umodsys_lib_libui:umodsys.mod.ui.SDL_GL.obj
 0001:0001f850       ?setup_clearlights@RRenderDriver3D@SDL_GL@ui@modules@UModSys@@UAE_NW4eLightType@lib3d@5@_N1@Z 10020850 f   umodsys_lib_libui:umodsys.mod.ui.SDL_GL.obj
 0001:0001f860       ?camera_ortho@RRenderDriver3D@SDL_GL@ui@modules@UModSys@@UAE_NABU?$TVector3@N@math3d@5@0@Z 10020860 f   umodsys_lib_libui:umodsys.mod.ui.SDL_GL.obj
 0001:0001f920       ?SetFrustum@RRenderDriver3D@SDL_GL@ui@modules@UModSys@@QAE_NABU?$TVector3@N@math3d@5@NNNN_N@Z 10020920 f   umodsys_lib_libui:umodsys.mod.ui.SDL_GL.obj
 0001:0001fa40       ?SetColor@RRenderDriver3D@SDL_GL@ui@modules@UModSys@@QAEXXZ 10020a40 f   umodsys_lib_libui:umodsys.mod.ui.SDL_GL.obj
 0001:0001fa50       ?map_3d_to_2d@RRenderDriver3D@SDL_GL@ui@modules@UModSys@@UAE_NAAU?$TVector2@H@math3d@5@ABU?$TVector2@M@75@@Z 10020a50 f   umodsys_lib_libui:umodsys.mod.ui.SDL_GL.obj
 0001:0001fa60       ?map_3d_to_2d@RRenderDriver3D@SDL_GL@ui@modules@UModSys@@UAE_NAAU?$TVector2@H@math3d@5@ABU?$TVector3@N@75@@Z 10020a60 f   umodsys_lib_libui:umodsys.mod.ui.SDL_GL.obj
 0001:0001fa70       ?map_2d_to_3d@RRenderDriver3D@SDL_GL@ui@modules@UModSys@@UAE_NAAU?$TVector3@N@math3d@5@ABU?$TVector2@H@75@@Z 10020a70 f   umodsys_lib_libui:umodsys.mod.ui.SDL_GL.obj
 0001:0001fa80       ?create_texcells@RRenderDriver3D@SDL_GL@ui@modules@UModSys@@UAE?AU?$TRefObject@UITextureCells@lib3d@UModSys@@U?$TRefObjectFunc@UITextureCells@lib3d@UModSys@@@tl@3@@tl@5@XZ 10020a80 f   umodsys_lib_libui:umodsys.mod.ui.SDL_GL.obj
 0001:0001faa0       ?driver_is_reset@RRenderDriver3D@SDL_GL@ui@modules@UModSys@@UAE_NXZ 10020aa0 f   umodsys_lib_libui:umodsys.mod.ui.SDL_GL.obj
 0001:0001fab0       ?set_parameters@RRenderDriver3D@SDL_GL@ui@modules@UModSys@@UAE_NPBDABUSParameters@core@5@@Z 10020ab0 f   umodsys_lib_libui:umodsys.mod.ui.SDL_GL.obj
 0001:0001fac0       ?get_frame_values@RRenderDriver3D@SDL_GL@ui@modules@UModSys@@UBEPBUSParameters@core@5@XZ 10020ac0 f   umodsys_lib_libui:umodsys.mod.ui.SDL_GL.obj
 0001:0001fad0       ?get_max_values@RRenderDriver3D@SDL_GL@ui@modules@UModSys@@UBEPBUSParameters@core@5@XZ 10020ad0 f   umodsys_lib_libui:umodsys.mod.ui.SDL_GL.obj
 0001:0001fae0       ?get_controller@RRenderDriver3D@SDL_GL@ui@modules@UModSys@@UBEPAUIRefObject@core@5@PBUSUniquePointerInfo@75@@Z 10020ae0 f   umodsys_lib_libui:umodsys.mod.ui.SDL_GL.obj
 0001:0001faf0       ?get_terminal@RRenderDriver3D@SDL_GL@ui@modules@UModSys@@UBEPAUITerminal@libui@5@XZ 10020af0 f   umodsys_lib_libui:umodsys.mod.ui.SDL_GL.obj
 0001:0001fb00       ?IsPhm@RRenderDriver3D@SDL_GL@ui@modules@UModSys@@QAE_NW4ePhaseMode@2345@@Z 10020b00 f   umodsys_lib_libui:umodsys.mod.ui.SDL_GL.obj
 0001:0001fb40       ?NextPhm@RRenderDriver3D@SDL_GL@ui@modules@UModSys@@QAE_NW4ePhaseMode@2345@@Z 10020b40 f   umodsys_lib_libui:umodsys.mod.ui.SDL_GL.obj
 0001:0001fba0       ?set_flags@RTextureGL@SDL_GL@ui@modules@UModSys@@UAE_NABUSRenderMapFlags@lib3d@5@@Z 10020ba0 f   umodsys_lib_libui:umodsys.mod.ui.SDL_GL.obj
 0001:0001fbb0       ?get_driver@RTextureGL@SDL_GL@ui@modules@UModSys@@UAEPAUIRenderDriver@lib3d@5@XZ 10020bb0 f   umodsys_lib_libui:umodsys.mod.ui.SDL_GL.obj
 0001:0001fbc0       ?get_hwcinfo@RTextureGL@SDL_GL@ui@modules@UModSys@@UBEPBXPBUSUniquePointerInfo@core@5@@Z 10020bc0 f   umodsys_lib_libui:umodsys.mod.ui.SDL_GL.obj
 0001:0001fbd0       ?get_data@RTextureGL@SDL_GL@ui@modules@UModSys@@UBE_NABUSImagePatchInfo@lib2d@5@ABUSMem@core@5@H@Z 10020bd0 f   umodsys_lib_libui:umodsys.mod.ui.SDL_GL.obj
 0001:0001fbe0       ?get_info@RTextureGL@SDL_GL@ui@modules@UModSys@@UBEABUSImageInfo@lib2d@5@XZ 10020be0 f   umodsys_lib_libui:umodsys.mod.ui.SDL_GL.obj
 0001:0001fbf0       ?set_mipmap@STextureGL@SDL_GL@ui@modules@UModSys@@QAEXXZ 10020bf0 f   umodsys_lib_libui:umodsys.mod.ui.SDL_GL.obj
 0001:0001fc10       ?clear@STextureGL@SDL_GL@ui@modules@UModSys@@QAEXXZ 10020c10 f   umodsys_lib_libui:umodsys.mod.ui.SDL_GL.obj
 0001:0001fc40       ?close@RMultiImage2D_SDL_ttf@SDL_GL@ui@modules@UModSys@@QAEXXZ 10020c40 f   umodsys_lib_libui:umodsys.mod.ui.SDL_GL.obj
 0001:0001fc60       ?wait@RTerminal@SDL_GL@ui@modules@UModSys@@UAE_NM@Z 10020c60 f   umodsys_lib_libui:umodsys.mod.ui.SDL_GL.obj
 0001:0001fca0       ?get_clock@RTerminal@SDL_GL@ui@modules@UModSys@@UAENXZ 10020ca0 f   umodsys_lib_libui:umodsys.mod.ui.SDL_GL.obj
 0001:0001fcc0       ?set_terminal_state@RTerminal@SDL_GL@ui@modules@UModSys@@UAE_NW4eTerminalState@libui@5@_N@Z 10020cc0 f   umodsys_lib_libui:umodsys.mod.ui.SDL_GL.obj
 0001:0001fd20       ?get_terminal_state@RTerminal@SDL_GL@ui@modules@UModSys@@UAE_NW4eTerminalState@libui@5@@Z 10020d20 f   umodsys_lib_libui:umodsys.mod.ui.SDL_GL.obj
 0001:0001fd40       ?mouse_setposition@RMouseController@SDL_GL@ui@modules@UModSys@@UAE_NHH@Z 10020d40 f   umodsys_lib_libui:umodsys.mod.ui.SDL_GL.obj
 0001:0001fd50       ?mouse_setvisible@RMouseController@SDL_GL@ui@modules@UModSys@@UAE_N_N@Z 10020d50 f   umodsys_lib_libui:umodsys.mod.ui.SDL_GL.obj
 0001:0001fd90       ?mouse_reset@RMouseController@SDL_GL@ui@modules@UModSys@@UAE_NXZ 10020d90 f   umodsys_lib_libui:umodsys.mod.ui.SDL_GL.obj
 0001:0001fda0       ?key_setvisible@RKeyboardController@SDL_GL@ui@modules@UModSys@@UAE_N_N@Z 10020da0 f   umodsys_lib_libui:umodsys.mod.ui.SDL_GL.obj
 0001:0001fdc0       ?key_reset@RKeyboardController@SDL_GL@ui@modules@UModSys@@UAE_NXZ 10020dc0 f   umodsys_lib_libui:umodsys.mod.ui.SDL_GL.obj
 0001:0001fdd0       ?key_setrepeat@RKeyboardController@SDL_GL@ui@modules@UModSys@@UAE_NMM@Z 10020dd0 f   umodsys_lib_libui:umodsys.mod.ui.SDL_GL.obj
 0001:0001fde0       ?key_setmodifier@RKeyboardController@SDL_GL@ui@modules@UModSys@@UAE_NHHH@Z 10020de0 f   umodsys_lib_libui:umodsys.mod.ui.SDL_GL.obj
 0001:0001fdf0       ?map_keyspecial@RKeyboardController@SDL_GL@ui@modules@UModSys@@QAEFG@Z 10020df0 f   umodsys_lib_libui:umodsys.mod.ui.SDL_GL.obj
 0001:0001fe70       ?map_keyoscode@RKeyboardController@SDL_GL@ui@modules@UModSys@@QAEFW4SDL_Scancode@@@Z 10020e70 f   umodsys_lib_libui:umodsys.mod.ui.SDL_GL.obj
 0001:0001fe80       ?map_keystatus@RKeyboardController@SDL_GL@ui@modules@UModSys@@QAEFEE@Z 10020e80 f   umodsys_lib_libui:umodsys.mod.ui.SDL_GL.obj
 0001:0001fe90       ?map_keycode@RKeyboardController@SDL_GL@ui@modules@UModSys@@QAE?AW4eKeyCode@libui@5@H@Z 10020e90 f   umodsys_lib_libui:umodsys.mod.ui.SDL_GL.obj
 0001:000203d0       ?process@RKeyboardController@SDL_GL@ui@modules@UModSys@@QAE_NAAUSDL_TextInputEvent@@@Z 100213d0 f   umodsys_lib_libui:umodsys.mod.ui.SDL_GL.obj
 0001:000204c0       ?process@RKeyboardController@SDL_GL@ui@modules@UModSys@@QAE_NAAUSDL_KeyboardEvent@@@Z 100214c0 f   umodsys_lib_libui:umodsys.mod.ui.SDL_GL.obj
 0001:000205a0       ?close@SWindow@SDL_GL@ui@modules@UModSys@@QAEXXZ 100215a0 f   umodsys_lib_libui:umodsys.mod.ui.SDL_GL.obj
 0001:000205c0       ??1SWindow@SDL_GL@ui@modules@UModSys@@QAE@XZ 100215c0 f   umodsys_lib_libui:umodsys.mod.ui.SDL_GL.obj
 0001:000205d0       ??0SWindow@SDL_GL@ui@modules@UModSys@@QAE@XZ 100215d0 f   umodsys_lib_libui:umodsys.mod.ui.SDL_GL.obj
 0001:00020600       ?s_holder@RGenerator@SDL_GL@ui@modules@UModSys@@SAAAU?$TTypeStaticHolder@URGenerator@SDL_GL@ui@modules@UModSys@@@tl@5@XZ 10021600 f   umodsys_lib_libui:umodsys.mod.ui.SDL_GL.obj
 0001:00020640       ?h_DeleteTextures@SGLFuncs@SDL_GL@ui@modules@UModSys@@UBEXHPBI@Z 10021640 f   umodsys_lib_libui:umodsys.mod.ui.SDL_GL.obj
 0001:00020710       ?dumperror@SGLFuncs@SDL_GL@ui@modules@UModSys@@QBEXH@Z 10021710 f   umodsys_lib_libui:umodsys.mod.ui.SDL_GL.obj
 0001:000207a0       ?load@SGLFuncs@SDL_GL@ui@modules@UModSys@@QAE_NXZ 100217a0 f   umodsys_lib_libui:umodsys.mod.ui.SDL_GL.obj
 0001:0002e2c0       ?get_layer_info@RVertexArray@SDL_GL@ui@modules@UModSys@@UBE?AUSVertexElemInfo@lib3d@5@H@Z 1002f2c0 f   umodsys_lib_libui:umodsys.mod.ui.SDL_GL.obj
 0001:0002e310       ?Upload@RVertexArray@SDL_GL@ui@modules@UModSys@@QAE_NXZ 1002f310 f   umodsys_lib_libui:umodsys.mod.ui.SDL_GL.obj
 0001:0002e3c0       ?camera_frustum@RRenderDriver3D@SDL_GL@ui@modules@UModSys@@UAE_NABU?$TVector3@N@math3d@5@0@Z 1002f3c0 f   umodsys_lib_libui:umodsys.mod.ui.SDL_GL.obj
 0001:0002e410       ?camera_reset@RRenderDriver3D@SDL_GL@ui@modules@UModSys@@UAE_NXZ 1002f410 f   umodsys_lib_libui:umodsys.mod.ui.SDL_GL.obj
 0001:0002e450       ?setup_alpha@RRenderDriver3D@SDL_GL@ui@modules@UModSys@@UAEXMH@Z 1002f450 f   umodsys_lib_libui:umodsys.mod.ui.SDL_GL.obj
 0001:0002e470       ?setup_alpha@RRenderDriver3D@SDL_GL@ui@modules@UModSys@@UAEXHH@Z 1002f470 f   umodsys_lib_libui:umodsys.mod.ui.SDL_GL.obj
 0001:0002e4a0       ?setup_blendcolor@RRenderDriver3D@SDL_GL@ui@modules@UModSys@@UAEXABUSBlendColorf@lib2d@5@@Z 1002f4a0 f   umodsys_lib_libui:umodsys.mod.ui.SDL_GL.obj
 0001:0002e500       ?setup_blendcolor@RRenderDriver3D@SDL_GL@ui@modules@UModSys@@UAEXABUSBlendColor@lib2d@5@@Z 1002f500 f   umodsys_lib_libui:umodsys.mod.ui.SDL_GL.obj
 0001:0002e560       ?setup_coloralpha@RRenderDriver3D@SDL_GL@ui@modules@UModSys@@UAEXABU?$TVector4@H@math3d@5@H@Z 1002f560 f   umodsys_lib_libui:umodsys.mod.ui.SDL_GL.obj
 0001:0002e5c0       ?setup_coloralpha@RRenderDriver3D@SDL_GL@ui@modules@UModSys@@UAEXABU?$TVector4@M@math3d@5@H@Z 1002f5c0 f   umodsys_lib_libui:umodsys.mod.ui.SDL_GL.obj
 0001:0002e600       ?setup_color@RRenderDriver3D@SDL_GL@ui@modules@UModSys@@UAEXABU?$TVector3@H@math3d@5@@Z 1002f600 f   umodsys_lib_libui:umodsys.mod.ui.SDL_GL.obj
 0001:0002e650       ?setup_color@RRenderDriver3D@SDL_GL@ui@modules@UModSys@@UAEXABU?$TVector3@M@math3d@5@@Z 1002f650 f   umodsys_lib_libui:umodsys.mod.ui.SDL_GL.obj
 0001:0002e680       ?new_picture@RRenderDriver3D@SDL_GL@ui@modules@UModSys@@UAE?AU?$TRefObject@UIImage@lib2d@UModSys@@U?$TRefObjectFunc@UIImage@lib2d@UModSys@@@tl@3@@tl@5@ABUSParameters@core@5@ABU?$TString@U?$TSCoreConst@D@su@tl@UModSys@@U?$TComparerBinaryHash@D@234@@75@@Z 1002f680 f   umodsys_lib_libui:umodsys.mod.ui.SDL_GL.obj
 0001:0002e6a0       ?Close@RRenderDriver3D@SDL_GL@ui@modules@UModSys@@QAEXXZ 1002f6a0 f   umodsys_lib_libui:umodsys.mod.ui.SDL_GL.obj
 0001:0002e6d0       ?get_fsize@RTextureGL@SDL_GL@ui@modules@UModSys@@UAE?AU?$TVector2@M@math3d@5@XZ 1002f6d0 f   umodsys_lib_libui:umodsys.mod.ui.SDL_GL.obj
 0001:0002e6f0       ?set_size@STextureGL@SDL_GL@ui@modules@UModSys@@QAEXHH@Z 1002f6f0 f   umodsys_lib_libui:umodsys.mod.ui.SDL_GL.obj
 0001:0002e7d0       ??1STextureGL@SDL_GL@ui@modules@UModSys@@QAE@XZ 1002f7d0 f   umodsys_lib_libui:umodsys.mod.ui.SDL_GL.obj
 0001:0002e840       ?mouse_unlink@RMouseController@SDL_GL@ui@modules@UModSys@@UAE_NH@Z 1002f840 f   umodsys_lib_libui:umodsys.mod.ui.SDL_GL.obj
 0001:0002e880       ?process@RMouseController@SDL_GL@ui@modules@UModSys@@QAE_NAAUSDL_MouseWheelEvent@@@Z 1002f880 f   umodsys_lib_libui:umodsys.mod.ui.SDL_GL.obj
 0001:0002e990       ?process@RMouseController@SDL_GL@ui@modules@UModSys@@QAE_NAAUSDL_MouseButtonEvent@@@Z 1002f990 f   umodsys_lib_libui:umodsys.mod.ui.SDL_GL.obj
 0001:0002eac0       ?process@RMouseController@SDL_GL@ui@modules@UModSys@@QAE_NAAUSDL_MouseMotionEvent@@@Z 1002fac0 f   umodsys_lib_libui:umodsys.mod.ui.SDL_GL.obj
 0001:0002ec10       ?key_unlink@RKeyboardController@SDL_GL@ui@modules@UModSys@@UAE_NH@Z 1002fc10 f   umodsys_lib_libui:umodsys.mod.ui.SDL_GL.obj
 0001:0002ec50       ?open@SWindow@SDL_GL@ui@modules@UModSys@@QAE_NABUSParameters@core@5@@Z 1002fc50 f   umodsys_lib_libui:umodsys.mod.ui.SDL_GL.obj
 0001:0002ed00       ?s_unreg@RGenerator@SDL_GL@ui@modules@UModSys@@SA_NPAUIModuleReg@base@5@@Z 1002fd00 f   umodsys_lib_libui:umodsys.mod.ui.SDL_GL.obj
 0001:0002ed50       ?s_reg@RGenerator@SDL_GL@ui@modules@UModSys@@SA_NPAUIModuleReg@base@5@@Z 1002fd50 f   umodsys_lib_libui:umodsys.mod.ui.SDL_GL.obj
 0001:0002edd0       ?image_hint_format@SGLFuncs@SDL_GL@ui@modules@UModSys@@SAHABU?$TString@U?$TSCoreConst@D@su@tl@UModSys@@U?$TComparerBinaryHash@D@234@@tl@5@H@Z 1002fdd0 f   umodsys_lib_libui:umodsys.mod.ui.SDL_GL.obj
 0001:0002f130       ?load@SGLFuncsLegacy@SDL_GL@ui@modules@UModSys@@QAE_N_N@Z 10030130 f   umodsys_lib_libui:umodsys.mod.ui.SDL_GL.obj
 0001:00033080       ??0SGLFuncs@SDL_GL@ui@modules@UModSys@@QAE@XZ 10034080 f   umodsys_lib_libui:umodsys.mod.ui.SDL_GL.obj
 0001:000330f0       ?close_drvxd@RTerminalX@SDL_GL@ui@modules@UModSys@@UAE_NXZ 100340f0 f   umodsys_lib_libui:umodsys.mod.ui.SDL_GL.obj
 0001:00033100       ?Use@RVertexArray@SDL_GL@ui@modules@UModSys@@QAE_NI@Z 10034100 f   umodsys_lib_libui:umodsys.mod.ui.SDL_GL.obj
 0001:000332e0       ?Free@RVertexArray@SDL_GL@ui@modules@UModSys@@QAE_NXZ 100342e0 f   umodsys_lib_libui:umodsys.mod.ui.SDL_GL.obj
 0001:00033370       ??1RVertexArray@SDL_GL@ui@modules@UModSys@@UAE@XZ 10034370 f   umodsys_lib_libui:umodsys.mod.ui.SDL_GL.obj
 0001:000333f0       ??0RVertexArray@SDL_GL@ui@modules@UModSys@@QAE@PAURRenderDriver3D@1234@_N1@Z 100343f0 f   umodsys_lib_libui:umodsys.mod.ui.SDL_GL.obj
 0001:00033490       ?render_primitive@RRenderDriver3D@SDL_GL@ui@modules@UModSys@@UAE_NW4eRenderPrimitiveType@lib3d@5@HH@Z 10034490 f   umodsys_lib_libui:umodsys.mod.ui.SDL_GL.obj
 0001:00033560       ?setup_array@RRenderDriver3D@SDL_GL@ui@modules@UModSys@@UAE_NPAUIVertexArray@lib3d@5@HH@Z 10034560 f   umodsys_lib_libui:umodsys.mod.ui.SDL_GL.obj
 0001:00033620       ?camera_frustum@RRenderDriver3D@SDL_GL@ui@modules@UModSys@@UAE_NABU?$TVector3@N@math3d@5@ABU?$TVector2@M@75@NN@Z 10034620 f   umodsys_lib_libui:umodsys.mod.ui.SDL_GL.obj
 0001:00033720       ?SetT@RRenderDriver3D@SDL_GL@ui@modules@UModSys@@QAEXABU?$TMatrix44@N@math3d@5@_N@Z 10034720 f   umodsys_lib_libui:umodsys.mod.ui.SDL_GL.obj
 0001:00033870       ?Update@RRenderDriver3D@SDL_GL@ui@modules@UModSys@@QAEXXZ 10034870 f   umodsys_lib_libui:umodsys.mod.ui.SDL_GL.obj
 0001:000338b0       ?map_2d_to_3d@RRenderDriver3D@SDL_GL@ui@modules@UModSys@@UAE_NAAU?$TVector2@M@math3d@5@ABU?$TVector2@H@75@@Z 100348b0 f   umodsys_lib_libui:umodsys.mod.ui.SDL_GL.obj
 0001:00033990       ?Mode_2d_begin@RRenderDriver3D@SDL_GL@ui@modules@UModSys@@QAE_NXZ 10034990 f   umodsys_lib_libui:umodsys.mod.ui.SDL_GL.obj
 0001:00033b50       ?begin@RRenderDriver3D@SDL_GL@ui@modules@UModSys@@UAEXXZ 10034b50 f   umodsys_lib_libui:umodsys.mod.ui.SDL_GL.obj
 0001:00033da0       ?render_rect@RRenderDriver3D@SDL_GL@ui@modules@UModSys@@UAEXABU?$TVector2@H@math3d@5@0@Z 10034da0 f   umodsys_lib_libui:umodsys.mod.ui.SDL_GL.obj
 0001:00033e60       ?render_line@RRenderDriver3D@SDL_GL@ui@modules@UModSys@@UAEXABU?$TVector2@H@math3d@5@0@Z 10034e60 f   umodsys_lib_libui:umodsys.mod.ui.SDL_GL.obj
 0001:00033ec0       ?render_box@RRenderDriver3D@SDL_GL@ui@modules@UModSys@@UAEXPAUIImage@lib2d@5@ABU?$TVector2@H@math3d@5@1ABU?$TVector2@M@95@2@Z 10034ec0 f   umodsys_lib_libui:umodsys.mod.ui.SDL_GL.obj
 0001:00033ee0       ?render_quad@RRenderDriver3D@SDL_GL@ui@modules@UModSys@@UAEXABU?$TVector2@H@math3d@5@000@Z 10034ee0 f   umodsys_lib_libui:umodsys.mod.ui.SDL_GL.obj
 0001:00033f60       ?render_tri@RRenderDriver3D@SDL_GL@ui@modules@UModSys@@UAEXABU?$TVector2@H@math3d@5@00@Z 10034f60 f   umodsys_lib_libui:umodsys.mod.ui.SDL_GL.obj
 0001:00033fd0       ?render_box@RRenderDriver3D@SDL_GL@ui@modules@UModSys@@UAEXABU?$TVector2@H@math3d@5@0@Z 10034fd0 f   umodsys_lib_libui:umodsys.mod.ui.SDL_GL.obj
 0001:00034050       ?render_text_advanced@RRenderDriver3D@SDL_GL@ui@modules@UModSys@@UAE_NAAUTextInfo@IRenderDriver@lib2d@5@PBHH@Z 10035050 f   umodsys_lib_libui:umodsys.mod.ui.SDL_GL.obj
 0001:00034240       ?setup_font@RRenderDriver3D@SDL_GL@ui@modules@UModSys@@UAE_NPAUIMultiImage@lib2d@5@PBU?$TVector2@M@math3d@5@@Z 10035240 f   umodsys_lib_libui:umodsys.mod.ui.SDL_GL.obj
 0001:000342a0       ?Open@RRenderDriver3D@SDL_GL@ui@modules@UModSys@@QAE_NABUSParameters@core@5@@Z 100352a0 f   umodsys_lib_libui:umodsys.mod.ui.SDL_GL.obj
 0001:000343c0       ??1RRenderDriver3D@SDL_GL@ui@modules@UModSys@@UAE@XZ 100353c0 f   umodsys_lib_libui:umodsys.mod.ui.SDL_GL.obj
 0001:00034480       ?kill_texture@RMultiImage2D_SDL_ttf@SDL_GL@ui@modules@UModSys@@SAXAAUSTextureGL@2345@@Z 10035480 f   umodsys_lib_libui:umodsys.mod.ui.SDL_GL.obj
 0001:00034490       ?get_hwinfo@RTextureGL@SDL_GL@ui@modules@UModSys@@UAEPAXPBUSUniquePointerInfo@core@5@@Z 10035490 f   umodsys_lib_libui:umodsys.mod.ui.SDL_GL.obj
 0001:000344b0       ?upload@STextureGL@SDL_GL@ui@modules@UModSys@@QAE_NXZ 100354b0 f   umodsys_lib_libui:umodsys.mod.ui.SDL_GL.obj
 0001:00034580       ?reupload@STextureGL@SDL_GL@ui@modules@UModSys@@QAE_NXZ 10035580 f   umodsys_lib_libui:umodsys.mod.ui.SDL_GL.obj
 0001:00034620       ?dorebind@STextureGL@SDL_GL@ui@modules@UModSys@@QAEX_N@Z 10035620 f   umodsys_lib_libui:umodsys.mod.ui.SDL_GL.obj
 0001:00034680       ?gen@STextureGL@SDL_GL@ui@modules@UModSys@@QAE_NXZ 10035680 f   umodsys_lib_libui:umodsys.mod.ui.SDL_GL.obj
 0001:000346c0       ??0STextureGL@SDL_GL@ui@modules@UModSys@@QAE@PBUSGLFuncs@1234@@Z 100356c0 f   umodsys_lib_libui:umodsys.mod.ui.SDL_GL.obj
 0001:00034740       ?create_handler@RTerminal@SDL_GL@ui@modules@UModSys@@UAE_NPBUSUniquePointerInfo@core@5@AAU?$TRefObject@UIRefObject@core@UModSys@@U?$TRefObjectFunc@UIRefObject@core@UModSys@@@tl@3@@tl@5@PBDPBUSParameters@75@@Z 10035740 f   umodsys_lib_libui:umodsys.mod.ui.SDL_GL.obj
 0001:00034800       ?get_friend_handler@RTerminal@SDL_GL@ui@modules@UModSys@@UBEPAUIRefObject@core@5@PBUSUniquePointerInfo@75@PAU675@@Z 10035800 f   umodsys_lib_libui:umodsys.mod.ui.SDL_GL.obj
 0001:00034810       ?get_handler@RTerminal@SDL_GL@ui@modules@UModSys@@UBEPAUIRefObject@core@5@PBUSUniquePointerInfo@75@PBD@Z 10035810 f   umodsys_lib_libui:umodsys.mod.ui.SDL_GL.obj
 0001:00034820       ?get_handler@RTerminal@SDL_GL@ui@modules@UModSys@@UBEPAUIRefObject@core@5@PBUSUniquePointerInfo@75@I@Z 10035820 f   umodsys_lib_libui:umodsys.mod.ui.SDL_GL.obj
 0001:00034890       ?get_count@RTerminal@SDL_GL@ui@modules@UModSys@@UBEIPBUSUniquePointerInfo@core@5@@Z 10035890 f   umodsys_lib_libui:umodsys.mod.ui.SDL_GL.obj
 0001:000348f0       ?poll_events@RTerminal@SDL_GL@ui@modules@UModSys@@UAE_NH@Z 100358f0 f   umodsys_lib_libui:umodsys.mod.ui.SDL_GL.obj
 0001:00034a10       ?mouse_link@RMouseController@SDL_GL@ui@modules@UModSys@@UAE_NHPAUIRefObject@core@5@PAUIMouseClient@libui@5@H@Z 10035a10 f   umodsys_lib_libui:umodsys.mod.ui.SDL_GL.obj
 0001:00034a70       ??1RMouseController@SDL_GL@ui@modules@UModSys@@UAE@XZ 10035a70 f   umodsys_lib_libui:umodsys.mod.ui.SDL_GL.obj
 0001:00034ad0       ??0RMouseController@SDL_GL@ui@modules@UModSys@@QAE@PAURTerminal@1234@@Z 10035ad0 f   umodsys_lib_libui:umodsys.mod.ui.SDL_GL.obj
 0001:00034af0       ?key_link@RKeyboardController@SDL_GL@ui@modules@UModSys@@UAE_NHPAUIRefObject@core@5@PAUIKeyboardClient@libui@5@@Z 10035af0 f   umodsys_lib_libui:umodsys.mod.ui.SDL_GL.obj
 0001:00034b40       ??1RKeyboardController@SDL_GL@ui@modules@UModSys@@UAE@XZ 10035b40 f   umodsys_lib_libui:umodsys.mod.ui.SDL_GL.obj
 0001:00034ba0       ??0RKeyboardController@SDL_GL@ui@modules@UModSys@@QAE@PAURTerminal@1234@@Z 10035ba0 f   umodsys_lib_libui:umodsys.mod.ui.SDL_GL.obj
 0001:00034bc0       ??0SGLFuncsLegacy@SDL_GL@ui@modules@UModSys@@QAE@XZ 10035bc0 f   umodsys_lib_libui:umodsys.mod.ui.SDL_GL.obj
 0001:00034be0       ?open_drv3d@RTerminalX@SDL_GL@ui@modules@UModSys@@UAEPAUIRenderDriver@lib3d@5@PBUSParameters@core@5@@Z 10035be0 f   umodsys_lib_libui:umodsys.mod.ui.SDL_GL.obj
 0001:00034c00       ?open_drv2d@RTerminalX@SDL_GL@ui@modules@UModSys@@UAEPAUIRenderDriver@lib2d@5@PBUSParameters@core@5@@Z 10035c00 f   umodsys_lib_libui:umodsys.mod.ui.SDL_GL.obj
 0001:00034c20       ?Alloc@RVertexArray@SDL_GL@ui@modules@UModSys@@QAE_NXZ 10035c20 f   umodsys_lib_libui:umodsys.mod.ui.SDL_GL.obj
 0001:00034c80       ?Alloc@RVertexArray@SDL_GL@ui@modules@UModSys@@QAE_NQBUSVertexElemInfo@lib3d@5@HH_N@Z 10035c80 f   umodsys_lib_libui:umodsys.mod.ui.SDL_GL.obj
 0001:00034df0       ?render_stop@RRenderDriver3D@SDL_GL@ui@modules@UModSys@@UAEXXZ 10035df0 f   umodsys_lib_libui:umodsys.mod.ui.SDL_GL.obj
 0001:00034e50       ?render_start@RRenderDriver3D@SDL_GL@ui@modules@UModSys@@UAEXXZ 10035e50 f   umodsys_lib_libui:umodsys.mod.ui.SDL_GL.obj
 0001:00034ef0       ?phase_2d@RRenderDriver3D@SDL_GL@ui@modules@UModSys@@UAEX_N@Z 10035ef0 f   umodsys_lib_libui:umodsys.mod.ui.SDL_GL.obj
 0001:00034f30       ?setup_T@RRenderDriver3D@SDL_GL@ui@modules@UModSys@@UAEXABU?$TMatrix44@N@math3d@5@@Z 10035f30 f   umodsys_lib_libui:umodsys.mod.ui.SDL_GL.obj
 0001:00034f60       ?create_array@RRenderDriver3D@SDL_GL@ui@modules@UModSys@@UAE?AU?$TRefObject@UIVertexArray@lib3d@UModSys@@U?$TRefObjectFunc@UIVertexArray@lib3d@UModSys@@@tl@3@@tl@5@HQBUSVertexElemInfo@lib3d@5@HPBXI@Z 10035f60 f   umodsys_lib_libui:umodsys.mod.ui.SDL_GL.obj
 0001:00035090       ?create_array@RRenderDriver3D@SDL_GL@ui@modules@UModSys@@UAE?AU?$TRefObject@UIVertexArray@lib3d@UModSys@@U?$TRefObjectFunc@UIVertexArray@lib3d@UModSys@@@tl@3@@tl@5@HQBUSVertexElemInfo@lib3d@5@H@Z 10036090 f   umodsys_lib_libui:umodsys.mod.ui.SDL_GL.obj
 0001:00035190       ?Mode_2d_end@RRenderDriver3D@SDL_GL@ui@modules@UModSys@@QAE_NXZ 10036190 f   umodsys_lib_libui:umodsys.mod.ui.SDL_GL.obj
 0001:000351e0       ?end@RRenderDriver3D@SDL_GL@ui@modules@UModSys@@UAEXXZ 100361e0 f   umodsys_lib_libui:umodsys.mod.ui.SDL_GL.obj
 0001:00035220       ??1RTextureGL@SDL_GL@ui@modules@UModSys@@UAE@XZ 10036220 f   umodsys_lib_libui:umodsys.mod.ui.SDL_GL.obj
 0001:00035280       ??0RTextureGL@SDL_GL@ui@modules@UModSys@@QAE@PAURRenderDriver3D@1234@@Z 10036280 f   umodsys_lib_libui:umodsys.mod.ui.SDL_GL.obj
 0001:00035310       ?set_linear@STextureGL@SDL_GL@ui@modules@UModSys@@QAE_NABUSImagePatchInfo@lib2d@5@ABUSCMem@core@5@@Z 10036310 f   umodsys_lib_libui:umodsys.mod.ui.SDL_GL.obj
 0001:00035470       ?alloc@STextureGL@SDL_GL@ui@modules@UModSys@@QAE_NXZ 10036470 f   umodsys_lib_libui:umodsys.mod.ui.SDL_GL.obj
 0001:00035550       ??1RTerminal@SDL_GL@ui@modules@UModSys@@UAE@XZ 10036550 f   umodsys_lib_libui:umodsys.mod.ui.SDL_GL.obj
 0001:000355c0       ??0RTerminal@SDL_GL@ui@modules@UModSys@@QAE@PAUIModObject@base@4@@Z 100365c0 f   umodsys_lib_libui:umodsys.mod.ui.SDL_GL.obj
 0001:00035650       ??1RTerminalX@SDL_GL@ui@modules@UModSys@@UAE@XZ 10036650 f   umodsys_lib_libui:umodsys.mod.ui.SDL_GL.obj
 0001:000356b0       ?set_layer_vdata@RVertexArray@SDL_GL@ui@modules@UModSys@@UAE_NW4eVertexAType@lib3d@5@PBXHHH@Z 100366b0 f   umodsys_lib_libui:umodsys.mod.ui.SDL_GL.obj
 0001:00035770       ?setup_2d@RRenderDriver3D@SDL_GL@ui@modules@UModSys@@UAE_NPBU?$TVector2@H@math3d@5@0PBU?$TVector2@M@75@1@Z 10036770 f   umodsys_lib_libui:umodsys.mod.ui.SDL_GL.obj
 0001:00035800       ?phase_start@RRenderDriver3D@SDL_GL@ui@modules@UModSys@@UAEXHH@Z 10036800 f   umodsys_lib_libui:umodsys.mod.ui.SDL_GL.obj
 0001:00035900       ?create_tex@RRenderDriver3D@SDL_GL@ui@modules@UModSys@@UAE?AU?$TRefObject@UITexture@lib3d@UModSys@@U?$TRefObjectFunc@UITexture@lib3d@UModSys@@@tl@3@@tl@5@XZ 10036900 f   umodsys_lib_libui:umodsys.mod.ui.SDL_GL.obj
 0001:000359f0       ?bind_tex@RTextureGL@SDL_GL@ui@modules@UModSys@@QAE_NXZ 100369f0 f   umodsys_lib_libui:umodsys.mod.ui.SDL_GL.obj
 0001:00035a00       ?set_data@RTextureGL@SDL_GL@ui@modules@UModSys@@UAE_NABUSImagePatchInfo@lib2d@5@ABUSCMem@core@5@H@Z 10036a00 f   umodsys_lib_libui:umodsys.mod.ui.SDL_GL.obj
 0001:00035a40       ?set_reallocate@STextureGL@SDL_GL@ui@modules@UModSys@@QAE_NW4eImageType@lib2d@5@HHPBD@Z 10036a40 f   umodsys_lib_libui:umodsys.mod.ui.SDL_GL.obj
 0001:00035b00       ??1RMultiImage2D_SDL_ttf@SDL_GL@ui@modules@UModSys@@UAE@XZ 10036b00 f   umodsys_lib_libui:umodsys.mod.ui.SDL_GL.obj
 0001:00035b90       ?setup_material@RRenderDriver3D@SDL_GL@ui@modules@UModSys@@UAE_NPBUSMaterial@lib3d@5@@Z 10036b90 f   umodsys_lib_libui:umodsys.mod.ui.SDL_GL.obj
 0001:00035c70       ??0RRenderDriver3D@SDL_GL@ui@modules@UModSys@@QAE@PAURTerminalX@1234@@Z 10036c70 f   umodsys_lib_libui:umodsys.mod.ui.SDL_GL.obj
 0001:00035d90       ?new_texture@RMultiImage2D_SDL_ttf@SDL_GL@ui@modules@UModSys@@SA_NAAUSTextureGL@2345@PAUSDL_Surface@@PAURRenderDriver3D@2345@@Z 10036d90 f   umodsys_lib_libui:umodsys.mod.ui.SDL_GL.obj
 0001:00035e40       ?set_info@RTextureGL@SDL_GL@ui@modules@UModSys@@UAE_NABUSImagePatchInfo@lib2d@5@PBD@Z 10036e40 f   umodsys_lib_libui:umodsys.mod.ui.SDL_GL.obj
 0001:00035e90       ?generate_glyphs@RMultiImage2D_SDL_ttf@SDL_GL@ui@modules@UModSys@@QAE_NXZ 10036e90 f   umodsys_lib_libui:umodsys.mod.ui.SDL_GL.obj
 0001:00035fb0       ?open@RMultiImage2D_SDL_ttf@SDL_GL@ui@modules@UModSys@@QAE_NABUSParameters@core@5@@Z 10036fb0 f   umodsys_lib_libui:umodsys.mod.ui.SDL_GL.obj
 0001:00036060       ??0RMultiImage2D_SDL_ttf@SDL_GL@ui@modules@UModSys@@QAE@PAURRenderDriver3D@1234@ABUSParameters@core@4@@Z 10037060 f   umodsys_lib_libui:umodsys.mod.ui.SDL_GL.obj
 0001:000360e0       ??0RTerminalX@SDL_GL@ui@modules@UModSys@@QAE@PAUIModObject@base@4@ABUSParameters@core@4@@Z 100370e0 f   umodsys_lib_libui:umodsys.mod.ui.SDL_GL.obj
 0001:00036140       ?new_font@RRenderDriver3D@SDL_GL@ui@modules@UModSys@@UAE?AU?$TRefObject@UIMultiImage@lib2d@UModSys@@U?$TRefObjectFunc@UIMultiImage@lib2d@UModSys@@@tl@3@@tl@5@ABUSParameters@core@5@ABU?$TString@U?$TSCoreConst@D@su@tl@UModSys@@U?$TComparerBinaryHash@D@234@@75@@Z 10037140 f   umodsys_lib_libui:umodsys.mod.ui.SDL_GL.obj
 0001:000362c0       ?mod_dec@RGenerator@stdlib@lib2d@modules@UModSys@@UBE_NXZ 100372c0 f   umodsys_lib_lib2d:umodsys.mod.2d.stdlib.obj
 0001:000362d0       ?mod_inc@RGenerator@stdlib@lib2d@modules@UModSys@@UBE_NXZ 100372d0 f   umodsys_lib_lib2d:umodsys.mod.2d.stdlib.obj
 0001:000362e0       ?get_module@RGenerator@stdlib@lib2d@modules@UModSys@@UBEPAUIModule@base@5@XZ 100372e0 f   umodsys_lib_lib2d:umodsys.mod.2d.stdlib.obj
 0001:000362f0       ?get_hwcinfo@RImage_Memory@stdlib@lib2d@modules@UModSys@@UBEPBXPBUSUniquePointerInfo@core@5@@Z 100372f0 f   umodsys_lib_lib2d:umodsys.mod.2d.stdlib.obj
 0001:00036300       ?get_hwinfo@RImage_Memory@stdlib@lib2d@modules@UModSys@@UAEPAXPBUSUniquePointerInfo@core@5@@Z 10037300 f   umodsys_lib_lib2d:umodsys.mod.2d.stdlib.obj
 0001:00036310       ?get_info@RImage_Memory@stdlib@lib2d@modules@UModSys@@UBEABUSImageInfo@35@XZ 10037310 f   umodsys_lib_lib2d:umodsys.mod.2d.stdlib.obj
 0001:00036320       ?s_holder@RGenerator@stdlib@lib2d@modules@UModSys@@SAAAU?$TTypeStaticHolder@URGenerator@stdlib@lib2d@modules@UModSys@@@tl@5@XZ 10037320 f   umodsys_lib_lib2d:umodsys.mod.2d.stdlib.obj
 0001:00036360       ??0RImageFactory_Memory@stdlib@lib2d@modules@UModSys@@QAE@PAUIModObject@base@4@ABUSParameters@core@4@@Z 10037360 f   umodsys_lib_lib2d:umodsys.mod.2d.stdlib.obj
 0001:000363d0       ?image_get_maxsize@RImageFactory_Memory@stdlib@lib2d@modules@UModSys@@UBE?AU?$TVector2@H@math3d@5@XZ 100373d0 f   umodsys_lib_lib2d:umodsys.mod.2d.stdlib.obj
 0001:000363f0       ?s_unreg@RGenerator@stdlib@lib2d@modules@UModSys@@SA_NPAUIModuleReg@base@5@@Z 100373f0 f   umodsys_lib_lib2d:umodsys.mod.2d.stdlib.obj
 0001:00036440       ?s_reg@RGenerator@stdlib@lib2d@modules@UModSys@@SA_NPAUIModuleReg@base@5@@Z 10037440 f   umodsys_lib_lib2d:umodsys.mod.2d.stdlib.obj
 0001:000364c0       ?setup_variable_cell@RMultiImage@stdlib@lib2d@modules@UModSys@@UAE_NPBUSImageCellInfo@35@KK@Z 100374c0 f   umodsys_lib_lib2d:umodsys.mod.2d.stdlib.obj
 0001:00036580       ?setup_fixed_cell@RMultiImage@stdlib@lib2d@modules@UModSys@@UAE_NHH@Z 10037580 f   umodsys_lib_lib2d:umodsys.mod.2d.stdlib.obj
 0001:000365b0       ?set_hint@RMultiImage@stdlib@lib2d@modules@UModSys@@UAE_NPBD0@Z 100375b0 f   umodsys_lib_lib2d:umodsys.mod.2d.stdlib.obj
 0001:000365c0       ?set_layer_count@RMultiImage@stdlib@lib2d@modules@UModSys@@UAE_NG@Z 100375c0 f   umodsys_lib_lib2d:umodsys.mod.2d.stdlib.obj
 0001:00036700       ?get_cell@RMultiImage@stdlib@lib2d@modules@UModSys@@UBE_NIAAUSImageCellInfo@35@@Z 10037700 f   umodsys_lib_lib2d:umodsys.mod.2d.stdlib.obj
 0001:00036750       ?get_cell@RMultiImage@stdlib@lib2d@modules@UModSys@@UBE_NIAAU?$TVector2@H@math3d@5@PAU675@PAG@Z 10037750 f   umodsys_lib_lib2d:umodsys.mod.2d.stdlib.obj
 0001:000367c0       ?get_cell_count@RMultiImage@stdlib@lib2d@modules@UModSys@@UBEIXZ 100377c0 f   umodsys_lib_lib2d:umodsys.mod.2d.stdlib.obj
 0001:000367d0       ?get_layer@RMultiImage@stdlib@lib2d@modules@UModSys@@UBEPAUIImage@35@G@Z 100377d0 f   umodsys_lib_lib2d:umodsys.mod.2d.stdlib.obj
 0001:000367f0       ?get_layer_count@RMultiImage@stdlib@lib2d@modules@UModSys@@UBEGXZ 100377f0 f   umodsys_lib_lib2d:umodsys.mod.2d.stdlib.obj
 0001:00036800       ?get_fixed_cell_size@RMultiImage@stdlib@lib2d@modules@UModSys@@UBE?AU?$TVector2@H@math3d@5@XZ 10037800 f   umodsys_lib_lib2d:umodsys.mod.2d.stdlib.obj
 0001:00036830       ?get_max_cell_size@RMultiImage@stdlib@lib2d@modules@UModSys@@UBE?AU?$TVector2@H@math3d@5@XZ 10037830 f   umodsys_lib_lib2d:umodsys.mod.2d.stdlib.obj
 0001:00036860       ?get_max_layer_size@RMultiImage@stdlib@lib2d@modules@UModSys@@UBE?AU?$TVector2@H@math3d@5@XZ 10037860 f   umodsys_lib_lib2d:umodsys.mod.2d.stdlib.obj
 0001:00036890       ??1RImageFactory_Memory@stdlib@lib2d@modules@UModSys@@UAE@XZ 10037890 f   umodsys_lib_lib2d:umodsys.mod.2d.stdlib.obj
 0001:000368a0       ??1RImage_Memory@stdlib@lib2d@modules@UModSys@@UAE@XZ 100378a0 f   umodsys_lib_lib2d:umodsys.mod.2d.stdlib.obj
 0001:00036900       ??1RMultiImage@stdlib@lib2d@modules@UModSys@@UAE@XZ 10037900 f   umodsys_lib_lib2d:umodsys.mod.2d.stdlib.obj
 0001:000369d0       ??0RMultiImage@stdlib@lib2d@modules@UModSys@@QAE@PAUIModObject@base@4@ABUSParameters@core@4@@Z 100379d0 f   umodsys_lib_lib2d:umodsys.mod.2d.stdlib.obj
 0001:00036aa0       ??0RImage_Memory@stdlib@lib2d@modules@UModSys@@QAE@PAUIModObject@base@4@ABUSParameters@core@4@@Z 10037aa0 f   umodsys_lib_lib2d:umodsys.mod.2d.stdlib.obj
 0001:00036b50       ?set_info@RImage_Memory@stdlib@lib2d@modules@UModSys@@UAE_NABUSImagePatchInfo@35@PBD@Z 10037b50 f   umodsys_lib_lib2d:umodsys.mod.2d.stdlib.obj
 0001:00036cf0       ?image_new@RImageFactory_Memory@stdlib@lib2d@modules@UModSys@@UAE?AU?$TRefObject@UIImage@lib2d@UModSys@@U?$TRefObjectFunc@UIImage@lib2d@UModSys@@@tl@3@@tl@5@ABUSImagePatchInfo@35@PBD@Z 10037cf0 f   umodsys_lib_lib2d:umodsys.mod.2d.stdlib.obj
 0001:00036eb0       ?image_new@RImageFactory_Memory@stdlib@lib2d@modules@UModSys@@UAE?AU?$TRefObject@UIImage@lib2d@UModSys@@U?$TRefObjectFunc@UIImage@lib2d@UModSys@@@tl@3@@tl@5@XZ 10037eb0 f   umodsys_lib_lib2d:umodsys.mod.2d.stdlib.obj
 0001:00037020       ?get_data@RImage_Memory@stdlib@lib2d@modules@UModSys@@UBE_NABUSImagePatchInfo@35@ABUSMem@core@5@H@Z 10038020 f   umodsys_lib_lib2d:umodsys.mod.2d.stdlib.obj
 0001:000370d0       ?set_data@RImage_Memory@stdlib@lib2d@modules@UModSys@@UAE_NABUSImagePatchInfo@35@ABUSCMem@core@5@H@Z 100380d0 f   umodsys_lib_lib2d:umodsys.mod.2d.stdlib.obj
 0001:00037180       ?mod_dec@RGenerator@stdlib@lib3d@modules@UModSys@@UBE_NXZ 10038180 f   umodsys_lib_lib3d:umodsys.mod.3d.stdlib.obj
 0001:00037190       ?mod_inc@RGenerator@stdlib@lib3d@modules@UModSys@@UBE_NXZ 10038190 f   umodsys_lib_lib3d:umodsys.mod.3d.stdlib.obj
 0001:000371a0       ?get_module@RGenerator@stdlib@lib3d@modules@UModSys@@UBEPAUIModule@base@5@XZ 100381a0 f   umodsys_lib_lib3d:umodsys.mod.3d.stdlib.obj
 0001:000371b0       ?logic_sync@RVisual@object_primitive@stdlib@lib3d@modules@UModSys@@UAE_NXZ 100381b0 f   umodsys_lib_lib3d:umodsys.mod.3d.stdlib.obj
 0001:000371c0       ?visual_update@RVisual@object_primitive@stdlib@lib3d@modules@UModSys@@UAE_NXZ 100381c0 f   umodsys_lib_lib3d:umodsys.mod.3d.stdlib.obj
 0001:000371d0       ?valid@RVisual@object_primitive@stdlib@lib3d@modules@UModSys@@UBE_NXZ 100381d0 f   umodsys_lib_lib3d:umodsys.mod.3d.stdlib.obj
 0001:000371e0       ?valid@RRender@object_primitive@stdlib@lib3d@modules@UModSys@@UBE_NXZ 100381e0 f   umodsys_lib_lib3d:umodsys.mod.3d.stdlib.obj
 0001:000371f0       ?get_root@RGeneral@object_primitive@stdlib@lib3d@modules@UModSys@@UAEPAUIGeneralObject@46@XZ 100381f0 f   umodsys_lib_lib3d:umodsys.mod.3d.stdlib.obj
 0001:00037200       ?logic_new@RGeneral@object_primitive@stdlib@lib3d@modules@UModSys@@UAE?AU?$TRefObject@UILogicObject@lib3d@UModSys@@U?$TRefObjectFunc@UILogicObject@lib3d@UModSys@@@tl@3@@tl@6@XZ 10038200 f   umodsys_lib_lib3d:umodsys.mod.3d.stdlib.obj
 0001:00037220       ?valid@RGeneral@object_primitive@stdlib@lib3d@modules@UModSys@@UBE_NXZ 10038220 f   umodsys_lib_lib3d:umodsys.mod.3d.stdlib.obj
 0001:00037230       ?camera_get_xyz@RVisual@object_camera@stdlib@lib3d@modules@UModSys@@UBE_NPAU?$TVector3@N@math3d@6@00@Z 10038230 f   umodsys_lib_lib3d:umodsys.mod.3d.stdlib.obj
 0001:000372f0       ?camera_get_T@RVisual@object_camera@stdlib@lib3d@modules@UModSys@@UBE_NAAU?$TMatrix44@N@math3d@6@@Z 100382f0 f   umodsys_lib_lib3d:umodsys.mod.3d.stdlib.obj
 0001:00037300       ?camera_get_fov@RVisual@object_camera@stdlib@lib3d@modules@UModSys@@UBE?AU?$TVector2@M@math3d@6@XZ 10038300 f   umodsys_lib_lib3d:umodsys.mod.3d.stdlib.obj
 0001:00037320       ?logic_sync@RVisual@object_camera@stdlib@lib3d@modules@UModSys@@UAE_NXZ 10038320 f   umodsys_lib_lib3d:umodsys.mod.3d.stdlib.obj
 0001:00037330       ?visual_update@RVisual@object_camera@stdlib@lib3d@modules@UModSys@@UAE_NXZ 10038330 f   umodsys_lib_lib3d:umodsys.mod.3d.stdlib.obj
 0001:00037340       ?valid@RVisual@object_camera@stdlib@lib3d@modules@UModSys@@UBE_NXZ 10038340 f   umodsys_lib_lib3d:umodsys.mod.3d.stdlib.obj
 0001:00037350       ?get_root@RGeneral@object_camera@stdlib@lib3d@modules@UModSys@@UAEPAUIGeneralObject@46@XZ 10038350 f   umodsys_lib_lib3d:umodsys.mod.3d.stdlib.obj
 0001:00037360       ?logic_new@RGeneral@object_camera@stdlib@lib3d@modules@UModSys@@UAE?AU?$TRefObject@UILogicObject@lib3d@UModSys@@U?$TRefObjectFunc@UILogicObject@lib3d@UModSys@@@tl@3@@tl@6@XZ 10038360 f   umodsys_lib_lib3d:umodsys.mod.3d.stdlib.obj
 0001:00037380       ?valid@RGeneral@object_camera@stdlib@lib3d@modules@UModSys@@UBE_NXZ 10038380 f   umodsys_lib_lib3d:umodsys.mod.3d.stdlib.obj
 0001:00037390       ?on_scene_node_change@RVisualSceneMapper_Direct@stdlib@lib3d@modules@UModSys@@UAE_NPAUIScene@35@PBUISceneNode@35@@Z 10038390 f   umodsys_lib_lib3d:umodsys.mod.3d.stdlib.obj
 0001:000373a0       ?on_scene_node_remove@RVisualSceneMapper_Direct@stdlib@lib3d@modules@UModSys@@UAE_NPAUIScene@35@PBUISceneNode@35@@Z 100383a0 f   umodsys_lib_lib3d:umodsys.mod.3d.stdlib.obj
 0001:000373b0       ?on_scene_node_add@RVisualSceneMapper_Direct@stdlib@lib3d@modules@UModSys@@UAE_NPAUIScene@35@PBUISceneNode@35@@Z 100383b0 f   umodsys_lib_lib3d:umodsys.mod.3d.stdlib.obj
 0001:000373c0       ?queue_fill@RVisualSceneMapper_Direct@stdlib@lib3d@modules@UModSys@@UAE_NAAU?$TIStackSocket@PAUIVisualObject@lib3d@UModSys@@@tl@5@H_N@Z 100383c0 f   umodsys_lib_lib3d:umodsys.mod.3d.stdlib.obj
 0001:000373d0       ?node_update_all@RVisualSceneMapper_Direct@stdlib@lib3d@modules@UModSys@@UAE_NPAUIScene@35@@Z 100383d0 f   umodsys_lib_lib3d:umodsys.mod.3d.stdlib.obj
 0001:000373e0       ?renderer_set@RVisualSceneMapper_Direct@stdlib@lib3d@modules@UModSys@@UAE_NPAUIRenderer@35@@Z 100383e0 f   umodsys_lib_lib3d:umodsys.mod.3d.stdlib.obj
 0001:000373f0       ?scene_count@RVisualizerScene@stdlib@lib3d@modules@UModSys@@UBEIXZ 100383f0 f   umodsys_lib_lib3d:umodsys.mod.3d.stdlib.obj
 0001:00037400       ?render_2d@RVisualizerScene@stdlib@lib3d@modules@UModSys@@UAE_NPAUIRenderDriver@35@@Z 10038400 f   umodsys_lib_lib3d:umodsys.mod.3d.stdlib.obj
 0001:00037410       ?hints@RRenderer@stdlib@lib3d@modules@UModSys@@UBEABUIPropNamedAdapter@core@5@XZ 10038410 f   umodsys_lib_lib3d:umodsys.mod.3d.stdlib.obj
 0001:00037420       ?hints@RRenderer@stdlib@lib3d@modules@UModSys@@UAEAAUIPropNamedAdapter@core@5@XZ 10038420 f   umodsys_lib_lib3d:umodsys.mod.3d.stdlib.obj
 0001:00037430       ?get_opid@RRenderer@stdlib@lib3d@modules@UModSys@@UBEHXZ 10038430 f   umodsys_lib_lib3d:umodsys.mod.3d.stdlib.obj
 0001:00037440       ?cast_ray_center@RRenderer@stdlib@lib3d@modules@UModSys@@UBE_NABU?$TVector2@H@math3d@5@AAU?$TVector3@N@75@@Z 10038440 f   umodsys_lib_lib3d:umodsys.mod.3d.stdlib.obj
 0001:00037450       ?cast_ray@RRenderer@stdlib@lib3d@modules@UModSys@@UBE_NPAUIScene@35@ABU?$TVector2@H@math3d@5@AAU?$TVector3@N@85@2@Z 10038450 f   umodsys_lib_lib3d:umodsys.mod.3d.stdlib.obj
 0001:00037460       ?cast_ray@RRenderer@stdlib@lib3d@modules@UModSys@@UBE_NPAUIScene@35@ABU?$TVector2@M@math3d@5@AAU?$TVector3@N@85@2@Z 10038460 f   umodsys_lib_lib3d:umodsys.mod.3d.stdlib.obj
 0001:00037470       ?font_load@RRenderer@stdlib@lib3d@modules@UModSys@@UAEPAU?$TIResource@UITextureCells@lib3d@UModSys@@@core@5@ABU?$TString@U?$TSCoreConst@D@su@tl@UModSys@@U?$TComparerBinaryHash@D@234@@tl@5@0H@Z 10038470 f   umodsys_lib_lib3d:umodsys.mod.3d.stdlib.obj
 0001:00037480       ?texture_alloc@RRenderer@stdlib@lib3d@modules@UModSys@@UAEPAU?$TIResource@UITexture@lib3d@UModSys@@@core@5@PAUSRenderDriverTexBox@35@ABU?$TVector2@H@math3d@5@W4eImageType@lib2d@5@@Z 10038480 f   umodsys_lib_lib3d:umodsys.mod.3d.stdlib.obj
 0001:00037490       ?texture_load@RRenderer@stdlib@lib3d@modules@UModSys@@UAEPAU?$TIResource@UITexture@lib3d@UModSys@@@core@5@ABU?$TString@U?$TSCoreConst@D@su@tl@UModSys@@U?$TComparerBinaryHash@D@234@@tl@5@0H@Z 10038490 f   umodsys_lib_lib3d:umodsys.mod.3d.stdlib.obj
 0001:000374a0       ?library_get@RRenderer@stdlib@lib3d@modules@UModSys@@UBEPAUISharedLibrary@35@XZ 100384a0 f   umodsys_lib_lib3d:umodsys.mod.3d.stdlib.obj
 0001:000374b0       ?get_value@RRenderer@stdlib@lib3d@modules@UModSys@@UBE_NABU?$TString@U?$TSCoreConst@D@su@tl@UModSys@@U?$TComparerBinaryHash@D@234@@tl@5@ABUSPropValueW@core@5@@Z 100384b0 f   umodsys_lib_lib3d:umodsys.mod.3d.stdlib.obj
 0001:000374c0       ?set_value@RRenderer@stdlib@lib3d@modules@UModSys@@UAE_NABU?$TString@U?$TSCoreConst@D@su@tl@UModSys@@U?$TComparerBinaryHash@D@234@@tl@5@ABUSPropValueR@core@5@@Z 100384c0 f   umodsys_lib_lib3d:umodsys.mod.3d.stdlib.obj
 0001:000374d0       ?s_holder@RGenerator@stdlib@lib3d@modules@UModSys@@SAAAU?$TTypeStaticHolder@URGenerator@stdlib@lib3d@modules@UModSys@@@tl@5@XZ 100384d0 f   umodsys_lib_lib3d:umodsys.mod.3d.stdlib.obj
 0001:00037510       ?render_get@RVisual@object_primitive@stdlib@lib3d@modules@UModSys@@UBE?AU?$TRefObject@UIRenderObject@lib3d@UModSys@@U?$TRefObjectFunc@UIRenderObject@lib3d@UModSys@@@tl@3@@tl@6@XZ 10038510 f   umodsys_lib_lib3d:umodsys.mod.3d.stdlib.obj
 0001:00037540       ?object_get@RVisual@object_primitive@stdlib@lib3d@modules@UModSys@@UBE?AU?$TRefObject@UIGeneralObject@lib3d@UModSys@@U?$TRefObjectFunc@UIGeneralObject@lib3d@UModSys@@@tl@3@@tl@6@XZ 10038540 f   umodsys_lib_lib3d:umodsys.mod.3d.stdlib.obj
 0001:00037570       ?build_cube@RRender@object_primitive@stdlib@lib3d@modules@UModSys@@QAE_NXZ 10038570 f   umodsys_lib_lib3d:umodsys.mod.3d.stdlib.obj
 0001:000377e0       ?render@RRender@object_primitive@stdlib@lib3d@modules@UModSys@@QAE_NABUSRenderState@46@@Z 100387e0 f   umodsys_lib_lib3d:umodsys.mod.3d.stdlib.obj
 0001:00037880       ?object_get@RRender@object_primitive@stdlib@lib3d@modules@UModSys@@UBE?AU?$TRefObject@UIGeneralObject@lib3d@UModSys@@U?$TRefObjectFunc@UIGeneralObject@lib3d@UModSys@@@tl@3@@tl@6@XZ 10038880 f   umodsys_lib_lib3d:umodsys.mod.3d.stdlib.obj
 0001:000378b0       ?render_update@RRender@object_primitive@stdlib@lib3d@modules@UModSys@@UAE_NXZ 100388b0 f   umodsys_lib_lib3d:umodsys.mod.3d.stdlib.obj
 0001:00037910       ??0RVisual@object_camera@stdlib@lib3d@modules@UModSys@@QAE@PAURGeneral@12345@PAUIRenderer@35@@Z 10038910 f   umodsys_lib_lib3d:umodsys.mod.3d.stdlib.obj
 0001:000379e0       ?camera_setup@RVisual@object_camera@stdlib@lib3d@modules@UModSys@@UAE_NPAUIRenderDriver@46@@Z 100389e0 f   umodsys_lib_lib3d:umodsys.mod.3d.stdlib.obj
 0001:00037a30       ?render_get@RVisual@object_camera@stdlib@lib3d@modules@UModSys@@UBE?AU?$TRefObject@UIRenderObject@lib3d@UModSys@@U?$TRefObjectFunc@UIRenderObject@lib3d@UModSys@@@tl@3@@tl@6@XZ 10038a30 f   umodsys_lib_lib3d:umodsys.mod.3d.stdlib.obj
 0001:00037a50       ?object_get@RVisual@object_camera@stdlib@lib3d@modules@UModSys@@UBE?AU?$TRefObject@UIGeneralObject@lib3d@UModSys@@U?$TRefObjectFunc@UIGeneralObject@lib3d@UModSys@@@tl@3@@tl@6@XZ 10038a50 f   umodsys_lib_lib3d:umodsys.mod.3d.stdlib.obj
 0001:00037a80       ??0RGeneral@object_camera@stdlib@lib3d@modules@UModSys@@QAE@PAUIModObject@base@5@ABUSParameters@core@5@@Z 10038a80 f   umodsys_lib_lib3d:umodsys.mod.3d.stdlib.obj
 0001:00037c20       ?render_new@RGeneral@object_camera@stdlib@lib3d@modules@UModSys@@UAE?AU?$TRefObject@UIRenderObject@lib3d@UModSys@@U?$TRefObjectFunc@UIRenderObject@lib3d@UModSys@@@tl@3@@tl@6@PAUIRenderer@46@@Z 10038c20 f   umodsys_lib_lib3d:umodsys.mod.3d.stdlib.obj
 0001:00037c40       ??0RVisualSceneMapper_Direct@stdlib@lib3d@modules@UModSys@@QAE@PAUIModObject@base@4@ABUSParameters@core@4@@Z 10038c40 f   umodsys_lib_lib3d:umodsys.mod.3d.stdlib.obj
 0001:00037cc0       ?clear_cache@RVisualizerScene@stdlib@lib3d@modules@UModSys@@QAEXXZ 10038cc0 f   umodsys_lib_lib3d:umodsys.mod.3d.stdlib.obj
 0001:00037d00       ?scene_add@RVisualizerScene@stdlib@lib3d@modules@UModSys@@UAE_NABUScene@IVisualizerScene@35@@Z 10038d00 f   umodsys_lib_lib3d:umodsys.mod.3d.stdlib.obj
 0001:00037d80       ?scene_index@RVisualizerScene@stdlib@lib3d@modules@UModSys@@UBEIABUScene@IVisualizerScene@35@@Z 10038d80 f   umodsys_lib_lib3d:umodsys.mod.3d.stdlib.obj
 0001:00037dc0       ?scene_get@RVisualizerScene@stdlib@lib3d@modules@UModSys@@UBE?AUScene@IVisualizerScene@35@I@Z 10038dc0 f   umodsys_lib_lib3d:umodsys.mod.3d.stdlib.obj
 0001:00037e30       ?renderer_get@RVisualizerScene@stdlib@lib3d@modules@UModSys@@UBEPAUIRenderer@35@XZ 10038e30 f   umodsys_lib_lib3d:umodsys.mod.3d.stdlib.obj
 0001:00037e40       ??0RRenderer@stdlib@lib3d@modules@UModSys@@QAE@PAUIModObject@base@4@ABUSParameters@core@4@@Z 10038e40 f   umodsys_lib_lib3d:umodsys.mod.3d.stdlib.obj
 0001:00037ec0       ?driver_set@RRenderer@stdlib@lib3d@modules@UModSys@@UAE_NPAUIRenderDriver@35@PAUILibrary@libmedia@5@@Z 10038ec0 f   umodsys_lib_lib3d:umodsys.mod.3d.stdlib.obj
 0001:00037ef0       ?driver_get@RRenderer@stdlib@lib3d@modules@UModSys@@UBEPAUIRenderDriver@35@XZ 10038ef0 f   umodsys_lib_lib3d:umodsys.mod.3d.stdlib.obj
 0001:00037f00       ?s_unreg@RGenerator@stdlib@lib3d@modules@UModSys@@SA_NPAUIModuleReg@base@5@@Z 10038f00 f   umodsys_lib_lib3d:umodsys.mod.3d.stdlib.obj
 0001:00037f50       ?s_reg@RGenerator@stdlib@lib3d@modules@UModSys@@SA_NPAUIModuleReg@base@5@@Z 10038f50 f   umodsys_lib_lib3d:umodsys.mod.3d.stdlib.obj
 0001:00037fd0       ??0RVisual@object_primitive@stdlib@lib3d@modules@UModSys@@QAE@PAURRender@12345@@Z 10038fd0 f   umodsys_lib_lib3d:umodsys.mod.3d.stdlib.obj
 0001:00038040       ?render_state@RVisual@object_primitive@stdlib@lib3d@modules@UModSys@@UAE_NABUSRenderState@46@@Z 10039040 f   umodsys_lib_lib3d:umodsys.mod.3d.stdlib.obj
 0001:00038060       ??1RRender@object_primitive@stdlib@lib3d@modules@UModSys@@UAE@XZ 10039060 f   umodsys_lib_lib3d:umodsys.mod.3d.stdlib.obj
 0001:000380f0       ??0RRender@object_primitive@stdlib@lib3d@modules@UModSys@@QAE@PAURGeneral@12345@PAUIRenderer@35@@Z 100390f0 f   umodsys_lib_lib3d:umodsys.mod.3d.stdlib.obj
 0001:00038190       ?visual_new@RRender@object_primitive@stdlib@lib3d@modules@UModSys@@UAE?AU?$TRefObject@UIVisualObject@lib3d@UModSys@@U?$TRefObjectFunc@UIVisualObject@lib3d@UModSys@@@tl@3@@tl@6@XZ 10039190 f   umodsys_lib_lib3d:umodsys.mod.3d.stdlib.obj
 0001:00038210       ??1RGeneral@object_primitive@stdlib@lib3d@modules@UModSys@@UAE@XZ 10039210 f   umodsys_lib_lib3d:umodsys.mod.3d.stdlib.obj
 0001:00038220       ??0RGeneral@object_primitive@stdlib@lib3d@modules@UModSys@@QAE@PAUIModObject@base@5@ABUSParameters@core@5@@Z 10039220 f   umodsys_lib_lib3d:umodsys.mod.3d.stdlib.obj
 0001:000383a0       ?render_new@RGeneral@object_primitive@stdlib@lib3d@modules@UModSys@@UAE?AU?$TRefObject@UIRenderObject@lib3d@UModSys@@U?$TRefObjectFunc@UIRenderObject@lib3d@UModSys@@@tl@3@@tl@6@PAUIRenderer@46@@Z 100393a0 f   umodsys_lib_lib3d:umodsys.mod.3d.stdlib.obj
 0001:00038430       ?visual_new@RGeneral@object_primitive@stdlib@lib3d@modules@UModSys@@UAE?AU?$TRefObject@UIVisualObject@lib3d@UModSys@@U?$TRefObjectFunc@UIVisualObject@lib3d@UModSys@@@tl@3@@tl@6@PAUIRenderer@46@PAUIRenderObject@46@@Z 10039430 f   umodsys_lib_lib3d:umodsys.mod.3d.stdlib.obj
 0001:00038500       ??1RVisual@object_camera@stdlib@lib3d@modules@UModSys@@UAE@XZ 10039500 f   umodsys_lib_lib3d:umodsys.mod.3d.stdlib.obj
 0001:00038560       ?camera_cast_ray@RVisual@object_camera@stdlib@lib3d@modules@UModSys@@UBE_NABU?$TVector2@M@math3d@6@AAU?$TVector3@N@86@1@Z 10039560 f   umodsys_lib_lib3d:umodsys.mod.3d.stdlib.obj
 0001:00038630       ?camera_get_planes@RVisual@object_camera@stdlib@lib3d@modules@UModSys@@UBEHPAU?$TPlane3@N@math3d@6@@Z 10039630 f   umodsys_lib_lib3d:umodsys.mod.3d.stdlib.obj
 0001:000388d0       ?render_state@RVisual@object_camera@stdlib@lib3d@modules@UModSys@@UAE_NABUSRenderState@46@@Z 100398d0 f   umodsys_lib_lib3d:umodsys.mod.3d.stdlib.obj
 0001:00038910       ??1RGeneral@object_camera@stdlib@lib3d@modules@UModSys@@UAE@XZ 10039910 f   umodsys_lib_lib3d:umodsys.mod.3d.stdlib.obj
 0001:00038920       ?visual_new@RGeneral@object_camera@stdlib@lib3d@modules@UModSys@@UAE?AU?$TRefObject@UIVisualObject@lib3d@UModSys@@U?$TRefObjectFunc@UIVisualObject@lib3d@UModSys@@@tl@3@@tl@6@PAUIRenderer@46@PAUIRenderObject@46@@Z 10039920 f   umodsys_lib_lib3d:umodsys.mod.3d.stdlib.obj
 0001:000389a0       ??1RVisualSceneMapper_Direct@stdlib@lib3d@modules@UModSys@@UAE@XZ 100399a0 f   umodsys_lib_lib3d:umodsys.mod.3d.stdlib.obj
 0001:00038a10       ??1RVisualizerScene@stdlib@lib3d@modules@UModSys@@UAE@XZ 10039a10 f   umodsys_lib_lib3d:umodsys.mod.3d.stdlib.obj
 0001:00038af0       ?scene_remove@RVisualizerScene@stdlib@lib3d@modules@UModSys@@UAE_NABUScene@IVisualizerScene@35@@Z 10039af0 f   umodsys_lib_lib3d:umodsys.mod.3d.stdlib.obj
 0001:00038b30       ?renderer_set@RVisualizerScene@stdlib@lib3d@modules@UModSys@@UAE_NPAUIRenderer@35@@Z 10039b30 f   umodsys_lib_lib3d:umodsys.mod.3d.stdlib.obj
 0001:00038b70       ??1RRenderer@stdlib@lib3d@modules@UModSys@@UAE@XZ 10039b70 f   umodsys_lib_lib3d:umodsys.mod.3d.stdlib.obj
 0001:00038bf0       ?render_end@RRenderer@stdlib@lib3d@modules@UModSys@@UAE_NXZ 10039bf0 f   umodsys_lib_lib3d:umodsys.mod.3d.stdlib.obj
 0001:00038c10       ?render_reset@RRenderer@stdlib@lib3d@modules@UModSys@@UAE_NABUSRenderState@35@@Z 10039c10 f   umodsys_lib_lib3d:umodsys.mod.3d.stdlib.obj
 0001:00038c30       ?render_extra@RRenderer@stdlib@lib3d@modules@UModSys@@UAE_NABUSRenderState@35@H@Z 10039c30 f   umodsys_lib_lib3d:umodsys.mod.3d.stdlib.obj
 0001:00038d20       ?render_2d@RRenderer@stdlib@lib3d@modules@UModSys@@UAE_NPAUIVisualizer@35@@Z 10039d20 f   umodsys_lib_lib3d:umodsys.mod.3d.stdlib.obj
 0001:00038d60       ?render_3d@RRenderer@stdlib@lib3d@modules@UModSys@@UAE_NPAUIVisualizer@35@H_N@Z 10039d60 f   umodsys_lib_lib3d:umodsys.mod.3d.stdlib.obj
 0001:00038db0       ?render_begin@RRenderer@stdlib@lib3d@modules@UModSys@@UAE_NXZ 10039db0 f   umodsys_lib_lib3d:umodsys.mod.3d.stdlib.obj
 0001:00038dd0       ??1RVisual@object_primitive@stdlib@lib3d@modules@UModSys@@UAE@XZ 10039dd0 f   umodsys_lib_lib3d:umodsys.mod.3d.stdlib.obj
 0001:00038e30       ??0RVisualizerScene@stdlib@lib3d@modules@UModSys@@QAE@PAUIModObject@base@4@ABUSParameters@core@4@@Z 10039e30 f   umodsys_lib_lib3d:umodsys.mod.3d.stdlib.obj
 0001:00038ed0       ?render_3d@RVisualizerScene@stdlib@lib3d@modules@UModSys@@UAE_NH_NPAUIRenderDriver@35@@Z 10039ed0 f   umodsys_lib_lib3d:umodsys.mod.3d.stdlib.obj
 0001:000390d0       ?mod_dec@RGenerator@test1@test@modules@UModSys@@UBE_NXZ 1003a0d0 f   plugin_test1.obj
 0001:000390e0       ?mod_inc@RGenerator@test1@test@modules@UModSys@@UBE_NXZ 1003a0e0 f   plugin_test1.obj
 0001:000390f0       ?get_module@RGenerator@test1@test@modules@UModSys@@UBEPAUIModule@base@5@XZ 1003a0f0 f   plugin_test1.obj
 0001:00039100       ?key_text@UI_Info@RTest1_Shell@test1@test@modules@UModSys@@UAE_NABUSKeyboardInputText@libui@6@@Z 1003a100 f   plugin_test1.obj
 0001:00039110       ?shutdown@UI_Info@RTest1_Shell@test1@test@modules@UModSys@@QAEXXZ 1003a110 f   plugin_test1.obj
 0001:00039150       ?command_draw@RTest1_Shell@test1@test@modules@UModSys@@UAE_NABUSController@libui@5@PAUIRenderDriver@lib2d@5@ABU?$TBoundBox2@H@math3d@5@@Z 1003a150 f   plugin_test1.obj
 0001:00039160       ?key_pressed@RTest1_Shell@test1@test@modules@UModSys@@UAE_NABUSKeyboardInputRaw@libui@5@@Z 1003a160 f   plugin_test1.obj
 0001:000391b0       ?s_holder@RGenerator@test1@test@modules@UModSys@@SAAAU?$TTypeStaticHolder@URGenerator@test1@test@modules@UModSys@@@tl@5@XZ 1003a1b0 f   plugin_test1.obj
 0001:000391f0       ?fps2_add_rot@UI_Info@RTest1_Shell@test1@test@modules@UModSys@@QAEXNN@Z 1003a1f0 f   plugin_test1.obj
 0001:00039340       ?new_va_1@UI_Info@RTest1_Shell@test1@test@modules@UModSys@@QAE_NXZ 1003a340 f   plugin_test1.obj
 0001:000399e0       ?db_get@RTest1_Shell@test1@test@modules@UModSys@@UAE_NABUSController@libui@5@QBDABUSFrameDataOut@75@@Z 1003a9e0 f   plugin_test1.obj
 0001:00039a90       ?command@RTest1_Shell@test1@test@modules@UModSys@@UAE_NABUSController@libui@5@HABUSFrameDataIn@75@@Z 1003aa90 f   plugin_test1.obj
 0001:00039ad0       ?mouse_event@RTest1_Shell@test1@test@modules@UModSys@@UAE_NABUSMouseInput@libui@5@@Z 1003aad0 f   plugin_test1.obj
 0001:00039b40       ?key_text@RTest1_Shell@test1@test@modules@UModSys@@UAE_NABUSKeyboardInputText@libui@5@@Z 1003ab40 f   plugin_test1.obj
 0001:00039b80       ?s_unreg@RGenerator@test1@test@modules@UModSys@@SA_NPAUIModuleReg@base@5@@Z 1003ab80 f   plugin_test1.obj
 0001:00039bd0       ?s_reg@RGenerator@test1@test@modules@UModSys@@SA_NPAUIModuleReg@base@5@@Z 1003abd0 f   plugin_test1.obj
 0001:00039c50       ?mouse_event@UI_Info@RTest1_Shell@test1@test@modules@UModSys@@UAE_NABUSMouseInput@libui@6@@Z 1003ac50 f   plugin_test1.obj
 0001:00039cc0       ?fps2_move@UI_Info@RTest1_Shell@test1@test@modules@UModSys@@QAEXHN@Z 1003acc0 f   plugin_test1.obj
 0001:00039d30       ?db_get@RTest1_Shell@test1@test@modules@UModSys@@UAE_NABUSController@libui@5@QBDHABUSFrameDataOut@75@@Z 1003ad30 f   plugin_test1.obj
 0001:00039db0       ?ui_newterm@RTest1_Shell@test1@test@modules@UModSys@@SA?AU?$TRefObject@UITerminal@libui@UModSys@@U?$TRefObjectFunc@UITerminal@libui@UModSys@@@tl@3@@tl@5@ABU?$TString@U?$TSCoreConst@D@su@tl@UModSys@@U?$TComparerBinaryHash@D@234@@75@ABUSParameters@core@5@@Z 1003adb0 f   plugin_test1.obj
 0001:00039dd0       ?ui_newframes@RTest1_Shell@test1@test@modules@UModSys@@SA?AU?$TRefObject@UICollector@libui@UModSys@@U?$TRefObjectFunc@UICollector@libui@UModSys@@@tl@3@@tl@5@ABU?$TString@U?$TSCoreConst@D@su@tl@UModSys@@U?$TComparerBinaryHash@D@234@@75@ABUSParameters@core@5@@Z 1003add0 f   plugin_test1.obj
 0001:00039df0       ?key_pressed@UI_Info@RTest1_Shell@test1@test@modules@UModSys@@UAE_NABUSKeyboardInputRaw@libui@6@@Z 1003adf0 f   plugin_test1.obj
 0001:00039f70       ?aux_tests@RTest1_Shell@test1@test@modules@UModSys@@QAEXXZ 1003af70 f   plugin_test1.obj
 0001:0003a100       ?cycle3d_b@UI_Info@RTest1_Shell@test1@test@modules@UModSys@@QAEXXZ 1003b100 f   plugin_test1.obj
 0001:0003a560       ?new_frames@UI_Info@RTest1_Shell@test1@test@modules@UModSys@@QAE_NPAUIController@libui@6@@Z 1003b560 f   plugin_test1.obj
 0001:0003abe0       ?init_term@UI_Info@RTest1_Shell@test1@test@modules@UModSys@@QAE_NPBD@Z 1003bbe0 f   plugin_test1.obj
 0001:0003af10       ?font_2d@UI_Info@RTest1_Shell@test1@test@modules@UModSys@@QAE_NXZ 1003bf10 f   plugin_test1.obj
 0001:0003b0d0       ?media_cache@RTest1_Shell@test1@test@modules@UModSys@@QAE?AU?$TRefObject@UILibrary@libmedia@UModSys@@U?$TRefObjectFunc@UILibrary@libmedia@UModSys@@@tl@3@@tl@5@_N@Z 1003c0d0 f   plugin_test1.obj
 0001:0003b210       ?media_lay@RTest1_Shell@test1@test@modules@UModSys@@QAE?AU?$TRefObject@UILibraryLayered@libmedia@UModSys@@U?$TRefObjectFunc@UILibraryLayered@libmedia@UModSys@@@tl@3@@tl@5@XZ 1003c210 f   plugin_test1.obj
 0001:0003b2f0       ?media_flt@RTest1_Shell@test1@test@modules@UModSys@@QAE?AU?$TRefObject@UILibraryObjFilter@libmedia@UModSys@@U?$TRefObjectFunc@UILibraryObjFilter@libmedia@UModSys@@@tl@3@@tl@5@XZ 1003c2f0 f   plugin_test1.obj
 0001:0003b3d0       ?media_vfs@RTest1_Shell@test1@test@modules@UModSys@@QAE?AU?$TRefObject@UILibraryBinTree@libmedia@UModSys@@U?$TRefObjectFunc@UILibraryBinTree@libmedia@UModSys@@@tl@3@@tl@5@XZ 1003c3d0 f   plugin_test1.obj
 0001:0003b4b0       ?media_utils@RTest1_Shell@test1@test@modules@UModSys@@QAE?AU?$TRefObject@UIUtilities@libmedia@UModSys@@U?$TRefObjectFunc@UIUtilities@libmedia@UModSys@@@tl@3@@tl@5@XZ 1003c4b0 f   plugin_test1.obj
 0001:0003b590       ?media_filter_new@RTest1_Shell@test1@test@modules@UModSys@@QAE?AU?$TRefObject@UIBinObjFilter@libmedia@UModSys@@U?$TRefObjectFunc@UIBinObjFilter@libmedia@UModSys@@@tl@3@@tl@5@ABU?$TString@U?$TSCoreConst@D@su@tl@UModSys@@U?$TComparerBinaryHash@D@234@@75@ABUSParameters@core@5@@Z 1003c590 f   plugin_test1.obj
 0001:0003b660       ?media_arch_zip@RTest1_Shell@test1@test@modules@UModSys@@QAE?AU?$TRefObject@UIBinArchive@libmedia@UModSys@@U?$TRefObjectFunc@UIBinArchive@libmedia@UModSys@@@tl@3@@tl@5@PAUILibrary@libmedia@5@PAUIUtilities@95@ABU?$TString@U?$TSCoreConst@D@su@tl@UModSys@@U?$TComparerBinaryHash@D@234@@75@_N@Z 1003c660 f   plugin_test1.obj
 0001:0003b910       ?media_arch_stdio@RTest1_Shell@test1@test@modules@UModSys@@QAE?AU?$TRefObject@UIBinArchive@libmedia@UModSys@@U?$TRefObjectFunc@UIBinArchive@libmedia@UModSys@@@tl@3@@tl@5@ABU?$TString@U?$TSCoreConst@D@su@tl@UModSys@@U?$TComparerBinaryHash@D@234@@75@@Z 1003c910 f   plugin_test1.obj
 0001:0003ba10       ?create_3d@UI_Info@RTest1_Shell@test1@test@modules@UModSys@@QAE_NPBD@Z 1003ca10 f   plugin_test1.obj
 0001:0003c4f0       ?ui_test2@RTest1_Shell@test1@test@modules@UModSys@@QAEXXZ 1003d4f0 f   plugin_test1.obj
 0001:0003c630       ?add@SUniquePtrList@core@UModSys@@QAE_NPBUSUniquePointerInfo@23@@Z 1003d630 f   umodsys_lib_core:umodsys.core.uniqueptrlist.obj
 0001:0003c672       _memcpy                    1003d672 f   MSVCRT:MSVCR90.dll
 0001:0003c678       ___CxxFrameHandler3        1003d678 f   MSVCRT:MSVCR90.dll
 0001:0003c680       __ftol2_sse                1003d680 f   MSVCRT:ftol2.obj
 0001:0003c689       __ftol2_pentium4           1003d689 f   MSVCRT:ftol2.obj
 0001:0003c69c       __ftol2_sse_excpt          1003d69c f   MSVCRT:ftol2.obj
 0001:0003c6b6       __ftol2                    1003d6b6 f   MSVCRT:ftol2.obj
 0001:0003c72c       __CItan                    1003d72c f   MSVCRT:MSVCR90.dll
 0001:0003c732       __CIsqrt                   1003d732 f   MSVCRT:MSVCR90.dll
 0001:0003c738       __CIsin                    1003d738 f   MSVCRT:MSVCR90.dll
 0001:0003c73e       __CIcos                    1003d73e f   MSVCRT:MSVCR90.dll
 0001:0003c750       __alloca_probe_16          1003d750 f   MSVCRT:alloca16.obj
 0001:0003c766       __alloca_probe_8           1003d766     MSVCRT:alloca16.obj
 0001:0003c77c       __setjmp3                  1003d77c f   MSVCRT:MSVCR90.dll
 0001:0003c782       ___CxxLongjmpUnwind@4      1003d782 f   MSVCRT:MSVCR90.dll
 0001:0003c790       __alloca_probe             1003d790     MSVCRT:chkstk.obj
 0001:0003c790       __chkstk                   1003d790 f   MSVCRT:chkstk.obj
 0001:0003c7bc       _memset                    1003d7bc f   MSVCRT:MSVCR90.dll
 0001:0003c812       __get_sse2_info            1003d812 f   MSVCRT:cpu_disp.obj
 0001:0003c874       ___sse2_available_init     1003d874 f   MSVCRT:cpu_disp.obj
 0002:00000000       __imp__Sleep@4             10042000     kernel32:KERNEL32.dll
 0002:00000004       __imp__InterlockedCompareExchange@12 10042004     kernel32:KERNEL32.dll
 0002:00000008       __imp__DisableThreadLibraryCalls@4 10042008     kernel32:KERNEL32.dll
 0002:0000000c       __imp__QueryPerformanceCounter@4 1004200c     kernel32:KERNEL32.dll
 0002:00000010       __imp__GetTickCount@0      10042010     kernel32:KERNEL32.dll
 0002:00000014       __imp__GetCurrentThreadId@0 10042014     kernel32:KERNEL32.dll
 0002:00000018       __imp__GetCurrentProcessId@0 10042018     kernel32:KERNEL32.dll
 0002:0000001c       __imp__GetSystemTimeAsFileTime@4 1004201c     kernel32:KERNEL32.dll
 0002:00000020       __imp__TerminateProcess@8  10042020     kernel32:KERNEL32.dll
 0002:00000024       __imp__GetCurrentProcess@0 10042024     kernel32:KERNEL32.dll
 0002:00000028       __imp__UnhandledExceptionFilter@4 10042028     kernel32:KERNEL32.dll
 0002:0000002c       __imp__SetUnhandledExceptionFilter@4 1004202c     kernel32:KERNEL32.dll
 0002:00000030       __imp__IsDebuggerPresent@0 10042030     kernel32:KERNEL32.dll
 0002:00000034       __imp__InterlockedExchange@8 10042034     kernel32:KERNEL32.dll
 0002:00000038       \177KERNEL32_NULL_THUNK_DATA 10042038     kernel32:KERNEL32.dll
 0002:0000003c       __imp___unlock             1004203c     MSVCRT:MSVCR90.dll
 0002:00000040       __imp____dllonexit         10042040     MSVCRT:MSVCR90.dll
 0002:00000044       __imp___encode_pointer     10042044     MSVCRT:MSVCR90.dll
 0002:00000048       __imp___lock               10042048     MSVCRT:MSVCR90.dll
 0002:0000004c       __imp___onexit             1004204c     MSVCRT:MSVCR90.dll
 0002:00000050       __imp___decode_pointer     10042050     MSVCRT:MSVCR90.dll
 0002:00000054       __imp___malloc_crt         10042054     MSVCRT:MSVCR90.dll
 0002:00000058       __imp__free                10042058     MSVCRT:MSVCR90.dll
 0002:0000005c       __imp___encoded_null       1004205c     MSVCRT:MSVCR90.dll
 0002:00000060       __imp___initterm           10042060     MSVCRT:MSVCR90.dll
 0002:00000064       __imp___initterm_e         10042064     MSVCRT:MSVCR90.dll
 0002:00000068       __imp___amsg_exit          10042068     MSVCRT:MSVCR90.dll
 0002:0000006c       __imp___adjust_fdiv        1004206c     MSVCRT:MSVCR90.dll
 0002:00000070       __imp_?terminate@@YAXXZ    10042070     MSVCRT:MSVCR90.dll
 0002:00000074       __imp___vsnprintf          10042074     MSVCRT:MSVCR90.dll
 0002:00000074       __imp__vsnprintf           10042074     MSVCRT:MSVCR90.dll
 0002:00000078       __imp___except_handler4_common 10042078     MSVCRT:MSVCR90.dll
 0002:0000007c       __imp_?_type_info_dtor_internal_method@type_info@@QAEXXZ 1004207c     MSVCRT:MSVCR90.dll
 0002:00000080       __imp____clean_type_info_names_internal 10042080     MSVCRT:MSVCR90.dll
 0002:00000084       __imp___crt_debugger_hook  10042084     MSVCRT:MSVCR90.dll
 0002:00000088       __imp____CxxLongjmpUnwind@4 10042088     MSVCRT:MSVCR90.dll
 0002:0000008c       __imp___setjmp3            1004208c     MSVCRT:MSVCR90.dll
 0002:00000090       __imp___CIcos              10042090     MSVCRT:MSVCR90.dll
 0002:00000094       __imp___CIsin              10042094     MSVCRT:MSVCR90.dll
 0002:00000098       __imp___CIsqrt             10042098     MSVCRT:MSVCR90.dll
 0002:0000009c       __imp___CItan              1004209c     MSVCRT:MSVCR90.dll
 0002:000000a0       __imp____CxxFrameHandler3  100420a0     MSVCRT:MSVCR90.dll
 0002:000000a4       __imp__memcpy              100420a4     MSVCRT:MSVCR90.dll
 0002:000000a8       __imp__strncpy             100420a8     MSVCRT:MSVCR90.dll
 0002:000000ac       __imp__strtol              100420ac     MSVCRT:MSVCR90.dll
 0002:000000b0       __imp___snprintf           100420b0     MSVCRT:MSVCR90.dll
 0002:000000b4       __imp__strtod              100420b4     MSVCRT:MSVCR90.dll
 0002:000000b8       __imp__longjmp             100420b8     MSVCRT:MSVCR90.dll
 0002:000000bc       __imp__memchr              100420bc     MSVCRT:MSVCR90.dll
 0002:000000c0       __imp__strstr              100420c0     MSVCRT:MSVCR90.dll
 0002:000000c4       __imp__memmove             100420c4     MSVCRT:MSVCR90.dll
 0002:000000c8       __imp_??2@YAPAXI@Z         100420c8     MSVCRT:MSVCR90.dll
 0002:000000cc       __imp__sscanf              100420cc     MSVCRT:MSVCR90.dll
 0002:000000d0       __imp_??3@YAXPAX@Z         100420d0     MSVCRT:MSVCR90.dll
 0002:000000d4       __imp___purecall           100420d4     MSVCRT:MSVCR90.dll
 0002:000000d8       __imp__strncmp             100420d8     MSVCRT:MSVCR90.dll
 0002:000000dc       __imp____CppXcptFilter     100420dc     MSVCRT:MSVCR90.dll
 0002:000000e0       __imp__sprintf             100420e0     MSVCRT:MSVCR90.dll
 0002:000000e4       __imp__memset              100420e4     MSVCRT:MSVCR90.dll
 0002:000000e8       \177MSVCR90_NULL_THUNK_DATA 100420e8     MSVCRT:MSVCR90.dll
 0002:000000ec       __imp__SDL_Quit            100420ec     lib_SDL2:lib_SDL2.dll
 0002:000000f0       __imp__SDL_RenderDrawRect  100420f0     lib_SDL2:lib_SDL2.dll
 0002:000000f4       __imp__SDL_RenderFillRect  100420f4     lib_SDL2:lib_SDL2.dll
 0002:000000f8       __imp__SDL_SetTextureColorMod 100420f8     lib_SDL2:lib_SDL2.dll
 0002:000000fc       __imp__SDL_SetRenderDrawColor 100420fc     lib_SDL2:lib_SDL2.dll
 0002:00000100       __imp__SDL_SetRenderDrawBlendMode 10042100     lib_SDL2:lib_SDL2.dll
 0002:00000104       __imp__SDL_RenderPresent   10042104     lib_SDL2:lib_SDL2.dll
 0002:00000108       __imp__SDL_CreateTextureFromSurface 10042108     lib_SDL2:lib_SDL2.dll
 0002:0000010c       __imp__SDL_CreateRenderer  1004210c     lib_SDL2:lib_SDL2.dll
 0002:00000110       __imp__SDL_DestroyTexture  10042110     lib_SDL2:lib_SDL2.dll
 0002:00000114       __imp__SDL_DestroyRenderer 10042114     lib_SDL2:lib_SDL2.dll
 0002:00000118       __imp__SDL_RenderCopy      10042118     lib_SDL2:lib_SDL2.dll
 0002:0000011c       __imp__SDL_RenderDrawLines 1004211c     lib_SDL2:lib_SDL2.dll
 0002:00000120       __imp__SDL_RenderDrawLine  10042120     lib_SDL2:lib_SDL2.dll
 0002:00000124       __imp__SDL_StopTextInput   10042124     lib_SDL2:lib_SDL2.dll
 0002:00000128       __imp__SDL_GL_ExtensionSupported 10042128     lib_SDL2:lib_SDL2.dll
 0002:0000012c       __imp__SDL_Init            1004212c     lib_SDL2:lib_SDL2.dll
 0002:00000130       __imp__SDL_DestroyWindow   10042130     lib_SDL2:lib_SDL2.dll
 0002:00000134       __imp__TTF_GlyphMetrics    10042134     lib_SDL2:lib_SDL2.dll
 0002:00000138       __imp__SDL_GL_DeleteContext 10042138     lib_SDL2:lib_SDL2.dll
 0002:0000013c       __imp__SDL_GL_SwapWindow   1004213c     lib_SDL2:lib_SDL2.dll
 0002:00000140       __imp__SDL_CreateWindow    10042140     lib_SDL2:lib_SDL2.dll
 0002:00000144       __imp__SDL_ShowCursor      10042144     lib_SDL2:lib_SDL2.dll
 0002:00000148       __imp__SDL_GL_MakeCurrent  10042148     lib_SDL2:lib_SDL2.dll
 0002:0000014c       __imp__SDL_SetRelativeMouseMode 1004214c     lib_SDL2:lib_SDL2.dll
 0002:00000150       __imp__SDL_GL_CreateContext 10042150     lib_SDL2:lib_SDL2.dll
 0002:00000154       __imp__TTF_OpenFont        10042154     lib_SDL2:lib_SDL2.dll
 0002:00000158       __imp__TTF_CloseFont       10042158     lib_SDL2:lib_SDL2.dll
 0002:0000015c       __imp__TTF_Init            1004215c     lib_SDL2:lib_SDL2.dll
 0002:00000160       __imp__SDL_PumpEvents      10042160     lib_SDL2:lib_SDL2.dll
 0002:00000164       __imp__TTF_RenderGlyph_Shaded 10042164     lib_SDL2:lib_SDL2.dll
 0002:00000168       __imp__SDL_Delay           10042168     lib_SDL2:lib_SDL2.dll
 0002:0000016c       __imp__SDL_GL_GetProcAddress 1004216c     lib_SDL2:lib_SDL2.dll
 0002:00000170       __imp__SDL_StartTextInput  10042170     lib_SDL2:lib_SDL2.dll
 0002:00000174       __imp__SDL_PeepEvents      10042174     lib_SDL2:lib_SDL2.dll
 0002:00000178       __imp__SDL_GetTicks        10042178     lib_SDL2:lib_SDL2.dll
 0002:0000017c       __imp__SDL_GL_SetAttribute 1004217c     lib_SDL2:lib_SDL2.dll
 0002:00000180       __imp__TTF_Quit            10042180     lib_SDL2:lib_SDL2.dll
 0002:00000184       __imp__SDL_FreeSurface     10042184     lib_SDL2:lib_SDL2.dll
 0002:00000188       __imp__SDL_RenderClear     10042188     lib_SDL2:lib_SDL2.dll
 0002:0000018c       \177lib_SDL2_NULL_THUNK_DATA 1004218c     lib_SDL2:lib_SDL2.dll
 0002:00000190       __imp__jpeg_std_error      10042190     lib_jpeglib:lib_jpeglib.dll
 0002:00000194       __imp__jpeg_read_scanlines 10042194     lib_jpeglib:lib_jpeglib.dll
 0002:00000198       __imp__jpeg_finish_decompress 10042198     lib_jpeglib:lib_jpeglib.dll
 0002:0000019c       __imp__jpeg_read_header    1004219c     lib_jpeglib:lib_jpeglib.dll
 0002:000001a0       __imp__jpeg_destroy_decompress 100421a0     lib_jpeglib:lib_jpeglib.dll
 0002:000001a4       __imp__jpeg_CreateDecompress 100421a4     lib_jpeglib:lib_jpeglib.dll
 0002:000001a8       __imp__jpeg_start_decompress 100421a8     lib_jpeglib:lib_jpeglib.dll
 0002:000001ac       __imp__jpeg_destroy        100421ac     lib_jpeglib:lib_jpeglib.dll
 0002:000001b0       __imp__jpeg_resync_to_restart 100421b0     lib_jpeglib:lib_jpeglib.dll
 0002:000001b4       \177lib_jpeglib_NULL_THUNK_DATA 100421b4     lib_jpeglib:lib_jpeglib.dll
 0002:000001b8       __imp__png_set_sig_bytes   100421b8     lib_libpng:lib_libpng.dll
 0002:000001bc       __imp__png_destroy_read_struct 100421bc     lib_libpng:lib_libpng.dll
 0002:000001c0       __imp__png_set_IHDR        100421c0     lib_libpng:lib_libpng.dll
 0002:000001c4       __imp__png_error           100421c4     lib_libpng:lib_libpng.dll
 0002:000001c8       __imp__png_read_update_info 100421c8     lib_libpng:lib_libpng.dll
 0002:000001cc       __imp__png_set_read_fn     100421cc     lib_libpng:lib_libpng.dll
 0002:000001d0       __imp__png_create_info_struct 100421d0     lib_libpng:lib_libpng.dll
 0002:000001d4       __imp__png_get_io_ptr      100421d4     lib_libpng:lib_libpng.dll
 0002:000001d8       __imp__png_write_end       100421d8     lib_libpng:lib_libpng.dll
 0002:000001dc       __imp__png_create_read_struct 100421dc     lib_libpng:lib_libpng.dll
 0002:000001e0       __imp__png_write_rows      100421e0     lib_libpng:lib_libpng.dll
 0002:000001e4       __imp__png_sig_cmp         100421e4     lib_libpng:lib_libpng.dll
 0002:000001e8       __imp__png_read_info       100421e8     lib_libpng:lib_libpng.dll
 0002:000001ec       __imp__png_set_write_fn    100421ec     lib_libpng:lib_libpng.dll
 0002:000001f0       __imp__png_destroy_write_struct 100421f0     lib_libpng:lib_libpng.dll
 0002:000001f4       __imp__png_write_info      100421f4     lib_libpng:lib_libpng.dll
 0002:000001f8       __imp__png_get_IHDR        100421f8     lib_libpng:lib_libpng.dll
 0002:000001fc       __imp__png_create_write_struct 100421fc     lib_libpng:lib_libpng.dll
 0002:00000200       __imp__png_read_row        10042200     lib_libpng:lib_libpng.dll
 0002:00000204       __imp__png_set_longjmp_fn  10042204     lib_libpng:lib_libpng.dll
 0002:00000208       \177lib_libpng_NULL_THUNK_DATA 10042208     lib_libpng:lib_libpng.dll
 0002:0000020c       __imp__inflateEnd          1004220c     lib_zlib:lib_zlib.dll
 0002:00000210       __imp__inflate             10042210     lib_zlib:lib_zlib.dll
 0002:00000214       __imp__inflateInit2_       10042214     lib_zlib:lib_zlib.dll
 0002:00000218       __imp__deflateEnd          10042218     lib_zlib:lib_zlib.dll
 0002:0000021c       __imp__crc32               1004221c     lib_zlib:lib_zlib.dll
 0002:00000220       __imp__deflateInit2_       10042220     lib_zlib:lib_zlib.dll
 0002:00000224       __imp__deflate             10042224     lib_zlib:lib_zlib.dll
 0002:00000228       \177lib_zlib_NULL_THUNK_DATA 10042228     lib_zlib:lib_zlib.dll
 0002:0000022c       ___xc_a                    1004222c     MSVCRT:cinitexe.obj
 0002:00001814       ___xc_z                    10043814     MSVCRT:cinitexe.obj
 0002:00001818       ___xi_a                    10043818     MSVCRT:cinitexe.obj
 0002:00001824       ___xi_z                    10043824     MSVCRT:cinitexe.obj
 0002:0000182c       ??_7type_info@@6B@         1004382c     MSVCRT:ti_inst.obj
 0002:00001830       __pDefaultRawDllMain       10043830     MSVCRT:crtdll.obj
 0002:00001830       __pRawDllMain              10043830     MSVCRT:crtdll.obj
 0002:0000183c       ??_C@_0M@EJPMPHJL@?1atlas1?4png?$AA@ 1004383c     plugin_test1.obj
 0002:00001848       ??_C@_0P@GHFPNOJB@bad?5allocation?$AA@ 10043848     plugin_test1.obj
 0002:00001858       ??_C@_0BF@OCNNAADO@UModSys?3?3core?3?3IRoot?$AA@ 10043858     plugin_test1.obj
 0002:00001870       ??_C@_0BK@EMIJFOPA@UModSys?3?3core?3?3IRefObject?$AA@ 10043870     plugin_test1.obj
 0002:0000188c       ??_C@_0BL@IOMMHELF@UModSys?3?3core?3?3IParameters?$AA@ 1004388c     plugin_test1.obj
 0002:000018a8       ??_C@_0N@LLHHKJHK@core?3?3sint16?$AA@ 100438a8     plugin_test1.obj
 0002:000018b8       ??_C@_0N@NMJPLIBA@core?3?3sint32?$AA@ 100438b8     plugin_test1.obj
 0002:000018c8       ??_C@_0O@PCCFAKKB@core?3?3float32?$AA@ 100438c8     plugin_test1.obj
 0002:000018d8       ??_C@_0BI@IKAOEFAP@UModSys?3?3base?3?3IConsole?$AA@ 100438d8     plugin_test1.obj
 0002:000018f0       ??_C@_0BH@LKDEEPPM@UModSys?3?3base?3?3IModule?$AA@ 100438f0     plugin_test1.obj
 0002:00001908       ??_C@_0BO@PHJOHFCB@UModSys?3?3base?3?3IModuleLibrary?$AA@ 10043908     plugin_test1.obj
 0002:00001928       ??_C@_0BK@FDPIOPHG@UModSys?3?3base?3?3IModObject?$AA@ 10043928     plugin_test1.obj
 0002:00001944       ??_C@_0BK@OIBKNCKJ@UModSys?3?3base?3?3IGenerator?$AA@ 10043944     plugin_test1.obj
 0002:00001960       ??_C@_0BG@PJBGCMEC@UModSys?3?3base?3?3IShell?$AA@ 10043960     plugin_test1.obj
 0002:00001978       ??_C@_0BH@PFCONEJJ@UModSys?3?3base?3?3ISystem?$AA@ 10043978     plugin_test1.obj
 0002:00001990       ??_C@_0CB@CLGNFEGF@UModSys?3?3libmedia?3?3IStreamReader@ 10043990     plugin_test1.obj
 0002:000019b4       ??_C@_0CB@HOPFFLP@UModSys?3?3libmedia?3?3IStreamWriter@ 100439b4     plugin_test1.obj
 0002:000019d8       ??_C@_0BO@INLIIEII@UModSys?3?3libmedia?3?3IUtilities?$AA@ 100439d8     plugin_test1.obj
 0002:000019f8       ??_C@_0BO@BMLODIDG@UModSys?3?3libmedia?3?3ILibObject?$AA@ 100439f8     plugin_test1.obj
 0002:00001a18       ??_C@_0BP@KCJMEDNO@UModSys?3?3libmedia?3?3IBinArchive?$AA@ 10043a18     plugin_test1.obj
 0002:00001a38       ??_C@_0CB@FDEKNMGJ@UModSys?3?3libmedia?3?3IBinObjFilter@ 10043a38     plugin_test1.obj
 0002:00001a5c       ??_C@_0BM@DPCMOAPM@UModSys?3?3libmedia?3?3ILibrary?$AA@ 10043a5c     plugin_test1.obj
 0002:00001a78       ??_C@_0CD@ELIFEGE@UModSys?3?3libmedia?3?3ILibraryBinTr@ 10043a78     plugin_test1.obj
 0002:00001a9c       ??_C@_0CE@EGHBJBAJ@UModSys?3?3libmedia?3?3ILibraryBinCa@ 10043a9c     plugin_test1.obj
 0002:00001ac0       ??_C@_0CF@LBIGBLOK@UModSys?3?3libmedia?3?3ILibraryObjFi@ 10043ac0     plugin_test1.obj
 0002:00001ae8       ??_C@_0CE@BOBLEOBL@UModSys?3?3libmedia?3?3ILibraryObjCa@ 10043ae8     plugin_test1.obj
 0002:00001b0c       ??_C@_0CD@LJFEJKGF@UModSys?3?3libmedia?3?3ILibraryLayer@ 10043b0c     plugin_test1.obj
 0002:00001b30       ??_C@_0CE@FGFAKEDN@UModSys?3?3libmedia?3?3IBinArchiveFr@ 10043b30     plugin_test1.obj
 0002:00001b54       ??_C@_0CN@GBHCKFMF@UModSys?3?3libmedia?3?3IBinArchiveFr@ 10043b54     plugin_test1.obj
 0002:00001b84       ??_C@_0CE@GJOHFLIN@UModSys?3?3libmedia?3?3ISerializeRea@ 10043b84     plugin_test1.obj
 0002:00001ba8       ??_C@_0CE@EFGFFKFH@UModSys?3?3libmedia?3?3ISerializeWri@ 10043ba8     plugin_test1.obj
 0002:00001bd0       ?utf_bytesFromUTF8@su@tl@UModSys@@3QBEB 10043bd0     umodsys_lib_core:umodsys.tl.utf8.obj
 0002:00001cd0       ?utf_firstByteMark@su@tl@UModSys@@3QBEB 10043cd0     umodsys_lib_core:umodsys.tl.utf8.obj
 0002:00001cd8       ?utf_offsetsFromUTF8@su@tl@UModSys@@3QBHB 10043cd8     umodsys_lib_core:umodsys.tl.utf8.obj
 0002:00001db8       ??_C@_0BL@NMJBPMOF@UModSys?3?3base?3?3IConsoleExt?$AA@ 10043db8     plugin_test1.obj
 0002:00001dd4       ??_C@_0BO@CGANABBB@UModSys?3?3base?3?3IConsoleHelper?$AA@ 10043dd4     plugin_test1.obj
 0002:00001df4       ??_C@_0CF@NIEDAAFG@UModSys?3?3base?3?3IConsoleHelperHis@ 10043df4     plugin_test1.obj
 0002:00001e1c       ??_C@_0CD@FCDJONHN@UModSys?3?3base?3?3IConsoleHelperInp@ 10043e1c     plugin_test1.obj
 0002:00001e40       ??_C@_0CE@KMOIHDDJ@UModSys?3?3base?3?3IConsoleHelperOut@ 10043e40     plugin_test1.obj
 0002:00001e64       ??_C@_0CH@NMEMKECD@UModSys?3?3base?3?3IConsoleHelperOut@ 10043e64     plugin_test1.obj
 0002:00001e8c       ??_C@_0CE@DIFILHID@UModSys?3?3libui?3?3IKeyboardControl@ 10043e8c     plugin_test1.obj
 0002:00001eb0       ??_C@_0CB@MBIJAGJE@UModSys?3?3libui?3?3IMouseController@ 10043eb0     plugin_test1.obj
 0002:00001ed4       ??_C@_0CE@HLKJKPC@UModSys?3?3libui?3?3IJoystickControl@ 10043ed4     plugin_test1.obj
 0002:00001ef8       ??_C@_0BK@GJJNKGGD@UModSys?3?3libui?3?3ITerminal?$AA@ 10043ef8     plugin_test1.obj
 0002:00001f14       ??_C@_0CK@HENOKNKH@UModSys?3?3libui?3?3IConsoleHelperIn@ 10043f14     plugin_test1.obj
 0002:00001f40       ??_C@_0BL@LMBCJDKM@UModSys?3?3libui?3?3ICollector?$AA@ 10043f40     plugin_test1.obj
 0002:00001f5c       ??_C@_0CB@FBNPBBJO@UModSys?3?3libui?3?3IAsyncController@ 10043f5c     plugin_test1.obj
 0002:00001f80       ??_C@_0CA@OAEFPLGI@UModSys?3?3libui?3?3IAsyncCollector?$AA@ 10043f80     plugin_test1.obj
 0002:00001fa0       ??_C@_0BH@IHOOLPEB@UModSys?3?3libui?3?3IFrame?$AA@ 10043fa0     plugin_test1.obj
 0002:00001fb8       ??_C@_0BI@GAEFGDBL@UModSys?3?3libui?3?3IDialog?$AA@ 10043fb8     plugin_test1.obj
 0002:00001fd0       ??_C@_0BH@JDBCAPMN@UModSys?3?3lib2d?3?3IImage?$AA@ 10043fd0     plugin_test1.obj
 0002:00001fe8       ??_C@_0BO@GDIFOICC@UModSys?3?3lib2d?3?3IImageFactory?$AA@ 10043fe8     plugin_test1.obj
 0002:00002008       ??_C@_0BM@NDCOKBPH@UModSys?3?3lib2d?3?3IMultiImage?$AA@ 10044008     plugin_test1.obj
 0002:00002024       ??_C@_0BO@FFPMHFPK@UModSys?3?3lib2d?3?3IRenderDriver?$AA@ 10044024     plugin_test1.obj
 0002:00002044       ??_C@_0BP@IDDIEMEP@UModSys?3?3lib3d?3?3IGeneralObject?$AA@ 10044044     plugin_test1.obj
 0002:00002064       ??_C@_0BN@EHHOKOFB@UModSys?3?3lib3d?3?3ILogicObject?$AA@ 10044064     plugin_test1.obj
 0002:00002084       ??_C@_0BO@OMKEMMOP@UModSys?3?3lib3d?3?3IRenderObject?$AA@ 10044084     plugin_test1.obj
 0002:000020a4       ??_C@_0BO@LAMEPKPH@UModSys?3?3lib3d?3?3IVisualObject?$AA@ 100440a4     plugin_test1.obj
 0002:000020c4       ??_C@_0BP@ODBFJMEP@UModSys?3?3lib3d?3?3ISharedLibrary?$AA@ 100440c4     plugin_test1.obj
 0002:000020e4       ??_C@_0BK@GPNGDGIH@UModSys?3?3lib3d?3?3IRenderer?$AA@ 100440e4     plugin_test1.obj
 0002:00002100       ??_C@_0BJ@PLFDFONK@UModSys?3?3lib3d?3?3ITexture?$AA@ 10044100     plugin_test1.obj
 0002:0000211c       ??_C@_0BO@JNBEGHMD@UModSys?3?3lib3d?3?3ITextureCells?$AA@ 1004411c     plugin_test1.obj
 0002:0000213c       ??_C@_0BN@NOBBOAEH@UModSys?3?3lib3d?3?3IVertexArray?$AA@ 1004413c     plugin_test1.obj
 0002:0000215c       ??_C@_0BO@LKKOMDBL@UModSys?3?3lib3d?3?3IRenderDriver?$AA@ 1004415c     plugin_test1.obj
 0002:0000217c       ??_C@_0CB@GDMNNDBH@UModSys?3?3lib3d?3?3ISceneController@ 1004417c     plugin_test1.obj
 0002:000021a0       ??_C@_0BH@MPFCODEJ@UModSys?3?3lib3d?3?3IScene?$AA@ 100441a0     plugin_test1.obj
 0002:000021b8       ??_C@_0BM@GCMBGDPF@UModSys?3?3lib3d?3?3IVisualizer?$AA@ 100441b8     plugin_test1.obj
 0002:000021d4       ??_C@_0CD@CDKKDHFC@UModSys?3?3lib3d?3?3IVisualSceneMapp@ 100441d4     plugin_test1.obj
 0002:000021f8       ??_C@_0CB@GMFCHLKP@UModSys?3?3lib3d?3?3IVisualizerScene@ 100441f8     plugin_test1.obj
 0002:0000221c       ??_C@_0CE@BKGLONIF@UModSys?3?3lib3d?3?3IRenderObject_Br@ 1004421c     plugin_test1.obj
 0002:00002240       ??_C@_0CE@IFAPAAIC@UModSys?3?3lib3d?3?3IVisualObject_Br@ 10044240     plugin_test1.obj
 0002:00002264       ??_C@_0CD@EFJNFANB@UModSys?3?3lib3d?3?3ILogicObject_Bru@ 10044264     plugin_test1.obj
 0002:00002288       ??_C@_0CD@MLHMPMOH@UModSys?3?3lib3d?3?3IVisualObject_Me@ 10044288     plugin_test1.obj
 0002:000022ac       ??_C@_0CG@NINBBAKM@UModSys?3?3lib3d?3?3IVisualObject_Pi@ 100442ac     plugin_test1.obj
 0002:000022d4       ??_C@_0CI@KFOLIFL@UModSys?3?3lib3d?3?3IVisualObject_Pa@ 100442d4     plugin_test1.obj
 0002:000022fc       ??_C@_0CF@GILDDOMN@UModSys?3?3lib3d?3?3IVisualObject_Ca@ 100442fc     plugin_test1.obj
 0002:00002324       ??_C@_0CE@KECBEJLJ@UModSys?3?3lib3d?3?3IVisualObject_Li@ 10044324     plugin_test1.obj
 0002:00002348       ??_C@_0O@OJIELOLN@base?3?3cl_Info?$AA@ 10044348     plugin_test1.obj
 0002:00002358       ??_C@_0P@MKBICFNB@base?3?3cl_Debug?$AA@ 10044358     plugin_test1.obj
 0002:00002368       ??_C@_0P@KFJJCKML@base?3?3cl_Error?$AA@ 10044368     plugin_test1.obj
 0002:00002378       ??_C@_0CG@DNABKNDD@UModSys?3?3modules?3?3test?3?3test1?3?3I@ 10044378     plugin_test1.obj
 0002:000023a0       ??_C@_0CG@FINIGFAH@UModSys?3?3modules?3?3test?3?3test1?3?3R@ 100443a0     plugin_test1.obj
 0002:000023c8       ??_C@_0CN@EFAOPDDB@UModSys?3?3modules?3?3test?3?3test1?3?3R@ 100443c8     plugin_test1.obj
 0002:000023f8       ??_C@_0CM@LNHNHIJB@UModSys?3?3modules?3?3test?3?3test1?3?3R@ 100443f8     plugin_test1.obj
 0002:00002424       ??_C@_0BC@NIGGCDMG@RTest1_Shell?$CI?$CJ?5?$HL?6?$AA@ 10044424     plugin_test1.obj
 0002:00002438       ??_C@_0DK@JIEMIEKA@UModSys?3?3modules?3?3test?3?3test1?3?3R@ 10044438     plugin_test1.obj
 0002:00002474       ??_C@_0CK@OICDGBDJ@?4?4?2?4?4?2?4?4?2src?2plugin?2test?2plugin_@ 10044474     plugin_test1.obj
 0002:000024a0       ??_C@_0BF@BMCPNMPN@?$HN?5?1?1?5RTest1_Shell?$CI?$CJ?6?$AA@ 100444a0     plugin_test1.obj
 0002:000024b8       ??_C@_0DL@OIAHAJF@UModSys?3?3modules?3?3test?3?3test1?3?3R@ 100444b8     plugin_test1.obj
 0002:000024f4       ??_C@_0BB@MLDFLEML@?$HORTest1_Shell?$CI?$CJ?6?$AA@ 100444f4     plugin_test1.obj
 0002:00002508       ??_C@_0BJ@CCPCJEPP@RTest1_Shell?3?3connect?$CI?$CJ?6?$AA@ 10044508     plugin_test1.obj
 0002:00002524       ??_C@_0BM@KBDBHLN@RTest1_Shell?3?3disconnect?$CI?$CJ?6?$AA@ 10044524     plugin_test1.obj
 0002:00002540       ??_C@_0BI@PGLACHLJ@RTest1_Shell?3?3tick?$CI?$CFg?$CJ?6?$AA@ 10044540     plugin_test1.obj
 0002:00002558       ??_C@_0BM@JFIEEBE@RTest1_Shell?3?3command?$CI?$CD?$CFd?$CJ?6?$AA@ 10044558     plugin_test1.obj
 0002:00002574       ??_C@_0BB@GMMCKEMN@set?5?$HLsint32?5?$CFd?$HN?6?$AA@ 10044574     plugin_test1.obj
 0002:00002588       ??_C@_0BC@PDIIKJEF@set?5?$HLfloat32?5?$CFg?$HN?6?$AA@ 10044588     plugin_test1.obj
 0002:0000259c       ??_C@_0BD@OCNPGCGH@set?5?$HL?$DP?8?$CFs?8?5?$CFp?3?$CFp?$HN?6?$AA@ 1004459c     plugin_test1.obj
 0002:000025b0       ??_C@_0BH@CNDHJKPE@info?3?3set?5?$HLsint32?5?$CFd?$HN?6?$AA@ 100445b0     plugin_test1.obj
 0002:000025c8       ??_C@_0BI@KMMMNEHD@info?3?3set?5?$HLfloat32?5?$CFg?$HN?6?$AA@ 100445c8     plugin_test1.obj
 0002:000025e0       ??_C@_0BJ@CNDKLDID@info?3?3set?5?$HL?$DP?8?$CFs?8?5?$CFp?3?$CFp?$HN?6?$AA@ 100445e0     plugin_test1.obj
 0002:000025fc       ??_C@_0BI@FHMPPAI@debug?3?3set?5?$HLsint32?5?$CFd?$HN?6?$AA@ 100445fc     plugin_test1.obj
 0002:00002614       ??_C@_0BJ@BIOPCBCB@debug?3?3set?5?$HLfloat32?5?$CFg?$HN?6?$AA@ 10044614     plugin_test1.obj
 0002:00002630       ??_C@_0BK@KIOLKAKO@debug?3?3set?5?$HL?$DP?8?$CFs?8?5?$CFp?3?$CFp?$HN?6?$AA@ 10044630     plugin_test1.obj
 0002:0000264c       ??_C@_0BK@HKBGHNGK@?$DP?8?$CFs?8?3?3set?5?$HL?$DP?8?$CFs?8?5?$CFp?3?$CFp?$HN?6?$AA@ 1004464c     plugin_test1.obj
 0002:00002668       ??_C@_0BB@BGLHONNH@Begin?5prop?5test?6?$AA@ 10044668     plugin_test1.obj
 0002:0000267c       ??_C@_0P@LNDIPJMG@End?5prop?5test?6?$AA@ 1004467c     plugin_test1.obj
 0002:0000268c       ??_C@_0BE@HOPEBJFH@Begin?5prop?5id?5test?6?$AA@ 1004468c     plugin_test1.obj
 0002:000026a0       ??_C@_0BC@DALJJJFP@End?5prop?5id?5test?6?$AA@ 100446a0     plugin_test1.obj
 0002:000026b2       ??_C@_00CNPNBAHC@?$AA@     100446b2     plugin_test1.obj
 0002:000026b4       ??_C@_07OJGHGMNE@factory?$AA@ 100446b4     plugin_test1.obj
 0002:000026bc       ??_C@_08GJJAEBBN@filepath?$AA@ 100446bc     plugin_test1.obj
 0002:000026c8       ??_C@_0M@LAGNAJEJ@?$CK?3?3stdio?3?3?$CK?$AA@ 100446c8     plugin_test1.obj
 0002:000026d4       ??_C@_05DDAJCEML@?$CK_ZIP?$AA@ 100446d4     plugin_test1.obj
 0002:000026dc       ??_C@_05NGFEDHGN@write?$AA@ 100446dc     plugin_test1.obj
 0002:000026e4       ??_C@_06DGDLPBAN@client?$AA@ 100446e4     plugin_test1.obj
 0002:000026ec       ??_C@_08BABJIOEM@filename?$AA@ 100446ec     plugin_test1.obj
 0002:000026f8       ??_C@_07OPILGPEN@library?$AA@ 100446f8     plugin_test1.obj
 0002:00002700       ??_C@_0N@PAPPLDNF@?$CK?3?3stdlib?3?3?$CK?$AA@ 10044700     plugin_test1.obj
 0002:00002710       ??_C@_01LFCBOECM@?4?$AA@   10044710     plugin_test1.obj
 0002:00002714       ??_C@_01KMDKNFGN@?1?$AA@   10044714     plugin_test1.obj
 0002:00002718       ??_C@_0M@PCCOIOKO@?4?1write?9dir?$AA@ 10044718     plugin_test1.obj
 0002:00002724       ??_C@_0BB@KPLGJIHF@?$CK?3?3images_std?3?3?$CK?$AA@ 10044724     plugin_test1.obj
 0002:00002738       ??_C@_06DJAMKFID@stream?$AA@ 10044738     plugin_test1.obj
 0002:00002740       ??_C@_0O@IMJFODOA@lib2d?3?3IImage?$AA@ 10044740     plugin_test1.obj
 0002:00002750       ??_C@_0M@CFCCPIPG@?1mctest?4zip?$AA@ 10044750     plugin_test1.obj
 0002:0000275c       ??_C@_04OLINNCPN@?1mc?1?$AA@ 1004475c     plugin_test1.obj
 0002:00002764       ??_C@_0L@DIAMDLBM@ICollector?$AA@ 10044764     plugin_test1.obj
 0002:00002770       ??_C@_09MJHEMIHA@ITerminal?$AA@ 10044770     plugin_test1.obj
 0002:0000277c       ??_C@_0BH@GMHJDKHE@?$FLKEY?4KEY?5?$CFd?0?$CFd?0?$CFd?0?$CFd?$FN?6?$AA@ 1004477c     plugin_test1.obj
 0002:00002794       ??_C@_0P@DPHFCOMI@?$FLKEY?4TEXT?5?$CFs?$FN?6?$AA@ 10044794     plugin_test1.obj
 0002:000027a4       ??_C@_0CO@KGBDJAHA@?$FLMOUSE?5?$CFx?5B?$CFx?3?$CFd?5A?$CI?$CFd?0?$CFd?$CJ?5R?$CI?$CFd?0?$CF@ 100447a4     plugin_test1.obj
 0002:000027d4       ??_C@_0BJ@OKPGIKIP@?$FLCOMMAND?5?$CFd?$EA?$CFp?5C?$CFd?5D?$CFd?$FN?6?$AA@ 100447d4     plugin_test1.obj
 0002:000027f0       ??_C@_05IOMEMJEC@count?$AA@ 100447f0     plugin_test1.obj
 0002:000027f8       ??_C@_02LBJNIHKO@dy?$AA@   100447f8     plugin_test1.obj
 0002:000027fc       ??_C@_04CIMGMMMG@text?$AA@ 100447fc     plugin_test1.obj
 0002:00002804       ??_C@_08GCGILLNN@Item?5?$CD?$CFd?$AA@ 10044804     plugin_test1.obj
 0002:00002810       ??_C@_0L@DPNPMJNC@Neocyr?4ttf?$AA@ 10044810     plugin_test1.obj
 0002:0000281c       ??_C@_09HPINFNJC@max_glyph?$AA@ 1004481c     plugin_test1.obj
 0002:00002828       ??_C@_0BF@OHNOFNLO@?5?5error?5create?5font?6?$AA@ 10044828     plugin_test1.obj
 0002:00002840       ??_C@_0BK@EIEBINCJ@?5?5created?5font?3?5?$CFs?5?$DN?$DO?5?$CFp?6?$AA@ 10044840     plugin_test1.obj
 0002:0000285c       ??_C@_0CE@KNEEOFOA@?5?5error?5create?5IKeyboardControll@ 1004485c     plugin_test1.obj
 0002:00002880       ??_C@_0CJ@OEBBFEFK@?5?5created?5IKeyboardController?3?5?$CF@ 10044880     plugin_test1.obj
 0002:000028ac       ??_C@_0CB@NHAHJFLI@?5?5error?5create?5IMouseController?6@ 100448ac     plugin_test1.obj
 0002:000028d0       ??_C@_0CG@IKOBAIJ@?5?5created?5IMouseController?3?5?$CFs?5?$DN@ 100448d0     plugin_test1.obj
 0002:000028f8       ??_C@_07BANDPJOM@caption?$AA@ 100448f8     plugin_test1.obj
 0002:00002900       ??_C@_0CE@HACAKFFL@?5?5not?5created?5lib2d?3?3IRenderDriv@ 10044900     plugin_test1.obj
 0002:00002924       ??_C@_0CK@INONFMOM@?5?5created?5lib2d?3?3IRenderDriver?3?5@ 10044924     plugin_test1.obj
 0002:00002950       ??_C@_06NCODBMHO@driver?$AA@ 10044950     plugin_test1.obj
 0002:00002958       ??_C@_04EFPADHIC@font?$AA@ 10044958     plugin_test1.obj
 0002:00002960       ??_C@_0N@IGLHPLGK@?$CK?3?3frames?3?3?$CK?$AA@ 10044960     plugin_test1.obj
 0002:00002970       ??_C@_05MIJNFGED@frame?$AA@ 10044970     plugin_test1.obj
 0002:00002978       ??_C@_07OJKFJLLK@Caption?$AA@ 10044978     plugin_test1.obj
 0002:00002980       ??_C@_08LLDNMFDF@Button?51?$AA@ 10044980     plugin_test1.obj
 0002:0000298c       ??_C@_06HFKPFKMP@button?$AA@ 1004498c     plugin_test1.obj
 0002:00002994       ??_C@_08JABAJGPG@Button?52?$AA@ 10044994     plugin_test1.obj
 0002:000029a0       ??_C@_08IJALKHLH@Button?53?$AA@ 100449a0     plugin_test1.obj
 0002:000029ac       ??_C@_05MFEJDJP@value?$AA@ 100449ac     plugin_test1.obj
 0002:000029b4       ??_C@_07GFFCACEC@max_len?$AA@ 100449b4     plugin_test1.obj
 0002:000029bc       ??_C@_04NABONMNG@edit?$AA@ 100449bc     plugin_test1.obj
 0002:000029c4       ??_C@_07PDLNCNLP@user_db?$AA@ 100449c4     plugin_test1.obj
 0002:000029cc       ??_C@_04DONFEANM@list?$AA@ 100449cc     plugin_test1.obj
 0002:000029d4       ??_C@_09DBGIIEKN@IRenderer?$AA@ 100449d4     plugin_test1.obj
 0002:000029e0       ??_C@_0BB@NELIGBOH@IVisualizerScene?$AA@ 100449e0     plugin_test1.obj
 0002:000029f4       ??_C@_0BM@ICMCEJFM@?$CK?3?3stdlib?3?3RVisualizerScene?$AA@ 100449f4     plugin_test1.obj
 0002:00002a10       ??_C@_03PKBINKFB@fov?$AA@  10044a10     plugin_test1.obj
 0002:00002a14       ??_C@_04EHDLHMJM@near?$AA@ 10044a14     plugin_test1.obj
 0002:00002a1c       ??_C@_03JEOKDCFP@far?$AA@  10044a1c     plugin_test1.obj
 0002:00002a20       ??_C@_0P@FEMKFODL@IGeneralObject?$AA@ 10044a20     plugin_test1.obj
 0002:00002a30       ??_C@_0CD@PNJNJOLF@?$CK?3?3stdlib?3?3object_camera?3?3RGener@ 10044a30     plugin_test1.obj
 0002:00002a54       ??_C@_04OIHHNFHN@cube?$AA@ 10044a54     plugin_test1.obj
 0002:00002a5c       ??_C@_04NCMJLOLO@kind?$AA@ 10044a5c     plugin_test1.obj
 0002:00002a64       ??_C@_0CG@HGHEJBFG@?$CK?3?3stdlib?3?3object_primitive?3?3RGe@ 10044a64     plugin_test1.obj
 0002:00002a8c       ??_C@_0BI@LLAKNBO@?5?5Can?8t?5create?5texture?6?$AA@ 10044a8c     plugin_test1.obj
 0002:00002aa4       ??_C@_0BN@PNGJODLG@?5?5created?5texture?3?5?$CFs?5?$DN?$DO?5?$CFp?6?$AA@ 10044aa4     plugin_test1.obj
 0002:00002ac4       ??_C@_0CA@MCIFMFGP@?5?5Can?8t?5load?5texture?5from?5file?6?$AA@ 10044ac4     plugin_test1.obj
 0002:00002ae4       ??_C@_0N@GBNMEDNI@?$CK?3?3SDL_GL?3?3?$CK?$AA@ 10044ae4     plugin_test1.obj
 0002:00002af4       ??_C@_07EPLPNHLN@Test?5?$CD1?$AA@ 10044af4     plugin_test1.obj
 0002:00002afc       ??_C@_0CK@DEJPICLK@UModSys?3?3modules?3?3test?3?3test1?3?3R@ 10044afc     plugin_test1.obj
 0002:00002b28       ??_C@_0BJ@NOFIIAEK@U_MOD?3?3RGenerator?3unique?$AA@ 10044b28     plugin_test1.obj
 0002:00002b44       ??_C@_0BA@NMEBLMNE@Test?51?5?9?5module?$AA@ 10044b44     plugin_test1.obj
 0002:00002b54       ??_C@_0N@FOCLJAHI@tests?3?3test1?$AA@ 10044b54     plugin_test1.obj
 0002:00002b64       ??_C@_0BE@HJEBHPIG@RModuleReg?3?3open?$CI?$CJ?6?$AA@ 10044b64     plugin_test1.obj
 0002:00002b78       ??_C@_0BF@KIBBFLP@RModuleReg?3?3close?$CI?$CJ?6?$AA@ 10044b78     plugin_test1.obj
 0002:00002b90       ??_C@_09JGNMLHG@modobject?$AA@ 10044b90     plugin_test1.obj
 0002:00002b9c       ??_C@_08FCBDOIAH@typeinfo?$AA@ 10044b9c     plugin_test1.obj
 0002:00002ba8       ??_C@_05BNCCCJPP@const?$AA@ 10044ba8     plugin_test1.obj
 0002:00002bb0       ??_C@_0BI@HCJDLBPI@?5?5fail?5generate?5?$CFs?$CI?$CFs?$CJ?6?$AA@ 10044bb0     plugin_test1.obj
 0002:00002bc8       ??_C@_0BE@IGLAGOMC@?5?5fail?5find?5?$CFs?$CI?$CFs?$CJ?6?$AA@ 10044bc8     plugin_test1.obj
 0002:00002bdc       ??_C@_0BK@IGGNHCDJ@?5?5generated?5?$CFs?$CI?$CFs?$CJ?5?$DN?$DO?5?$CFp?6?$AA@ 10044bdc     plugin_test1.obj
 0002:00002bf8       ??_C@_08DOFDOGON@datainfo?$AA@ 10044bf8     plugin_test1.obj
 0002:00002c08       ??_7IRoot@core@UModSys@@6B@ 10044c08     plugin_test1.obj
 0002:00002c2c       ??_7IRefObject@core@UModSys@@6B@ 10044c2c     plugin_test1.obj
 0002:00002c60       ??_7ISetter@SFlags@libmedia@UModSys@@6B@ 10044c60     plugin_test1.obj
 0002:00002c70       ??_7IKeyboardClient@libui@UModSys@@6B@ 10044c70     plugin_test1.obj
 0002:00002c7c       ??_7IMouseClient@libui@UModSys@@6B@ 10044c7c     plugin_test1.obj
 0002:00002c84       ??_7IControllerData@libui@UModSys@@6B@ 10044c84     plugin_test1.obj
 0002:00002c90       ??_7IController@libui@UModSys@@6BIControllerCommand@12@@ 10044c90     plugin_test1.obj
 0002:00002c9c       ??_7IController@libui@UModSys@@6BIControllerData@12@@ 10044c9c     plugin_test1.obj
 0002:00002cac       ??_7RTest1_Shell@test1@test@modules@UModSys@@6BIShell@base@4@@ 10044cac     plugin_test1.obj
 0002:00002cf0       ??_7RTest1_Shell@test1@test@modules@UModSys@@6BIKeyboardClient@libui@4@@ 10044cf0     plugin_test1.obj
 0002:00002cfc       ??_7RTest1_Shell@test1@test@modules@UModSys@@6BIMouseClient@libui@4@@ 10044cfc     plugin_test1.obj
 0002:00002d04       ??_7RTest1_Shell@test1@test@modules@UModSys@@6BIControllerCommand@libui@4@@ 10044d04     plugin_test1.obj
 0002:00002d10       ??_7RTest1_Shell@test1@test@modules@UModSys@@6BIControllerData@libui@4@@ 10044d10     plugin_test1.obj
 0002:00002d1c       ??_7UI_Info@RTest1_Shell@test1@test@modules@UModSys@@6BIKeyboardClient@libui@5@@ 10044d1c     plugin_test1.obj
 0002:00002d28       ??_7UI_Info@RTest1_Shell@test1@test@modules@UModSys@@6BIMouseClient@libui@5@@ 10044d28     plugin_test1.obj
 0002:00002d34       ??_7RGenerator@test1@test@modules@UModSys@@6B@ 10044d34     plugin_test1.obj
 0002:00002d84       ??_7RModuleReg@test1@test@modules@UModSys@@6B@ 10044d84     plugin_test1.obj
 0002:00002da0       ??_C@_0CL@KKECGCHF@UModSys?3?3modules?3?3lib3d?3?3stdlib?3@ 10044da0     umodsys_lib_lib3d:umodsys.mod.3d.stdlib.obj
 0002:00002dcc       ??_C@_0DC@GNLJIFFK@UModSys?3?3modules?3?3lib3d?3?3stdlib?3@ 10044dcc     umodsys_lib_lib3d:umodsys.mod.3d.stdlib.obj
 0002:00002e00       ??_C@_0DL@EEMPHKAO@UModSys?3?3modules?3?3lib3d?3?3stdlib?3@ 10044e00     umodsys_lib_lib3d:umodsys.mod.3d.stdlib.obj
 0002:00002e3c       ??_C@_0DM@CBELEKHF@UModSys?3?3modules?3?3lib3d?3?3stdlib?3@ 10044e3c     umodsys_lib_lib3d:umodsys.mod.3d.stdlib.obj
 0002:00002e78       ??_C@_0DL@EOGGMNCM@UModSys?3?3modules?3?3lib3d?3?3stdlib?3@ 10044e78     umodsys_lib_lib3d:umodsys.mod.3d.stdlib.obj
 0002:00002eb4       ??_C@_0DL@GOHGNNIO@UModSys?3?3modules?3?3lib3d?3?3stdlib?3@ 10044eb4     umodsys_lib_lib3d:umodsys.mod.3d.stdlib.obj
 0002:00002ef0       ??_C@_0DJ@PIHJPFPA@UModSys?3?3modules?3?3lib3d?3?3stdlib?3@ 10044ef0     umodsys_lib_lib3d:umodsys.mod.3d.stdlib.obj
 0002:00002f2c       ??_C@_0DI@IKJDIEGH@UModSys?3?3modules?3?3lib3d?3?3stdlib?3@ 10044f2c     umodsys_lib_lib3d:umodsys.mod.3d.stdlib.obj
 0002:00002f64       ??_C@_0CM@JPPEECBF@UModSys?3?3modules?3?3lib3d?3?3stdlib?3@ 10044f64     umodsys_lib_lib3d:umodsys.mod.3d.stdlib.obj
 0002:00002f90       ??_C@_05EFKADHLE@fov_x?$AA@ 10044f90     umodsys_lib_lib3d:umodsys.mod.3d.stdlib.obj
 0002:00002f98       ??_C@_05FMLLAGPF@fov_y?$AA@ 10044f98     umodsys_lib_lib3d:umodsys.mod.3d.stdlib.obj
 0002:00002fa0       ??_C@_06LPLGMLP@screen?$AA@ 10044fa0     umodsys_lib_lib3d:umodsys.mod.3d.stdlib.obj
 0002:00002fa8       ??_C@_03KLIPLJLL@min?$AA@  10044fa8     umodsys_lib_lib3d:umodsys.mod.3d.stdlib.obj
 0002:00002fac       ??_C@_04PLGBOGHH@fade?$AA@ 10044fac     umodsys_lib_lib3d:umodsys.mod.3d.stdlib.obj
 0002:00002fb4       ??_C@_03LJAEFNNE@max?$AA@  10044fb4     umodsys_lib_lib3d:umodsys.mod.3d.stdlib.obj
 0002:00002fb8       ??_C@_06FOHEPPJH@sphere?$AA@ 10044fb8     umodsys_lib_lib3d:umodsys.mod.3d.stdlib.obj
 0002:00002fc0       ??_C@_07CCBOKHBL@pyramid?$AA@ 10044fc0     umodsys_lib_lib3d:umodsys.mod.3d.stdlib.obj
 0002:00002fc8       ??_C@_04NOMJJLOC@cone?$AA@ 10044fc8     umodsys_lib_lib3d:umodsys.mod.3d.stdlib.obj
 0002:00002fd0       ??_C@_08GNLJBPEP@cylinder?$AA@ 10044fd0     umodsys_lib_lib3d:umodsys.mod.3d.stdlib.obj
 0002:00002fdc       ??_C@_0O@EDEJNDCO@lib3d?3?3stdlib?$AA@ 10044fdc     umodsys_lib_lib3d:umodsys.mod.3d.stdlib.obj
 0002:00002ff0       ??_7IPropNamedAdapter@core@UModSys@@6B@ 10044ff0     umodsys_lib_lib3d:umodsys.mod.3d.stdlib.obj
 0002:00002ffc       ??_7ISceneProcessor@lib3d@UModSys@@6B@ 10044ffc     umodsys_lib_lib3d:umodsys.mod.3d.stdlib.obj
 0002:0000300c       ??_7RGenerator@stdlib@lib3d@modules@UModSys@@6B@ 1004500c     umodsys_lib_lib3d:umodsys.mod.3d.stdlib.obj
 0002:0000305c       ??_7RRenderer@stdlib@lib3d@modules@UModSys@@6BIRenderer@24@@ 1004505c     umodsys_lib_lib3d:umodsys.mod.3d.stdlib.obj
 0002:000030d8       ??_7RRenderer@stdlib@lib3d@modules@UModSys@@6BIPropNamedAdapter@core@4@@ 100450d8     umodsys_lib_lib3d:umodsys.mod.3d.stdlib.obj
 0002:000030e4       ??_7RVisualizerScene@stdlib@lib3d@modules@UModSys@@6B@ 100450e4     umodsys_lib_lib3d:umodsys.mod.3d.stdlib.obj
 0002:0000313c       ??_7?$TRStackSocket@PAUIVisualObject@lib3d@UModSys@@U?$TDynarrayDynamic@PAUIVisualObject@lib3d@UModSys@@U?$TAllocator@USIMemAlloc@core@UModSys@@USCountCalcPower2@23@@tl@3@@tl@3@@tl@UModSys@@6B@ 1004513c     umodsys_lib_lib3d:umodsys.mod.3d.stdlib.obj
 0002:00003154       ??_7RVisualSceneMapper_Direct@stdlib@lib3d@modules@UModSys@@6BIRefObject@core@4@@ 10045154     umodsys_lib_lib3d:umodsys.mod.3d.stdlib.obj
 0002:00003194       ??_7RVisualSceneMapper_Direct@stdlib@lib3d@modules@UModSys@@6BISceneProcessor@24@@ 10045194     umodsys_lib_lib3d:umodsys.mod.3d.stdlib.obj
 0002:000031a4       ??_7RGeneral@object_primitive@stdlib@lib3d@modules@UModSys@@6B@ 100451a4     umodsys_lib_lib3d:umodsys.mod.3d.stdlib.obj
 0002:000031ec       ??_7RRender@object_primitive@stdlib@lib3d@modules@UModSys@@6B@ 100451ec     umodsys_lib_lib3d:umodsys.mod.3d.stdlib.obj
 0002:00003234       ??_7RVisual@object_primitive@stdlib@lib3d@modules@UModSys@@6B@ 10045234     umodsys_lib_lib3d:umodsys.mod.3d.stdlib.obj
 0002:00003284       ??_7RGeneral@object_camera@stdlib@lib3d@modules@UModSys@@6B@ 10045284     umodsys_lib_lib3d:umodsys.mod.3d.stdlib.obj
 0002:000032cc       ??_7RVisual@object_camera@stdlib@lib3d@modules@UModSys@@6B@ 100452cc     umodsys_lib_lib3d:umodsys.mod.3d.stdlib.obj
 0002:00003330       ??_7RModuleReg@stdlib@lib3d@modules@UModSys@@6B@ 10045330     umodsys_lib_lib3d:umodsys.mod.3d.stdlib.obj
 0002:0000334c       ??_C@_0CP@CHDLGDD@UModSys?3?3modules?3?3lib2d?3?3stdlib?3@ 1004534c     umodsys_lib_lib2d:umodsys.mod.2d.stdlib.obj
 0002:0000337c       ??_C@_0DG@PPDKDFEE@UModSys?3?3modules?3?3lib2d?3?3stdlib?3@ 1004537c     umodsys_lib_lib2d:umodsys.mod.2d.stdlib.obj
 0002:000033b4       ??_C@_0CN@LGOPIGAH@UModSys?3?3modules?3?3lib2d?3?3stdlib?3@ 100453b4     umodsys_lib_lib2d:umodsys.mod.2d.stdlib.obj
 0002:000033e4       ??_C@_0CM@EIHKIMB@UModSys?3?3modules?3?3lib2d?3?3stdlib?3@ 100453e4     umodsys_lib_lib2d:umodsys.mod.2d.stdlib.obj
 0002:00003410       ??_C@_0O@ICMHAMOO@lib2d?3?3stdlib?$AA@ 10045410     umodsys_lib_lib2d:umodsys.mod.2d.stdlib.obj
 0002:00003424       ??_7RGenerator@stdlib@lib2d@modules@UModSys@@6B@ 10045424     umodsys_lib_lib2d:umodsys.mod.2d.stdlib.obj
 0002:00003474       ??_7RImage_Memory@stdlib@lib2d@modules@UModSys@@6B@ 10045474     umodsys_lib_lib2d:umodsys.mod.2d.stdlib.obj
 0002:000034c4       ??_7RImageFactory_Memory@stdlib@lib2d@modules@UModSys@@6B@ 100454c4     umodsys_lib_lib2d:umodsys.mod.2d.stdlib.obj
 0002:00003504       ??_7RMultiImage@stdlib@lib2d@modules@UModSys@@6B@ 10045504     umodsys_lib_lib2d:umodsys.mod.2d.stdlib.obj
 0002:00003568       ??_7RModuleReg@stdlib@lib2d@modules@UModSys@@6B@ 10045568     umodsys_lib_lib2d:umodsys.mod.2d.stdlib.obj
 0002:00003584       ??_C@_07NBCGADJA@Unknown?$AA@ 10045584     umodsys_lib_libui:umodsys.mod.ui.SDL_GL.obj
 0002:0000358c       ??_C@_04HMPDNAFK@Draw?$AA@ 1004558c     umodsys_lib_libui:umodsys.mod.ui.SDL_GL.obj
 0002:00003594       ??_C@_02LDEEJNBC@2D?$AA@   10045594     umodsys_lib_libui:umodsys.mod.ui.SDL_GL.obj
 0002:00003598       ??_C@_02LCIGPHCF@3D?$AA@   10045598     umodsys_lib_libui:umodsys.mod.ui.SDL_GL.obj
 0002:0000359c       ??_C@_03DBKJMAGF@End?$AA@  1004559c     umodsys_lib_libui:umodsys.mod.ui.SDL_GL.obj
 0002:000035a0       ??_C@_05EHPGHEDK@Begin?$AA@ 100455a0     umodsys_lib_libui:umodsys.mod.ui.SDL_GL.obj
 0002:000035a8       ??_C@_05NAOIJFC@Error?$AA@ 100455a8     umodsys_lib_libui:umodsys.mod.ui.SDL_GL.obj
 0002:000035b0       ??_C@_04OHJIHAFH@None?$AA@ 100455b0     umodsys_lib_libui:umodsys.mod.ui.SDL_GL.obj
 0002:000035b8       ??_C@_0DC@EKNFHMCM@UModSys?3?3modules?3?3ui?3?3SDL_GL?3?3RK@ 100455b8     umodsys_lib_libui:umodsys.mod.ui.SDL_GL.obj
 0002:000035ec       ??_C@_0CP@COIDJLOH@UModSys?3?3modules?3?3ui?3?3SDL_GL?3?3RM@ 100455ec     umodsys_lib_libui:umodsys.mod.ui.SDL_GL.obj
 0002:0000361c       ??_C@_0CI@JIGCCNFP@UModSys?3?3modules?3?3ui?3?3SDL_GL?3?3RT@ 1004561c     umodsys_lib_libui:umodsys.mod.ui.SDL_GL.obj
 0002:00003644       ??_C@_0DE@FLBPCDKD@UModSys?3?3modules?3?3ui?3?3SDL_GL?3?3RM@ 10045644     umodsys_lib_libui:umodsys.mod.ui.SDL_GL.obj
 0002:00003678       ??_C@_0CO@EABOMHEJ@UModSys?3?3modules?3?3ui?3?3SDL_GL?3?3RR@ 10045678     umodsys_lib_libui:umodsys.mod.ui.SDL_GL.obj
 0002:000036a8       ??_C@_0CJ@IJCOPJBE@UModSys?3?3modules?3?3ui?3?3SDL_GL?3?3RT@ 100456a8     umodsys_lib_libui:umodsys.mod.ui.SDL_GL.obj
 0002:000036d4       ??_C@_0CL@PFCNMCOK@UModSys?3?3modules?3?3ui?3?3SDL_GL?3?3RV@ 100456d4     umodsys_lib_libui:umodsys.mod.ui.SDL_GL.obj
 0002:00003700       ??_C@_0CJ@KOHIGNKB@UModSys?3?3modules?3?3ui?3?3SDL_GL?3?3RT@ 10045700     umodsys_lib_libui:umodsys.mod.ui.SDL_GL.obj
 0002:0000372c       ??_C@_0CJ@LMOHBJKJ@UModSys?3?3modules?3?3ui?3?3SDL_GL?3?3RG@ 1004572c     umodsys_lib_libui:umodsys.mod.ui.SDL_GL.obj
 0002:00003758       ??_C@_04MGOIFCEG@SDL2?$AA@ 10045758     umodsys_lib_libui:umodsys.mod.ui.SDL_GL.obj
 0002:00003760       ??_C@_01FJMABOPO@x?$AA@    10045760     umodsys_lib_libui:umodsys.mod.ui.SDL_GL.obj
 0002:00003764       ??_C@_01EANLCPLP@y?$AA@    10045764     umodsys_lib_libui:umodsys.mod.ui.SDL_GL.obj
 0002:00003768       ??_C@_02KIIGLGOP@dx?$AA@   10045768     umodsys_lib_libui:umodsys.mod.ui.SDL_GL.obj
 0002:0000376c       ??_C@_04IAGNFIBA@size?$AA@ 1004576c     umodsys_lib_libui:umodsys.mod.ui.SDL_GL.obj
 0002:00003774       ??_C@_07CMIMECFO@xoffset?$AA@ 10045774     umodsys_lib_libui:umodsys.mod.ui.SDL_GL.obj
 0002:0000377c       ??_C@_07OACGECMA@yoffset?$AA@ 1004577c     umodsys_lib_libui:umodsys.mod.ui.SDL_GL.obj
 0002:00003784       ??_C@_05IGKADHGO@width?$AA@ 10045784     umodsys_lib_libui:umodsys.mod.ui.SDL_GL.obj
 0002:0000378c       ??_C@_06LNLHEAAG@height?$AA@ 1004578c     umodsys_lib_libui:umodsys.mod.ui.SDL_GL.obj
 0002:00003794       ??_C@_0CI@PICFILMJ@R3D?3?3?5can?8t?5go?5phase?5from?5?$FL?$CFs?$FN?5t@ 10045794     umodsys_lib_libui:umodsys.mod.ui.SDL_GL.obj
 0002:000037bc       ??_C@_0CK@CDAHJFJI@R3D?3?3?5can?8t?5use?5phase?5?$FL?$CFs?$FN?0?5requ@ 100457bc     umodsys_lib_libui:umodsys.mod.ui.SDL_GL.obj
 0002:000037e8       ??_C@_04MDCOKCOB@?4ttf?$AA@ 100457e8     umodsys_lib_libui:umodsys.mod.ui.SDL_GL.obj
 0002:000037f0       ??_C@_0P@EFLGECIK@GL_VERSION_1_0?$AA@ 100457f0     umodsys_lib_libui:umodsys.mod.ui.SDL_GL.obj
 0002:00003800       ??_C@_0M@PFBKOKOH@glBlendFunc?$AA@ 10045800     umodsys_lib_libui:umodsys.mod.ui.SDL_GL.obj
 0002:0000380c       ??_C@_0BC@HIGLIOCP@Error?5link?5?8?$CFs?8?4?6?$AA@ 1004580c     umodsys_lib_libui:umodsys.mod.ui.SDL_GL.obj
 0002:00003820       ??_C@_07IBAPPAHJ@glClear?$AA@ 10045820     umodsys_lib_libui:umodsys.mod.ui.SDL_GL.obj
 0002:00003828       ??_C@_0N@OGLMDNKC@glClearColor?$AA@ 10045828     umodsys_lib_libui:umodsys.mod.ui.SDL_GL.obj
 0002:00003838       ??_C@_0N@LJIELNG@glClearDepth?$AA@ 10045838     umodsys_lib_libui:umodsys.mod.ui.SDL_GL.obj
 0002:00003848       ??_C@_0P@KBLPBBFP@glClearStencil?$AA@ 10045848     umodsys_lib_libui:umodsys.mod.ui.SDL_GL.obj
 0002:00003858       ??_C@_0M@DLGOAHPH@glColorMask?$AA@ 10045858     umodsys_lib_libui:umodsys.mod.ui.SDL_GL.obj
 0002:00003864       ??_C@_0L@BAPBLHME@glCullFace?$AA@ 10045864     umodsys_lib_libui:umodsys.mod.ui.SDL_GL.obj
 0002:00003870       ??_C@_0M@NEJABAEP@glDepthFunc?$AA@ 10045870     umodsys_lib_libui:umodsys.mod.ui.SDL_GL.obj
 0002:0000387c       ??_C@_0M@KABMFLLN@glDepthMask?$AA@ 1004587c     umodsys_lib_libui:umodsys.mod.ui.SDL_GL.obj
 0002:00003888       ??_C@_0N@PEBDIKOA@glDepthRange?$AA@ 10045888     umodsys_lib_libui:umodsys.mod.ui.SDL_GL.obj
 0002:00003898       ??_C@_09MHGMIMKN@glDisable?$AA@ 10045898     umodsys_lib_libui:umodsys.mod.ui.SDL_GL.obj
 0002:000038a4       ??_C@_0N@EKCLGPL@glDrawBuffer?$AA@ 100458a4     umodsys_lib_libui:umodsys.mod.ui.SDL_GL.obj
 0002:000038b4       ??_C@_08OOEHEKOP@glEnable?$AA@ 100458b4     umodsys_lib_libui:umodsys.mod.ui.SDL_GL.obj
 0002:000038c0       ??_C@_08DFCPOKBK@glFinish?$AA@ 100458c0     umodsys_lib_libui:umodsys.mod.ui.SDL_GL.obj
 0002:000038cc       ??_C@_07COFELLJA@glFlush?$AA@ 100458cc     umodsys_lib_libui:umodsys.mod.ui.SDL_GL.obj
 0002:000038d4       ??_C@_0M@ILBMDJDA@glFrontFace?$AA@ 100458d4     umodsys_lib_libui:umodsys.mod.ui.SDL_GL.obj
 0002:000038e0       ??_C@_0O@NLMELLCJ@glGetBooleanv?$AA@ 100458e0     umodsys_lib_libui:umodsys.mod.ui.SDL_GL.obj
 0002:000038f0       ??_C@_0N@OFBMMCDH@glGetDoublev?$AA@ 100458f0     umodsys_lib_libui:umodsys.mod.ui.SDL_GL.obj
 0002:00003900       ??_C@_0L@FPKAMKHB@glGetError?$AA@ 10045900     umodsys_lib_libui:umodsys.mod.ui.SDL_GL.obj
 0002:0000390c       ??_C@_0M@CKCOBONE@glGetFloatv?$AA@ 1004590c     umodsys_lib_libui:umodsys.mod.ui.SDL_GL.obj
 0002:00003918       ??_C@_0O@DHHDCCLF@glGetIntegerv?$AA@ 10045918     umodsys_lib_libui:umodsys.mod.ui.SDL_GL.obj
 0002:00003928       ??_C@_0M@OPOBFDCB@glGetString?$AA@ 10045928     umodsys_lib_libui:umodsys.mod.ui.SDL_GL.obj
 0002:00003934       ??_C@_0O@DOIIJLAD@glGetTexImage?$AA@ 10045934     umodsys_lib_libui:umodsys.mod.ui.SDL_GL.obj
 0002:00003944       ??_C@_0BJ@GAMLGIFF@glGetTexLevelParameterfv?$AA@ 10045944     umodsys_lib_libui:umodsys.mod.ui.SDL_GL.obj
 0002:00003960       ??_C@_0BJ@GLJHCPGI@glGetTexLevelParameteriv?$AA@ 10045960     umodsys_lib_libui:umodsys.mod.ui.SDL_GL.obj
 0002:0000397c       ??_C@_0BE@DNHBPKMC@glGetTexParameterfv?$AA@ 1004597c     umodsys_lib_libui:umodsys.mod.ui.SDL_GL.obj
 0002:00003990       ??_C@_0BE@DGCNLNPP@glGetTexParameteriv?$AA@ 10045990     umodsys_lib_libui:umodsys.mod.ui.SDL_GL.obj
 0002:000039a4       ??_C@_06HEADGMBC@glHint?$AA@ 100459a4     umodsys_lib_libui:umodsys.mod.ui.SDL_GL.obj
 0002:000039ac       ??_C@_0M@INHMIHKC@glIsEnabled?$AA@ 100459ac     umodsys_lib_libui:umodsys.mod.ui.SDL_GL.obj
 0002:000039b8       ??_C@_0M@CFLGNFPG@glLineWidth?$AA@ 100459b8     umodsys_lib_libui:umodsys.mod.ui.SDL_GL.obj
 0002:000039c4       ??_C@_09GKGMNAKG@glLogicOp?$AA@ 100459c4     umodsys_lib_libui:umodsys.mod.ui.SDL_GL.obj
 0002:000039d0       ??_C@_0O@BFLAHHCK@glPixelStoref?$AA@ 100459d0     umodsys_lib_libui:umodsys.mod.ui.SDL_GL.obj
 0002:000039e0       ??_C@_0O@JCCIGLOF@glPixelStorei?$AA@ 100459e0     umodsys_lib_libui:umodsys.mod.ui.SDL_GL.obj
 0002:000039f0       ??_C@_0M@EEAPMMNM@glPointSize?$AA@ 100459f0     umodsys_lib_libui:umodsys.mod.ui.SDL_GL.obj
 0002:000039fc       ??_C@_0O@DKMNBFMB@glPolygonMode?$AA@ 100459fc     umodsys_lib_libui:umodsys.mod.ui.SDL_GL.obj
 0002:00003a0c       ??_C@_0N@HFKHBECK@glReadBuffer?$AA@ 10045a0c     umodsys_lib_libui:umodsys.mod.ui.SDL_GL.obj
 0002:00003a1c       ??_C@_0N@CKFNNHOO@glReadPixels?$AA@ 10045a1c     umodsys_lib_libui:umodsys.mod.ui.SDL_GL.obj
 0002:00003a2c       ??_C@_09ECGPAEPL@glScissor?$AA@ 10045a2c     umodsys_lib_libui:umodsys.mod.ui.SDL_GL.obj
 0002:00003a38       ??_C@_0O@ENNLLOLN@glStencilFunc?$AA@ 10045a38     umodsys_lib_libui:umodsys.mod.ui.SDL_GL.obj
 0002:00003a48       ??_C@_0O@DJFHPFEP@glStencilMask?$AA@ 10045a48     umodsys_lib_libui:umodsys.mod.ui.SDL_GL.obj
 0002:00003a58       ??_C@_0M@BILBNGF@glStencilOp?$AA@ 10045a58     umodsys_lib_libui:umodsys.mod.ui.SDL_GL.obj
 0002:00003a64       ??_C@_0N@JDMMMFHL@glTexImage1D?$AA@ 10045a64     umodsys_lib_libui:umodsys.mod.ui.SDL_GL.obj
 0002:00003a74       ??_C@_0N@JBIKHLCC@glTexImage2D?$AA@ 10045a74     umodsys_lib_libui:umodsys.mod.ui.SDL_GL.obj
 0002:00003a84       ??_C@_0BA@INKFIMGP@glTexParameterf?$AA@ 10045a84     umodsys_lib_libui:umodsys.mod.ui.SDL_GL.obj
 0002:00003a94       ??_C@_0BB@KEOFAHDF@glTexParameterfv?$AA@ 10045a94     umodsys_lib_libui:umodsys.mod.ui.SDL_GL.obj
 0002:00003aa8       ??_C@_0BA@KDNJAKA@glTexParameteri?$AA@ 10045aa8     umodsys_lib_libui:umodsys.mod.ui.SDL_GL.obj
 0002:00003ab8       ??_C@_0BB@KPLJEAAI@glTexParameteriv?$AA@ 10045ab8     umodsys_lib_libui:umodsys.mod.ui.SDL_GL.obj
 0002:00003acc       ??_C@_0L@KBLIPDFH@glViewport?$AA@ 10045acc     umodsys_lib_libui:umodsys.mod.ui.SDL_GL.obj
 0002:00003ad8       ??_C@_0P@FMKNHDML@GL_VERSION_1_1?$AA@ 10045ad8     umodsys_lib_libui:umodsys.mod.ui.SDL_GL.obj
 0002:00003ae8       ??_C@_0O@JKKCIBGC@glBindTexture?$AA@ 10045ae8     umodsys_lib_libui:umodsys.mod.ui.SDL_GL.obj
 0002:00003af8       ??_C@_0BB@MEEDBHPL@glCopyTexImage1D?$AA@ 10045af8     umodsys_lib_libui:umodsys.mod.ui.SDL_GL.obj
 0002:00003b0c       ??_C@_0BB@MGAFKJKC@glCopyTexImage2D?$AA@ 10045b0c     umodsys_lib_libui:umodsys.mod.ui.SDL_GL.obj
 0002:00003b20       ??_C@_0BE@PKNCAIGI@glCopyTexSubImage1D?$AA@ 10045b20     umodsys_lib_libui:umodsys.mod.ui.SDL_GL.obj
 0002:00003b34       ??_C@_0BE@PIJELGDB@glCopyTexSubImage2D?$AA@ 10045b34     umodsys_lib_libui:umodsys.mod.ui.SDL_GL.obj
 0002:00003b48       ??_C@_0BB@KMPLFJIC@glDeleteTextures?$AA@ 10045b48     umodsys_lib_libui:umodsys.mod.ui.SDL_GL.obj
 0002:00003b5c       ??_C@_0N@CMNPPOHA@glDrawArrays?$AA@ 10045b5c     umodsys_lib_libui:umodsys.mod.ui.SDL_GL.obj
 0002:00003b6c       ??_C@_0P@MENFIFGE@glDrawElements?$AA@ 10045b6c     umodsys_lib_libui:umodsys.mod.ui.SDL_GL.obj
 0002:00003b7c       ??_C@_0O@LLMANLNK@glGenTextures?$AA@ 10045b7c     umodsys_lib_libui:umodsys.mod.ui.SDL_GL.obj
 0002:00003b8c       ??_C@_0M@NJHAEPDN@glIsTexture?$AA@ 10045b8c     umodsys_lib_libui:umodsys.mod.ui.SDL_GL.obj
 0002:00003b98       ??_C@_0BA@FFBJGNC@glPolygonOffset?$AA@ 10045b98     umodsys_lib_libui:umodsys.mod.ui.SDL_GL.obj
 0002:00003ba8       ??_C@_0BA@NFOOCKJD@glTexSubImage1D?$AA@ 10045ba8     umodsys_lib_libui:umodsys.mod.ui.SDL_GL.obj
 0002:00003bb8       ??_C@_0BA@NHKIJEMK@glTexSubImage2D?$AA@ 10045bb8     umodsys_lib_libui:umodsys.mod.ui.SDL_GL.obj
 0002:00003bc8       ??_C@_0P@HHIACAAI@GL_VERSION_1_2?$AA@ 10045bc8     umodsys_lib_libui:umodsys.mod.ui.SDL_GL.obj
 0002:00003bd8       ??_C@_0BE@PJFGNMAG@glCopyTexSubImage3D?$AA@ 10045bd8     umodsys_lib_libui:umodsys.mod.ui.SDL_GL.obj
 0002:00003bec       ??_C@_0BE@IHNAGJGJ@glDrawRangeElements?$AA@ 10045bec     umodsys_lib_libui:umodsys.mod.ui.SDL_GL.obj
 0002:00003c00       ??_C@_0N@JAEIBBBF@glTexImage3D?$AA@ 10045c00     umodsys_lib_libui:umodsys.mod.ui.SDL_GL.obj
 0002:00003c10       ??_C@_0BA@NGGKPOPN@glTexSubImage3D?$AA@ 10045c10     umodsys_lib_libui:umodsys.mod.ui.SDL_GL.obj
 0002:00003c20       ??_C@_0P@GOJLBBEJ@GL_VERSION_1_3?$AA@ 10045c20     umodsys_lib_libui:umodsys.mod.ui.SDL_GL.obj
 0002:00003c30       ??_C@_0BA@KOBBIKOF@glActiveTexture?$AA@ 10045c30     umodsys_lib_libui:umodsys.mod.ui.SDL_GL.obj
 0002:00003c40       ??_C@_0BH@GFPJBEAB@glCompressedTexImage1D?$AA@ 10045c40     umodsys_lib_libui:umodsys.mod.ui.SDL_GL.obj
 0002:00003c58       ??_C@_0BH@GHLPKKFI@glCompressedTexImage2D?$AA@ 10045c58     umodsys_lib_libui:umodsys.mod.ui.SDL_GL.obj
 0002:00003c70       ??_C@_0BH@GGHNMAGP@glCompressedTexImage3D?$AA@ 10045c70     umodsys_lib_libui:umodsys.mod.ui.SDL_GL.obj
 0002:00003c88       ??_C@_0BK@ECBIPHJO@glCompressedTexSubImage1D?$AA@ 10045c88     umodsys_lib_libui:umodsys.mod.ui.SDL_GL.obj
 0002:00003ca4       ??_C@_0BK@EAFOEJMH@glCompressedTexSubImage2D?$AA@ 10045ca4     umodsys_lib_libui:umodsys.mod.ui.SDL_GL.obj
 0002:00003cc0       ??_C@_0BK@EBJMCDPA@glCompressedTexSubImage3D?$AA@ 10045cc0     umodsys_lib_libui:umodsys.mod.ui.SDL_GL.obj
 0002:00003cdc       ??_C@_0BI@MPANLPPL@glGetCompressedTexImage?$AA@ 10045cdc     umodsys_lib_libui:umodsys.mod.ui.SDL_GL.obj
 0002:00003cf4       ??_C@_0BB@BJGIPMOA@glSampleCoverage?$AA@ 10045cf4     umodsys_lib_libui:umodsys.mod.ui.SDL_GL.obj
 0002:00003d08       ??_C@_0P@CBNKIHIO@GL_VERSION_1_4?$AA@ 10045d08     umodsys_lib_libui:umodsys.mod.ui.SDL_GL.obj
 0002:00003d18       ??_C@_0N@PKBMFJDK@glBlendColor?$AA@ 10045d18     umodsys_lib_libui:umodsys.mod.ui.SDL_GL.obj
 0002:00003d28       ??_C@_0BA@PFHILPAN@glBlendEquation?$AA@ 10045d28     umodsys_lib_libui:umodsys.mod.ui.SDL_GL.obj
 0002:00003d38       ??_C@_0BE@LLLCIIOO@glBlendFuncSeparate?$AA@ 10045d38     umodsys_lib_libui:umodsys.mod.ui.SDL_GL.obj
 0002:00003d4c       ??_C@_0BC@IBABPJFA@glMultiDrawArrays?$AA@ 10045d4c     umodsys_lib_libui:umodsys.mod.ui.SDL_GL.obj
 0002:00003d60       ??_C@_0BE@MPDFJJLL@glMultiDrawElements?$AA@ 10045d60     umodsys_lib_libui:umodsys.mod.ui.SDL_GL.obj
 0002:00003d74       ??_C@_0BC@FGOOEDO@glPointParameterf?$AA@ 10045d74     umodsys_lib_libui:umodsys.mod.ui.SDL_GL.obj
 0002:00003d88       ??_C@_0BD@LIABKNDP@glPointParameterfv?$AA@ 10045d88     umodsys_lib_libui:umodsys.mod.ui.SDL_GL.obj
 0002:00003d9c       ??_C@_0BC@ICPGPIPB@glPointParameteri?$AA@ 10045d9c     umodsys_lib_libui:umodsys.mod.ui.SDL_GL.obj
 0002:00003db0       ??_C@_0BD@LDFNOKAC@glPointParameteriv?$AA@ 10045db0     umodsys_lib_libui:umodsys.mod.ui.SDL_GL.obj
 0002:00003dc4       ??_C@_0P@DIMBLGMP@GL_VERSION_1_5?$AA@ 10045dc4     umodsys_lib_libui:umodsys.mod.ui.SDL_GL.obj
 0002:00003dd4       ??_C@_0N@GIAGIGPA@glBeginQuery?$AA@ 10045dd4     umodsys_lib_libui:umodsys.mod.ui.SDL_GL.obj
 0002:00003de4       ??_C@_0N@BONEPPLO@glBindBuffer?$AA@ 10045de4     umodsys_lib_libui:umodsys.mod.ui.SDL_GL.obj
 0002:00003df4       ??_C@_0N@JHHJMABP@glBufferData?$AA@ 10045df4     umodsys_lib_libui:umodsys.mod.ui.SDL_GL.obj
 0002:00003e04       ??_C@_0BA@GAJMDBBN@glBufferSubData?$AA@ 10045e04     umodsys_lib_libui:umodsys.mod.ui.SDL_GL.obj
 0002:00003e14       ??_C@_0BA@DMNLADIO@glDeleteBuffers?$AA@ 10045e14     umodsys_lib_libui:umodsys.mod.ui.SDL_GL.obj
 0002:00003e24       ??_C@_0BA@IOKEHMOH@glDeleteQueries?$AA@ 10045e24     umodsys_lib_libui:umodsys.mod.ui.SDL_GL.obj
 0002:00003e34       ??_C@_0L@FLEBHIDM@glEndQuery?$AA@ 10045e34     umodsys_lib_libui:umodsys.mod.ui.SDL_GL.obj
 0002:00003e40       ??_C@_0N@LAOHBIBA@glGenBuffers?$AA@ 10045e40     umodsys_lib_libui:umodsys.mod.ui.SDL_GL.obj
 0002:00003e50       ??_C@_0N@CJIGHHJ@glGenQueries?$AA@ 10045e50     umodsys_lib_libui:umodsys.mod.ui.SDL_GL.obj
 0002:00003e60       ??_C@_0BH@BMIEIFJP@glGetBufferParameteriv?$AA@ 10045e60     umodsys_lib_libui:umodsys.mod.ui.SDL_GL.obj
 0002:00003e78       ??_C@_0BE@KNJEIFMC@glGetBufferPointerv?$AA@ 10045e78     umodsys_lib_libui:umodsys.mod.ui.SDL_GL.obj
 0002:00003e8c       ??_C@_0BD@PNDAHMBO@glGetBufferSubData?$AA@ 10045e8c     umodsys_lib_libui:umodsys.mod.ui.SDL_GL.obj
 0002:00003ea0       ??_C@_0BD@KMBBCJID@glGetQueryObjectiv?$AA@ 10045ea0     umodsys_lib_libui:umodsys.mod.ui.SDL_GL.obj
 0002:00003eb4       ??_C@_0BE@MNBBKJ@glGetQueryObjectuiv?$AA@ 10045eb4     umodsys_lib_libui:umodsys.mod.ui.SDL_GL.obj
 0002:00003ec8       ??_C@_0N@BPACPFCI@glGetQueryiv?$AA@ 10045ec8     umodsys_lib_libui:umodsys.mod.ui.SDL_GL.obj
 0002:00003ed8       ??_C@_0L@KFPDMKNG@glIsBuffer?$AA@ 10045ed8     umodsys_lib_libui:umodsys.mod.ui.SDL_GL.obj
 0002:00003ee4       ??_C@_09CNNLCEBN@glIsQuery?$AA@ 10045ee4     umodsys_lib_libui:umodsys.mod.ui.SDL_GL.obj
 0002:00003ef0       ??_C@_0M@NNHDPACA@glMapBuffer?$AA@ 10045ef0     umodsys_lib_libui:umodsys.mod.ui.SDL_GL.obj
 0002:00003efc       ??_C@_0O@OFGHBLEO@glUnmapBuffer?$AA@ 10045efc     umodsys_lib_libui:umodsys.mod.ui.SDL_GL.obj
 0002:00003f0c       ??_C@_0P@FHADONGE@GL_VERSION_2_0?$AA@ 10045f0c     umodsys_lib_libui:umodsys.mod.ui.SDL_GL.obj
 0002:00003f1c       ??_C@_0P@LDMLEABL@glAttachShader?$AA@ 10045f1c     umodsys_lib_libui:umodsys.mod.ui.SDL_GL.obj
 0002:00003f2c       ??_C@_0BF@MHKEFIHM@glBindAttribLocation?$AA@ 10045f2c     umodsys_lib_libui:umodsys.mod.ui.SDL_GL.obj
 0002:00003f44       ??_C@_0BI@JNHDNJAG@glBlendEquationSeparate?$AA@ 10045f44     umodsys_lib_libui:umodsys.mod.ui.SDL_GL.obj
 0002:00003f5c       ??_C@_0BA@DGIEGONF@glCompileShader?$AA@ 10045f5c     umodsys_lib_libui:umodsys.mod.ui.SDL_GL.obj
 0002:00003f6c       ??_C@_0BA@FLKLHNKP@glCreateProgram?$AA@ 10045f6c     umodsys_lib_libui:umodsys.mod.ui.SDL_GL.obj
 0002:00003f7c       ??_C@_0P@HGHBNC@glCreateShader?$AA@ 10045f7c     umodsys_lib_libui:umodsys.mod.ui.SDL_GL.obj
 0002:00003f8c       ??_C@_0BA@NKGCDOPO@glDeleteProgram?$AA@ 10045f8c     umodsys_lib_libui:umodsys.mod.ui.SDL_GL.obj
 0002:00003f9c       ??_C@_0P@HHCDONAG@glDeleteShader?$AA@ 10045f9c     umodsys_lib_libui:umodsys.mod.ui.SDL_GL.obj
 0002:00003fac       ??_C@_0P@DJFJFCJL@glDetachShader?$AA@ 10045fac     umodsys_lib_libui:umodsys.mod.ui.SDL_GL.obj
 0002:00003fbc       ??_C@_0BL@NKHLOFFF@glDisableVertexAttribArray?$AA@ 10045fbc     umodsys_lib_libui:umodsys.mod.ui.SDL_GL.obj
 0002:00003fd8       ??_C@_0O@COHJKDBH@glDrawBuffers?$AA@ 10045fd8     umodsys_lib_libui:umodsys.mod.ui.SDL_GL.obj
 0002:00003fe8       ??_C@_0BK@EHBAHNHE@glEnableVertexAttribArray?$AA@ 10045fe8     umodsys_lib_libui:umodsys.mod.ui.SDL_GL.obj
 0002:00004004       ??_C@_0BC@MBALAOHF@glGetActiveAttrib?$AA@ 10046004     umodsys_lib_libui:umodsys.mod.ui.SDL_GL.obj
 0002:00004018       ??_C@_0BD@NIMHLLKN@glGetActiveUniform?$AA@ 10046018     umodsys_lib_libui:umodsys.mod.ui.SDL_GL.obj
 0002:0000402c       ??_C@_0BF@GHMDGFEM@glGetAttachedShaders?$AA@ 1004602c     umodsys_lib_libui:umodsys.mod.ui.SDL_GL.obj
 0002:00004044       ??_C@_0BE@BEPGJDMM@glGetAttribLocation?$AA@ 10046044     umodsys_lib_libui:umodsys.mod.ui.SDL_GL.obj
 0002:00004058       ??_C@_0BE@DHGHAJFL@glGetProgramInfoLog?$AA@ 10046058     umodsys_lib_libui:umodsys.mod.ui.SDL_GL.obj
 0002:0000406c       ??_C@_0P@FMMDFLCO@glGetProgramiv?$AA@ 1004606c     umodsys_lib_libui:umodsys.mod.ui.SDL_GL.obj
 0002:0000407c       ??_C@_0BD@GIABBCMO@glGetShaderInfoLog?$AA@ 1004607c     umodsys_lib_libui:umodsys.mod.ui.SDL_GL.obj
 0002:00004090       ??_C@_0BC@ELEIFJEL@glGetShaderSource?$AA@ 10046090     umodsys_lib_libui:umodsys.mod.ui.SDL_GL.obj
 0002:000040a4       ??_C@_0O@JBDFPDMG@glGetShaderiv?$AA@ 100460a4     umodsys_lib_libui:umodsys.mod.ui.SDL_GL.obj
 0002:000040b4       ??_C@_0BF@KIOPGICP@glGetUniformLocation?$AA@ 100460b4     umodsys_lib_libui:umodsys.mod.ui.SDL_GL.obj
 0002:000040cc       ??_C@_0P@DFCJIBG@glGetUniformfv?$AA@ 100460cc     umodsys_lib_libui:umodsys.mod.ui.SDL_GL.obj
 0002:000040dc       ??_C@_0P@IAONPCL@glGetUniformiv?$AA@ 100460dc     umodsys_lib_libui:umodsys.mod.ui.SDL_GL.obj
 0002:000040ec       ??_C@_0BK@DOJMENLD@glGetVertexAttribPointerv?$AA@ 100460ec     umodsys_lib_libui:umodsys.mod.ui.SDL_GL.obj
 0002:00004108       ??_C@_0BE@HDPMJMIN@glGetVertexAttribdv?$AA@ 10046108     umodsys_lib_libui:umodsys.mod.ui.SDL_GL.obj
 0002:0000411c       ??_C@_0BE@HAHIEIOD@glGetVertexAttribfv?$AA@ 1004611c     umodsys_lib_libui:umodsys.mod.ui.SDL_GL.obj
 0002:00004130       ??_C@_0BE@HLCEAPNO@glGetVertexAttribiv?$AA@ 10046130     umodsys_lib_libui:umodsys.mod.ui.SDL_GL.obj
 0002:00004144       ??_C@_0M@INLOJDGO@glIsProgram?$AA@ 10046144     umodsys_lib_libui:umodsys.mod.ui.SDL_GL.obj
 0002:00004150       ??_C@_0L@MDDLFIHC@glIsShader?$AA@ 10046150     umodsys_lib_libui:umodsys.mod.ui.SDL_GL.obj
 0002:0000415c       ??_C@_0O@PIOEEBPO@glLinkProgram?$AA@ 1004615c     umodsys_lib_libui:umodsys.mod.ui.SDL_GL.obj
 0002:0000416c       ??_C@_0P@DFHCPFMO@glShaderSource?$AA@ 1004616c     umodsys_lib_libui:umodsys.mod.ui.SDL_GL.obj
 0002:0000417c       ??_C@_0BG@FCMNCEIA@glStencilFuncSeparate?$AA@ 1004617c     umodsys_lib_libui:umodsys.mod.ui.SDL_GL.obj
 0002:00004194       ??_C@_0BG@MMKPIEJI@glStencilMaskSeparate?$AA@ 10046194     umodsys_lib_libui:umodsys.mod.ui.SDL_GL.obj
 0002:000041ac       ??_C@_0BE@GAPLDNGF@glStencilOpSeparate?$AA@ 100461ac     umodsys_lib_libui:umodsys.mod.ui.SDL_GL.obj
 0002:000041c0       ??_C@_0M@MLICAPOF@glUniform1f?$AA@ 100461c0     umodsys_lib_libui:umodsys.mod.ui.SDL_GL.obj
 0002:000041cc       ??_C@_0N@KJMOEKII@glUniform1fv?$AA@ 100461cc     umodsys_lib_libui:umodsys.mod.ui.SDL_GL.obj
 0002:000041dc       ??_C@_0M@EMBKBDCK@glUniform1i?$AA@ 100461dc     umodsys_lib_libui:umodsys.mod.ui.SDL_GL.obj
 0002:000041e8       ??_C@_0N@KCJCANLF@glUniform1iv?$AA@ 100461e8     umodsys_lib_libui:umodsys.mod.ui.SDL_GL.obj
 0002:000041f8       ??_C@_0M@MJMELBLM@glUniform2f?$AA@ 100461f8     umodsys_lib_libui:umodsys.mod.ui.SDL_GL.obj
 0002:00004204       ??_C@_0N@LLHLOFGG@glUniform2fv?$AA@ 10046204     umodsys_lib_libui:umodsys.mod.ui.SDL_GL.obj
 0002:00004214       ??_C@_0M@EOFMKNHD@glUniform2i?$AA@ 10046214     umodsys_lib_libui:umodsys.mod.ui.SDL_GL.obj
 0002:00004220       ??_C@_0N@LACHKCFL@glUniform2iv?$AA@ 10046220     umodsys_lib_libui:umodsys.mod.ui.SDL_GL.obj
 0002:00004230       ??_C@_0M@MIAGNLIL@glUniform3f?$AA@ 10046230     umodsys_lib_libui:umodsys.mod.ui.SDL_GL.obj
 0002:0000423c       ??_C@_0N@DMHICAD@glUniform3fv?$AA@ 1004623c     umodsys_lib_libui:umodsys.mod.ui.SDL_GL.obj
 0002:0000424c       ??_C@_0M@EPJOMHEE@glUniform3i?$AA@ 1004624c     umodsys_lib_libui:umodsys.mod.ui.SDL_GL.obj
 0002:00004258       ??_C@_0N@IJLMFDO@glUniform3iv?$AA@ 10046258     umodsys_lib_libui:umodsys.mod.ui.SDL_GL.obj
 0002:00004268       ??_C@_0M@MNEJMNAO@glUniform4f?$AA@ 10046268     umodsys_lib_libui:umodsys.mod.ui.SDL_GL.obj
 0002:00004274       ??_C@_0N@JOBALKLK@glUniform4fv?$AA@ 10046274     umodsys_lib_libui:umodsys.mod.ui.SDL_GL.obj
 0002:00004284       ??_C@_0M@EKNBNBMB@glUniform4i?$AA@ 10046284     umodsys_lib_libui:umodsys.mod.ui.SDL_GL.obj
 0002:00004290       ??_C@_0N@JFEMPNIH@glUniform4iv?$AA@ 10046290     umodsys_lib_libui:umodsys.mod.ui.SDL_GL.obj
 0002:000042a0       ??_C@_0BD@JIBJELHD@glUniformMatrix2fv?$AA@ 100462a0     umodsys_lib_libui:umodsys.mod.ui.SDL_GL.obj
 0002:000042b4       ??_C@_0BD@CAKFCMBG@glUniformMatrix3fv?$AA@ 100462b4     umodsys_lib_libui:umodsys.mod.ui.SDL_GL.obj
 0002:000042c8       ??_C@_0BD@LNHCBEKP@glUniformMatrix4fv?$AA@ 100462c8     umodsys_lib_libui:umodsys.mod.ui.SDL_GL.obj
 0002:000042dc       ??_C@_0N@ICBDHBI@glUseProgram?$AA@ 100462dc     umodsys_lib_libui:umodsys.mod.ui.SDL_GL.obj
 0002:000042ec       ??_C@_0BC@MAPGDLJK@glValidateProgram?$AA@ 100462ec     umodsys_lib_libui:umodsys.mod.ui.SDL_GL.obj
 0002:00004300       ??_C@_0BB@PIOLPNPC@glVertexAttrib1d?$AA@ 10046300     umodsys_lib_libui:umodsys.mod.ui.SDL_GL.obj
 0002:00004314       ??_C@_0BC@CKCOKGLN@glVertexAttrib1dv?$AA@ 10046314     umodsys_lib_libui:umodsys.mod.ui.SDL_GL.obj
 0002:00004328       ??_C@_0BB@MKNNJPHA@glVertexAttrib1f?$AA@ 10046328     umodsys_lib_libui:umodsys.mod.ui.SDL_GL.obj
 0002:0000433c       ??_C@_0BC@CJKKHCND@glVertexAttrib1fv?$AA@ 1004633c     umodsys_lib_libui:umodsys.mod.ui.SDL_GL.obj
 0002:00004350       ??_C@_0BB@PNGIHJGE@glVertexAttrib1s?$AA@ 10046350     umodsys_lib_libui:umodsys.mod.ui.SDL_GL.obj
 0002:00004364       ??_C@_0BC@DDEHBDEI@glVertexAttrib1sv?$AA@ 10046364     umodsys_lib_libui:umodsys.mod.ui.SDL_GL.obj
 0002:00004378       ??_C@_0BB@PKKNEDKL@glVertexAttrib2d?$AA@ 10046378     umodsys_lib_libui:umodsys.mod.ui.SDL_GL.obj
 0002:0000438c       ??_C@_0BC@DIJLAJFD@glVertexAttrib2dv?$AA@ 1004638c     umodsys_lib_libui:umodsys.mod.ui.SDL_GL.obj
 0002:000043a0       ??_C@_0BB@MIJLCBCJ@glVertexAttrib2f?$AA@ 100463a0     umodsys_lib_libui:umodsys.mod.ui.SDL_GL.obj
 0002:000043b4       ??_C@_0BC@DLBPNNDN@glVertexAttrib2fv?$AA@ 100463b4     umodsys_lib_libui:umodsys.mod.ui.SDL_GL.obj
 0002:000043c8       ??_C@_0BB@PPCOMHDN@glVertexAttrib2s?$AA@ 100463c8     umodsys_lib_libui:umodsys.mod.ui.SDL_GL.obj
 0002:000043dc       ??_C@_0BC@CBPCLMKG@glVertexAttrib2sv?$AA@ 100463dc     umodsys_lib_libui:umodsys.mod.ui.SDL_GL.obj
 0002:000043f0       ??_C@_0BB@PLGPCJJM@glVertexAttrib3d?$AA@ 100463f0     umodsys_lib_libui:umodsys.mod.ui.SDL_GL.obj
 0002:00004404       ??_C@_0BC@IACHGODG@glVertexAttrib3dv?$AA@ 10046404     umodsys_lib_libui:umodsys.mod.ui.SDL_GL.obj
 0002:00004418       ??_C@_0BB@MJFJELBO@glVertexAttrib3f?$AA@ 10046418     umodsys_lib_libui:umodsys.mod.ui.SDL_GL.obj
 0002:0000442c       ??_C@_0BC@IDKDLKFI@glVertexAttrib3fv?$AA@ 1004642c     umodsys_lib_libui:umodsys.mod.ui.SDL_GL.obj
 0002:00004440       ??_C@_0BB@POOMKNAK@glVertexAttrib3s?$AA@ 10046440     umodsys_lib_libui:umodsys.mod.ui.SDL_GL.obj
 0002:00004454       ??_C@_0BC@JJEONLMD@glVertexAttrib3sv?$AA@ 10046454     umodsys_lib_libui:umodsys.mod.ui.SDL_GL.obj
 0002:00004468       ??_C@_0BD@NANPPEGB@glVertexAttrib4Nbv?$AA@ 10046468     umodsys_lib_libui:umodsys.mod.ui.SDL_GL.obj
 0002:0000447c       ??_C@_0BD@NMIKBLIA@glVertexAttrib4Niv?$AA@ 1004647c     umodsys_lib_libui:umodsys.mod.ui.SDL_GL.obj
 0002:00004490       ??_C@_0BD@MNDLDNCG@glVertexAttrib4Nsv?$AA@ 10046490     umodsys_lib_libui:umodsys.mod.ui.SDL_GL.obj
 0002:000044a4       ??_C@_0BD@OHBIJGMB@glVertexAttrib4Nub?$AA@ 100464a4     umodsys_lib_libui:umodsys.mod.ui.SDL_GL.obj
 0002:000044b8       ??_C@_0BE@JFOBDEMA@glVertexAttrib4Nubv?$AA@ 100464b8     umodsys_lib_libui:umodsys.mod.ui.SDL_GL.obj
 0002:000044cc       ??_C@_0BE@JJLENLCB@glVertexAttrib4Nuiv?$AA@ 100464cc     umodsys_lib_libui:umodsys.mod.ui.SDL_GL.obj
 0002:000044e0       ??_C@_0BE@IIAFPNIH@glVertexAttrib4Nusv?$AA@ 100464e0     umodsys_lib_libui:umodsys.mod.ui.SDL_GL.obj
 0002:000044f4       ??_C@_0BC@BJHNCKDN@glVertexAttrib4bv?$AA@ 100464f4     umodsys_lib_libui:umodsys.mod.ui.SDL_GL.obj
 0002:00004508       ??_C@_0BB@POCADPBJ@glVertexAttrib4d?$AA@ 10046508     umodsys_lib_libui:umodsys.mod.ui.SDL_GL.obj
 0002:0000451c       ??_C@_0BC@BNPAFGIP@glVertexAttrib4dv?$AA@ 1004651c     umodsys_lib_libui:umodsys.mod.ui.SDL_GL.obj
 0002:00004530       ??_C@_0BB@MMBGFNJL@glVertexAttrib4f?$AA@ 10046530     umodsys_lib_libui:umodsys.mod.ui.SDL_GL.obj
 0002:00004544       ??_C@_0BC@BOHEICOB@glVertexAttrib4fv?$AA@ 10046544     umodsys_lib_libui:umodsys.mod.ui.SDL_GL.obj
 0002:00004558       ??_C@_0BC@BFCIMFNM@glVertexAttrib4iv?$AA@ 10046558     umodsys_lib_libui:umodsys.mod.ui.SDL_GL.obj
 0002:0000456c       ??_C@_0BB@PLKDLLIP@glVertexAttrib4s?$AA@ 1004656c     umodsys_lib_libui:umodsys.mod.ui.SDL_GL.obj
 0002:00004580       ??_C@_0BC@EJJODHK@glVertexAttrib4sv?$AA@ 10046580     umodsys_lib_libui:umodsys.mod.ui.SDL_GL.obj
 0002:00004594       ??_C@_0BD@PHPFILMB@glVertexAttrib4ubv?$AA@ 10046594     umodsys_lib_libui:umodsys.mod.ui.SDL_GL.obj
 0002:000045a8       ??_C@_0BD@PLKAGECA@glVertexAttrib4uiv?$AA@ 100465a8     umodsys_lib_libui:umodsys.mod.ui.SDL_GL.obj
 0002:000045bc       ??_C@_0BD@OKBBECIG@glVertexAttrib4usv?$AA@ 100465bc     umodsys_lib_libui:umodsys.mod.ui.SDL_GL.obj
 0002:000045d0       ??_C@_0BG@JPNNNPKG@glVertexAttribPointer?$AA@ 100465d0     umodsys_lib_libui:umodsys.mod.ui.SDL_GL.obj
 0002:000045e8       ??_C@_0P@EOBINMCF@GL_VERSION_2_1?$AA@ 100465e8     umodsys_lib_libui:umodsys.mod.ui.SDL_GL.obj
 0002:000045f8       ??_C@_0BF@KDDJMCDK@glUniformMatrix2x3fv?$AA@ 100465f8     umodsys_lib_libui:umodsys.mod.ui.SDL_GL.obj
 0002:00004610       ??_C@_0BF@DOOOPKID@glUniformMatrix2x4fv?$AA@ 10046610     umodsys_lib_libui:umodsys.mod.ui.SDL_GL.obj
 0002:00004628       ??_C@_0BF@NANJHGPK@glUniformMatrix3x2fv?$AA@ 10046628     umodsys_lib_libui:umodsys.mod.ui.SDL_GL.obj
 0002:00004640       ??_C@_0BF@PFLCCJCG@glUniformMatrix3x4fv?$AA@ 10046640     umodsys_lib_libui:umodsys.mod.ui.SDL_GL.obj
 0002:00004658       ??_C@_0BF@MNNMEGEC@glUniformMatrix4x2fv?$AA@ 10046658     umodsys_lib_libui:umodsys.mod.ui.SDL_GL.obj
 0002:00004670       ??_C@_0BF@HFGACBCH@glUniformMatrix4x3fv?$AA@ 10046670     umodsys_lib_libui:umodsys.mod.ui.SDL_GL.obj
 0002:00004688       ??_C@_0P@OPLPIKAB@GL_VERSION_3_0?$AA@ 10046688     umodsys_lib_libui:umodsys.mod.ui.SDL_GL.obj
 0002:00004698       ??_C@_0BJ@EHEPIEPF@glBeginConditionalRender?$AA@ 10046698     umodsys_lib_libui:umodsys.mod.ui.SDL_GL.obj
 0002:000046b4       ??_C@_0BJ@FHJKOECC@glBeginTransformFeedback?$AA@ 100466b4     umodsys_lib_libui:umodsys.mod.ui.SDL_GL.obj
 0002:000046d0       ??_C@_0BB@LDPKOCJI@glBindBufferBase?$AA@ 100466d0     umodsys_lib_libui:umodsys.mod.ui.SDL_GL.obj
 0002:000046e4       ??_C@_0BC@EEMMCHMB@glBindBufferRange?$AA@ 100466e4     umodsys_lib_libui:umodsys.mod.ui.SDL_GL.obj
 0002:000046f8       ??_C@_0BH@DLJLAGBA@glBindFragDataLocation?$AA@ 100466f8     umodsys_lib_libui:umodsys.mod.ui.SDL_GL.obj
 0002:00004710       ??_C@_0BC@CJMIBNO@glBindFramebuffer?$AA@ 10046710     umodsys_lib_libui:umodsys.mod.ui.SDL_GL.obj
 0002:00004724       ??_C@_0BD@EPOPJGFA@glBindRenderbuffer?$AA@ 10046724     umodsys_lib_libui:umodsys.mod.ui.SDL_GL.obj
 0002:00004738       ??_C@_0BC@LHBAHFAN@glBindVertexArray?$AA@ 10046738     umodsys_lib_libui:umodsys.mod.ui.SDL_GL.obj
 0002:0000474c       ??_C@_0BC@OANBDDEP@glBlitFramebuffer?$AA@ 1004674c     umodsys_lib_libui:umodsys.mod.ui.SDL_GL.obj
 0002:00004760       ??_C@_0BJ@GIOLHEAD@glCheckFramebufferStatus?$AA@ 10046760     umodsys_lib_libui:umodsys.mod.ui.SDL_GL.obj
 0002:0000477c       ??_C@_0N@HLGAGIMI@glClampColor?$AA@ 1004677c     umodsys_lib_libui:umodsys.mod.ui.SDL_GL.obj
 0002:0000478c       ??_C@_0BA@OACPENCO@glClearBufferfi?$AA@ 1004678c     umodsys_lib_libui:umodsys.mod.ui.SDL_GL.obj
 0002:0000479c       ??_C@_0BA@CNHFEDLA@glClearBufferfv?$AA@ 1004679c     umodsys_lib_libui:umodsys.mod.ui.SDL_GL.obj
 0002:000047ac       ??_C@_0BA@CGCJAEIN@glClearBufferiv?$AA@ 100467ac     umodsys_lib_libui:umodsys.mod.ui.SDL_GL.obj
 0002:000047bc       ??_C@_0BB@OHPPAEID@glClearBufferuiv?$AA@ 100467bc     umodsys_lib_libui:umodsys.mod.ui.SDL_GL.obj
 0002:000047d0       ??_C@_0N@JHNNNJFG@glColorMaski?$AA@ 100467d0     umodsys_lib_libui:umodsys.mod.ui.SDL_GL.obj
 0002:000047e0       ??_C@_0BF@DJNJENP@glDeleteFramebuffers?$AA@ 100467e0     umodsys_lib_libui:umodsys.mod.ui.SDL_GL.obj
 0002:000047f8       ??_C@_0BG@KKOKEJDE@glDeleteRenderbuffers?$AA@ 100467f8     umodsys_lib_libui:umodsys.mod.ui.SDL_GL.obj
 0002:00004810       ??_C@_0BF@BMPCJLEF@glDeleteVertexArrays?$AA@ 10046810     umodsys_lib_libui:umodsys.mod.ui.SDL_GL.obj
 0002:00004828       ??_C@_0L@BMJPGDDH@glDisablei?$AA@ 10046828     umodsys_lib_libui:umodsys.mod.ui.SDL_GL.obj
 0002:00004834       ??_C@_09IEGEGIEN@glEnablei?$AA@ 10046834     umodsys_lib_libui:umodsys.mod.ui.SDL_GL.obj
 0002:00004840       ??_C@_0BH@KCIOLNMA@glEndConditionalRender?$AA@ 10046840     umodsys_lib_libui:umodsys.mod.ui.SDL_GL.obj
 0002:00004858       ??_C@_0BH@LCFLNNBH@glEndTransformFeedback?$AA@ 10046858     umodsys_lib_libui:umodsys.mod.ui.SDL_GL.obj
 0002:00004870       ??_C@_0BJ@NCDMGHKF@glFlushMappedBufferRange?$AA@ 10046870     umodsys_lib_libui:umodsys.mod.ui.SDL_GL.obj
 0002:0000488c       ??_C@_0BK@OJDINAOA@glFramebufferRenderbuffer?$AA@ 1004688c     umodsys_lib_libui:umodsys.mod.ui.SDL_GL.obj
 0002:000048a8       ??_C@_0BH@JAMDNNBM@glFramebufferTexture1D?$AA@ 100468a8     umodsys_lib_libui:umodsys.mod.ui.SDL_GL.obj
 0002:000048c0       ??_C@_0BH@JCIFGDEF@glFramebufferTexture2D?$AA@ 100468c0     umodsys_lib_libui:umodsys.mod.ui.SDL_GL.obj
 0002:000048d8       ??_C@_0BH@JDEHAJHC@glFramebufferTexture3D?$AA@ 100468d8     umodsys_lib_libui:umodsys.mod.ui.SDL_GL.obj
 0002:000048f0       ??_C@_0BK@NIHIDBBO@glFramebufferTextureLayer?$AA@ 100468f0     umodsys_lib_libui:umodsys.mod.ui.SDL_GL.obj
 0002:0000490c       ??_C@_0BC@FAPEBGID@glGenFramebuffers?$AA@ 1004690c     umodsys_lib_libui:umodsys.mod.ui.SDL_GL.obj
 0002:00004920       ??_C@_0BD@MIGEDNGJ@glGenRenderbuffers?$AA@ 10046920     umodsys_lib_libui:umodsys.mod.ui.SDL_GL.obj
 0002:00004934       ??_C@_0BC@EPJLBJBJ@glGenVertexArrays?$AA@ 10046934     umodsys_lib_libui:umodsys.mod.ui.SDL_GL.obj
 0002:00004948       ??_C@_0BB@BHNIMGDM@glGenerateMipmap?$AA@ 10046948     umodsys_lib_libui:umodsys.mod.ui.SDL_GL.obj
 0002:0000495c       ??_C@_0BA@OAKNOBP@glGetBooleani_v?$AA@ 1004695c     umodsys_lib_libui:umodsys.mod.ui.SDL_GL.obj
 0002:0000496c       ??_C@_0BG@NDOIGAMC@glGetFragDataLocation?$AA@ 1004696c     umodsys_lib_libui:umodsys.mod.ui.SDL_GL.obj
 0002:00004984       ??_C@_0CG@KLDGJEON@glGetFramebufferAttachmentParame@ 10046984     umodsys_lib_libui:umodsys.mod.ui.SDL_GL.obj
 0002:000049ac       ??_C@_0BA@FKCNNMFO@glGetIntegeri_v?$AA@ 100469ac     umodsys_lib_libui:umodsys.mod.ui.SDL_GL.obj
 0002:000049bc       ??_C@_0BN@FGKAECKO@glGetRenderbufferParameteriv?$AA@ 100469bc     umodsys_lib_libui:umodsys.mod.ui.SDL_GL.obj
 0002:000049dc       ??_C@_0N@PILJCBOD@glGetStringi?$AA@ 100469dc     umodsys_lib_libui:umodsys.mod.ui.SDL_GL.obj
 0002:000049ec       ??_C@_0BF@ODBJFHDD@glGetTexParameterIiv?$AA@ 100469ec     umodsys_lib_libui:umodsys.mod.ui.SDL_GL.obj
 0002:00004a04       ??_C@_0BG@MLODKKFL@glGetTexParameterIuiv?$AA@ 10046a04     umodsys_lib_libui:umodsys.mod.ui.SDL_GL.obj
 0002:00004a1c       ??_C@_0BO@ODFLPNG@glGetTransformFeedbackVarying?$AA@ 10046a1c     umodsys_lib_libui:umodsys.mod.ui.SDL_GL.obj
 0002:00004a3c       ??_C@_0BA@NIGECFIF@glGetUniformuiv?$AA@ 10046a3c     umodsys_lib_libui:umodsys.mod.ui.SDL_GL.obj
 0002:00004a4c       ??_C@_0BF@KPDNEONP@glGetVertexAttribIiv?$AA@ 10046a4c     umodsys_lib_libui:umodsys.mod.ui.SDL_GL.obj
 0002:00004a64       ??_C@_0BG@GCBDCABB@glGetVertexAttribIuiv?$AA@ 10046a64     umodsys_lib_libui:umodsys.mod.ui.SDL_GL.obj
 0002:00004a7c       ??_C@_0N@IMGKGOKN@glIsEnabledi?$AA@ 10046a7c     umodsys_lib_libui:umodsys.mod.ui.SDL_GL.obj
 0002:00004a8c       ??_C@_0BA@FGBIJCNH@glIsFramebuffer?$AA@ 10046a8c     umodsys_lib_libui:umodsys.mod.ui.SDL_GL.obj
 0002:00004a9c       ??_C@_0BB@DGGHKKOH@glIsRenderbuffer?$AA@ 10046a9c     umodsys_lib_libui:umodsys.mod.ui.SDL_GL.obj
 0002:00004ab0       ??_C@_0BA@ODJEGGAE@glIsVertexArray?$AA@ 10046ab0     umodsys_lib_libui:umodsys.mod.ui.SDL_GL.obj
 0002:00004ac0       ??_C@_0BB@EOHJGBIO@glMapBufferRange?$AA@ 10046ac0     umodsys_lib_libui:umodsys.mod.ui.SDL_GL.obj
 0002:00004ad4       ??_C@_0BG@EOIILGMJ@glRenderbufferStorage?$AA@ 10046ad4     umodsys_lib_libui:umodsys.mod.ui.SDL_GL.obj
 0002:00004aec       ??_C@_0CB@HNONLGJE@glRenderbufferStorageMultisample@ 10046aec     umodsys_lib_libui:umodsys.mod.ui.SDL_GL.obj
 0002:00004b10       ??_C@_0BC@MAFJKEHB@glTexParameterIiv?$AA@ 10046b10     umodsys_lib_libui:umodsys.mod.ui.SDL_GL.obj
 0002:00004b24       ??_C@_0BD@FDBCMKBE@glTexParameterIuiv?$AA@ 10046b24     umodsys_lib_libui:umodsys.mod.ui.SDL_GL.obj
 0002:00004b38       ??_C@_0BM@IJFAKBEF@glTransformFeedbackVaryings?$AA@ 10046b38     umodsys_lib_libui:umodsys.mod.ui.SDL_GL.obj
 0002:00004b54       ??_C@_0N@HKPEFJDP@glUniform1ui?$AA@ 10046b54     umodsys_lib_libui:umodsys.mod.ui.SDL_GL.obj
 0002:00004b64       ??_C@_0O@MPHJAHBE@glUniform1uiv?$AA@ 10046b64     umodsys_lib_libui:umodsys.mod.ui.SDL_GL.obj
 0002:00004b74       ??_C@_0N@GIEBPGNB@glUniform2ui?$AA@ 10046b74     umodsys_lib_libui:umodsys.mod.ui.SDL_GL.obj
 0002:00004b84       ??_C@_0O@IINJHNME@glUniform2uiv?$AA@ 10046b84     umodsys_lib_libui:umodsys.mod.ui.SDL_GL.obj
 0002:00004b94       ??_C@_0N@NAPNJBLE@glUniform3ui?$AA@ 10046b94     umodsys_lib_libui:umodsys.mod.ui.SDL_GL.obj
 0002:00004ba4       ??_C@_0O@LFLJFEHE@glUniform3uiv?$AA@ 10046ba4     umodsys_lib_libui:umodsys.mod.ui.SDL_GL.obj
 0002:00004bb4       ??_C@_0N@ENCKKJAN@glUniform4ui?$AA@ 10046bb4     umodsys_lib_libui:umodsys.mod.ui.SDL_GL.obj
 0002:00004bc4       ??_C@_0O@HJJIIGE@glUniform4uiv?$AA@ 10046bc4     umodsys_lib_libui:umodsys.mod.ui.SDL_GL.obj
 0002:00004bd4       ??_C@_0BC@CDIIMMAL@glVertexAttribI1i?$AA@ 10046bd4     umodsys_lib_libui:umodsys.mod.ui.SDL_GL.obj
 0002:00004be8       ??_C@_0BD@OOJEIPDE@glVertexAttribI1iv?$AA@ 10046be8     umodsys_lib_libui:umodsys.mod.ui.SDL_GL.obj
 0002:00004bfc       ??_C@_0BD@DGPCNLLO@glVertexAttribI1ui?$AA@ 10046bfc     umodsys_lib_libui:umodsys.mod.ui.SDL_GL.obj
 0002:00004c10       ??_C@_0BE@FFIKLCCA@glVertexAttribI1uiv?$AA@ 10046c10     umodsys_lib_libui:umodsys.mod.ui.SDL_GL.obj
 0002:00004c24       ??_C@_0BC@CBMOHCFC@glVertexAttribI2i?$AA@ 10046c24     umodsys_lib_libui:umodsys.mod.ui.SDL_GL.obj
 0002:00004c38       ??_C@_0BD@PMCBCANK@glVertexAttribI2iv?$AA@ 10046c38     umodsys_lib_libui:umodsys.mod.ui.SDL_GL.obj
 0002:00004c4c       ??_C@_0BD@CEEHHEFA@glVertexAttribI2ui?$AA@ 10046c4c     umodsys_lib_libui:umodsys.mod.ui.SDL_GL.obj
 0002:00004c60       ??_C@_0BE@BCCKMIPA@glVertexAttribI2uiv?$AA@ 10046c60     umodsys_lib_libui:umodsys.mod.ui.SDL_GL.obj
 0002:00004c74       ??_C@_0BC@CAAMBIGF@glVertexAttribI3i?$AA@ 10046c74     umodsys_lib_libui:umodsys.mod.ui.SDL_GL.obj
 0002:00004c88       ??_C@_0BD@EEJNEHLP@glVertexAttribI3iv?$AA@ 10046c88     umodsys_lib_libui:umodsys.mod.ui.SDL_GL.obj
 0002:00004c9c       ??_C@_0BD@JMPLBDDF@glVertexAttribI3ui?$AA@ 10046c9c     umodsys_lib_libui:umodsys.mod.ui.SDL_GL.obj
 0002:00004cb0       ??_C@_0BE@CPEKOBEA@glVertexAttribI3uiv?$AA@ 10046cb0     umodsys_lib_libui:umodsys.mod.ui.SDL_GL.obj
 0002:00004cc4       ??_C@_0BD@NFBPJAOH@glVertexAttribI4bv?$AA@ 10046cc4     umodsys_lib_libui:umodsys.mod.ui.SDL_GL.obj
 0002:00004cd8       ??_C@_0BC@CFEDAOOA@glVertexAttribI4i?$AA@ 10046cd8     umodsys_lib_libui:umodsys.mod.ui.SDL_GL.obj
 0002:00004cec       ??_C@_0BD@NJEKHPAG@glVertexAttribI4iv?$AA@ 10046cec     umodsys_lib_libui:umodsys.mod.ui.SDL_GL.obj
 0002:00004d00       ??_C@_0BD@MIPLFJKA@glVertexAttribI4sv?$AA@ 10046d00     umodsys_lib_libui:umodsys.mod.ui.SDL_GL.obj
 0002:00004d14       ??_C@_0BE@JBDPNCLB@glVertexAttribI4ubv?$AA@ 10046d14     umodsys_lib_libui:umodsys.mod.ui.SDL_GL.obj
 0002:00004d28       ??_C@_0BD@BCMCLIM@glVertexAttribI4ui?$AA@ 10046d28     umodsys_lib_libui:umodsys.mod.ui.SDL_GL.obj
 0002:00004d3c       ??_C@_0BE@JNGKDNFA@glVertexAttribI4uiv?$AA@ 10046d3c     umodsys_lib_libui:umodsys.mod.ui.SDL_GL.obj
 0002:00004d50       ??_C@_0BE@IMNLBLPG@glVertexAttribI4usv?$AA@ 10046d50     umodsys_lib_libui:umodsys.mod.ui.SDL_GL.obj
 0002:00004d64       ??_C@_0BH@NLOEHKCD@glVertexAttribIPointer?$AA@ 10046d64     umodsys_lib_libui:umodsys.mod.ui.SDL_GL.obj
 0002:00004d7c       ??_C@_0P@PGKELLEA@GL_VERSION_3_1?$AA@ 10046d7c     umodsys_lib_libui:umodsys.mod.ui.SDL_GL.obj
 0002:00004d8c       ??_C@_0BE@EPKABDOG@glCopyBufferSubData?$AA@ 10046d8c     umodsys_lib_libui:umodsys.mod.ui.SDL_GL.obj
 0002:00004da0       ??_C@_0BG@HIOFINAN@glDrawArraysInstanced?$AA@ 10046da0     umodsys_lib_libui:umodsys.mod.ui.SDL_GL.obj
 0002:00004db8       ??_C@_0BI@CGJENFBH@glDrawElementsInstanced?$AA@ 10046db8     umodsys_lib_libui:umodsys.mod.ui.SDL_GL.obj
 0002:00004dd0       ??_C@_0BM@KEMCJPAJ@glGetActiveUniformBlockName?$AA@ 10046dd0     umodsys_lib_libui:umodsys.mod.ui.SDL_GL.obj
 0002:00004dec       ??_C@_0BK@DMHOPJGL@glGetActiveUniformBlockiv?$AA@ 10046dec     umodsys_lib_libui:umodsys.mod.ui.SDL_GL.obj
 0002:00004e08       ??_C@_0BH@EGGFHKJJ@glGetActiveUniformName?$AA@ 10046e08     umodsys_lib_libui:umodsys.mod.ui.SDL_GL.obj
 0002:00004e20       ??_C@_0BG@JEHIMPCG@glGetActiveUniformsiv?$AA@ 10046e20     umodsys_lib_libui:umodsys.mod.ui.SDL_GL.obj
 0002:00004e38       ??_C@_0BH@CBDIMHHE@glGetUniformBlockIndex?$AA@ 10046e38     umodsys_lib_libui:umodsys.mod.ui.SDL_GL.obj
 0002:00004e50       ??_C@_0BE@MDPMIDEE@glGetUniformIndices?$AA@ 10046e50     umodsys_lib_libui:umodsys.mod.ui.SDL_GL.obj
 0002:00004e64       ??_C@_0BI@LJDLNGAF@glPrimitiveRestartIndex?$AA@ 10046e64     umodsys_lib_libui:umodsys.mod.ui.SDL_GL.obj
 0002:00004e7c       ??_C@_0M@IIMBBALL@glTexBuffer?$AA@ 10046e7c     umodsys_lib_libui:umodsys.mod.ui.SDL_GL.obj
 0002:00004e88       ??_C@_0BG@BOLEKKCP@glUniformBlockBinding?$AA@ 10046e88     umodsys_lib_libui:umodsys.mod.ui.SDL_GL.obj
 0002:00004ea0       ??_C@_0P@NNIJOIID@GL_VERSION_3_2?$AA@ 10046ea0     umodsys_lib_libui:umodsys.mod.ui.SDL_GL.obj
 0002:00004eb0       ??_C@_0BB@KDMPGJAC@glClientWaitSync?$AA@ 10046eb0     umodsys_lib_libui:umodsys.mod.ui.SDL_GL.obj
 0002:00004ec4       ??_C@_0N@PIFDNDFG@glDeleteSync?$AA@ 10046ec4     umodsys_lib_libui:umodsys.mod.ui.SDL_GL.obj
 0002:00004ed4       ??_C@_0BJ@LFMMIAHA@glDrawElementsBaseVertex?$AA@ 10046ed4     umodsys_lib_libui:umodsys.mod.ui.SDL_GL.obj
 0002:00004ef0       ??_C@_0CC@KLOIIKNA@glDrawElementsInstancedBaseVerte@ 10046ef0     umodsys_lib_libui:umodsys.mod.ui.SDL_GL.obj
 0002:00004f14       ??_C@_0BO@KBDDBILP@glDrawRangeElementsBaseVertex?$AA@ 10046f14     umodsys_lib_libui:umodsys.mod.ui.SDL_GL.obj
 0002:00004f34       ??_C@_0M@EFGFPFLP@glFenceSync?$AA@ 10046f34     umodsys_lib_libui:umodsys.mod.ui.SDL_GL.obj
 0002:00004f40       ??_C@_0BF@ENLMLILA@glFramebufferTexture?$AA@ 10046f40     umodsys_lib_libui:umodsys.mod.ui.SDL_GL.obj
 0002:00004f58       ??_C@_0BJ@KKBIDGPP@glGetBufferParameteri64v?$AA@ 10046f58     umodsys_lib_libui:umodsys.mod.ui.SDL_GL.obj
 0002:00004f74       ??_C@_0BC@KOJILIEC@glGetInteger64i_v?$AA@ 10046f74     umodsys_lib_libui:umodsys.mod.ui.SDL_GL.obj
 0002:00004f88       ??_C@_0BA@INMBOHGL@glGetInteger64v?$AA@ 10046f88     umodsys_lib_libui:umodsys.mod.ui.SDL_GL.obj
 0002:00004f98       ??_C@_0BD@DHLIMGN@glGetMultisamplefv?$AA@ 10046f98     umodsys_lib_libui:umodsys.mod.ui.SDL_GL.obj
 0002:00004fac       ??_C@_0M@MPEEOPIN@glGetSynciv?$AA@ 10046fac     umodsys_lib_libui:umodsys.mod.ui.SDL_GL.obj
 0002:00004fb8       ??_C@_08JPIIHJEO@glIsSync?$AA@ 10046fb8     umodsys_lib_libui:umodsys.mod.ui.SDL_GL.obj
 0002:00004fc4       ??_C@_0BO@NAPFJEEK@glMultiDrawElementsBaseVertex?$AA@ 10046fc4     umodsys_lib_libui:umodsys.mod.ui.SDL_GL.obj
 0002:00004fe4       ??_C@_0BC@ECOAPEBI@glProvokingVertex?$AA@ 10046fe4     umodsys_lib_libui:umodsys.mod.ui.SDL_GL.obj
 0002:00004ff8       ??_C@_0O@JNHBCHMB@glSampleMaski?$AA@ 10046ff8     umodsys_lib_libui:umodsys.mod.ui.SDL_GL.obj
 0002:00005008       ??_C@_0BI@FHDFLFA@glTexImage2DMultisample?$AA@ 10047008     umodsys_lib_libui:umodsys.mod.ui.SDL_GL.obj
 0002:00005020       ??_C@_0BI@JIHMLKCG@glTexImage3DMultisample?$AA@ 10047020     umodsys_lib_libui:umodsys.mod.ui.SDL_GL.obj
 0002:00005038       ??_C@_0L@MHLOGHGO@glWaitSync?$AA@ 10047038     umodsys_lib_libui:umodsys.mod.ui.SDL_GL.obj
 0002:00005044       ??_C@_0P@MEJCNJMC@GL_VERSION_3_3?$AA@ 10047044     umodsys_lib_libui:umodsys.mod.ui.SDL_GL.obj
 0002:00005054       ??_C@_0BO@POJBGCGG@glBindFragDataLocationIndexed?$AA@ 10047054     umodsys_lib_libui:umodsys.mod.ui.SDL_GL.obj
 0002:00005074       ??_C@_0O@PDEILAPG@glBindSampler?$AA@ 10047074     umodsys_lib_libui:umodsys.mod.ui.SDL_GL.obj
 0002:00005084       ??_C@_0M@PEKBINNN@glColorP3ui?$AA@ 10047084     umodsys_lib_libui:umodsys.mod.ui.SDL_GL.obj
 0002:00005090       ??_C@_0N@IBPDNBJE@glColorP3uiv?$AA@ 10047090     umodsys_lib_libui:umodsys.mod.ui.SDL_GL.obj
 0002:000050a0       ??_C@_0M@GJHGLFGE@glColorP4ui?$AA@ 100470a0     umodsys_lib_libui:umodsys.mod.ui.SDL_GL.obj
 0002:000050ac       ??_C@_0N@DDNDANIE@glColorP4uiv?$AA@ 100470ac     umodsys_lib_libui:umodsys.mod.ui.SDL_GL.obj
 0002:000050bc       ??_C@_0BB@FLPAOEOO@glDeleteSamplers?$AA@ 100470bc     umodsys_lib_libui:umodsys.mod.ui.SDL_GL.obj
 0002:000050d0       ??_C@_0O@EMMLGGLG@glGenSamplers?$AA@ 100470d0     umodsys_lib_libui:umodsys.mod.ui.SDL_GL.obj
 0002:000050e0       ??_C@_0BD@COCJFEOH@glGetFragDataIndex?$AA@ 100470e0     umodsys_lib_libui:umodsys.mod.ui.SDL_GL.obj
 0002:000050f4       ??_C@_0BF@JDAPDEPE@glGetQueryObjecti64v?$AA@ 100470f4     umodsys_lib_libui:umodsys.mod.ui.SDL_GL.obj
 0002:0000510c       ??_C@_0BG@NEGGOMJO@glGetQueryObjectui64v?$AA@ 1004710c     umodsys_lib_libui:umodsys.mod.ui.SDL_GL.obj
 0002:00005124       ??_C@_0BJ@KOMJDLDN@glGetSamplerParameterIiv?$AA@ 10047124     umodsys_lib_libui:umodsys.mod.ui.SDL_GL.obj
 0002:00005140       ??_C@_0BK@CMBGFHDA@glGetSamplerParameterIuiv?$AA@ 10047140     umodsys_lib_libui:umodsys.mod.ui.SDL_GL.obj
 0002:0000515c       ??_C@_0BI@FPHMKMKC@glGetSamplerParameterfv?$AA@ 1004715c     umodsys_lib_libui:umodsys.mod.ui.SDL_GL.obj
 0002:00005174       ??_C@_0BI@FECAOLJP@glGetSamplerParameteriv?$AA@ 10047174     umodsys_lib_libui:umodsys.mod.ui.SDL_GL.obj
 0002:0000518c       ??_C@_0M@LAJKHOKJ@glIsSampler?$AA@ 1004718c     umodsys_lib_libui:umodsys.mod.ui.SDL_GL.obj
 0002:00005198       ??_C@_0BE@OAHHKHKG@glMultiTexCoordP1ui?$AA@ 10047198     umodsys_lib_libui:umodsys.mod.ui.SDL_GL.obj
 0002:000051ac       ??_C@_0BF@EGDAKPAK@glMultiTexCoordP1uiv?$AA@ 100471ac     umodsys_lib_libui:umodsys.mod.ui.SDL_GL.obj
 0002:000051c4       ??_C@_0BE@PCMCAIEI@glMultiTexCoordP2ui?$AA@ 100471c4     umodsys_lib_libui:umodsys.mod.ui.SDL_GL.obj
 0002:000051d8       ??_C@_0BF@BJANFNK@glMultiTexCoordP2uiv?$AA@ 100471d8     umodsys_lib_libui:umodsys.mod.ui.SDL_GL.obj
 0002:000051f0       ??_C@_0BE@EKHOGPCN@glMultiTexCoordP3ui?$AA@ 100471f0     umodsys_lib_libui:umodsys.mod.ui.SDL_GL.obj
 0002:00005204       ??_C@_0BF@DMPAPMGK@glMultiTexCoordP3uiv?$AA@ 10047204     umodsys_lib_libui:umodsys.mod.ui.SDL_GL.obj
 0002:0000521c       ??_C@_0BE@NHKJFHJE@glMultiTexCoordP4ui?$AA@ 1004721c     umodsys_lib_libui:umodsys.mod.ui.SDL_GL.obj
 0002:00005230       ??_C@_0BF@IONACAHK@glMultiTexCoordP4uiv?$AA@ 10047230     umodsys_lib_libui:umodsys.mod.ui.SDL_GL.obj
 0002:00005248       ??_C@_0N@PBEFBNHO@glNormalP3ui?$AA@ 10047248     umodsys_lib_libui:umodsys.mod.ui.SDL_GL.obj
 0002:00005258       ??_C@_0O@MOCJMHFG@glNormalP3uiv?$AA@ 10047258     umodsys_lib_libui:umodsys.mod.ui.SDL_GL.obj
 0002:00005268       ??_C@_0P@KALICDIM@glQueryCounter?$AA@ 10047268     umodsys_lib_libui:umodsys.mod.ui.SDL_GL.obj
 0002:00005278       ??_C@_0BG@HKEIFIHF@glSamplerParameterIiv?$AA@ 10047278     umodsys_lib_libui:umodsys.mod.ui.SDL_GL.obj
 0002:00005290       ??_C@_0BH@FEMFBPPB@glSamplerParameterIuiv?$AA@ 10047290     umodsys_lib_libui:umodsys.mod.ui.SDL_GL.obj
 0002:000052a8       ??_C@_0BE@CGLJNDFB@glSamplerParameterf?$AA@ 100472a8     umodsys_lib_libui:umodsys.mod.ui.SDL_GL.obj
 0002:000052bc       ??_C@_0BF@GFCPAGMB@glSamplerParameterfv?$AA@ 100472bc     umodsys_lib_libui:umodsys.mod.ui.SDL_GL.obj
 0002:000052d4       ??_C@_0BE@KBCBMPJO@glSamplerParameteri?$AA@ 100472d4     umodsys_lib_libui:umodsys.mod.ui.SDL_GL.obj
 0002:000052e8       ??_C@_0BF@GOHDEBPM@glSamplerParameteriv?$AA@ 100472e8     umodsys_lib_libui:umodsys.mod.ui.SDL_GL.obj
 0002:00005300       ??_C@_0BF@PDDGBPKP@glSecondaryColorP3ui?$AA@ 10047300     umodsys_lib_libui:umodsys.mod.ui.SDL_GL.obj
 0002:00005318       ??_C@_0BG@DPPPFGBG@glSecondaryColorP3uiv?$AA@ 10047318     umodsys_lib_libui:umodsys.mod.ui.SDL_GL.obj
 0002:00005330       ??_C@_0P@OLJHLLHJ@glTexCoordP1ui?$AA@ 10047330     umodsys_lib_libui:umodsys.mod.ui.SDL_GL.obj
 0002:00005340       ??_C@_0BA@FAFHIAFD@glTexCoordP1uiv?$AA@ 10047340     umodsys_lib_libui:umodsys.mod.ui.SDL_GL.obj
 0002:00005350       ??_C@_0P@PJCCBEJH@glTexCoordP2ui?$AA@ 10047350     umodsys_lib_libui:umodsys.mod.ui.SDL_GL.obj
 0002:00005360       ??_C@_0BA@BHPHPKID@glTexCoordP2uiv?$AA@ 10047360     umodsys_lib_libui:umodsys.mod.ui.SDL_GL.obj
 0002:00005370       ??_C@_0P@EBJOHDPC@glTexCoordP3ui?$AA@ 10047370     umodsys_lib_libui:umodsys.mod.ui.SDL_GL.obj
 0002:00005380       ??_C@_0BA@CKJHNDDD@glTexCoordP3uiv?$AA@ 10047380     umodsys_lib_libui:umodsys.mod.ui.SDL_GL.obj
 0002:00005390       ??_C@_0P@NMEJELEL@glTexCoordP4ui?$AA@ 10047390     umodsys_lib_libui:umodsys.mod.ui.SDL_GL.obj
 0002:000053a0       ??_C@_0BA@JILHAPCD@glTexCoordP4uiv?$AA@ 100473a0     umodsys_lib_libui:umodsys.mod.ui.SDL_GL.obj
 0002:000053b0       ??_C@_0BG@NEBMAEHM@glVertexAttribDivisor?$AA@ 100473b0     umodsys_lib_libui:umodsys.mod.ui.SDL_GL.obj
 0002:000053c8       ??_C@_0BD@FLACCOEN@glVertexAttribP1ui?$AA@ 100473c8     umodsys_lib_libui:umodsys.mod.ui.SDL_GL.obj
 0002:000053dc       ??_C@_0BE@HBFDOBHD@glVertexAttribP1uiv?$AA@ 100473dc     umodsys_lib_libui:umodsys.mod.ui.SDL_GL.obj
 0002:000053f0       ??_C@_0BD@EJLHIBKD@glVertexAttribP2ui?$AA@ 100473f0     umodsys_lib_libui:umodsys.mod.ui.SDL_GL.obj
 0002:00005404       ??_C@_0BE@DGPDJLKD@glVertexAttribP2uiv?$AA@ 10047404     umodsys_lib_libui:umodsys.mod.ui.SDL_GL.obj
 0002:00005418       ??_C@_0BD@PBALOGMG@glVertexAttribP3ui?$AA@ 10047418     umodsys_lib_libui:umodsys.mod.ui.SDL_GL.obj
 0002:0000542c       ??_C@_0BE@LJDLCBD@glVertexAttribP3uiv?$AA@ 1004742c     umodsys_lib_libui:umodsys.mod.ui.SDL_GL.obj
 0002:00005440       ??_C@_0BD@GMNMNOHP@glVertexAttribP4ui?$AA@ 10047440     umodsys_lib_libui:umodsys.mod.ui.SDL_GL.obj
 0002:00005454       ??_C@_0BE@LJLDGOAD@glVertexAttribP4uiv?$AA@ 10047454     umodsys_lib_libui:umodsys.mod.ui.SDL_GL.obj
 0002:00005468       ??_C@_0N@EFBCIBMC@glVertexP2ui?$AA@ 10047468     umodsys_lib_libui:umodsys.mod.ui.SDL_GL.obj
 0002:00005478       ??_C@_0O@MEKGPGN@glVertexP2uiv?$AA@ 10047478     umodsys_lib_libui:umodsys.mod.ui.SDL_GL.obj
 0002:00005488       ??_C@_0N@PNKOOGKH@glVertexP3ui?$AA@ 10047488     umodsys_lib_libui:umodsys.mod.ui.SDL_GL.obj
 0002:00005498       ??_C@_0O@DBCKEGNN@glVertexP3uiv?$AA@ 10047498     umodsys_lib_libui:umodsys.mod.ui.SDL_GL.obj
 0002:000054a8       ??_C@_0N@GAHJNOBO@glVertexP4ui?$AA@ 100474a8     umodsys_lib_libui:umodsys.mod.ui.SDL_GL.obj
 0002:000054b8       ??_C@_0O@IDAKJKMN@glVertexP4uiv?$AA@ 100474b8     umodsys_lib_libui:umodsys.mod.ui.SDL_GL.obj
 0002:000054c8       ??_C@_0P@HCGILCLI@GL_VERSION_4_0?$AA@ 100474c8     umodsys_lib_libui:umodsys.mod.ui.SDL_GL.obj
 0002:000054d8       ??_C@_0BE@BDKPJDEE@glBeginQueryIndexed?$AA@ 100474d8     umodsys_lib_libui:umodsys.mod.ui.SDL_GL.obj
 0002:000054ec       ??_C@_0BI@BPJKLMIG@glBindTransformFeedback?$AA@ 100474ec     umodsys_lib_libui:umodsys.mod.ui.SDL_GL.obj
 0002:00005504       ??_C@_0BJ@FNMBAGAC@glBlendEquationSeparatei?$AA@ 10047504     umodsys_lib_libui:umodsys.mod.ui.SDL_GL.obj
 0002:00005520       ??_C@_0BB@MKHLNEOM@glBlendEquationi?$AA@ 10047520     umodsys_lib_libui:umodsys.mod.ui.SDL_GL.obj
 0002:00005534       ??_C@_0BF@PDDGKNBJ@glBlendFuncSeparatei?$AA@ 10047534     umodsys_lib_libui:umodsys.mod.ui.SDL_GL.obj
 0002:0000554c       ??_C@_0N@IKKELNNP@glBlendFunci?$AA@ 1004754c     umodsys_lib_libui:umodsys.mod.ui.SDL_GL.obj
 0002:0000555c       ??_C@_0BL@DIGEBFBK@glDeleteTransformFeedbacks?$AA@ 1004755c     umodsys_lib_libui:umodsys.mod.ui.SDL_GL.obj
 0002:00005578       ??_C@_0BF@BGDCPAEP@glDrawArraysIndirect?$AA@ 10047578     umodsys_lib_libui:umodsys.mod.ui.SDL_GL.obj
 0002:00005590       ??_C@_0BH@LJJDOEDH@glDrawElementsIndirect?$AA@ 10047590     umodsys_lib_libui:umodsys.mod.ui.SDL_GL.obj
 0002:000055a8       ??_C@_0BI@LEOILCPN@glDrawTransformFeedback?$AA@ 100475a8     umodsys_lib_libui:umodsys.mod.ui.SDL_GL.obj
 0002:000055c0       ??_C@_0BO@IGLFNCDG@glDrawTransformFeedbackStream?$AA@ 100475c0     umodsys_lib_libui:umodsys.mod.ui.SDL_GL.obj
 0002:000055e0       ??_C@_0BC@DPMHMNME@glEndQueryIndexed?$AA@ 100475e0     umodsys_lib_libui:umodsys.mod.ui.SDL_GL.obj
 0002:000055f4       ??_C@_0BI@KANKBGAE@glGenTransformFeedbacks?$AA@ 100475f4     umodsys_lib_libui:umodsys.mod.ui.SDL_GL.obj
 0002:0000560c       ??_C@_0BK@JPHEACLL@glGetActiveSubroutineName?$AA@ 1004760c     umodsys_lib_libui:umodsys.mod.ui.SDL_GL.obj
 0002:00005628       ??_C@_0CB@KCFFPCGJ@glGetActiveSubroutineUniformName@ 10047628     umodsys_lib_libui:umodsys.mod.ui.SDL_GL.obj
 0002:0000564c       ??_C@_0BP@FAPFAJFP@glGetActiveSubroutineUniformiv?$AA@ 1004764c     umodsys_lib_libui:umodsys.mod.ui.SDL_GL.obj
 0002:0000566c       ??_C@_0BE@LOKJCDFH@glGetProgramStageiv?$AA@ 1004766c     umodsys_lib_libui:umodsys.mod.ui.SDL_GL.obj
 0002:00005680       ??_C@_0BE@CCFJPMFI@glGetQueryIndexediv?$AA@ 10047680     umodsys_lib_libui:umodsys.mod.ui.SDL_GL.obj
 0002:00005694       ??_C@_0BF@ONDIGCJG@glGetSubroutineIndex?$AA@ 10047694     umodsys_lib_libui:umodsys.mod.ui.SDL_GL.obj
 0002:000056ac       ??_C@_0BP@IBIPLDOA@glGetSubroutineUniformLocation?$AA@ 100476ac     umodsys_lib_libui:umodsys.mod.ui.SDL_GL.obj
 0002:000056cc       ??_C@_0BK@BLMOFAGJ@glGetUniformSubroutineuiv?$AA@ 100476cc     umodsys_lib_libui:umodsys.mod.ui.SDL_GL.obj
 0002:000056e8       ??_C@_0P@NGEMHI@glGetUniformdv?$AA@ 100476e8     umodsys_lib_libui:umodsys.mod.ui.SDL_GL.obj
 0002:000056f8       ??_C@_0BG@BGFLKHBM@glIsTransformFeedback?$AA@ 100476f8     umodsys_lib_libui:umodsys.mod.ui.SDL_GL.obj
 0002:00005710       ??_C@_0BD@EDGCEBP@glMinSampleShading?$AA@ 10047710     umodsys_lib_libui:umodsys.mod.ui.SDL_GL.obj
 0002:00005724       ??_C@_0BD@LJKINJKN@glPatchParameterfv?$AA@ 10047724     umodsys_lib_libui:umodsys.mod.ui.SDL_GL.obj
 0002:00005738       ??_C@_0BC@PAPDGMLA@glPatchParameteri?$AA@ 10047738     umodsys_lib_libui:umodsys.mod.ui.SDL_GL.obj
 0002:0000574c       ??_C@_0BJ@FFNLKBCB@glPauseTransformFeedback?$AA@ 1004774c     umodsys_lib_libui:umodsys.mod.ui.SDL_GL.obj
 0002:00005768       ??_C@_0BK@JMHONFHF@glResumeTransformFeedback?$AA@ 10047768     umodsys_lib_libui:umodsys.mod.ui.SDL_GL.obj
 0002:00005784       ??_C@_0M@PJLEGNGH@glUniform1d?$AA@ 10047784     umodsys_lib_libui:umodsys.mod.ui.SDL_GL.obj
 0002:00005790       ??_C@_0N@KKEKJOOG@glUniform1dv?$AA@ 10047790     umodsys_lib_libui:umodsys.mod.ui.SDL_GL.obj
 0002:000057a0       ??_C@_0M@PLPCNDDO@glUniform2d?$AA@ 100477a0     umodsys_lib_libui:umodsys.mod.ui.SDL_GL.obj
 0002:000057ac       ??_C@_0N@LIPPDBAI@glUniform2dv?$AA@ 100477ac     umodsys_lib_libui:umodsys.mod.ui.SDL_GL.obj
 0002:000057bc       ??_C@_0M@PKDALJAJ@glUniform3d?$AA@ 100477bc     umodsys_lib_libui:umodsys.mod.ui.SDL_GL.obj
 0002:000057c8       ??_C@_0N@EDFGGN@glUniform3dv?$AA@ 100477c8     umodsys_lib_libui:umodsys.mod.ui.SDL_GL.obj
 0002:000057d8       ??_C@_0M@PPHPKPIM@glUniform4d?$AA@ 100477d8     umodsys_lib_libui:umodsys.mod.ui.SDL_GL.obj
 0002:000057e4       ??_C@_0N@JNJEGONE@glUniform4dv?$AA@ 100477e4     umodsys_lib_libui:umodsys.mod.ui.SDL_GL.obj
 0002:000057f4       ??_C@_0BD@JLJNJPBN@glUniformMatrix2dv?$AA@ 100477f4     umodsys_lib_libui:umodsys.mod.ui.SDL_GL.obj
 0002:00005808       ??_C@_0BF@KALNBGFE@glUniformMatrix2x3dv?$AA@ 10047808     umodsys_lib_libui:umodsys.mod.ui.SDL_GL.obj
 0002:00005820       ??_C@_0BF@DNGKCOON@glUniformMatrix2x4dv?$AA@ 10047820     umodsys_lib_libui:umodsys.mod.ui.SDL_GL.obj
 0002:00005838       ??_C@_0BD@CDCBPIHI@glUniformMatrix3dv?$AA@ 10047838     umodsys_lib_libui:umodsys.mod.ui.SDL_GL.obj
 0002:0000584c       ??_C@_0BF@NDFNKCJE@glUniformMatrix3x2dv?$AA@ 1004784c     umodsys_lib_libui:umodsys.mod.ui.SDL_GL.obj
 0002:00005864       ??_C@_0BF@PGDGPNEI@glUniformMatrix3x4dv?$AA@ 10047864     umodsys_lib_libui:umodsys.mod.ui.SDL_GL.obj
 0002:0000587c       ??_C@_0BD@LOPGMAMB@glUniformMatrix4dv?$AA@ 1004787c     umodsys_lib_libui:umodsys.mod.ui.SDL_GL.obj
 0002:00005890       ??_C@_0BF@MOFIJCCM@glUniformMatrix4x2dv?$AA@ 10047890     umodsys_lib_libui:umodsys.mod.ui.SDL_GL.obj
 0002:000058a8       ??_C@_0BF@HGOEPFEJ@glUniformMatrix4x3dv?$AA@ 100478a8     umodsys_lib_libui:umodsys.mod.ui.SDL_GL.obj
 0002:000058c0       ??_C@_0BI@CDPOBBHI@glUniformSubroutinesuiv?$AA@ 100478c0     umodsys_lib_libui:umodsys.mod.ui.SDL_GL.obj
 0002:000058d8       ??_C@_0BF@LBGBLLJA@GL_ARB_base_instance?$AA@ 100478d8     umodsys_lib_libui:umodsys.mod.ui.SDL_GL.obj
 0002:000058f0       ??_C@_0CC@FBJBJHCN@glDrawArraysInstancedBaseInstanc@ 100478f0     umodsys_lib_libui:umodsys.mod.ui.SDL_GL.obj
 0002:00005914       ??_C@_0CE@NGNINKJD@glDrawElementsInstancedBaseInsta@ 10047914     umodsys_lib_libui:umodsys.mod.ui.SDL_GL.obj
 0002:00005938       ??_C@_0CO@GCMNEAOA@glDrawElementsInstancedBaseVerte@ 10047938     umodsys_lib_libui:umodsys.mod.ui.SDL_GL.obj
 0002:00005968       ??_C@_0BI@FNELAAPJ@GL_ARB_bindless_texture?$AA@ 10047968     umodsys_lib_libui:umodsys.mod.ui.SDL_GL.obj
 0002:00005980       ??_C@_0BE@JHMEHOCI@glGetImageHandleARB?$AA@ 10047980     umodsys_lib_libui:umodsys.mod.ui.SDL_GL.obj
 0002:00005994       ??_C@_0BG@LFGIGKAH@glGetTextureHandleARB?$AA@ 10047994     umodsys_lib_libui:umodsys.mod.ui.SDL_GL.obj
 0002:000059ac       ??_C@_0BN@DEFEDMH@glGetTextureSamplerHandleARB?$AA@ 100479ac     umodsys_lib_libui:umodsys.mod.ui.SDL_GL.obj
 0002:000059cc       ??_C@_0BL@HBJNADOI@glGetVertexAttribLui64vARB?$AA@ 100479cc     umodsys_lib_libui:umodsys.mod.ui.SDL_GL.obj
 0002:000059e8       ??_C@_0BL@IFBPNOMI@glIsImageHandleResidentARB?$AA@ 100479e8     umodsys_lib_libui:umodsys.mod.ui.SDL_GL.obj
 0002:00005a04       ??_C@_0BN@JLGBAMKI@glIsTextureHandleResidentARB?$AA@ 10047a04     umodsys_lib_libui:umodsys.mod.ui.SDL_GL.obj
 0002:00005a24       ??_C@_0CA@BFHEDIKK@glMakeImageHandleNonResidentARB?$AA@ 10047a24     umodsys_lib_libui:umodsys.mod.ui.SDL_GL.obj
 0002:00005a44       ??_C@_0BN@ECHDHELL@glMakeImageHandleResidentARB?$AA@ 10047a44     umodsys_lib_libui:umodsys.mod.ui.SDL_GL.obj
 0002:00005a64       ??_C@_0CC@EGJJLHFP@glMakeTextureHandleNonResidentAR@ 10047a64     umodsys_lib_libui:umodsys.mod.ui.SDL_GL.obj
 0002:00005a88       ??_C@_0BP@KJHAKLAH@glMakeTextureHandleResidentARB?$AA@ 10047a88     umodsys_lib_libui:umodsys.mod.ui.SDL_GL.obj
 0002:00005aa8       ??_C@_0BO@PELKNEEA@glProgramUniformHandleui64ARB?$AA@ 10047aa8     umodsys_lib_libui:umodsys.mod.ui.SDL_GL.obj
 0002:00005ac8       ??_C@_0BP@PJOMOJFE@glProgramUniformHandleui64vARB?$AA@ 10047ac8     umodsys_lib_libui:umodsys.mod.ui.SDL_GL.obj
 0002:00005ae8       ??_C@_0BH@PPMOJDBB@glUniformHandleui64ARB?$AA@ 10047ae8     umodsys_lib_libui:umodsys.mod.ui.SDL_GL.obj
 0002:00005b00       ??_C@_0BI@OFILPMHB@glUniformHandleui64vARB?$AA@ 10047b00     umodsys_lib_libui:umodsys.mod.ui.SDL_GL.obj
 0002:00005b18       ??_C@_0BI@IPIKGHJF@glVertexAttribL1ui64ARB?$AA@ 10047b18     umodsys_lib_libui:umodsys.mod.ui.SDL_GL.obj
 0002:00005b30       ??_C@_0BJ@PCOPPLM@glVertexAttribL1ui64vARB?$AA@ 10047b30     umodsys_lib_libui:umodsys.mod.ui.SDL_GL.obj
 0002:00005b4c       ??_C@_0BG@FDMKKDFD@GL_ARB_buffer_storage?$AA@ 10047b4c     umodsys_lib_libui:umodsys.mod.ui.SDL_GL.obj
 0002:00005b64       ??_C@_0BA@COBILMHM@glBufferStorage?$AA@ 10047b64     umodsys_lib_libui:umodsys.mod.ui.SDL_GL.obj
 0002:00005b74       ??_C@_0BA@FEEMKBCF@GL_ARB_cl_event?$AA@ 10047b74     umodsys_lib_libui:umodsys.mod.ui.SDL_GL.obj
 0002:00005b84       ??_C@_0BL@FGCKKDPG@glCreateSyncFromCLeventARB?$AA@ 10047b84     umodsys_lib_libui:umodsys.mod.ui.SDL_GL.obj
 0002:00005ba0       ??_C@_0BL@DOOAPCEA@GL_ARB_clear_buffer_object?$AA@ 10047ba0     umodsys_lib_libui:umodsys.mod.ui.SDL_GL.obj
 0002:00005bbc       ??_C@_0BC@FCMBBKMP@glClearBufferData?$AA@ 10047bbc     umodsys_lib_libui:umodsys.mod.ui.SDL_GL.obj
 0002:00005bd0       ??_C@_0BF@FDHIBCMD@glClearBufferSubData?$AA@ 10047bd0     umodsys_lib_libui:umodsys.mod.ui.SDL_GL.obj
 0002:00005be8       ??_C@_0BF@HDHNHFHJ@GL_ARB_clear_texture?$AA@ 10047be8     umodsys_lib_libui:umodsys.mod.ui.SDL_GL.obj
 0002:00005c00       ??_C@_0BA@FNPOIBAF@glClearTexImage?$AA@ 10047c00     umodsys_lib_libui:umodsys.mod.ui.SDL_GL.obj
 0002:00005c10       ??_C@_0BD@CFALBON@glClearTexSubImage?$AA@ 10047c10     umodsys_lib_libui:umodsys.mod.ui.SDL_GL.obj
 0002:00005c24       ??_C@_0BK@NPDELCAH@GL_ARB_color_buffer_float?$AA@ 10047c24     umodsys_lib_libui:umodsys.mod.ui.SDL_GL.obj
 0002:00005c40       ??_C@_0BA@PBPFKPHF@glClampColorARB?$AA@ 10047c40     umodsys_lib_libui:umodsys.mod.ui.SDL_GL.obj
 0002:00005c50       ??_C@_0BG@CCENKDIE@GL_ARB_compute_shader?$AA@ 10047c50     umodsys_lib_libui:umodsys.mod.ui.SDL_GL.obj
 0002:00005c68       ??_C@_0BC@DKKFFIGC@glDispatchCompute?$AA@ 10047c68     umodsys_lib_libui:umodsys.mod.ui.SDL_GL.obj
 0002:00005c7c       ??_C@_0BK@EJMOGMMI@glDispatchComputeIndirect?$AA@ 10047c7c     umodsys_lib_libui:umodsys.mod.ui.SDL_GL.obj
 0002:00005c98       ??_C@_0CD@DFOMJNFO@GL_ARB_compute_variable_group_si@ 10047c98     umodsys_lib_libui:umodsys.mod.ui.SDL_GL.obj
 0002:00005cbc       ??_C@_0BO@GJCJOBMI@glDispatchComputeGroupSizeARB?$AA@ 10047cbc     umodsys_lib_libui:umodsys.mod.ui.SDL_GL.obj
 0002:00005cdc       ??_C@_0BC@IMNLOGMO@GL_ARB_copy_image?$AA@ 10047cdc     umodsys_lib_libui:umodsys.mod.ui.SDL_GL.obj
 0002:00005cf0       ??_C@_0BD@BNCHOBBL@glCopyImageSubData?$AA@ 10047cf0     umodsys_lib_libui:umodsys.mod.ui.SDL_GL.obj
 0002:00005d04       ??_C@_0BE@PIDMLBFI@GL_ARB_draw_buffers?$AA@ 10047d04     umodsys_lib_libui:umodsys.mod.ui.SDL_GL.obj
 0002:00005d18       ??_C@_0BB@DLEFHLGI@glDrawBuffersARB?$AA@ 10047d18     umodsys_lib_libui:umodsys.mod.ui.SDL_GL.obj
 0002:00005d2c       ??_C@_0BK@EPBDCMLE@GL_ARB_draw_buffers_blend?$AA@ 10047d2c     umodsys_lib_libui:umodsys.mod.ui.SDL_GL.obj
 0002:00005d48       ??_C@_0BM@DHGCGJJC@glBlendEquationSeparateiARB?$AA@ 10047d48     umodsys_lib_libui:umodsys.mod.ui.SDL_GL.obj
 0002:00005d64       ??_C@_0BE@MKEGJKA@glBlendEquationiARB?$AA@ 10047d64     umodsys_lib_libui:umodsys.mod.ui.SDL_GL.obj
 0002:00005d78       ??_C@_0BI@EJDLCHDA@glBlendFuncSeparateiARB?$AA@ 10047d78     umodsys_lib_libui:umodsys.mod.ui.SDL_GL.obj
 0002:00005d90       ??_C@_0BA@IINKCNIC@glBlendFunciARB?$AA@ 10047d90     umodsys_lib_libui:umodsys.mod.ui.SDL_GL.obj
 0002:00005da0       ??_C@_0BG@PNHOPBOL@GL_ARB_draw_instanced?$AA@ 10047da0     umodsys_lib_libui:umodsys.mod.ui.SDL_GL.obj
 0002:00005db8       ??_C@_0BJ@NIEKILNL@glDrawArraysInstancedARB?$AA@ 10047db8     umodsys_lib_libui:umodsys.mod.ui.SDL_GL.obj
 0002:00005dd4       ??_C@_0BL@JMJLDLNF@glDrawElementsInstancedARB?$AA@ 10047dd4     umodsys_lib_libui:umodsys.mod.ui.SDL_GL.obj
 0002:00005df0       ??_C@_0CC@CGMKCMOO@GL_ARB_framebuffer_no_attachment@ 10047df0     umodsys_lib_libui:umodsys.mod.ui.SDL_GL.obj
 0002:00005e14       ??_C@_0BI@MLACHGDK@glFramebufferParameteri?$AA@ 10047e14     umodsys_lib_libui:umodsys.mod.ui.SDL_GL.obj
 0002:00005e2c       ??_C@_0BM@BFEEFCMK@glGetFramebufferParameteriv?$AA@ 10047e2c     umodsys_lib_libui:umodsys.mod.ui.SDL_GL.obj
 0002:00005e48       ??_C@_0BI@DHMGIOF@GL_ARB_geometry_shader4?$AA@ 10047e48     umodsys_lib_libui:umodsys.mod.ui.SDL_GL.obj
 0002:00005e60       ??_C@_0BI@KFEKMNEL@glFramebufferTextureARB?$AA@ 10047e60     umodsys_lib_libui:umodsys.mod.ui.SDL_GL.obj
 0002:00005e78       ??_C@_0BM@PJPLFKLO@glFramebufferTextureFaceARB?$AA@ 10047e78     umodsys_lib_libui:umodsys.mod.ui.SDL_GL.obj
 0002:00005e94       ??_C@_0BN@OEJIBP@glFramebufferTextureLayerARB?$AA@ 10047e94     umodsys_lib_libui:umodsys.mod.ui.SDL_GL.obj
 0002:00005eb4       ??_C@_0BH@GELPODLK@glProgramParameteriARB?$AA@ 10047eb4     umodsys_lib_libui:umodsys.mod.ui.SDL_GL.obj
 0002:00005ecc       ??_C@_0BK@HNPMALLK@GL_ARB_get_program_binary?$AA@ 10047ecc     umodsys_lib_libui:umodsys.mod.ui.SDL_GL.obj
 0002:00005ee8       ??_C@_0BD@JBCEHKON@glGetProgramBinary?$AA@ 10047ee8     umodsys_lib_libui:umodsys.mod.ui.SDL_GL.obj
 0002:00005efc       ??_C@_0BA@MIIDHOO@glProgramBinary?$AA@ 10047efc     umodsys_lib_libui:umodsys.mod.ui.SDL_GL.obj
 0002:00005f0c       ??_C@_0BE@EELDBEME@glProgramParameteri?$AA@ 10047f0c     umodsys_lib_libui:umodsys.mod.ui.SDL_GL.obj
 0002:00005f20       ??_C@_0P@GDHEIIHD@GL_ARB_imaging?$AA@ 10047f20     umodsys_lib_libui:umodsys.mod.ui.SDL_GL.obj
 0002:00005f30       ??_C@_0BA@JAMHNPHF@glColorSubTable?$AA@ 10047f30     umodsys_lib_libui:umodsys.mod.ui.SDL_GL.obj
 0002:00005f40       ??_C@_0N@PCFLODHG@glColorTable?$AA@ 10047f40     umodsys_lib_libui:umodsys.mod.ui.SDL_GL.obj
 0002:00005f50       ??_C@_0BI@DEIGFBNP@glColorTableParameterfv?$AA@ 10047f50     umodsys_lib_libui:umodsys.mod.ui.SDL_GL.obj
 0002:00005f68       ??_C@_0BI@DPNKBGOC@glColorTableParameteriv?$AA@ 10047f68     umodsys_lib_libui:umodsys.mod.ui.SDL_GL.obj
 0002:00005f80       ??_C@_0BG@CJBBBGMA@glConvolutionFilter1D?$AA@ 10047f80     umodsys_lib_libui:umodsys.mod.ui.SDL_GL.obj
 0002:00005f98       ??_C@_0BG@CLFHKIJJ@glConvolutionFilter2D?$AA@ 10047f98     umodsys_lib_libui:umodsys.mod.ui.SDL_GL.obj
 0002:00005fb0       ??_C@_0BI@PLJALAOH@glConvolutionParameterf?$AA@ 10047fb0     umodsys_lib_libui:umodsys.mod.ui.SDL_GL.obj
 0002:00005fc8       ??_C@_0BJ@EHPADJBL@glConvolutionParameterfv?$AA@ 10047fc8     umodsys_lib_libui:umodsys.mod.ui.SDL_GL.obj
 0002:00005fe4       ??_C@_0BI@HMAIKMCI@glConvolutionParameteri?$AA@ 10047fe4     umodsys_lib_libui:umodsys.mod.ui.SDL_GL.obj
 0002:00005ffc       ??_C@_0BJ@EMKMHOCG@glConvolutionParameteriv?$AA@ 10047ffc     umodsys_lib_libui:umodsys.mod.ui.SDL_GL.obj
 0002:00006018       ??_C@_0BE@LPPLPNIO@glCopyColorSubTable?$AA@ 10048018     umodsys_lib_libui:umodsys.mod.ui.SDL_GL.obj
 0002:0000602c       ??_C@_0BB@KFNEDBPG@glCopyColorTable?$AA@ 1004802c     umodsys_lib_libui:umodsys.mod.ui.SDL_GL.obj
 0002:00006040       ??_C@_0BK@GEKJMFLK@glCopyConvolutionFilter1D?$AA@ 10048040     umodsys_lib_libui:umodsys.mod.ui.SDL_GL.obj
 0002:0000605c       ??_C@_0BK@GGOPHLOD@glCopyConvolutionFilter2D?$AA@ 1004805c     umodsys_lib_libui:umodsys.mod.ui.SDL_GL.obj
 0002:00006078       ??_C@_0BA@JMNLAECM@glGetColorTable?$AA@ 10048078     umodsys_lib_libui:umodsys.mod.ui.SDL_GL.obj
 0002:00006088       ??_C@_0BL@NIJNHALB@glGetColorTableParameterfv?$AA@ 10048088     umodsys_lib_libui:umodsys.mod.ui.SDL_GL.obj
 0002:000060a4       ??_C@_0BL@NDMBDHIM@glGetColorTableParameteriv?$AA@ 100480a4     umodsys_lib_libui:umodsys.mod.ui.SDL_GL.obj
 0002:000060c0       ??_C@_0BH@LPCMFECN@glGetConvolutionFilter?$AA@ 100480c0     umodsys_lib_libui:umodsys.mod.ui.SDL_GL.obj
 0002:000060d8       ??_C@_0BM@ONBGGOGF@glGetConvolutionParameterfv?$AA@ 100480d8     umodsys_lib_libui:umodsys.mod.ui.SDL_GL.obj
 0002:000060f4       ??_C@_0BM@OGEKCJFI@glGetConvolutionParameteriv?$AA@ 100480f4     umodsys_lib_libui:umodsys.mod.ui.SDL_GL.obj
 0002:00006110       ??_C@_0P@KEFKNNKH@glGetHistogram?$AA@ 10048110     umodsys_lib_libui:umodsys.mod.ui.SDL_GL.obj
 0002:00006120       ??_C@_0BK@IFPDKCN@glGetHistogramParameterfv?$AA@ 10048120     umodsys_lib_libui:umodsys.mod.ui.SDL_GL.obj
 0002:0000613c       ??_C@_0BK@DADHNBA@glGetHistogramParameteriv?$AA@ 1004813c     umodsys_lib_libui:umodsys.mod.ui.SDL_GL.obj
 0002:00006158       ??_C@_0M@ILDMABIA@glGetMinmax?$AA@ 10048158     umodsys_lib_libui:umodsys.mod.ui.SDL_GL.obj
 0002:00006164       ??_C@_0BH@ONPKEHGK@glGetMinmaxParameterfv?$AA@ 10048164     umodsys_lib_libui:umodsys.mod.ui.SDL_GL.obj
 0002:0000617c       ??_C@_0BH@OGKGAAFH@glGetMinmaxParameteriv?$AA@ 1004817c     umodsys_lib_libui:umodsys.mod.ui.SDL_GL.obj
 0002:00006194       ??_C@_0BF@LPFBPGKD@glGetSeparableFilter?$AA@ 10048194     umodsys_lib_libui:umodsys.mod.ui.SDL_GL.obj
 0002:000061ac       ??_C@_0M@EPLLGADA@glHistogram?$AA@ 100481ac     umodsys_lib_libui:umodsys.mod.ui.SDL_GL.obj
 0002:000061b8       ??_C@_08ONCKEMPI@glMinmax?$AA@ 100481b8     umodsys_lib_libui:umodsys.mod.ui.SDL_GL.obj
 0002:000061c4       ??_C@_0BB@OBMEDNFE@glResetHistogram?$AA@ 100481c4     umodsys_lib_libui:umodsys.mod.ui.SDL_GL.obj
 0002:000061d8       ??_C@_0O@MKNEKFLH@glResetMinmax?$AA@ 100481d8     umodsys_lib_libui:umodsys.mod.ui.SDL_GL.obj
 0002:000061e8       ??_C@_0BE@IEPFBBMM@glSeparableFilter2D?$AA@ 100481e8     umodsys_lib_libui:umodsys.mod.ui.SDL_GL.obj
 0002:000061fc       ??_C@_0BL@KOLCPNBO@GL_ARB_indirect_parameters?$AA@ 100481fc     umodsys_lib_libui:umodsys.mod.ui.SDL_GL.obj
 0002:00006218       ??_C@_0CC@GFMDJHGF@glMultiDrawArraysIndirectCountAR@ 10048218     umodsys_lib_libui:umodsys.mod.ui.SDL_GL.obj
 0002:0000623c       ??_C@_0CE@ONILMPPM@glMultiDrawElementsIndirectCount@ 1004823c     umodsys_lib_libui:umodsys.mod.ui.SDL_GL.obj
 0002:00006260       ??_C@_0BI@GEEEIEIJ@GL_ARB_instanced_arrays?$AA@ 10048260     umodsys_lib_libui:umodsys.mod.ui.SDL_GL.obj
 0002:00006278       ??_C@_0BJ@KDFJOAKK@glVertexAttribDivisorARB?$AA@ 10048278     umodsys_lib_libui:umodsys.mod.ui.SDL_GL.obj
 0002:00006294       ??_C@_0BM@CAEGIJIO@GL_ARB_internalformat_query?$AA@ 10048294     umodsys_lib_libui:umodsys.mod.ui.SDL_GL.obj
 0002:000062b0       ??_C@_0BG@BAOCDJPF@glGetInternalformativ?$AA@ 100482b0     umodsys_lib_libui:umodsys.mod.ui.SDL_GL.obj
 0002:000062c8       ??_C@_0BN@OHFALMNP@GL_ARB_internalformat_query2?$AA@ 100482c8     umodsys_lib_libui:umodsys.mod.ui.SDL_GL.obj
 0002:000062e8       ??_C@_0BI@PHNNEGBD@glGetInternalformati64v?$AA@ 100482e8     umodsys_lib_libui:umodsys.mod.ui.SDL_GL.obj
 0002:00006300       ??_C@_0BK@HKMBDNBJ@GL_ARB_invalidate_subdata?$AA@ 10048300     umodsys_lib_libui:umodsys.mod.ui.SDL_GL.obj
 0002:0000631c       ??_C@_0BH@OGIFIBHA@glInvalidateBufferData?$AA@ 1004831c     umodsys_lib_libui:umodsys.mod.ui.SDL_GL.obj
 0002:00006334       ??_C@_0BK@HOHOHNAC@glInvalidateBufferSubData?$AA@ 10048334     umodsys_lib_libui:umodsys.mod.ui.SDL_GL.obj
 0002:00006350       ??_C@_0BI@OAJPOHIP@glInvalidateFramebuffer?$AA@ 10048350     umodsys_lib_libui:umodsys.mod.ui.SDL_GL.obj
 0002:00006368       ??_C@_0BL@IHGLAPPE@glInvalidateSubFramebuffer?$AA@ 10048368     umodsys_lib_libui:umodsys.mod.ui.SDL_GL.obj
 0002:00006384       ??_C@_0BF@KHIECPKG@glInvalidateTexImage?$AA@ 10048384     umodsys_lib_libui:umodsys.mod.ui.SDL_GL.obj
 0002:0000639c       ??_C@_0BI@FJDKFLGL@glInvalidateTexSubImage?$AA@ 1004839c     umodsys_lib_libui:umodsys.mod.ui.SDL_GL.obj
 0002:000063b4       ??_C@_0BG@CILLCDJH@GL_ARB_matrix_palette?$AA@ 100483b4     umodsys_lib_libui:umodsys.mod.ui.SDL_GL.obj
 0002:000063cc       ??_C@_0BK@HJCEONII@glCurrentPaletteMatrixARB?$AA@ 100483cc     umodsys_lib_libui:umodsys.mod.ui.SDL_GL.obj
 0002:000063e8       ??_C@_0BI@LOCLKDCL@glMatrixIndexPointerARB?$AA@ 100483e8     umodsys_lib_libui:umodsys.mod.ui.SDL_GL.obj
 0002:00006400       ??_C@_0BE@HCLPKGGK@glMatrixIndexubvARB?$AA@ 10048400     umodsys_lib_libui:umodsys.mod.ui.SDL_GL.obj
 0002:00006414       ??_C@_0BE@BIHIFGKJ@glMatrixIndexuivARB?$AA@ 10048414     umodsys_lib_libui:umodsys.mod.ui.SDL_GL.obj
 0002:00006428       ??_C@_0BE@LKDFHHFE@glMatrixIndexusvARB?$AA@ 10048428     umodsys_lib_libui:umodsys.mod.ui.SDL_GL.obj
 0002:0000643c       ??_C@_0BC@HHGOLJHF@GL_ARB_multi_bind?$AA@ 1004843c     umodsys_lib_libui:umodsys.mod.ui.SDL_GL.obj
 0002:00006450       ??_C@_0BC@ENBBLPHM@glBindBuffersBase?$AA@ 10048450     umodsys_lib_libui:umodsys.mod.ui.SDL_GL.obj
 0002:00006464       ??_C@_0BD@ODFFOKPN@glBindBuffersRange?$AA@ 10048464     umodsys_lib_libui:umodsys.mod.ui.SDL_GL.obj
 0002:00006478       ??_C@_0BE@NAMJLOCK@glBindImageTextures?$AA@ 10048478     umodsys_lib_libui:umodsys.mod.ui.SDL_GL.obj
 0002:0000648c       ??_C@_0P@FADPDFKM@glBindSamplers?$AA@ 1004848c     umodsys_lib_libui:umodsys.mod.ui.SDL_GL.obj
 0002:0000649c       ??_C@_0P@KHDEIIMA@glBindTextures?$AA@ 1004849c     umodsys_lib_libui:umodsys.mod.ui.SDL_GL.obj
 0002:000064ac       ??_C@_0BE@LNCGJHDC@glBindVertexBuffers?$AA@ 100484ac     umodsys_lib_libui:umodsys.mod.ui.SDL_GL.obj
 0002:000064c0       ??_C@_0BL@PDDLDNGB@GL_ARB_multi_draw_indirect?$AA@ 100484c0     umodsys_lib_libui:umodsys.mod.ui.SDL_GL.obj
 0002:000064dc       ??_C@_0BK@IKGAIKOP@glMultiDrawArraysIndirect?$AA@ 100484dc     umodsys_lib_libui:umodsys.mod.ui.SDL_GL.obj
 0002:000064f8       ??_C@_0BM@KHEEFMKO@glMultiDrawElementsIndirect?$AA@ 100484f8     umodsys_lib_libui:umodsys.mod.ui.SDL_GL.obj
 0002:00006514       ??_C@_0BD@PNEOICHK@GL_ARB_multisample?$AA@ 10048514     umodsys_lib_libui:umodsys.mod.ui.SDL_GL.obj
 0002:00006528       ??_C@_0BE@NMFNHPGD@glSampleCoverageARB?$AA@ 10048528     umodsys_lib_libui:umodsys.mod.ui.SDL_GL.obj
 0002:0000653c       ??_C@_0BE@MEMOPMEA@GL_ARB_multitexture?$AA@ 1004853c     umodsys_lib_libui:umodsys.mod.ui.SDL_GL.obj
 0002:00006550       ??_C@_0BD@IKCKKKNH@glActiveTextureARB?$AA@ 10048550     umodsys_lib_libui:umodsys.mod.ui.SDL_GL.obj
 0002:00006564       ??_C@_0BJ@PBJNGLJH@glClientActiveTextureARB?$AA@ 10048564     umodsys_lib_libui:umodsys.mod.ui.SDL_GL.obj
 0002:00006580       ??_C@_0BF@JJDGKFDO@glMultiTexCoord1dARB?$AA@ 10048580     umodsys_lib_libui:umodsys.mod.ui.SDL_GL.obj
 0002:00006598       ??_C@_0BG@EODMDJBO@glMultiTexCoord1dvARB?$AA@ 10048598     umodsys_lib_libui:umodsys.mod.ui.SDL_GL.obj
 0002:000065b0       ??_C@_0BF@ODPGPGFO@glMultiTexCoord1fARB?$AA@ 100485b0     umodsys_lib_libui:umodsys.mod.ui.SDL_GL.obj
 0002:000065c8       ??_C@_0BG@DPEJIBF@glMultiTexCoord1fvARB?$AA@ 100485c8     umodsys_lib_libui:umodsys.mod.ui.SDL_GL.obj
 0002:000065e0       ??_C@_0BF@GBKGGBIP@glMultiTexCoord1iARB?$AA@ 100485e0     umodsys_lib_libui:umodsys.mod.ui.SDL_GL.obj
 0002:000065f8       ??_C@_0BG@PCKCCKMA@glMultiTexCoord1ivARB?$AA@ 100485f8     umodsys_lib_libui:umodsys.mod.ui.SDL_GL.obj
 0002:00006610       ??_C@_0BF@ELPGOOKM@glMultiTexCoord1sARB?$AA@ 10048610     umodsys_lib_libui:umodsys.mod.ui.SDL_GL.obj
 0002:00006628       ??_C@_0BG@FAOPALDN@glMultiTexCoord1svARB?$AA@ 10048628     umodsys_lib_libui:umodsys.mod.ui.SDL_GL.obj
 0002:00006640       ??_C@_0BF@BPKCNHJA@glMultiTexCoord2dARB?$AA@ 10048640     umodsys_lib_libui:umodsys.mod.ui.SDL_GL.obj
 0002:00006658       ??_C@_0BG@HPNECDID@glMultiTexCoord2dvARB?$AA@ 10048658     umodsys_lib_libui:umodsys.mod.ui.SDL_GL.obj
 0002:00006670       ??_C@_0BF@GFGCIEPA@glMultiTexCoord2fARB?$AA@ 10048670     umodsys_lib_libui:umodsys.mod.ui.SDL_GL.obj
 0002:00006688       ??_C@_0BG@DCBMICII@glMultiTexCoord2fvARB?$AA@ 10048688     umodsys_lib_libui:umodsys.mod.ui.SDL_GL.obj
 0002:000066a0       ??_C@_0BF@OHDCBDCB@glMultiTexCoord2iARB?$AA@ 100486a0     umodsys_lib_libui:umodsys.mod.ui.SDL_GL.obj
 0002:000066b8       ??_C@_0BG@MDEKDAFN@glMultiTexCoord2ivARB?$AA@ 100486b8     umodsys_lib_libui:umodsys.mod.ui.SDL_GL.obj
 0002:000066d0       ??_C@_0BF@MNGCJMAC@glMultiTexCoord2sARB?$AA@ 100486d0     umodsys_lib_libui:umodsys.mod.ui.SDL_GL.obj
 0002:000066e8       ??_C@_0BG@GBAHBBKA@glMultiTexCoord2svARB?$AA@ 100486e8     umodsys_lib_libui:umodsys.mod.ui.SDL_GL.obj
 0002:00006700       ??_C@_0BF@NEPOAEDF@glMultiTexCoord3dARB?$AA@ 10048700     umodsys_lib_libui:umodsys.mod.ui.SDL_GL.obj
 0002:00006718       ??_C@_0BG@NJKDCIDH@glMultiTexCoord3dvARB?$AA@ 10048718     umodsys_lib_libui:umodsys.mod.ui.SDL_GL.obj
 0002:00006730       ??_C@_0BF@KODOFHFF@glMultiTexCoord3fARB?$AA@ 10048730     umodsys_lib_libui:umodsys.mod.ui.SDL_GL.obj
 0002:00006748       ??_C@_0BG@JEGLIJDM@glMultiTexCoord3fvARB?$AA@ 10048748     umodsys_lib_libui:umodsys.mod.ui.SDL_GL.obj
 0002:00006760       ??_C@_0BF@CMGOMAIE@glMultiTexCoord3iARB?$AA@ 10048760     umodsys_lib_libui:umodsys.mod.ui.SDL_GL.obj
 0002:00006778       ??_C@_0BG@GFDNDLOJ@glMultiTexCoord3ivARB?$AA@ 10048778     umodsys_lib_libui:umodsys.mod.ui.SDL_GL.obj
 0002:00006790       ??_C@_0BF@GDOEPKH@glMultiTexCoord3sARB?$AA@ 10048790     umodsys_lib_libui:umodsys.mod.ui.SDL_GL.obj
 0002:000067a8       ??_C@_0BG@MHHABKBE@glMultiTexCoord3svARB?$AA@ 100487a8     umodsys_lib_libui:umodsys.mod.ui.SDL_GL.obj
 0002:000067c0       ??_C@_0BF@MJPLDEIN@glMultiTexCoord4dARB?$AA@ 100487c0     umodsys_lib_libui:umodsys.mod.ui.SDL_GL.obj
 0002:000067d8       ??_C@_0BG@BMAEBGLJ@glMultiTexCoord4dvARB?$AA@ 100487d8     umodsys_lib_libui:umodsys.mod.ui.SDL_GL.obj
 0002:000067f0       ??_C@_0BF@LDDLGHON@glMultiTexCoord4fARB?$AA@ 100487f0     umodsys_lib_libui:umodsys.mod.ui.SDL_GL.obj
 0002:00006808       ??_C@_0BG@FBMMLHLC@glMultiTexCoord4fvARB?$AA@ 10048808     umodsys_lib_libui:umodsys.mod.ui.SDL_GL.obj
 0002:00006820       ??_C@_0BF@DBGLPADM@glMultiTexCoord4iARB?$AA@ 10048820     umodsys_lib_libui:umodsys.mod.ui.SDL_GL.obj
 0002:00006838       ??_C@_0BG@KAJKAFGH@glMultiTexCoord4ivARB?$AA@ 10048838     umodsys_lib_libui:umodsys.mod.ui.SDL_GL.obj
 0002:00006850       ??_C@_0BF@BLDLHPBP@glMultiTexCoord4sARB?$AA@ 10048850     umodsys_lib_libui:umodsys.mod.ui.SDL_GL.obj
 0002:00006868       ??_C@_0BG@CNHCEJK@glMultiTexCoord4svARB?$AA@ 10048868     umodsys_lib_libui:umodsys.mod.ui.SDL_GL.obj
 0002:00006880       ??_C@_0BH@NKOBMOPI@GL_ARB_occlusion_query?$AA@ 10048880     umodsys_lib_libui:umodsys.mod.ui.SDL_GL.obj
 0002:00006898       ??_C@_0BA@LPKBABEB@glBeginQueryARB?$AA@ 10048898     umodsys_lib_libui:umodsys.mod.ui.SDL_GL.obj
 0002:000068a8       ??_C@_0BD@HAEDHPKB@glDeleteQueriesARB?$AA@ 100488a8     umodsys_lib_libui:umodsys.mod.ui.SDL_GL.obj
 0002:000068bc       ??_C@_0O@EFJDHGFG@glEndQueryARB?$AA@ 100488bc     umodsys_lib_libui:umodsys.mod.ui.SDL_GL.obj
 0002:000068cc       ??_C@_0BA@BJHFNMK@glGenQueriesARB?$AA@ 100488cc     umodsys_lib_libui:umodsys.mod.ui.SDL_GL.obj
 0002:000068dc       ??_C@_0BG@EDFKPCGN@glGetQueryObjectivARB?$AA@ 100488dc     umodsys_lib_libui:umodsys.mod.ui.SDL_GL.obj
 0002:000068f4       ??_C@_0BH@OOHKBDPD@glGetQueryObjectuivARB?$AA@ 100488f4     umodsys_lib_libui:umodsys.mod.ui.SDL_GL.obj
 0002:0000690c       ??_C@_0BA@DPEEILJC@glGetQueryivARB?$AA@ 1004890c     umodsys_lib_libui:umodsys.mod.ui.SDL_GL.obj
 0002:0000691c       ??_C@_0N@HKMIDCPF@glIsQueryARB?$AA@ 1004891c     umodsys_lib_libui:umodsys.mod.ui.SDL_GL.obj
 0002:0000692c       ??_C@_0BI@KJOBMOPB@GL_ARB_point_parameters?$AA@ 1004892c     umodsys_lib_libui:umodsys.mod.ui.SDL_GL.obj
 0002:00006944       ??_C@_0BF@DADCFKCJ@glPointParameterfARB?$AA@ 10048944     umodsys_lib_libui:umodsys.mod.ui.SDL_GL.obj
 0002:0000695c       ??_C@_0BG@MNEGLICG@glPointParameterfvARB?$AA@ 1004895c     umodsys_lib_libui:umodsys.mod.ui.SDL_GL.obj
 0002:00006974       ??_C@_0BP@DBPLPPLA@GL_ARB_program_interface_query?$AA@ 10048974     umodsys_lib_libui:umodsys.mod.ui.SDL_GL.obj
 0002:00006994       ??_C@_0BI@ICGPDPK@glGetProgramInterfaceiv?$AA@ 10048994     umodsys_lib_libui:umodsys.mod.ui.SDL_GL.obj
 0002:000069ac       ??_C@_0BK@DBDCONKB@glGetProgramResourceIndex?$AA@ 100489ac     umodsys_lib_libui:umodsys.mod.ui.SDL_GL.obj
 0002:000069c8       ??_C@_0BN@BIJNENLC@glGetProgramResourceLocation?$AA@ 100489c8     umodsys_lib_libui:umodsys.mod.ui.SDL_GL.obj
 0002:000069e8       ??_C@_0CC@GHECGAIH@glGetProgramResourceLocationInde@ 100489e8     umodsys_lib_libui:umodsys.mod.ui.SDL_GL.obj
 0002:00006a0c       ??_C@_0BJ@OHCPEAGJ@glGetProgramResourceName?$AA@ 10048a0c     umodsys_lib_libui:umodsys.mod.ui.SDL_GL.obj
 0002:00006a28       ??_C@_0BH@LEDFEPHI@glGetProgramResourceiv?$AA@ 10048a28     umodsys_lib_libui:umodsys.mod.ui.SDL_GL.obj
 0002:00006a40       ??_C@_0BC@EOBKJDCM@GL_ARB_robustness?$AA@ 10048a40     umodsys_lib_libui:umodsys.mod.ui.SDL_GL.obj
 0002:00006a54       ??_C@_0BM@HDJJPNDL@glGetGraphicsResetStatusARB?$AA@ 10048a54     umodsys_lib_libui:umodsys.mod.ui.SDL_GL.obj
 0002:00006a70       ??_C@_0BE@EKKDCCDE@glGetnColorTableARB?$AA@ 10048a70     umodsys_lib_libui:umodsys.mod.ui.SDL_GL.obj
 0002:00006a84       ??_C@_0BM@IEIHGHHI@glGetnCompressedTexImageARB?$AA@ 10048a84     umodsys_lib_libui:umodsys.mod.ui.SDL_GL.obj
 0002:00006aa0       ??_C@_0BL@KGPCMOFG@glGetnConvolutionFilterARB?$AA@ 10048aa0     umodsys_lib_libui:umodsys.mod.ui.SDL_GL.obj
 0002:00006abc       ??_C@_0BD@MOBMBOGN@glGetnHistogramARB?$AA@ 10048abc     umodsys_lib_libui:umodsys.mod.ui.SDL_GL.obj
 0002:00006ad0       ??_C@_0P@BCDNBFMA@glGetnMapdvARB?$AA@ 10048ad0     umodsys_lib_libui:umodsys.mod.ui.SDL_GL.obj
 0002:00006ae0       ??_C@_0P@FPPFLEML@glGetnMapfvARB?$AA@ 10048ae0     umodsys_lib_libui:umodsys.mod.ui.SDL_GL.obj
 0002:00006af0       ??_C@_0P@KOKDAGBO@glGetnMapivARB?$AA@ 10048af0     umodsys_lib_libui:umodsys.mod.ui.SDL_GL.obj
 0002:00006b00       ??_C@_0BA@PCCAKFCF@glGetnMinmaxARB?$AA@ 10048b00     umodsys_lib_libui:umodsys.mod.ui.SDL_GL.obj
 0002:00006b10       ??_C@_0BE@FCLKGMPL@glGetnPixelMapfvARB?$AA@ 10048b10     umodsys_lib_libui:umodsys.mod.ui.SDL_GL.obj
 0002:00006b24       ??_C@_0BF@BEPLFPF@glGetnPixelMapuivARB?$AA@ 10048b24     umodsys_lib_libui:umodsys.mod.ui.SDL_GL.obj
 0002:00006b3c       ??_C@_0BF@KDACJEAI@glGetnPixelMapusvARB?$AA@ 10048b3c     umodsys_lib_libui:umodsys.mod.ui.SDL_GL.obj
 0002:00006b54       ??_C@_0BI@ENGMEGBP@glGetnPolygonStippleARB?$AA@ 10048b54     umodsys_lib_libui:umodsys.mod.ui.SDL_GL.obj
 0002:00006b6c       ??_C@_0BJ@LPLOODMD@glGetnSeparableFilterARB?$AA@ 10048b6c     umodsys_lib_libui:umodsys.mod.ui.SDL_GL.obj
 0002:00006b88       ??_C@_0BC@PIJGCEFC@glGetnTexImageARB?$AA@ 10048b88     umodsys_lib_libui:umodsys.mod.ui.SDL_GL.obj
 0002:00006b9c       ??_C@_0BD@MEJNBIJE@glGetnUniformdvARB?$AA@ 10048b9c     umodsys_lib_libui:umodsys.mod.ui.SDL_GL.obj
 0002:00006bb0       ??_C@_0BD@IJFFLJJP@glGetnUniformfvARB?$AA@ 10048bb0     umodsys_lib_libui:umodsys.mod.ui.SDL_GL.obj
 0002:00006bc4       ??_C@_0BD@HIADALEK@glGetnUniformivARB?$AA@ 10048bc4     umodsys_lib_libui:umodsys.mod.ui.SDL_GL.obj
 0002:00006bd8       ??_C@_0BE@ELELPPGB@glGetnUniformuivARB?$AA@ 10048bd8     umodsys_lib_libui:umodsys.mod.ui.SDL_GL.obj
 0002:00006bec       ??_C@_0BB@IPICMDNC@glReadnPixelsARB?$AA@ 10048bec     umodsys_lib_libui:umodsys.mod.ui.SDL_GL.obj
 0002:00006c00       ??_C@_0BG@OGBJIDCC@GL_ARB_sample_shading?$AA@ 10048c00     umodsys_lib_libui:umodsys.mod.ui.SDL_GL.obj
 0002:00006c18       ??_C@_0BG@KHPHHIHH@glMinSampleShadingARB?$AA@ 10048c18     umodsys_lib_libui:umodsys.mod.ui.SDL_GL.obj
 0002:00006c30       ??_C@_0BP@CCMMHIFB@GL_ARB_separate_shader_objects?$AA@ 10048c30     umodsys_lib_libui:umodsys.mod.ui.SDL_GL.obj
 0002:00006c50       ??_C@_0BG@IAIOGMEB@glActiveShaderProgram?$AA@ 10048c50     umodsys_lib_libui:umodsys.mod.ui.SDL_GL.obj
 0002:00006c68       ??_C@_0BG@GLPOKNCG@glBindProgramPipeline?$AA@ 10048c68     umodsys_lib_libui:umodsys.mod.ui.SDL_GL.obj
 0002:00006c80       ??_C@_0BH@BOJGDFJN@glCreateShaderProgramv?$AA@ 10048c80     umodsys_lib_libui:umodsys.mod.ui.SDL_GL.obj
 0002:00006c98       ??_C@_0BJ@CHBGABHE@glDeleteProgramPipelines?$AA@ 10048c98     umodsys_lib_libui:umodsys.mod.ui.SDL_GL.obj
 0002:00006cb4       ??_C@_0BG@CCBKOCA@glGenProgramPipelines?$AA@ 10048cb4     umodsys_lib_libui:umodsys.mod.ui.SDL_GL.obj
 0002:00006ccc       ??_C@_0BM@BFFCFFFG@glGetProgramPipelineInfoLog?$AA@ 10048ccc     umodsys_lib_libui:umodsys.mod.ui.SDL_GL.obj
 0002:00006ce8       ??_C@_0BH@DNOPNJMO@glGetProgramPipelineiv?$AA@ 10048ce8     umodsys_lib_libui:umodsys.mod.ui.SDL_GL.obj
 0002:00006d00       ??_C@_0BE@DLHPDHCH@glIsProgramPipeline?$AA@ 10048d00     umodsys_lib_libui:umodsys.mod.ui.SDL_GL.obj
 0002:00006d14       ??_C@_0BD@JLIFLIMB@glProgramUniform1d?$AA@ 10048d14     umodsys_lib_libui:umodsys.mod.ui.SDL_GL.obj
 0002:00006d28       ??_C@_0BE@JFJNKJOO@glProgramUniform1dv?$AA@ 10048d28     umodsys_lib_libui:umodsys.mod.ui.SDL_GL.obj
 0002:00006d3c       ??_C@_0BD@KJLDNKED@glProgramUniform1f?$AA@ 10048d3c     umodsys_lib_libui:umodsys.mod.ui.SDL_GL.obj
 0002:00006d50       ??_C@_0BE@JGBJHNIA@glProgramUniform1fv?$AA@ 10048d50     umodsys_lib_libui:umodsys.mod.ui.SDL_GL.obj
 0002:00006d64       ??_C@_0BD@COCLMGIM@glProgramUniform1i?$AA@ 10048d64     umodsys_lib_libui:umodsys.mod.ui.SDL_GL.obj
 0002:00006d78       ??_C@_0BE@JNEFDKLN@glProgramUniform1iv?$AA@ 10048d78     umodsys_lib_libui:umodsys.mod.ui.SDL_GL.obj
 0002:00006d8c       ??_C@_0BE@EFCDGODH@glProgramUniform1ui?$AA@ 10048d8c     umodsys_lib_libui:umodsys.mod.ui.SDL_GL.obj
 0002:00006da0       ??_C@_0BF@MBJNFIBB@glProgramUniform1uiv?$AA@ 10048da0     umodsys_lib_libui:umodsys.mod.ui.SDL_GL.obj
 0002:00006db8       ??_C@_0BD@JJMDAGJI@glProgramUniform2d?$AA@ 10048db8     umodsys_lib_libui:umodsys.mod.ui.SDL_GL.obj
