 umodsysc

 Timestamp is 527368b0 (Fri Nov 01 11:39:12 2013)

 Preferred load address is 00400000

 Start         Length     Name                   Class
 0001:00000000 0000e6fcH .text                   CODE
 0001:0000e700 0000051aH .text$x                 CODE
 0001:0000ec20 00000a01H .text$yc                CODE
 0001:0000f630 0000041aH .text$yd                CODE
 0002:00000000 000001bcH .idata$5                DATA
 0002:000001bc 00000004H .CRT$XCA                DATA
 0002:000001c0 00000004H .CRT$XCAA               DATA
 0002:000001c4 00000294H .CRT$XCU                DATA
 0002:00000458 00000004H .CRT$XCZ                DATA
 0002:0000045c 00000004H .CRT$XIA                DATA
 0002:00000460 00000004H .CRT$XIAA               DATA
 0002:00000464 00000004H .CRT$XIY                DATA
 0002:00000468 00000004H .CRT$XIZ                DATA
 0002:00000470 00001c50H .rdata                  DATA
 0002:000020c0 00001310H .rdata$r                DATA
 0002:000033d0 0000009cH .rdata$sxdata           DATA
 0002:0000346c 00000004H .rtc$IAA                DATA
 0002:00003470 00000004H .rtc$IZZ                DATA
 0002:00003474 00000004H .rtc$TAA                DATA
 0002:00003478 00000004H .rtc$TZZ                DATA
 0002:00003480 00000890H .xdata$x                DATA
 0002:00003d10 00000050H .idata$2                DATA
 0002:00003d60 00000014H .idata$3                DATA
 0002:00003d74 000001bcH .idata$4                DATA
 0002:00003f30 00000752H .idata$6                DATA
 0002:00004690 00000058H .edata                  DATA
 0003:00000000 00000cc0H .data                   DATA
 0003:00000cc0 000029e8H .bss                    DATA

  Address         Publics by Value              Rva+Base       Lib:Object

 0000:00000000       __except_list              00000000     <absolute>
 0000:00000027       ___safe_se_handler_count   00000027     <absolute>
 0000:00009876       __fltused                  00009876     <absolute>
 0000:00009876       __ldused                   00009876     <absolute>
 0000:00000000       ___ImageBase               00400000     <linker-defined>
 0001:00000000       ??0?$TString@U?$TSCoreConst@D@su@tl@UModSys@@U?$TComparerBinaryHash@D@234@@tl@UModSys@@QAE@PBD@Z 00401000 f i umodsys.c_main.obj
 0001:00000050       ??$shash@D@su@tl@UModSys@@YAHPBDI@Z 00401050 f i umodsys.c_main.obj
 0001:00000080       ??1SCMemShared@core@UModSys@@QAE@XZ 00401080 f i umodsys_lib_libmedia:umodsys.mod.media.std.obj
 0001:00000080       ??1SMemShared@core@UModSys@@QAE@XZ 00401080 f i umodsys_lib_libmedia:umodsys.mod.media.std.obj
 0001:00000080       ??1SInfo@IBinObjFilter@libmedia@UModSys@@QAE@XZ 00401080 f i umodsys_lib_libmedia:umodsys.mod.media.std.obj
 0001:00000090       ??3IRoot@core@UModSys@@SAXPAXABUSIMemAlloc@12@@Z 00401090 f i umodsys_lib_libmedia:umodsys.mod.media.std.obj
 0001:000000a0       ??1?$TString@U?$TSCoreShared@USIMemAlloc@core@UModSys@@D@su@tl@UModSys@@U?$TComparerBinaryHash@D@234@@tl@UModSys@@QAE@XZ 004010a0 f i umodsys_lib_libmedia:umodsys.mod.media.std.obj
 0001:000000a0       ??1?$TSCoreShared@USIMemAlloc@core@UModSys@@D@su@tl@UModSys@@QAE@XZ 004010a0 f i umodsys_lib_libmedia:umodsys.mod.media.std.obj
 0001:000000e0       ?get_flag@RResolverChain@SFlagsChain@libmedia@UModSys@@UBE?AW4eStates@?$TFlags4State@USMediaFlagUid@libmedia@UModSys@@I@tl@4@H@Z 004010e0 f i umodsys_lib_libmedia:umodsys.mod.media.std.obj
 0001:00000120       ??1SLayer@ILibraryLayered@libmedia@UModSys@@QAE@XZ 00401120 f i umodsys_lib_libmedia:umodsys.mod.media.std.obj
 0001:00000120       ??1SPoint@ILibraryBinTree@libmedia@UModSys@@QAE@XZ 00401120 f i umodsys_lib_libmedia:umodsys.mod.media.std.obj
 0001:00000140       ?root_get_interface_info@RLibraryBinCache@std@media@modules@UModSys@@UBEABUSUniquePointerInfo@core@5@XZ 00401140 f i umodsys_lib_libmedia:umodsys.mod.media.std.obj
 0001:00000150       ?root_get_interface_type@RLibraryBinCache@std@media@modules@UModSys@@UBEPBUSUniquePointerInfo@core@5@XZ 00401150 f i umodsys_lib_libmedia:umodsys.mod.media.std.obj
 0001:00000160       ?root_get_other_interface@RLibraryBinCache@std@media@modules@UModSys@@UBEPBUIRoot@core@5@PBUSUniquePointerInfo@75@@Z 00401160 f i umodsys_lib_libmedia:umodsys.mod.media.std.obj
 0001:00000160       ?root_get_other_interface@RLibraryBinCache@std@media@modules@UModSys@@UAEPAUIRoot@core@5@PBUSUniquePointerInfo@75@@Z 00401160 f i umodsys_lib_libmedia:umodsys.mod.media.std.obj
 0001:000001a0       ?root_is_interface_supported@RLibraryBinCache@std@media@modules@UModSys@@UBE_NPBUSUniquePointerInfo@core@5@@Z 004011a0 f i umodsys_lib_libmedia:umodsys.mod.media.std.obj
 0001:000001e0       ??0RLibraryBinCache@std@media@modules@UModSys@@QAE@PAUIModObject@base@4@ABUSParameters@core@4@U?$TFlags4State@USMediaFlagUid@libmedia@UModSys@@I@tl@4@@Z 004011e0 f i umodsys_lib_libmedia:umodsys.mod.media.std.obj
 0001:00000260       ??1RLibraryBinCache@std@media@modules@UModSys@@UAE@XZ 00401260 f i umodsys_lib_libmedia:umodsys.mod.media.std.obj
 0001:000002d0       ?get_flag@RLibraryBinTree@std@media@modules@UModSys@@UBE?AW4eStates@?$TFlags4State@USMediaFlagUid@libmedia@UModSys@@I@tl@5@H@Z 004012d0 f i umodsys_lib_libmedia:umodsys.mod.media.std.obj
 0001:000002d0       ?get_flag@RLibraryObjFilter@std@media@modules@UModSys@@UBE?AW4eStates@?$TFlags4State@USMediaFlagUid@libmedia@UModSys@@I@tl@5@H@Z 004012d0 f i umodsys_lib_libmedia:umodsys.mod.media.std.obj
 0001:000002d0       ?get_flag@RLibraryBinCache@std@media@modules@UModSys@@UBE?AW4eStates@?$TFlags4State@USMediaFlagUid@libmedia@UModSys@@I@tl@5@H@Z 004012d0 f i umodsys_lib_libmedia:umodsys.mod.media.std.obj
 0001:000002d0       ?get_flag@RLibraryObjCache@std@media@modules@UModSys@@UBE?AW4eStates@?$TFlags4State@USMediaFlagUid@libmedia@UModSys@@I@tl@5@H@Z 004012d0 f i umodsys_lib_libmedia:umodsys.mod.media.std.obj
 0001:000002f0       ?get_flags_auto@RLibraryBinCache@std@media@modules@UModSys@@UBE?AU?$TFlags4State@USMediaFlagUid@libmedia@UModSys@@I@tl@5@XZ 004012f0 f i umodsys_lib_libmedia:umodsys.mod.media.std.obj
 0001:00000300       ?bin_load@RLibraryBinCache@std@media@modules@UModSys@@UAE_NABU?$TString@U?$TSCoreConst@D@su@tl@UModSys@@U?$TComparerBinaryHash@D@234@@tl@5@AAUSCMemShared@core@5@ABUSFlags@libmedia@5@@Z 00401300 f i umodsys_lib_libmedia:umodsys.mod.media.std.obj
 0001:00000360       ?bin_put@RLibraryBinCache@std@media@modules@UModSys@@UAE_NABU?$TString@U?$TSCoreConst@D@su@tl@UModSys@@U?$TComparerBinaryHash@D@234@@tl@5@PBUSCMemShared@core@5@@Z 00401360 f i umodsys_lib_libmedia:umodsys.mod.media.std.obj
 0001:00000390       ?bincache_get@RLibraryBinCache@std@media@modules@UModSys@@UBE_NABU?$TString@U?$TSCoreConst@D@su@tl@UModSys@@U?$TComparerBinaryHash@D@234@@tl@5@PAUSCMemShared@core@5@PA_N@Z 00401390 f i umodsys_lib_libmedia:umodsys.mod.media.std.obj
 0001:00000410       ?bincache_add@RLibraryBinCache@std@media@modules@UModSys@@UAE_NABU?$TString@U?$TSCoreConst@D@su@tl@UModSys@@U?$TComparerBinaryHash@D@234@@tl@5@@Z 00401410 f i umodsys_lib_libmedia:umodsys.mod.media.std.obj
 0001:00000460       ?bincache_add@RLibraryBinCache@std@media@modules@UModSys@@UAE_NABU?$TString@U?$TSCoreConst@D@su@tl@UModSys@@U?$TComparerBinaryHash@D@234@@tl@5@ABUSCMemShared@core@5@@Z 00401460 f i umodsys_lib_libmedia:umodsys.mod.media.std.obj
 0001:00000480       ?bincache_remove@RLibraryBinCache@std@media@modules@UModSys@@UAE_NABU?$TString@U?$TSCoreConst@D@su@tl@UModSys@@U?$TComparerBinaryHash@D@234@@tl@5@@Z 00401480 f i umodsys_lib_libmedia:umodsys.mod.media.std.obj
 0001:000004c0       ?bincache_clear@RLibraryBinCache@std@media@modules@UModSys@@UAE_NXZ 004014c0 f i umodsys_lib_libmedia:umodsys.mod.media.std.obj
 0001:000004f0       ?bincache_add@RLibraryBinCache@std@media@modules@UModSys@@QAE_NABU?$TString@U?$TSCoreConst@D@su@tl@UModSys@@U?$TComparerBinaryHash@D@234@@tl@5@ABUSCMemShared@core@5@_N@Z 004014f0 f i umodsys_lib_libmedia:umodsys.mod.media.std.obj
 0001:00000660       ??_ERLibraryBinCache@std@media@modules@UModSys@@UAEPAXI@Z 00401660 f i  CIL library: CIL module
 0001:00000660       ??_GRLibraryBinCache@std@media@modules@UModSys@@UAEPAXI@Z 00401660 f i umodsys_lib_libmedia:umodsys.mod.media.std.obj
 0001:00000680       ??_GRGenerator@stdio@media@modules@UModSys@@UAEPAXI@Z 00401680 f i umodsys_lib_libmedia:umodsys.mod.media.stdio.obj
 0001:00000680       ??_GRGenerator@images_std@media@modules@UModSys@@UAEPAXI@Z 00401680 f i umodsys_lib_libmedia:umodsys.mod.media.images_std.obj
 0001:00000680       ??_ERGenerator@stdio@media@modules@UModSys@@UAEPAXI@Z 00401680 f i  CIL library: CIL module
 0001:00000680       ??_GRGenerator@std@media@modules@UModSys@@UAEPAXI@Z 00401680 f i umodsys_lib_libmedia:umodsys.mod.media.std.obj
 0001:00000680       ??_GIRefObject@core@UModSys@@UAEPAXI@Z 00401680 f i umodsys_lib_libmedia:umodsys.mod.media.std.obj
 0001:00000680       ??_EIRefObject@core@UModSys@@UAEPAXI@Z 00401680 f i  CIL library: CIL module
 0001:00000680       ??_ERGenerator@images_std@media@modules@UModSys@@UAEPAXI@Z 00401680 f i  CIL library: CIL module
 0001:00000680       ??_ERGenerator@std@media@modules@UModSys@@UAEPAXI@Z 00401680 f i  CIL library: CIL module
 0001:000006a0       ??_EIRoot@core@UModSys@@UAEPAXI@Z 004016a0 f i  CIL library: CIL module
 0001:000006a0       ??_GIRoot@core@UModSys@@UAEPAXI@Z 004016a0 f i umodsys_lib_libmedia:umodsys.mod.media.std.obj
 0001:000006c0       ?root_get_interface_info@RLibraryBinTree@std@media@modules@UModSys@@UBEABUSUniquePointerInfo@core@5@XZ 004016c0 f i umodsys_lib_libmedia:umodsys.mod.media.std.obj
 0001:000006d0       ?root_get_interface_type@RLibraryBinTree@std@media@modules@UModSys@@UBEPBUSUniquePointerInfo@core@5@XZ 004016d0 f i umodsys_lib_libmedia:umodsys.mod.media.std.obj
 0001:000006e0       ?root_get_other_interface@RLibraryBinTree@std@media@modules@UModSys@@UAEPAUIRoot@core@5@PBUSUniquePointerInfo@75@@Z 004016e0 f i umodsys_lib_libmedia:umodsys.mod.media.std.obj
 0001:000006e0       ?root_get_other_interface@RLibraryBinTree@std@media@modules@UModSys@@UBEPBUIRoot@core@5@PBUSUniquePointerInfo@75@@Z 004016e0 f i umodsys_lib_libmedia:umodsys.mod.media.std.obj
 0001:00000720       ?root_is_interface_supported@RLibraryBinTree@std@media@modules@UModSys@@UBE_NPBUSUniquePointerInfo@core@5@@Z 00401720 f i umodsys_lib_libmedia:umodsys.mod.media.std.obj
 0001:00000760       ??0RLibraryBinTree@std@media@modules@UModSys@@QAE@PAUIModObject@base@4@ABUSParameters@core@4@U?$TFlags4State@USMediaFlagUid@libmedia@UModSys@@I@tl@4@@Z 00401760 f i umodsys_lib_libmedia:umodsys.mod.media.std.obj
 0001:000007e0       ??1RLibraryBinTree@std@media@modules@UModSys@@UAE@XZ 004017e0 f i umodsys_lib_libmedia:umodsys.mod.media.std.obj
 0001:00000850       ?get_flags_auto@RLibraryBinTree@std@media@modules@UModSys@@UBE?AU?$TFlags4State@USMediaFlagUid@libmedia@UModSys@@I@tl@5@XZ 00401850 f i umodsys_lib_libmedia:umodsys.mod.media.std.obj
 0001:00000860       ?set_flag@RLibraryObjCache@std@media@modules@UModSys@@UAE?AW4eStates@?$TFlags4State@USMediaFlagUid@libmedia@UModSys@@I@tl@5@HW46785@@Z 00401860 f i umodsys_lib_libmedia:umodsys.mod.media.std.obj
 0001:00000860       ?set_flag@RLibraryObjFilter@std@media@modules@UModSys@@UAE?AW4eStates@?$TFlags4State@USMediaFlagUid@libmedia@UModSys@@I@tl@5@HW46785@@Z 00401860 f i umodsys_lib_libmedia:umodsys.mod.media.std.obj
 0001:00000860       ?set_flag@RLibraryBinTree@std@media@modules@UModSys@@UAE?AW4eStates@?$TFlags4State@USMediaFlagUid@libmedia@UModSys@@I@tl@5@HW46785@@Z 00401860 f i umodsys_lib_libmedia:umodsys.mod.media.std.obj
 0001:00000860       ?set_flag@RLibraryBinCache@std@media@modules@UModSys@@UAE?AW4eStates@?$TFlags4State@USMediaFlagUid@libmedia@UModSys@@I@tl@5@HW46785@@Z 00401860 f i umodsys_lib_libmedia:umodsys.mod.media.std.obj
 0001:00000890       ?bin_reader@RLibraryBinTree@std@media@modules@UModSys@@UAE?AU?$TRefObject@UIStreamReader@libmedia@UModSys@@U?$TRefObjectFunc@UIStreamReader@libmedia@UModSys@@@tl@3@@tl@5@ABU?$TString@U?$TSCoreConst@D@su@tl@UModSys@@U?$TComparerBinaryHash@D@234@@75@ABUSFlags@libmedia@5@@Z 00401890 f i umodsys_lib_libmedia:umodsys.mod.media.std.obj
 0001:00000a00       ?bin_writer@RLibraryBinTree@std@media@modules@UModSys@@UAE?AU?$TRefObject@UIStreamWriter@libmedia@UModSys@@U?$TRefObjectFunc@UIStreamWriter@libmedia@UModSys@@@tl@3@@tl@5@ABU?$TString@U?$TSCoreConst@D@su@tl@UModSys@@U?$TComparerBinaryHash@D@234@@75@ABUSFlags@libmedia@5@@Z 00401a00 f i umodsys_lib_libmedia:umodsys.mod.media.std.obj
 0001:00000b70       ?bin_load@RLibraryBinTree@std@media@modules@UModSys@@UAE_NABU?$TString@U?$TSCoreConst@D@su@tl@UModSys@@U?$TComparerBinaryHash@D@234@@tl@5@AAUSCMemShared@core@5@ABUSFlags@libmedia@5@@Z 00401b70 f i umodsys_lib_libmedia:umodsys.mod.media.std.obj
 0001:00000c80       ?bin_save@RLibraryBinTree@std@media@modules@UModSys@@UAE_NABU?$TString@U?$TSCoreConst@D@su@tl@UModSys@@U?$TComparerBinaryHash@D@234@@tl@5@ABUSCMem@core@5@ABUSFlags@libmedia@5@@Z 00401c80 f i umodsys_lib_libmedia:umodsys.mod.media.std.obj
 0001:00000d80       ?mount_get@RLibraryBinTree@std@media@modules@UModSys@@UBE?AUSPoint@ILibraryBinTree@libmedia@5@ABUSId@785@@Z 00401d80 f i umodsys_lib_libmedia:umodsys.mod.media.std.obj
 0001:00000de0       ?mount_add@RLibraryBinTree@std@media@modules@UModSys@@UAE_NABUSId@ILibraryBinTree@libmedia@5@ABUSPoint@785@@Z 00401de0 f i umodsys_lib_libmedia:umodsys.mod.media.std.obj
 0001:00000f60       ?mount_remove@RLibraryBinTree@std@media@modules@UModSys@@UAE_NABUSId@ILibraryBinTree@libmedia@5@@Z 00401f60 f i umodsys_lib_libmedia:umodsys.mod.media.std.obj
 0001:00000fa0       ?mount_clear@RLibraryBinTree@std@media@modules@UModSys@@UAE_NXZ 00401fa0 f i umodsys_lib_libmedia:umodsys.mod.media.std.obj
 0001:00000fd0       ??_ERLibraryBinTree@std@media@modules@UModSys@@UAEPAXI@Z 00401fd0 f i  CIL library: CIL module
 0001:00000fd0       ??_GRLibraryBinTree@std@media@modules@UModSys@@UAEPAXI@Z 00401fd0 f i umodsys_lib_libmedia:umodsys.mod.media.std.obj
 0001:00000ff0       ?root_get_interface_info@RLibraryLayered@std@media@modules@UModSys@@UBEABUSUniquePointerInfo@core@5@XZ 00401ff0 f i umodsys_lib_libmedia:umodsys.mod.media.std.obj
 0001:00001000       ?root_get_interface_type@RLibraryLayered@std@media@modules@UModSys@@UBEPBUSUniquePointerInfo@core@5@XZ 00402000 f i umodsys_lib_libmedia:umodsys.mod.media.std.obj
 0001:00001010       ?root_get_other_interface@RLibraryLayered@std@media@modules@UModSys@@UBEPBUIRoot@core@5@PBUSUniquePointerInfo@75@@Z 00402010 f i umodsys_lib_libmedia:umodsys.mod.media.std.obj
 0001:00001010       ?root_get_other_interface@RLibraryLayered@std@media@modules@UModSys@@UAEPAUIRoot@core@5@PBUSUniquePointerInfo@75@@Z 00402010 f i umodsys_lib_libmedia:umodsys.mod.media.std.obj
 0001:00001050       ?root_is_interface_supported@RLibraryLayered@std@media@modules@UModSys@@UBE_NPBUSUniquePointerInfo@core@5@@Z 00402050 f i umodsys_lib_libmedia:umodsys.mod.media.std.obj
 0001:00001090       ?ref_remove@RMediaFilter@images_std@media@modules@UModSys@@UBEXXZ 00402090 f i umodsys_lib_libmedia:umodsys.mod.media.images_std.obj
 0001:00001090       ?ref_remove@RLibraryBinTree@std@media@modules@UModSys@@UBEXXZ 00402090 f i umodsys_lib_libmedia:umodsys.mod.media.std.obj
 0001:00001090       ?ref_remove@RLibraryLayered@std@media@modules@UModSys@@UBEXXZ 00402090 f i umodsys_lib_libmedia:umodsys.mod.media.std.obj
 0001:00001090       ?ref_remove@RLibraryBinCache@std@media@modules@UModSys@@UBEXXZ 00402090 f i umodsys_lib_libmedia:umodsys.mod.media.std.obj
 0001:00001090       ?ref_remove@RLibraryObjCache@std@media@modules@UModSys@@UBEXXZ 00402090 f i umodsys_lib_libmedia:umodsys.mod.media.std.obj
 0001:00001090       ?ref_remove@RDataArchiver_OsDir@stdio@media@modules@UModSys@@UBEXXZ 00402090 f i umodsys_lib_libmedia:umodsys.mod.media.stdio.obj
 0001:00001090       ?ref_remove@RLibraryObjFilter@std@media@modules@UModSys@@UBEXXZ 00402090 f i umodsys_lib_libmedia:umodsys.mod.media.std.obj
 0001:000010a0       ??4SLayerX@RLibraryLayered@std@media@modules@UModSys@@QAEXABUSLayer@ILibraryLayered@libmedia@5@@Z 004020a0 f i umodsys_lib_libmedia:umodsys.mod.media.std.obj
 0001:00001130       ??0RLibraryLayered@std@media@modules@UModSys@@QAE@PAUIModObject@base@4@ABUSParameters@core@4@U?$TFlags4State@USMediaFlagUid@libmedia@UModSys@@I@tl@4@@Z 00402130 f i umodsys_lib_libmedia:umodsys.mod.media.std.obj
 0001:000011c0       ??1RLibraryLayered@std@media@modules@UModSys@@UAE@XZ 004021c0 f i umodsys_lib_libmedia:umodsys.mod.media.std.obj
 0001:00001220       ?get_flag@RLibraryLayered@std@media@modules@UModSys@@UBE?AW4eStates@?$TFlags4State@USMediaFlagUid@libmedia@UModSys@@I@tl@5@H@Z 00402220 f i umodsys_lib_libmedia:umodsys.mod.media.std.obj
 0001:00001240       ?get_flags_auto@RLibraryLayered@std@media@modules@UModSys@@UBE?AU?$TFlags4State@USMediaFlagUid@libmedia@UModSys@@I@tl@5@XZ 00402240 f i umodsys_lib_libmedia:umodsys.mod.media.std.obj
 0001:00001250       ?set_flag@RLibraryLayered@std@media@modules@UModSys@@UAE?AW4eStates@?$TFlags4State@USMediaFlagUid@libmedia@UModSys@@I@tl@5@HW46785@@Z 00402250 f i umodsys_lib_libmedia:umodsys.mod.media.std.obj
 0001:00001280       ?bin_reader@RLibraryLayered@std@media@modules@UModSys@@UAE?AU?$TRefObject@UIStreamReader@libmedia@UModSys@@U?$TRefObjectFunc@UIStreamReader@libmedia@UModSys@@@tl@3@@tl@5@ABU?$TString@U?$TSCoreConst@D@su@tl@UModSys@@U?$TComparerBinaryHash@D@234@@75@ABUSFlags@libmedia@5@@Z 00402280 f i umodsys_lib_libmedia:umodsys.mod.media.std.obj
 0001:00001380       ?bin_writer@RLibraryLayered@std@media@modules@UModSys@@UAE?AU?$TRefObject@UIStreamWriter@libmedia@UModSys@@U?$TRefObjectFunc@UIStreamWriter@libmedia@UModSys@@@tl@3@@tl@5@ABU?$TString@U?$TSCoreConst@D@su@tl@UModSys@@U?$TComparerBinaryHash@D@234@@75@ABUSFlags@libmedia@5@@Z 00402380 f i umodsys_lib_libmedia:umodsys.mod.media.std.obj
 0001:00001480       ?bin_load@RLibraryLayered@std@media@modules@UModSys@@UAE_NABU?$TString@U?$TSCoreConst@D@su@tl@UModSys@@U?$TComparerBinaryHash@D@234@@tl@5@AAUSCMemShared@core@5@ABUSFlags@libmedia@5@@Z 00402480 f i umodsys_lib_libmedia:umodsys.mod.media.std.obj
 0001:00001600       ?bin_save@RLibraryLayered@std@media@modules@UModSys@@UAE_NABU?$TString@U?$TSCoreConst@D@su@tl@UModSys@@U?$TComparerBinaryHash@D@234@@tl@5@ABUSCMem@core@5@ABUSFlags@libmedia@5@@Z 00402600 f i umodsys_lib_libmedia:umodsys.mod.media.std.obj
 0001:000017c0       ?bin_info@RLibraryLayered@std@media@modules@UModSys@@UAE_NABU?$TString@U?$TSCoreConst@D@su@tl@UModSys@@U?$TComparerBinaryHash@D@234@@tl@5@AAUSFileInfo@libmedia@5@ABUSFlags@95@@Z 004027c0 f i umodsys_lib_libmedia:umodsys.mod.media.std.obj
 0001:00001850       ?bin_info@RLibraryLayered@std@media@modules@UModSys@@UAE_NABU?$TString@U?$TSCoreConst@D@su@tl@UModSys@@U?$TComparerBinaryHash@D@234@@tl@5@AAU?$TIStackSocket@USFileInfo@libmedia@UModSys@@@75@ABUSFlags@libmedia@5@@Z 00402850 f i umodsys_lib_libmedia:umodsys.mod.media.std.obj
 0001:000018e0       ?bin_get@RLibraryLayered@std@media@modules@UModSys@@UAE_NABU?$TString@U?$TSCoreConst@D@su@tl@UModSys@@U?$TComparerBinaryHash@D@234@@tl@5@AAUSCMemShared@core@5@_N@Z 004028e0 f i umodsys_lib_libmedia:umodsys.mod.media.std.obj
 0001:00001940       ?bin_put@RLibraryLayered@std@media@modules@UModSys@@UAE_NABU?$TString@U?$TSCoreConst@D@su@tl@UModSys@@U?$TComparerBinaryHash@D@234@@tl@5@PBUSCMemShared@core@5@@Z 00402940 f i umodsys_lib_libmedia:umodsys.mod.media.std.obj
 0001:000019a0       ?obj_fget@RLibraryLayered@std@media@modules@UModSys@@UAE_NABUSInfo@IBinObjFilter@libmedia@5@AAU?$TRefObject@UIRefObject@core@UModSys@@U?$TRefObjectFunc@UIRefObject@core@UModSys@@@tl@3@@tl@5@@Z 004029a0 f i umodsys_lib_libmedia:umodsys.mod.media.std.obj
 0001:00001a00       ?obj_fload@RLibraryLayered@std@media@modules@UModSys@@UAE_NABUSInfo@IBinObjFilter@libmedia@5@PAUIRefObject@core@5@@Z 00402a00 f i umodsys_lib_libmedia:umodsys.mod.media.std.obj
 0001:00001a60       ?obj_fsave@RLibraryLayered@std@media@modules@UModSys@@UAE_NAAUSInfo@IBinObjFilter@libmedia@5@PBUIRefObject@core@5@@Z 00402a60 f i umodsys_lib_libmedia:umodsys.mod.media.std.obj
 0001:00001ac0       ?obj_cget@RLibraryLayered@std@media@modules@UModSys@@UAE_NABU?$TString@U?$TSCoreConst@D@su@tl@UModSys@@U?$TComparerBinaryHash@D@234@@tl@5@AAU?$TRefObject@UIRefObject@core@UModSys@@U?$TRefObjectFunc@UIRefObject@core@UModSys@@@tl@3@@75@_N@Z 00402ac0 f i umodsys_lib_libmedia:umodsys.mod.media.std.obj
 0001:00001b20       ?obj_cput@RLibraryLayered@std@media@modules@UModSys@@UAE_NABU?$TString@U?$TSCoreConst@D@su@tl@UModSys@@U?$TComparerBinaryHash@D@234@@tl@5@PAUIRefObject@core@5@@Z 00402b20 f i umodsys_lib_libmedia:umodsys.mod.media.std.obj
 0001:00001b80       ?obj_get@RLibraryLayered@std@media@modules@UModSys@@UAE_NABU?$TString@U?$TSCoreConst@D@su@tl@UModSys@@U?$TComparerBinaryHash@D@234@@tl@5@AAU?$TRefObject@UIRefObject@core@UModSys@@U?$TRefObjectFunc@UIRefObject@core@UModSys@@@tl@3@@75@ABUSObjOptions@ILibrary@libmedia@5@@Z 00402b80 f i umodsys_lib_libmedia:umodsys.mod.media.std.obj
 0001:00001df0       ?obj_load@RLibraryLayered@std@media@modules@UModSys@@UAE_NABU?$TString@U?$TSCoreConst@D@su@tl@UModSys@@U?$TComparerBinaryHash@D@234@@tl@5@PAUIRefObject@core@5@ABUSObjOptions@ILibrary@libmedia@5@@Z 00402df0 f i umodsys_lib_libmedia:umodsys.mod.media.std.obj
 0001:00001f50       ?obj_save@RLibraryLayered@std@media@modules@UModSys@@UAE_NABU?$TString@U?$TSCoreConst@D@su@tl@UModSys@@U?$TComparerBinaryHash@D@234@@tl@5@PBUIRefObject@core@5@ABUSObjOptions@ILibrary@libmedia@5@@Z 00402f50 f i umodsys_lib_libmedia:umodsys.mod.media.std.obj
 0001:000020d0       ?layer_count@RLibraryLayered@std@media@modules@UModSys@@UBEIABUSLayer@ILibraryLayered@libmedia@5@@Z 004030d0 f i umodsys_lib_libmedia:umodsys.mod.media.std.obj
 0001:000020e0       ?layer_get@RLibraryLayered@std@media@modules@UModSys@@UBE?AUSLayer@ILibraryLayered@libmedia@5@I@Z 004030e0 f i umodsys_lib_libmedia:umodsys.mod.media.std.obj
 0001:00002130       ?layer_find@RLibraryLayered@std@media@modules@UModSys@@UBEIABU?$TString@U?$TSCoreConst@D@su@tl@UModSys@@U?$TComparerBinaryHash@D@234@@tl@5@I@Z 00403130 f i umodsys_lib_libmedia:umodsys.mod.media.std.obj
 0001:000021c0       ?layer_insert@RLibraryLayered@std@media@modules@UModSys@@UAE_NABUSLayer@ILibraryLayered@libmedia@5@I@Z 004031c0 f i umodsys_lib_libmedia:umodsys.mod.media.std.obj
 0001:00002200       ?layer_remove@RLibraryLayered@std@media@modules@UModSys@@UAE_NI@Z 00403200 f i umodsys_lib_libmedia:umodsys.mod.media.std.obj
 0001:00002250       ?layer_clear@RLibraryLayered@std@media@modules@UModSys@@UAE_NXZ 00403250 f i umodsys_lib_libmedia:umodsys.mod.media.std.obj
 0001:00002260       ??_ERLibraryLayered@std@media@modules@UModSys@@UAEPAXI@Z 00403260 f i  CIL library: CIL module
 0001:00002260       ??_GRLibraryLayered@std@media@modules@UModSys@@UAEPAXI@Z 00403260 f i umodsys_lib_libmedia:umodsys.mod.media.std.obj
 0001:00002280       ?root_get_interface_info@RLibraryObjCache@std@media@modules@UModSys@@UBEABUSUniquePointerInfo@core@5@XZ 00403280 f i umodsys_lib_libmedia:umodsys.mod.media.std.obj
 0001:00002290       ?root_get_interface_type@RLibraryObjCache@std@media@modules@UModSys@@UBEPBUSUniquePointerInfo@core@5@XZ 00403290 f i umodsys_lib_libmedia:umodsys.mod.media.std.obj
 0001:000022a0       ?root_get_other_interface@RLibraryObjCache@std@media@modules@UModSys@@UBEPBUIRoot@core@5@PBUSUniquePointerInfo@75@@Z 004032a0 f i umodsys_lib_libmedia:umodsys.mod.media.std.obj
 0001:000022a0       ?root_get_other_interface@RLibraryObjCache@std@media@modules@UModSys@@UAEPAUIRoot@core@5@PBUSUniquePointerInfo@75@@Z 004032a0 f i umodsys_lib_libmedia:umodsys.mod.media.std.obj
 0001:000022e0       ?root_is_interface_supported@RLibraryObjCache@std@media@modules@UModSys@@UBE_NPBUSUniquePointerInfo@core@5@@Z 004032e0 f i umodsys_lib_libmedia:umodsys.mod.media.std.obj
 0001:00002320       ?ref_add@RLibraryBinTree@std@media@modules@UModSys@@UBEXXZ 00403320 f i umodsys_lib_libmedia:umodsys.mod.media.std.obj
 0001:00002320       ?ref_add@RDataArchiver_OsDir@stdio@media@modules@UModSys@@UBEXXZ 00403320 f i umodsys_lib_libmedia:umodsys.mod.media.stdio.obj
 0001:00002320       ?ref_add@RLibraryObjCache@std@media@modules@UModSys@@UBEXXZ 00403320 f i umodsys_lib_libmedia:umodsys.mod.media.std.obj
 0001:00002320       ?ref_add@RMediaFilter@images_std@media@modules@UModSys@@UBEXXZ 00403320 f i umodsys_lib_libmedia:umodsys.mod.media.images_std.obj
 0001:00002320       ?ref_add@RLibraryBinCache@std@media@modules@UModSys@@UBEXXZ 00403320 f i umodsys_lib_libmedia:umodsys.mod.media.std.obj
 0001:00002320       ?ref_add@RLibraryLayered@std@media@modules@UModSys@@UBEXXZ 00403320 f i umodsys_lib_libmedia:umodsys.mod.media.std.obj
 0001:00002320       ?ref_add@RLibraryObjFilter@std@media@modules@UModSys@@UBEXXZ 00403320 f i umodsys_lib_libmedia:umodsys.mod.media.std.obj
 0001:00002330       ?ref_weak@RMediaFilter@images_std@media@modules@UModSys@@UBE_NAAUWeakPointer@IRefObject@core@5@@Z 00403330 f i umodsys_lib_libmedia:umodsys.mod.media.images_std.obj
 0001:00002330       ?ref_weak@RLibraryBinTree@std@media@modules@UModSys@@UBE_NAAUWeakPointer@IRefObject@core@5@@Z 00403330 f i umodsys_lib_libmedia:umodsys.mod.media.std.obj
 0001:00002330       ?ref_weak@RLibraryLayered@std@media@modules@UModSys@@UBE_NAAUWeakPointer@IRefObject@core@5@@Z 00403330 f i umodsys_lib_libmedia:umodsys.mod.media.std.obj
 0001:00002330       ?ref_weak@RLibraryObjCache@std@media@modules@UModSys@@UBE_NAAUWeakPointer@IRefObject@core@5@@Z 00403330 f i umodsys_lib_libmedia:umodsys.mod.media.std.obj
 0001:00002330       ?ref_weak@RLibraryObjFilter@std@media@modules@UModSys@@UBE_NAAUWeakPointer@IRefObject@core@5@@Z 00403330 f i umodsys_lib_libmedia:umodsys.mod.media.std.obj
 0001:00002330       ?ref_weak@RLibraryBinCache@std@media@modules@UModSys@@UBE_NAAUWeakPointer@IRefObject@core@5@@Z 00403330 f i umodsys_lib_libmedia:umodsys.mod.media.std.obj
 0001:00002330       ?ref_weak@RDataArchiver_OsDir@stdio@media@modules@UModSys@@UBE_NAAUWeakPointer@IRefObject@core@5@@Z 00403330 f i umodsys_lib_libmedia:umodsys.mod.media.stdio.obj
 0001:00002350       ??0RLibraryObjCache@std@media@modules@UModSys@@QAE@PAUIModObject@base@4@ABUSParameters@core@4@U?$TFlags4State@USMediaFlagUid@libmedia@UModSys@@I@tl@4@@Z 00403350 f i umodsys_lib_libmedia:umodsys.mod.media.std.obj
 0001:000023d0       ??1RLibraryObjCache@std@media@modules@UModSys@@UAE@XZ 004033d0 f i umodsys_lib_libmedia:umodsys.mod.media.std.obj
 0001:00002440       ?get_flags_auto@RLibraryObjCache@std@media@modules@UModSys@@UBE?AU?$TFlags4State@USMediaFlagUid@libmedia@UModSys@@I@tl@5@XZ 00403440 f i umodsys_lib_libmedia:umodsys.mod.media.std.obj
 0001:00002450       ?bin_writer@RLibraryObjCache@std@media@modules@UModSys@@UAE?AU?$TRefObject@UIStreamWriter@libmedia@UModSys@@U?$TRefObjectFunc@UIStreamWriter@libmedia@UModSys@@@tl@3@@tl@5@ABU?$TString@U?$TSCoreConst@D@su@tl@UModSys@@U?$TComparerBinaryHash@D@234@@75@ABUSFlags@libmedia@5@@Z 00403450 f i umodsys_lib_libmedia:umodsys.mod.media.std.obj
 0001:00002450       ?bin_reader@RLibraryObjCache@std@media@modules@UModSys@@UAE?AU?$TRefObject@UIStreamReader@libmedia@UModSys@@U?$TRefObjectFunc@UIStreamReader@libmedia@UModSys@@@tl@3@@tl@5@ABU?$TString@U?$TSCoreConst@D@su@tl@UModSys@@U?$TComparerBinaryHash@D@234@@75@ABUSFlags@libmedia@5@@Z 00403450 f i umodsys_lib_libmedia:umodsys.mod.media.std.obj
 0001:00002450       ?bin_writer@RLibraryBinCache@std@media@modules@UModSys@@UAE?AU?$TRefObject@UIStreamWriter@libmedia@UModSys@@U?$TRefObjectFunc@UIStreamWriter@libmedia@UModSys@@@tl@3@@tl@5@ABU?$TString@U?$TSCoreConst@D@su@tl@UModSys@@U?$TComparerBinaryHash@D@234@@75@ABUSFlags@libmedia@5@@Z 00403450 f i umodsys_lib_libmedia:umodsys.mod.media.std.obj
 0001:00002450       ?bin_writer@RLibraryObjFilter@std@media@modules@UModSys@@UAE?AU?$TRefObject@UIStreamWriter@libmedia@UModSys@@U?$TRefObjectFunc@UIStreamWriter@libmedia@UModSys@@@tl@3@@tl@5@ABU?$TString@U?$TSCoreConst@D@su@tl@UModSys@@U?$TComparerBinaryHash@D@234@@75@ABUSFlags@libmedia@5@@Z 00403450 f i umodsys_lib_libmedia:umodsys.mod.media.std.obj
 0001:00002450       ?bin_reader@RLibraryObjFilter@std@media@modules@UModSys@@UAE?AU?$TRefObject@UIStreamReader@libmedia@UModSys@@U?$TRefObjectFunc@UIStreamReader@libmedia@UModSys@@@tl@3@@tl@5@ABU?$TString@U?$TSCoreConst@D@su@tl@UModSys@@U?$TComparerBinaryHash@D@234@@75@ABUSFlags@libmedia@5@@Z 00403450 f i umodsys_lib_libmedia:umodsys.mod.media.std.obj
 0001:00002450       ?bin_reader@RLibraryBinCache@std@media@modules@UModSys@@UAE?AU?$TRefObject@UIStreamReader@libmedia@UModSys@@U?$TRefObjectFunc@UIStreamReader@libmedia@UModSys@@@tl@3@@tl@5@ABU?$TString@U?$TSCoreConst@D@su@tl@UModSys@@U?$TComparerBinaryHash@D@234@@75@ABUSFlags@libmedia@5@@Z 00403450 f i umodsys_lib_libmedia:umodsys.mod.media.std.obj
 0001:00002470       ?bin_get@RLibraryBinTree@std@media@modules@UModSys@@UAE_NABU?$TString@U?$TSCoreConst@D@su@tl@UModSys@@U?$TComparerBinaryHash@D@234@@tl@5@AAUSCMemShared@core@5@_N@Z 00403470 f i umodsys_lib_libmedia:umodsys.mod.media.std.obj
 0001:00002470       ?obj_cget@RLibraryObjFilter@std@media@modules@UModSys@@UAE_NABU?$TString@U?$TSCoreConst@D@su@tl@UModSys@@U?$TComparerBinaryHash@D@234@@tl@5@AAU?$TRefObject@UIRefObject@core@UModSys@@U?$TRefObjectFunc@UIRefObject@core@UModSys@@@tl@3@@75@_N@Z 00403470 f i umodsys_lib_libmedia:umodsys.mod.media.std.obj
 0001:00002470       ?obj_load@RLibraryObjCache@std@media@modules@UModSys@@UAE_NABU?$TString@U?$TSCoreConst@D@su@tl@UModSys@@U?$TComparerBinaryHash@D@234@@tl@5@PAUIRefObject@core@5@ABUSObjOptions@ILibrary@libmedia@5@@Z 00403470 f i umodsys_lib_libmedia:umodsys.mod.media.std.obj
 0001:00002470       ?obj_load@RLibraryBinCache@std@media@modules@UModSys@@UAE_NABU?$TString@U?$TSCoreConst@D@su@tl@UModSys@@U?$TComparerBinaryHash@D@234@@tl@5@PAUIRefObject@core@5@ABUSObjOptions@ILibrary@libmedia@5@@Z 00403470 f i umodsys_lib_libmedia:umodsys.mod.media.std.obj
 0001:00002470       ?bin_info@RLibraryBinTree@std@media@modules@UModSys@@UAE_NABU?$TString@U?$TSCoreConst@D@su@tl@UModSys@@U?$TComparerBinaryHash@D@234@@tl@5@AAUSFileInfo@libmedia@5@ABUSFlags@95@@Z 00403470 f i umodsys_lib_libmedia:umodsys.mod.media.std.obj
 0001:00002470       ?obj_cget@RLibraryBinTree@std@media@modules@UModSys@@UAE_NABU?$TString@U?$TSCoreConst@D@su@tl@UModSys@@U?$TComparerBinaryHash@D@234@@tl@5@AAU?$TRefObject@UIRefObject@core@UModSys@@U?$TRefObjectFunc@UIRefObject@core@UModSys@@@tl@3@@75@_N@Z 00403470 f i umodsys_lib_libmedia:umodsys.mod.media.std.obj
 0001:00002470       ?bin_load@RLibraryObjFilter@std@media@modules@UModSys@@UAE_NABU?$TString@U?$TSCoreConst@D@su@tl@UModSys@@U?$TComparerBinaryHash@D@234@@tl@5@AAUSCMemShared@core@5@ABUSFlags@libmedia@5@@Z 00403470 f i umodsys_lib_libmedia:umodsys.mod.media.std.obj
 0001:00002470       ?bin_save@RLibraryBinCache@std@media@modules@UModSys@@UAE_NABU?$TString@U?$TSCoreConst@D@su@tl@UModSys@@U?$TComparerBinaryHash@D@234@@tl@5@ABUSCMem@core@5@ABUSFlags@libmedia@5@@Z 00403470 f i umodsys_lib_libmedia:umodsys.mod.media.std.obj
 0001:00002470       ?obj_save@RLibraryBinTree@std@media@modules@UModSys@@UAE_NABU?$TString@U?$TSCoreConst@D@su@tl@UModSys@@U?$TComparerBinaryHash@D@234@@tl@5@PBUIRefObject@core@5@ABUSObjOptions@ILibrary@libmedia@5@@Z 00403470 f i umodsys_lib_libmedia:umodsys.mod.media.std.obj
 0001:00002470       ?bin_info@RLibraryBinTree@std@media@modules@UModSys@@UAE_NABU?$TString@U?$TSCoreConst@D@su@tl@UModSys@@U?$TComparerBinaryHash@D@234@@tl@5@AAU?$TIStackSocket@USFileInfo@libmedia@UModSys@@@75@ABUSFlags@libmedia@5@@Z 00403470 f i umodsys_lib_libmedia:umodsys.mod.media.std.obj
 0001:00002470       ?bin_save@RLibraryObjFilter@std@media@modules@UModSys@@UAE_NABU?$TString@U?$TSCoreConst@D@su@tl@UModSys@@U?$TComparerBinaryHash@D@234@@tl@5@ABUSCMem@core@5@ABUSFlags@libmedia@5@@Z 00403470 f i umodsys_lib_libmedia:umodsys.mod.media.std.obj
 0001:00002470       ?obj_save@RLibraryObjFilter@std@media@modules@UModSys@@UAE_NABU?$TString@U?$TSCoreConst@D@su@tl@UModSys@@U?$TComparerBinaryHash@D@234@@tl@5@PBUIRefObject@core@5@ABUSObjOptions@ILibrary@libmedia@5@@Z 00403470 f i umodsys_lib_libmedia:umodsys.mod.media.std.obj
 0001:00002470       ?bin_save@RLibraryObjCache@std@media@modules@UModSys@@UAE_NABU?$TString@U?$TSCoreConst@D@su@tl@UModSys@@U?$TComparerBinaryHash@D@234@@tl@5@ABUSCMem@core@5@ABUSFlags@libmedia@5@@Z 00403470 f i umodsys_lib_libmedia:umodsys.mod.media.std.obj
 0001:00002470       ?obj_get@RLibraryObjFilter@std@media@modules@UModSys@@UAE_NABU?$TString@U?$TSCoreConst@D@su@tl@UModSys@@U?$TComparerBinaryHash@D@234@@tl@5@AAU?$TRefObject@UIRefObject@core@UModSys@@U?$TRefObjectFunc@UIRefObject@core@UModSys@@@tl@3@@75@ABUSObjOptions@ILibrary@libmedia@5@@Z 00403470 f i umodsys_lib_libmedia:umodsys.mod.media.std.obj
 0001:00002470       ?bin_info@RLibraryBinCache@std@media@modules@UModSys@@UAE_NABU?$TString@U?$TSCoreConst@D@su@tl@UModSys@@U?$TComparerBinaryHash@D@234@@tl@5@AAUSFileInfo@libmedia@5@ABUSFlags@95@@Z 00403470 f i umodsys_lib_libmedia:umodsys.mod.media.std.obj
 0001:00002470       ?obj_cget@RLibraryBinCache@std@media@modules@UModSys@@UAE_NABU?$TString@U?$TSCoreConst@D@su@tl@UModSys@@U?$TComparerBinaryHash@D@234@@tl@5@AAU?$TRefObject@UIRefObject@core@UModSys@@U?$TRefObjectFunc@UIRefObject@core@UModSys@@@tl@3@@75@_N@Z 00403470 f i umodsys_lib_libmedia:umodsys.mod.media.std.obj
 0001:00002470       ?bin_info@RLibraryBinCache@std@media@modules@UModSys@@UAE_NABU?$TString@U?$TSCoreConst@D@su@tl@UModSys@@U?$TComparerBinaryHash@D@234@@tl@5@AAU?$TIStackSocket@USFileInfo@libmedia@UModSys@@@75@ABUSFlags@libmedia@5@@Z 00403470 f i umodsys_lib_libmedia:umodsys.mod.media.std.obj
 0001:00002470       ?bin_info@RLibraryObjCache@std@media@modules@UModSys@@UAE_NABU?$TString@U?$TSCoreConst@D@su@tl@UModSys@@U?$TComparerBinaryHash@D@234@@tl@5@AAU?$TIStackSocket@USFileInfo@libmedia@UModSys@@@75@ABUSFlags@libmedia@5@@Z 00403470 f i umodsys_lib_libmedia:umodsys.mod.media.std.obj
 0001:00002470       ?obj_get@RLibraryBinTree@std@media@modules@UModSys@@UAE_NABU?$TString@U?$TSCoreConst@D@su@tl@UModSys@@U?$TComparerBinaryHash@D@234@@tl@5@AAU?$TRefObject@UIRefObject@core@UModSys@@U?$TRefObjectFunc@UIRefObject@core@UModSys@@@tl@3@@75@ABUSObjOptions@ILibrary@libmedia@5@@Z 00403470 f i umodsys_lib_libmedia:umodsys.mod.media.std.obj
 0001:00002470       ?obj_get@RLibraryBinCache@std@media@modules@UModSys@@UAE_NABU?$TString@U?$TSCoreConst@D@su@tl@UModSys@@U?$TComparerBinaryHash@D@234@@tl@5@AAU?$TRefObject@UIRefObject@core@UModSys@@U?$TRefObjectFunc@UIRefObject@core@UModSys@@@tl@3@@75@ABUSObjOptions@ILibrary@libmedia@5@@Z 00403470 f i umodsys_lib_libmedia:umodsys.mod.media.std.obj
 0001:00002470       ?bin_get@RLibraryObjFilter@std@media@modules@UModSys@@UAE_NABU?$TString@U?$TSCoreConst@D@su@tl@UModSys@@U?$TComparerBinaryHash@D@234@@tl@5@AAUSCMemShared@core@5@_N@Z 00403470 f i umodsys_lib_libmedia:umodsys.mod.media.std.obj
 0001:00002470       ?bin_info@RLibraryObjCache@std@media@modules@UModSys@@UAE_NABU?$TString@U?$TSCoreConst@D@su@tl@UModSys@@U?$TComparerBinaryHash@D@234@@tl@5@AAUSFileInfo@libmedia@5@ABUSFlags@95@@Z 00403470 f i umodsys_lib_libmedia:umodsys.mod.media.std.obj
 0001:00002470       ?obj_save@RLibraryBinCache@std@media@modules@UModSys@@UAE_NABU?$TString@U?$TSCoreConst@D@su@tl@UModSys@@U?$TComparerBinaryHash@D@234@@tl@5@PBUIRefObject@core@5@ABUSObjOptions@ILibrary@libmedia@5@@Z 00403470 f i umodsys_lib_libmedia:umodsys.mod.media.std.obj
 0001:00002470       ?bin_info@RLibraryObjFilter@std@media@modules@UModSys@@UAE_NABU?$TString@U?$TSCoreConst@D@su@tl@UModSys@@U?$TComparerBinaryHash@D@234@@tl@5@AAUSFileInfo@libmedia@5@ABUSFlags@95@@Z 00403470 f i umodsys_lib_libmedia:umodsys.mod.media.std.obj
 0001:00002470       ?bin_load@RLibraryObjCache@std@media@modules@UModSys@@UAE_NABU?$TString@U?$TSCoreConst@D@su@tl@UModSys@@U?$TComparerBinaryHash@D@234@@tl@5@AAUSCMemShared@core@5@ABUSFlags@libmedia@5@@Z 00403470 f i umodsys_lib_libmedia:umodsys.mod.media.std.obj
 0001:00002470       ?bin_get@RLibraryObjCache@std@media@modules@UModSys@@UAE_NABU?$TString@U?$TSCoreConst@D@su@tl@UModSys@@U?$TComparerBinaryHash@D@234@@tl@5@AAUSCMemShared@core@5@_N@Z 00403470 f i umodsys_lib_libmedia:umodsys.mod.media.std.obj
 0001:00002470       ?bin_info@RLibraryObjFilter@std@media@modules@UModSys@@UAE_NABU?$TString@U?$TSCoreConst@D@su@tl@UModSys@@U?$TComparerBinaryHash@D@234@@tl@5@AAU?$TIStackSocket@USFileInfo@libmedia@UModSys@@@75@ABUSFlags@libmedia@5@@Z 00403470 f i umodsys_lib_libmedia:umodsys.mod.media.std.obj
 0001:00002470       ?obj_save@RLibraryObjCache@std@media@modules@UModSys@@UAE_NABU?$TString@U?$TSCoreConst@D@su@tl@UModSys@@U?$TComparerBinaryHash@D@234@@tl@5@PBUIRefObject@core@5@ABUSObjOptions@ILibrary@libmedia@5@@Z 00403470 f i umodsys_lib_libmedia:umodsys.mod.media.std.obj
 0001:00002470       ?obj_load@RLibraryObjFilter@std@media@modules@UModSys@@UAE_NABU?$TString@U?$TSCoreConst@D@su@tl@UModSys@@U?$TComparerBinaryHash@D@234@@tl@5@PAUIRefObject@core@5@ABUSObjOptions@ILibrary@libmedia@5@@Z 00403470 f i umodsys_lib_libmedia:umodsys.mod.media.std.obj
 0001:00002470       ?obj_load@RLibraryBinTree@std@media@modules@UModSys@@UAE_NABU?$TString@U?$TSCoreConst@D@su@tl@UModSys@@U?$TComparerBinaryHash@D@234@@tl@5@PAUIRefObject@core@5@ABUSObjOptions@ILibrary@libmedia@5@@Z 00403470 f i umodsys_lib_libmedia:umodsys.mod.media.std.obj
 0001:00002480       ?obj_fload@RLibraryBinCache@std@media@modules@UModSys@@UAE_NABUSInfo@IBinObjFilter@libmedia@5@PAUIRefObject@core@5@@Z 00403480 f i umodsys_lib_libmedia:umodsys.mod.media.std.obj
 0001:00002480       ?obj_fsave@RLibraryBinCache@std@media@modules@UModSys@@UAE_NAAUSInfo@IBinObjFilter@libmedia@5@PBUIRefObject@core@5@@Z 00403480 f i umodsys_lib_libmedia:umodsys.mod.media.std.obj
 0001:00002480       ?obj_cput@RLibraryBinTree@std@media@modules@UModSys@@UAE_NABU?$TString@U?$TSCoreConst@D@su@tl@UModSys@@U?$TComparerBinaryHash@D@234@@tl@5@PAUIRefObject@core@5@@Z 00403480 f i umodsys_lib_libmedia:umodsys.mod.media.std.obj
 0001:00002480       ?obj_fload@RLibraryBinTree@std@media@modules@UModSys@@UAE_NABUSInfo@IBinObjFilter@libmedia@5@PAUIRefObject@core@5@@Z 00403480 f i umodsys_lib_libmedia:umodsys.mod.media.std.obj
 0001:00002480       ?bin_put@RLibraryBinTree@std@media@modules@UModSys@@UAE_NABU?$TString@U?$TSCoreConst@D@su@tl@UModSys@@U?$TComparerBinaryHash@D@234@@tl@5@PBUSCMemShared@core@5@@Z 00403480 f i umodsys_lib_libmedia:umodsys.mod.media.std.obj
 0001:00002480       ?obj_fload@RLibraryObjCache@std@media@modules@UModSys@@UAE_NABUSInfo@IBinObjFilter@libmedia@5@PAUIRefObject@core@5@@Z 00403480 f i umodsys_lib_libmedia:umodsys.mod.media.std.obj
 0001:00002480       ?obj_cput@RLibraryBinCache@std@media@modules@UModSys@@UAE_NABU?$TString@U?$TSCoreConst@D@su@tl@UModSys@@U?$TComparerBinaryHash@D@234@@tl@5@PAUIRefObject@core@5@@Z 00403480 f i umodsys_lib_libmedia:umodsys.mod.media.std.obj
 0001:00002480       ?obj_fget@RLibraryObjCache@std@media@modules@UModSys@@UAE_NABUSInfo@IBinObjFilter@libmedia@5@AAU?$TRefObject@UIRefObject@core@UModSys@@U?$TRefObjectFunc@UIRefObject@core@UModSys@@@tl@3@@tl@5@@Z 00403480 f i umodsys_lib_libmedia:umodsys.mod.media.std.obj
 0001:00002480       ?obj_fget@RLibraryBinCache@std@media@modules@UModSys@@UAE_NABUSInfo@IBinObjFilter@libmedia@5@AAU?$TRefObject@UIRefObject@core@UModSys@@U?$TRefObjectFunc@UIRefObject@core@UModSys@@@tl@3@@tl@5@@Z 00403480 f i umodsys_lib_libmedia:umodsys.mod.media.std.obj
 0001:00002480       ?obj_fsave@RLibraryBinTree@std@media@modules@UModSys@@UAE_NAAUSInfo@IBinObjFilter@libmedia@5@PBUIRefObject@core@5@@Z 00403480 f i umodsys_lib_libmedia:umodsys.mod.media.std.obj
 0001:00002480       ?bin_put@RLibraryObjCache@std@media@modules@UModSys@@UAE_NABU?$TString@U?$TSCoreConst@D@su@tl@UModSys@@U?$TComparerBinaryHash@D@234@@tl@5@PBUSCMemShared@core@5@@Z 00403480 f i umodsys_lib_libmedia:umodsys.mod.media.std.obj
 0001:00002480       ?obj_fget@RLibraryBinTree@std@media@modules@UModSys@@UAE_NABUSInfo@IBinObjFilter@libmedia@5@AAU?$TRefObject@UIRefObject@core@UModSys@@U?$TRefObjectFunc@UIRefObject@core@UModSys@@@tl@3@@tl@5@@Z 00403480 f i umodsys_lib_libmedia:umodsys.mod.media.std.obj
 0001:00002480       ?obj_fsave@RLibraryObjCache@std@media@modules@UModSys@@UAE_NAAUSInfo@IBinObjFilter@libmedia@5@PBUIRefObject@core@5@@Z 00403480 f i umodsys_lib_libmedia:umodsys.mod.media.std.obj
 0001:00002480       ?obj_cput@RLibraryObjFilter@std@media@modules@UModSys@@UAE_NABU?$TString@U?$TSCoreConst@D@su@tl@UModSys@@U?$TComparerBinaryHash@D@234@@tl@5@PAUIRefObject@core@5@@Z 00403480 f i umodsys_lib_libmedia:umodsys.mod.media.std.obj
 0001:00002480       ?bin_put@RLibraryObjFilter@std@media@modules@UModSys@@UAE_NABU?$TString@U?$TSCoreConst@D@su@tl@UModSys@@U?$TComparerBinaryHash@D@234@@tl@5@PBUSCMemShared@core@5@@Z 00403480 f i umodsys_lib_libmedia:umodsys.mod.media.std.obj
 0001:00002490       ?bin_get@RLibraryBinCache@std@media@modules@UModSys@@UAE_NABU?$TString@U?$TSCoreConst@D@su@tl@UModSys@@U?$TComparerBinaryHash@D@234@@tl@5@AAUSCMemShared@core@5@_N@Z 00403490 f i umodsys_lib_libmedia:umodsys.mod.media.std.obj
 0001:00002490       ?obj_cget@RLibraryObjCache@std@media@modules@UModSys@@UAE_NABU?$TString@U?$TSCoreConst@D@su@tl@UModSys@@U?$TComparerBinaryHash@D@234@@tl@5@AAU?$TRefObject@UIRefObject@core@UModSys@@U?$TRefObjectFunc@UIRefObject@core@UModSys@@@tl@3@@75@_N@Z 00403490 f i umodsys_lib_libmedia:umodsys.mod.media.std.obj
 0001:000024d0       ?obj_cput@RLibraryObjCache@std@media@modules@UModSys@@UAE_NABU?$TString@U?$TSCoreConst@D@su@tl@UModSys@@U?$TComparerBinaryHash@D@234@@tl@5@PAUIRefObject@core@5@@Z 004034d0 f i umodsys_lib_libmedia:umodsys.mod.media.std.obj
 0001:000024e0       ?obj_get@RLibraryObjCache@std@media@modules@UModSys@@UAE_NABU?$TString@U?$TSCoreConst@D@su@tl@UModSys@@U?$TComparerBinaryHash@D@234@@tl@5@AAU?$TRefObject@UIRefObject@core@UModSys@@U?$TRefObjectFunc@UIRefObject@core@UModSys@@@tl@3@@75@ABUSObjOptions@ILibrary@libmedia@5@@Z 004034e0 f i umodsys_lib_libmedia:umodsys.mod.media.std.obj
 0001:000025c0       ?objcache_get@RLibraryObjCache@std@media@modules@UModSys@@UBE_NABU?$TString@U?$TSCoreConst@D@su@tl@UModSys@@U?$TComparerBinaryHash@D@234@@tl@5@PAU?$TRefObject@UIRefObject@core@UModSys@@U?$TRefObjectFunc@UIRefObject@core@UModSys@@@tl@3@@75@PA_N@Z 004035c0 f i umodsys_lib_libmedia:umodsys.mod.media.std.obj
 0001:00002640       ?objcache_add@RLibraryObjCache@std@media@modules@UModSys@@UAE_NABU?$TString@U?$TSCoreConst@D@su@tl@UModSys@@U?$TComparerBinaryHash@D@234@@tl@5@PAUIRefObject@core@5@@Z 00403640 f i umodsys_lib_libmedia:umodsys.mod.media.std.obj
 0001:000027b0       ?objcache_remove@RLibraryObjCache@std@media@modules@UModSys@@UAE_NABU?$TString@U?$TSCoreConst@D@su@tl@UModSys@@U?$TComparerBinaryHash@D@234@@tl@5@@Z 004037b0 f i umodsys_lib_libmedia:umodsys.mod.media.std.obj
 0001:000027f0       ?objcache_clear@RLibraryObjCache@std@media@modules@UModSys@@UAE_NXZ 004037f0 f i umodsys_lib_libmedia:umodsys.mod.media.std.obj
 0001:00002820       ??_ERLibraryObjCache@std@media@modules@UModSys@@UAEPAXI@Z 00403820 f i  CIL library: CIL module
 0001:00002820       ??_GRLibraryObjCache@std@media@modules@UModSys@@UAEPAXI@Z 00403820 f i umodsys_lib_libmedia:umodsys.mod.media.std.obj
 0001:00002840       ?root_get_interface_info@RLibraryObjFilter@std@media@modules@UModSys@@UBEABUSUniquePointerInfo@core@5@XZ 00403840 f i umodsys_lib_libmedia:umodsys.mod.media.std.obj
 0001:00002850       ?root_get_interface_type@RLibraryObjFilter@std@media@modules@UModSys@@UBEPBUSUniquePointerInfo@core@5@XZ 00403850 f i umodsys_lib_libmedia:umodsys.mod.media.std.obj
 0001:00002860       ?root_get_other_interface@RLibraryObjFilter@std@media@modules@UModSys@@UAEPAUIRoot@core@5@PBUSUniquePointerInfo@75@@Z 00403860 f i umodsys_lib_libmedia:umodsys.mod.media.std.obj
 0001:00002860       ?root_get_other_interface@RLibraryObjFilter@std@media@modules@UModSys@@UBEPBUIRoot@core@5@PBUSUniquePointerInfo@75@@Z 00403860 f i umodsys_lib_libmedia:umodsys.mod.media.std.obj
 0001:000028a0       ?root_is_interface_supported@RLibraryObjFilter@std@media@modules@UModSys@@UBE_NPBUSUniquePointerInfo@core@5@@Z 004038a0 f i umodsys_lib_libmedia:umodsys.mod.media.std.obj
 0001:000028e0       ?ref_links@RLibraryBinTree@std@media@modules@UModSys@@UBEHXZ 004038e0 f i umodsys_lib_libmedia:umodsys.mod.media.std.obj
 0001:000028e0       ?ref_links@RLibraryBinCache@std@media@modules@UModSys@@UBEHXZ 004038e0 f i umodsys_lib_libmedia:umodsys.mod.media.std.obj
 0001:000028e0       ?ref_links@RLibraryLayered@std@media@modules@UModSys@@UBEHXZ 004038e0 f i umodsys_lib_libmedia:umodsys.mod.media.std.obj
 0001:000028e0       ?ref_links@RDataArchiver_OsDir@stdio@media@modules@UModSys@@UBEHXZ 004038e0 f i umodsys_lib_libmedia:umodsys.mod.media.stdio.obj
 0001:000028e0       ?ref_links@RLibraryObjCache@std@media@modules@UModSys@@UBEHXZ 004038e0 f i umodsys_lib_libmedia:umodsys.mod.media.std.obj
 0001:000028e0       ?ref_links@RLibraryObjFilter@std@media@modules@UModSys@@UBEHXZ 004038e0 f i umodsys_lib_libmedia:umodsys.mod.media.std.obj
 0001:000028e0       ?ref_links@RMediaFilter@images_std@media@modules@UModSys@@UBEHXZ 004038e0 f i umodsys_lib_libmedia:umodsys.mod.media.images_std.obj
 0001:000028f0       ?suicide@RMediaFilter@images_std@media@modules@UModSys@@UAEXXZ 004038f0 f i umodsys_lib_libmedia:umodsys.mod.media.images_std.obj
 0001:000028f0       ?suicide@RLibraryBinCache@std@media@modules@UModSys@@UAEXXZ 004038f0 f i umodsys_lib_libmedia:umodsys.mod.media.std.obj
 0001:000028f0       ?suicide@RLibraryBinTree@std@media@modules@UModSys@@UAEXXZ 004038f0 f i umodsys_lib_libmedia:umodsys.mod.media.std.obj
 0001:000028f0       ?suicide@RLibraryLayered@std@media@modules@UModSys@@UAEXXZ 004038f0 f i umodsys_lib_libmedia:umodsys.mod.media.std.obj
 0001:000028f0       ?suicide@RLibraryObjCache@std@media@modules@UModSys@@UAEXXZ 004038f0 f i umodsys_lib_libmedia:umodsys.mod.media.std.obj
 0001:000028f0       ?suicide@RDataArchiver_OsDir@stdio@media@modules@UModSys@@UAEXXZ 004038f0 f i umodsys_lib_libmedia:umodsys.mod.media.stdio.obj
 0001:000028f0       ?suicide@RLibraryObjFilter@std@media@modules@UModSys@@UAEXXZ 004038f0 f i umodsys_lib_libmedia:umodsys.mod.media.std.obj
 0001:00002900       ??0RLibraryObjFilter@std@media@modules@UModSys@@QAE@PAUIModObject@base@4@ABUSParameters@core@4@U?$TFlags4State@USMediaFlagUid@libmedia@UModSys@@I@tl@4@@Z 00403900 f i umodsys_lib_libmedia:umodsys.mod.media.std.obj
 0001:00002980       ??1RLibraryObjFilter@std@media@modules@UModSys@@UAE@XZ 00403980 f i umodsys_lib_libmedia:umodsys.mod.media.std.obj
 0001:000029f0       ?get_flags_auto@RLibraryObjFilter@std@media@modules@UModSys@@UBE?AU?$TFlags4State@USMediaFlagUid@libmedia@UModSys@@I@tl@5@XZ 004039f0 f i umodsys_lib_libmedia:umodsys.mod.media.std.obj
 0001:00002a00       ?obj_fget@RLibraryObjFilter@std@media@modules@UModSys@@UAE_NABUSInfo@IBinObjFilter@libmedia@5@AAU?$TRefObject@UIRefObject@core@UModSys@@U?$TRefObjectFunc@UIRefObject@core@UModSys@@@tl@3@@tl@5@@Z 00403a00 f i umodsys_lib_libmedia:umodsys.mod.media.std.obj
 0001:00002a10       ?obj_fload@RLibraryObjFilter@std@media@modules@UModSys@@UAE_NABUSInfo@IBinObjFilter@libmedia@5@PAUIRefObject@core@5@@Z 00403a10 f i umodsys_lib_libmedia:umodsys.mod.media.std.obj
 0001:00002a20       ?obj_fsave@RLibraryObjFilter@std@media@modules@UModSys@@UAE_NAAUSInfo@IBinObjFilter@libmedia@5@PBUIRefObject@core@5@@Z 00403a20 f i umodsys_lib_libmedia:umodsys.mod.media.std.obj
 0001:00002a30       ?filters_add@RLibraryObjFilter@std@media@modules@UModSys@@UAE_NU?$TRefObject@UIBinObjFilter@libmedia@UModSys@@U?$TRefObjectFunc@UIBinObjFilter@libmedia@UModSys@@@tl@3@@tl@5@PBUSParameters@core@5@H@Z 00403a30 f i umodsys_lib_libmedia:umodsys.mod.media.std.obj
 0001:00002b10       ?filters_remove@RLibraryObjFilter@std@media@modules@UModSys@@UAE_NPAUIBinObjFilter@libmedia@5@H@Z 00403b10 f i umodsys_lib_libmedia:umodsys.mod.media.std.obj
 0001:00002b80       ?filters_clear@RLibraryObjFilter@std@media@modules@UModSys@@UAE_NXZ 00403b80 f i umodsys_lib_libmedia:umodsys.mod.media.std.obj
 0001:00002bb0       ?filters_load@RLibraryObjFilter@std@media@modules@UModSys@@UAE_NABUSInfo@IBinObjFilter@libmedia@5@AAU?$TRefObject@UIRefObject@core@UModSys@@U?$TRefObjectFunc@UIRefObject@core@UModSys@@@tl@3@@tl@5@@Z 00403bb0 f i umodsys_lib_libmedia:umodsys.mod.media.std.obj
 0001:00002c40       ?filters_load@RLibraryObjFilter@std@media@modules@UModSys@@UAE_NABUSInfo@IBinObjFilter@libmedia@5@PAUIRefObject@core@5@@Z 00403c40 f i umodsys_lib_libmedia:umodsys.mod.media.std.obj
 0001:00002cd0       ?filters_save@RLibraryObjFilter@std@media@modules@UModSys@@UAE_NAAUSInfo@IBinObjFilter@libmedia@5@PBUIRefObject@core@5@@Z 00403cd0 f i umodsys_lib_libmedia:umodsys.mod.media.std.obj
 0001:00002d60       ??_ERLibraryObjFilter@std@media@modules@UModSys@@UAEPAXI@Z 00403d60 f i  CIL library: CIL module
 0001:00002d60       ??_GRLibraryObjFilter@std@media@modules@UModSys@@UAEPAXI@Z 00403d60 f i umodsys_lib_libmedia:umodsys.mod.media.std.obj
 0001:00002d80       ?get_generated_names@RGenerator@std@media@modules@UModSys@@UBEHAAUSUniquePtrList@core@5@@Z 00403d80 f i umodsys_lib_libmedia:umodsys.mod.media.std.obj
 0001:00002dd0       ?get_generated_types@RGenerator@std@media@modules@UModSys@@UBEHAAUSUniquePtrList@core@5@PBUSUniquePointerInfo@75@@Z 00403dd0 f i umodsys_lib_libmedia:umodsys.mod.media.std.obj
 0001:00002ee0       ?generate@RGenerator@std@media@modules@UModSys@@UAE_NAAU?$TRefObject@UIRefObject@core@UModSys@@U?$TRefObjectFunc@UIRefObject@core@UModSys@@@tl@3@@tl@5@PBUSUniquePointerInfo@core@5@ABUSParameters@95@@Z 00403ee0 f i umodsys_lib_libmedia:umodsys.mod.media.std.obj
 0001:00002f70       ?root_get_interface_info@RGenerator@std@media@modules@UModSys@@UBEABUSUniquePointerInfo@core@5@XZ 00403f70 f i umodsys_lib_libmedia:umodsys.mod.media.std.obj
 0001:00002f80       ?root_get_interface_type@RGenerator@std@media@modules@UModSys@@UBEPBUSUniquePointerInfo@core@5@XZ 00403f80 f i umodsys_lib_libmedia:umodsys.mod.media.std.obj
 0001:00002f90       ?root_get_other_interface@RGenerator@std@media@modules@UModSys@@UBEPBUIRoot@core@5@PBUSUniquePointerInfo@75@@Z 00403f90 f i umodsys_lib_libmedia:umodsys.mod.media.std.obj
 0001:00002f90       ?root_get_other_interface@RGenerator@std@media@modules@UModSys@@UAEPAUIRoot@core@5@PBUSUniquePointerInfo@75@@Z 00403f90 f i umodsys_lib_libmedia:umodsys.mod.media.std.obj
 0001:00002fd0       ?root_is_interface_supported@RGenerator@std@media@modules@UModSys@@UBE_NPBUSUniquePointerInfo@core@5@@Z 00403fd0 f i umodsys_lib_libmedia:umodsys.mod.media.std.obj
 0001:00003010       ?ref_links@RGenerator@stdio@media@modules@UModSys@@UBEHXZ 00404010 f i umodsys_lib_libmedia:umodsys.mod.media.stdio.obj
 0001:00003010       ?ref_links@RGenerator@images_std@media@modules@UModSys@@UBEHXZ 00404010 f i umodsys_lib_libmedia:umodsys.mod.media.images_std.obj
 0001:00003010       ?ref_links@RGenerator@std@media@modules@UModSys@@UBEHXZ 00404010 f i umodsys_lib_libmedia:umodsys.mod.media.std.obj
 0001:00003010       ?ref_links@RStreamWriter_FILE@stdio@media@modules@UModSys@@UBEHXZ 00404010 f i umodsys_lib_libmedia:umodsys.mod.media.stdio.obj
 0001:00003010       ?ref_links@RStreamReader_FILE@stdio@media@modules@UModSys@@UBEHXZ 00404010 f i umodsys_lib_libmedia:umodsys.mod.media.stdio.obj
 0001:00003020       ?ref_weak@RGenerator@images_std@media@modules@UModSys@@UBE_NAAUWeakPointer@IRefObject@core@5@@Z 00404020 f i umodsys_lib_libmedia:umodsys.mod.media.images_std.obj
 0001:00003020       ?ref_weak@RGenerator@std@media@modules@UModSys@@UBE_NAAUWeakPointer@IRefObject@core@5@@Z 00404020 f i umodsys_lib_libmedia:umodsys.mod.media.std.obj
 0001:00003020       ?ref_weak@RGenerator@stdio@media@modules@UModSys@@UBE_NAAUWeakPointer@IRefObject@core@5@@Z 00404020 f i umodsys_lib_libmedia:umodsys.mod.media.stdio.obj
 0001:00003020       ?ref_weak@RStreamWriter_FILE@stdio@media@modules@UModSys@@UBE_NAAUWeakPointer@IRefObject@core@5@@Z 00404020 f i umodsys_lib_libmedia:umodsys.mod.media.stdio.obj
 0001:00003020       ?ref_weak@RStreamReader_FILE@stdio@media@modules@UModSys@@UBE_NAAUWeakPointer@IRefObject@core@5@@Z 00404020 f i umodsys_lib_libmedia:umodsys.mod.media.stdio.obj
 0001:00003040       ?get_uid@RGenerator@std@media@modules@UModSys@@UBEPBUSUniquePointerInfo@core@5@XZ 00404040 f i umodsys_lib_libmedia:umodsys.mod.media.std.obj
 0001:00003050       ?do_open@RModuleReg@std@media@modules@UModSys@@UAE_NXZ 00404050 f i umodsys_lib_libmedia:umodsys.mod.media.std.obj
 0001:00003060       ?do_close@RModuleReg@std@media@modules@UModSys@@UAE_NXZ 00404060 f i umodsys_lib_libmedia:umodsys.mod.media.std.obj
 0001:00003070       ??_ERModuleReg@std@media@modules@UModSys@@UAEPAXI@Z 00404070 f i  CIL library: CIL module
 0001:00003070       ??_GRModuleReg@std@media@modules@UModSys@@UAEPAXI@Z 00404070 f i umodsys_lib_libmedia:umodsys.mod.media.std.obj
 0001:000030a0       ??4?$TString@U?$TSCoreConst@D@su@tl@UModSys@@U?$TComparerBinaryHash@D@234@@tl@UModSys@@QAEABU012@PBD@Z 004040a0 f i umodsys_lib_libmedia:umodsys.mod.media.std.obj
 0001:000030e0       ??0?$TString@U?$TSCoreShared@USIMemAlloc@core@UModSys@@D@su@tl@UModSys@@U?$TComparerBinaryHash@D@234@@tl@UModSys@@QAE@ABU?$TSCoreConst@D@su@12@@Z 004040e0 f i umodsys_lib_libmedia:umodsys.mod.media.std.obj
 0001:00003150       ??4?$TString@U?$TSCoreShared@USIMemAlloc@core@UModSys@@D@su@tl@UModSys@@U?$TComparerBinaryHash@D@234@@tl@UModSys@@QAEABU012@ABU012@@Z 00404150 f i umodsys_lib_libmedia:umodsys.mod.media.std.obj
 0001:00003190       ?remove_node@?$TTreeHoldRB@U?$TScatterArrayNode@USMountInfo@RLibraryBinTree@std@media@modules@UModSys@@USId@ILibraryBinTree@libmedia@6@@tl@UModSys@@@tl@UModSys@@QAEXPAU?$TScatterArrayNode@USMountInfo@RLibraryBinTree@std@media@modules@UModSys@@USId@ILibraryBinTree@libmedia@6@@23@@Z 00404190 f i umodsys_lib_libmedia:umodsys.mod.media.std.obj
 0001:00003190       ?remove_node@?$TTreeHoldRB@U?$TScatterArrayNode@USFilter@RLibraryObjFilter@std@media@modules@UModSys@@USId@23456@@tl@UModSys@@@tl@UModSys@@QAEXPAU?$TScatterArrayNode@USFilter@RLibraryObjFilter@std@media@modules@UModSys@@USId@23456@@23@@Z 00404190 f i umodsys_lib_libmedia:umodsys.mod.media.std.obj
 0001:00003190       ?remove_node@?$TTreeHoldRB@U?$TScatterArrayNode@USCacheElem@RLibraryBinCache@std@media@modules@UModSys@@U?$TString@U?$TSCoreConst@D@su@tl@UModSys@@U?$TComparerBinaryHash@D@234@@tl@6@@tl@UModSys@@@tl@UModSys@@QAEXPAU?$TScatterArrayNode@USCacheElem@RLibraryBinCache@std@media@modules@UModSys@@U?$TString@U?$TSCoreConst@D@su@tl@UModSys@@U?$TComparerBinaryHash@D@234@@tl@6@@23@@Z 00404190 f i umodsys_lib_libmedia:umodsys.mod.media.std.obj
 0001:00003190       ?remove_node@?$TTreeHoldRB@U?$TScatterArrayNode@USCacheElem@RLibraryObjCache@std@media@modules@UModSys@@U?$TString@U?$TSCoreConst@D@su@tl@UModSys@@U?$TComparerBinaryHash@D@234@@tl@6@@tl@UModSys@@@tl@UModSys@@QAEXPAU?$TScatterArrayNode@USCacheElem@RLibraryObjCache@std@media@modules@UModSys@@U?$TString@U?$TSCoreConst@D@su@tl@UModSys@@U?$TComparerBinaryHash@D@234@@tl@6@@23@@Z 00404190 f i umodsys_lib_libmedia:umodsys.mod.media.std.obj
 0001:00003280       ??1?$TPair@U?$TString@U?$TSCoreConst@D@su@tl@UModSys@@U?$TComparerBinaryHash@D@234@@tl@UModSys@@USCacheElem@RLibraryBinCache@std@media@modules@3@@tl@UModSys@@QAE@XZ 00404280 f i umodsys_lib_libmedia:umodsys.mod.media.std.obj
 0001:00003290       ??1?$TPair@USId@ILibraryBinTree@libmedia@UModSys@@USMountInfo@RLibraryBinTree@std@media@modules@4@@tl@UModSys@@QAE@XZ 00404290 f i umodsys_lib_libmedia:umodsys.mod.media.std.obj
 0001:000032a0       ??1?$TPair@U?$TString@U?$TSCoreConst@D@su@tl@UModSys@@U?$TComparerBinaryHash@D@234@@tl@UModSys@@USCacheElem@RLibraryObjCache@std@media@modules@3@@tl@UModSys@@QAE@XZ 004042a0 f i umodsys_lib_libmedia:umodsys.mod.media.std.obj
 0001:000032b0       ??1?$TPair@USId@RLibraryObjFilter@std@media@modules@UModSys@@USFilter@23456@@tl@UModSys@@QAE@XZ 004042b0 f i umodsys_lib_libmedia:umodsys.mod.media.std.obj
 0001:000032d0       ??1SCacheElem@RLibraryBinCache@std@media@modules@UModSys@@QAE@XZ 004042d0 f i umodsys_lib_libmedia:umodsys.mod.media.std.obj
 0001:00003350       ??1SMountInfo@RLibraryBinTree@std@media@modules@UModSys@@QAE@XZ 00404350 f i umodsys_lib_libmedia:umodsys.mod.media.std.obj
 0001:000033e0       ??1SCacheElem@RLibraryObjCache@std@media@modules@UModSys@@QAE@XZ 004043e0 f i umodsys_lib_libmedia:umodsys.mod.media.std.obj
 0001:00003470       ?info_new@?$TSCoreShared@USIMemAlloc@core@UModSys@@D@su@tl@UModSys@@QAE_NPBDI@Z 00404470 f i umodsys_lib_libmedia:umodsys.mod.media.std.obj
 0001:00003500       ?ResizeRel@?$TDynarray@U?$TDynarrayHolderDynamic@USLayerX@RLibraryLayered@std@media@modules@UModSys@@U?$TAllocator@USIMemAlloc@core@UModSys@@USCountCalcPower2@23@@tl@6@@tl@UModSys@@@tl@UModSys@@QAE_NH@Z 00404500 f i umodsys_lib_libmedia:umodsys.mod.media.std.obj
 0001:00003580       ?InsertAt@?$TDynarray@U?$TDynarrayHolderDynamic@USLayerX@RLibraryLayered@std@media@modules@UModSys@@U?$TAllocator@USIMemAlloc@core@UModSys@@USCountCalcPower2@23@@tl@6@@tl@UModSys@@@tl@UModSys@@QAE_NII@Z 00404580 f i umodsys_lib_libmedia:umodsys.mod.media.std.obj
 0001:000035e0       ?s_set@?$TRefObjectFunc@UIRefObject@core@UModSys@@@tl@UModSys@@SAXAAPAUIRefObject@core@3@PAU453@@Z 004045e0 f i umodsys_lib_libmedia:umodsys.mod.media.std.obj
 0001:00003600       ?remove_color@?$TTreeHoldRB@U?$TScatterArrayNode@USMountInfo@RLibraryBinTree@std@media@modules@UModSys@@USId@ILibraryBinTree@libmedia@6@@tl@UModSys@@@tl@UModSys@@IAEXPAU?$TScatterArrayNode@USMountInfo@RLibraryBinTree@std@media@modules@UModSys@@USId@ILibraryBinTree@libmedia@6@@23@0@Z 00404600 f i umodsys_lib_libmedia:umodsys.mod.media.std.obj
 0001:00003600       ?remove_color@?$TTreeHoldRB@U?$TScatterArrayNode@USFilter@RLibraryObjFilter@std@media@modules@UModSys@@USId@23456@@tl@UModSys@@@tl@UModSys@@IAEXPAU?$TScatterArrayNode@USFilter@RLibraryObjFilter@std@media@modules@UModSys@@USId@23456@@23@0@Z 00404600 f i umodsys_lib_libmedia:umodsys.mod.media.std.obj
 0001:00003600       ?remove_color@?$TTreeHoldRB@U?$TScatterArrayNode@USCacheElem@RLibraryBinCache@std@media@modules@UModSys@@U?$TString@U?$TSCoreConst@D@su@tl@UModSys@@U?$TComparerBinaryHash@D@234@@tl@6@@tl@UModSys@@@tl@UModSys@@IAEXPAU?$TScatterArrayNode@USCacheElem@RLibraryBinCache@std@media@modules@UModSys@@U?$TString@U?$TSCoreConst@D@su@tl@UModSys@@U?$TComparerBinaryHash@D@234@@tl@6@@23@0@Z 00404600 f i umodsys_lib_libmedia:umodsys.mod.media.std.obj
 0001:00003600       ?remove_color@?$TTreeHoldRB@U?$TScatterArrayNode@USCacheElem@RLibraryObjCache@std@media@modules@UModSys@@U?$TString@U?$TSCoreConst@D@su@tl@UModSys@@U?$TComparerBinaryHash@D@234@@tl@6@@tl@UModSys@@@tl@UModSys@@IAEXPAU?$TScatterArrayNode@USCacheElem@RLibraryObjCache@std@media@modules@UModSys@@U?$TString@U?$TSCoreConst@D@su@tl@UModSys@@U?$TComparerBinaryHash@D@234@@tl@6@@23@0@Z 00404600 f i umodsys_lib_libmedia:umodsys.mod.media.std.obj
 0001:00003780       ??$t_types@URLibraryLayered@std@media@modules@UModSys@@@IGenerator@base@UModSys@@KA_NAAHAAUSUniquePtrList@core@2@PBUSUniquePointerInfo@42@@Z 00404780 f i umodsys_lib_libmedia:umodsys.mod.media.std.obj
 0001:000037d0       ??$t_types@URLibraryObjFilter@std@media@modules@UModSys@@@IGenerator@base@UModSys@@KA_NAAHAAUSUniquePtrList@core@2@PBUSUniquePointerInfo@42@@Z 004047d0 f i umodsys_lib_libmedia:umodsys.mod.media.std.obj
 0001:00003820       ??$t_types@URLibraryObjCache@std@media@modules@UModSys@@@IGenerator@base@UModSys@@KA_NAAHAAUSUniquePtrList@core@2@PBUSUniquePointerInfo@42@@Z 00404820 f i umodsys_lib_libmedia:umodsys.mod.media.std.obj
 0001:00003870       ??$t_gen_param@URLibraryBinCache@std@media@modules@UModSys@@URGenerator@2345@@IGenerator@base@UModSys@@IAE_NPAURGenerator@std@media@modules@2@AAU?$TRefObject@UIRefObject@core@UModSys@@U?$TRefObjectFunc@UIRefObject@core@UModSys@@@tl@3@@tl@2@PBUSUniquePointerInfo@core@2@ABUSParameters@core@2@@Z 00404870 f i umodsys_lib_libmedia:umodsys.mod.media.std.obj
 0001:000038f0       ??$t_gen_param@URLibraryBinTree@std@media@modules@UModSys@@URGenerator@2345@@IGenerator@base@UModSys@@IAE_NPAURGenerator@std@media@modules@2@AAU?$TRefObject@UIRefObject@core@UModSys@@U?$TRefObjectFunc@UIRefObject@core@UModSys@@@tl@3@@tl@2@PBUSUniquePointerInfo@core@2@ABUSParameters@core@2@@Z 004048f0 f i umodsys_lib_libmedia:umodsys.mod.media.std.obj
 0001:00003970       ??$t_gen_param@URLibraryLayered@std@media@modules@UModSys@@URGenerator@2345@@IGenerator@base@UModSys@@IAE_NPAURGenerator@std@media@modules@2@AAU?$TRefObject@UIRefObject@core@UModSys@@U?$TRefObjectFunc@UIRefObject@core@UModSys@@@tl@3@@tl@2@PBUSUniquePointerInfo@core@2@ABUSParameters@core@2@@Z 00404970 f i umodsys_lib_libmedia:umodsys.mod.media.std.obj
 0001:000039e0       ??$t_gen_param@URLibraryObjFilter@std@media@modules@UModSys@@URGenerator@2345@@IGenerator@base@UModSys@@IAE_NPAURGenerator@std@media@modules@2@AAU?$TRefObject@UIRefObject@core@UModSys@@U?$TRefObjectFunc@UIRefObject@core@UModSys@@@tl@3@@tl@2@PBUSUniquePointerInfo@core@2@ABUSParameters@core@2@@Z 004049e0 f i umodsys_lib_libmedia:umodsys.mod.media.std.obj
 0001:00003a60       ??$t_gen_param@URLibraryObjCache@std@media@modules@UModSys@@URGenerator@2345@@IGenerator@base@UModSys@@IAE_NPAURGenerator@std@media@modules@2@AAU?$TRefObject@UIRefObject@core@UModSys@@U?$TRefObjectFunc@UIRefObject@core@UModSys@@@tl@3@@tl@2@PBUSUniquePointerInfo@core@2@ABUSParameters@core@2@@Z 00404a60 f i umodsys_lib_libmedia:umodsys.mod.media.std.obj
 0001:00003ae0       ??$genx_node@UCmp@?$TScatterArray@USCacheElem@RLibraryBinCache@std@media@modules@UModSys@@U?$TString@U?$TSCoreConst@D@su@tl@UModSys@@U?$TComparerBinaryHash@D@234@@tl@6@U?$TObjectCompare@U?$TString@U?$TSCoreConst@D@su@tl@UModSys@@U?$TComparerBinaryHash@D@234@@tl@UModSys@@@core@6@U?$TNodeDeleter0@U?$TScatterArrayNode@USCacheElem@RLibraryBinCache@std@media@modules@UModSys@@U?$TString@U?$TSCoreConst@D@su@tl@UModSys@@U?$TComparerBinaryHash@D@234@@tl@6@@tl@UModSys@@@86@@tl@UModSys@@UGen0@234@@?$TTreeHoldRBD@U?$TScatterArrayNode@USCacheElem@RLibraryBinCache@std@media@modules@UModSys@@U?$TString@U?$TSCoreConst@D@su@tl@UModSys@@U?$TComparerBinaryHash@D@234@@tl@6@@tl@UModSys@@U?$TNodeDeleter0@U?$TScatterArrayNode@USCacheElem@RLibraryBinCache@std@media@modules@UModSys@@U?$TString@U?$TSCoreConst@D@su@tl@UModSys@@U?$TComparerBinaryHash@D@234@@tl@6@@tl@UModSys@@@23@@tl@UModSys@@QAEPAU?$TScatterArrayNode@USCacheElem@RLibraryBinCache@std@media@modules@UModSys@@U?$TString@U?$TSCoreConst@D@su@tl@UModSys@@U?$TComparerBinaryHash@D@234@@tl@6@@12@UCmp@?$TScatterArray@USCacheElem@RLibraryBinCache@std@media@modules@UModSys@@U?$TString@U?$TSCoreConst@D@su@tl@UModSys@@U?$TComparerBinaryHash@D@234@@tl@6@U?$TObjectCompare@U?$TString@U?$TSCoreConst@D@su@tl@UModSys@@U?$TComparerBinaryHash@D@234@@tl@UModSys@@@core@6@U?$TNodeDeleter0@U?$TScatterArrayNode@USCacheElem@RLibraryBinCache@std@media@modules@UModSys@@U?$TString@U?$TSCoreConst@D@su@tl@UModSys@@U?$TComparerBinaryHash@D@234@@tl@6@@tl@UModSys@@@86@@12@ABUGen0@512@PAPAU312@2_N@Z 00404ae0 f i umodsys_lib_libmedia:umodsys.mod.media.std.obj
 0001:00003bd0       ??$genx_node@UCmp@?$TScatterArray@USMountInfo@RLibraryBinTree@std@media@modules@UModSys@@USId@ILibraryBinTree@libmedia@6@U7896@U?$TNodeDeleter0@U?$TScatterArrayNode@USMountInfo@RLibraryBinTree@std@media@modules@UModSys@@USId@ILibraryBinTree@libmedia@6@@tl@UModSys@@@tl@6@@tl@UModSys@@UGen0@234@@?$TTreeHoldRBD@U?$TScatterArrayNode@USMountInfo@RLibraryBinTree@std@media@modules@UModSys@@USId@ILibraryBinTree@libmedia@6@@tl@UModSys@@U?$TNodeDeleter0@U?$TScatterArrayNode@USMountInfo@RLibraryBinTree@std@media@modules@UModSys@@USId@ILibraryBinTree@libmedia@6@@tl@UModSys@@@23@@tl@UModSys@@QAEPAU?$TScatterArrayNode@USMountInfo@RLibraryBinTree@std@media@modules@UModSys@@USId@ILibraryBinTree@libmedia@6@@12@UCmp@?$TScatterArray@USMountInfo@RLibraryBinTree@std@media@modules@UModSys@@USId@ILibraryBinTree@libmedia@6@U7896@U?$TNodeDeleter0@U?$TScatterArrayNode@USMountInfo@RLibraryBinTree@std@media@modules@UModSys@@USId@ILibraryBinTree@libmedia@6@@tl@UModSys@@@tl@6@@12@ABUGen0@512@PAPAU312@2_N@Z 00404bd0 f i umodsys_lib_libmedia:umodsys.mod.media.std.obj
 0001:00003ce0       ??$find_node_u@UCmp@?$TScatterArray@USMountInfo@RLibraryBinTree@std@media@modules@UModSys@@USId@ILibraryBinTree@libmedia@6@U7896@U?$TNodeDeleter0@U?$TScatterArrayNode@USMountInfo@RLibraryBinTree@std@media@modules@UModSys@@USId@ILibraryBinTree@libmedia@6@@tl@UModSys@@@tl@6@@tl@UModSys@@@?$TTreeHoldRB@U?$TScatterArrayNode@USMountInfo@RLibraryBinTree@std@media@modules@UModSys@@USId@ILibraryBinTree@libmedia@6@@tl@UModSys@@@tl@UModSys@@QBEPAU?$TScatterArrayNode@USMountInfo@RLibraryBinTree@std@media@modules@UModSys@@USId@ILibraryBinTree@libmedia@6@@12@UCmp@?$TScatterArray@USMountInfo@RLibraryBinTree@std@media@modules@UModSys@@USId@ILibraryBinTree@libmedia@6@U7896@U?$TNodeDeleter0@U?$TScatterArrayNode@USMountInfo@RLibraryBinTree@std@media@modules@UModSys@@USId@ILibraryBinTree@libmedia@6@@tl@UModSys@@@tl@6@@12@@Z 00404ce0 f i umodsys_lib_libmedia:umodsys.mod.media.std.obj
 0001:00003dc0       ??$genx_node@UCmp@?$TScatterArray@USCacheElem@RLibraryObjCache@std@media@modules@UModSys@@U?$TString@U?$TSCoreConst@D@su@tl@UModSys@@U?$TComparerBinaryHash@D@234@@tl@6@U?$TObjectCompare@U?$TString@U?$TSCoreConst@D@su@tl@UModSys@@U?$TComparerBinaryHash@D@234@@tl@UModSys@@@core@6@U?$TNodeDeleter0@U?$TScatterArrayNode@USCacheElem@RLibraryObjCache@std@media@modules@UModSys@@U?$TString@U?$TSCoreConst@D@su@tl@UModSys@@U?$TComparerBinaryHash@D@234@@tl@6@@tl@UModSys@@@86@@tl@UModSys@@UGen0@234@@?$TTreeHoldRBD@U?$TScatterArrayNode@USCacheElem@RLibraryObjCache@std@media@modules@UModSys@@U?$TString@U?$TSCoreConst@D@su@tl@UModSys@@U?$TComparerBinaryHash@D@234@@tl@6@@tl@UModSys@@U?$TNodeDeleter0@U?$TScatterArrayNode@USCacheElem@RLibraryObjCache@std@media@modules@UModSys@@U?$TString@U?$TSCoreConst@D@su@tl@UModSys@@U?$TComparerBinaryHash@D@234@@tl@6@@tl@UModSys@@@23@@tl@UModSys@@QAEPAU?$TScatterArrayNode@USCacheElem@RLibraryObjCache@std@media@modules@UModSys@@U?$TString@U?$TSCoreConst@D@su@tl@UModSys@@U?$TComparerBinaryHash@D@234@@tl@6@@12@UCmp@?$TScatterArray@USCacheElem@RLibraryObjCache@std@media@modules@UModSys@@U?$TString@U?$TSCoreConst@D@su@tl@UModSys@@U?$TComparerBinaryHash@D@234@@tl@6@U?$TObjectCompare@U?$TString@U?$TSCoreConst@D@su@tl@UModSys@@U?$TComparerBinaryHash@D@234@@tl@UModSys@@@core@6@U?$TNodeDeleter0@U?$TScatterArrayNode@USCacheElem@RLibraryObjCache@std@media@modules@UModSys@@U?$TString@U?$TSCoreConst@D@su@tl@UModSys@@U?$TComparerBinaryHash@D@234@@tl@6@@tl@UModSys@@@86@@12@ABUGen0@512@PAPAU312@2_N@Z 00404dc0 f i umodsys_lib_libmedia:umodsys.mod.media.std.obj
 0001:00003eb0       ??$find_node_u@UCmp@?$TScatterArray@USCacheElem@RLibraryBinCache@std@media@modules@UModSys@@U?$TString@U?$TSCoreConst@D@su@tl@UModSys@@U?$TComparerBinaryHash@D@234@@tl@6@U?$TObjectCompare@U?$TString@U?$TSCoreConst@D@su@tl@UModSys@@U?$TComparerBinaryHash@D@234@@tl@UModSys@@@core@6@U?$TNodeDeleter0@U?$TScatterArrayNode@USCacheElem@RLibraryBinCache@std@media@modules@UModSys@@U?$TString@U?$TSCoreConst@D@su@tl@UModSys@@U?$TComparerBinaryHash@D@234@@tl@6@@tl@UModSys@@@86@@tl@UModSys@@@?$TTreeHoldRB@U?$TScatterArrayNode@USCacheElem@RLibraryBinCache@std@media@modules@UModSys@@U?$TString@U?$TSCoreConst@D@su@tl@UModSys@@U?$TComparerBinaryHash@D@234@@tl@6@@tl@UModSys@@@tl@UModSys@@QBEPAU?$TScatterArrayNode@USCacheElem@RLibraryBinCache@std@media@modules@UModSys@@U?$TString@U?$TSCoreConst@D@su@tl@UModSys@@U?$TComparerBinaryHash@D@234@@tl@6@@12@UCmp@?$TScatterArray@USCacheElem@RLibraryBinCache@std@media@modules@UModSys@@U?$TString@U?$TSCoreConst@D@su@tl@UModSys@@U?$TComparerBinaryHash@D@234@@tl@6@U?$TObjectCompare@U?$TString@U?$TSCoreConst@D@su@tl@UModSys@@U?$TComparerBinaryHash@D@234@@tl@UModSys@@@core@6@U?$TNodeDeleter0@U?$TScatterArrayNode@USCacheElem@RLibraryBinCache@std@media@modules@UModSys@@U?$TString@U?$TSCoreConst@D@su@tl@UModSys@@U?$TComparerBinaryHash@D@234@@tl@6@@tl@UModSys@@@86@@12@@Z 00404eb0 f i umodsys_lib_libmedia:umodsys.mod.media.std.obj
 0001:00003eb0       ??$find_node_u@UCmp@?$TScatterArray@USCacheElem@RLibraryObjCache@std@media@modules@UModSys@@U?$TString@U?$TSCoreConst@D@su@tl@UModSys@@U?$TComparerBinaryHash@D@234@@tl@6@U?$TObjectCompare@U?$TString@U?$TSCoreConst@D@su@tl@UModSys@@U?$TComparerBinaryHash@D@234@@tl@UModSys@@@core@6@U?$TNodeDeleter0@U?$TScatterArrayNode@USCacheElem@RLibraryObjCache@std@media@modules@UModSys@@U?$TString@U?$TSCoreConst@D@su@tl@UModSys@@U?$TComparerBinaryHash@D@234@@tl@6@@tl@UModSys@@@86@@tl@UModSys@@@?$TTreeHoldRB@U?$TScatterArrayNode@USCacheElem@RLibraryObjCache@std@media@modules@UModSys@@U?$TString@U?$TSCoreConst@D@su@tl@UModSys@@U?$TComparerBinaryHash@D@234@@tl@6@@tl@UModSys@@@tl@UModSys@@QBEPAU?$TScatterArrayNode@USCacheElem@RLibraryObjCache@std@media@modules@UModSys@@U?$TString@U?$TSCoreConst@D@su@tl@UModSys@@U?$TComparerBinaryHash@D@234@@tl@6@@12@UCmp@?$TScatterArray@USCacheElem@RLibraryObjCache@std@media@modules@UModSys@@U?$TString@U?$TSCoreConst@D@su@tl@UModSys@@U?$TComparerBinaryHash@D@234@@tl@6@U?$TObjectCompare@U?$TString@U?$TSCoreConst@D@su@tl@UModSys@@U?$TComparerBinaryHash@D@234@@tl@UModSys@@@core@6@U?$TNodeDeleter0@U?$TScatterArrayNode@USCacheElem@RLibraryObjCache@std@media@modules@UModSys@@U?$TString@U?$TSCoreConst@D@su@tl@UModSys@@U?$TComparerBinaryHash@D@234@@tl@6@@tl@UModSys@@@86@@12@@Z 00404eb0 f i umodsys_lib_libmedia:umodsys.mod.media.std.obj
 0001:00003f60       ??$genx_node@UCmp@?$TScatterArray@USFilter@RLibraryObjFilter@std@media@modules@UModSys@@USId@23456@U723456@U?$TNodeDeleter0@U?$TScatterArrayNode@USFilter@RLibraryObjFilter@std@media@modules@UModSys@@USId@23456@@tl@UModSys@@@tl@6@@tl@UModSys@@UGen0@234@@?$TTreeHoldRBD@U?$TScatterArrayNode@USFilter@RLibraryObjFilter@std@media@modules@UModSys@@USId@23456@@tl@UModSys@@U?$TNodeDeleter0@U?$TScatterArrayNode@USFilter@RLibraryObjFilter@std@media@modules@UModSys@@USId@23456@@tl@UModSys@@@23@@tl@UModSys@@QAEPAU?$TScatterArrayNode@USFilter@RLibraryObjFilter@std@media@modules@UModSys@@USId@23456@@12@UCmp@?$TScatterArray@USFilter@RLibraryObjFilter@std@media@modules@UModSys@@USId@23456@U723456@U?$TNodeDeleter0@U?$TScatterArrayNode@USFilter@RLibraryObjFilter@std@media@modules@UModSys@@USId@23456@@tl@UModSys@@@tl@6@@12@ABUGen0@512@PAPAU312@2_N@Z 00404f60 f i umodsys_lib_libmedia:umodsys.mod.media.std.obj
 0001:00003ff0       ??$find_node_u@UCmp@?$TScatterArray@USFilter@RLibraryObjFilter@std@media@modules@UModSys@@USId@23456@U723456@U?$TNodeDeleter0@U?$TScatterArrayNode@USFilter@RLibraryObjFilter@std@media@modules@UModSys@@USId@23456@@tl@UModSys@@@tl@6@@tl@UModSys@@@?$TTreeHoldRB@U?$TScatterArrayNode@USFilter@RLibraryObjFilter@std@media@modules@UModSys@@USId@23456@@tl@UModSys@@@tl@UModSys@@QBEPAU?$TScatterArrayNode@USFilter@RLibraryObjFilter@std@media@modules@UModSys@@USId@23456@@12@UCmp@?$TScatterArray@USFilter@RLibraryObjFilter@std@media@modules@UModSys@@USId@23456@U723456@U?$TNodeDeleter0@U?$TScatterArrayNode@USFilter@RLibraryObjFilter@std@media@modules@UModSys@@USId@23456@@tl@UModSys@@@tl@6@@12@@Z 00404ff0 f i umodsys_lib_libmedia:umodsys.mod.media.std.obj
 0001:00004050       ?rotate_right@?$TTreeHoldRB@U?$TScatterArrayNode@USMountInfo@RLibraryBinTree@std@media@modules@UModSys@@USId@ILibraryBinTree@libmedia@6@@tl@UModSys@@@tl@UModSys@@IAEXPAU?$TScatterArrayNode@USMountInfo@RLibraryBinTree@std@media@modules@UModSys@@USId@ILibraryBinTree@libmedia@6@@23@@Z 00405050 f i umodsys_lib_libmedia:umodsys.mod.media.std.obj
 0001:00004050       ?rotate_right@?$TTreeHoldRB@U?$TScatterArrayNode@USCacheElem@RLibraryBinCache@std@media@modules@UModSys@@U?$TString@U?$TSCoreConst@D@su@tl@UModSys@@U?$TComparerBinaryHash@D@234@@tl@6@@tl@UModSys@@@tl@UModSys@@IAEXPAU?$TScatterArrayNode@USCacheElem@RLibraryBinCache@std@media@modules@UModSys@@U?$TString@U?$TSCoreConst@D@su@tl@UModSys@@U?$TComparerBinaryHash@D@234@@tl@6@@23@@Z 00405050 f i umodsys_lib_libmedia:umodsys.mod.media.std.obj
 0001:00004050       ?rotate_right@?$TTreeHoldRB@U?$TScatterArrayNode@USFilter@RLibraryObjFilter@std@media@modules@UModSys@@USId@23456@@tl@UModSys@@@tl@UModSys@@IAEXPAU?$TScatterArrayNode@USFilter@RLibraryObjFilter@std@media@modules@UModSys@@USId@23456@@23@@Z 00405050 f i umodsys_lib_libmedia:umodsys.mod.media.std.obj
 0001:00004050       ?rotate_right@?$TTreeHoldRB@U?$TScatterArrayNode@USCacheElem@RLibraryObjCache@std@media@modules@UModSys@@U?$TString@U?$TSCoreConst@D@su@tl@UModSys@@U?$TComparerBinaryHash@D@234@@tl@6@@tl@UModSys@@@tl@UModSys@@IAEXPAU?$TScatterArrayNode@USCacheElem@RLibraryObjCache@std@media@modules@UModSys@@U?$TString@U?$TSCoreConst@D@su@tl@UModSys@@U?$TComparerBinaryHash@D@234@@tl@6@@23@@Z 00405050 f i umodsys_lib_libmedia:umodsys.mod.media.std.obj
 0001:000040a0       ?sub_insert_node@?$TTreeHoldRB@U?$TScatterArrayNode@USFilter@RLibraryObjFilter@std@media@modules@UModSys@@USId@23456@@tl@UModSys@@@tl@UModSys@@QAEXPAU?$TScatterArrayNode@USFilter@RLibraryObjFilter@std@media@modules@UModSys@@USId@23456@@23@0H@Z 004050a0 f i umodsys_lib_libmedia:umodsys.mod.media.std.obj
 0001:000040a0       ?sub_insert_node@?$TTreeHoldRB@U?$TScatterArrayNode@USCacheElem@RLibraryObjCache@std@media@modules@UModSys@@U?$TString@U?$TSCoreConst@D@su@tl@UModSys@@U?$TComparerBinaryHash@D@234@@tl@6@@tl@UModSys@@@tl@UModSys@@QAEXPAU?$TScatterArrayNode@USCacheElem@RLibraryObjCache@std@media@modules@UModSys@@U?$TString@U?$TSCoreConst@D@su@tl@UModSys@@U?$TComparerBinaryHash@D@234@@tl@6@@23@0H@Z 004050a0 f i umodsys_lib_libmedia:umodsys.mod.media.std.obj
 0001:000040a0       ?sub_insert_node@?$TTreeHoldRB@U?$TScatterArrayNode@USMountInfo@RLibraryBinTree@std@media@modules@UModSys@@USId@ILibraryBinTree@libmedia@6@@tl@UModSys@@@tl@UModSys@@QAEXPAU?$TScatterArrayNode@USMountInfo@RLibraryBinTree@std@media@modules@UModSys@@USId@ILibraryBinTree@libmedia@6@@23@0H@Z 004050a0 f i umodsys_lib_libmedia:umodsys.mod.media.std.obj
 0001:000040a0       ?sub_insert_node@?$TTreeHoldRB@U?$TScatterArrayNode@USCacheElem@RLibraryBinCache@std@media@modules@UModSys@@U?$TString@U?$TSCoreConst@D@su@tl@UModSys@@U?$TComparerBinaryHash@D@234@@tl@6@@tl@UModSys@@@tl@UModSys@@QAEXPAU?$TScatterArrayNode@USCacheElem@RLibraryBinCache@std@media@modules@UModSys@@U?$TString@U?$TSCoreConst@D@su@tl@UModSys@@U?$TComparerBinaryHash@D@234@@tl@6@@23@0H@Z 004050a0 f i umodsys_lib_libmedia:umodsys.mod.media.std.obj
 0001:00004110       ?ReLink@?$TDynarray@U?$TDynarrayHolderDynamic@USLayerX@RLibraryLayered@std@media@modules@UModSys@@U?$TAllocator@USIMemAlloc@core@UModSys@@USCountCalcPower2@23@@tl@6@@tl@UModSys@@@tl@UModSys@@IAE_NI@Z 00405110 f i umodsys_lib_libmedia:umodsys.mod.media.std.obj
 0001:00004160       ?rotate_left@?$TTreeHoldRB@U?$TScatterArrayNode@USCacheElem@RLibraryObjCache@std@media@modules@UModSys@@U?$TString@U?$TSCoreConst@D@su@tl@UModSys@@U?$TComparerBinaryHash@D@234@@tl@6@@tl@UModSys@@@tl@UModSys@@IAEXPAU?$TScatterArrayNode@USCacheElem@RLibraryObjCache@std@media@modules@UModSys@@U?$TString@U?$TSCoreConst@D@su@tl@UModSys@@U?$TComparerBinaryHash@D@234@@tl@6@@23@@Z 00405160 f i umodsys_lib_libmedia:umodsys.mod.media.std.obj
 0001:00004160       ?rotate_left@?$TTreeHoldRB@U?$TScatterArrayNode@USFilter@RLibraryObjFilter@std@media@modules@UModSys@@USId@23456@@tl@UModSys@@@tl@UModSys@@IAEXPAU?$TScatterArrayNode@USFilter@RLibraryObjFilter@std@media@modules@UModSys@@USId@23456@@23@@Z 00405160 f i umodsys_lib_libmedia:umodsys.mod.media.std.obj
 0001:00004160       ?rotate_left@?$TTreeHoldRB@U?$TScatterArrayNode@USMountInfo@RLibraryBinTree@std@media@modules@UModSys@@USId@ILibraryBinTree@libmedia@6@@tl@UModSys@@@tl@UModSys@@IAEXPAU?$TScatterArrayNode@USMountInfo@RLibraryBinTree@std@media@modules@UModSys@@USId@ILibraryBinTree@libmedia@6@@23@@Z 00405160 f i umodsys_lib_libmedia:umodsys.mod.media.std.obj
 0001:00004160       ?rotate_left@?$TTreeHoldRB@U?$TScatterArrayNode@USCacheElem@RLibraryBinCache@std@media@modules@UModSys@@U?$TString@U?$TSCoreConst@D@su@tl@UModSys@@U?$TComparerBinaryHash@D@234@@tl@6@@tl@UModSys@@@tl@UModSys@@IAEXPAU?$TScatterArrayNode@USCacheElem@RLibraryBinCache@std@media@modules@UModSys@@U?$TString@U?$TSCoreConst@D@su@tl@UModSys@@U?$TComparerBinaryHash@D@234@@tl@6@@23@@Z 00405160 f i umodsys_lib_libmedia:umodsys.mod.media.std.obj
 0001:000041b0       ??RGen0@?$TScatterArray@USCacheElem@RLibraryBinCache@std@media@modules@UModSys@@U?$TString@U?$TSCoreConst@D@su@tl@UModSys@@U?$TComparerBinaryHash@D@234@@tl@6@U?$TObjectCompare@U?$TString@U?$TSCoreConst@D@su@tl@UModSys@@U?$TComparerBinaryHash@D@234@@tl@UModSys@@@core@6@U?$TNodeDeleter0@U?$TScatterArrayNode@USCacheElem@RLibraryBinCache@std@media@modules@UModSys@@U?$TString@U?$TSCoreConst@D@su@tl@UModSys@@U?$TComparerBinaryHash@D@234@@tl@6@@tl@UModSys@@@86@@tl@UModSys@@QBEPAU?$TScatterArrayNode@USCacheElem@RLibraryBinCache@std@media@modules@UModSys@@U?$TString@U?$TSCoreConst@D@su@tl@UModSys@@U?$TComparerBinaryHash@D@234@@tl@6@@23@ABUCmp@123@ABU?$TTreeHoldRBD@U?$TScatterArrayNode@USCacheElem@RLibraryBinCache@std@media@modules@UModSys@@U?$TString@U?$TSCoreConst@D@su@tl@UModSys@@U?$TComparerBinaryHash@D@234@@tl@6@@tl@UModSys@@U?$TNodeDeleter0@U?$TScatterArrayNode@USCacheElem@RLibraryBinCache@std@media@modules@UModSys@@U?$TString@U?$TSCoreConst@D@su@tl@UModSys@@U?$TComparerBinaryHash@D@234@@tl@6@@tl@UModSys@@@23@@23@@Z 004051b0 f i umodsys_lib_libmedia:umodsys.mod.media.std.obj
 0001:00004210       ??RGen0@?$TScatterArray@USMountInfo@RLibraryBinTree@std@media@modules@UModSys@@USId@ILibraryBinTree@libmedia@6@U7896@U?$TNodeDeleter0@U?$TScatterArrayNode@USMountInfo@RLibraryBinTree@std@media@modules@UModSys@@USId@ILibraryBinTree@libmedia@6@@tl@UModSys@@@tl@6@@tl@UModSys@@QBEPAU?$TScatterArrayNode@USMountInfo@RLibraryBinTree@std@media@modules@UModSys@@USId@ILibraryBinTree@libmedia@6@@23@ABUCmp@123@ABU?$TTreeHoldRBD@U?$TScatterArrayNode@USMountInfo@RLibraryBinTree@std@media@modules@UModSys@@USId@ILibraryBinTree@libmedia@6@@tl@UModSys@@U?$TNodeDeleter0@U?$TScatterArrayNode@USMountInfo@RLibraryBinTree@std@media@modules@UModSys@@USId@ILibraryBinTree@libmedia@6@@tl@UModSys@@@23@@23@@Z 00405210 f i umodsys_lib_libmedia:umodsys.mod.media.std.obj
 0001:00004270       ??RGen0@?$TScatterArray@USCacheElem@RLibraryObjCache@std@media@modules@UModSys@@U?$TString@U?$TSCoreConst@D@su@tl@UModSys@@U?$TComparerBinaryHash@D@234@@tl@6@U?$TObjectCompare@U?$TString@U?$TSCoreConst@D@su@tl@UModSys@@U?$TComparerBinaryHash@D@234@@tl@UModSys@@@core@6@U?$TNodeDeleter0@U?$TScatterArrayNode@USCacheElem@RLibraryObjCache@std@media@modules@UModSys@@U?$TString@U?$TSCoreConst@D@su@tl@UModSys@@U?$TComparerBinaryHash@D@234@@tl@6@@tl@UModSys@@@86@@tl@UModSys@@QBEPAU?$TScatterArrayNode@USCacheElem@RLibraryObjCache@std@media@modules@UModSys@@U?$TString@U?$TSCoreConst@D@su@tl@UModSys@@U?$TComparerBinaryHash@D@234@@tl@6@@23@ABUCmp@123@ABU?$TTreeHoldRBD@U?$TScatterArrayNode@USCacheElem@RLibraryObjCache@std@media@modules@UModSys@@U?$TString@U?$TSCoreConst@D@su@tl@UModSys@@U?$TComparerBinaryHash@D@234@@tl@6@@tl@UModSys@@U?$TNodeDeleter0@U?$TScatterArrayNode@USCacheElem@RLibraryObjCache@std@media@modules@UModSys@@U?$TString@U?$TSCoreConst@D@su@tl@UModSys@@U?$TComparerBinaryHash@D@234@@tl@6@@tl@UModSys@@@23@@23@@Z 00405270 f i umodsys_lib_libmedia:umodsys.mod.media.std.obj
 0001:000042d0       ??RGen0@?$TScatterArray@USFilter@RLibraryObjFilter@std@media@modules@UModSys@@USId@23456@U723456@U?$TNodeDeleter0@U?$TScatterArrayNode@USFilter@RLibraryObjFilter@std@media@modules@UModSys@@USId@23456@@tl@UModSys@@@tl@6@@tl@UModSys@@QBEPAU?$TScatterArrayNode@USFilter@RLibraryObjFilter@std@media@modules@UModSys@@USId@23456@@23@ABUCmp@123@ABU?$TTreeHoldRBD@U?$TScatterArrayNode@USFilter@RLibraryObjFilter@std@media@modules@UModSys@@USId@23456@@tl@UModSys@@U?$TNodeDeleter0@U?$TScatterArrayNode@USFilter@RLibraryObjFilter@std@media@modules@UModSys@@USId@23456@@tl@UModSys@@@23@@23@@Z 004052d0 f i umodsys_lib_libmedia:umodsys.mod.media.std.obj
 0001:00004340       ??1?$TRefObject@UIModObject@base@UModSys@@U?$TModObjectFunc@UIModObject@base@UModSys@@@tl@3@@tl@UModSys@@QAE@XZ 00405340 f i umodsys_lib_libmedia:umodsys.mod.media.std.obj
 0001:00004360       ?amoveright@?$TTypeConstructor@USLayerX@RLibraryLayered@std@media@modules@UModSys@@@tl@UModSys@@SAXPAUSLayerX@RLibraryLayered@std@media@modules@3@III@Z 00405360 f i umodsys_lib_libmedia:umodsys.mod.media.std.obj
 0001:000043e0       ?amoveleft@?$TTypeConstructor@USLayerX@RLibraryLayered@std@media@modules@UModSys@@@tl@UModSys@@SAXPAUSLayerX@RLibraryLayered@std@media@modules@3@III@Z 004053e0 f i umodsys_lib_libmedia:umodsys.mod.media.std.obj
 0001:00004460       ??0SLayerX@RLibraryLayered@std@media@modules@UModSys@@QAE@ABU012345@@Z 00405460 f i umodsys_lib_libmedia:umodsys.mod.media.std.obj
 0001:00004520       ??1SLayerX@RLibraryLayered@std@media@modules@UModSys@@QAE@XZ 00405520 f i umodsys_lib_libmedia:umodsys.mod.media.std.obj
 0001:000045b0       ??0?$TScatterArrayNode@USCacheElem@RLibraryBinCache@std@media@modules@UModSys@@U?$TString@U?$TSCoreConst@D@su@tl@UModSys@@U?$TComparerBinaryHash@D@234@@tl@6@@tl@UModSys@@QAE@ABU?$TString@U?$TSCoreConst@D@su@tl@UModSys@@U?$TComparerBinaryHash@D@234@@12@@Z 004055b0 f i umodsys_lib_libmedia:umodsys.mod.media.std.obj
 0001:00004640       ??0?$TScatterArrayNode@USMountInfo@RLibraryBinTree@std@media@modules@UModSys@@USId@ILibraryBinTree@libmedia@6@@tl@UModSys@@QAE@ABUSId@ILibraryBinTree@libmedia@2@@Z 00405640 f i umodsys_lib_libmedia:umodsys.mod.media.std.obj
 0001:000046e0       ??0?$TScatterArrayNode@USCacheElem@RLibraryObjCache@std@media@modules@UModSys@@U?$TString@U?$TSCoreConst@D@su@tl@UModSys@@U?$TComparerBinaryHash@D@234@@tl@6@@tl@UModSys@@QAE@ABU?$TString@U?$TSCoreConst@D@su@tl@UModSys@@U?$TComparerBinaryHash@D@234@@12@@Z 004056e0 f i umodsys_lib_libmedia:umodsys.mod.media.std.obj
 0001:00004770       ?aconstruct@?$TTypeConstructor@USLayerX@RLibraryLayered@std@media@modules@UModSys@@@tl@UModSys@@SAXPAUSLayerX@RLibraryLayered@std@media@modules@3@I@Z 00405770 f i umodsys_lib_libmedia:umodsys.mod.media.std.obj
 0001:000047f0       ??0SMountInfo@RLibraryBinTree@std@media@modules@UModSys@@QAE@ABU012345@@Z 004057f0 f i umodsys_lib_libmedia:umodsys.mod.media.std.obj
 0001:00004890       ??0SCacheElem@RLibraryBinCache@std@media@modules@UModSys@@QAE@ABU012345@@Z 00405890 f i umodsys_lib_libmedia:umodsys.mod.media.std.obj
 0001:00004900       ??0SCacheElem@RLibraryObjCache@std@media@modules@UModSys@@QAE@ABU012345@@Z 00405900 f i umodsys_lib_libmedia:umodsys.mod.media.std.obj
 0001:000049a0       ??$is_flag@U?$TFlags4StateShift@USMediaFlagUid@libmedia@UModSys@@I$00@tl@UModSys@@@SFlags@libmedia@UModSys@@QBE_NPBUIResolverAuto@012@W4eStates@?$TFlags4State@USMediaFlagUid@libmedia@UModSys@@I@tl@2@@Z 004059a0 f i umodsys_lib_libmedia:umodsys.mod.media.std.obj
 0001:00004a00       ??$is_flag@U?$TFlags4StateShift@USMediaFlagUid@libmedia@UModSys@@I$02@tl@UModSys@@@SFlags@libmedia@UModSys@@QBE_NPBUIResolverAuto@012@W4eStates@?$TFlags4State@USMediaFlagUid@libmedia@UModSys@@I@tl@2@@Z 00405a00 f i umodsys_lib_libmedia:umodsys.mod.media.std.obj
 0001:00004a60       ??$is_flag@U?$TFlags4StateShift@USMediaFlagUid@libmedia@UModSys@@I$03@tl@UModSys@@@SFlags@libmedia@UModSys@@QBE_NPBUIResolverAuto@012@W4eStates@?$TFlags4State@USMediaFlagUid@libmedia@UModSys@@I@tl@2@@Z 00405a60 f i umodsys_lib_libmedia:umodsys.mod.media.std.obj
 0001:00004ac0       ??$is_flag@U?$TFlags4StateShift@USMediaFlagUid@libmedia@UModSys@@I$05@tl@UModSys@@@SFlags@libmedia@UModSys@@QBE_NPBUIResolverAuto@012@W4eStates@?$TFlags4State@USMediaFlagUid@libmedia@UModSys@@I@tl@2@@Z 00405ac0 f i umodsys_lib_libmedia:umodsys.mod.media.std.obj
 0001:00004b20       ??$is_flag@U?$TFlags4StateShift@USMediaFlagUid@libmedia@UModSys@@I$06@tl@UModSys@@@SFlags@libmedia@UModSys@@QBE_NPBUIResolverAuto@012@W4eStates@?$TFlags4State@USMediaFlagUid@libmedia@UModSys@@I@tl@2@@Z 00405b20 f i umodsys_lib_libmedia:umodsys.mod.media.std.obj
 0001:00004b80       ??$is_flag@U?$TFlags4StateShift@USMediaFlagUid@libmedia@UModSys@@I$08@tl@UModSys@@@SFlags@libmedia@UModSys@@QBE_NPBUIResolverAuto@012@W4eStates@?$TFlags4State@USMediaFlagUid@libmedia@UModSys@@I@tl@2@@Z 00405b80 f i umodsys_lib_libmedia:umodsys.mod.media.std.obj
 0001:00004be0       ??$ValidateConstruction@UIRefObject@core@UModSys@@URMediaFilter@images_std@media@modules@3@@core@UModSys@@YA_NAAU?$TRefObject@UIRefObject@core@UModSys@@U?$TRefObjectFunc@UIRefObject@core@UModSys@@@tl@3@@tl@1@PAURMediaFilter@images_std@media@modules@1@@Z 00405be0 f i umodsys_lib_libmedia:umodsys.mod.media.images_std.obj
 0001:00004be0       ??$ValidateConstruction@UIRefObject@core@UModSys@@URLibraryLayered@std@media@modules@3@@core@UModSys@@YA_NAAU?$TRefObject@UIRefObject@core@UModSys@@U?$TRefObjectFunc@UIRefObject@core@UModSys@@@tl@3@@tl@1@PAURLibraryLayered@std@media@modules@1@@Z 00405be0 f i umodsys_lib_libmedia:umodsys.mod.media.std.obj
 0001:00004be0       ??$ValidateConstruction@UIRefObject@core@UModSys@@URDataArchiver_OsDir@stdio@media@modules@3@@core@UModSys@@YA_NAAU?$TRefObject@UIRefObject@core@UModSys@@U?$TRefObjectFunc@UIRefObject@core@UModSys@@@tl@3@@tl@1@PAURDataArchiver_OsDir@stdio@media@modules@1@@Z 00405be0 f i umodsys_lib_libmedia:umodsys.mod.media.stdio.obj
 0001:00004be0       ??$ValidateConstruction@UIRefObject@core@UModSys@@URLibraryBinTree@std@media@modules@3@@core@UModSys@@YA_NAAU?$TRefObject@UIRefObject@core@UModSys@@U?$TRefObjectFunc@UIRefObject@core@UModSys@@@tl@3@@tl@1@PAURLibraryBinTree@std@media@modules@1@@Z 00405be0 f i umodsys_lib_libmedia:umodsys.mod.media.std.obj
 0001:00004be0       ??$ValidateConstruction@UIRefObject@core@UModSys@@URLibraryObjFilter@std@media@modules@3@@core@UModSys@@YA_NAAU?$TRefObject@UIRefObject@core@UModSys@@U?$TRefObjectFunc@UIRefObject@core@UModSys@@@tl@3@@tl@1@PAURLibraryObjFilter@std@media@modules@1@@Z 00405be0 f i umodsys_lib_libmedia:umodsys.mod.media.std.obj
 0001:00004be0       ??$ValidateConstruction@UIRefObject@core@UModSys@@URLibraryBinCache@std@media@modules@3@@core@UModSys@@YA_NAAU?$TRefObject@UIRefObject@core@UModSys@@U?$TRefObjectFunc@UIRefObject@core@UModSys@@@tl@3@@tl@1@PAURLibraryBinCache@std@media@modules@1@@Z 00405be0 f i umodsys_lib_libmedia:umodsys.mod.media.std.obj
 0001:00004be0       ??$ValidateConstruction@UIRefObject@core@UModSys@@URLibraryObjCache@std@media@modules@3@@core@UModSys@@YA_NAAU?$TRefObject@UIRefObject@core@UModSys@@U?$TRefObjectFunc@UIRefObject@core@UModSys@@@tl@3@@tl@1@PAURLibraryObjCache@std@media@modules@1@@Z 00405be0 f i umodsys_lib_libmedia:umodsys.mod.media.std.obj
 0001:00004c60       ??$process_nodes_r@U?$TNodeDeleter0@U?$TScatterArrayNode@USCacheElem@RLibraryBinCache@std@media@modules@UModSys@@U?$TString@U?$TSCoreConst@D@su@tl@UModSys@@U?$TComparerBinaryHash@D@234@@tl@6@@tl@UModSys@@@tl@UModSys@@@?$TTreeHoldRB@U?$TScatterArrayNode@USCacheElem@RLibraryBinCache@std@media@modules@UModSys@@U?$TString@U?$TSCoreConst@D@su@tl@UModSys@@U?$TComparerBinaryHash@D@234@@tl@6@@tl@UModSys@@@tl@UModSys@@KAHPAU?$TScatterArrayNode@USCacheElem@RLibraryBinCache@std@media@modules@UModSys@@U?$TString@U?$TSCoreConst@D@su@tl@UModSys@@U?$TComparerBinaryHash@D@234@@tl@6@@12@ABU?$TNodeDeleter0@U?$TScatterArrayNode@USCacheElem@RLibraryBinCache@std@media@modules@UModSys@@U?$TString@U?$TSCoreConst@D@su@tl@UModSys@@U?$TComparerBinaryHash@D@234@@tl@6@@tl@UModSys@@@12@@Z 00405c60 f i umodsys_lib_libmedia:umodsys.mod.media.std.obj
 0001:00004cb0       ??$process_nodes_r@U?$TNodeDeleter0@U?$TScatterArrayNode@USMountInfo@RLibraryBinTree@std@media@modules@UModSys@@USId@ILibraryBinTree@libmedia@6@@tl@UModSys@@@tl@UModSys@@@?$TTreeHoldRB@U?$TScatterArrayNode@USMountInfo@RLibraryBinTree@std@media@modules@UModSys@@USId@ILibraryBinTree@libmedia@6@@tl@UModSys@@@tl@UModSys@@KAHPAU?$TScatterArrayNode@USMountInfo@RLibraryBinTree@std@media@modules@UModSys@@USId@ILibraryBinTree@libmedia@6@@12@ABU?$TNodeDeleter0@U?$TScatterArrayNode@USMountInfo@RLibraryBinTree@std@media@modules@UModSys@@USId@ILibraryBinTree@libmedia@6@@tl@UModSys@@@12@@Z 00405cb0 f i umodsys_lib_libmedia:umodsys.mod.media.std.obj
 0001:00004d00       ??$process_nodes_r@U?$TNodeDeleter0@U?$TScatterArrayNode@USCacheElem@RLibraryObjCache@std@media@modules@UModSys@@U?$TString@U?$TSCoreConst@D@su@tl@UModSys@@U?$TComparerBinaryHash@D@234@@tl@6@@tl@UModSys@@@tl@UModSys@@@?$TTreeHoldRB@U?$TScatterArrayNode@USCacheElem@RLibraryObjCache@std@media@modules@UModSys@@U?$TString@U?$TSCoreConst@D@su@tl@UModSys@@U?$TComparerBinaryHash@D@234@@tl@6@@tl@UModSys@@@tl@UModSys@@KAHPAU?$TScatterArrayNode@USCacheElem@RLibraryObjCache@std@media@modules@UModSys@@U?$TString@U?$TSCoreConst@D@su@tl@UModSys@@U?$TComparerBinaryHash@D@234@@tl@6@@12@ABU?$TNodeDeleter0@U?$TScatterArrayNode@USCacheElem@RLibraryObjCache@std@media@modules@UModSys@@U?$TString@U?$TSCoreConst@D@su@tl@UModSys@@U?$TComparerBinaryHash@D@234@@tl@6@@tl@UModSys@@@12@@Z 00405d00 f i umodsys_lib_libmedia:umodsys.mod.media.std.obj
 0001:00004d50       ??$process_nodes_r@U?$TNodeDeleter0@U?$TScatterArrayNode@USFilter@RLibraryObjFilter@std@media@modules@UModSys@@USId@23456@@tl@UModSys@@@tl@UModSys@@@?$TTreeHoldRB@U?$TScatterArrayNode@USFilter@RLibraryObjFilter@std@media@modules@UModSys@@USId@23456@@tl@UModSys@@@tl@UModSys@@KAHPAU?$TScatterArrayNode@USFilter@RLibraryObjFilter@std@media@modules@UModSys@@USId@23456@@12@ABU?$TNodeDeleter0@U?$TScatterArrayNode@USFilter@RLibraryObjFilter@std@media@modules@UModSys@@USId@23456@@tl@UModSys@@@12@@Z 00405d50 f i umodsys_lib_libmedia:umodsys.mod.media.std.obj
 0001:00004db0       ?alloc@SMemShared@core@UModSys@@QAE_NIPAUSSourceContext@23@@Z 00405db0 f i umodsys_lib_libmedia:umodsys.mod.media.images_std.obj
 0001:00004df0       ?get@SMemShared@core@UModSys@@QBE?AUSMem@23@XZ 00405df0 f i umodsys_lib_libmedia:umodsys.mod.media.images_std.obj
 0001:00004e40       ?get@SParameters@core@UModSys@@QBE_NPBDAA_N@Z 00405e40 f i umodsys_lib_libmedia:umodsys.mod.media.images_std.obj
 0001:00004e80       ?is_extension_nocase@libmedia@UModSys@@YA_NABU?$TString@U?$TSCoreConst@D@su@tl@UModSys@@U?$TComparerBinaryHash@D@234@@tl@2@0@Z 00405e80 f i umodsys_lib_libmedia:umodsys.mod.media.images_std.obj
 0001:00004eb0       ?root_get_interface_info@RMediaFilter@images_std@media@modules@UModSys@@UBEABUSUniquePointerInfo@core@5@XZ 00405eb0 f i umodsys_lib_libmedia:umodsys.mod.media.images_std.obj
 0001:00004ec0       ?root_get_interface_type@RMediaFilter@images_std@media@modules@UModSys@@UBEPBUSUniquePointerInfo@core@5@XZ 00405ec0 f i umodsys_lib_libmedia:umodsys.mod.media.images_std.obj
 0001:00004ed0       ?root_get_other_interface@RMediaFilter@images_std@media@modules@UModSys@@UBEPBUIRoot@core@5@PBUSUniquePointerInfo@75@@Z 00405ed0 f i umodsys_lib_libmedia:umodsys.mod.media.images_std.obj
 0001:00004ed0       ?root_get_other_interface@RMediaFilter@images_std@media@modules@UModSys@@UAEPAUIRoot@core@5@PBUSUniquePointerInfo@75@@Z 00405ed0 f i umodsys_lib_libmedia:umodsys.mod.media.images_std.obj
 0001:00004f00       ?root_is_interface_supported@RMediaFilter@images_std@media@modules@UModSys@@UBE_NPBUSUniquePointerInfo@core@5@@Z 00405f00 f i umodsys_lib_libmedia:umodsys.mod.media.images_std.obj
 0001:00004f40       ?get_flag@RMediaFilter@images_std@media@modules@UModSys@@UBE?AW4eStates@?$TFlags4State@USMediaFlagUid@libmedia@UModSys@@I@tl@5@H@Z 00405f40 f i umodsys_lib_libmedia:umodsys.mod.media.images_std.obj
 0001:00004f60       ?get_flags_auto@RMediaFilter@images_std@media@modules@UModSys@@UBE?AU?$TFlags4State@USMediaFlagUid@libmedia@UModSys@@I@tl@5@XZ 00405f60 f i umodsys_lib_libmedia:umodsys.mod.media.images_std.obj
 0001:00004f70       ?set_flag@RMediaFilter@images_std@media@modules@UModSys@@UAE?AW4eStates@?$TFlags4State@USMediaFlagUid@libmedia@UModSys@@I@tl@5@HW46785@@Z 00405f70 f i umodsys_lib_libmedia:umodsys.mod.media.images_std.obj
 0001:00004fa0       ??0RMediaFilter@images_std@media@modules@UModSys@@QAE@PAUIModObject@base@4@ABUSParameters@core@4@@Z 00405fa0 f i umodsys_lib_libmedia:umodsys.mod.media.images_std.obj
 0001:00005070       ??1RMediaFilter@images_std@media@modules@UModSys@@UAE@XZ 00406070 f i umodsys_lib_libmedia:umodsys.mod.media.images_std.obj
 0001:000050e0       ??_GRMediaFilter@images_std@media@modules@UModSys@@UAEPAXI@Z 004060e0 f i umodsys_lib_libmedia:umodsys.mod.media.images_std.obj
 0001:000050e0       ??_ERMediaFilter@images_std@media@modules@UModSys@@UAEPAXI@Z 004060e0 f i  CIL library: CIL module
 0001:00005100       ??1IStreamReader@libmedia@UModSys@@UAE@XZ 00406100 f i umodsys_lib_libmedia:umodsys.mod.media.stdio.obj
 0001:00005100       ??1ILibraryObjCache@libmedia@UModSys@@UAE@XZ 00406100 f i umodsys_lib_libmedia:umodsys.mod.media.std.obj
 0001:00005100       ??1ILibraryBinTree@libmedia@UModSys@@UAE@XZ 00406100 f i umodsys_lib_libmedia:umodsys.mod.media.std.obj
 0001:00005100       ??1IStreamWriter@libmedia@UModSys@@UAE@XZ 00406100 f i umodsys_lib_libmedia:umodsys.mod.media.stdio.obj
 0001:00005100       ??1IBinArchive@libmedia@UModSys@@UAE@XZ 00406100 f i umodsys_lib_libmedia:umodsys.mod.media.stdio.obj
 0001:00005100       ??1ILibraryBinCache@libmedia@UModSys@@UAE@XZ 00406100 f i umodsys_lib_libmedia:umodsys.mod.media.std.obj
 0001:00005100       ??1IBinObjFilter@libmedia@UModSys@@UAE@XZ 00406100 f i umodsys_lib_libmedia:umodsys.mod.media.images_std.obj
 0001:00005100       ??1ILibraryObjFilter@libmedia@UModSys@@UAE@XZ 00406100 f i umodsys_lib_libmedia:umodsys.mod.media.std.obj
 0001:00005100       ??1ILibraryLayered@libmedia@UModSys@@UAE@XZ 00406100 f i umodsys_lib_libmedia:umodsys.mod.media.std.obj
 0001:00005110       ?get_generated_names@RGenerator@images_std@media@modules@UModSys@@UBEHAAUSUniquePtrList@core@5@@Z 00406110 f i umodsys_lib_libmedia:umodsys.mod.media.images_std.obj
 0001:00005130       ?get_generated_types@RGenerator@images_std@media@modules@UModSys@@UBEHAAUSUniquePtrList@core@5@PBUSUniquePointerInfo@75@@Z 00406130 f i umodsys_lib_libmedia:umodsys.mod.media.images_std.obj
 0001:00005180       ?generate@RGenerator@images_std@media@modules@UModSys@@UAE_NAAU?$TRefObject@UIRefObject@core@UModSys@@U?$TRefObjectFunc@UIRefObject@core@UModSys@@@tl@3@@tl@5@PBUSUniquePointerInfo@core@5@ABUSParameters@95@@Z 00406180 f i umodsys_lib_libmedia:umodsys.mod.media.images_std.obj
 0001:000051b0       ?root_get_interface_info@RGenerator@images_std@media@modules@UModSys@@UBEABUSUniquePointerInfo@core@5@XZ 004061b0 f i umodsys_lib_libmedia:umodsys.mod.media.images_std.obj
 0001:000051c0       ?root_get_interface_type@RGenerator@images_std@media@modules@UModSys@@UBEPBUSUniquePointerInfo@core@5@XZ 004061c0 f i umodsys_lib_libmedia:umodsys.mod.media.images_std.obj
 0001:000051d0       ?root_get_other_interface@RGenerator@images_std@media@modules@UModSys@@UBEPBUIRoot@core@5@PBUSUniquePointerInfo@75@@Z 004061d0 f i umodsys_lib_libmedia:umodsys.mod.media.images_std.obj
 0001:000051d0       ?root_get_other_interface@RGenerator@images_std@media@modules@UModSys@@UAEPAUIRoot@core@5@PBUSUniquePointerInfo@75@@Z 004061d0 f i umodsys_lib_libmedia:umodsys.mod.media.images_std.obj
 0001:00005210       ?root_is_interface_supported@RGenerator@images_std@media@modules@UModSys@@UBE_NPBUSUniquePointerInfo@core@5@@Z 00406210 f i umodsys_lib_libmedia:umodsys.mod.media.images_std.obj
 0001:00005250       ?ref_add@RGenerator@stdio@media@modules@UModSys@@UBEXXZ 00406250 f i umodsys_lib_libmedia:umodsys.mod.media.stdio.obj
 0001:00005250       ?ref_add@RGenerator@std@media@modules@UModSys@@UBEXXZ 00406250 f i umodsys_lib_libmedia:umodsys.mod.media.std.obj
 0001:00005250       ?ref_add@RStreamReader_FILE@stdio@media@modules@UModSys@@UBEXXZ 00406250 f i umodsys_lib_libmedia:umodsys.mod.media.stdio.obj
 0001:00005250       ?ref_add@RStreamWriter_FILE@stdio@media@modules@UModSys@@UBEXXZ 00406250 f i umodsys_lib_libmedia:umodsys.mod.media.stdio.obj
 0001:00005250       ?ref_add@RGenerator@images_std@media@modules@UModSys@@UBEXXZ 00406250 f i umodsys_lib_libmedia:umodsys.mod.media.images_std.obj
 0001:00005260       ?get_uid@RGenerator@images_std@media@modules@UModSys@@UBEPBUSUniquePointerInfo@core@5@XZ 00406260 f i umodsys_lib_libmedia:umodsys.mod.media.images_std.obj
 0001:00005270       ?do_open@RModuleReg@images_std@media@modules@UModSys@@UAE_NXZ 00406270 f i umodsys_lib_libmedia:umodsys.mod.media.images_std.obj
 0001:00005280       ?do_close@RModuleReg@images_std@media@modules@UModSys@@UAE_NXZ 00406280 f i umodsys_lib_libmedia:umodsys.mod.media.images_std.obj
 0001:00005290       ??_GRModuleReg@images_std@media@modules@UModSys@@UAEPAXI@Z 00406290 f i umodsys_lib_libmedia:umodsys.mod.media.images_std.obj
 0001:00005290       ??_ERModuleReg@images_std@media@modules@UModSys@@UAEPAXI@Z 00406290 f i  CIL library: CIL module
 0001:000052c0       ??$t_gen_param@URMediaFilter@images_std@media@modules@UModSys@@URGenerator@2345@@IGenerator@base@UModSys@@IAE_NPAURGenerator@images_std@media@modules@2@AAU?$TRefObject@UIRefObject@core@UModSys@@U?$TRefObjectFunc@UIRefObject@core@UModSys@@@tl@3@@tl@2@PBUSUniquePointerInfo@core@2@ABUSParameters@core@2@@Z 004062c0 f i umodsys_lib_libmedia:umodsys.mod.media.images_std.obj
 0001:00005330       ?archive_load_data@libmedia@UModSys@@YA_NAAUIBinArchive@12@ABU?$TString@U?$TSCoreConst@D@su@tl@UModSys@@U?$TComparerBinaryHash@D@234@@tl@2@AAUSCMemShared@core@2@ABUSFlags@12@@Z 00406330 f i umodsys_lib_libmedia:umodsys.mod.media.stdio.obj
 0001:00005510       ?archive_save_data@libmedia@UModSys@@YA_NAAUIBinArchive@12@ABU?$TString@U?$TSCoreConst@D@su@tl@UModSys@@U?$TComparerBinaryHash@D@234@@tl@2@ABUSCMem@core@2@ABUSFlags@12@@Z 00406510 f i umodsys_lib_libmedia:umodsys.mod.media.stdio.obj
 0001:000055c0       ?file_get_size@stdio@media@modules@UModSys@@YA_JPAU_iobuf@@@Z 004065c0 f i umodsys_lib_libmedia:umodsys.mod.media.stdio.obj
 0001:00005610       ?root_get_interface_info@RStreamReader_FILE@stdio@media@modules@UModSys@@UBEABUSUniquePointerInfo@core@5@XZ 00406610 f i umodsys_lib_libmedia:umodsys.mod.media.stdio.obj
 0001:00005620       ?root_get_interface_type@RStreamReader_FILE@stdio@media@modules@UModSys@@UBEPBUSUniquePointerInfo@core@5@XZ 00406620 f i umodsys_lib_libmedia:umodsys.mod.media.stdio.obj
 0001:00005630       ?root_get_other_interface@RStreamReader_FILE@stdio@media@modules@UModSys@@UAEPAUIRoot@core@5@PBUSUniquePointerInfo@75@@Z 00406630 f i umodsys_lib_libmedia:umodsys.mod.media.stdio.obj
 0001:00005630       ?root_get_other_interface@RStreamReader_FILE@stdio@media@modules@UModSys@@UBEPBUIRoot@core@5@PBUSUniquePointerInfo@75@@Z 00406630 f i umodsys_lib_libmedia:umodsys.mod.media.stdio.obj
 0001:00005660       ?root_is_interface_supported@RStreamReader_FILE@stdio@media@modules@UModSys@@UBE_NPBUSUniquePointerInfo@core@5@@Z 00406660 f i umodsys_lib_libmedia:umodsys.mod.media.stdio.obj
 0001:000056a0       ??0RStreamReader_FILE@stdio@media@modules@UModSys@@QAE@PAUIModObject@base@4@ABUSParameters@core@4@@Z 004066a0 f i umodsys_lib_libmedia:umodsys.mod.media.stdio.obj
 0001:00005750       ??0RStreamReader_FILE@stdio@media@modules@UModSys@@QAE@PAUIModObject@base@4@PBD@Z 00406750 f i umodsys_lib_libmedia:umodsys.mod.media.stdio.obj
 0001:000057e0       ?get_size@RStreamReader_FILE@stdio@media@modules@UModSys@@QAEXXZ 004067e0 f i umodsys_lib_libmedia:umodsys.mod.media.stdio.obj
 0001:00005850       ?reader_seek@RStreamReader_FILE@stdio@media@modules@UModSys@@UAE_N_J@Z 00406850 f i umodsys_lib_libmedia:umodsys.mod.media.stdio.obj
 0001:00005880       ?reader_seekend@RStreamReader_FILE@stdio@media@modules@UModSys@@UAE_N_J@Z 00406880 f i umodsys_lib_libmedia:umodsys.mod.media.stdio.obj
 0001:000058b0       ?reader_seekdelta@RStreamReader_FILE@stdio@media@modules@UModSys@@UAE_N_J@Z 004068b0 f i umodsys_lib_libmedia:umodsys.mod.media.stdio.obj
 0001:000058e0       ?reader_pos@RStreamReader_FILE@stdio@media@modules@UModSys@@UAE_JXZ 004068e0 f i umodsys_lib_libmedia:umodsys.mod.media.stdio.obj
 0001:00005900       ?reader_size@RStreamReader_FILE@stdio@media@modules@UModSys@@UAE_JXZ 00406900 f i umodsys_lib_libmedia:umodsys.mod.media.stdio.obj
 0001:00005910       ?reader_read@RStreamReader_FILE@stdio@media@modules@UModSys@@UAE_NPAXI@Z 00406910 f i umodsys_lib_libmedia:umodsys.mod.media.stdio.obj
 0001:00005990       ?reader_close@RStreamReader_FILE@stdio@media@modules@UModSys@@UAEXXZ 00406990 f i umodsys_lib_libmedia:umodsys.mod.media.stdio.obj
 0001:000059b0       ??_GRStreamReader_FILE@stdio@media@modules@UModSys@@UAEPAXI@Z 004069b0 f i umodsys_lib_libmedia:umodsys.mod.media.stdio.obj
 0001:000059b0       ??_ERStreamReader_FILE@stdio@media@modules@UModSys@@UAEPAXI@Z 004069b0 f i  CIL library: CIL module
 0001:000059f0       ?root_get_interface_info@RStreamWriter_FILE@stdio@media@modules@UModSys@@UBEABUSUniquePointerInfo@core@5@XZ 004069f0 f i umodsys_lib_libmedia:umodsys.mod.media.stdio.obj
 0001:00005a00       ?root_get_interface_type@RStreamWriter_FILE@stdio@media@modules@UModSys@@UBEPBUSUniquePointerInfo@core@5@XZ 00406a00 f i umodsys_lib_libmedia:umodsys.mod.media.stdio.obj
 0001:00005a10       ?root_get_other_interface@RStreamWriter_FILE@stdio@media@modules@UModSys@@UBEPBUIRoot@core@5@PBUSUniquePointerInfo@75@@Z 00406a10 f i umodsys_lib_libmedia:umodsys.mod.media.stdio.obj
 0001:00005a10       ?root_get_other_interface@RStreamWriter_FILE@stdio@media@modules@UModSys@@UAEPAUIRoot@core@5@PBUSUniquePointerInfo@75@@Z 00406a10 f i umodsys_lib_libmedia:umodsys.mod.media.stdio.obj
 0001:00005a40       ?root_is_interface_supported@RStreamWriter_FILE@stdio@media@modules@UModSys@@UBE_NPBUSUniquePointerInfo@core@5@@Z 00406a40 f i umodsys_lib_libmedia:umodsys.mod.media.stdio.obj
 0001:00005a80       ?suicide@RStreamReader_FILE@stdio@media@modules@UModSys@@UAEXXZ 00406a80 f i umodsys_lib_libmedia:umodsys.mod.media.stdio.obj
 0001:00005a80       ?suicide@RStreamWriter_FILE@stdio@media@modules@UModSys@@UAEXXZ 00406a80 f i umodsys_lib_libmedia:umodsys.mod.media.stdio.obj
 0001:00005a90       ??1RStreamWriter_FILE@stdio@media@modules@UModSys@@UAE@XZ 00406a90 f i umodsys_lib_libmedia:umodsys.mod.media.stdio.obj
 0001:00005b00       ??0RStreamWriter_FILE@stdio@media@modules@UModSys@@QAE@PAUIModObject@base@4@ABUSParameters@core@4@@Z 00406b00 f i umodsys_lib_libmedia:umodsys.mod.media.stdio.obj
 0001:00005b80       ??0RStreamWriter_FILE@stdio@media@modules@UModSys@@QAE@PAUIModObject@base@4@PBD_N@Z 00406b80 f i umodsys_lib_libmedia:umodsys.mod.media.stdio.obj
 0001:00005c40       ?open@RStreamWriter_FILE@stdio@media@modules@UModSys@@QAEXABUSParameters@core@5@@Z 00406c40 f i umodsys_lib_libmedia:umodsys.mod.media.stdio.obj
 0001:00005cd0       ?writer_seek@RStreamWriter_FILE@stdio@media@modules@UModSys@@UAE_N_J@Z 00406cd0 f i umodsys_lib_libmedia:umodsys.mod.media.stdio.obj
 0001:00005d00       ?writer_seekend@RStreamWriter_FILE@stdio@media@modules@UModSys@@UAE_N_J@Z 00406d00 f i umodsys_lib_libmedia:umodsys.mod.media.stdio.obj
 0001:00005d30       ?writer_seekdelta@RStreamWriter_FILE@stdio@media@modules@UModSys@@UAE_N_J@Z 00406d30 f i umodsys_lib_libmedia:umodsys.mod.media.stdio.obj
 0001:00005d60       ?writer_setsize@RStreamWriter_FILE@stdio@media@modules@UModSys@@UAE_N_J@Z 00406d60 f i umodsys_lib_libmedia:umodsys.mod.media.stdio.obj
 0001:00005db0       ?writer_pos@RStreamWriter_FILE@stdio@media@modules@UModSys@@UAE_JXZ 00406db0 f i umodsys_lib_libmedia:umodsys.mod.media.stdio.obj
 0001:00005dd0       ?writer_size@RStreamWriter_FILE@stdio@media@modules@UModSys@@UAE_JXZ 00406dd0 f i umodsys_lib_libmedia:umodsys.mod.media.stdio.obj
 0001:00005e00       ?writer_write@RStreamWriter_FILE@stdio@media@modules@UModSys@@UAE_NPBXI@Z 00406e00 f i umodsys_lib_libmedia:umodsys.mod.media.stdio.obj
 0001:00005e80       ?writer_copy@RStreamWriter_FILE@stdio@media@modules@UModSys@@UAE_NPAUIStreamReader@libmedia@5@_J@Z 00406e80 f i umodsys_lib_libmedia:umodsys.mod.media.stdio.obj
 0001:00005f50       ?writer_copy@RStreamWriter_FILE@stdio@media@modules@UModSys@@UAE_NPAUIStreamReader@libmedia@5@_J1@Z 00406f50 f i umodsys_lib_libmedia:umodsys.mod.media.stdio.obj
 0001:00005fa0       ?writer_close@RStreamWriter_FILE@stdio@media@modules@UModSys@@UAEXXZ 00406fa0 f i umodsys_lib_libmedia:umodsys.mod.media.stdio.obj
 0001:00005fe0       ?writer_abort@RStreamWriter_FILE@stdio@media@modules@UModSys@@UAEXXZ 00406fe0 f i umodsys_lib_libmedia:umodsys.mod.media.stdio.obj
 0001:00006020       ??_ERStreamWriter_FILE@stdio@media@modules@UModSys@@UAEPAXI@Z 00407020 f i  CIL library: CIL module
 0001:00006020       ??_GRStreamWriter_FILE@stdio@media@modules@UModSys@@UAEPAXI@Z 00407020 f i umodsys_lib_libmedia:umodsys.mod.media.stdio.obj
 0001:00006040       ?root_get_interface_info@RDataArchiver_OsDir@stdio@media@modules@UModSys@@UBEABUSUniquePointerInfo@core@5@XZ 00407040 f i umodsys_lib_libmedia:umodsys.mod.media.stdio.obj
 0001:00006050       ?root_get_interface_type@RDataArchiver_OsDir@stdio@media@modules@UModSys@@UBEPBUSUniquePointerInfo@core@5@XZ 00407050 f i umodsys_lib_libmedia:umodsys.mod.media.stdio.obj
 0001:00006060       ?root_get_other_interface@RDataArchiver_OsDir@stdio@media@modules@UModSys@@UAEPAUIRoot@core@5@PBUSUniquePointerInfo@75@@Z 00407060 f i umodsys_lib_libmedia:umodsys.mod.media.stdio.obj
 0001:00006060       ?root_get_other_interface@RDataArchiver_OsDir@stdio@media@modules@UModSys@@UBEPBUIRoot@core@5@PBUSUniquePointerInfo@75@@Z 00407060 f i umodsys_lib_libmedia:umodsys.mod.media.stdio.obj
 0001:00006090       ?root_is_interface_supported@RDataArchiver_OsDir@stdio@media@modules@UModSys@@UBE_NPBUSUniquePointerInfo@core@5@@Z 00407090 f i umodsys_lib_libmedia:umodsys.mod.media.stdio.obj
 0001:000060d0       ??0RDataArchiver_OsDir@stdio@media@modules@UModSys@@QAE@PAUIModObject@base@4@ABUSParameters@core@4@U?$TFlags4State@USMediaFlagUid@libmedia@UModSys@@I@tl@4@@Z 004070d0 f i umodsys_lib_libmedia:umodsys.mod.media.stdio.obj
 0001:00006170       ??1RDataArchiver_OsDir@stdio@media@modules@UModSys@@UAE@XZ 00407170 f i umodsys_lib_libmedia:umodsys.mod.media.stdio.obj
 0001:000061f0       ?open@RDataArchiver_OsDir@stdio@media@modules@UModSys@@QAEXABUSParameters@core@5@@Z 004071f0 f i umodsys_lib_libmedia:umodsys.mod.media.stdio.obj
 0001:000062b0       ?get_flag@RDataArchiver_OsDir@stdio@media@modules@UModSys@@UBE?AW4eStates@?$TFlags4State@USMediaFlagUid@libmedia@UModSys@@I@tl@5@H@Z 004072b0 f i umodsys_lib_libmedia:umodsys.mod.media.stdio.obj
 0001:000062d0       ?get_flags_auto@RDataArchiver_OsDir@stdio@media@modules@UModSys@@UBE?AU?$TFlags4State@USMediaFlagUid@libmedia@UModSys@@I@tl@5@XZ 004072d0 f i umodsys_lib_libmedia:umodsys.mod.media.stdio.obj
 0001:000062e0       ?set_flag@RDataArchiver_OsDir@stdio@media@modules@UModSys@@UAE?AW4eStates@?$TFlags4State@USMediaFlagUid@libmedia@UModSys@@I@tl@5@HW46785@@Z 004072e0 f i umodsys_lib_libmedia:umodsys.mod.media.stdio.obj
 0001:00006310       ?data_load@RDataArchiver_OsDir@stdio@media@modules@UModSys@@UAE_NABU?$TString@U?$TSCoreConst@D@su@tl@UModSys@@U?$TComparerBinaryHash@D@234@@tl@5@AAUSCMemShared@core@5@ABUSFlags@libmedia@5@@Z 00407310 f i umodsys_lib_libmedia:umodsys.mod.media.stdio.obj
 0001:00006350       ?data_save@RDataArchiver_OsDir@stdio@media@modules@UModSys@@UAE_NABU?$TString@U?$TSCoreConst@D@su@tl@UModSys@@U?$TComparerBinaryHash@D@234@@tl@5@ABUSCMem@core@5@ABUSFlags@libmedia@5@@Z 00407350 f i umodsys_lib_libmedia:umodsys.mod.media.stdio.obj
 0001:00006370       ?data_reader@RDataArchiver_OsDir@stdio@media@modules@UModSys@@UAE?AU?$TRefObject@UIStreamReader@libmedia@UModSys@@U?$TRefObjectFunc@UIStreamReader@libmedia@UModSys@@@tl@3@@tl@5@ABU?$TString@U?$TSCoreConst@D@su@tl@UModSys@@U?$TComparerBinaryHash@D@234@@75@ABUSFlags@libmedia@5@@Z 00407370 f i umodsys_lib_libmedia:umodsys.mod.media.stdio.obj
 0001:000064e0       ?data_writer@RDataArchiver_OsDir@stdio@media@modules@UModSys@@UAE?AU?$TRefObject@UIStreamWriter@libmedia@UModSys@@U?$TRefObjectFunc@UIStreamWriter@libmedia@UModSys@@@tl@3@@tl@5@ABU?$TString@U?$TSCoreConst@D@su@tl@UModSys@@U?$TComparerBinaryHash@D@234@@75@ABUSFlags@libmedia@5@@Z 004074e0 f i umodsys_lib_libmedia:umodsys.mod.media.stdio.obj
 0001:00006670       ?data_list@RDataArchiver_OsDir@stdio@media@modules@UModSys@@UAE_NABU?$TString@U?$TSCoreConst@D@su@tl@UModSys@@U?$TComparerBinaryHash@D@234@@tl@5@AAU?$TIStackSocket@USFileInfo@libmedia@UModSys@@@75@ABUSFlags@libmedia@5@@Z 00407670 f i umodsys_lib_libmedia:umodsys.mod.media.stdio.obj
 0001:000066c0       ?get_permissions@RDataArchiver_OsDir@stdio@media@modules@UModSys@@UAEHXZ 004076c0 f i umodsys_lib_libmedia:umodsys.mod.media.stdio.obj
 0001:000066d0       ??_GRDataArchiver_OsDir@stdio@media@modules@UModSys@@UAEPAXI@Z 004076d0 f i umodsys_lib_libmedia:umodsys.mod.media.stdio.obj
 0001:000066d0       ??_ERDataArchiver_OsDir@stdio@media@modules@UModSys@@UAEPAXI@Z 004076d0 f i  CIL library: CIL module
 0001:000066f0       ?get_generated_names@RGenerator@stdio@media@modules@UModSys@@UBEHAAUSUniquePtrList@core@5@@Z 004076f0 f i umodsys_lib_libmedia:umodsys.mod.media.stdio.obj
 0001:00006730       ?get_generated_types@RGenerator@stdio@media@modules@UModSys@@UBEHAAUSUniquePtrList@core@5@PBUSUniquePointerInfo@75@@Z 00407730 f i umodsys_lib_libmedia:umodsys.mod.media.stdio.obj
 0001:000067b0       ?generate@RGenerator@stdio@media@modules@UModSys@@UAE_NAAU?$TRefObject@UIRefObject@core@UModSys@@U?$TRefObjectFunc@UIRefObject@core@UModSys@@@tl@3@@tl@5@PBUSUniquePointerInfo@core@5@ABUSParameters@95@@Z 004077b0 f i umodsys_lib_libmedia:umodsys.mod.media.stdio.obj
 0001:00006810       ?root_get_interface_info@RGenerator@stdio@media@modules@UModSys@@UBEABUSUniquePointerInfo@core@5@XZ 00407810 f i umodsys_lib_libmedia:umodsys.mod.media.stdio.obj
 0001:00006820       ?root_get_interface_type@RGenerator@stdio@media@modules@UModSys@@UBEPBUSUniquePointerInfo@core@5@XZ 00407820 f i umodsys_lib_libmedia:umodsys.mod.media.stdio.obj
 0001:00006830       ?root_get_other_interface@RGenerator@stdio@media@modules@UModSys@@UBEPBUIRoot@core@5@PBUSUniquePointerInfo@75@@Z 00407830 f i umodsys_lib_libmedia:umodsys.mod.media.stdio.obj
 0001:00006830       ?root_get_other_interface@RGenerator@stdio@media@modules@UModSys@@UAEPAUIRoot@core@5@PBUSUniquePointerInfo@75@@Z 00407830 f i umodsys_lib_libmedia:umodsys.mod.media.stdio.obj
 0001:00006870       ?root_is_interface_supported@RGenerator@stdio@media@modules@UModSys@@UBE_NPBUSUniquePointerInfo@core@5@@Z 00407870 f i umodsys_lib_libmedia:umodsys.mod.media.stdio.obj
 0001:000068b0       ?ref_remove@RStreamWriter_FILE@stdio@media@modules@UModSys@@UBEXXZ 004078b0 f i umodsys_lib_libmedia:umodsys.mod.media.stdio.obj
 0001:000068b0       ?ref_remove@RStreamReader_FILE@stdio@media@modules@UModSys@@UBEXXZ 004078b0 f i umodsys_lib_libmedia:umodsys.mod.media.stdio.obj
 0001:000068b0       ?ref_remove@RGenerator@std@media@modules@UModSys@@UBEXXZ 004078b0 f i umodsys_lib_libmedia:umodsys.mod.media.std.obj
 0001:000068b0       ?ref_remove@RGenerator@stdio@media@modules@UModSys@@UBEXXZ 004078b0 f i umodsys_lib_libmedia:umodsys.mod.media.stdio.obj
 0001:000068b0       ?ref_remove@RGenerator@images_std@media@modules@UModSys@@UBEXXZ 004078b0 f i umodsys_lib_libmedia:umodsys.mod.media.images_std.obj
 0001:000068c0       ??3@YAXPAX0@Z              004078c0 f i umodsys_lib_libmedia:umodsys.mod.media.std.obj
 0001:000068c0       ?suicide@RGenerator@images_std@media@modules@UModSys@@UAEXXZ 004078c0 f i umodsys_lib_libmedia:umodsys.mod.media.images_std.obj
 0001:000068c0       ?suicide@RGenerator@stdio@media@modules@UModSys@@UAEXXZ 004078c0 f i umodsys_lib_libmedia:umodsys.mod.media.stdio.obj
 0001:000068c0       ?suicide@RGenerator@std@media@modules@UModSys@@UAEXXZ 004078c0 f i umodsys_lib_libmedia:umodsys.mod.media.std.obj
 0001:000068d0       ?get_uid@RGenerator@stdio@media@modules@UModSys@@UBEPBUSUniquePointerInfo@core@5@XZ 004078d0 f i umodsys_lib_libmedia:umodsys.mod.media.stdio.obj
 0001:000068e0       ?do_open@RModuleReg@stdio@media@modules@UModSys@@UAE_NXZ 004078e0 f i umodsys_lib_libmedia:umodsys.mod.media.stdio.obj
 0001:000068f0       ?do_close@RModuleReg@stdio@media@modules@UModSys@@UAE_NXZ 004078f0 f i umodsys_lib_libmedia:umodsys.mod.media.stdio.obj
 0001:00006900       ??_ERModuleReg@stdio@media@modules@UModSys@@UAEPAXI@Z 00407900 f i  CIL library: CIL module
 0001:00006900       ??_GRModuleReg@stdio@media@modules@UModSys@@UAEPAXI@Z 00407900 f i umodsys_lib_libmedia:umodsys.mod.media.stdio.obj
 0001:00006930       ?obj_delete@?$TRefObjectLinksModObject@URLibraryLayered@std@media@modules@UModSys@@UIModObject@base@5@@tl@UModSys@@QBEXPAURLibraryLayered@std@media@modules@3@@Z 00407930 f i umodsys_lib_libmedia:umodsys.mod.media.std.obj
 0001:00006930       ?obj_delete@?$TRefObjectLinksModObject@URLibraryObjFilter@std@media@modules@UModSys@@UIModObject@base@5@@tl@UModSys@@QBEXPAURLibraryObjFilter@std@media@modules@3@@Z 00407930 f i umodsys_lib_libmedia:umodsys.mod.media.std.obj
 0001:00006930       ?obj_delete@?$TRefObjectLinksModObject@URStreamWriter_FILE@stdio@media@modules@UModSys@@UIModObject@base@5@@tl@UModSys@@QBEXPAURStreamWriter_FILE@stdio@media@modules@3@@Z 00407930 f i umodsys_lib_libmedia:umodsys.mod.media.stdio.obj
 0001:00006930       ?obj_delete@?$TRefObjectLinksModObject@URMediaFilter@images_std@media@modules@UModSys@@UIModObject@base@5@@tl@UModSys@@QBEXPAURMediaFilter@images_std@media@modules@3@@Z 00407930 f i umodsys_lib_libmedia:umodsys.mod.media.images_std.obj
 0001:00006930       ?obj_delete@?$TRefObjectLinksModObject@URDataArchiver_OsDir@stdio@media@modules@UModSys@@UIModObject@base@5@@tl@UModSys@@QBEXPAURDataArchiver_OsDir@stdio@media@modules@3@@Z 00407930 f i umodsys_lib_libmedia:umodsys.mod.media.stdio.obj
 0001:00006930       ?obj_delete@?$TRefObjectLinksModObject@URLibraryBinTree@std@media@modules@UModSys@@UIModObject@base@5@@tl@UModSys@@QBEXPAURLibraryBinTree@std@media@modules@3@@Z 00407930 f i umodsys_lib_libmedia:umodsys.mod.media.std.obj
 0001:00006930       ?obj_delete@?$TRefObjectLinksModObject@URLibraryObjCache@std@media@modules@UModSys@@UIModObject@base@5@@tl@UModSys@@QBEXPAURLibraryObjCache@std@media@modules@3@@Z 00407930 f i umodsys_lib_libmedia:umodsys.mod.media.std.obj
 0001:00006930       ?obj_delete@?$TRefObjectLinksModObject@URLibraryBinCache@std@media@modules@UModSys@@UIModObject@base@5@@tl@UModSys@@QBEXPAURLibraryBinCache@std@media@modules@3@@Z 00407930 f i umodsys_lib_libmedia:umodsys.mod.media.std.obj
 0001:00006930       ?obj_delete@?$TRefObjectLinksModObject@URStreamReader_FILE@stdio@media@modules@UModSys@@UIModObject@base@5@@tl@UModSys@@QBEXPAURStreamReader_FILE@stdio@media@modules@3@@Z 00407930 f i umodsys_lib_libmedia:umodsys.mod.media.stdio.obj
 0001:000069a0       ??$ValidateConstruction@UIStreamReader@libmedia@UModSys@@URStreamReader_FILE@stdio@media@modules@3@@core@UModSys@@YA_NAAU?$TRefObject@UIStreamReader@libmedia@UModSys@@U?$TRefObjectFunc@UIStreamReader@libmedia@UModSys@@@tl@3@@tl@1@PAURStreamReader_FILE@stdio@media@modules@1@@Z 004079a0 f i umodsys_lib_libmedia:umodsys.mod.media.stdio.obj
 0001:000069a0       ??$ValidateConstruction@UIRefObject@core@UModSys@@URStreamReader_FILE@stdio@media@modules@3@@core@UModSys@@YA_NAAU?$TRefObject@UIRefObject@core@UModSys@@U?$TRefObjectFunc@UIRefObject@core@UModSys@@@tl@3@@tl@1@PAURStreamReader_FILE@stdio@media@modules@1@@Z 004079a0 f i umodsys_lib_libmedia:umodsys.mod.media.stdio.obj
 0001:00006a30       ??$ValidateConstruction@UIRefObject@core@UModSys@@URStreamWriter_FILE@stdio@media@modules@3@@core@UModSys@@YA_NAAU?$TRefObject@UIRefObject@core@UModSys@@U?$TRefObjectFunc@UIRefObject@core@UModSys@@@tl@3@@tl@1@PAURStreamWriter_FILE@stdio@media@modules@1@@Z 00407a30 f i umodsys_lib_libmedia:umodsys.mod.media.stdio.obj
 0001:00006a30       ??$ValidateConstruction@UIStreamWriter@libmedia@UModSys@@URStreamWriter_FILE@stdio@media@modules@3@@core@UModSys@@YA_NAAU?$TRefObject@UIStreamWriter@libmedia@UModSys@@U?$TRefObjectFunc@UIStreamWriter@libmedia@UModSys@@@tl@3@@tl@1@PAURStreamWriter_FILE@stdio@media@modules@1@@Z 00407a30 f i umodsys_lib_libmedia:umodsys.mod.media.stdio.obj
 0001:00006ac0       ??$t_gen_param@URStreamReader_FILE@stdio@media@modules@UModSys@@URGenerator@2345@@IGenerator@base@UModSys@@IAE_NPAURGenerator@stdio@media@modules@2@AAU?$TRefObject@UIRefObject@core@UModSys@@U?$TRefObjectFunc@UIRefObject@core@UModSys@@@tl@3@@tl@2@PBUSUniquePointerInfo@core@2@ABUSParameters@core@2@@Z 00407ac0 f i umodsys_lib_libmedia:umodsys.mod.media.stdio.obj
 0001:00006b40       ??$t_gen_param@URStreamWriter_FILE@stdio@media@modules@UModSys@@URGenerator@2345@@IGenerator@base@UModSys@@IAE_NPAURGenerator@stdio@media@modules@2@AAU?$TRefObject@UIRefObject@core@UModSys@@U?$TRefObjectFunc@UIRefObject@core@UModSys@@@tl@3@@tl@2@PBUSUniquePointerInfo@core@2@ABUSParameters@core@2@@Z 00407b40 f i umodsys_lib_libmedia:umodsys.mod.media.stdio.obj
 0001:00006bb0       ??$t_gen_param@URDataArchiver_OsDir@stdio@media@modules@UModSys@@URGenerator@2345@@IGenerator@base@UModSys@@IAE_NPAURGenerator@stdio@media@modules@2@AAU?$TRefObject@UIRefObject@core@UModSys@@U?$TRefObjectFunc@UIRefObject@core@UModSys@@@tl@3@@tl@2@PBUSUniquePointerInfo@core@2@ABUSParameters@core@2@@Z 00407bb0 f i umodsys_lib_libmedia:umodsys.mod.media.stdio.obj
 0001:00006c20       ??$is_flag@U?$TFlags4StateShift@USMediaFlagUid@libmedia@UModSys@@I$09@tl@UModSys@@@SFlags@libmedia@UModSys@@QBE_NPBUIResolverAuto@012@W4eStates@?$TFlags4State@USMediaFlagUid@libmedia@UModSys@@I@tl@2@@Z 00407c20 f i umodsys_lib_libmedia:umodsys.mod.media.stdio.obj
 0001:00006c80       ??$safe_snprintf@D@syshlp@core@UModSys@@YAIPADIPBDZZ 00407c80 f i umodsys_lib_libmedia:umodsys.lib.media.common.obj
 0001:00006c90       ?root_get_interface_info@RConsole_std@rsystem@base@UModSys@@UBEABUSUniquePointerInfo@core@4@XZ 00407c90 f i umodsys_lib_basesys:umodsys.basesys.rconsole_std.obj
 0001:00006ca0       ?root_get_interface_type@RConsole_std@rsystem@base@UModSys@@UBEPBUSUniquePointerInfo@core@4@XZ 00407ca0 f i umodsys_lib_basesys:umodsys.basesys.rconsole_std.obj
 0001:00006cb0       ?root_get_other_interface@RConsole_std@rsystem@base@UModSys@@UAEPAUIRoot@core@4@PBUSUniquePointerInfo@64@@Z 00407cb0 f i umodsys_lib_basesys:umodsys.basesys.rconsole_std.obj
 0001:00006cb0       ?root_get_other_interface@RConsole_std@rsystem@base@UModSys@@UBEPBUIRoot@core@4@PBUSUniquePointerInfo@64@@Z 00407cb0 f i umodsys_lib_basesys:umodsys.basesys.rconsole_std.obj
 0001:00006ce0       ?root_is_interface_supported@RConsole_std@rsystem@base@UModSys@@UBE_NPBUSUniquePointerInfo@core@4@@Z 00407ce0 f i umodsys_lib_basesys:umodsys.basesys.rconsole_std.obj
 0001:00006d20       ??_ERConsole_std@rsystem@base@UModSys@@UAEPAXI@Z 00407d20 f i  CIL library: CIL module
 0001:00006d20       ??_GRConsole_std@rsystem@base@UModSys@@UAEPAXI@Z 00407d20 f i umodsys_lib_basesys:umodsys.basesys.rconsole_std.obj
 0001:00006d40       ??_EIConsole@base@UModSys@@UAEPAXI@Z 00407d40 f i  CIL library: CIL module
 0001:00006d40       ??_GIConsole@base@UModSys@@UAEPAXI@Z 00407d40 f i umodsys_lib_basesys:umodsys.basesys.rconsole_std.obj
 0001:00006d60       ?mem_free@SMemAlloc_Malloc@core@UModSys@@SAXPAXPBUSSourceContext@23@@Z 00407d60 f i umodsys_lib_basesys:umodsys.basesys.rsystem_main.obj
 0001:00006d80       ?decode_error@EExceptionBase@core@UModSys@@UBEHPADI@Z 00407d80 f i umodsys_lib_basesys:umodsys.basesys.rsystem_main.obj
 0001:00006db0       ?decode_error@EFatal@core@UModSys@@UBEHPADI@Z 00407db0 f i umodsys_lib_basesys:umodsys.basesys.rsystem_main.obj
 0001:00006de0       ??_EEFatal@core@UModSys@@UAEPAXI@Z 00407de0 f i  CIL library: CIL module
 0001:00006de0       ??_GEFatal@core@UModSys@@UAEPAXI@Z 00407de0 f i umodsys_lib_basesys:umodsys.basesys.rsystem_main.obj
 0001:00006de0       ??_GEWarning@core@UModSys@@UAEPAXI@Z 00407de0 f i umodsys_lib_basesys:umodsys.basesys.rsystem_main.obj
 0001:00006de0       ??_EEExceptionBase@core@UModSys@@UAEPAXI@Z 00407de0 f i  CIL library: CIL module
 0001:00006de0       ??_EEWarning@core@UModSys@@UAEPAXI@Z 00407de0 f i  CIL library: CIL module
 0001:00006de0       ??_GEExceptionBase@core@UModSys@@UAEPAXI@Z 00407de0 f i umodsys_lib_basesys:umodsys.basesys.rsystem_main.obj
 0001:00006e00       ??1EFatal@core@UModSys@@UAE@XZ 00407e00 f i umodsys_lib_basesys:umodsys.basesys.rsystem_main.obj
 0001:00006e00       ??1EWarning@core@UModSys@@UAE@XZ 00407e00 f i umodsys_lib_basesys:umodsys.basesys.rsystem_main.obj
 0001:00006e10       ??0EWarning@core@UModSys@@QAE@PBUSSourceContext@12@HPBD@Z 00407e10 f i umodsys_lib_basesys:umodsys.basesys.rsystem_main.obj
 0001:00006e50       ?decode_error@EWarning@core@UModSys@@UBEHPADI@Z 00407e50 f i umodsys_lib_basesys:umodsys.basesys.rsystem_main.obj
 0001:00006e80       ?root_get_interface_info@ISystem@base@UModSys@@UBEABUSUniquePointerInfo@core@3@XZ 00407e80 f i umodsys_lib_basesys:umodsys.basesys.rsystem_main.obj
 0001:00006e90       ?root_get_interface_type@ISystem@base@UModSys@@UBEPBUSUniquePointerInfo@core@3@XZ 00407e90 f i umodsys_lib_basesys:umodsys.basesys.rsystem_main.obj
 0001:00006ea0       ?root_get_other_interface@ISystem@base@UModSys@@UAEPAUIRoot@core@3@PBUSUniquePointerInfo@53@@Z 00407ea0 f i umodsys_lib_basesys:umodsys.basesys.rsystem_main.obj
 0001:00006ea0       ?root_get_other_interface@ISystem@base@UModSys@@UBEPBUIRoot@core@3@PBUSUniquePointerInfo@53@@Z 00407ea0 f i umodsys_lib_basesys:umodsys.basesys.rsystem_main.obj
 0001:00006ec0       ?root_is_interface_supported@ISystem@base@UModSys@@UBE_NPBUSUniquePointerInfo@core@3@@Z 00407ec0 f i umodsys_lib_basesys:umodsys.basesys.rsystem_main.obj
 0001:00006ef0       ?root_get_interface_info@RSystem@rsystem@base@UModSys@@UBEABUSUniquePointerInfo@core@4@XZ 00407ef0 f i umodsys_lib_basesys:umodsys.basesys.rsystem_main.obj
 0001:00006f00       ?root_get_interface_type@RSystem@rsystem@base@UModSys@@UBEPBUSUniquePointerInfo@core@4@XZ 00407f00 f i umodsys_lib_basesys:umodsys.basesys.rsystem_main.obj
 0001:00006f10       ?root_get_other_interface@RSystem@rsystem@base@UModSys@@UAEPAUIRoot@core@4@PBUSUniquePointerInfo@64@@Z 00407f10 f i umodsys_lib_basesys:umodsys.basesys.rsystem_main.obj
 0001:00006f10       ?root_get_other_interface@RSystem@rsystem@base@UModSys@@UBEPBUIRoot@core@4@PBUSUniquePointerInfo@64@@Z 00407f10 f i umodsys_lib_basesys:umodsys.basesys.rsystem_main.obj
 0001:00006f30       ?root_is_interface_supported@RSystem@rsystem@base@UModSys@@UBE_NPBUSUniquePointerInfo@core@4@@Z 00407f30 f i umodsys_lib_basesys:umodsys.basesys.rsystem_main.obj
 0001:00006f60       ??_GRSystem@rsystem@base@UModSys@@UAEPAXI@Z 00407f60 f i umodsys_lib_basesys:umodsys.basesys.rsystem_main.obj
 0001:00006f60       ??_ERSystem@rsystem@base@UModSys@@UAEPAXI@Z 00407f60 f i  CIL library: CIL module
 0001:00006f80       ??_GISystem@base@UModSys@@UAEPAXI@Z 00407f80 f i umodsys_lib_basesys:umodsys.basesys.rsystem_main.obj
 0001:00006f80       ??_EISystem@base@UModSys@@UAEPAXI@Z 00407f80 f i  CIL library: CIL module
 0001:00006fa0       ??1?$TStaticStringPool@DU?$TComparerBinaryHash@D@su@tl@UModSys@@USMemAlloc_Malloc@core@4@@tl@UModSys@@QAE@XZ 00407fa0 f i umodsys_lib_basesys:umodsys.basesys.rsystem_main.obj
 0001:00006fb0       ??1?$TRefObject@URLibraryObjCache@std@media@modules@UModSys@@U?$TRefObjectFunc@URLibraryObjCache@std@media@modules@UModSys@@@tl@5@@tl@UModSys@@QAE@XZ 00407fb0 f i umodsys_lib_libmedia:umodsys.mod.media.std.obj
 0001:00006fb0       ??1?$TRefObject@URModuleLibrarySO@rsystem@base@UModSys@@U?$TRefObjectFunc@URModuleLibrarySO@rsystem@base@UModSys@@@tl@4@@tl@UModSys@@QAE@XZ 00407fb0 f i umodsys_lib_basesys:umodsys.basesys.rmoduleloader.obj
 0001:00006fb0       ??1?$TRefObject@UIStreamReader@libmedia@UModSys@@U?$TRefObjectFunc@UIStreamReader@libmedia@UModSys@@@tl@3@@tl@UModSys@@QAE@XZ 00407fb0 f i umodsys_lib_libmedia:umodsys.mod.media.std.obj
 0001:00006fb0       ??1?$TRefObject@URLibraryLayered@std@media@modules@UModSys@@U?$TRefObjectFunc@URLibraryLayered@std@media@modules@UModSys@@@tl@5@@tl@UModSys@@QAE@XZ 00407fb0 f i umodsys_lib_libmedia:umodsys.mod.media.std.obj
 0001:00006fb0       ??1?$TRefObject@UIShell@base@UModSys@@U?$TRefObjectFunc@UIShell@base@UModSys@@@tl@3@@tl@UModSys@@QAE@XZ 00407fb0 f i umodsys_lib_basesys:umodsys.basesys.rsystem_tests.obj
 0001:00006fb0       ??1?$TRefObject@URStreamReader_FILE@stdio@media@modules@UModSys@@U?$TRefObjectFunc@URStreamReader_FILE@stdio@media@modules@UModSys@@@tl@5@@tl@UModSys@@QAE@XZ 00407fb0 f i umodsys_lib_libmedia:umodsys.mod.media.stdio.obj
 0001:00006fb0       ??1?$TRefObject@UIBinObjFilter@libmedia@UModSys@@U?$TRefObjectFunc@UIBinObjFilter@libmedia@UModSys@@@tl@3@@tl@UModSys@@QAE@XZ 00407fb0 f i umodsys_lib_libmedia:umodsys.mod.media.std.obj
 0001:00006fb0       ??1?$TRefObject@UIModuleLibraryUni@rsystem@base@UModSys@@U?$TRefObjectFunc@UIModuleLibraryUni@rsystem@base@UModSys@@@tl@4@@tl@UModSys@@QAE@XZ 00407fb0 f i umodsys_lib_basesys:umodsys.basesys.rmodule.obj
 0001:00006fb0       ??1?$TRefObject@UIRefObject@core@UModSys@@U?$TRefObjectFunc@UIRefObject@core@UModSys@@@tl@3@@tl@UModSys@@QAE@XZ 00407fb0 f i umodsys_lib_libmedia:umodsys.mod.media.std.obj
 0001:00006fb0       ??1?$TRefObject@URDataArchiver_OsDir@stdio@media@modules@UModSys@@U?$TRefObjectFunc@URDataArchiver_OsDir@stdio@media@modules@UModSys@@@tl@5@@tl@UModSys@@QAE@XZ 00407fb0 f i umodsys_lib_libmedia:umodsys.mod.media.stdio.obj
 0001:00006fb0       ??1?$TRefObject@UIStreamWriter@libmedia@UModSys@@U?$TRefObjectFunc@UIStreamWriter@libmedia@UModSys@@@tl@3@@tl@UModSys@@QAE@XZ 00407fb0 f i umodsys_lib_libmedia:umodsys.mod.media.std.obj
 0001:00006fb0       ??1?$TRefObject@URLibraryObjFilter@std@media@modules@UModSys@@U?$TRefObjectFunc@URLibraryObjFilter@std@media@modules@UModSys@@@tl@5@@tl@UModSys@@QAE@XZ 00407fb0 f i umodsys_lib_libmedia:umodsys.mod.media.std.obj
 0001:00006fb0       ??1?$TRefObject@URMediaFilter@images_std@media@modules@UModSys@@U?$TRefObjectFunc@URMediaFilter@images_std@media@modules@UModSys@@@tl@5@@tl@UModSys@@QAE@XZ 00407fb0 f i umodsys_lib_libmedia:umodsys.mod.media.images_std.obj
 0001:00006fb0       ??1SFilter@RLibraryObjFilter@std@media@modules@UModSys@@QAE@XZ 00407fb0 f i umodsys_lib_libmedia:umodsys.mod.media.std.obj
 0001:00006fb0       ??1?$TRefObject@URLibraryBinCache@std@media@modules@UModSys@@U?$TRefObjectFunc@URLibraryBinCache@std@media@modules@UModSys@@@tl@5@@tl@UModSys@@QAE@XZ 00407fb0 f i umodsys_lib_libmedia:umodsys.mod.media.std.obj
 0001:00006fb0       ??1?$TRefObject@URParameters@rsystem@base@UModSys@@U?$TRefObjectFunc@URParameters@rsystem@base@UModSys@@@tl@4@@tl@UModSys@@QAE@XZ 00407fb0 f i umodsys_lib_basesys:umodsys.basesys.rsystem_main.obj
 0001:00006fb0       ??1?$TRefObject@URLibraryBinTree@std@media@modules@UModSys@@U?$TRefObjectFunc@URLibraryBinTree@std@media@modules@UModSys@@@tl@5@@tl@UModSys@@QAE@XZ 00407fb0 f i umodsys_lib_libmedia:umodsys.mod.media.std.obj
 0001:00006fb0       ??1?$TRefObject@URStreamWriter_FILE@stdio@media@modules@UModSys@@U?$TRefObjectFunc@URStreamWriter_FILE@stdio@media@modules@UModSys@@@tl@5@@tl@UModSys@@QAE@XZ 00407fb0 f i umodsys_lib_libmedia:umodsys.mod.media.stdio.obj
 0001:00006fd0       ??1?$TQuantArrayUnique@USSourceContext@core@UModSys@@$0BAA@USMemAlloc_Malloc@23@@tl@UModSys@@QAE@XZ 00407fd0 f i umodsys_lib_basesys:umodsys.basesys.rsystem_main.obj
 0001:00006fd0       ??1?$TQuantArrayUnique@USUniquePointerInfo@core@UModSys@@$0BAA@USMemAlloc_Malloc@23@@tl@UModSys@@QAE@XZ 00407fd0 f i umodsys_lib_basesys:umodsys.basesys.rsystem_main.obj
 0001:00007050       ??1?$TTreeHoldRBD@U?$TQuantArrayNode@USSourceContext@core@UModSys@@$0BAA@@tl@UModSys@@U?$TNodeDeleter@U?$TQuantArrayNode@USSourceContext@core@UModSys@@$0BAA@@tl@UModSys@@USMemAlloc_Malloc@core@3@@23@@tl@UModSys@@QAE@XZ 00408050 f i umodsys_lib_basesys:umodsys.basesys.rsystem_main.obj
 0001:00007050       ??1?$TTreeHoldRBD@U?$TQuantArrayNode@USUniquePointerInfo@core@UModSys@@$0BAA@@tl@UModSys@@U?$TNodeDeleter@U?$TQuantArrayNode@USUniquePointerInfo@core@UModSys@@$0BAA@@tl@UModSys@@USMemAlloc_Malloc@core@3@@23@@tl@UModSys@@QAE@XZ 00408050 f i umodsys_lib_basesys:umodsys.basesys.rsystem_main.obj
 0001:000070a0       ??0?$TRMemAlloc_CC@U?$TMemAllocHeader@USMagic@mem_headers@rsystem@base@UModSys@@U?$TPool@X@2345@USDebug@2345@UVoid@core@5@U895@@rsystem@base@UModSys@@USMemAlloc_Malloc@core@4@@rsystem@base@UModSys@@QAE@PAUIExceptionHandler@core@3@@Z 004080a0 f i umodsys_lib_basesys:umodsys.basesys.rsystem_main.obj
 0001:000070c0       ??1?$TRMemAlloc_CC@U?$TMemAllocHeader@USMagic@mem_headers@rsystem@base@UModSys@@U?$TPool@X@2345@USDebug@2345@UVoid@core@5@U895@@rsystem@base@UModSys@@USMemAlloc_Malloc@core@4@@rsystem@base@UModSys@@QAE@XZ 004080c0 f i umodsys_lib_basesys:umodsys.basesys.rsystem_main.obj
 0001:000070d0       ?mem_alloc@?$TRMemAlloc_CC@U?$TMemAllocHeader@USMagic@mem_headers@rsystem@base@UModSys@@U?$TPool@X@2345@USDebug@2345@UVoid@core@5@U895@@rsystem@base@UModSys@@USMemAlloc_Malloc@core@4@@rsystem@base@UModSys@@UAEPAXIPBUSSourceContext@core@4@@Z 004080d0 f i umodsys_lib_basesys:umodsys.basesys.rsystem_main.obj
 0001:00007130       ?mem_realloc@?$TRMemAlloc_CC@U?$TMemAllocHeader@USMagic@mem_headers@rsystem@base@UModSys@@U?$TPool@X@2345@USDebug@2345@UVoid@core@5@U895@@rsystem@base@UModSys@@USMemAlloc_Malloc@core@4@@rsystem@base@UModSys@@UAEPAXPAXIPBUSSourceContext@core@4@@Z 00408130 f i umodsys_lib_basesys:umodsys.basesys.rsystem_main.obj
 0001:000072f0       ?mem_free@?$TRMemAlloc_CC@U?$TMemAllocHeader@USMagic@mem_headers@rsystem@base@UModSys@@U?$TPool@X@2345@USDebug@2345@UVoid@core@5@U895@@rsystem@base@UModSys@@USMemAlloc_Malloc@core@4@@rsystem@base@UModSys@@UAEXPAXPBUSSourceContext@core@4@@Z 004082f0 f i umodsys_lib_basesys:umodsys.basesys.rsystem_main.obj
 0001:000073e0       ?free@?$TStaticStringPool@DU?$TComparerBinaryHash@D@su@tl@UModSys@@USMemAlloc_Malloc@core@4@@tl@UModSys@@QAEXXZ 004083e0 f i umodsys_lib_basesys:umodsys.basesys.rsystem_main.obj
 0001:00007430       ?clear@?$TMemAllocHeader@USMagic@mem_headers@rsystem@base@UModSys@@U?$TPool@X@2345@USDebug@2345@UVoid@core@5@U895@@rsystem@base@UModSys@@QAEXXZ 00408430 f i umodsys_lib_basesys:umodsys.basesys.rsystem_main.obj
 0001:00007460       ?persist_ctx@?$TRMemAlloc_CC@U?$TMemAllocHeader@USMagic@mem_headers@rsystem@base@UModSys@@U?$TPool@X@2345@USDebug@2345@UVoid@core@5@U895@@rsystem@base@UModSys@@USMemAlloc_Malloc@core@4@@rsystem@base@UModSys@@QAEPBUSSourceContext@core@4@PBU564@@Z 00408460 f i umodsys_lib_basesys:umodsys.basesys.rsystem_main.obj
 0001:00007470       ??$process@UEFatal@core@UModSys@@@IExceptionHandler@core@UModSys@@QAEXABUEFatal@12@@Z 00408470 f i umodsys_lib_basesys:umodsys.basesys.rsystem_main.obj
 0001:000074c0       ??$process@UEWarning@core@UModSys@@@IExceptionHandler@core@UModSys@@QAEXABUEWarning@12@@Z 004084c0 f i umodsys_lib_basesys:umodsys.basesys.rsystem_main.obj
 0001:00007510       ??$process_nodes_r@U?$TNodeDeleter@U?$TQuantArrayNode@USUniquePointerInfo@core@UModSys@@$0BAA@@tl@UModSys@@USMemAlloc_Malloc@core@3@@tl@UModSys@@@?$TTreeHoldRB@U?$TQuantArrayNode@USUniquePointerInfo@core@UModSys@@$0BAA@@tl@UModSys@@@tl@UModSys@@KAHPAU?$TQuantArrayNode@USUniquePointerInfo@core@UModSys@@$0BAA@@12@ABU?$TNodeDeleter@U?$TQuantArrayNode@USUniquePointerInfo@core@UModSys@@$0BAA@@tl@UModSys@@USMemAlloc_Malloc@core@3@@12@@Z 00408510 f i umodsys_lib_basesys:umodsys.basesys.rsystem_main.obj
 0001:00007510       ??$process_nodes_r@U?$TNodeDeleter@U?$TQuantArrayNode@USSourceContext@core@UModSys@@$0BAA@@tl@UModSys@@USMemAlloc_Malloc@core@3@@tl@UModSys@@@?$TTreeHoldRB@U?$TQuantArrayNode@USSourceContext@core@UModSys@@$0BAA@@tl@UModSys@@@tl@UModSys@@KAHPAU?$TQuantArrayNode@USSourceContext@core@UModSys@@$0BAA@@12@ABU?$TNodeDeleter@U?$TQuantArrayNode@USSourceContext@core@UModSys@@$0BAA@@tl@UModSys@@USMemAlloc_Malloc@core@3@@12@@Z 00408510 f i umodsys_lib_basesys:umodsys.basesys.rsystem_main.obj
 0001:00007560       ??0EFatal@core@UModSys@@QAE@ABU012@@Z 00408560 f i umodsys_lib_basesys:umodsys.basesys.rsystem_main.obj
 0001:000075a0       ??0EExceptionBase@core@UModSys@@QAE@ABU012@@Z 004085a0 f i umodsys_lib_basesys:umodsys.basesys.rsystem_main.obj
 0001:000075d0       ??0EWarning@core@UModSys@@QAE@ABU012@@Z 004085d0 f i umodsys_lib_basesys:umodsys.basesys.rsystem_main.obj
 0001:00007610       ??1SParameters@core@UModSys@@QAE@XZ 00408610 f i umodsys_lib_libmedia:umodsys.mod.media.images_std.obj
 0001:00007610       ??1?$TParametersA@$0EAA@@core@UModSys@@QAE@XZ 00408610 f i umodsys_lib_basesys:umodsys.basesys.rsystem_tests.obj
 0001:00007620       ??$t_moduledb_generate@UIShell@base@UModSys@@@IModuleLoader@base@UModSys@@QAE_NAAU?$TRefObject@UIShell@base@UModSys@@U?$TRefObjectFunc@UIShell@base@UModSys@@@tl@3@@tl@2@PBUSUniquePointerInfo@core@2@ABUSParameters@62@@Z 00408620 f i umodsys_lib_basesys:umodsys.basesys.rsystem_tests.obj
 0001:000076f0       ??_GRModuleLoader@rsystem@base@UModSys@@UAEPAXI@Z 004086f0 f i umodsys_lib_basesys:umodsys.basesys.rmoduleloader.obj
 0001:000076f0       ??_ERModuleLoader@rsystem@base@UModSys@@UAEPAXI@Z 004086f0 f i  CIL library: CIL module
 0001:00007710       ??_GIModuleLoader@base@UModSys@@UAEPAXI@Z 00408710 f i umodsys_lib_basesys:umodsys.basesys.rmoduleloader.obj
 0001:00007710       ??_EIModuleLoader@base@UModSys@@UAEPAXI@Z 00408710 f i  CIL library: CIL module
 0001:00007730       ??1?$TDynarrayDynamic@U?$TRefObject@URModuleLibrarySO@rsystem@base@UModSys@@U?$TRefObjectFunc@URModuleLibrarySO@rsystem@base@UModSys@@@tl@4@@tl@UModSys@@U?$TAllocator@USMemAlloc_Malloc@core@UModSys@@USCountCalcPower2@23@@23@@tl@UModSys@@QAE@XZ 00408730 f i umodsys_lib_basesys:umodsys.basesys.rmoduleloader.obj
 0001:00007780       ?append@?$TStaticStringPool@DU?$TComparerBinaryHash@D@su@tl@UModSys@@USMemAlloc_Malloc@core@4@@tl@UModSys@@QAEPBU?$TString@U?$TSCoreConst@D@su@tl@UModSys@@U?$TComparerBinaryHash@D@234@@23@PBDI@Z 00408780 f i umodsys_lib_basesys:umodsys.basesys.rmoduleloader.obj
 0001:00007970       ?ReLink@?$TDynarray@U?$TDynarrayHolderDynamic@PBUSUniquePointerInfo@core@UModSys@@U?$TAllocator@USMemAlloc_Malloc@core@UModSys@@USCountCalcPower2@23@@tl@3@@tl@UModSys@@@tl@UModSys@@IAE_NI@Z 00408970 f i umodsys_lib_basesys:umodsys.basesys.rmodule.obj
 0001:00007970       ?ReLink@?$TDynarray@U?$TDynarrayHolderDynamic@U?$TRefObject@URModuleLibrarySO@rsystem@base@UModSys@@U?$TRefObjectFunc@URModuleLibrarySO@rsystem@base@UModSys@@@tl@4@@tl@UModSys@@U?$TAllocator@USMemAlloc_Malloc@core@UModSys@@USCountCalcPower2@23@@23@@tl@UModSys@@@tl@UModSys@@IAE_NI@Z 00408970 f i umodsys_lib_basesys:umodsys.basesys.rmoduleloader.obj
 0001:00007970       ?ReLink@?$TDynarray@U?$TDynarrayHolderDynamic@U?$TRefObject@URModule@rsystem@base@UModSys@@U?$TRefObjectFunc@URModule@rsystem@base@UModSys@@@tl@4@@tl@UModSys@@U?$TAllocator@USMemAlloc_Malloc@core@UModSys@@USCountCalcPower2@23@@23@@tl@UModSys@@@tl@UModSys@@IAE_NI@Z 00408970 f i umodsys_lib_basesys:umodsys.basesys.rmodulelib.obj
 0001:000079c0       ?amoveleft@?$TTypeConstructor@U?$TRefObject@URModuleLibrarySO@rsystem@base@UModSys@@U?$TRefObjectFunc@URModuleLibrarySO@rsystem@base@UModSys@@@tl@4@@tl@UModSys@@@tl@UModSys@@SAXPAU?$TRefObject@URModuleLibrarySO@rsystem@base@UModSys@@U?$TRefObjectFunc@URModuleLibrarySO@rsystem@base@UModSys@@@tl@4@@23@III@Z 004089c0 f i umodsys_lib_basesys:umodsys.basesys.rmoduleloader.obj
 0001:00007a50       ?adestruct@?$TTypeConstructor@U?$TRefObject@URModuleLibrarySO@rsystem@base@UModSys@@U?$TRefObjectFunc@URModuleLibrarySO@rsystem@base@UModSys@@@tl@4@@tl@UModSys@@@tl@UModSys@@SAXPAU?$TRefObject@URModuleLibrarySO@rsystem@base@UModSys@@U?$TRefObjectFunc@URModuleLibrarySO@rsystem@base@UModSys@@@tl@4@@23@I@Z 00408a50 f i umodsys_lib_basesys:umodsys.basesys.rmoduleloader.obj
 0001:00007a50       ?adestruct@?$TTypeConstructor@U?$TRefObject@URModule@rsystem@base@UModSys@@U?$TRefObjectFunc@URModule@rsystem@base@UModSys@@@tl@4@@tl@UModSys@@@tl@UModSys@@SAXPAU?$TRefObject@URModule@rsystem@base@UModSys@@U?$TRefObjectFunc@URModule@rsystem@base@UModSys@@@tl@4@@23@I@Z 00408a50 f i umodsys_lib_basesys:umodsys.basesys.rmodulelib.obj
 0001:00007a90       ?find_s@?$TStaticStringPool@DU?$TComparerBinaryHash@D@su@tl@UModSys@@USMemAlloc_Malloc@core@4@@tl@UModSys@@QBEPBU?$TString@U?$TSCoreConst@D@su@tl@UModSys@@U?$TComparerBinaryHash@D@234@@23@ABU423@@Z 00408a90 f i umodsys_lib_basesys:umodsys.basesys.rmoduleloader.obj
 0001:00007b20       ?root_get_interface_info@RModuleLibraryThis@rsystem@base@UModSys@@UBEABUSUniquePointerInfo@core@4@XZ 00408b20 f i umodsys_lib_basesys:umodsys.basesys.rmodulelibthis.obj
 0001:00007b30       ?root_get_interface_type@RModuleLibraryThis@rsystem@base@UModSys@@UBEPBUSUniquePointerInfo@core@4@XZ 00408b30 f i umodsys_lib_basesys:umodsys.basesys.rmodulelibthis.obj
 0001:00007b40       ?root_get_interface_types@RGenerator@images_std@media@modules@UModSys@@UBEIAAUSUniquePtrList@core@5@@Z 00408b40 f i umodsys_lib_libmedia:umodsys.mod.media.images_std.obj
 0001:00007b40       ?root_get_interface_types@RLibraryBinTree@std@media@modules@UModSys@@UBEIAAUSUniquePtrList@core@5@@Z 00408b40 f i umodsys_lib_libmedia:umodsys.mod.media.std.obj
 0001:00007b40       ?root_get_interface_types@RSystem@rsystem@base@UModSys@@UBEIAAUSUniquePtrList@core@4@@Z 00408b40 f i umodsys_lib_basesys:umodsys.basesys.rsystem_main.obj
 0001:00007b40       ?root_get_interface_types@ISystem@base@UModSys@@UBEIAAUSUniquePtrList@core@3@@Z 00408b40 f i umodsys_lib_basesys:umodsys.basesys.rsystem_main.obj
 0001:00007b40       ?root_get_interface_types@RConsole_std@rsystem@base@UModSys@@UBEIAAUSUniquePtrList@core@4@@Z 00408b40 f i umodsys_lib_basesys:umodsys.basesys.rconsole_std.obj
 0001:00007b40       ?root_get_interface_types@RLibraryBinCache@std@media@modules@UModSys@@UBEIAAUSUniquePtrList@core@5@@Z 00408b40 f i umodsys_lib_libmedia:umodsys.mod.media.std.obj
 0001:00007b40       ?root_get_interface_types@RLibraryLayered@std@media@modules@UModSys@@UBEIAAUSUniquePtrList@core@5@@Z 00408b40 f i umodsys_lib_libmedia:umodsys.mod.media.std.obj
 0001:00007b40       ?root_get_interface_types@RMediaFilter@images_std@media@modules@UModSys@@UBEIAAUSUniquePtrList@core@5@@Z 00408b40 f i umodsys_lib_libmedia:umodsys.mod.media.images_std.obj
 0001:00007b40       ?root_get_interface_types@RGenerator@stdio@media@modules@UModSys@@UBEIAAUSUniquePtrList@core@5@@Z 00408b40 f i umodsys_lib_libmedia:umodsys.mod.media.stdio.obj
 0001:00007b40       ?root_get_interface_types@RModuleLibraryThis@rsystem@base@UModSys@@UBEIAAUSUniquePtrList@core@4@@Z 00408b40 f i umodsys_lib_basesys:umodsys.basesys.rmodulelibthis.obj
 0001:00007b40       ?root_get_interface_types@RLibraryObjFilter@std@media@modules@UModSys@@UBEIAAUSUniquePtrList@core@5@@Z 00408b40 f i umodsys_lib_libmedia:umodsys.mod.media.std.obj
 0001:00007b40       ?root_get_interface_types@RModule@rsystem@base@UModSys@@UBEIAAUSUniquePtrList@core@4@@Z 00408b40 f i umodsys_lib_basesys:umodsys.basesys.rmodule.obj
 0001:00007b40       ?root_get_interface_types@RLibraryObjCache@std@media@modules@UModSys@@UBEIAAUSUniquePtrList@core@5@@Z 00408b40 f i umodsys_lib_libmedia:umodsys.mod.media.std.obj
 0001:00007b40       ?root_get_interface_types@RStreamReader_FILE@stdio@media@modules@UModSys@@UBEIAAUSUniquePtrList@core@5@@Z 00408b40 f i umodsys_lib_libmedia:umodsys.mod.media.stdio.obj
 0001:00007b40       ?root_get_interface_types@RDataArchiver_OsDir@stdio@media@modules@UModSys@@UBEIAAUSUniquePtrList@core@5@@Z 00408b40 f i umodsys_lib_libmedia:umodsys.mod.media.stdio.obj
 0001:00007b40       ?root_get_interface_types@RGenerator@std@media@modules@UModSys@@UBEIAAUSUniquePtrList@core@5@@Z 00408b40 f i umodsys_lib_libmedia:umodsys.mod.media.std.obj
 0001:00007b40       ?root_get_interface_types@RStreamWriter_FILE@stdio@media@modules@UModSys@@UBEIAAUSUniquePtrList@core@5@@Z 00408b40 f i umodsys_lib_libmedia:umodsys.mod.media.stdio.obj
 0001:00007b40       ?root_get_interface_types@RModuleLibrarySO@rsystem@base@UModSys@@UBEIAAUSUniquePtrList@core@4@@Z 00408b40 f i umodsys_lib_basesys:umodsys.basesys.rmodulelibso.obj
 0001:00007b40       ?root_get_interface_types@RParameters@rsystem@base@UModSys@@UBEIAAUSUniquePtrList@core@4@@Z 00408b40 f i umodsys_lib_basesys:umodsys.basesys.rparameters.obj
 0001:00007b50       ?root_get_other_interface@RModuleLibraryThis@rsystem@base@UModSys@@UBEPBUIRoot@core@4@PBUSUniquePointerInfo@64@@Z 00408b50 f i umodsys_lib_basesys:umodsys.basesys.rmodulelibthis.obj
 0001:00007b50       ?root_get_other_interface@RModuleLibraryThis@rsystem@base@UModSys@@UAEPAUIRoot@core@4@PBUSUniquePointerInfo@64@@Z 00408b50 f i umodsys_lib_basesys:umodsys.basesys.rmodulelibthis.obj
 0001:00007b90       ?root_is_interface_supported@RModuleLibraryThis@rsystem@base@UModSys@@UBE_NPBUSUniquePointerInfo@core@4@@Z 00408b90 f i umodsys_lib_basesys:umodsys.basesys.rmodulelibthis.obj
 0001:00007bd0       ?ref_add@RModuleLibraryThis@rsystem@base@UModSys@@UBEXXZ 00408bd0 f i umodsys_lib_basesys:umodsys.basesys.rmodulelibthis.obj
 0001:00007be0       ?ref_remove@RModuleLibraryThis@rsystem@base@UModSys@@UBEXXZ 00408be0 f i umodsys_lib_basesys:umodsys.basesys.rmodulelibthis.obj
 0001:00007bf0       ?ref_links@RModuleLibraryThis@rsystem@base@UModSys@@UBEHXZ 00408bf0 f i umodsys_lib_basesys:umodsys.basesys.rmodulelibthis.obj
 0001:00007c00       ?ref_weak@RModuleLibraryThis@rsystem@base@UModSys@@UBE_NAAUWeakPointer@IRefObject@core@4@@Z 00408c00 f i umodsys_lib_basesys:umodsys.basesys.rmodulelibthis.obj
 0001:00007c20       ?suicide@RParameters@rsystem@base@UModSys@@UAEXXZ 00408c20 f i umodsys_lib_basesys:umodsys.basesys.rparameters.obj
 0001:00007c20       ?suicide@RModuleLibraryThis@rsystem@base@UModSys@@UAEXXZ 00408c20 f i umodsys_lib_basesys:umodsys.basesys.rmodulelibthis.obj
 0001:00007c20       ?suicide@RModuleLibrarySO@rsystem@base@UModSys@@UAEXXZ 00408c20 f i umodsys_lib_basesys:umodsys.basesys.rmodulelibso.obj
 0001:00007c30       ??_GRModuleLibraryThis@rsystem@base@UModSys@@UAEPAXI@Z 00408c30 f i umodsys_lib_basesys:umodsys.basesys.rmodulelibthis.obj
 0001:00007c30       ??_ERModuleLibraryThis@rsystem@base@UModSys@@UAEPAXI@Z 00408c30 f i  CIL library: CIL module
 0001:00007c50       ??_GIModuleLibraryUni@rsystem@base@UModSys@@UAEPAXI@Z 00408c50 f i umodsys_lib_basesys:umodsys.basesys.rmodulelib.obj
 0001:00007c50       ??_EIModuleLibraryUni@rsystem@base@UModSys@@UAEPAXI@Z 00408c50 f i  CIL library: CIL module
 0001:00007c70       ??_GIModuleLibrary@base@UModSys@@UAEPAXI@Z 00408c70 f i umodsys_lib_basesys:umodsys.basesys.rmodulelib.obj
 0001:00007c70       ??_EIModuleLibrary@base@UModSys@@UAEPAXI@Z 00408c70 f i  CIL library: CIL module
 0001:00007c90       ?Push@?$TDynarray@U?$TDynarrayHolderDynamic@U?$TRefObject@URModuleLibrarySO@rsystem@base@UModSys@@U?$TRefObjectFunc@URModuleLibrarySO@rsystem@base@UModSys@@@tl@4@@tl@UModSys@@U?$TAllocator@USMemAlloc_Malloc@core@UModSys@@USCountCalcPower2@23@@23@@tl@UModSys@@@tl@UModSys@@QAE_NABU?$TRefObject@URModuleLibrarySO@rsystem@base@UModSys@@U?$TRefObjectFunc@URModuleLibrarySO@rsystem@base@UModSys@@@tl@4@@23@@Z 00408c90 f i umodsys_lib_basesys:umodsys.basesys.rmodulelibso.obj
 0001:00007c90       ?Push@?$TDynarray@U?$TDynarrayHolderDynamic@U?$TRefObject@URModule@rsystem@base@UModSys@@U?$TRefObjectFunc@URModule@rsystem@base@UModSys@@@tl@4@@tl@UModSys@@U?$TAllocator@USMemAlloc_Malloc@core@UModSys@@USCountCalcPower2@23@@23@@tl@UModSys@@@tl@UModSys@@QAE_NABU?$TRefObject@URModule@rsystem@base@UModSys@@U?$TRefObjectFunc@URModule@rsystem@base@UModSys@@@tl@4@@23@@Z 00408c90 f i umodsys_lib_basesys:umodsys.basesys.rmodulelib.obj
 0001:00007d10       ?ResizeRel@?$TDynarray@U?$TDynarrayHolderDynamic@U?$TRefObject@URModule@rsystem@base@UModSys@@U?$TRefObjectFunc@URModule@rsystem@base@UModSys@@@tl@4@@tl@UModSys@@U?$TAllocator@USMemAlloc_Malloc@core@UModSys@@USCountCalcPower2@23@@23@@tl@UModSys@@@tl@UModSys@@QAE_NH@Z 00408d10 f i umodsys_lib_basesys:umodsys.basesys.rmodulelib.obj
 0001:00007d10       ?ResizeRel@?$TDynarray@U?$TDynarrayHolderDynamic@U?$TRefObject@URModuleLibrarySO@rsystem@base@UModSys@@U?$TRefObjectFunc@URModuleLibrarySO@rsystem@base@UModSys@@@tl@4@@tl@UModSys@@U?$TAllocator@USMemAlloc_Malloc@core@UModSys@@USCountCalcPower2@23@@23@@tl@UModSys@@@tl@UModSys@@QAE_NH@Z 00408d10 f i umodsys_lib_basesys:umodsys.basesys.rmoduleloader.obj
 0001:00007d80       ?check_leaks@?$TRMemAlloc_CC@U?$TMemAllocHeader@USMagic@mem_headers@rsystem@base@UModSys@@U?$TPool@X@2345@USDebug@2345@UVoid@core@5@U895@@rsystem@base@UModSys@@USMemAlloc_Malloc@core@4@@rsystem@base@UModSys@@QAEI_NPAUIExceptionHandler@core@4@@Z 00408d80 f i umodsys_lib_basesys:umodsys.basesys.rmodulelib.obj
 0001:00007e00       ?find@?$TQuantArrayUnique@USUniquePointerInfo@core@UModSys@@$0BAA@USMemAlloc_Malloc@23@@tl@UModSys@@QAEPBUSUniquePointerInfo@core@3@ABU453@@Z 00408e00 f i umodsys_lib_basesys:umodsys.basesys.rsystem.obj
 0001:00007e00       ?find@?$TQuantArrayUnique@USSourceContext@core@UModSys@@$0BAA@USMemAlloc_Malloc@23@@tl@UModSys@@QAEPBUSSourceContext@core@3@ABU453@@Z 00408e00 f i umodsys_lib_basesys:umodsys.basesys.rsystem.obj
 0001:00007ef0       ?add@?$TQuantArrayUnique@USUniquePointerInfo@core@UModSys@@$0BAA@USMemAlloc_Malloc@23@@tl@UModSys@@QAEPAUSUniquePointerInfo@core@3@ABU453@@Z 00408ef0 f i umodsys_lib_basesys:umodsys.basesys.rsystem.obj
 0001:00007ef0       ?add@?$TQuantArrayUnique@USSourceContext@core@UModSys@@$0BAA@USMemAlloc_Malloc@23@@tl@UModSys@@QAEPAUSSourceContext@core@3@ABU453@@Z 00408ef0 f i umodsys_lib_basesys:umodsys.basesys.rsystem.obj
 0001:00008080       ?insert_color@?$TTreeHoldRB@U?$TScatterArrayNode@USCacheElem@RLibraryBinCache@std@media@modules@UModSys@@U?$TString@U?$TSCoreConst@D@su@tl@UModSys@@U?$TComparerBinaryHash@D@234@@tl@6@@tl@UModSys@@@tl@UModSys@@IAEXPAU?$TScatterArrayNode@USCacheElem@RLibraryBinCache@std@media@modules@UModSys@@U?$TString@U?$TSCoreConst@D@su@tl@UModSys@@U?$TComparerBinaryHash@D@234@@tl@6@@23@@Z 00409080 f i umodsys_lib_libmedia:umodsys.mod.media.std.obj
 0001:00008080       ?insert_color@?$TTreeHoldRB@U?$TScatterArrayNode@USMountInfo@RLibraryBinTree@std@media@modules@UModSys@@USId@ILibraryBinTree@libmedia@6@@tl@UModSys@@@tl@UModSys@@IAEXPAU?$TScatterArrayNode@USMountInfo@RLibraryBinTree@std@media@modules@UModSys@@USId@ILibraryBinTree@libmedia@6@@23@@Z 00409080 f i umodsys_lib_libmedia:umodsys.mod.media.std.obj
 0001:00008080       ?insert_color@?$TTreeHoldRB@U?$TQuantArrayNode@USUniquePointerInfo@core@UModSys@@$0BAA@@tl@UModSys@@@tl@UModSys@@IAEXPAU?$TQuantArrayNode@USUniquePointerInfo@core@UModSys@@$0BAA@@23@@Z 00409080 f i umodsys_lib_basesys:umodsys.basesys.rsystem.obj
 0001:00008080       ?insert_color@?$TTreeHoldRB@U?$TQuantArrayNode@USSourceContext@core@UModSys@@$0BAA@@tl@UModSys@@@tl@UModSys@@IAEXPAU?$TQuantArrayNode@USSourceContext@core@UModSys@@$0BAA@@23@@Z 00409080 f i umodsys_lib_basesys:umodsys.basesys.rsystem.obj
 0001:00008080       ?insert_color@?$TTreeHoldRB@U?$TScatterArrayNode@USFilter@RLibraryObjFilter@std@media@modules@UModSys@@USId@23456@@tl@UModSys@@@tl@UModSys@@IAEXPAU?$TScatterArrayNode@USFilter@RLibraryObjFilter@std@media@modules@UModSys@@USId@23456@@23@@Z 00409080 f i umodsys_lib_libmedia:umodsys.mod.media.std.obj
 0001:00008080       ?insert_color@?$TTreeHoldRB@U?$TScatterArrayNode@USCacheElem@RLibraryObjCache@std@media@modules@UModSys@@U?$TString@U?$TSCoreConst@D@su@tl@UModSys@@U?$TComparerBinaryHash@D@234@@tl@6@@tl@UModSys@@@tl@UModSys@@IAEXPAU?$TScatterArrayNode@USCacheElem@RLibraryObjCache@std@media@modules@UModSys@@U?$TString@U?$TSCoreConst@D@su@tl@UModSys@@U?$TComparerBinaryHash@D@234@@tl@6@@23@@Z 00409080 f i umodsys_lib_libmedia:umodsys.mod.media.std.obj
 0001:00008220       ?root_get_interface_info@RParameters@rsystem@base@UModSys@@UBEABUSUniquePointerInfo@core@4@XZ 00409220 f i umodsys_lib_basesys:umodsys.basesys.rparameters.obj
 0001:00008230       ?root_get_interface_type@RParameters@rsystem@base@UModSys@@UBEPBUSUniquePointerInfo@core@4@XZ 00409230 f i umodsys_lib_basesys:umodsys.basesys.rparameters.obj
 0001:00008240       ?root_get_other_interface@RParameters@rsystem@base@UModSys@@UBEPBUIRoot@core@4@PBUSUniquePointerInfo@64@@Z 00409240 f i umodsys_lib_basesys:umodsys.basesys.rparameters.obj
 0001:00008240       ?root_get_other_interface@RParameters@rsystem@base@UModSys@@UAEPAUIRoot@core@4@PBUSUniquePointerInfo@64@@Z 00409240 f i umodsys_lib_basesys:umodsys.basesys.rparameters.obj
 0001:00008270       ?root_is_interface_supported@RParameters@rsystem@base@UModSys@@UBE_NPBUSUniquePointerInfo@core@4@@Z 00409270 f i umodsys_lib_basesys:umodsys.basesys.rparameters.obj
 0001:000082b0       ?ref_add@RParameters@rsystem@base@UModSys@@UBEXXZ 004092b0 f i umodsys_lib_basesys:umodsys.basesys.rparameters.obj
 0001:000082c0       ?ref_remove@RParameters@rsystem@base@UModSys@@UBEXXZ 004092c0 f i umodsys_lib_basesys:umodsys.basesys.rparameters.obj
 0001:000082d0       ?ref_links@RParameters@rsystem@base@UModSys@@UBEHXZ 004092d0 f i umodsys_lib_basesys:umodsys.basesys.rparameters.obj
 0001:000082e0       ?ref_weak@RParameters@rsystem@base@UModSys@@UBE_NAAUWeakPointer@IRefObject@core@4@@Z 004092e0 f i umodsys_lib_basesys:umodsys.basesys.rparameters.obj
 0001:00008300       ??_ERParameters@rsystem@base@UModSys@@UAEPAXI@Z 00409300 f i  CIL library: CIL module
 0001:00008300       ??_GRParameters@rsystem@base@UModSys@@UAEPAXI@Z 00409300 f i umodsys_lib_basesys:umodsys.basesys.rparameters.obj
 0001:00008320       ??$shash@D@su@tl@UModSys@@YAHPBD@Z 00409320 f i umodsys_lib_basesys:umodsys.basesys.rparameters.obj
 0001:00008340       ??$t_free@UIMemAlloc@core@UModSys@@@SMemChunk@core@UModSys@@QAE_NAAUIMemAlloc@12@PBUSSourceContext@12@@Z 00409340 f i umodsys_lib_basesys:umodsys.basesys.rparameters.obj
 0001:00008360       ??$t_alloc@UIMemAlloc@core@UModSys@@@SMemChunk@core@UModSys@@QAE_NAAUIMemAlloc@12@IPBUSSourceContext@12@@Z 00409360 f i umodsys_lib_basesys:umodsys.basesys.rparameters.obj
 0001:000083a0       ??0?$UniPath@$0CAAA@@syshlp@core@UModSys@@QAE@PB_W@Z 004093a0 f i umodsys_lib_basesys:umodsys.basesys.rmodule.win32.obj
 0001:000083e0       ?set@?$U8String@$0CAAA@@syshlp@core@UModSys@@QAEXPB_W@Z 004093e0 f i umodsys_lib_basesys:umodsys.basesys.rmodule.win32.obj
 0001:00008410       ?root_get_interface_info@RModule@rsystem@base@UModSys@@UBEABUSUniquePointerInfo@core@4@XZ 00409410 f i umodsys_lib_basesys:umodsys.basesys.rmodule.obj
 0001:00008420       ?root_get_interface_type@RModule@rsystem@base@UModSys@@UBEPBUSUniquePointerInfo@core@4@XZ 00409420 f i umodsys_lib_basesys:umodsys.basesys.rmodule.obj
 0001:00008430       ?root_get_other_interface@RModule@rsystem@base@UModSys@@UAEPAUIRoot@core@4@PBUSUniquePointerInfo@64@@Z 00409430 f i umodsys_lib_basesys:umodsys.basesys.rmodule.obj
 0001:00008430       ?root_get_other_interface@RModule@rsystem@base@UModSys@@UBEPBUIRoot@core@4@PBUSUniquePointerInfo@64@@Z 00409430 f i umodsys_lib_basesys:umodsys.basesys.rmodule.obj
 0001:00008460       ?root_is_interface_supported@RModule@rsystem@base@UModSys@@UBE_NPBUSUniquePointerInfo@core@4@@Z 00409460 f i umodsys_lib_basesys:umodsys.basesys.rmodule.obj
 0001:000084a0       ?ref_add@RModule@rsystem@base@UModSys@@UBEXXZ 004094a0 f i umodsys_lib_basesys:umodsys.basesys.rmodule.obj
 0001:000084b0       ?ref_remove@RModule@rsystem@base@UModSys@@UBEXXZ 004094b0 f i umodsys_lib_basesys:umodsys.basesys.rmodule.obj
 0001:000084c0       ?ref_links@RModule@rsystem@base@UModSys@@UBEHXZ 004094c0 f i umodsys_lib_basesys:umodsys.basesys.rmodule.obj
 0001:000084d0       ?ref_weak@RModule@rsystem@base@UModSys@@UBE_NAAUWeakPointer@IRefObject@core@4@@Z 004094d0 f i umodsys_lib_basesys:umodsys.basesys.rmodule.obj
 0001:000084f0       ?suicide@RModule@rsystem@base@UModSys@@UAEXXZ 004094f0 f i umodsys_lib_basesys:umodsys.basesys.rmodule.obj
 0001:00008500       ??_ERModule@rsystem@base@UModSys@@UAEPAXI@Z 00409500 f i  CIL library: CIL module
 0001:00008500       ??_GRModule@rsystem@base@UModSys@@UAEPAXI@Z 00409500 f i umodsys_lib_basesys:umodsys.basesys.rmodule.obj
 0001:00008520       ??_GIModule@base@UModSys@@UAEPAXI@Z 00409520 f i umodsys_lib_basesys:umodsys.basesys.rmodule.obj
 0001:00008520       ??_EIModule@base@UModSys@@UAEPAXI@Z 00409520 f i  CIL library: CIL module
 0001:00008540       ??1?$TDynarrayDynamic@UModuleObjInfo@RModule@rsystem@base@UModSys@@U?$TAllocator@USMemAlloc_Malloc@core@UModSys@@USCountCalcPower2@23@@tl@5@@tl@UModSys@@QAE@XZ 00409540 f i umodsys_lib_basesys:umodsys.basesys.rmodule.obj
 0001:00008570       ??1?$TDynarrayDynamic@UGeneratedObjInfo@RModule@rsystem@base@UModSys@@U?$TAllocator@USMemAlloc_Malloc@core@UModSys@@USCountCalcPower2@23@@tl@5@@tl@UModSys@@QAE@XZ 00409570 f i umodsys_lib_basesys:umodsys.basesys.rmodule.obj
 0001:000085a0       ??1?$TDynarrayDynamic@PBUSUniquePointerInfo@core@UModSys@@U?$TAllocator@USMemAlloc_Malloc@core@UModSys@@USCountCalcPower2@23@@tl@3@@tl@UModSys@@QAE@XZ 004095a0 f i umodsys_lib_basesys:umodsys.basesys.rmodule.obj
 0001:000085d0       ?Free@?$TDynarray@U?$TDynarrayHolderDynamic@UModuleObjInfo@RModule@rsystem@base@UModSys@@U?$TAllocator@USMemAlloc_Malloc@core@UModSys@@USCountCalcPower2@23@@tl@5@@tl@UModSys@@@tl@UModSys@@QAE_NXZ 004095d0 f i umodsys_lib_basesys:umodsys.basesys.rmodule.obj
 0001:00008640       ?Free@?$TDynarray@U?$TDynarrayHolderDynamic@UGeneratedObjInfo@RModule@rsystem@base@UModSys@@U?$TAllocator@USMemAlloc_Malloc@core@UModSys@@USCountCalcPower2@23@@tl@5@@tl@UModSys@@@tl@UModSys@@QAE_NXZ 00409640 f i umodsys_lib_basesys:umodsys.basesys.rmodule.obj
 0001:000086b0       ?Free@?$TDynarray@U?$TDynarrayHolderDynamic@PBUSUniquePointerInfo@core@UModSys@@U?$TAllocator@USMemAlloc_Malloc@core@UModSys@@USCountCalcPower2@23@@tl@3@@tl@UModSys@@@tl@UModSys@@QAE_NXZ 004096b0 f i umodsys_lib_basesys:umodsys.basesys.rmodule.obj
 0001:00008710       ?obj_delete@?$TRefObjectLinksParent@URModule@rsystem@base@UModSys@@UIModuleLibraryUni@234@@tl@UModSys@@QBEXPAURModule@rsystem@base@3@@Z 00409710 f i umodsys_lib_basesys:umodsys.basesys.rmodule.obj
 0001:00008780       ??$wildcmp@D@su@tl@UModSys@@YA_NPBD0@Z 00409780 f i umodsys_lib_basesys:umodsys.basesys.rmodule.obj
 0001:00008820       ?ReLink@?$TDynarray@U?$TDynarrayHolderDynamic@UModuleObjInfo@RModule@rsystem@base@UModSys@@U?$TAllocator@USMemAlloc_Malloc@core@UModSys@@USCountCalcPower2@23@@tl@5@@tl@UModSys@@@tl@UModSys@@IAE_NI@Z 00409820 f i umodsys_lib_basesys:umodsys.basesys.rmodule.obj
 0001:00008870       ?ReLink@?$TDynarray@U?$TDynarrayHolderDynamic@UGeneratedObjInfo@RModule@rsystem@base@UModSys@@U?$TAllocator@USMemAlloc_Malloc@core@UModSys@@USCountCalcPower2@23@@tl@5@@tl@UModSys@@@tl@UModSys@@IAE_NI@Z 00409870 f i umodsys_lib_basesys:umodsys.basesys.rmodule.obj
 0001:000088c0       ?items_construct@?$TDynarray@U?$TDynarrayHolderDynamic@UGeneratedObjInfo@RModule@rsystem@base@UModSys@@U?$TAllocator@USMemAlloc_Malloc@core@UModSys@@USCountCalcPower2@23@@tl@5@@tl@UModSys@@@tl@UModSys@@IAEXII@Z 004098c0 f i umodsys_lib_basesys:umodsys.basesys.rmodule.obj
 0001:00008900       ?aconstruct@?$TTypeConstructor@UModuleObjInfo@RModule@rsystem@base@UModSys@@@tl@UModSys@@SAXPAUModuleObjInfo@RModule@rsystem@base@3@I@Z 00409900 f i umodsys_lib_basesys:umodsys.basesys.rmodule.obj
 0001:00008940       ?root_get_interface_info@RModuleLibrarySO@rsystem@base@UModSys@@UBEABUSUniquePointerInfo@core@4@XZ 00409940 f i umodsys_lib_basesys:umodsys.basesys.rmodulelibso.obj
 0001:00008950       ?root_get_interface_type@RModuleLibrarySO@rsystem@base@UModSys@@UBEPBUSUniquePointerInfo@core@4@XZ 00409950 f i umodsys_lib_basesys:umodsys.basesys.rmodulelibso.obj
 0001:00008960       ?root_get_other_interface@RModuleLibrarySO@rsystem@base@UModSys@@UAEPAUIRoot@core@4@PBUSUniquePointerInfo@64@@Z 00409960 f i umodsys_lib_basesys:umodsys.basesys.rmodulelibso.obj
 0001:00008960       ?root_get_other_interface@RModuleLibrarySO@rsystem@base@UModSys@@UBEPBUIRoot@core@4@PBUSUniquePointerInfo@64@@Z 00409960 f i umodsys_lib_basesys:umodsys.basesys.rmodulelibso.obj
 0001:000089a0       ?root_is_interface_supported@RModuleLibrarySO@rsystem@base@UModSys@@UBE_NPBUSUniquePointerInfo@core@4@@Z 004099a0 f i umodsys_lib_basesys:umodsys.basesys.rmodulelibso.obj
 0001:000089e0       ?ref_add@RModuleLibrarySO@rsystem@base@UModSys@@UBEXXZ 004099e0 f i umodsys_lib_basesys:umodsys.basesys.rmodulelibso.obj
 0001:000089f0       ?ref_remove@RModuleLibrarySO@rsystem@base@UModSys@@UBEXXZ 004099f0 f i umodsys_lib_basesys:umodsys.basesys.rmodulelibso.obj
 0001:00008a10       ?ref_links@RModuleLibrarySO@rsystem@base@UModSys@@UBEHXZ 00409a10 f i umodsys_lib_basesys:umodsys.basesys.rmodulelibso.obj
 0001:00008a20       ?ref_weak@RModuleLibrarySO@rsystem@base@UModSys@@UBE_NAAUWeakPointer@IRefObject@core@4@@Z 00409a20 f i umodsys_lib_basesys:umodsys.basesys.rmodulelibso.obj
 0001:00008a50       ??_ERModuleLibrarySO@rsystem@base@UModSys@@UAEPAXI@Z 00409a50 f i  CIL library: CIL module
 0001:00008a50       ??_GRModuleLibrarySO@rsystem@base@UModSys@@UAEPAXI@Z 00409a50 f i umodsys_lib_basesys:umodsys.basesys.rmodulelibso.obj
 0001:00008a70       ?info_new@?$TSCoreShared@USMemAlloc_Malloc@core@UModSys@@D@su@tl@UModSys@@QAE_NPBDI@Z 00409a70 f i umodsys_lib_basesys:umodsys.basesys.rmodulelibso.obj
 0001:00008af0       ??_ERModuleLibraryReg_Chain@base@UModSys@@UAEPAXI@Z 00409af0 f i  CIL library: CIL module
 0001:00008af0       ??_GRModuleLibraryReg_Chain@base@UModSys@@UAEPAXI@Z 00409af0 f i umodsys_lib_base:umodsys.base.moduleregchain.obj
 0001:00008b10       ??_EIModuleReg@base@UModSys@@UAEPAXI@Z 00409b10 f i  CIL library: CIL module
 0001:00008b10       ??_GIModuleReg@base@UModSys@@UAEPAXI@Z 00409b10 f i umodsys_lib_base:umodsys.base.modulereg.obj
 0001:00008b30       ??_EIModuleLibraryReg@base@UModSys@@UAEPAXI@Z 00409b30 f i  CIL library: CIL module
 0001:00008b30       ??_GIModuleLibraryReg@base@UModSys@@UAEPAXI@Z 00409b30 f i umodsys_lib_base:umodsys.base.modulereg.obj
 0001:00008b50       ?Find@?$TSet@U?$TArray@PBUSUniquePointerInfo@core@UModSys@@@tl@UModSys@@U?$TScalarCompare@PBUSUniquePointerInfo@core@UModSys@@@core@3@@tl@UModSys@@QBEPBQBUSUniquePointerInfo@core@3@ABQBU453@@Z 00409b50 f i umodsys_lib_core:umodsys.core.uniqueptrlist.obj
 0001:00008bdb       __onexit                   00409bdb f   MSVCRT:atonexit.obj
 0001:00008c80       _atexit                    00409c80 f   MSVCRT:atonexit.obj
 0001:00008f39       _mainCRTStartup            00409f39 f   MSVCRT:crtexe.obj
 0001:00008f44       __purecall                 00409f44 f   MSVCRT:MSVCR90.dll
 0001:00008f4a       ??3@YAXPAX@Z               00409f4a f   MSVCRT:MSVCR90.dll
 0001:00008f50       ??_Etype_info@@UAEPAXI@Z   00409f50 f i MSVCRT:ti_inst.obj
 0001:00008f9c       ??2@YAPAXI@Z               00409f9c f   MSVCRT:MSVCR90.dll
 0001:00008fa2       __unlock                   00409fa2 f   MSVCRT:MSVCR90.dll
 0001:00008fa8       ___dllonexit               00409fa8 f   MSVCRT:MSVCR90.dll
 0001:00008fae       __lock                     00409fae f   MSVCRT:MSVCR90.dll
 0001:00008fb4       __SEH_prolog4              00409fb4 f   MSVCRT:sehprolg4.obj
 0001:00008ff9       __SEH_epilog4              00409ff9 f   MSVCRT:sehprolg4.obj
 0001:0000900d       __except_handler4          0040a00d f   MSVCRT:chandler4gs.obj
 0001:00009032       ?__CxxUnhandledExceptionFilter@@YGJPAU_EXCEPTION_POINTERS@@@Z 0040a032 f   MSVCRT:unhandld.obj
 0001:00009074       ___CxxSetUnhandledExceptionFilter 0040a074 f   MSVCRT:unhandld.obj
 0001:00009082       __amsg_exit                0040a082 f   MSVCRT:MSVCR90.dll
 0001:00009088       __RTC_Initialize           0040a088 f   MSVCRT:_initsect_.obj
 0001:000090ae       __RTC_Terminate            0040a0ae f   MSVCRT:_initsect_.obj
 0001:000090d4       __XcptFilter               0040a0d4 f   MSVCRT:MSVCR90.dll
 0001:000090e0       __ValidateImageBase        0040a0e0 f   MSVCRT:pesect.obj
 0001:00009120       __FindPESection            0040a120 f   MSVCRT:pesect.obj
 0001:00009170       __IsNonwritableInCurrentImage 0040a170 f   MSVCRT:pesect.obj
 0001:0000922e       __initterm                 0040a22e f   MSVCRT:MSVCR90.dll
 0001:00009234       __initterm_e               0040a234 f   MSVCRT:MSVCR90.dll
 0001:0000923a       __setdefaultprecision      0040a23a f   MSVCRT:fp8.obj
 0001:00009265       __matherr                  0040a265 f   MSVCRT:merr.obj
 0001:00009265       __setargv                  0040a265 f   MSVCRT:dllargv.obj
 0001:00009268       ___security_init_cookie    0040a268 f   MSVCRT:gs_support.obj
 0001:000092fe       ?__ArrayUnwind@@YGXPAXIHP6EX0@Z@Z 0040a2fe f   MSVCRT:ehvecdtr.obj
 0001:0000935c       ??_M@YGXPAXIHP6EX0@Z@Z     0040a35c f   MSVCRT:ehvecdtr.obj
 0001:000093bf       @__security_check_cookie@4 0040a3bf f   MSVCRT:secchk.obj
 0001:000093ce       __except_handler4_common   0040a3ce f   MSVCRT:MSVCR90.dll
 0001:000093d4       ?terminate@@YAXXZ          0040a3d4 f   MSVCRT:MSVCR90.dll
 0001:000093da       __invoke_watson            0040a3da f   MSVCRT:MSVCR90.dll
 0001:000093e0       __controlfp_s              0040a3e0 f   MSVCRT:MSVCR90.dll
 0001:000093e6       ?_type_info_dtor_internal_method@type_info@@QAEXXZ 0040a3e6 f   MSVCRT:MSVCR90.dll
 0001:000093e6       ??1type_info@@UAE@XZ       0040a3e6 f   MSVCRT:MSVCR90.dll
 0001:000093ec       ___report_gsfailure        0040a3ec f   MSVCRT:gs_report.obj
 0001:000094f2       __crt_debugger_hook        0040a4f2 f   MSVCRT:MSVCR90.dll
 0001:000094f8       _png_get_IHDR              0040a4f8 f   lib_libpng:lib_libpng.dll
 0001:000094fe       _png_read_info             0040a4fe f   lib_libpng:lib_libpng.dll
 0001:00009504       _png_sig_cmp               0040a504 f   lib_libpng:lib_libpng.dll
 0001:0000950a       _png_create_read_struct    0040a50a f   lib_libpng:lib_libpng.dll
 0001:00009510       _png_get_io_ptr            0040a510 f   lib_libpng:lib_libpng.dll
 0001:00009516       _png_create_info_struct    0040a516 f   lib_libpng:lib_libpng.dll
 0001:0000951c       _png_set_read_fn           0040a51c f   lib_libpng:lib_libpng.dll
 0001:00009522       _png_read_update_info      0040a522 f   lib_libpng:lib_libpng.dll
 0001:00009528       _png_set_sig_bytes         0040a528 f   lib_libpng:lib_libpng.dll
 0001:0000952e       _png_read_row              0040a52e f   lib_libpng:lib_libpng.dll
 0001:00009534       _png_error                 0040a534 f   lib_libpng:lib_libpng.dll
 0001:0000953a       _png_destroy_read_struct   0040a53a f   lib_libpng:lib_libpng.dll
 0001:00009540       ?gracial_convert@syshlp@core@UModSys@@YA_NPADHPB_WH@Z 0040a540 f   umodsys_lib_core:umodsys.core.syshlp_charcode.win32.obj
 0001:00009570       ?gracial_convert@syshlp@core@UModSys@@YA_NPA_WHPBDH@Z 0040a570 f   umodsys_lib_core:umodsys.core.syshlp_charcode.win32.obj
 0001:000095a0       ?path_uni_os@syshlp@core@UModSys@@YAXPA_W@Z 0040a5a0 f   umodsys_lib_core:umodsys.core.syshlp_chars.win32.obj
 0001:000095c0       ?path_os_uni@syshlp@core@UModSys@@YAXPAD@Z 0040a5c0 f   umodsys_lib_core:umodsys.core.syshlp_chars.win32.obj
 0001:000095e0       ?safe_vsnprintf@syshlp@core@UModSys@@YAIPADIPBD0@Z 0040a5e0 f   umodsys_lib_core:umodsys.core.syshlp_chars.win32.obj
 0001:00009600       ?gracial_cpy@syshlp@core@UModSys@@YA_NPA_WHQAPB_WH@Z 0040a600 f   umodsys_lib_core:umodsys.core.syshlp_chars.win32.obj
 0001:000096a0       ?gracial_cpy@syshlp@core@UModSys@@YA_NPADHQAPBDH@Z 0040a6a0 f   umodsys_lib_core:umodsys.core.syshlp_chars.win32.obj
 0001:00009730       ?utf8_cmp_nocase@su@tl@UModSys@@YAHPBD0I@Z 0040a730 f   umodsys_lib_core:umodsys.tl.utf.obj
 0001:00009740       ??3IRoot@core@UModSys@@SAXPAX@Z 0040a740 f   umodsys_lib_core:umodsys.core.objects.obj
 0001:00009760       ??3IRoot@core@UModSys@@SAXPAXPAUIMemAlloc@12@@Z 0040a760 f   umodsys_lib_core:umodsys.core.objects.obj
 0001:00009780       ??2IRoot@core@UModSys@@SAPAXIPAUIMemAlloc@12@@Z 0040a780 f   umodsys_lib_core:umodsys.core.objects.obj
 0001:000097a0       ?suicide@IRoot@core@UModSys@@UAEXXZ 0040a7a0 f   umodsys_lib_core:umodsys.core.objects.obj
 0001:000097b0       ??1IRoot@core@UModSys@@UAE@XZ 0040a7b0 f   umodsys_lib_core:umodsys.core.objects.obj
 0001:000097c0       ??1IRefObject@core@UModSys@@UAE@XZ 0040a7c0 f   umodsys_lib_core:umodsys.core.objects.obj
 0001:000097d0       ?restore_console@syshlp@core@UModSys@@YAXXZ 0040a7d0 f   umodsys_lib_core:umodsys.core.syshlp_files.win32.obj
 0001:000097f0       ?setup_console@syshlp@core@UModSys@@YAXXZ 0040a7f0 f   umodsys_lib_core:umodsys.core.syshlp_files.win32.obj
 0001:00009820       ?u_fopen@syshlp@core@UModSys@@YAPAU_iobuf@@PBD0@Z 0040a820 f   umodsys_lib_core:umodsys.core.syshlp_files.win32.obj
 0001:000098c0       ?u_fendtemp@syshlp@core@UModSys@@YA_NAAPAU_iobuf@@AAPAD_N@Z 0040a8c0 f   umodsys_lib_core:umodsys.core.syshlp_files.win32.obj
 0001:00009980       ?u_fopentemp@syshlp@core@UModSys@@YAPAU_iobuf@@AAPADPBD@Z 0040a980 f   umodsys_lib_core:umodsys.core.syshlp_files.win32.obj
 0001:00009a10       ?lost@core@UModSys@@YAEPBX@Z 0040aa10 f   umodsys_lib_core:umodsys.core.stdtypedefs.obj
 0001:00009a20       ?s_unresolve@SUniquePointer@core@UModSys@@SAXPAUIUniquePointerResolver@23@@Z 0040aa20 f   umodsys_lib_core:umodsys.core.uniqueptr.obj
 0001:00009a60       ?s_resolve@SUniquePointer@core@UModSys@@SAXPAUIUniquePointerResolver@23@@Z 0040aa60 f   umodsys_lib_core:umodsys.core.uniqueptr.obj
 0001:00009ab0       ??1SUniquePointer@core@UModSys@@QAE@XZ 0040aab0 f   umodsys_lib_core:umodsys.core.uniqueptr.obj
 0001:00009ae0       ??0SUniquePointer@core@UModSys@@QAE@H@Z 0040aae0 f   umodsys_lib_core:umodsys.core.uniqueptr.obj
 0001:00009b00       ??0SUniquePointer@core@UModSys@@QAE@PBD0H@Z 0040ab00 f   umodsys_lib_core:umodsys.core.uniqueptr.obj
 0001:00009b50       ??1SModuleInfo@base@UModSys@@QAE@XZ 0040ab50 f   umodsys_lib_base:umodsys.base.moduleinfo.obj
 0001:00009b60       ??0SModuleInfo@base@UModSys@@QAE@PBDHH0@Z 0040ab60 f   umodsys_lib_base:umodsys.base.moduleinfo.obj
 0001:00009be0       ??0SModuleInfo@base@UModSys@@QAE@XZ 0040abe0 f   umodsys_lib_base:umodsys.base.moduleinfo.obj
 0001:00009c00       ??1IModuleLoader@base@UModSys@@UAE@XZ 0040ac00 f   umodsys_lib_base:umodsys.base.moduleloader.obj
 0001:00009c10       ??1SDebug@base@UModSys@@QAE@XZ 0040ac10 f   umodsys_lib_base:umodsys.base.debug.obj
 0001:00009c30       ??0SDebug@base@UModSys@@QAE@PAUIConsole@12@I@Z 0040ac30 f   umodsys_lib_base:umodsys.base.debug.obj
 0001:00009c50       ??1ISystem@base@UModSys@@UAE@XZ 0040ac50 f   umodsys_lib_base:umodsys.base.system.obj
 0001:00009c60       ??1IModuleLibraryReg@base@UModSys@@UAE@XZ 0040ac60 f   umodsys_lib_base:umodsys.base.modulereg.obj
 0001:00009c70       ??0IModuleLibraryReg@base@UModSys@@QAE@XZ 0040ac70 f   umodsys_lib_base:umodsys.base.modulereg.obj
 0001:00009c80       ?mr_close@IModuleReg@base@UModSys@@UAE_NXZ 0040ac80 f   umodsys_lib_base:umodsys.base.modulereg.obj
 0001:00009c90       ?mr_open@IModuleReg@base@UModSys@@UAE_NXZ 0040ac90 f   umodsys_lib_base:umodsys.base.modulereg.obj
 0001:00009cb0       ?mr_isopen@IModuleReg@base@UModSys@@UBE_NXZ 0040acb0 f   umodsys_lib_base:umodsys.base.modulereg.obj
 0001:00009cc0       ??1IModuleReg@base@UModSys@@UAE@XZ 0040acc0 f   umodsys_lib_base:umodsys.base.modulereg.obj
 0001:00009cd0       ??0IModuleReg@base@UModSys@@QAE@PBDHH0@Z 0040acd0 f   umodsys_lib_base:umodsys.base.modulereg.obj
 0001:00009cf0       _UModSys_Plugin_Entry2@0   0040acf0 f   umodsys_lib_base:umodsys.so_main.win32.obj
 0001:00009d00       ??1RModuleLibraryReg_Chain@base@UModSys@@UAE@XZ 0040ad00 f   umodsys_lib_base:umodsys.base.moduleregchain.obj
 0001:00009d10       ??0RModuleLibraryReg_Chain@base@UModSys@@QAE@XZ 0040ad10 f   umodsys_lib_base:umodsys.base.moduleregchain.obj
 0001:00009d30       ?s_get@SModuleRegChain@base@UModSys@@SAPAUIModuleReg@23@I@Z 0040ad30 f   umodsys_lib_base:umodsys.base.moduleregchain.obj
 0001:00009d60       ??1SModuleRegChain@base@UModSys@@QAE@XZ 0040ad60 f   umodsys_lib_base:umodsys.base.moduleregchain.obj
 0001:00009d90       ??0SModuleRegChain@base@UModSys@@QAE@AAUIModuleReg@12@@Z 0040ad90 f   umodsys_lib_base:umodsys.base.moduleregchain.obj
 0001:00009dd0       ?mlr_isopen@RModuleLibraryReg_Chain@base@UModSys@@UBE_NXZ 0040add0 f   umodsys_lib_base:umodsys.base.moduleregchain.obj
 0001:00009de0       ?mlr_close@RModuleLibraryReg_Chain@base@UModSys@@UAE_NXZ 0040ade0 f   umodsys_lib_base:umodsys.base.moduleregchain.obj
 0001:00009e10       ?mlr_open@RModuleLibraryReg_Chain@base@UModSys@@UAE_NPAUISystem@23@PAUIMemAlloc@core@3@@Z 0040ae10 f   umodsys_lib_base:umodsys.base.moduleregchain.obj
 0001:00009e40       ?mlr_get@RModuleLibraryReg_Chain@base@UModSys@@UBEPAUIModuleReg@23@I@Z 0040ae40 f   umodsys_lib_base:umodsys.base.moduleregchain.obj
 0001:00009e50       ?mlr_count@RModuleLibraryReg_Chain@base@UModSys@@UBEIXZ 0040ae50 f   umodsys_lib_base:umodsys.base.moduleregchain.obj
 0001:00009e70       ??0SModuleRegChain@base@UModSys@@QAE@H@Z 0040ae70 f   umodsys_lib_base:umodsys.base.moduleregchain.obj
 0001:00009e80       ?unlink@SMemorySharedData@core@UModSys@@QAEXPBUSSourceContext@23@@Z 0040ae80 f   umodsys_lib_base:umodsys.base.modulecontext.obj
 0001:00009ea0       ?link@SMemorySharedData@core@UModSys@@QAEXPBUSSourceContext@23@@Z 0040aea0 f   umodsys_lib_base:umodsys.base.modulecontext.obj
 0001:00009eb0       ?Link@SModuleContext@base@UModSys@@QAEXPAUISystem@23@PAUIMemAlloc@core@3@@Z 0040aeb0 f   umodsys_lib_base:umodsys.base.modulecontext.obj
 0001:00009f10       ??1SModuleContext@base@UModSys@@QAE@XZ 0040af10 f   umodsys_lib_base:umodsys.base.modulecontext.obj
 0001:00009f20       ?new_data@SMemorySharedData@core@UModSys@@SAPAU123@PAUIMemAlloc@23@IPBUSSourceContext@23@@Z 0040af20 f   umodsys_lib_base:umodsys.base.modulecontext.obj
 0001:00009f40       ?get_paramworker@SParameters@core@UModSys@@KAPAUIParameters@23@XZ 0040af40 f   umodsys_lib_base:umodsys.base.modulecontext.obj
 0001:00009f50       ?shared_memory@UModSys@@YAABUSIMemAlloc@core@1@XZ 0040af50 f   umodsys_lib_base:umodsys.base.modulecontext.obj
 0001:00009f60       ?local_memory@UModSys@@YAABUSIMemAlloc@core@1@XZ 0040af60 f   umodsys_lib_base:umodsys.base.modulecontext.obj
 0001:00009f70       ??0SModuleContext@base@UModSys@@QAE@XZ 0040af70 f   umodsys_lib_base:umodsys.base.modulecontext.obj
 0001:00009f90       ?uni_close@RModuleLibrarySO@rsystem@base@UModSys@@UAE_NXZ 0040af90 f   umodsys_lib_basesys:umodsys.basesys.rmodulelibso.obj
 0001:00009fb0       ?uni_open@RModuleLibrarySO@rsystem@base@UModSys@@UAE_NXZ 0040afb0 f   umodsys_lib_basesys:umodsys.basesys.rmodulelibso.obj
 0001:00009fe0       ?s_find_dup@RModuleLibrarySO@rsystem@base@UModSys@@SAIABU?$TDynarrayDynamic@U?$TRefObject@URModuleLibrarySO@rsystem@base@UModSys@@U?$TRefObjectFunc@URModuleLibrarySO@rsystem@base@UModSys@@@tl@4@@tl@UModSys@@U?$TAllocator@USMemAlloc_Malloc@core@UModSys@@USCountCalcPower2@23@@23@@tl@4@PAUIModuleLibraryReg@34@@Z 0040afe0 f   umodsys_lib_basesys:umodsys.basesys.rmodulelibso.obj
 0001:0000a010       ??0RModuleLibrarySO@rsystem@base@UModSys@@QAE@PAUISystem@23@PAUPFD_Data@0123@PAUIModuleLibraryReg@23@@Z 0040b010 f   umodsys_lib_basesys:umodsys.basesys.rmodulelibso.obj
 0001:0000a050       ??1RModuleLibrarySO@rsystem@base@UModSys@@UAE@XZ 0040b050 f   umodsys_lib_basesys:umodsys.basesys.rmodulelibso.obj
 0001:0000a0a0       ?uni_unload@RModuleLibrarySO@rsystem@base@UModSys@@UAE_NXZ 0040b0a0 f   umodsys_lib_basesys:umodsys.basesys.rmodulelibso.obj
 0001:0000a0b0       ?uni_load@RModuleLibrarySO@rsystem@base@UModSys@@UAE_NXZ 0040b0b0 f   umodsys_lib_basesys:umodsys.basesys.rmodulelibso.obj
 0001:0000a0f0       ?s_add@RModuleLibrarySO@rsystem@base@UModSys@@SA_NPAUISystem@34@AAU?$TDynarrayDynamic@U?$TRefObject@URModuleLibrarySO@rsystem@base@UModSys@@U?$TRefObjectFunc@URModuleLibrarySO@rsystem@base@UModSys@@@tl@4@@tl@UModSys@@U?$TAllocator@USMemAlloc_Malloc@core@UModSys@@USCountCalcPower2@23@@23@@tl@4@PBD@Z 0040b0f0 f   umodsys_lib_basesys:umodsys.basesys.rmodulelibso.obj
 0001:0000a2c0       ?scan@RModule@rsystem@base@UModSys@@QAE_NXZ 0040b2c0 f   umodsys_lib_basesys:umodsys.basesys.rmodule.obj
 0001:0000a2f0       ?mod_findobjname@RModule@rsystem@base@UModSys@@UAEIPBUSUniquePointerInfo@core@4@QAPBU564@IPBD@Z 0040b2f0 f   umodsys_lib_basesys:umodsys.basesys.rmodule.obj
 0001:0000a420       ?is_open@RModule@rsystem@base@UModSys@@UBE_NXZ 0040b420 f   umodsys_lib_basesys:umodsys.basesys.rmodule.obj
 0001:0000a440       ?get_info@RModule@rsystem@base@UModSys@@UBEABUSModuleInfo@34@XZ 0040b440 f   umodsys_lib_basesys:umodsys.basesys.rmodule.obj
 0001:0000a450       ?get_library@RModule@rsystem@base@UModSys@@UBEPAUIModuleLibrary@34@XZ 0040b450 f   umodsys_lib_basesys:umodsys.basesys.rmodule.obj
 0001:0000a460       ??1RModule@rsystem@base@UModSys@@UAE@XZ 0040b460 f   umodsys_lib_basesys:umodsys.basesys.rmodule.obj
 0001:0000a4e0       ?unreg_obj@RModule@rsystem@base@UModSys@@QAE_NPAUIModObject@34@@Z 0040b4e0 f   umodsys_lib_basesys:umodsys.basesys.rmodule.obj
 0001:0000a580       ?reg_generator@RModule@rsystem@base@UModSys@@QAE_NPAUModuleObjInfo@1234@PAUIGenerator@34@@Z 0040b580 f   umodsys_lib_basesys:umodsys.basesys.rmodule.obj
 0001:0000a7b0       ?save_db@RModule@rsystem@base@UModSys@@QAE_NPAU_iobuf@@@Z 0040b7b0 f   umodsys_lib_basesys:umodsys.basesys.rmodule.obj
 0001:0000a960       ?alloc_minfo@RModule@rsystem@base@UModSys@@QAE_NABUSModuleInfo@34@@Z 0040b960 f   umodsys_lib_basesys:umodsys.basesys.rmodule.obj
 0001:0000a9e0       ?reg_obj@RModule@rsystem@base@UModSys@@QAEPAUModuleObjInfo@1234@PAUIModObject@34@@Z 0040b9e0 f   umodsys_lib_basesys:umodsys.basesys.rmodule.obj
 0001:0000ab20       ?mod_generate@RModule@rsystem@base@UModSys@@UAE_NAAU?$TRefObject@UIRefObject@core@UModSys@@U?$TRefObjectFunc@UIRefObject@core@UModSys@@@tl@3@@tl@4@PBUSUniquePointerInfo@core@4@ABUSParameters@84@@Z 0040bb20 f   umodsys_lib_basesys:umodsys.basesys.rmodule.obj
 0001:0000ac40       ?reg@RModule@rsystem@base@UModSys@@UAE_NPAUIGenerator@34@_N@Z 0040bc40 f   umodsys_lib_basesys:umodsys.basesys.rmodule.obj
 0001:0000ac90       ?reg@RModule@rsystem@base@UModSys@@UAE_NPAUIModObject@34@_N@Z 0040bc90 f   umodsys_lib_basesys:umodsys.basesys.rmodule.obj
 0001:0000acc0       ?close@RModule@rsystem@base@UModSys@@UAE_NXZ 0040bcc0 f   umodsys_lib_basesys:umodsys.basesys.rmodule.obj
 0001:0000ad10       ?open@RModule@rsystem@base@UModSys@@UAE_NXZ 0040bd10 f   umodsys_lib_basesys:umodsys.basesys.rmodule.obj
 0001:0000ad70       ??0RModule@rsystem@base@UModSys@@QAE@PAUIModuleLibraryUni@123@PAUIModuleReg@23@@Z 0040bd70 f   umodsys_lib_basesys:umodsys.basesys.rmodule.obj
 0001:0000ae20       ?pfd_init@RModuleLibrarySO@rsystem@base@UModSys@@SA_NPAUPFD_Data@1234@@Z 0040be20 f   umodsys_lib_basesys:umodsys.basesys.rmodule.win32.obj
 0001:0000aea0       ?pfd_init@RModuleLibrarySO@rsystem@base@UModSys@@SA_NPAUPFD_Data@1234@0@Z 0040bea0 f   umodsys_lib_basesys:umodsys.basesys.rmodule.win32.obj
 0001:0000aec0       ?pfd_unload@RModuleLibrarySO@rsystem@base@UModSys@@SA_NPAUPFD_Data@1234@@Z 0040bec0 f   umodsys_lib_basesys:umodsys.basesys.rmodule.win32.obj
 0001:0000af00       ?pfd_load@RModuleLibrarySO@rsystem@base@UModSys@@SAPAUIModuleLibraryReg@34@PAUPFD_Data@1234@ABU?$TString@U?$TSCoreConst@D@su@tl@UModSys@@U?$TComparerBinaryHash@D@234@@tl@4@@Z 0040bf00 f   umodsys_lib_basesys:umodsys.basesys.rmodule.win32.obj
 0001:0000b280       ?pfd_scan@RModuleLibrarySO@rsystem@base@UModSys@@SAIPAUISystem@34@AAU?$TDynarrayDynamic@U?$TRefObject@URModuleLibrarySO@rsystem@base@UModSys@@U?$TRefObjectFunc@URModuleLibrarySO@rsystem@base@UModSys@@@tl@4@@tl@UModSys@@U?$TAllocator@USMemAlloc_Malloc@core@UModSys@@USCountCalcPower2@23@@23@@tl@4@ABU?$TString@U?$TSCoreConst@D@su@tl@UModSys@@U?$TComparerBinaryHash@D@234@@74@@Z 0040c280 f   umodsys_lib_basesys:umodsys.basesys.rmodule.win32.obj
 0001:0000b360       ?estimate_size@RParameters@rsystem@base@UModSys@@IAEHAAUElem@1234@HPBDHH@Z 0040c360 f   umodsys_lib_basesys:umodsys.basesys.rparameters.obj
 0001:0000b3e0       ??0RParameters@rsystem@base@UModSys@@QAE@PAUISystem@23@@Z 0040c3e0 f   umodsys_lib_basesys:umodsys.basesys.rparameters.obj
 0001:0000b400       ?p_init_s@RParameters@rsystem@base@UModSys@@UAEXPAUSParametersData@core@4@PAXH@Z 0040c400 f   umodsys_lib_basesys:umodsys.basesys.rparameters.obj
 0001:0000b440       ??1RParameters@rsystem@base@UModSys@@UAE@XZ 0040c440 f   umodsys_lib_basesys:umodsys.basesys.rparameters.obj
 0001:0000b450       ?next@RParameters@rsystem@base@UModSys@@UAE_NPBUSParametersData@core@4@AAPBD@Z 0040c450 f   umodsys_lib_basesys:umodsys.basesys.rparameters.obj
 0001:0000b520       ?p_init@RParameters@rsystem@base@UModSys@@UAEXPAUSParametersData@core@4@H@Z 0040c520 f   umodsys_lib_basesys:umodsys.basesys.rparameters.obj
 0001:0000b590       ?alloc_elems@RParameters@rsystem@base@UModSys@@IAEXPAXH@Z 0040c590 f   umodsys_lib_basesys:umodsys.basesys.rparameters.obj
 0001:0000b5f0       ?free_elems@RParameters@rsystem@base@UModSys@@IAEXPAXH@Z 0040c5f0 f   umodsys_lib_basesys:umodsys.basesys.rparameters.obj
 0001:0000b660       ?get_last@RParameters@rsystem@base@UModSys@@IAEPAUElem@1234@PAXHHH@Z 0040c660 f   umodsys_lib_basesys:umodsys.basesys.rparameters.obj
 0001:0000b6b0       ?find_elem@RParameters@rsystem@base@UModSys@@IAEPBUElem@1234@PBXHHHPBD@Z 0040c6b0 f   umodsys_lib_basesys:umodsys.basesys.rparameters.obj
 0001:0000b740       ?get@RParameters@rsystem@base@UModSys@@UAE_NPBUSParametersData@core@4@PBDAAPAUIRefObject@64@@Z 0040c740 f   umodsys_lib_basesys:umodsys.basesys.rparameters.obj
 0001:0000b790       ?get@RParameters@rsystem@base@UModSys@@UAE_NPBUSParametersData@core@4@PBDAAN@Z 0040c790 f   umodsys_lib_basesys:umodsys.basesys.rparameters.obj
 0001:0000b7e0       ?get@RParameters@rsystem@base@UModSys@@UAE_NPBUSParametersData@core@4@PBDAAH@Z 0040c7e0 f   umodsys_lib_basesys:umodsys.basesys.rparameters.obj
 0001:0000b830       ?get@RParameters@rsystem@base@UModSys@@UAE_NPBUSParametersData@core@4@PBDAAPBD@Z 0040c830 f   umodsys_lib_basesys:umodsys.basesys.rparameters.obj
 0001:0000b880       ?next@RParameters@rsystem@base@UModSys@@UAE_NPBUSParametersData@core@4@AAU?$TString@U?$TSCoreConst@D@su@tl@UModSys@@U?$TComparerBinaryHash@D@234@@tl@4@@Z 0040c880 f   umodsys_lib_basesys:umodsys.basesys.rparameters.obj
 0001:0000b980       ?p_init_s@RParameters@rsystem@base@UModSys@@UAEXPAUSParametersData@core@4@ABU564@PAXH@Z 0040c980 f   umodsys_lib_basesys:umodsys.basesys.rparameters.obj
 0001:0000b9f0       ?p_copy@RParameters@rsystem@base@UModSys@@UAEXPAUSParametersData@core@4@ABU564@@Z 0040c9f0 f   umodsys_lib_basesys:umodsys.basesys.rparameters.obj
 0001:0000bae0       ?p_init@RParameters@rsystem@base@UModSys@@UAEXPAUSParametersData@core@4@ABU564@@Z 0040cae0 f   umodsys_lib_basesys:umodsys.basesys.rparameters.obj
 0001:0000bb90       ?p_deinit@RParameters@rsystem@base@UModSys@@UAEXPAUSParametersData@core@4@@Z 0040cb90 f   umodsys_lib_basesys:umodsys.basesys.rparameters.obj
 0001:0000bbf0       ?add_last@RParameters@rsystem@base@UModSys@@IAE_NPAUSParametersData@core@4@PBDPBXH@Z 0040cbf0 f   umodsys_lib_basesys:umodsys.basesys.rparameters.obj
 0001:0000be00       ?add@RParameters@rsystem@base@UModSys@@UAE_NPAUSParametersData@core@4@PBDPAUIRefObject@64@@Z 0040ce00 f   umodsys_lib_basesys:umodsys.basesys.rparameters.obj
 0001:0000be20       ?add@RParameters@rsystem@base@UModSys@@UAE_NPAUSParametersData@core@4@PBDABN@Z 0040ce20 f   umodsys_lib_basesys:umodsys.basesys.rparameters.obj
 0001:0000be40       ?add@RParameters@rsystem@base@UModSys@@UAE_NPAUSParametersData@core@4@PBDH@Z 0040ce40 f   umodsys_lib_basesys:umodsys.basesys.rparameters.obj
 0001:0000be60       ?add@RParameters@rsystem@base@UModSys@@UAE_NPAUSParametersData@core@4@PBD1@Z 0040ce60 f   umodsys_lib_basesys:umodsys.basesys.rparameters.obj
 0001:0000be80       ?get_sca@RSystem@rsystem@base@UModSys@@UAEPAUISourceContextAdapter@core@4@XZ 0040ce80 f   umodsys_lib_basesys:umodsys.basesys.rsystem.obj
 0001:0000be90       ?get_upr@RSystem@rsystem@base@UModSys@@UAEPAUIUniquePointerResolver@core@4@XZ 0040ce90 f   umodsys_lib_basesys:umodsys.basesys.rsystem.obj
 0001:0000bea0       ?get_modloader@RSystem@rsystem@base@UModSys@@UAEPAUIModuleLoader@34@XZ 0040cea0 f   umodsys_lib_basesys:umodsys.basesys.rsystem.obj
 0001:0000beb0       ?get_syslib@RSystem@rsystem@base@UModSys@@UAEPAUIModuleLibrary@34@XZ 0040ceb0 f   umodsys_lib_basesys:umodsys.basesys.rsystem.obj
 0001:0000bec0       ?get_sharemem@RSystem@rsystem@base@UModSys@@UAEPAUIMemAlloc@core@4@XZ 0040cec0 f   umodsys_lib_basesys:umodsys.basesys.rsystem.obj
 0001:0000bed0       ?get_sysmem@RSystem@rsystem@base@UModSys@@UAEPAUIMemAlloc@core@4@XZ 0040ced0 f   umodsys_lib_basesys:umodsys.basesys.rsystem.obj
 0001:0000bee0       ?get_console@RSystem@rsystem@base@UModSys@@UAEPAUIConsole@34@XZ 0040cee0 f   umodsys_lib_basesys:umodsys.basesys.rsystem.obj
 0001:0000bef0       ?get_params@RSystem@rsystem@base@UModSys@@UAEPAUIParameters@core@4@XZ 0040cef0 f   umodsys_lib_basesys:umodsys.basesys.rsystem.obj
 0001:0000bf00       ?upi_remove@RSystem@rsystem@base@UModSys@@UAEHPBUSUniquePointerInfo@core@4@@Z 0040cf00 f   umodsys_lib_basesys:umodsys.basesys.rsystem.obj
 0001:0000bf10       ?persist_ctx@RSystem@rsystem@base@UModSys@@UAEPBUSSourceContext@core@4@PBU564@@Z 0040cf10 f   umodsys_lib_basesys:umodsys.basesys.rsystem.obj
 0001:0000bfe0       ?upi_add@RSystem@rsystem@base@UModSys@@UAEPBUSUniquePointerInfo@core@4@PBU564@@Z 0040cfe0 f   umodsys_lib_basesys:umodsys.basesys.rsystem.obj
 0001:0000c0b0       ?lib_unload@IModuleLibraryUni@rsystem@base@UModSys@@UAE_NXZ 0040d0b0 f   umodsys_lib_basesys:umodsys.basesys.rmodulelib.obj
 0001:0000c0d0       ?lib_loaded@IModuleLibraryUni@rsystem@base@UModSys@@UBE_NXZ 0040d0d0 f   umodsys_lib_basesys:umodsys.basesys.rmodulelib.obj
 0001:0000c0e0       ?get_system@IModuleLibraryUni@rsystem@base@UModSys@@UBEPAUISystem@34@XZ 0040d0e0 f   umodsys_lib_basesys:umodsys.basesys.rmodulelib.obj
 0001:0000c0f0       ?get_privmem@IModuleLibraryUni@rsystem@base@UModSys@@UBEPAUIMemAlloc@core@4@XZ 0040d0f0 f   umodsys_lib_basesys:umodsys.basesys.rmodulelib.obj
 0001:0000c100       ?unlink@IModuleLibraryUni@rsystem@base@UModSys@@QAE_NXZ 0040d100 f   umodsys_lib_basesys:umodsys.basesys.rmodulelib.obj
 0001:0000c140       ?lib_generate@IModuleLibraryUni@rsystem@base@UModSys@@UAE_NAAU?$TRefObject@UIRefObject@core@UModSys@@U?$TRefObjectFunc@UIRefObject@core@UModSys@@@tl@3@@tl@4@PBUSUniquePointerInfo@core@4@ABUSParameters@84@@Z 0040d140 f   umodsys_lib_basesys:umodsys.basesys.rmodulelib.obj
 0001:0000c190       ?lib_findobjname@IModuleLibraryUni@rsystem@base@UModSys@@UAEIPBUSUniquePointerInfo@core@4@QAPBU564@IPBD@Z 0040d190 f   umodsys_lib_basesys:umodsys.basesys.rmodulelib.obj
 0001:0000c210       ?lib_free@IModuleLibraryUni@rsystem@base@UModSys@@UAE_NXZ 0040d210 f   umodsys_lib_basesys:umodsys.basesys.rmodulelib.obj
 0001:0000c230       ?get_module@IModuleLibraryUni@rsystem@base@UModSys@@UBEPAUIModule@34@I@Z 0040d230 f   umodsys_lib_basesys:umodsys.basesys.rmodulelib.obj
 0001:0000c250       ?get_module_count@IModuleLibraryUni@rsystem@base@UModSys@@UBEIXZ 0040d250 f   umodsys_lib_basesys:umodsys.basesys.rmodulelib.obj
 0001:0000c260       ?get_sys_libname@IModuleLibraryUni@rsystem@base@UModSys@@UBE?AU?$TString@U?$TSCoreConst@D@su@tl@UModSys@@U?$TComparerBinaryHash@D@234@@tl@4@XZ 0040d260 f   umodsys_lib_basesys:umodsys.basesys.rmodulelib.obj
 0001:0000c280       ??1IModuleLibraryUni@rsystem@base@UModSys@@UAE@XZ 0040d280 f   umodsys_lib_basesys:umodsys.basesys.rmodulelib.obj
 0001:0000c310       ??0IModuleLibraryUni@rsystem@base@UModSys@@QAE@PAUISystem@23@PAUIModuleLibraryReg@23@@Z 0040d310 f   umodsys_lib_basesys:umodsys.basesys.rmodulelib.obj
 0001:0000c350       ?save_db@IModuleLibraryUni@rsystem@base@UModSys@@QAE_NPAU_iobuf@@@Z 0040d350 f   umodsys_lib_basesys:umodsys.basesys.rmodulelib.obj
 0001:0000c3b0       ?cleanup@IModuleLibraryUni@rsystem@base@UModSys@@QAEIXZ 0040d3b0 f   umodsys_lib_basesys:umodsys.basesys.rmodulelib.obj
 0001:0000c3e0       ?link@IModuleLibraryUni@rsystem@base@UModSys@@QAE_NXZ 0040d3e0 f   umodsys_lib_basesys:umodsys.basesys.rmodulelib.obj
 0001:0000c5b0       ?load0@IModuleLibraryUni@rsystem@base@UModSys@@QAE_NXZ 0040d5b0 f   umodsys_lib_basesys:umodsys.basesys.rmodulelib.obj
 0001:0000c600       ?lib_load@IModuleLibraryUni@rsystem@base@UModSys@@UAE_NXZ 0040d600 f   umodsys_lib_basesys:umodsys.basesys.rmodulelib.obj
 0001:0000c620       ?scan@IModuleLibraryUni@rsystem@base@UModSys@@QAE_NXZ 0040d620 f   umodsys_lib_basesys:umodsys.basesys.rmodulelib.obj
 0001:0000c660       ?uni_close@RModuleLibraryThis@rsystem@base@UModSys@@UAE_NXZ 0040d660 f   umodsys_lib_basesys:umodsys.basesys.rmodulelibthis.obj
 0001:0000c670       ?uni_open@RModuleLibraryThis@rsystem@base@UModSys@@UAE_NXZ 0040d670 f   umodsys_lib_basesys:umodsys.basesys.rmodulelibthis.obj
 0001:0000c680       ?uni_unload@RModuleLibraryThis@rsystem@base@UModSys@@UAE_NXZ 0040d680 f   umodsys_lib_basesys:umodsys.basesys.rmodulelibthis.obj
 0001:0000c690       ?uni_load@RModuleLibraryThis@rsystem@base@UModSys@@UAE_NXZ 0040d690 f   umodsys_lib_basesys:umodsys.basesys.rmodulelibthis.obj
 0001:0000c6a0       ??1RModuleLibraryThis@rsystem@base@UModSys@@UAE@XZ 0040d6a0 f   umodsys_lib_basesys:umodsys.basesys.rmodulelibthis.obj
 0001:0000c6f0       ??0RModuleLibraryThis@rsystem@base@UModSys@@QAE@PAUISystem@23@@Z 0040d6f0 f   umodsys_lib_basesys:umodsys.basesys.rmodulelibthis.obj
 0001:0000c720       ?moduledb_load@RModuleLoader@rsystem@base@UModSys@@UAE_NABU?$TString@U?$TSCoreConst@D@su@tl@UModSys@@U?$TComparerBinaryHash@D@234@@tl@4@@Z 0040d720 f   umodsys_lib_basesys:umodsys.basesys.rmoduleloader.obj
 0001:0000c730       ?moduledb_lib_drop@RModuleLoader@rsystem@base@UModSys@@UAE_NPAUIModuleLibrary@34@@Z 0040d730 f   umodsys_lib_basesys:umodsys.basesys.rmoduleloader.obj
 0001:0000c740       ?moduledb_lib_count@RModuleLoader@rsystem@base@UModSys@@UAEIXZ 0040d740 f   umodsys_lib_basesys:umodsys.basesys.rmoduleloader.obj
 0001:0000c750       ?moduledb_module_get@RModuleLoader@rsystem@base@UModSys@@UBEPAUIModule@34@I@Z 0040d750 f   umodsys_lib_basesys:umodsys.basesys.rmoduleloader.obj
 0001:0000c7b0       ?moduledb_module_count@RModuleLoader@rsystem@base@UModSys@@UAEIXZ 0040d7b0 f   umodsys_lib_basesys:umodsys.basesys.rmoduleloader.obj
 0001:0000c7e0       ?moduledb_lib_get@RModuleLoader@rsystem@base@UModSys@@UBEPAUIModuleLibrary@34@I@Z 0040d7e0 f   umodsys_lib_basesys:umodsys.basesys.rmoduleloader.obj
 0001:0000c810       ?moduledb_generate@RModuleLoader@rsystem@base@UModSys@@UAE_NAAU?$TRefObject@UIRefObject@core@UModSys@@U?$TRefObjectFunc@UIRefObject@core@UModSys@@@tl@3@@tl@4@PBUSUniquePointerInfo@core@4@ABUSParameters@84@@Z 0040d810 f   umodsys_lib_basesys:umodsys.basesys.rmoduleloader.obj
 0001:0000c880       ?moduledb_findobjname@RModuleLoader@rsystem@base@UModSys@@UAEIPBUSUniquePointerInfo@core@4@QAPBU564@IPBD@Z 0040d880 f   umodsys_lib_basesys:umodsys.basesys.rmoduleloader.obj
 0001:0000c910       ??1RModuleLoader@rsystem@base@UModSys@@UAE@XZ 0040d910 f   umodsys_lib_basesys:umodsys.basesys.rmoduleloader.obj
 0001:0000c9b0       ??0RModuleLoader@rsystem@base@UModSys@@QAE@PAUISystem@23@@Z 0040d9b0 f   umodsys_lib_basesys:umodsys.basesys.rmoduleloader.obj
 0001:0000c9f0       ?moduledb_clear@RModuleLoader@rsystem@base@UModSys@@UAEXXZ 0040d9f0 f   umodsys_lib_basesys:umodsys.basesys.rmoduleloader.obj
 0001:0000ca70       ?cleanup@RModuleLoader@rsystem@base@UModSys@@QAEXXZ 0040da70 f   umodsys_lib_basesys:umodsys.basesys.rmoduleloader.obj
 0001:0000cab0       ?get_string@RModuleLoader@rsystem@base@UModSys@@QAEABU?$TString@U?$TSCoreConst@D@su@tl@UModSys@@U?$TComparerBinaryHash@D@234@@tl@4@ABU564@@Z 0040dab0 f   umodsys_lib_basesys:umodsys.basesys.rmoduleloader.obj
 0001:0000caf0       ?moduledb_get_string@RModuleLoader@rsystem@base@UModSys@@UAEABU?$TString@U?$TSCoreConst@D@su@tl@UModSys@@U?$TComparerBinaryHash@D@234@@tl@4@ABU564@@Z 0040daf0 f   umodsys_lib_basesys:umodsys.basesys.rmoduleloader.obj
 0001:0000cb00       ?moduledb_save@RModuleLoader@rsystem@base@UModSys@@UAE_NABU?$TString@U?$TSCoreConst@D@su@tl@UModSys@@U?$TComparerBinaryHash@D@234@@tl@4@@Z 0040db00 f   umodsys_lib_basesys:umodsys.basesys.rmoduleloader.obj
 0001:0000cb90       ?moduledb_cleanup@RModuleLoader@rsystem@base@UModSys@@UAEIXZ 0040db90 f   umodsys_lib_basesys:umodsys.basesys.rmoduleloader.obj
 0001:0000cc60       ?moduledb_find@RModuleLoader@rsystem@base@UModSys@@UBEPAUIModule@34@ABU?$TString@U?$TSCoreConst@D@su@tl@UModSys@@U?$TComparerBinaryHash@D@234@@tl@4@ABUSVersion@core@4@@Z 0040dc60 f   umodsys_lib_basesys:umodsys.basesys.rmoduleloader.obj
 0001:0000cdc0       ?moduledb_scan@RModuleLoader@rsystem@base@UModSys@@UAEIABU?$TString@U?$TSCoreConst@D@su@tl@UModSys@@U?$TComparerBinaryHash@D@234@@tl@4@_N@Z 0040ddc0 f   umodsys_lib_basesys:umodsys.basesys.rmoduleloader.obj
 0001:0000ce40       ?set_console@RSystem@rsystem@base@UModSys@@QAEXPAUIConsole@34@@Z 0040de40 f   umodsys_lib_basesys:umodsys.basesys.rsystem_main.obj
 0001:0000ce70       ?err_put@rsystem@base@UModSys@@YAXW4eRSystemDebugLevels@123@PBDZZ 0040de70 f   umodsys_lib_basesys:umodsys.basesys.rsystem_main.obj
 0001:0000ceb0       ?dbg_put@rsystem@base@UModSys@@YAXW4eRSystemDebugLevels@123@PBDZZ 0040deb0 f   umodsys_lib_basesys:umodsys.basesys.rsystem_main.obj
 0001:0000cef0       ??1RSystem@rsystem@base@UModSys@@UAE@XZ 0040def0 f   umodsys_lib_basesys:umodsys.basesys.rsystem_main.obj
 0001:0000cfb0       ??0RSystem@rsystem@base@UModSys@@QAE@XZ 0040dfb0 f   umodsys_lib_basesys:umodsys.basesys.rsystem_main.obj
 0001:0000d080       ?find_shells@RSystem@rsystem@base@UModSys@@QAEIQAPBUSUniquePointerInfo@core@4@IPBD@Z 0040e080 f   umodsys_lib_basesys:umodsys.basesys.rsystem_main.obj
 0001:0000d0a0       ?exec_main@RSystem@rsystem@base@UModSys@@QAE_NXZ 0040e0a0 f   umodsys_lib_basesys:umodsys.basesys.rsystem_main.obj
 0001:0000d0c0       ?exec_args@RSystem@rsystem@base@UModSys@@QAE_NHPAPAD@Z 0040e0c0 f   umodsys_lib_basesys:umodsys.basesys.rsystem_main.obj
 0001:0000d0e0       ?deinit@RSystem@rsystem@base@UModSys@@QAE_NXZ 0040e0e0 f   umodsys_lib_basesys:umodsys.basesys.rsystem_main.obj
 0001:0000d1d0       ?init@RSystem@rsystem@base@UModSys@@QAE_NXZ 0040e1d0 f   umodsys_lib_basesys:umodsys.basesys.rsystem_main.obj
 0001:0000d2b0       ?get_s@RConsole_std@rsystem@base@UModSys@@UAA_NPADIPBDZZ 0040e2b0 f   umodsys_lib_basesys:umodsys.basesys.rconsole_std.obj
 0001:0000d2c0       ?vget_s@RConsole_std@rsystem@base@UModSys@@UAE_NPADIPBD0@Z 0040e2c0 f   umodsys_lib_basesys:umodsys.basesys.rconsole_std.obj
 0001:0000d2d0       ?get_c@RConsole_std@rsystem@base@UModSys@@UAA_NPAHPBDZZ 0040e2d0 f   umodsys_lib_basesys:umodsys.basesys.rconsole_std.obj
 0001:0000d2e0       ?vget_c@RConsole_std@rsystem@base@UModSys@@UAE_NPAHPBDPAD@Z 0040e2e0 f   umodsys_lib_basesys:umodsys.basesys.rconsole_std.obj
 0001:0000d2f0       ?put@RConsole_std@rsystem@base@UModSys@@UAA_NHPBDZZ 0040e2f0 f   umodsys_lib_basesys:umodsys.basesys.rconsole_std.obj
 0001:0000d340       ?vput@RConsole_std@rsystem@base@UModSys@@UAE_NHPBDPAD@Z 0040e340 f   umodsys_lib_basesys:umodsys.basesys.rconsole_std.obj
 0001:0000d390       ?ref_weak@RConsole_std@rsystem@base@UModSys@@UBE_NAAUWeakPointer@IRefObject@core@4@@Z 0040e390 f   umodsys_lib_basesys:umodsys.basesys.rconsole_std.obj
 0001:0000d3a0       ?ref_links@RConsole_std@rsystem@base@UModSys@@UBEHXZ 0040e3a0 f   umodsys_lib_basesys:umodsys.basesys.rconsole_std.obj
 0001:0000d3b0       ?ref_remove@RConsole_std@rsystem@base@UModSys@@UBEXXZ 0040e3b0 f   umodsys_lib_basesys:umodsys.basesys.rconsole_std.obj
 0001:0000d3c0       ?ref_add@RConsole_std@rsystem@base@UModSys@@UBEXXZ 0040e3c0 f   umodsys_lib_basesys:umodsys.basesys.rconsole_std.obj
 0001:0000d3d0       ??0RConsole_std@rsystem@base@UModSys@@QAE@XZ 0040e3d0 f   umodsys_lib_basesys:umodsys.basesys.rconsole_std.obj
 0001:0000d3f0       ?reflect@RConsole_std@rsystem@base@UModSys@@QAE_NPBD@Z 0040e3f0 f   umodsys_lib_basesys:umodsys.basesys.rconsole_std.obj
 0001:0000d440       ??1RConsole_std@rsystem@base@UModSys@@UAE@XZ 0040e440 f   umodsys_lib_basesys:umodsys.basesys.rconsole_std.obj
 0001:0000d460       ?mod_dec@RGenerator@stdio@media@modules@UModSys@@UBE_NXZ 0040e460 f   umodsys_lib_libmedia:umodsys.mod.media.stdio.obj
 0001:0000d470       ?mod_inc@RGenerator@stdio@media@modules@UModSys@@UBE_NXZ 0040e470 f   umodsys_lib_libmedia:umodsys.mod.media.stdio.obj
 0001:0000d480       ?get_module@RGenerator@stdio@media@modules@UModSys@@UBEPAUIModule@base@5@XZ 0040e480 f   umodsys_lib_libmedia:umodsys.mod.media.stdio.obj
 0001:0000d490       ?s_holder@RGenerator@stdio@media@modules@UModSys@@SAAAU?$TTypeStaticHolder@URGenerator@stdio@media@modules@UModSys@@@tl@5@XZ 0040e490 f   umodsys_lib_libmedia:umodsys.mod.media.stdio.obj
 0001:0000d4d0       ?s_unreg@RGenerator@stdio@media@modules@UModSys@@SA_NPAUIModuleReg@base@5@@Z 0040e4d0 f   umodsys_lib_libmedia:umodsys.mod.media.stdio.obj
 0001:0000d520       ?s_reg@RGenerator@stdio@media@modules@UModSys@@SA_NPAUIModuleReg@base@5@@Z 0040e520 f   umodsys_lib_libmedia:umodsys.mod.media.stdio.obj
 0001:0000d580       ?mod_dec@RGenerator@images_std@media@modules@UModSys@@UBE_NXZ 0040e580 f   umodsys_lib_libmedia:umodsys.mod.media.images_std.obj
 0001:0000d590       ?mod_inc@RGenerator@images_std@media@modules@UModSys@@UBE_NXZ 0040e590 f   umodsys_lib_libmedia:umodsys.mod.media.images_std.obj
 0001:0000d5a0       ?get_module@RGenerator@images_std@media@modules@UModSys@@UBEPAUIModule@base@5@XZ 0040e5a0 f   umodsys_lib_libmedia:umodsys.mod.media.images_std.obj
 0001:0000d640       ?filter_save@RMediaFilter@images_std@media@modules@UModSys@@UAE_NAAUSInfo@IBinObjFilter@libmedia@5@PBUIRefObject@core@5@@Z 0040e640 f   umodsys_lib_libmedia:umodsys.mod.media.images_std.obj
 0001:0000d650       ?filter_load@RMediaFilter@images_std@media@modules@UModSys@@UAE_NABUSInfo@IBinObjFilter@libmedia@5@AAU?$TRefObject@UIRefObject@core@UModSys@@U?$TRefObjectFunc@UIRefObject@core@UModSys@@@tl@3@@tl@5@@Z 0040e650 f   umodsys_lib_libmedia:umodsys.mod.media.images_std.obj
 0001:0000d660       ?s_holder@RGenerator@images_std@media@modules@UModSys@@SAAAU?$TTypeStaticHolder@URGenerator@images_std@media@modules@UModSys@@@tl@5@XZ 0040e660 f   umodsys_lib_libmedia:umodsys.mod.media.images_std.obj
 0001:0000d6a0       ?png_read@RMediaFilter@images_std@media@modules@UModSys@@KAXPAUpng_struct_def@@PAEI@Z 0040e6a0 f   umodsys_lib_libmedia:umodsys.mod.media.images_std.obj
 0001:0000d6e0       ?png_err@RMediaFilter@images_std@media@modules@UModSys@@KAXPAUpng_struct_def@@PBD@Z 0040e6e0 f   umodsys_lib_libmedia:umodsys.mod.media.images_std.obj
 0001:0000d710       ?s_unreg@RGenerator@images_std@media@modules@UModSys@@SA_NPAUIModuleReg@base@5@@Z 0040e710 f   umodsys_lib_libmedia:umodsys.mod.media.images_std.obj
 0001:0000d760       ?s_reg@RGenerator@images_std@media@modules@UModSys@@SA_NPAUIModuleReg@base@5@@Z 0040e760 f   umodsys_lib_libmedia:umodsys.mod.media.images_std.obj
 0001:0000d7c0       ?loader_png@RMediaFilter@images_std@media@modules@UModSys@@QAE_NPAUIImage@lib2d@5@ABUSInfo@IBinObjFilter@libmedia@5@ABUSParameters@core@5@HPBD_N@Z 0040e7c0 f   umodsys_lib_libmedia:umodsys.mod.media.images_std.obj
 0001:0000db30       ?loader_jpeg@RMediaFilter@images_std@media@modules@UModSys@@QAE_NPAUIImage@lib2d@5@ABUSInfo@IBinObjFilter@libmedia@5@ABUSParameters@core@5@HPBD_N@Z 0040eb30 f   umodsys_lib_libmedia:umodsys.mod.media.images_std.obj
 0001:0000de10       ?filter_load@RMediaFilter@images_std@media@modules@UModSys@@UAE_NABUSInfo@IBinObjFilter@libmedia@5@PAUIRefObject@core@5@@Z 0040ee10 f   umodsys_lib_libmedia:umodsys.mod.media.images_std.obj
 0001:0000e050       ?mod_dec@RGenerator@std@media@modules@UModSys@@UBE_NXZ 0040f050 f   umodsys_lib_libmedia:umodsys.mod.media.std.obj
 0001:0000e060       ?mod_inc@RGenerator@std@media@modules@UModSys@@UBE_NXZ 0040f060 f   umodsys_lib_libmedia:umodsys.mod.media.std.obj
 0001:0000e070       ?get_module@RGenerator@std@media@modules@UModSys@@UBEPAUIModule@base@5@XZ 0040f070 f   umodsys_lib_libmedia:umodsys.mod.media.std.obj
 0001:0000e080       ?s_holder@RGenerator@std@media@modules@UModSys@@SAAAU?$TTypeStaticHolder@URGenerator@std@media@modules@UModSys@@@tl@5@XZ 0040f080 f   umodsys_lib_libmedia:umodsys.mod.media.std.obj
 0001:0000e0c0       ?s_unreg@RGenerator@std@media@modules@UModSys@@SA_NPAUIModuleReg@base@5@@Z 0040f0c0 f   umodsys_lib_libmedia:umodsys.mod.media.std.obj
 0001:0000e110       ?s_reg@RGenerator@std@media@modules@UModSys@@SA_NPAUIModuleReg@base@5@@Z 0040f110 f   umodsys_lib_libmedia:umodsys.mod.media.std.obj
 0001:0000e180       _main                      0040f180 f   umodsys.c_main.obj
 0001:0000e2b0       ??0SUniquePtrList@core@UModSys@@QAE@PAPBUSUniquePointerInfo@12@I@Z 0040f2b0 f   umodsys_lib_core:umodsys.core.uniqueptrlist.obj
 0001:0000e2c0       ?add@SUniquePtrList@core@UModSys@@QAE_NPBUSUniquePointerInfo@23@@Z 0040f2c0 f   umodsys_lib_core:umodsys.core.uniqueptrlist.obj
 0001:0000e310       ??1IModuleLibrary@base@UModSys@@UAE@XZ 0040f310 f   umodsys_lib_base:umodsys.base.module.obj
 0001:0000e320       ??1IModule@base@UModSys@@UAE@XZ 0040f320 f   umodsys_lib_base:umodsys.base.module.obj
 0001:0000e330       ??1IConsole@base@UModSys@@UAE@XZ 0040f330 f   umodsys_lib_base:umodsys.base.console.obj
 0001:0000e340       ?init@SVFileName@libmedia@UModSys@@QAEXPBDH_N@Z 0040f340 f   umodsys_lib_libmedia:umodsys.lib.media.common.obj
 0001:0000e430       ??0SVFileName@libmedia@UModSys@@QAE@ABU?$TString@U?$TSCoreConst@D@su@tl@UModSys@@U?$TComparerBinaryHash@D@234@@tl@2@0_N@Z 0040f430 f   umodsys_lib_libmedia:umodsys.lib.media.common.obj
 0001:0000e4b0       ??0SVFileName@libmedia@UModSys@@QAE@PBD_N@Z 0040f4b0 f   umodsys_lib_libmedia:umodsys.lib.media.common.obj
 0001:0000e510       ?exec_test_shells@RSystem@rsystem@base@UModSys@@QAE_NXZ 0040f510 f   umodsys_lib_basesys:umodsys.basesys.rsystem_tests.obj
 0001:0000e670       ?exec_tests@RSystem@rsystem@base@UModSys@@QAE_NXZ 0040f670 f   umodsys_lib_basesys:umodsys.basesys.rsystem_tests.obj
 0001:0000e6aa       _memcpy                    0040f6aa f   MSVCRT:MSVCR90.dll
 0001:0000e6b0       __alloca_probe             0040f6b0     MSVCRT:chkstk.obj
 0001:0000e6b0       __chkstk                   0040f6b0 f   MSVCRT:chkstk.obj
 0001:0000e6dc       ___CxxFrameHandler3        0040f6dc f   MSVCRT:MSVCR90.dll
 0001:0000e6e2       __CxxThrowException@8      0040f6e2 f   MSVCRT:MSVCR90.dll
 0001:0000e6f0       __setjmp3                  0040f6f0 f   MSVCRT:MSVCR90.dll
 0001:0000e6f6       ___CxxLongjmpUnwind@4      0040f6f6 f   MSVCRT:MSVCR90.dll
 0002:00000000       __imp__GetLastError@0      00411000     kernel32:KERNEL32.dll
 0002:00000004       __imp__GetConsoleOutputCP@0 00411004     kernel32:KERNEL32.dll
 0002:00000008       __imp__FindNextFileW@8     00411008     kernel32:KERNEL32.dll
 0002:0000000c       __imp__FindClose@4         0041100c     kernel32:KERNEL32.dll
 0002:00000010       __imp__GetProcAddress@8    00411010     kernel32:KERNEL32.dll
 0002:00000014       __imp__GetModuleFileNameW@12 00411014     kernel32:KERNEL32.dll
 0002:00000018       __imp__GetModuleHandleW@4  00411018     kernel32:KERNEL32.dll
 0002:0000001c       __imp__LoadLibraryExW@12   0041101c     kernel32:KERNEL32.dll
 0002:00000020       __imp__FreeLibrary@4       00411020     kernel32:KERNEL32.dll
 0002:00000024       __imp__SetErrorMode@4      00411024     kernel32:KERNEL32.dll
 0002:00000028       __imp__FindFirstFileW@8    00411028     kernel32:KERNEL32.dll
 0002:0000002c       __imp__GetFullPathNameW@16 0041102c     kernel32:KERNEL32.dll
 0002:00000030       __imp__WideCharToMultiByte@32 00411030     kernel32:KERNEL32.dll
 0002:00000034       __imp__MultiByteToWideChar@24 00411034     kernel32:KERNEL32.dll
 0002:00000038       __imp__InterlockedExchange@8 00411038     kernel32:KERNEL32.dll
 0002:0000003c       __imp__Sleep@4             0041103c     kernel32:KERNEL32.dll
 0002:00000040       __imp__InterlockedCompareExchange@12 00411040     kernel32:KERNEL32.dll
 0002:00000044       __imp__SetUnhandledExceptionFilter@4 00411044     kernel32:KERNEL32.dll
 0002:00000048       __imp__QueryPerformanceCounter@4 00411048     kernel32:KERNEL32.dll
 0002:0000004c       __imp__GetTickCount@0      0041104c     kernel32:KERNEL32.dll
 0002:00000050       __imp__GetCurrentThreadId@0 00411050     kernel32:KERNEL32.dll
 0002:00000054       __imp__GetCurrentProcessId@0 00411054     kernel32:KERNEL32.dll
 0002:00000058       __imp__GetSystemTimeAsFileTime@4 00411058     kernel32:KERNEL32.dll
 0002:0000005c       __imp__TerminateProcess@8  0041105c     kernel32:KERNEL32.dll
 0002:00000060       __imp__GetCurrentProcess@0 00411060     kernel32:KERNEL32.dll
 0002:00000064       __imp__UnhandledExceptionFilter@4 00411064     kernel32:KERNEL32.dll
 0002:00000068       __imp__IsDebuggerPresent@0 00411068     kernel32:KERNEL32.dll
 0002:0000006c       __imp__SetConsoleOutputCP@4 0041106c     kernel32:KERNEL32.dll
 0002:00000070       \177KERNEL32_NULL_THUNK_DATA 00411070     kernel32:KERNEL32.dll
 0002:00000074       __imp___encode_pointer     00411074     MSVCRT:MSVCR90.dll
 0002:00000078       __imp___lock               00411078     MSVCRT:MSVCR90.dll
 0002:0000007c       __imp___onexit             0041107c     MSVCRT:MSVCR90.dll
 0002:00000080       __imp___decode_pointer     00411080     MSVCRT:MSVCR90.dll
 0002:00000084       __imp___amsg_exit          00411084     MSVCRT:MSVCR90.dll
 0002:00000088       __imp____getmainargs       00411088     MSVCRT:MSVCR90.dll
 0002:0000008c       __imp___cexit              0041108c     MSVCRT:MSVCR90.dll
 0002:00000090       __imp___exit               00411090     MSVCRT:MSVCR90.dll
 0002:00000094       __imp___XcptFilter         00411094     MSVCRT:MSVCR90.dll
 0002:00000098       __imp__exit                00411098     MSVCRT:MSVCR90.dll
 0002:0000009c       __imp____initenv           0041109c     MSVCRT:MSVCR90.dll
 0002:000000a0       __imp___initterm           004110a0     MSVCRT:MSVCR90.dll
 0002:000000a4       __imp___initterm_e         004110a4     MSVCRT:MSVCR90.dll
 0002:000000a8       __imp___configthreadlocale 004110a8     MSVCRT:MSVCR90.dll
 0002:000000ac       __imp____setusermatherr    004110ac     MSVCRT:MSVCR90.dll
 0002:000000b0       __imp____dllonexit         004110b0     MSVCRT:MSVCR90.dll
 0002:000000b4       __imp____p__commode        004110b4     MSVCRT:MSVCR90.dll
 0002:000000b8       __imp____p__fmode          004110b8     MSVCRT:MSVCR90.dll
 0002:000000bc       __imp____set_app_type      004110bc     MSVCRT:MSVCR90.dll
 0002:000000c0       __imp___except_handler4_common 004110c0     MSVCRT:MSVCR90.dll
 0002:000000c4       __imp_?terminate@@YAXXZ    004110c4     MSVCRT:MSVCR90.dll
 0002:000000c8       __imp___invoke_watson      004110c8     MSVCRT:MSVCR90.dll
 0002:000000cc       __imp___controlfp_s        004110cc     MSVCRT:MSVCR90.dll
 0002:000000d0       __imp_?_type_info_dtor_internal_method@type_info@@QAEXXZ 004110d0     MSVCRT:MSVCR90.dll
 0002:000000d4       __imp___crt_debugger_hook  004110d4     MSVCRT:MSVCR90.dll
 0002:000000d8       __imp___setjmp3            004110d8     MSVCRT:MSVCR90.dll
 0002:000000dc       __imp____CxxLongjmpUnwind@4 004110dc     MSVCRT:MSVCR90.dll
 0002:000000e0       __imp___CxxThrowException@8 004110e0     MSVCRT:MSVCR90.dll
 0002:000000e4       __imp____CxxFrameHandler3  004110e4     MSVCRT:MSVCR90.dll
 0002:000000e8       __imp__memcpy              004110e8     MSVCRT:MSVCR90.dll
 0002:000000ec       __imp___unlock             004110ec     MSVCRT:MSVCR90.dll
 0002:000000f0       __imp___vsnprintf          004110f0     MSVCRT:MSVCR90.dll
 0002:000000f4       __imp__remove              004110f4     MSVCRT:MSVCR90.dll
 0002:000000f8       __imp___wfopen             004110f8     MSVCRT:MSVCR90.dll
 0002:000000fc       __imp__rename              004110fc     MSVCRT:MSVCR90.dll
 0002:00000100       __imp__realloc             00411100     MSVCRT:MSVCR90.dll
 0002:00000104       __imp__fprintf             00411104     MSVCRT:MSVCR90.dll
 0002:00000108       __imp__strncpy             00411108     MSVCRT:MSVCR90.dll
 0002:0000010c       __imp___snprintf           0041110c     MSVCRT:MSVCR90.dll
 0002:00000110       __imp__malloc              00411110     MSVCRT:MSVCR90.dll
 0002:00000114       __imp__free                00411114     MSVCRT:MSVCR90.dll
 0002:00000118       __imp__vfprintf            00411118     MSVCRT:MSVCR90.dll
 0002:0000011c       __imp____iob_func          0041111c     MSVCRT:MSVCR90.dll
 0002:00000120       __imp__fclose              00411120     MSVCRT:MSVCR90.dll
 0002:00000124       __imp__fseek               00411124     MSVCRT:MSVCR90.dll
 0002:00000128       __imp__ftell               00411128     MSVCRT:MSVCR90.dll
 0002:0000012c       __imp__fwrite              0041112c     MSVCRT:MSVCR90.dll
 0002:00000130       __imp___fileno             00411130     MSVCRT:MSVCR90.dll
 0002:00000134       __imp__fread               00411134     MSVCRT:MSVCR90.dll
 0002:00000138       __imp___chsize             00411138     MSVCRT:MSVCR90.dll
 0002:0000013c       __imp__fflush              0041113c     MSVCRT:MSVCR90.dll
 0002:00000140       __imp__longjmp             00411140     MSVCRT:MSVCR90.dll
 0002:00000144       __imp__strstr              00411144     MSVCRT:MSVCR90.dll
 0002:00000148       __imp_??2@YAPAXI@Z         00411148     MSVCRT:MSVCR90.dll
 0002:0000014c       __imp_??3@YAXPAX@Z         0041114c     MSVCRT:MSVCR90.dll
 0002:00000150       __imp___purecall           00411150     MSVCRT:MSVCR90.dll
 0002:00000154       __imp___adjust_fdiv        00411154     MSVCRT:MSVCR90.dll
 0002:00000158       __imp__strncmp             00411158     MSVCRT:MSVCR90.dll
 0002:0000015c       \177MSVCR90_NULL_THUNK_DATA 0041115c     MSVCRT:MSVCR90.dll
 0002:00000160       __imp__jpeg_std_error      00411160     lib_jpeglib:lib_jpeglib.dll
 0002:00000164       __imp__jpeg_read_scanlines 00411164     lib_jpeglib:lib_jpeglib.dll
 0002:00000168       __imp__jpeg_finish_decompress 00411168     lib_jpeglib:lib_jpeglib.dll
 0002:0000016c       __imp__jpeg_read_header    0041116c     lib_jpeglib:lib_jpeglib.dll
 0002:00000170       __imp__jpeg_resync_to_restart 00411170     lib_jpeglib:lib_jpeglib.dll
 0002:00000174       __imp__jpeg_destroy_decompress 00411174     lib_jpeglib:lib_jpeglib.dll
 0002:00000178       __imp__jpeg_CreateDecompress 00411178     lib_jpeglib:lib_jpeglib.dll
 0002:0000017c       __imp__jpeg_start_decompress 0041117c     lib_jpeglib:lib_jpeglib.dll
 0002:00000180       __imp__jpeg_destroy        00411180     lib_jpeglib:lib_jpeglib.dll
 0002:00000184       \177lib_jpeglib_NULL_THUNK_DATA 00411184     lib_jpeglib:lib_jpeglib.dll
 0002:00000188       __imp__png_destroy_read_struct 00411188     lib_libpng:lib_libpng.dll
 0002:0000018c       __imp__png_error           0041118c     lib_libpng:lib_libpng.dll
 0002:00000190       __imp__png_read_row        00411190     lib_libpng:lib_libpng.dll
 0002:00000194       __imp__png_set_sig_bytes   00411194     lib_libpng:lib_libpng.dll
 0002:00000198       __imp__png_read_update_info 00411198     lib_libpng:lib_libpng.dll
 0002:0000019c       __imp__png_set_read_fn     0041119c     lib_libpng:lib_libpng.dll
 0002:000001a0       __imp__png_create_info_struct 004111a0     lib_libpng:lib_libpng.dll
 0002:000001a4       __imp__png_get_io_ptr      004111a4     lib_libpng:lib_libpng.dll
 0002:000001a8       __imp__png_create_read_struct 004111a8     lib_libpng:lib_libpng.dll
 0002:000001ac       __imp__png_sig_cmp         004111ac     lib_libpng:lib_libpng.dll
 0002:000001b0       __imp__png_get_IHDR        004111b0     lib_libpng:lib_libpng.dll
 0002:000001b4       __imp__png_read_info       004111b4     lib_libpng:lib_libpng.dll
 0002:000001b8       \177lib_libpng_NULL_THUNK_DATA 004111b8     lib_libpng:lib_libpng.dll
 0002:000001bc       ___xc_a                    004111bc     MSVCRT:cinitexe.obj
 0002:00000458       ___xc_z                    00411458     MSVCRT:cinitexe.obj
 0002:0000045c       ___xi_a                    0041145c     MSVCRT:cinitexe.obj
 0002:00000468       ___xi_z                    00411468     MSVCRT:cinitexe.obj
 0002:00000474       ??_7type_info@@6B@         00411474     MSVCRT:ti_inst.obj
 0002:00000480       ??_C@_0P@GHFPNOJB@bad?5allocation?$AA@ 00411480     umodsys.c_main.obj
 0002:00000490       ??_C@_0BF@OCNNAADO@UModSys?3?3core?3?3IRoot?$AA@ 00411490     umodsys.c_main.obj
 0002:000004a8       ??_C@_0BK@EMIJFOPA@UModSys?3?3core?3?3IRefObject?$AA@ 004114a8     umodsys.c_main.obj
 0002:000004c4       ??_C@_0BL@IOMMHELF@UModSys?3?3core?3?3IParameters?$AA@ 004114c4     umodsys.c_main.obj
 0002:000004e0       ??_C@_0BH@LKDEEPPM@UModSys?3?3base?3?3IModule?$AA@ 004114e0     umodsys.c_main.obj
 0002:000004f8       ??_C@_0BO@PHJOHFCB@UModSys?3?3base?3?3IModuleLibrary?$AA@ 004114f8     umodsys.c_main.obj
 0002:00000518       ??_C@_0BK@FDPIOPHG@UModSys?3?3base?3?3IModObject?$AA@ 00411518     umodsys.c_main.obj
 0002:00000534       ??_C@_0BK@OIBKNCKJ@UModSys?3?3base?3?3IGenerator?$AA@ 00411534     umodsys.c_main.obj
 0002:00000550       ??_C@_0BG@PJBGCMEC@UModSys?3?3base?3?3IShell?$AA@ 00411550     umodsys.c_main.obj
 0002:00000568       ??_C@_0BI@IKAOEFAP@UModSys?3?3base?3?3IConsole?$AA@ 00411568     umodsys.c_main.obj
 0002:00000580       ??_C@_0BH@PFCONEJJ@UModSys?3?3base?3?3ISystem?$AA@ 00411580     umodsys.c_main.obj
 0002:00000598       ??_C@_0CA@MDFMKLLN@UModSys?3?3base?3?3rsystem?3?3RModule?$AA@ 00411598     umodsys.c_main.obj
 0002:000005b8       ??_C@_0CK@MJPNGLHN@UModSys?3?3base?3?3rsystem?3?3IModuleL@ 004115b8     umodsys.c_main.obj
 0002:000005e4       ??_C@_0CJ@OPOMMGLJ@UModSys?3?3base?3?3rsystem?3?3RModuleL@ 004115e4     umodsys.c_main.obj
 0002:00000610       ??_C@_0CL@ILNBAMJF@UModSys?3?3base?3?3rsystem?3?3RModuleL@ 00411610     umodsys.c_main.obj
 0002:0000063c       ??_C@_0CE@IHGMMEEA@UModSys?3?3base?3?3rsystem?3?3RParamet@ 0041163c     umodsys.c_main.obj
 0002:00000660       ??_C@_0CA@IMEGDANI@UModSys?3?3base?3?3rsystem?3?3RSystem?$AA@ 00411660     umodsys.c_main.obj
 0002:00000680       ??_C@_0CF@KIMLNODL@UModSys?3?3base?3?3rsystem?3?3RConsole@ 00411680     umodsys.c_main.obj
 0002:000006a8       ??_C@_0M@DCEPEPFJ@umodsys?4log?$AA@ 004116a8     umodsys.c_main.obj
 0002:000006b4       ??_C@_00CNPNBAHC@?$AA@     004116b4     umodsys.c_main.obj
 0002:000006b8       ??_C@_01NBENCBCI@?$CK?$AA@ 004116b8     umodsys.c_main.obj
 0002:000006bc       ??_C@_0BC@JABDEAFI@moduledb?4conf?9hdb?$AA@ 004116bc     umodsys.c_main.obj
 0002:000006d0       ??_C@_08FCBDOIAH@typeinfo?$AA@ 004116d0     umodsys.c_main.obj
 0002:000006dc       ??_C@_0CB@CLGNFEGF@UModSys?3?3libmedia?3?3IStreamReader@ 004116dc     umodsys_lib_libmedia:umodsys.mod.media.std.obj
 0002:00000700       ??_C@_0CB@HOPFFLP@UModSys?3?3libmedia?3?3IStreamWriter@ 00411700     umodsys_lib_libmedia:umodsys.mod.media.std.obj
 0002:00000724       ??_C@_0BP@KCJMEDNO@UModSys?3?3libmedia?3?3IBinArchive?$AA@ 00411724     umodsys_lib_libmedia:umodsys.mod.media.std.obj
 0002:00000744       ??_C@_0CB@FDEKNMGJ@UModSys?3?3libmedia?3?3IBinObjFilter@ 00411744     umodsys_lib_libmedia:umodsys.mod.media.std.obj
 0002:00000768       ??_C@_0BM@DPCMOAPM@UModSys?3?3libmedia?3?3ILibrary?$AA@ 00411768     umodsys_lib_libmedia:umodsys.mod.media.std.obj
 0002:00000784       ??_C@_0CD@ELIFEGE@UModSys?3?3libmedia?3?3ILibraryBinTr@ 00411784     umodsys_lib_libmedia:umodsys.mod.media.std.obj
 0002:000007a8       ??_C@_0CE@EGHBJBAJ@UModSys?3?3libmedia?3?3ILibraryBinCa@ 004117a8     umodsys_lib_libmedia:umodsys.mod.media.std.obj
 0002:000007cc       ??_C@_0CF@LBIGBLOK@UModSys?3?3libmedia?3?3ILibraryObjFi@ 004117cc     umodsys_lib_libmedia:umodsys.mod.media.std.obj
 0002:000007f4       ??_C@_0CE@BOBLEOBL@UModSys?3?3libmedia?3?3ILibraryObjCa@ 004117f4     umodsys_lib_libmedia:umodsys.mod.media.std.obj
 0002:00000818       ??_C@_0CD@LJFEJKGF@UModSys?3?3libmedia?3?3ILibraryLayer@ 00411818     umodsys_lib_libmedia:umodsys.mod.media.std.obj
 0002:0000083c       ??_C@_0CP@GECHMLGM@UModSys?3?3modules?3?3media?3?3std?3?3RL@ 0041183c     umodsys_lib_libmedia:umodsys.mod.media.std.obj
 0002:0000086c       ??_C@_0CO@FAPEIINC@UModSys?3?3modules?3?3media?3?3std?3?3RL@ 0041186c     umodsys_lib_libmedia:umodsys.mod.media.std.obj
 0002:0000089c       ??_C@_0CO@ONBIEGND@UModSys?3?3modules?3?3media?3?3std?3?3RL@ 0041189c     umodsys_lib_libmedia:umodsys.mod.media.std.obj
 0002:000008cc       ??_C@_0CP@DMENBEHO@UModSys?3?3modules?3?3media?3?3std?3?3RL@ 004118cc     umodsys_lib_libmedia:umodsys.mod.media.std.obj
 0002:000008fc       ??_C@_0DA@IMHMNIGH@UModSys?3?3modules?3?3media?3?3std?3?3RL@ 004118fc     umodsys_lib_libmedia:umodsys.mod.media.std.obj
 0002:0000092c       ??_C@_0CJ@IPNOMNDB@UModSys?3?3modules?3?3media?3?3std?3?3RG@ 0041192c     umodsys_lib_libmedia:umodsys.mod.media.std.obj
 0002:00000958       ??_C@_0DC@HNPCLNGC@UMODSYS_MODULE_NAME?$CImedia?0std?$CJ?3?3@ 00411958     umodsys_lib_libmedia:umodsys.mod.media.std.obj
 0002:0000098c       ??_C@_0L@LOIPJDMA@media?3?3std?$AA@ 0041198c     umodsys_lib_libmedia:umodsys.mod.media.std.obj
 0002:00000998       ??_C@_09JGNMLHG@modobject?$AA@ 00411998     umodsys_lib_libmedia:umodsys.mod.media.std.obj
 0002:000009a8       ??_7IRoot@core@UModSys@@6B@ 004119a8     umodsys_lib_libmedia:umodsys.mod.media.std.obj
 0002:000009cc       ??_7IRefObject@core@UModSys@@6B@ 004119cc     umodsys_lib_libmedia:umodsys.mod.media.std.obj
 0002:00000a00       ??_7ISetter@SFlags@libmedia@UModSys@@6B@ 00411a00     umodsys_lib_libmedia:umodsys.mod.media.std.obj
 0002:00000a10       ??_7RResolverChain@SFlagsChain@libmedia@UModSys@@6B@ 00411a10     umodsys_lib_libmedia:umodsys.mod.media.std.obj
 0002:00000a1c       ??_7RGenerator@std@media@modules@UModSys@@6B@ 00411a1c     umodsys_lib_libmedia:umodsys.mod.media.std.obj
 0002:00000a6c       ??_7RLibraryBinCache@std@media@modules@UModSys@@6BIRefObject@core@4@@ 00411a6c     umodsys_lib_libmedia:umodsys.mod.media.std.obj
 0002:00000af4       ??_7RLibraryBinCache@std@media@modules@UModSys@@6BISetter@SFlags@libmedia@4@@ 00411af4     umodsys_lib_libmedia:umodsys.mod.media.std.obj
 0002:00000b04       ??_7RLibraryBinTree@std@media@modules@UModSys@@6BIRefObject@core@4@@ 00411b04     umodsys_lib_libmedia:umodsys.mod.media.std.obj
 0002:00000b88       ??_7RLibraryBinTree@std@media@modules@UModSys@@6BISetter@SFlags@libmedia@4@@ 00411b88     umodsys_lib_libmedia:umodsys.mod.media.std.obj
 0002:00000b9c       ??_7RLibraryLayered@std@media@modules@UModSys@@6BIRefObject@core@4@@ 00411b9c     umodsys_lib_libmedia:umodsys.mod.media.std.obj
 0002:00000c28       ??_7RLibraryLayered@std@media@modules@UModSys@@6BISetter@SFlags@libmedia@4@@ 00411c28     umodsys_lib_libmedia:umodsys.mod.media.std.obj
 0002:00000c3c       ??_7RLibraryObjCache@std@media@modules@UModSys@@6BIRefObject@core@4@@ 00411c3c     umodsys_lib_libmedia:umodsys.mod.media.std.obj
 0002:00000cc0       ??_7RLibraryObjCache@std@media@modules@UModSys@@6BISetter@SFlags@libmedia@4@@ 00411cc0     umodsys_lib_libmedia:umodsys.mod.media.std.obj
 0002:00000cd4       ??_7RLibraryObjFilter@std@media@modules@UModSys@@6BIRefObject@core@4@@ 00411cd4     umodsys_lib_libmedia:umodsys.mod.media.std.obj
 0002:00000d60       ??_7RLibraryObjFilter@std@media@modules@UModSys@@6BISetter@SFlags@libmedia@4@@ 00411d60     umodsys_lib_libmedia:umodsys.mod.media.std.obj
 0002:00000d70       ??_7RModuleReg@std@media@modules@UModSys@@6B@ 00411d70     umodsys_lib_libmedia:umodsys.mod.media.std.obj
 0002:00000d88       ?utf_bytesFromUTF8@su@tl@UModSys@@3QBEB 00411d88     umodsys_lib_core:umodsys.tl.utf.obj
 0002:00000e88       ?utf_firstByteMark@su@tl@UModSys@@3QBEB 00411e88     umodsys_lib_core:umodsys.tl.utf.obj
 0002:00000e90       ?utf_offsetsFromUTF8@su@tl@UModSys@@3QBHB 00411e90     umodsys_lib_core:umodsys.tl.utf.obj
 0002:00000eb0       ??_C@_0BH@JDBCAPMN@UModSys?3?3lib2d?3?3IImage?$AA@ 00411eb0     umodsys_lib_libmedia:umodsys.mod.media.images_std.obj
 0002:00000ec8       ??_C@_0BM@NDCOKBPH@UModSys?3?3lib2d?3?3IMultiImage?$AA@ 00411ec8     umodsys_lib_libmedia:umodsys.mod.media.images_std.obj
 0002:00000ee4       ??_C@_0DC@OJAOGACO@UModSys?3?3modules?3?3media?3?3images_@ 00411ee4     umodsys_lib_libmedia:umodsys.mod.media.images_std.obj
 0002:00000f18       ??_C@_0O@IMJFODOA@lib2d?3?3IImage?$AA@ 00411f18     umodsys_lib_libmedia:umodsys.mod.media.images_std.obj
 0002:00000f28       ??_C@_0BH@FAPHCJAO@image_palette_alphakey?$AA@ 00411f28     umodsys_lib_libmedia:umodsys.mod.media.images_std.obj
 0002:00000f40       ??_C@_0L@MIOOFCJG@image_hint?$AA@ 00411f40     umodsys_lib_libmedia:umodsys.mod.media.images_std.obj
 0002:00000f4c       ??_C@_0M@CPFHCGMF@image_alpha?$AA@ 00411f4c     umodsys_lib_libmedia:umodsys.mod.media.images_std.obj
 0002:00000f58       ??_C@_04GNPKBLNA@?4jpg?$AA@ 00411f58     umodsys_lib_libmedia:umodsys.mod.media.images_std.obj
 0002:00000f60       ??_C@_05KPIGABMB@?4jpeg?$AA@ 00411f60     umodsys_lib_libmedia:umodsys.mod.media.images_std.obj
 0002:00000f68       ??_C@_04EEOGCCFB@?4png?$AA@ 00411f68     umodsys_lib_libmedia:umodsys.mod.media.images_std.obj
 0002:00000f70       ??_C@_0CB@LKENOGAK@PNG?5FATAL?5ERROR?3?5png?5error?5?9?5?$CFs?6@ 00411f70     umodsys_lib_libmedia:umodsys.mod.media.images_std.obj
 0002:00000f94       ??_C@_0L@BAFDDAPG@Read?5Error?$AA@ 00411f94     umodsys_lib_libmedia:umodsys.mod.media.images_std.obj
 0002:00000fa0       ??_C@_0M@PMDCBFIO@1?47?40beta06?$AA@ 00411fa0     umodsys_lib_libmedia:umodsys.mod.media.images_std.obj
 0002:00000fac       ??_C@_0DA@GEKJILHJ@UModSys?3?3modules?3?3media?3?3images_@ 00411fac     umodsys_lib_libmedia:umodsys.mod.media.images_std.obj
 0002:00000fdc       ??_C@_0DJ@PEFKPECF@UMODSYS_MODULE_NAME?$CImedia?0images@ 00411fdc     umodsys_lib_libmedia:umodsys.mod.media.images_std.obj
 0002:00001018       ??_C@_0BC@FLDHBKGG@media?3?3images_std?$AA@ 00412018     umodsys_lib_libmedia:umodsys.mod.media.images_std.obj
 0002:00001034       ??_7RGenerator@images_std@media@modules@UModSys@@6B@ 00412034     umodsys_lib_libmedia:umodsys.mod.media.images_std.obj
 0002:00001084       ??_7RMediaFilter@images_std@media@modules@UModSys@@6BIRefObject@core@4@@ 00412084     umodsys_lib_libmedia:umodsys.mod.media.images_std.obj
 0002:000010c4       ??_7RMediaFilter@images_std@media@modules@UModSys@@6BISetter@SFlags@libmedia@4@@ 004120c4     umodsys_lib_libmedia:umodsys.mod.media.images_std.obj
 0002:000010d4       ??_7RModuleReg@images_std@media@modules@UModSys@@6B@ 004120d4     umodsys_lib_libmedia:umodsys.mod.media.images_std.obj
 0002:000010ec       ??_C@_0DD@HMDIDEEB@UModSys?3?3modules?3?3media?3?3stdio?3?3@ 004120ec     umodsys_lib_libmedia:umodsys.mod.media.stdio.obj
 0002:00001120       ??_C@_08BABJIOEM@filename?$AA@ 00412120     umodsys_lib_libmedia:umodsys.mod.media.stdio.obj
 0002:0000112c       ??_C@_02JDPG@rb?$AA@       0041212c     umodsys_lib_libmedia:umodsys.mod.media.stdio.obj
 0002:00001130       ??_C@_0DD@NMEBJAJM@UModSys?3?3modules?3?3media?3?3stdio?3?3@ 00412130     umodsys_lib_libmedia:umodsys.mod.media.stdio.obj
 0002:00001164       ??_C@_04FAOFCKOL@safe?$AA@ 00412164     umodsys_lib_libmedia:umodsys.mod.media.stdio.obj
 0002:0000116c       ??_C@_02GMLFBBN@wb?$AA@    0041216c     umodsys_lib_libmedia:umodsys.mod.media.stdio.obj
 0002:00001170       ??_C@_0DE@KBMIHBCD@UModSys?3?3modules?3?3media?3?3stdio?3?3@ 00412170     umodsys_lib_libmedia:umodsys.mod.media.stdio.obj
 0002:000011a4       ??_C@_01LFCBOECM@?4?$AA@   004121a4     umodsys_lib_libmedia:umodsys.mod.media.stdio.obj
 0002:000011a8       ??_C@_04LNEJFJGI@path?$AA@ 004121a8     umodsys_lib_libmedia:umodsys.mod.media.stdio.obj
 0002:000011b0       ??_C@_08PEIJGPHF@pathname?$AA@ 004121b0     umodsys_lib_libmedia:umodsys.mod.media.stdio.obj
 0002:000011bc       ??_C@_0M@PANNIBHH@permissions?$AA@ 004121bc     umodsys_lib_libmedia:umodsys.mod.media.stdio.obj
 0002:000011c8       ??_C@_0P@DDBOOPIK@?$HL?$HLos?5load?5?$CFs?$HN?$HN?$AA@ 004121c8     umodsys_lib_libmedia:umodsys.mod.media.stdio.obj
 0002:000011d8       ??_C@_0CL@IOBDHHMI@UModSys?3?3modules?3?3media?3?3stdio?3?3@ 004121d8     umodsys_lib_libmedia:umodsys.mod.media.stdio.obj
 0002:00001204       ??_C@_0DE@OOLAIIHN@UMODSYS_MODULE_NAME?$CImedia?0stdio?$CJ@ 00412204     umodsys_lib_libmedia:umodsys.mod.media.stdio.obj
 0002:00001238       ??_C@_0N@HJPCMPI@media?3?3stdio?$AA@ 00412238     umodsys_lib_libmedia:umodsys.mod.media.stdio.obj
 0002:0000124c       ??_7RGenerator@stdio@media@modules@UModSys@@6B@ 0041224c     umodsys_lib_libmedia:umodsys.mod.media.stdio.obj
 0002:0000129c       ??_7RStreamReader_FILE@stdio@media@modules@UModSys@@6B@ 0041229c     umodsys_lib_libmedia:umodsys.mod.media.stdio.obj
 0002:000012ec       ??_7RStreamWriter_FILE@stdio@media@modules@UModSys@@6B@ 004122ec     umodsys_lib_libmedia:umodsys.mod.media.stdio.obj
 0002:0000134c       ??_7RDataArchiver_OsDir@stdio@media@modules@UModSys@@6BIRefObject@core@4@@ 0041234c     umodsys_lib_libmedia:umodsys.mod.media.stdio.obj
 0002:00001398       ??_7RDataArchiver_OsDir@stdio@media@modules@UModSys@@6BISetter@SFlags@libmedia@4@@ 00412398     umodsys_lib_libmedia:umodsys.mod.media.stdio.obj
 0002:000013a8       ??_7RModuleReg@stdio@media@modules@UModSys@@6B@ 004123a8     umodsys_lib_libmedia:umodsys.mod.media.stdio.obj
 0002:000013c0       ??_C@_04HDOCAJNK@?$CFs?$CFs?$AA@ 004123c0     umodsys_lib_libmedia:umodsys.lib.media.common.obj
 0002:000013c8       ??_C@_02CBLDBPFN@?1?1?$AA@ 004123c8     umodsys_lib_libmedia:umodsys.lib.media.common.obj
 0002:000013cc       ??_C@_02BKFDOEMK@wt?$AA@   004123cc     umodsys_lib_basesys:umodsys.basesys.rconsole_std.obj
 0002:000013d4       ??_7IConsole@base@UModSys@@6B@ 004123d4     umodsys_lib_basesys:umodsys.basesys.rconsole_std.obj
 0002:00001424       ??_7RConsole_std@rsystem@base@UModSys@@6B@ 00412424     umodsys_lib_basesys:umodsys.basesys.rconsole_std.obj
 0002:0000146c       ??_C@_04HIBGFPH@NULL?$AA@  0041246c     umodsys_lib_basesys:umodsys.basesys.rsystem_main.obj
 0002:00001474       ??_C@_0L@FPKIMPHA@?$CD?$CF08x?5?$CC?$CFs?$CC?$AA@ 00412474     umodsys_lib_basesys:umodsys.basesys.rsystem_main.obj
 0002:00001480       ??_C@_0BC@HBJCAHHB@EFatal?5?$CD?$CF08x?5?$CC?$CFs?$CC?$AA@ 00412480     umodsys_lib_basesys:umodsys.basesys.rsystem_main.obj
 0002:00001494       ??_C@_0BE@IIJFBNID@EWarning?5?$CD?$CF08x?5?$CC?$CFs?$CC?$AA@ 00412494     umodsys_lib_basesys:umodsys.basesys.rsystem_main.obj
 0002:000014a8       ??_C@_0BB@KFMJENMO@RSystem?3?3init?$CI?$CJ?6?$AA@ 004124a8     umodsys_lib_basesys:umodsys.basesys.rsystem_main.obj
 0002:000014bc       ??_C@_0BI@FKDCNCM@RSystem?3?3exec_args?$CI?$CFd?$CJ?6?$AA@ 004124bc     umodsys_lib_basesys:umodsys.basesys.rsystem_main.obj
 0002:000014d4       ??_C@_0BG@NFAKDFBG@RSystem?3?3exec_main?$CI?$CJ?6?$AA@ 004124d4     umodsys_lib_basesys:umodsys.basesys.rsystem_main.obj
 0002:000014ec       ??_C@_0BD@CKNOJECK@RSystem?3?3deinit?$CI?$CJ?6?$AA@ 004124ec     umodsys_lib_basesys:umodsys.basesys.rsystem_main.obj
 0002:00001504       ??_7EExceptionBase@core@UModSys@@6B@ 00412504     umodsys_lib_basesys:umodsys.basesys.rsystem_main.obj
 0002:00001510       ??_7EFatal@core@UModSys@@6B@ 00412510     umodsys_lib_basesys:umodsys.basesys.rsystem_main.obj
 0002:0000151c       ??_7EWarning@core@UModSys@@6B@ 0041251c     umodsys_lib_basesys:umodsys.basesys.rsystem_main.obj
 0002:0000152c       ??_7ISystem@base@UModSys@@6B@ 0041252c     umodsys_lib_basesys:umodsys.basesys.rsystem_main.obj
 0002:00001570       ??_7?$TRMemAlloc_CC@U?$TMemAllocHeader@USMagic@mem_headers@rsystem@base@UModSys@@U?$TPool@X@2345@USDebug@2345@UVoid@core@5@U895@@rsystem@base@UModSys@@USMemAlloc_Malloc@core@4@@rsystem@base@UModSys@@6B@ 00412570     umodsys_lib_basesys:umodsys.basesys.rsystem_main.obj
 0002:00001584       ??_7RSystem@rsystem@base@UModSys@@6BISystem@23@@ 00412584     umodsys_lib_basesys:umodsys.basesys.rsystem_main.obj
 0002:000015c8       ??_7RSystem@rsystem@base@UModSys@@6BIUniquePointerResolver@core@3@@ 004125c8     umodsys_lib_basesys:umodsys.basesys.rsystem_main.obj
 0002:000015d4       ??_7RSystem@rsystem@base@UModSys@@6BISourceContextAdapter@core@3@@ 004125d4     umodsys_lib_basesys:umodsys.basesys.rsystem_main.obj
 0002:000015d8       ??_C@_0BC@NNHIIPO@shells?5found?3?5?$CFd?6?$AA@ 004125d8     umodsys_lib_basesys:umodsys.basesys.rsystem_tests.obj
 0002:000015ec       ??_C@_0BA@EBBPOIJG@?5?5shell?3?5?$CFp?5?$CFs?6?$AA@ 004125ec     umodsys_lib_basesys:umodsys.basesys.rsystem_tests.obj
 0002:000015fc       ??_C@_0BF@JPMHOAKE@?5?5?5?5shell?5gen?5error?6?$AA@ 004125fc     umodsys_lib_basesys:umodsys.basesys.rsystem_tests.obj
 0002:00001614       ??_C@_0BL@NANLGMEE@?5?5?5?5shell?5generated?5as?5?$CFp?6?$AA@ 00412614     umodsys_lib_basesys:umodsys.basesys.rsystem_tests.obj
 0002:00001630       ??_C@_0BD@NFNPGOAG@?1shells?5found?3?5?$CFd?6?$AA@ 00412630     umodsys_lib_basesys:umodsys.basesys.rsystem_tests.obj
 0002:00001644       ??_C@_0CJ@BMAKALAG@?$CK?$CK?$CK?$CK?$CK?$CK?$CK?$CK?$CK?$CK?$CK?$CK?$CK?$CK?$CK?$CK?$CK?$CK?$CK?$CK?$CK?$CK?$CK?$CK?$CK?$CK?$CK?$CK?$CK?$CK?$CK?5@ 00412644     umodsys_lib_basesys:umodsys.basesys.rsystem_tests.obj
 0002:00001670       ??_C@_0IM@GKLDAEGO@sizeof?$CIDRMemAlloc?$CJ?$DN?$CFu?5sizeof?$CIDRM@ 00412670     umodsys_lib_basesys:umodsys.basesys.rsystem_tests.obj
 0002:000016fc       ??_C@_0CJ@HFHNFOAC@?$CK?$CK?$CK?$CK?$CK?$CK?$CK?$CK?$CK?$CK?$CK?$CK?$CK?$CK?$CK?$CK?$CK?$CK?$CK?$CK?$CK?$CK?$CK?$CK?$CK?$CK?$CK?$CK?$CK?$CK?$CK?5@ 004126fc     umodsys_lib_basesys:umodsys.basesys.rsystem_tests.obj
 0002:00001728       ??_C@_0DG@DMGFJEPO@RModuleLoader?3?3moduledb_cleanup?$CI@ 00412728     umodsys_lib_basesys:umodsys.basesys.rmoduleloader.obj
 0002:00001760       ??_C@_0BN@BDEAMLC@?$CD?5LIST?5OF?5LIBRARY?5MODULES?3?6?6?$AA@ 00412760     umodsys_lib_basesys:umodsys.basesys.rmoduleloader.obj
 0002:00001780       ??_C@_0BF@PLOHEFDA@?5?$HL?5mod_list?$DN?$CFd?3?$FL?$FN?5?$HN?6?$AA@ 00412780     umodsys_lib_basesys:umodsys.basesys.rmoduleloader.obj
 0002:0000179c       ??_7IModuleLoader@base@UModSys@@6B@ 0041279c     umodsys_lib_basesys:umodsys.basesys.rmoduleloader.obj
 0002:000017dc       ??_7RModuleLoader@rsystem@base@UModSys@@6B@ 004127dc     umodsys_lib_basesys:umodsys.basesys.rmoduleloader.obj
 0002:0000181c       ??_7RModuleLibraryThis@rsystem@base@UModSys@@6B@ 0041281c     umodsys_lib_basesys:umodsys.basesys.rmodulelibthis.obj
 0002:00001888       ??_C@_0CN@ONDMHEFN@IModuleLibraryUni?$CI?$CFp?$CJ?3?3link?$CI?$CJ?5?9?9@ 00412888     umodsys_lib_basesys:umodsys.basesys.rmodulelib.obj
 0002:000018b8       ??_C@_0BA@LBGMEMKJ@LIBRARY?5?$CC?$CFs?$CC?5?$HL?6?$AA@ 004128b8     umodsys_lib_basesys:umodsys.basesys.rmodulelib.obj
 0002:000018c8       ??_C@_0BH@CLNAAMEM@?$HN?5?$CD?5END?5LIBRARY?5?$CC?$CFs?$CC?6?6?$AA@ 004128c8     umodsys_lib_basesys:umodsys.basesys.rmodulelib.obj
 0002:000018e0       ??_C@_0BI@OEALOBHC@NULL?5detected?5after?5?$CFp?6?$AA@ 004128e0     umodsys_lib_basesys:umodsys.basesys.rmodulelib.obj
 0002:000018f8       ??_C@_0CH@LDLHHCGC@leak?5detected?5?$CFp?5size?5?$CFu?5at?5?$CFs?$CI?$CF@ 004128f8     umodsys_lib_basesys:umodsys.basesys.rmodulelib.obj
 0002:00001920       ??_C@_0BK@NDLOCOMD@leak?5detected?5?$CFp?5size?5?$CFu?6?$AA@ 00412920     umodsys_lib_basesys:umodsys.basesys.rmodulelib.obj
 0002:00001944       ??_7IModuleLibrary@base@UModSys@@6B@ 00412944     umodsys_lib_basesys:umodsys.basesys.rmodulelib.obj
 0002:000019a4       ??_7IModuleLibraryUni@rsystem@base@UModSys@@6B@ 004129a4     umodsys_lib_basesys:umodsys.basesys.rmodulelib.obj
 0002:00001a14       ??_7RParameters@rsystem@base@UModSys@@6B@ 00412a14     umodsys_lib_basesys:umodsys.basesys.rparameters.obj
 0002:00001a84       ??_C@_0BJ@IHGOMCFA@_UModSys_Plugin_Entry2?$EA0?$AA@ 00412a84     umodsys_lib_basesys:umodsys.basesys.rmodule.win32.obj
 0002:00001aa0       ??_C@_0CI@IABKIJLA@?5?5?5?5?5?5?5?5?5?5load?5so?$CI?$CC?$CFs?$CC?$CJ?5?$HL?$CFp?0?5?$CFp?$HN@ 00412aa0     umodsys_lib_basesys:umodsys.basesys.rmodule.win32.obj
 0002:00001ac8       ??_C@_0BP@EBMDLOGD@?5?5?5?5?5?5?5?5?5?5unload?5so?$CI?$HL?$CFp?0?5?$CFp?$HN?$CJ?6?$AA@ 00412ac8     umodsys_lib_basesys:umodsys.basesys.rmodule.win32.obj
 0002:00001ae8       ??_C@_0BD@FBMHCLKB@scan?5so?3?5?$CC?$CFs?$CFs?$CFs?$CC?6?$AA@ 00412ae8     umodsys_lib_basesys:umodsys.basesys.rmodule.win32.obj
 0002:00001afc       ??_C@_0BC@GMLCPHOK@?1scan?5so?3?5?$CC?$CFs?$CFs?$CC?6?$AA@ 00412afc     umodsys_lib_basesys:umodsys.basesys.rmodule.win32.obj
 0002:00001b10       ??_C@_02CAHBHFGK@?4?1?$AA@ 00412b10     umodsys_lib_basesys:umodsys.basesys.rmodule.win32.obj
 0002:00001b14       ??_C@_04HLONOPDM@?4dll?$AA@ 00412b14     umodsys_lib_basesys:umodsys.basesys.rmodule.win32.obj
 0002:00001b1c       ??_C@_11LOCGONAA@?$AA?$AA@ 00412b1c     umodsys_lib_basesys:umodsys.basesys.rmodule.win32.obj
 0002:00001b20       ??_C@_0BF@KDHHIHAN@RModule?$CI?$CFp?$CJ?3?3open?$CI?$CJ?6?$AA@ 00412b20     umodsys_lib_basesys:umodsys.basesys.rmodule.obj
 0002:00001b38       ??_C@_0BG@HADBHJOP@RModule?$CI?$CFp?$CJ?3?3close?$CI?$CJ?6?$AA@ 00412b38     umodsys_lib_basesys:umodsys.basesys.rmodule.obj
 0002:00001b50       ??_C@_0BK@FNONNOFM@RModule?$CI?$CFp?$CJ?3?3?5pre?9loaded?6?$AA@ 00412b50     umodsys_lib_basesys:umodsys.basesys.rmodule.obj
 0002:00001b6c       ??_C@_0CE@HBBEEAED@RModule?$CI?$CFp?$CJ?3?3generate?$CI?$CJ?5?$HL?5gen?$DN?$CFp@ 00412b6c     umodsys_lib_basesys:umodsys.basesys.rmodule.obj
 0002:00001b90       ??_C@_0DL@FHDKGKAD@RModule?$CI?$CFp?$CJ?3?3reg_generator?$CI?$CFs?5?$CFp@ 00412b90     umodsys_lib_basesys:umodsys.basesys.rmodule.obj
 0002:00001bcc       ??_C@_0DL@ECFHLNEB@RModule?$CI?$CFp?$CJ?3?3reg_generator?$CI?$CFs?5?$CFp@ 00412bcc     umodsys_lib_basesys:umodsys.basesys.rmodule.obj
 0002:00001c08       ??_C@_0DI@EBNLDEPD@RModule?$CI?$CFp?$CJ?3?3reg_obj?$CI?$CFs?5?$CFp?$CJ?5?9?9?5?$HL@ 00412c08     umodsys_lib_basesys:umodsys.basesys.rmodule.obj
 0002:00001c40       ??_C@_0GC@IAELDHPB@RModule?$CI?$CFp?$CJ?3?3reg_obj?$CI?$CFs?5?$CFp?$CJ?5?9?9?5i@ 00412c40     umodsys_lib_basesys:umodsys.basesys.rmodule.obj
 0002:00001ca4       ??_C@_0CM@JCLMIGEB@RModule?$CI?$CFp?$CJ?3?3reg_obj?$CI?$CFs?5?$CFp?$CJ?5?9?9?5a@ 00412ca4     umodsys_lib_basesys:umodsys.basesys.rmodule.obj
 0002:00001cd0       ??_C@_0DK@NJCECDIC@RModule?$CI?$CFp?$CJ?3?3unreg_obj?$CI?$CFs?5?$CFp?$CJ?5?9?9@ 00412cd0     umodsys_lib_basesys:umodsys.basesys.rmodule.obj
 0002:00001d10       ??_C@_0GE@MGLAJHFG@RModule?$CI?$CFp?$CJ?3?3unreg_obj?$CI?$CFs?5?$CFp?$CJ?5?9?9@ 00412d10     umodsys_lib_basesys:umodsys.basesys.rmodule.obj
 0002:00001d74       ??_C@_0CO@DAMPCAGA@RModule?3?3alloc_minfo?$CI?$HL?$CC?$CFs?$CC?0?5?$CC?$CFs?$CC@ 00412d74     umodsys_lib_basesys:umodsys.basesys.rmodule.obj
 0002:00001da4       ??_C@_0BG@HANHHGHE@?5?5MODULE?5?$CFs?$CI?$CFd?0?$CFd?$CJ?5?$HL?6?$AA@ 00412da4     umodsys_lib_basesys:umodsys.basesys.rmodule.obj
 0002:00001dbc       ??_C@_0CI@FMDENPAM@RModule?$CI?$CFp?$CJ?3?3save_db?$CI?4?4?4?$CJ?5?9?9?5?$HL?5?$CF@ 00412dbc     umodsys_lib_basesys:umodsys.basesys.rmodule.obj
 0002:00001de4       ??_C@_0BN@CFNKPKCH@?5?5?5?5MODOBJECT?5?$CFs?$CI?$CFd?$CJ?5?$CFs?$CI?$CFd?$CJ?6?$AA@ 00412de4     umodsys_lib_basesys:umodsys.basesys.rmodule.obj
 0002:00001e04       ??_C@_0BP@BJFGMFNK@?5?5?5?5GENERATOR?5?$CFs?$CI?$CFd?$CJ?5?$CFs?$CI?$CFd?$CJ?5?$HL?6?$AA@ 00412e04     umodsys_lib_basesys:umodsys.basesys.rmodule.obj
 0002:00001e24       ??_C@_0BK@DNNMLLHP@?5?5?5?5?5?5REFOBJECT?5?$CFs?$CI?$CFd?$CJ?5?$HL?6?$AA@ 00412e24     umodsys_lib_basesys:umodsys.basesys.rmodule.obj
 0002:00001e40       ??_C@_0BF@CJPCFEEB@?5?5?5?5?5?5?5?5TYPE?5?$CFs?$CI?$CFd?$CJ?6?$AA@ 00412e40     umodsys_lib_basesys:umodsys.basesys.rmodule.obj
 0002:00001e58       ??_C@_0BM@PFPEFHDC@?5?5?5?5?5?5?$HN?5?$CD?5REFOBJECT?5?$CFs?$CI?$CFd?$CJ?6?$AA@ 00412e58     umodsys_lib_basesys:umodsys.basesys.rmodule.obj
 0002:00001e74       ??_C@_0CB@PCDHJLII@?5?5?5?5?$HN?5?$CD?5GENERATOR?5?$CFs?$CI?$CFd?$CJ?5?$CFs?$CI?$CFd?$CJ?6@ 00412e74     umodsys_lib_basesys:umodsys.basesys.rmodule.obj
 0002:00001e98       ??_C@_0BI@OGBPJMLO@?5?5?$HN?5?$CD?5MODULE?5?$CFs?$CI?$CFd?0?$CFd?$CJ?6?$AA@ 00412e98     umodsys_lib_basesys:umodsys.basesys.rmodule.obj
 0002:00001eb4       ??_7IModule@base@UModSys@@6B@ 00412eb4     umodsys_lib_basesys:umodsys.basesys.rmodule.obj
 0002:00001f0c       ??_7RModule@rsystem@base@UModSys@@6B@ 00412f0c     umodsys_lib_basesys:umodsys.basesys.rmodule.obj
 0002:00001f60       ??_C@_0M@KEHKBKEH@?5?5so?3?5?$CC?$CFs?$CC?6?$AA@ 00412f60     umodsys_lib_basesys:umodsys.basesys.rmodulelibso.obj
 0002:00001f6c       ??_C@_0BF@IKAEAMGP@?5?5?5?5so?5loaded?3?5?$CC?$CFs?$CC?6?$AA@ 00412f6c     umodsys_lib_basesys:umodsys.basesys.rmodulelibso.obj
 0002:00001f84       ??_C@_0O@MCPOKEFF@?5?5?5?5so?5added?6?$AA@ 00412f84     umodsys_lib_basesys:umodsys.basesys.rmodulelibso.obj
 0002:00001f94       ??_C@_0BE@BFONLBBI@?5?5?5?5so?5dup?5with?5?$CFd?6?$AA@ 00412f94     umodsys_lib_basesys:umodsys.basesys.rmodulelibso.obj
 0002:00001fac       ??_7RModuleLibrarySO@rsystem@base@UModSys@@6B@ 00412fac     umodsys_lib_basesys:umodsys.basesys.rmodulelibso.obj
 0002:0000201c       ??_7RModuleLibraryReg_Chain@base@UModSys@@6B@ 0041301c     umodsys_lib_base:umodsys.base.moduleregchain.obj
 0002:00002038       ??_7IModuleReg@base@UModSys@@6B@ 00413038     umodsys_lib_base:umodsys.base.modulereg.obj
 0002:00002054       ??_7IModuleLibraryReg@base@UModSys@@6B@ 00413054     umodsys_lib_base:umodsys.base.modulereg.obj
 0002:0000206c       ??_C@_04MMEBIPMJ@?4tmp?$AA@ 0041306c     umodsys_lib_core:umodsys.core.syshlp_files.win32.obj
 0002:00002078       __load_config_used         00413078     MSVCRT:loadcfg.obj
 0002:000020c0       ??_R4type_info@@6B@        004130c0     MSVCRT:ti_inst.obj
 0002:000020d4       ??_R3type_info@@8          004130d4     MSVCRT:ti_inst.obj
 0002:000020e4       ??_R2type_info@@8          004130e4     MSVCRT:ti_inst.obj
 0002:000020ec       ??_R1A@?0A@EA@type_info@@8 004130ec     MSVCRT:ti_inst.obj
 0002:00002108       ??_R4RModuleReg@std@media@modules@UModSys@@6B@ 00413108     umodsys_lib_libmedia:umodsys.mod.media.std.obj
 0002:0000211c       ??_R3RModuleReg@std@media@modules@UModSys@@8 0041311c     umodsys_lib_libmedia:umodsys.mod.media.std.obj
 0002:0000212c       ??_R2RModuleReg@std@media@modules@UModSys@@8 0041312c     umodsys_lib_libmedia:umodsys.mod.media.std.obj
 0002:00002138       ??_R1A@?0A@EA@IModuleReg@base@UModSys@@8 00413138     umodsys_lib_libmedia:umodsys.mod.media.std.obj
 0002:00002154       ??_R3IModuleReg@base@UModSys@@8 00413154     umodsys_lib_libmedia:umodsys.mod.media.std.obj
 0002:00002164       ??_R2IModuleReg@base@UModSys@@8 00413164     umodsys_lib_libmedia:umodsys.mod.media.std.obj
 0002:0000216c       ??_R1A@?0A@EA@RModuleReg@std@media@modules@UModSys@@8 0041316c     umodsys_lib_libmedia:umodsys.mod.media.std.obj
 0002:00002188       ??_R4RLibraryObjFilter@std@media@modules@UModSys@@6BISetter@SFlags@libmedia@4@@ 00413188     umodsys_lib_libmedia:umodsys.mod.media.std.obj
 0002:0000219c       ??_R4RLibraryObjFilter@std@media@modules@UModSys@@6BIRefObject@core@4@@ 0041319c     umodsys_lib_libmedia:umodsys.mod.media.std.obj
 0002:000021b0       ??_R3RLibraryObjFilter@std@media@modules@UModSys@@8 004131b0     umodsys_lib_libmedia:umodsys.mod.media.std.obj
 0002:000021c0       ??_R2RLibraryObjFilter@std@media@modules@UModSys@@8 004131c0     umodsys_lib_libmedia:umodsys.mod.media.std.obj
 0002:000021e4       ??_R1A@?0A@EA@RLibraryObjFilter@std@media@modules@UModSys@@8 004131e4     umodsys_lib_libmedia:umodsys.mod.media.std.obj
 0002:00002200       ??_R4RLibraryObjCache@std@media@modules@UModSys@@6BISetter@SFlags@libmedia@4@@ 00413200     umodsys_lib_libmedia:umodsys.mod.media.std.obj
 0002:00002214       ??_R4RLibraryObjCache@std@media@modules@UModSys@@6BIRefObject@core@4@@ 00413214     umodsys_lib_libmedia:umodsys.mod.media.std.obj
 0002:00002228       ??_R3RLibraryObjCache@std@media@modules@UModSys@@8 00413228     umodsys_lib_libmedia:umodsys.mod.media.std.obj
 0002:00002238       ??_R2RLibraryObjCache@std@media@modules@UModSys@@8 00413238     umodsys_lib_libmedia:umodsys.mod.media.std.obj
 0002:0000225c       ??_R1A@?0A@EA@RLibraryObjCache@std@media@modules@UModSys@@8 0041325c     umodsys_lib_libmedia:umodsys.mod.media.std.obj
 0002:00002278       ??_R4RLibraryLayered@std@media@modules@UModSys@@6BISetter@SFlags@libmedia@4@@ 00413278     umodsys_lib_libmedia:umodsys.mod.media.std.obj
 0002:0000228c       ??_R4RLibraryLayered@std@media@modules@UModSys@@6BIRefObject@core@4@@ 0041328c     umodsys_lib_libmedia:umodsys.mod.media.std.obj
 0002:000022a0       ??_R3RLibraryLayered@std@media@modules@UModSys@@8 004132a0     umodsys_lib_libmedia:umodsys.mod.media.std.obj
 0002:000022b0       ??_R2RLibraryLayered@std@media@modules@UModSys@@8 004132b0     umodsys_lib_libmedia:umodsys.mod.media.std.obj
 0002:000022d4       ??_R1A@?0A@EA@RLibraryLayered@std@media@modules@UModSys@@8 004132d4     umodsys_lib_libmedia:umodsys.mod.media.std.obj
 0002:000022f0       ??_R4RLibraryBinTree@std@media@modules@UModSys@@6BISetter@SFlags@libmedia@4@@ 004132f0     umodsys_lib_libmedia:umodsys.mod.media.std.obj
 0002:00002304       ??_R4RLibraryBinTree@std@media@modules@UModSys@@6BIRefObject@core@4@@ 00413304     umodsys_lib_libmedia:umodsys.mod.media.std.obj
 0002:00002318       ??_R3RLibraryBinTree@std@media@modules@UModSys@@8 00413318     umodsys_lib_libmedia:umodsys.mod.media.std.obj
 0002:00002328       ??_R2RLibraryBinTree@std@media@modules@UModSys@@8 00413328     umodsys_lib_libmedia:umodsys.mod.media.std.obj
 0002:0000234c       ??_R1A@?0A@EA@RLibraryBinTree@std@media@modules@UModSys@@8 0041334c     umodsys_lib_libmedia:umodsys.mod.media.std.obj
 0002:00002368       ??_R4RLibraryBinCache@std@media@modules@UModSys@@6BISetter@SFlags@libmedia@4@@ 00413368     umodsys_lib_libmedia:umodsys.mod.media.std.obj
 0002:0000237c       ??_R4RLibraryBinCache@std@media@modules@UModSys@@6BIRefObject@core@4@@ 0041337c     umodsys_lib_libmedia:umodsys.mod.media.std.obj
 0002:00002390       ??_R3RLibraryBinCache@std@media@modules@UModSys@@8 00413390     umodsys_lib_libmedia:umodsys.mod.media.std.obj
 0002:000023a0       ??_R2RLibraryBinCache@std@media@modules@UModSys@@8 004133a0     umodsys_lib_libmedia:umodsys.mod.media.std.obj
 0002:000023c4       ??_R1A@?0A@EA@RLibraryBinCache@std@media@modules@UModSys@@8 004133c4     umodsys_lib_libmedia:umodsys.mod.media.std.obj
 0002:000023e0       ??_R4RGenerator@std@media@modules@UModSys@@6B@ 004133e0     umodsys_lib_libmedia:umodsys.mod.media.std.obj
 0002:000023f4       ??_R3RGenerator@std@media@modules@UModSys@@8 004133f4     umodsys_lib_libmedia:umodsys.mod.media.std.obj
 0002:00002404       ??_R2RGenerator@std@media@modules@UModSys@@8 00413404     umodsys_lib_libmedia:umodsys.mod.media.std.obj
 0002:0000241c       ??_R1A@?0A@EA@RGenerator@std@media@modules@UModSys@@8 0041341c     umodsys_lib_libmedia:umodsys.mod.media.std.obj
 0002:00002438       ??_R4RResolverChain@SFlagsChain@libmedia@UModSys@@6B@ 00413438     umodsys_lib_libmedia:umodsys.mod.media.std.obj
 0002:0000244c       ??_R3RResolverChain@SFlagsChain@libmedia@UModSys@@8 0041344c     umodsys_lib_libmedia:umodsys.mod.media.std.obj
 0002:0000245c       ??_R2RResolverChain@SFlagsChain@libmedia@UModSys@@8 0041345c     umodsys_lib_libmedia:umodsys.mod.media.std.obj
 0002:00002468       ??_R1A@?0A@EA@RResolverChain@SFlagsChain@libmedia@UModSys@@8 00413468     umodsys_lib_libmedia:umodsys.mod.media.std.obj
 0002:00002484       ??_R4ISetter@SFlags@libmedia@UModSys@@6B@ 00413484     umodsys_lib_libmedia:umodsys.mod.media.std.obj
 0002:00002498       ??_R3ILibraryLayered@libmedia@UModSys@@8 00413498     umodsys_lib_libmedia:umodsys.mod.media.std.obj
 0002:000024a8       ??_R2ILibraryLayered@libmedia@UModSys@@8 004134a8     umodsys_lib_libmedia:umodsys.mod.media.std.obj
 0002:000024c8       ??_R1A@?0A@EA@ILibraryLayered@libmedia@UModSys@@8 004134c8     umodsys_lib_libmedia:umodsys.mod.media.std.obj
 0002:000024e4       ??_R3ILibraryObjCache@libmedia@UModSys@@8 004134e4     umodsys_lib_libmedia:umodsys.mod.media.std.obj
 0002:000024f4       ??_R2ILibraryObjCache@libmedia@UModSys@@8 004134f4     umodsys_lib_libmedia:umodsys.mod.media.std.obj
 0002:00002514       ??_R1A@?0A@EA@ILibraryObjCache@libmedia@UModSys@@8 00413514     umodsys_lib_libmedia:umodsys.mod.media.std.obj
 0002:00002530       ??_R3ILibraryObjFilter@libmedia@UModSys@@8 00413530     umodsys_lib_libmedia:umodsys.mod.media.std.obj
 0002:00002540       ??_R2ILibraryObjFilter@libmedia@UModSys@@8 00413540     umodsys_lib_libmedia:umodsys.mod.media.std.obj
 0002:00002560       ??_R1A@?0A@EA@ILibraryObjFilter@libmedia@UModSys@@8 00413560     umodsys_lib_libmedia:umodsys.mod.media.std.obj
 0002:0000257c       ??_R3ILibraryBinCache@libmedia@UModSys@@8 0041357c     umodsys_lib_libmedia:umodsys.mod.media.std.obj
 0002:0000258c       ??_R2ILibraryBinCache@libmedia@UModSys@@8 0041358c     umodsys_lib_libmedia:umodsys.mod.media.std.obj
 0002:000025ac       ??_R1A@?0A@EA@ILibraryBinCache@libmedia@UModSys@@8 004135ac     umodsys_lib_libmedia:umodsys.mod.media.std.obj
 0002:000025c8       ??_R3ILibraryBinTree@libmedia@UModSys@@8 004135c8     umodsys_lib_libmedia:umodsys.mod.media.std.obj
 0002:000025d8       ??_R2ILibraryBinTree@libmedia@UModSys@@8 004135d8     umodsys_lib_libmedia:umodsys.mod.media.std.obj
 0002:000025f8       ??_R1A@?0A@EA@ILibraryBinTree@libmedia@UModSys@@8 004135f8     umodsys_lib_libmedia:umodsys.mod.media.std.obj
 0002:00002614       ??_R3ILibrary@libmedia@UModSys@@8 00413614     umodsys_lib_libmedia:umodsys.mod.media.std.obj
 0002:00002624       ??_R2ILibrary@libmedia@UModSys@@8 00413624     umodsys_lib_libmedia:umodsys.mod.media.std.obj
 0002:00002640       ??_R13?0A@EA@IResolver@SFlags@libmedia@UModSys@@8 00413640     umodsys_lib_libmedia:umodsys.mod.media.std.obj
 0002:0000265c       ??_R13?0A@EA@IResolverAuto@SFlags@libmedia@UModSys@@8 0041365c     umodsys_lib_libmedia:umodsys.mod.media.std.obj
 0002:00002678       ??_R13?0A@EA@ISetter@SFlags@libmedia@UModSys@@8 00413678     umodsys_lib_libmedia:umodsys.mod.media.std.obj
 0002:00002694       ??_R3ISetter@SFlags@libmedia@UModSys@@8 00413694     umodsys_lib_libmedia:umodsys.mod.media.std.obj
 0002:000026a4       ??_R2ISetter@SFlags@libmedia@UModSys@@8 004136a4     umodsys_lib_libmedia:umodsys.mod.media.std.obj
 0002:000026b4       ??_R1A@?0A@EA@IResolverAuto@SFlags@libmedia@UModSys@@8 004136b4     umodsys_lib_libmedia:umodsys.mod.media.std.obj
 0002:000026d0       ??_R3IResolverAuto@SFlags@libmedia@UModSys@@8 004136d0     umodsys_lib_libmedia:umodsys.mod.media.std.obj
 0002:000026e0       ??_R2IResolverAuto@SFlags@libmedia@UModSys@@8 004136e0     umodsys_lib_libmedia:umodsys.mod.media.std.obj
 0002:000026ec       ??_R1A@?0A@EA@IResolver@SFlags@libmedia@UModSys@@8 004136ec     umodsys_lib_libmedia:umodsys.mod.media.std.obj
 0002:00002708       ??_R3IResolver@SFlags@libmedia@UModSys@@8 00413708     umodsys_lib_libmedia:umodsys.mod.media.std.obj
 0002:00002718       ??_R2IResolver@SFlags@libmedia@UModSys@@8 00413718     umodsys_lib_libmedia:umodsys.mod.media.std.obj
 0002:00002720       ??_R1A@?0A@EA@ISetter@SFlags@libmedia@UModSys@@8 00413720     umodsys_lib_libmedia:umodsys.mod.media.std.obj
 0002:0000273c       ??_R1A@?0A@EA@ILibrary@libmedia@UModSys@@8 0041373c     umodsys_lib_libmedia:umodsys.mod.media.std.obj
 0002:00002758       ??_R3IGenerator@base@UModSys@@8 00413758     umodsys_lib_libmedia:umodsys.mod.media.std.obj
 0002:00002768       ??_R2IGenerator@base@UModSys@@8 00413768     umodsys_lib_libmedia:umodsys.mod.media.std.obj
 0002:0000277c       ??_R1A@?0A@EA@IGenerator@base@UModSys@@8 0041377c     umodsys_lib_libmedia:umodsys.mod.media.std.obj
 0002:00002798       ??_R3IModObject@base@UModSys@@8 00413798     umodsys_lib_libmedia:umodsys.mod.media.std.obj
 0002:000027a8       ??_R2IModObject@base@UModSys@@8 004137a8     umodsys_lib_libmedia:umodsys.mod.media.std.obj
 0002:000027b8       ??_R1A@?0A@EA@IModObject@base@UModSys@@8 004137b8     umodsys_lib_libmedia:umodsys.mod.media.std.obj
 0002:000027d4       ??_R4IRefObject@core@UModSys@@6B@ 004137d4     umodsys_lib_libmedia:umodsys.mod.media.std.obj
 0002:000027e8       ??_R3IRefObject@core@UModSys@@8 004137e8     umodsys_lib_libmedia:umodsys.mod.media.std.obj
 0002:000027f8       ??_R2IRefObject@core@UModSys@@8 004137f8     umodsys_lib_libmedia:umodsys.mod.media.std.obj
 0002:00002804       ??_R1A@?0A@EA@IRefObject@core@UModSys@@8 00413804     umodsys_lib_libmedia:umodsys.mod.media.std.obj
 0002:00002820       ??_R4IRoot@core@UModSys@@6B@ 00413820     umodsys_lib_libmedia:umodsys.mod.media.std.obj
 0002:00002834       ??_R3IRoot@core@UModSys@@8 00413834     umodsys_lib_libmedia:umodsys.mod.media.std.obj
 0002:00002844       ??_R2IRoot@core@UModSys@@8 00413844     umodsys_lib_libmedia:umodsys.mod.media.std.obj
 0002:0000284c       ??_R1A@?0A@EA@IRoot@core@UModSys@@8 0041384c     umodsys_lib_libmedia:umodsys.mod.media.std.obj
 0002:00002868       ??_R4RModuleReg@images_std@media@modules@UModSys@@6B@ 00413868     umodsys_lib_libmedia:umodsys.mod.media.images_std.obj
 0002:0000287c       ??_R3RModuleReg@images_std@media@modules@UModSys@@8 0041387c     umodsys_lib_libmedia:umodsys.mod.media.images_std.obj
 0002:0000288c       ??_R2RModuleReg@images_std@media@modules@UModSys@@8 0041388c     umodsys_lib_libmedia:umodsys.mod.media.images_std.obj
 0002:00002898       ??_R1A@?0A@EA@RModuleReg@images_std@media@modules@UModSys@@8 00413898     umodsys_lib_libmedia:umodsys.mod.media.images_std.obj
 0002:000028b4       ??_R4RMediaFilter@images_std@media@modules@UModSys@@6BISetter@SFlags@libmedia@4@@ 004138b4     umodsys_lib_libmedia:umodsys.mod.media.images_std.obj
 0002:000028c8       ??_R4RMediaFilter@images_std@media@modules@UModSys@@6BIRefObject@core@4@@ 004138c8     umodsys_lib_libmedia:umodsys.mod.media.images_std.obj
 0002:000028dc       ??_R3RMediaFilter@images_std@media@modules@UModSys@@8 004138dc     umodsys_lib_libmedia:umodsys.mod.media.images_std.obj
 0002:000028ec       ??_R2RMediaFilter@images_std@media@modules@UModSys@@8 004138ec     umodsys_lib_libmedia:umodsys.mod.media.images_std.obj
 0002:0000290c       ??_R1A@?0A@EA@RMediaFilter@images_std@media@modules@UModSys@@8 0041390c     umodsys_lib_libmedia:umodsys.mod.media.images_std.obj
 0002:00002928       ??_R4RGenerator@images_std@media@modules@UModSys@@6B@ 00413928     umodsys_lib_libmedia:umodsys.mod.media.images_std.obj
 0002:0000293c       ??_R3RGenerator@images_std@media@modules@UModSys@@8 0041393c     umodsys_lib_libmedia:umodsys.mod.media.images_std.obj
 0002:0000294c       ??_R2RGenerator@images_std@media@modules@UModSys@@8 0041394c     umodsys_lib_libmedia:umodsys.mod.media.images_std.obj
 0002:00002964       ??_R1A@?0A@EA@RGenerator@images_std@media@modules@UModSys@@8 00413964     umodsys_lib_libmedia:umodsys.mod.media.images_std.obj
 0002:00002980       ??_R3IBinObjFilter@libmedia@UModSys@@8 00413980     umodsys_lib_libmedia:umodsys.mod.media.images_std.obj
 0002:00002990       ??_R2IBinObjFilter@libmedia@UModSys@@8 00413990     umodsys_lib_libmedia:umodsys.mod.media.images_std.obj
 0002:000029ac       ??_R1A@?0A@EA@IBinObjFilter@libmedia@UModSys@@8 004139ac     umodsys_lib_libmedia:umodsys.mod.media.images_std.obj
 0002:000029c8       ??_R4RModuleReg@stdio@media@modules@UModSys@@6B@ 004139c8     umodsys_lib_libmedia:umodsys.mod.media.stdio.obj
 0002:000029dc       ??_R3RModuleReg@stdio@media@modules@UModSys@@8 004139dc     umodsys_lib_libmedia:umodsys.mod.media.stdio.obj
 0002:000029ec       ??_R2RModuleReg@stdio@media@modules@UModSys@@8 004139ec     umodsys_lib_libmedia:umodsys.mod.media.stdio.obj
 0002:000029f8       ??_R1A@?0A@EA@RModuleReg@stdio@media@modules@UModSys@@8 004139f8     umodsys_lib_libmedia:umodsys.mod.media.stdio.obj
 0002:00002a14       ??_R4RDataArchiver_OsDir@stdio@media@modules@UModSys@@6BISetter@SFlags@libmedia@4@@ 00413a14     umodsys_lib_libmedia:umodsys.mod.media.stdio.obj
 0002:00002a28       ??_R4RDataArchiver_OsDir@stdio@media@modules@UModSys@@6BIRefObject@core@4@@ 00413a28     umodsys_lib_libmedia:umodsys.mod.media.stdio.obj
 0002:00002a3c       ??_R3RDataArchiver_OsDir@stdio@media@modules@UModSys@@8 00413a3c     umodsys_lib_libmedia:umodsys.mod.media.stdio.obj
 0002:00002a4c       ??_R2RDataArchiver_OsDir@stdio@media@modules@UModSys@@8 00413a4c     umodsys_lib_libmedia:umodsys.mod.media.stdio.obj
 0002:00002a6c       ??_R1A@?0A@EA@RDataArchiver_OsDir@stdio@media@modules@UModSys@@8 00413a6c     umodsys_lib_libmedia:umodsys.mod.media.stdio.obj
 0002:00002a88       ??_R4RStreamWriter_FILE@stdio@media@modules@UModSys@@6B@ 00413a88     umodsys_lib_libmedia:umodsys.mod.media.stdio.obj
 0002:00002a9c       ??_R3RStreamWriter_FILE@stdio@media@modules@UModSys@@8 00413a9c     umodsys_lib_libmedia:umodsys.mod.media.stdio.obj
 0002:00002aac       ??_R2RStreamWriter_FILE@stdio@media@modules@UModSys@@8 00413aac     umodsys_lib_libmedia:umodsys.mod.media.stdio.obj
 0002:00002ac0       ??_R1A@?0A@EA@RStreamWriter_FILE@stdio@media@modules@UModSys@@8 00413ac0     umodsys_lib_libmedia:umodsys.mod.media.stdio.obj
 0002:00002adc       ??_R4RStreamReader_FILE@stdio@media@modules@UModSys@@6B@ 00413adc     umodsys_lib_libmedia:umodsys.mod.media.stdio.obj
 0002:00002af0       ??_R3RStreamReader_FILE@stdio@media@modules@UModSys@@8 00413af0     umodsys_lib_libmedia:umodsys.mod.media.stdio.obj
 0002:00002b00       ??_R2RStreamReader_FILE@stdio@media@modules@UModSys@@8 00413b00     umodsys_lib_libmedia:umodsys.mod.media.stdio.obj
 0002:00002b14       ??_R1A@?0A@EA@RStreamReader_FILE@stdio@media@modules@UModSys@@8 00413b14     umodsys_lib_libmedia:umodsys.mod.media.stdio.obj
 0002:00002b30       ??_R4RGenerator@stdio@media@modules@UModSys@@6B@ 00413b30     umodsys_lib_libmedia:umodsys.mod.media.stdio.obj
 0002:00002b44       ??_R3RGenerator@stdio@media@modules@UModSys@@8 00413b44     umodsys_lib_libmedia:umodsys.mod.media.stdio.obj
 0002:00002b54       ??_R2RGenerator@stdio@media@modules@UModSys@@8 00413b54     umodsys_lib_libmedia:umodsys.mod.media.stdio.obj
 0002:00002b6c       ??_R1A@?0A@EA@RGenerator@stdio@media@modules@UModSys@@8 00413b6c     umodsys_lib_libmedia:umodsys.mod.media.stdio.obj
 0002:00002b88       ??_R3IBinArchive@libmedia@UModSys@@8 00413b88     umodsys_lib_libmedia:umodsys.mod.media.stdio.obj
 0002:00002b98       ??_R2IBinArchive@libmedia@UModSys@@8 00413b98     umodsys_lib_libmedia:umodsys.mod.media.stdio.obj
 0002:00002bb4       ??_R1A@?0A@EA@IBinArchive@libmedia@UModSys@@8 00413bb4     umodsys_lib_libmedia:umodsys.mod.media.stdio.obj
 0002:00002bd0       ??_R3IStreamWriter@libmedia@UModSys@@8 00413bd0     umodsys_lib_libmedia:umodsys.mod.media.stdio.obj
 0002:00002be0       ??_R2IStreamWriter@libmedia@UModSys@@8 00413be0     umodsys_lib_libmedia:umodsys.mod.media.stdio.obj
 0002:00002bf0       ??_R1A@?0A@EA@IStreamWriter@libmedia@UModSys@@8 00413bf0     umodsys_lib_libmedia:umodsys.mod.media.stdio.obj
 0002:00002c0c       ??_R3IStreamReader@libmedia@UModSys@@8 00413c0c     umodsys_lib_libmedia:umodsys.mod.media.stdio.obj
 0002:00002c1c       ??_R2IStreamReader@libmedia@UModSys@@8 00413c1c     umodsys_lib_libmedia:umodsys.mod.media.stdio.obj
 0002:00002c2c       ??_R1A@?0A@EA@IStreamReader@libmedia@UModSys@@8 00413c2c     umodsys_lib_libmedia:umodsys.mod.media.stdio.obj
 0002:00002c48       ??_R4RConsole_std@rsystem@base@UModSys@@6B@ 00413c48     umodsys_lib_basesys:umodsys.basesys.rconsole_std.obj
 0002:00002c5c       ??_R3RConsole_std@rsystem@base@UModSys@@8 00413c5c     umodsys_lib_basesys:umodsys.basesys.rconsole_std.obj
 0002:00002c6c       ??_R2RConsole_std@rsystem@base@UModSys@@8 00413c6c     umodsys_lib_basesys:umodsys.basesys.rconsole_std.obj
 0002:00002c80       ??_R1A@?0A@EA@RConsole_std@rsystem@base@UModSys@@8 00413c80     umodsys_lib_basesys:umodsys.basesys.rconsole_std.obj
 0002:00002c9c       ??_R4IConsole@base@UModSys@@6B@ 00413c9c     umodsys_lib_basesys:umodsys.basesys.rconsole_std.obj
 0002:00002cb0       ??_R3IConsole@base@UModSys@@8 00413cb0     umodsys_lib_basesys:umodsys.basesys.rconsole_std.obj
 0002:00002cc0       ??_R2IConsole@base@UModSys@@8 00413cc0     umodsys_lib_basesys:umodsys.basesys.rconsole_std.obj
 0002:00002cd0       ??_R1A@?0A@EA@IConsole@base@UModSys@@8 00413cd0     umodsys_lib_basesys:umodsys.basesys.rconsole_std.obj
 0002:00002cec       ??_R4RSystem@rsystem@base@UModSys@@6BISourceContextAdapter@core@3@@ 00413cec     umodsys_lib_basesys:umodsys.basesys.rsystem_main.obj
 0002:00002d00       ??_R4RSystem@rsystem@base@UModSys@@6BIUniquePointerResolver@core@3@@ 00413d00     umodsys_lib_basesys:umodsys.basesys.rsystem_main.obj
 0002:00002d14       ??_R4RSystem@rsystem@base@UModSys@@6BISystem@23@@ 00413d14     umodsys_lib_basesys:umodsys.basesys.rsystem_main.obj
 0002:00002d28       ??_R3RSystem@rsystem@base@UModSys@@8 00413d28     umodsys_lib_basesys:umodsys.basesys.rsystem_main.obj
 0002:00002d38       ??_R2RSystem@rsystem@base@UModSys@@8 00413d38     umodsys_lib_basesys:umodsys.basesys.rsystem_main.obj
 0002:00002d50       ??_R17?0A@EA@ISourceContextAdapter@core@UModSys@@8 00413d50     umodsys_lib_basesys:umodsys.basesys.rsystem_main.obj
 0002:00002d6c       ??_R13?0A@EA@IUniquePointerResolver@core@UModSys@@8 00413d6c     umodsys_lib_basesys:umodsys.basesys.rsystem_main.obj
 0002:00002d88       ??_R1A@?0A@EA@RSystem@rsystem@base@UModSys@@8 00413d88     umodsys_lib_basesys:umodsys.basesys.rsystem_main.obj
 0002:00002da4       ??_R4?$TRMemAlloc_CC@U?$TMemAllocHeader@USMagic@mem_headers@rsystem@base@UModSys@@U?$TPool@X@2345@USDebug@2345@UVoid@core@5@U895@@rsystem@base@UModSys@@USMemAlloc_Malloc@core@4@@rsystem@base@UModSys@@6B@ 00413da4     umodsys_lib_basesys:umodsys.basesys.rsystem_main.obj
 0002:00002db8       ??_R3?$TRMemAlloc_CC@U?$TMemAllocHeader@USMagic@mem_headers@rsystem@base@UModSys@@U?$TPool@X@2345@USDebug@2345@UVoid@core@5@U895@@rsystem@base@UModSys@@USMemAlloc_Malloc@core@4@@rsystem@base@UModSys@@8 00413db8     umodsys_lib_basesys:umodsys.basesys.rsystem_main.obj
 0002:00002dc8       ??_R2?$TRMemAlloc_CC@U?$TMemAllocHeader@USMagic@mem_headers@rsystem@base@UModSys@@U?$TPool@X@2345@USDebug@2345@UVoid@core@5@U895@@rsystem@base@UModSys@@USMemAlloc_Malloc@core@4@@rsystem@base@UModSys@@8 00413dc8     umodsys_lib_basesys:umodsys.basesys.rsystem_main.obj
 0002:00002dd8       ??_R13?0A@EA@SMemAlloc_Malloc@core@UModSys@@8 00413dd8     umodsys_lib_basesys:umodsys.basesys.rsystem_main.obj
 0002:00002df4       ??_R3SMemAlloc_Malloc@core@UModSys@@8 00413df4     umodsys_lib_basesys:umodsys.basesys.rsystem_main.obj
 0002:00002e04       ??_R2SMemAlloc_Malloc@core@UModSys@@8 00413e04     umodsys_lib_basesys:umodsys.basesys.rsystem_main.obj
 0002:00002e0c       ??_R1A@?0A@EA@SMemAlloc_Malloc@core@UModSys@@8 00413e0c     umodsys_lib_basesys:umodsys.basesys.rsystem_main.obj
 0002:00002e28       ??_R1A@?0A@EA@?$TRMemAlloc_CC@U?$TMemAllocHeader@USMagic@mem_headers@rsystem@base@UModSys@@U?$TPool@X@2345@USDebug@2345@UVoid@core@5@U895@@rsystem@base@UModSys@@USMemAlloc_Malloc@core@4@@rsystem@base@UModSys@@8 00413e28     umodsys_lib_basesys:umodsys.basesys.rsystem_main.obj
 0002:00002e44       ??_R3IUniquePointerResolver@core@UModSys@@8 00413e44     umodsys_lib_basesys:umodsys.basesys.rsystem_main.obj
 0002:00002e54       ??_R2IUniquePointerResolver@core@UModSys@@8 00413e54     umodsys_lib_basesys:umodsys.basesys.rsystem_main.obj
 0002:00002e5c       ??_R1A@?0A@EA@IUniquePointerResolver@core@UModSys@@8 00413e5c     umodsys_lib_basesys:umodsys.basesys.rsystem_main.obj
 0002:00002e78       ??_R3ISourceContextAdapter@core@UModSys@@8 00413e78     umodsys_lib_basesys:umodsys.basesys.rsystem_main.obj
 0002:00002e88       ??_R2ISourceContextAdapter@core@UModSys@@8 00413e88     umodsys_lib_basesys:umodsys.basesys.rsystem_main.obj
 0002:00002e90       ??_R1A@?0A@EA@ISourceContextAdapter@core@UModSys@@8 00413e90     umodsys_lib_basesys:umodsys.basesys.rsystem_main.obj
 0002:00002eac       ??_R4ISystem@base@UModSys@@6B@ 00413eac     umodsys_lib_basesys:umodsys.basesys.rsystem_main.obj
 0002:00002ec0       ??_R3ISystem@base@UModSys@@8 00413ec0     umodsys_lib_basesys:umodsys.basesys.rsystem_main.obj
 0002:00002ed0       ??_R2ISystem@base@UModSys@@8 00413ed0     umodsys_lib_basesys:umodsys.basesys.rsystem_main.obj
 0002:00002edc       ??_R1A@?0A@EA@ISystem@base@UModSys@@8 00413edc     umodsys_lib_basesys:umodsys.basesys.rsystem_main.obj
 0002:00002ef8       ??_R3IMemAlloc@core@UModSys@@8 00413ef8     umodsys_lib_basesys:umodsys.basesys.rsystem_main.obj
 0002:00002f08       ??_R2IMemAlloc@core@UModSys@@8 00413f08     umodsys_lib_basesys:umodsys.basesys.rsystem_main.obj
 0002:00002f10       ??_R1A@?0A@EA@IMemAlloc@core@UModSys@@8 00413f10     umodsys_lib_basesys:umodsys.basesys.rsystem_main.obj
 0002:00002f2c       ??_R4EWarning@core@UModSys@@6B@ 00413f2c     umodsys_lib_basesys:umodsys.basesys.rsystem_main.obj
 0002:00002f40       ??_R3EWarning@core@UModSys@@8 00413f40     umodsys_lib_basesys:umodsys.basesys.rsystem_main.obj
 0002:00002f50       ??_R2EWarning@core@UModSys@@8 00413f50     umodsys_lib_basesys:umodsys.basesys.rsystem_main.obj
 0002:00002f5c       ??_R1A@?0A@EA@EWarning@core@UModSys@@8 00413f5c     umodsys_lib_basesys:umodsys.basesys.rsystem_main.obj
 0002:00002f78       ??_R4EFatal@core@UModSys@@6B@ 00413f78     umodsys_lib_basesys:umodsys.basesys.rsystem_main.obj
 0002:00002f8c       ??_R3EFatal@core@UModSys@@8 00413f8c     umodsys_lib_basesys:umodsys.basesys.rsystem_main.obj
 0002:00002f9c       ??_R2EFatal@core@UModSys@@8 00413f9c     umodsys_lib_basesys:umodsys.basesys.rsystem_main.obj
 0002:00002fa8       ??_R1A@?0A@EA@EFatal@core@UModSys@@8 00413fa8     umodsys_lib_basesys:umodsys.basesys.rsystem_main.obj
 0002:00002fc4       ??_R4EExceptionBase@core@UModSys@@6B@ 00413fc4     umodsys_lib_basesys:umodsys.basesys.rsystem_main.obj
 0002:00002fd8       ??_R3EExceptionBase@core@UModSys@@8 00413fd8     umodsys_lib_basesys:umodsys.basesys.rsystem_main.obj
 0002:00002fe8       ??_R2EExceptionBase@core@UModSys@@8 00413fe8     umodsys_lib_basesys:umodsys.basesys.rsystem_main.obj
 0002:00002ff0       ??_R1A@?0A@EA@EExceptionBase@core@UModSys@@8 00413ff0     umodsys_lib_basesys:umodsys.basesys.rsystem_main.obj
 0002:0000300c       ??_R4RModuleLoader@rsystem@base@UModSys@@6B@ 0041400c     umodsys_lib_basesys:umodsys.basesys.rmoduleloader.obj
 0002:00003020       ??_R3RModuleLoader@rsystem@base@UModSys@@8 00414020     umodsys_lib_basesys:umodsys.basesys.rmoduleloader.obj
 0002:00003030       ??_R2RModuleLoader@rsystem@base@UModSys@@8 00414030     umodsys_lib_basesys:umodsys.basesys.rmoduleloader.obj
 0002:0000303c       ??_R1A@?0A@EA@RModuleLoader@rsystem@base@UModSys@@8 0041403c     umodsys_lib_basesys:umodsys.basesys.rmoduleloader.obj
 0002:00003058       ??_R4IModuleLoader@base@UModSys@@6B@ 00414058     umodsys_lib_basesys:umodsys.basesys.rmoduleloader.obj
 0002:0000306c       ??_R3IModuleLoader@base@UModSys@@8 0041406c     umodsys_lib_basesys:umodsys.basesys.rmoduleloader.obj
 0002:0000307c       ??_R2IModuleLoader@base@UModSys@@8 0041407c     umodsys_lib_basesys:umodsys.basesys.rmoduleloader.obj
 0002:00003084       ??_R1A@?0A@EA@IModuleLoader@base@UModSys@@8 00414084     umodsys_lib_basesys:umodsys.basesys.rmoduleloader.obj
 0002:000030a0       ??_R4RModuleLibraryThis@rsystem@base@UModSys@@6B@ 004140a0     umodsys_lib_basesys:umodsys.basesys.rmodulelibthis.obj
 0002:000030b4       ??_R3RModuleLibraryThis@rsystem@base@UModSys@@8 004140b4     umodsys_lib_basesys:umodsys.basesys.rmodulelibthis.obj
 0002:000030c4       ??_R2RModuleLibraryThis@rsystem@base@UModSys@@8 004140c4     umodsys_lib_basesys:umodsys.basesys.rmodulelibthis.obj
 0002:000030dc       ??_R1A@?0A@EA@IModuleLibraryUni@rsystem@base@UModSys@@8 004140dc     umodsys_lib_basesys:umodsys.basesys.rmodulelibthis.obj
 0002:000030f8       ??_R3IModuleLibraryUni@rsystem@base@UModSys@@8 004140f8     umodsys_lib_basesys:umodsys.basesys.rmodulelibthis.obj
 0002:00003108       ??_R2IModuleLibraryUni@rsystem@base@UModSys@@8 00414108     umodsys_lib_basesys:umodsys.basesys.rmodulelibthis.obj
 0002:0000311c       ??_R1A@?0A@EA@IModuleLibrary@base@UModSys@@8 0041411c     umodsys_lib_basesys:umodsys.basesys.rmodulelibthis.obj
 0002:00003138       ??_R3IModuleLibrary@base@UModSys@@8 00414138     umodsys_lib_basesys:umodsys.basesys.rmodulelibthis.obj
 0002:00003148       ??_R2IModuleLibrary@base@UModSys@@8 00414148     umodsys_lib_basesys:umodsys.basesys.rmodulelibthis.obj
 0002:00003158       ??_R1A@?0A@EA@RModuleLibraryThis@rsystem@base@UModSys@@8 00414158     umodsys_lib_basesys:umodsys.basesys.rmodulelibthis.obj
 0002:00003174       ??_R4IModuleLibraryUni@rsystem@base@UModSys@@6B@ 00414174     umodsys_lib_basesys:umodsys.basesys.rmodulelib.obj
 0002:00003188       ??_R4IModuleLibrary@base@UModSys@@6B@ 00414188     umodsys_lib_basesys:umodsys.basesys.rmodulelib.obj
 0002:0000319c       ??_R4RParameters@rsystem@base@UModSys@@6B@ 0041419c     umodsys_lib_basesys:umodsys.basesys.rparameters.obj
 0002:000031b0       ??_R3RParameters@rsystem@base@UModSys@@8 004141b0     umodsys_lib_basesys:umodsys.basesys.rparameters.obj
 0002:000031c0       ??_R2RParameters@rsystem@base@UModSys@@8 004141c0     umodsys_lib_basesys:umodsys.basesys.rparameters.obj
 0002:000031d4       ??_R1A@?0A@EA@RParameters@rsystem@base@UModSys@@8 004141d4     umodsys_lib_basesys:umodsys.basesys.rparameters.obj
 0002:000031f0       ??_R3IParameters@core@UModSys@@8 004141f0     umodsys_lib_basesys:umodsys.basesys.rparameters.obj
 0002:00003200       ??_R2IParameters@core@UModSys@@8 00414200     umodsys_lib_basesys:umodsys.basesys.rparameters.obj
 0002:00003210       ??_R1A@?0A@EA@IParameters@core@UModSys@@8 00414210     umodsys_lib_basesys:umodsys.basesys.rparameters.obj
 0002:0000322c       ??_R4RModule@rsystem@base@UModSys@@6B@ 0041422c     umodsys_lib_basesys:umodsys.basesys.rmodule.obj
 0002:00003240       ??_R3RModule@rsystem@base@UModSys@@8 00414240     umodsys_lib_basesys:umodsys.basesys.rmodule.obj
 0002:00003250       ??_R2RModule@rsystem@base@UModSys@@8 00414250     umodsys_lib_basesys:umodsys.basesys.rmodule.obj
 0002:00003264       ??_R1A@?0A@EA@RModule@rsystem@base@UModSys@@8 00414264     umodsys_lib_basesys:umodsys.basesys.rmodule.obj
 0002:00003280       ??_R4IModule@base@UModSys@@6B@ 00414280     umodsys_lib_basesys:umodsys.basesys.rmodule.obj
 0002:00003294       ??_R3IModule@base@UModSys@@8 00414294     umodsys_lib_basesys:umodsys.basesys.rmodule.obj
 0002:000032a4       ??_R2IModule@base@UModSys@@8 004142a4     umodsys_lib_basesys:umodsys.basesys.rmodule.obj
 0002:000032b4       ??_R1A@?0A@EA@IModule@base@UModSys@@8 004142b4     umodsys_lib_basesys:umodsys.basesys.rmodule.obj
 0002:000032d0       ??_R4RModuleLibrarySO@rsystem@base@UModSys@@6B@ 004142d0     umodsys_lib_basesys:umodsys.basesys.rmodulelibso.obj
 0002:000032e4       ??_R3RModuleLibrarySO@rsystem@base@UModSys@@8 004142e4     umodsys_lib_basesys:umodsys.basesys.rmodulelibso.obj
 0002:000032f4       ??_R2RModuleLibrarySO@rsystem@base@UModSys@@8 004142f4     umodsys_lib_basesys:umodsys.basesys.rmodulelibso.obj
 0002:0000330c       ??_R1A@?0A@EA@RModuleLibrarySO@rsystem@base@UModSys@@8 0041430c     umodsys_lib_basesys:umodsys.basesys.rmodulelibso.obj
 0002:00003328       ??_R4RModuleLibraryReg_Chain@base@UModSys@@6B@ 00414328     umodsys_lib_base:umodsys.base.moduleregchain.obj
 0002:0000333c       ??_R3RModuleLibraryReg_Chain@base@UModSys@@8 0041433c     umodsys_lib_base:umodsys.base.moduleregchain.obj
 0002:0000334c       ??_R2RModuleLibraryReg_Chain@base@UModSys@@8 0041434c     umodsys_lib_base:umodsys.base.moduleregchain.obj
 0002:00003358       ??_R1A@?0A@EA@IModuleLibraryReg@base@UModSys@@8 00414358     umodsys_lib_base:umodsys.base.moduleregchain.obj
 0002:00003374       ??_R3IModuleLibraryReg@base@UModSys@@8 00414374     umodsys_lib_base:umodsys.base.moduleregchain.obj
 0002:00003384       ??_R2IModuleLibraryReg@base@UModSys@@8 00414384     umodsys_lib_base:umodsys.base.moduleregchain.obj
 0002:0000338c       ??_R1A@?0A@EA@RModuleLibraryReg_Chain@base@UModSys@@8 0041438c     umodsys_lib_base:umodsys.base.moduleregchain.obj
 0002:000033a8       ??_R4IModuleLibraryReg@base@UModSys@@6B@ 004143a8     umodsys_lib_base:umodsys.base.modulereg.obj
 0002:000033bc       ??_R4IModuleReg@base@UModSys@@6B@ 004143bc     umodsys_lib_base:umodsys.base.modulereg.obj
 0002:000033d0       ___safe_se_handler_table   004143d0     <linker-defined>
 0002:0000346c       ___rtc_iaa                 0041446c     MSVCRT:_initsect_.obj
 0002:00003470       ___rtc_izz                 00414470     MSVCRT:_initsect_.obj
 0002:00003474       ___rtc_taa                 00414474     MSVCRT:_initsect_.obj
 0002:00003478       ___rtc_tzz                 00414478     MSVCRT:_initsect_.obj
 0002:0000351c       __CT??_R0?AUEFatal@core@UModSys@@@8??0EFatal@core@UModSys@@QAE@ABU012@@Z24 0041451c     umodsys_lib_basesys:umodsys.basesys.rsystem_main.obj
 0002:00003538       __CT??_R0?AUEExceptionBase@core@UModSys@@@8??0EExceptionBase@core@UModSys@@QAE@ABU012@@Z24 00414538     umodsys_lib_basesys:umodsys.basesys.rsystem_main.obj
 0002:00003554       __CTA2?AUEFatal@core@UModSys@@ 00414554     umodsys_lib_basesys:umodsys.basesys.rsystem_main.obj
 0002:00003560       __TI2?AUEFatal@core@UModSys@@ 00414560     umodsys_lib_basesys:umodsys.basesys.rsystem_main.obj
 0002:00003570       __CT??_R0?AUEWarning@core@UModSys@@@8??0EWarning@core@UModSys@@QAE@ABU012@@Z24 00414570     umodsys_lib_basesys:umodsys.basesys.rsystem_main.obj
 0002:0000358c       __CTA2?AUEWarning@core@UModSys@@ 0041458c     umodsys_lib_basesys:umodsys.basesys.rsystem_main.obj
 0002:00003598       __TI2?AUEWarning@core@UModSys@@ 00414598     umodsys_lib_basesys:umodsys.basesys.rsystem_main.obj
 0002:00003d10       __IMPORT_DESCRIPTOR_MSVCR90 00414d10     MSVCRT:MSVCR90.dll
 0002:00003d24       __IMPORT_DESCRIPTOR_lib_libpng 00414d24     lib_libpng:lib_libpng.dll
 0002:00003d38       __IMPORT_DESCRIPTOR_lib_jpeglib 00414d38     lib_jpeglib:lib_jpeglib.dll
 0002:00003d4c       __IMPORT_DESCRIPTOR_KERNEL32 00414d4c     kernel32:KERNEL32.dll
 0002:00003d60       __NULL_IMPORT_DESCRIPTOR   00414d60     MSVCRT:MSVCR90.dll
 0003:00000000       ??_R0?AVtype_info@@@8      00416000     MSVCRT:ti_inst.obj
 0003:00000018       ___native_dllmain_reason   00416018     MSVCRT:natstart.obj
 0003:0000001c       ___native_vcclrit_reason   0041601c     MSVCRT:natstart.obj
 0003:00000020       ___globallocalestatus      00416020     MSVCRT:xthdloc.obj
 0003:00000024       ___defaultmatherr          00416024     MSVCRT:merr.obj
 0003:00000028       ___security_cookie         00416028     MSVCRT:gs_cookie.obj
 0003:0000002c       ___security_cookie_complement 0041602c     MSVCRT:gs_cookie.obj
 0003:00000070       ?so_entry_enabled_flag@base@UModSys@@3HA 00416070     umodsys_lib_base:umodsys.so_main.win32.obj
 0003:000000bc       ?auto_flags@RLibraryLayered@std@media@modules@UModSys@@2U?$TFlags4State@USMediaFlagUid@libmedia@UModSys@@I@tl@5@A 004160bc     umodsys_lib_libmedia:umodsys.mod.media.std.obj
 0003:000000d0       ?auto_flags@RDataArchiver_OsDir@stdio@media@modules@UModSys@@2U?$TFlags4State@USMediaFlagUid@libmedia@UModSys@@I@tl@5@A 004160d0     umodsys_lib_libmedia:umodsys.mod.media.stdio.obj
 0003:000000d4       ??_R0?AUIModuleReg@base@UModSys@@@8 004160d4     umodsys_lib_libmedia:umodsys.mod.media.std.obj
 0003:000000fc       ??_R0?AURModuleReg@std@media@modules@UModSys@@@8 004160fc     umodsys_lib_libmedia:umodsys.mod.media.std.obj
 0003:00000130       ??_R0?AURLibraryObjFilter@std@media@modules@UModSys@@@8 00416130     umodsys_lib_libmedia:umodsys.mod.media.std.obj
 0003:0000016c       ??_R0?AURLibraryObjCache@std@media@modules@UModSys@@@8 0041616c     umodsys_lib_libmedia:umodsys.mod.media.std.obj
 0003:000001a8       ??_R0?AURLibraryLayered@std@media@modules@UModSys@@@8 004161a8     umodsys_lib_libmedia:umodsys.mod.media.std.obj
 0003:000001e0       ??_R0?AURLibraryBinTree@std@media@modules@UModSys@@@8 004161e0     umodsys_lib_libmedia:umodsys.mod.media.std.obj
 0003:00000218       ??_R0?AURLibraryBinCache@std@media@modules@UModSys@@@8 00416218     umodsys_lib_libmedia:umodsys.mod.media.std.obj
 0003:00000254       ??_R0?AURGenerator@std@media@modules@UModSys@@@8 00416254     umodsys_lib_libmedia:umodsys.mod.media.std.obj
 0003:00000288       ??_R0?AURResolverChain@SFlagsChain@libmedia@UModSys@@@8 00416288     umodsys_lib_libmedia:umodsys.mod.media.std.obj
 0003:000002c4       ??_R0?AUILibraryLayered@libmedia@UModSys@@@8 004162c4     umodsys_lib_libmedia:umodsys.mod.media.std.obj
 0003:000002f4       ??_R0?AUILibraryObjCache@libmedia@UModSys@@@8 004162f4     umodsys_lib_libmedia:umodsys.mod.media.std.obj
 0003:00000324       ??_R0?AUILibraryObjFilter@libmedia@UModSys@@@8 00416324     umodsys_lib_libmedia:umodsys.mod.media.std.obj
 0003:00000358       ??_R0?AUILibraryBinCache@libmedia@UModSys@@@8 00416358     umodsys_lib_libmedia:umodsys.mod.media.std.obj
 0003:00000388       ??_R0?AUILibraryBinTree@libmedia@UModSys@@@8 00416388     umodsys_lib_libmedia:umodsys.mod.media.std.obj
 0003:000003b8       ??_R0?AUIResolver@SFlags@libmedia@UModSys@@@8 004163b8     umodsys_lib_libmedia:umodsys.mod.media.std.obj
 0003:000003e8       ??_R0?AUIResolverAuto@SFlags@libmedia@UModSys@@@8 004163e8     umodsys_lib_libmedia:umodsys.mod.media.std.obj
 0003:0000041c       ??_R0?AUISetter@SFlags@libmedia@UModSys@@@8 0041641c     umodsys_lib_libmedia:umodsys.mod.media.std.obj
 0003:0000044c       ??_R0?AUILibrary@libmedia@UModSys@@@8 0041644c     umodsys_lib_libmedia:umodsys.mod.media.std.obj
 0003:00000474       ??_R0?AUIGenerator@base@UModSys@@@8 00416474     umodsys_lib_libmedia:umodsys.mod.media.std.obj
 0003:0000049c       ??_R0?AUIModObject@base@UModSys@@@8 0041649c     umodsys_lib_libmedia:umodsys.mod.media.std.obj
 0003:000004c4       ??_R0?AUIRefObject@core@UModSys@@@8 004164c4     umodsys_lib_libmedia:umodsys.mod.media.std.obj
 0003:000004ec       ??_R0?AUIRoot@core@UModSys@@@8 004164ec     umodsys_lib_libmedia:umodsys.mod.media.std.obj
 0003:00000510       ?s_null@?1??get_null@?$TSCoreShared@USIMemAlloc@core@UModSys@@D@su@tl@UModSys@@SAPAU?$TSharedStringInfo@D@345@XZ@4U6345@A 00416510     umodsys_lib_libmedia:umodsys.mod.media.std.obj
 0003:00000520       ??_R0?AURModuleReg@images_std@media@modules@UModSys@@@8 00416520     umodsys_lib_libmedia:umodsys.mod.media.images_std.obj
 0003:0000055c       ??_R0?AURMediaFilter@images_std@media@modules@UModSys@@@8 0041655c     umodsys_lib_libmedia:umodsys.mod.media.images_std.obj
 0003:00000598       ??_R0?AURGenerator@images_std@media@modules@UModSys@@@8 00416598     umodsys_lib_libmedia:umodsys.mod.media.images_std.obj
 0003:000005d4       ??_R0?AUIBinObjFilter@libmedia@UModSys@@@8 004165d4     umodsys_lib_libmedia:umodsys.mod.media.images_std.obj
 0003:00000604       ??_R0?AURModuleReg@stdio@media@modules@UModSys@@@8 00416604     umodsys_lib_libmedia:umodsys.mod.media.stdio.obj
 0003:0000063c       ??_R0?AURDataArchiver_OsDir@stdio@media@modules@UModSys@@@8 0041663c     umodsys_lib_libmedia:umodsys.mod.media.stdio.obj
 0003:0000067c       ??_R0?AURStreamWriter_FILE@stdio@media@modules@UModSys@@@8 0041667c     umodsys_lib_libmedia:umodsys.mod.media.stdio.obj
 0003:000006bc       ??_R0?AURStreamReader_FILE@stdio@media@modules@UModSys@@@8 004166bc     umodsys_lib_libmedia:umodsys.mod.media.stdio.obj
 0003:000006fc       ??_R0?AURGenerator@stdio@media@modules@UModSys@@@8 004166fc     umodsys_lib_libmedia:umodsys.mod.media.stdio.obj
 0003:00000734       ??_R0?AUIBinArchive@libmedia@UModSys@@@8 00416734     umodsys_lib_libmedia:umodsys.mod.media.stdio.obj
 0003:00000760       ??_R0?AUIStreamWriter@libmedia@UModSys@@@8 00416760     umodsys_lib_libmedia:umodsys.mod.media.stdio.obj
 0003:00000790       ??_R0?AUIStreamReader@libmedia@UModSys@@@8 00416790     umodsys_lib_libmedia:umodsys.mod.media.stdio.obj
 0003:000007c0       ??_R0?AURConsole_std@rsystem@base@UModSys@@@8 004167c0     umodsys_lib_basesys:umodsys.basesys.rconsole_std.obj
 0003:000007f0       ??_R0?AUIConsole@base@UModSys@@@8 004167f0     umodsys_lib_basesys:umodsys.basesys.rconsole_std.obj
 0003:00000814       ??_R0?AURSystem@rsystem@base@UModSys@@@8 00416814     umodsys_lib_basesys:umodsys.basesys.rsystem_main.obj
 0003:00000840       ??_R0?AUSMemAlloc_Malloc@core@UModSys@@@8 00416840     umodsys_lib_basesys:umodsys.basesys.rsystem_main.obj
 0003:00000870       ??_R0?AU?$TRMemAlloc_CC@U?$TMemAllocHeader@USMagic@mem_headers@rsystem@base@UModSys@@U?$TPool@X@2345@USDebug@2345@UVoid@core@5@U895@@rsystem@base@UModSys@@USMemAlloc_Malloc@core@4@@rsystem@base@UModSys@@@8 00416870     umodsys_lib_basesys:umodsys.basesys.rsystem_main.obj
 0003:00000940       ??_R0?AUIUniquePointerResolver@core@UModSys@@@8 00416940     umodsys_lib_basesys:umodsys.basesys.rsystem_main.obj
 0003:00000974       ??_R0?AUISourceContextAdapter@core@UModSys@@@8 00416974     umodsys_lib_basesys:umodsys.basesys.rsystem_main.obj
 0003:000009a8       ??_R0?AUISystem@base@UModSys@@@8 004169a8     umodsys_lib_basesys:umodsys.basesys.rsystem_main.obj
 0003:000009cc       ??_R0?AUIMemAlloc@core@UModSys@@@8 004169cc     umodsys_lib_basesys:umodsys.basesys.rsystem_main.obj
 0003:000009f4       ??_R0?AUEFatal@core@UModSys@@@8 004169f4     umodsys_lib_basesys:umodsys.basesys.rsystem_main.obj
 0003:00000a18       ??_R0?AUEExceptionBase@core@UModSys@@@8 00416a18     umodsys_lib_basesys:umodsys.basesys.rsystem_main.obj
 0003:00000a44       ??_R0?AUEWarning@core@UModSys@@@8 00416a44     umodsys_lib_basesys:umodsys.basesys.rsystem_main.obj
 0003:00000a68       ??_R0?AURModuleLoader@rsystem@base@UModSys@@@8 00416a68     umodsys_lib_basesys:umodsys.basesys.rmoduleloader.obj
 0003:00000a9c       ??_R0?AUIModuleLoader@base@UModSys@@@8 00416a9c     umodsys_lib_basesys:umodsys.basesys.rmoduleloader.obj
 0003:00000ac8       ??_R0?AUIModuleLibrary@base@UModSys@@@8 00416ac8     umodsys_lib_basesys:umodsys.basesys.rmodulelibthis.obj
 0003:00000af4       ??_R0?AUIModuleLibraryUni@rsystem@base@UModSys@@@8 00416af4     umodsys_lib_basesys:umodsys.basesys.rmodulelibthis.obj
 0003:00000b2c       ??_R0?AURModuleLibraryThis@rsystem@base@UModSys@@@8 00416b2c     umodsys_lib_basesys:umodsys.basesys.rmodulelibthis.obj
 0003:00000b64       ?s_null@?1??get_null@?$TSCoreShared@USMemAlloc_Malloc@core@UModSys@@D@su@tl@UModSys@@SAPAU?$TSharedStringInfo@D@345@XZ@4U6345@A 00416b64     umodsys_lib_basesys:umodsys.basesys.rmodulelib.obj
 0003:00000b74       ??_R0?AURParameters@rsystem@base@UModSys@@@8 00416b74     umodsys_lib_basesys:umodsys.basesys.rparameters.obj
 0003:00000ba4       ??_R0?AUIParameters@core@UModSys@@@8 00416ba4     umodsys_lib_basesys:umodsys.basesys.rparameters.obj
 0003:00000bcc       ??_R0?AURModule@rsystem@base@UModSys@@@8 00416bcc     umodsys_lib_basesys:umodsys.basesys.rmodule.obj
 0003:00000bf8       ??_R0?AUIModule@base@UModSys@@@8 00416bf8     umodsys_lib_basesys:umodsys.basesys.rmodule.obj
 0003:00000c1c       ??_R0?AURModuleLibrarySO@rsystem@base@UModSys@@@8 00416c1c     umodsys_lib_basesys:umodsys.basesys.rmodulelibso.obj
 0003:00000c50       ??_R0?AUIModuleLibraryReg@base@UModSys@@@8 00416c50     umodsys_lib_base:umodsys.base.moduleregchain.obj
 0003:00000c80       ??_R0?AURModuleLibraryReg_Chain@base@UModSys@@@8 00416c80     umodsys_lib_base:umodsys.base.moduleregchain.obj
 0003:00000ce0       __forceCRTManifestRTM      00416ce0     MSVCRT:crtmanifestrtm.obj
 0003:00000ce4       __dowildcard               00416ce4     MSVCRT:wildcard.obj
 0003:00000ce8       __newmode                  00416ce8     MSVCRT:_newmode.obj
 0003:00000cec       __commode                  00416cec     MSVCRT:xncommod.obj
 0003:00000cf0       __fmode                    00416cf0     MSVCRT:xtxtmode.obj
 0003:00001020       ?fmodule@std@media@modules@UModSys@@3DA 00417020     umodsys_lib_libmedia:umodsys.mod.media.std.obj
 0003:00001021       ?fmodule@images_std@media@modules@UModSys@@3DA 00417021     umodsys_lib_libmedia:umodsys.mod.media.images_std.obj
 0003:00001022       ?fmodule@stdio@media@modules@UModSys@@3DA 00417022     umodsys_lib_libmedia:umodsys.mod.media.stdio.obj
 0003:00001028       ?s_uid@RGenerator@std@media@modules@UModSys@@2USUniquePointer@core@5@A 00417028     umodsys_lib_libmedia:umodsys.mod.media.std.obj
 0003:00001040       ?auto_flags@RLibraryObjCache@std@media@modules@UModSys@@2U?$TFlags4State@USMediaFlagUid@libmedia@UModSys@@I@tl@5@A 00417040     umodsys_lib_libmedia:umodsys.mod.media.std.obj
 0003:00001044       ?auto_flags@RLibraryBinCache@std@media@modules@UModSys@@2U?$TFlags4State@USMediaFlagUid@libmedia@UModSys@@I@tl@5@A 00417044     umodsys_lib_libmedia:umodsys.mod.media.std.obj
 0003:00001048       ?s_modreg_chain@RModuleReg@std@media@modules@UModSys@@2USModuleRegChain@base@5@A 00417048     umodsys_lib_libmedia:umodsys.mod.media.std.obj
 0003:00001054       ?s_modreg@RModuleReg@std@media@modules@UModSys@@2U12345@A 00417054     umodsys_lib_libmedia:umodsys.mod.media.std.obj
 0003:0000107c       ?auto_flags@RLibraryObjFilter@std@media@modules@UModSys@@2U?$TFlags4State@USMediaFlagUid@libmedia@UModSys@@I@tl@5@A 0041707c     umodsys_lib_libmedia:umodsys.mod.media.std.obj
 0003:00001080       ?auto_flags@RLibraryBinTree@std@media@modules@UModSys@@2U?$TFlags4State@USMediaFlagUid@libmedia@UModSys@@I@tl@5@A 00417080     umodsys_lib_libmedia:umodsys.mod.media.std.obj
 0003:00001084       ?s_uid@RGenerator@images_std@media@modules@UModSys@@2USUniquePointer@core@5@A 00417084     umodsys_lib_libmedia:umodsys.mod.media.images_std.obj
 0003:0000109c       ?auto_flags@RMediaFilter@images_std@media@modules@UModSys@@1U?$TFlags4State@USMediaFlagUid@libmedia@UModSys@@I@tl@5@A 0041709c     umodsys_lib_libmedia:umodsys.mod.media.images_std.obj
 0003:000010a0       ?s_modreg_chain@RModuleReg@images_std@media@modules@UModSys@@2USModuleRegChain@base@5@A 004170a0     umodsys_lib_libmedia:umodsys.mod.media.images_std.obj
 0003:000010ac       ?s_modreg@RModuleReg@images_std@media@modules@UModSys@@2U12345@A 004170ac     umodsys_lib_libmedia:umodsys.mod.media.images_std.obj
 0003:000010d4       ?s_modreg_chain@RModuleReg@stdio@media@modules@UModSys@@2USModuleRegChain@base@5@A 004170d4     umodsys_lib_libmedia:umodsys.mod.media.stdio.obj
 0003:000010e0       ?s_modreg@RModuleReg@stdio@media@modules@UModSys@@2U12345@A 004170e0     umodsys_lib_libmedia:umodsys.mod.media.stdio.obj
 0003:00001108       ?s_uid@RGenerator@stdio@media@modules@UModSys@@2USUniquePointer@core@5@A 00417108     umodsys_lib_libmedia:umodsys.mod.media.stdio.obj
 0003:00001120       ?s_console@RConsole_std@rsystem@base@UModSys@@2U1234@A 00417120     umodsys_lib_basesys:umodsys.basesys.rconsole_std.obj
 0003:00001128       ?s_sys@RSystem@rsystem@base@UModSys@@2U1234@A 00417128     umodsys_lib_basesys:umodsys.basesys.rsystem_main.obj
 0003:00001200       ?rsys_dbg@rsystem@base@UModSys@@3USDebug@23@A 00417200     umodsys_lib_basesys:umodsys.basesys.rsystem_main.obj
 0003:0000320c       ?M@UModSys@@3USModuleContext@base@1@A 0041920c     umodsys_lib_base:umodsys.base.modulecontext.obj
 0003:00003220       ?s_library@RModuleLibraryReg_Chain@base@UModSys@@2U123@A 00419220     umodsys_lib_base:umodsys.base.moduleregchain.obj
 0003:00003224       ?root@SModuleRegChain@base@UModSys@@2U123@A 00419224     umodsys_lib_base:umodsys.base.moduleregchain.obj
 0003:00003230       ?root@SUniquePointer@core@UModSys@@2U123@A 00419230     umodsys_lib_core:umodsys.core.uniqueptr.obj
 0003:00003248       ?rv@?1??get_default@SMemAlloc_Malloc@core@UModSys@@SAABU234@XZ@4U234@A 00419248     umodsys_lib_basesys:umodsys.basesys.rsystem_main.obj
 0003:000032ac       ?s_id@?$TObjectUniqueID@URConsole_std@rsystem@base@UModSys@@@tl@UModSys@@2USUniquePointer@core@3@A 004192ac     umodsys.c_main.obj
 0003:000032c4       ?s_id@?$TObjectUniqueID@URModuleLibrarySO@rsystem@base@UModSys@@@tl@UModSys@@2USUniquePointer@core@3@A 004192c4     umodsys.c_main.obj
 0003:000032dc       ?s_id@?$TObjectUniqueID@UIRefObject@core@UModSys@@@tl@UModSys@@2USUniquePointer@core@3@A 004192dc     umodsys.c_main.obj
 0003:000032f4       ?s_id@?$TObjectUniqueID@UIRoot@core@UModSys@@@tl@UModSys@@2USUniquePointer@core@3@A 004192f4     umodsys.c_main.obj
 0003:0000330c       ?s_id@?$TObjectUniqueID@URParameters@rsystem@base@UModSys@@@tl@UModSys@@2USUniquePointer@core@3@A 0041930c     umodsys.c_main.obj
 0003:00003324       ?s_id@?$TObjectUniqueID@UIModule@base@UModSys@@@tl@UModSys@@2USUniquePointer@core@3@A 00419324     umodsys.c_main.obj
 0003:0000333c       ?s_id@?$TObjectUniqueID@UIGenerator@base@UModSys@@@tl@UModSys@@2USUniquePointer@core@3@A 0041933c     umodsys.c_main.obj
 0003:00003354       ?s_id@?$TObjectUniqueID@URModuleLibraryThis@rsystem@base@UModSys@@@tl@UModSys@@2USUniquePointer@core@3@A 00419354     umodsys.c_main.obj
 0003:0000336c       ?s_id@?$TObjectUniqueID@UIModuleLibrary@base@UModSys@@@tl@UModSys@@2USUniquePointer@core@3@A 0041936c     umodsys.c_main.obj
 0003:00003384       ?s_null@?$TStaticStringPool@DU?$TComparerBinaryHash@D@su@tl@UModSys@@USMemAlloc_Malloc@core@4@@tl@UModSys@@2U?$TString@U?$TSCoreConst@D@su@tl@UModSys@@U?$TComparerBinaryHash@D@234@@23@A 00419384     umodsys.c_main.obj
 0003:00003390       ?s_id@?$TObjectUniqueID@UIParameters@core@UModSys@@@tl@UModSys@@2USUniquePointer@core@3@A 00419390     umodsys.c_main.obj
 0003:000033a8       ?s_id@?$TObjectUniqueID@UISystem@base@UModSys@@@tl@UModSys@@2USUniquePointer@core@3@A 004193a8     umodsys.c_main.obj
 0003:000033c0       ?s_id@?$TObjectUniqueID@URModule@rsystem@base@UModSys@@@tl@UModSys@@2USUniquePointer@core@3@A 004193c0     umodsys.c_main.obj
 0003:000033d8       ?s_id@?$TObjectUniqueID@UIModObject@base@UModSys@@@tl@UModSys@@2USUniquePointer@core@3@A 004193d8     umodsys.c_main.obj
 0003:000033f0       ?s_id@?$TObjectUniqueID@UIModuleLibraryUni@rsystem@base@UModSys@@@tl@UModSys@@2USUniquePointer@core@3@A 004193f0     umodsys.c_main.obj
 0003:00003408       ?s_id@?$TObjectUniqueID@URSystem@rsystem@base@UModSys@@@tl@UModSys@@2USUniquePointer@core@3@A 00419408     umodsys.c_main.obj
 0003:00003420       ?s_id@?$TObjectUniqueID@UIShell@base@UModSys@@@tl@UModSys@@2USUniquePointer@core@3@A 00419420     umodsys.c_main.obj
 0003:00003438       ?s_id@?$TObjectUniqueID@UIConsole@base@UModSys@@@tl@UModSys@@2USUniquePointer@core@3@A 00419438     umodsys.c_main.obj
 0003:00003450       ?s_id@?$TObjectUniqueID@URLibraryBinTree@std@media@modules@UModSys@@@tl@UModSys@@2USUniquePointer@core@3@A 00419450     umodsys_lib_libmedia:umodsys.mod.media.std.obj
 0003:00003468       ?s_id@?$TObjectUniqueID@URLibraryLayered@std@media@modules@UModSys@@@tl@UModSys@@2USUniquePointer@core@3@A 00419468     umodsys_lib_libmedia:umodsys.mod.media.std.obj
 0003:00003480       ?s_id@?$TObjectUniqueID@UILibraryLayered@libmedia@UModSys@@@tl@UModSys@@2USUniquePointer@core@3@A 00419480     umodsys_lib_libmedia:umodsys.mod.media.std.obj
 0003:00003498       ?s_id@?$TObjectUniqueID@UILibrary@libmedia@UModSys@@@tl@UModSys@@2USUniquePointer@core@3@A 00419498     umodsys_lib_libmedia:umodsys.mod.media.std.obj
 0003:000034b0       ?s_id@?$TObjectUniqueID@UIBinArchive@libmedia@UModSys@@@tl@UModSys@@2USUniquePointer@core@3@A 004194b0     umodsys_lib_libmedia:umodsys.mod.media.std.obj
 0003:000034c8       ?s_id@?$TObjectUniqueID@UILibraryObjCache@libmedia@UModSys@@@tl@UModSys@@2USUniquePointer@core@3@A 004194c8     umodsys_lib_libmedia:umodsys.mod.media.std.obj
 0003:000034e0       ?s_id@?$TObjectUniqueID@UIStreamWriter@libmedia@UModSys@@@tl@UModSys@@2USUniquePointer@core@3@A 004194e0     umodsys_lib_libmedia:umodsys.mod.media.std.obj
 0003:000034f8       ?s_id@?$TObjectUniqueID@URGenerator@std@media@modules@UModSys@@@tl@UModSys@@2USUniquePointer@core@3@A 004194f8     umodsys_lib_libmedia:umodsys.mod.media.std.obj
 0003:00003510       ?s_id@?$TObjectUniqueID@UIBinObjFilter@libmedia@UModSys@@@tl@UModSys@@2USUniquePointer@core@3@A 00419510     umodsys_lib_libmedia:umodsys.mod.media.std.obj
 0003:00003528       ?s_id@?$TObjectUniqueID@UILibraryBinCache@libmedia@UModSys@@@tl@UModSys@@2USUniquePointer@core@3@A 00419528     umodsys_lib_libmedia:umodsys.mod.media.std.obj
 0003:00003540       ?s_id@?$TObjectUniqueID@UILibraryBinTree@libmedia@UModSys@@@tl@UModSys@@2USUniquePointer@core@3@A 00419540     umodsys_lib_libmedia:umodsys.mod.media.std.obj
 0003:00003558       ?s_id@?$TObjectUniqueID@URLibraryObjCache@std@media@modules@UModSys@@@tl@UModSys@@2USUniquePointer@core@3@A 00419558     umodsys_lib_libmedia:umodsys.mod.media.std.obj
 0003:00003570       ?s_id@?$TObjectUniqueID@URLibraryBinCache@std@media@modules@UModSys@@@tl@UModSys@@2USUniquePointer@core@3@A 00419570     umodsys_lib_libmedia:umodsys.mod.media.std.obj
 0003:00003588       ?s_id@?$TObjectUniqueID@UILibraryObjFilter@libmedia@UModSys@@@tl@UModSys@@2USUniquePointer@core@3@A 00419588     umodsys_lib_libmedia:umodsys.mod.media.std.obj
 0003:000035a0       ?s_id@?$TObjectUniqueID@UIStreamReader@libmedia@UModSys@@@tl@UModSys@@2USUniquePointer@core@3@A 004195a0     umodsys_lib_libmedia:umodsys.mod.media.std.obj
 0003:000035b8       ?s_id@?$TObjectUniqueID@URLibraryObjFilter@std@media@modules@UModSys@@@tl@UModSys@@2USUniquePointer@core@3@A 004195b8     umodsys_lib_libmedia:umodsys.mod.media.std.obj
 0003:000035d0       ?s_id@?$TObjectUniqueID@UIImage@lib2d@UModSys@@@tl@UModSys@@2USUniquePointer@core@3@A 004195d0     umodsys_lib_libmedia:umodsys.mod.media.images_std.obj
 0003:000035e8       ?s_id@?$TObjectUniqueID@UIMultiImage@lib2d@UModSys@@@tl@UModSys@@2USUniquePointer@core@3@A 004195e8     umodsys_lib_libmedia:umodsys.mod.media.images_std.obj
 0003:00003600       ?s_id@?$TObjectUniqueID@URGenerator@images_std@media@modules@UModSys@@@tl@UModSys@@2USUniquePointer@core@3@A 00419600     umodsys_lib_libmedia:umodsys.mod.media.images_std.obj
 0003:00003618       ?s_id@?$TObjectUniqueID@URMediaFilter@images_std@media@modules@UModSys@@@tl@UModSys@@2USUniquePointer@core@3@A 00419618     umodsys_lib_libmedia:umodsys.mod.media.images_std.obj
 0003:00003630       ?s_id@?$TObjectUniqueID@URStreamWriter_FILE@stdio@media@modules@UModSys@@@tl@UModSys@@2USUniquePointer@core@3@A 00419630     umodsys_lib_libmedia:umodsys.mod.media.stdio.obj
 0003:00003648       ?s_id@?$TObjectUniqueID@URDataArchiver_OsDir@stdio@media@modules@UModSys@@@tl@UModSys@@2USUniquePointer@core@3@A 00419648     umodsys_lib_libmedia:umodsys.mod.media.stdio.obj
 0003:00003660       ?s_id@?$TObjectUniqueID@URGenerator@stdio@media@modules@UModSys@@@tl@UModSys@@2USUniquePointer@core@3@A 00419660     umodsys_lib_libmedia:umodsys.mod.media.stdio.obj
 0003:00003678       ?s_id@?$TObjectUniqueID@URStreamReader_FILE@stdio@media@modules@UModSys@@@tl@UModSys@@2USUniquePointer@core@3@A 00419678     umodsys_lib_libmedia:umodsys.mod.media.stdio.obj
 0003:00003690       __adjust_fdiv              00419690     <common>
 0003:00003694       ___native_startup_state    00419694     <common>
 0003:00003698       ___native_startup_lock     00419698     <common>
 0003:0000369c       ___dyn_tls_init_callback   0041969c     <common>
 0003:000036a0       ___onexitend               004196a0     <common>
 0003:000036a4       ___onexitbegin             004196a4     <common>

 entry point at        0001:00008f39

 Static symbols

 0001:00008c97       _pre_cpp_init              00409c97 f   MSVCRT:crtexe.obj
 0001:00008ce2       ___tmainCRTStartup         00409ce2 f   MSVCRT:crtexe.obj
 0001:00008e58       _pre_c_init                00409e58 f   MSVCRT:crtexe.obj
 0001:0000ae30       ?s_pwd_init@@YAXXZ         0040be30 f    CIL library: CIL module
 0001:0000b010       ?s_pfd_scan@@YAIPAUISystem@base@UModSys@@AAU?$TDynarrayDynamic@U?$TRefObject@URModuleLibrarySO@rsystem@base@UModSys@@U?$TRefObjectFunc@URModuleLibrarySO@rsystem@base@UModSys@@@tl@4@@tl@UModSys@@U?$TAllocator@USMemAlloc_Malloc@core@UModSys@@USCountCalcPower2@23@@23@@tl@3@PBD22@Z 0040c010 f    CIL library: CIL module
 0001:0000b230       ?s_pfd_scan@@YAIPAUISystem@base@UModSys@@AAU?$TDynarrayDynamic@U?$TRefObject@URModuleLibrarySO@rsystem@base@UModSys@@U?$TRefObjectFunc@URModuleLibrarySO@rsystem@base@UModSys@@@tl@4@@tl@UModSys@@U?$TAllocator@USMemAlloc_Malloc@core@UModSys@@USCountCalcPower2@23@@23@@tl@3@PBD2@Z 0040c230 f    CIL library: CIL module
 0001:0000d5b0       ?term_source@images_std@media@modules@UModSys@@YAXPAUjpeg_decompress_struct@@@Z 0040e5b0 f    CIL library: CIL module
 0001:0000d5c0       ?skip_input_data@images_std@media@modules@UModSys@@YAXPAUjpeg_decompress_struct@@J@Z 0040e5c0 f    CIL library: CIL module
 0001:0000d5e0       ?fill_input_buffer@images_std@media@modules@UModSys@@YAEPAUjpeg_decompress_struct@@@Z 0040e5e0 f    CIL library: CIL module
 0001:0000d5f0       ?init_source@images_std@media@modules@UModSys@@YAXPAUjpeg_decompress_struct@@@Z 0040e5f0 f    CIL library: CIL module
 0001:0000d600       ?error_exit@images_std@media@modules@UModSys@@YAXPAUjpeg_common_struct@@@Z 0040e600 f    CIL library: CIL module
 0001:0000e170       ?refer@@YAXXZ              0040f170 f    CIL library: CIL module
 0001:0000e700       __unwindfunclet$??1?$TQuantArrayUnique@USUniquePointerInfo@core@UModSys@@$0BAA@USMemAlloc_Malloc@23@@tl@UModSys@@QAE@XZ$0 0040f700 f    CIL library: CIL module
 0001:0000e700       __unwindfunclet$??1?$TQuantArrayUnique@USSourceContext@core@UModSys@@$0BAA@USMemAlloc_Malloc@23@@tl@UModSys@@QAE@XZ$0 0040f700 f    CIL library: CIL module
 0001:0000e708       __ehhandler$??1?$TQuantArrayUnique@USUniquePointerInfo@core@UModSys@@$0BAA@USMemAlloc_Malloc@23@@tl@UModSys@@QAE@XZ 0040f708 f    CIL library: CIL module
 0001:0000e708       __ehhandler$??1?$TQuantArrayUnique@USSourceContext@core@UModSys@@$0BAA@USMemAlloc_Malloc@23@@tl@UModSys@@QAE@XZ 0040f708 f    CIL library: CIL module
 0001:0000e720       __unwindfunclet$?obj_delete@?$TRefObjectLinksModObject@URStreamReader_FILE@stdio@media@modules@UModSys@@UIModObject@base@5@@tl@UModSys@@QBEXPAURStreamReader_FILE@stdio@media@modules@3@@Z$0 0040f720 f    CIL library: CIL module
 0001:0000e720       __unwindfunclet$?obj_delete@?$TRefObjectLinksModObject@URLibraryBinTree@std@media@modules@UModSys@@UIModObject@base@5@@tl@UModSys@@QBEXPAURLibraryBinTree@std@media@modules@3@@Z$0 0040f720 f    CIL library: CIL module
 0001:0000e720       __unwindfunclet$?obj_delete@?$TRefObjectLinksModObject@URLibraryLayered@std@media@modules@UModSys@@UIModObject@base@5@@tl@UModSys@@QBEXPAURLibraryLayered@std@media@modules@3@@Z$0 0040f720 f    CIL library: CIL module
 0001:0000e720       __unwindfunclet$?obj_delete@?$TRefObjectLinksModObject@URStreamWriter_FILE@stdio@media@modules@UModSys@@UIModObject@base@5@@tl@UModSys@@QBEXPAURStreamWriter_FILE@stdio@media@modules@3@@Z$0 0040f720 f    CIL library: CIL module
 0001:0000e720       __unwindfunclet$?obj_delete@?$TRefObjectLinksModObject@URLibraryObjCache@std@media@modules@UModSys@@UIModObject@base@5@@tl@UModSys@@QBEXPAURLibraryObjCache@std@media@modules@3@@Z$0 0040f720 f    CIL library: CIL module
 0001:0000e720       __unwindfunclet$?obj_delete@?$TRefObjectLinksModObject@URDataArchiver_OsDir@stdio@media@modules@UModSys@@UIModObject@base@5@@tl@UModSys@@QBEXPAURDataArchiver_OsDir@stdio@media@modules@3@@Z$0 0040f720 f    CIL library: CIL module
 0001:0000e720       __unwindfunclet$?obj_delete@?$TRefObjectLinksModObject@URLibraryObjFilter@std@media@modules@UModSys@@UIModObject@base@5@@tl@UModSys@@QBEXPAURLibraryObjFilter@std@media@modules@3@@Z$0 0040f720 f    CIL library: CIL module
 0001:0000e720       __unwindfunclet$?obj_delete@?$TRefObjectLinksModObject@URLibraryBinCache@std@media@modules@UModSys@@UIModObject@base@5@@tl@UModSys@@QBEXPAURLibraryBinCache@std@media@modules@3@@Z$0 0040f720 f    CIL library: CIL module
 0001:0000e720       __unwindfunclet$?obj_delete@?$TRefObjectLinksModObject@URMediaFilter@images_std@media@modules@UModSys@@UIModObject@base@5@@tl@UModSys@@QBEXPAURMediaFilter@images_std@media@modules@3@@Z$0 0040f720 f    CIL library: CIL module
 0001:0000e728       __ehhandler$?obj_delete@?$TRefObjectLinksModObject@URLibraryObjFilter@std@media@modules@UModSys@@UIModObject@base@5@@tl@UModSys@@QBEXPAURLibraryObjFilter@std@media@modules@3@@Z 0040f728 f    CIL library: CIL module
 0001:0000e728       __ehhandler$?obj_delete@?$TRefObjectLinksModObject@URDataArchiver_OsDir@stdio@media@modules@UModSys@@UIModObject@base@5@@tl@UModSys@@QBEXPAURDataArchiver_OsDir@stdio@media@modules@3@@Z 0040f728 f    CIL library: CIL module
 0001:0000e728       __ehhandler$?obj_delete@?$TRefObjectLinksModObject@URLibraryObjCache@std@media@modules@UModSys@@UIModObject@base@5@@tl@UModSys@@QBEXPAURLibraryObjCache@std@media@modules@3@@Z 0040f728 f    CIL library: CIL module
 0001:0000e728       __ehhandler$?obj_delete@?$TRefObjectLinksModObject@URStreamWriter_FILE@stdio@media@modules@UModSys@@UIModObject@base@5@@tl@UModSys@@QBEXPAURStreamWriter_FILE@stdio@media@modules@3@@Z 0040f728 f    CIL library: CIL module
 0001:0000e728       __ehhandler$?obj_delete@?$TRefObjectLinksModObject@URLibraryLayered@std@media@modules@UModSys@@UIModObject@base@5@@tl@UModSys@@QBEXPAURLibraryLayered@std@media@modules@3@@Z 0040f728 f    CIL library: CIL module
 0001:0000e728       __ehhandler$?obj_delete@?$TRefObjectLinksModObject@URStreamReader_FILE@stdio@media@modules@UModSys@@UIModObject@base@5@@tl@UModSys@@QBEXPAURStreamReader_FILE@stdio@media@modules@3@@Z 0040f728 f    CIL library: CIL module
 0001:0000e728       __ehhandler$?obj_delete@?$TRefObjectLinksModObject@URMediaFilter@images_std@media@modules@UModSys@@UIModObject@base@5@@tl@UModSys@@QBEXPAURMediaFilter@images_std@media@modules@3@@Z 0040f728 f    CIL library: CIL module
 0001:0000e728       __ehhandler$?obj_delete@?$TRefObjectLinksModObject@URLibraryBinCache@std@media@modules@UModSys@@UIModObject@base@5@@tl@UModSys@@QBEXPAURLibraryBinCache@std@media@modules@3@@Z 0040f728 f    CIL library: CIL module
 0001:0000e728       __ehhandler$?obj_delete@?$TRefObjectLinksModObject@URLibraryBinTree@std@media@modules@UModSys@@UIModObject@base@5@@tl@UModSys@@QBEXPAURLibraryBinTree@std@media@modules@3@@Z 0040f728 f    CIL library: CIL module
 0001:0000e740       __unwindfunclet$??1RModuleLibraryThis@rsystem@base@UModSys@@UAE@XZ$0 0040f740 f    CIL library: CIL module
 0001:0000e748       __ehhandler$??1RModuleLibraryThis@rsystem@base@UModSys@@UAE@XZ 0040f748 f    CIL library: CIL module
 0001:0000e752       __unwindfunclet$??1RModuleLoader@rsystem@base@UModSys@@UAE@XZ$0 0040f752 f    CIL library: CIL module
 0001:0000e75a       __unwindfunclet$??1RModuleLoader@rsystem@base@UModSys@@UAE@XZ$1 0040f75a f    CIL library: CIL module
 0001:0000e765       __unwindfunclet$??1RModuleLoader@rsystem@base@UModSys@@UAE@XZ$2 0040f765 f    CIL library: CIL module
 0001:0000e770       __ehhandler$??1RModuleLoader@rsystem@base@UModSys@@UAE@XZ 0040f770 f    CIL library: CIL module
 0001:0000e77a       __unwindfunclet$??1RSystem@rsystem@base@UModSys@@UAE@XZ$0 0040f77a f    CIL library: CIL module
 0001:0000e782       __unwindfunclet$??1RSystem@rsystem@base@UModSys@@UAE@XZ$1 0040f782 f    CIL library: CIL module
 0001:0000e78f       __unwindfunclet$??1RSystem@rsystem@base@UModSys@@UAE@XZ$2 0040f78f f    CIL library: CIL module
 0001:0000e79a       __unwindfunclet$??1RSystem@rsystem@base@UModSys@@UAE@XZ$3 0040f79a f    CIL library: CIL module
 0001:0000e7a5       __unwindfunclet$??1RSystem@rsystem@base@UModSys@@UAE@XZ$4 0040f7a5 f    CIL library: CIL module
 0001:0000e7b2       __unwindfunclet$??1RSystem@rsystem@base@UModSys@@UAE@XZ$5 0040f7b2 f    CIL library: CIL module
 0001:0000e7bd       __ehhandler$??1RSystem@rsystem@base@UModSys@@UAE@XZ 0040f7bd f    CIL library: CIL module
 0001:0000e7c7       __unwindfunclet$?loader_png@RMediaFilter@images_std@media@modules@UModSys@@QAE_NPAUIImage@lib2d@5@ABUSInfo@IBinObjFilter@libmedia@5@ABUSParameters@core@5@HPBD_N@Z$0 0040f7c7 f    CIL library: CIL module
 0001:0000e7cf       __ehhandler$?loader_png@RMediaFilter@images_std@media@modules@UModSys@@QAE_NPAUIImage@lib2d@5@ABUSInfo@IBinObjFilter@libmedia@5@ABUSParameters@core@5@HPBD_N@Z 0040f7cf f    CIL library: CIL module
 0001:0000e7d9       __unwindfunclet$?loader_jpeg@RMediaFilter@images_std@media@modules@UModSys@@QAE_NPAUIImage@lib2d@5@ABUSInfo@IBinObjFilter@libmedia@5@ABUSParameters@core@5@HPBD_N@Z$0 0040f7d9 f    CIL library: CIL module
 0001:0000e7e1       __ehhandler$?loader_jpeg@RMediaFilter@images_std@media@modules@UModSys@@QAE_NPAUIImage@lib2d@5@ABUSInfo@IBinObjFilter@libmedia@5@ABUSParameters@core@5@HPBD_N@Z 0040f7e1 f    CIL library: CIL module
 0001:0000e7eb       __unwindfunclet$??1RModuleLibrarySO@rsystem@base@UModSys@@UAE@XZ$0 0040f7eb f    CIL library: CIL module
 0001:0000e7f3       __ehhandler$??1RModuleLibrarySO@rsystem@base@UModSys@@UAE@XZ 0040f7f3 f    CIL library: CIL module
 0001:0000e7fd       __unwindfunclet$??0RModule@rsystem@base@UModSys@@QAE@PAUIModuleLibraryUni@123@PAUIModuleReg@23@@Z$0 0040f7fd f    CIL library: CIL module
 0001:0000e805       __unwindfunclet$??0RModule@rsystem@base@UModSys@@QAE@PAUIModuleLibraryUni@123@PAUIModuleReg@23@@Z$1 0040f805 f    CIL library: CIL module
 0001:0000e810       __unwindfunclet$??0RModule@rsystem@base@UModSys@@QAE@PAUIModuleLibraryUni@123@PAUIModuleReg@23@@Z$2 0040f810 f    CIL library: CIL module
 0001:0000e81b       __unwindfunclet$??0RModule@rsystem@base@UModSys@@QAE@PAUIModuleLibraryUni@123@PAUIModuleReg@23@@Z$3 0040f81b f    CIL library: CIL module
 0001:0000e826       __ehhandler$??0RModule@rsystem@base@UModSys@@QAE@PAUIModuleLibraryUni@123@PAUIModuleReg@23@@Z 0040f826 f    CIL library: CIL module
 0001:0000e830       __unwindfunclet$?link@IModuleLibraryUni@rsystem@base@UModSys@@QAE_NXZ$0 0040f830 f    CIL library: CIL module
 0001:0000e83e       __ehhandler$?link@IModuleLibraryUni@rsystem@base@UModSys@@QAE_NXZ 0040f83e f    CIL library: CIL module
 0001:0000e848       __unwindfunclet$?exec_test_shells@RSystem@rsystem@base@UModSys@@QAE_NXZ$0 0040f848 f    CIL library: CIL module
 0001:0000e853       __unwindfunclet$?exec_test_shells@RSystem@rsystem@base@UModSys@@QAE_NXZ$1 0040f853 f    CIL library: CIL module
 0001:0000e85e       __ehhandler$?exec_test_shells@RSystem@rsystem@base@UModSys@@QAE_NXZ 0040f85e f    CIL library: CIL module
 0001:0000e868       __unwindfunclet$?s_add@RModuleLibrarySO@rsystem@base@UModSys@@SA_NPAUISystem@34@AAU?$TDynarrayDynamic@U?$TRefObject@URModuleLibrarySO@rsystem@base@UModSys@@U?$TRefObjectFunc@URModuleLibrarySO@rsystem@base@UModSys@@@tl@4@@tl@UModSys@@U?$TAllocator@USMemAlloc_Malloc@core@UModSys@@USCountCalcPower2@23@@23@@tl@4@PBD@Z$1 0040f868 f    CIL library: CIL module
 0001:0000e870       __ehhandler$?s_add@RModuleLibrarySO@rsystem@base@UModSys@@SA_NPAUISystem@34@AAU?$TDynarrayDynamic@U?$TRefObject@URModuleLibrarySO@rsystem@base@UModSys@@U?$TRefObjectFunc@URModuleLibrarySO@rsystem@base@UModSys@@@tl@4@@tl@UModSys@@U?$TAllocator@USMemAlloc_Malloc@core@UModSys@@USCountCalcPower2@23@@23@@tl@4@PBD@Z 0040f870 f    CIL library: CIL module
 0001:0000e880       __unwindfunclet$??$ValidateConstruction@UIRefObject@core@UModSys@@URLibraryBinTree@std@media@modules@3@@core@UModSys@@YA_NAAU?$TRefObject@UIRefObject@core@UModSys@@U?$TRefObjectFunc@UIRefObject@core@UModSys@@@tl@3@@tl@1@PAURLibraryBinTree@std@media@modules@1@@Z$0 0040f880 f    CIL library: CIL module
 0001:0000e880       __unwindfunclet$??$ValidateConstruction@UIStreamWriter@libmedia@UModSys@@URStreamWriter_FILE@stdio@media@modules@3@@core@UModSys@@YA_NAAU?$TRefObject@UIStreamWriter@libmedia@UModSys@@U?$TRefObjectFunc@UIStreamWriter@libmedia@UModSys@@@tl@3@@tl@1@PAURStreamWriter_FILE@stdio@media@modules@1@@Z$0 0040f880 f    CIL library: CIL module
 0001:0000e880       __unwindfunclet$??$ValidateConstruction@UIRefObject@core@UModSys@@URLibraryLayered@std@media@modules@3@@core@UModSys@@YA_NAAU?$TRefObject@UIRefObject@core@UModSys@@U?$TRefObjectFunc@UIRefObject@core@UModSys@@@tl@3@@tl@1@PAURLibraryLayered@std@media@modules@1@@Z$0 0040f880 f    CIL library: CIL module
 0001:0000e880       __unwindfunclet$??$ValidateConstruction@UIRefObject@core@UModSys@@URStreamReader_FILE@stdio@media@modules@3@@core@UModSys@@YA_NAAU?$TRefObject@UIRefObject@core@UModSys@@U?$TRefObjectFunc@UIRefObject@core@UModSys@@@tl@3@@tl@1@PAURStreamReader_FILE@stdio@media@modules@1@@Z$0 0040f880 f    CIL library: CIL module
 0001:0000e880       __unwindfunclet$??$ValidateConstruction@UIRefObject@core@UModSys@@URLibraryBinCache@std@media@modules@3@@core@UModSys@@YA_NAAU?$TRefObject@UIRefObject@core@UModSys@@U?$TRefObjectFunc@UIRefObject@core@UModSys@@@tl@3@@tl@1@PAURLibraryBinCache@std@media@modules@1@@Z$0 0040f880 f    CIL library: CIL module
 0001:0000e880       __unwindfunclet$??$t_moduledb_generate@UIShell@base@UModSys@@@IModuleLoader@base@UModSys@@QAE_NAAU?$TRefObject@UIShell@base@UModSys@@U?$TRefObjectFunc@UIShell@base@UModSys@@@tl@3@@tl@2@PBUSUniquePointerInfo@core@2@ABUSParameters@62@@Z$0 0040f880 f    CIL library: CIL module
 0001:0000e880       __unwindfunclet$??$ValidateConstruction@UIRefObject@core@UModSys@@URStreamWriter_FILE@stdio@media@modules@3@@core@UModSys@@YA_NAAU?$TRefObject@UIRefObject@core@UModSys@@U?$TRefObjectFunc@UIRefObject@core@UModSys@@@tl@3@@tl@1@PAURStreamWriter_FILE@stdio@media@modules@1@@Z$0 0040f880 f    CIL library: CIL module
 0001:0000e880       __unwindfunclet$??$ValidateConstruction@UIRefObject@core@UModSys@@URDataArchiver_OsDir@stdio@media@modules@3@@core@UModSys@@YA_NAAU?$TRefObject@UIRefObject@core@UModSys@@U?$TRefObjectFunc@UIRefObject@core@UModSys@@@tl@3@@tl@1@PAURDataArchiver_OsDir@stdio@media@modules@1@@Z$0 0040f880 f    CIL library: CIL module
 0001:0000e880       __unwindfunclet$??$ValidateConstruction@UIRefObject@core@UModSys@@URLibraryObjCache@std@media@modules@3@@core@UModSys@@YA_NAAU?$TRefObject@UIRefObject@core@UModSys@@U?$TRefObjectFunc@UIRefObject@core@UModSys@@@tl@3@@tl@1@PAURLibraryObjCache@std@media@modules@1@@Z$0 0040f880 f    CIL library: CIL module
 0001:0000e880       __unwindfunclet$??$ValidateConstruction@UIStreamReader@libmedia@UModSys@@URStreamReader_FILE@stdio@media@modules@3@@core@UModSys@@YA_NAAU?$TRefObject@UIStreamReader@libmedia@UModSys@@U?$TRefObjectFunc@UIStreamReader@libmedia@UModSys@@@tl@3@@tl@1@PAURStreamReader_FILE@stdio@media@modules@1@@Z$0 0040f880 f    CIL library: CIL module
 0001:0000e880       __unwindfunclet$??$ValidateConstruction@UIRefObject@core@UModSys@@URLibraryObjFilter@std@media@modules@3@@core@UModSys@@YA_NAAU?$TRefObject@UIRefObject@core@UModSys@@U?$TRefObjectFunc@UIRefObject@core@UModSys@@@tl@3@@tl@1@PAURLibraryObjFilter@std@media@modules@1@@Z$0 0040f880 f    CIL library: CIL module
 0001:0000e880       __unwindfunclet$?archive_save_data@libmedia@UModSys@@YA_NAAUIBinArchive@12@ABU?$TString@U?$TSCoreConst@D@su@tl@UModSys@@U?$TComparerBinaryHash@D@234@@tl@2@ABUSCMem@core@2@ABUSFlags@12@@Z$0 0040f880 f    CIL library: CIL module
 0001:0000e880       __unwindfunclet$??$ValidateConstruction@UIRefObject@core@UModSys@@URMediaFilter@images_std@media@modules@3@@core@UModSys@@YA_NAAU?$TRefObject@UIRefObject@core@UModSys@@U?$TRefObjectFunc@UIRefObject@core@UModSys@@@tl@3@@tl@1@PAURMediaFilter@images_std@media@modules@1@@Z$0 0040f880 f    CIL library: CIL module
 0001:0000e888       __ehhandler$??$ValidateConstruction@UIRefObject@core@UModSys@@URMediaFilter@images_std@media@modules@3@@core@UModSys@@YA_NAAU?$TRefObject@UIRefObject@core@UModSys@@U?$TRefObjectFunc@UIRefObject@core@UModSys@@@tl@3@@tl@1@PAURMediaFilter@images_std@media@modules@1@@Z 0040f888 f    CIL library: CIL module
 0001:0000e888       __ehhandler$??$ValidateConstruction@UIRefObject@core@UModSys@@URLibraryObjCache@std@media@modules@3@@core@UModSys@@YA_NAAU?$TRefObject@UIRefObject@core@UModSys@@U?$TRefObjectFunc@UIRefObject@core@UModSys@@@tl@3@@tl@1@PAURLibraryObjCache@std@media@modules@1@@Z 0040f888 f    CIL library: CIL module
 0001:0000e888       __ehhandler$??$ValidateConstruction@UIRefObject@core@UModSys@@URDataArchiver_OsDir@stdio@media@modules@3@@core@UModSys@@YA_NAAU?$TRefObject@UIRefObject@core@UModSys@@U?$TRefObjectFunc@UIRefObject@core@UModSys@@@tl@3@@tl@1@PAURDataArchiver_OsDir@stdio@media@modules@1@@Z 0040f888 f    CIL library: CIL module
 0001:0000e888       __ehhandler$??$t_moduledb_generate@UIShell@base@UModSys@@@IModuleLoader@base@UModSys@@QAE_NAAU?$TRefObject@UIShell@base@UModSys@@U?$TRefObjectFunc@UIShell@base@UModSys@@@tl@3@@tl@2@PBUSUniquePointerInfo@core@2@ABUSParameters@62@@Z 0040f888 f    CIL library: CIL module
 0001:0000e888       __ehhandler$??$ValidateConstruction@UIRefObject@core@UModSys@@URStreamWriter_FILE@stdio@media@modules@3@@core@UModSys@@YA_NAAU?$TRefObject@UIRefObject@core@UModSys@@U?$TRefObjectFunc@UIRefObject@core@UModSys@@@tl@3@@tl@1@PAURStreamWriter_FILE@stdio@media@modules@1@@Z 0040f888 f    CIL library: CIL module
 0001:0000e888       __ehhandler$??$ValidateConstruction@UIRefObject@core@UModSys@@URLibraryObjFilter@std@media@modules@3@@core@UModSys@@YA_NAAU?$TRefObject@UIRefObject@core@UModSys@@U?$TRefObjectFunc@UIRefObject@core@UModSys@@@tl@3@@tl@1@PAURLibraryObjFilter@std@media@modules@1@@Z 0040f888 f    CIL library: CIL module
 0001:0000e888       __ehhandler$??$ValidateConstruction@UIRefObject@core@UModSys@@URStreamReader_FILE@stdio@media@modules@3@@core@UModSys@@YA_NAAU?$TRefObject@UIRefObject@core@UModSys@@U?$TRefObjectFunc@UIRefObject@core@UModSys@@@tl@3@@tl@1@PAURStreamReader_FILE@stdio@media@modules@1@@Z 0040f888 f    CIL library: CIL module
 0001:0000e888       __ehhandler$??$ValidateConstruction@UIRefObject@core@UModSys@@URLibraryLayered@std@media@modules@3@@core@UModSys@@YA_NAAU?$TRefObject@UIRefObject@core@UModSys@@U?$TRefObjectFunc@UIRefObject@core@UModSys@@@tl@3@@tl@1@PAURLibraryLayered@std@media@modules@1@@Z 0040f888 f    CIL library: CIL module
 0001:0000e888       __ehhandler$??$ValidateConstruction@UIStreamWriter@libmedia@UModSys@@URStreamWriter_FILE@stdio@media@modules@3@@core@UModSys@@YA_NAAU?$TRefObject@UIStreamWriter@libmedia@UModSys@@U?$TRefObjectFunc@UIStreamWriter@libmedia@UModSys@@@tl@3@@tl@1@PAURStreamWriter_FILE@stdio@media@modules@1@@Z 0040f888 f    CIL library: CIL module
 0001:0000e888       __ehhandler$??$ValidateConstruction@UIRefObject@core@UModSys@@URLibraryBinTree@std@media@modules@3@@core@UModSys@@YA_NAAU?$TRefObject@UIRefObject@core@UModSys@@U?$TRefObjectFunc@UIRefObject@core@UModSys@@@tl@3@@tl@1@PAURLibraryBinTree@std@media@modules@1@@Z 0040f888 f    CIL library: CIL module
 0001:0000e888       __ehhandler$??$ValidateConstruction@UIStreamReader@libmedia@UModSys@@URStreamReader_FILE@stdio@media@modules@3@@core@UModSys@@YA_NAAU?$TRefObject@UIStreamReader@libmedia@UModSys@@U?$TRefObjectFunc@UIStreamReader@libmedia@UModSys@@@tl@3@@tl@1@PAURStreamReader_FILE@stdio@media@modules@1@@Z 0040f888 f    CIL library: CIL module
 0001:0000e888       __ehhandler$??$ValidateConstruction@UIRefObject@core@UModSys@@URLibraryBinCache@std@media@modules@3@@core@UModSys@@YA_NAAU?$TRefObject@UIRefObject@core@UModSys@@U?$TRefObjectFunc@UIRefObject@core@UModSys@@@tl@3@@tl@1@PAURLibraryBinCache@std@media@modules@1@@Z 0040f888 f    CIL library: CIL module
 0001:0000e888       __ehhandler$?archive_save_data@libmedia@UModSys@@YA_NAAUIBinArchive@12@ABU?$TString@U?$TSCoreConst@D@su@tl@UModSys@@U?$TComparerBinaryHash@D@234@@tl@2@ABUSCMem@core@2@ABUSFlags@12@@Z 0040f888 f    CIL library: CIL module
 0001:0000e8a0       __unwindfunclet$?archive_load_data@libmedia@UModSys@@YA_NAAUIBinArchive@12@ABU?$TString@U?$TSCoreConst@D@su@tl@UModSys@@U?$TComparerBinaryHash@D@234@@tl@2@AAUSCMemShared@core@2@ABUSFlags@12@@Z$0 0040f8a0 f    CIL library: CIL module
 0001:0000e8a8       __unwindfunclet$?archive_load_data@libmedia@UModSys@@YA_NAAUIBinArchive@12@ABU?$TString@U?$TSCoreConst@D@su@tl@UModSys@@U?$TComparerBinaryHash@D@234@@tl@2@AAUSCMemShared@core@2@ABUSFlags@12@@Z$1 0040f8a8 f    CIL library: CIL module
 0001:0000e8b0       __ehhandler$?archive_load_data@libmedia@UModSys@@YA_NAAUIBinArchive@12@ABU?$TString@U?$TSCoreConst@D@su@tl@UModSys@@U?$TComparerBinaryHash@D@234@@tl@2@AAUSCMemShared@core@2@ABUSFlags@12@@Z 0040f8b0 f    CIL library: CIL module
 0001:0000e8c0       __unwindfunclet$??RGen0@?$TScatterArray@USFilter@RLibraryObjFilter@std@media@modules@UModSys@@USId@23456@U723456@U?$TNodeDeleter0@U?$TScatterArrayNode@USFilter@RLibraryObjFilter@std@media@modules@UModSys@@USId@23456@@tl@UModSys@@@tl@6@@tl@UModSys@@QBEPAU?$TScatterArrayNode@USFilter@RLibraryObjFilter@std@media@modules@UModSys@@USId@23456@@23@ABUCmp@123@ABU?$TTreeHoldRBD@U?$TScatterArrayNode@USFilter@RLibraryObjFilter@std@media@modules@UModSys@@USId@23456@@tl@UModSys@@U?$TNodeDeleter0@U?$TScatterArrayNode@USFilter@RLibraryObjFilter@std@media@modules@UModSys@@USId@23456@@tl@UModSys@@@23@@23@@Z$0 0040f8c0 f    CIL library: CIL module
 0001:0000e8c5       __unwindfunclet$??RGen0@?$TScatterArray@USFilter@RLibraryObjFilter@std@media@modules@UModSys@@USId@23456@U723456@U?$TNodeDeleter0@U?$TScatterArrayNode@USFilter@RLibraryObjFilter@std@media@modules@UModSys@@USId@23456@@tl@UModSys@@@tl@6@@tl@UModSys@@QBEPAU?$TScatterArrayNode@USFilter@RLibraryObjFilter@std@media@modules@UModSys@@USId@23456@@23@ABUCmp@123@ABU?$TTreeHoldRBD@U?$TScatterArrayNode@USFilter@RLibraryObjFilter@std@media@modules@UModSys@@USId@23456@@tl@UModSys@@U?$TNodeDeleter0@U?$TScatterArrayNode@USFilter@RLibraryObjFilter@std@media@modules@UModSys@@USId@23456@@tl@UModSys@@@23@@23@@Z$1 0040f8c5 f    CIL library: CIL module
 0001:0000e8cd       __unwindfunclet$??RGen0@?$TScatterArray@USFilter@RLibraryObjFilter@std@media@modules@UModSys@@USId@23456@U723456@U?$TNodeDeleter0@U?$TScatterArrayNode@USFilter@RLibraryObjFilter@std@media@modules@UModSys@@USId@23456@@tl@UModSys@@@tl@6@@tl@UModSys@@QBEPAU?$TScatterArrayNode@USFilter@RLibraryObjFilter@std@media@modules@UModSys@@USId@23456@@23@ABUCmp@123@ABU?$TTreeHoldRBD@U?$TScatterArrayNode@USFilter@RLibraryObjFilter@std@media@modules@UModSys@@USId@23456@@tl@UModSys@@U?$TNodeDeleter0@U?$TScatterArrayNode@USFilter@RLibraryObjFilter@std@media@modules@UModSys@@USId@23456@@tl@UModSys@@@23@@23@@Z$2 0040f8cd f    CIL library: CIL module
 0001:0000e8d8       __ehhandler$??RGen0@?$TScatterArray@USFilter@RLibraryObjFilter@std@media@modules@UModSys@@USId@23456@U723456@U?$TNodeDeleter0@U?$TScatterArrayNode@USFilter@RLibraryObjFilter@std@media@modules@UModSys@@USId@23456@@tl@UModSys@@@tl@6@@tl@UModSys@@QBEPAU?$TScatterArrayNode@USFilter@RLibraryObjFilter@std@media@modules@UModSys@@USId@23456@@23@ABUCmp@123@ABU?$TTreeHoldRBD@U?$TScatterArrayNode@USFilter@RLibraryObjFilter@std@media@modules@UModSys@@USId@23456@@tl@UModSys@@U?$TNodeDeleter0@U?$TScatterArrayNode@USFilter@RLibraryObjFilter@std@media@modules@UModSys@@USId@23456@@tl@UModSys@@@23@@23@@Z 0040f8d8 f    CIL library: CIL module
 0001:0000e8f0       __unwindfunclet$??1SCacheElem@RLibraryObjCache@std@media@modules@UModSys@@QAE@XZ$0 0040f8f0 f    CIL library: CIL module
 0001:0000e8f0       __unwindfunclet$??0SCacheElem@RLibraryObjCache@std@media@modules@UModSys@@QAE@ABU012345@@Z$0 0040f8f0 f    CIL library: CIL module
 0001:0000e8f0       __unwindfunclet$??0?$TString@U?$TSCoreShared@USIMemAlloc@core@UModSys@@D@su@tl@UModSys@@U?$TComparerBinaryHash@D@234@@tl@UModSys@@QAE@ABU?$TSCoreConst@D@su@12@@Z$0 0040f8f0 f    CIL library: CIL module
 0001:0000e8f0       __unwindfunclet$??1SCacheElem@RLibraryBinCache@std@media@modules@UModSys@@QAE@XZ$0 0040f8f0 f    CIL library: CIL module
 0001:0000e8f8       __ehhandler$??1SCacheElem@RLibraryObjCache@std@media@modules@UModSys@@QAE@XZ 0040f8f8 f    CIL library: CIL module
 0001:0000e8f8       __ehhandler$??1SCacheElem@RLibraryBinCache@std@media@modules@UModSys@@QAE@XZ 0040f8f8 f    CIL library: CIL module
 0001:0000e8f8       __ehhandler$??0SCacheElem@RLibraryObjCache@std@media@modules@UModSys@@QAE@ABU012345@@Z 0040f8f8 f    CIL library: CIL module
 0001:0000e8f8       __ehhandler$??0?$TString@U?$TSCoreShared@USIMemAlloc@core@UModSys@@D@su@tl@UModSys@@U?$TComparerBinaryHash@D@234@@tl@UModSys@@QAE@ABU?$TSCoreConst@D@su@12@@Z 0040f8f8 f    CIL library: CIL module
 0001:0000e910       __unwindfunclet$??1SLayerX@RLibraryLayered@std@media@modules@UModSys@@QAE@XZ$0 0040f910 f    CIL library: CIL module
 0001:0000e910       __unwindfunclet$??0SMountInfo@RLibraryBinTree@std@media@modules@UModSys@@QAE@ABU012345@@Z$0 0040f910 f    CIL library: CIL module
 0001:0000e910       __unwindfunclet$??0SLayerX@RLibraryLayered@std@media@modules@UModSys@@QAE@ABU012345@@Z$0 0040f910 f    CIL library: CIL module
 0001:0000e910       __unwindfunclet$??1SMountInfo@RLibraryBinTree@std@media@modules@UModSys@@QAE@XZ$0 0040f910 f    CIL library: CIL module
 0001:0000e918       __ehhandler$??0SMountInfo@RLibraryBinTree@std@media@modules@UModSys@@QAE@ABU012345@@Z 0040f918 f    CIL library: CIL module
 0001:0000e918       __ehhandler$??0SLayerX@RLibraryLayered@std@media@modules@UModSys@@QAE@ABU012345@@Z 0040f918 f    CIL library: CIL module
 0001:0000e918       __ehhandler$??1SMountInfo@RLibraryBinTree@std@media@modules@UModSys@@QAE@XZ 0040f918 f    CIL library: CIL module
 0001:0000e918       __ehhandler$??1SLayerX@RLibraryLayered@std@media@modules@UModSys@@QAE@XZ 0040f918 f    CIL library: CIL module
 0001:0000e930       __unwindfunclet$?filters_add@RLibraryObjFilter@std@media@modules@UModSys@@UAE_NU?$TRefObject@UIBinObjFilter@libmedia@UModSys@@U?$TRefObjectFunc@UIBinObjFilter@libmedia@UModSys@@@tl@3@@tl@5@PBUSParameters@core@5@H@Z$0 0040f930 f    CIL library: CIL module
 0001:0000e930       __unwindfunclet$?obj_delete@?$TRefObjectLinksParent@URModule@rsystem@base@UModSys@@UIModuleLibraryUni@234@@tl@UModSys@@QBEXPAURModule@rsystem@base@3@@Z$0 0040f930 f    CIL library: CIL module
 0001:0000e938       __ehhandler$?filters_add@RLibraryObjFilter@std@media@modules@UModSys@@UAE_NU?$TRefObject@UIBinObjFilter@libmedia@UModSys@@U?$TRefObjectFunc@UIBinObjFilter@libmedia@UModSys@@@tl@3@@tl@5@PBUSParameters@core@5@H@Z 0040f938 f    CIL library: CIL module
 0001:0000e938       __ehhandler$?obj_delete@?$TRefObjectLinksParent@URModule@rsystem@base@UModSys@@UIModuleLibraryUni@234@@tl@UModSys@@QBEXPAURModule@rsystem@base@3@@Z 0040f938 f    CIL library: CIL module
 0001:0000e950       __unwindfunclet$?bin_writer@RLibraryLayered@std@media@modules@UModSys@@UAE?AU?$TRefObject@UIStreamWriter@libmedia@UModSys@@U?$TRefObjectFunc@UIStreamWriter@libmedia@UModSys@@@tl@3@@tl@5@ABU?$TString@U?$TSCoreConst@D@su@tl@UModSys@@U?$TComparerBinaryHash@D@234@@75@ABUSFlags@libmedia@5@@Z$0 0040f950 f    CIL library: CIL module
 0001:0000e950       __unwindfunclet$?bin_reader@RLibraryLayered@std@media@modules@UModSys@@UAE?AU?$TRefObject@UIStreamReader@libmedia@UModSys@@U?$TRefObjectFunc@UIStreamReader@libmedia@UModSys@@@tl@3@@tl@5@ABU?$TString@U?$TSCoreConst@D@su@tl@UModSys@@U?$TComparerBinaryHash@D@234@@75@ABUSFlags@libmedia@5@@Z$0 0040f950 f    CIL library: CIL module
 0001:0000e958       __ehhandler$?bin_reader@RLibraryLayered@std@media@modules@UModSys@@UAE?AU?$TRefObject@UIStreamReader@libmedia@UModSys@@U?$TRefObjectFunc@UIStreamReader@libmedia@UModSys@@@tl@3@@tl@5@ABU?$TString@U?$TSCoreConst@D@su@tl@UModSys@@U?$TComparerBinaryHash@D@234@@75@ABUSFlags@libmedia@5@@Z 0040f958 f    CIL library: CIL module
 0001:0000e958       __ehhandler$?bin_writer@RLibraryLayered@std@media@modules@UModSys@@UAE?AU?$TRefObject@UIStreamWriter@libmedia@UModSys@@U?$TRefObjectFunc@UIStreamWriter@libmedia@UModSys@@@tl@3@@tl@5@ABU?$TString@U?$TSCoreConst@D@su@tl@UModSys@@U?$TComparerBinaryHash@D@234@@75@ABUSFlags@libmedia@5@@Z 0040f958 f    CIL library: CIL module
 0001:0000e970       __unwindfunclet$?bin_writer@RLibraryBinTree@std@media@modules@UModSys@@UAE?AU?$TRefObject@UIStreamWriter@libmedia@UModSys@@U?$TRefObjectFunc@UIStreamWriter@libmedia@UModSys@@@tl@3@@tl@5@ABU?$TString@U?$TSCoreConst@D@su@tl@UModSys@@U?$TComparerBinaryHash@D@234@@75@ABUSFlags@libmedia@5@@Z$0 0040f970 f    CIL library: CIL module
 0001:0000e970       __unwindfunclet$?bin_reader@RLibraryBinTree@std@media@modules@UModSys@@UAE?AU?$TRefObject@UIStreamReader@libmedia@UModSys@@U?$TRefObjectFunc@UIStreamReader@libmedia@UModSys@@@tl@3@@tl@5@ABU?$TString@U?$TSCoreConst@D@su@tl@UModSys@@U?$TComparerBinaryHash@D@234@@75@ABUSFlags@libmedia@5@@Z$0 0040f970 f    CIL library: CIL module
 0001:0000e978       __ehhandler$?bin_writer@RLibraryBinTree@std@media@modules@UModSys@@UAE?AU?$TRefObject@UIStreamWriter@libmedia@UModSys@@U?$TRefObjectFunc@UIStreamWriter@libmedia@UModSys@@@tl@3@@tl@5@ABU?$TString@U?$TSCoreConst@D@su@tl@UModSys@@U?$TComparerBinaryHash@D@234@@75@ABUSFlags@libmedia@5@@Z 0040f978 f    CIL library: CIL module
 0001:0000e978       __ehhandler$?bin_reader@RLibraryBinTree@std@media@modules@UModSys@@UAE?AU?$TRefObject@UIStreamReader@libmedia@UModSys@@U?$TRefObjectFunc@UIStreamReader@libmedia@UModSys@@@tl@3@@tl@5@ABU?$TString@U?$TSCoreConst@D@su@tl@UModSys@@U?$TComparerBinaryHash@D@234@@75@ABUSFlags@libmedia@5@@Z 0040f978 f    CIL library: CIL module
 0001:0000e990       __unwindfunclet$?data_writer@RDataArchiver_OsDir@stdio@media@modules@UModSys@@UAE?AU?$TRefObject@UIStreamWriter@libmedia@UModSys@@U?$TRefObjectFunc@UIStreamWriter@libmedia@UModSys@@@tl@3@@tl@5@ABU?$TString@U?$TSCoreConst@D@su@tl@UModSys@@U?$TComparerBinaryHash@D@234@@75@ABUSFlags@libmedia@5@@Z$1 0040f990 f    CIL library: CIL module
 0001:0000e99b       __unwindfunclet$?data_writer@RDataArchiver_OsDir@stdio@media@modules@UModSys@@UAE?AU?$TRefObject@UIStreamWriter@libmedia@UModSys@@U?$TRefObjectFunc@UIStreamWriter@libmedia@UModSys@@@tl@3@@tl@5@ABU?$TString@U?$TSCoreConst@D@su@tl@UModSys@@U?$TComparerBinaryHash@D@234@@75@ABUSFlags@libmedia@5@@Z$2 0040f99b f    CIL library: CIL module
 0001:0000e9af       __unwindfunclet$?data_writer@RDataArchiver_OsDir@stdio@media@modules@UModSys@@UAE?AU?$TRefObject@UIStreamWriter@libmedia@UModSys@@U?$TRefObjectFunc@UIStreamWriter@libmedia@UModSys@@@tl@3@@tl@5@ABU?$TString@U?$TSCoreConst@D@su@tl@UModSys@@U?$TComparerBinaryHash@D@234@@75@ABUSFlags@libmedia@5@@Z$0 0040f9af f    CIL library: CIL module
 0001:0000e9ce       __ehhandler$?data_writer@RDataArchiver_OsDir@stdio@media@modules@UModSys@@UAE?AU?$TRefObject@UIStreamWriter@libmedia@UModSys@@U?$TRefObjectFunc@UIStreamWriter@libmedia@UModSys@@@tl@3@@tl@5@ABU?$TString@U?$TSCoreConst@D@su@tl@UModSys@@U?$TComparerBinaryHash@D@234@@75@ABUSFlags@libmedia@5@@Z 0040f9ce f    CIL library: CIL module
 0001:0000e9e0       __unwindfunclet$?data_reader@RDataArchiver_OsDir@stdio@media@modules@UModSys@@UAE?AU?$TRefObject@UIStreamReader@libmedia@UModSys@@U?$TRefObjectFunc@UIStreamReader@libmedia@UModSys@@@tl@3@@tl@5@ABU?$TString@U?$TSCoreConst@D@su@tl@UModSys@@U?$TComparerBinaryHash@D@234@@75@ABUSFlags@libmedia@5@@Z$1 0040f9e0 f    CIL library: CIL module
 0001:0000e9eb       __unwindfunclet$?data_reader@RDataArchiver_OsDir@stdio@media@modules@UModSys@@UAE?AU?$TRefObject@UIStreamReader@libmedia@UModSys@@U?$TRefObjectFunc@UIStreamReader@libmedia@UModSys@@@tl@3@@tl@5@ABU?$TString@U?$TSCoreConst@D@su@tl@UModSys@@U?$TComparerBinaryHash@D@234@@75@ABUSFlags@libmedia@5@@Z$2 0040f9eb f    CIL library: CIL module
 0001:0000e9ff       __unwindfunclet$?data_reader@RDataArchiver_OsDir@stdio@media@modules@UModSys@@UAE?AU?$TRefObject@UIStreamReader@libmedia@UModSys@@U?$TRefObjectFunc@UIStreamReader@libmedia@UModSys@@@tl@3@@tl@5@ABU?$TString@U?$TSCoreConst@D@su@tl@UModSys@@U?$TComparerBinaryHash@D@234@@75@ABUSFlags@libmedia@5@@Z$0 0040f9ff f    CIL library: CIL module
 0001:0000ea1e       __ehhandler$?data_reader@RDataArchiver_OsDir@stdio@media@modules@UModSys@@UAE?AU?$TRefObject@UIStreamReader@libmedia@UModSys@@U?$TRefObjectFunc@UIStreamReader@libmedia@UModSys@@@tl@3@@tl@5@ABU?$TString@U?$TSCoreConst@D@su@tl@UModSys@@U?$TComparerBinaryHash@D@234@@75@ABUSFlags@libmedia@5@@Z 0040fa1e f    CIL library: CIL module
 0001:0000ea30       __unwindfunclet$??0RDataArchiver_OsDir@stdio@media@modules@UModSys@@QAE@PAUIModObject@base@4@ABUSParameters@core@4@U?$TFlags4State@USMediaFlagUid@libmedia@UModSys@@I@tl@4@@Z$0 0040fa30 f    CIL library: CIL module
 0001:0000ea38       __unwindfunclet$??0RDataArchiver_OsDir@stdio@media@modules@UModSys@@QAE@PAUIModObject@base@4@ABUSParameters@core@4@U?$TFlags4State@USMediaFlagUid@libmedia@UModSys@@I@tl@4@@Z$1 0040fa38 f    CIL library: CIL module
 0001:0000ea43       __ehhandler$??0RDataArchiver_OsDir@stdio@media@modules@UModSys@@QAE@PAUIModObject@base@4@ABUSParameters@core@4@U?$TFlags4State@USMediaFlagUid@libmedia@UModSys@@I@tl@4@@Z 0040fa43 f    CIL library: CIL module
 0001:0000ea50       __unwindfunclet$??$t_gen_param@URLibraryBinTree@std@media@modules@UModSys@@URGenerator@2345@@IGenerator@base@UModSys@@IAE_NPAURGenerator@std@media@modules@2@AAU?$TRefObject@UIRefObject@core@UModSys@@U?$TRefObjectFunc@UIRefObject@core@UModSys@@@tl@3@@tl@2@PBUSUniquePointerInfo@core@2@ABUSParameters@core@2@@Z$0 0040fa50 f    CIL library: CIL module
 0001:0000ea50       __unwindfunclet$??$t_gen_param@URLibraryBinCache@std@media@modules@UModSys@@URGenerator@2345@@IGenerator@base@UModSys@@IAE_NPAURGenerator@std@media@modules@2@AAU?$TRefObject@UIRefObject@core@UModSys@@U?$TRefObjectFunc@UIRefObject@core@UModSys@@@tl@3@@tl@2@PBUSUniquePointerInfo@core@2@ABUSParameters@core@2@@Z$0 0040fa50 f    CIL library: CIL module
 0001:0000ea50       __unwindfunclet$??$t_gen_param@URStreamWriter_FILE@stdio@media@modules@UModSys@@URGenerator@2345@@IGenerator@base@UModSys@@IAE_NPAURGenerator@stdio@media@modules@2@AAU?$TRefObject@UIRefObject@core@UModSys@@U?$TRefObjectFunc@UIRefObject@core@UModSys@@@tl@3@@tl@2@PBUSUniquePointerInfo@core@2@ABUSParameters@core@2@@Z$0 0040fa50 f    CIL library: CIL module
 0001:0000ea50       __unwindfunclet$??$t_gen_param@URMediaFilter@images_std@media@modules@UModSys@@URGenerator@2345@@IGenerator@base@UModSys@@IAE_NPAURGenerator@images_std@media@modules@2@AAU?$TRefObject@UIRefObject@core@UModSys@@U?$TRefObjectFunc@UIRefObject@core@UModSys@@@tl@3@@tl@2@PBUSUniquePointerInfo@core@2@ABUSParameters@core@2@@Z$0 0040fa50 f    CIL library: CIL module
 0001:0000ea50       __unwindfunclet$??$t_gen_param@URLibraryLayered@std@media@modules@UModSys@@URGenerator@2345@@IGenerator@base@UModSys@@IAE_NPAURGenerator@std@media@modules@2@AAU?$TRefObject@UIRefObject@core@UModSys@@U?$TRefObjectFunc@UIRefObject@core@UModSys@@@tl@3@@tl@2@PBUSUniquePointerInfo@core@2@ABUSParameters@core@2@@Z$0 0040fa50 f    CIL library: CIL module
 0001:0000ea50       __unwindfunclet$??$t_gen_param@URLibraryObjCache@std@media@modules@UModSys@@URGenerator@2345@@IGenerator@base@UModSys@@IAE_NPAURGenerator@std@media@modules@2@AAU?$TRefObject@UIRefObject@core@UModSys@@U?$TRefObjectFunc@UIRefObject@core@UModSys@@@tl@3@@tl@2@PBUSUniquePointerInfo@core@2@ABUSParameters@core@2@@Z$0 0040fa50 f    CIL library: CIL module
 0001:0000ea50       __unwindfunclet$??$t_gen_param@URDataArchiver_OsDir@stdio@media@modules@UModSys@@URGenerator@2345@@IGenerator@base@UModSys@@IAE_NPAURGenerator@stdio@media@modules@2@AAU?$TRefObject@UIRefObject@core@UModSys@@U?$TRefObjectFunc@UIRefObject@core@UModSys@@@tl@3@@tl@2@PBUSUniquePointerInfo@core@2@ABUSParameters@core@2@@Z$0 0040fa50 f    CIL library: CIL module
 0001:0000ea50       __unwindfunclet$??$t_gen_param@URStreamReader_FILE@stdio@media@modules@UModSys@@URGenerator@2345@@IGenerator@base@UModSys@@IAE_NPAURGenerator@stdio@media@modules@2@AAU?$TRefObject@UIRefObject@core@UModSys@@U?$TRefObjectFunc@UIRefObject@core@UModSys@@@tl@3@@tl@2@PBUSUniquePointerInfo@core@2@ABUSParameters@core@2@@Z$0 0040fa50 f    CIL library: CIL module
 0001:0000ea50       __unwindfunclet$??$t_gen_param@URLibraryObjFilter@std@media@modules@UModSys@@URGenerator@2345@@IGenerator@base@UModSys@@IAE_NPAURGenerator@std@media@modules@2@AAU?$TRefObject@UIRefObject@core@UModSys@@U?$TRefObjectFunc@UIRefObject@core@UModSys@@@tl@3@@tl@2@PBUSUniquePointerInfo@core@2@ABUSParameters@core@2@@Z$0 0040fa50 f    CIL library: CIL module
 0001:0000ea5e       __ehhandler$??$t_gen_param@URLibraryObjFilter@std@media@modules@UModSys@@URGenerator@2345@@IGenerator@base@UModSys@@IAE_NPAURGenerator@std@media@modules@2@AAU?$TRefObject@UIRefObject@core@UModSys@@U?$TRefObjectFunc@UIRefObject@core@UModSys@@@tl@3@@tl@2@PBUSUniquePointerInfo@core@2@ABUSParameters@core@2@@Z 0040fa5e f    CIL library: CIL module
 0001:0000ea5e       __ehhandler$??$t_gen_param@URLibraryLayered@std@media@modules@UModSys@@URGenerator@2345@@IGenerator@base@UModSys@@IAE_NPAURGenerator@std@media@modules@2@AAU?$TRefObject@UIRefObject@core@UModSys@@U?$TRefObjectFunc@UIRefObject@core@UModSys@@@tl@3@@tl@2@PBUSUniquePointerInfo@core@2@ABUSParameters@core@2@@Z 0040fa5e f    CIL library: CIL module
 0001:0000ea5e       __ehhandler$??$t_gen_param@URLibraryObjCache@std@media@modules@UModSys@@URGenerator@2345@@IGenerator@base@UModSys@@IAE_NPAURGenerator@std@media@modules@2@AAU?$TRefObject@UIRefObject@core@UModSys@@U?$TRefObjectFunc@UIRefObject@core@UModSys@@@tl@3@@tl@2@PBUSUniquePointerInfo@core@2@ABUSParameters@core@2@@Z 0040fa5e f    CIL library: CIL module
 0001:0000ea5e       __ehhandler$??$t_gen_param@URDataArchiver_OsDir@stdio@media@modules@UModSys@@URGenerator@2345@@IGenerator@base@UModSys@@IAE_NPAURGenerator@stdio@media@modules@2@AAU?$TRefObject@UIRefObject@core@UModSys@@U?$TRefObjectFunc@UIRefObject@core@UModSys@@@tl@3@@tl@2@PBUSUniquePointerInfo@core@2@ABUSParameters@core@2@@Z 0040fa5e f    CIL library: CIL module
 0001:0000ea5e       __ehhandler$??$t_gen_param@URLibraryBinTree@std@media@modules@UModSys@@URGenerator@2345@@IGenerator@base@UModSys@@IAE_NPAURGenerator@std@media@modules@2@AAU?$TRefObject@UIRefObject@core@UModSys@@U?$TRefObjectFunc@UIRefObject@core@UModSys@@@tl@3@@tl@2@PBUSUniquePointerInfo@core@2@ABUSParameters@core@2@@Z 0040fa5e f    CIL library: CIL module
 0001:0000ea5e       __ehhandler$??$t_gen_param@URMediaFilter@images_std@media@modules@UModSys@@URGenerator@2345@@IGenerator@base@UModSys@@IAE_NPAURGenerator@images_std@media@modules@2@AAU?$TRefObject@UIRefObject@core@UModSys@@U?$TRefObjectFunc@UIRefObject@core@UModSys@@@tl@3@@tl@2@PBUSUniquePointerInfo@core@2@ABUSParameters@core@2@@Z 0040fa5e f    CIL library: CIL module
 0001:0000ea5e       __ehhandler$??$t_gen_param@URStreamWriter_FILE@stdio@media@modules@UModSys@@URGenerator@2345@@IGenerator@base@UModSys@@IAE_NPAURGenerator@stdio@media@modules@2@AAU?$TRefObject@UIRefObject@core@UModSys@@U?$TRefObjectFunc@UIRefObject@core@UModSys@@@tl@3@@tl@2@PBUSUniquePointerInfo@core@2@ABUSParameters@core@2@@Z 0040fa5e f    CIL library: CIL module
 0001:0000ea5e       __ehhandler$??$t_gen_param@URStreamReader_FILE@stdio@media@modules@UModSys@@URGenerator@2345@@IGenerator@base@UModSys@@IAE_NPAURGenerator@stdio@media@modules@2@AAU?$TRefObject@UIRefObject@core@UModSys@@U?$TRefObjectFunc@UIRefObject@core@UModSys@@@tl@3@@tl@2@PBUSUniquePointerInfo@core@2@ABUSParameters@core@2@@Z 0040fa5e f    CIL library: CIL module
 0001:0000ea5e       __ehhandler$??$t_gen_param@URLibraryBinCache@std@media@modules@UModSys@@URGenerator@2345@@IGenerator@base@UModSys@@IAE_NPAURGenerator@std@media@modules@2@AAU?$TRefObject@UIRefObject@core@UModSys@@U?$TRefObjectFunc@UIRefObject@core@UModSys@@@tl@3@@tl@2@PBUSUniquePointerInfo@core@2@ABUSParameters@core@2@@Z 0040fa5e f    CIL library: CIL module
 0001:0000ea70       __unwindfunclet$?obj_save@RLibraryLayered@std@media@modules@UModSys@@UAE_NABU?$TString@U?$TSCoreConst@D@su@tl@UModSys@@U?$TComparerBinaryHash@D@234@@tl@5@PBUIRefObject@core@5@ABUSObjOptions@ILibrary@libmedia@5@@Z$0 0040fa70 f    CIL library: CIL module
 0001:0000ea78       __ehhandler$?obj_save@RLibraryLayered@std@media@modules@UModSys@@UAE_NABU?$TString@U?$TSCoreConst@D@su@tl@UModSys@@U?$TComparerBinaryHash@D@234@@tl@5@PBUIRefObject@core@5@ABUSObjOptions@ILibrary@libmedia@5@@Z 0040fa78 f    CIL library: CIL module
 0001:0000ea90       __unwindfunclet$?obj_load@RLibraryLayered@std@media@modules@UModSys@@UAE_NABU?$TString@U?$TSCoreConst@D@su@tl@UModSys@@U?$TComparerBinaryHash@D@234@@tl@5@PAUIRefObject@core@5@ABUSObjOptions@ILibrary@libmedia@5@@Z$0 0040fa90 f    CIL library: CIL module
 0001:0000ea90       __unwindfunclet$?obj_get@RLibraryLayered@std@media@modules@UModSys@@UAE_NABU?$TString@U?$TSCoreConst@D@su@tl@UModSys@@U?$TComparerBinaryHash@D@234@@tl@5@AAU?$TRefObject@UIRefObject@core@UModSys@@U?$TRefObjectFunc@UIRefObject@core@UModSys@@@tl@3@@75@ABUSObjOptions@ILibrary@libmedia@5@@Z$0 0040fa90 f    CIL library: CIL module
 0001:0000ea98       __ehhandler$?obj_load@RLibraryLayered@std@media@modules@UModSys@@UAE_NABU?$TString@U?$TSCoreConst@D@su@tl@UModSys@@U?$TComparerBinaryHash@D@234@@tl@5@PAUIRefObject@core@5@ABUSObjOptions@ILibrary@libmedia@5@@Z 0040fa98 f    CIL library: CIL module
 0001:0000ea98       __ehhandler$?obj_get@RLibraryLayered@std@media@modules@UModSys@@UAE_NABU?$TString@U?$TSCoreConst@D@su@tl@UModSys@@U?$TComparerBinaryHash@D@234@@tl@5@AAU?$TRefObject@UIRefObject@core@UModSys@@U?$TRefObjectFunc@UIRefObject@core@UModSys@@@tl@3@@75@ABUSObjOptions@ILibrary@libmedia@5@@Z 0040fa98 f    CIL library: CIL module
 0001:0000eab0       __unwindfunclet$?bin_save@RLibraryLayered@std@media@modules@UModSys@@UAE_NABU?$TString@U?$TSCoreConst@D@su@tl@UModSys@@U?$TComparerBinaryHash@D@234@@tl@5@ABUSCMem@core@5@ABUSFlags@libmedia@5@@Z$1 0040fab0 f    CIL library: CIL module
 0001:0000eab8       __ehhandler$?bin_save@RLibraryLayered@std@media@modules@UModSys@@UAE_NABU?$TString@U?$TSCoreConst@D@su@tl@UModSys@@U?$TComparerBinaryHash@D@234@@tl@5@ABUSCMem@core@5@ABUSFlags@libmedia@5@@Z 0040fab8 f    CIL library: CIL module
 0001:0000ead0       __unwindfunclet$??1RLibraryBinCache@std@media@modules@UModSys@@UAE@XZ$0 0040fad0 f    CIL library: CIL module
 0001:0000ead0       __unwindfunclet$??1RLibraryBinTree@std@media@modules@UModSys@@UAE@XZ$0 0040fad0 f    CIL library: CIL module
 0001:0000ead0       __unwindfunclet$??0RLibraryBinCache@std@media@modules@UModSys@@QAE@PAUIModObject@base@4@ABUSParameters@core@4@U?$TFlags4State@USMediaFlagUid@libmedia@UModSys@@I@tl@4@@Z$0 0040fad0 f    CIL library: CIL module
 0001:0000ead0       __unwindfunclet$??1RLibraryObjFilter@std@media@modules@UModSys@@UAE@XZ$0 0040fad0 f    CIL library: CIL module
 0001:0000ead0       __unwindfunclet$??0RLibraryBinTree@std@media@modules@UModSys@@QAE@PAUIModObject@base@4@ABUSParameters@core@4@U?$TFlags4State@USMediaFlagUid@libmedia@UModSys@@I@tl@4@@Z$0 0040fad0 f    CIL library: CIL module
 0001:0000ead0       __unwindfunclet$??0RStreamReader_FILE@stdio@media@modules@UModSys@@QAE@PAUIModObject@base@4@PBD@Z$0 0040fad0 f    CIL library: CIL module
 0001:0000ead0       __unwindfunclet$??0RStreamReader_FILE@stdio@media@modules@UModSys@@QAE@PAUIModObject@base@4@ABUSParameters@core@4@@Z$0 0040fad0 f    CIL library: CIL module
 0001:0000ead0       __unwindfunclet$??1RStreamWriter_FILE@stdio@media@modules@UModSys@@UAE@XZ$0 0040fad0 f    CIL library: CIL module
 0001:0000ead0       __unwindfunclet$??0RLibraryObjCache@std@media@modules@UModSys@@QAE@PAUIModObject@base@4@ABUSParameters@core@4@U?$TFlags4State@USMediaFlagUid@libmedia@UModSys@@I@tl@4@@Z$0 0040fad0 f    CIL library: CIL module
 0001:0000ead0       __unwindfunclet$??0RStreamWriter_FILE@stdio@media@modules@UModSys@@QAE@PAUIModObject@base@4@ABUSParameters@core@4@@Z$0 0040fad0 f    CIL library: CIL module
 0001:0000ead0       __unwindfunclet$??0RLibraryObjFilter@std@media@modules@UModSys@@QAE@PAUIModObject@base@4@ABUSParameters@core@4@U?$TFlags4State@USMediaFlagUid@libmedia@UModSys@@I@tl@4@@Z$0 0040fad0 f    CIL library: CIL module
 0001:0000ead0       __unwindfunclet$??0RStreamWriter_FILE@stdio@media@modules@UModSys@@QAE@PAUIModObject@base@4@PBD_N@Z$0 0040fad0 f    CIL library: CIL module
 0001:0000ead0       __unwindfunclet$??1RLibraryObjCache@std@media@modules@UModSys@@UAE@XZ$0 0040fad0 f    CIL library: CIL module
 0001:0000ead0       __unwindfunclet$??1RDataArchiver_OsDir@stdio@media@modules@UModSys@@UAE@XZ$0 0040fad0 f    CIL library: CIL module
 0001:0000ead0       __unwindfunclet$??0RLibraryLayered@std@media@modules@UModSys@@QAE@PAUIModObject@base@4@ABUSParameters@core@4@U?$TFlags4State@USMediaFlagUid@libmedia@UModSys@@I@tl@4@@Z$0 0040fad0 f    CIL library: CIL module
 0001:0000ead8       __ehhandler$??1RDataArchiver_OsDir@stdio@media@modules@UModSys@@UAE@XZ 0040fad8 f    CIL library: CIL module
 0001:0000ead8       __ehhandler$??0RStreamWriter_FILE@stdio@media@modules@UModSys@@QAE@PAUIModObject@base@4@PBD_N@Z 0040fad8 f    CIL library: CIL module
 0001:0000ead8       __ehhandler$??0RStreamWriter_FILE@stdio@media@modules@UModSys@@QAE@PAUIModObject@base@4@ABUSParameters@core@4@@Z 0040fad8 f    CIL library: CIL module
 0001:0000ead8       __ehhandler$??0RStreamReader_FILE@stdio@media@modules@UModSys@@QAE@PAUIModObject@base@4@PBD@Z 0040fad8 f    CIL library: CIL module
 0001:0000ead8       __ehhandler$??0RLibraryObjFilter@std@media@modules@UModSys@@QAE@PAUIModObject@base@4@ABUSParameters@core@4@U?$TFlags4State@USMediaFlagUid@libmedia@UModSys@@I@tl@4@@Z 0040fad8 f    CIL library: CIL module
 0001:0000ead8       __ehhandler$??0RLibraryBinCache@std@media@modules@UModSys@@QAE@PAUIModObject@base@4@ABUSParameters@core@4@U?$TFlags4State@USMediaFlagUid@libmedia@UModSys@@I@tl@4@@Z 0040fad8 f    CIL library: CIL module
 0001:0000ead8       __ehhandler$??1RLibraryBinCache@std@media@modules@UModSys@@UAE@XZ 0040fad8 f    CIL library: CIL module
 0001:0000ead8       __ehhandler$??0RLibraryLayered@std@media@modules@UModSys@@QAE@PAUIModObject@base@4@ABUSParameters@core@4@U?$TFlags4State@USMediaFlagUid@libmedia@UModSys@@I@tl@4@@Z 0040fad8 f    CIL library: CIL module
 0001:0000ead8       __ehhandler$??0RLibraryBinTree@std@media@modules@UModSys@@QAE@PAUIModObject@base@4@ABUSParameters@core@4@U?$TFlags4State@USMediaFlagUid@libmedia@UModSys@@I@tl@4@@Z 0040fad8 f    CIL library: CIL module
 0001:0000ead8       __ehhandler$??1RLibraryBinTree@std@media@modules@UModSys@@UAE@XZ 0040fad8 f    CIL library: CIL module
 0001:0000ead8       __ehhandler$??0RLibraryObjCache@std@media@modules@UModSys@@QAE@PAUIModObject@base@4@ABUSParameters@core@4@U?$TFlags4State@USMediaFlagUid@libmedia@UModSys@@I@tl@4@@Z 0040fad8 f    CIL library: CIL module
 0001:0000ead8       __ehhandler$??1RLibraryObjFilter@std@media@modules@UModSys@@UAE@XZ 0040fad8 f    CIL library: CIL module
 0001:0000ead8       __ehhandler$??0RStreamReader_FILE@stdio@media@modules@UModSys@@QAE@PAUIModObject@base@4@ABUSParameters@core@4@@Z 0040fad8 f    CIL library: CIL module
 0001:0000ead8       __ehhandler$??1RLibraryObjCache@std@media@modules@UModSys@@UAE@XZ 0040fad8 f    CIL library: CIL module
 0001:0000ead8       __ehhandler$??1RStreamWriter_FILE@stdio@media@modules@UModSys@@UAE@XZ 0040fad8 f    CIL library: CIL module
 0001:0000eaf0       __unwindfunclet$??0RMediaFilter@images_std@media@modules@UModSys@@QAE@PAUIModObject@base@4@ABUSParameters@core@4@@Z$0 0040faf0 f    CIL library: CIL module
 0001:0000eaf0       __unwindfunclet$??1RMediaFilter@images_std@media@modules@UModSys@@UAE@XZ$0 0040faf0 f    CIL library: CIL module
 0001:0000eaf8       __unwindfunclet$??0RMediaFilter@images_std@media@modules@UModSys@@QAE@PAUIModObject@base@4@ABUSParameters@core@4@@Z$1 0040faf8 f    CIL library: CIL module
 0001:0000eaf8       __unwindfunclet$??1RMediaFilter@images_std@media@modules@UModSys@@UAE@XZ$1 0040faf8 f    CIL library: CIL module
 0001:0000eb03       __ehhandler$??1RMediaFilter@images_std@media@modules@UModSys@@UAE@XZ 0040fb03 f    CIL library: CIL module
 0001:0000eb03       __ehhandler$??0RMediaFilter@images_std@media@modules@UModSys@@QAE@PAUIModObject@base@4@ABUSParameters@core@4@@Z 0040fb03 f    CIL library: CIL module
 0001:0000eb10       __unwindfunclet$??0?$TScatterArrayNode@USCacheElem@RLibraryObjCache@std@media@modules@UModSys@@U?$TString@U?$TSCoreConst@D@su@tl@UModSys@@U?$TComparerBinaryHash@D@234@@tl@6@@tl@UModSys@@QAE@ABU?$TString@U?$TSCoreConst@D@su@tl@UModSys@@U?$TComparerBinaryHash@D@234@@12@@Z$0 0040fb10 f    CIL library: CIL module
 0001:0000eb1a       __unwindfunclet$??0?$TScatterArrayNode@USCacheElem@RLibraryObjCache@std@media@modules@UModSys@@U?$TString@U?$TSCoreConst@D@su@tl@UModSys@@U?$TComparerBinaryHash@D@234@@tl@6@@tl@UModSys@@QAE@ABU?$TString@U?$TSCoreConst@D@su@tl@UModSys@@U?$TComparerBinaryHash@D@234@@12@@Z$1 0040fb1a f    CIL library: CIL module
 0001:0000eb25       __ehhandler$??0?$TScatterArrayNode@USCacheElem@RLibraryObjCache@std@media@modules@UModSys@@U?$TString@U?$TSCoreConst@D@su@tl@UModSys@@U?$TComparerBinaryHash@D@234@@tl@6@@tl@UModSys@@QAE@ABU?$TString@U?$TSCoreConst@D@su@tl@UModSys@@U?$TComparerBinaryHash@D@234@@12@@Z 0040fb25 f    CIL library: CIL module
 0001:0000eb30       __unwindfunclet$??0?$TScatterArrayNode@USMountInfo@RLibraryBinTree@std@media@modules@UModSys@@USId@ILibraryBinTree@libmedia@6@@tl@UModSys@@QAE@ABUSId@ILibraryBinTree@libmedia@2@@Z$0 0040fb30 f    CIL library: CIL module
 0001:0000eb3a       __unwindfunclet$??0?$TScatterArrayNode@USMountInfo@RLibraryBinTree@std@media@modules@UModSys@@USId@ILibraryBinTree@libmedia@6@@tl@UModSys@@QAE@ABUSId@ILibraryBinTree@libmedia@2@@Z$1 0040fb3a f    CIL library: CIL module
 0001:0000eb45       __ehhandler$??0?$TScatterArrayNode@USMountInfo@RLibraryBinTree@std@media@modules@UModSys@@USId@ILibraryBinTree@libmedia@6@@tl@UModSys@@QAE@ABUSId@ILibraryBinTree@libmedia@2@@Z 0040fb45 f    CIL library: CIL module
 0001:0000eb50       __unwindfunclet$??0?$TScatterArrayNode@USCacheElem@RLibraryBinCache@std@media@modules@UModSys@@U?$TString@U?$TSCoreConst@D@su@tl@UModSys@@U?$TComparerBinaryHash@D@234@@tl@6@@tl@UModSys@@QAE@ABU?$TString@U?$TSCoreConst@D@su@tl@UModSys@@U?$TComparerBinaryHash@D@234@@12@@Z$0 0040fb50 f    CIL library: CIL module
 0001:0000eb5a       __unwindfunclet$??0?$TScatterArrayNode@USCacheElem@RLibraryBinCache@std@media@modules@UModSys@@U?$TString@U?$TSCoreConst@D@su@tl@UModSys@@U?$TComparerBinaryHash@D@234@@tl@6@@tl@UModSys@@QAE@ABU?$TString@U?$TSCoreConst@D@su@tl@UModSys@@U?$TComparerBinaryHash@D@234@@12@@Z$1 0040fb5a f    CIL library: CIL module
 0001:0000eb65       __ehhandler$??0?$TScatterArrayNode@USCacheElem@RLibraryBinCache@std@media@modules@UModSys@@U?$TString@U?$TSCoreConst@D@su@tl@UModSys@@U?$TComparerBinaryHash@D@234@@tl@6@@tl@UModSys@@QAE@ABU?$TString@U?$TSCoreConst@D@su@tl@UModSys@@U?$TComparerBinaryHash@D@234@@12@@Z 0040fb65 f    CIL library: CIL module
 0001:0000eb70       __unwindfunclet$?amoveleft@?$TTypeConstructor@U?$TRefObject@URModuleLibrarySO@rsystem@base@UModSys@@U?$TRefObjectFunc@URModuleLibrarySO@rsystem@base@UModSys@@@tl@4@@tl@UModSys@@@tl@UModSys@@SAXPAU?$TRefObject@URModuleLibrarySO@rsystem@base@UModSys@@U?$TRefObjectFunc@URModuleLibrarySO@rsystem@base@UModSys@@@tl@4@@23@III@Z$0 0040fb70 f    CIL library: CIL module
 0001:0000eb70       __unwindfunclet$?amoveright@?$TTypeConstructor@USLayerX@RLibraryLayered@std@media@modules@UModSys@@@tl@UModSys@@SAXPAUSLayerX@RLibraryLayered@std@media@modules@3@III@Z$0 0040fb70 f    CIL library: CIL module
 0001:0000eb70       __unwindfunclet$?aconstruct@?$TTypeConstructor@USLayerX@RLibraryLayered@std@media@modules@UModSys@@@tl@UModSys@@SAXPAUSLayerX@RLibraryLayered@std@media@modules@3@I@Z$0 0040fb70 f    CIL library: CIL module
 0001:0000eb70       __unwindfunclet$??RGen0@?$TScatterArray@USCacheElem@RLibraryBinCache@std@media@modules@UModSys@@U?$TString@U?$TSCoreConst@D@su@tl@UModSys@@U?$TComparerBinaryHash@D@234@@tl@6@U?$TObjectCompare@U?$TString@U?$TSCoreConst@D@su@tl@UModSys@@U?$TComparerBinaryHash@D@234@@tl@UModSys@@@core@6@U?$TNodeDeleter0@U?$TScatterArrayNode@USCacheElem@RLibraryBinCache@std@media@modules@UModSys@@U?$TString@U?$TSCoreConst@D@su@tl@UModSys@@U?$TComparerBinaryHash@D@234@@tl@6@@tl@UModSys@@@86@@tl@UModSys@@QBEPAU?$TScatterArrayNode@USCacheElem@RLibraryBinCache@std@media@modules@UModSys@@U?$TString@U?$TSCoreConst@D@su@tl@UModSys@@U?$TComparerBinaryHash@D@234@@tl@6@@23@ABUCmp@123@ABU?$TTreeHoldRBD@U?$TScatterArrayNode@USCacheElem@RLibraryBinCache@std@media@modules@UModSys@@U?$TString@U?$TSCoreConst@D@su@tl@UModSys@@U?$TComparerBinaryHash@D@234@@tl@6@@tl@UModSys@@U?$TNodeDeleter0@U?$TScatterArrayNode@USCacheElem@RLibraryBinCache@std@media@modules@UModSys@@U?$TString@U?$TSCoreConst@D@su@tl@UModSys@@U?$TComparerBinaryHash@D@234@@tl@6@@tl@UModSys@@@23@@23@@Z$0 0040fb70 f    CIL library: CIL module
 0001:0000eb70       __unwindfunclet$?amoveleft@?$TTypeConstructor@USLayerX@RLibraryLayered@std@media@modules@UModSys@@@tl@UModSys@@SAXPAUSLayerX@RLibraryLayered@std@media@modules@3@III@Z$0 0040fb70 f    CIL library: CIL module
 0001:0000eb70       __unwindfunclet$??RGen0@?$TScatterArray@USMountInfo@RLibraryBinTree@std@media@modules@UModSys@@USId@ILibraryBinTree@libmedia@6@U7896@U?$TNodeDeleter0@U?$TScatterArrayNode@USMountInfo@RLibraryBinTree@std@media@modules@UModSys@@USId@ILibraryBinTree@libmedia@6@@tl@UModSys@@@tl@6@@tl@UModSys@@QBEPAU?$TScatterArrayNode@USMountInfo@RLibraryBinTree@std@media@modules@UModSys@@USId@ILibraryBinTree@libmedia@6@@23@ABUCmp@123@ABU?$TTreeHoldRBD@U?$TScatterArrayNode@USMountInfo@RLibraryBinTree@std@media@modules@UModSys@@USId@ILibraryBinTree@libmedia@6@@tl@UModSys@@U?$TNodeDeleter0@U?$TScatterArrayNode@USMountInfo@RLibraryBinTree@std@media@modules@UModSys@@USId@ILibraryBinTree@libmedia@6@@tl@UModSys@@@23@@23@@Z$0 0040fb70 f    CIL library: CIL module
 0001:0000eb70       __unwindfunclet$??RGen0@?$TScatterArray@USCacheElem@RLibraryObjCache@std@media@modules@UModSys@@U?$TString@U?$TSCoreConst@D@su@tl@UModSys@@U?$TComparerBinaryHash@D@234@@tl@6@U?$TObjectCompare@U?$TString@U?$TSCoreConst@D@su@tl@UModSys@@U?$TComparerBinaryHash@D@234@@tl@UModSys@@@core@6@U?$TNodeDeleter0@U?$TScatterArrayNode@USCacheElem@RLibraryObjCache@std@media@modules@UModSys@@U?$TString@U?$TSCoreConst@D@su@tl@UModSys@@U?$TComparerBinaryHash@D@234@@tl@6@@tl@UModSys@@@86@@tl@UModSys@@QBEPAU?$TScatterArrayNode@USCacheElem@RLibraryObjCache@std@media@modules@UModSys@@U?$TString@U?$TSCoreConst@D@su@tl@UModSys@@U?$TComparerBinaryHash@D@234@@tl@6@@23@ABUCmp@123@ABU?$TTreeHoldRBD@U?$TScatterArrayNode@USCacheElem@RLibraryObjCache@std@media@modules@UModSys@@U?$TString@U?$TSCoreConst@D@su@tl@UModSys@@U?$TComparerBinaryHash@D@234@@tl@6@@tl@UModSys@@U?$TNodeDeleter0@U?$TScatterArrayNode@USCacheElem@RLibraryObjCache@std@media@modules@UModSys@@U?$TString@U?$TSCoreConst@D@su@tl@UModSys@@U?$TComparerBinaryHash@D@234@@tl@6@@tl@UModSys@@@23@@23@@Z$0 0040fb70 f    CIL library: CIL module
 0001:0000eb75       __ehhandler$?amoveright@?$TTypeConstructor@USLayerX@RLibraryLayered@std@media@modules@UModSys@@@tl@UModSys@@SAXPAUSLayerX@RLibraryLayered@std@media@modules@3@III@Z 0040fb75 f    CIL library: CIL module
 0001:0000eb75       __ehhandler$?amoveleft@?$TTypeConstructor@U?$TRefObject@URModuleLibrarySO@rsystem@base@UModSys@@U?$TRefObjectFunc@URModuleLibrarySO@rsystem@base@UModSys@@@tl@4@@tl@UModSys@@@tl@UModSys@@SAXPAU?$TRefObject@URModuleLibrarySO@rsystem@base@UModSys@@U?$TRefObjectFunc@URModuleLibrarySO@rsystem@base@UModSys@@@tl@4@@23@III@Z 0040fb75 f    CIL library: CIL module
 0001:0000eb75       __ehhandler$??RGen0@?$TScatterArray@USMountInfo@RLibraryBinTree@std@media@modules@UModSys@@USId@ILibraryBinTree@libmedia@6@U7896@U?$TNodeDeleter0@U?$TScatterArrayNode@USMountInfo@RLibraryBinTree@std@media@modules@UModSys@@USId@ILibraryBinTree@libmedia@6@@tl@UModSys@@@tl@6@@tl@UModSys@@QBEPAU?$TScatterArrayNode@USMountInfo@RLibraryBinTree@std@media@modules@UModSys@@USId@ILibraryBinTree@libmedia@6@@23@ABUCmp@123@ABU?$TTreeHoldRBD@U?$TScatterArrayNode@USMountInfo@RLibraryBinTree@std@media@modules@UModSys@@USId@ILibraryBinTree@libmedia@6@@tl@UModSys@@U?$TNodeDeleter0@U?$TScatterArrayNode@USMountInfo@RLibraryBinTree@std@media@modules@UModSys@@USId@ILibraryBinTree@libmedia@6@@tl@UModSys@@@23@@23@@Z 0040fb75 f    CIL library: CIL module
 0001:0000eb75       __ehhandler$?amoveleft@?$TTypeConstructor@USLayerX@RLibraryLayered@std@media@modules@UModSys@@@tl@UModSys@@SAXPAUSLayerX@RLibraryLayered@std@media@modules@3@III@Z 0040fb75 f    CIL library: CIL module
 0001:0000eb75       __ehhandler$?aconstruct@?$TTypeConstructor@USLayerX@RLibraryLayered@std@media@modules@UModSys@@@tl@UModSys@@SAXPAUSLayerX@RLibraryLayered@std@media@modules@3@I@Z 0040fb75 f    CIL library: CIL module
 0001:0000eb75       __ehhandler$??RGen0@?$TScatterArray@USCacheElem@RLibraryBinCache@std@media@modules@UModSys@@U?$TString@U?$TSCoreConst@D@su@tl@UModSys@@U?$TComparerBinaryHash@D@234@@tl@6@U?$TObjectCompare@U?$TString@U?$TSCoreConst@D@su@tl@UModSys@@U?$TComparerBinaryHash@D@234@@tl@UModSys@@@core@6@U?$TNodeDeleter0@U?$TScatterArrayNode@USCacheElem@RLibraryBinCache@std@media@modules@UModSys@@U?$TString@U?$TSCoreConst@D@su@tl@UModSys@@U?$TComparerBinaryHash@D@234@@tl@6@@tl@UModSys@@@86@@tl@UModSys@@QBEPAU?$TScatterArrayNode@USCacheElem@RLibraryBinCache@std@media@modules@UModSys@@U?$TString@U?$TSCoreConst@D@su@tl@UModSys@@U?$TComparerBinaryHash@D@234@@tl@6@@23@ABUCmp@123@ABU?$TTreeHoldRBD@U?$TScatterArrayNode@USCacheElem@RLibraryBinCache@std@media@modules@UModSys@@U?$TString@U?$TSCoreConst@D@su@tl@UModSys@@U?$TComparerBinaryHash@D@234@@tl@6@@tl@UModSys@@U?$TNodeDeleter0@U?$TScatterArrayNode@USCacheElem@RLibraryBinCache@std@media@modules@UModSys@@U?$TString@U?$TSCoreConst@D@su@tl@UModSys@@U?$TComparerBinaryHash@D@234@@tl@6@@tl@UModSys@@@23@@23@@Z 0040fb75 f    CIL library: CIL module
 0001:0000eb75       __ehhandler$??RGen0@?$TScatterArray@USCacheElem@RLibraryObjCache@std@media@modules@UModSys@@U?$TString@U?$TSCoreConst@D@su@tl@UModSys@@U?$TComparerBinaryHash@D@234@@tl@6@U?$TObjectCompare@U?$TString@U?$TSCoreConst@D@su@tl@UModSys@@U?$TComparerBinaryHash@D@234@@tl@UModSys@@@core@6@U?$TNodeDeleter0@U?$TScatterArrayNode@USCacheElem@RLibraryObjCache@std@media@modules@UModSys@@U?$TString@U?$TSCoreConst@D@su@tl@UModSys@@U?$TComparerBinaryHash@D@234@@tl@6@@tl@UModSys@@@86@@tl@UModSys@@QBEPAU?$TScatterArrayNode@USCacheElem@RLibraryObjCache@std@media@modules@UModSys@@U?$TString@U?$TSCoreConst@D@su@tl@UModSys@@U?$TComparerBinaryHash@D@234@@tl@6@@23@ABUCmp@123@ABU?$TTreeHoldRBD@U?$TScatterArrayNode@USCacheElem@RLibraryObjCache@std@media@modules@UModSys@@U?$TString@U?$TSCoreConst@D@su@tl@UModSys@@U?$TComparerBinaryHash@D@234@@tl@6@@tl@UModSys@@U?$TNodeDeleter0@U?$TScatterArrayNode@USCacheElem@RLibraryObjCache@std@media@modules@UModSys@@U?$TString@U?$TSCoreConst@D@su@tl@UModSys@@U?$TComparerBinaryHash@D@234@@tl@6@@tl@UModSys@@@23@@23@@Z 0040fb75 f    CIL library: CIL module
 0001:0000eb80       __unwindfunclet$?mount_add@RLibraryBinTree@std@media@modules@UModSys@@UAE_NABUSId@ILibraryBinTree@libmedia@5@ABUSPoint@785@@Z$0 0040fb80 f    CIL library: CIL module
 0001:0000eb88       __ehhandler$?mount_add@RLibraryBinTree@std@media@modules@UModSys@@UAE_NABUSId@ILibraryBinTree@libmedia@5@ABUSPoint@785@@Z 0040fb88 f    CIL library: CIL module
 0001:0000eba0       __unwindfunclet$?objcache_add@RLibraryObjCache@std@media@modules@UModSys@@UAE_NABU?$TString@U?$TSCoreConst@D@su@tl@UModSys@@U?$TComparerBinaryHash@D@234@@tl@5@PAUIRefObject@core@5@@Z$0 0040fba0 f    CIL library: CIL module
 0001:0000eba0       __unwindfunclet$?bincache_add@RLibraryBinCache@std@media@modules@UModSys@@QAE_NABU?$TString@U?$TSCoreConst@D@su@tl@UModSys@@U?$TComparerBinaryHash@D@234@@tl@5@ABUSCMemShared@core@5@_N@Z$0 0040fba0 f    CIL library: CIL module
 0001:0000eba8       __ehhandler$?bincache_add@RLibraryBinCache@std@media@modules@UModSys@@QAE_NABU?$TString@U?$TSCoreConst@D@su@tl@UModSys@@U?$TComparerBinaryHash@D@234@@tl@5@ABUSCMemShared@core@5@_N@Z 0040fba8 f    CIL library: CIL module
 0001:0000eba8       __ehhandler$?objcache_add@RLibraryObjCache@std@media@modules@UModSys@@UAE_NABU?$TString@U?$TSCoreConst@D@su@tl@UModSys@@U?$TComparerBinaryHash@D@234@@tl@5@PAUIRefObject@core@5@@Z 0040fba8 f    CIL library: CIL module
 0001:0000ebc0       __unwindfunclet$?bincache_add@RLibraryBinCache@std@media@modules@UModSys@@UAE_NABU?$TString@U?$TSCoreConst@D@su@tl@UModSys@@U?$TComparerBinaryHash@D@234@@tl@5@@Z$0 0040fbc0 f    CIL library: CIL module
 0001:0000ebc8       __ehhandler$?bincache_add@RLibraryBinCache@std@media@modules@UModSys@@UAE_NABU?$TString@U?$TSCoreConst@D@su@tl@UModSys@@U?$TComparerBinaryHash@D@234@@tl@5@@Z 0040fbc8 f    CIL library: CIL module
 0001:0000ebe0       __unwindfunclet$?mem_free@?$TRMemAlloc_CC@U?$TMemAllocHeader@USMagic@mem_headers@rsystem@base@UModSys@@U?$TPool@X@2345@USDebug@2345@UVoid@core@5@U895@@rsystem@base@UModSys@@USMemAlloc_Malloc@core@4@@rsystem@base@UModSys@@UAEXPAXPBUSSourceContext@core@4@@Z$0 0040fbe0 f    CIL library: CIL module
 0001:0000ebe8       __ehhandler$?mem_free@?$TRMemAlloc_CC@U?$TMemAllocHeader@USMagic@mem_headers@rsystem@base@UModSys@@U?$TPool@X@2345@USDebug@2345@UVoid@core@5@U895@@rsystem@base@UModSys@@USMemAlloc_Malloc@core@4@@rsystem@base@UModSys@@UAEXPAXPBUSSourceContext@core@4@@Z 0040fbe8 f    CIL library: CIL module
 0001:0000ec00       __unwindfunclet$?mem_realloc@?$TRMemAlloc_CC@U?$TMemAllocHeader@USMagic@mem_headers@rsystem@base@UModSys@@U?$TPool@X@2345@USDebug@2345@UVoid@core@5@U895@@rsystem@base@UModSys@@USMemAlloc_Malloc@core@4@@rsystem@base@UModSys@@UAEPAXPAXIPBUSSourceContext@core@4@@Z$0 0040fc00 f    CIL library: CIL module
 0001:0000ec08       __unwindfunclet$?mem_realloc@?$TRMemAlloc_CC@U?$TMemAllocHeader@USMagic@mem_headers@rsystem@base@UModSys@@U?$TPool@X@2345@USDebug@2345@UVoid@core@5@U895@@rsystem@base@UModSys@@USMemAlloc_Malloc@core@4@@rsystem@base@UModSys@@UAEPAXPAXIPBUSSourceContext@core@4@@Z$1 0040fc08 f    CIL library: CIL module
 0001:0000ec10       __ehhandler$?mem_realloc@?$TRMemAlloc_CC@U?$TMemAllocHeader@USMagic@mem_headers@rsystem@base@UModSys@@U?$TPool@X@2345@USDebug@2345@UVoid@core@5@U895@@rsystem@base@UModSys@@USMemAlloc_Malloc@core@4@@rsystem@base@UModSys@@UAEPAXPAXIPBUSSourceContext@core@4@@Z 0040fc10 f    CIL library: CIL module
 0001:0000ec20       ??__E?s_id@?$TObjectUniqueID@UIRoot@core@UModSys@@@tl@UModSys@@2USUniquePointer@core@3@A@@YAXXZ 0040fc20 f    CIL library: CIL module
 0001:0000ec50       ??__E?s_id@?$TObjectUniqueID@UIRefObject@core@UModSys@@@tl@UModSys@@2USUniquePointer@core@3@A@@YAXXZ 0040fc50 f    CIL library: CIL module
 0001:0000ec80       ??__E?s_id@?$TObjectUniqueID@UIParameters@core@UModSys@@@tl@UModSys@@2USUniquePointer@core@3@A@@YAXXZ 0040fc80 f    CIL library: CIL module
 0001:0000ecb0       ??__E?s_id@?$TObjectUniqueID@UIModule@base@UModSys@@@tl@UModSys@@2USUniquePointer@core@3@A@@YAXXZ 0040fcb0 f    CIL library: CIL module
 0001:0000ece0       ??__E?s_id@?$TObjectUniqueID@UIModuleLibrary@base@UModSys@@@tl@UModSys@@2USUniquePointer@core@3@A@@YAXXZ 0040fce0 f    CIL library: CIL module
 0001:0000ed10       ??__E?s_id@?$TObjectUniqueID@UIModObject@base@UModSys@@@tl@UModSys@@2USUniquePointer@core@3@A@@YAXXZ 0040fd10 f    CIL library: CIL module
 0001:0000ed40       ??__E?s_id@?$TObjectUniqueID@UIGenerator@base@UModSys@@@tl@UModSys@@2USUniquePointer@core@3@A@@YAXXZ 0040fd40 f    CIL library: CIL module
 0001:0000ed70       ??__E?s_id@?$TObjectUniqueID@UIShell@base@UModSys@@@tl@UModSys@@2USUniquePointer@core@3@A@@YAXXZ 0040fd70 f    CIL library: CIL module
 0001:0000eda0       ??__E?s_id@?$TObjectUniqueID@UIConsole@base@UModSys@@@tl@UModSys@@2USUniquePointer@core@3@A@@YAXXZ 0040fda0 f    CIL library: CIL module
 0001:0000edd0       ??__E?s_id@?$TObjectUniqueID@UISystem@base@UModSys@@@tl@UModSys@@2USUniquePointer@core@3@A@@YAXXZ 0040fdd0 f    CIL library: CIL module
 0001:0000ee00       ??__E?s_id@?$TObjectUniqueID@URModule@rsystem@base@UModSys@@@tl@UModSys@@2USUniquePointer@core@3@A@@YAXXZ 0040fe00 f    CIL library: CIL module
 0001:0000ee30       ??__E?s_id@?$TObjectUniqueID@UIModuleLibraryUni@rsystem@base@UModSys@@@tl@UModSys@@2USUniquePointer@core@3@A@@YAXXZ 0040fe30 f    CIL library: CIL module
 0001:0000ee60       ??__E?s_id@?$TObjectUniqueID@URModuleLibrarySO@rsystem@base@UModSys@@@tl@UModSys@@2USUniquePointer@core@3@A@@YAXXZ 0040fe60 f    CIL library: CIL module
 0001:0000ee90       ??__E?s_id@?$TObjectUniqueID@URModuleLibraryThis@rsystem@base@UModSys@@@tl@UModSys@@2USUniquePointer@core@3@A@@YAXXZ 0040fe90 f    CIL library: CIL module
 0001:0000eec0       ??__E?s_id@?$TObjectUniqueID@URParameters@rsystem@base@UModSys@@@tl@UModSys@@2USUniquePointer@core@3@A@@YAXXZ 0040fec0 f    CIL library: CIL module
 0001:0000eef0       ??__E?s_id@?$TObjectUniqueID@URSystem@rsystem@base@UModSys@@@tl@UModSys@@2USUniquePointer@core@3@A@@YAXXZ 0040fef0 f    CIL library: CIL module
 0001:0000ef20       ??__E?s_id@?$TObjectUniqueID@URConsole_std@rsystem@base@UModSys@@@tl@UModSys@@2USUniquePointer@core@3@A@@YAXXZ 0040ff20 f    CIL library: CIL module
 0001:0000ef50       ??__E?s_modreg@RModuleReg@std@media@modules@UModSys@@2U12345@A@@YAXXZ 0040ff50 f    CIL library: CIL module
 0001:0000ef80       ??__E?s_modreg_chain@RModuleReg@std@media@modules@UModSys@@2USModuleRegChain@base@5@A@@YAXXZ 0040ff80 f    CIL library: CIL module
 0001:0000efa0       ??__E?s_uid@RGenerator@std@media@modules@UModSys@@2USUniquePointer@core@5@A@@YAXXZ 0040ffa0 f    CIL library: CIL module
 0001:0000efd0       ??__E?s_id@?$TObjectUniqueID@UIStreamReader@libmedia@UModSys@@@tl@UModSys@@2USUniquePointer@core@3@A@@YAXXZ 0040ffd0 f    CIL library: CIL module
 0001:0000f000       ??__E?s_id@?$TObjectUniqueID@UIStreamWriter@libmedia@UModSys@@@tl@UModSys@@2USUniquePointer@core@3@A@@YAXXZ 00410000 f    CIL library: CIL module
 0001:0000f030       ??__E?s_id@?$TObjectUniqueID@UIBinArchive@libmedia@UModSys@@@tl@UModSys@@2USUniquePointer@core@3@A@@YAXXZ 00410030 f    CIL library: CIL module
 0001:0000f060       ??__E?s_id@?$TObjectUniqueID@UIBinObjFilter@libmedia@UModSys@@@tl@UModSys@@2USUniquePointer@core@3@A@@YAXXZ 00410060 f    CIL library: CIL module
 0001:0000f090       ??__E?s_id@?$TObjectUniqueID@UILibrary@libmedia@UModSys@@@tl@UModSys@@2USUniquePointer@core@3@A@@YAXXZ 00410090 f    CIL library: CIL module
 0001:0000f0c0       ??__E?s_id@?$TObjectUniqueID@UILibraryBinTree@libmedia@UModSys@@@tl@UModSys@@2USUniquePointer@core@3@A@@YAXXZ 004100c0 f    CIL library: CIL module
 0001:0000f0f0       ??__E?s_id@?$TObjectUniqueID@UILibraryBinCache@libmedia@UModSys@@@tl@UModSys@@2USUniquePointer@core@3@A@@YAXXZ 004100f0 f    CIL library: CIL module
 0001:0000f120       ??__E?s_id@?$TObjectUniqueID@UILibraryObjFilter@libmedia@UModSys@@@tl@UModSys@@2USUniquePointer@core@3@A@@YAXXZ 00410120 f    CIL library: CIL module
 0001:0000f150       ??__E?s_id@?$TObjectUniqueID@UILibraryObjCache@libmedia@UModSys@@@tl@UModSys@@2USUniquePointer@core@3@A@@YAXXZ 00410150 f    CIL library: CIL module
 0001:0000f180       ??__E?s_id@?$TObjectUniqueID@UILibraryLayered@libmedia@UModSys@@@tl@UModSys@@2USUniquePointer@core@3@A@@YAXXZ 00410180 f    CIL library: CIL module
 0001:0000f1b0       ??__E?s_id@?$TObjectUniqueID@URLibraryBinCache@std@media@modules@UModSys@@@tl@UModSys@@2USUniquePointer@core@3@A@@YAXXZ 004101b0 f    CIL library: CIL module
 0001:0000f1e0       ??__E?s_id@?$TObjectUniqueID@URLibraryBinTree@std@media@modules@UModSys@@@tl@UModSys@@2USUniquePointer@core@3@A@@YAXXZ 004101e0 f    CIL library: CIL module
 0001:0000f210       ??__E?s_id@?$TObjectUniqueID@URLibraryLayered@std@media@modules@UModSys@@@tl@UModSys@@2USUniquePointer@core@3@A@@YAXXZ 00410210 f    CIL library: CIL module
 0001:0000f240       ??__E?s_id@?$TObjectUniqueID@URLibraryObjCache@std@media@modules@UModSys@@@tl@UModSys@@2USUniquePointer@core@3@A@@YAXXZ 00410240 f    CIL library: CIL module
 0001:0000f270       ??__E?s_id@?$TObjectUniqueID@URLibraryObjFilter@std@media@modules@UModSys@@@tl@UModSys@@2USUniquePointer@core@3@A@@YAXXZ 00410270 f    CIL library: CIL module
 0001:0000f2a0       ??__E?s_id@?$TObjectUniqueID@URGenerator@std@media@modules@UModSys@@@tl@UModSys@@2USUniquePointer@core@3@A@@YAXXZ 004102a0 f    CIL library: CIL module
 0001:0000f2d0       ??__E?s_modreg@RModuleReg@images_std@media@modules@UModSys@@2U12345@A@@YAXXZ 004102d0 f    CIL library: CIL module
 0001:0000f300       ??__E?s_modreg_chain@RModuleReg@images_std@media@modules@UModSys@@2USModuleRegChain@base@5@A@@YAXXZ 00410300 f    CIL library: CIL module
 0001:0000f320       ??__E?s_uid@RGenerator@images_std@media@modules@UModSys@@2USUniquePointer@core@5@A@@YAXXZ 00410320 f    CIL library: CIL module
 0001:0000f350       ??__E?s_id@?$TObjectUniqueID@UIImage@lib2d@UModSys@@@tl@UModSys@@2USUniquePointer@core@3@A@@YAXXZ 00410350 f    CIL library: CIL module
 0001:0000f380       ??__E?s_id@?$TObjectUniqueID@UIMultiImage@lib2d@UModSys@@@tl@UModSys@@2USUniquePointer@core@3@A@@YAXXZ 00410380 f    CIL library: CIL module
 0001:0000f3b0       ??__E?s_id@?$TObjectUniqueID@URMediaFilter@images_std@media@modules@UModSys@@@tl@UModSys@@2USUniquePointer@core@3@A@@YAXXZ 004103b0 f    CIL library: CIL module
 0001:0000f3e0       ??__E?s_id@?$TObjectUniqueID@URGenerator@images_std@media@modules@UModSys@@@tl@UModSys@@2USUniquePointer@core@3@A@@YAXXZ 004103e0 f    CIL library: CIL module
 0001:0000f410       ??__E?s_modreg@RModuleReg@stdio@media@modules@UModSys@@2U12345@A@@YAXXZ 00410410 f    CIL library: CIL module
 0001:0000f440       ??__E?s_modreg_chain@RModuleReg@stdio@media@modules@UModSys@@2USModuleRegChain@base@5@A@@YAXXZ 00410440 f    CIL library: CIL module
 0001:0000f460       ??__E?s_uid@RGenerator@stdio@media@modules@UModSys@@2USUniquePointer@core@5@A@@YAXXZ 00410460 f    CIL library: CIL module
 0001:0000f490       ??__E?s_id@?$TObjectUniqueID@URStreamReader_FILE@stdio@media@modules@UModSys@@@tl@UModSys@@2USUniquePointer@core@3@A@@YAXXZ 00410490 f    CIL library: CIL module
 0001:0000f4c0       ??__E?s_id@?$TObjectUniqueID@URStreamWriter_FILE@stdio@media@modules@UModSys@@@tl@UModSys@@2USUniquePointer@core@3@A@@YAXXZ 004104c0 f    CIL library: CIL module
 0001:0000f4f0       ??__E?s_id@?$TObjectUniqueID@URDataArchiver_OsDir@stdio@media@modules@UModSys@@@tl@UModSys@@2USUniquePointer@core@3@A@@YAXXZ 004104f0 f    CIL library: CIL module
 0001:0000f520       ??__E?s_id@?$TObjectUniqueID@URGenerator@stdio@media@modules@UModSys@@@tl@UModSys@@2USUniquePointer@core@3@A@@YAXXZ 00410520 f    CIL library: CIL module
 0001:0000f550       ??__E?s_console@RConsole_std@rsystem@base@UModSys@@2U1234@A@@YAXXZ 00410550 f    CIL library: CIL module
 0001:0000f570       ??__E?s_sys@RSystem@rsystem@base@UModSys@@2U1234@A@@YAXXZ 00410570 f    CIL library: CIL module
 0001:0000f590       ??__Ersys_dbg@rsystem@base@UModSys@@YAXXZ 00410590 f    CIL library: CIL module
 0001:0000f5b0       ??__EM@UModSys@@YAXXZ      004105b0 f    CIL library: CIL module
 0001:0000f5d0       ??__E?root@SModuleRegChain@base@UModSys@@2U123@A@@YAXXZ 004105d0 f    CIL library: CIL module
 0001:0000f5f0       ??__E?s_library@RModuleLibraryReg_Chain@base@UModSys@@2U123@A@@YAXXZ 004105f0 f    CIL library: CIL module
 0001:0000f610       ??__E?root@SUniquePointer@core@UModSys@@2U123@A@@YAXXZ 00410610 f    CIL library: CIL module
 0001:0000f630       ??__F?s_id@?$TObjectUniqueID@URConsole_std@rsystem@base@UModSys@@@tl@UModSys@@2USUniquePointer@core@3@A@@YAXXZ 00410630 f    CIL library: CIL module
 0001:0000f640       ??__F?s_id@?$TObjectUniqueID@URSystem@rsystem@base@UModSys@@@tl@UModSys@@2USUniquePointer@core@3@A@@YAXXZ 00410640 f    CIL library: CIL module
 0001:0000f650       ??__F?s_id@?$TObjectUniqueID@URParameters@rsystem@base@UModSys@@@tl@UModSys@@2USUniquePointer@core@3@A@@YAXXZ 00410650 f    CIL library: CIL module
 0001:0000f660       ??__F?s_id@?$TObjectUniqueID@URModuleLibraryThis@rsystem@base@UModSys@@@tl@UModSys@@2USUniquePointer@core@3@A@@YAXXZ 00410660 f    CIL library: CIL module
 0001:0000f670       ??__F?s_id@?$TObjectUniqueID@URModuleLibrarySO@rsystem@base@UModSys@@@tl@UModSys@@2USUniquePointer@core@3@A@@YAXXZ 00410670 f    CIL library: CIL module
 0001:0000f680       ??__F?s_id@?$TObjectUniqueID@UIModuleLibraryUni@rsystem@base@UModSys@@@tl@UModSys@@2USUniquePointer@core@3@A@@YAXXZ 00410680 f    CIL library: CIL module
 0001:0000f690       ??__F?s_id@?$TObjectUniqueID@URModule@rsystem@base@UModSys@@@tl@UModSys@@2USUniquePointer@core@3@A@@YAXXZ 00410690 f    CIL library: CIL module
 0001:0000f6a0       ??__F?s_id@?$TObjectUniqueID@UISystem@base@UModSys@@@tl@UModSys@@2USUniquePointer@core@3@A@@YAXXZ 004106a0 f    CIL library: CIL module
 0001:0000f6b0       ??__F?s_id@?$TObjectUniqueID@UIConsole@base@UModSys@@@tl@UModSys@@2USUniquePointer@core@3@A@@YAXXZ 004106b0 f    CIL library: CIL module
 0001:0000f6c0       ??__F?s_id@?$TObjectUniqueID@UIShell@base@UModSys@@@tl@UModSys@@2USUniquePointer@core@3@A@@YAXXZ 004106c0 f    CIL library: CIL module
 0001:0000f6d0       ??__F?s_id@?$TObjectUniqueID@UIGenerator@base@UModSys@@@tl@UModSys@@2USUniquePointer@core@3@A@@YAXXZ 004106d0 f    CIL library: CIL module
 0001:0000f6e0       ??__F?s_id@?$TObjectUniqueID@UIModObject@base@UModSys@@@tl@UModSys@@2USUniquePointer@core@3@A@@YAXXZ 004106e0 f    CIL library: CIL module
 0001:0000f6f0       ??__F?s_id@?$TObjectUniqueID@UIModuleLibrary@base@UModSys@@@tl@UModSys@@2USUniquePointer@core@3@A@@YAXXZ 004106f0 f    CIL library: CIL module
 0001:0000f700       ??__F?s_id@?$TObjectUniqueID@UIModule@base@UModSys@@@tl@UModSys@@2USUniquePointer@core@3@A@@YAXXZ 00410700 f    CIL library: CIL module
 0001:0000f710       ??__F?s_id@?$TObjectUniqueID@UIParameters@core@UModSys@@@tl@UModSys@@2USUniquePointer@core@3@A@@YAXXZ 00410710 f    CIL library: CIL module
 0001:0000f720       ??__F?s_id@?$TObjectUniqueID@UIRefObject@core@UModSys@@@tl@UModSys@@2USUniquePointer@core@3@A@@YAXXZ 00410720 f    CIL library: CIL module
 0001:0000f730       ??__F?s_id@?$TObjectUniqueID@UIRoot@core@UModSys@@@tl@UModSys@@2USUniquePointer@core@3@A@@YAXXZ 00410730 f    CIL library: CIL module
 0001:0000f740       ??__F?s_modreg@RModuleReg@std@media@modules@UModSys@@2U12345@A@@YAXXZ 00410740 f    CIL library: CIL module
 0001:0000f760       ??__F?s_modreg_chain@RModuleReg@std@media@modules@UModSys@@2USModuleRegChain@base@5@A@@YAXXZ 00410760 f    CIL library: CIL module
 0001:0000f770       ??__F?s_uid@RGenerator@std@media@modules@UModSys@@2USUniquePointer@core@5@A@@YAXXZ 00410770 f    CIL library: CIL module
 0001:0000f780       ??__Fh@?1??s_holder@RGenerator@std@media@modules@UModSys@@SAAAU?$TTypeStaticHolder@URGenerator@std@media@modules@UModSys@@@tl@5@XZ@YAXXZ 00410780 f    CIL library: CIL module
 0001:0000f7a0       ??__F?s_id@?$TObjectUniqueID@URGenerator@std@media@modules@UModSys@@@tl@UModSys@@2USUniquePointer@core@3@A@@YAXXZ 004107a0 f    CIL library: CIL module
 0001:0000f7b0       ??__F?s_id@?$TObjectUniqueID@URLibraryObjFilter@std@media@modules@UModSys@@@tl@UModSys@@2USUniquePointer@core@3@A@@YAXXZ 004107b0 f    CIL library: CIL module
 0001:0000f7c0       ??__F?s_id@?$TObjectUniqueID@URLibraryObjCache@std@media@modules@UModSys@@@tl@UModSys@@2USUniquePointer@core@3@A@@YAXXZ 004107c0 f    CIL library: CIL module
 0001:0000f7d0       ??__F?s_id@?$TObjectUniqueID@URLibraryLayered@std@media@modules@UModSys@@@tl@UModSys@@2USUniquePointer@core@3@A@@YAXXZ 004107d0 f    CIL library: CIL module
 0001:0000f7e0       ??__F?s_id@?$TObjectUniqueID@URLibraryBinTree@std@media@modules@UModSys@@@tl@UModSys@@2USUniquePointer@core@3@A@@YAXXZ 004107e0 f    CIL library: CIL module
 0001:0000f7f0       ??__F?s_id@?$TObjectUniqueID@URLibraryBinCache@std@media@modules@UModSys@@@tl@UModSys@@2USUniquePointer@core@3@A@@YAXXZ 004107f0 f    CIL library: CIL module
 0001:0000f800       ??__F?s_id@?$TObjectUniqueID@UILibraryLayered@libmedia@UModSys@@@tl@UModSys@@2USUniquePointer@core@3@A@@YAXXZ 00410800 f    CIL library: CIL module
 0001:0000f810       ??__F?s_id@?$TObjectUniqueID@UILibraryObjCache@libmedia@UModSys@@@tl@UModSys@@2USUniquePointer@core@3@A@@YAXXZ 00410810 f    CIL library: CIL module
 0001:0000f820       ??__F?s_id@?$TObjectUniqueID@UILibraryObjFilter@libmedia@UModSys@@@tl@UModSys@@2USUniquePointer@core@3@A@@YAXXZ 00410820 f    CIL library: CIL module
 0001:0000f830       ??__F?s_id@?$TObjectUniqueID@UILibraryBinCache@libmedia@UModSys@@@tl@UModSys@@2USUniquePointer@core@3@A@@YAXXZ 00410830 f    CIL library: CIL module
 0001:0000f840       ??__F?s_id@?$TObjectUniqueID@UILibraryBinTree@libmedia@UModSys@@@tl@UModSys@@2USUniquePointer@core@3@A@@YAXXZ 00410840 f    CIL library: CIL module
 0001:0000f850       ??__F?s_id@?$TObjectUniqueID@UILibrary@libmedia@UModSys@@@tl@UModSys@@2USUniquePointer@core@3@A@@YAXXZ 00410850 f    CIL library: CIL module
 0001:0000f860       ??__F?s_id@?$TObjectUniqueID@UIBinObjFilter@libmedia@UModSys@@@tl@UModSys@@2USUniquePointer@core@3@A@@YAXXZ 00410860 f    CIL library: CIL module
 0001:0000f870       ??__F?s_id@?$TObjectUniqueID@UIBinArchive@libmedia@UModSys@@@tl@UModSys@@2USUniquePointer@core@3@A@@YAXXZ 00410870 f    CIL library: CIL module
 0001:0000f880       ??__F?s_id@?$TObjectUniqueID@UIStreamWriter@libmedia@UModSys@@@tl@UModSys@@2USUniquePointer@core@3@A@@YAXXZ 00410880 f    CIL library: CIL module
 0001:0000f890       ??__F?s_id@?$TObjectUniqueID@UIStreamReader@libmedia@UModSys@@@tl@UModSys@@2USUniquePointer@core@3@A@@YAXXZ 00410890 f    CIL library: CIL module
 0001:0000f8a0       ??__F?s_modreg@RModuleReg@images_std@media@modules@UModSys@@2U12345@A@@YAXXZ 004108a0 f    CIL library: CIL module
 0001:0000f8c0       ??__F?s_modreg_chain@RModuleReg@images_std@media@modules@UModSys@@2USModuleRegChain@base@5@A@@YAXXZ 004108c0 f    CIL library: CIL module
 0001:0000f8d0       ??__F?s_uid@RGenerator@images_std@media@modules@UModSys@@2USUniquePointer@core@5@A@@YAXXZ 004108d0 f    CIL library: CIL module
 0001:0000f8e0       ??__Fh@?1??s_holder@RGenerator@images_std@media@modules@UModSys@@SAAAU?$TTypeStaticHolder@URGenerator@images_std@media@modules@UModSys@@@tl@5@XZ@YAXXZ 004108e0 f    CIL library: CIL module
 0001:0000f900       ??__F?s_id@?$TObjectUniqueID@URGenerator@images_std@media@modules@UModSys@@@tl@UModSys@@2USUniquePointer@core@3@A@@YAXXZ 00410900 f    CIL library: CIL module
 0001:0000f910       ??__F?s_id@?$TObjectUniqueID@URMediaFilter@images_std@media@modules@UModSys@@@tl@UModSys@@2USUniquePointer@core@3@A@@YAXXZ 00410910 f    CIL library: CIL module
 0001:0000f920       ??__F?s_id@?$TObjectUniqueID@UIMultiImage@lib2d@UModSys@@@tl@UModSys@@2USUniquePointer@core@3@A@@YAXXZ 00410920 f    CIL library: CIL module
 0001:0000f930       ??__F?s_id@?$TObjectUniqueID@UIImage@lib2d@UModSys@@@tl@UModSys@@2USUniquePointer@core@3@A@@YAXXZ 00410930 f    CIL library: CIL module
 0001:0000f940       ??__F?s_modreg@RModuleReg@stdio@media@modules@UModSys@@2U12345@A@@YAXXZ 00410940 f    CIL library: CIL module
 0001:0000f960       ??__F?s_modreg_chain@RModuleReg@stdio@media@modules@UModSys@@2USModuleRegChain@base@5@A@@YAXXZ 00410960 f    CIL library: CIL module
 0001:0000f970       ??__F?s_uid@RGenerator@stdio@media@modules@UModSys@@2USUniquePointer@core@5@A@@YAXXZ 00410970 f    CIL library: CIL module
 0001:0000f980       ??__Fh@?1??s_holder@RGenerator@stdio@media@modules@UModSys@@SAAAU?$TTypeStaticHolder@URGenerator@stdio@media@modules@UModSys@@@tl@5@XZ@YAXXZ 00410980 f    CIL library: CIL module
 0001:0000f9a0       ??__F?s_id@?$TObjectUniqueID@URGenerator@stdio@media@modules@UModSys@@@tl@UModSys@@2USUniquePointer@core@3@A@@YAXXZ 004109a0 f    CIL library: CIL module
 0001:0000f9b0       ??__F?s_id@?$TObjectUniqueID@URDataArchiver_OsDir@stdio@media@modules@UModSys@@@tl@UModSys@@2USUniquePointer@core@3@A@@YAXXZ 004109b0 f    CIL library: CIL module
 0001:0000f9c0       ??__F?s_id@?$TObjectUniqueID@URStreamWriter_FILE@stdio@media@modules@UModSys@@@tl@UModSys@@2USUniquePointer@core@3@A@@YAXXZ 004109c0 f    CIL library: CIL module
 0001:0000f9d0       ??__F?s_id@?$TObjectUniqueID@URStreamReader_FILE@stdio@media@modules@UModSys@@@tl@UModSys@@2USUniquePointer@core@3@A@@YAXXZ 004109d0 f    CIL library: CIL module
 0001:0000f9e0       ??__F?s_console@RConsole_std@rsystem@base@UModSys@@2U1234@A@@YAXXZ 004109e0 f    CIL library: CIL module
 0001:0000f9f0       ??__F?s_sys@RSystem@rsystem@base@UModSys@@2U1234@A@@YAXXZ 004109f0 f    CIL library: CIL module
 0001:0000fa00       ??__Frsys_dbg@rsystem@base@UModSys@@YAXXZ 00410a00 f    CIL library: CIL module
 0001:0000fa10       ??__FM@UModSys@@YAXXZ      00410a10 f    CIL library: CIL module
 0001:0000fa20       ??__F?root@SModuleRegChain@base@UModSys@@2U123@A@@YAXXZ 00410a20 f    CIL library: CIL module
 0001:0000fa30       ??__F?s_library@RModuleLibraryReg_Chain@base@UModSys@@2U123@A@@YAXXZ 00410a30 f    CIL library: CIL module
 0001:0000fa40       ??__F?root@SUniquePointer@core@UModSys@@2U123@A@@YAXXZ 00410a40 f    CIL library: CIL module

 Exports

  ordinal    name

        1    _UModSys_Plugin_Entry2@0
