 lib_squirrel

 Timestamp is 52d5530c (Tue Jan 14 18:09:00 2014)

 Preferred load address is 10000000

 Start         Length     Name                   Class
 0001:00000000 0001a147H .text                   CODE
 0001:0001a147 00000e9fH .text$x                 CODE
 0002:00000000 00000194H .idata$5                DATA
 0002:00000194 00000004H .CRT$XCA                DATA
 0002:00000198 00000004H .CRT$XCZ                DATA
 0002:0000019c 00000004H .CRT$XIA                DATA
 0002:000001a0 00000004H .CRT$XIAA               DATA
 0002:000001a4 00000004H .CRT$XIC                DATA
 0002:000001a8 00000004H .CRT$XIZ                DATA
 0002:000001b0 00002128H .rdata                  DATA
 0002:000022d8 000005e4H .rdata$r                DATA
 0002:000028c0 00000114H .rdata$sxdata           DATA
 0002:000029d4 00000004H .rtc$IAA                DATA
 0002:000029d8 00000004H .rtc$IZZ                DATA
 0002:000029dc 00000004H .rtc$TAA                DATA
 0002:000029e0 00000004H .rtc$TZZ                DATA
 0002:000029e8 000014e4H .xdata$x                DATA
 0002:00003ecc 00000028H .idata$2                DATA
 0002:00003ef4 00000014H .idata$3                DATA
 0002:00003f08 00000194H .idata$4                DATA
 0002:0000409c 00000568H .idata$6                DATA
 0002:00004610 0000103bH .edata                  DATA
 0003:00000000 00000e10H .data                   DATA
 0003:00000e10 00000454H .bss                    DATA

  Address         Publics by Value              Rva+Base       Lib:Object

 0000:00000000       __except_list              00000000     <absolute>
 0000:00000045       ___safe_se_handler_count   00000045     <absolute>
 0000:00009876       __fltused                  00009876     <absolute>
 0000:00009876       __ldused                   00009876     <absolute>
 0000:00000000       ___ImageBase               10000000     <linker-defined>
 0001:00000000       _sqstd_printcallstack      10001000 f   sqstdaux.obj
 0001:000002e2       ?_sqstd_compiler_error@@YAXPAUSQVM@@PBD1HH@Z 100012e2 f   sqstdaux.obj
 0001:00000311       _sqstd_seterrorhandlers    10001311 f   sqstdaux.obj
 0001:0000033e       ??3@YAXPAX0@Z              1000133e f i sqstdblob.obj
 0001:0000033f       ??0SQBlob@@QAE@H@Z         1000133f f i sqstdblob.obj
 0001:0000036e       ?Write@SQBlob@@UAEHPAXH@Z  1000136e f i sqstdblob.obj
 0001:000003c6       ?Read@SQBlob@@UAEHPAXH@Z   100013c6 f i sqstdblob.obj
 0001:00000404       ?Resize@SQBlob@@QAE_NH@Z   10001404 f i sqstdblob.obj
 0001:00000463       ?Seek@SQBlob@@UAEHHH@Z     10001463 f i sqstdblob.obj
 0001:000004ad       ?IsValid@SQBlob@@UAE_NXZ   100014ad f i sqstdblob.obj
 0001:000004b5       ?EOS@SQBlob@@UAE_NXZ       100014b5 f i sqstdblob.obj
 0001:000004c1       ?Tell@SQBlob@@UAEHXZ       100014c1 f i sqstdblob.obj
 0001:000004c5       ?Len@SQBlob@@UAEHXZ        100014c5 f i sqstdblob.obj
 0001:000004c9       ??_ESQBlob@@UAEPAXI@Z      100014c9 f i  CIL library: CIL module
 0001:000004c9       ??_GSQBlob@@UAEPAXI@Z      100014c9 f i sqstdblob.obj
 0001:00000b3e       _sqstd_getblob             10001b3e f   sqstdblob.obj
 0001:00000b71       _sqstd_getblobsize         10001b71 f   sqstdblob.obj
 0001:00000b9f       _sqstd_createblob          10001b9f f   sqstdblob.obj
 0001:00000c43       _sqstd_register_bloblib    10001c43 f   sqstdblob.obj
 0001:00000c69       _sqstd_fopen               10001c69 f   sqstdio.obj
 0001:00000c6f       _sqstd_fread               10001c6f f   sqstdio.obj
 0001:00000c75       _sqstd_fwrite              10001c75 f   sqstdio.obj
 0001:00000c7b       _sqstd_fseek               10001c7b f   sqstdio.obj
 0001:00000cad       _sqstd_ftell               10001cad f   sqstdio.obj
 0001:00000cb3       _sqstd_fflush              10001cb3 f   sqstdio.obj
 0001:00000cb9       _sqstd_fclose              10001cb9 f   sqstdio.obj
 0001:00000cbf       _sqstd_feof                10001cbf f   sqstdio.obj
 0001:00000cc5       ??1SQFile@@UAE@XZ          10001cc5 f i sqstdio.obj
 0001:00000ced       ?Read@SQFile@@UAEHPAXH@Z   10001ced f i sqstdio.obj
 0001:00000d06       ?Write@SQFile@@UAEHPAXH@Z  10001d06 f i sqstdio.obj
 0001:00000d1f       ?Flush@SQFile@@UAEHXZ      10001d1f f i sqstdio.obj
 0001:00000d2a       ?Tell@SQFile@@UAEHXZ       10001d2a f i sqstdio.obj
 0001:00000d35       ?Len@SQFile@@UAEHXZ        10001d35 f i sqstdio.obj
 0001:00000d65       ?Seek@SQFile@@UAEHHH@Z     10001d65 f i sqstdio.obj
 0001:00000d7b       ?IsValid@SQFile@@UAE_NXZ   10001d7b f i sqstdio.obj
 0001:00000d83       ?EOS@SQFile@@UAE_NXZ       10001d83 f i sqstdio.obj
 0001:00000d9d       ??_GSQFile@@UAEPAXI@Z      10001d9d f i sqstdio.obj
 0001:00000d9d       ??_ESQFile@@UAEPAXI@Z      10001d9d f i  CIL library: CIL module
 0001:00000f0b       _sqstd_createfile          10001f0b f   sqstdio.obj
 0001:00000fa4       _sqstd_getfile             10001fa4 f   sqstdio.obj
 0001:00001063       ?file_read@@YAHPAX0H@Z     10002063 f   sqstdio.obj
 0001:00001082       ?file_write@@YAHPAX0H@Z    10002082 f   sqstdio.obj
 0001:0000109a       _sqstd_loadfile            1000209a f   sqstdio.obj
 0001:000011c4       _sqstd_dofile              100021c4 f   sqstdio.obj
 0001:0000121e       _sqstd_writeclosuretofile  1000221e f   sqstdio.obj
 0001:00001273       ?_g_io_loadfile@@YAHPAUSQVM@@@Z 10002273 f   sqstdio.obj
 0001:000012c7       ?_g_io_writeclosuretofile@@YAHPAUSQVM@@@Z 100022c7 f   sqstdio.obj
 0001:000012f6       ?_g_io_dofile@@YAHPAUSQVM@@@Z 100022f6 f   sqstdio.obj
 0001:00001354       _sqstd_register_iolib      10002354 f   sqstdio.obj
 0001:000017d7       _sqstd_register_mathlib    100027d7 f   sqstdmath.obj
 0001:000023d2       _sqstd_rex_compile         100033d2 f   sqstdrex.obj
 0001:0000249c       _sqstd_rex_free            1000349c f   sqstdrex.obj
 0001:000024d4       _sqstd_rex_match           100034d4 f   sqstdrex.obj
 0001:00002518       _sqstd_rex_searchrange     10003518 f   sqstdrex.obj
 0001:00002593       _sqstd_rex_search          10003593 f   sqstdrex.obj
 0001:000025c0       _sqstd_rex_getsubexpcount  100035c0 f   sqstdrex.obj
 0001:000025c8       _sqstd_rex_getsubexp       100035c8 f   sqstdrex.obj
 0001:000025f5       ?_stream_readblob@@YAHPAUSQVM@@@Z 100035f5 f   sqstdstream.obj
 0001:000026b3       ?_stream_readn@@YAHPAUSQVM@@@Z 100036b3 f   sqstdstream.obj
 0001:0000283f       ?_stream_writeblob@@YAHPAUSQVM@@@Z 1000383f f   sqstdstream.obj
 0001:000028e0       ?_stream_writen@@YAHPAUSQVM@@@Z 100038e0 f   sqstdstream.obj
 0001:00002a1b       ?_stream_seek@@YAHPAUSQVM@@@Z 10003a1b f   sqstdstream.obj
 0001:00002ac9       ?_stream_tell@@YAHPAUSQVM@@@Z 10003ac9 f   sqstdstream.obj
 0001:00002b33       ?_stream_len@@YAHPAUSQVM@@@Z 10003b33 f   sqstdstream.obj
 0001:00002b9d       ?_stream_flush@@YAHPAUSQVM@@@Z 10003b9d f   sqstdstream.obj
 0001:00002c17       ?_stream_eos@@YAHPAUSQVM@@@Z 10003c17 f   sqstdstream.obj
 0001:00002c91       ?_stream__cloned@@YAHPAUSQVM@@@Z 10003c91 f   sqstdstream.obj
 0001:00002ca2       ?init_streamclass@@YAXPAUSQVM@@@Z 10003ca2 f   sqstdstream.obj
 0001:00002d9d       ?declare_stream@@YAHPAUSQVM@@PBDPAX1PAUtagSQRegFunction@@3@Z 10003d9d f   sqstdstream.obj
 0001:00003045       _sqstd_format              10004045 f   sqstdstring.obj
 0001:0000370a       _sqstd_register_stringlib  1000470a f   sqstdstring.obj
 0001:00003a8e       _sqstd_register_systemlib  10004a8e f   sqstdsystem.obj
 0001:00003b02       ??0SQObjectPtr@@QAE@XZ     10004b02 f i sqapi.obj
 0001:00003b0f       ??4SQObjectPtr@@QAEAAU0@PAUSQClosure@@@Z 10004b0f f i sqapi.obj
 0001:00003b35       ??4SQObjectPtr@@QAEAAU0@PAUSQNativeClosure@@@Z 10004b35 f i sqapi.obj
 0001:00003b5b       ??4SQObjectPtr@@QAEAAU0@PAUSQString@@@Z 10004b5b f i sqapi.obj
 0001:00003b81       ??1SQObjectPtr@@QAE@XZ     10004b81 f i sqapi.obj
 0001:00003ba0       ??4SQObjectPtr@@QAEAAU0@ABU0@@Z 10004ba0 f i sqapi.obj
 0001:00003ba0       ??4SQObjectPtr@@QAEAAU0@ABUtagSQObject@@@Z 10004ba0 f i sqapi.obj
 0001:00003bd1       ?Null@SQObjectPtr@@QAEXXZ  10004bd1 f i sqapi.obj
 0001:00003bf3       ?stack_get@@YAAAUSQObjectPtr@@PAUSQVM@@H@Z 10004bf3 f i sqapi.obj
 0001:00003c17       ?HashObj@@YAIABUSQObjectPtr@@@Z 10004c17 f i sqapi.obj
 0001:00003c49       ?Create@SQTable@@SAPAU1@PAUSQSharedState@@H@Z 10004c49 f i sqapi.obj
 0001:00003c6e       ??1SQCollectable@@UAE@XZ   10004c6e f i sqapi.obj
 0001:00003c6e       ??1SQDelegable@@UAE@XZ     10004c6e f i sqapi.obj
 0001:00003c73       ??0SQArray@@AAE@PAUSQSharedState@@H@Z 10004c73 f i sqapi.obj
 0001:00003ce8       ?Create@SQArray@@SAPAU1@PAUSQSharedState@@H@Z 10004ce8 f i sqapi.obj
 0001:00003d1e       ?GetType@SQArray@@UAE?AW4tagSQObjectType@@XZ 10004d1e f i sqapi.obj
 0001:00003d24       ?Finalize@SQArray@@UAEXXZ  10004d24 f i sqapi.obj
 0001:00003d66       ?Get@SQArray@@QAE_NHAAUSQObjectPtr@@@Z 10004d66 f i sqapi.obj
 0001:00003da1       ?Resize@SQArray@@QAEXH@Z   10004da1 f i sqapi.obj
 0001:00003de6       ?Append@SQArray@@QAEXABUtagSQObject@@@Z 10004de6 f i sqapi.obj
 0001:00003e1d       ?Insert@SQArray@@QAE_NHABUtagSQObject@@@Z 10004e1d f i sqapi.obj
 0001:00003e85       ?ShrinkIfNeeded@SQArray@@QAEXXZ 10004e85 f i sqapi.obj
 0001:00003ea3       ?Remove@SQArray@@QAE_NH@Z  10004ea3 f i sqapi.obj
 0001:00003ef4       ??_ESQArray@@EAEPAXI@Z     10004ef4 f i  CIL library: CIL module
 0001:00003ef4       ??_GSQArray@@EAEPAXI@Z     10004ef4 f i sqapi.obj
 0001:00003f56       ?Create@SQClosure@@SAPAU1@PAUSQSharedState@@PAUSQFunctionProto@@@Z 10004f56 f i sqapi.obj
 0001:00003fed       ?Release@SQClosure@@UAEXXZ 10004fed f i sqapi.obj
 0001:00004056       ?Clone@SQClosure@@QAEPAU1@XZ 10005056 f i sqapi.obj
 0001:000040dd       ?Finalize@SQClosure@@UAEXXZ 100050dd f i sqapi.obj
 0001:00004119       ?GetType@SQClosure@@UAE?AW4tagSQObjectType@@XZ 10005119 f i sqapi.obj
 0001:0000411f       ??_ESQClosure@@UAEPAXI@Z   1000511f f i  CIL library: CIL module
 0001:0000411f       ??_GSQClosure@@UAEPAXI@Z   1000511f f i sqapi.obj
 0001:0000413c       ?Create@SQNativeClosure@@SAPAU1@PAUSQSharedState@@P6AHPAUSQVM@@@ZH@Z 1000513c f i sqapi.obj
 0001:000041b6       ?Clone@SQNativeClosure@@QAEPAU1@XZ 100051b6 f i sqapi.obj
 0001:00004222       ??1SQNativeClosure@@UAE@XZ 10005222 f i sqapi.obj
 0001:000042a3       ?Release@SQNativeClosure@@UAEXXZ 100052a3 f i sqapi.obj
 0001:000042d2       ?Finalize@SQNativeClosure@@UAEXXZ 100052d2 f i sqapi.obj
 0001:000042f1       ?GetType@SQNativeClosure@@UAE?AW4tagSQObjectType@@XZ 100052f1 f i sqapi.obj
 0001:000042f7       ??_ESQNativeClosure@@UAEPAXI@Z 100052f7 f i  CIL library: CIL module
 0001:000042f7       ??_GSQNativeClosure@@UAEPAXI@Z 100052f7 f i sqapi.obj
 0001:00004314       ?Finalize@SQUserData@@UAEXXZ 10005314 f i sqapi.obj
 0001:00004322       ?GetType@SQUserData@@UAE?AW4tagSQObjectType@@XZ 10005322 f i sqapi.obj
 0001:00004328       ?Release@SQUserData@@UAEXXZ 10005328 f i sqapi.obj
 0001:00004352       ??_GSQUserData@@UAEPAXI@Z  10005352 f i sqapi.obj
 0001:00004352       ??_ESQUserData@@UAEPAXI@Z  10005352 f i  CIL library: CIL module
 0001:000043b3       ?Create@SQClass@@SAPAU1@PAUSQSharedState@@PAU1@@Z 100053b3 f i sqapi.obj
 0001:000043ef       ?Get@SQClass@@QAE_NABUSQObjectPtr@@AAU2@@Z 100053ef f i sqapi.obj
 0001:00004459       ?Get@SQInstance@@QAE_NABUSQObjectPtr@@AAU2@@Z 10005459 f i sqapi.obj
 0001:000044c7       ?Set@SQInstance@@QAE_NABUSQObjectPtr@@0@Z 100054c7 f i sqapi.obj
 0001:0000453a       ?sq_aux_gettypedarg@@YA_NPAUSQVM@@HW4tagSQObjectType@@PAPAUSQObjectPtr@@@Z 1000553a f   sqapi.obj
 0001:000045af       ?sq_aux_invalidtype@@YAHPAUSQVM@@W4tagSQObjectType@@@Z 100055af f   sqapi.obj
 0001:000045ed       _sq_open                   100055ed f   sqapi.obj
 0001:00004671       _sq_newthread              10005671 f   sqapi.obj
 0001:000046ee       _sq_getvmstate             100056ee f   sqapi.obj
 0001:0000470a       _sq_seterrorhandler        1000570a f   sqapi.obj
 0001:00004757       _sq_setnativedebughook     10005757 f   sqapi.obj
 0001:00004777       _sq_setdebughook           10005777 f   sqapi.obj
 0001:000047d6       _sq_close                  100057d6 f   sqapi.obj
 0001:000047f9       _sq_getversion             100057f9 f   sqapi.obj
 0001:000047ff       _sq_compile                100057ff f   sqapi.obj
 0001:00004899       _sq_enabledebuginfo        10005899 f   sqapi.obj
 0001:000048b2       _sq_notifyallexceptions    100058b2 f   sqapi.obj
 0001:000048cb       _sq_addref                 100058cb f   sqapi.obj
 0001:000048fc       _sq_getrefcount            100058fc f   sqapi.obj
 0001:00004931       _sq_release                10005931 f   sqapi.obj
 0001:00004956       _sq_objtostring            10005956 f   sqapi.obj
 0001:0000496c       _sq_objtointeger           1000596c f   sqapi.obj
 0001:00004991       _sq_objtofloat             10005991 f   sqapi.obj
 0001:000049bd       _sq_objtobool              100059bd f   sqapi.obj
 0001:000049d0       _sq_objtouserpointer       100059d0 f   sqapi.obj
 0001:000049e3       _sq_pushnull               100059e3 f   sqapi.obj
 0001:000049ec       _sq_pushstring             100059ec f   sqapi.obj
 0001:00004a3b       _sq_pushinteger            10005a3b f   sqapi.obj
 0001:00004a63       _sq_pushbool               10005a63 f   sqapi.obj
 0001:00004a90       _sq_pushfloat              10005a90 f   sqapi.obj
 0001:00004ab8       _sq_pushuserpointer        10005ab8 f   sqapi.obj
 0001:00004ae0       _sq_newuserdata            10005ae0 f   sqapi.obj
 0001:00004b60       _sq_newtable               10005b60 f   sqapi.obj
 0001:00004b9c       _sq_newtableex             10005b9c f   sqapi.obj
 0001:00004bd8       _sq_newarray               10005bd8 f   sqapi.obj
 0001:00004c15       _sq_newclass               10005c15 f   sqapi.obj
 0001:00004c97       _sq_instanceof             10005c97 f   sqapi.obj
 0001:00004cf2       _sq_arrayappend            10005cf2 f   sqapi.obj
 0001:00004d50       _sq_arraypop               10005d50 f   sqapi.obj
 0001:00004de5       _sq_arrayresize            10005de5 f   sqapi.obj
 0001:00004e4f       _sq_arrayreverse           10005e4f f   sqapi.obj
 0001:00004f14       _sq_arrayremove            10005f14 f   sqapi.obj
 0001:00004f7e       _sq_arrayinsert            10005f7e f   sqapi.obj
 0001:00004ffc       _sq_newclosure             10005ffc f   sqapi.obj
 0001:00005070       _sq_getclosureinfo         10006070 f   sqapi.obj
 0001:000050c9       _sq_setnativeclosurename   100060c9 f   sqapi.obj
 0001:00005117       _sq_setparamscheck         10006117 f   sqapi.obj
 0001:000051c6       _sq_bindenv                100061c6 f   sqapi.obj
 0001:000052e8       _sq_getclosurename         100062e8 f   sqapi.obj
 0001:00005337       _sq_clear                  10006337 f   sqapi.obj
 0001:00005391       _sq_pushroottable          10006391 f   sqapi.obj
 0001:0000539f       _sq_pushregistrytable      1000639f f   sqapi.obj
 0001:000053b3       _sq_pushconsttable         100063b3 f   sqapi.obj
 0001:000053c7       _sq_setroottable           100063c7 f   sqapi.obj
 0001:0000541d       _sq_setconsttable          1000641d f   sqapi.obj
 0001:00005471       _sq_setforeignptr          10006471 f   sqapi.obj
 0001:00005480       _sq_getforeignptr          10006480 f   sqapi.obj
 0001:0000548b       _sq_push                   1000648b f   sqapi.obj
 0001:000054a4       _sq_gettype                100064a4 f   sqapi.obj
 0001:000054b5       _sq_typeof                 100064b5 f   sqapi.obj
 0001:00005503       _sq_tostring               10006503 f   sqapi.obj
 0001:00005551       _sq_tobool                 10006551 f   sqapi.obj
 0001:00005574       _sq_getinteger             10006574 f   sqapi.obj
 0001:000055ae       _sq_getfloat               100065ae f   sqapi.obj
 0001:000055ec       _sq_getbool                100065ec f   sqapi.obj
 0001:00005612       _sq_getstring              10006612 f   sqapi.obj
 0001:0000564d       _sq_getthread              1000664d f   sqapi.obj
 0001:00005685       _sq_clone                  10006685 f   sqapi.obj
 0001:000056c7       _sq_getsize                100066c7 f   sqapi.obj
 0001:0000573a       _sq_gethash                1000673a f   sqapi.obj
 0001:0000574f       _sq_getuserdata            1000674f f   sqapi.obj
 0001:0000579c       _sq_settypetag             1000679c f   sqapi.obj
 0001:000057e9       _sq_getobjtypetag          100067e9 f   sqapi.obj
 0001:0000582d       _sq_gettypetag             1000682d f   sqapi.obj
 0001:0000585f       _sq_getuserpointer         1000685f f   sqapi.obj
 0001:00005897       _sq_setinstanceup          10006897 f   sqapi.obj
 0001:000058cb       _sq_setclassudsize         100068cb f   sqapi.obj
 0001:00005913       _sq_getinstanceup          10006913 f   sqapi.obj
 0001:0000596d       _sq_gettop                 1000696d f   sqapi.obj
 0001:00005978       _sq_settop                 10006978 f   sqapi.obj
 0001:000059ac       _sq_pop                    100069ac f   sqapi.obj
 0001:000059bc       _sq_poptop                 100069bc f   sqapi.obj
 0001:000059c5       _sq_remove                 100069c5 f   sqapi.obj
 0001:00005a12       _sq_cmp                    10006a12 f   sqapi.obj
 0001:00005a39       _sq_newslot                10006a39 f   sqapi.obj
 0001:00005ac3       _sq_deleteslot             10006ac3 f   sqapi.obj
 0001:00005b7d       _sq_set                    10006b7d f   sqapi.obj
 0001:00005bc3       _sq_rawset                 10006bc3 f   sqapi.obj
 0001:00005cbc       _sq_newmember              10006cbc f   sqapi.obj
 0001:00005d36       _sq_rawnewmember           10006d36 f   sqapi.obj
 0001:00005db0       _sq_setdelegate            10006db0 f   sqapi.obj
 0001:00005e49       _sq_rawdeleteslot          10006e49 f   sqapi.obj
 0001:00005ef8       _sq_getdelegate            10006ef8 f   sqapi.obj
 0001:00005f5f       _sq_get                    10006f5f f   sqapi.obj
 0001:00005fa0       _sq_rawget                 10006fa0 f   sqapi.obj
 0001:00006090       _sq_getstackobj            10007090 f   sqapi.obj
 0001:000060af       _sq_getlocal               100070af f   sqapi.obj
 0001:00006144       _sq_pushobject             10007144 f   sqapi.obj
 0001:00006176       _sq_resetobject            10007176 f   sqapi.obj
 0001:00006185       _sq_throwerror             10007185 f   sqapi.obj
 0001:000061aa       _sq_throwobject            100071aa f   sqapi.obj
 0001:000061cf       _sq_reseterror             100071cf f   sqapi.obj
 0001:000061db       _sq_getlasterror           100071db f   sqapi.obj
 0001:000061e9       _sq_reservestack           100071e9 f   sqapi.obj
 0001:0000623b       _sq_resume                 1000723b f   sqapi.obj
 0001:000062ab       _sq_call                   100072ab f   sqapi.obj
 0001:0000633e       _sq_suspendvm              1000733e f   sqapi.obj
 0001:0000636f       _sq_wakeupvm               1000736f f   sqapi.obj
 0001:0000645b       _sq_setreleasehook         1000745b f   sqapi.obj
 0001:000064b3       _sq_setcompilererrorhandler 100074b3 f   sqapi.obj
 0001:000064c8       _sq_writeclosure           100074c8 f   sqapi.obj
 0001:00006559       _sq_readclosure            10007559 f   sqapi.obj
 0001:000065e7       _sq_getscratchpad          100075e7 f   sqapi.obj
 0001:00006609       _sq_resurrectunreachable   10007609 f   sqapi.obj
 0001:0000661c       _sq_collectgarbage         1000761c f   sqapi.obj
 0001:0000662e       _sq_getcallee              1000762e f   sqapi.obj
 0001:0000665b       _sq_getfreevariable        1000765b f   sqapi.obj
 0001:000066d4       _sq_setfreevariable        100076d4 f   sqapi.obj
 0001:00006761       _sq_setattributes          10007761 f   sqapi.obj
 0001:0000684e       _sq_getattributes          1000784e f   sqapi.obj
 0001:0000690e       _sq_getmemberhandle        1000790e f   sqapi.obj
 0001:000069a9       ?_getmemberbyhandle@@YAHPAUSQVM@@AAUSQObjectPtr@@PBUtagSQMemberHandle@@AAPAU2@@Z 100079a9 f   sqapi.obj
 0001:00006a01       _sq_getbyhandle            10007a01 f   sqapi.obj
 0001:00006a80       _sq_setbyhandle            10007a80 f   sqapi.obj
 0001:00006ad0       _sq_getbase                10007ad0 f   sqapi.obj
 0001:00006b32       _sq_getclass               10007b32 f   sqapi.obj
 0001:00006b8b       _sq_createinstance         10007b8b f   sqapi.obj
 0001:00006be6       _sq_weakref                10007be6 f   sqapi.obj
 0001:00006c56       _sq_getweakrefval          10007c56 f   sqapi.obj
 0001:00006cb4       _sq_getdefaultdelegate     10007cb4 f   sqapi.obj
 0001:00006d71       _sq_next                   10007d71 f   sqapi.obj
 0001:00006e47       ?buf_lexfeed@@YAHPAX@Z     10007e47 f   sqapi.obj
 0001:00006e65       _sq_compilebuffer          10007e65 f   sqapi.obj
 0001:00006e97       _sq_move                   10007e97 f   sqapi.obj
 0001:00006eb0       _sq_setprintfunc           10007eb0 f   sqapi.obj
 0001:00006ed2       _sq_getprintfunc           10007ed2 f   sqapi.obj
 0001:00006ee3       _sq_geterrorfunc           10007ee3 f   sqapi.obj
 0001:00006ef4       _sq_malloc                 10007ef4 f   sqapi.obj
 0001:00006efa       _sq_realloc                10007efa f   sqapi.obj
 0001:00006f0b       _sq_free                   10007f0b f   sqapi.obj
 0001:00006f17       ??1?$sqvector@USQObjectPtr@@@@QAE@XZ 10007f17 f i sqapi.obj
 0001:00006f3f       ?resize@?$sqvector@USQObjectPtr@@@@QAEXIABUSQObjectPtr@@@Z 10007f3f f i sqapi.obj
 0001:00006f9f       ?push_back@?$sqvector@USQObjectPtr@@@@QAEAAUSQObjectPtr@@ABU2@@Z 10007f9f f i sqapi.obj
 0001:00006fdb       ?insert@?$sqvector@USQObjectPtr@@@@QAEXIABUSQObjectPtr@@@Z 10007fdb f i sqapi.obj
 0001:00007048       ?copy@?$sqvector@H@@QAEXABV1@@Z 10008048 f i sqapi.obj
 0001:0000708b       ?_realloc@?$sqvector@USQObjectPtr@@@@AAEXI@Z 1000808b f i sqapi.obj
 0001:000070ad       ?_realloc@?$sqvector@H@@AAEXI@Z 100080ad f i sqapi.obj
 0001:000070cf       ??4SQObjectPtr@@QAEAAU0@PAUSQArray@@@Z 100080cf f i sqbaselib.obj
 0001:000070f5       ??4SQObjectPtr@@QAEAAU0@H@Z 100080f5 f i sqbaselib.obj
 0001:00007123       ??4SQObjectPtr@@QAEAAU0@M@Z 10008123 f i sqbaselib.obj
 0001:00007151       ?Set@SQArray@@QAE_NHABUSQObjectPtr@@@Z 10008151 f i sqbaselib.obj
 0001:00007174       ?str2num@@YA_NPBDAAUSQObjectPtr@@@Z 10008174 f   sqbaselib.obj
 0001:000071e2       ?Flush@SQBlob@@UAEHXZ      100081e2 f   sqstdblob.obj
 0001:00007809       ?sq_base_register@@YAXPAUSQVM@@@Z 10008809 f   sqbaselib.obj
 0001:00008593       ?_sort_compare@@YA_NPAUSQVM@@AAUSQObjectPtr@@1HAAH@Z 10009593 f   sqbaselib.obj
 0001:00008644       ?_hsort_sift_down@@YA_NPAUSQVM@@PAUSQArray@@HHH@Z 10009644 f   sqbaselib.obj
 0001:0000871c       ?_hsort@@YA_NPAUSQVM@@AAUSQObjectPtr@@HHH@Z 1000971c f   sqbaselib.obj
 0001:00009842       ?Lock@SQClass@@QAEXXZ      1000a842 f i sqclass.obj
 0001:00009856       ?Release@SQClass@@UAEXXZ   1000a856 f i sqclass.obj
 0001:00009881       ?GetType@SQClass@@UAE?AW4tagSQObjectType@@XZ 1000a881 f i sqclass.obj
 0001:00009887       ?Release@SQInstance@@UAEXXZ 1000a887 f i sqclass.obj
 0001:000098b4       ?GetType@SQInstance@@UAE?AW4tagSQObjectType@@XZ 1000a8b4 f i sqclass.obj
 0001:000098ba       ??0SQClass@@QAE@PAUSQSharedState@@PAU0@@Z 1000a8ba f   sqclass.obj
 0001:000099e5       ??_ESQClass@@UAEPAXI@Z     1000a9e5 f i  CIL library: CIL module
 0001:000099e5       ??_GSQClass@@UAEPAXI@Z     1000a9e5 f i sqclass.obj
 0001:00009a02       ?Finalize@SQClass@@UAEXXZ  1000aa02 f   sqclass.obj
 0001:00009acc       ??1SQClassMember@@QAE@XZ   1000aacc f i sqclass.obj
 0001:00009b00       ??1SQClass@@UAE@XZ         1000ab00 f   sqclass.obj
 0001:00009b8f       ?NewSlot@SQClass@@QAE_NPAUSQSharedState@@ABUSQObjectPtr@@1_N@Z 1000ab8f f   sqclass.obj
 0001:00009e24       ?CreateInstance@SQClass@@QAEPAUSQInstance@@XZ 1000ae24 f   sqclass.obj
 0001:00009eb2       ?Next@SQClass@@QAEHABUSQObjectPtr@@AAU2@1@Z 1000aeb2 f   sqclass.obj
 0001:00009f5a       ?SetAttributes@SQClass@@QAE_NABUSQObjectPtr@@0@Z 1000af5a f   sqclass.obj
 0001:00009fd5       ?GetAttributes@SQClass@@QAE_NABUSQObjectPtr@@AAU2@@Z 1000afd5 f   sqclass.obj
 0001:0000a04f       ?Init@SQInstance@@QAEXPAUSQSharedState@@@Z 1000b04f f   sqclass.obj
 0001:0000a079       ??0SQInstance@@QAE@PAUSQSharedState@@PAUSQClass@@H@Z 1000b079 f   sqclass.obj
 0001:0000a10c       ??_GSQInstance@@UAEPAXI@Z  1000b10c f i sqclass.obj
 0001:0000a10c       ??_ESQInstance@@UAEPAXI@Z  1000b10c f i  CIL library: CIL module
 0001:0000a129       ??0SQInstance@@QAE@PAUSQSharedState@@PAU0@H@Z 1000b129 f   sqclass.obj
 0001:0000a1b6       ?Finalize@SQInstance@@UAEXXZ 1000b1b6 f   sqclass.obj
 0001:0000a1f0       ??1SQInstance@@UAE@XZ      1000b1f0 f   sqclass.obj
 0001:0000a25c       ?GetMetaMethod@SQInstance@@UAE_NPAUSQVM@@W4SQMetaMethod@@AAUSQObjectPtr@@@Z 1000b25c f   sqclass.obj
 0001:0000a283       ?copy@?$sqvector@USQClassMember@@@@QAEXABV1@@Z 1000b283 f i sqclass.obj
 0001:0000a307       ??1?$sqvector@USQClassMember@@@@QAE@XZ 1000b307 f i sqclass.obj
 0001:0000a336       ?resize@?$sqvector@USQClassMember@@@@QAEXIABUSQClassMember@@@Z 1000b336 f i sqclass.obj
 0001:0000a35b       ?push_back@?$sqvector@USQClassMember@@@@QAEAAUSQClassMember@@ABU2@@Z 1000b35b f i sqclass.obj
 0001:0000a390       ??0SQClassMember@@QAE@ABU0@@Z 1000b390 f i sqclass.obj
 0001:0000a3bd       ?_realloc@?$sqvector@USQClassMember@@@@AAEXI@Z 1000b3bd f i sqclass.obj
 0001:0000a3df       ??4SQObjectPtr@@QAEAAU0@PAUSQFunctionProto@@@Z 1000b3df f i sqcompiler.obj
 0001:0000a405       ?AddInstruction@SQFuncState@@QAEXW4SQOpcode@@HHHH@Z 1000b405 f i sqcompiler.obj
 0001:0000a439       ??0SQCompiler@@QAE@PAUSQVM@@P6AHPAX@Z1PBD_N4@Z 1000b439 f i sqcompiler.obj
 0001:0000a4ca       ?ThrowError@SQCompiler@@SAXPAXPBD@Z 1000b4ca f i sqcompiler.obj
 0001:0000a4d8       ?Error@SQCompiler@@QAAXPBDZZ 1000b4d8 f i sqcompiler.obj
 0001:0000a505       ?Expect@SQCompiler@@QAE?AUtagSQObject@@H@Z 1000b505 f i sqcompiler.obj
 0001:0000a635       ?IsEndOfStatement@SQCompiler@@QAE_NXZ 1000b635 f i sqcompiler.obj
 0001:0000a652       ?OptionalSemicolon@SQCompiler@@QAEXXZ 1000b652 f i sqcompiler.obj
 0001:0000a67a       ?Compile@SQCompiler@@QAE_NAAUSQObjectPtr@@@Z 1000b67a f i sqcompiler.obj
 0001:0000a87d       ?Statements@SQCompiler@@QAEXXZ 1000b87d f i sqcompiler.obj
 0001:0000a8b4       ?Statement@SQCompiler@@QAEX_N@Z 1000b8b4 f i sqcompiler.obj
 0001:0000add3       ?EmitDerefOp@SQCompiler@@QAEXW4SQOpcode@@@Z 1000bdd3 f i sqcompiler.obj
 0001:0000ae17       ?Emit2ArgsOP@SQCompiler@@QAEXW4SQOpcode@@H@Z 1000be17 f i sqcompiler.obj
 0001:0000ae4d       ?EmitCompoundArith@SQCompiler@@QAEXHHH@Z 1000be4d f i sqcompiler.obj
 0001:0000af5d       ?CommaExpr@SQCompiler@@QAEXXZ 1000bf5d f i sqcompiler.obj
 0001:0000af9a       ?Expression@SQCompiler@@QAEXXZ 1000bf9a f i sqcompiler.obj
 0001:0000b209       ?LogicalOrExp@SQCompiler@@QAEXXZ 1000c209 f i sqcompiler.obj
 0001:0000b2be       ?LogicalAndExp@SQCompiler@@QAEXXZ 1000c2be f i sqcompiler.obj
 0001:0000b39d       ?BitwiseOrExp@SQCompiler@@QAEXXZ 1000c39d f i sqcompiler.obj
 0001:0000b3bc       ?BitwiseXorExp@SQCompiler@@QAEXXZ 1000c3bc f i sqcompiler.obj
 0001:0000b3db       ?BitwiseAndExp@SQCompiler@@QAEXXZ 1000c3db f i sqcompiler.obj
 0001:0000b3fa       ?EqExp@SQCompiler@@QAEXXZ  1000c3fa f i sqcompiler.obj
 0001:0000b438       ?CompExp@SQCompiler@@QAEXXZ 1000c438 f i sqcompiler.obj
 0001:0000b478       ?ShiftExp@SQCompiler@@QAEXXZ 1000c478 f i sqcompiler.obj
 0001:0000b4b0       ?ChooseArithOpByToken@SQCompiler@@QAE?AW4SQOpcode@@H@Z 1000c4b0 f i sqcompiler.obj
 0001:0000b4f6       ?PlusExp@SQCompiler@@QAEXXZ 1000c4f6 f i sqcompiler.obj
 0001:0000b521       ?MultExp@SQCompiler@@QAEXXZ 1000c521 f i sqcompiler.obj
 0001:0000b550       ?PrefixedExpr@SQCompiler@@QAEXXZ 1000c550 f i sqcompiler.obj
 0001:0000b7db       ?Factor@SQCompiler@@QAEHXZ 1000c7db f i sqcompiler.obj
 0001:0000be6e       ?EmitLoadConstInt@SQCompiler@@QAEXHH@Z 1000ce6e f i sqcompiler.obj
 0001:0000be92       ?EmitLoadConstFloat@SQCompiler@@QAEXMH@Z 1000ce92 f i sqcompiler.obj
 0001:0000beb6       ?UnaryOP@SQCompiler@@QAEXW4SQOpcode@@@Z 1000ceb6 f i sqcompiler.obj
 0001:0000bee6       ?NeedGet@SQCompiler@@QAE_NXZ 1000cee6 f i sqcompiler.obj
 0001:0000bf3a       ?FunctionCallArgs@SQCompiler@@QAEXXZ 1000cf3a f i sqcompiler.obj
 0001:0000bff3       ?ParseTableOrClass@SQCompiler@@QAEXHH@Z 1000cff3 f i sqcompiler.obj
 0001:0000c297       ?LocalDeclStatement@SQCompiler@@QAEXXZ 1000d297 f i sqcompiler.obj
 0001:0000c3c0       ?IfStatement@SQCompiler@@QAEXXZ 1000d3c0 f i sqcompiler.obj
 0001:0000c56b       ?WhileStatement@SQCompiler@@QAEXXZ 1000d56b f i sqcompiler.obj
 0001:0000c6d3       ?DoWhileStatement@SQCompiler@@QAEXXZ 1000d6d3 f i sqcompiler.obj
 0001:0000c839       ?ForStatement@SQCompiler@@QAEXXZ 1000d839 f i sqcompiler.obj
 0001:0000cad2       ?ForEachStatement@SQCompiler@@QAEXXZ 1000dad2 f i sqcompiler.obj
 0001:0000cd57       ?SwitchStatement@SQCompiler@@QAEXXZ 1000dd57 f i sqcompiler.obj
 0001:0000cfb2       ?FunctionStatement@SQCompiler@@QAEXXZ 1000dfb2 f i sqcompiler.obj
 0001:0000d0c8       ?ClassStatement@SQCompiler@@QAEXXZ 1000e0c8 f i sqcompiler.obj
 0001:0000d13d       ?ExpectScalar@SQCompiler@@QAE?AUtagSQObject@@XZ 1000e13d f i sqcompiler.obj
 0001:0000d1eb       ?EnumStatement@SQCompiler@@QAEXXZ 1000e1eb f i sqcompiler.obj
 0001:0000d387       ?TryCatchStatement@SQCompiler@@QAEXXZ 1000e387 f i sqcompiler.obj
 0001:0000d5af       ?FunctionExp@SQCompiler@@QAEXH_N@Z 1000e5af f i sqcompiler.obj
 0001:0000d637       ?ClassExp@SQCompiler@@QAEXXZ 1000e637 f i sqcompiler.obj
 0001:0000d709       ?DeleteExpr@SQCompiler@@QAEXXZ 1000e709 f i sqcompiler.obj
 0001:0000d771       ?PrefixIncDec@SQCompiler@@QAEXH@Z 1000e771 f i sqcompiler.obj
 0001:0000d84f       ?CreateFunction@SQCompiler@@QAEXAAUtagSQObject@@_N@Z 1000e84f f i sqcompiler.obj
 0001:0000da84       ?ResolveBreaks@SQCompiler@@QAEXPAUSQFuncState@@H@Z 1000ea84 f i sqcompiler.obj
 0001:0000dab5       ?ResolveContinues@SQCompiler@@QAEXPAUSQFuncState@@HH@Z 1000eab5 f i sqcompiler.obj
 0001:0000dae6       ?Compile@@YA_NPAUSQVM@@P6AHPAX@Z1PBDAAUSQObjectPtr@@_N5@Z 1000eae6 f   sqcompiler.obj
 0001:0000db5b       ??1SQCompiler@@QAE@XZ      1000eb5b f i sqcompiler.obj
 0001:0000db91       ?push_back@?$sqvector@H@@QAEAAHABH@Z 1000eb91 f i sqcompiler.obj
 0001:0000dbc5       ??1?$sqvector@H@@QAE@XZ    1000ebc5 f i sqapi.obj
 0001:0000dbc5       ??1?$sqvector@USQLineInfo@@@@QAE@XZ 1000ebc5 f i sqfuncstate.obj
 0001:0000dbc5       ??1?$sqvector@USQInstruction@@@@QAE@XZ 1000ebc5 f i sqcompiler.obj
 0001:0000dbc5       ??1?$sqvector@USQExceptionTrap@@@@QAE@XZ 1000ebc5 f i sqvm.obj
 0001:0000dbc5       ??1?$sqvector@PAUSQFuncState@@@@QAE@XZ 1000ebc5 f i sqfuncstate.obj
 0001:0000dbc5       ??1?$sqvector@D@@QAE@XZ    1000ebc5 f i sqlexer.obj
 0001:0000dbd5       ??$BIN_EXP@P8SQCompiler@@AEXXZ@SQCompiler@@QAEXW4SQOpcode@@P80@AEXXZH@Z 1000ebd5 f i sqcompiler.obj
 0001:0000dc1b       _sq_getfunctioninfo        1000ec1b f   sqdebug.obj
 0001:0000dc8b       _sq_stackinfos             1000ec8b f   sqdebug.obj
 0001:0000dd25       ?Raise_Error@SQVM@@QAAXPBDZZ 1000ed25 f   sqdebug.obj
 0001:0000dd81       ?PrintObjVal@SQVM@@QAEPAUSQString@@ABUSQObjectPtr@@@Z 1000ed81 f   sqdebug.obj
 0001:0000de27       ?Raise_IdxError@SQVM@@QAEXABUSQObjectPtr@@@Z 1000ee27 f   sqdebug.obj
 0001:0000de75       ?Raise_CompareError@SQVM@@QAEXABUtagSQObject@@0@Z 1000ee75 f   sqdebug.obj
 0001:0000df41       ?Raise_ParamTypeError@SQVM@@QAEXHHH@Z 1000ef41 f   sqdebug.obj
 0001:0000e06b       ??4SQObjectPtr@@QAEAAU0@PAUSQTable@@@Z 1000f06b f i sqfuncstate.obj
 0001:0000e091       ??0SQOuterVar@@QAE@ABUSQObjectPtr@@0W4SQOuterType@@@Z 1000f091 f i sqfuncstate.obj
 0001:0000e0e9       ??0SQOuterVar@@QAE@ABU0@@Z 1000f0e9 f i sqfuncstate.obj
 0001:0000e146       ??0SQLocalVarInfo@@QAE@ABU0@@Z 1000f146 f i sqfuncstate.obj
 0001:0000e18c       ?Create@SQFunctionProto@@SAPAU1@PAUSQSharedState@@HHHHHHHH@Z 1000f18c f i sqfuncstate.obj
 0001:0000e30d       ??1SQOuterVar@@QAE@XZ      1000f30d f i sqfuncstate.obj
 0001:0000e342       ??1SQLocalVarInfo@@QAE@XZ  1000f342 f i sqfuncstate.obj
 0001:0000e347       ??0SQFuncState@@QAE@PAUSQSharedState@@PAU0@P6AXPAXPBD@Z2@Z 1000f347 f   sqfuncstate.obj
 0001:0000e4c0       ?GetConstant@SQFuncState@@QAEHABUtagSQObject@@@Z 1000f4c0 f   sqfuncstate.obj
 0001:0000e5ba       ?SetIntructionParams@SQFuncState@@QAEXHHHHH@Z 1000f5ba f   sqfuncstate.obj
 0001:0000e5dc       ?AllocStackPos@SQFuncState@@QAEHXZ 1000f5dc f   sqfuncstate.obj
 0001:0000e656       ?PushTarget@SQFuncState@@QAEHH@Z 1000f656 f   sqfuncstate.obj
 0001:0000e67e       ?PopTarget@SQFuncState@@QAEHXZ 1000f67e f   sqfuncstate.obj
 0001:0000e6b2       ?CountOuters@SQFuncState@@QAEHH@Z 1000f6b2 f   sqfuncstate.obj
 0001:0000e6e1       ?SetStackSize@SQFuncState@@QAEXH@Z 1000f6e1 f   sqfuncstate.obj
 0001:0000e774       ?IsConstant@SQFuncState@@QAE_NABUtagSQObject@@AAU2@@Z 1000f774 f   sqfuncstate.obj
 0001:0000e805       ?IsLocal@SQFuncState@@QAE_NI@Z 1000f805 f   sqfuncstate.obj
 0001:0000e81e       ?PushLocalVariable@SQFuncState@@QAEHABUtagSQObject@@@Z 1000f81e f   sqfuncstate.obj
 0001:0000e893       ?GetLocalVariable@SQFuncState@@QAEHABUtagSQObject@@@Z 1000f893 f   sqfuncstate.obj
 0001:0000e8cf       ?GetOuterVariable@SQFuncState@@QAEHABUtagSQObject@@@Z 1000f8cf f   sqfuncstate.obj
 0001:0000ea3e       ?AddParameter@SQFuncState@@QAEXABUtagSQObject@@@Z 1000fa3e f   sqfuncstate.obj
 0001:0000ea7a       ?AddLineInfos@SQFuncState@@QAEXH_N0@Z 1000fa7a f   sqfuncstate.obj
 0001:0000ead1       ?DiscardTarget@SQFuncState@@QAEXXZ 1000fad1 f   sqfuncstate.obj
 0001:0000eb15       ?AddInstruction@SQFuncState@@QAEXAAUSQInstruction@@@Z 1000fb15 f   sqfuncstate.obj
 0001:0000edd1       ?CreateString@SQFuncState@@QAE?AUtagSQObject@@PBDH@Z 1000fdd1 f   sqfuncstate.obj
 0001:0000ee5a       ?CreateTable@SQFuncState@@QAE?AUtagSQObject@@XZ 1000fe5a f   sqfuncstate.obj
 0001:0000eedd       ?BuildProto@SQFuncState@@QAEPAUSQFunctionProto@@XZ 1000fedd f   sqfuncstate.obj
 0001:0000f137       ?PushChildState@SQFuncState@@QAEPAU1@PAUSQSharedState@@@Z 10010137 f   sqfuncstate.obj
 0001:0000f1d6       ?PopChildState@SQFuncState@@QAEXXZ 100101d6 f   sqfuncstate.obj
 0001:0000f201       ??1SQFuncState@@QAE@XZ     10010201 f   sqfuncstate.obj
 0001:0000f34d       ??1?$sqvector@USQLocalVarInfo@@@@QAE@XZ 1001034d f i sqfuncstate.obj
 0001:0000f37b       ?push_back@?$sqvector@USQLocalVarInfo@@@@QAEAAUSQLocalVarInfo@@ABU2@@Z 1001037b f i sqfuncstate.obj
 0001:0000f3e3       ??1?$sqvector@USQOuterVar@@@@QAE@XZ 100103e3 f i sqfuncstate.obj
 0001:0000f412       ?push_back@?$sqvector@USQOuterVar@@@@QAEAAUSQOuterVar@@ABU2@@Z 10010412 f i sqfuncstate.obj
 0001:0000f47a       ?push_back@?$sqvector@USQInstruction@@@@QAEAAUSQInstruction@@ABU2@@Z 1001047a f i sqcompiler.obj
 0001:0000f47a       ?push_back@?$sqvector@USQLineInfo@@@@QAEAAUSQLineInfo@@ABU2@@Z 1001047a f i sqfuncstate.obj
 0001:0000f4c2       ??1SQLexer@@QAE@XZ         100104c2 f   sqlexer.obj
 0001:0000f4fb       ?Init@SQLexer@@QAEXPAUSQSharedState@@P6AHPAX@Z1P6AX1PBD@Z1@Z 100104fb f   sqlexer.obj
 0001:00010213       ?Next@SQLexer@@AAEXXZ      10011213 f   sqlexer.obj
 0001:00010248       ?Tok2Str@SQLexer@@QAEPBDH@Z 10011248 f   sqlexer.obj
 0001:000102e2       ?Lex@SQLexer@@QAEHXZ       100112e2 f   sqlexer.obj
 0001:000108ba       ?GetIDType@SQLexer@@AAEHPAD@Z 100118ba f   sqlexer.obj
 0001:00010946       ?ReadString@SQLexer@@AAEHH_N@Z 10011946 f   sqlexer.obj
 0001:00010bb5       ?LexHexadecimal@@YAXPBDPAI@Z 10011bb5 f   sqlexer.obj
 0001:00010c08       ?isexponent@@YAHH@Z        10011c08 f   sqlexer.obj
 0001:00010c1d       ?ReadNumber@SQLexer@@AAEHXZ 10011c1d f   sqlexer.obj
 0001:00010ebd       ?ReadID@SQLexer@@AAEHXZ    10011ebd f   sqlexer.obj
 0001:00010f29       ?push_back@?$sqvector@D@@QAEAADABD@Z 10011f29 f i sqlexer.obj
 0001:00010f6d       ?Release@SQFunctionProto@@UAEXXZ 10011f6d f i sqobject.obj
 0001:0001100a       ?Finalize@SQFunctionProto@@UAEXXZ 1001200a f i sqobject.obj
 0001:00011029       ?GetType@SQFunctionProto@@UAE?AW4tagSQObjectType@@XZ 10012029 f i sqobject.obj
 0001:0001102f       ?IdType2Name@@YAPBDW4tagSQObjectType@@@Z 1001202f f   sqobject.obj
 0001:0001110a       ?Create@SQString@@SAPAU1@PAUSQSharedState@@PBDH@Z 1001210a f   sqobject.obj
 0001:0001111d       ?Release@SQString@@UAEXXZ  1001211d f   sqobject.obj
 0001:0001116d       ?TranslateIndex@@YAIABUSQObjectPtr@@@Z 1001216d f   sqobject.obj
 0001:00011184       ?GetWeakRef@SQRefCounted@@QAEPAUSQWeakRef@@W4tagSQObjectType@@@Z 10012184 f   sqobject.obj
 0001:000111be       ??_GSQWeakRef@@UAEPAXI@Z   100121be f i sqobject.obj
 0001:000111be       ??_ESQWeakRef@@UAEPAXI@Z   100121be f i  CIL library: CIL module
 0001:000111be       ??_ESQRefCounted@@UAEPAXI@Z 100121be f i  CIL library: CIL module
 0001:000111be       ??_GSQRefCounted@@UAEPAXI@Z 100121be f i sqapi.obj
 0001:000111da       ??1SQRefCounted@@UAE@XZ    100121da f   sqobject.obj
 0001:000111f6       ?Release@SQWeakRef@@UAEXXZ 100121f6 f   sqobject.obj
 0001:00011219       ?GetMetaMethod@SQDelegable@@UAE_NPAUSQVM@@W4SQMetaMethod@@AAUSQObjectPtr@@@Z 10012219 f   sqobject.obj
 0001:00011247       ?SetDelegate@SQDelegable@@QAE_NPAUSQTable@@@Z 10012247 f   sqobject.obj
 0001:00011284       ?Yield@SQGenerator@@QAE_NPAUSQVM@@H@Z 10012284 f   sqobject.obj
 0001:0001142c       ?Resume@SQGenerator@@QAE_NPAUSQVM@@AAUSQObjectPtr@@@Z 1001242c f   sqobject.obj
 0001:00011592       ?GetLocal@SQFunctionProto@@QAEPBDPAUSQVM@@III@Z 10012592 f   sqobject.obj
 0001:000115fc       ?GetLine@SQFunctionProto@@QAEHPAUSQInstruction@@@Z 100125fc f   sqobject.obj
 0001:0001165d       ??1SQClosure@@UAE@XZ       1001265d f   sqobject.obj
 0001:000116da       ?SafeWrite@@YA_NPAUSQVM@@P6AHPAX1H@Z11H@Z 100126da f   sqobject.obj
 0001:00011704       ?SafeRead@@YA_NPAUSQVM@@P6AHPAX1H@Z11H@Z 10012704 f   sqobject.obj
 0001:0001172e       ?WriteTag@@YA_NPAUSQVM@@P6AHPAX1H@Z1I@Z 1001272e f   sqobject.obj
 0001:00011746       ?CheckTag@@YA_NPAUSQVM@@P6AHPAX1H@Z1I@Z 10012746 f   sqobject.obj
 0001:00011783       ?WriteObject@@YA_NPAUSQVM@@PAXP6AH11H@ZAAUSQObjectPtr@@@Z 10012783 f   sqobject.obj
 0001:00011820       ?ReadObject@@YA_NPAUSQVM@@PAXP6AH11H@ZAAUSQObjectPtr@@@Z 10012820 f   sqobject.obj
 0001:00011957       ?Save@SQClosure@@QAE_NPAUSQVM@@PAXP6AH11H@Z@Z 10012957 f   sqobject.obj
 0001:000119cc       ?Load@SQClosure@@SA_NPAUSQVM@@PAXP6AH11H@ZAAUSQObjectPtr@@@Z 100129cc f   sqobject.obj
 0001:00011aad       ??_ESQFunctionProto@@EAEPAXI@Z 10012aad f i  CIL library: CIL module
 0001:00011aad       ??_GSQFunctionProto@@EAEPAXI@Z 10012aad f i sqobject.obj
 0001:00011b1c       ?Save@SQFunctionProto@@QAE_NPAUSQVM@@PAXP6AH11H@Z@Z 10012b1c f   sqobject.obj
 0001:00011f8c       ?Load@SQFunctionProto@@SA_NPAUSQVM@@PAXP6AH11H@ZAAUSQObjectPtr@@@Z 10012f8c f   sqobject.obj
 0001:0001262f       ?Mark@SQVM@@UAEXPAPAUSQCollectable@@@Z 1001362f f   sqobject.obj
 0001:000126cc       ?Mark@SQArray@@UAEXPAPAUSQCollectable@@@Z 100136cc f   sqobject.obj
 0001:0001271d       ?Mark@SQTable@@UAEXPAPAUSQCollectable@@@Z 1001371d f   sqobject.obj
 0001:00012789       ?Mark@SQClass@@UAEXPAPAUSQCollectable@@@Z 10013789 f   sqobject.obj
 0001:0001285c       ?Mark@SQInstance@@UAEXPAPAUSQCollectable@@@Z 1001385c f   sqobject.obj
 0001:000128b9       ?Mark@SQGenerator@@UAEXPAPAUSQCollectable@@@Z 100138b9 f   sqobject.obj
 0001:0001290f       ?Mark@SQFunctionProto@@UAEXPAPAUSQCollectable@@@Z 1001390f f   sqobject.obj
 0001:00012975       ?Mark@SQClosure@@UAEXPAPAUSQCollectable@@@Z 10013975 f   sqobject.obj
 0001:00012a10       ?Mark@SQNativeClosure@@UAEXPAPAUSQCollectable@@@Z 10013a10 f   sqobject.obj
 0001:00012a5e       ?Mark@SQOuter@@UAEXPAPAUSQCollectable@@@Z 10013a5e f   sqobject.obj
 0001:00012a9f       ?Mark@SQUserData@@UAEXPAPAUSQCollectable@@@Z 10013a9f f   sqobject.obj
 0001:00012adf       ?push_back@?$sqvector@USQExceptionTrap@@@@QAEAAUSQExceptionTrap@@ABU2@@Z 10013adf f i sqobject.obj
 0001:00012b30       ??_ESQString@@UAEPAXI@Z    10013b30 f i  CIL library: CIL module
 0001:00012b30       ??_GSQString@@UAEPAXI@Z    10013b30 f i sqstate.obj
 0001:00012b52       ??0SQSharedState@@QAE@XZ   10013b52 f   sqstate.obj
 0001:00012c02       ?CompileTypemask@@YA_NAAV?$sqvector@H@@PBD@Z 10013c02 f   sqstate.obj
 0001:00012d56       ?CreateDefaultDelegate@@YAPAUSQTable@@PAUSQSharedState@@PAUtagSQRegFunction@@@Z 10013d56 f   sqstate.obj
 0001:00012e57       ?Init@SQSharedState@@QAEXXZ 10013e57 f   sqstate.obj
 0001:00013adb       ??1SQSharedState@@QAE@XZ   10014adb f   sqstate.obj
 0001:00013d54       ?GetMetaMethodIdxByName@SQSharedState@@QAEHABUSQObjectPtr@@@Z 10014d54 f   sqstate.obj
 0001:00013dbb       ?MarkObject@SQSharedState@@SAXAAUSQObjectPtr@@PAPAUSQCollectable@@@Z 10014dbb f   sqstate.obj
 0001:00013e21       ?RunMark@SQSharedState@@QAEXPAUSQVM@@PAPAUSQCollectable@@@Z 10014e21 f   sqstate.obj
 0001:00013ed4       ?ResurrectUnreachable@SQSharedState@@QAEHPAUSQVM@@@Z 10014ed4 f   sqstate.obj
 0001:00013fe0       ?CollectGarbage@SQSharedState@@QAEHPAUSQVM@@@Z 10014fe0 f   sqstate.obj
 0001:00014049       ?AddToChain@SQCollectable@@SAXPAPAU1@PAU1@@Z 10015049 f   sqstate.obj
 0001:0001405e       ?RemoveFromChain@SQCollectable@@SAXPAPAU1@PAU1@@Z 1001505e f   sqstate.obj
 0001:0001408c       ?GetScratchPad@SQSharedState@@QAEPADH@Z 1001508c f   sqstate.obj
 0001:000140e6       ??1RefTable@@QAE@XZ        100150e6 f   sqstate.obj
 0001:000140f1       ?Release@RefTable@@QAEIAAUtagSQObject@@@Z 100150f1 f   sqstate.obj
 0001:0001417e       ?Resize@RefTable@@AAEXI@Z  1001517e f   sqstate.obj
 0001:000141e7       ?Add@RefTable@@AAEPAURefNode@1@IAAUtagSQObject@@@Z 100151e7 f   sqstate.obj
 0001:00014226       ?Get@RefTable@@AAEPAURefNode@1@AAUtagSQObject@@AAIPAPAU21@_N@Z 10015226 f   sqstate.obj
 0001:000142e4       ?AllocNodes@RefTable@@AAEXI@Z 100152e4 f   sqstate.obj
 0001:00014357       ?AllocNodes@SQStringTable@@AAEXH@Z 10015357 f   sqstate.obj
 0001:00014379       ?Add@SQStringTable@@QAEPAUSQString@@PBDH@Z 10015379 f   sqstate.obj
 0001:000144cd       ??1SQTable@@UAE@XZ         100154cd f i sqtable.obj
 0001:00014544       ?GetType@SQTable@@UAE?AW4tagSQObjectType@@XZ 10015544 f i sqtable.obj
 0001:0001454a       ?_Get@SQTable@@QAEPAU_HashNode@1@ABUSQObjectPtr@@I@Z 1001554a f i sqtable.obj
 0001:00014569       ??_GSQTable@@UAEPAXI@Z     10015569 f i sqtable.obj
 0001:00014569       ??_ESQTable@@UAEPAXI@Z     10015569 f i  CIL library: CIL module
 0001:00014586       ??_G_HashNode@SQTable@@QAEPAXI@Z 10015586 f i sqtable.obj
 0001:000145bc       ??0SQTable@@AAE@PAUSQSharedState@@H@Z 100155bc f   sqtable.obj
 0001:00014604       ?Remove@SQTable@@QAEXABUSQObjectPtr@@@Z 10015604 f   sqtable.obj
 0001:00014642       ?AllocNodes@SQTable@@AAEXH@Z 10015642 f   sqtable.obj
 0001:00014697       ?Rehash@SQTable@@AAEX_N@Z  10015697 f   sqtable.obj
 0001:0001473e       ?Clone@SQTable@@QAEPAU1@XZ 1001573e f   sqtable.obj
 0001:00014831       ?Get@SQTable@@QAE_NABUSQObjectPtr@@AAU2@@Z 10015831 f   sqtable.obj
 0001:0001488c       ?NewSlot@SQTable@@QAE_NABUSQObjectPtr@@0@Z 1001588c f   sqtable.obj
 0001:00014993       ?Next@SQTable@@QAEH_NABUSQObjectPtr@@AAU2@2@Z 10015993 f   sqtable.obj
 0001:00014a25       ?Set@SQTable@@QAE_NABUSQObjectPtr@@0@Z 10015a25 f   sqtable.obj
 0001:00014a5b       ?_ClearNodes@SQTable@@AAEXXZ 10015a5b f   sqtable.obj
 0001:00014a88       ?Finalize@SQTable@@UAEXXZ  10015a88 f   sqtable.obj
 0001:00014a9d       ??4SQObjectPtr@@QAEAAU0@PAUSQClass@@@Z 10015a9d f i sqvm.obj
 0001:00014ac3       ??4SQObjectPtr@@QAEAAU0@PAUSQInstance@@@Z 10015ac3 f i sqvm.obj
 0001:00014ae9       ??4SQObjectPtr@@QAEAAU0@_N@Z 10015ae9 f i sqvm.obj
 0001:00014b1c       ?GetType@SQVM@@UAE?AW4tagSQObjectType@@XZ 10015b1c f i sqvm.obj
 0001:00014b22       ?GrowCallStack@SQVM@@QAEXXZ 10015b22 f i sqvm.obj
 0001:00014b72       ?Release@SQArray@@UAEXXZ   10015b72 f i sqapi.obj
 0001:00014b72       ?Release@SQTable@@UAEXXZ   10015b72 f i sqtable.obj
 0001:00014b72       ?Release@SQOuter@@UAEXXZ   10015b72 f i sqvm.obj
 0001:00014b72       ?Release@SQVM@@UAEXXZ      10015b72 f i sqvm.obj
 0001:00014b72       ?Release@SQGenerator@@UAEXXZ 10015b72 f i sqvm.obj
 0001:00014b85       ??1CallInfo@SQVM@@QAE@XZ   10015b85 f i sqvm.obj
 0001:00014b8d       ??1AutoDec@@QAE@XZ         10015b8d f i sqvm.obj
 0001:00014b92       ?Finalize@SQOuter@@UAEXXZ  10015b92 f i sqvm.obj
 0001:00014b9a       ?GetType@SQOuter@@UAE?AW4tagSQObjectType@@XZ 10015b9a f i sqvm.obj
 0001:00014ba0       ??_ESQOuter@@UAEPAXI@Z     10015ba0 f i  CIL library: CIL module
 0001:00014ba0       ??_GSQOuter@@UAEPAXI@Z     10015ba0 f i sqvm.obj
 0001:00014c00       ??0SQGenerator@@AAE@PAUSQSharedState@@PAUSQClosure@@@Z 10015c00 f i sqvm.obj
 0001:00014c7f       ??1SQGenerator@@UAE@XZ     10015c7f f i sqvm.obj
 0001:00014cfa       ?Kill@SQGenerator@@QAEXXZ  10015cfa f i sqvm.obj
 0001:00014d4b       ?Finalize@SQGenerator@@UAEXXZ 10015d4b f i sqvm.obj
 0001:00014d99       ?GetType@SQGenerator@@UAE?AW4tagSQObjectType@@XZ 10015d99 f i sqvm.obj
 0001:00014d9f       ??_GSQGenerator@@UAEPAXI@Z 10015d9f f i sqvm.obj
 0001:00014d9f       ??_ESQGenerator@@UAEPAXI@Z 10015d9f f i  CIL library: CIL module
 0001:00014dbc       ?Next@SQArray@@QAEHABUSQObjectPtr@@AAU2@1@Z 10015dbc f i sqvm.obj
 0001:00014e11       ?Clone@SQInstance@@QAEPAU1@PAUSQSharedState@@@Z 10015e11 f i sqvm.obj
 0001:00014e82       ?BW_OP@SQVM@@QAE_NIAAUSQObjectPtr@@ABU2@1@Z 10015e82 f   sqvm.obj
 0001:00014f0c       ?ARITH_OP@SQVM@@QAE_NIAAUSQObjectPtr@@ABU2@1@Z 10015f0c f   sqvm.obj
 0001:0001505a       ??0SQVM@@QAE@PAUSQSharedState@@@Z 1001605a f   sqvm.obj
 0001:00015145       ??_ESQVM@@UAEPAXI@Z        10016145 f i  CIL library: CIL module
 0001:00015145       ??_GSQVM@@UAEPAXI@Z        10016145 f i sqvm.obj
 0001:00015162       ?Finalize@SQVM@@UAEXXZ     10016162 f   sqvm.obj
 0001:00015203       ??1SQVM@@UAE@XZ            10016203 f   sqvm.obj
 0001:000152be       ?ArithMetaMethod@SQVM@@QAE_NHABUSQObjectPtr@@0AAU2@@Z 100162be f   sqvm.obj
 0001:000153a1       ?NEG_OP@SQVM@@QAE_NAAUSQObjectPtr@@ABU2@@Z 100163a1 f   sqvm.obj
 0001:000154a4       ?ObjCmp@SQVM@@QAE_NABUSQObjectPtr@@0AAH@Z 100164a4 f   sqvm.obj
 0001:00015726       ?CMP_OP@SQVM@@QAE_NW4CmpOP@@ABUSQObjectPtr@@1AAU3@@Z 10016726 f   sqvm.obj
 0001:00015792       ?ToString@SQVM@@QAE_NABUSQObjectPtr@@AAU2@@Z 10016792 f   sqvm.obj
 0001:0001592d       ?StringCat@SQVM@@QAE_NABUSQObjectPtr@@0AAU2@@Z 1001692d f   sqvm.obj
 0001:00015a3e       ?TypeOf@SQVM@@QAE_NABUSQObjectPtr@@AAU2@@Z 10016a3e f   sqvm.obj
 0001:00015ae6       ?Init@SQVM@@QAE_NPAU1@H@Z  10016ae6 f   sqvm.obj
 0001:00015bc8       ?StartCall@SQVM@@QAE_NPAUSQClosure@@HHH_N@Z 10016bc8 f   sqvm.obj
 0001:00015e11       ?Return@SQVM@@QAE_NHHAAUSQObjectPtr@@@Z 10016e11 f   sqvm.obj
 0001:00015ea9       ?PLOCAL_INC@SQVM@@QAE_NHAAUSQObjectPtr@@00@Z 10016ea9 f   sqvm.obj
 0001:00015f17       ?DerefInc@SQVM@@QAE_NHAAUSQObjectPtr@@000_NH@Z 10016f17 f   sqvm.obj
 0001:0001602b       ?FOREACH_OP@SQVM@@QAE_NAAUSQObjectPtr@@000HHAAH@Z 1001702b f   sqvm.obj
 0001:00016293       ?CLOSURE_OP@SQVM@@QAE_NAAUSQObjectPtr@@PAUSQFunctionProto@@@Z 10017293 f   sqvm.obj
 0001:0001636a       ?CLASS_OP@SQVM@@QAE_NAAUSQObjectPtr@@HH@Z 1001736a f   sqvm.obj
 0001:00016490       ?IsEqual@SQVM@@SA_NABUSQObjectPtr@@0AA_N@Z 10017490 f   sqvm.obj
 0001:000164ff       ?IsFalse@SQVM@@SA_NAAUSQObjectPtr@@@Z 100174ff f   sqvm.obj
 0001:00016527       ?Execute@SQVM@@QAE_NAAUSQObjectPtr@@HH0IW4ExecutionType@1@@Z 10017527 f   sqvm.obj
 0001:00017ec7       ?CreateClassInstance@SQVM@@QAE_NPAUSQClass@@AAUSQObjectPtr@@1@Z 10018ec7 f   sqvm.obj
 0001:00017f03       ?CallErrorHandler@SQVM@@QAEXAAUSQObjectPtr@@@Z 10018f03 f   sqvm.obj
 0001:00017f79       ?CallDebugHook@SQVM@@QAEXHH@Z 10018f79 f   sqvm.obj
 0001:000180c3       ?CallNative@SQVM@@QAE_NPAUSQNativeClosure@@HHAAUSQObjectPtr@@AA_N@Z 100190c3 f   sqvm.obj
 0001:00018254       ?Get@SQVM@@QAE_NABUSQObjectPtr@@0AAU2@_NH@Z 10019254 f   sqvm.obj
 0001:000183d4       ?InvokeDefaultDelegate@SQVM@@QAE_NABUSQObjectPtr@@0AAU2@@Z 100193d4 f   sqvm.obj
 0001:000184d4       ?FallBackGet@SQVM@@QAEHABUSQObjectPtr@@0AAU2@@Z 100194d4 f   sqvm.obj
 0001:0001860a       ?Set@SQVM@@QAE_NABUSQObjectPtr@@00H@Z 1001960a f   sqvm.obj
 0001:00018704       ?FallBackSet@SQVM@@QAEHABUSQObjectPtr@@00@Z 10019704 f   sqvm.obj
 0001:0001886c       ?Clone@SQVM@@QAE_NABUSQObjectPtr@@AAU2@@Z 1001986c f   sqvm.obj
 0001:000189f9       ?NewSlotA@SQVM@@QAE_NABUSQObjectPtr@@000_N1@Z 100199f9 f   sqvm.obj
 0001:00018afb       ?NewSlot@SQVM@@QAE_NABUSQObjectPtr@@00_N@Z 10019afb f   sqvm.obj
 0001:00018db9       ?DeleteSlot@SQVM@@QAE_NABUSQObjectPtr@@0AAU2@@Z 10019db9 f   sqvm.obj
 0001:00018f3b       ?Call@SQVM@@QAE_NAAUSQObjectPtr@@HH0I@Z 10019f3b f   sqvm.obj
 0001:00019058       ?CallMetaMethod@SQVM@@QAE_NAAUSQObjectPtr@@W4SQMetaMethod@@H0@Z 1001a058 f   sqvm.obj
 0001:00019099       ?FindOuter@SQVM@@QAEXAAUSQObjectPtr@@PAU2@@Z 1001a099 f   sqvm.obj
 0001:0001916d       ?EnterFrame@SQVM@@QAE_NHH_N@Z 1001a16d f   sqvm.obj
 0001:00019278       ?LeaveFrame@SQVM@@QAEXXZ   1001a278 f   sqvm.obj
 0001:000192f1       ?CloseOuters@SQVM@@QAEXPAUSQObjectPtr@@@Z 1001a2f1 f   sqvm.obj
 0001:0001932c       ?Pop@SQVM@@QAEXXZ          1001a32c f   sqvm.obj
 0001:0001933d       ?Pop@SQVM@@QAEXH@Z         1001a33d f   sqvm.obj
 0001:0001935a       ?PushNull@SQVM@@QAEXXZ     1001a35a f   sqvm.obj
 0001:0001936e       ?Push@SQVM@@QAEXABUSQObjectPtr@@@Z 1001a36e f   sqvm.obj
 0001:0001938b       ?copy@?$sqvector@USQObjectPtr@@@@QAEXABV1@@Z 1001a38b f i sqvm.obj
 0001:00019417       ??1?$sqvector@UCallInfo@SQVM@@@@QAE@XZ 1001a417 f i sqvm.obj
 0001:00019447       ?resize@?$sqvector@UCallInfo@SQVM@@@@QAEXIABUCallInfo@SQVM@@@Z 1001a447 f i sqvm.obj
 0001:0001950e       __purecall                 1001a50e f   MSVCRT:MSVCR90.dll
 0001:00019514       ??3@YAXPAX@Z               1001a514 f   MSVCRT:MSVCR90.dll
 0001:0001951a       ??_Etype_info@@UAEPAXI@Z   1001a51a f i MSVCRT:ti_inst.obj
 0001:00019566       ?__ArrayUnwind@@YGXPAXIHP6EX0@Z@Z 1001a566 f   MSVCRT:ehvecdtr.obj
 0001:000195c4       ??_M@YGXPAXIHP6EX0@Z@Z     1001a5c4 f   MSVCRT:ehvecdtr.obj
 0001:00019627       ??_L@YGXPAXIHP6EX0@Z1@Z    1001a627 f   MSVCRT:ehvecctr.obj
 0001:000196db       __CRT_INIT@12              1001a6db f   MSVCRT:crtdll.obj
 0001:00019a17       __DllMainCRTStartup@12     1001aa17 f   MSVCRT:crtdll.obj
 0001:00019a3a       ?terminate@@YAXXZ          1001aa3a f   MSVCRT:MSVCR90.dll
 0001:00019a40       __SEH_prolog4              1001aa40 f   MSVCRT:sehprolg4.obj
 0001:00019a85       __SEH_epilog4              1001aa85 f   MSVCRT:sehprolg4.obj
 0001:00019a99       __except_handler4          1001aa99 f   MSVCRT:chandler4gs.obj
 0001:00019abe       ___clean_type_info_names   1001aabe f   MSVCRT:tncleanup.obj
 0001:00019aca       __onexit                   1001aaca f   MSVCRT:atonexit.obj
 0001:00019b6f       _atexit                    1001ab6f f   MSVCRT:atonexit.obj
 0001:00019b86       __RTC_Initialize           1001ab86 f   MSVCRT:_initsect_.obj
 0001:00019bac       __RTC_Terminate            1001abac f   MSVCRT:_initsect_.obj
 0001:00019be0       __ValidateImageBase        1001abe0 f   MSVCRT:pesect.obj
 0001:00019c20       __FindPESection            1001ac20 f   MSVCRT:pesect.obj
 0001:00019c70       __IsNonwritableInCurrentImage 1001ac70 f   MSVCRT:pesect.obj
 0001:00019d2e       __initterm                 1001ad2e f   MSVCRT:MSVCR90.dll
 0001:00019d34       __initterm_e               1001ad34 f   MSVCRT:MSVCR90.dll
 0001:00019d3a       __amsg_exit                1001ad3a f   MSVCRT:MSVCR90.dll
 0001:00019d40       ___CppXcptFilter           1001ad40 f   MSVCRT:MSVCR90.dll
 0001:00019d46       _DllMain@12                1001ad46 f   MSVCRT:dllmain.obj
 0001:00019d6a       ___security_init_cookie    1001ad6a f   MSVCRT:gs_support.obj
 0001:00019e00       ??1type_info@@UAE@XZ       1001ae00 f   MSVCRT:MSVCR90.dll
 0001:00019e00       ?_type_info_dtor_internal_method@type_info@@QAEXXZ 1001ae00 f   MSVCRT:MSVCR90.dll
 0001:00019e06       @__security_check_cookie@4 1001ae06 f   MSVCRT:secchk.obj
 0001:00019e16       __except_handler4_common   1001ae16 f   MSVCRT:MSVCR90.dll
 0001:00019e1c       ___clean_type_info_names_internal 1001ae1c f   MSVCRT:MSVCR90.dll
 0001:00019e22       __unlock                   1001ae22 f   MSVCRT:MSVCR90.dll
 0001:00019e28       ___dllonexit               1001ae28 f   MSVCRT:MSVCR90.dll
 0001:00019e2e       __lock                     1001ae2e f   MSVCRT:MSVCR90.dll
 0001:00019e34       ___report_gsfailure        1001ae34 f   MSVCRT:gs_report.obj
 0001:00019f3a       __crt_debugger_hook        1001af3a f   MSVCRT:MSVCR90.dll
 0001:00019f40       ___CxxFrameHandler3        1001af40 f   MSVCRT:MSVCR90.dll
 0001:00019f48       __EH_prolog                1001af48 f   MSVCRT:ehprolog.obj
 0001:00019f70       __ftol2_sse                1001af70 f   MSVCRT:ftol2.obj
 0001:00019f79       __ftol2_pentium4           1001af79 f   MSVCRT:ftol2.obj
 0001:00019f8c       __ftol2_sse_excpt          1001af8c f   MSVCRT:ftol2.obj
 0001:00019fa6       __ftol2                    1001afa6 f   MSVCRT:ftol2.obj
 0001:0001a01c       __CItan                    1001b01c f   MSVCRT:MSVCR90.dll
 0001:0001a022       __CIsqrt                   1001b022 f   MSVCRT:MSVCR90.dll
 0001:0001a028       __CIsin                    1001b028 f   MSVCRT:MSVCR90.dll
 0001:0001a02e       __CIpow                    1001b02e f   MSVCRT:MSVCR90.dll
 0001:0001a034       __CIlog10                  1001b034 f   MSVCRT:MSVCR90.dll
 0001:0001a03a       __CIlog                    1001b03a f   MSVCRT:MSVCR90.dll
 0001:0001a040       _floor                     1001b040 f   MSVCRT:MSVCR90.dll
 0001:0001a046       __CIexp                    1001b046 f   MSVCRT:MSVCR90.dll
 0001:0001a04c       __CIcos                    1001b04c f   MSVCRT:MSVCR90.dll
 0001:0001a052       __CIatan2                  1001b052 f   MSVCRT:MSVCR90.dll
 0001:0001a058       __CIatan                   1001b058 f   MSVCRT:MSVCR90.dll
 0001:0001a05e       __CIasin                   1001b05e f   MSVCRT:MSVCR90.dll
 0001:0001a064       __CIacos                   1001b064 f   MSVCRT:MSVCR90.dll
 0001:0001a06a       _memcpy                    1001b06a f   MSVCRT:MSVCR90.dll
 0001:0001a070       _memset                    1001b070 f   MSVCRT:MSVCR90.dll
 0001:0001a076       __CIfmod                   1001b076 f   MSVCRT:MSVCR90.dll
 0001:0001a07c       __setjmp3                  1001b07c f   MSVCRT:MSVCR90.dll
 0001:0001a082       ___CxxLongjmpUnwind@4      1001b082 f   MSVCRT:MSVCR90.dll
 0001:0001a0d8       __get_sse2_info            1001b0d8 f   MSVCRT:cpu_disp.obj
 0001:0001a13a       ___sse2_available_init     1001b13a f   MSVCRT:cpu_disp.obj
 0002:00000000       __imp__SetUnhandledExceptionFilter@4 1001c000     kernel32:KERNEL32.dll
 0002:00000004       __imp__UnhandledExceptionFilter@4 1001c004     kernel32:KERNEL32.dll
 0002:00000008       __imp__GetCurrentProcess@0 1001c008     kernel32:KERNEL32.dll
 0002:0000000c       __imp__TerminateProcess@8  1001c00c     kernel32:KERNEL32.dll
 0002:00000010       __imp__GetSystemTimeAsFileTime@4 1001c010     kernel32:KERNEL32.dll
 0002:00000014       __imp__GetCurrentProcessId@0 1001c014     kernel32:KERNEL32.dll
 0002:00000018       __imp__GetCurrentThreadId@0 1001c018     kernel32:KERNEL32.dll
 0002:0000001c       __imp__GetTickCount@0      1001c01c     kernel32:KERNEL32.dll
 0002:00000020       __imp__QueryPerformanceCounter@4 1001c020     kernel32:KERNEL32.dll
 0002:00000024       __imp__DisableThreadLibraryCalls@4 1001c024     kernel32:KERNEL32.dll
 0002:00000028       __imp__InterlockedCompareExchange@12 1001c028     kernel32:KERNEL32.dll
 0002:0000002c       __imp__Sleep@4             1001c02c     kernel32:KERNEL32.dll
 0002:00000030       __imp__InterlockedExchange@8 1001c030     kernel32:KERNEL32.dll
 0002:00000034       __imp__IsDebuggerPresent@0 1001c034     kernel32:KERNEL32.dll
 0002:00000038       \177KERNEL32_NULL_THUNK_DATA 1001c038     kernel32:KERNEL32.dll
 0002:0000003c       __imp__isalnum             1001c03c     MSVCRT:MSVCR90.dll
 0002:00000040       __imp__ispunct             1001c040     MSVCRT:MSVCR90.dll
 0002:00000044       __imp__isprint             1001c044     MSVCRT:MSVCR90.dll
 0002:00000048       __imp__isalpha             1001c048     MSVCRT:MSVCR90.dll
 0002:0000004c       __imp__isdigit             1001c04c     MSVCRT:MSVCR90.dll
 0002:00000050       __imp__isupper             1001c050     MSVCRT:MSVCR90.dll
 0002:00000054       __imp__iscntrl             1001c054     MSVCRT:MSVCR90.dll
 0002:00000058       __imp__longjmp             1001c058     MSVCRT:MSVCR90.dll
 0002:0000005c       __imp__islower             1001c05c     MSVCRT:MSVCR90.dll
 0002:00000060       __imp__isxdigit            1001c060     MSVCRT:MSVCR90.dll
 0002:00000064       __imp__sprintf             1001c064     MSVCRT:MSVCR90.dll
 0002:00000068       __imp__strchr              1001c068     MSVCRT:MSVCR90.dll
 0002:0000006c       __imp__atoi                1001c06c     MSVCRT:MSVCR90.dll
 0002:00000070       __imp__strtok              1001c070     MSVCRT:MSVCR90.dll
 0002:00000074       __imp__rename              1001c074     MSVCRT:MSVCR90.dll
 0002:00000078       __imp___gmtime64           1001c078     MSVCRT:MSVCR90.dll
 0002:0000007c       __imp__system              1001c07c     MSVCRT:MSVCR90.dll
 0002:00000080       __imp__remove              1001c080     MSVCRT:MSVCR90.dll
 0002:00000084       __imp__clock               1001c084     MSVCRT:MSVCR90.dll
 0002:00000088       __imp___localtime64        1001c088     MSVCRT:MSVCR90.dll
 0002:0000008c       __imp__getenv              1001c08c     MSVCRT:MSVCR90.dll
 0002:00000090       __imp___time64             1001c090     MSVCRT:MSVCR90.dll
 0002:00000094       __imp__memmove             1001c094     MSVCRT:MSVCR90.dll
 0002:00000098       __imp__strtod              1001c098     MSVCRT:MSVCR90.dll
 0002:0000009c       __imp__strstr              1001c09c     MSVCRT:MSVCR90.dll
 0002:000000a0       __imp__strtol              1001c0a0     MSVCRT:MSVCR90.dll
 0002:000000a4       __imp__isspace             1001c0a4     MSVCRT:MSVCR90.dll
 0002:000000a8       __imp__toupper             1001c0a8     MSVCRT:MSVCR90.dll
 0002:000000ac       __imp__vsprintf            1001c0ac     MSVCRT:MSVCR90.dll
 0002:000000b0       __imp__strtoul             1001c0b0     MSVCRT:MSVCR90.dll
 0002:000000b4       __imp__free                1001c0b4     MSVCRT:MSVCR90.dll
 0002:000000b8       __imp__malloc              1001c0b8     MSVCRT:MSVCR90.dll
 0002:000000bc       __imp__realloc             1001c0bc     MSVCRT:MSVCR90.dll
 0002:000000c0       __imp_?terminate@@YAXXZ    1001c0c0     MSVCRT:MSVCR90.dll
 0002:000000c4       __imp___encode_pointer     1001c0c4     MSVCRT:MSVCR90.dll
 0002:000000c8       __imp___malloc_crt         1001c0c8     MSVCRT:MSVCR90.dll
 0002:000000cc       __imp___encoded_null       1001c0cc     MSVCRT:MSVCR90.dll
 0002:000000d0       __imp___decode_pointer     1001c0d0     MSVCRT:MSVCR90.dll
 0002:000000d4       __imp___initterm           1001c0d4     MSVCRT:MSVCR90.dll
 0002:000000d8       __imp___initterm_e         1001c0d8     MSVCRT:MSVCR90.dll
 0002:000000dc       __imp___amsg_exit          1001c0dc     MSVCRT:MSVCR90.dll
 0002:000000e0       __imp___adjust_fdiv        1001c0e0     MSVCRT:MSVCR90.dll
 0002:000000e4       __imp____CppXcptFilter     1001c0e4     MSVCRT:MSVCR90.dll
 0002:000000e8       __imp_?_type_info_dtor_internal_method@type_info@@QAEXXZ 1001c0e8     MSVCRT:MSVCR90.dll
 0002:000000ec       __imp___except_handler4_common 1001c0ec     MSVCRT:MSVCR90.dll
 0002:000000f0       __imp____clean_type_info_names_internal 1001c0f0     MSVCRT:MSVCR90.dll
 0002:000000f4       __imp___unlock             1001c0f4     MSVCRT:MSVCR90.dll
 0002:000000f8       __imp____dllonexit         1001c0f8     MSVCRT:MSVCR90.dll
 0002:000000fc       __imp___lock               1001c0fc     MSVCRT:MSVCR90.dll
 0002:00000100       __imp___onexit             1001c100     MSVCRT:MSVCR90.dll
 0002:00000104       __imp___crt_debugger_hook  1001c104     MSVCRT:MSVCR90.dll
 0002:00000108       __imp__srand               1001c108     MSVCRT:MSVCR90.dll
 0002:0000010c       __imp__rand                1001c10c     MSVCRT:MSVCR90.dll
 0002:00000110       __imp__ceil                1001c110     MSVCRT:MSVCR90.dll
 0002:00000114       __imp__fclose              1001c114     MSVCRT:MSVCR90.dll
 0002:00000118       __imp__fseek               1001c118     MSVCRT:MSVCR90.dll
 0002:0000011c       __imp__ftell               1001c11c     MSVCRT:MSVCR90.dll
 0002:00000120       __imp__fwrite              1001c120     MSVCRT:MSVCR90.dll
 0002:00000124       __imp__fread               1001c124     MSVCRT:MSVCR90.dll
 0002:00000128       __imp__fopen               1001c128     MSVCRT:MSVCR90.dll
 0002:0000012c       __imp__fflush              1001c12c     MSVCRT:MSVCR90.dll
 0002:00000130       __imp____iob_func          1001c130     MSVCRT:MSVCR90.dll
 0002:00000134       __imp__feof                1001c134     MSVCRT:MSVCR90.dll
 0002:00000138       __imp_??3@YAXPAX@Z         1001c138     MSVCRT:MSVCR90.dll
 0002:0000013c       __imp__tolower             1001c13c     MSVCRT:MSVCR90.dll
 0002:00000140       __imp___purecall           1001c140     MSVCRT:MSVCR90.dll
 0002:00000144       __imp____CxxFrameHandler3  1001c144     MSVCRT:MSVCR90.dll
 0002:00000148       __imp___CItan              1001c148     MSVCRT:MSVCR90.dll
 0002:0000014c       __imp___CIsqrt             1001c14c     MSVCRT:MSVCR90.dll
 0002:00000150       __imp___CIsin              1001c150     MSVCRT:MSVCR90.dll
 0002:00000154       __imp___CIpow              1001c154     MSVCRT:MSVCR90.dll
 0002:00000158       __imp___CIlog10            1001c158     MSVCRT:MSVCR90.dll
 0002:0000015c       __imp___CIlog              1001c15c     MSVCRT:MSVCR90.dll
 0002:00000160       __imp__floor               1001c160     MSVCRT:MSVCR90.dll
 0002:00000164       __imp___CIexp              1001c164     MSVCRT:MSVCR90.dll
 0002:00000168       __imp___CIcos              1001c168     MSVCRT:MSVCR90.dll
 0002:0000016c       __imp___CIatan2            1001c16c     MSVCRT:MSVCR90.dll
 0002:00000170       __imp___CIatan             1001c170     MSVCRT:MSVCR90.dll
 0002:00000174       __imp___CIasin             1001c174     MSVCRT:MSVCR90.dll
 0002:00000178       __imp___CIacos             1001c178     MSVCRT:MSVCR90.dll
 0002:0000017c       __imp__memcpy              1001c17c     MSVCRT:MSVCR90.dll
 0002:00000180       __imp__memset              1001c180     MSVCRT:MSVCR90.dll
 0002:00000184       __imp___CIfmod             1001c184     MSVCRT:MSVCR90.dll
 0002:00000188       __imp___setjmp3            1001c188     MSVCRT:MSVCR90.dll
 0002:0000018c       __imp____CxxLongjmpUnwind@4 1001c18c     MSVCRT:MSVCR90.dll
 0002:00000190       \177MSVCR90_NULL_THUNK_DATA 1001c190     MSVCRT:MSVCR90.dll
 0002:00000194       ___xc_a                    1001c194     MSVCRT:cinitexe.obj
 0002:00000198       ___xc_z                    1001c198     MSVCRT:cinitexe.obj
 0002:0000019c       ___xi_a                    1001c19c     MSVCRT:cinitexe.obj
 0002:000001a8       ___xi_z                    1001c1a8     MSVCRT:cinitexe.obj
 0002:000001b4       ??_7type_info@@6B@         1001c1b4     MSVCRT:ti_inst.obj
 0002:000001b8       __pDefaultRawDllMain       1001c1b8     MSVCRT:crtdll.obj
 0002:000001b8       __pRawDllMain              1001c1b8     MSVCRT:crtdll.obj
 0002:000001c4       ??_C@_0M@PJGLFAHK@?6CALLSTACK?6?$AA@ 1001c1c4     sqstdaux.obj
 0002:000001d0       ??_C@_07CIFAGBMG@unknown?$AA@ 1001c1d0     sqstdaux.obj
 0002:000001d8       ??_C@_0BP@OJILADIN@?$CKFUNCTION?5?$FL?$CFs?$CI?$CJ?$FN?5?$CFs?5line?5?$FL?$CFd?$FN?6?$AA@ 1001c1d8     sqstdaux.obj
 0002:000001f8       ??_C@_08OJCBCFCA@?6LOCALS?6?$AA@ 1001c1f8     sqstdaux.obj
 0002:00000204       ??_C@_0L@DJCPKMHA@?$FL?$CFs?$FN?5NULL?6?$AA@ 1001c204     sqstdaux.obj
 0002:00000210       ??_C@_08NGOLHCCJ@?$FL?$CFs?$FN?5?$CFd?6?$AA@ 1001c210     sqstdaux.obj
 0002:0000021c       ??_C@_0M@KNEBKHHJ@?$FL?$CFs?$FN?5?$CF?414g?6?$AA@ 1001c21c     sqstdaux.obj
 0002:00000228       ??_C@_0BC@LFFDKOEI@?$FL?$CFs?$FN?5USERPOINTER?6?$AA@ 1001c228     sqstdaux.obj
 0002:0000023c       ??_C@_0L@FFMKINED@?$FL?$CFs?$FN?5?$CC?$CFs?$CC?6?$AA@ 1001c23c     sqstdaux.obj
 0002:00000248       ??_C@_0M@DFMMEBIL@?$FL?$CFs?$FN?5TABLE?6?$AA@ 1001c248     sqstdaux.obj
 0002:00000254       ??_C@_0M@CNOJHJM@?$FL?$CFs?$FN?5ARRAY?6?$AA@ 1001c254     sqstdaux.obj
 0002:00000260       ??_C@_0O@PLLIPJMD@?$FL?$CFs?$FN?5CLOSURE?6?$AA@ 1001c260     sqstdaux.obj
 0002:00000270       ??_C@_0BE@KIHCKLEL@?$FL?$CFs?$FN?5NATIVECLOSURE?6?$AA@ 1001c270     sqstdaux.obj
 0002:00000284       ??_C@_0BA@OBKNALPI@?$FL?$CFs?$FN?5GENERATOR?6?$AA@ 1001c284     sqstdaux.obj
 0002:00000294       ??_C@_0P@ONKHMGLN@?$FL?$CFs?$FN?5USERDATA?6?$AA@ 1001c294     sqstdaux.obj
 0002:000002a4       ??_C@_0N@OOIIGMMH@?$FL?$CFs?$FN?5THREAD?6?$AA@ 1001c2a4     sqstdaux.obj
 0002:000002b4       ??_C@_0M@HMFKBCMO@?$FL?$CFs?$FN?5CLASS?6?$AA@ 1001c2b4     sqstdaux.obj
 0002:000002c0       ??_C@_0P@EMOEMOPD@?$FL?$CFs?$FN?5INSTANCE?6?$AA@ 1001c2c0     sqstdaux.obj
 0002:000002d0       ??_C@_0O@NHMJAHFB@?$FL?$CFs?$FN?5WEAKREF?6?$AA@ 1001c2d0     sqstdaux.obj
 0002:000002e0       ??_C@_04LOAJBDKD@true?$AA@ 1001c2e0     sqstdaux.obj
 0002:000002e8       ??_C@_05LAPONLG@false?$AA@ 1001c2e8     sqstdaux.obj
 0002:000002f0       ??_C@_08MPICMHNM@?$FL?$CFs?$FN?5?$CFs?6?$AA@ 1001c2f0     sqstdaux.obj
 0002:000002fc       ??_C@_0BM@MMCOKIHC@?6AN?5ERROR?5HAS?5OCCURED?5?$FL?$CFs?$FN?6?$AA@ 1001c2fc     sqstdaux.obj
 0002:00000318       ??_C@_0CB@HBLDDEIG@?6AN?5ERROR?5HAS?5OCCURED?5?$FLunknown?$FN?6@ 1001c318     sqstdaux.obj
 0002:0000033c       ??_C@_0CJ@DDDICFBH@?$CFs?5line?5?$DN?5?$CI?$CFd?$CJ?5column?5?$DN?5?$CI?$CFd?$CJ?5?3?5e@ 1001c33c     sqstdaux.obj
 0002:00000368       ??_C@_09IGIMPLLL@swapfloat?$AA@ 1001c368     sqstdblob.obj
 0002:00000374       ??_C@_07OFABLADA@castf2i?$AA@ 1001c374     sqstdblob.obj
 0002:0000037c       ??_C@_02MJBDALCO@?4n?$AA@  1001c37c     sqstdblob.obj
 0002:00000380       ??_C@_07DKPKLMKJ@casti2f?$AA@ 1001c380     sqstdblob.obj
 0002:00000388       ??_C@_02LNLKOMPL@xx?$AA@   1001c388     sqstdblob.obj
 0002:0000038c       ??_C@_07FMKFJPGB@_cloned?$AA@ 1001c38c     sqstdblob.obj
 0002:00000394       ??_C@_06JNGOLHNJ@_nexti?$AA@ 1001c394     sqstdblob.obj
 0002:0000039c       ??_C@_07KHNHMOAP@_typeof?$AA@ 1001c39c     sqstdblob.obj
 0002:000003a4       ??_C@_04CACACKHL@_get?$AA@ 1001c3a4     sqstdblob.obj
 0002:000003ac       ??_C@_03MJAHAIJD@xnn?$AA@  1001c3ac     sqstdblob.obj
 0002:000003b0       ??_C@_04PPFLOKLD@_set?$AA@ 1001c3b0     sqstdblob.obj
 0002:000003b8       ??_C@_05OEDIBGCN@swap4?$AA@ 1001c3b8     sqstdblob.obj
 0002:000003c0       ??_C@_01FJMABOPO@x?$AA@    1001c3c0     sqstdblob.obj
 0002:000003c4       ??_C@_05LCGCLBKL@swap2?$AA@ 1001c3c4     sqstdblob.obj
 0002:000003cc       ??_C@_06PIONCPJI@resize?$AA@ 1001c3cc     sqstdblob.obj
 0002:000003d4       ??_C@_02KBCCFJCM@xn?$AA@   1001c3d4     sqstdblob.obj
 0002:000003d8       ??_C@_0M@HCIFEBGA@constructor?$AA@ 1001c3d8     sqstdblob.obj
 0002:000003e4       ??_C@_0P@GHFPNOJB@bad?5allocation?$AA@ 1001c3e4     sqstdblob.obj
 0002:000003f4       ??_C@_0BB@GKCCAHPC@invalid?5type?5tag?$AA@ 1001c3f4     sqstdblob.obj
 0002:00000408       ??_C@_0BE@MFDCDNAN@the?5blob?5is?5invalid?$AA@ 1001c408     sqstdblob.obj
 0002:0000041c       ??_C@_0O@MBKMIPAH@resize?5failed?$AA@ 1001c41c     sqstdblob.obj
 0002:0000042c       ??_C@_0BD@ILOGJALA@index?5out?5of?5range?$AA@ 1001c42c     sqstdblob.obj
 0002:00000440       ??_C@_0CM@GGLABFJI@internal?5error?5?$CI_nexti?$CJ?5wrong?5ar@ 1001c440     sqstdblob.obj
 0002:0000046c       ??_C@_04LPJPOBEM@blob?$AA@ 1001c46c     sqstdblob.obj
 0002:00000474       ??_C@_0CG@NBIHABHB@cannot?5create?5blob?5with?5negative@ 1001c474     sqstdblob.obj
 0002:0000049c       ??_C@_0BD@GNJDGOHM@cannot?5create?5blob?$AA@ 1001c49c     sqstdblob.obj
 0002:000004b0       ??_C@_0BC@HDGHAOKD@cannot?5clone?5blob?$AA@ 1001c4b0     sqstdblob.obj
 0002:000004c4       ??_C@_08PMKBLAFB@std_blob?$AA@ 1001c4c4     sqstdblob.obj
 0002:000004d4       ??_7SQBlob@@6B@            1001c4d4     sqstdblob.obj
 0002:000004f8       ??_C@_03IGDBBGID@?4sc?$AA@ 1001c4f8     sqstdio.obj
 0002:000004fc       ??_C@_0BD@FEFFOPPK@writeclosuretofile?$AA@ 1001c4fc     sqstdio.obj
 0002:00000510       ??_C@_06ONNDGCDK@dofile?$AA@ 1001c510     sqstdio.obj
 0002:00000518       ??_C@_03JPCKCHMC@?4sb?$AA@ 1001c518     sqstdio.obj
 0002:0000051c       ??_C@_08BNNFLGCJ@loadfile?$AA@ 1001c51c     sqstdio.obj
 0002:00000528       ??_C@_05LBOHBHFK@close?$AA@ 1001c528     sqstdio.obj
 0002:00000530       ??_C@_04DAMGJPCA@file?$AA@ 1001c530     sqstdio.obj
 0002:00000538       ??_C@_0BB@HMGEDEGN@cannot?5open?5file?$AA@ 1001c538     sqstdio.obj
 0002:0000054c       ??_C@_0BA@EHBOHDJE@wrong?5parameter?$AA@ 1001c54c     sqstdio.obj
 0002:0000055c       ??_C@_08HDPIMODN@std_file?$AA@ 1001c55c     sqstdio.obj
 0002:00000568       ??_C@_0L@MBHJIJPK@not?5a?5file?$AA@ 1001c568     sqstdio.obj
 0002:00000574       ??_C@_02JDPG@rb?$AA@       1001c574     sqstdio.obj
 0002:00000578       ??_C@_08GLNPIFBN@io?5error?$AA@ 1001c578     sqstdio.obj
 0002:00000584       ??_C@_0BF@LJNJGMGK@Unrecognozed?5ecoding?$AA@ 1001c584     sqstdio.obj
 0002:0000059c       ??_C@_0BF@DPIGNCIB@cannot?5open?5the?5file?$AA@ 1001c59c     sqstdio.obj
 0002:000005b4       ??_C@_03BFHAFKOB@wb?$CL?$AA@ 1001c5b4     sqstdio.obj
 0002:000005b8       ??_C@_06DJDOIFHB@stdout?$AA@ 1001c5b8     sqstdio.obj
 0002:000005c0       ??_C@_05MHOFLBOO@stdin?$AA@ 1001c5c0     sqstdio.obj
 0002:000005c8       ??_C@_06FJGNEBG@stderr?$AA@ 1001c5c8     sqstdio.obj
 0002:000005d4       ??_7SQFile@@6B@            1001c5d4     sqstdio.obj
 0002:000005f8       ??_C@_03BCGAIFPO@abs?$AA@  1001c5f8     sqstdmath.obj
 0002:000005fc       ??_C@_04ODHECPBC@fabs?$AA@ 1001c5fc     sqstdmath.obj
 0002:00000604       ??_C@_04HKINGDKC@rand?$AA@ 1001c604     sqstdmath.obj
 0002:0000060c       ??_C@_05IANLEKHD@srand?$AA@ 1001c60c     sqstdmath.obj
 0002:00000614       ??_C@_03KHJOGHMM@exp?$AA@  1001c614     sqstdmath.obj
 0002:00000618       ??_C@_04GFPJNGEK@ceil?$AA@ 1001c618     sqstdmath.obj
 0002:00000620       ??_C@_05PBJFFIGL@floor?$AA@ 1001c620     sqstdmath.obj
 0002:00000628       ??_C@_03JGHBODFD@pow?$AA@  1001c628     sqstdmath.obj
 0002:0000062c       ??_C@_03CHGBFION@?4nn?$AA@ 1001c62c     sqstdmath.obj
 0002:00000630       ??_C@_05KNGEOGJB@atan2?$AA@ 1001c630     sqstdmath.obj
 0002:00000638       ??_C@_04MLLJIGOK@atan?$AA@ 1001c638     sqstdmath.obj
 0002:00000640       ??_C@_03IIINPABG@tan?$AA@  1001c640     sqstdmath.obj
 0002:00000644       ??_C@_05HGHHAHAP@log10?$AA@ 1001c644     sqstdmath.obj
 0002:0000064c       ??_C@_03MGHMBJCF@log?$AA@  1001c64c     sqstdmath.obj
 0002:00000650       ??_C@_04PDIFKINK@acos?$AA@ 1001c650     sqstdmath.obj
 0002:00000658       ??_C@_04FIHNOPOL@asin?$AA@ 1001c658     sqstdmath.obj
 0002:00000660       ??_C@_03LALBNOCG@cos?$AA@  1001c660     sqstdmath.obj
 0002:00000664       ??_C@_03BLEJJJBH@sin?$AA@  1001c664     sqstdmath.obj
 0002:00000668       ??_C@_04EIAKFFMI@sqrt?$AA@ 1001c668     sqstdmath.obj
 0002:00000670       ??_C@_0O@PFPAIGFJ@invalid?5param?$AA@ 1001c670     sqstdmath.obj
 0002:00000680       ??_C@_08PAJPOONN@RAND_MAX?$AA@ 1001c680     sqstdmath.obj
 0002:0000068c       ??_C@_02ENLJPMBB@PI?$AA@   1001c68c     sqstdmath.obj
 0002:00000690       ??_C@_0P@OKPODPLL@expected?5paren?$AA@ 1001c690     sqstdrex.obj
 0002:000006a0       ??_C@_0BA@IEKAFFAJ@letter?5expected?$AA@ 1001c6a0     sqstdrex.obj
 0002:000006b0       ??_C@_0M@ILKCNGDD@empty?5class?$AA@ 1001c6b0     sqstdrex.obj
 0002:000006bc       ??_C@_0O@GOKDDJMP@invalid?5range?$AA@ 1001c6bc     sqstdrex.obj
 0002:000006cc       ??_C@_0CH@CLHEGGEC@cannot?5use?5character?5classes?5in?5@ 1001c6cc     sqstdrex.obj
 0002:000006f4       ??_C@_0BN@MCHNANKK@overflow?5in?5numeric?5constant?$AA@ 1001c6f4     sqstdrex.obj
 0002:00000714       ??_C@_0BA@JLGEFFAO@number?5expected?$AA@ 1001c714     sqstdrex.obj
 0002:00000724       ??_C@_0BA@OBPFIKHP@?0?5or?5?$HN?5expected?$AA@ 1001c724     sqstdrex.obj
 0002:00000734       ??_C@_0BF@IPEBGEBJ@unexpected?5character?$AA@ 1001c734     sqstdrex.obj
 0002:0000074c       ??_C@_05GLCAEPFP@flush?$AA@ 1001c74c     sqstdstream.obj
 0002:00000754       ??_C@_03JFNKIBPK@eos?$AA@  1001c754     sqstdstream.obj
 0002:00000758       ??_C@_03BKCJCHLK@len?$AA@  1001c758     sqstdstream.obj
 0002:0000075c       ??_C@_04LBPCFPDD@tell?$AA@ 1001c75c     sqstdstream.obj
 0002:00000764       ??_C@_04EDECCOGL@seek?$AA@ 1001c764     sqstdstream.obj
 0002:0000076c       ??_C@_06MIKLAPPL@writen?$AA@ 1001c76c     sqstdstream.obj
 0002:00000774       ??_C@_09NPENNKNE@writeblob?$AA@ 1001c774     sqstdstream.obj
 0002:00000780       ??_C@_05GODPLPBI@readn?$AA@ 1001c780     sqstdstream.obj
 0002:00000788       ??_C@_08GHEOENGO@readblob?$AA@ 1001c788     sqstdstream.obj
 0002:00000794       ??_C@_0BG@DHOEONCL@the?5stream?5is?5invalid?$AA@ 1001c794     sqstdstream.obj
 0002:000007ac       ??_C@_0BF@CKHIKMGO@no?5data?5left?5to?5read?$AA@ 1001c7ac     sqstdstream.obj
 0002:000007c4       ??_C@_0P@CENJCLHM@invalid?5format?$AA@ 1001c7c4     sqstdstream.obj
 0002:000007d4       ??_C@_0BC@GMEMBNHN@invalid?5parameter?$AA@ 1001c7d4     sqstdstream.obj
 0002:000007e8       ??_C@_0P@MILKJCHO@invalid?5origin?$AA@ 1001c7e8     sqstdstream.obj
 0002:000007f8       ??_C@_0BN@MDJALECG@this?5object?5cannot?5be?5cloned?$AA@ 1001c7f8     sqstdstream.obj
 0002:00000818       ??_C@_0L@NKAMOLMD@std_stream?$AA@ 1001c818     sqstdstream.obj
 0002:00000824       ??_C@_06DJAMKFID@stream?$AA@ 1001c824     sqstdstream.obj
 0002:0000082c       ??_C@_0P@DAKFMHIM@table?5expected?$AA@ 1001c82c     sqstdstream.obj
 0002:0000083c       ??_C@_03MMPDAENC@?4ss?$AA@ 1001c83c     sqstdstring.obj
 0002:00000840       ??_C@_05EHPMMFBK@split?$AA@ 1001c840     sqstdstring.obj
 0002:00000848       ??_C@_06DBIPDJKN@rstrip?$AA@ 1001c848     sqstdstring.obj
 0002:00000850       ??_C@_06GGONODO@lstrip?$AA@ 1001c850     sqstdstring.obj
 0002:00000858       ??_C@_05GGNGIGHC@strip?$AA@ 1001c858     sqstdstring.obj
 0002:00000860       ??_C@_06DLEPGFEF@format?$AA@ 1001c860     sqstdstring.obj
 0002:00000868       ??_C@_0M@MIEJEJJD@subexpcount?$AA@ 1001c868     sqstdstring.obj
 0002:00000874       ??_C@_07PNBGPICD@capture?$AA@ 1001c874     sqstdstring.obj
 0002:0000087c       ??_C@_02FOEODFDA@xs?$AA@   1001c87c     sqstdstring.obj
 0002:00000880       ??_C@_05FNONLPDI@match?$AA@ 1001c880     sqstdstring.obj
 0002:00000888       ??_C@_03NNPJDILA@xsn?$AA@  1001c888     sqstdstring.obj
 0002:0000088c       ??_C@_06GFPLNGOC@search?$AA@ 1001c88c     sqstdstring.obj
 0002:00000894       ??_C@_02DGHPGHDC@?4s?$AA@  1001c894     sqstdstring.obj
 0002:00000898       ??_C@_05GGBDHNF@?9?$CL?5?$CD0?$AA@ 1001c898     sqstdstring.obj
 0002:000008a0       ??_C@_0BG@CLBDFIFJ@width?5format?5too?5long?$AA@ 1001c8a0     sqstdstring.obj
 0002:000008b8       ??_C@_0BK@KGBFOKHN@precision?5format?5too?5long?$AA@ 1001c8b8     sqstdstring.obj
 0002:000008d4       ??_C@_0BA@BGAJGGBO@format?5too?5long?$AA@ 1001c8d4     sqstdstring.obj
 0002:000008e4       ??_C@_0DB@JACKNMEH@not?5enough?5paramters?5for?5the?5giv@ 1001c8e4     sqstdstring.obj
 0002:00000918       ??_C@_0CJ@DECHMKNG@string?5expected?5for?5the?5specifie@ 1001c918     sqstdstring.obj
 0002:00000944       ??_C@_0CK@BCJPMCBJ@integer?5expected?5for?5the?5specifi@ 1001c944     sqstdstring.obj
 0002:00000970       ??_C@_0CI@NOHJFFLA@float?5expected?5for?5the?5specified@ 1001c970     sqstdstring.obj
 0002:00000998       ??_C@_0BI@KOFKLMFA@empty?5separators?5string?$AA@ 1001c998     sqstdstring.obj
 0002:000009b0       ??_C@_05EAFKHBAM@begin?$AA@ 1001c9b0     sqstdstring.obj
 0002:000009b8       ??_C@_03JBJLGPFL@end?$AA@  1001c9b8     sqstdstring.obj
 0002:000009bc       ??_C@_06BDGKJDBI@regexp?$AA@ 1001c9bc     sqstdstring.obj
 0002:000009c4       ??_C@_06LMEAOBLB@rename?$AA@ 1001c9c4     sqstdsystem.obj
 0002:000009cc       ??_C@_06LEMKAMD@remove?$AA@ 1001c9cc     sqstdsystem.obj
 0002:000009d4       ??_C@_04JNIHBGGH@date?$AA@ 1001c9d4     sqstdsystem.obj
 0002:000009dc       ??_C@_04CLCEDBPF@time?$AA@ 1001c9dc     sqstdsystem.obj
 0002:000009e4       ??_C@_05DDECJJKE@clock?$AA@ 1001c9e4     sqstdsystem.obj
 0002:000009ec       ??_C@_06FHFOAHML@system?$AA@ 1001c9ec     sqstdsystem.obj
 0002:000009f4       ??_C@_06EPDNLFGH@getenv?$AA@ 1001c9f4     sqstdsystem.obj
 0002:000009fc       ??_C@_0M@CEGIKAPK@wrong?5param?$AA@ 1001c9fc     sqstdsystem.obj
 0002:00000a08       ??_C@_0BA@MIFEHNIK@remove?$CI?$CJ?5failed?$AA@ 1001ca08     sqstdsystem.obj
 0002:00000a18       ??_C@_0BA@DDFJBNBD@rename?$CI?$CJ?5failed?$AA@ 1001ca18     sqstdsystem.obj
 0002:00000a28       ??_C@_0BA@FEBOBHAF@crt?5api?5failure?$AA@ 1001ca28     sqstdsystem.obj
 0002:00000a38       ??_C@_03KHPNBODO@sec?$AA@  1001ca38     sqstdsystem.obj
 0002:00000a3c       ??_C@_03KLIPLJLL@min?$AA@  1001ca3c     sqstdsystem.obj
 0002:00000a40       ??_C@_04LMOJGCPE@hour?$AA@ 1001ca40     sqstdsystem.obj
 0002:00000a48       ??_C@_03NNBHCDBP@day?$AA@  1001ca48     sqstdsystem.obj
 0002:00000a4c       ??_C@_05MEBAADFH@month?$AA@ 1001ca4c     sqstdsystem.obj
 0002:00000a54       ??_C@_04JFPLDHAO@year?$AA@ 1001ca54     sqstdsystem.obj
 0002:00000a5c       ??_C@_04HBIDDHMB@wday?$AA@ 1001ca5c     sqstdsystem.obj
 0002:00000a64       ??_C@_04MOLDIJKA@yday?$AA@ 1001ca64     sqstdsystem.obj
 0002:00000a6c       ??_C@_0CP@NOPFPDNN@wrong?5argument?5type?0?5expected?5?8?$CF@ 1001ca6c     sqapi.obj
 0002:00000a9c       ??_C@_0BD@MGPOICFP@unexpected?5type?5?$CFs?$AA@ 1001ca9c     sqapi.obj
 0002:00000ab0       ??_C@_0BC@HELAPCHF@invalid?5base?5type?$AA@ 1001cab0     sqapi.obj
 0002:00000ac4       ??_C@_0BD@HAIMHJOI@invalid?5param?5type?$AA@ 1001cac4     sqapi.obj
 0002:00000ad8       ??_C@_0BP@JJGMIBCA@not?5enough?5params?5in?5the?5stack?$AA@ 1001cad8     sqapi.obj
 0002:00000af8       ??_C@_0M@LOFLDJDO@empty?5array?$AA@ 1001caf8     sqapi.obj
 0002:00000b04       ??_C@_0O@LFIBEFCP@negative?5size?$AA@ 1001cb04     sqapi.obj
 0002:00000b14       ??_C@_0BM@CMMBCIGC@the?5object?5is?5not?5a?5closure?$AA@ 1001cb14     sqapi.obj
 0002:00000b30       ??_C@_0CC@HHAPNGKE@the?5object?5is?5not?5a?5nativeclosur@ 1001cb30     sqapi.obj
 0002:00000b54       ??_C@_0BI@MAPNHFBM@native?5closure?5expected?$AA@ 1001cb54     sqapi.obj
 0002:00000b6c       ??_C@_0BB@BOJBAELF@invalid?5typemask?$AA@ 1001cb6c     sqapi.obj
 0002:00000b80       ??_C@_0BM@NPAPALBN@the?5target?5is?5not?5a?5closure?$AA@ 1001cb80     sqapi.obj
 0002:00000b9c       ??_C@_0BE@BLOFEIGN@invalid?5environment?$AA@ 1001cb9c     sqapi.obj
 0002:00000bb0       ??_C@_0CE@LFCLCHIO@clear?5only?5works?5on?5table?5and?5ar@ 1001cbb0     sqapi.obj
 0002:00000bd4       ??_C@_0M@ECNLGCLM@ivalid?5type?$AA@ 1001cbd4     sqapi.obj
 0002:00000be0       ??_C@_0BM@JPBFKBGH@ivalid?5type?0?5expected?5table?$AA@ 1001cbe0     sqapi.obj
 0002:00000bfc       ??_C@_0BE@PCKKICJK@invalid?5object?5type?$AA@ 1001cbfc     sqapi.obj
 0002:00000c10       ??_C@_0CD@CFCDGLFG@the?5object?5is?5not?5a?5class?5instan@ 1001cc10     sqapi.obj
 0002:00000c34       ??_C@_0BK@JCAAJBH@the?5object?5is?5not?5a?5class?$AA@ 1001cc34     sqapi.obj
 0002:00000c50       ??_C@_0BE@DPHKEMEG@the?5class?5is?5locked?$AA@ 1001cc50     sqapi.obj
 0002:00000c64       ??_C@_0BI@HHPNOKAK@null?5is?5not?5a?5valid?5key?$AA@ 1001cc64     sqapi.obj
 0002:00000c7c       ??_C@_08MHMAFDFB@null?5key?$AA@ 1001cc7c     sqapi.obj
 0002:00000c88       ??_C@_0DE@DCBCOMNM@rawset?5works?5only?5on?5array?1table@ 1001cc88     sqapi.obj
 0002:00000cbc       ??_C@_0CD@IHIDNEDP@new?5member?5only?5works?5with?5class@ 1001ccbc     sqapi.obj
 0002:00000ce0       ??_C@_0P@HIOLJNHA@delagate?5cycle?$AA@ 1001cce0     sqapi.obj
 0002:00000cf0       ??_C@_0L@OIMFIJMM@wrong?5type?$AA@ 1001ccf0     sqapi.obj
 0002:00000cfc       ??_C@_0CA@DJDMDLDA@invalid?5index?5type?5for?5an?5array?$AA@ 1001ccfc     sqapi.obj
 0002:00000d1c       ??_C@_0DE@IFOIOOEH@rawget?5works?5only?5on?5array?1table@ 1001cd1c     sqapi.obj
 0002:00000d50       ??_C@_0BI@DAFHIMG@the?5index?5doesn?8t?5exist?$AA@ 1001cd50     sqapi.obj
 0002:00000d68       ??_C@_0CL@FIIDDFIE@cannot?5resize?5stack?5while?5in?5?5a?5@ 1001cd68     sqapi.obj
 0002:00000d94       ??_C@_0BP@KCBDCCNB@only?5generators?5can?5be?5resumed?$AA@ 1001cd94     sqapi.obj
 0002:00000db4       ??_C@_0DA@FMAIOBLG@cannot?5resume?5a?5vm?5that?5is?5not?5r@ 1001cdb4     sqapi.obj
 0002:00000de4       ??_C@_0DM@IHAKAFBB@a?5closure?5with?5free?5valiables?5bo@ 1001cde4     sqapi.obj
 0002:00000e20       ??_C@_0P@CGJKOLLK@invalid?5stream?$AA@ 1001ce20     sqapi.obj
 0002:00000e30       ??_C@_0BO@JKMPEECD@no?5closure?5in?5the?5calls?5stack?$AA@ 1001ce30     sqapi.obj
 0002:00000e50       ??_C@_07KNMAKCGI@?$EANATIVE?$AA@ 1001ce50     sqapi.obj
 0002:00000e58       ??_C@_0BH@EEKBJGIK@invalid?5free?5var?5index?$AA@ 1001ce58     sqapi.obj
 0002:00000e70       ??_C@_0M@MHCPCCPD@wrong?5index?$AA@ 1001ce70     sqapi.obj
 0002:00000e7c       ??_C@_0CH@GALINPCN@wrong?5type?$CIexpected?5class?5or?5ins@ 1001ce7c     sqapi.obj
 0002:00000ea4       ??_C@_0BN@MAJGGEGP@the?5object?5must?5be?5a?5weakref?$AA@ 1001cea4     sqapi.obj
 0002:00000ec4       ??_C@_0CJ@JEBOANGD@the?5type?5doesn?8t?5have?5a?5default?5@ 1001cec4     sqapi.obj
 0002:00000ef0       ??_C@_0BL@ECECHHMH@cannot?5iterate?5a?5generator?$AA@ 1001cef0     sqapi.obj
 0002:00000f10       ??_7SQArray@@6B@           1001cf10     sqapi.obj
 0002:00000f28       ??_7SQClosure@@6B@         1001cf28     sqapi.obj
 0002:00000f40       ??_7SQNativeClosure@@6B@   1001cf40     sqapi.obj
 0002:00000f58       ??_7SQUserData@@6B@        1001cf58     sqapi.obj
 0002:00000f74       ??_7SQRefCounted@@6B@      1001cf74     sqapi.obj
 0002:00000f7c       ??_C@_01KDCPPGHE@r?$AA@    1001cf7c     sqbaselib.obj
 0002:00000f80       ??_C@_03GCDGINBO@ref?$AA@  1001cf80     sqbaselib.obj
 0002:00000f84       ??_C@_08KCEFNGDJ@getclass?$AA@ 1001cf84     sqbaselib.obj
 0002:00000f90       ??_C@_0N@CAECFCAD@rawnewmember?$AA@ 1001cf90     sqbaselib.obj
 0002:00000fa0       ??_C@_09HCPKNCCP@newmember?$AA@ 1001cfa0     sqbaselib.obj
 0002:00000fac       ??_C@_07CHJLFIAB@getbase?$AA@ 1001cfac     sqbaselib.obj
 0002:00000fb4       ??_C@_08EMNENPBA@instance?$AA@ 1001cfb4     sqbaselib.obj
 0002:00000fc0       ??_C@_01EANLCPLP@y?$AA@    1001cfc0     sqbaselib.obj
 0002:00000fc4       ??_C@_03PBFIKNDD@y?4?4?$AA@ 1001cfc4     sqbaselib.obj
 0002:00000fc8       ??_C@_0O@GFGLHHKD@setattributes?$AA@ 1001cfc8     sqbaselib.obj
 0002:00000fd8       ??_C@_02FAJJHMBO@y?4?$AA@  1001cfd8     sqbaselib.obj
 0002:00000fdc       ??_C@_0O@BKHFMENE@getattributes?$AA@ 1001cfdc     sqbaselib.obj
 0002:00000fec       ??_C@_02KLLMHECG@vn?$AA@   1001cfec     sqbaselib.obj
 0002:00000ff0       ??_C@_06BHOLIAPL@wakeup?$AA@ 1001cff0     sqbaselib.obj
 0002:00000ff8       ??_C@_01MHEDDDHA@v?$AA@    1001cff8     sqbaselib.obj
 0002:00000ffc       ??_C@_01JEJKBAGA@g?$AA@    1001cffc     sqbaselib.obj
 0002:00001000       ??_C@_09EKLELPNI@getstatus?$AA@ 1001d000     sqbaselib.obj
 0002:0000100c       ??_C@_08PBPFMEJC@getinfos?$AA@ 1001d00c     sqbaselib.obj
 0002:00001018       ??_C@_07NANIPOOA@c?5x?$HMy?$HMt?$AA@ 1001d018     sqbaselib.obj
 0002:00001020       ??_C@_07HPKFAOKK@bindenv?$AA@ 1001d020     sqbaselib.obj
 0002:00001028       ??_C@_06JINOKHEB@pacall?$AA@ 1001d028     sqbaselib.obj
 0002:00001030       ??_C@_02DGMJAJHC@ca?$AA@   1001d030     sqbaselib.obj
 0002:00001034       ??_C@_05FIBIAJLH@acall?$AA@ 1001d034     sqbaselib.obj
 0002:0000103c       ??_C@_05JAJCNIIJ@pcall?$AA@ 1001d03c     sqbaselib.obj
 0002:00001044       ??_C@_01PAPGNFGE@c?$AA@    1001d044     sqbaselib.obj
 0002:00001048       ??_C@_04OMFAIDPG@call?$AA@ 1001d048     sqbaselib.obj
 0002:00001050       ??_C@_06PHAKABCE@tochar?$AA@ 1001d050     sqbaselib.obj
 0002:00001058       ??_C@_03PGCDIMC@n?$HMb?$AA@ 1001d058     sqbaselib.obj
 0002:0000105c       ??_C@_07FFCOENGO@toupper?$AA@ 1001d05c     sqbaselib.obj
 0002:00001064       ??_C@_07OJACGNH@tolower?$AA@ 1001d064     sqbaselib.obj
 0002:0000106c       ??_C@_06HBDCBIKI@s?5s?5n?5?$AA@ 1001d06c     sqbaselib.obj
 0002:00001074       ??_C@_07PMIEOLJL@?5s?5n?5?5n?$AA@ 1001d074     sqbaselib.obj
 0002:0000107c       ??_C@_07CMFFAPEL@tofloat?$AA@ 1001d07c     sqbaselib.obj
 0002:00001084       ??_C@_09EAKFBKNJ@tointeger?$AA@ 1001d084     sqbaselib.obj
 0002:00001090       ??_C@_01LKDEMHDF@s?$AA@    1001d090     sqbaselib.obj
 0002:00001094       ??_C@_02ECKMIONG@a?4?$AA@  1001d094     sqbaselib.obj
 0002:00001098       ??_C@_04CKFJHKAP@find?$AA@ 1001d098     sqbaselib.obj
 0002:000010a0       ??_C@_06EOIELIPE@filter?$AA@ 1001d0a0     sqbaselib.obj
 0002:000010a8       ??_C@_06CDBFBENC@reduce?$AA@ 1001d0a8     sqbaselib.obj
 0002:000010b0       ??_C@_05KAEIDCAL@apply?$AA@ 1001d0b0     sqbaselib.obj
 0002:000010b8       ??_C@_03HBNNNHNM@map?$AA@  1001d0b8     sqbaselib.obj
 0002:000010bc       ??_C@_03OEBGBAIG@ann?$AA@  1001d0bc     sqbaselib.obj
 0002:000010c0       ??_C@_05ILHMOJGN@slice?$AA@ 1001d0c0     sqbaselib.obj
 0002:000010c8       ??_C@_02HHLLPJO@ac?$AA@    1001d0c8     sqbaselib.obj
 0002:000010cc       ??_C@_04PIMMHFGE@sort?$AA@ 1001d0cc     sqbaselib.obj
 0002:000010d4       ??_C@_07KOIEOCCE@reverse?$AA@ 1001d0d4     sqbaselib.obj
 0002:000010dc       ??_C@_02LCNFMBND@an?$AA@   1001d0dc     sqbaselib.obj
 0002:000010e0       ??_C@_06OAOPNKHP@insert?$AA@ 1001d0e0     sqbaselib.obj
 0002:000010e8       ??_C@_03FGFCOCMD@top?$AA@  1001d0e8     sqbaselib.obj
 0002:000010ec       ??_C@_03NJDAHFJE@pop?$AA@  1001d0ec     sqbaselib.obj
 0002:000010f0       ??_C@_04GHHNIPCF@push?$AA@ 1001d0f0     sqbaselib.obj
 0002:000010f8       ??_C@_02DFENNNBM@aa?$AA@   1001d0f8     sqbaselib.obj
 0002:000010fc       ??_C@_06BPBOMFNI@extend?$AA@ 1001d0fc     sqbaselib.obj
 0002:00001104       ??_C@_06PCICMFGG@append?$AA@ 1001d104     sqbaselib.obj
 0002:0000110c       ??_C@_01MCMALHOG@a?$AA@    1001d10c     sqbaselib.obj
 0002:00001110       ??_C@_0M@GIJAABNF@getdelegate?$AA@ 1001d110     sqbaselib.obj
 0002:0000111c       ??_C@_04BMPPEIBA@?4t?$HMo?$AA@ 1001d11c     sqbaselib.obj
 0002:00001124       ??_C@_0M@GHIONHFG@setdelegate?$AA@ 1001d124     sqbaselib.obj
 0002:00001130       ??_C@_05MEHLAELG@clear?$AA@ 1001d130     sqbaselib.obj
 0002:00001138       ??_C@_01LFCBOECM@?4?$AA@   1001d138     sqbaselib.obj
 0002:0000113c       ??_C@_08FNIIFOJC@tostring?$AA@ 1001d13c     sqbaselib.obj
 0002:00001148       ??_C@_07HEABOMAD@weakref?$AA@ 1001d148     sqbaselib.obj
 0002:00001150       ??_C@_05OGBFICMI@rawin?$AA@ 1001d150     sqbaselib.obj
 0002:00001158       ??_C@_09DPMMPLEO@rawdelete?$AA@ 1001d158     sqbaselib.obj
 0002:00001164       ??_C@_06ONPLLLOI@rawset?$AA@ 1001d164     sqbaselib.obj
 0002:0000116c       ??_C@_06DCIAHLCA@rawget?$AA@ 1001d16c     sqbaselib.obj
 0002:00001174       ??_C@_01PFHFFBPC@t?$AA@    1001d174     sqbaselib.obj
 0002:00001178       ??_C@_0BF@OHPBFBJF@resurrectunreachable?$AA@ 1001d178     sqbaselib.obj
 0002:00001190       ??_C@_0P@CKFEAJJE@collectgarbage?$AA@ 1001d190     sqbaselib.obj
 0002:000011a0       ??_C@_05JLNEMJLN@dummy?$AA@ 1001d1a0     sqbaselib.obj
 0002:000011a8       ??_C@_06GAMBOONI@callee?$AA@ 1001d1a8     sqbaselib.obj
 0002:000011b0       ??_C@_04GPMDFGEJ@type?$AA@ 1001d1b0     sqbaselib.obj
 0002:000011b8       ??_C@_05HIFJDKLD@array?$AA@ 1001d1b8     sqbaselib.obj
 0002:000011c0       ??_C@_07DNBGJJHB@suspend?$AA@ 1001d1c0     sqbaselib.obj
 0002:000011c8       ??_C@_02HMLNHFGD@?4c?$AA@  1001d1c8     sqbaselib.obj
 0002:000011cc       ??_C@_09FINEDNAN@newthread?$AA@ 1001d1cc     sqbaselib.obj
 0002:000011d8       ??_C@_0O@FAPAHKGM@compilestring?$AA@ 1001d1d8     sqbaselib.obj
 0002:000011e8       ??_C@_05KKCIMGE@error?$AA@ 1001d1e8     sqbaselib.obj
 0002:000011f0       ??_C@_05IJDJACGD@print?$AA@ 1001d1f0     sqbaselib.obj
 0002:000011f8       ??_C@_06GMEIIFFN@assert?$AA@ 1001d1f8     sqbaselib.obj
 0002:00001200       ??_C@_0O@DHNANHNN@setconsttable?$AA@ 1001d200     sqbaselib.obj
 0002:00001210       ??_C@_0O@EIMOGEKK@getconsttable?$AA@ 1001d210     sqbaselib.obj
 0002:00001220       ??_C@_0N@JFLMENKF@setroottable?$AA@ 1001d220     sqbaselib.obj
 0002:00001230       ??_C@_0N@OBACIBOJ@getroottable?$AA@ 1001d230     sqbaselib.obj
 0002:00001240       ??_C@_0O@KHEGNCOO@getstackinfos?$AA@ 1001d240     sqbaselib.obj
 0002:00001250       ??_C@_0BA@JKMEPBKL@enabledebuginfo?$AA@ 1001d250     sqbaselib.obj
 0002:00001260       ??_C@_0N@PBKNHBLP@setdebughook?$AA@ 1001d260     sqbaselib.obj
 0002:00001270       ??_C@_0BA@LGKMEEDB@seterrorhandler?$AA@ 1001d270     sqbaselib.obj
 0002:00001280       ??_C@_04HPNHAEOP@func?$AA@ 1001d280     sqbaselib.obj
 0002:00001288       ??_C@_03LOJEKLML@src?$AA@  1001d288     sqbaselib.obj
 0002:0000128c       ??_C@_04HJPCFDOP@line?$AA@ 1001d28c     sqbaselib.obj
 0002:00001294       ??_C@_06MPPADOBF@locals?$AA@ 1001d294     sqbaselib.obj
 0002:0000129c       ??_C@_0BB@DBHFCHNO@assertion?5failed?$AA@ 1001d29c     sqbaselib.obj
 0002:000012b0       ??_C@_02DKCKIIND@?$CFs?$AA@ 1001d2b0     sqbaselib.obj
 0002:000012b4       ??_C@_0O@JOAEGHEJ@unnamedbuffer?$AA@ 1001d2b4     sqbaselib.obj
 0002:000012c4       ??_C@_0BA@CFIAEMGL@_versionnumber_?$AA@ 1001d2c4     sqbaselib.obj
 0002:000012d4       ??_C@_09DBJELFHJ@_version_?$AA@ 1001d2d4     sqbaselib.obj
 0002:000012e0       ??_C@_0BG@IHOLNBDH@Squirrel?53?40?44?5stable?$AA@ 1001d2e0     sqbaselib.obj
 0002:000012f8       ??_C@_0L@KLMKPIOC@_charsize_?$AA@ 1001d2f8     sqbaselib.obj
 0002:00001304       ??_C@_09BHMFFJPJ@_intsize_?$AA@ 1001d304     sqbaselib.obj
 0002:00001310       ??_C@_0M@FAOKDMPL@_floatsize_?$AA@ 1001d310     sqbaselib.obj
 0002:0000131c       ??_C@_0BK@FFAJOFIP@cannot?5convert?5the?5string?$AA@ 1001d31c     sqbaselib.obj
 0002:00001338       ??_C@_0BH@KDMCOLGA@top?$CI?$CJ?5on?5a?5empty?5array?$AA@ 1001d338     sqbaselib.obj
 0002:00001350       ??_C@_0BB@GPPOEHNJ@idx?5out?5of?5range?$AA@ 1001d350     sqbaselib.obj
 0002:00001364       ??_C@_0BG@GEMBPKIL@size?5must?5be?5a?5number?$AA@ 1001d364     sqbaselib.obj
 0002:0000137c       ??_C@_0BE@DAIOECGH@compare?5func?5failed?$AA@ 1001d37c     sqbaselib.obj
 0002:00001390       ??_C@_0DP@BPMEFFFG@numeric?5value?5expected?5as?5return@ 1001d390     sqbaselib.obj
 0002:000013d0       ??_C@_0BO@PPJOJKB@inconsistent?5compare?5function?$AA@ 1001d3d0     sqbaselib.obj
 0002:000013f0       ??_C@_0O@KAPPBHEL@wrong?5indexes?$AA@ 1001d3f0     sqbaselib.obj
 0002:00001400       ??_C@_0BD@BJCGPMPI@slice?5out?5of?5range?$AA@ 1001d400     sqbaselib.obj
 0002:00001414       ??_C@_03KHICJKCI@?4?4?4?$AA@ 1001d414     sqbaselib.obj
 0002:00001418       ??_C@_06HIDILOEA@native?$AA@ 1001d418     sqbaselib.obj
 0002:00001420       ??_C@_04MEMAJGDJ@name?$AA@ 1001d420     sqbaselib.obj
 0002:00001428       ??_C@_0L@HHPOFMCB@parameters?$AA@ 1001d428     sqbaselib.obj
 0002:00001434       ??_C@_07LHCHJCGA@varargs?$AA@ 1001d434     sqbaselib.obj
 0002:0000143c       ??_C@_09KPFMADAP@defparams?$AA@ 1001d43c     sqbaselib.obj
 0002:00001448       ??_C@_0M@PJLCMPFO@paramscheck?$AA@ 1001d448     sqbaselib.obj
 0002:00001454       ??_C@_09CNELLEGL@typecheck?$AA@ 1001d454     sqbaselib.obj
 0002:00001460       ??_C@_09PAHKPJCJ@suspended?$AA@ 1001d460     sqbaselib.obj
 0002:0000146c       ??_C@_07PANPENDC@running?$AA@ 1001d46c     sqbaselib.obj
 0002:00001474       ??_C@_04BBBDNBOK@dead?$AA@ 1001d474     sqbaselib.obj
 0002:0000147c       ??_C@_0BM@GIKKAJMA@cannot?5wakeup?5a?5idle?5thread?$AA@ 1001d47c     sqbaselib.obj
 0002:00001498       ??_C@_0BP@BOMCDDEN@cannot?5wakeup?5a?5running?5thread?$AA@ 1001d498     sqbaselib.obj
 0002:000014b8       ??_C@_04EAPMNACM@idle?$AA@ 1001d4b8     sqbaselib.obj
 0002:000014c0       ??_C@_0BC@KOIBMJEL@internal?5VM?5error?$AA@ 1001d4c0     sqbaselib.obj
 0002:000014d4       ??_C@_0O@BFJCFAAK@unknown?5error?$AA@ 1001d4d4     sqbaselib.obj
 0002:000014e8       ??_7SQClass@@6B@           1001d4e8     sqclass.obj
 0002:00001500       ??_7SQInstance@@6B@        1001d500     sqclass.obj
 0002:00001518       ??_C@_0L@DGIAAEJH@IDENTIFIER?$AA@ 1001d518     sqcompiler.obj
 0002:00001524       ??_C@_0P@PMPNMDBO@STRING_LITERAL?$AA@ 1001d524     sqcompiler.obj
 0002:00001534       ??_C@_07EHCIHKNF@INTEGER?$AA@ 1001d534     sqcompiler.obj
 0002:0000153c       ??_C@_05GGMHDFKJ@FLOAT?$AA@ 1001d53c     sqcompiler.obj
 0002:00001544       ??_C@_0O@NMLKFFNK@expected?5?8?$CFs?8?$AA@ 1001d544     sqcompiler.obj
 0002:00001554       ??_C@_0O@MAJMPGKK@expected?5?8?$CFc?8?$AA@ 1001d554     sqcompiler.obj
 0002:00001564       ??_C@_0CE@FHFJIFKH@end?5of?5statement?5expected?5?$CI?$DL?5or?5@ 1001d564     sqcompiler.obj
 0002:00001588       ??_C@_04GHJNJNPO@main?$AA@ 1001d588     sqcompiler.obj
 0002:00001590       ??_C@_04IIAJELJL@this?$AA@ 1001d590     sqcompiler.obj
 0002:00001598       ??_C@_05MCNPIFLP@vargv?$AA@ 1001d598     sqcompiler.obj
 0002:000015a0       ??_C@_0CC@PFANNGPG@?8break?8?5has?5to?5be?5in?5a?5loop?5bloc@ 1001d5a0     sqcompiler.obj
 0002:000015c4       ??_C@_0CF@FDDJCLJO@?8continue?8?5has?5to?5be?5in?5a?5loop?5b@ 1001d5c4     sqcompiler.obj
 0002:000015ec       ??_C@_0BI@KGKKAHEK@can?8t?5assign?5expression?$AA@ 1001d5ec     sqcompiler.obj
 0002:00001604       ??_C@_0BM@KGIMFMMD@can?8t?5?8create?8?5a?5local?5slot?$AA@ 1001d604     sqcompiler.obj
 0002:00001620       ??_C@_0EE@KACABHOP@cannot?5brake?5deref?1or?5comma?5need@ 1001d620     sqcompiler.obj
 0002:00001664       ??_C@_0CB@FGNGGMFM@can?8t?5?8?$CL?$CL?8?5or?5?8?9?9?8?5an?5expression@ 1001d664     sqcompiler.obj
 0002:00001688       ??_C@_0BJ@HMMDJCPM@invalid?5constant?5?$FL?$CFs?4?$CFs?$FN?$AA@ 1001d688     sqcompiler.obj
 0002:000016a4       ??_C@_0BE@IBBEEPG@expression?5expected?$AA@ 1001d6a4     sqcompiler.obj
 0002:000016b8       ??_C@_0BP@OHNMPGBH@expression?5expected?0?5found?5?8?$CJ?8?$AA@ 1001d6b8     sqcompiler.obj
 0002:000016d8       ??_C@_07MEOONPEG@?$EAINDEX?$EA?$AA@ 1001d6d8     sqcompiler.obj
 0002:000016e0       ??_C@_0L@IPLHBCIJ@?$EAITERATOR?$EA?$AA@ 1001d6e0     sqcompiler.obj
 0002:000016ec       ??_C@_0BD@IFFHDPJD@invalid?5class?5name?$AA@ 1001d6ec     sqcompiler.obj
 0002:00001700       ??_C@_0EA@KLDKANHI@cannot?5create?5a?5class?5in?5a?5local@ 1001d700     sqcompiler.obj
 0002:00001740       ??_C@_0CA@OOLCBOGK@scalar?5expected?5?3?5integer?0float?$AA@ 1001d740     sqcompiler.obj
 0002:00001760       ??_C@_0CK@ECCMNOI@scalar?5expected?5?3?5integer?0float?5@ 1001d760     sqcompiler.obj
 0002:0000178c       ??_C@_0BL@PLCNJKJP@can?8t?5delete?5an?5expression?$AA@ 1001d78c     sqcompiler.obj
 0002:000017a8       ??_C@_0BP@FBMAOOEF@cannot?5delete?5an?5?$CIouter?$CJ?5local?$AA@ 1001d7a8     sqcompiler.obj
 0002:000017c8       ??_C@_0EL@OMJBKLHF@function?5with?5default?5parameters@ 1001d7c8     sqcompiler.obj
 0002:00001814       ??_C@_0N@BOJPMBHB@expected?5?8?$CJ?8?$AA@ 1001d814     sqcompiler.obj
 0002:00001824       ??_C@_0N@FLAMKNN@expected?5?8?$DN?8?$AA@ 1001d824     sqcompiler.obj
 0002:00001834       ??_C@_0BE@KGOPMBBB@expected?5?8?$CJ?8?5or?5?8?0?8?$AA@ 1001d834     sqcompiler.obj
 0002:00001848       ??_C@_06HMBDGAJC@NATIVE?$AA@ 1001d848     sqdebug.obj
 0002:00001850       ??_C@_02DPKJAMEF@?$CFd?$AA@ 1001d850     sqdebug.obj
 0002:00001854       ??_C@_05CGOEHEFE@?$CF?414g?$AA@ 1001d854     sqdebug.obj
 0002:0000185c       ??_C@_0CB@JAAHEGAI@the?5index?5?8?$CF?450s?8?5does?5not?5exist@ 1001d85c     sqdebug.obj
 0002:00001880       ??_C@_0CH@OCJKNACM@comparison?5between?5?8?$CF?450s?8?5and?5?8@ 1001d880     sqdebug.obj
 0002:000018a7       ??_C@_00CNPNBAHC@?$AA@     1001d8a7     sqdebug.obj
 0002:000018a8       ??_C@_01DNKMNLPK@?$HM?$AA@ 1001d8a8     sqdebug.obj
 0002:000018ac       ??_C@_0DH@EPADHNOI@parameter?5?$CFd?5has?5an?5invalid?5type@ 1001d8ac     sqdebug.obj
 0002:000018e4       ??_C@_0CL@OAKHKLCG@internal?5compiler?5error?3?5too?5man@ 1001d8e4     sqfuncstate.obj
 0002:00001910       ??_C@_0CJ@OEOMGDLH@internal?5compiler?5error?3?5too?5man@ 1001d910     sqfuncstate.obj
 0002:0000193c       ??_C@_05OODBEKIG@while?$AA@ 1001d93c     sqlexer.obj
 0002:00001944       ??_C@_02KNAFDCHJ@do?$AA@   1001d944     sqlexer.obj
 0002:00001948       ??_C@_02HEBPBKGD@if?$AA@   1001d948     sqlexer.obj
 0002:0000194c       ??_C@_04FHMCPBIP@else?$AA@ 1001d94c     sqlexer.obj
 0002:00001954       ??_C@_05ELPHFHOI@break?$AA@ 1001d954     sqlexer.obj
 0002:0000195c       ??_C@_08DLICDMBN@continue?$AA@ 1001d95c     sqlexer.obj
 0002:00001968       ??_C@_06LNOFJDNM@return?$AA@ 1001d968     sqlexer.obj
 0002:00001970       ??_C@_04MLLLIHIP@null?$AA@ 1001d970     sqlexer.obj
 0002:00001978       ??_C@_08HFFPPCHF@function?$AA@ 1001d978     sqlexer.obj
 0002:00001984       ??_C@_05IDKHKMLA@local?$AA@ 1001d984     sqlexer.obj
 0002:0000198c       ??_C@_03JOHEBPFF@for?$AA@  1001d98c     sqlexer.obj
 0002:00001990       ??_C@_07ICLAOFOB@foreach?$AA@ 1001d990     sqlexer.obj
 0002:00001998       ??_C@_02LMMGJAGL@in?$AA@   1001d998     sqlexer.obj
 0002:0000199c       ??_C@_06NDJPCPHC@typeof?$AA@ 1001d99c     sqlexer.obj
 0002:000019a4       ??_C@_04BHIIPFEC@base?$AA@ 1001d9a4     sqlexer.obj
 0002:000019ac       ??_C@_06FOBLBEIN@delete?$AA@ 1001d9ac     sqlexer.obj
 0002:000019b4       ??_C@_03JDGOGJKJ@try?$AA@  1001d9b4     sqlexer.obj
 0002:000019b8       ??_C@_05GHOHNOEI@catch?$AA@ 1001d9b8     sqlexer.obj
 0002:000019c0       ??_C@_05JFAPCGDM@throw?$AA@ 1001d9c0     sqlexer.obj
 0002:000019c8       ??_C@_05KFBJCHHJ@clone?$AA@ 1001d9c8     sqlexer.obj
 0002:000019d0       ??_C@_05LKJGIMLP@yield?$AA@ 1001d9d0     sqlexer.obj
 0002:000019d8       ??_C@_06PLELHCEK@resume?$AA@ 1001d9d8     sqlexer.obj
 0002:000019e0       ??_C@_06DOPOGBGP@switch?$AA@ 1001d9e0     sqlexer.obj
 0002:000019e8       ??_C@_04CKOINMPC@case?$AA@ 1001d9e8     sqlexer.obj
 0002:000019f0       ??_C@_07DLHCIBDH@default?$AA@ 1001d9f0     sqlexer.obj
 0002:000019f8       ??_C@_05ENKANFLO@class?$AA@ 1001d9f8     sqlexer.obj
 0002:00001a00       ??_C@_07IMAFGOBG@extends?$AA@ 1001da00     sqlexer.obj
 0002:00001a08       ??_C@_0L@CMICNBPM@instanceof?$AA@ 1001da08     sqlexer.obj
 0002:00001a14       ??_C@_06GGHJAEBN@static?$AA@ 1001da14     sqlexer.obj
 0002:00001a1c       ??_C@_04DBJPMPLO@enum?$AA@ 1001da1c     sqlexer.obj
 0002:00001a24       ??_C@_05BNCCCJPP@const?$AA@ 1001da24     sqlexer.obj
 0002:00001a2c       ??_C@_0BC@NLAKMLN@Invalid?5character?$AA@ 1001da2c     sqlexer.obj
 0002:00001a40       ??_C@_0BI@BJDNAGME@missing?5?$CC?$CK?1?$CC?5in?5comment?$AA@ 1001da40     sqlexer.obj
 0002:00001a58       ??_C@_0BJ@DDFDNEOB@error?5parsing?5the?5string?$AA@ 1001da58     sqlexer.obj
 0002:00001a74       ??_C@_0BD@OGFJHGKJ@invalid?5token?5?8?4?4?8?$AA@ 1001da74     sqlexer.obj
 0002:00001a88       ??_C@_0BO@MHBBEPMD@unexpected?5character?$CIcontrol?$CJ?$AA@ 1001da88     sqlexer.obj
 0002:00001aa8       ??_C@_0BC@IBAFBKML@unfinished?5string?$AA@ 1001daa8     sqlexer.obj
 0002:00001abc       ??_C@_0BG@NPMIPGAK@newline?5in?5a?5constant?$AA@ 1001dabc     sqlexer.obj
 0002:00001ad4       ??_C@_0BM@NFLFFJPC@hexadecimal?5number?5expected?$AA@ 1001dad4     sqlexer.obj
 0002:00001af0       ??_C@_0BK@OEGDGLO@unrecognised?5escaper?5char?$AA@ 1001daf0     sqlexer.obj
 0002:00001b0c       ??_C@_0P@IJPAJKLL@empty?5constant?$AA@ 1001db0c     sqlexer.obj
 0002:00001b1c       ??_C@_0BC@EHOLFHDH@constant?5too?5long?$AA@ 1001db1c     sqlexer.obj
 0002:00001b30       ??_C@_0BF@NNCCIJEO@invalid?5octal?5number?$AA@ 1001db30     sqlexer.obj
 0002:00001b48       ??_C@_0CC@EMFKOCKC@too?5many?5digits?5for?5an?5Hex?5numbe@ 1001db48     sqlexer.obj
 0002:00001b6c       ??_C@_0BH@PJECDAJK@invalid?5numeric?5format?$AA@ 1001db6c     sqlexer.obj
 0002:00001b84       ??_C@_0BC@OMKMJOOO@exponent?5expected?$AA@ 1001db84     sqlexer.obj
 0002:00001b98       ??_C@_07LKHFMGFB@integer?$AA@ 1001db98     sqobject.obj
 0002:00001ba0       ??_C@_05KNFBNCOH@float?$AA@ 1001dba0     sqobject.obj
 0002:00001ba8       ??_C@_04DDKJGDCM@bool?$AA@ 1001dba8     sqobject.obj
 0002:00001bb0       ??_C@_06ICGJLFIM@string?$AA@ 1001dbb0     sqobject.obj
 0002:00001bb8       ??_C@_05LCLENNFI@table?$AA@ 1001dbb8     sqobject.obj
 0002:00001bc0       ??_C@_09HNDCMPDF@generator?$AA@ 1001dbc0     sqobject.obj
 0002:00001bcc       ??_C@_08NOEPOPLB@userdata?$AA@ 1001dbcc     sqobject.obj
 0002:00001bd8       ??_C@_06FJHNOCKE@thread?$AA@ 1001dbd8     sqobject.obj
 0002:00001be0       ??_C@_05DBOFKJBI@outer?$AA@ 1001dbe0     sqobject.obj
 0002:00001be8       ??_C@_0CL@OBOEIBFJ@internal?5vm?5error?0?5yielding?5dead@ 1001dbe8     sqobject.obj
 0002:00001c14       ??_C@_0CN@HOJDLNNF@internal?5vm?5error?0?5yielding?5a?5de@ 1001dc14     sqobject.obj
 0002:00001c44       ??_C@_0BI@IADGEOJL@resuming?5dead?5generator?$AA@ 1001dc44     sqobject.obj
 0002:00001c5c       ??_C@_0BK@LHHEBGGN@resuming?5active?5generator?$AA@ 1001dc5c     sqobject.obj
 0002:00001c78       ??_C@_0CC@FIHPDKGH@io?5error?5?$CIwrite?5function?5failure@ 1001dc78     sqobject.obj
 0002:00001ca0       ??_C@_0EP@KAHLJFEG@io?5error?0?5read?5function?5failure?0@ 1001dca0     sqobject.obj
 0002:00001cf0       ??_C@_0CE@DLIALCOF@invalid?5or?5corrupted?5closure?5str@ 1001dcf0     sqobject.obj
 0002:00001d14       ??_C@_0BG@PLNJACK@cannot?5serialize?5a?5?$CFs?$AA@ 1001dd14     sqobject.obj
 0002:00001d30       ??_7SQFunctionProto@@6B@   1001dd30     sqobject.obj
 0002:00001d48       ??_7SQWeakRef@@6B@         1001dd48     sqobject.obj
 0002:00001d50       ??_C@_07NMGBPFLN@closure?$AA@ 1001dd50     sqstate.obj
 0002:00001d58       ??_C@_0M@NJIHMALH@userpointer?$AA@ 1001dd58     sqstate.obj
 0002:00001d64       ??_C@_04EOELANMB@_add?$AA@ 1001dd64     sqstate.obj
 0002:00001d6c       ??_C@_04PPOFPMBE@_sub?$AA@ 1001dd6c     sqstate.obj
 0002:00001d74       ??_C@_04NBKAPBDG@_mul?$AA@ 1001dd74     sqstate.obj
 0002:00001d7c       ??_C@_04JLJBOHD@_div?$AA@  1001dd7c     sqstate.obj
 0002:00001d84       ??_C@_04ENGFPDJG@_unm?$AA@ 1001dd84     sqstate.obj
 0002:00001d8c       ??_C@_07JGODJFFJ@_modulo?$AA@ 1001dd8c     sqstate.obj
 0002:00001d94       ??_C@_04MFDNCJJA@_cmp?$AA@ 1001dd94     sqstate.obj
 0002:00001d9c       ??_C@_05GGGIGPGK@_call?$AA@ 1001dd9c     sqstate.obj
 0002:00001da4       ??_C@_08HJIPGLAP@_newslot?$AA@ 1001dda4     sqstate.obj
 0002:00001db0       ??_C@_08IBFOIFJP@_delslot?$AA@ 1001ddb0     sqstate.obj
 0002:00001dbc       ??_C@_09BABEPPIP@_tostring?$AA@ 1001ddbc     sqstate.obj
 0002:00001dc8       ??_C@_0L@BBLBCCFH@_newmember?$AA@ 1001ddc8     sqstate.obj
 0002:00001dd4       ??_C@_0L@GFPFODGE@_inherited?$AA@ 1001ddd4     sqstate.obj
 0002:00001de4       ??_7SQString@@6B@          1001dde4     sqstate.obj
 0002:00001df0       ??_7SQTable@@6B@           1001ddf0     sqtable.obj
 0002:00001e08       ??_C@_0CE@NAAMBMIA@internal?5vm?5error?5bitwise?5op?5fai@ 1001de08     sqvm.obj
 0002:00001e2c       ??_C@_0CB@BPBMGFBD@bitwise?5op?5between?5?8?$CFs?8?5and?5?8?$CFs?8@ 1001de2c     sqvm.obj
 0002:00001e50       ??_C@_0BB@OMEBCKB@division?5by?5zero?$AA@ 1001de50     sqvm.obj
 0002:00001e64       ??_C@_0P@CADNGMKE@modulo?5by?5zero?$AA@ 1001de64     sqvm.obj
 0002:00001e74       ??_C@_0CF@EINENGLM@arith?5op?5?$CFc?5on?5between?5?8?$CFs?8?5and?5@ 1001de74     sqvm.obj
 0002:00001e9c       ??_C@_0BH@LIGKHIPA@attempt?5to?5negate?5a?5?$CFs?$AA@ 1001de9c     sqvm.obj
 0002:00001eb4       ??_C@_0BM@HFKHIAFJ@_cmp?5must?5return?5an?5integer?$AA@ 1001deb4     sqvm.obj
 0002:00001ed0       ??_C@_02BEIEFPIG@?$CFg?$AA@ 1001ded0     sqvm.obj
 0002:00001ed4       ??_C@_0M@GDGAHJAG@?$CI?$CFs?5?3?50x?$CFp?$CJ?$AA@ 1001ded4     sqvm.obj
 0002:00001ee0       ??_C@_0BL@BLKEBHOF@wrong?5number?5of?5parameters?$AA@ 1001dee0     sqvm.obj
 0002:00001efc       ??_C@_0CH@BDHCJLLO@cannot?5suspend?5an?5already?5suspen@ 1001defc     sqvm.obj
 0002:00001f24       ??_C@_0DA@PGLPICKO@cannot?5suspend?5through?5native?5ca@ 1001df24     sqvm.obj
 0002:00001f54       ??_C@_0BP@OCEJIGEO@_nexti?5returned?5an?5invalid?5idx?$AA@ 1001df54     sqvm.obj
 0002:00001f74       ??_C@_0O@CIFLKIJH@_nexti?5failed?$AA@ 1001df74     sqvm.obj
 0002:00001f84       ??_C@_0BC@DFONEHKA@cannot?5iterate?5?$CFs?$AA@ 1001df84     sqvm.obj
 0002:00001f98       ??_C@_0BM@JEBIFLMP@trying?5to?5inherit?5from?5a?5?$CFs?$AA@ 1001df98     sqvm.obj
 0002:00001fb4       ??_C@_0BG@KPEMDGMJ@Native?5stack?5overflow?$AA@ 1001dfb4     sqvm.obj
 0002:00001fcc       ??_C@_0BF@NNJHPKNM@attempt?5to?5call?5?8?$CFs?8?$AA@ 1001dfcc     sqvm.obj
 0002:00001fe4       ??_C@_0CO@FNFONHOM@cannot?5apply?5instanceof?5between?5@ 1001dfe4     sqvm.obj
 0002:00002014       ??_C@_0CI@GLOMJLMO@attempt?5to?5perform?5a?5bitwise?5op?5@ 1001e014     sqvm.obj
 0002:0000203c       ??_C@_0DH@HHAGGODL@trying?5to?5yield?5a?5?8?$CFs?8?0only?5gene@ 1001e03c     sqvm.obj
 0002:00002074       ??_C@_0DI@LMAKJDOE@trying?5to?5resume?5a?5?8?$CFs?8?0only?5gen@ 1001e074     sqvm.obj
 0002:000020ac       ??_C@_0BE@HECNIOCB@indexing?5?$CFs?5with?5?$CFs?$AA@ 1001e0ac     sqvm.obj
 0002:000020c0       ??_C@_0BD@OBBKCMOC@trying?5to?5set?5?8?$CFs?8?$AA@ 1001e0c0     sqvm.obj
 0002:000020d4       ??_C@_0N@CAAANFIP@cloning?5a?5?$CFs?$AA@ 1001e0d4     sqvm.obj
 0002:000020e4       ??_C@_0BH@IOJNMAKG@object?5must?5be?5a?5class?$AA@ 1001e0e4     sqvm.obj
 0002:000020fc       ??_C@_0BN@HHDJCCE@null?5cannot?5be?5used?5as?5index?$AA@ 1001e0fc     sqvm.obj
 0002:0000211c       ??_C@_0DF@GGFPPCHB@class?5instances?5do?5not?5support?5t@ 1001e11c     sqvm.obj
 0002:00002154       ??_C@_0DM@MBAJMKDI@trying?5to?5modify?5a?5class?5that?5ha@ 1001e154     sqvm.obj
 0002:00002190       ??_C@_0CB@LNOFJBIF@the?5property?5?8?$CFs?8?5already?5exists@ 1001e190     sqvm.obj
 0002:000021b4       ??_C@_0BN@JKDIJJN@cannot?5delete?5a?5slot?5from?5?$CFs?$AA@ 1001e1b4     sqvm.obj
 0002:000021d4       ??_C@_0CD@GAKJAMCE@attempt?5to?5delete?5a?5slot?5from?5a?5@ 1001e1d4     sqvm.obj
 0002:000021f8       ??_C@_0DL@HGNEONMP@stack?5overflow?0?5cannot?5resize?5st@ 1001e1f8     sqvm.obj
 0002:00002238       ??_7SQVM@@6B@              1001e238     sqvm.obj
 0002:00002250       ??_7SQGenerator@@6B@       1001e250     sqvm.obj
 0002:00002268       ??_7SQOuter@@6B@           1001e268     sqvm.obj
 0002:00002280       __real@408f400000000000    1001e280      CIL library: CIL module
 0002:00002288       __real@41700000            1001e288      CIL library: CIL module
 0002:0000228c       __real@40490fdb            1001e28c      CIL library: CIL module
 0002:00002290       __load_config_used         1001e290     MSVCRT:loadcfg.obj
 0002:000022d8       ??_R4type_info@@6B@        1001e2d8     MSVCRT:ti_inst.obj
 0002:000022ec       ??_R3type_info@@8          1001e2ec     MSVCRT:ti_inst.obj
 0002:000022fc       ??_R2type_info@@8          1001e2fc     MSVCRT:ti_inst.obj
 0002:00002304       ??_R1A@?0A@EA@type_info@@8 1001e304     MSVCRT:ti_inst.obj
 0002:00002320       ??_R4SQBlob@@6B@           1001e320     sqstdblob.obj
 0002:00002334       ??_R3SQBlob@@8             1001e334     sqstdblob.obj
 0002:00002344       ??_R2SQBlob@@8             1001e344     sqstdblob.obj
 0002:00002350       ??_R1A@?0A@EA@SQBlob@@8    1001e350     sqstdblob.obj
 0002:0000236c       ??_R3SQStream@@8           1001e36c     sqstdblob.obj
 0002:0000237c       ??_R2SQStream@@8           1001e37c     sqstdblob.obj
 0002:00002384       ??_R1A@?0A@EA@SQStream@@8  1001e384     sqstdblob.obj
 0002:000023a0       ??_R4SQFile@@6B@           1001e3a0     sqstdio.obj
 0002:000023b4       ??_R3SQFile@@8             1001e3b4     sqstdio.obj
 0002:000023c4       ??_R2SQFile@@8             1001e3c4     sqstdio.obj
 0002:000023d0       ??_R1A@?0A@EA@SQFile@@8    1001e3d0     sqstdio.obj
 0002:000023ec       ??_R4SQRefCounted@@6B@     1001e3ec     sqapi.obj
 0002:00002400       ??_R4SQUserData@@6B@       1001e400     sqapi.obj
 0002:00002414       ??_R3SQUserData@@8         1001e414     sqapi.obj
 0002:00002424       ??_R2SQUserData@@8         1001e424     sqapi.obj
 0002:00002438       ??_R1A@?0A@EA@SQDelegable@@8 1001e438     sqapi.obj
 0002:00002454       ??_R3SQDelegable@@8        1001e454     sqapi.obj
 0002:00002464       ??_R2SQDelegable@@8        1001e464     sqapi.obj
 0002:00002474       ??_R1A@?0A@EA@SQUserData@@8 1001e474     sqapi.obj
 0002:00002490       ??_R4SQNativeClosure@@6B@  1001e490     sqapi.obj
 0002:000024a4       ??_R3SQNativeClosure@@8    1001e4a4     sqapi.obj
 0002:000024b4       ??_R2SQNativeClosure@@8    1001e4b4     sqapi.obj
 0002:000024c4       ??_R1A@?0A@EA@SQNativeClosure@@8 1001e4c4     sqapi.obj
 0002:000024e0       ??_R4SQClosure@@6B@        1001e4e0     sqapi.obj
 0002:000024f4       ??_R3SQClosure@@8          1001e4f4     sqapi.obj
 0002:00002504       ??_R2SQClosure@@8          1001e504     sqapi.obj
 0002:00002514       ??_R1A@?0A@EA@SQClosure@@8 1001e514     sqapi.obj
 0002:00002530       ??_R4SQArray@@6B@          1001e530     sqapi.obj
 0002:00002544       ??_R3SQArray@@8            1001e544     sqapi.obj
 0002:00002554       ??_R2SQArray@@8            1001e554     sqapi.obj
 0002:00002564       ??_R1A@?0A@EA@SQCollectable@@8 1001e564     sqapi.obj
 0002:00002580       ??_R3SQCollectable@@8      1001e580     sqapi.obj
 0002:00002590       ??_R2SQCollectable@@8      1001e590     sqapi.obj
 0002:0000259c       ??_R1A@?0A@EA@SQRefCounted@@8 1001e59c     sqapi.obj
 0002:000025b8       ??_R3SQRefCounted@@8       1001e5b8     sqapi.obj
 0002:000025c8       ??_R2SQRefCounted@@8       1001e5c8     sqapi.obj
 0002:000025d0       ??_R1A@?0A@EA@SQArray@@8   1001e5d0     sqapi.obj
 0002:000025ec       ??_R4SQInstance@@6B@       1001e5ec     sqclass.obj
 0002:00002600       ??_R3SQInstance@@8         1001e600     sqclass.obj
 0002:00002610       ??_R2SQInstance@@8         1001e610     sqclass.obj
 0002:00002624       ??_R1A@?0A@EA@SQInstance@@8 1001e624     sqclass.obj
 0002:00002640       ??_R4SQClass@@6B@          1001e640     sqclass.obj
 0002:00002654       ??_R3SQClass@@8            1001e654     sqclass.obj
 0002:00002664       ??_R2SQClass@@8            1001e664     sqclass.obj
 0002:00002674       ??_R1A@?0A@EA@SQClass@@8   1001e674     sqclass.obj
 0002:00002690       ??_R4SQWeakRef@@6B@        1001e690     sqobject.obj
 0002:000026a4       ??_R3SQWeakRef@@8          1001e6a4     sqobject.obj
 0002:000026b4       ??_R2SQWeakRef@@8          1001e6b4     sqobject.obj
 0002:000026c0       ??_R1A@?0A@EA@SQWeakRef@@8 1001e6c0     sqobject.obj
 0002:000026dc       ??_R4SQFunctionProto@@6B@  1001e6dc     sqobject.obj
 0002:000026f0       ??_R3SQFunctionProto@@8    1001e6f0     sqobject.obj
 0002:00002700       ??_R2SQFunctionProto@@8    1001e700     sqobject.obj
 0002:00002710       ??_R1A@?0A@EA@SQFunctionProto@@8 1001e710     sqobject.obj
 0002:0000272c       ??_R4SQString@@6B@         1001e72c     sqstate.obj
 0002:00002740       ??_R3SQString@@8           1001e740     sqstate.obj
 0002:00002750       ??_R2SQString@@8           1001e750     sqstate.obj
 0002:0000275c       ??_R1A@?0A@EA@SQString@@8  1001e75c     sqstate.obj
 0002:00002778       ??_R4SQTable@@6B@          1001e778     sqtable.obj
 0002:0000278c       ??_R3SQTable@@8            1001e78c     sqtable.obj
 0002:0000279c       ??_R2SQTable@@8            1001e79c     sqtable.obj
 0002:000027b0       ??_R1A@?0A@EA@SQTable@@8   1001e7b0     sqtable.obj
 0002:000027cc       ??_R4SQOuter@@6B@          1001e7cc     sqvm.obj
 0002:000027e0       ??_R3SQOuter@@8            1001e7e0     sqvm.obj
 0002:000027f0       ??_R2SQOuter@@8            1001e7f0     sqvm.obj
 0002:00002800       ??_R1A@?0A@EA@SQOuter@@8   1001e800     sqvm.obj
 0002:0000281c       ??_R4SQGenerator@@6B@      1001e81c     sqvm.obj
 0002:00002830       ??_R3SQGenerator@@8        1001e830     sqvm.obj
 0002:00002840       ??_R2SQGenerator@@8        1001e840     sqvm.obj
 0002:00002850       ??_R1A@?0A@EA@SQGenerator@@8 1001e850     sqvm.obj
 0002:0000286c       ??_R4SQVM@@6B@             1001e86c     sqvm.obj
 0002:00002880       ??_R3SQVM@@8               1001e880     sqvm.obj
 0002:00002890       ??_R2SQVM@@8               1001e890     sqvm.obj
 0002:000028a0       ??_R1A@?0A@EA@SQVM@@8      1001e8a0     sqvm.obj
 0002:000028c0       ___safe_se_handler_table   1001e8c0     <linker-defined>
 0002:000029d4       ___rtc_iaa                 1001e9d4     MSVCRT:_initsect_.obj
 0002:000029d8       ___rtc_izz                 1001e9d8     MSVCRT:_initsect_.obj
 0002:000029dc       ___rtc_taa                 1001e9dc     MSVCRT:_initsect_.obj
 0002:000029e0       ___rtc_tzz                 1001e9e0     MSVCRT:_initsect_.obj
 0002:00003ecc       __IMPORT_DESCRIPTOR_MSVCR90 1001fecc     MSVCRT:MSVCR90.dll
 0002:00003ee0       __IMPORT_DESCRIPTOR_KERNEL32 1001fee0     kernel32:KERNEL32.dll
 0002:00003ef4       __NULL_IMPORT_DESCRIPTOR   1001fef4     MSVCRT:MSVCR90.dll
 0003:00000000       ??_R0?AVtype_info@@@8      10022000     MSVCRT:ti_inst.obj
 0003:00000018       ___native_dllmain_reason   10022018     MSVCRT:natstart.obj
 0003:0000001c       ___native_vcclrit_reason   1002201c     MSVCRT:natstart.obj
 0003:00000020       ___security_cookie         10022020     MSVCRT:gs_cookie.obj
 0003:00000024       ___security_cookie_complement 10022024     MSVCRT:gs_cookie.obj
 0003:00000028       ??_R0?AUSQBlob@@@8         10022028     sqstdblob.obj
 0003:00000040       ??_R0?AUSQStream@@@8       10022040     sqstdblob.obj
 0003:000001d8       ?_table_default_delegate_funcz@SQSharedState@@2PAUtagSQRegFunction@@A 100221d8     sqbaselib.obj
 0003:00000288       ?_array_default_delegate_funcz@SQSharedState@@2PAUtagSQRegFunction@@A 10022288     sqbaselib.obj
 0003:000003d8       ?_string_default_delegate_funcz@SQSharedState@@2PAUtagSQRegFunction@@A 100223d8     sqbaselib.obj
 0003:00000478       ?_number_default_delegate_funcz@SQSharedState@@2PAUtagSQRegFunction@@A 10022478     sqbaselib.obj
 0003:000004d8       ?_closure_default_delegate_funcz@SQSharedState@@2PAUtagSQRegFunction@@A 100224d8     sqbaselib.obj
 0003:00000568       ?_generator_default_delegate_funcz@SQSharedState@@2PAUtagSQRegFunction@@A 10022568     sqbaselib.obj
 0003:000005a8       ?_thread_default_delegate_funcz@SQSharedState@@2PAUtagSQRegFunction@@A 100225a8     sqbaselib.obj
 0003:00000618       ?_class_default_delegate_funcz@SQSharedState@@2PAUtagSQRegFunction@@A 10022618     sqbaselib.obj
 0003:000006d8       ?_instance_default_delegate_funcz@SQSharedState@@2PAUtagSQRegFunction@@A 100226d8     sqbaselib.obj
 0003:00000748       ?_weakref_default_delegate_funcz@SQSharedState@@2PAUtagSQRegFunction@@A 10022748     sqbaselib.obj
 0003:00000c48       ??_R0?AUSQFile@@@8         10022c48     sqstdio.obj
 0003:00000c60       ??_R0?AUSQDelegable@@@8    10022c60     sqapi.obj
 0003:00000c7c       ??_R0?AUSQUserData@@@8     10022c7c     sqapi.obj
 0003:00000c98       ??_R0?AUSQNativeClosure@@@8 10022c98     sqapi.obj
 0003:00000cb8       ??_R0?AUSQClosure@@@8      10022cb8     sqapi.obj
 0003:00000cd0       ??_R0?AUSQRefCounted@@@8   10022cd0     sqapi.obj
 0003:00000cec       ??_R0?AUSQCollectable@@@8  10022cec     sqapi.obj
 0003:00000d08       ??_R0?AUSQArray@@@8        10022d08     sqapi.obj
 0003:00000d20       ??_R0?AUSQInstance@@@8     10022d20     sqclass.obj
 0003:00000d3c       ??_R0?AUSQClass@@@8        10022d3c     sqclass.obj
 0003:00000d54       ??_R0?AUSQWeakRef@@@8      10022d54     sqobject.obj
 0003:00000d6c       ??_R0?AUSQFunctionProto@@@8 10022d6c     sqobject.obj
 0003:00000d8c       ??_R0?AUSQString@@@8       10022d8c     sqstate.obj
 0003:00000da4       ??_R0?AUSQTable@@@8        10022da4     sqtable.obj
 0003:00000dbc       ??_R0?AUSQOuter@@@8        10022dbc     sqvm.obj
 0003:00000dd4       ??_R0?AUSQGenerator@@@8    10022dd4     sqvm.obj
 0003:00000df0       ??_R0?AUSQVM@@@8           10022df0     sqvm.obj
 0003:00000e14       __forceCRTManifestRTM      10022e14     MSVCRT:crtmanifestrtm.obj
 0003:00000e18       ?__type_info_root_node@@3U__type_info_node@@A 10022e18     MSVCRT:tncleanup.obj
 0003:00001148       ?temp@?1??Error@SQCompiler@@QAAXPBDZZ@4PADA 10023148     sqcompiler.obj
 0003:00001248       ___sse2_available          10023248     <common>
 0003:0000124c       __adjust_fdiv              1002324c     <common>
 0003:00001250       ___native_startup_state    10023250     <common>
 0003:00001254       ___native_startup_lock     10023254     <common>
 0003:00001258       ___onexitend               10023258     <common>
 0003:0000125c       ___onexitbegin             1002325c     <common>
 0003:00001260       ___dyn_tls_init_callback   10023260     <common>

 entry point at        0001:00019a17

 Static symbols

 0001:00000281       ?_sqstd_aux_printerror@@YAHPAUSQVM@@@Z 10001281 f    CIL library: CIL module
 0001:000004f0       ?_blob_resize@@YAHPAUSQVM@@@Z 100014f0 f    CIL library: CIL module
 0001:0000056f       ?__swap_dword@@YAXPAI@Z    1000156f f    CIL library: CIL module
 0001:00000598       ?_blob_swap4@@YAHPAUSQVM@@@Z 10001598 f    CIL library: CIL module
 0001:0000062e       ?_blob_swap2@@YAHPAUSQVM@@@Z 1000162e f    CIL library: CIL module
 0001:000006d3       ?_blob__set@@YAHPAUSQVM@@@Z 100016d3 f    CIL library: CIL module
 0001:00000777       ?_blob__get@@YAHPAUSQVM@@@Z 10001777 f    CIL library: CIL module
 0001:0000080b       ?_blob__nexti@@YAHPAUSQVM@@@Z 1000180b f    CIL library: CIL module
 0001:000008b9       ?_blob__typeof@@YAHPAUSQVM@@@Z 100018b9 f    CIL library: CIL module
 0001:000008d0       ?_blob_releasehook@@YAHPAXH@Z 100018d0 f    CIL library: CIL module
 0001:000008d0       ?_file_releasehook@@YAHPAXH@Z 100018d0 f    CIL library: CIL module
 0001:000008eb       ?_blob_constructor@@YAHPAUSQVM@@@Z 100018eb f    CIL library: CIL module
 0001:0000098b       ?_blob__cloned@@YAHPAUSQVM@@@Z 1000198b f    CIL library: CIL module
 0001:00000a58       ?_g_blob_casti2f@@YAHPAUSQVM@@@Z 10001a58 f    CIL library: CIL module
 0001:00000a81       ?_g_blob_castf2i@@YAHPAUSQVM@@@Z 10001a81 f    CIL library: CIL module
 0001:00000aa6       ?_g_blob_swap2@@YAHPAUSQVM@@@Z 10001aa6 f    CIL library: CIL module
 0001:00000ad9       ?_g_blob_swap4@@YAHPAUSQVM@@@Z 10001ad9 f    CIL library: CIL module
 0001:00000b0c       ?_g_blob_swapfloat@@YAHPAUSQVM@@@Z 10001b0c f    CIL library: CIL module
 0001:00000db9       ?_file__typeof@@YAHPAUSQVM@@@Z 10001db9 f    CIL library: CIL module
 0001:00000dd0       ?_file_constructor@@YAHPAUSQVM@@@Z 10001dd0 f    CIL library: CIL module
 0001:00000ebf       ?_file_close@@YAHPAUSQVM@@@Z 10001ebf f    CIL library: CIL module
 0001:00000fe7       ?_io_file_lexfeed_PLAIN@@YAHPAX@Z 10001fe7 f    CIL library: CIL module
 0001:0000100d       ?_io_file_lexfeed_UCS2_LE@@YAHPAX@Z 1000200d f    CIL library: CIL module
 0001:00001033       ?_io_file_lexfeed_UCS2_BE@@YAHPAX@Z 10002033 f    CIL library: CIL module
 0001:0000140a       ?math_srand@@YAHPAUSQVM@@@Z 1000240a f    CIL library: CIL module
 0001:00001441       ?math_rand@@YAHPAUSQVM@@@Z 10002441 f    CIL library: CIL module
 0001:00001457       ?math_abs@@YAHPAUSQVM@@@Z  10002457 f    CIL library: CIL module
 0001:00001482       ?math_sqrt@@YAHPAUSQVM@@@Z 10002482 f    CIL library: CIL module
 0001:000014b8       ?math_fabs@@YAHPAUSQVM@@@Z 100024b8 f    CIL library: CIL module
 0001:000014ea       ?math_sin@@YAHPAUSQVM@@@Z  100024ea f    CIL library: CIL module
 0001:00001520       ?math_cos@@YAHPAUSQVM@@@Z  10002520 f    CIL library: CIL module
 0001:00001556       ?math_asin@@YAHPAUSQVM@@@Z 10002556 f    CIL library: CIL module
 0001:0000158c       ?math_acos@@YAHPAUSQVM@@@Z 1000258c f    CIL library: CIL module
 0001:000015c2       ?math_log@@YAHPAUSQVM@@@Z  100025c2 f    CIL library: CIL module
 0001:000015f8       ?math_log10@@YAHPAUSQVM@@@Z 100025f8 f    CIL library: CIL module
 0001:0000162e       ?math_tan@@YAHPAUSQVM@@@Z  1000262e f    CIL library: CIL module
 0001:00001664       ?math_atan@@YAHPAUSQVM@@@Z 10002664 f    CIL library: CIL module
 0001:0000169a       ?math_atan2@@YAHPAUSQVM@@@Z 1000269a f    CIL library: CIL module
 0001:000016e2       ?math_pow@@YAHPAUSQVM@@@Z  100026e2 f    CIL library: CIL module
 0001:0000172a       ?math_floor@@YAHPAUSQVM@@@Z 1000272a f    CIL library: CIL module
 0001:00001765       ?math_ceil@@YAHPAUSQVM@@@Z 10002765 f    CIL library: CIL module
 0001:000017a1       ?math_exp@@YAHPAUSQVM@@@Z  100027a1 f    CIL library: CIL module
 0001:00001898       ?sqstd_rex_newnode@@YAHPAUSQRex@@H@Z 10002898 f    CIL library: CIL module
 0001:00001908       ?sqstd_rex_error@@YAXPAUSQRex@@PBD@Z 10002908 f    CIL library: CIL module
 0001:0000191d       ?sqstd_rex_escapechar@@YADPAUSQRex@@@Z 1000291d f    CIL library: CIL module
 0001:00001984       ?sqstd_rex_charnode@@YAHPAUSQRex@@I@Z 10002984 f    CIL library: CIL module
 0001:00001ac4       ?sqstd_rex_class@@YAHPAUSQRex@@@Z 10002ac4 f    CIL library: CIL module
 0001:00001c10       ?sqstd_rex_parsenumber@@YAHPAUSQRex@@@Z 10002c10 f    CIL library: CIL module
 0001:00001c65       ?sqstd_rex_element@@YAHPAUSQRex@@@Z 10002c65 f    CIL library: CIL module
 0001:00001e4c       ?sqstd_rex_list@@YAHPAUSQRex@@@Z 10002e4c f    CIL library: CIL module
 0001:00001eca       ?sqstd_rex_matchcclass@@YAIHD@Z 10002eca f    CIL library: CIL module
 0001:00002002       ?sqstd_rex_matchclass@@YAIPAUSQRex@@PAUtagSQRexNode@@D@Z 10003002 f    CIL library: CIL module
 0001:0000205a       ?sqstd_rex_matchnode@@YAPBDPAUSQRex@@PAUtagSQRexNode@@PBD1@Z 1000305a f    CIL library: CIL module
 0001:00002f23       ?validate_format@@YAHPAUSQVM@@PADPBDHAAH@Z 10003f23 f    CIL library: CIL module
 0001:00003259       ?_string_format@@YAHPAUSQVM@@@Z 10004259 f    CIL library: CIL module
 0001:0000329a       ?__strip_l@@YAXPBDPAPBD@Z  1000429a f    CIL library: CIL module
 0001:000032bc       ?__strip_r@@YAXPBDHPAPBD@Z 100042bc f    CIL library: CIL module
 0001:000032e3       ?_string_strip@@YAHPAUSQVM@@@Z 100042e3 f    CIL library: CIL module
 0001:0000333a       ?_string_lstrip@@YAHPAUSQVM@@@Z 1000433a f    CIL library: CIL module
 0001:0000336d       ?_string_rstrip@@YAHPAUSQVM@@@Z 1000436d f    CIL library: CIL module
 0001:000033af       ?_string_split@@YAHPAUSQVM@@@Z 100043af f    CIL library: CIL module
 0001:00003452       ?_rexobj_releasehook@@YAHPAXH@Z 10004452 f    CIL library: CIL module
 0001:00003460       ?_regexp_match@@YAHPAUSQVM@@@Z 10004460 f    CIL library: CIL module
 0001:000034ad       ?_addrexmatch@@YAXPAUSQVM@@PBD11@Z 100044ad f    CIL library: CIL module
 0001:0000350d       ?_regexp_search@@YAHPAUSQVM@@@Z 1000450d f    CIL library: CIL module
 0001:0000358e       ?_regexp_capture@@YAHPAUSQVM@@@Z 1000458e f    CIL library: CIL module
 0001:00003672       ?_regexp_subexpcount@@YAHPAUSQVM@@@Z 10004672 f    CIL library: CIL module
 0001:000036a0       ?_regexp_constructor@@YAHPAUSQVM@@@Z 100046a0 f    CIL library: CIL module
 0001:000036f3       ?_regexp__typeof@@YAHPAUSQVM@@@Z 100046f3 f    CIL library: CIL module
 0001:000037ff       ?_system_getenv@@YAHPAUSQVM@@@Z 100047ff f    CIL library: CIL module
 0001:00003839       ?_system_system@@YAHPAUSQVM@@@Z 10004839 f    CIL library: CIL module
 0001:0000387d       ?_system_clock@@YAHPAUSQVM@@@Z 1000487d f    CIL library: CIL module
 0001:000038ac       ?_system_time@@YAHPAUSQVM@@@Z 100048ac f    CIL library: CIL module
 0001:000038ce       ?_system_remove@@YAHPAUSQVM@@@Z 100048ce f    CIL library: CIL module
 0001:00003906       ?_system_rename@@YAHPAUSQVM@@@Z 10004906 f    CIL library: CIL module
 0001:00003950       ?_set_integer_slot@@YAXPAUSQVM@@PBDH@Z 10004950 f    CIL library: CIL module
 0001:0000397a       ?_system_date@@YAHPAUSQVM@@@Z 1000497a f    CIL library: CIL module
 0001:000071e2       ?base_dummy@@YAHPAUSQVM@@@Z 100081e2 f    CIL library: CIL module
 0001:000071e5       ?base_collectgarbage@@YAHPAUSQVM@@@Z 100081e5 f    CIL library: CIL module
 0001:000071ff       ?base_resurectureachable@@YAHPAUSQVM@@@Z 100081ff f    CIL library: CIL module
 0001:0000720d       ?base_getroottable@@YAHPAUSQVM@@@Z 1000820d f    CIL library: CIL module
 0001:0000721e       ?base_getconsttable@@YAHPAUSQVM@@@Z 1000821e f    CIL library: CIL module
 0001:00007235       ?base_setroottable@@YAHPAUSQVM@@@Z 10008235 f    CIL library: CIL module
 0001:00007299       ?base_setconsttable@@YAHPAUSQVM@@@Z 10008299 f    CIL library: CIL module
 0001:00007305       ?base_seterrorhandler@@YAHPAUSQVM@@@Z 10008305 f    CIL library: CIL module
 0001:00007312       ?base_setdebughook@@YAHPAUSQVM@@@Z 10008312 f    CIL library: CIL module
 0001:0000731f       ?base_enabledebuginfo@@YAHPAUSQVM@@@Z 1000831f f    CIL library: CIL module
 0001:00007345       ?__getcallstackinfos@@YAHPAUSQVM@@H@Z 10008345 f    CIL library: CIL module
 0001:0000748a       ?base_getstackinfos@@YAHPAUSQVM@@@Z 1000848a f    CIL library: CIL module
 0001:000074ac       ?base_assert@@YAHPAUSQVM@@@Z 100084ac f    CIL library: CIL module
 0001:000074d4       ?get_slice_params@@YAHPAUSQVM@@AAH1AAUSQObjectPtr@@@Z 100084d4 f    CIL library: CIL module
 0001:00007574       ?base_print@@YAHPAUSQVM@@@Z 10008574 f    CIL library: CIL module
 0001:000075b5       ?base_error@@YAHPAUSQVM@@@Z 100085b5 f    CIL library: CIL module
 0001:000075f6       ?base_compilestring@@YAHPAUSQVM@@@Z 100085f6 f    CIL library: CIL module
 0001:00007662       ?base_newthread@@YAHPAUSQVM@@@Z 10008662 f    CIL library: CIL module
 0001:0000769b       ?base_suspend@@YAHPAUSQVM@@@Z 1000869b f    CIL library: CIL module
 0001:000076a0       ?base_array@@YAHPAUSQVM@@@Z 100086a0 f    CIL library: CIL module
 0001:00007772       ?base_type@@YAHPAUSQVM@@@Z 10008772 f    CIL library: CIL module
 0001:000077db       ?base_callee@@YAHPAUSQVM@@@Z 100087db f    CIL library: CIL module
 0001:00007960       ?default_delegate_len@@YAHPAUSQVM@@@Z 10008960 f    CIL library: CIL module
 0001:000079ad       ?default_delegate_tofloat@@YAHPAUSQVM@@@Z 100089ad f    CIL library: CIL module
 0001:00007af3       ?default_delegate_tointeger@@YAHPAUSQVM@@@Z 10008af3 f    CIL library: CIL module
 0001:00007c2d       ?default_delegate_tostring@@YAHPAUSQVM@@@Z 10008c2d f    CIL library: CIL module
 0001:00007c3e       ?obj_delegate_weakref@@YAHPAUSQVM@@@Z 10008c3e f    CIL library: CIL module
 0001:00007c4f       ?obj_clear@@YAHPAUSQVM@@@Z 10008c4f f    CIL library: CIL module
 0001:00007c5d       ?number_delegate_tochar@@YAHPAUSQVM@@@Z 10008c5d f    CIL library: CIL module
 0001:00007cdc       ?table_rawdelete@@YAHPAUSQVM@@@Z 10008cdc f    CIL library: CIL module
 0001:00007cfa       ?container_rawexists@@YAHPAUSQVM@@@Z 10008cfa f    CIL library: CIL module
 0001:00007d20       ?container_rawset@@YAHPAUSQVM@@@Z 10008d20 f    CIL library: CIL module
 0001:00007d2e       ?container_rawget@@YAHPAUSQVM@@@Z 10008d2e f    CIL library: CIL module
 0001:00007d49       ?table_setdelegate@@YAHPAUSQVM@@@Z 10008d49 f    CIL library: CIL module
 0001:00007d6f       ?table_getdelegate@@YAHPAUSQVM@@@Z 10008d6f f    CIL library: CIL module
 0001:00007d8a       ?array_append@@YAHPAUSQVM@@@Z 10008d8a f    CIL library: CIL module
 0001:00007d98       ?array_extend@@YAHPAUSQVM@@@Z 10008d98 f    CIL library: CIL module
 0001:00007dd4       ?array_reverse@@YAHPAUSQVM@@@Z 10008dd4 f    CIL library: CIL module
 0001:00007de2       ?array_pop@@YAHPAUSQVM@@@Z 10008de2 f    CIL library: CIL module
 0001:00007e00       ?array_top@@YAHPAUSQVM@@@Z 10008e00 f    CIL library: CIL module
 0001:00007e38       ?array_insert@@YAHPAUSQVM@@@Z 10008e38 f    CIL library: CIL module
 0001:00007e85       ?array_remove@@YAHPAUSQVM@@@Z 10008e85 f    CIL library: CIL module
 0001:00007f53       ?array_resize@@YAHPAUSQVM@@@Z 10008f53 f    CIL library: CIL module
 0001:00007ff9       ?__map_array@@YAHPAUSQArray@@0PAUSQVM@@@Z 10008ff9 f    CIL library: CIL module
 0001:000080f0       ?array_map@@YAHPAUSQVM@@@Z 100090f0 f    CIL library: CIL module
 0001:00008187       ?array_apply@@YAHPAUSQVM@@@Z 10009187 f    CIL library: CIL module
 0001:000081af       ?array_reduce@@YAHPAUSQVM@@@Z 100091af f    CIL library: CIL module
 0001:0000832b       ?array_filter@@YAHPAUSQVM@@@Z 1000932b f    CIL library: CIL module
 0001:000084c8       ?array_find@@YAHPAUSQVM@@@Z 100094c8 f    CIL library: CIL module
 0001:000087a2       ?array_sort@@YAHPAUSQVM@@@Z 100097a2 f    CIL library: CIL module
 0001:000087e0       ?array_slice@@YAHPAUSQVM@@@Z 100097e0 f    CIL library: CIL module
 0001:0000893b       ?string_slice@@YAHPAUSQVM@@@Z 1000993b f    CIL library: CIL module
 0001:00008a0e       ?string_find@@YAHPAUSQVM@@@Z 10009a0e f    CIL library: CIL module
 0001:00008aaf       ?string_tolower@@YAHPAUSQVM@@@Z 10009aaf f    CIL library: CIL module
 0001:00008b6b       ?string_toupper@@YAHPAUSQVM@@@Z 10009b6b f    CIL library: CIL module
 0001:00008c27       ?closure_pcall@@YAHPAUSQVM@@@Z 10009c27 f    CIL library: CIL module
 0001:00008c4e       ?closure_call@@YAHPAUSQVM@@@Z 10009c4e f    CIL library: CIL module
 0001:00008c75       ?_closure_acall@@YAHPAUSQVM@@I@Z 10009c75 f    CIL library: CIL module
 0001:00008cd3       ?closure_acall@@YAHPAUSQVM@@@Z 10009cd3 f    CIL library: CIL module
 0001:00008ce2       ?closure_pacall@@YAHPAUSQVM@@@Z 10009ce2 f    CIL library: CIL module
 0001:00008cf1       ?closure_bindenv@@YAHPAUSQVM@@@Z 10009cf1 f    CIL library: CIL module
 0001:00008d0c       ?closure_getinfos@@YAHPAUSQVM@@@Z 10009d0c f    CIL library: CIL module
 0001:000092a9       ?generator_getstatus@@YAHPAUSQVM@@@Z 1000a2a9 f    CIL library: CIL module
 0001:0000937c       ?thread_call@@YAHPAUSQVM@@@Z 1000a37c f    CIL library: CIL module
 0001:0000947a       ?thread_wakeup@@YAHPAUSQVM@@@Z 1000a47a f    CIL library: CIL module
 0001:000095a5       ?thread_getstatus@@YAHPAUSQVM@@@Z 1000a5a5 f    CIL library: CIL module
 0001:000095f8       ?thread_getstackinfos@@YAHPAUSQVM@@@Z 1000a5f8 f    CIL library: CIL module
 0001:000096ee       ?class_getattributes@@YAHPAUSQVM@@@Z 1000a6ee f    CIL library: CIL module
 0001:00009709       ?class_setattributes@@YAHPAUSQVM@@@Z 1000a709 f    CIL library: CIL module
 0001:00009724       ?class_instance@@YAHPAUSQVM@@@Z 1000a724 f    CIL library: CIL module
 0001:0000973f       ?class_getbase@@YAHPAUSQVM@@@Z 1000a73f f    CIL library: CIL module
 0001:0000975a       ?class_newmember@@YAHPAUSQVM@@@Z 1000a75a f    CIL library: CIL module
 0001:000097b3       ?class_rawnewmember@@YAHPAUSQVM@@@Z 1000a7b3 f    CIL library: CIL module
 0001:0000980c       ?instance_getclass@@YAHPAUSQVM@@@Z 1000a80c f    CIL library: CIL module
 0001:00009827       ?weakref_ref@@YAHPAUSQVM@@@Z 1000a827 f    CIL library: CIL module
 0001:0001968c       _pre_c_init                1001a68c f   MSVCRT:crtdll.obj
 0001:00019901       ___DllMainCRTStartup       1001a901 f   MSVCRT:crtdll.obj
 0001:0001a088       _has_osfxsr_set            1001b088 f   MSVCRT:cpu_disp.obj
 0001:0001a147       __unwindfunclet$??1SQLexer@@QAE@XZ$0 1001b147 f    CIL library: CIL module
 0001:0001a152       __ehhandler$??1SQLexer@@QAE@XZ 1001b152 f    CIL library: CIL module
 0001:0001a15c       __unwindfunclet$?FallBackSet@SQVM@@QAEHABUSQObjectPtr@@00@Z$1 1001b15c f    CIL library: CIL module
 0001:0001a164       __unwindfunclet$?FallBackSet@SQVM@@QAEHABUSQObjectPtr@@00@Z$2 1001b164 f    CIL library: CIL module
 0001:0001a16c       __unwindfunclet$?FallBackSet@SQVM@@QAEHABUSQObjectPtr@@00@Z$3 1001b16c f    CIL library: CIL module
 0001:0001a174       __unwindfunclet$?FallBackSet@SQVM@@QAEHABUSQObjectPtr@@00@Z$0 1001b174 f    CIL library: CIL module
 0001:0001a17c       __ehhandler$?FallBackSet@SQVM@@QAEHABUSQObjectPtr@@00@Z 1001b17c f    CIL library: CIL module
 0001:0001a186       __unwindfunclet$?FallBackGet@SQVM@@QAEHABUSQObjectPtr@@0AAU2@@Z$1 1001b186 f    CIL library: CIL module
 0001:0001a18e       __unwindfunclet$?FallBackGet@SQVM@@QAEHABUSQObjectPtr@@0AAU2@@Z$2 1001b18e f    CIL library: CIL module
 0001:0001a196       __unwindfunclet$?FallBackGet@SQVM@@QAEHABUSQObjectPtr@@0AAU2@@Z$0 1001b196 f    CIL library: CIL module
 0001:0001a19e       __ehhandler$?FallBackGet@SQVM@@QAEHABUSQObjectPtr@@0AAU2@@Z 1001b19e f    CIL library: CIL module
 0001:0001a1a8       __unwindfunclet$?CallDebugHook@SQVM@@QAEXHH@Z$0 1001b1a8 f    CIL library: CIL module
 0001:0001a1b0       __unwindfunclet$?CallDebugHook@SQVM@@QAEXHH@Z$1 1001b1b0 f    CIL library: CIL module
 0001:0001a1b8       __unwindfunclet$?CallDebugHook@SQVM@@QAEXHH@Z$2 1001b1b8 f    CIL library: CIL module
 0001:0001a1c0       __ehhandler$?CallDebugHook@SQVM@@QAEXHH@Z 1001b1c0 f    CIL library: CIL module
 0001:0001a1ca       __unwindfunclet$??0SQInstance@@QAE@PAUSQSharedState@@PAUSQClass@@H@Z$0 1001b1ca f    CIL library: CIL module
 0001:0001a1ca       __unwindfunclet$??1SQTable@@UAE@XZ$0 1001b1ca f    CIL library: CIL module
 0001:0001a1ca       __unwindfunclet$??0SQInstance@@QAE@PAUSQSharedState@@PAU0@H@Z$0 1001b1ca f    CIL library: CIL module
 0001:0001a1ca       __unwindfunclet$??1SQClosure@@UAE@XZ$0 1001b1ca f    CIL library: CIL module
 0001:0001a1d2       __ehhandler$??1SQClosure@@UAE@XZ 1001b1d2 f    CIL library: CIL module
 0001:0001a1d2       __ehhandler$??0SQInstance@@QAE@PAUSQSharedState@@PAUSQClass@@H@Z 1001b1d2 f    CIL library: CIL module
 0001:0001a1d2       __ehhandler$??1SQTable@@UAE@XZ 1001b1d2 f    CIL library: CIL module
 0001:0001a1d2       __ehhandler$??0SQInstance@@QAE@PAUSQSharedState@@PAU0@H@Z 1001b1d2 f    CIL library: CIL module
 0001:0001a1dc       __unwindfunclet$??_GSQFunctionProto@@EAEPAXI@Z$0 1001b1dc f    CIL library: CIL module
 0001:0001a1e4       __unwindfunclet$??_GSQFunctionProto@@EAEPAXI@Z$1 1001b1e4 f    CIL library: CIL module
 0001:0001a1ef       __ehhandler$??_GSQFunctionProto@@EAEPAXI@Z 1001b1ef f    CIL library: CIL module
 0001:0001a1f9       __unwindfunclet$?Tok2Str@SQLexer@@QAEPBDH@Z$0 1001b1f9 f    CIL library: CIL module
 0001:0001a201       __unwindfunclet$?Tok2Str@SQLexer@@QAEPBDH@Z$1 1001b201 f    CIL library: CIL module
 0001:0001a209       __unwindfunclet$?Tok2Str@SQLexer@@QAEPBDH@Z$2 1001b209 f    CIL library: CIL module
 0001:0001a211       __ehhandler$?Tok2Str@SQLexer@@QAEPBDH@Z 1001b211 f    CIL library: CIL module
 0001:0001a21b       __unwindfunclet$??1SQOuterVar@@QAE@XZ$0 1001b21b f    CIL library: CIL module
 0001:0001a226       __ehhandler$??1SQOuterVar@@QAE@XZ 1001b226 f    CIL library: CIL module
 0001:0001a230       __unwindfunclet$??0SQLocalVarInfo@@QAE@ABU0@@Z$0 1001b230 f    CIL library: CIL module
 0001:0001a230       __unwindfunclet$??_G_HashNode@SQTable@@QAEPAXI@Z$0 1001b230 f    CIL library: CIL module
 0001:0001a230       __unwindfunclet$??1SQClassMember@@QAE@XZ$0 1001b230 f    CIL library: CIL module
 0001:0001a238       __ehhandler$??_G_HashNode@SQTable@@QAEPAXI@Z 1001b238 f    CIL library: CIL module
 0001:0001a238       __ehhandler$??1SQClassMember@@QAE@XZ 1001b238 f    CIL library: CIL module
 0001:0001a238       __ehhandler$??0SQLocalVarInfo@@QAE@ABU0@@Z 1001b238 f    CIL library: CIL module
 0001:0001a242       __unwindfunclet$??0SQOuterVar@@QAE@ABU0@@Z$0 1001b242 f    CIL library: CIL module
 0001:0001a242       __unwindfunclet$??0SQOuterVar@@QAE@ABUSQObjectPtr@@0W4SQOuterType@@@Z$0 1001b242 f    CIL library: CIL module
 0001:0001a24d       __unwindfunclet$??0SQOuterVar@@QAE@ABUSQObjectPtr@@0W4SQOuterType@@@Z$1 1001b24d f    CIL library: CIL module
 0001:0001a24d       __unwindfunclet$??0SQOuterVar@@QAE@ABU0@@Z$1 1001b24d f    CIL library: CIL module
 0001:0001a258       __ehhandler$??0SQOuterVar@@QAE@ABUSQObjectPtr@@0W4SQOuterType@@@Z 1001b258 f    CIL library: CIL module
 0001:0001a258       __ehhandler$??0SQOuterVar@@QAE@ABU0@@Z 1001b258 f    CIL library: CIL module
 0001:0001a262       __unwindfunclet$??1SQCompiler@@QAE@XZ$0 1001b262 f    CIL library: CIL module
 0001:0001a26d       __ehhandler$??1SQCompiler@@QAE@XZ 1001b26d f    CIL library: CIL module
 0001:0001a277       __unwindfunclet$?ToString@SQVM@@QAE_NABUSQObjectPtr@@AAU2@@Z$0 1001b277 f    CIL library: CIL module
 0001:0001a277       __unwindfunclet$?thread_call@@YAHPAUSQVM@@@Z$0 1001b277 f    CIL library: CIL module
 0001:0001a277       __unwindfunclet$?SetAttributes@SQClass@@QAE_NABUSQObjectPtr@@0@Z$0 1001b277 f    CIL library: CIL module
 0001:0001a277       __unwindfunclet$?FunctionExp@SQCompiler@@QAEXH_N@Z$0 1001b277 f    CIL library: CIL module
 0001:0001a277       __unwindfunclet$?Set@SQInstance@@QAE_NABUSQObjectPtr@@0@Z$0 1001b277 f    CIL library: CIL module
 0001:0001a277       __unwindfunclet$?string_toupper@@YAHPAUSQVM@@@Z$0 1001b277 f    CIL library: CIL module
 0001:0001a277       __unwindfunclet$?thread_getstackinfos@@YAHPAUSQVM@@@Z$0 1001b277 f    CIL library: CIL module
 0001:0001a277       __unwindfunclet$?PLOCAL_INC@SQVM@@QAE_NHAAUSQObjectPtr@@00@Z$0 1001b277 f    CIL library: CIL module
 0001:0001a277       __unwindfunclet$?array_map@@YAHPAUSQVM@@@Z$0 1001b277 f    CIL library: CIL module
 0001:0001a277       __unwindfunclet$?string_tolower@@YAHPAUSQVM@@@Z$0 1001b277 f    CIL library: CIL module
 0001:0001a277       __unwindfunclet$?thread_wakeup@@YAHPAUSQVM@@@Z$0 1001b277 f    CIL library: CIL module
 0001:0001a277       __unwindfunclet$?GetMetaMethodIdxByName@SQSharedState@@QAEHABUSQObjectPtr@@@Z$0 1001b277 f    CIL library: CIL module
 0001:0001a277       __unwindfunclet$?NewSlotA@SQVM@@QAE_NABUSQObjectPtr@@000_N1@Z$0 1001b277 f    CIL library: CIL module
 0001:0001a27f       __ehhandler$?Set@SQInstance@@QAE_NABUSQObjectPtr@@0@Z 1001b27f f    CIL library: CIL module
 0001:0001a27f       __ehhandler$?string_tolower@@YAHPAUSQVM@@@Z 1001b27f f    CIL library: CIL module
 0001:0001a27f       __ehhandler$?thread_wakeup@@YAHPAUSQVM@@@Z 1001b27f f    CIL library: CIL module
 0001:0001a27f       __ehhandler$?array_map@@YAHPAUSQVM@@@Z 1001b27f f    CIL library: CIL module
 0001:0001a27f       __ehhandler$?string_toupper@@YAHPAUSQVM@@@Z 1001b27f f    CIL library: CIL module
 0001:0001a27f       __ehhandler$?FunctionExp@SQCompiler@@QAEXH_N@Z 1001b27f f    CIL library: CIL module
 0001:0001a27f       __ehhandler$?NewSlotA@SQVM@@QAE_NABUSQObjectPtr@@000_N1@Z 1001b27f f    CIL library: CIL module
 0001:0001a27f       __ehhandler$?thread_call@@YAHPAUSQVM@@@Z 1001b27f f    CIL library: CIL module
 0001:0001a27f       __ehhandler$?ToString@SQVM@@QAE_NABUSQObjectPtr@@AAU2@@Z 1001b27f f    CIL library: CIL module
 0001:0001a27f       __ehhandler$?PLOCAL_INC@SQVM@@QAE_NHAAUSQObjectPtr@@00@Z 1001b27f f    CIL library: CIL module
 0001:0001a27f       __ehhandler$?thread_getstackinfos@@YAHPAUSQVM@@@Z 1001b27f f    CIL library: CIL module
 0001:0001a27f       __ehhandler$?GetMetaMethodIdxByName@SQSharedState@@QAEHABUSQObjectPtr@@@Z 1001b27f f    CIL library: CIL module
 0001:0001a27f       __ehhandler$?SetAttributes@SQClass@@QAE_NABUSQObjectPtr@@0@Z 1001b27f f    CIL library: CIL module
 0001:0001a289       __unwindfunclet$??1SQNativeClosure@@UAE@XZ$0 1001b289 f    CIL library: CIL module
 0001:0001a291       __unwindfunclet$??1SQNativeClosure@@UAE@XZ$1 1001b291 f    CIL library: CIL module
 0001:0001a29c       __unwindfunclet$??1SQNativeClosure@@UAE@XZ$2 1001b29c f    CIL library: CIL module
 0001:0001a2a7       __ehhandler$??1SQNativeClosure@@UAE@XZ 1001b2a7 f    CIL library: CIL module
 0001:0001a2b1       __unwindfunclet$?Finalize@SQVM@@UAEXXZ$0 1001b2b1 f    CIL library: CIL module
 0001:0001a2b1       __unwindfunclet$?GrowCallStack@SQVM@@QAEXXZ$0 1001b2b1 f    CIL library: CIL module
 0001:0001a2b9       __ehhandler$?Finalize@SQVM@@UAEXXZ 1001b2b9 f    CIL library: CIL module
 0001:0001a2b9       __ehhandler$?GrowCallStack@SQVM@@QAEXXZ 1001b2b9 f    CIL library: CIL module
 0001:0001a2c3       __unwindfunclet$?Release@RefTable@@QAEIAAUtagSQObject@@@Z$0 1001b2c3 f    CIL library: CIL module
 0001:0001a2cb       __ehhandler$?Release@RefTable@@QAEIAAUtagSQObject@@@Z 1001b2cb f    CIL library: CIL module
 0001:0001a2d5       __unwindfunclet$?GetIDType@SQLexer@@AAEHPAD@Z$0 1001b2d5 f    CIL library: CIL module
 0001:0001a2d5       __unwindfunclet$?FOREACH_OP@SQVM@@QAE_NAAUSQObjectPtr@@000HHAAH@Z$0 1001b2d5 f    CIL library: CIL module
 0001:0001a2dd       __unwindfunclet$?FOREACH_OP@SQVM@@QAE_NAAUSQObjectPtr@@000HHAAH@Z$1 1001b2dd f    CIL library: CIL module
 0001:0001a2dd       __unwindfunclet$?GetIDType@SQLexer@@AAEHPAD@Z$1 1001b2dd f    CIL library: CIL module
 0001:0001a2e5       __ehhandler$?GetIDType@SQLexer@@AAEHPAD@Z 1001b2e5 f    CIL library: CIL module
 0001:0001a2e5       __ehhandler$?FOREACH_OP@SQVM@@QAE_NAAUSQObjectPtr@@000HHAAH@Z 1001b2e5 f    CIL library: CIL module
 0001:0001a2ef       __unwindfunclet$?GetOuterVariable@SQFuncState@@QAEHABUtagSQObject@@@Z$0 1001b2ef f    CIL library: CIL module
 0001:0001a2f7       __unwindfunclet$?GetOuterVariable@SQFuncState@@QAEHABUtagSQObject@@@Z$1 1001b2f7 f    CIL library: CIL module
 0001:0001a2ff       __unwindfunclet$?GetOuterVariable@SQFuncState@@QAEHABUtagSQObject@@@Z$2 1001b2ff f    CIL library: CIL module
 0001:0001a309       __unwindfunclet$?GetOuterVariable@SQFuncState@@QAEHABUtagSQObject@@@Z$3 1001b309 f    CIL library: CIL module
 0001:0001a311       __unwindfunclet$?GetOuterVariable@SQFuncState@@QAEHABUtagSQObject@@@Z$4 1001b311 f    CIL library: CIL module
 0001:0001a319       __unwindfunclet$?GetOuterVariable@SQFuncState@@QAEHABUtagSQObject@@@Z$5 1001b319 f    CIL library: CIL module
 0001:0001a323       __ehhandler$?GetOuterVariable@SQFuncState@@QAEHABUtagSQObject@@@Z 1001b323 f    CIL library: CIL module
 0001:0001a32d       __unwindfunclet$?PushLocalVariable@SQFuncState@@QAEHABUtagSQObject@@@Z$0 1001b32d f    CIL library: CIL module
 0001:0001a32d       __unwindfunclet$?SetStackSize@SQFuncState@@QAEXH@Z$0 1001b32d f    CIL library: CIL module
 0001:0001a32d       __unwindfunclet$?AllocStackPos@SQFuncState@@QAEHXZ$0 1001b32d f    CIL library: CIL module
 0001:0001a335       __ehhandler$?AllocStackPos@SQFuncState@@QAEHXZ 1001b335 f    CIL library: CIL module
 0001:0001a335       __ehhandler$?PushLocalVariable@SQFuncState@@QAEHABUtagSQObject@@@Z 1001b335 f    CIL library: CIL module
 0001:0001a335       __ehhandler$?SetStackSize@SQFuncState@@QAEXH@Z 1001b335 f    CIL library: CIL module
 0001:0001a33f       __unwindfunclet$?copy@?$sqvector@USQClassMember@@@@QAEXABV1@@Z$0 1001b33f f    CIL library: CIL module
 0001:0001a349       __ehhandler$?copy@?$sqvector@USQClassMember@@@@QAEXABV1@@Z 1001b349 f    CIL library: CIL module
 0001:0001a353       __unwindfunclet$??1SQInstance@@UAE@XZ$0 1001b353 f    CIL library: CIL module
 0001:0001a35b       __unwindfunclet$??1SQInstance@@UAE@XZ$1 1001b35b f    CIL library: CIL module
 0001:0001a371       __ehhandler$??1SQInstance@@UAE@XZ 1001b371 f    CIL library: CIL module
 0001:0001a37b       __unwindfunclet$?Finalize@SQClass@@UAEXXZ$0 1001b37b f    CIL library: CIL module
 0001:0001a385       __unwindfunclet$?Finalize@SQClass@@UAEXXZ$1 1001b385 f    CIL library: CIL module
 0001:0001a38f       __ehhandler$?Finalize@SQClass@@UAEXXZ 1001b38f f    CIL library: CIL module
 0001:0001a399       __unwindfunclet$?generator_getstatus@@YAHPAUSQVM@@@Z$2 1001b399 f    CIL library: CIL module
 0001:0001a3a1       __unwindfunclet$?generator_getstatus@@YAHPAUSQVM@@@Z$0 1001b3a1 f    CIL library: CIL module
 0001:0001a3a9       __unwindfunclet$?generator_getstatus@@YAHPAUSQVM@@@Z$1 1001b3a9 f    CIL library: CIL module
 0001:0001a3b1       __ehhandler$?generator_getstatus@@YAHPAUSQVM@@@Z 1001b3b1 f    CIL library: CIL module
 0001:0001a3bb       __unwindfunclet$?CreateDefaultDelegate@@YAPAUSQTable@@PAUSQSharedState@@PAUtagSQRegFunction@@@Z$0 1001b3bb f    CIL library: CIL module
 0001:0001a3bb       __unwindfunclet$?array_find@@YAHPAUSQVM@@@Z$0 1001b3bb f    CIL library: CIL module
 0001:0001a3c3       __unwindfunclet$?array_find@@YAHPAUSQVM@@@Z$1 1001b3c3 f    CIL library: CIL module
 0001:0001a3c3       __unwindfunclet$?CreateDefaultDelegate@@YAPAUSQTable@@PAUSQSharedState@@PAUtagSQRegFunction@@@Z$1 1001b3c3 f    CIL library: CIL module
 0001:0001a3cb       __ehhandler$?array_find@@YAHPAUSQVM@@@Z 1001b3cb f    CIL library: CIL module
 0001:0001a3cb       __ehhandler$?CreateDefaultDelegate@@YAPAUSQTable@@PAUSQSharedState@@PAUtagSQRegFunction@@@Z 1001b3cb f    CIL library: CIL module
 0001:0001a3d5       __unwindfunclet$?Next@SQClass@@QAEHABUSQObjectPtr@@AAU2@1@Z$0 1001b3d5 f    CIL library: CIL module
 0001:0001a3d5       __unwindfunclet$?Insert@SQArray@@QAE_NHABUtagSQObject@@@Z$0 1001b3d5 f    CIL library: CIL module
 0001:0001a3d5       __unwindfunclet$?EnterFrame@SQVM@@QAE_NHH_N@Z$0 1001b3d5 f    CIL library: CIL module
 0001:0001a3d5       __unwindfunclet$?base_setconsttable@@YAHPAUSQVM@@@Z$0 1001b3d5 f    CIL library: CIL module
 0001:0001a3d5       __unwindfunclet$?copy@?$sqvector@USQObjectPtr@@@@QAEXABV1@@Z$0 1001b3d5 f    CIL library: CIL module
 0001:0001a3d5       __unwindfunclet$?Finalize@SQGenerator@@UAEXXZ$0 1001b3d5 f    CIL library: CIL module
 0001:0001a3d5       __unwindfunclet$?ArithMetaMethod@SQVM@@QAE_NHABUSQObjectPtr@@0AAU2@@Z$0 1001b3d5 f    CIL library: CIL module
 0001:0001a3d5       __unwindfunclet$?GetAttributes@SQClass@@QAE_NABUSQObjectPtr@@AAU2@@Z$0 1001b3d5 f    CIL library: CIL module
 0001:0001a3d5       __unwindfunclet$?number_delegate_tochar@@YAHPAUSQVM@@@Z$0 1001b3d5 f    CIL library: CIL module
 0001:0001a3d5       __unwindfunclet$?TypeOf@SQVM@@QAE_NABUSQObjectPtr@@AAU2@@Z$0 1001b3d5 f    CIL library: CIL module
 0001:0001a3d5       __unwindfunclet$?base_type@@YAHPAUSQVM@@@Z$0 1001b3d5 f    CIL library: CIL module
 0001:0001a3d5       __unwindfunclet$?array_remove@@YAHPAUSQVM@@@Z$0 1001b3d5 f    CIL library: CIL module
 0001:0001a3d5       __unwindfunclet$?Raise_IdxError@SQVM@@QAEXABUSQObjectPtr@@@Z$0 1001b3d5 f    CIL library: CIL module
 0001:0001a3d5       __unwindfunclet$?Load@SQClosure@@SA_NPAUSQVM@@PAXP6AH11H@ZAAUSQObjectPtr@@@Z$0 1001b3d5 f    CIL library: CIL module
 0001:0001a3d5       __unwindfunclet$?array_resize@@YAHPAUSQVM@@@Z$0 1001b3d5 f    CIL library: CIL module
 0001:0001a3d5       __unwindfunclet$?sq_aux_gettypedarg@@YA_NPAUSQVM@@HW4tagSQObjectType@@PAPAUSQObjectPtr@@@Z$0 1001b3d5 f    CIL library: CIL module
 0001:0001a3d5       __unwindfunclet$?Finalize@SQArray@@UAEXXZ$0 1001b3d5 f    CIL library: CIL module
 0001:0001a3d5       __unwindfunclet$?CallErrorHandler@SQVM@@QAEXAAUSQObjectPtr@@@Z$0 1001b3d5 f    CIL library: CIL module
 0001:0001a3d5       __unwindfunclet$?default_delegate_len@@YAHPAUSQVM@@@Z$0 1001b3d5 f    CIL library: CIL module
 0001:0001a3d5       __unwindfunclet$?Kill@SQGenerator@@QAEXXZ$0 1001b3d5 f    CIL library: CIL module
 0001:0001a3d5       __unwindfunclet$?base_array@@YAHPAUSQVM@@@Z$0 1001b3d5 f    CIL library: CIL module
 0001:0001a3d5       __unwindfunclet$?NEG_OP@SQVM@@QAE_NAAUSQObjectPtr@@ABU2@@Z$0 1001b3d5 f    CIL library: CIL module
 0001:0001a3d5       __unwindfunclet$?base_setroottable@@YAHPAUSQVM@@@Z$0 1001b3d5 f    CIL library: CIL module
 0001:0001a3d5       __unwindfunclet$?Resize@SQArray@@QAEXH@Z$0 1001b3d5 f    CIL library: CIL module
 0001:0001a3d5       __unwindfunclet$?insert@?$sqvector@USQObjectPtr@@@@QAEXIABUSQObjectPtr@@@Z$0 1001b3d5 f    CIL library: CIL module
 0001:0001a3dd       __ehhandler$?sq_aux_gettypedarg@@YA_NPAUSQVM@@HW4tagSQObjectType@@PAPAUSQObjectPtr@@@Z 1001b3dd f    CIL library: CIL module
 0001:0001a3dd       __ehhandler$?base_type@@YAHPAUSQVM@@@Z 1001b3dd f    CIL library: CIL module
 0001:0001a3dd       __ehhandler$?array_resize@@YAHPAUSQVM@@@Z 1001b3dd f    CIL library: CIL module
 0001:0001a3dd       __ehhandler$?Raise_IdxError@SQVM@@QAEXABUSQObjectPtr@@@Z 1001b3dd f    CIL library: CIL module
 0001:0001a3dd       __ehhandler$?insert@?$sqvector@USQObjectPtr@@@@QAEXIABUSQObjectPtr@@@Z 1001b3dd f    CIL library: CIL module
 0001:0001a3dd       __ehhandler$?array_remove@@YAHPAUSQVM@@@Z 1001b3dd f    CIL library: CIL module
 0001:0001a3dd       __ehhandler$?number_delegate_tochar@@YAHPAUSQVM@@@Z 1001b3dd f    CIL library: CIL module
 0001:0001a3dd       __ehhandler$?Next@SQClass@@QAEHABUSQObjectPtr@@AAU2@1@Z 1001b3dd f    CIL library: CIL module
 0001:0001a3dd       __ehhandler$?GetAttributes@SQClass@@QAE_NABUSQObjectPtr@@AAU2@@Z 1001b3dd f    CIL library: CIL module
 0001:0001a3dd       __ehhandler$?default_delegate_len@@YAHPAUSQVM@@@Z 1001b3dd f    CIL library: CIL module
 0001:0001a3dd       __ehhandler$?base_array@@YAHPAUSQVM@@@Z 1001b3dd f    CIL library: CIL module
 0001:0001a3dd       __ehhandler$?copy@?$sqvector@USQObjectPtr@@@@QAEXABV1@@Z 1001b3dd f    CIL library: CIL module
 0001:0001a3dd       __ehhandler$?base_setconsttable@@YAHPAUSQVM@@@Z 1001b3dd f    CIL library: CIL module
 0001:0001a3dd       __ehhandler$?EnterFrame@SQVM@@QAE_NHH_N@Z 1001b3dd f    CIL library: CIL module
 0001:0001a3dd       __ehhandler$?Resize@SQArray@@QAEXH@Z 1001b3dd f    CIL library: CIL module
 0001:0001a3dd       __ehhandler$?Load@SQClosure@@SA_NPAUSQVM@@PAXP6AH11H@ZAAUSQObjectPtr@@@Z 1001b3dd f    CIL library: CIL module
 0001:0001a3dd       __ehhandler$?Finalize@SQArray@@UAEXXZ 1001b3dd f    CIL library: CIL module
 0001:0001a3dd       __ehhandler$?TypeOf@SQVM@@QAE_NABUSQObjectPtr@@AAU2@@Z 1001b3dd f    CIL library: CIL module
 0001:0001a3dd       __ehhandler$?NEG_OP@SQVM@@QAE_NAAUSQObjectPtr@@ABU2@@Z 1001b3dd f    CIL library: CIL module
 0001:0001a3dd       __ehhandler$?ArithMetaMethod@SQVM@@QAE_NHABUSQObjectPtr@@0AAU2@@Z 1001b3dd f    CIL library: CIL module
 0001:0001a3dd       __ehhandler$?CallErrorHandler@SQVM@@QAEXAAUSQObjectPtr@@@Z 1001b3dd f    CIL library: CIL module
 0001:0001a3dd       __ehhandler$?Finalize@SQGenerator@@UAEXXZ 1001b3dd f    CIL library: CIL module
 0001:0001a3dd       __ehhandler$?Insert@SQArray@@QAE_NHABUtagSQObject@@@Z 1001b3dd f    CIL library: CIL module
 0001:0001a3dd       __ehhandler$?base_setroottable@@YAHPAUSQVM@@@Z 1001b3dd f    CIL library: CIL module
 0001:0001a3dd       __ehhandler$?Kill@SQGenerator@@QAEXXZ 1001b3dd f    CIL library: CIL module
 0001:0001a3e7       __unwindfunclet$??_GSQUserData@@UAEPAXI@Z$0 1001b3e7 f    CIL library: CIL module
 0001:0001a3e7       __unwindfunclet$??_GSQArray@@EAEPAXI@Z$0 1001b3e7 f    CIL library: CIL module
 0001:0001a3e7       __unwindfunclet$??_GSQOuter@@UAEPAXI@Z$0 1001b3e7 f    CIL library: CIL module
 0001:0001a3ef       __ehhandler$??_GSQArray@@EAEPAXI@Z 1001b3ef f    CIL library: CIL module
 0001:0001a3ef       __ehhandler$??_GSQUserData@@UAEPAXI@Z 1001b3ef f    CIL library: CIL module
 0001:0001a3ef       __ehhandler$??_GSQOuter@@UAEPAXI@Z 1001b3ef f    CIL library: CIL module
 0001:0001a3f9       __unwindfunclet$??0SQArray@@AAE@PAUSQSharedState@@H@Z$0 1001b3f9 f    CIL library: CIL module
 0001:0001a401       __unwindfunclet$??0SQArray@@AAE@PAUSQSharedState@@H@Z$1 1001b401 f    CIL library: CIL module
 0001:0001a40c       __unwindfunclet$??0SQArray@@AAE@PAUSQSharedState@@H@Z$2 1001b40c f    CIL library: CIL module
 0001:0001a414       __ehhandler$??0SQArray@@AAE@PAUSQSharedState@@H@Z 1001b414 f    CIL library: CIL module
 0001:0001a41e       __unwindfunclet$?push_back@?$sqvector@USQOuterVar@@@@QAEAAUSQOuterVar@@ABU2@@Z$0 1001b41e f    CIL library: CIL module
 0001:0001a41e       __unwindfunclet$?Create@SQClass@@SAPAU1@PAUSQSharedState@@PAU1@@Z$0 1001b41e f    CIL library: CIL module
 0001:0001a41e       __unwindfunclet$?push_back@?$sqvector@USQLocalVarInfo@@@@QAEAAUSQLocalVarInfo@@ABU2@@Z$0 1001b41e f    CIL library: CIL module
 0001:0001a41e       __unwindfunclet$?PushChildState@SQFuncState@@QAEPAU1@PAUSQSharedState@@@Z$0 1001b41e f    CIL library: CIL module
 0001:0001a41e       __unwindfunclet$?_blob__cloned@@YAHPAUSQVM@@@Z$0 1001b41e f    CIL library: CIL module
 0001:0001a41e       __unwindfunclet$?Create@SQArray@@SAPAU1@PAUSQSharedState@@H@Z$0 1001b41e f    CIL library: CIL module
 0001:0001a41e       __unwindfunclet$?CreateInstance@SQClass@@QAEPAUSQInstance@@XZ$0 1001b41e f    CIL library: CIL module
 0001:0001a41e       __unwindfunclet$?Clone@SQInstance@@QAEPAU1@PAUSQSharedState@@@Z$0 1001b41e f    CIL library: CIL module
 0001:0001a423       __ehhandler$?push_back@?$sqvector@USQLocalVarInfo@@@@QAEAAUSQLocalVarInfo@@ABU2@@Z 1001b423 f    CIL library: CIL module
 0001:0001a423       __ehhandler$?_blob__cloned@@YAHPAUSQVM@@@Z 1001b423 f    CIL library: CIL module
 0001:0001a423       __ehhandler$?CreateInstance@SQClass@@QAEPAUSQInstance@@XZ 1001b423 f    CIL library: CIL module
 0001:0001a423       __ehhandler$?push_back@?$sqvector@USQOuterVar@@@@QAEAAUSQOuterVar@@ABU2@@Z 1001b423 f    CIL library: CIL module
 0001:0001a423       __ehhandler$?Create@SQClass@@SAPAU1@PAUSQSharedState@@PAU1@@Z 1001b423 f    CIL library: CIL module
 0001:0001a423       __ehhandler$?Create@SQArray@@SAPAU1@PAUSQSharedState@@H@Z 1001b423 f    CIL library: CIL module
 0001:0001a423       __ehhandler$?Clone@SQInstance@@QAEPAU1@PAUSQSharedState@@@Z 1001b423 f    CIL library: CIL module
 0001:0001a423       __ehhandler$?PushChildState@SQFuncState@@QAEPAU1@PAUSQSharedState@@@Z 1001b423 f    CIL library: CIL module
 0001:0001a42d       __unwindfunclet$??0SQVM@@QAE@PAUSQSharedState@@@Z$0 1001b42d f    CIL library: CIL module
 0001:0001a42d       __unwindfunclet$??1SQVM@@UAE@XZ$0 1001b42d f    CIL library: CIL module
 0001:0001a435       __unwindfunclet$??1SQVM@@UAE@XZ$1 1001b435 f    CIL library: CIL module
 0001:0001a435       __unwindfunclet$??0SQVM@@QAE@PAUSQSharedState@@@Z$1 1001b435 f    CIL library: CIL module
 0001:0001a440       __unwindfunclet$??1SQVM@@UAE@XZ$2 1001b440 f    CIL library: CIL module
 0001:0001a440       __unwindfunclet$??0SQVM@@QAE@PAUSQSharedState@@@Z$2 1001b440 f    CIL library: CIL module
 0001:0001a44b       __unwindfunclet$??0SQVM@@QAE@PAUSQSharedState@@@Z$3 1001b44b f    CIL library: CIL module
 0001:0001a44b       __unwindfunclet$??1SQVM@@UAE@XZ$3 1001b44b f    CIL library: CIL module
 0001:0001a456       __unwindfunclet$??1SQVM@@UAE@XZ$4 1001b456 f    CIL library: CIL module
 0001:0001a456       __unwindfunclet$??0SQVM@@QAE@PAUSQSharedState@@@Z$4 1001b456 f    CIL library: CIL module
 0001:0001a461       __unwindfunclet$??1SQVM@@UAE@XZ$5 1001b461 f    CIL library: CIL module
 0001:0001a461       __unwindfunclet$??0SQVM@@QAE@PAUSQSharedState@@@Z$5 1001b461 f    CIL library: CIL module
 0001:0001a46c       __unwindfunclet$??1SQVM@@UAE@XZ$6 1001b46c f    CIL library: CIL module
 0001:0001a46c       __unwindfunclet$??0SQVM@@QAE@PAUSQSharedState@@@Z$6 1001b46c f    CIL library: CIL module
 0001:0001a477       __unwindfunclet$??1SQVM@@UAE@XZ$7 1001b477 f    CIL library: CIL module
 0001:0001a477       __unwindfunclet$??0SQVM@@QAE@PAUSQSharedState@@@Z$7 1001b477 f    CIL library: CIL module
 0001:0001a482       __unwindfunclet$??1SQVM@@UAE@XZ$8 1001b482 f    CIL library: CIL module
 0001:0001a482       __unwindfunclet$??0SQVM@@QAE@PAUSQSharedState@@@Z$8 1001b482 f    CIL library: CIL module
 0001:0001a48d       __ehhandler$??1SQVM@@UAE@XZ 1001b48d f    CIL library: CIL module
 0001:0001a48d       __ehhandler$??0SQVM@@QAE@PAUSQSharedState@@@Z 1001b48d f    CIL library: CIL module
 0001:0001a497       __unwindfunclet$??1SQGenerator@@UAE@XZ$0 1001b497 f    CIL library: CIL module
 0001:0001a49f       __unwindfunclet$??1SQGenerator@@UAE@XZ$1 1001b49f f    CIL library: CIL module
 0001:0001a4aa       __unwindfunclet$??1SQGenerator@@UAE@XZ$2 1001b4aa f    CIL library: CIL module
 0001:0001a4b5       __ehhandler$??1SQGenerator@@UAE@XZ 1001b4b5 f    CIL library: CIL module
 0001:0001a4bf       __unwindfunclet$??0SQGenerator@@AAE@PAUSQSharedState@@PAUSQClosure@@@Z$0 1001b4bf f    CIL library: CIL module
 0001:0001a4c7       __unwindfunclet$??0SQGenerator@@AAE@PAUSQSharedState@@PAUSQClosure@@@Z$1 1001b4c7 f    CIL library: CIL module
 0001:0001a4d2       __unwindfunclet$??0SQGenerator@@AAE@PAUSQSharedState@@PAUSQClosure@@@Z$2 1001b4d2 f    CIL library: CIL module
 0001:0001a4dd       __unwindfunclet$??0SQGenerator@@AAE@PAUSQSharedState@@PAUSQClosure@@@Z$3 1001b4dd f    CIL library: CIL module
 0001:0001a4e8       __unwindfunclet$??0SQGenerator@@AAE@PAUSQSharedState@@PAUSQClosure@@@Z$4 1001b4e8 f    CIL library: CIL module
 0001:0001a4f3       __ehhandler$??0SQGenerator@@AAE@PAUSQSharedState@@PAUSQClosure@@@Z 1001b4f3 f    CIL library: CIL module
 0001:0001a4fd       __unwindfunclet$??1SQSharedState@@QAE@XZ$0 1001b4fd f    CIL library: CIL module
 0001:0001a508       __unwindfunclet$??1SQSharedState@@QAE@XZ$1 1001b508 f    CIL library: CIL module
 0001:0001a513       __unwindfunclet$??1SQSharedState@@QAE@XZ$2 1001b513 f    CIL library: CIL module
 0001:0001a51e       __unwindfunclet$??1SQSharedState@@QAE@XZ$3 1001b51e f    CIL library: CIL module
 0001:0001a529       __unwindfunclet$??1SQSharedState@@QAE@XZ$4 1001b529 f    CIL library: CIL module
 0001:0001a534       __unwindfunclet$??1SQSharedState@@QAE@XZ$5 1001b534 f    CIL library: CIL module
 0001:0001a53f       __unwindfunclet$??1SQSharedState@@QAE@XZ$6 1001b53f f    CIL library: CIL module
 0001:0001a54a       __unwindfunclet$??1SQSharedState@@QAE@XZ$7 1001b54a f    CIL library: CIL module
 0001:0001a555       __unwindfunclet$??1SQSharedState@@QAE@XZ$8 1001b555 f    CIL library: CIL module
 0001:0001a560       __unwindfunclet$??1SQSharedState@@QAE@XZ$9 1001b560 f    CIL library: CIL module
 0001:0001a56b       __unwindfunclet$??1SQSharedState@@QAE@XZ$10 1001b56b f    CIL library: CIL module
 0001:0001a576       __unwindfunclet$??1SQSharedState@@QAE@XZ$11 1001b576 f    CIL library: CIL module
 0001:0001a581       __unwindfunclet$??1SQSharedState@@QAE@XZ$12 1001b581 f    CIL library: CIL module
 0001:0001a58f       __unwindfunclet$??1SQSharedState@@QAE@XZ$13 1001b58f f    CIL library: CIL module
 0001:0001a59d       __unwindfunclet$??1SQSharedState@@QAE@XZ$14 1001b59d f    CIL library: CIL module
 0001:0001a5ab       __unwindfunclet$??1SQSharedState@@QAE@XZ$15 1001b5ab f    CIL library: CIL module
 0001:0001a5b9       __ehhandler$??1SQSharedState@@QAE@XZ 1001b5b9 f    CIL library: CIL module
 0001:0001a5c3       __unwindfunclet$?Yield@SQGenerator@@QAE_NPAUSQVM@@H@Z$0 1001b5c3 f    CIL library: CIL module
 0001:0001a5cb       __unwindfunclet$?Yield@SQGenerator@@QAE_NPAUSQVM@@H@Z$1 1001b5cb f    CIL library: CIL module
 0001:0001a5e4       __ehhandler$?Yield@SQGenerator@@QAE_NPAUSQVM@@H@Z 1001b5e4 f    CIL library: CIL module
 0001:0001a5ee       __unwindfunclet$??1SQFuncState@@QAE@XZ$0 1001b5ee f    CIL library: CIL module
 0001:0001a5f9       __unwindfunclet$??1SQFuncState@@QAE@XZ$1 1001b5f9 f    CIL library: CIL module
 0001:0001a604       __unwindfunclet$??1SQFuncState@@QAE@XZ$2 1001b604 f    CIL library: CIL module
 0001:0001a60f       __unwindfunclet$??1SQFuncState@@QAE@XZ$3 1001b60f f    CIL library: CIL module
 0001:0001a61a       __unwindfunclet$??1SQFuncState@@QAE@XZ$4 1001b61a f    CIL library: CIL module
 0001:0001a625       __unwindfunclet$??1SQFuncState@@QAE@XZ$5 1001b625 f    CIL library: CIL module
 0001:0001a630       __unwindfunclet$??1SQFuncState@@QAE@XZ$6 1001b630 f    CIL library: CIL module
 0001:0001a63b       __unwindfunclet$??1SQFuncState@@QAE@XZ$7 1001b63b f    CIL library: CIL module
 0001:0001a646       __unwindfunclet$??1SQFuncState@@QAE@XZ$8 1001b646 f    CIL library: CIL module
 0001:0001a651       __unwindfunclet$??1SQFuncState@@QAE@XZ$9 1001b651 f    CIL library: CIL module
 0001:0001a65c       __unwindfunclet$??1SQFuncState@@QAE@XZ$10 1001b65c f    CIL library: CIL module
 0001:0001a66a       __unwindfunclet$??1SQFuncState@@QAE@XZ$11 1001b66a f    CIL library: CIL module
 0001:0001a678       __unwindfunclet$??1SQFuncState@@QAE@XZ$12 1001b678 f    CIL library: CIL module
 0001:0001a686       __unwindfunclet$??1SQFuncState@@QAE@XZ$13 1001b686 f    CIL library: CIL module
 0001:0001a693       __unwindfunclet$??1SQFuncState@@QAE@XZ$14 1001b693 f    CIL library: CIL module
 0001:0001a6a0       __unwindfunclet$??1SQFuncState@@QAE@XZ$15 1001b6a0 f    CIL library: CIL module
 0001:0001a6ad       __unwindfunclet$??1SQFuncState@@QAE@XZ$16 1001b6ad f    CIL library: CIL module
 0001:0001a6ba       __unwindfunclet$??1SQFuncState@@QAE@XZ$17 1001b6ba f    CIL library: CIL module
 0001:0001a6c7       __unwindfunclet$??1SQFuncState@@QAE@XZ$18 1001b6c7 f    CIL library: CIL module
 0001:0001a6d4       __ehhandler$??1SQFuncState@@QAE@XZ 1001b6d4 f    CIL library: CIL module
 0001:0001a6de       __unwindfunclet$?BuildProto@SQFuncState@@QAEPAUSQFunctionProto@@XZ$0 1001b6de f    CIL library: CIL module
 0001:0001a6e6       __unwindfunclet$?BuildProto@SQFuncState@@QAEPAUSQFunctionProto@@XZ$1 1001b6e6 f    CIL library: CIL module
 0001:0001a6ee       __unwindfunclet$?BuildProto@SQFuncState@@QAEPAUSQFunctionProto@@XZ$2 1001b6ee f    CIL library: CIL module
 0001:0001a6f6       __ehhandler$?BuildProto@SQFuncState@@QAEPAUSQFunctionProto@@XZ 1001b6f6 f    CIL library: CIL module
 0001:0001a700       __unwindfunclet$?Raise_CompareError@SQVM@@QAEXABUtagSQObject@@0@Z$1 1001b700 f    CIL library: CIL module
 0001:0001a708       __unwindfunclet$?Raise_CompareError@SQVM@@QAEXABUtagSQObject@@0@Z$3 1001b708 f    CIL library: CIL module
 0001:0001a710       __ehhandler$?Raise_CompareError@SQVM@@QAEXABUtagSQObject@@0@Z 1001b710 f    CIL library: CIL module
 0001:0001a71a       __unwindfunclet$?default_delegate_tofloat@@YAHPAUSQVM@@@Z$0 1001b71a f    CIL library: CIL module
 0001:0001a71a       __unwindfunclet$?default_delegate_tointeger@@YAHPAUSQVM@@@Z$0 1001b71a f    CIL library: CIL module
 0001:0001a722       __unwindfunclet$?default_delegate_tofloat@@YAHPAUSQVM@@@Z$1 1001b722 f    CIL library: CIL module
 0001:0001a722       __unwindfunclet$?default_delegate_tointeger@@YAHPAUSQVM@@@Z$1 1001b722 f    CIL library: CIL module
 0001:0001a72a       __unwindfunclet$?default_delegate_tointeger@@YAHPAUSQVM@@@Z$2 1001b72a f    CIL library: CIL module
 0001:0001a72a       __unwindfunclet$?default_delegate_tofloat@@YAHPAUSQVM@@@Z$2 1001b72a f    CIL library: CIL module
 0001:0001a732       __unwindfunclet$?default_delegate_tointeger@@YAHPAUSQVM@@@Z$3 1001b732 f    CIL library: CIL module
 0001:0001a732       __unwindfunclet$?default_delegate_tofloat@@YAHPAUSQVM@@@Z$3 1001b732 f    CIL library: CIL module
 0001:0001a73a       __ehhandler$?default_delegate_tointeger@@YAHPAUSQVM@@@Z 1001b73a f    CIL library: CIL module
 0001:0001a73a       __ehhandler$?default_delegate_tofloat@@YAHPAUSQVM@@@Z 1001b73a f    CIL library: CIL module
 0001:0001a744       __unwindfunclet$?FindOuter@SQVM@@QAEXAAUSQObjectPtr@@PAU2@@Z$1 1001b744 f    CIL library: CIL module
 0001:0001a74c       __unwindfunclet$?FindOuter@SQVM@@QAEXAAUSQObjectPtr@@PAU2@@Z$0 1001b74c f    CIL library: CIL module
 0001:0001a754       __ehhandler$?FindOuter@SQVM@@QAEXAAUSQObjectPtr@@PAU2@@Z 1001b754 f    CIL library: CIL module
 0001:0001a75e       __unwindfunclet$?array_slice@@YAHPAUSQVM@@@Z$0 1001b75e f    CIL library: CIL module
 0001:0001a75e       __unwindfunclet$?DeleteSlot@SQVM@@QAE_NABUSQObjectPtr@@0AAU2@@Z$0 1001b75e f    CIL library: CIL module
 0001:0001a766       __unwindfunclet$?DeleteSlot@SQVM@@QAE_NABUSQObjectPtr@@0AAU2@@Z$1 1001b766 f    CIL library: CIL module
 0001:0001a766       __unwindfunclet$?array_slice@@YAHPAUSQVM@@@Z$1 1001b766 f    CIL library: CIL module
 0001:0001a76e       __unwindfunclet$?DeleteSlot@SQVM@@QAE_NABUSQObjectPtr@@0AAU2@@Z$2 1001b76e f    CIL library: CIL module
 0001:0001a76e       __unwindfunclet$?array_slice@@YAHPAUSQVM@@@Z$2 1001b76e f    CIL library: CIL module
 0001:0001a776       __ehhandler$?DeleteSlot@SQVM@@QAE_NABUSQObjectPtr@@0AAU2@@Z 1001b776 f    CIL library: CIL module
 0001:0001a776       __ehhandler$?array_slice@@YAHPAUSQVM@@@Z 1001b776 f    CIL library: CIL module
 0001:0001a780       __unwindfunclet$?StringCat@SQVM@@QAE_NABUSQObjectPtr@@0AAU2@@Z$0 1001b780 f    CIL library: CIL module
 0001:0001a788       __unwindfunclet$?StringCat@SQVM@@QAE_NABUSQObjectPtr@@0AAU2@@Z$1 1001b788 f    CIL library: CIL module
 0001:0001a790       __ehhandler$?StringCat@SQVM@@QAE_NABUSQObjectPtr@@0AAU2@@Z 1001b790 f    CIL library: CIL module
 0001:0001a79a       __unwindfunclet$?Clone@SQTable@@QAEPAU1@XZ$0 1001b79a f    CIL library: CIL module
 0001:0001a7a2       __unwindfunclet$?Clone@SQTable@@QAEPAU1@XZ$1 1001b7a2 f    CIL library: CIL module
 0001:0001a7aa       __unwindfunclet$?Clone@SQTable@@QAEPAU1@XZ$2 1001b7aa f    CIL library: CIL module
 0001:0001a7b2       __ehhandler$?Clone@SQTable@@QAEPAU1@XZ 1001b7b2 f    CIL library: CIL module
 0001:0001a7bc       __unwindfunclet$?ResurrectUnreachable@SQSharedState@@QAEHPAUSQVM@@@Z$0 1001b7bc f    CIL library: CIL module
 0001:0001a7c4       __ehhandler$?ResurrectUnreachable@SQSharedState@@QAEHPAUSQVM@@@Z 1001b7c4 f    CIL library: CIL module
 0001:0001a7ce       __unwindfunclet$?Init@SQLexer@@QAEXPAUSQSharedState@@P6AHPAX@Z1P6AX1PBD@Z1@Z$0 1001b7ce f    CIL library: CIL module
 0001:0001a7d6       __unwindfunclet$?Init@SQLexer@@QAEXPAUSQSharedState@@P6AHPAX@Z1P6AX1PBD@Z1@Z$1 1001b7d6 f    CIL library: CIL module
 0001:0001a7de       __unwindfunclet$?Init@SQLexer@@QAEXPAUSQSharedState@@P6AHPAX@Z1P6AX1PBD@Z1@Z$2 1001b7de f    CIL library: CIL module
 0001:0001a7e6       __unwindfunclet$?Init@SQLexer@@QAEXPAUSQSharedState@@P6AHPAX@Z1P6AX1PBD@Z1@Z$3 1001b7e6 f    CIL library: CIL module
 0001:0001a7ee       __unwindfunclet$?Init@SQLexer@@QAEXPAUSQSharedState@@P6AHPAX@Z1P6AX1PBD@Z1@Z$4 1001b7ee f    CIL library: CIL module
 0001:0001a7f6       __unwindfunclet$?Init@SQLexer@@QAEXPAUSQSharedState@@P6AHPAX@Z1P6AX1PBD@Z1@Z$5 1001b7f6 f    CIL library: CIL module
 0001:0001a7fe       __unwindfunclet$?Init@SQLexer@@QAEXPAUSQSharedState@@P6AHPAX@Z1P6AX1PBD@Z1@Z$6 1001b7fe f    CIL library: CIL module
 0001:0001a806       __unwindfunclet$?Init@SQLexer@@QAEXPAUSQSharedState@@P6AHPAX@Z1P6AX1PBD@Z1@Z$7 1001b806 f    CIL library: CIL module
 0001:0001a80e       __unwindfunclet$?Init@SQLexer@@QAEXPAUSQSharedState@@P6AHPAX@Z1P6AX1PBD@Z1@Z$8 1001b80e f    CIL library: CIL module
 0001:0001a816       __unwindfunclet$?Init@SQLexer@@QAEXPAUSQSharedState@@P6AHPAX@Z1P6AX1PBD@Z1@Z$9 1001b816 f    CIL library: CIL module
 0001:0001a81e       __unwindfunclet$?Init@SQLexer@@QAEXPAUSQSharedState@@P6AHPAX@Z1P6AX1PBD@Z1@Z$10 1001b81e f    CIL library: CIL module
 0001:0001a826       __unwindfunclet$?Init@SQLexer@@QAEXPAUSQSharedState@@P6AHPAX@Z1P6AX1PBD@Z1@Z$11 1001b826 f    CIL library: CIL module
 0001:0001a82e       __unwindfunclet$?Init@SQLexer@@QAEXPAUSQSharedState@@P6AHPAX@Z1P6AX1PBD@Z1@Z$12 1001b82e f    CIL library: CIL module
 0001:0001a836       __unwindfunclet$?Init@SQLexer@@QAEXPAUSQSharedState@@P6AHPAX@Z1P6AX1PBD@Z1@Z$13 1001b836 f    CIL library: CIL module
 0001:0001a83e       __unwindfunclet$?Init@SQLexer@@QAEXPAUSQSharedState@@P6AHPAX@Z1P6AX1PBD@Z1@Z$14 1001b83e f    CIL library: CIL module
 0001:0001a846       __unwindfunclet$?Init@SQLexer@@QAEXPAUSQSharedState@@P6AHPAX@Z1P6AX1PBD@Z1@Z$15 1001b846 f    CIL library: CIL module
 0001:0001a84e       __unwindfunclet$?Init@SQLexer@@QAEXPAUSQSharedState@@P6AHPAX@Z1P6AX1PBD@Z1@Z$16 1001b84e f    CIL library: CIL module
 0001:0001a856       __unwindfunclet$?Init@SQLexer@@QAEXPAUSQSharedState@@P6AHPAX@Z1P6AX1PBD@Z1@Z$17 1001b856 f    CIL library: CIL module
 0001:0001a85e       __unwindfunclet$?Init@SQLexer@@QAEXPAUSQSharedState@@P6AHPAX@Z1P6AX1PBD@Z1@Z$18 1001b85e f    CIL library: CIL module
 0001:0001a866       __unwindfunclet$?Init@SQLexer@@QAEXPAUSQSharedState@@P6AHPAX@Z1P6AX1PBD@Z1@Z$19 1001b866 f    CIL library: CIL module
 0001:0001a86e       __unwindfunclet$?Init@SQLexer@@QAEXPAUSQSharedState@@P6AHPAX@Z1P6AX1PBD@Z1@Z$20 1001b86e f    CIL library: CIL module
 0001:0001a876       __unwindfunclet$?Init@SQLexer@@QAEXPAUSQSharedState@@P6AHPAX@Z1P6AX1PBD@Z1@Z$21 1001b876 f    CIL library: CIL module
 0001:0001a87e       __unwindfunclet$?Init@SQLexer@@QAEXPAUSQSharedState@@P6AHPAX@Z1P6AX1PBD@Z1@Z$22 1001b87e f    CIL library: CIL module
 0001:0001a886       __unwindfunclet$?Init@SQLexer@@QAEXPAUSQSharedState@@P6AHPAX@Z1P6AX1PBD@Z1@Z$23 1001b886 f    CIL library: CIL module
 0001:0001a88e       __unwindfunclet$?Init@SQLexer@@QAEXPAUSQSharedState@@P6AHPAX@Z1P6AX1PBD@Z1@Z$24 1001b88e f    CIL library: CIL module
 0001:0001a896       __unwindfunclet$?Init@SQLexer@@QAEXPAUSQSharedState@@P6AHPAX@Z1P6AX1PBD@Z1@Z$25 1001b896 f    CIL library: CIL module
 0001:0001a89e       __unwindfunclet$?Init@SQLexer@@QAEXPAUSQSharedState@@P6AHPAX@Z1P6AX1PBD@Z1@Z$26 1001b89e f    CIL library: CIL module
 0001:0001a8a6       __unwindfunclet$?Init@SQLexer@@QAEXPAUSQSharedState@@P6AHPAX@Z1P6AX1PBD@Z1@Z$27 1001b8a6 f    CIL library: CIL module
 0001:0001a8ae       __unwindfunclet$?Init@SQLexer@@QAEXPAUSQSharedState@@P6AHPAX@Z1P6AX1PBD@Z1@Z$28 1001b8ae f    CIL library: CIL module
 0001:0001a8b6       __unwindfunclet$?Init@SQLexer@@QAEXPAUSQSharedState@@P6AHPAX@Z1P6AX1PBD@Z1@Z$29 1001b8b6 f    CIL library: CIL module
 0001:0001a8be       __unwindfunclet$?Init@SQLexer@@QAEXPAUSQSharedState@@P6AHPAX@Z1P6AX1PBD@Z1@Z$30 1001b8be f    CIL library: CIL module
 0001:0001a8c6       __unwindfunclet$?Init@SQLexer@@QAEXPAUSQSharedState@@P6AHPAX@Z1P6AX1PBD@Z1@Z$31 1001b8c6 f    CIL library: CIL module
 0001:0001a8ce       __unwindfunclet$?Init@SQLexer@@QAEXPAUSQSharedState@@P6AHPAX@Z1P6AX1PBD@Z1@Z$32 1001b8ce f    CIL library: CIL module
 0001:0001a8d6       __unwindfunclet$?Init@SQLexer@@QAEXPAUSQSharedState@@P6AHPAX@Z1P6AX1PBD@Z1@Z$33 1001b8d6 f    CIL library: CIL module
 0001:0001a8de       __unwindfunclet$?Init@SQLexer@@QAEXPAUSQSharedState@@P6AHPAX@Z1P6AX1PBD@Z1@Z$34 1001b8de f    CIL library: CIL module
 0001:0001a8e6       __unwindfunclet$?Init@SQLexer@@QAEXPAUSQSharedState@@P6AHPAX@Z1P6AX1PBD@Z1@Z$35 1001b8e6 f    CIL library: CIL module
 0001:0001a8ee       __unwindfunclet$?Init@SQLexer@@QAEXPAUSQSharedState@@P6AHPAX@Z1P6AX1PBD@Z1@Z$36 1001b8ee f    CIL library: CIL module
 0001:0001a8f6       __unwindfunclet$?Init@SQLexer@@QAEXPAUSQSharedState@@P6AHPAX@Z1P6AX1PBD@Z1@Z$37 1001b8f6 f    CIL library: CIL module
 0001:0001a8fe       __unwindfunclet$?Init@SQLexer@@QAEXPAUSQSharedState@@P6AHPAX@Z1P6AX1PBD@Z1@Z$38 1001b8fe f    CIL library: CIL module
 0001:0001a906       __unwindfunclet$?Init@SQLexer@@QAEXPAUSQSharedState@@P6AHPAX@Z1P6AX1PBD@Z1@Z$39 1001b906 f    CIL library: CIL module
 0001:0001a90e       __unwindfunclet$?Init@SQLexer@@QAEXPAUSQSharedState@@P6AHPAX@Z1P6AX1PBD@Z1@Z$40 1001b90e f    CIL library: CIL module
 0001:0001a916       __unwindfunclet$?Init@SQLexer@@QAEXPAUSQSharedState@@P6AHPAX@Z1P6AX1PBD@Z1@Z$41 1001b916 f    CIL library: CIL module
 0001:0001a91e       __unwindfunclet$?Init@SQLexer@@QAEXPAUSQSharedState@@P6AHPAX@Z1P6AX1PBD@Z1@Z$42 1001b91e f    CIL library: CIL module
 0001:0001a926       __unwindfunclet$?Init@SQLexer@@QAEXPAUSQSharedState@@P6AHPAX@Z1P6AX1PBD@Z1@Z$43 1001b926 f    CIL library: CIL module
 0001:0001a92e       __unwindfunclet$?Init@SQLexer@@QAEXPAUSQSharedState@@P6AHPAX@Z1P6AX1PBD@Z1@Z$44 1001b92e f    CIL library: CIL module
 0001:0001a936       __unwindfunclet$?Init@SQLexer@@QAEXPAUSQSharedState@@P6AHPAX@Z1P6AX1PBD@Z1@Z$45 1001b936 f    CIL library: CIL module
 0001:0001a93e       __unwindfunclet$?Init@SQLexer@@QAEXPAUSQSharedState@@P6AHPAX@Z1P6AX1PBD@Z1@Z$46 1001b93e f    CIL library: CIL module
 0001:0001a946       __unwindfunclet$?Init@SQLexer@@QAEXPAUSQSharedState@@P6AHPAX@Z1P6AX1PBD@Z1@Z$47 1001b946 f    CIL library: CIL module
 0001:0001a94e       __unwindfunclet$?Init@SQLexer@@QAEXPAUSQSharedState@@P6AHPAX@Z1P6AX1PBD@Z1@Z$48 1001b94e f    CIL library: CIL module
 0001:0001a956       __unwindfunclet$?Init@SQLexer@@QAEXPAUSQSharedState@@P6AHPAX@Z1P6AX1PBD@Z1@Z$49 1001b956 f    CIL library: CIL module
 0001:0001a95e       __unwindfunclet$?Init@SQLexer@@QAEXPAUSQSharedState@@P6AHPAX@Z1P6AX1PBD@Z1@Z$50 1001b95e f    CIL library: CIL module
 0001:0001a966       __unwindfunclet$?Init@SQLexer@@QAEXPAUSQSharedState@@P6AHPAX@Z1P6AX1PBD@Z1@Z$51 1001b966 f    CIL library: CIL module
 0001:0001a96e       __unwindfunclet$?Init@SQLexer@@QAEXPAUSQSharedState@@P6AHPAX@Z1P6AX1PBD@Z1@Z$52 1001b96e f    CIL library: CIL module
 0001:0001a976       __unwindfunclet$?Init@SQLexer@@QAEXPAUSQSharedState@@P6AHPAX@Z1P6AX1PBD@Z1@Z$53 1001b976 f    CIL library: CIL module
 0001:0001a97e       __unwindfunclet$?Init@SQLexer@@QAEXPAUSQSharedState@@P6AHPAX@Z1P6AX1PBD@Z1@Z$54 1001b97e f    CIL library: CIL module
 0001:0001a986       __unwindfunclet$?Init@SQLexer@@QAEXPAUSQSharedState@@P6AHPAX@Z1P6AX1PBD@Z1@Z$55 1001b986 f    CIL library: CIL module
 0001:0001a98e       __unwindfunclet$?Init@SQLexer@@QAEXPAUSQSharedState@@P6AHPAX@Z1P6AX1PBD@Z1@Z$56 1001b98e f    CIL library: CIL module
 0001:0001a996       __unwindfunclet$?Init@SQLexer@@QAEXPAUSQSharedState@@P6AHPAX@Z1P6AX1PBD@Z1@Z$57 1001b996 f    CIL library: CIL module
 0001:0001a99e       __unwindfunclet$?Init@SQLexer@@QAEXPAUSQSharedState@@P6AHPAX@Z1P6AX1PBD@Z1@Z$58 1001b99e f    CIL library: CIL module
 0001:0001a9a6       __unwindfunclet$?Init@SQLexer@@QAEXPAUSQSharedState@@P6AHPAX@Z1P6AX1PBD@Z1@Z$59 1001b9a6 f    CIL library: CIL module
 0001:0001a9ae       __unwindfunclet$?Init@SQLexer@@QAEXPAUSQSharedState@@P6AHPAX@Z1P6AX1PBD@Z1@Z$60 1001b9ae f    CIL library: CIL module
 0001:0001a9b6       __unwindfunclet$?Init@SQLexer@@QAEXPAUSQSharedState@@P6AHPAX@Z1P6AX1PBD@Z1@Z$61 1001b9b6 f    CIL library: CIL module
 0001:0001a9be       __unwindfunclet$?Init@SQLexer@@QAEXPAUSQSharedState@@P6AHPAX@Z1P6AX1PBD@Z1@Z$62 1001b9be f    CIL library: CIL module
 0001:0001a9c6       __unwindfunclet$?Init@SQLexer@@QAEXPAUSQSharedState@@P6AHPAX@Z1P6AX1PBD@Z1@Z$63 1001b9c6 f    CIL library: CIL module
 0001:0001a9ce       __unwindfunclet$?Init@SQLexer@@QAEXPAUSQSharedState@@P6AHPAX@Z1P6AX1PBD@Z1@Z$64 1001b9ce f    CIL library: CIL module
 0001:0001a9d6       __unwindfunclet$?Init@SQLexer@@QAEXPAUSQSharedState@@P6AHPAX@Z1P6AX1PBD@Z1@Z$65 1001b9d6 f    CIL library: CIL module
 0001:0001a9de       __unwindfunclet$?Init@SQLexer@@QAEXPAUSQSharedState@@P6AHPAX@Z1P6AX1PBD@Z1@Z$66 1001b9de f    CIL library: CIL module
 0001:0001a9e6       __unwindfunclet$?Init@SQLexer@@QAEXPAUSQSharedState@@P6AHPAX@Z1P6AX1PBD@Z1@Z$67 1001b9e6 f    CIL library: CIL module
 0001:0001a9ee       __unwindfunclet$?Init@SQLexer@@QAEXPAUSQSharedState@@P6AHPAX@Z1P6AX1PBD@Z1@Z$68 1001b9ee f    CIL library: CIL module
 0001:0001a9f6       __unwindfunclet$?Init@SQLexer@@QAEXPAUSQSharedState@@P6AHPAX@Z1P6AX1PBD@Z1@Z$69 1001b9f6 f    CIL library: CIL module
 0001:0001a9fe       __ehhandler$?Init@SQLexer@@QAEXPAUSQSharedState@@P6AHPAX@Z1P6AX1PBD@Z1@Z 1001b9fe f    CIL library: CIL module
 0001:0001aa08       __unwindfunclet$?ObjCmp@SQVM@@QAE_NABUSQObjectPtr@@0AAH@Z$0 1001ba08 f    CIL library: CIL module
 0001:0001aa08       __unwindfunclet$?CreateTable@SQFuncState@@QAE?AUtagSQObject@@XZ$0 1001ba08 f    CIL library: CIL module
 0001:0001aa08       __unwindfunclet$?CreateString@SQFuncState@@QAE?AUtagSQObject@@PBDH@Z$0 1001ba08 f    CIL library: CIL module
 0001:0001aa08       __unwindfunclet$?IsConstant@SQFuncState@@QAE_NABUtagSQObject@@AAU2@@Z$0 1001ba08 f    CIL library: CIL module
 0001:0001aa10       __unwindfunclet$?ObjCmp@SQVM@@QAE_NABUSQObjectPtr@@0AAH@Z$1 1001ba10 f    CIL library: CIL module
 0001:0001aa10       __unwindfunclet$?IsConstant@SQFuncState@@QAE_NABUtagSQObject@@AAU2@@Z$1 1001ba10 f    CIL library: CIL module
 0001:0001aa10       __unwindfunclet$?CreateTable@SQFuncState@@QAE?AUtagSQObject@@XZ$1 1001ba10 f    CIL library: CIL module
 0001:0001aa10       __unwindfunclet$?CreateString@SQFuncState@@QAE?AUtagSQObject@@PBDH@Z$1 1001ba10 f    CIL library: CIL module
 0001:0001aa18       __ehhandler$?ObjCmp@SQVM@@QAE_NABUSQObjectPtr@@0AAH@Z 1001ba18 f    CIL library: CIL module
 0001:0001aa18       __ehhandler$?IsConstant@SQFuncState@@QAE_NABUtagSQObject@@AAU2@@Z 1001ba18 f    CIL library: CIL module
 0001:0001aa18       __ehhandler$?CreateString@SQFuncState@@QAE?AUtagSQObject@@PBDH@Z 1001ba18 f    CIL library: CIL module
 0001:0001aa18       __ehhandler$?CreateTable@SQFuncState@@QAE?AUtagSQObject@@XZ 1001ba18 f    CIL library: CIL module
 0001:0001aa22       __unwindfunclet$?GetConstant@SQFuncState@@QAEHABUtagSQObject@@@Z$0 1001ba22 f    CIL library: CIL module
 0001:0001aa2a       __unwindfunclet$?GetConstant@SQFuncState@@QAEHABUtagSQObject@@@Z$1 1001ba2a f    CIL library: CIL module
 0001:0001aa32       __unwindfunclet$?GetConstant@SQFuncState@@QAEHABUtagSQObject@@@Z$2 1001ba32 f    CIL library: CIL module
 0001:0001aa3a       __ehhandler$?GetConstant@SQFuncState@@QAEHABUtagSQObject@@@Z 1001ba3a f    CIL library: CIL module
 0001:0001aa44       __unwindfunclet$??0SQFuncState@@QAE@PAUSQSharedState@@PAU0@P6AXPAXPBD@Z2@Z$0 1001ba44 f    CIL library: CIL module
 0001:0001aa4f       __unwindfunclet$??0SQFuncState@@QAE@PAUSQSharedState@@PAU0@P6AXPAXPBD@Z2@Z$1 1001ba4f f    CIL library: CIL module
 0001:0001aa5a       __unwindfunclet$??0SQFuncState@@QAE@PAUSQSharedState@@PAU0@P6AXPAXPBD@Z2@Z$2 1001ba5a f    CIL library: CIL module
 0001:0001aa65       __unwindfunclet$??0SQFuncState@@QAE@PAUSQSharedState@@PAU0@P6AXPAXPBD@Z2@Z$3 1001ba65 f    CIL library: CIL module
 0001:0001aa70       __unwindfunclet$??0SQFuncState@@QAE@PAUSQSharedState@@PAU0@P6AXPAXPBD@Z2@Z$4 1001ba70 f    CIL library: CIL module
 0001:0001aa7b       __unwindfunclet$??0SQFuncState@@QAE@PAUSQSharedState@@PAU0@P6AXPAXPBD@Z2@Z$5 1001ba7b f    CIL library: CIL module
 0001:0001aa86       __unwindfunclet$??0SQFuncState@@QAE@PAUSQSharedState@@PAU0@P6AXPAXPBD@Z2@Z$6 1001ba86 f    CIL library: CIL module
 0001:0001aa91       __unwindfunclet$??0SQFuncState@@QAE@PAUSQSharedState@@PAU0@P6AXPAXPBD@Z2@Z$7 1001ba91 f    CIL library: CIL module
 0001:0001aa9c       __unwindfunclet$??0SQFuncState@@QAE@PAUSQSharedState@@PAU0@P6AXPAXPBD@Z2@Z$8 1001ba9c f    CIL library: CIL module
 0001:0001aaa7       __unwindfunclet$??0SQFuncState@@QAE@PAUSQSharedState@@PAU0@P6AXPAXPBD@Z2@Z$9 1001baa7 f    CIL library: CIL module
 0001:0001aab2       __unwindfunclet$??0SQFuncState@@QAE@PAUSQSharedState@@PAU0@P6AXPAXPBD@Z2@Z$10 1001bab2 f    CIL library: CIL module
 0001:0001aac0       __unwindfunclet$??0SQFuncState@@QAE@PAUSQSharedState@@PAU0@P6AXPAXPBD@Z2@Z$11 1001bac0 f    CIL library: CIL module
 0001:0001aace       __unwindfunclet$??0SQFuncState@@QAE@PAUSQSharedState@@PAU0@P6AXPAXPBD@Z2@Z$12 1001bace f    CIL library: CIL module
 0001:0001aadc       __unwindfunclet$??0SQFuncState@@QAE@PAUSQSharedState@@PAU0@P6AXPAXPBD@Z2@Z$13 1001badc f    CIL library: CIL module
 0001:0001aae9       __unwindfunclet$??0SQFuncState@@QAE@PAUSQSharedState@@PAU0@P6AXPAXPBD@Z2@Z$14 1001bae9 f    CIL library: CIL module
 0001:0001aaf6       __unwindfunclet$??0SQFuncState@@QAE@PAUSQSharedState@@PAU0@P6AXPAXPBD@Z2@Z$15 1001baf6 f    CIL library: CIL module
 0001:0001ab03       __unwindfunclet$??0SQFuncState@@QAE@PAUSQSharedState@@PAU0@P6AXPAXPBD@Z2@Z$16 1001bb03 f    CIL library: CIL module
 0001:0001ab10       __unwindfunclet$??0SQFuncState@@QAE@PAUSQSharedState@@PAU0@P6AXPAXPBD@Z2@Z$17 1001bb10 f    CIL library: CIL module
 0001:0001ab1d       __unwindfunclet$??0SQFuncState@@QAE@PAUSQSharedState@@PAU0@P6AXPAXPBD@Z2@Z$18 1001bb1d f    CIL library: CIL module
 0001:0001ab2a       __ehhandler$??0SQFuncState@@QAE@PAUSQSharedState@@PAU0@P6AXPAXPBD@Z2@Z 1001bb2a f    CIL library: CIL module
 0001:0001ab34       __unwindfunclet$?Raise_ParamTypeError@SQVM@@QAEXHHH@Z$0 1001bb34 f    CIL library: CIL module
 0001:0001ab3c       __unwindfunclet$?Raise_ParamTypeError@SQVM@@QAEXHHH@Z$1 1001bb3c f    CIL library: CIL module
 0001:0001ab44       __unwindfunclet$?Raise_ParamTypeError@SQVM@@QAEXHHH@Z$2 1001bb44 f    CIL library: CIL module
 0001:0001ab4c       __ehhandler$?Raise_ParamTypeError@SQVM@@QAEXHHH@Z 1001bb4c f    CIL library: CIL module
 0001:0001ab56       __unwindfunclet$?Expect@SQCompiler@@QAE?AUtagSQObject@@H@Z$0 1001bb56 f    CIL library: CIL module
 0001:0001ab5e       __unwindfunclet$?Expect@SQCompiler@@QAE?AUtagSQObject@@H@Z$2 1001bb5e f    CIL library: CIL module
 0001:0001ab66       __unwindfunclet$?Expect@SQCompiler@@QAE?AUtagSQObject@@H@Z$1 1001bb66 f    CIL library: CIL module
 0001:0001ab6e       __ehhandler$?Expect@SQCompiler@@QAE?AUtagSQObject@@H@Z 1001bb6e f    CIL library: CIL module
 0001:0001ab78       __unwindfunclet$??0SQCompiler@@QAE@PAUSQVM@@P6AHPAX@Z1PBD_N4@Z$0 1001bb78 f    CIL library: CIL module
 0001:0001ab83       __unwindfunclet$??0SQCompiler@@QAE@PAUSQVM@@P6AHPAX@Z1PBD_N4@Z$1 1001bb83 f    CIL library: CIL module
 0001:0001ab90       __ehhandler$??0SQCompiler@@QAE@PAUSQVM@@P6AHPAX@Z1PBD_N4@Z 1001bb90 f    CIL library: CIL module
 0001:0001ab9a       __unwindfunclet$??0SQClass@@QAE@PAUSQSharedState@@PAU0@@Z$0 1001bb9a f    CIL library: CIL module
 0001:0001ab9a       __unwindfunclet$??1SQClass@@UAE@XZ$0 1001bb9a f    CIL library: CIL module
 0001:0001aba2       __unwindfunclet$??1SQClass@@UAE@XZ$1 1001bba2 f    CIL library: CIL module
 0001:0001aba2       __unwindfunclet$??0SQClass@@QAE@PAUSQSharedState@@PAU0@@Z$1 1001bba2 f    CIL library: CIL module
 0001:0001abad       __unwindfunclet$??0SQClass@@QAE@PAUSQSharedState@@PAU0@@Z$2 1001bbad f    CIL library: CIL module
 0001:0001abad       __unwindfunclet$??1SQClass@@UAE@XZ$2 1001bbad f    CIL library: CIL module
 0001:0001abb8       __unwindfunclet$??1SQClass@@UAE@XZ$3 1001bbb8 f    CIL library: CIL module
 0001:0001abb8       __unwindfunclet$??0SQClass@@QAE@PAUSQSharedState@@PAU0@@Z$3 1001bbb8 f    CIL library: CIL module
 0001:0001abce       __unwindfunclet$??1SQClass@@UAE@XZ$4 1001bbce f    CIL library: CIL module
 0001:0001abce       __unwindfunclet$??0SQClass@@QAE@PAUSQSharedState@@PAU0@@Z$4 1001bbce f    CIL library: CIL module
 0001:0001abdc       __ehhandler$??0SQClass@@QAE@PAUSQSharedState@@PAU0@@Z 1001bbdc f    CIL library: CIL module
 0001:0001abdc       __ehhandler$??1SQClass@@UAE@XZ 1001bbdc f    CIL library: CIL module
 0001:0001abe6       __unwindfunclet$?closure_getinfos@@YAHPAUSQVM@@@Z$0 1001bbe6 f    CIL library: CIL module
 0001:0001abee       __unwindfunclet$?closure_getinfos@@YAHPAUSQVM@@@Z$1 1001bbee f    CIL library: CIL module
 0001:0001abf6       __unwindfunclet$?closure_getinfos@@YAHPAUSQVM@@@Z$2 1001bbf6 f    CIL library: CIL module
 0001:0001abfe       __unwindfunclet$?closure_getinfos@@YAHPAUSQVM@@@Z$3 1001bbfe f    CIL library: CIL module
 0001:0001ac06       __unwindfunclet$?closure_getinfos@@YAHPAUSQVM@@@Z$4 1001bc06 f    CIL library: CIL module
 0001:0001ac0e       __unwindfunclet$?closure_getinfos@@YAHPAUSQVM@@@Z$5 1001bc0e f    CIL library: CIL module
 0001:0001ac16       __unwindfunclet$?closure_getinfos@@YAHPAUSQVM@@@Z$6 1001bc16 f    CIL library: CIL module
 0001:0001ac1e       __unwindfunclet$?closure_getinfos@@YAHPAUSQVM@@@Z$7 1001bc1e f    CIL library: CIL module
 0001:0001ac26       __unwindfunclet$?closure_getinfos@@YAHPAUSQVM@@@Z$8 1001bc26 f    CIL library: CIL module
 0001:0001ac2e       __unwindfunclet$?closure_getinfos@@YAHPAUSQVM@@@Z$9 1001bc2e f    CIL library: CIL module
 0001:0001ac36       __unwindfunclet$?closure_getinfos@@YAHPAUSQVM@@@Z$10 1001bc36 f    CIL library: CIL module
 0001:0001ac3e       __unwindfunclet$?closure_getinfos@@YAHPAUSQVM@@@Z$11 1001bc3e f    CIL library: CIL module
 0001:0001ac46       __unwindfunclet$?closure_getinfos@@YAHPAUSQVM@@@Z$12 1001bc46 f    CIL library: CIL module
 0001:0001ac4e       __unwindfunclet$?closure_getinfos@@YAHPAUSQVM@@@Z$13 1001bc4e f    CIL library: CIL module
 0001:0001ac56       __unwindfunclet$?closure_getinfos@@YAHPAUSQVM@@@Z$14 1001bc56 f    CIL library: CIL module
 0001:0001ac5e       __unwindfunclet$?closure_getinfos@@YAHPAUSQVM@@@Z$15 1001bc5e f    CIL library: CIL module
 0001:0001ac66       __unwindfunclet$?closure_getinfos@@YAHPAUSQVM@@@Z$16 1001bc66 f    CIL library: CIL module
 0001:0001ac6e       __unwindfunclet$?closure_getinfos@@YAHPAUSQVM@@@Z$17 1001bc6e f    CIL library: CIL module
 0001:0001ac76       __unwindfunclet$?closure_getinfos@@YAHPAUSQVM@@@Z$18 1001bc76 f    CIL library: CIL module
 0001:0001ac7e       __unwindfunclet$?closure_getinfos@@YAHPAUSQVM@@@Z$19 1001bc7e f    CIL library: CIL module
 0001:0001ac86       __ehhandler$?closure_getinfos@@YAHPAUSQVM@@@Z 1001bc86 f    CIL library: CIL module
 0001:0001ac90       __unwindfunclet$?Clone@SQVM@@QAE_NABUSQObjectPtr@@AAU2@@Z$1 1001bc90 f    CIL library: CIL module
 0001:0001ac98       __unwindfunclet$?Clone@SQVM@@QAE_NABUSQObjectPtr@@AAU2@@Z$2 1001bc98 f    CIL library: CIL module
 0001:0001aca0       __unwindfunclet$?Clone@SQVM@@QAE_NABUSQObjectPtr@@AAU2@@Z$3 1001bca0 f    CIL library: CIL module
 0001:0001aca8       __ehhandler$?Clone@SQVM@@QAE_NABUSQObjectPtr@@AAU2@@Z 1001bca8 f    CIL library: CIL module
 0001:0001acb2       __unwindfunclet$?CLASS_OP@SQVM@@QAE_NAAUSQObjectPtr@@HH@Z$0 1001bcb2 f    CIL library: CIL module
 0001:0001acb2       __unwindfunclet$?Factor@SQCompiler@@QAEHXZ$0 1001bcb2 f    CIL library: CIL module
 0001:0001acba       __unwindfunclet$?Factor@SQCompiler@@QAEHXZ$1 1001bcba f    CIL library: CIL module
 0001:0001acba       __unwindfunclet$?CLASS_OP@SQVM@@QAE_NAAUSQObjectPtr@@HH@Z$1 1001bcba f    CIL library: CIL module
 0001:0001acc2       __ehhandler$?Factor@SQCompiler@@QAEHXZ 1001bcc2 f    CIL library: CIL module
 0001:0001acc2       __ehhandler$?CLASS_OP@SQVM@@QAE_NAAUSQObjectPtr@@HH@Z 1001bcc2 f    CIL library: CIL module
 0001:0001accc       __unwindfunclet$?DerefInc@SQVM@@QAE_NHAAUSQObjectPtr@@000_NH@Z$0 1001bccc f    CIL library: CIL module
 0001:0001acd4       __unwindfunclet$?DerefInc@SQVM@@QAE_NHAAUSQObjectPtr@@000_NH@Z$1 1001bcd4 f    CIL library: CIL module
 0001:0001acdc       __unwindfunclet$?DerefInc@SQVM@@QAE_NHAAUSQObjectPtr@@000_NH@Z$2 1001bcdc f    CIL library: CIL module
 0001:0001ace4       __ehhandler$?DerefInc@SQVM@@QAE_NHAAUSQObjectPtr@@000_NH@Z 1001bce4 f    CIL library: CIL module
 0001:0001acee       __unwindfunclet$?StartCall@SQVM@@QAE_NPAUSQClosure@@HHH_N@Z$1 1001bcee f    CIL library: CIL module
 0001:0001acf3       __unwindfunclet$?StartCall@SQVM@@QAE_NPAUSQClosure@@HHH_N@Z$0 1001bcf3 f    CIL library: CIL module
 0001:0001acfb       __ehhandler$?StartCall@SQVM@@QAE_NPAUSQClosure@@HHH_N@Z 1001bcfb f    CIL library: CIL module
 0001:0001ad05       __unwindfunclet$?Init@SQSharedState@@QAEXXZ$20 1001bd05 f    CIL library: CIL module
 0001:0001ad0d       __unwindfunclet$?Init@SQSharedState@@QAEXXZ$22 1001bd0d f    CIL library: CIL module
 0001:0001ad15       __unwindfunclet$?Init@SQSharedState@@QAEXXZ$24 1001bd15 f    CIL library: CIL module
 0001:0001ad1d       __unwindfunclet$?Init@SQSharedState@@QAEXXZ$26 1001bd1d f    CIL library: CIL module
 0001:0001ad25       __unwindfunclet$?Init@SQSharedState@@QAEXXZ$28 1001bd25 f    CIL library: CIL module
 0001:0001ad2d       __unwindfunclet$?Init@SQSharedState@@QAEXXZ$30 1001bd2d f    CIL library: CIL module
 0001:0001ad35       __unwindfunclet$?Init@SQSharedState@@QAEXXZ$32 1001bd35 f    CIL library: CIL module
 0001:0001ad3d       __unwindfunclet$?Init@SQSharedState@@QAEXXZ$34 1001bd3d f    CIL library: CIL module
 0001:0001ad45       __unwindfunclet$?Init@SQSharedState@@QAEXXZ$36 1001bd45 f    CIL library: CIL module
 0001:0001ad4d       __unwindfunclet$?Init@SQSharedState@@QAEXXZ$38 1001bd4d f    CIL library: CIL module
 0001:0001ad55       __unwindfunclet$?Init@SQSharedState@@QAEXXZ$40 1001bd55 f    CIL library: CIL module
 0001:0001ad5d       __unwindfunclet$?Init@SQSharedState@@QAEXXZ$42 1001bd5d f    CIL library: CIL module
 0001:0001ad65       __unwindfunclet$?Init@SQSharedState@@QAEXXZ$44 1001bd65 f    CIL library: CIL module
 0001:0001ad6d       __unwindfunclet$?Init@SQSharedState@@QAEXXZ$46 1001bd6d f    CIL library: CIL module
 0001:0001ad75       __unwindfunclet$?Init@SQSharedState@@QAEXXZ$48 1001bd75 f    CIL library: CIL module
 0001:0001ad7d       __unwindfunclet$?Init@SQSharedState@@QAEXXZ$50 1001bd7d f    CIL library: CIL module
 0001:0001ad85       __unwindfunclet$?Init@SQSharedState@@QAEXXZ$52 1001bd85 f    CIL library: CIL module
 0001:0001ad8d       __unwindfunclet$?Init@SQSharedState@@QAEXXZ$54 1001bd8d f    CIL library: CIL module
 0001:0001ad95       __ehhandler$?Init@SQSharedState@@QAEXXZ 1001bd95 f    CIL library: CIL module
 0001:0001ad9f       __unwindfunclet$?Load@SQFunctionProto@@SA_NPAUSQVM@@PAXP6AH11H@ZAAUSQObjectPtr@@@Z$0 1001bd9f f    CIL library: CIL module
 0001:0001ada7       __unwindfunclet$?Load@SQFunctionProto@@SA_NPAUSQVM@@PAXP6AH11H@ZAAUSQObjectPtr@@@Z$1 1001bda7 f    CIL library: CIL module
 0001:0001adaf       __unwindfunclet$?Load@SQFunctionProto@@SA_NPAUSQVM@@PAXP6AH11H@ZAAUSQObjectPtr@@@Z$2 1001bdaf f    CIL library: CIL module
 0001:0001adb7       __unwindfunclet$?Load@SQFunctionProto@@SA_NPAUSQVM@@PAXP6AH11H@ZAAUSQObjectPtr@@@Z$3 1001bdb7 f    CIL library: CIL module
 0001:0001adbf       __unwindfunclet$?Load@SQFunctionProto@@SA_NPAUSQVM@@PAXP6AH11H@ZAAUSQObjectPtr@@@Z$4 1001bdbf f    CIL library: CIL module
 0001:0001adc7       __unwindfunclet$?Load@SQFunctionProto@@SA_NPAUSQVM@@PAXP6AH11H@ZAAUSQObjectPtr@@@Z$5 1001bdc7 f    CIL library: CIL module
 0001:0001add1       __unwindfunclet$?Load@SQFunctionProto@@SA_NPAUSQVM@@PAXP6AH11H@ZAAUSQObjectPtr@@@Z$6 1001bdd1 f    CIL library: CIL module
 0001:0001add9       __ehhandler$?Load@SQFunctionProto@@SA_NPAUSQVM@@PAXP6AH11H@ZAAUSQObjectPtr@@@Z 1001bdd9 f    CIL library: CIL module
 0001:0001ade3       __unwindfunclet$?EnumStatement@SQCompiler@@QAEXXZ$0 1001bde3 f    CIL library: CIL module
 0001:0001adeb       __unwindfunclet$?EnumStatement@SQCompiler@@QAEXXZ$1 1001bdeb f    CIL library: CIL module
 0001:0001adf3       __unwindfunclet$?EnumStatement@SQCompiler@@QAEXXZ$2 1001bdf3 f    CIL library: CIL module
 0001:0001adfb       __unwindfunclet$?EnumStatement@SQCompiler@@QAEXXZ$3 1001bdfb f    CIL library: CIL module
 0001:0001ae03       __unwindfunclet$?EnumStatement@SQCompiler@@QAEXXZ$4 1001be03 f    CIL library: CIL module
 0001:0001ae0b       __ehhandler$?EnumStatement@SQCompiler@@QAEXXZ 1001be0b f    CIL library: CIL module
 0001:0001ae15       __unwindfunclet$?NewSlot@SQClass@@QAE_NPAUSQSharedState@@ABUSQObjectPtr@@1_N@Z$0 1001be15 f    CIL library: CIL module
 0001:0001ae1d       __unwindfunclet$?NewSlot@SQClass@@QAE_NPAUSQSharedState@@ABUSQObjectPtr@@1_N@Z$1 1001be1d f    CIL library: CIL module
 0001:0001ae25       __unwindfunclet$?NewSlot@SQClass@@QAE_NPAUSQSharedState@@ABUSQObjectPtr@@1_N@Z$2 1001be25 f    CIL library: CIL module
 0001:0001ae2f       __unwindfunclet$?NewSlot@SQClass@@QAE_NPAUSQSharedState@@ABUSQObjectPtr@@1_N@Z$3 1001be2f f    CIL library: CIL module
 0001:0001ae37       __unwindfunclet$?NewSlot@SQClass@@QAE_NPAUSQSharedState@@ABUSQObjectPtr@@1_N@Z$4 1001be37 f    CIL library: CIL module
 0001:0001ae41       __unwindfunclet$?NewSlot@SQClass@@QAE_NPAUSQSharedState@@ABUSQObjectPtr@@1_N@Z$5 1001be41 f    CIL library: CIL module
 0001:0001ae49       __ehhandler$?NewSlot@SQClass@@QAE_NPAUSQSharedState@@ABUSQObjectPtr@@1_N@Z 1001be49 f    CIL library: CIL module
 0001:0001ae53       __unwindfunclet$?string_slice@@YAHPAUSQVM@@@Z$0 1001be53 f    CIL library: CIL module
 0001:0001ae53       __unwindfunclet$?Call@SQVM@@QAE_NAAUSQObjectPtr@@HH0I@Z$0 1001be53 f    CIL library: CIL module
 0001:0001ae53       __unwindfunclet$?__map_array@@YAHPAUSQArray@@0PAUSQVM@@@Z$0 1001be53 f    CIL library: CIL module
 0001:0001ae5b       __unwindfunclet$?string_slice@@YAHPAUSQVM@@@Z$1 1001be5b f    CIL library: CIL module
 0001:0001ae5b       __unwindfunclet$?__map_array@@YAHPAUSQArray@@0PAUSQVM@@@Z$1 1001be5b f    CIL library: CIL module
 0001:0001ae5b       __unwindfunclet$?Call@SQVM@@QAE_NAAUSQObjectPtr@@HH0I@Z$1 1001be5b f    CIL library: CIL module
 0001:0001ae63       __ehhandler$?Call@SQVM@@QAE_NAAUSQObjectPtr@@HH0I@Z 1001be63 f    CIL library: CIL module
 0001:0001ae63       __ehhandler$?__map_array@@YAHPAUSQArray@@0PAUSQVM@@@Z 1001be63 f    CIL library: CIL module
 0001:0001ae63       __ehhandler$?string_slice@@YAHPAUSQVM@@@Z 1001be63 f    CIL library: CIL module
 0001:0001ae6d       __unwindfunclet$?NewSlot@SQVM@@QAE_NABUSQObjectPtr@@00_N@Z$2 1001be6d f    CIL library: CIL module
 0001:0001ae75       __unwindfunclet$?NewSlot@SQVM@@QAE_NABUSQObjectPtr@@00_N@Z$3 1001be75 f    CIL library: CIL module
 0001:0001ae7d       __unwindfunclet$?NewSlot@SQVM@@QAE_NABUSQObjectPtr@@00_N@Z$0 1001be7d f    CIL library: CIL module
 0001:0001ae85       __unwindfunclet$?NewSlot@SQVM@@QAE_NABUSQObjectPtr@@00_N@Z$1 1001be85 f    CIL library: CIL module
 0001:0001ae8d       __unwindfunclet$?NewSlot@SQVM@@QAE_NABUSQObjectPtr@@00_N@Z$4 1001be8d f    CIL library: CIL module
 0001:0001ae95       __ehhandler$?NewSlot@SQVM@@QAE_NABUSQObjectPtr@@00_N@Z 1001be95 f    CIL library: CIL module
 0001:0001ae9f       __unwindfunclet$?Execute@SQVM@@QAE_NAAUSQObjectPtr@@HH0IW4ExecutionType@1@@Z$44 1001be9f f    CIL library: CIL module
 0001:0001aea7       __unwindfunclet$?Execute@SQVM@@QAE_NAAUSQObjectPtr@@HH0IW4ExecutionType@1@@Z$45 1001bea7 f    CIL library: CIL module
 0001:0001aeaf       __unwindfunclet$?Execute@SQVM@@QAE_NAAUSQObjectPtr@@HH0IW4ExecutionType@1@@Z$46 1001beaf f    CIL library: CIL module
 0001:0001aeba       __unwindfunclet$?Execute@SQVM@@QAE_NAAUSQObjectPtr@@HH0IW4ExecutionType@1@@Z$48 1001beba f    CIL library: CIL module
 0001:0001aec2       __unwindfunclet$?Execute@SQVM@@QAE_NAAUSQObjectPtr@@HH0IW4ExecutionType@1@@Z$47 1001bec2 f    CIL library: CIL module
 0001:0001aeca       __unwindfunclet$?Execute@SQVM@@QAE_NAAUSQObjectPtr@@HH0IW4ExecutionType@1@@Z$55 1001beca f    CIL library: CIL module
 0001:0001aed2       __unwindfunclet$?Execute@SQVM@@QAE_NAAUSQObjectPtr@@HH0IW4ExecutionType@1@@Z$49 1001bed2 f    CIL library: CIL module
 0001:0001aeda       __unwindfunclet$?Execute@SQVM@@QAE_NAAUSQObjectPtr@@HH0IW4ExecutionType@1@@Z$50 1001beda f    CIL library: CIL module
 0001:0001aee2       __unwindfunclet$?Execute@SQVM@@QAE_NAAUSQObjectPtr@@HH0IW4ExecutionType@1@@Z$51 1001bee2 f    CIL library: CIL module
 0001:0001aeea       __unwindfunclet$?Execute@SQVM@@QAE_NAAUSQObjectPtr@@HH0IW4ExecutionType@1@@Z$52 1001beea f    CIL library: CIL module
 0001:0001aef2       __unwindfunclet$?Execute@SQVM@@QAE_NAAUSQObjectPtr@@HH0IW4ExecutionType@1@@Z$53 1001bef2 f    CIL library: CIL module
 0001:0001aefa       __unwindfunclet$?Execute@SQVM@@QAE_NAAUSQObjectPtr@@HH0IW4ExecutionType@1@@Z$54 1001befa f    CIL library: CIL module
 0001:0001af13       __ehhandler$?Execute@SQVM@@QAE_NAAUSQObjectPtr@@HH0IW4ExecutionType@1@@Z 1001bf13 f    CIL library: CIL module
 0001:0001af1d       __unwindfunclet$?Init@SQVM@@QAE_NPAU1@H@Z$0 1001bf1d f    CIL library: CIL module
 0001:0001af25       __unwindfunclet$?Init@SQVM@@QAE_NPAU1@H@Z$1 1001bf25 f    CIL library: CIL module
 0001:0001af2d       __ehhandler$?Init@SQVM@@QAE_NPAU1@H@Z 1001bf2d f    CIL library: CIL module
 0001:0001af37       __unwindfunclet$?ForStatement@SQCompiler@@QAEXXZ$0 1001bf37 f    CIL library: CIL module
 0001:0001af3f       __ehhandler$?ForStatement@SQCompiler@@QAEXXZ 1001bf3f f    CIL library: CIL module
 0001:0001af49       __unwindfunclet$?Statement@SQCompiler@@QAEX_N@Z$0 1001bf49 f    CIL library: CIL module
 0001:0001af51       __unwindfunclet$?Statement@SQCompiler@@QAEX_N@Z$1 1001bf51 f    CIL library: CIL module
 0001:0001af59       __ehhandler$?Statement@SQCompiler@@QAEX_N@Z 1001bf59 f    CIL library: CIL module
 0001:0001af63       __unwindfunclet$?Compile@SQCompiler@@QAE_NAAUSQObjectPtr@@@Z$0 1001bf63 f    CIL library: CIL module
 0001:0001af6e       __ehhandler$?Compile@SQCompiler@@QAE_NAAUSQObjectPtr@@@Z 1001bf6e f    CIL library: CIL module
 0001:0001af78       __unwindfunclet$?array_filter@@YAHPAUSQVM@@@Z$0 1001bf78 f    CIL library: CIL module
 0001:0001af80       __unwindfunclet$?array_filter@@YAHPAUSQVM@@@Z$1 1001bf80 f    CIL library: CIL module
 0001:0001af88       __unwindfunclet$?array_filter@@YAHPAUSQVM@@@Z$2 1001bf88 f    CIL library: CIL module
 0001:0001af90       __unwindfunclet$?array_filter@@YAHPAUSQVM@@@Z$3 1001bf90 f    CIL library: CIL module
 0001:0001af98       __ehhandler$?array_filter@@YAHPAUSQVM@@@Z 1001bf98 f    CIL library: CIL module
 0001:0001afa2       __unwindfunclet$?array_reduce@@YAHPAUSQVM@@@Z$0 1001bfa2 f    CIL library: CIL module
 0001:0001afaa       __unwindfunclet$?array_reduce@@YAHPAUSQVM@@@Z$1 1001bfaa f    CIL library: CIL module
 0001:0001afb2       __unwindfunclet$?array_reduce@@YAHPAUSQVM@@@Z$2 1001bfb2 f    CIL library: CIL module
 0001:0001afba       __ehhandler$?array_reduce@@YAHPAUSQVM@@@Z 1001bfba f    CIL library: CIL module
 0001:0001afc4       __unwindfunclet$?Compile@@YA_NPAUSQVM@@P6AHPAX@Z1PBDAAUSQObjectPtr@@_N5@Z$0 1001bfc4 f    CIL library: CIL module
 0001:0001afd1       __unwindfunclet$?Compile@@YA_NPAUSQVM@@P6AHPAX@Z1PBDAAUSQObjectPtr@@_N5@Z$1 1001bfd1 f    CIL library: CIL module
 0001:0001afdc       __ehhandler$?Compile@@YA_NPAUSQVM@@P6AHPAX@Z1PBDAAUSQObjectPtr@@_N5@Z 1001bfdc f    CIL library: CIL module

 Exports

  ordinal    name

        1    _sq_addref
               exported name: sq_addref
        2    _sq_arrayappend
               exported name: sq_arrayappend
        3    _sq_arrayinsert
               exported name: sq_arrayinsert
        4    _sq_arraypop
               exported name: sq_arraypop
        5    _sq_arrayremove
               exported name: sq_arrayremove
        6    _sq_arrayresize
               exported name: sq_arrayresize
        7    _sq_arrayreverse
               exported name: sq_arrayreverse
        8    _sq_bindenv
               exported name: sq_bindenv
        9    _sq_call
               exported name: sq_call
       10    _sq_clear
               exported name: sq_clear
       11    _sq_clone
               exported name: sq_clone
       12    _sq_close
               exported name: sq_close
       13    _sq_cmp
               exported name: sq_cmp
       14    _sq_collectgarbage
               exported name: sq_collectgarbage
       15    _sq_compile
               exported name: sq_compile
       16    _sq_compilebuffer
               exported name: sq_compilebuffer
       17    _sq_createinstance
               exported name: sq_createinstance
       18    _sq_deleteslot
               exported name: sq_deleteslot
       19    _sq_enabledebuginfo
               exported name: sq_enabledebuginfo
       20    _sq_free
               exported name: sq_free
       21    _sq_get
               exported name: sq_get
       22    _sq_getattributes
               exported name: sq_getattributes
       23    _sq_getbase
               exported name: sq_getbase
       24    _sq_getbool
               exported name: sq_getbool
       25    _sq_getbyhandle
               exported name: sq_getbyhandle
       26    _sq_getcallee
               exported name: sq_getcallee
       27    _sq_getclass
               exported name: sq_getclass
       28    _sq_getclosureinfo
               exported name: sq_getclosureinfo
       29    _sq_getclosurename
               exported name: sq_getclosurename
       30    _sq_getdefaultdelegate
               exported name: sq_getdefaultdelegate
       31    _sq_getdelegate
               exported name: sq_getdelegate
       32    _sq_geterrorfunc
               exported name: sq_geterrorfunc
       33    _sq_getfloat
               exported name: sq_getfloat
       34    _sq_getforeignptr
               exported name: sq_getforeignptr
       35    _sq_getfreevariable
               exported name: sq_getfreevariable
       36    _sq_getfunctioninfo
               exported name: sq_getfunctioninfo
       37    _sq_gethash
               exported name: sq_gethash
       38    _sq_getinstanceup
               exported name: sq_getinstanceup
       39    _sq_getinteger
               exported name: sq_getinteger
       40    _sq_getlasterror
               exported name: sq_getlasterror
       41    _sq_getlocal
               exported name: sq_getlocal
       42    _sq_getmemberhandle
               exported name: sq_getmemberhandle
       43    _sq_getobjtypetag
               exported name: sq_getobjtypetag
       44    _sq_getprintfunc
               exported name: sq_getprintfunc
       45    _sq_getrefcount
               exported name: sq_getrefcount
       46    _sq_getscratchpad
               exported name: sq_getscratchpad
       47    _sq_getsize
               exported name: sq_getsize
       48    _sq_getstackobj
               exported name: sq_getstackobj
       49    _sq_getstring
               exported name: sq_getstring
       50    _sq_getthread
               exported name: sq_getthread
       51    _sq_gettop
               exported name: sq_gettop
       52    _sq_gettype
               exported name: sq_gettype
       53    _sq_gettypetag
               exported name: sq_gettypetag
       54    _sq_getuserdata
               exported name: sq_getuserdata
       55    _sq_getuserpointer
               exported name: sq_getuserpointer
       56    _sq_getversion
               exported name: sq_getversion
       57    _sq_getvmstate
               exported name: sq_getvmstate
       58    _sq_getweakrefval
               exported name: sq_getweakrefval
       59    _sq_instanceof
               exported name: sq_instanceof
       60    _sq_malloc
               exported name: sq_malloc
       61    _sq_move
               exported name: sq_move
       62    _sq_newarray
               exported name: sq_newarray
       63    _sq_newclass
               exported name: sq_newclass
       64    _sq_newclosure
               exported name: sq_newclosure
       65    _sq_newmember
               exported name: sq_newmember
       66    _sq_newslot
               exported name: sq_newslot
       67    _sq_newtable
               exported name: sq_newtable
       68    _sq_newtableex
               exported name: sq_newtableex
       69    _sq_newthread
               exported name: sq_newthread
       70    _sq_newuserdata
               exported name: sq_newuserdata
       71    _sq_next
               exported name: sq_next
       72    _sq_notifyallexceptions
               exported name: sq_notifyallexceptions
       73    _sq_objtobool
               exported name: sq_objtobool
       74    _sq_objtofloat
               exported name: sq_objtofloat
       75    _sq_objtointeger
               exported name: sq_objtointeger
       76    _sq_objtostring
               exported name: sq_objtostring
       77    _sq_objtouserpointer
               exported name: sq_objtouserpointer
       78    _sq_open
               exported name: sq_open
       79    _sq_pop
               exported name: sq_pop
       80    _sq_poptop
               exported name: sq_poptop
       81    _sq_push
               exported name: sq_push
       82    _sq_pushbool
               exported name: sq_pushbool
       83    _sq_pushconsttable
               exported name: sq_pushconsttable
       84    _sq_pushfloat
               exported name: sq_pushfloat
       85    _sq_pushinteger
               exported name: sq_pushinteger
       86    _sq_pushnull
               exported name: sq_pushnull
       87    _sq_pushobject
               exported name: sq_pushobject
       88    _sq_pushregistrytable
               exported name: sq_pushregistrytable
       89    _sq_pushroottable
               exported name: sq_pushroottable
       90    _sq_pushstring
               exported name: sq_pushstring
       91    _sq_pushuserpointer
               exported name: sq_pushuserpointer
       92    _sq_rawdeleteslot
               exported name: sq_rawdeleteslot
       93    _sq_rawget
               exported name: sq_rawget
       94    _sq_rawnewmember
               exported name: sq_rawnewmember
       95    _sq_rawset
               exported name: sq_rawset
       96    _sq_readclosure
               exported name: sq_readclosure
       97    _sq_realloc
               exported name: sq_realloc
       98    _sq_release
               exported name: sq_release
       99    _sq_remove
               exported name: sq_remove
      100    _sq_reservestack
               exported name: sq_reservestack
      101    _sq_reseterror
               exported name: sq_reseterror
      102    _sq_resetobject
               exported name: sq_resetobject
      103    _sq_resume
               exported name: sq_resume
      104    _sq_resurrectunreachable
               exported name: sq_resurrectunreachable
      105    _sq_set
               exported name: sq_set
      106    _sq_setattributes
               exported name: sq_setattributes
      107    _sq_setbyhandle
               exported name: sq_setbyhandle
      108    _sq_setclassudsize
               exported name: sq_setclassudsize
      109    _sq_setcompilererrorhandler
               exported name: sq_setcompilererrorhandler
      110    _sq_setconsttable
               exported name: sq_setconsttable
      111    _sq_setdebughook
               exported name: sq_setdebughook
      112    _sq_setdelegate
               exported name: sq_setdelegate
      113    _sq_seterrorhandler
               exported name: sq_seterrorhandler
      114    _sq_setforeignptr
               exported name: sq_setforeignptr
      115    _sq_setfreevariable
               exported name: sq_setfreevariable
      116    _sq_setinstanceup
               exported name: sq_setinstanceup
      117    _sq_setnativeclosurename
               exported name: sq_setnativeclosurename
      118    _sq_setnativedebughook
               exported name: sq_setnativedebughook
      119    _sq_setparamscheck
               exported name: sq_setparamscheck
      120    _sq_setprintfunc
               exported name: sq_setprintfunc
      121    _sq_setreleasehook
               exported name: sq_setreleasehook
      122    _sq_setroottable
               exported name: sq_setroottable
      123    _sq_settop
               exported name: sq_settop
      124    _sq_settypetag
               exported name: sq_settypetag
      125    _sq_stackinfos
               exported name: sq_stackinfos
      126    _sq_suspendvm
               exported name: sq_suspendvm
      127    _sq_throwerror
               exported name: sq_throwerror
      128    _sq_throwobject
               exported name: sq_throwobject
      129    _sq_tobool
               exported name: sq_tobool
      130    _sq_tostring
               exported name: sq_tostring
      131    _sq_typeof
               exported name: sq_typeof
      132    _sq_wakeupvm
               exported name: sq_wakeupvm
      133    _sq_weakref
               exported name: sq_weakref
      134    _sq_writeclosure
               exported name: sq_writeclosure
      135    _sqstd_createblob
               exported name: sqstd_createblob
      136    _sqstd_createfile
               exported name: sqstd_createfile
      137    _sqstd_dofile
               exported name: sqstd_dofile
      138    _sqstd_fclose
               exported name: sqstd_fclose
      139    _sqstd_feof
               exported name: sqstd_feof
      140    _sqstd_fflush
               exported name: sqstd_fflush
      141    _sqstd_fopen
               exported name: sqstd_fopen
      142    _sqstd_format
               exported name: sqstd_format
      143    _sqstd_fread
               exported name: sqstd_fread
      144    _sqstd_fseek
               exported name: sqstd_fseek
      145    _sqstd_ftell
               exported name: sqstd_ftell
      146    _sqstd_fwrite
               exported name: sqstd_fwrite
      147    _sqstd_getblob
               exported name: sqstd_getblob
      148    _sqstd_getblobsize
               exported name: sqstd_getblobsize
      149    _sqstd_getfile
               exported name: sqstd_getfile
      150    _sqstd_loadfile
               exported name: sqstd_loadfile
      151    _sqstd_printcallstack
               exported name: sqstd_printcallstack
      152    _sqstd_register_bloblib
               exported name: sqstd_register_bloblib
      153    _sqstd_register_iolib
               exported name: sqstd_register_iolib
      154    _sqstd_register_mathlib
               exported name: sqstd_register_mathlib
      155    _sqstd_register_stringlib
               exported name: sqstd_register_stringlib
      156    _sqstd_register_systemlib
               exported name: sqstd_register_systemlib
      157    _sqstd_rex_compile
               exported name: sqstd_rex_compile
      158    _sqstd_rex_free
               exported name: sqstd_rex_free
      159    _sqstd_rex_getsubexp
               exported name: sqstd_rex_getsubexp
      160    _sqstd_rex_getsubexpcount
               exported name: sqstd_rex_getsubexpcount
      161    _sqstd_rex_match
               exported name: sqstd_rex_match
      162    _sqstd_rex_search
               exported name: sqstd_rex_search
      163    _sqstd_rex_searchrange
               exported name: sqstd_rex_searchrange
      164    _sqstd_seterrorhandlers
               exported name: sqstd_seterrorhandlers
      165    _sqstd_writeclosuretofile
               exported name: sqstd_writeclosuretofile
