 lib_freetype

 Timestamp is 527a39bc (Wed Nov 06 15:44:44 2013)

 Preferred load address is 10000000

 Start         Length     Name                   Class
 0001:00000000 00054a4bH .text                   CODE
 0002:00000000 000000e4H .idata$5                DATA
 0002:000000e4 00000004H .CRT$XCA                DATA
 0002:000000e8 00000004H .CRT$XCZ                DATA
 0002:000000ec 00000004H .CRT$XIA                DATA
 0002:000000f0 00000004H .CRT$XIAA               DATA
 0002:000000f4 00000004H .CRT$XIZ                DATA
 0002:000000f8 00020a38H .rdata                  DATA
 0002:00020b30 00000004H .rdata$sxdata           DATA
 0002:00020b34 00000004H .rtc$IAA                DATA
 0002:00020b38 00000004H .rtc$IZZ                DATA
 0002:00020b3c 00000004H .rtc$TAA                DATA
 0002:00020b40 00000004H .rtc$TZZ                DATA
 0002:00020b48 00000064H .xdata$x                DATA
 0002:00020bac 00000028H .idata$2                DATA
 0002:00020bd4 00000014H .idata$3                DATA
 0002:00020be8 000000e4H .idata$4                DATA
 0002:00020ccc 00000354H .idata$6                DATA
 0002:00021020 00001a4fH .edata                  DATA
 0003:00000000 00000370H .data                   DATA
 0003:00000380 000004d4H .bss                    DATA

  Address         Publics by Value              Rva+Base       Lib:Object

 0000:00000000       __except_list              00000000     <absolute>
 0000:00000001       ___safe_se_handler_count   00000001     <absolute>
 0000:00009876       __ldused                   00009876     <absolute>
 0000:00009876       __fltused                  00009876     <absolute>
 0000:00000000       ___ImageBase               10000000     <linker-defined>
 0001:00000eca       _FT_Throw                  10001eca f   ftdebug.obj
 0001:00004e2b       _af_property_get_face_globals 10005e2b f   autofit.obj
 0001:00004e6e       _af_property_set           10005e6e f   autofit.obj
 0001:00004ee4       _af_property_get           10005ee4 f   autofit.obj
 0001:00005072       _FT_Get_Advance            10006072 f   ftbase.obj
 0001:000050f1       _FT_Get_Advances           100060f1 f   ftbase.obj
 0001:000051d6       _FT_RoundFix               100061d6 f   ftbase.obj
 0001:000051f9       _FT_CeilFix                100061f9 f   ftbase.obj
 0001:0000521c       _FT_FloorFix               1000621c f   ftbase.obj
 0001:00005234       _FT_MSB                    10006234 f   ftbase.obj
 0001:00005272       _FT_Hypot                  10006272 f   ftbase.obj
 0001:0000528f       _FT_MulDiv                 1000628f f   ftbase.obj
 0001:000052ec       _FT_MulDiv_No_Round        100062ec f   ftbase.obj
 0001:00005340       _FT_MulFix                 10006340 f   ftbase.obj
 0001:0000536b       _FT_DivFix                 1000636b f   ftbase.obj
 0001:000053c7       _FT_Matrix_Multiply        100063c7 f   ftbase.obj
 0001:00005474       _FT_Matrix_Invert          10006474 f   ftbase.obj
 0001:000054e5       _FT_Matrix_Multiply_Scaled 100064e5 f   ftbase.obj
 0001:000055c0       _FT_Vector_Transform_Scaled 100065c0 f   ftbase.obj
 0001:0000562a       _FT_SqrtFixed              1000662a f   ftbase.obj
 0001:0000565b       _ft_corner_orientation     1000665b f   ftbase.obj
 0001:000056d9       _ft_corner_is_flat         100066d9 f   ftbase.obj
 0001:00005737       _FT_GlyphLoader_New        10006737 f   ftbase.obj
 0001:00005761       _FT_GlyphLoader_Rewind     10006761 f   ftbase.obj
 0001:00005781       _FT_GlyphLoader_Reset      10006781 f   ftbase.obj
 0001:000057e1       _FT_GlyphLoader_Done       100067e1 f   ftbase.obj
 0001:00005845       _FT_GlyphLoader_CreateExtra 10006845 f   ftbase.obj
 0001:0000588a       _FT_GlyphLoader_CheckPoints 1000688a f   ftbase.obj
 0001:000059c9       _FT_GlyphLoader_CheckSubGlyphs 100069c9 f   ftbase.obj
 0001:00005a20       _FT_GlyphLoader_Prepare    10006a20 f   ftbase.obj
 0001:00005a43       _FT_GlyphLoader_Add        10006a43 f   ftbase.obj
 0001:00005a8f       _FT_GlyphLoader_CopyPoints 10006a8f f   ftbase.obj
 0001:0000652e       _MD5_Update                1000752e f   ftbase.obj
 0001:000065be       _MD5_Final                 100075be f   ftbase.obj
 0001:000066db       _ft_service_list_lookup    100076db f   ftbase.obj
 0001:00006731       _ft_validator_init         10007731 f   ftbase.obj
 0001:00006751       _ft_validator_run          10007751 f   ftbase.obj
 0001:00006755       _ft_validator_error        10007755 f   ftbase.obj
 0001:0000676d       _FT_Stream_New             1000776d f   ftbase.obj
 0001:0000681e       _FT_Stream_Free            1000781e f   ftbase.obj
 0001:000068ab       _ft_glyphslot_free_bitmap  100078ab f   ftbase.obj
 0001:000068e6       _ft_glyphslot_set_bitmap   100078e6 f   ftbase.obj
 0001:0000691b       _ft_glyphslot_alloc_bitmap 1000791b f   ftbase.obj
 0001:00006a24       _FT_New_GlyphSlot          10007a24 f   ftbase.obj
 0001:00006ad9       _FT_Done_GlyphSlot         10007ad9 f   ftbase.obj
 0001:00006b30       _FT_Set_Transform          10007b30 f   ftbase.obj
 0001:00006c45       _FT_Load_Glyph             10007c45 f   ftbase.obj
 0001:00006fb8       _FT_Load_Char              10007fb8 f   ftbase.obj
 0001:000072f7       _FT_New_Face               100082f7 f   ftbase.obj
 0001:0000732e       _FT_New_Memory_Face        1000832e f   ftbase.obj
 0001:00007dc4       _FT_Open_Face              10008dc4 f   ftbase.obj
 0001:00008198       _FT_Attach_File            10009198 f   ftbase.obj
 0001:000081c8       _FT_Attach_Stream          100091c8 f   ftbase.obj
 0001:0000823e       _FT_Reference_Face         1000923e f   ftbase.obj
 0001:0000824e       _FT_Done_Face              1000924e f   ftbase.obj
 0001:000082c1       _FT_New_Size               100092c1 f   ftbase.obj
 0001:00008381       _FT_Done_Size              10009381 f   ftbase.obj
 0001:00008415       _FT_Match_Size             10009415 f   ftbase.obj
 0001:000084fd       _ft_synthesize_vertical_metrics 100094fd f   ftbase.obj
 0001:000085a9       _FT_Select_Metrics         100095a9 f   ftbase.obj
 0001:0000876e       _FT_Request_Metrics        1000976e f   ftbase.obj
 0001:00008a75       _FT_Select_Size            10009a75 f   ftbase.obj
 0001:00008c26       _FT_Request_Size           10009c26 f   ftbase.obj
 0001:00008e0f       _FT_Set_Char_Size          10009e0f f   ftbase.obj
 0001:00008e78       _FT_Set_Pixel_Sizes        10009e78 f   ftbase.obj
 0001:00008eda       _FT_Get_Kerning            10009eda f   ftbase.obj
 0001:00008fc5       _FT_Get_Track_Kerning      10009fc5 f   ftbase.obj
 0001:0000900f       _FT_Select_Charmap         1000a00f f   ftbase.obj
 0001:00009069       _FT_Set_Charmap            1000a069 f   ftbase.obj
 0001:000090b8       _FT_Get_Charmap_Index      1000a0b8 f   ftbase.obj
 0001:0000911b       _FT_CMap_Done              1000a11b f   ftbase.obj
 0001:000091ac       _FT_CMap_New               1000a1ac f   ftbase.obj
 0001:00009272       _FT_Get_Char_Index         1000a272 f   ftbase.obj
 0001:000092c7       _FT_Get_First_Char         1000a2c7 f   ftbase.obj
 0001:00009319       _FT_Get_Next_Char          1000a319 f   ftbase.obj
 0001:00009363       _FT_Face_GetCharVariantIndex 1000a363 f   ftbase.obj
 0001:0000941d       _FT_Face_GetCharVariantIsDefault 1000a41d f   ftbase.obj
 0001:000094b5       _FT_Face_GetVariantSelectors 1000a4b5 f   ftbase.obj
 0001:000094e0       _FT_Face_GetVariantsOfChar 1000a4e0 f   ftbase.obj
 0001:00009548       _FT_Face_GetCharsOfVariant 1000a548 f   ftbase.obj
 0001:000095b0       _FT_Get_Name_Index         1000a5b0 f   ftbase.obj
 0001:0000961c       _FT_Get_Glyph_Name         1000a61c f   ftbase.obj
 0001:000096ae       _FT_Get_Postscript_Name    1000a6ae f   ftbase.obj
 0001:0000970b       _FT_Get_Sfnt_Table         1000a70b f   ftbase.obj
 0001:00009748       _FT_Load_Sfnt_Table        1000a748 f   ftbase.obj
 0001:00009791       _FT_Sfnt_Table_Info        1000a791 f   ftbase.obj
 0001:000097dc       _FT_Get_CMap_Language_ID   1000a7dc f   ftbase.obj
 0001:00009822       _FT_Get_CMap_Format        1000a822 f   ftbase.obj
 0001:00009867       _FT_Activate_Size          1000a867 f   ftbase.obj
 0001:00009885       _FT_Lookup_Renderer        1000a885 f   ftbase.obj
 0001:000099dc       _FT_Get_Renderer           1000a9dc f   ftbase.obj
 0001:000099ef       _FT_Set_Renderer           1000a9ef f   ftbase.obj
 0001:00009a77       _FT_Render_Glyph_Internal  1000aa77 f   ftbase.obj
 0001:00009c13       _FT_Render_Glyph           1000ac13 f   ftbase.obj
 0001:00009ca9       _FT_Add_Module             1000aca9 f   ftbase.obj
 0001:00009e41       _FT_Get_Module             1000ae41 f   ftbase.obj
 0001:00009ea5       _FT_Get_Module_Interface   1000aea5 f   ftbase.obj
 0001:00009ec1       _ft_module_get_service     1000aec1 f   ftbase.obj
 0001:00009f42       _FT_Remove_Module          1000af42 f   ftbase.obj
 0001:00009f9d       _ft_property_do            1000af9d f   ftbase.obj
 0001:0000a0a9       _FT_Property_Set           1000b0a9 f   ftbase.obj
 0001:0000a0c6       _FT_Property_Get           1000b0c6 f   ftbase.obj
 0001:0000a0e3       _FT_Reference_Library      1000b0e3 f   ftbase.obj
 0001:0000a0f0       _FT_New_Library            1000b0f0 f   ftbase.obj
 0001:0000a17d       _FT_Library_Version        1000b17d f   ftbase.obj
 0001:0000a1b5       _FT_Done_Library           1000b1b5 f   ftbase.obj
 0001:0000a2f2       _FT_Set_Debug_Hook         1000b2f2 f   ftbase.obj
 0001:0000a313       _FT_Get_TrueType_Engine_Type 1000b313 f   ftbase.obj
 0001:0000a347       _FT_Get_SubGlyph_Info      1000b347 f   ftbase.obj
 0001:0000a3a7       _FT_Outline_Decompose      1000b3a7 f   ftbase.obj
 0001:0000a97e       _FT_Outline_New_Internal   1000b97e f   ftbase.obj
 0001:0000aa51       _FT_Outline_New            1000ba51 f   ftbase.obj
 0001:0000aa74       _FT_Outline_Check          1000ba74 f   ftbase.obj
 0001:0000aac6       _FT_Outline_Copy           1000bac6 f   ftbase.obj
 0001:0000ab3f       _FT_Outline_Done_Internal  1000bb3f f   ftbase.obj
 0001:0000ab95       _FT_Outline_Done           1000bb95 f   ftbase.obj
 0001:0000abaf       _FT_Outline_Get_CBox       1000bbaf f   ftbase.obj
 0001:0000ac35       _FT_Outline_Translate      1000bc35 f   ftbase.obj
 0001:0000ac6b       _FT_Outline_Reverse        1000bc6b f   ftbase.obj
 0001:0000ad02       _FT_Outline_Render         1000bd02 f   ftbase.obj
 0001:0000ad96       _FT_Outline_Get_Bitmap     1000bd96 f   ftbase.obj
 0001:0000add9       _FT_Vector_Transform       1000bdd9 f   ftbase.obj
 0001:0000ae2f       _FT_Outline_Transform      1000be2f f   ftbase.obj
 0001:0000ae62       _FT_Outline_Embolden       1000be62 f   ftbase.obj
 0001:0000ae77       _FT_Outline_EmboldenXY     1000be77 f   ftbase.obj
 0001:0000b184       _FT_Outline_Get_Orientation 1000c184 f   ftbase.obj
 0001:0000b29a       _FT_Raccess_Get_HeaderInfo 1000c29a f   ftbase.obj
 0001:0000b3e5       _FT_Raccess_Get_DataOffsets 1000c3e5 f   ftbase.obj
 0001:0000b5f5       _FT_Raccess_Guess          1000c5f5 f   ftbase.obj
 0001:0000baed       _FT_Get_Sfnt_Name_Count    1000caed f   ftbase.obj
 0001:0000bb06       _FT_Get_Sfnt_Name          1000cb06 f   ftbase.obj
 0001:0000bbf9       _FT_Stream_OpenMemory      1000cbf9 f   ftbase.obj
 0001:0000bc19       _FT_Stream_Close           1000cc19 f   ftbase.obj
 0001:0000bc2d       _FT_Stream_Seek            1000cc2d f   ftbase.obj
 0001:0000bc77       _FT_Stream_Skip            1000cc77 f   ftbase.obj
 0001:0000bc97       _FT_Stream_Pos             1000cc97 f   ftbase.obj
 0001:0000bc9f       _FT_Stream_Read            1000cc9f f   ftbase.obj
 0001:0000bcb8       _FT_Stream_ReadAt          1000ccb8 f   ftbase.obj
 0001:0000bd44       _FT_Stream_TryRead         1000cd44 f   ftbase.obj
 0001:0000bd96       _FT_Stream_ExtractFrame    1000cd96 f   ftbase.obj
 0001:0000bdbc       _FT_Stream_ReleaseFrame    1000cdbc f   ftbase.obj
 0001:0000bde3       _FT_Stream_EnterFrame      1000cde3 f   ftbase.obj
 0001:0000bee9       _FT_Stream_ExitFrame       1000cee9 f   ftbase.obj
 0001:0000bf25       _FT_Stream_GetChar         1000cf25 f   ftbase.obj
 0001:0000bf57       _FT_Stream_GetUShort       1000cf57 f   ftbase.obj
 0001:0000bfa0       _FT_Stream_GetUShortLE     1000cfa0 f   ftbase.obj
 0001:0000bfe9       _FT_Stream_GetUOffset      1000cfe9 f   ftbase.obj
 0001:0000c035       _FT_Stream_GetULong        1000d035 f   ftbase.obj
 0001:0000c08a       _FT_Stream_GetULongLE      1000d08a f   ftbase.obj
 0001:0000c0e0       _FT_Stream_ReadChar        1000d0e0 f   ftbase.obj
 0001:0000c15c       _FT_Stream_ReadUShort      1000d15c f   ftbase.obj
 0001:0000c1ed       _FT_Stream_ReadUShortLE    1000d1ed f   ftbase.obj
 0001:0000c27d       _FT_Stream_ReadUOffset     1000d27d f   ftbase.obj
 0001:0000c310       _FT_Stream_ReadULong       1000d310 f   ftbase.obj
 0001:0000c3ac       _FT_Stream_ReadULongLE     1000d3ac f   ftbase.obj
 0001:0000c449       _FT_Stream_ReadFields      1000d449 f   ftbase.obj
 0001:0000c818       _FT_Cos                    1000d818 f   ftbase.obj
 0001:0000c840       _FT_Sin                    1000d840 f   ftbase.obj
 0001:0000c851       _FT_Tan                    1000d851 f   ftbase.obj
 0001:0000c87d       _FT_Atan2                  1000d87d f   ftbase.obj
 0001:0000c8b0       _FT_Vector_Unit            1000d8b0 f   ftbase.obj
 0001:0000c8e5       _FT_Vector_Rotate          1000d8e5 f   ftbase.obj
 0001:0000c970       _FT_Vector_Length          1000d970 f   ftbase.obj
 0001:0000c9db       _FT_Vector_Polarize        1000d9db f   ftbase.obj
 0001:0000ca32       _FT_Vector_From_Polar      1000da32 f   ftbase.obj
 0001:0000ca4d       _FT_Angle_Diff             1000da4d f   ftbase.obj
 0001:0000ca73       _ft_mem_alloc              1000da73 f   ftbase.obj
 0001:0000cab1       _ft_mem_qalloc             1000dab1 f   ftbase.obj
 0001:0000cadf       _ft_mem_realloc            1000dadf f   ftbase.obj
 0001:0000cb3b       _ft_mem_qrealloc           1000db3b f   ftbase.obj
 0001:0000cbfc       _ft_mem_free               1000dbfc f   ftbase.obj
 0001:0000cc12       _ft_mem_dup                1000dc12 f   ftbase.obj
 0001:0000cc52       _ft_mem_strdup             1000dc52 f   ftbase.obj
 0001:0000cc83       _ft_mem_strcpyn            1000dc83 f   ftbase.obj
 0001:0000ccad       _FT_List_Find              1000dcad f   ftbase.obj
 0001:0000ccc6       _FT_List_Add               1000dcc6 f   ftbase.obj
 0001:0000cce6       _FT_List_Insert            1000dce6 f   ftbase.obj
 0001:0000cd04       _FT_List_Remove            1000dd04 f   ftbase.obj
 0001:0000cd27       _FT_List_Up                1000dd27 f   ftbase.obj
 0001:0000cd57       _FT_List_Iterate           1000dd57 f   ftbase.obj
 0001:0000cd7e       _FT_List_Finalize          1000dd7e f   ftbase.obj
 0001:0000cdc2       _ft_highpow2               1000ddc2 f   ftbase.obj
 0001:0000cdd7       _FT_Message                1000ddd7 f   ftdebug.obj
 0001:0000cdf4       _FT_Panic                  1000ddf4 f   ftdebug.obj
 0001:0000ce19       _FT_Trace_Get_Count        1000de19 f   ftdebug.obj
 0001:0000ce1d       _FT_Trace_Get_Name         1000de1d f   ftdebug.obj
 0001:0000ce31       _ft_debug_init             1000de31 f   ftdebug.obj
 0001:0000cfe5       _FT_Stream_Open            1000dfe5 f   ftsystem.obj
 0001:0000d0ce       _FT_New_Memory             1000e0ce f   ftsystem.obj
 0001:0000d0f4       _FT_Done_Memory            1000e0f4 f   ftsystem.obj
 0001:0000d0fa       _FT_Bitmap_New             1000e0fa f   ftbitmap.obj
 0001:0000d10d       _FT_Bitmap_Copy            1000e10d f   ftbitmap.obj
 0001:0000d385       _FT_Bitmap_Embolden        1000e385 f   ftbitmap.obj
 0001:0000d606       _ft_gray_for_premultiplied_srgb_bgra 1000e606 f   ftbitmap.obj
 0001:0000d6ab       _FT_Bitmap_Convert         1000e6ab f   ftbitmap.obj
 0001:0000da3d       _FT_GlyphSlot_Own_Bitmap   1000ea3d f   ftbitmap.obj
 0001:0000da9e       _FT_Bitmap_Done            1000ea9e f   ftbitmap.obj
 0001:0000dcf3       _FT_Glyph_Copy             1000ecf3 f   ftglyph.obj
 0001:0000dd6c       _FT_Get_Glyph              1000ed6c f   ftglyph.obj
 0001:0000de10       _FT_Glyph_Transform        1000ee10 f   ftglyph.obj
 0001:0000de5a       _FT_Glyph_Get_CBox         1000ee5a f   ftglyph.obj
 0001:0000ded3       _FT_Glyph_To_Bitmap        1000eed3 f   ftglyph.obj
 0001:0000e061       _FT_Done_Glyph             1000f061 f   ftglyph.obj
 0001:0000e089       _FT_Add_Default_Modules    1000f089 f   ftinit.obj
 0001:0000e0cf       _FT_Init_FreeType          1000f0cf f   ftinit.obj
 0001:0000e117       _FT_Done_FreeType          1000f117 f   ftinit.obj
 0001:0000e135       _FT_Outline_GetInsideBorder 1000f135 f   ftstroke.obj
 0001:0000e145       _FT_Outline_GetOutsideBorder 1000f145 f   ftstroke.obj
 0001:0000e9a5       _FT_Stroker_New            1000f9a5 f   ftstroke.obj
 0001:0000ea11       _FT_Stroker_Set            1000fa11 f   ftstroke.obj
 0001:0000ea49       _FT_Stroker_Rewind         1000fa49 f   ftstroke.obj
 0001:0000ea68       _FT_Stroker_Done           1000fa68 f   ftstroke.obj
 0001:0000efb3       _FT_Stroker_LineTo         1000ffb3 f   ftstroke.obj
 0001:0000f0a2       _FT_Stroker_ConicTo        100100a2 f   ftstroke.obj
 0001:0000f4dd       _FT_Stroker_CubicTo        100104dd f   ftstroke.obj
 0001:0000f990       _FT_Stroker_BeginSubPath   10010990 f   ftstroke.obj
 0001:0000fa9a       _FT_Stroker_EndSubPath     10010a9a f   ftstroke.obj
 0001:0000fb75       _FT_Stroker_GetBorderCounts 10010b75 f   ftstroke.obj
 0001:0000fbc7       _FT_Stroker_GetCounts      10010bc7 f   ftstroke.obj
 0001:0000fc24       _FT_Stroker_ExportBorder   10010c24 f   ftstroke.obj
 0001:0000fc4f       _FT_Stroker_Export         10010c4f f   ftstroke.obj
 0001:0000fc78       _FT_Stroker_ParseOutline   10010c78 f   ftstroke.obj
 0001:0000ff2b       _FT_Glyph_Stroke           10010f2b f   ftstroke.obj
 0001:0000fffc       _FT_Glyph_StrokeBorder     10010ffc f   ftstroke.obj
 0001:000134f2       _FTC_Manager_LookupSize    100144f2 f   ftcache.obj
 0001:00013604       _FTC_Manager_LookupFace    10014604 f   ftcache.obj
 0001:0001367d       _FTC_Manager_New           1001467d f   ftcache.obj
 0001:0001371f       _FTC_Manager_Done          1001471f f   ftcache.obj
 0001:00013797       _FTC_Manager_Reset         10014797 f   ftcache.obj
 0001:00013919       _FTC_Manager_RemoveFaceID  10014919 f   ftcache.obj
 0001:00013958       _FTC_Node_Unref            10014958 f   ftcache.obj
 0001:00013e9b       _FTC_CMapCache_New         10014e9b f   ftcache.obj
 0001:00013eb1       _FTC_CMapCache_Lookup      10014eb1 f   ftcache.obj
 0001:000147f7       _FTC_ImageCache_New        100157f7 f   ftcache.obj
 0001:0001480d       _FTC_ImageCache_Lookup     1001580d f   ftcache.obj
 0001:00014a23       _FTC_ImageCache_LookupScaler 10015a23 f   ftcache.obj
 0001:00014c48       _FTC_SBitCache_New         10015c48 f   ftcache.obj
 0001:00014c5e       _FTC_SBitCache_Lookup      10015c5e f   ftcache.obj
 0001:00014e7d       _FTC_SBitCache_LookupScaler 10015e7d f   ftcache.obj
 0001:00037bea       _ps_hints_apply            10038bea f   pshinter.obj
 0001:00046229       _TT_New_Context            10047229 f   truetype.obj
 0001:00048c80       _TT_RunIns                 10049c80 f   truetype.obj
 0001:00050a35       _FT_Stream_OpenBzip2       10051a35 f   ftbzip2.obj
 0001:000527a9       _FT_Stream_OpenGzip        100537a9 f   ftgzip.obj
 0001:00052b30       _FT_Stream_OpenLZW         10053b30 f   ftlzw.obj
 0001:00052d7b       _ft_lzwstate_reset         10053d7b f   ftlzw.obj
 0001:00052d99       _ft_lzwstate_init          10053d99 f   ftlzw.obj
 0001:00052dd8       _ft_lzwstate_io            10053dd8 f   ftlzw.obj
 0001:0005401e       __CRT_INIT@12              1005501e f   MSVCRT:crtdll.obj
 0001:0005435a       __DllMainCRTStartup@12     1005535a f   MSVCRT:crtdll.obj
 0001:0005437d       ___clean_type_info_names   1005537d f   MSVCRT:tncleanup.obj
 0001:00054389       __onexit                   10055389 f   MSVCRT:atonexit.obj
 0001:0005442e       _atexit                    1005542e f   MSVCRT:atonexit.obj
 0001:00054445       __RTC_Initialize           10055445 f   MSVCRT:_initsect_.obj
 0001:0005446b       __RTC_Terminate            1005546b f   MSVCRT:_initsect_.obj
 0001:000544a0       __ValidateImageBase        100554a0 f   MSVCRT:pesect.obj
 0001:000544e0       __FindPESection            100554e0 f   MSVCRT:pesect.obj
 0001:00054530       __IsNonwritableInCurrentImage 10055530 f   MSVCRT:pesect.obj
 0001:000545ee       __initterm                 100555ee f   MSVCRT:MSVCR90.dll
 0001:000545f4       __initterm_e               100555f4 f   MSVCRT:MSVCR90.dll
 0001:000545fa       __amsg_exit                100555fa f   MSVCRT:MSVCR90.dll
 0001:00054600       ___CppXcptFilter           10055600 f   MSVCRT:MSVCR90.dll
 0001:00054606       _DllMain@12                10055606 f   MSVCRT:dllmain.obj
 0001:0005462c       __SEH_prolog4              1005562c f   MSVCRT:sehprolg4.obj
 0001:00054671       __SEH_epilog4              10055671 f   MSVCRT:sehprolg4.obj
 0001:00054685       __except_handler4          10055685 f   MSVCRT:chandler4gs.obj
 0001:000546aa       ___security_init_cookie    100556aa f   MSVCRT:gs_support.obj
 0001:00054740       ___clean_type_info_names_internal 10055740 f   MSVCRT:MSVCR90.dll
 0001:00054746       __unlock                   10055746 f   MSVCRT:MSVCR90.dll
 0001:0005474c       ___dllonexit               1005574c f   MSVCRT:MSVCR90.dll
 0001:00054752       __lock                     10055752 f   MSVCRT:MSVCR90.dll
 0001:00054758       @__security_check_cookie@4 10055758 f   MSVCRT:secchk.obj
 0001:00054768       __except_handler4_common   10055768 f   MSVCRT:MSVCR90.dll
 0001:0005476e       ___report_gsfailure        1005576e f   MSVCRT:gs_report.obj
 0001:00054874       __crt_debugger_hook        10055874 f   MSVCRT:MSVCR90.dll
 0001:0005487a       _memcpy                    1005587a f   MSVCRT:MSVCR90.dll
 0001:00054880       _memset                    10055880 f   MSVCRT:MSVCR90.dll
 0001:00054890       __allshr                   10055890 f   MSVCRT:llshr.obj
 0001:000548c0       __allmul                   100558c0 f   MSVCRT:llmul.obj
 0001:00054900       __aulldiv                  10055900 f   MSVCRT:ulldiv.obj
 0001:00054970       __alldiv                   10055970 f   MSVCRT:lldiv.obj
 0001:00054a1a       __setjmp3                  10055a1a f   MSVCRT:MSVCR90.dll
 0001:00054a20       __chkstk                   10055a20 f   MSVCRT:chkstk.obj
 0001:00054a20       __alloca_probe             10055a20     MSVCRT:chkstk.obj
 0002:00000000       __imp__SetUnhandledExceptionFilter@4 10056000     kernel32:KERNEL32.dll
 0002:00000004       __imp__UnhandledExceptionFilter@4 10056004     kernel32:KERNEL32.dll
 0002:00000008       __imp__GetCurrentProcess@0 10056008     kernel32:KERNEL32.dll
 0002:0000000c       __imp__TerminateProcess@8  1005600c     kernel32:KERNEL32.dll
 0002:00000010       __imp__GetSystemTimeAsFileTime@4 10056010     kernel32:KERNEL32.dll
 0002:00000014       __imp__GetCurrentProcessId@0 10056014     kernel32:KERNEL32.dll
 0002:00000018       __imp__GetCurrentThreadId@0 10056018     kernel32:KERNEL32.dll
 0002:0000001c       __imp__GetTickCount@0      1005601c     kernel32:KERNEL32.dll
 0002:00000020       __imp__QueryPerformanceCounter@4 10056020     kernel32:KERNEL32.dll
 0002:00000024       __imp__DisableThreadLibraryCalls@4 10056024     kernel32:KERNEL32.dll
 0002:00000028       __imp__InterlockedCompareExchange@12 10056028     kernel32:KERNEL32.dll
 0002:0000002c       __imp__Sleep@4             1005602c     kernel32:KERNEL32.dll
 0002:00000030       __imp__InterlockedExchange@8 10056030     kernel32:KERNEL32.dll
 0002:00000034       __imp__IsDebuggerPresent@0 10056034     kernel32:KERNEL32.dll
 0002:00000038       \177KERNEL32_NULL_THUNK_DATA 10056038     kernel32:KERNEL32.dll
 0002:0000003c       __imp__fseek               1005603c     MSVCRT:MSVCR90.dll
 0002:00000040       __imp__fclose              10056040     MSVCRT:MSVCR90.dll
 0002:00000044       __imp__sprintf             10056044     MSVCRT:MSVCR90.dll
 0002:00000048       __imp__strncmp             10056048     MSVCRT:MSVCR90.dll
 0002:0000004c       __imp__atol                1005604c     MSVCRT:MSVCR90.dll
 0002:00000050       __imp__memchr              10056050     MSVCRT:MSVCR90.dll
 0002:00000054       __imp__strstr              10056054     MSVCRT:MSVCR90.dll
 0002:00000058       __imp___encode_pointer     10056058     MSVCRT:MSVCR90.dll
 0002:0000005c       __imp___malloc_crt         1005605c     MSVCRT:MSVCR90.dll
 0002:00000060       __imp___encoded_null       10056060     MSVCRT:MSVCR90.dll
 0002:00000064       __imp___decode_pointer     10056064     MSVCRT:MSVCR90.dll
 0002:00000068       __imp__realloc             10056068     MSVCRT:MSVCR90.dll
 0002:0000006c       __imp___initterm_e         1005606c     MSVCRT:MSVCR90.dll
 0002:00000070       __imp___amsg_exit          10056070     MSVCRT:MSVCR90.dll
 0002:00000074       __imp___adjust_fdiv        10056074     MSVCRT:MSVCR90.dll
 0002:00000078       __imp____CppXcptFilter     10056078     MSVCRT:MSVCR90.dll
 0002:0000007c       __imp____clean_type_info_names_internal 1005607c     MSVCRT:MSVCR90.dll
 0002:00000080       __imp___unlock             10056080     MSVCRT:MSVCR90.dll
 0002:00000084       __imp____dllonexit         10056084     MSVCRT:MSVCR90.dll
 0002:00000088       __imp___lock               10056088     MSVCRT:MSVCR90.dll
 0002:0000008c       __imp___onexit             1005608c     MSVCRT:MSVCR90.dll
 0002:00000090       __imp___except_handler4_common 10056090     MSVCRT:MSVCR90.dll
 0002:00000094       __imp___crt_debugger_hook  10056094     MSVCRT:MSVCR90.dll
 0002:00000098       __imp__ftell               10056098     MSVCRT:MSVCR90.dll
 0002:0000009c       __imp__fread               1005609c     MSVCRT:MSVCR90.dll
 0002:000000a0       __imp__fopen               100560a0     MSVCRT:MSVCR90.dll
 0002:000000a4       __imp__malloc              100560a4     MSVCRT:MSVCR90.dll
 0002:000000a8       __imp__free                100560a8     MSVCRT:MSVCR90.dll
 0002:000000ac       __imp__exit                100560ac     MSVCRT:MSVCR90.dll
 0002:000000b0       __imp__getenv              100560b0     MSVCRT:MSVCR90.dll
 0002:000000b4       __imp__vfprintf            100560b4     MSVCRT:MSVCR90.dll
 0002:000000b8       __imp____iob_func          100560b8     MSVCRT:MSVCR90.dll
 0002:000000bc       __imp__longjmp             100560bc     MSVCRT:MSVCR90.dll
 0002:000000c0       __imp__strrchr             100560c0     MSVCRT:MSVCR90.dll
 0002:000000c4       __imp__strncpy             100560c4     MSVCRT:MSVCR90.dll
 0002:000000c8       __imp__qsort               100560c8     MSVCRT:MSVCR90.dll
 0002:000000cc       __imp___initterm           100560cc     MSVCRT:MSVCR90.dll
 0002:000000d0       __imp__memmove             100560d0     MSVCRT:MSVCR90.dll
 0002:000000d4       __imp__memcpy              100560d4     MSVCRT:MSVCR90.dll
 0002:000000d8       __imp__memset              100560d8     MSVCRT:MSVCR90.dll
 0002:000000dc       __imp___setjmp3            100560dc     MSVCRT:MSVCR90.dll
 0002:000000e0       \177MSVCR90_NULL_THUNK_DATA 100560e0     MSVCRT:MSVCR90.dll
 0002:000000e4       ___xc_a                    100560e4     MSVCRT:cinitexe.obj
 0002:000000e8       ___xc_z                    100560e8     MSVCRT:cinitexe.obj
 0002:000000ec       ___xi_a                    100560ec     MSVCRT:cinitexe.obj
 0002:000000f4       ___xi_z                    100560f4     MSVCRT:cinitexe.obj
 0002:000000f8       __pRawDllMain              100560f8     MSVCRT:crtdll.obj
 0002:000000f8       __pDefaultRawDllMain       100560f8     MSVCRT:crtdll.obj
 0002:00000104       ??_C@_0L@MNEBCNMP@autofitter?$AA@ 10056104     autofit.obj
 0002:00000110       ??_C@_0L@CIHKIEFA@properties?$AA@ 10056110     autofit.obj
 0002:00000120       _winfnt_driver_class       10056120     winfnt.obj
 0002:000016c0       _t42_driver_class          100576c0     type42.obj
 0002:00001a20       _t1_driver_class           10057a20     type1.obj
 0002:000021a0       _tt_driver_class           100581a0     truetype.obj
 0002:00002460       _tt_default_graphics_state 10058460     truetype.obj
 0002:00002b0c       _ft_grays_raster           10058b0c     smooth.obj
 0002:00002b24       _ft_smooth_renderer_class  10058b24     smooth.obj
 0002:00002b60       _ft_smooth_lcd_renderer_class 10058b60     smooth.obj
 0002:00002b9c       _ft_smooth_lcdv_renderer_class 10058b9c     smooth.obj
 0002:00002c64       _sfnt_module_class         10058c64     sfnt.obj
 0002:00002f1c       _tt_cmap0_class_rec        10058f1c     sfnt.obj
 0002:00002f50       _tt_cmap2_class_rec        10058f50     sfnt.obj
 0002:00002f84       _tt_cmap4_class_rec        10058f84     sfnt.obj
 0002:00002fb8       _tt_cmap6_class_rec        10058fb8     sfnt.obj
 0002:00002fec       _tt_cmap8_class_rec        10058fec     sfnt.obj
 0002:00003020       _tt_cmap10_class_rec       10059020     sfnt.obj
 0002:00003054       _tt_cmap12_class_rec       10059054     sfnt.obj
 0002:00003088       _tt_cmap13_class_rec       10059088     sfnt.obj
 0002:000030bc       _tt_cmap14_class_rec       100590bc     sfnt.obj
 0002:00003200       _ft_standard_raster        10059200     raster.obj
 0002:00003218       _ft_raster1_renderer_class 10059218     raster.obj
 0002:00003254       _ft_raster5_renderer_class 10059254     raster.obj
 0002:000036b0       _psnames_module_class      100596b0     psnames.obj
 0002:00004754       _pshinter_module_class     1005a754     pshinter.obj
 0002:00012600       _ps_table_funcs            10068600     psaux.obj
 0002:00012610       _ps_parser_funcs           10068610     psaux.obj
 0002:00012644       _t1_builder_funcs          10068644     psaux.obj
 0002:00012664       _t1_decoder_funcs          10068664     psaux.obj
 0002:00012670       _t1_cmap_standard_class_rec 10068670     psaux.obj
 0002:00012698       _t1_cmap_expert_class_rec  10068698     psaux.obj
 0002:000126c0       _t1_cmap_custom_class_rec  100686c0     psaux.obj
 0002:000126e8       _t1_cmap_unicode_class_rec 100686e8     psaux.obj
 0002:00012710       _t1_cmap_classes           10068710     psaux.obj
 0002:00012720       _afm_parser_funcs          10068720     psaux.obj
 0002:00012748       _psaux_module_class        10068748     psaux.obj
 0002:0001276c       _pfr_metrics_service_rec   1006876c     pfr.obj
 0002:000129b0       _pfr_driver_class          100689b0     pfr.obj
 0002:00012aac       _pfr_cmap_class_rec        10068aac     pfr.obj
 0002:00012b08       _pcf_driver_class          10068b08     pcf.obj
 0002:00012c60       _pcf_cmap_class            10068c60     pcf.obj
 0002:00012d20       _t1cid_driver_class        10068d20     type1cid.obj
 0002:000134f8       _cff_driver_class          100694f8     cff.obj
 0002:00014468       _cff_cmap_encoding_class_rec 1006a468     cff.obj
 0002:00014490       _cff_cmap_unicode_class_rec 1006a490     cff.obj
 0002:000144dc       _ftc_size_list_class       1006a4dc     ftcache.obj
 0002:000144f0       _ftc_face_list_class       1006a4f0     ftcache.obj
 0002:00014504       _ftc_cmap_cache_class      1006a504     ftcache.obj
 0002:00014524       _ftc_basic_image_family_class 1006a524     ftcache.obj
 0002:0001453c       _ftc_basic_image_cache_class 1006a53c     ftcache.obj
 0002:00014560       _ftc_basic_sbit_family_class 1006a560     ftcache.obj
 0002:0001457c       _ftc_basic_sbit_cache_class 1006a57c     ftcache.obj
 0002:000145a0       _bdf_driver_class          1006a5a0     bdf.obj
 0002:00014c40       _bdf_cmap_class            1006ac40     bdf.obj
 0002:00014cd4       _ft_bitmap_glyph_class     1006acd4     ftglyph.obj
 0002:00014cf4       _ft_outline_glyph_class    1006acf4     ftglyph.obj
 0002:00014d2c       _af_dummy_script_class     1006ad2c     autofit.obj
 0002:00014d50       _ft_raccess_guess_table    1006ad50     ftbase.obj
 0002:00014ed8       _af_latin_script_class     1006aed8     autofit.obj
 0002:00014efc       _af_cjk_script_class       1006aefc     autofit.obj
 0002:00015068       _af_indic_script_class     1006b068     autofit.obj
 0002:00015508       _af_autofitter_interface   1006b508     autofit.obj
 0002:00015518       _autofit_module_class      1006b518     autofit.obj
 0002:00015540       ??_C@_0EF@PDOBOAFB@m?3?2svn?2?4private?2mini?2umodsys?2dep@ 1006b540     autofit.obj
 0002:00015588       ??_C@_0CI@LNKHNHDB@assertion?5failed?5on?5line?5?$CFd?5of?5f@ 1006b588     autofit.obj
 0002:000155b0       ??_C@_0EE@OPBHFCIO@m?3?2svn?2?4private?2mini?2umodsys?2dep@ 1006b5b0     autofit.obj
 0002:000155f4       ??_C@_0DK@LEPJBMCE@standard?5widths?5computation?6?$DN?$DN?$DN?$DN@ 1006b5f4     autofit.obj
 0002:00015630       ??_C@_0CL@PAJPHIA@standard?5character?3?50x?$CFX?5?$CIglyph?5@ 1006b630     autofit.obj
 0002:0001565c       ??_C@_0L@LMMKHPOB@horizontal?$AA@ 1006b65c     autofit.obj
 0002:00015668       ??_C@_08NEOMLJGJ@vertical?$AA@ 1006b668     autofit.obj
 0002:00015674       ??_C@_0M@JLNCCLMF@?$CFs?5widths?3?6?$AA@ 1006b674     autofit.obj
 0002:00015680       ??_C@_0BA@KFDNFODA@?5?5?$CFd?5?$CIstandard?$CJ?$AA@ 1006b680     autofit.obj
 0002:00015690       ??_C@_03EBJOKFHF@?5?$CFd?$AA@ 1006b690     autofit.obj
 0002:00015694       ??_C@_01EEMJAFIK@?6?$AA@   1006b694     autofit.obj
 0002:00015698       ??_C@_0DA@OOEEMNDP@blue?5zones?5computation?6?$DN?$DN?$DN?$DN?$DN?$DN?$DN?$DN?$DN@ 1006b698     autofit.obj
 0002:000156c8       ??_C@_0P@OCIOIKAD@blue?5zone?5?$CFd?3?6?$AA@ 1006b6c8     autofit.obj
 0002:000156d8       ??_C@_09MLMMMFGJ@?5?5?$CFc?5?5?$CFld?$AA@ 1006b6d8     autofit.obj
 0002:000156e4       ??_C@_05MIMAKCN@round?$AA@ 1006b6e4     autofit.obj
 0002:000156ec       ??_C@_04FMBJNPFB@flat?$AA@ 1006b6ec     autofit.obj
 0002:000156f4       ??_C@_06PLAJKEKF@?5?$CI?$CFs?$CJ?6?$AA@ 1006b6f4     autofit.obj
 0002:000156fc       ??_C@_08LDNFBIDD@?5?5empty?6?$AA@ 1006b6fc     autofit.obj
 0002:00015708       ??_C@_0DJ@NLNICGBP@?5?5?$FLovershoot?5smaller?5than?5refere@ 1006b708     autofit.obj
 0002:00015744       ??_C@_0CP@JHJINMEL@?5?5?5?5?9?$DO?5reference?5?$DN?5?$CFld?6?5?5?5?5?5?5?5ov@ 1006b744     autofit.obj
 0002:00015778       ??_C@_0EF@LJFILMHI@?5?5LINK?3?5edge?5?$CFd?5?$CIopos?$DN?$CF?42f?$CJ?5link@ 1006b778     autofit.obj
 0002:000157c0       ??_C@_0BB@PNNPEEIA@?$CFs?5edge?5hinting?6?$AA@ 1006b7c0     autofit.obj
 0002:000157d8       ??_C@_0EP@IPINFLPN@?5?5BLUE_ANCHOR?3?5edge?5?$CFd?5?$CIopos?$DN?$CF?42@ 1006b7d8     autofit.obj
 0002:00015828       ??_C@_0DH@JELFDAPE@?5?5BLUE?3?5edge?5?$CFd?5?$CIopos?$DN?$CF?42f?$CJ?5snap@ 1006b828     autofit.obj
 0002:00015860       ??_C@_0CA@FCEDGMBE@?5?5ASSERTION?5FAILED?5for?5edge?5?$CFd?6?$AA@ 1006b860     autofit.obj
 0002:00015880       ??_C@_0EL@FPOPNBHO@?5?5ANCHOR?3?5edge?5?$CFd?5?$CIopos?$DN?$CF?42f?$CJ?5an@ 1006b880     autofit.obj
 0002:000158cc       ??_C@_0CM@NJDIDKKL@?5?5ADJUST?3?5edge?5?$CFd?5?$CIpos?$DN?$CF?42f?$CJ?5mov@ 1006b8cc     autofit.obj
 0002:000158f8       ??_C@_0EP@ENJHGNKO@?5?5STEM?3?5edge?5?$CFd?5?$CIopos?$DN?$CF?42f?$CJ?5link@ 1006b8f8     autofit.obj
 0002:00015948       ??_C@_0CL@PILJPGPJ@?5?5BOUND?3?5edge?5?$CFd?5?$CIpos?$DN?$CF?42f?$CJ?5move@ 1006b948     autofit.obj
 0002:00015978       ??_C@_0EG@IKDPLHHC@?5?5SERIF?3?5edge?5?$CFd?5?$CIopos?$DN?$CF?42f?$CJ?5ser@ 1006b978     autofit.obj
 0002:000159c0       ??_C@_0DF@JLBLFNAN@?5?5SERIF_ANCHOR?3?5edge?5?$CFd?5?$CIopos?$DN?$CF?4@ 1006b9c0     autofit.obj
 0002:000159f8       ??_C@_0EI@CLPFPFJH@?5?5SERIF_LINK1?3?5edge?5?$CFd?5?$CIopos?$DN?$CF?42@ 1006b9f8     autofit.obj
 0002:00015a40       ??_C@_0DE@BMCAJCJH@?5?5SERIF_LINK2?3?5edge?5?$CFd?5?$CIopos?$DN?$CF?42@ 1006ba40     autofit.obj
 0002:00015a74       ??_C@_09DOOILONG@?5?5?$CInone?$CJ?6?$AA@ 1006ba74     autofit.obj
 0002:00015a80       ??_C@_03FGFCOCMD@top?$AA@  1006ba80     autofit.obj
 0002:00015a84       ??_C@_06PMMPCIPB@bottom?$AA@ 1006ba84     autofit.obj
 0002:00015a8c       ??_C@_04GOOOJOPP@left?$AA@ 1006ba8c     autofit.obj
 0002:00015a94       ??_C@_05DHJDAOHK@right?$AA@ 1006ba94     autofit.obj
 0002:00015a9c       ??_C@_06MHLBHCFD@filled?$AA@ 1006ba9c     autofit.obj
 0002:00015aa4       ??_C@_08MDIBINJA@unfilled?$AA@ 1006baa4     autofit.obj
 0002:00015ab0       ??_C@_0BM@HCCELELM@cjk?5blue?5zones?5computation?6?$AA@ 1006bab0     autofit.obj
 0002:00015acc       ??_C@_0DC@FBKHDEOD@?9?9?9?9?9?9?9?9?9?9?9?9?9?9?9?9?9?9?9?9?9?9?9?9?9?9?9?9?9?9?9?9@ 1006bacc     autofit.obj
 0002:00015b00       ??_C@_0BA@FPDEOEBM@cjk?5blue?5?$CFs?1?$CFs?6?$AA@ 1006bb00     autofit.obj
 0002:00015b10       ??_C@_0L@FCIJFPPG@?5?5U?$CL?$CFlX?4?4?4?$AA@ 1006bb10     autofit.obj
 0002:00015b1c       ??_C@_0N@NBMNCMBF@unavailable?6?$AA@ 1006bb1c     autofit.obj
 0002:00015b2c       ??_C@_0M@DCGLHJHN@no?5outline?6?$AA@ 1006bb2c     autofit.obj
 0002:00015b38       ??_C@_0P@GFEHJDLP@best_pos?$DN?$CF5ld?6?$AA@ 1006bb38     autofit.obj
 0002:00015b48       ??_C@_06LDDHDDBG@empty?6?$AA@ 1006bb48     autofit.obj
 0002:00015b50       ??_C@_0CK@MEDHDPHI@?9?9?5cjk?5?$CFs?5bluezone?5ref?5?$DN?5?$CFld?5sho@ 1006bb50     autofit.obj
 0002:00015b7c       ??_C@_09PKPCEPOK@delta?3?5?$CFd?$AA@ 1006bb7c     autofit.obj
 0002:00015b88       ??_C@_04FIJBGEEN@?1?$CFd?6?$AA@ 1006bb88     autofit.obj
 0002:00015b90       ??_C@_0FI@KEHJLDFB@?$DO?$DO?5active?5cjk?5blue?5zone?5?$CFc?$CFd?$FL?$CFld@ 1006bb90     autofit.obj
 0002:00015be8       ??_C@_0CB@MECMNKLE@?$DN?$DN?$DN?$DN?5cjk?5hinting?5?$CFs?5edges?5?$DN?$DN?$DN?$DN?$DN?6@ 1006bbe8     autofit.obj
 0002:00015c10       ??_C@_0EA@EFLJIJKK@CJKBLUE?3?5edge?5?$CFd?5?$EA?$CFd?5?$CIopos?$DN?$CF?42f?$CJ@ 1006bc10     autofit.obj
 0002:00015c50       ??_C@_0BO@HGHDMGLP@ASSERTION?5FAILED?5for?5edge?5?$CFd?6?$AA@ 1006bc50     autofit.obj
 0002:00015c70       ??_C@_0BA@OKOILHEH@fallback?9script?$AA@ 1006bc70     autofit.obj
 0002:00015c80       ??_C@_0BC@OOHNGIJD@increase?9x?9height?$AA@ 1006bc80     autofit.obj
 0002:00015c94       ??_C@_0CI@BAHKCIED@af_property_set?3?5missing?5propert@ 1006bc94     autofit.obj
 0002:00015cbc       ??_C@_0BE@CELKBFDM@glyph?9to?9script?9map?$AA@ 1006bcbc     autofit.obj
 0002:00015cd0       ??_C@_0CI@NPCANOH@af_property_get?3?5missing?5propert@ 1006bcd0     autofit.obj
 0002:00015cf8       ??_C@_0EA@FEPGMIJA@m?3?2svn?2?4private?2mini?2umodsys?2dep@ 1006bcf8     ftbase.obj
 0002:00015d38       ??_C@_0CM@EJMEHHKF@FT_New_GlyphSlot?3?5Creating?5new?5s@ 1006bd38     ftbase.obj
 0002:00015d64       ??_C@_0BN@GHDAFOEM@FT_New_GlyphSlot?3?5Return?5?$CFd?6?$AA@ 1006bd64     ftbase.obj
 0002:00015d84       ??_C@_0BB@IOAIMLPN@?5?5x?5advance?3?5?$CFd?6?$AA@ 1006bd84     ftbase.obj
 0002:00015d98       ??_C@_0BB@DHPDBABF@?5?5y?5advance?3?5?$CFd?6?$AA@ 1006bd98     ftbase.obj
 0002:00015dac       ??_C@_0BI@JDGPFKEE@?5?5linear?5x?5advance?3?5?$CFd?6?$AA@ 1006bdac     ftbase.obj
 0002:00015dc4       ??_C@_0BI@CKJEIBKM@?5?5linear?5y?5advance?3?5?$CFd?6?$AA@ 1006bdc4     ftbase.obj
 0002:00015ddc       ??_C@_03LBLPCGAC@cid?$AA@  1006bddc     ftbase.obj
 0002:00015de0       ??_C@_05MJDCDNNA@type1?$AA@ 1006bde0     ftbase.obj
 0002:00015de8       ??_C@_0DO@FFNFKKBL@POST?5fragment?$FL?$CFd?$FN?3?5offsets?$DN0x?$CF08@ 1006bde8     ftbase.obj
 0002:00015e28       ??_C@_04LLEFIKCJ@OTTO?$AA@ 1006be28     ftbase.obj
 0002:00015e30       ??_C@_03IINFADLN@cff?$AA@  1006be30     ftbase.obj
 0002:00015e34       ??_C@_08OKLLNAKL@truetype?$AA@ 1006be34     ftbase.obj
 0002:00015e40       ??_C@_0FA@JCLMAEBF@Skip?5rule?5?$CFd?3?5darwin?5vfs?5resourc@ 1006be40     ftbase.obj
 0002:00015e90       ??_C@_0CD@FFDDFHGN@Error?$FL?$CFd?$FN?5has?5occurred?5in?5rule?5?$CF@ 1006be90     ftbase.obj
 0002:00015eb4       ??_C@_0CA@PFAALNLK@Try?5rule?5?$CFd?3?5?$CFs?5?$CIoffset?$DN?$CFd?$CJ?5?4?4?4?$AA@ 1006beb4     ftbase.obj
 0002:00015ed4       ??_C@_07GLGIIGGC@failed?6?$AA@ 1006bed4     ftbase.obj
 0002:00015edc       ??_C@_06ODACHPEO@failed?$AA@ 1006bedc     ftbase.obj
 0002:00015ee4       ??_C@_0L@LHCHIOPJ@successful?$AA@ 1006bee4     ftbase.obj
 0002:00015ef0       ??_C@_03OFAPEBGM@?$CFs?6?$AA@ 1006bef0     ftbase.obj
 0002:00015ef4       ??_C@_0BF@BBOLNHBA@Try?5as?5dfont?3?5?$CFs?5?4?4?4?$AA@ 1006bef4     ftbase.obj
 0002:00015f0c       ??_C@_0CP@IBOIBMPE@FT_Open_Face?3?5New?5face?5object?0?5a@ 1006bf0c     ftbase.obj
 0002:00015f3c       ??_C@_0CD@CHCDOGML@FT_Open_Face?3?5Creating?5glyph?5slo@ 1006bf3c     ftbase.obj
 0002:00015f60       ??_C@_0CE@BJBAHAEB@FT_Open_Face?3?5Creating?5size?5obje@ 1006bf60     ftbase.obj
 0002:00015f84       ??_C@_0BJ@MEHPJOJJ@FT_Open_Face?3?5Return?5?$CFd?6?$AA@ 1006bf84     ftbase.obj
 0002:00015fa0       ??_C@_0CJ@DDDPHPIG@FT_Match_Size?3?5bitmap?5strike?5?$CFd?5@ 1006bfa0     ftbase.obj
 0002:00015fcc       ??_C@_0BE@MLDMBGGF@FT_Select_Metrics?3?6?$AA@ 1006bfcc     ftbase.obj
 0002:00015fe0       ??_C@_0BE@ELENCOCM@?5?5x?5scale?3?5?$CFd?5?$CI?$CFf?$CJ?6?$AA@ 1006bfe0     ftbase.obj
 0002:00015ff4       ??_C@_0BE@KEBPJIMN@?5?5y?5scale?3?5?$CFd?5?$CI?$CFf?$CJ?6?$AA@ 1006bff4     ftbase.obj
 0002:00016008       ??_C@_0BA@IMDJILLD@?5?5ascender?3?5?$CFf?6?$AA@ 1006c008     ftbase.obj
 0002:00016018       ??_C@_0BB@NOOFJCKE@?5?5descender?3?5?$CFf?6?$AA@ 1006c018     ftbase.obj
 0002:0001602c       ??_C@_0O@BECDBCKD@?5?5height?3?5?$CFf?6?$AA@ 1006c02c     ftbase.obj
 0002:0001603c       ??_C@_0BD@CKEHEIOI@?5?5max?5advance?3?5?$CFf?6?$AA@ 1006c03c     ftbase.obj
 0002:00016050       ??_C@_0O@MGPJNHMK@?5?5x?5ppem?3?5?$CFd?6?$AA@ 1006c050     ftbase.obj
 0002:00016060       ??_C@_0O@FNFMJLKF@?5?5y?5ppem?3?5?$CFd?6?$AA@ 1006c060     ftbase.obj
 0002:00016070       ??_C@_0BF@NOKCMJFG@FT_Request_Metrics?3?6?$AA@ 1006c070     ftbase.obj
 0002:00016088       ??_C@_0CP@GKDGDPHD@FT_Select_Size?5?$CIfont?5driver?8s?5?$GAs@ 1006c088     ftbase.obj
 0002:000160b8       ??_C@_0DB@EGLCAILO@FT_Request_Size?5?$CIfont?5driver?8s?5?$GA@ 1006c0b8     ftbase.obj
 0002:000160ec       ??_C@_07IAOBDJBM@kerning?$AA@ 1006c0ec     ftbase.obj
 0002:000160f4       ??_C@_0CG@CKMEHECH@FT_Get_Char_Index?3?5too?5large?5cha@ 1006c0f4     ftbase.obj
 0002:0001611c       ??_C@_0BE@MNGPDEEO@?50x?$CFx?5is?5truncated?6?$AA@ 1006c11c     ftbase.obj
 0002:00016130       ??_C@_0CN@FFPLHPNK@FT_Get_Char_Index?3?5too?5large?5var@ 1006c130     ftbase.obj
 0002:00016160       ??_C@_0L@POCJHJKN@glyph?9dict?$AA@ 1006c160     ftbase.obj
 0002:0001616c       ??_C@_0BF@GDPJODJF@postscript?9font?9name?$AA@ 1006c16c     ftbase.obj
 0002:00016184       ??_C@_0L@MBBJBANC@sfnt?9table?$AA@ 1006c184     ftbase.obj
 0002:00016190       ??_C@_08OHCKCLF@tt?9cmaps?$AA@ 1006c190     ftbase.obj
 0002:0001619c       ??_C@_0CC@GCGCHKFH@MD5?5checksum?5for?5?$CFdx?$CFd?5bitmap?3?6?5@ 1006c19c     ftbase.obj
 0002:000161c0       ??_C@_04JFFKLGJF@?$CF02X?$AA@ 1006c1c0     ftbase.obj
 0002:000161c8       ??_C@_0BA@EFHAKNKK@FT_Property_Set?$AA@ 1006c1c8     ftbase.obj
 0002:000161d8       ??_C@_0BA@JKALGNGC@FT_Property_Get?$AA@ 1006c1d8     ftbase.obj
 0002:000161e8       ??_C@_0BM@PCLLPLNH@?$CFs?3?5can?8t?5find?5module?5?$GA?$CFs?8?6?$AA@ 1006c1e8     ftbase.obj
 0002:00016204       ??_C@_0CM@OCOCNMJK@?$CFs?3?5module?5?$GA?$CFs?8?5doesn?8t?5support?5@ 1006c204     ftbase.obj
 0002:00016230       ??_C@_0CP@KPKEMLC@?$CFs?3?5property?5service?5of?5module?5?$GA@ 1006c230     ftbase.obj
 0002:00016260       ??_C@_06GNKBHGHD@type42?$AA@ 1006c260     ftbase.obj
 0002:00016268       ??_C@_0CF@CMLHDJPN@FT_Done_Library?3?5close?5faces?5for@ 1006c268     ftbase.obj
 0002:00016290       ??_C@_0CM@IAHJFBLJ@FT_Done_Library?3?5failed?5to?5free?5@ 1006c290     ftbase.obj
 0002:000162bc       ??_C@_0BA@DHLLBDBB@truetype?9engine?$AA@ 1006c2bc     ftbase.obj
 0002:000162cc       ??_C@_0CC@FHPGBHIE@FT_Outline_Decompose?3?5Outline?5?$CFd@ 1006c2cc     ftbase.obj
 0002:000162f0       ??_C@_0BI@GMIFLDHO@?5?5move?5to?5?$CI?$CF?42f?0?5?$CF?42f?$CJ?6?$AA@ 1006c2f0     ftbase.obj
 0002:00016308       ??_C@_0BI@PAINKPOP@?5?5line?5to?5?$CI?$CF?42f?0?5?$CF?42f?$CJ?6?$AA@ 1006c308     ftbase.obj
 0002:00016320       ??_C@_0DD@EHHABHHE@?5?5conic?5to?5?$CI?$CF?42f?0?5?$CF?42f?$CJ?5with?5con@ 1006c320     ftbase.obj
 0002:00016358       ??_C@_0EF@NIEBKFCN@?5?5cubic?5to?5?$CI?$CF?42f?0?5?$CF?42f?$CJ?5with?5con@ 1006c358     ftbase.obj
 0002:000163a0       ??_C@_0BM@HMGKFOOF@FT_Outline_Decompose?3?5Done?6?$AA@ 1006c3a0     ftbase.obj
 0002:000163bc       ??_C@_0CA@HIGGMNGK@FT_Outline_Decompose?3?5Error?5?$CFd?6?$AA@ 1006c3bc     ftbase.obj
 0002:000163dc       ??_C@_0BJ@PBBBNBMA@Resource?5tags?3?5?$CFc?$CFc?$CFc?$CFc?6?$AA@ 1006c3dc     ftbase.obj
 0002:000163f8       ??_C@_02PEOAMJM@?4_?$AA@   1006c3f8     ftbase.obj
 0002:000163fc       ??_C@_05FLPKNBDI@?1rsrc?$AA@ 1006c3fc     ftbase.obj
 0002:00016404       ??_C@_0BC@OBHLCHMP@?1?4?4namedfork?1rsrc?$AA@ 1006c404     ftbase.obj
 0002:00016418       ??_C@_0O@FDMCFKOC@resource?4frk?1?$AA@ 1006c418     ftbase.obj
 0002:00016428       ??_C@_0L@FGJFJHGF@?4resource?1?$AA@ 1006c428     ftbase.obj
 0002:00016434       ??_C@_01FGNFDNOH@?$CF?$AA@ 1006c434     ftbase.obj
 0002:00016438       ??_C@_0O@KCDCBAF@?4AppleDouble?1?$AA@ 1006c438     ftbase.obj
 0002:00016448       ??_C@_0DI@JDEEOCCA@FT_Stream_Seek?3?5invalid?5i?1o?$DL?5pos@ 1006c448     ftbase.obj
 0002:00016480       ??_C@_0EC@NDBPMFKN@m?3?2svn?2?4private?2mini?2umodsys?2dep@ 1006c480     ftbase.obj
 0002:000164c4       ??_C@_0DK@PCCEOJMP@FT_Stream_ReadAt?3?5invalid?5i?1o?$DL?5p@ 1006c4c4     ftbase.obj
 0002:00016500       ??_C@_0DN@KPBHPHNM@FT_Stream_ReadAt?3?5invalid?5read?$DL?5@ 1006c500     ftbase.obj
 0002:00016540       ??_C@_0EG@GDLBILGJ@FT_Stream_EnterFrame?3?5frame?5size@ 1006c540     ftbase.obj
 0002:00016588       ??_C@_0EB@PPLLFEKJ@FT_Stream_EnterFrame?3?5invalid?5re@ 1006c588     ftbase.obj
 0002:000165d0       ??_C@_0EL@CLEGLINF@FT_Stream_EnterFrame?3?5invalid?5i?1@ 1006c5d0     ftbase.obj
 0002:0001661c       ??_C@_0DM@FACLPPPE@FT_Stream_ReadChar?3?5invalid?5i?1o?$DL@ 1006c61c     ftbase.obj
 0002:00016658       ??_C@_0DO@MOMJLNNP@FT_Stream_ReadUShort?3?5invalid?5i?1@ 1006c658     ftbase.obj
 0002:00016698       ??_C@_0EA@CJCFGHBO@FT_Stream_ReadUShortLE?3?5invalid?5@ 1006c698     ftbase.obj
 0002:000166d8       ??_C@_0DP@ECOCMLKO@FT_Stream_ReadUOffset?3?5invalid?5i@ 1006c6d8     ftbase.obj
 0002:00016718       ??_C@_0DN@NOIDKAGM@FT_Stream_ReadULong?3?5invalid?5i?1o@ 1006c718     ftbase.obj
 0002:00016758       ??_C@_0DP@IFMLOGPG@FT_Stream_ReadULongLE?3?5invalid?5i@ 1006c758     ftbase.obj
 0002:00016798       ??_C@_0EA@NANNHIP@m?3?2svn?2?4private?2mini?2umodsys?2dep@ 1006c798     ftbase.obj
 0002:000167d8       ??_C@_06CBNNOCOG@afwarp?$AA@ 1006c7d8     ftdebug.obj
 0002:000167e0       ??_C@_08COJBGBDJ@aflatin2?$AA@ 1006c7e0     ftdebug.obj
 0002:000167ec       ??_C@_07ONLLOJPN@aflatin?$AA@ 1006c7ec     ftdebug.obj
 0002:000167f4       ??_C@_05HBDNKEDJ@afcjk?$AA@ 1006c7f4     ftdebug.obj
 0002:000167fc       ??_C@_07JCGMALOO@afhints?$AA@ 1006c7fc     ftdebug.obj
 0002:00016804       ??_C@_08DOLNGLKF@afmodule?$AA@ 1006c804     ftdebug.obj
 0002:00016810       ??_C@_07GDECIBGG@gxvlcar?$AA@ 1006c810     ftdebug.obj
 0002:00016818       ??_C@_07BGFPIEJH@gxvprop?$AA@ 1006c818     ftdebug.obj
 0002:00016820       ??_C@_07EAHHMEMH@gxvtrak?$AA@ 1006c820     ftdebug.obj
 0002:00016828       ??_C@_07HIJAAIEJ@gxvopbd?$AA@ 1006c828     ftdebug.obj
 0002:00016830       ??_C@_07MBOECNO@gxvkern?$AA@ 1006c830     ftdebug.obj
 0002:00016838       ??_C@_07NAIIKMBN@gxvjust?$AA@ 1006c838     ftdebug.obj
 0002:00016840       ??_C@_07GCMEKGJG@gxvbsln?$AA@ 1006c840     ftdebug.obj
 0002:00016848       ??_C@_07PAHLOCMN@gxvmorx?$AA@ 1006c848     ftdebug.obj
 0002:00016850       ??_C@_07FMMOKNMB@gxvmort?$AA@ 1006c850     ftdebug.obj
 0002:00016858       ??_C@_07FKMDGBJN@gxvfeat?$AA@ 1006c858     ftdebug.obj
 0002:00016860       ??_C@_09FNONMMLL@gxvcommon?$AA@ 1006c860     ftdebug.obj
 0002:0001686c       ??_C@_09HENNMNHF@gxvmodule?$AA@ 1006c86c     ftdebug.obj
 0002:00016878       ??_C@_07EKKOIKNM@otvmath?$AA@ 1006c878     ftdebug.obj
 0002:00016880       ??_C@_07JMBNOEFG@otvjstf?$AA@ 1006c880     ftdebug.obj
 0002:00016888       ??_C@_07BCDIPNE@otvgsub?$AA@ 1006c888     ftdebug.obj
 0002:00016890       ??_C@_07FBPOCFIM@otvgpos?$AA@ 1006c890     ftdebug.obj
 0002:00016898       ??_C@_07LEKHIGIG@otvgdef?$AA@ 1006c898     ftdebug.obj
 0002:000168a0       ??_C@_07HIBPHFMF@otvbase?$AA@ 1006c8a0     ftdebug.obj
 0002:000168a8       ??_C@_09KIAOHPFL@otvcommon?$AA@ 1006c8a8     ftdebug.obj
 0002:000168b4       ??_C@_09IBDOHOJF@otvmodule?$AA@ 1006c8b4     ftdebug.obj
 0002:000168c0       ??_C@_03OENHCMJJ@pfr?$AA@  1006c8c0     ftdebug.obj
 0002:000168c4       ??_C@_06JKJAADNN@bdflib?$AA@ 1006c8c4     ftdebug.obj
 0002:000168cc       ??_C@_09GOBMAGKP@bdfdriver?$AA@ 1006c8cc     ftdebug.obj
 0002:000168d8       ??_C@_07JFBALABD@pcfread?$AA@ 1006c8d8     ftdebug.obj
 0002:000168e0       ??_C@_09CJCGDKLD@pcfdriver?$AA@ 1006c8e0     ftdebug.obj
 0002:000168ec       ??_C@_06FFPCKLJN@winfnt?$AA@ 1006c8ec     ftdebug.obj
 0002:000168f4       ??_C@_08OMDOPHJG@cidparse?$AA@ 1006c8f4     ftdebug.obj
 0002:00016900       ??_C@_07ICONHIGD@cidobjs?$AA@ 1006c900     ftdebug.obj
 0002:00016908       ??_C@_07DOPBLBBJ@cidload?$AA@ 1006c908     ftdebug.obj
 0002:00016910       ??_C@_08KOLHMIBJ@cidgload?$AA@ 1006c910     ftdebug.obj
 0002:0001691c       ??_C@_09DCLEINLL@ciddriver?$AA@ 1006c91c     ftdebug.obj
 0002:00016928       ??_C@_06IEBHMLPI@cidafm?$AA@ 1006c928     ftdebug.obj
 0002:00016930       ??_C@_03PEPEAOBF@t42?$AA@  1006c930     ftdebug.obj
 0002:00016934       ??_C@_09JKAEGHDO@cf2interp?$AA@ 1006c934     ftdebug.obj
 0002:00016940       ??_C@_08KJPGLJPF@cf2hints?$AA@ 1006c940     ftdebug.obj
 0002:0001694c       ??_C@_08FKHBAMDK@cf2blues?$AA@ 1006c94c     ftdebug.obj
 0002:00016958       ??_C@_08KCIBPEBD@cffparse?$AA@ 1006c958     ftdebug.obj
 0002:00016964       ??_C@_07DJGNKJIB@cffobjs?$AA@ 1006c964     ftdebug.obj
 0002:0001696c       ??_C@_07IFHBGAPL@cffload?$AA@ 1006c96c     ftdebug.obj
 0002:00016974       ??_C@_08OAAIMLJM@cffgload?$AA@ 1006c974     ftdebug.obj
 0002:00016980       ??_C@_09KPCIEFBH@cffdriver?$AA@ 1006c980     ftdebug.obj
 0002:0001698c       ??_C@_08OELDONBA@pshalgo2?$AA@ 1006c98c     ftdebug.obj
 0002:00016998       ??_C@_08MPJOLOND@pshalgo1?$AA@ 1006c998     ftdebug.obj
 0002:000169a4       ??_C@_06GLPFOKPB@pshrec?$AA@ 1006c9a4     ftdebug.obj
 0002:000169ac       ??_C@_06IFLGFNFH@psconv?$AA@ 1006c9ac     ftdebug.obj
 0002:000169b4       ??_C@_06MIFCDEBC@psobjs?$AA@ 1006c9b4     ftdebug.obj
 0002:000169bc       ??_C@_08DAJNMKKC@t1decode?$AA@ 1006c9bc     ftdebug.obj
 0002:000169c8       ??_C@_07JMKIGDNK@t1parse?$AA@ 1006c9c8     ftdebug.obj
 0002:000169d0       ??_C@_06HOINLLGG@t1objs?$AA@ 1006c9d0     ftdebug.obj
 0002:000169d8       ??_C@_06MCJBHCBM@t1load?$AA@ 1006c9d8     ftdebug.obj
 0002:000169e0       ??_C@_06FDOENOGM@t1hint?$AA@ 1006c9e0     ftdebug.obj
 0002:000169e8       ??_C@_07NOCBFMFF@t1gload?$AA@ 1006c9e8     ftdebug.obj
 0002:000169f0       ??_C@_08ENKOBGJE@t1driver?$AA@ 1006c9f0     ftdebug.obj
 0002:000169fc       ??_C@_05FNFMLCKD@t1afm?$AA@ 1006c9fc     ftdebug.obj
 0002:00016a04       ??_C@_07GMPLJKAL@ttgxvar?$AA@ 1006ca04     ftdebug.obj
 0002:00016a0c       ??_C@_07NGMBDEKI@ttpload?$AA@ 1006ca0c     ftdebug.obj
 0002:00016a14       ??_C@_06CBBICALJ@ttobjs?$AA@ 1006ca14     ftdebug.obj
 0002:00016a1c       ??_C@_08MIJDAFAI@ttinterp?$AA@ 1006ca1c     ftdebug.obj
 0002:00016a28       ??_C@_07MIBCAGIL@ttgload?$AA@ 1006ca28     ftdebug.obj
 0002:00016a30       ??_C@_08CMNDNKBN@ttdriver?$AA@ 1006ca30     ftdebug.obj
 0002:00016a3c       ??_C@_05DPIKMHNB@ttbdf?$AA@ 1006ca3c     ftdebug.obj
 0002:00016a44       ??_C@_06MJAPHCKE@ttsbit?$AA@ 1006ca44     ftdebug.obj
 0002:00016a4c       ??_C@_06GNHEPGAP@ttpost?$AA@ 1006ca4c     ftdebug.obj
 0002:00016a54       ??_C@_05KPIOELCI@ttmtx?$AA@ 1006ca54     ftdebug.obj
 0002:00016a5c       ??_C@_06JNAEOJMD@ttload?$AA@ 1006ca5c     ftdebug.obj
 0002:00016a64       ??_C@_06KEBGCABE@ttkern?$AA@ 1006ca64     ftdebug.obj
 0002:00016a6c       ??_C@_06JLPDGBMM@ttcmap?$AA@ 1006ca6c     ftdebug.obj
 0002:00016a74       ??_C@_06KKKBLNKH@sfobjs?$AA@ 1006ca74     ftdebug.obj
 0002:00016a7c       ??_C@_08HGCMIBIC@sfdriver?$AA@ 1006ca7c     ftdebug.obj
 0002:00016a88       ??_C@_05BDNCCAMC@cache?$AA@ 1006ca88     ftdebug.obj
 0002:00016a90       ??_C@_06PCHFJCOP@bitmap?$AA@ 1006ca90     ftdebug.obj
 0002:00016a98       ??_C@_05BCGMACJO@synth?$AA@ 1006ca98     ftdebug.obj
 0002:00016aa0       ??_C@_07FHMGHKEO@raccess?$AA@ 1006caa0     ftdebug.obj
 0002:00016aa8       ??_C@_02JAOCGLHE@mm?$AA@   1006caa8     ftdebug.obj
 0002:00016aac       ??_C@_06INICNAFJ@smooth?$AA@ 1006caac     ftdebug.obj
 0002:00016ab4       ??_C@_06NDPGICBH@raster?$AA@ 1006cab4     ftdebug.obj
 0002:00016abc       ??_C@_07LGEEDODM@gloader?$AA@ 1006cabc     ftdebug.obj
 0002:00016ac4       ??_C@_05OIOMJNBL@glyph?$AA@ 1006cac4     ftdebug.obj
 0002:00016acc       ??_C@_07PNNKHJNH@outline?$AA@ 1006cacc     ftdebug.obj
 0002:00016ad4       ??_C@_04PCMCLDDF@objs?$AA@ 1006cad4     ftdebug.obj
 0002:00016adc       ??_C@_04HKFDNBLD@init?$AA@ 1006cadc     ftdebug.obj
 0002:00016ae4       ??_C@_04DONFEANM@list?$AA@ 1006cae4     ftdebug.obj
 0002:00016aec       ??_C@_02KFNNKBCK@io?$AA@   1006caec     ftdebug.obj
 0002:00016af0       ??_C@_06DJAMKFID@stream?$AA@ 1006caf0     ftdebug.obj
 0002:00016af8       ??_C@_06HLKELJGF@memory?$AA@ 1006caf8     ftdebug.obj
 0002:00016b00       ??_C@_04GLMIJPDJ@calc?$AA@ 1006cb00     ftdebug.obj
 0002:00016b08       ??_C@_03OBJFJEBA@any?$AA@  1006cb08     ftdebug.obj
 0002:00016b0c       ??_C@_09FCJCAHCG@FT2_DEBUG?$AA@ 1006cb0c     ftdebug.obj
 0002:00016b18       ??_C@_02JDPG@rb?$AA@       1006cb18     ftsystem.obj
 0002:00016b1c       ??_C@_0CF@LMIGAOPM@FT_Stream_Open?3?5could?5not?5open?5?$GA@ 1006cb1c     ftsystem.obj
 0002:00016b44       ??_C@_0BA@KAPCMOHL@FT_Stream_Open?3?$AA@ 1006cb44     ftsystem.obj
 0002:00016b54       ??_C@_0BN@JBDDLAFC@?5opened?5?$GA?$CFs?8?5but?5zero?9sized?6?$AA@ 1006cb54     ftsystem.obj
 0002:00016b74       ??_C@_0CG@GFJCIDNE@?5opened?5?$GA?$CFs?8?5?$CI?$CFd?5bytes?$CJ?5successf@ 1006cb74     ftsystem.obj
 0002:00016b9c       ??_C@_0DK@DKMFEICM@FT_Add_Default_Module?3?5Cannot?5in@ 1006cb9c     ftinit.obj
 0002:00016bd8       ??_C@_0CO@LBAOJIKG@FT_Init_FreeType?3?5cannot?5find?5me@ 1006cbd8     ftinit.obj
 0002:00016c08       ??_C@_0CO@OKBDGIFP@?4?4?2?4?4?2?4?4?2depends?2freetype?2src?2ba@ 1006cc08     ftstroke.obj
 0002:00016c38       ??_C@_03DOBGHNMK@BDF?$AA@  1006cc38     bdf.obj
 0002:00016c3c       ??_C@_0BB@PMIOOMFN@xf86?9driver?9name?$AA@ 1006cc3c     bdf.obj
 0002:00016c50       ??_C@_0BH@EGBLCDE@_MULE_RELATIVE_COMPOSE?$AA@ 1006cc50     bdf.obj
 0002:00016c68       ??_C@_0BG@NJJHMBCE@_MULE_BASELINE_OFFSET?$AA@ 1006cc68     bdf.obj
 0002:00016c80       ??_C@_08IHHFFHAA@X_HEIGHT?$AA@ 1006cc80     bdf.obj
 0002:00016c8c       ??_C@_0M@FCJHKPGH@WEIGHT_NAME?$AA@ 1006cc8c     bdf.obj
 0002:00016c98       ??_C@_06CIAKHCPD@WEIGHT?$AA@ 1006cc98     bdf.obj
 0002:00016ca0       ??_C@_0BE@KDKNDDDB@UNDERLINE_THICKNESS?$AA@ 1006cca0     bdf.obj
 0002:00016cb4       ??_C@_0BD@FLNBCMPP@UNDERLINE_POSITION?$AA@ 1006ccb4     bdf.obj
 0002:00016cc8       ??_C@_0O@EHDLJGOB@SUPERSCRIPT_Y?$AA@ 1006ccc8     bdf.obj
 0002:00016cd8       ??_C@_0O@FOCAKHKA@SUPERSCRIPT_X?$AA@ 1006ccd8     bdf.obj
 0002:00016ce8       ??_C@_0BB@HOLJGBFI@SUPERSCRIPT_SIZE?$AA@ 1006cce8     bdf.obj
 0002:00016cfc       ??_C@_0M@FMFMNELO@SUBSCRIPT_Y?$AA@ 1006ccfc     bdf.obj
 0002:00016d08       ??_C@_0M@EFEHOFPP@SUBSCRIPT_X?$AA@ 1006cd08     bdf.obj
 0002:00016d14       ??_C@_0P@IMANBLC@SUBSCRIPT_SIZE?$AA@ 1006cd14     bdf.obj
 0002:00016d24       ??_C@_0BC@PCLONKLB@STRIKEOUT_DESCENT?$AA@ 1006cd24     bdf.obj
 0002:00016d38       ??_C@_0BB@MOJIHJPL@STRIKEOUT_ASCENT?$AA@ 1006cd38     bdf.obj
 0002:00016d4c       ??_C@_07JKNGKIOL@SPACING?$AA@ 1006cd4c     bdf.obj
 0002:00016d54       ??_C@_0P@CJBLANOF@SMALL_CAP_SIZE?$AA@ 1006cd54     bdf.obj
 0002:00016d64       ??_C@_05NOFPJGIP@SLANT?$AA@ 1006cd64     bdf.obj
 0002:00016d6c       ??_C@_0O@DANCJNNA@SETWIDTH_NAME?$AA@ 1006cd6c     bdf.obj
 0002:00016d7c       ??_C@_0N@MICMOIBI@RESOLUTION_Y?$AA@ 1006cd7c     bdf.obj
 0002:00016d8c       ??_C@_0N@NBDHNJFJ@RESOLUTION_X?$AA@ 1006cd8c     bdf.obj
 0002:00016d9c       ??_C@_0L@JGAABLGD@RESOLUTION?$AA@ 1006cd9c     bdf.obj
 0002:00016da8       ??_C@_0BA@NKHOPHOP@RELATIVE_WEIGHT?$AA@ 1006cda8     bdf.obj
 0002:00016db8       ??_C@_0BC@JMGAMBDF@RELATIVE_SETWIDTH?$AA@ 1006cdb8     bdf.obj
 0002:00016dcc       ??_C@_0N@LFICGJOL@RAW_X_HEIGHT?$AA@ 1006cdcc     bdf.obj
 0002:00016ddc       ??_C@_0BI@OEPMFPAK@RAW_UNDERLINE_THICKNESS?$AA@ 1006cddc     bdf.obj
 0002:00016df4       ??_C@_0BH@LIHCGIBB@RAW_UNDERLINE_POSITION?$AA@ 1006cdf4     bdf.obj
 0002:00016e0c       ??_C@_0BC@FFDANOJJ@RAW_SUPERSCRIPT_Y?$AA@ 1006ce0c     bdf.obj
 0002:00016e20       ??_C@_0BC@EMCLOPNI@RAW_SUPERSCRIPT_X?$AA@ 1006ce20     bdf.obj
 0002:00016e34       ??_C@_0BF@ILCJEECH@RAW_SUPERSCRIPT_SIZE?$AA@ 1006ce34     bdf.obj
 0002:00016e4c       ??_C@_0BA@JLPHJHAP@RAW_SUBSCRIPT_Y?$AA@ 1006ce4c     bdf.obj
 0002:00016e5c       ??_C@_0BA@ICOMKGEO@RAW_SUBSCRIPT_X?$AA@ 1006ce5c     bdf.obj
 0002:00016e6c       ??_C@_0BD@FGAMCDPE@RAW_SUBSCRIPT_SIZE?$AA@ 1006ce6c     bdf.obj
 0002:00016e80       ??_C@_0BG@DCPBCGDJ@RAW_STRIKEOUT_DESCENT?$AA@ 1006ce80     bdf.obj
 0002:00016e98       ??_C@_0BF@DLAIFMIE@RAW_STRIKEOUT_ASCENT?$AA@ 1006ce98     bdf.obj
 0002:00016eb0       ??_C@_0BD@HHNHPPKD@RAW_SMALL_CAP_SIZE?$AA@ 1006ceb0     bdf.obj
 0002:00016ec4       ??_C@_0P@LMDGMIPB@RAW_QUAD_WIDTH?$AA@ 1006cec4     bdf.obj
 0002:00016ed4       ??_C@_0O@FDNDDOFA@RAW_POINTSIZE?$AA@ 1006ced4     bdf.obj
 0002:00016ee4       ??_C@_0O@HNFKKCGD@RAW_PIXELSIZE?$AA@ 1006cee4     bdf.obj
 0002:00016ef4       ??_C@_0P@OOHCGKOO@RAW_POINT_SIZE?$AA@ 1006cef4     bdf.obj
 0002:00016f04       ??_C@_0P@FBIMICGE@RAW_PIXEL_SIZE?$AA@ 1006cf04     bdf.obj
 0002:00016f14       ??_C@_0P@FGMOAACN@RAW_NORM_SPACE?$AA@ 1006cf14     bdf.obj
 0002:00016f24       ??_C@_0O@LFBDCJJJ@RAW_MIN_SPACE?$AA@ 1006cf24     bdf.obj
 0002:00016f34       ??_C@_0O@LEBPLDCN@RAW_MAX_SPACE?$AA@ 1006cf34     bdf.obj
 0002:00016f44       ??_C@_0BB@LHIJKBAI@RAW_FIGURE_WIDTH?$AA@ 1006cf44     bdf.obj
 0002:00016f58       ??_C@_0O@FDGFBIGM@RAW_END_SPACE?$AA@ 1006cf58     bdf.obj
 0002:00016f68       ??_C@_0M@JDDLHGCG@RAW_DESCENT?$AA@ 1006cf68     bdf.obj
 0002:00016f74       ??_C@_0P@PDBKEGFB@RAW_CAP_HEIGHT?$AA@ 1006cf74     bdf.obj
 0002:00016f84       ??_C@_0BI@BEKJFFLM@RAW_AVG_LOWERCASE_WIDTH?$AA@ 1006cf84     bdf.obj
 0002:00016f9c       ??_C@_0BG@PEMOHOIO@RAW_AVG_CAPITAL_WIDTH?$AA@ 1006cf9c     bdf.obj
 0002:00016fb4       ??_C@_0BC@LNOEENJF@RAW_AVERAGE_WIDTH?$AA@ 1006cfb4     bdf.obj
 0002:00016fc8       ??_C@_0L@CAMLDNCF@RAW_ASCENT?$AA@ 1006cfc8     bdf.obj
 0002:00016fd4       ??_C@_0L@MANNMNIK@QUAD_WIDTH?$AA@ 1006cfd4     bdf.obj
 0002:00016fe0       ??_C@_0L@JCJJGPJF@POINT_SIZE?$AA@ 1006cfe0     bdf.obj
 0002:00016fec       ??_C@_0L@CNGHIHBP@PIXEL_SIZE?$AA@ 1006cfec     bdf.obj
 0002:00016ff8       ??_C@_06FMPEGAHJ@NOTICE?$AA@ 1006cff8     bdf.obj
 0002:00017000       ??_C@_0L@CKCFAFFG@NORM_SPACE?$AA@ 1006d000     bdf.obj
 0002:0001700c       ??_C@_09ICPJOFFH@MIN_SPACE?$AA@ 1006d00c     bdf.obj
 0002:00017018       ??_C@_09IDPFHPOD@MAX_SPACE?$AA@ 1006d018     bdf.obj
 0002:00017024       ??_C@_0N@LHJKBLMB@ITALIC_ANGLE?$AA@ 1006d024     bdf.obj
 0002:00017034       ??_C@_09IGHCOKHJ@FULL_NAME?$AA@ 1006d034     bdf.obj
 0002:00017040       ??_C@_07GMNLECKJ@FOUNDRY?$AA@ 1006d040     bdf.obj
 0002:00017048       ??_C@_0N@BAIKBLGK@FONT_DESCENT?$AA@ 1006d048     bdf.obj
 0002:00017058       ??_C@_0M@ECCDLGDC@FONT_ASCENT?$AA@ 1006d058     bdf.obj
 0002:00017064       ??_C@_0BC@LNICJLFI@FONTNAME_REGISTRY?$AA@ 1006d064     bdf.obj
 0002:00017078       ??_C@_04IJMKNFPK@FONT?$AA@ 1006d078     bdf.obj
 0002:00017080       ??_C@_0N@LCIIJFB@FIGURE_WIDTH?$AA@ 1006d080     bdf.obj
 0002:00017090       ??_C@_0M@FBEHGJKE@FAMILY_NAME?$AA@ 1006d090     bdf.obj
 0002:0001709c       ??_C@_09DLOGKOHL@FACE_NAME?$AA@ 1006d09c     bdf.obj
 0002:000170a8       ??_C@_09GEIPNEKC@END_SPACE?$AA@ 1006d0a8     bdf.obj
 0002:000170b4       ??_C@_0BB@PJMJCLEI@DEVICE_FONT_NAME?$AA@ 1006d0b4     bdf.obj
 0002:000170c8       ??_C@_0M@LFJMPFGC@DESTINATION?$AA@ 1006d0c8     bdf.obj
 0002:000170d4       ??_C@_0N@LOGJBDOF@DEFAULT_CHAR?$AA@ 1006d0d4     bdf.obj
 0002:000170e4       ??_C@_09DJIAAPDG@COPYRIGHT?$AA@ 1006d0e4     bdf.obj
 0002:000170f0       ??_C@_07JEDAPFNH@COMMENT?$AA@ 1006d0f0     bdf.obj
 0002:000170f8       ??_C@_0BB@OHIDJKBJ@CHARSET_REGISTRY?$AA@ 1006d0f8     bdf.obj
 0002:0001710c       ??_C@_0BB@OBJAMPOC@CHARSET_ENCODING?$AA@ 1006d10c     bdf.obj
 0002:00017120       ??_C@_0BE@KNHMGHPI@CHARSET_COLLECTIONS?$AA@ 1006d120     bdf.obj
 0002:00017134       ??_C@_0L@IPPBEDCK@CAP_HEIGHT?$AA@ 1006d134     bdf.obj
 0002:00017140       ??_C@_0BE@FDPIDJIH@AVG_LOWERCASE_WIDTH?$AA@ 1006d140     bdf.obj
 0002:00017154       ??_C@_0BC@DEIBICAG@AVG_CAPITAL_WIDTH?$AA@ 1006d154     bdf.obj
 0002:00017168       ??_C@_0O@KPOPAFON@AVERAGE_WIDTH?$AA@ 1006d168     bdf.obj
 0002:00017178       ??_C@_0P@BLEODLOA@ADD_STYLE_NAME?$AA@ 1006d178     bdf.obj
 0002:00017188       ??_C@_03DDONLALG@bdf?$AA@  1006d188     bdf.obj
 0002:0001718c       ??_C@_0DC@DLBACEAA@_bdf_readstream?3?5?$FLline?5?$CFld?$FN?5Inpu@ 1006d18c     bdf.obj
 0002:000171c0       ??_C@_0DK@EDMDNOHE@_bdf_set_default_spacing?3?5?$FLline?5@ 1006d1c0     bdf.obj
 0002:000171fc       ??_C@_01JOAMLHOP@?9?$AA@   1006d1fc     bdf.obj
 0002:00017200       ??_C@_0DD@DCHAPBD@_bdf_add_property?3?5?$FLline?5?$CFld?$FN?5In@ 1006d200     bdf.obj
 0002:00017234       ??_C@_05HCHEPOAH@CHARS?$AA@ 1006d234     bdf.obj
 0002:0001723c       ??_C@_0DC@DDOGKPDM@_bdf_parse_glyphs?3?5?$FLline?5?$CFld?$FN?5Mi@ 1006d23c     bdf.obj
 0002:00017270       ??_C@_02EOIDJNGE@?5?$CL?$AA@ 1006d270     bdf.obj
 0002:00017274       ??_C@_0DD@GMPJEGEF@_bdf_parse_glyphs?3?5?$FLline?5?$CFld?$FN?5?$GA?$CF@ 1006d274     bdf.obj
 0002:000172a8       ??_C@_07MLEKHHFJ@ENDFONT?$AA@ 1006d2a8     bdf.obj
 0002:000172b0       ??_C@_07MDHLCACL@ENDCHAR?$AA@ 1006d2b0     bdf.obj
 0002:000172b8       ??_C@_09BPKMEANO@STARTCHAR?$AA@ 1006d2b8     bdf.obj
 0002:000172c4       ??_C@_0DD@KLDEHACG@_bdf_parse_glyphs?3?5?$FLline?5?$CFld?$FN?5In@ 1006d2c4     bdf.obj
 0002:000172f8       ??_C@_0M@FFOBOMLB@?5?5?$FL?$CF6ld?$FN?5?$CFs?$AA@ 1006d2f8     bdf.obj
 0002:00017304       ??_C@_08LEFKDKKN@ENCODING?$AA@ 1006d304     bdf.obj
 0002:00017310       ??_C@_09PICCMFLC@?5?$CI0x?$CFlX?$CJ?6?$AA@ 1006d310     bdf.obj
 0002:00017320       ??_C@_0EG@MJNBKJNE@_bdf_parse_glyphs?3?5Duplicate?5enc@ 1006d320     bdf.obj
 0002:00017368       ??_C@_0DC@GOOCBNOJ@_bdf_parse_glyphs?3?5Glyph?5?$CFld?5ext@ 1006d368     bdf.obj
 0002:000173a0       ??_C@_0EF@KGEBKPJK@_bdf_parse_glyphs?3?5Glyph?5?$CFld?5mis@ 1006d3a0     bdf.obj
 0002:000173e8       ??_C@_0DF@HPJDBJMP@_bdf_parse_glyphs?3?5Glyph?5?$CFld?5ext@ 1006d3e8     bdf.obj
 0002:00017420       ??_C@_06HDKFFNNH@SWIDTH?$AA@ 1006d420     bdf.obj
 0002:00017428       ??_C@_06NBNMPPJH@DWIDTH?$AA@ 1006d428     bdf.obj
 0002:00017430       ??_C@_0EK@BMLMGGMM@_bdf_parse_glyphs?3?5SWIDTH?5field?5@ 1006d430     bdf.obj
 0002:0001747c       ??_C@_03OONKDOKH@BBX?$AA@  1006d47c     bdf.obj
 0002:00017480       ??_C@_0EL@OOKPCJLE@_bdf_parse_glyphs?3?5DWIDTH?5field?5@ 1006d480     bdf.obj
 0002:000174cc       ??_C@_06PGFOEMDN@BITMAP?$AA@ 1006d4cc     bdf.obj
 0002:000174d4       ??_C@_0CM@OCICBMMH@_bdf_parse_glyphs?3?5?$FLline?5?$CFld?$FN?5BB@ 1006d4d4     bdf.obj
 0002:00017500       ??_C@_0DA@FNFEDBOI@_bdf_parse_glyphs?3?5?$FLline?5?$CFld?$FN?5In@ 1006d500     bdf.obj
 0002:00017530       ??_C@_0O@JFDPHGFD@ENDPROPERTIES?$AA@ 1006d530     bdf.obj
 0002:00017540       ??_C@_03OACELNE@?$CFhd?$AA@ 1006d540     bdf.obj
 0002:00017548       ??_C@_0FA@MHOOANLD@_bdf_parse_properties?3?5FONT_ASCE@ 1006d548     bdf.obj
 0002:00017598       ??_C@_0FC@OOLBPPB@_bdf_parse_properties?3?5FONT_DESC@ 1006d598     bdf.obj
 0002:000175ec       ??_C@_0BG@NDMEGDOA@_XFREE86_GLYPH_RANGES?$AA@ 1006d5ec     bdf.obj
 0002:00017604       ??_C@_09BHJNBHKM@STARTFONT?$AA@ 1006d604     bdf.obj
 0002:00017610       ??_C@_0BA@HGECMEMA@STARTPROPERTIES?$AA@ 1006d610     bdf.obj
 0002:00017620       ??_C@_0BA@PIDAKDPC@FONTBOUNDINGBOX?$AA@ 1006d620     bdf.obj
 0002:00017630       ??_C@_0DB@PPLLGEHM@_bdf_parse_start?3?5?$FLline?5?$CFld?$FN?5Mis@ 1006d630     bdf.obj
 0002:00017664       ??_C@_04EMFHLKGI@SIZE?$AA@ 1006d664     bdf.obj
 0002:0001766c       ??_C@_0DC@NNCEGMHN@_bdf_parse_start?3?5?$FLline?5?$CFld?$FN?5Inv@ 1006d66c     bdf.obj
 0002:000176a0       ??_C@_0DO@EMAEPNNN@_bdf_parse_start?3?5SIZE?5bits?5per?5@ 1006d6a0     bdf.obj
 0002:000176e0       ??_C@_0CP@DPIBLPNJ@_bdf_parse_start?3?5?$FLline?5?$CFld?$FN?5Inv@ 1006d6e0     bdf.obj
 0002:00017710       ??_C@_0EE@MADKNNKC@bdf_load_font?3?5Incorrect?5glyph?5c@ 1006d710     bdf.obj
 0002:00017758       ??_C@_0EA@KBJJKEEG@bdf_load_font?3?5Font?5width?5?$CB?$DN?5act@ 1006d758     bdf.obj
 0002:00017798       ??_C@_0EO@CFDGAKHK@bdf_load_font?3?5Font?5left?5bearing@ 1006d798     bdf.obj
 0002:000177e8       ??_C@_0EC@IBNOIPBM@bdf_load_font?3?5Font?5ascent?5?$CB?$DN?5ac@ 1006d7e8     bdf.obj
 0002:00017830       ??_C@_0EE@KFBCIHOC@bdf_load_font?3?5Font?5descent?5?$CB?$DN?5a@ 1006d830     bdf.obj
 0002:00017878       ??_C@_0EB@BJDOKJCG@bdf_load_font?3?5Font?5height?5?$CB?$DN?5ac@ 1006d878     bdf.obj
 0002:000178c0       ??_C@_0EA@OANGMKP@bdf_load_font?3?5Glyph?5scalable?5wi@ 1006d8c0     bdf.obj
 0002:00017900       ??_C@_0EE@KCMAOHJO@bdf_load_font?3?5?$FLline?5?$CFld?$FN?5Font?5h@ 1006d900     bdf.obj
 0002:00017948       ??_C@_0EE@ONIDKJPN@bdf_load_font?3?5?$FLline?5?$CFld?$FN?5Font?5g@ 1006d948     bdf.obj
 0002:0001798c       ??_C@_0CO@EGKPGEJ@bdf_cmap_char_next?3?5charcode?50x?$CF@ 1006d98c     bdf.obj
 0002:000179bc       ??_C@_07EGOIFKG@Oblique?$AA@ 1006d9bc     bdf.obj
 0002:000179c4       ??_C@_06PPMHIBHB@Italic?$AA@ 1006d9c4     bdf.obj
 0002:000179cc       ??_C@_04DIPHHIHJ@Bold?$AA@ 1006d9cc     bdf.obj
 0002:000179d4       ??_C@_07FFHPBFOK@Regular?$AA@ 1006d9d4     bdf.obj
 0002:000179dc       ??_C@_0M@PIOLPION@BDF?5driver?6?$AA@ 1006d9dc     bdf.obj
 0002:000179e8       ??_C@_0BC@CHFALINA@?5?5not?5a?5BDF?5file?6?$AA@ 1006d9e8     bdf.obj
 0002:000179fc       ??_C@_0CM@BNFDELFJ@?5?5number?5of?5glyphs?3?5allocated?5?$CFd@ 1006d9fc     bdf.obj
 0002:00017a28       ??_C@_0DG@LFIMIPLI@?5?5number?5of?5unencoded?5glyphs?3?5al@ 1006da28     bdf.obj
 0002:00017a60       ??_C@_0BF@CECOLGPK@?5?5idx?5?$CFd?0?5val?50x?$CFlX?6?$AA@ 1006da60     bdf.obj
 0002:00017a78       ??_C@_0DE@MDPBGMHJ@BDF_Face_Init?3?5idx?5?$CFd?5is?5too?5lar@ 1006da78     bdf.obj
 0002:00017aac       ??_C@_05FPAEEJJG@10646?$AA@ 1006daac     bdf.obj
 0002:00017ab4       ??_C@_04LBDHIBCK@8859?$AA@ 1006dab4     bdf.obj
 0002:00017abc       ??_C@_01HIHLOKLC@1?$AA@    1006dabc     bdf.obj
 0002:00017ac0       ??_C@_0EB@GLAGCDMG@m?3?2svn?2?4private?2mini?2umodsys?2dep@ 1006dac0     bdf.obj
 0002:00017b04       ??_C@_0DB@DFIGKFPK@BDF_Glyph_Load?3?5too?5large?5pitch?5@ 1006db04     bdf.obj
 0002:00017b38       ??_C@_0DL@OLPFOBLL@bdf_get_bdf_property?3?5too?5large?5@ 1006db38     bdf.obj
 0002:00017b74       ??_C@_0DM@BKEIKPHP@bdf_get_bdf_property?3?5too?5large?5@ 1006db74     bdf.obj
 0002:00017bb0       ??_C@_0EB@EAJFIFFK@m?3?2svn?2?4private?2mini?2umodsys?2dep@ 1006dbb0     ftcache.obj
 0002:00017bf4       ??_C@_0DH@GDNBFMPE@FTC_Manager_RegisterCache?3?5too?5m@ 1006dbf4     ftcache.obj
 0002:00017c2c       ??_C@_0CE@BLIHJJBK@ftc_node_hash_unlink?3?5unknown?5no@ 1006dc2c     ftcache.obj
 0002:00017c50       ??_C@_0DC@CFNMPNMM@FTC_CMapCache_Lookup?3?5bad?5argume@ 1006dc50     ftcache.obj
 0002:00017c84       ??_C@_0CM@EPKLKJGD@FTC_CACHE_LOOKUP_CMP?3?5oops?$CB?$CB?$CB?5no@ 1006dc84     ftcache.obj
 0002:00017cb0       ??_C@_0EC@KBGBIJFI@m?3?2svn?2?4private?2mini?2umodsys?2dep@ 1006dcb0     ftcache.obj
 0002:00017cf4       ??_C@_0CE@HOJAKFAA@ftc_snode_load?3?5invalid?5glyph?5in@ 1006dcf4     ftcache.obj
 0002:00017d18       ??_C@_0ED@PJMECMKI@m?3?2svn?2?4private?2mini?2umodsys?2dep@ 1006dd18     ftcache.obj
 0002:00017d5c       ??_C@_0DF@FINININH@ftc_snode_load?3?5glyph?5loaded?5did@ 1006dd5c     ftcache.obj
 0002:00017d94       ??_C@_0DI@HLNFLMBJ@ftc_snode_load?3?5glyph?5too?5large?5@ 1006dd94     ftcache.obj
 0002:00017dcc       ??_C@_0DI@ICNEDMOF@ftc_basic_family_get_count?3?5too?5@ 1006ddcc     ftcache.obj
 0002:00017e04       ??_C@_0BJ@KKBJNBDJ@in?5this?5face?0?5truncated?6?$AA@ 1006de04     ftcache.obj
 0002:00017e20       ??_C@_0DB@OBDFPJED@FTC_ImageCache_Lookup?3?5higher?5bi@ 1006de20     ftcache.obj
 0002:00017e54       ??_C@_0BC@KMIFKDPF@0x?$CFx?5are?5dropped?6?$AA@ 1006de54     ftcache.obj
 0002:00017e68       ??_C@_0DH@DDKCBHGJ@FTC_ImageCache_LookupScaler?3?5hig@ 1006de68     ftcache.obj
 0002:00017ea0       ??_C@_0O@KLFHKAFI@nominalWidthX?$AA@ 1006dea0     cff.obj
 0002:00017eb0       ??_C@_0O@JDBOOHI@defaultWidthX?$AA@ 1006deb0     cff.obj
 0002:00017ec0       ??_C@_05DHFNOCDJ@Subrs?$AA@ 1006dec0     cff.obj
 0002:00017ec8       ??_C@_0BC@CKOEOLCM@initialRandomSeed?$AA@ 1006dec8     cff.obj
 0002:00017edc       ??_C@_0BA@PKGIFANC@ExpansionFactor?$AA@ 1006dedc     cff.obj
 0002:00017eec       ??_C@_0O@PJDGHDCK@LanguageGroup?$AA@ 1006deec     cff.obj
 0002:00017efc       ??_C@_05CIIKKFON@lenIV?$AA@ 1006defc     cff.obj
 0002:00017f04       ??_C@_0BD@BGHMBBEO@ForceBoldThreshold?$AA@ 1006df04     cff.obj
 0002:00017f18       ??_C@_09BDDIAPM@ForceBold?$AA@ 1006df18     cff.obj
 0002:00017f24       ??_C@_09GOBAKHA@StemSnapV?$AA@ 1006df24     cff.obj
 0002:00017f30       ??_C@_09NCKADFKP@StemSnapH?$AA@ 1006df30     cff.obj
 0002:00017f3c       ??_C@_05OBPKJLMP@StdVW?$AA@ 1006df3c     cff.obj
 0002:00017f44       ??_C@_05PHECBFLF@StdHW?$AA@ 1006df44     cff.obj
 0002:00017f4c       ??_C@_08IPFLJFPM@BlueFuzz?$AA@ 1006df4c     cff.obj
 0002:00017f58       ??_C@_09GDCMDLCO@BlueShift?$AA@ 1006df58     cff.obj
 0002:00017f64       ??_C@_09IPAGIEBG@BlueScale?$AA@ 1006df64     cff.obj
 0002:00017f70       ??_C@_0BB@FMLCJJDP@FamilyOtherBlues?$AA@ 1006df70     cff.obj
 0002:00017f84       ??_C@_0M@OIPOLIDA@FamilyBlues?$AA@ 1006df84     cff.obj
 0002:00017f90       ??_C@_0L@CCJAIIMC@OtherBlues?$AA@ 1006df90     cff.obj
 0002:00017f9c       ??_C@_0L@DKDIMLOI@BlueValues?$AA@ 1006df9c     cff.obj
 0002:00017fa8       ??_C@_08MKFDOKHL@FontName?$AA@ 1006dfa8     cff.obj
 0002:00017fb4       ??_C@_08CFFGEPO@FDSelect?$AA@ 1006dfb4     cff.obj
 0002:00017fc0       ??_C@_07PEKDNLEP@FDArray?$AA@ 1006dfc0     cff.obj
 0002:00017fc8       ??_C@_07CNNFHHEA@UIDBase?$AA@ 1006dfc8     cff.obj
 0002:00017fd0       ??_C@_08LPCKMOBH@CIDCount?$AA@ 1006dfd0     cff.obj
 0002:00017fdc       ??_C@_0M@IBCFBNHK@CIDFontType?$AA@ 1006dfdc     cff.obj
 0002:00017fe8       ??_C@_0BA@GOIFFDIH@CIDFontRevision?$AA@ 1006dfe8     cff.obj
 0002:00017ff8       ??_C@_0P@FDOGBFAP@CIDFontVersion?$AA@ 1006dff8     cff.obj
 0002:00018008       ??_C@_03FFOPCDKA@ROS?$AA@  1006e008     cff.obj
 0002:0001800c       ??_C@_0L@GLNNPNOK@PostScript?$AA@ 1006e00c     cff.obj
 0002:00018018       ??_C@_0O@EENDDJBG@SyntheticBase?$AA@ 1006e018     cff.obj
 0002:00018028       ??_C@_07CFINJGKH@Private?$AA@ 1006e028     cff.obj
 0002:00018030       ??_C@_0M@EKIFGBLL@CharStrings?$AA@ 1006e030     cff.obj
 0002:0001803c       ??_C@_08EJAHIGCJ@Encoding?$AA@ 1006e03c     cff.obj
 0002:00018048       ??_C@_07EAJPFAFH@charset?$AA@ 1006e048     cff.obj
 0002:00018050       ??_C@_0M@GLGMDIGG@StrokeWidth?$AA@ 1006e050     cff.obj
 0002:0001805c       ??_C@_08EBMMLPNI@FontBBox?$AA@ 1006e05c     cff.obj
 0002:00018068       ??_C@_08OMJGNOHD@UniqueID?$AA@ 1006e068     cff.obj
 0002:00018074       ??_C@_0L@LNCCOCBB@FontMatrix?$AA@ 1006e074     cff.obj
 0002:00018080       ??_C@_0P@IHAOFIJF@CharstringType?$AA@ 1006e080     cff.obj
 0002:00018090       ??_C@_09PNDIDGHG@PaintType?$AA@ 1006e090     cff.obj
 0002:0001809c       ??_C@_0BD@KBICJDLM@UnderlineThickness?$AA@ 1006e09c     cff.obj
 0002:000180b0       ??_C@_0BC@CCIMILPE@UnderlinePosition?$AA@ 1006e0b0     cff.obj
 0002:000180c4       ??_C@_0M@ILCDBHGP@ItalicAngle?$AA@ 1006e0c4     cff.obj
 0002:000180d0       ??_C@_0N@OPLNPOL@isFixedPitch?$AA@ 1006e0d0     cff.obj
 0002:000180e0       ??_C@_06ODJMJFLN@Weight?$AA@ 1006e0e0     cff.obj
 0002:000180e8       ??_C@_0L@KKMPOENF@FamilyName?$AA@ 1006e0e8     cff.obj
 0002:000180f4       ??_C@_08FPDCFGEH@FullName?$AA@ 1006e0f4     cff.obj
 0002:00018100       ??_C@_09EGCMDBBB@Copyright?$AA@ 1006e100     cff.obj
 0002:0001810c       ??_C@_06JHGCIHDH@Notice?$AA@ 1006e10c     cff.obj
 0002:00018114       ??_C@_07NGFJPNPN@Version?$AA@ 1006e114     cff.obj
 0002:0001811c       ??_C@_03LMEEOLHO@CID?$AA@  1006e11c     cff.obj
 0002:00018120       ??_C@_0BA@EAOIOGJA@postscript?9info?$AA@ 1006e120     cff.obj
 0002:00018130       ??_C@_03IFCOMOMB@CFF?$AA@  1006e130     cff.obj
 0002:00018134       ??_C@_04JAPIGAPK@sfnt?$AA@ 1006e134     cff.obj
 0002:0001813c       ??_C@_08MNGCAOLP@pshinter?$AA@ 1006e13c     cff.obj
 0002:00018148       ??_C@_0HB@NJOCEPIM@cff_get_glyph_name?3?5cannot?5get?5g@ 1006e148     cff.obj
 0002:000181bc       ??_C@_0BB@JIMLNENF@postscript?9cmaps?$AA@ 1006e1bc     cff.obj
 0002:000181d0       ??_C@_0DD@IOKAALAE@cff_get_ros?3?5too?5large?5supplemen@ 1006e1d0     cff.obj
 0002:00018204       ??_C@_0P@DGAAAJJA@hinting?9engine?$AA@ 1006e204     cff.obj
 0002:00018214       ??_C@_0BC@GFOLLGHN@no?9stem?9darkening?$AA@ 1006e214     cff.obj
 0002:00018228       ??_C@_0CJ@ILDIEHLM@cff_property_set?3?5missing?5proper@ 1006e228     cff.obj
 0002:00018254       ??_C@_0CJ@JGLAGCBI@cff_property_get?3?5missing?5proper@ 1006e254     cff.obj
 0002:00018280       ??_C@_0BD@FHMLGBOP@?$CB?$CB?$CBEND?5OF?5DATA?3?$CB?$CB?$CB?$AA@ 1006e280     cff.obj
 0002:00018294       ??_C@_0BA@KOHOLLIM@?$CB?$CB?$CBOVERFLOW?3?$CB?$CB?$CB?$AA@ 1006e294     cff.obj
 0002:000182a4       ??_C@_0BB@OMFJGOGF@?$CB?$CB?$CBUNDERFLOW?3?$CB?$CB?$CB?$AA@ 1006e2a4     cff.obj
 0002:000182b8       ??_C@_0EB@DEBAJIPC@m?3?2svn?2?4private?2mini?2umodsys?2dep@ 1006e2b8     cff.obj
 0002:00018300       ??_C@_0GP@GNKIDPDI@cff_parse_font_matrix?3?5strange?5s@ 1006e300     cff.obj
 0002:00018370       ??_C@_0BG@BNEAPFAC@?5?$FL?$CFf?5?$CFf?5?$CFf?5?$CFf?5?$CFf?5?$CFf?$FN?6?$AA@ 1006e370     cff.obj
 0002:00018388       ??_C@_0BA@IMLBGBBJ@?5?$FL?$CFd?5?$CFd?5?$CFd?5?$CFd?$FN?6?$AA@ 1006e388     cff.obj
 0002:00018398       ??_C@_09HFPCLGAF@?5?$CFlu?5?$CFlu?6?$AA@ 1006e398     cff.obj
 0002:000183a4       ??_C@_0CP@NECNKDDM@cff_parse_cid_ros?3?5real?5suppleme@ 1006e3a4     cff.obj
 0002:000183d4       ??_C@_0DE@NALBOPNG@cff_parse_cid_ros?3?5negative?5supp@ 1006e3d4     cff.obj
 0002:00018408       ??_C@_0L@KOJFBLKH@?5?$CFd?5?$CFd?5?$CFd?6?$AA@ 1006e408     cff.obj
 0002:00018414       ??_C@_04GCLKCGOG@?5?5?$CFs?$AA@ 1006e414     cff.obj
 0002:0001841c       ??_C@_04LOAJBDKD@true?$AA@ 1006e41c     cff.obj
 0002:00018424       ??_C@_05LAPONLG@false?$AA@ 1006e424     cff.obj
 0002:0001842c       ??_C@_04MDKIEGGJ@?5?$CFs?6?$AA@ 1006e42c     cff.obj
 0002:00018434       ??_C@_0M@KCFMPKOI@?5?$CFld?5?$CISID?$CJ?6?$AA@ 1006e434     cff.obj
 0002:00018440       ??_C@_05IEHBDIND@?5?$CFld?6?$AA@ 1006e440     cff.obj
 0002:00018448       ??_C@_04NJEFCHPC@?5?$CFf?6?$AA@ 1006e448     cff.obj
 0002:00018450       ??_C@_02GBLMOEJC@?5?$FL?$AA@ 1006e450     cff.obj
 0002:00018454       ??_C@_04CPKMOEAN@?5?$CFld?$AA@ 1006e454     cff.obj
 0002:0001845c       ??_C@_02JODFHDIE@?$FN?6?$AA@ 1006e45c     cff.obj
 0002:00018460       ??_C@_0ED@DAPLMPOB@cff_index_get_pointers?3?5invalid?5@ 1006e460     cff.obj
 0002:000184a8       ??_C@_0FE@ENEMOHLP@cff_index_access_element?3?5offset@ 1006e4a8     cff.obj
 0002:000184fc       ??_C@_0DM@GENJHLB@cff_charset_load?3?5invalid?5SID?5ra@ 1006e4fc     cff.obj
 0002:00018538       ??_C@_0CI@EOOPAJJE@cff_charset_load?3?5invalid?5table?5@ 1006e538     cff.obj
 0002:00018560       ??_C@_0FF@GKAPBCNH@cff_charset_load?3?5implicit?5chars@ 1006e560     cff.obj
 0002:000185b8       ??_C@_0FC@PKBNJFNM@cff_charset_load?3?5implicit?5chars@ 1006e5b8     cff.obj
 0002:00018610       ??_C@_0FJ@HPFEHAJC@cff_charset_load?3?5implicit?5chars@ 1006e610     cff.obj
 0002:0001866c       ??_C@_0CJ@IOCHKLEE@cff_encoding_load?3?5invalid?5table@ 1006e66c     cff.obj
 0002:00018698       ??_C@_0BC@EELEKAKH@?5top?5dictionary?3?6?$AA@ 1006e698     cff.obj
 0002:000186ac       ??_C@_0BG@CJKDMNLC@?5private?5dictionary?3?6?$AA@ 1006e6ac     cff.obj
 0002:000186c4       ??_C@_0BJ@OELAFMEA@?5?5not?5a?5CFF?5font?5header?6?$AA@ 1006e6c4     cff.obj
 0002:000186e0       ??_C@_0DN@LJNNLEPJ@cff_font_load?3?5invalid?5subfont?5i@ 1006e6e0     cff.obj
 0002:00018720       ??_C@_0FH@CJOCMAHG@cff_font_load?3?5invalid?5CFF?5font?5@ 1006e720     cff.obj
 0002:00018778       ??_C@_0BD@CCJNIFKF@parsing?5top?9level?6?$AA@ 1006e778     cff.obj
 0002:0001878c       ??_C@_0CP@FMGMLIID@cff_font_load?3?5FD?5array?5too?5larg@ 1006e78c     cff.obj
 0002:000187bc       ??_C@_0BE@PDMOIGFG@parsing?5subfont?5?$CFu?6?$AA@ 1006e7bc     cff.obj
 0002:000187d0       ??_C@_0CG@PPGJGOEB@cff_font_load?3?5no?5charstrings?5of@ 1006e7d0     cff.obj
 0002:000187f8       ??_C@_0CM@MMDJIEMP@cff_face_init?3?5cannot?5access?5?$GAsf@ 1006e7f8     cff.obj
 0002:00018824       ??_C@_0M@DLCCANED@CFF?5driver?6?$AA@ 1006e824     cff.obj
 0002:00018830       ??_C@_0BM@EHLJIHDG@?5?5not?5an?5OpenType?1CFF?5font?6?$AA@ 1006e830     cff.obj
 0002:00018850       ??_C@_0FI@GMFCILJE@cff_face_init?3?5cannot?5open?5CFF?5?$CG@ 1006e850     cff.obj
 0002:000188a8       ??_C@_05CJOKOPNE@SIDs?6?$AA@ 1006e8a8     cff.obj
 0002:000188b0       ??_C@_09PDAEPDPK@?5?5?$CF5d?5?$CFs?6?$AA@ 1006e8b0     cff.obj
 0002:000188bc       ??_C@_05BPGNDIAE@Black?$AA@ 1006e8bc     cff.obj
 0002:000188c4       ??_C@_0DA@MKHDHELB@cff_decoder_prepare?3?5invalid?5CID@ 1006e8c4     cff.obj
 0002:000188f4       ??_C@_0BO@GPOGLHOD@glyph?5index?5?$CFd?5?$CIsubfont?5?$CFd?$CJ?3?6?$AA@ 1006e8f4     cff.obj
 0002:00018914       ??_C@_0BB@OGOKOGJK@glyph?5index?5?$CFd?3?6?$AA@ 1006e914     cff.obj
 0002:00018928       ??_C@_0EB@BFCMAPJE@m?3?2svn?2?4private?2mini?2umodsys?2dep@ 1006e928     cff.obj
 0002:0001896c       ??_C@_0CP@GHJMCGOG@cf2_blues_init?3?5ignoring?5negativ@ 1006e96c     cff.obj
 0002:000189a0       ??_C@_0EB@MDDAIFMH@m?3?2svn?2?4private?2mini?2umodsys?2dep@ 1006e9a0     cff.obj
 0002:000189e4       ??_C@_0DO@HAIDPFIC@m?3?2svn?2?4private?2mini?2umodsys?2dep@ 1006e9e4     cff.obj
 0002:00018a28       ??_C@_0EB@DEFJPKMC@m?3?2svn?2?4private?2mini?2umodsys?2dep@ 1006ea28     cff.obj
 0002:00018a6c       ??_C@_0CL@DCBEKAKO@cf2_hintmap_insertHint?3?5too?5many@ 1006ea6c     cff.obj
 0002:00018a98       ??_C@_0EB@COMLPGB@m?3?2svn?2?4private?2mini?2umodsys?2dep@ 1006ea98     cff.obj
 0002:00018adc       ??_C@_0N@PPLCOAIJ@?5?$CImaskbytes?3?$AA@ 1006eadc     cff.obj
 0002:00018aec       ??_C@_07IADONGEJ@?50x?$CF02X?$AA@ 1006eaec     cff.obj
 0002:00018af4       ??_C@_02MNMNLDAI@?$CJ?6?$AA@ 1006eaf4     cff.obj
 0002:00018af8       ??_C@_0BC@NIIHAFPM@?5unknown?5op?5?$CI?$CFd?$CJ?6?$AA@ 1006eaf8     cff.obj
 0002:00018b0c       ??_C@_09PDICJHKO@?5hstemhm?6?$AA@ 1006eb0c     cff.obj
 0002:00018b18       ??_C@_07OMAOMOOK@?5hstem?6?$AA@ 1006eb18     cff.obj
 0002:00018b20       ??_C@_0DG@DJOFBKNF@cf2_interpT2CharString?3?5invalid?5@ 1006eb20     cff.obj
 0002:00018b58       ??_C@_09JHIAAOEN@?5vstemhm?6?$AA@ 1006eb58     cff.obj
 0002:00018b64       ??_C@_07NLOPCJHJ@?5vstem?6?$AA@ 1006eb64     cff.obj
 0002:00018b6c       ??_C@_0DE@FIKDMLEJ@cf2_interpT2CharString?3?5invalid?5@ 1006eb6c     cff.obj
 0002:00018ba0       ??_C@_09DHBBOCNN@?5vmoveto?6?$AA@ 1006eba0     cff.obj
 0002:00018bac       ??_C@_09CKACAGID@?5rlineto?6?$AA@ 1006ebac     cff.obj
 0002:00018bb8       ??_C@_09BDOMMOGM@?5hlineto?6?$AA@ 1006ebb8     cff.obj
 0002:00018bc4       ??_C@_09HHOOFHIP@?5vlineto?6?$AA@ 1006ebc4     cff.obj
 0002:00018bd0       ??_C@_0N@LLCIPIGM@?5rcurveline?6?$AA@ 1006ebd0     cff.obj
 0002:00018be0       ??_C@_0M@ODNAPKNF@?5rrcurveto?6?$AA@ 1006ebe0     cff.obj
 0002:00018bec       ??_C@_0L@JEGIJFM@?5callgsubr?$AA@ 1006ebec     cff.obj
 0002:00018bf8       ??_C@_09KNGOKOCG@?5callsubr?$AA@ 1006ebf8     cff.obj
 0002:00018c04       ??_C@_05NFNEIMMC@?$CI?$CFd?$CJ?6?$AA@ 1006ec04     cff.obj
 0002:00018c0c       ??_C@_08HEONNKIC@?5return?6?$AA@ 1006ec0c     cff.obj
 0002:00018c18       ??_C@_0N@GACGFGEK@?5dotsection?6?$AA@ 1006ec18     cff.obj
 0002:00018c28       ??_C@_05IDALAONB@?5and?6?$AA@ 1006ec28     cff.obj
 0002:00018c30       ??_C@_0DG@DPAICGPG@cf2_interpT2CharString?3?5operator@ 1006ec30     cff.obj
 0002:00018c68       ??_C@_04DGMDJEAH@?5or?6?$AA@ 1006ec68     cff.obj
 0002:00018c70       ??_C@_05KFMBFNBF@?5not?6?$AA@ 1006ec70     cff.obj
 0002:00018c78       ??_C@_05NALEAEJM@?5abs?6?$AA@ 1006ec78     cff.obj
 0002:00018c80       ??_C@_05OMLGOOLF@?5add?6?$AA@ 1006ec80     cff.obj
 0002:00018c88       ??_C@_05BKLOGGBP@?5sub?6?$AA@ 1006ec88     cff.obj
 0002:00018c90       ??_C@_05MJJOMOAG@?5div?6?$AA@ 1006ec90     cff.obj
 0002:00018c98       ??_C@_05NEBMKAFI@?5neg?6?$AA@ 1006ec98     cff.obj
 0002:00018ca0       ??_C@_04FLDIMKDK@?5eq?6?$AA@ 1006eca0     cff.obj
 0002:00018ca8       ??_C@_06HAACIAHB@?5drop?6?$AA@ 1006eca8     cff.obj
 0002:00018cb0       ??_C@_05EFLFMDAN@?5put?6?$AA@ 1006ecb0     cff.obj
 0002:00018cb8       ??_C@_05MHGMNPAA@?5get?6?$AA@ 1006ecb8     cff.obj
 0002:00018cc0       ??_C@_08HFEHEBCL@?5ifelse?6?$AA@ 1006ecc0     cff.obj
 0002:00018ccc       ??_C@_08NPFKFAEF@?5random?6?$AA@ 1006eccc     cff.obj
 0002:00018cd8       ??_C@_05MPPAGCPG@?5mul?6?$AA@ 1006ecd8     cff.obj
 0002:00018ce0       ??_C@_06IMALOPBM@?5sqrt?6?$AA@ 1006ece0     cff.obj
 0002:00018ce8       ??_C@_05NHNMFKJD@?5dup?6?$AA@ 1006ece8     cff.obj
 0002:00018cf0       ??_C@_06KJANAGAF@?5exch?6?$AA@ 1006ecf0     cff.obj
 0002:00018cf8       ??_C@_07IPDMCCAC@?5index?6?$AA@ 1006ecf8     cff.obj
 0002:00018d00       ??_C@_06DKHEMHDO@?5roll?6?$AA@ 1006ed00     cff.obj
 0002:00018d08       ??_C@_07PFGIOABK@?5hflex?6?$AA@ 1006ed08     cff.obj
 0002:00018d10       ??_C@_06IDLELJEF@?5flex?6?$AA@ 1006ed10     cff.obj
 0002:00018d18       ??_C@_08CPEGHDGB@?5hflex1?6?$AA@ 1006ed18     cff.obj
 0002:00018d24       ??_C@_07NEOEODFN@?5flex1?6?$AA@ 1006ed24     cff.obj
 0002:00018d2c       ??_C@_0BG@NAMNIKJA@?5unknown?5op?5?$CI12?0?5?$CFd?$CJ?6?$AA@ 1006ed2c     cff.obj
 0002:00018d44       ??_C@_09PGGGAPGH@?5endchar?6?$AA@ 1006ed44     cff.obj
 0002:00018d50       ??_C@_09JPOMIELM@?5cntrmask?$AA@ 1006ed50     cff.obj
 0002:00018d5c       ??_C@_09CILDDOF@?5hintmask?$AA@ 1006ed5c     cff.obj
 0002:00018d68       ??_C@_0CL@DODOLLDE@cf2_interpT2CharString?3?5invalid?5@ 1006ed68     cff.obj
 0002:00018d94       ??_C@_09GKPNLDNB@?5rmoveto?6?$AA@ 1006ed94     cff.obj
 0002:00018da0       ??_C@_09FDBDHLDO@?5hmoveto?6?$AA@ 1006eda0     cff.obj
 0002:00018dac       ??_C@_0N@GIBGFFOL@?5rlinecurve?6?$AA@ 1006edac     cff.obj
 0002:00018dbc       ??_C@_0M@FKOCCJCN@?5vvcurveto?6?$AA@ 1006edbc     cff.obj
 0002:00018dc8       ??_C@_0M@JPAFHHLL@?5hhcurveto?6?$AA@ 1006edc8     cff.obj
 0002:00018dd4       ??_C@_0M@KGGCMGOA@?5hvcurveto?6?$AA@ 1006edd4     cff.obj
 0002:00018de0       ??_C@_0M@GDIFJIHG@?5vhcurveto?6?$AA@ 1006ede0     cff.obj
 0002:00018dec       ??_C@_05BEBFNOMM@?5?$CF?42f?$AA@ 1006edec     cff.obj
 0002:00018df8       ??_C@_0EB@KFLKKMIG@m?3?2svn?2?4private?2mini?2umodsys?2dep@ 1006edf8     cff.obj
 0002:00018e3c       ??_C@_0L@DDPIBKML@CID?5Type?51?$AA@ 1006ee3c     type1cid.obj
 0002:00018e48       ??_C@_0L@NKGPCONN@MinFeature?$AA@ 1006ee48     type1cid.obj
 0002:00018e54       ??_C@_08NLHBPEGP@password?$AA@ 1006ee54     type1cid.obj
 0002:00018e60       ??_C@_0BC@HBJENNOG@lenBuildCharArray?$AA@ 1006ee60     type1cid.obj
 0002:00018e74       ??_C@_09NKAONILE@SubrCount?$AA@ 1006ee74     type1cid.obj
 0002:00018e80       ??_C@_07OJDBLIDF@SDBytes?$AA@ 1006ee80     type1cid.obj
 0002:00018e88       ??_C@_0O@DKIHOHFK@SubrMapOffset?$AA@ 1006ee88     type1cid.obj
 0002:00018e98       ??_C@_08GBFACKAL@FontType?$AA@ 1006ee98     type1cid.obj
 0002:00018ea4       ??_C@_06FIINGLDE@FSType?$AA@ 1006eea4     type1cid.obj
 0002:00018eac       ??_C@_07CPCPJPKL@version?$AA@ 1006eeac     type1cid.obj
 0002:00018eb4       ??_C@_07BBMAIHOE@GDBytes?$AA@ 1006eeb4     type1cid.obj
 0002:00018ebc       ??_C@_07NNGKIHHK@FDBytes?$AA@ 1006eebc     type1cid.obj
 0002:00018ec4       ??_C@_0N@LBMCPKAC@CIDMapOffset?$AA@ 1006eec4     type1cid.obj
 0002:00018ed4       ??_C@_0L@EJNILPMC@Supplement?$AA@ 1006eed4     type1cid.obj
 0002:00018ee0       ??_C@_08HMKBFHBJ@Ordering?$AA@ 1006eee0     type1cid.obj
 0002:00018eec       ??_C@_08EPBENDNC@Registry?$AA@ 1006eeec     type1cid.obj
 0002:00018ef8       ??_C@_0M@CKCGNNAK@CIDFontName?$AA@ 1006eef8     type1cid.obj
 0002:00018f04       ??_C@_05MNCLAAKB@psaux?$AA@ 1006ef04     type1cid.obj
 0002:00018f0c       ??_C@_05CNMLIGFM@t1cid?$AA@ 1006ef0c     type1cid.obj
 0002:00018f14       ??_C@_0CA@JGHPJJJF@?$CF?$CBPS?9Adobe?93?40?5Resource?9CIDFont?$AA@ 1006ef14     type1cid.obj
 0002:00018f34       ??_C@_0BI@NIGNLBAO@?5?5not?5a?5CID?9keyed?5font?6?$AA@ 1006ef34     type1cid.obj
 0002:00018f4c       ??_C@_0CO@NAPDPACI@cid_parser_new?3?5no?5?$GAStartData?8?5k@ 1006ef4c     type1cid.obj
 0002:00018f7c       ??_C@_09BFOLOCGO@StartData?$AA@ 1006ef7c     type1cid.obj
 0002:00018f88       ??_C@_06EMLBPOPP@?1sfnts?$AA@ 1006ef88     type1cid.obj
 0002:00018f90       ??_C@_05NPBNGLLN@?$CIHex?$CJ?$AA@ 1006ef90     type1cid.obj
 0002:00018f98       ??_C@_0CN@LHLBALAL@cid_parser_new?3?5cannot?5handle?5Ty@ 1006ef98     type1cid.obj
 0002:00018fc8       ??_C@_0CH@LPCJOMPF@cid_load_keyword?3?5invalid?5use?5of@ 1006efc8     type1cid.obj
 0002:00018ff0       ??_C@_0BC@JBBEDJNJ@?$CFADOBeginFontDict?$AA@ 1006eff0     type1cid.obj
 0002:00019004       ??_C@_0CN@JBBCEMJC@cid_face_init?3?5cannot?5access?5?$GAps@ 1006f004     type1cid.obj
 0002:00019034       ??_C@_0M@KMCPCJLI@CID?5driver?6?$AA@ 1006f034     type1cid.obj
 0002:00019040       ??_C@_0CD@OOMDKOJA@cid_face_init?3?5invalid?5face?5inde@ 1006f040     type1cid.obj
 0002:00019064       ??_C@_0CA@OICIAGP@cid_load_glyph?3?5glyph?5index?5?$CFd?6?$AA@ 1006f064     type1cid.obj
 0002:00019084       ??_C@_0BF@LNCPPMHC@classickern?9validate?$AA@ 1006f084     gxvalid.obj
 0002:0001909c       ??_C@_0BE@KPKLBHAB@truetypegx?9validate?$AA@ 1006f09c     gxvalid.obj
 0002:000190b0       ??_C@_0P@EKNEFGKJ@ABxCD?5?$DN?$DO?5DCxBA?$AA@ 1006f0b0     gxvalid.obj
 0002:000190c0       ??_C@_0P@GDLPLLDD@ABxCD?5?$DN?$DO?5DCxAB?$AA@ 1006f0c0     gxvalid.obj
 0002:000190d0       ??_C@_0P@OFPBLKAB@ABxCD?5?$DN?$DO?5CDxBA?$AA@ 1006f0d0     gxvalid.obj
 0002:000190e0       ??_C@_0P@MMJKFHJL@ABxCD?5?$DN?$DO?5CDxAB?$AA@ 1006f0e0     gxvalid.obj
 0002:000190f0       ??_C@_0N@GFDFICHG@ABxD?5?$DN?$DO?5DxBA?$AA@ 1006f0f0     gxvalid.obj
 0002:00019100       ??_C@_0N@EMFOGPOM@ABxD?5?$DN?$DO?5DxAB?$AA@ 1006f100     gxvalid.obj
 0002:00019110       ??_C@_0N@JOLGIPKN@AxCD?5?$DN?$DO?5DCxA?$AA@ 1006f110     gxvalid.obj
 0002:00019120       ??_C@_0N@LBEBGLAE@AxCD?5?$DN?$DO?5CDxA?$AA@ 1006f120     gxvalid.obj
 0002:00019130       ??_C@_0L@GIFFPDBN@xCD?5?$DN?$DO?5DCx?$AA@ 1006f130     gxvalid.obj
 0002:0001913c       ??_C@_0L@PAMNNNCB@xCD?5?$DN?$DO?5CDx?$AA@ 1006f13c     gxvalid.obj
 0002:00019148       ??_C@_0L@KJAOHOOI@ABx?5?$DN?$DO?5xBA?$AA@ 1006f148     gxvalid.obj
 0002:00019154       ??_C@_0L@IAGFJDHC@ABx?5?$DN?$DO?5xAB?$AA@ 1006f154     gxvalid.obj
 0002:00019160       ??_C@_0L@INNLHIIA@AxD?5?$DN?$DO?5DxA?$AA@ 1006f160     gxvalid.obj
 0002:0001916c       ??_C@_08KGFFBEFP@xD?5?$DN?$DO?5Dx?$AA@ 1006f16c     gxvalid.obj
 0002:00019178       ??_C@_08NFFALFKK@Ax?5?$DN?$DO?5xA?$AA@ 1006f178     gxvalid.obj
 0002:00019184       ??_C@_09NNLHMIKM@no?5change?$AA@ 1006f184     gxvalid.obj
 0002:00019190       ??_C@_04MJLCKGBD@?$CF?$CK?4s?$AA@ 1006f190     gxvalid.obj
 0002:00019198       ??_C@_0BE@INNMHEOF@feature?5in?5registry?$AA@ 1006f198     gxvalid.obj
 0002:000191ac       ??_C@_09HICHGHEL@?$CFs?5table?6?$AA@ 1006f1ac     gxvalid.obj
 0002:000191b8       ??_C@_0BB@CEOMLILN@?5?$CIfeature?5?$DN?5?$CFu?$CJ?6?$AA@ 1006f1b8     gxvalid.obj
 0002:000191cc       ??_C@_0CG@IEAFCHLI@feature?5number?5?$CFd?5is?5out?5of?5rang@ 1006f1cc     gxvalid.obj
 0002:000191f4       ??_C@_0DJ@JIHLFNIM@feature?5number?5?$CFd?5is?5in?5defined?5@ 1006f1f4     gxvalid.obj
 0002:00019230       ??_C@_0CI@CMOJNLNN@feature?5number?5?$CFd?5is?5reserved?5by@ 1006f230     gxvalid.obj
 0002:00019258       ??_C@_0DC@BAPJNOEC@feature?5?$CFd?3?5nSettings?5?$CFd?5?$CB?$DN?5defi@ 1006f258     gxvalid.obj
 0002:0001928c       ??_C@_0DB@GOJDINIF@exclusive?5flag?5?$CFd?5differs?5from?5p@ 1006f28c     gxvalid.obj
 0002:000192c0       ??_C@_09BJMIOIGM@nameIndex?$AA@ 1006f2c0     gxvalid.obj
 0002:000192cc       ??_C@_0BD@HKHJKKLM@?5?$CInameIndex?5?$DN?5?$CFd?$CJ?6?$AA@ 1006f2cc     gxvalid.obj
 0002:000192e0       ??_C@_07NDLGHPLM@setting?$AA@ 1006f2e0     gxvalid.obj
 0002:000192e8       ??_C@_04MEMAJGDJ@name?$AA@ 1006f2e8     gxvalid.obj
 0002:000192f0       ??_C@_0BJ@EJJLOAHM@validating?5?$GAfeat?8?5table?6?$AA@ 1006f2f0     gxvalid.obj
 0002:0001930c       ??_C@_0BK@POPCPNNF@?5?$CIfeatureNameCount?5?$DN?5?$CFd?$CJ?6?$AA@ 1006f30c     gxvalid.obj
 0002:00019328       ??_C@_0CG@KDOIENIM@Inconsistency?5found?5in?5BinSrchHe@ 1006f328     gxvalid.obj
 0002:00019350       ??_C@_0FF@OELKBFJC@originally?3?5unitSize?$DN?$CFd?0?5nUnits?$DN@ 1006f350     gxvalid.obj
 0002:000193a8       ??_C@_0FF@GKIJOMME@calculated?3?5unitSize?$DN?$CFd?0?5nUnits?$DN@ 1006f3a8     gxvalid.obj
 0002:00019400       ??_C@_0BH@CFOLKJOP@BinSrchHeader?5validate?$AA@ 1006f400     gxvalid.obj
 0002:00019418       ??_C@_0L@OEGPCPKO@nUnits?5?$CFd?6?$AA@ 1006f418     gxvalid.obj
 0002:00019424       ??_C@_0BF@CFMMMKPM@LookupTable?5format?50?$AA@ 1006f424     gxvalid.obj
 0002:0001943c       ??_C@_0CH@FDIOAIGJ@too?5short?0?5glyphs?5?$CFd?5?9?5?$CFd?5are?5mi@ 1006f43c     gxvalid.obj
 0002:00019464       ??_C@_0BF@BHPKKIHO@LookupTable?5format?52?$AA@ 1006f464     gxvalid.obj
 0002:0001947c       ??_C@_07OLPNKOAL@format2?$AA@ 1006f47c     gxvalid.obj
 0002:00019488       ??_C@_0EB@FABJMACD@unitSize?$DN?$CFd?5differs?5from?5expecte@ 1006f488     gxvalid.obj
 0002:000194cc       ??_C@_0BK@OIBFMELD@?5cannot?5validate?5anymore?6?$AA@ 1006f4cc     gxvalid.obj
 0002:000194e8       ??_C@_0BF@CDBNBCOF@?5forcibly?5continues?6?$AA@ 1006f4e8     gxvalid.obj
 0002:00019500       ??_C@_0EM@NHEBKBPN@reverse?5ordered?5segment?5specific@ 1006f500     gxvalid.obj
 0002:0001954c       ??_C@_0BP@HOEDHHHG@?5lastGlyph?5?$CFd?5?$DM?5firstGlyph?5?$CFd?5?$AA@ 1006f54c     gxvalid.obj
 0002:0001956c       ??_C@_0DA@JHBHJAKH@reverse?5ordered?5range?5specificat@ 1006f56c     gxvalid.obj
 0002:0001959c       ??_C@_0CC@KLMAJLOJ@continuing?5with?5exchanged?5values@ 1006f59c     gxvalid.obj
 0002:000195c0       ??_C@_0BF@EBKAAPPI@LookupTable?5format?54?$AA@ 1006f5c0     gxvalid.obj
 0002:000195d8       ??_C@_07LNKHAJIN@format4?$AA@ 1006f5d8     gxvalid.obj
 0002:000195e0       ??_C@_0BF@HDJGGNHK@LookupTable?5format?56?$AA@ 1006f5e0     gxvalid.obj
 0002:000195f8       ??_C@_07IPJBGLAP@format6?$AA@ 1006f5f8     gxvalid.obj
 0002:00019600       ??_C@_0DO@EAEKFIMJ@?5endmarker?5found?5within?5defined?5@ 1006f600     gxvalid.obj
 0002:00019640       ??_C@_0CK@OEHFKDDM@current?5gid?50x?$CF04x?5?$DM?5previous?5gi@ 1006f640     gxvalid.obj
 0002:0001966c       ??_C@_0BF@ONBFEAPE@LookupTable?5format?58?$AA@ 1006f66c     gxvalid.obj
 0002:00019684       ??_C@_0M@HPEICIHG@LookupTable?$AA@ 1006f684     gxvalid.obj
 0002:00019690       ??_C@_0O@CCFCPKNG@?5?$CIformat?5?$CFd?$CJ?6?$AA@ 1006f690     gxvalid.obj
 0002:000196a0       ??_C@_0DH@BKLAPFML@?5gxv_glyphid_check?$CI?$CJ?5gid?5overflo@ 1006f6a0     gxvalid.obj
 0002:000196d8       ??_C@_08LBLKHEMN@sfntName?$AA@ 1006f6d8     gxvalid.obj
 0002:000196e4       ??_C@_0BN@BGJHMELA@?5?5nameIndex?5?$DN?5?$CFd?5?$CIUNTITLED?$CJ?6?$AA@ 1006f6e4     gxvalid.obj
 0002:00019704       ??_C@_0BD@MFELHJBP@?5?5nameIndex?5?$DN?5?$CFd?5?$CI?$AA@ 1006f704     gxvalid.obj
 0002:00019718       ??_C@_06FIJELGDL@?2x?$CF02x?$AA@ 1006f718     gxvalid.obj
 0002:00019720       ??_C@_0L@FPGLJKBD@ClassTable?$AA@ 1006f720     gxvalid.obj
 0002:0001972c       ??_C@_0CC@CGNOIOGJ@?5?$CIfirstGlyph?5?$DN?5?$CFd?0?5nGlyphs?5?$DN?5?$CFd?$CJ@ 1006f72c     gxvalid.obj
 0002:00019750       ??_C@_0DD@EBCKLCHH@Declared?5stateSize?$DN0x?$CF02x?0?5Used?5@ 1006f750     gxvalid.obj
 0002:00019784       ??_C@_0L@BMCNIMC@StateArray?$AA@ 1006f784     gxvalid.obj
 0002:00019790       ??_C@_0CO@BOMJGCGM@parse?5?$CFd?5bytes?5by?5stateSize?$DN?$CFd?5m@ 1006f790     gxvalid.obj
 0002:000197c0       ??_C@_0CC@OKNMKAG@parsed?3?5maxState?$DN?$CFd?0?5maxEntry?$DN?$CFd@ 1006f7c0     gxvalid.obj
 0002:000197e4       ??_C@_0L@DNKGNIID@EntryTable?$AA@ 1006f7e4     gxvalid.obj
 0002:000197f0       ??_C@_0BK@HBJOMEJH@maxEntry?$DN?$CFd?5entrySize?$DN?$CFd?6?$AA@ 1006f7f0     gxvalid.obj
 0002:0001980c       ??_C@_0DL@FHGOPENN@too?5large?5maxEntry?0?5shrinking?5to@ 1006f80c     gxvalid.obj
 0002:00019848       ??_C@_0CO@BHOMMNJJ@?5newState?5offset?50x?$CF04x?5is?5out?5o@ 1006f848     gxvalid.obj
 0002:00019878       ??_C@_0DG@PGMCKEPL@?5newState?5offset?50x?$CF04x?5is?5not?5a@ 1006f878     gxvalid.obj
 0002:000198b0       ??_C@_0L@MLCPDPCJ@StateTable?$AA@ 1006f8b0     gxvalid.obj
 0002:000198bc       ??_C@_0BD@IGCEMGPH@StateTable?5header?6?$AA@ 1006f8bc     gxvalid.obj
 0002:000198d0       ??_C@_0BC@DJAJGCPP@stateSize?$DN0x?$CF04x?6?$AA@ 1006f8d0     gxvalid.obj
 0002:000198e4       ??_C@_0BN@DCGKEGKM@offset?5to?5classTable?$DN0x?$CF04x?6?$AA@ 1006f8e4     gxvalid.obj
 0002:00019904       ??_C@_0BN@JCHJGFPC@offset?5to?5stateArray?$DN0x?$CF04x?6?$AA@ 1006f904     gxvalid.obj
 0002:00019924       ??_C@_0BN@IAPKLPEK@offset?5to?5entryTable?$DN0x?$CF04x?6?$AA@ 1006f924     gxvalid.obj
 0002:00019944       ??_C@_0BG@DJLACMED@StateTable?5Subtables?6?$AA@ 1006f944     gxvalid.obj
 0002:0001995c       ??_C@_0M@CLOHIDLD@XStateArray?$AA@ 1006f95c     gxvalid.obj
 0002:00019968       ??_C@_0DE@NJBFCELM@parse?5?$CF?53d?5bytes?5by?5stateSize?$DN?$CF?5@ 1006f968     gxvalid.obj
 0002:0001999c       ??_C@_0M@BHIDIDPC@XEntryTable?$AA@ 1006f99c     gxvalid.obj
 0002:000199a8       ??_C@_0DC@GFGOLAJF@?5?5newState?5index?50x?$CF04x?5points?5o@ 1006f9a8     gxvalid.obj
 0002:000199e0       ??_C@_0FF@DHAMBHJP@?9?$DO?5new?5state?5?$DN?5?$CFd?5?$CIsupposed?$CJ?6but@ 1006f9e0     gxvalid.obj
 0002:00019a38       ??_C@_0M@OBAKGEFI@XStateTable?$AA@ 1006fa38     gxvalid.obj
 0002:00019a44       ??_C@_0BE@BLBMEJJE@XStateTable?5header?6?$AA@ 1006fa44     gxvalid.obj
 0002:00019a58       ??_C@_0BC@OCMCHJCK@nClasses?5?$DN0x?$CF08x?6?$AA@ 1006fa58     gxvalid.obj
 0002:00019a6c       ??_C@_0BN@HILMPJBE@offset?5to?5classTable?$DN0x?$CF08x?6?$AA@ 1006fa6c     gxvalid.obj
 0002:00019a8c       ??_C@_0BN@NIKPNKEK@offset?5to?5stateArray?$DN0x?$CF08x?6?$AA@ 1006fa8c     gxvalid.obj
 0002:00019aac       ??_C@_0BN@MKCMAAPC@offset?5to?5entryTable?$DN0x?$CF08x?6?$AA@ 1006faac     gxvalid.obj
 0002:00019acc       ??_C@_0CB@HGFMHCIF@check?5overlap?5among?5multi?5ranges@ 1006facc     gxvalid.obj
 0002:00019af0       ??_C@_0CN@OKEHLFHP@found?5overlap?5between?5range?5?$CFd?5a@ 1006faf0     gxvalid.obj
 0002:00019b20       ??_C@_0CF@PMHFJOJG@found?5overlap?5between?5?$GA?$CFs?8?5and?5?$GA@ 1006fb20     gxvalid.obj
 0002:00019b48       ??_C@_0N@EPJPFHIN@lookup?5value?$AA@ 1006fb48     gxvalid.obj
 0002:00019b58       ??_C@_0P@KEPAICBH@parts?5format?50?$AA@ 1006fb58     gxvalid.obj
 0002:00019b68       ??_C@_0P@LNOLLDFG@parts?5format?51?$AA@ 1006fb68     gxvalid.obj
 0002:00019b78       ??_C@_0P@JGMGOAJF@parts?5format?52?$AA@ 1006fb78     gxvalid.obj
 0002:00019b88       ??_C@_0BC@DEAIPHBF@?5?$CIstdGlyph?5?$DN?5?$CFu?$CJ?6?$AA@ 1006fb88     gxvalid.obj
 0002:00019b9c       ??_C@_0P@IPNNNBNE@parts?5format?53?$AA@ 1006fb9c     gxvalid.obj
 0002:00019bac       ??_C@_0BJ@JBBPJONA@validating?5?$GAbsln?8?5table?6?$AA@ 1006fbac     gxvalid.obj
 0002:00019bc8       ??_C@_0BA@JJIIDJMO@?5?$CIformat?5?$DN?5?$CFd?$CJ?6?$AA@ 1006fbc8     gxvalid.obj
 0002:00019bd8       ??_C@_0L@EPNHJGFF@trackTable?$AA@ 1006fbd8     gxvalid.obj
 0002:00019be4       ??_C@_0CP@OGMBJFDF@duplicated?5entries?5found?5for?5tra@ 1006fbe4     gxvalid.obj
 0002:00019c14       ??_C@_09PIFJKEHJ@trackData?$AA@ 1006fc14     gxvalid.obj
 0002:00019c20       ??_C@_0BB@NHLJIHNJ@trackData?5header?$AA@ 1006fc20     gxvalid.obj
 0002:00019c34       ??_C@_09OOPAPGMF@sizeTable?$AA@ 1006fc34     gxvalid.obj
 0002:00019c40       ??_C@_0BM@EMAOLGAI@too?5short?5trackValue?5array?6?$AA@ 1006fc40     gxvalid.obj
 0002:00019c5c       ??_C@_0BB@MJAIAHFM@trackValue?5array?$AA@ 1006fc5c     gxvalid.obj
 0002:00019c70       ??_C@_0BJ@DDOFCNPL@validating?5?$GAtrak?8?5table?6?$AA@ 1006fc70     gxvalid.obj
 0002:00019c8c       ??_C@_0BF@JKEBBHOG@?5?$CIversion?5?$DN?50x?$CF08x?$CJ?6?$AA@ 1006fc8c     gxvalid.obj
 0002:00019ca4       ??_C@_0BE@FPPKBALM@?5?$CIformat?5?$DN?50x?$CF04x?$CJ?6?$AA@ 1006fca4     gxvalid.obj
 0002:00019cb8       ??_C@_0BJ@NBCDEPNN@?5?$CIhorizOffset?5?$DN?50x?$CF04x?$CJ?6?$AA@ 1006fcb8     gxvalid.obj
 0002:00019cd4       ??_C@_0BI@JPJCFKNO@?5?$CIvertOffset?5?$DN?50x?$CF04x?$CJ?6?$AA@ 1006fcd4     gxvalid.obj
 0002:00019cec       ??_C@_0BG@GIDIHHMC@?5?$CIreserved?5?$DN?50x?$CF04x?$CJ?6?$AA@ 1006fcec     gxvalid.obj
 0002:00019d04       ??_C@_0O@FJAINNEC@horizJustData?$AA@ 1006fd04     gxvalid.obj
 0002:00019d14       ??_C@_0N@OAEPKIGF@vertJustData?$AA@ 1006fd14     gxvalid.obj
 0002:00019d24       ??_C@_0DI@CJDBOEDP@just?5table?5includes?5too?5large?5?$CFs@ 1006fd24     gxvalid.obj
 0002:00019d60       ??_C@_0FF@INJCKFHD@just?5table?5includes?5non?9zero?5val@ 1006fd60     gxvalid.obj
 0002:00019db8       ??_C@_0BL@PDKECLNH@validating?5wdc?5pair?5?$CFd?1?$CFd?6?$AA@ 1006fdb8     gxvalid.obj
 0002:00019dd4       ??_C@_0BH@DKGNFIPP@just?5justDeltaClusters?$AA@ 1006fdd4     gxvalid.obj
 0002:00019df0       ??_C@_0EJ@GKIHAHPC@just?5table?5includes?5invalid?5rang@ 1006fdf0     gxvalid.obj
 0002:00019e3c       ??_C@_0N@CMPJCJGP@type0?3glyphs?$AA@ 1006fe3c     gxvalid.obj
 0002:00019e4c       ??_C@_0P@LNDIHLEC@type1?3addGlyph?$AA@ 1006fe4c     gxvalid.obj
 0002:00019e5c       ??_C@_0P@CENKBNED@type2?3addGlyph?$AA@ 1006fe5c     gxvalid.obj
 0002:00019e6c       ??_C@_0BB@CKBIJAOG@type2?3substGlyph?$AA@ 1006fe6c     gxvalid.obj
 0002:00019e80       ??_C@_0CJ@MOFFDCMO@variantsAxis?50x?$CF08x?5is?5non?5defau@ 1006fe80     gxvalid.obj
 0002:00019eac       ??_C@_0DD@EGGJBIFA@type4?3minimumLimit?50x?$CF08x?5?$DO?5noSt@ 1006feac     gxvalid.obj
 0002:00019ee0       ??_C@_0DD@KGAGBBOK@type4?3noStretchValue?50x?$CF08x?5?$DO?5ma@ 1006fee0     gxvalid.obj
 0002:00019f14       ??_C@_0CN@IAEHPAMB@type5?3?5nonzero?5value?50x?$CF04x?5in?5u@ 1006ff14     gxvalid.obj
 0002:00019f44       ??_C@_0M@KBFLMKFM@type5?3glyph?$AA@ 1006ff44     gxvalid.obj
 0002:00019f50       ??_C@_0BC@DKCMPIJF@just?5actSubrecord?$AA@ 1006ff50     gxvalid.obj
 0002:00019f64       ??_C@_0BC@BNAKFIEF@actionCount?5?$DN?5?$CFd?6?$AA@ 1006ff64     gxvalid.obj
 0002:00019f78       ??_C@_0BD@IHEACLD@just?5pcLookupTable?$AA@ 1006ff78     gxvalid.obj
 0002:00019f8c       ??_C@_0BD@JBCKMKKO@just?5postcompTable?$AA@ 1006ff8c     gxvalid.obj
 0002:00019fa0       ??_C@_0BE@ENIOFICK@just?5justClassTable?$AA@ 1006ffa0     gxvalid.obj
 0002:00019fb4       ??_C@_0CK@LDIDIJDH@?5?5justClassTable?3?5coverage?5?$DN?50x?$CF@ 1006ffb4     gxvalid.obj
 0002:00019fe0       ??_C@_0L@FFPJPABJ@ascending?6?$AA@ 1006ffe0     gxvalid.obj
 0002:00019fec       ??_C@_0M@NOCGKDGP@descending?6?$AA@ 1006ffec     gxvalid.obj
 0002:00019ff8       ??_C@_0EE@JOAEIJCE@?5?5justClassTable?3?5nonzero?5value?5@ 1006fff8     gxvalid.obj
 0002:0001a03c       ??_C@_0O@OEDOIIJC@just?5justData?$AA@ 1007003c     gxvalid.obj
 0002:0001a04c       ??_C@_0CC@EOPOGJNC@?5?$CIjustClassTableOffset?5?$DN?50x?$CF04x?$CJ@ 1007004c     gxvalid.obj
 0002:0001a070       ??_C@_0BM@NNPKCHAA@?5?$CIwdcTableOffset?5?$DN?50x?$CF04x?$CJ?6?$AA@ 10070070     gxvalid.obj
 0002:0001a08c       ??_C@_0BL@PDAFHACE@?5?$CIpcTableOffset?5?$DN?50x?$CF04x?$CJ?6?$AA@ 1007008c     gxvalid.obj
 0002:0001a0a8       ??_C@_0BB@ODJMJHDD@just_LookupTable?$AA@ 100700a8     gxvalid.obj
 0002:0001a0bc       ??_C@_0O@DFNGDLK@just_wdcTable?$AA@ 100700bc     gxvalid.obj
 0002:0001a0cc       ??_C@_0N@KAGMCNIM@just_pcTable?$AA@ 100700cc     gxvalid.obj
 0002:0001a0dc       ??_C@_0BE@BMACIMAJ@just_justClassTable?$AA@ 100700dc     gxvalid.obj
 0002:0001a0f0       ??_C@_0BJ@CJKDMJHB@validating?5?$GAjust?8?5table?6?$AA@ 100700f0     gxvalid.obj
 0002:0001a10c       ??_C@_0M@CDBODNCB@just?5header?$AA@ 1007010c     gxvalid.obj
 0002:0001a118       ??_C@_0BF@CMABBIIH@?5?$CIhorizOffset?5?$DN?5?$CFd?$CJ?6?$AA@ 10070118     gxvalid.obj
 0002:0001a130       ??_C@_0BE@JFCHPFFG@?5?$CIvertOffset?5?$DN?5?$CFd?$CJ?6?$AA@ 10070130     gxvalid.obj
 0002:0001a148       ??_C@_0EE@NHNIFBNE@featureType?5?$CFd?5is?5out?5of?5registe@ 10070148     gxvalid.obj
 0002:0001a190       ??_C@_0FB@PEFGGJCF@featureType?5?$CFd?5is?5within?5registe@ 10070190     gxvalid.obj
 0002:0001a1e4       ??_C@_0BN@NBHBLNPN@featureType?5?$CFd?5is?5registered?$AA@ 100701e4     gxvalid.obj
 0002:0001a204       ??_C@_0L@NJMEPBLB@setting?5?$CFd?$AA@ 10070204     gxvalid.obj
 0002:0001a210       ??_C@_0BI@KAENCPH@out?5of?5defined?5range?5?$CFd?$AA@ 10070210     gxvalid.obj
 0002:0001a228       ??_C@_0BC@NNBFEOAD@mort?5feature?5list?$AA@ 10070228     gxvalid.obj
 0002:0001a23c       ??_C@_0CK@DFNJPDGP@?5this?5subtable?5is?5for?5vertical?5t@ 1007023c     gxvalid.obj
 0002:0001a268       ??_C@_0CM@FKEKJIHB@?5this?5subtable?5is?5for?5horizontal@ 10070268     gxvalid.obj
 0002:0001a294       ??_C@_0DO@GPPIHKDE@?5this?5subtable?5is?5applied?5to?5gly@ 10070294     gxvalid.obj
 0002:0001a2d4       ??_C@_0DN@FKLFHIEN@?5this?5subtable?5is?5applied?5to?5gly@ 100702d4     gxvalid.obj
 0002:0001a318       ??_C@_0EA@OILEFNPF@?5this?5subtable?5is?5forcibly?5appli@ 10070318     gxvalid.obj
 0002:0001a358       ??_C@_0CO@PPDCIHDL@?5coverage?5has?5non?9zero?5bits?5in?5r@ 10070358     gxvalid.obj
 0002:0001a388       ??_C@_0BF@CDPKIEFC@subtables?5in?5a?5chain?$AA@ 10070388     gxvalid.obj
 0002:0001a3a0       ??_C@_0CM@KJJCNDKE@validating?5chain?5subtable?5?$CFd?1?$CFd?5@ 100703a0     gxvalid.obj
 0002:0001a3cc       ??_C@_0BK@GABFJFGO@morx?5type?5?$CFd?5is?5reserved?6?$AA@ 100703cc     gxvalid.obj
 0002:0001a3e8       ??_C@_0BC@MPBKEAIG@mort?5chain?5header?$AA@ 100703e8     gxvalid.obj
 0002:0001a3fc       ??_C@_0BJ@HDHBBFHE@validating?5?$GAmort?8?5table?6?$AA@ 100703fc     gxvalid.obj
 0002:0001a418       ??_C@_0BI@IKDEBIOI@validating?5chain?5?$CFd?1?$CFd?6?$AA@ 10070418     gxvalid.obj
 0002:0001a430       ??_C@_0CP@BLFNPCPD@?5?5IndicScript?5MorphRule?5for?5glyp@ 10070430     gxvalid.obj
 0002:0001a460       ??_C@_0BA@LKIFIPAC@?5markFirst?$DN?$CF01d?$AA@ 10070460     gxvalid.obj
 0002:0001a470       ??_C@_0BC@DLAKGIBP@?5dontAdvance?$DN?$CF01d?$AA@ 10070470     gxvalid.obj
 0002:0001a484       ??_C@_0P@GDJPENBI@?5markLast?$DN?$CF01d?$AA@ 10070484     gxvalid.obj
 0002:0001a494       ??_C@_05JGOFJMOC@?5?$CF02d?$AA@ 10070494     gxvalid.obj
 0002:0001a4a0       ??_C@_0EJ@HOPMAAAN@?5?5?$FLodd?$FN?5a?5glyph?5is?5marked?5as?5the@ 100704a0     gxvalid.obj
 0002:0001a4f0       ??_C@_0EJ@FCJDKLAF@?5?5?$FLodd?$FN?5the?5first?5glyph?5is?5marke@ 100704f0     gxvalid.obj
 0002:0001a53c       ??_C@_0CI@BAFHHIHM@?5non?9zero?5bits?5found?5in?5reserved@ 1007053c     gxvalid.obj
 0002:0001a564       ??_C@_0DH@IFICMNAH@mort?5chain?5subtable?5type0?5?$CIIndic@ 10070564     gxvalid.obj
 0002:0001a59c       ??_C@_0CJ@KHEMEKLO@validating?5contents?5of?5substitut@ 1007059c     gxvalid.obj
 0002:0001a5c8       ??_C@_0EI@OGFDMMGO@substTable?5include?5a?5strange?5gid@ 100705c8     gxvalid.obj
 0002:0001a610       ??_C@_0DD@LNLAPACO@mort?5chain?5subtable?5type1?5?$CIConte@ 10070610     gxvalid.obj
 0002:0001a644       ??_C@_0CB@NOFBBJEM@offset?5to?5ligActionTable?$DN0x?$CF04x?6@ 10070644     gxvalid.obj
 0002:0001a668       ??_C@_0CB@EADJMCEO@offset?5to?5componentTable?$DN0x?$CF04x?6@ 10070668     gxvalid.obj
 0002:0001a68c       ??_C@_0CA@NDNEMHDP@offset?5to?5ligatureTable?$DN0x?$CF04x?6?$AA@ 1007068c     gxvalid.obj
 0002:0001a6ac       ??_C@_0BK@EFCJODAL@subtable?5boundaries?5setup?$AA@ 100706ac     gxvalid.obj
 0002:0001a6c8       ??_C@_0CJ@KEAEKKB@classTable?3?5offset?$DN0x?$CF04x?5length@ 100706c8     gxvalid.obj
 0002:0001a6f4       ??_C@_0CJ@LNGHLADH@stateArray?3?5offset?$DN0x?$CF04x?5length@ 100706f4     gxvalid.obj
 0002:0001a720       ??_C@_0CJ@IFIPPFNC@entryTable?3?5offset?$DN0x?$CF04x?5length@ 10070720     gxvalid.obj
 0002:0001a74c       ??_C@_0CN@JBGJNHHM@ligActionTable?3?5offset?$DN0x?$CF04x?5le@ 1007074c     gxvalid.obj
 0002:0001a77c       ??_C@_0CN@MDJCIELE@componentTable?3?5offset?$DN0x?$CF04x?5le@ 1007077c     gxvalid.obj
 0002:0001a7ac       ??_C@_0CN@IOMKFGIP@ligatureTable?3?5?5offset?$DN0x?$CF04x?5le@ 100707ac     gxvalid.obj
 0002:0001a7dc       ??_C@_0DI@PFPAKPAD@too?5short?5offset?50x?$CF04x?3?5p?5?$DM?5lat@ 100707dc     gxvalid.obj
 0002:0001a814       ??_C@_0DK@NEOEPNKB@too?5large?5offset?50x?$CF04x?3?5lat_lim@ 10070814     gxvalid.obj
 0002:0001a850       ??_C@_0EG@FEHOLMAM@too?5short?5offset?50x?$CF08x?3?52?5x?5off@ 10070850     gxvalid.obj
 0002:0001a898       ??_C@_0FN@OBFFAHFG@too?5long?5offset?50x?$CF08x?3?52?5x?5offs@ 10070898     gxvalid.obj
 0002:0001a8f8       ??_C@_0CO@CKILHPKC@mort?5chain?5subtable?5type2?5?9?5subs@ 100708f8     gxvalid.obj
 0002:0001a928       ??_C@_0DC@GAENJLMF@mort?5chain?5subtable?5type2?5?$CILigat@ 10070928     gxvalid.obj
 0002:0001a95c       ??_C@_0DO@PHDGHEOB@mort?5chain?5subtable?5type4?5?$CINon?9C@ 1007095c     gxvalid.obj
 0002:0001a99c       ??_C@_0BN@OGEJINGO@?5offset?5runs?5into?5ClassTable?$AA@ 1007099c     gxvalid.obj
 0002:0001a9bc       ??_C@_0BN@LIOAMPLP@?5offset?5runs?5into?5StateArray?$AA@ 100709bc     gxvalid.obj
 0002:0001a9dc       ??_C@_0BN@IEIEMPPO@?5offset?5runs?5into?5EntryTable?$AA@ 100709dc     gxvalid.obj
 0002:0001a9fc       ??_C@_07BBDHIOFJ@?50x?$CF04x?$AA@ 100709fc     gxvalid.obj
 0002:0001aa04       ??_C@_0CM@HKGLNPMG@mort?5chain?5subtable?5type5?5?$CIGlyph@ 10070a04     gxvalid.obj
 0002:0001aa30       ??_C@_0BC@IKOPOJGC@morx?5chain?5header?$AA@ 10070a30     gxvalid.obj
 0002:0001aa44       ??_C@_0BJ@GJENPFPK@validating?5?$GAmorx?8?5table?6?$AA@ 10070a44     gxvalid.obj
 0002:0001aa60       ??_C@_0DH@BEFNHJI@morx?5chain?5subtable?5type0?5?$CIIndic@ 10070a60     gxvalid.obj
 0002:0001aa98       ??_C@_0CA@OOALBDKD@?5setMark?$DN?$CF01d?5dontAdvance?$DN?$CF01d?6?$AA@ 10070a98     gxvalid.obj
 0002:0001aab8       ??_C@_0CD@JLFNKFJG@markIndex?5?$DN?5?$CFd?0?5currentIndex?5?$DN?5?$CF@ 10070ab8     gxvalid.obj
 0002:0001aadc       ??_C@_0CG@HMLMIJME@morx?5subtable?5type1?5subst?4?3?5?$CFd?5?9@ 10070adc     gxvalid.obj
 0002:0001ab04       ??_C@_0DD@HNIJCDPP@morx?5chain?5subtable?5type1?5?$CIConte@ 10070b04     gxvalid.obj
 0002:0001ab38       ??_C@_0CB@JEIHKGPE@offset?5to?5ligActionTable?$DN0x?$CF08x?6@ 10070b38     gxvalid.obj
 0002:0001ab5c       ??_C@_0CB@KOPHNPG@offset?5to?5componentTable?$DN0x?$CF08x?6@ 10070b5c     gxvalid.obj
 0002:0001ab80       ??_C@_0CA@JJACHIIH@offset?5to?5ligatureTable?$DN0x?$CF08x?6?$AA@ 10070b80     gxvalid.obj
 0002:0001aba0       ??_C@_0CJ@FMGPIMBD@classTable?3?5offset?$DN0x?$CF08x?5length@ 10070ba0     gxvalid.obj
 0002:0001abcc       ??_C@_0CJ@OLEIHGIF@stateArray?3?5offset?$DN0x?$CF08x?5length@ 10070bcc     gxvalid.obj
 0002:0001abf8       ??_C@_0CJ@NDKADDGA@entryTable?3?5offset?$DN0x?$CF08x?5length@ 10070bf8     gxvalid.obj
 0002:0001ac24       ??_C@_0CN@MHEGBBMO@ligActionTable?3?5offset?$DN0x?$CF08x?5le@ 10070c24     gxvalid.obj
 0002:0001ac54       ??_C@_0CN@JFLNECAG@componentTable?3?5offset?$DN0x?$CF08x?5le@ 10070c54     gxvalid.obj
 0002:0001ac84       ??_C@_0CN@NIOFJADN@ligatureTable?3?5?5offset?$DN0x?$CF08x?5le@ 10070c84     gxvalid.obj
 0002:0001acb4       ??_C@_0BP@DAFIONGP@p?5?$DM?5lat_base?5?$CI?$CFd?5byte?5rewind?$CJ?6?$AA@ 10070cb4     gxvalid.obj
 0002:0001acd4       ??_C@_0CB@IEDBCKAK@lat_limit?5?$DM?5p?5?$CI?$CFd?5byte?5overrun?$CJ?6@ 10070cd4     gxvalid.obj
 0002:0001acf8       ??_C@_0FP@PNAGKJCD@ligature?5action?5table?5includes?5t@ 10070cf8     gxvalid.obj
 0002:0001ad58       ??_C@_0FL@OJHFMOKG@ligature?5action?5table?5includes?5t@ 10070d58     gxvalid.obj
 0002:0001adb8       ??_C@_0EM@HNKJPGPM@ligature?5action?5table?5includes?5i@ 10070db8     gxvalid.obj
 0002:0001ae04       ??_C@_0BO@ELBAJOLL@?5?5reserved?514bit?5is?5non?9zero?6?$AA@ 10070e04     gxvalid.obj
 0002:0001ae24       ??_C@_0CO@LILJBPBE@morx?5chain?5subtable?5type2?5?9?5subs@ 10070e24     gxvalid.obj
 0002:0001ae54       ??_C@_0DC@ODPCOHLK@morx?5chain?5subtable?5type2?5?$CILigat@ 10070e54     gxvalid.obj
 0002:0001ae88       ??_C@_0DO@HFPFEGGO@morx?5chain?5subtable?5type4?5?$CINon?9C@ 10070e88     gxvalid.obj
 0002:0001aec8       ??_C@_0CM@EBKPANMM@morx?5chain?5subtable?5type5?5?$CIGlyph@ 10070ec8     gxvalid.obj
 0002:0001aef4       ??_C@_0BE@JLIAMELO@kern?5format?50?5pairs?$AA@ 10070ef4     gxvalid.obj
 0002:0001af08       ??_C@_0BP@LNAKMNFN@left?5gid?5?$DN?5?$CFu?0?5right?5gid?5?$DN?5?$CFu?6?$AA@ 10070f08     gxvalid.obj
 0002:0001af28       ??_C@_0BH@NKOAKPBH@kern?5subtable?5format?50?$AA@ 10070f28     gxvalid.obj
 0002:0001af40       ??_C@_0BH@MDPLJOFG@kern?5subtable?5format?51?$AA@ 10070f40     gxvalid.obj
 0002:0001af58       ??_C@_0BJ@LLJDPPA@kern?5format?52?5classTable?$AA@ 10070f58     gxvalid.obj
 0002:0001af74       ??_C@_0BP@LMELLEKM@?5?$CFs?5firstGlyph?$DN?$CFd?0?5nGlyphs?$DN?$CFd?6?$AA@ 10070f74     gxvalid.obj
 0002:0001af94       ??_C@_09MLMIGEEM@leftClass?$AA@ 10070f94     gxvalid.obj
 0002:0001afa0       ??_C@_0L@DINOKHBE@rightClass?$AA@ 10070fa0     gxvalid.obj
 0002:0001afac       ??_C@_0BH@OINGMNJF@kern?5subtable?5format?52?$AA@ 10070fac     gxvalid.obj
 0002:0001afc4       ??_C@_0P@BKEKJGFE@rowWidth?5?$DN?5?$CFd?6?$AA@ 10070fc4     gxvalid.obj
 0002:0001afd4       ??_C@_05HIFJDKLD@array?$AA@ 10070fd4     gxvalid.obj
 0002:0001afdc       ??_C@_0BH@PBMNPMNE@kern?5subtable?5format?53?$AA@ 10070fdc     gxvalid.obj
 0002:0001aff4       ??_C@_0BO@CBLMABCI@maxGID?$DN?$CFd?0?5but?5glyphCount?$DN?$CFd?6?$AA@ 10070ff4     gxvalid.obj
 0002:0001b014       ??_C@_0DK@DCFBPKOO@kern?5subtable?5fmt3?5has?5nonzero?5v@ 10071014     gxvalid.obj
 0002:0001b050       ??_C@_0EM@NCBEHCCG@new?5Apple?9dialect?3?5horizontal?$DN?$CFd@ 10071050     gxvalid.obj
 0002:0001b09c       ??_C@_0DF@PJOCMIHK@kerning?5values?5in?5Apple?5format?5s@ 1007109c     gxvalid.obj
 0002:0001b0d8       ??_C@_0EC@GKDPDHHK@classic?5Apple?9dialect?3?5horizonta@ 100710d8     gxvalid.obj
 0002:0001b120       ??_C@_0FP@BKEPJGAA@classic?5Microsoft?9dialect?3?5horiz@ 10071120     gxvalid.obj
 0002:0001b180       ??_C@_0DL@EKGIIFLA@kerning?5values?5in?5Microsoft?5form@ 10071180     gxvalid.obj
 0002:0001b1bc       ??_C@_0BE@JLDLEDOM@validating?5coverage?$AA@ 100711bc     gxvalid.obj
 0002:0001b1d0       ??_C@_0CL@LBOBPDEC@interprete?5coverage?50x?$CF04x?5by?5Ap@ 100711d0     gxvalid.obj
 0002:0001b1fc       ??_C@_0DC@DCOJGAAM@cannot?5interprete?5coverage?0?5brok@ 100711fc     gxvalid.obj
 0002:0001b230       ??_C@_0O@LGMNEEBI@kern?5subtable?$AA@ 10071230     gxvalid.obj
 0002:0001b240       ??_C@_0BH@HLPCPPFN@Subtable?5version?5?$DN?5?$CFd?6?$AA@ 10071240     gxvalid.obj
 0002:0001b258       ??_C@_0BG@HOEOBMDH@Subtable?5length?5?$DN?5?$CFd?6?$AA@ 10071258     gxvalid.obj
 0002:0001b270       ??_C@_0BK@GLPDLKOL@Subtable?5tupleIndex?5?$DN?5?$CFd?6?$AA@ 10071270     gxvalid.obj
 0002:0001b28c       ??_C@_0DD@FNJOAPKM@cannot?5detect?5subtable?5dialect?0?5@ 1007128c     gxvalid.obj
 0002:0001b2c0       ??_C@_0BJ@JCPDDOJ@validating?5?$GAkern?8?5table?6?$AA@ 100712c0     gxvalid.obj
 0002:0001b2dc       ??_C@_0BP@CGDGIJPA@version?50x?$CF04x?5?$CIhigher?516bit?$CJ?6?$AA@ 100712dc     gxvalid.obj
 0002:0001b2fc       ??_C@_0BL@KOOHLMAI@validating?5subtable?5?$CFd?1?$CFd?6?$AA@ 100712fc     gxvalid.obj
 0002:0001b318       ??_C@_0BJ@OEPJJHJB@validating?5?$GAopbd?8?5table?6?$AA@ 10071318     gxvalid.obj
 0002:0001b334       ??_C@_0BC@BMGCNAAO@?$CIversion?$DN0x?$CF08x?$CJ?6?$AA@ 10071334     gxvalid.obj
 0002:0001b348       ??_C@_0BB@FPDIIMNM@?$CIformat?$DN0x?$CF04x?$CJ?6?$AA@ 10071348     gxvalid.obj
 0002:0001b35c       ??_C@_0DI@HKJFBHG@found?5overlap?5between?5LookupTabl@ 1007135c     gxvalid.obj
 0002:0001b394       ??_C@_0N@FHPBJMPC@zero?5advance?$AA@ 10071394     gxvalid.obj
 0002:0001b3a4       ??_C@_0DA@BAOEKFGE@?5?5found?5non?9zero?5advance?5in?5zero@ 100713a4     gxvalid.obj
 0002:0001b3d4       ??_C@_0CB@INKFJCHG@?5?5found?5zero?5offset?5to?5property?6@ 100713d4     gxvalid.obj
 0002:0001b3f8       ??_C@_0CH@MFFPNNPK@?5?5found?5non?9positive?5glyph?5compl@ 100713f8     gxvalid.obj
 0002:0001b420       ??_C@_0CP@DJPBHBEO@glyph?5?$CFd?5cannot?5have?5complementa@ 10071420     gxvalid.obj
 0002:0001b450       ??_C@_0DC@MDMFEPHI@?5?5found?5older?5version?5?$CI1?40?$CJ?5in?5n@ 10071450     gxvalid.obj
 0002:0001b484       ??_C@_0CI@ICCCDDBB@?5?5found?5non?9zero?5bits?5in?5reserve@ 10071484     gxvalid.obj
 0002:0001b4ac       ??_C@_0DB@PLGACNIE@?5?5found?5too?5old?5version?5in?5direc@ 100714ac     gxvalid.obj
 0002:0001b4e0       ??_C@_0BJ@HOGEBGHE@validating?5?$GAprop?8?5table?6?$AA@ 100714e0     gxvalid.obj
 0002:0001b4fc       ??_C@_0BC@BIOAJOFG@?5?5version?50x?$CF08x?6?$AA@ 100714fc     gxvalid.obj
 0002:0001b510       ??_C@_0BC@JGFHMKGO@?5?5format?5?50x?$CF04x?6?$AA@ 10071510     gxvalid.obj
 0002:0001b524       ??_C@_0BH@OJEOFIJM@?5?5defaultProp?5?50x?$CF04x?6?$AA@ 10071524     gxvalid.obj
 0002:0001b53c       ??_C@_0BJ@KEBPAJIJ@?5?5found?5unknown?5version?6?$AA@ 1007153c     gxvalid.obj
 0002:0001b558       ??_C@_0BI@PNFFIACD@?5?5found?5unknown?5format?6?$AA@ 10071558     gxvalid.obj
 0002:0001b570       ??_C@_0EE@KMNJAONB@?$CIformat?50?0?5no?5per?9glyph?5properti@ 10071570     gxvalid.obj
 0002:0001b5b4       ??_C@_07JHIHCBKH@partial?$AA@ 100715b4     gxvalid.obj
 0002:0001b5bc       ??_C@_0BH@EJHHMOLM@element?5in?5lookupTable?$AA@ 100715bc     gxvalid.obj
 0002:0001b5d4       ??_C@_0BJ@JBOHFDPN@validating?5?$GAlcar?8?5table?6?$AA@ 100715d4     gxvalid.obj
 0002:0001b5f0       ??_C@_0BC@CIDGJKNO@opentype?9validate?$AA@ 100715f0     otvalid.obj
 0002:0001b604       ??_C@_09JBHMENFE@BaseCoord?$AA@ 10071604     otvalid.obj
 0002:0001b610       ??_C@_0M@ONDHEBMC@BaseTagList?$AA@ 10071610     otvalid.obj
 0002:0001b61c       ??_C@_0BG@HENOFBKF@?5?$CIBaseTagCount?5?$DN?5?$CFd?$CJ?6?$AA@ 1007161c     otvalid.obj
 0002:0001b634       ??_C@_0L@LMNMDJNC@BaseValues?$AA@ 10071634     otvalid.obj
 0002:0001b640       ??_C@_0BI@BELFGMHE@?5?$CIBaseCoordCount?5?$DN?5?$CFd?$CJ?6?$AA@ 10071640     otvalid.obj
 0002:0001b658       ??_C@_06IJDLHBIP@MinMax?$AA@ 10071658     otvalid.obj
 0002:0001b660       ??_C@_0BJ@LEEBCPFJ@?5?$CIFeatMinMaxCount?5?$DN?5?$CFd?$CJ?6?$AA@ 10071660     otvalid.obj
 0002:0001b67c       ??_C@_08IFAJOOLP@MinCoord?$AA@ 1007167c     otvalid.obj
 0002:0001b688       ??_C@_0DG@LHDEHHMJ@?6Invalid?5offset?5to?5optional?5tabl@ 10071688     otvalid.obj
 0002:0001b6c0       ??_C@_08FCOCFMPO@MaxCoord?$AA@ 100716c0     otvalid.obj
 0002:0001b6cc       ??_C@_0L@DDJPIBOG@BaseScript?$AA@ 100716cc     otvalid.obj
 0002:0001b6d8       ??_C@_0BK@BMGBKNJG@?5?$CIBaseLangSysCount?5?$DN?5?$CFd?$CJ?6?$AA@ 100716d8     otvalid.obj
 0002:0001b6f4       ??_C@_0O@FKDNOFIH@DefaultMinMax?$AA@ 100716f4     otvalid.obj
 0002:0001b704       ??_C@_0P@JMCDPPKK@BaseScriptList?$AA@ 10071704     otvalid.obj
 0002:0001b714       ??_C@_0BJ@MBKMGFHH@?5?$CIBaseScriptCount?5?$DN?5?$CFd?$CJ?6?$AA@ 10071714     otvalid.obj
 0002:0001b730       ??_C@_04LBNBCLPC@Axis?$AA@ 10071730     otvalid.obj
 0002:0001b738       ??_C@_0BH@DFMDHEOJ@validating?5BASE?5table?6?$AA@ 10071738     otvalid.obj
 0002:0001b750       ??_C@_09MACMAMME@HorizAxis?$AA@ 10071750     otvalid.obj
 0002:0001b75c       ??_C@_08ODPNNALH@VertAxis?$AA@ 1007175c     otvalid.obj
 0002:0001b768       ??_C@_08HFDJHMPC@Coverage?$AA@ 10071768     otvalid.obj
 0002:0001b774       ??_C@_0BE@DDIFEMEH@?5?$CIGlyphCount?5?$DN?5?$CFd?$CJ?6?$AA@ 10071774     otvalid.obj
 0002:0001b788       ??_C@_0BE@JICFPEEP@?5?$CIRangeCount?5?$DN?5?$CFd?$CJ?6?$AA@ 10071788     otvalid.obj
 0002:0001b79c       ??_C@_08OGFMJMG@ClassDef?$AA@ 1007179c     otvalid.obj
 0002:0001b7a8       ??_C@_0BJ@EEAPCIBM@?5?$CIClassRangeCount?5?$DN?5?$CFd?$CJ?6?$AA@ 100717a8     otvalid.obj
 0002:0001b7c4       ??_C@_06OIEJKIHP@Device?$AA@ 100717c4     otvalid.obj
 0002:0001b7cc       ??_C@_06JCNKMBNA@Lookup?$AA@ 100717cc     otvalid.obj
 0002:0001b7d4       ??_C@_0M@BICHOLH@?5?$CItype?5?$CFd?$CJ?6?$AA@ 100717d4     otvalid.obj
 0002:0001b7e0       ??_C@_0BH@KLHBMLOA@?5?$CISubTableCount?5?$DN?5?$CFd?$CJ?6?$AA@ 100717e0     otvalid.obj
 0002:0001b7f8       ??_C@_0L@BFCGPNCJ@LookupList?$AA@ 100717f8     otvalid.obj
 0002:0001b804       ??_C@_0BF@OLMFLMGB@?5?$CILookupCount?5?$DN?5?$CFd?$CJ?6?$AA@ 10071804     otvalid.obj
 0002:0001b81c       ??_C@_07HAEFGBDM@Feature?$AA@ 1007181c     otvalid.obj
 0002:0001b824       ??_C@_0M@OICKELEI@FeatureList?$AA@ 10071824     otvalid.obj
 0002:0001b830       ??_C@_0BG@GFPNAJMM@?5?$CIFeatureCount?5?$DN?5?$CFd?$CJ?6?$AA@ 10071830     otvalid.obj
 0002:0001b848       ??_C@_07FGEIKMLE@LangSys?$AA@ 10071848     otvalid.obj
 0002:0001b850       ??_C@_0BJ@FHMEOHN@?5?$CIReqFeatureIndex?5?$DN?5?$CFd?$CJ?6?$AA@ 10071850     otvalid.obj
 0002:0001b86c       ??_C@_06CEFAHBNL@Script?$AA@ 1007186c     otvalid.obj
 0002:0001b874       ??_C@_0BG@GNBOABDM@?5?$CILangSysCount?5?$DN?5?$CFd?$CJ?6?$AA@ 10071874     otvalid.obj
 0002:0001b88c       ??_C@_0L@OEBHOCEA@ScriptList?$AA@ 1007188c     otvalid.obj
 0002:0001b898       ??_C@_0BF@PIFEGDD@?5?$CIScriptCount?5?$DN?5?$CFd?$CJ?6?$AA@ 10071898     otvalid.obj
 0002:0001b8b0       ??_C@_0P@KODJAEOI@?5?$CICount?5?$DN?5?$CFd?$CJ?6?$AA@ 100718b0     otvalid.obj
 0002:0001b8c0       ??_C@_0BA@GILHKMBB@?5?$CICount1?5?$DN?5?$CFd?$CJ?6?$AA@ 100718c0     otvalid.obj
 0002:0001b8d0       ??_C@_0BA@FBDKJANE@?5?$CICount2?5?$DN?5?$CFd?$CJ?6?$AA@ 100718d0     otvalid.obj
 0002:0001b8e0       ??_C@_0BI@HMKFADBO@?5?$CIBacktrackCount?5?$DN?5?$CFd?$CJ?6?$AA@ 100718e0     otvalid.obj
 0002:0001b8f8       ??_C@_0BE@FMCPNDBN@?5?$CIInputCount?5?$DN?5?$CFd?$CJ?6?$AA@ 100718f8     otvalid.obj
 0002:0001b90c       ??_C@_0BI@HCOJHMPO@?5?$CILookaheadCount?5?$DN?5?$CFd?$CJ?6?$AA@ 1007190c     otvalid.obj
 0002:0001b924       ??_C@_0BH@PGADLMJN@?5?$CIClassSetCount?5?$DN?5?$CFd?$CJ?6?$AA@ 10071924     otvalid.obj
 0002:0001b93c       ??_C@_0BM@CCBCKIJE@?5?$CIChainClassSetCount?5?$DN?5?$CFd?$CJ?6?$AA@ 1007193c     otvalid.obj
 0002:0001b958       ??_C@_0BN@COCBDHAK@?5?$CIBacktrackGlyphCount?5?$DN?5?$CFd?$CJ?6?$AA@ 10071958     otvalid.obj
 0002:0001b978       ??_C@_0BJ@DGPDEOLH@?5?$CIInputGlyphCount?5?$DN?5?$CFd?$CJ?6?$AA@ 10071978     otvalid.obj
 0002:0001b994       ??_C@_0BN@NCKKBJDF@?5?$CILookaheadGlyphCount?5?$DN?5?$CFd?$CJ?6?$AA@ 10071994     otvalid.obj
 0002:0001b9b4       ??_C@_0BH@MPAKGCNB@validating?5GDEF?5table?6?$AA@ 100719b4     otvalid.obj
 0002:0001b9cc       ??_C@_0O@MBLDHCJ@GlyphClassDef?$AA@ 100719cc     otvalid.obj
 0002:0001b9dc       ??_C@_0BB@PBPPDHAE@AttachListOffset?$AA@ 100719dc     otvalid.obj
 0002:0001b9f0       ??_C@_0L@FFCCCDFH@AttachList?$AA@ 100719f0     otvalid.obj
 0002:0001b9fc       ??_C@_0M@GLEIPMJL@AttachPoint?$AA@ 100719fc     otvalid.obj
 0002:0001ba08       ??_C@_0BD@BBKGFMJD@LigCaretListOffset?$AA@ 10071a08     otvalid.obj
 0002:0001ba1c       ??_C@_0N@EELMLAAJ@LigCaretList?$AA@ 10071a1c     otvalid.obj
 0002:0001ba2c       ??_C@_08BJIBEMI@LigGlyph?$AA@ 10071a2c     otvalid.obj
 0002:0001ba38       ??_C@_0L@POELCHPC@CaretValue?$AA@ 10071a38     otvalid.obj
 0002:0001ba44       ??_C@_0BD@NBLDPACM@MarkAttachClassDef?$AA@ 10071a44     otvalid.obj
 0002:0001ba58       ??_C@_0O@MFADEKCF@anchor_offset?$AA@ 10071a58     otvalid.obj
 0002:0001ba68       ??_C@_0M@CIJCNNBN@ValueRecord?$AA@ 10071a68     otvalid.obj
 0002:0001ba74       ??_C@_0BD@BJNGBOKL@?5?$CIformat?50b?$CF08lx?$CJ?6?$AA@ 10071a74     otvalid.obj
 0002:0001ba88       ??_C@_06CHPEJBOD@device?$AA@ 10071a88     otvalid.obj
 0002:0001ba90       ??_C@_06MMJDHFHO@Anchor?$AA@ 10071a90     otvalid.obj
 0002:0001ba98       ??_C@_0N@MGLMGLJM@XDeviceTable?$AA@ 10071a98     otvalid.obj
 0002:0001baa8       ??_C@_0N@BLCKLCBJ@YDeviceTable?$AA@ 10071aa8     otvalid.obj
 0002:0001bab8       ??_C@_09GKCFGBFF@MarkArray?$AA@ 10071ab8     otvalid.obj
 0002:0001bac4       ??_C@_0BD@MGHPDDB@?5?$CIMarkCount?5?$DN?5?$CFd?$CJ?6?$AA@ 10071ac4     otvalid.obj
 0002:0001bad8       ??_C@_09JHJGMDEJ@SinglePos?$AA@ 10071ad8     otvalid.obj
 0002:0001bae4       ??_C@_0BE@PIMJCIPE@?5?$CIValueCount?5?$DN?5?$CFd?$CJ?6?$AA@ 10071ae4     otvalid.obj
 0002:0001baf8       ??_C@_07JCCEGMEJ@PairSet?$AA@ 10071af8     otvalid.obj
 0002:0001bb00       ??_C@_0BI@NJAGMLBI@?5?$CIPairValueCount?5?$DN?5?$CFd?$CJ?6?$AA@ 10071b00     otvalid.obj
 0002:0001bb18       ??_C@_07MCEHNALG@PairPos?$AA@ 10071b18     otvalid.obj
 0002:0001bb20       ??_C@_0BG@DIGFHEAM@?5?$CIPairSetCount?5?$DN?5?$CFd?$CJ?6?$AA@ 10071b20     otvalid.obj
 0002:0001bb38       ??_C@_0BF@IFDEPIGC@?5?$CIClassCount1?5?$DN?5?$CFd?$CJ?6?$AA@ 10071b38     otvalid.obj
 0002:0001bb50       ??_C@_0BF@LMLJMEKH@?5?$CIClassCount2?5?$DN?5?$CFd?$CJ?6?$AA@ 10071b50     otvalid.obj
 0002:0001bb68       ??_C@_0L@CJCLLEFM@CursivePos?$AA@ 10071b68     otvalid.obj
 0002:0001bb74       ??_C@_0BI@BPFEMEPK@?5?$CIEntryExitCount?5?$DN?5?$CFd?$CJ?6?$AA@ 10071b74     otvalid.obj
 0002:0001bb8c       ??_C@_0M@BCKAFFLL@EntryAnchor?$AA@ 10071b8c     otvalid.obj
 0002:0001bb98       ??_C@_0L@KACDMDLI@ExitAnchor?$AA@ 10071b98     otvalid.obj
 0002:0001bba4       ??_C@_0M@IBLPCALD@MarkBasePos?$AA@ 10071ba4     otvalid.obj
 0002:0001bbb0       ??_C@_0BD@HCDIKBJI@MarkBasePosFormat1?$AA@ 10071bb0     otvalid.obj
 0002:0001bbc4       ??_C@_09HLLEBBL@BaseArray?$AA@ 10071bc4     otvalid.obj
 0002:0001bbd0       ??_C@_0L@OPIDGBED@MarkLigPos?$AA@ 10071bd0     otvalid.obj
 0002:0001bbdc       ??_C@_0BC@GNGKJHDP@MarkLigPosFormat1?$AA@ 10071bdc     otvalid.obj
 0002:0001bbf0       ??_C@_0O@ECFLMLCD@LigatureArray?$AA@ 10071bf0     otvalid.obj
 0002:0001bc00       ??_C@_0P@EHKJPLAN@LigatureAttach?$AA@ 10071c00     otvalid.obj
 0002:0001bc10       ??_C@_0M@CMPDFPNL@MarkMarkPos?$AA@ 10071c10     otvalid.obj
 0002:0001bc1c       ??_C@_0BD@BCBHGIJO@MarkMarkPosFormat1?$AA@ 10071c1c     otvalid.obj
 0002:0001bc30       ??_C@_0L@OKGBPHKJ@Mark2Array?$AA@ 10071c30     otvalid.obj
 0002:0001bc3c       ??_C@_0L@PJLMKIDH@ContextPos?$AA@ 10071c3c     otvalid.obj
 0002:0001bc48       ??_C@_0BC@BFKJALGP@ContextPosFormat1?$AA@ 10071c48     otvalid.obj
 0002:0001bc5c       ??_C@_0L@FOEEBKIE@PosRuleSet?$AA@ 10071c5c     otvalid.obj
 0002:0001bc68       ??_C@_07HIMGPBJA@PosRule?$AA@ 10071c68     otvalid.obj
 0002:0001bc70       ??_C@_0BC@DOIEFIKM@ContextPosFormat2?$AA@ 10071c70     otvalid.obj
 0002:0001bc84       ??_C@_0M@MEKKACJL@PosClassSet?$AA@ 10071c84     otvalid.obj
 0002:0001bc90       ??_C@_0N@NPPDML@PosClassRule?$AA@ 10071c90     otvalid.obj
 0002:0001bca0       ??_C@_0BC@CHJPGJON@ContextPosFormat3?$AA@ 10071ca0     otvalid.obj
 0002:0001bcb4       ??_C@_0BA@KNFGJIBN@ChainContextPos?$AA@ 10071cb4     otvalid.obj
 0002:0001bcc4       ??_C@_0BH@FMBFCNJL@ChainContextPosFormat1?$AA@ 10071cc4     otvalid.obj
 0002:0001bcdc       ??_C@_0BA@KKOCKKO@ChainPosRuleSet?$AA@ 10071cdc     otvalid.obj
 0002:0001bcec       ??_C@_0N@BEIALDJM@ChainPosRule?$AA@ 10071cec     otvalid.obj
 0002:0001bcfc       ??_C@_0BH@HHDIHOFI@ChainContextPosFormat2?$AA@ 10071cfc     otvalid.obj
 0002:0001bd14       ??_C@_0BB@BPEFCBHN@ChainPosClassSet?$AA@ 10071d14     otvalid.obj
 0002:0001bd28       ??_C@_0BC@EJGNFLKF@ChainPosClassRule?$AA@ 10071d28     otvalid.obj
 0002:0001bd3c       ??_C@_0BH@GOCDEPBJ@ChainContextPosFormat3?$AA@ 10071d3c     otvalid.obj
 0002:0001bd54       ??_C@_0N@PADOJKNA@ExtensionPos?$AA@ 10071d54     otvalid.obj
 0002:0001bd64       ??_C@_0BH@CAFAECGP@validating?5GPOS?5table?6?$AA@ 10071d64     otvalid.obj
 0002:0001bd7c       ??_C@_0M@HKFDFHFM@SingleSubst?$AA@ 10071d7c     otvalid.obj
 0002:0001bd88       ??_C@_0O@KIAHLELB@MultipleSubst?$AA@ 10071d88     otvalid.obj
 0002:0001bd98       ??_C@_0BF@JONNEHIF@MultipleSubstFormat1?$AA@ 10071d98     otvalid.obj
 0002:0001bdb0       ??_C@_08DOCONEG@Sequence?$AA@ 10071db0     otvalid.obj
 0002:0001bdbc       ??_C@_0P@NDLHLJCI@AlternateSubst?$AA@ 10071dbc     otvalid.obj
 0002:0001bdcc       ??_C@_0BG@PEOKEIDN@AlternateSubstFormat1?$AA@ 10071dcc     otvalid.obj
 0002:0001bde4       ??_C@_0N@OPJOICIL@AlternateSet?$AA@ 10071de4     otvalid.obj
 0002:0001bdf4       ??_C@_0BD@FEKBKGFP@?5?$CICompCount?5?$DN?5?$CFd?$CJ?6?$AA@ 10071df4     otvalid.obj
 0002:0001be08       ??_C@_0O@EEHAOKGP@LigatureSubst?$AA@ 10071e08     otvalid.obj
 0002:0001be18       ??_C@_0BF@IEPOJEEF@LigatureSubstFormat1?$AA@ 10071e18     otvalid.obj
 0002:0001be30       ??_C@_0M@LPHMMANG@LigatureSet?$AA@ 10071e30     otvalid.obj
 0002:0001be3c       ??_C@_08HMABDLDL@Ligature?$AA@ 10071e3c     otvalid.obj
 0002:0001be48       ??_C@_0N@BBIPNFNO@ContextSubst?$AA@ 10071e48     otvalid.obj
 0002:0001be58       ??_C@_0BE@MBGHFNDF@ContextSubstFormat1?$AA@ 10071e58     otvalid.obj
 0002:0001be6c       ??_C@_0L@EMJBDLJG@SubRuleSet?$AA@ 10071e6c     otvalid.obj
 0002:0001be78       ??_C@_07PNGNOEMN@SubRule?$AA@ 10071e78     otvalid.obj
 0002:0001be80       ??_C@_0BE@OKEKAOPG@ContextSubstFormat2?$AA@ 10071e80     otvalid.obj
 0002:0001be94       ??_C@_0M@DHABKGPC@SubClassSet?$AA@ 10071e94     otvalid.obj
 0002:0001bea0       ??_C@_0N@DEECIBJD@SubClassRule?$AA@ 10071ea0     otvalid.obj
 0002:0001beb0       ??_C@_0BE@PDFBDPLH@ContextSubstFormat3?$AA@ 10071eb0     otvalid.obj
 0002:0001bec4       ??_C@_0BC@FIDNHNLA@ChainContextSubst?$AA@ 10071ec4     otvalid.obj
 0002:0001bed8       ??_C@_0BJ@GDLKLFMN@ChainContextSubstFormat1?$AA@ 10071ed8     otvalid.obj
 0002:0001bef4       ??_C@_0BA@BIHLALLM@ChainSubRuleSet?$AA@ 10071ef4     otvalid.obj
 0002:0001bf04       ??_C@_0N@JBCLKGMB@ChainSubRule?$AA@ 10071f04     otvalid.obj
 0002:0001bf14       ??_C@_0BJ@EIJHOGAO@ChainContextSubstFormat2?$AA@ 10071f14     otvalid.obj
 0002:0001bf30       ??_C@_0BB@OMOOIFBE@ChainSubClassSet?$AA@ 10071f30     otvalid.obj
 0002:0001bf44       ??_C@_0BC@HNPACJPN@ChainSubClassRule?$AA@ 10071f44     otvalid.obj
 0002:0001bf58       ??_C@_0BJ@FBIMNHEP@ChainContextSubstFormat3?$AA@ 10071f58     otvalid.obj
 0002:0001bf74       ??_C@_0P@MIGHOIPH@ExtensionSubst?$AA@ 10071f74     otvalid.obj
 0002:0001bf84       ??_C@_0BI@HNGGLFBK@ReverseChainSingleSubst?$AA@ 10071f84     otvalid.obj
 0002:0001bf9c       ??_C@_0BH@DCIFGDHN@validating?5GSUB?5table?6?$AA@ 10071f9c     otvalid.obj
 0002:0001bfb4       ??_C@_0BE@HGIHBMCK@JstfPriority?5table?6?$AA@ 10071fb4     otvalid.obj
 0002:0001bfc8       ??_C@_0BE@FPEOFGKE@ShrinkageEnableGSUB?$AA@ 10071fc8     otvalid.obj
 0002:0001bfdc       ??_C@_0BF@NIPHBIGL@ShrinkageDisableGSUB?$AA@ 10071fdc     otvalid.obj
 0002:0001bff4       ??_C@_0BE@PJDPMPM@ShrinkageEnableGPOS?$AA@ 10071ff4     otvalid.obj
 0002:0001c008       ??_C@_0BF@IICKLCDD@ShrinkageDisableGPOS?$AA@ 10072008     otvalid.obj
 0002:0001c020       ??_C@_0BB@NEEPCHIB@ShrinkageJstfMax?$AA@ 10072020     otvalid.obj
 0002:0001c034       ??_C@_07LOEMCLDG@JstfMax?$AA@ 10072034     otvalid.obj
 0002:0001c03c       ??_C@_0L@PGGDOLFH@JstfLookup?$AA@ 1007203c     otvalid.obj
 0002:0001c048       ??_C@_0BE@CAKOLFBH@ExtensionEnableGSUB?$AA@ 10072048     otvalid.obj
 0002:0001c05c       ??_C@_0BF@IKOABKLO@ExtensionDisableGSUB?$AA@ 1007205c     otvalid.obj
 0002:0001c074       ??_C@_0BE@HAHDBPEP@ExtensionEnableGPOS?$AA@ 10072074     otvalid.obj
 0002:0001c088       ??_C@_0BF@NKDNLAOG@ExtensionDisableGPOS?$AA@ 10072088     otvalid.obj
 0002:0001c0a0       ??_C@_0BB@KLFHNGNL@ExtensionJstfMax?$AA@ 100720a0     otvalid.obj
 0002:0001c0b4       ??_C@_0L@EAOJFLFM@JstfScript?$AA@ 100720b4     otvalid.obj
 0002:0001c0c0       ??_C@_0BK@DMEPHICO@?5?$CIJstfLangSysCount?5?$DN?5?$CFd?$CJ?6?$AA@ 100720c0     otvalid.obj
 0002:0001c0dc       ??_C@_08ELBMBFHF@ExtGlyph?$AA@ 100720dc     otvalid.obj
 0002:0001c0e8       ??_C@_0O@IBEGHNHL@ExtenderGlyph?$AA@ 100720e8     otvalid.obj
 0002:0001c0f8       ??_C@_0P@GPBJDMEM@DefJstfLangSys?$AA@ 100720f8     otvalid.obj
 0002:0001c108       ??_C@_0M@CFPAADBN@JstfLangSys?$AA@ 10072108     otvalid.obj
 0002:0001c114       ??_C@_0N@KFBNCCIF@JstfPriority?$AA@ 10072114     otvalid.obj
 0002:0001c124       ??_C@_0BH@BOAEFIKB@validating?5JSTF?5table?6?$AA@ 10072124     otvalid.obj
 0002:0001c13c       ??_C@_0BJ@IAPMGOAC@?5?$CIJstfScriptCount?5?$DN?5?$CFd?$CJ?6?$AA@ 1007213c     otvalid.obj
 0002:0001c158       ??_C@_0O@JAHNDOPF@MathConstants?$AA@ 10072158     otvalid.obj
 0002:0001c168       ??_C@_0BC@KKGBJGEA@DeviceTableOffset?$AA@ 10072168     otvalid.obj
 0002:0001c17c       ??_C@_0BK@DILFDAFN@MathItalicsCorrectionInfo?$AA@ 1007217c     otvalid.obj
 0002:0001c198       ??_C@_0BI@HGLKFHAI@MathTopAccentAttachment?$AA@ 10072198     otvalid.obj
 0002:0001c1b0       ??_C@_0N@JIPGOLOF@MathKernInfo?$AA@ 100721b0     otvalid.obj
 0002:0001c1c0       ??_C@_0P@KMAIJLPA@MKRecordOffset?$AA@ 100721c0     otvalid.obj
 0002:0001c1d0       ??_C@_0O@JLPNAMID@MathGlyphInfo?$AA@ 100721d0     otvalid.obj
 0002:0001c1e0       ??_C@_0BG@GDBIFJDD@ExtendedShapeCoverage?$AA@ 100721e0     otvalid.obj
 0002:0001c1f8       ??_C@_0O@DKLKLMFJ@GlyphAssembly?$AA@ 100721f8     otvalid.obj
 0002:0001c208       ??_C@_0N@FEFCDOAH@MathVariants?$AA@ 10072208     otvalid.obj
 0002:0001c218       ??_C@_09MELAPGCF@VCoverage?$AA@ 10072218     otvalid.obj
 0002:0001c224       ??_C@_09PNNHEHHO@HCoverage?$AA@ 10072224     otvalid.obj
 0002:0001c230       ??_C@_06GEMKPBPA@Offset?$AA@ 10072230     otvalid.obj
 0002:0001c238       ??_C@_0BH@FEMEBHLG@validating?5MATH?5table?6?$AA@ 10072238     otvalid.obj
 0002:0001c250       ??_C@_0DK@CGBDLOMC@otv_validate?3?5Invalid?5glyphs?5ind@ 10072250     otvalid.obj
 0002:0001c28c       ??_C@_0CE@CPGKLFJK@are?5not?5handled?5by?5OpenType?5tabl@ 1007228c     otvalid.obj
 0002:0001c2b0       ??_C@_03MBEJPEFL@PCF?$AA@  100722b0     pcf.obj
 0002:0001c2b4       ??_C@_05PNMAPKLD@accel?$AA@ 100722b4     pcf.obj
 0002:0001c2bc       ??_C@_05FLNDGCKL@names?$AA@ 100722bc     pcf.obj
 0002:0001c2c4       ??_C@_06HHIOIDAF@swidth?$AA@ 100722c4     pcf.obj
 0002:0001c2cc       ??_C@_03NONKPJJM@enc?$AA@  100722cc     pcf.obj
 0002:0001c2d0       ??_C@_06ELDAEEGH@imtrcs?$AA@ 100722d0     pcf.obj
 0002:0001c2d8       ??_C@_04EDIAEBHE@bmps?$AA@ 100722d8     pcf.obj
 0002:0001c2e0       ??_C@_05HJLADDIM@mtrcs?$AA@ 100722e0     pcf.obj
 0002:0001c2e8       ??_C@_04DHMFFPCA@accl?$AA@ 100722e8     pcf.obj
 0002:0001c2f0       ??_C@_04GNINHFNB@prop?$AA@ 100722f0     pcf.obj
 0002:0001c2f8       ??_C@_03MMLCDJCH@pcf?$AA@  100722f8     pcf.obj
 0002:0001c2fc       ??_C@_01OGPIMHDM@?$DP?$AA@ 100722fc     pcf.obj
 0002:0001c300       ??_C@_0P@HCJPDACA@pcf_read_TOC?3?6?$AA@ 10072300     pcf.obj
 0002:0001c310       ??_C@_0BJ@GJLGODPG@?5?5number?5of?5tables?3?5?$CFld?6?$AA@ 10072310     pcf.obj
 0002:0001c330       ??_C@_0EC@ELCFBNEH@?5?5?$CFd?3?5type?$DN?$CFs?0?5format?$DN0x?$CFX?0?5size@ 10072330     pcf.obj
 0002:0001c374       ??_C@_0BF@BMLMFMIP@pcf_get_properties?3?6?$AA@ 10072374     pcf.obj
 0002:0001c38c       ??_C@_0BA@OLPHMDDF@?5?5format?5?$DN?5?$CFld?6?$AA@ 1007238c     pcf.obj
 0002:0001c39c       ??_C@_0CC@GJMPFJH@?5?5nprop?5?$DN?5?$CFd?5?$CItruncate?5?$CFd?5props?$CJ@ 1007239c     pcf.obj
 0002:0001c3c0       ??_C@_0BF@GDNOIGOI@?5?5string_size?5?$DN?5?$CFld?6?$AA@ 100723c0     pcf.obj
 0002:0001c3d8       ??_C@_05GMKCCDBC@?5?5?$CFs?3?$AA@ 100723d8     pcf.obj
 0002:0001c3e0       ??_C@_06BCJMABKO@?5?$GA?$CFs?8?6?$AA@ 100723e0     pcf.obj
 0002:0001c3e8       ??_C@_04NKMBPDJM@?5?$CFd?6?$AA@ 100723e8     pcf.obj
 0002:0001c3f0       ??_C@_0BC@MNAEHFID@pcf_get_metrics?3?6?$AA@ 100723f0     pcf.obj
 0002:0001c404       ??_C@_0BJ@OBKLIAMH@?5?5number?5of?5metrics?3?5?$CFd?6?$AA@ 10072404     pcf.obj
 0002:0001c420       ??_C@_0EG@BDDHEMBN@?5?5idx?5?$CFd?3?5width?$DN?$CFd?0?5lsb?$DN?$CFd?0?5rsb?$DN@ 10072420     pcf.obj
 0002:0001c468       ??_C@_0BC@IALOFOAC@pcf_get_bitmaps?3?6?$AA@ 10072468     pcf.obj
 0002:0001c47c       ??_C@_0BJ@FMJIFGMG@?5?5number?5of?5bitmaps?3?5?$CFd?6?$AA@ 1007247c     pcf.obj
 0002:0001c498       ??_C@_0CB@PAKFNJJL@?5?5bitmap?5?$CFd?3?5offset?5?$CFld?5?$CI0x?$CFlX?$CJ?6@ 10072498     pcf.obj
 0002:0001c4bc       ??_C@_0CE@MMOPKGHL@?5?5padding?5?$CFd?5implies?5a?5size?5of?5?$CF@ 100724bc     pcf.obj
 0002:0001c4e0       ??_C@_0CB@LJNKNPOK@?5?5?$CFd?5bitmaps?0?5padding?5index?5?$CFld?6@ 100724e0     pcf.obj
 0002:0001c504       ??_C@_0BE@BJJPBJHC@?5?5bitmap?5size?5?$DN?5?$CFd?6?$AA@ 10072504     pcf.obj
 0002:0001c518       ??_C@_0DM@JHCKNBBM@pcf_get_bitmaps?3?5invalid?5offset?5@ 10072518     pcf.obj
 0002:0001c554       ??_C@_0BE@ECLFPBAD@pdf_get_encodings?3?6?$AA@ 10072554     pcf.obj
 0002:0001c568       ??_C@_0DE@OCLLIDHM@?5?5firstCol?5?$CFd?0?5lastCol?5?$CFd?0?5first@ 10072568     pcf.obj
 0002:0001c59c       ??_C@_0BM@NLLOBMOO@?5?5code?5?$CFd?5?$CI0x?$CF04X?$CJ?3?5idx?5?$CFd?6?$AA@ 1007259c     pcf.obj
 0002:0001c5b8       ??_C@_0CO@LGKELEDN@pcf_cmap_char_next?3?5charcode?50x?$CF@ 100725b8     pcf.obj
 0002:0001c5e8       ??_C@_0M@DBPDJOAN@PCF?5driver?6?$AA@ 100725e8     pcf.obj
 0002:0001c5f4       ??_C@_0BC@GAGKIEMM@?5?5not?5a?5PCF?5file?6?$AA@ 100725f4     pcf.obj
 0002:0001c608       ??_C@_0BC@EGLAHPIJ@load_glyph?5?$CFd?5?9?9?9?$AA@ 10072608     pcf.obj
 0002:0001c61c       ??_C@_0CN@MCMMALEK@BIT_ORDER?5?$CFd?5?$DL?5BYTE_ORDER?5?$CFd?5?$DL?5G@ 1007261c     pcf.obj
 0002:0001c64c       ??_C@_08PAMFFENL@?5?9?9?9?5ok?6?$AA@ 1007264c     pcf.obj
 0002:0001c658       ??_C@_0BH@DKMPHCLM@pcf_get_bdf_property?3?5?$AA@ 10072658     pcf.obj
 0002:0001c670       ??_C@_0CF@JIJNIFLI@too?5large?5integer?50x?$CFx?5is?5trunca@ 10072670     pcf.obj
 0002:0001c698       ??_C@_03OJCMOBOF@PFR?$AA@  10072698     pfr.obj
 0002:0001c69c       ??_C@_0M@BAGPBJNL@pfr?9metrics?$AA@ 1007269c     pfr.obj
 0002:0001c6a8       ??_C@_0DC@BKFOBILN@pfr_extra_items_parse?3?5invalid?5e@ 100726a8     pfr.obj
 0002:0001c6dc       ??_C@_0CP@EHKGCINN@pfr_log_font_load?3?5invalid?5logic@ 100726dc     pfr.obj
 0002:0001c70c       ??_C@_0DM@EPPBEFLF@pfr_extra_item_load_bitmap_info?3@ 1007270c     pfr.obj
 0002:0001c748       ??_C@_0DJ@FFMDOKAE@pfr_exta_item_load_stem_snaps?3?5i@ 10072748     pfr.obj
 0002:0001c784       ??_C@_0CF@FCDPLIJA@pfr_extra_item_load_kerning_pair@ 10072784     pfr.obj
 0002:0001c7b0       ??_C@_0EA@IIPIOAFH@pfr_extra_item_load_kerning_pair@ 100727b0     pfr.obj
 0002:0001c7f0       ??_C@_0DA@DCDGMNEM@pfr_phy_font_load?3?5invalid?5physi@ 100727f0     pfr.obj
 0002:0001c820       ??_C@_0CH@COHDKJKI@pfr_glyph_line_to?3?5invalid?5glyph@ 10072820     pfr.obj
 0002:0001c848       ??_C@_0M@BKIKKNMJ@?9?5end?5glyph?$AA@ 10072848     pfr.obj
 0002:0001c854       ??_C@_0P@KOBPEOJK@?9?5general?5line?$AA@ 10072854     pfr.obj
 0002:0001c864       ??_C@_0BB@FDOBGPCE@?9?5move?5to?5inside?$AA@ 10072864     pfr.obj
 0002:0001c878       ??_C@_0BC@EDJBFGJO@?9?5move?5to?5outside?$AA@ 10072878     pfr.obj
 0002:0001c88c       ??_C@_0BL@LGNGKDAN@?9?5horizontal?5line?5to?5cx?4?$CFd?$AA@ 1007288c     pfr.obj
 0002:0001c8a8       ??_C@_0BJ@DBOJNGOL@?9?5vertical?5line?5to?5cy?4?$CFd?$AA@ 100728a8     pfr.obj
 0002:0001c8c4       ??_C@_0M@MLLIFLFA@?9?5hv?5curve?5?$AA@ 100728c4     pfr.obj
 0002:0001c8d0       ??_C@_0L@OPLFEGIC@?9?5vh?5curve?$AA@ 100728d0     pfr.obj
 0002:0001c8dc       ??_C@_0BA@FIBHMHKO@?9?5general?5curve?$AA@ 100728dc     pfr.obj
 0002:0001c8ec       ??_C@_06GHHMOFJP@?5cx?$CD?$CFd?$AA@ 100728ec     pfr.obj
 0002:0001c8f4       ??_C@_05PPMJACMB@?5x?4?$CFd?$AA@ 100728f4     pfr.obj
 0002:0001c8fc       ??_C@_06IIBDANPK@?5dx?4?$CFd?$AA@ 100728fc     pfr.obj
 0002:0001c904       ??_C@_02LLHJFGPH@?5?$HM?$AA@ 10072904     pfr.obj
 0002:0001c908       ??_C@_06FKBMMMCP@?5cy?$CD?$CFd?$AA@ 10072908     pfr.obj
 0002:0001c910       ??_C@_05MCKJCLHB@?5y?4?$CFd?$AA@ 10072910     pfr.obj
 0002:0001c918       ??_C@_06LFHDCEEK@?5dy?4?$CFd?$AA@ 10072918     pfr.obj
 0002:0001c920       ??_C@_02BINJDKOC@?5?9?$AA@ 10072920     pfr.obj
 0002:0001c924       ??_C@_0CL@HFCPKENB@pfr_glyph_load_simple?3?5invalid?5g@ 10072924     pfr.obj
 0002:0001c950       ??_C@_0DO@ELFMHDGC@pfr_glyph_load_compound?3?5too?5man@ 10072950     pfr.obj
 0002:0001c990       ??_C@_0CN@KOEFLHAO@pfr_glyph_load_compound?3?5invalid@ 10072990     pfr.obj
 0002:0001c9c0       ??_C@_0CP@HHCGFANJ@compound?5glyph?5with?5?$CFd?5elements?5@ 100729c0     pfr.obj
 0002:0001c9f0       ??_C@_0O@EIBPOBKF@subglyph?5?$CFd?3?6?$AA@ 100729f0     pfr.obj
 0002:0001ca00       ??_C@_0CF@BKCBGEIA@end?5compound?5glyph?5with?5?$CFd?5eleme@ 10072a00     pfr.obj
 0002:0001ca28       ??_C@_0BL@KEPACAAP@simple?5glyph?5?$CIoffset?5?$CFlu?$CJ?6?$AA@ 10072a28     pfr.obj
 0002:0001ca44       ??_C@_0M@GOOBBDNN@PFR?5driver?6?$AA@ 10072a44     pfr.obj
 0002:0001ca50       ??_C@_0BC@OKKBAKDO@?5?5not?5a?5PFR?5font?6?$AA@ 10072a50     pfr.obj
 0002:0001ca64       ??_C@_0CD@EFOCINCJ@pfr_face_init?3?5invalid?5face?5inde@ 10072a64     pfr.obj
 0002:0001ca88       ??_C@_0CM@HLIONOE@pfr_face_init?3?5font?5doesn?8t?5cont@ 10072a88     pfr.obj
 0002:0001cab4       ??_C@_0CN@KEFJHBGC@pfr_load_bitmap_metrics?3?5invalid@ 10072ab4     pfr.obj
 0002:0001cae4       ??_C@_0CK@KKIDHNEI@pfr_read_bitmap_data?3?5invalid?5im@ 10072ae4     pfr.obj
 0002:0001cb10       ??_C@_0BG@BLDLGPJM@pfr_slot_load_bitmap?3?$AA@ 10072b10     pfr.obj
 0002:0001cb28       ??_C@_0CL@MPABOBKE@huge?5bitmap?5glyph?5?$CFdx?$CFd?5over?5FT_@ 10072b28     pfr.obj
 0002:0001cb54       ??_C@_07MIHJBPO@XHeight?$AA@ 10072b54     psaux.obj
 0002:0001cb5c       ??_C@_0N@JPPBHHHF@WeightVector?$AA@ 10072b5c     psaux.obj
 0002:0001cb6c       ??_C@_02CDEPIMF@WY?$AA@    10072b6c     psaux.obj
 0002:0001cb70       ??_C@_02BLCPMJIE@WX?$AA@   10072b70     psaux.obj
 0002:0001cb74       ??_C@_03MGLBHOEC@W1Y?$AA@  10072b74     psaux.obj
 0002:0001cb78       ??_C@_03NPKKEPAD@W1X?$AA@  10072b78     psaux.obj
 0002:0001cb7c       ??_C@_02KPBABJGK@W1?$AA@   10072b7c     psaux.obj
 0002:0001cb80       ??_C@_03MHHDBEHF@W0Y?$AA@  10072b80     psaux.obj
 0002:0001cb84       ??_C@_03NOGICFDE@W0X?$AA@  10072b84     psaux.obj
 0002:0001cb88       ??_C@_02LGALCICL@W0?$AA@   10072b88     psaux.obj
 0002:0001cb8c       ??_C@_01ELNMCGJD@W?$AA@    10072b8c     psaux.obj
 0002:0001cb90       ??_C@_07HFOFDFIM@VVector?$AA@ 10072b90     psaux.obj
 0002:0001cb98       ??_C@_02IEGOIODN@VV?$AA@   10072b98     psaux.obj
 0002:0001cb9c       ??_C@_09DJCDMHFC@TrackKern?$AA@ 10072b9c     psaux.obj
 0002:0001cba8       ??_C@_0P@DELCCDBH@StartTrackKern?$AA@ 10072ba8     psaux.obj
 0002:0001cbb8       ??_C@_0BA@GONDPLHF@StartKernPairs1?$AA@ 10072bb8     psaux.obj
 0002:0001cbc8       ??_C@_0BA@HHMIMKDE@StartKernPairs0?$AA@ 10072bc8     psaux.obj
 0002:0001cbd8       ??_C@_0P@OJCDJCKN@StartKernPairs?$AA@ 10072bd8     psaux.obj
 0002:0001cbe8       ??_C@_0O@GJEKPIHD@StartKernData?$AA@ 10072be8     psaux.obj
 0002:0001cbf8       ??_C@_0BB@KAEKNABH@StartFontMetrics?$AA@ 10072bf8     psaux.obj
 0002:0001cc0c       ??_C@_0P@DNGHFPAA@StartDirection?$AA@ 10072c0c     psaux.obj
 0002:0001cc1c       ??_C@_0BA@DGMAPPPC@StartComposites?$AA@ 10072c1c     psaux.obj
 0002:0001cc2c       ??_C@_0BB@JDMDJAID@StartCharMetrics?$AA@ 10072c2c     psaux.obj
 0002:0001cc40       ??_C@_09JMBADFPL@StartAxis?$AA@ 10072c40     psaux.obj
 0002:0001cc4c       ??_C@_03LMDOAABO@PCC?$AA@  10072c4c     psaux.obj
 0002:0001cc50       ??_C@_01NANMIPIL@N?$AA@    10072c50     psaux.obj
 0002:0001cc54       ??_C@_0M@PGHPLBFB@MetricsSets?$AA@ 10072c54     psaux.obj
 0002:0001cc60       ??_C@_0O@NDBFHPJC@MappingScheme?$AA@ 10072c60     psaux.obj
 0002:0001cc70       ??_C@_01OCOKONAJ@L?$AA@    10072c70     psaux.obj
 0002:0001cc74       ??_C@_03JFGLDHHC@KPY?$AA@  10072c74     psaux.obj
 0002:0001cc78       ??_C@_03IMHAAGDD@KPX?$AA@  10072c78     psaux.obj
 0002:0001cc7c       ??_C@_03MGLCBEGC@KPH?$AA@  10072c7c     psaux.obj
 0002:0001cc80       ??_C@_02MGMKBJJI@KP?$AA@   10072c80     psaux.obj
 0002:0001cc84       ??_C@_08CHFNODLO@IsFixedV?$AA@ 10072c84     psaux.obj
 0002:0001cc90       ??_C@_0N@LNIFJEBO@IsFixedPitch?$AA@ 10072c90     psaux.obj
 0002:0001cca0       ??_C@_09OIFAOJEJ@IsCIDFont?$AA@ 10072ca0     psaux.obj
 0002:0001ccac       ??_C@_0L@PAHDJIHN@IsBaseFont?$AA@ 10072cac     psaux.obj
 0002:0001ccb8       ??_C@_07BNJNBMEL@EscChar?$AA@ 10072cb8     psaux.obj
 0002:0001ccc0       ??_C@_0N@FEBBJBLC@EndTrackKern?$AA@ 10072cc0     psaux.obj
 0002:0001ccd0       ??_C@_0N@IJIACAAI@EndKernPairs?$AA@ 10072cd0     psaux.obj
 0002:0001cce0       ??_C@_0M@HKHGIIOM@EndKernData?$AA@ 10072ce0     psaux.obj
 0002:0001ccec       ??_C@_0P@FGFFCKLI@EndFontMetrics?$AA@ 10072cec     psaux.obj
 0002:0001ccfc       ??_C@_0N@FNMEONKF@EndDirection?$AA@ 10072cfc     psaux.obj
 0002:0001cd0c       ??_C@_0O@JABMALCH@EndComposites?$AA@ 10072d0c     psaux.obj
 0002:0001cd1c       ??_C@_0P@GFNMGKCM@EndCharMetrics?$AA@ 10072d1c     psaux.obj
 0002:0001cd2c       ??_C@_07DLEALFPL@EndAxis?$AA@ 10072d2c     psaux.obj
 0002:0001cd34       ??_C@_0P@JNPLONMI@EncodingScheme?$AA@ 10072d34     psaux.obj
 0002:0001cd44       ??_C@_09JMDLBBJN@Descender?$AA@ 10072d44     psaux.obj
 0002:0001cd50       ??_C@_0L@EMODJLOD@Characters?$AA@ 10072d50     psaux.obj
 0002:0001cd5c       ??_C@_0N@LHPDLMAH@CharacterSet?$AA@ 10072d5c     psaux.obj
 0002:0001cd6c       ??_C@_09CGMEAFLF@CharWidth?$AA@ 10072d6c     psaux.obj
 0002:0001cd78       ??_C@_09JOCJHGEG@CapHeight?$AA@ 10072d78     psaux.obj
 0002:0001cd84       ??_C@_02EKMCNAHJ@CH?$AA@   10072d84     psaux.obj
 0002:0001cd88       ??_C@_02KJDGAJLC@CC?$AA@   10072d88     psaux.obj
 0002:0001cd8c       ??_C@_01GFHCPBMG@C?$AA@    10072d8c     psaux.obj
 0002:0001cd90       ??_C@_0BF@BEKHBPMN@BlendDesignPositions?$AA@ 10072d90     psaux.obj
 0002:0001cda8       ??_C@_0P@FPDIEJKK@BlendDesignMap?$AA@ 10072da8     psaux.obj
 0002:0001cdb8       ??_C@_0P@LEAACMFJ@BlendAxisTypes?$AA@ 10072db8     psaux.obj
 0002:0001cdc8       ??_C@_01HMGJMAIH@B?$AA@    10072dc8     psaux.obj
 0002:0001cdcc       ??_C@_08KLONHBMG@AxisType?$AA@ 10072dcc     psaux.obj
 0002:0001cdd8       ??_C@_09POOBGNPO@AxisLabel?$AA@ 10072dd8     psaux.obj
 0002:0001cde4       ??_C@_08NBPEBJDA@Ascender?$AA@ 10072de4     psaux.obj
 0002:0001cdf0       ??_C@_0BN@GELKHPDM@ps_table_add?3?5invalid?5index?6?$AA@ 10072df0     psaux.obj
 0002:0001ce10       ??_C@_0EB@JDMNDBOE@m?3?2svn?2?4private?2mini?2umodsys?2dep@ 10072e10     psaux.obj
 0002:0001ce54       ??_C@_0BO@EFNNKEBM@ps_table_add?3?5invalid?5length?6?$AA@ 10072e54     psaux.obj
 0002:0001ce74       ??_C@_0CM@NJEEGKFJ@skip_string?3?5missing?5closing?5del@ 10072e74     psaux.obj
 0002:0001cea0       ??_C@_0DL@OAPJNHO@ps_parser_skip_PS_token?3?5unexpec@ 10072ea0     psaux.obj
 0002:0001cee0       ??_C@_0HM@CKKIDGNO@ps_parser_skip_PS_token?3?5current@ 10072ee0     psaux.obj
 0002:0001cf60       ??_C@_0GK@EBFPAJAB@ps_parser_load_field?3?5expected?5a@ 10072f60     psaux.obj
 0002:0001cfcc       ??_C@_0CM@DDJHLJEN@ps_parser_load_field?3?5overwritin@ 10072fcc     psaux.obj
 0002:0001cff8       ??_C@_0DO@LOOFCFNL@ps_parser_load_field?3?5expected?5f@ 10072ff8     psaux.obj
 0002:0001d038       ??_C@_05NIGAKFML@first?$AA@ 10073038     psaux.obj
 0002:0001d040       ??_C@_06BJCFNGJP@second?$AA@ 10073040     psaux.obj
 0002:0001d048       ??_C@_05GHAGIHBD@third?$AA@ 10073048     psaux.obj
 0002:0001d050       ??_C@_06HNIPMCFK@fourth?$AA@ 10073050     psaux.obj
 0002:0001d058       ??_C@_0HL@OCNLIFCI@ps_parser_load_field?3?5expected?5?$CF@ 10073058     psaux.obj
 0002:0001d0d4       ??_C@_0DE@COKEPDPO@ps_parser_to_bytes?3?5Missing?5star@ 100730d4     psaux.obj
 0002:0001d108       ??_C@_0DD@BGGGJIHK@ps_parser_to_bytes?3?5Missing?5clos@ 10073108     psaux.obj
 0002:0001d13c       ??_C@_0DF@IFLONPMO@t1_builder_add_contour?3?5no?5outli@ 1007313c     psaux.obj
 0002:0001d174       ??_C@_0CG@POJNIAJI@t1operator_seac?3?5invalid?5nested?5@ 10073174     psaux.obj
 0002:0001d1a0       ??_C@_0ED@GDGNFNEN@m?3?2svn?2?4private?2mini?2umodsys?2dep@ 100731a0     psaux.obj
 0002:0001d1e4       ??_C@_0CC@NODANDOE@t1operator_seac?3?5unexpected?5seac@ 100731e4     psaux.obj
 0002:0001d208       ??_C@_0DP@GFLBMBEI@t1operator_seac?3?5glyph?5names?5tab@ 10073208     psaux.obj
 0002:0001d248       ??_C@_0DI@GBBODPEO@t1operator_seac?3?5invalid?5seac?5ch@ 10073248     psaux.obj
 0002:0001d280       ??_C@_0BD@JJKNBGPI@?6Start?5charstring?6?$AA@ 10073280     psaux.obj
 0002:0001d294       ??_C@_05CEFEJMLE@?5?$CI?$CFd?$CJ?$AA@ 10073294     psaux.obj
 0002:0001d29c       ??_C@_0DH@IGJNCNMJ@t1_decoder_parse_charstrings?3?5in@ 1007329c     psaux.obj
 0002:0001d2d4       ??_C@_0DG@LNAJFAMA@t1_decoder_parse_charstrings?3?5in@ 100732d4     psaux.obj
 0002:0001d30c       ??_C@_0DJ@OLDOMFEO@t1_decoder_parse_charstrings?3?5un@ 1007330c     psaux.obj
 0002:0001d348       ??_C@_0DM@OMJDEAMG@t1_decoder_parse_charstrings?3?5no@ 10073348     psaux.obj
 0002:0001d384       ??_C@_0DB@GEFAPPII@t1_decoder_parse_charstrings?3?5in@ 10073384     psaux.obj
 0002:0001d3b8       ??_C@_0CO@KOBFIAOA@t1_decoder_parse_charstrings?3?5st@ 100733b8     psaux.obj
 0002:0001d3e8       ??_C@_0BA@EHADLMKP@?5callothersubr?6?$AA@ 100733e8     psaux.obj
 0002:0001d3f8       ??_C@_0DD@EINJFADG@t1_decoder_parse_charstrings?3?5un@ 100733f8     psaux.obj
 0002:0001d42c       ??_C@_0DC@ICFCHEGP@t1_decoder_parse_charstrings?3?5mi@ 1007342c     psaux.obj
 0002:0001d460       ??_C@_0EE@MAABODPO@t1_decoder_parse_charstrings?3?5un@ 10073460     psaux.obj
 0002:0001d4a8       ??_C@_0EO@PEGLJDKI@t1_decoder_parse_charstrings?3?5in@ 100734a8     psaux.obj
 0002:0001d4f8       ??_C@_0EH@GAEHKPOM@t1_decoder_parse_charstrings?3?5un@ 100734f8     psaux.obj
 0002:0001d540       ??_C@_0DJ@IFEMBGPG@t1_decoder_parse_charstrings?3?5in@ 10073540     psaux.obj
 0002:0001d580       ??_C@_0FF@LAKOBLEN@t1_decoder_parse_charstrings?3?5to@ 10073580     psaux.obj
 0002:0001d5d8       ??_C@_0BE@HHNHFCOF@BuildCharArray?5?$DN?5?$FL?5?$AA@ 100735d8     psaux.obj
 0002:0001d5ec       ??_C@_03JDANDILB@?$CFd?5?$AA@ 100735ec     psaux.obj
 0002:0001d5f0       ??_C@_05LCHEJIOL@?5hsbw?$AA@ 100735f0     psaux.obj
 0002:0001d5f8       ??_C@_04KKLLNIOL@?5sbw?$AA@ 100735f8     psaux.obj
 0002:0001d600       ??_C@_0L@JKIFLLMF@?5closepath?$AA@ 10073600     psaux.obj
 0002:0001d60c       ??_C@_08GAIDNDAG@?5hlineto?$AA@ 1007360c     psaux.obj
 0002:0001d618       ??_C@_08EADNOHOM@?5hmoveto?$AA@ 10073618     psaux.obj
 0002:0001d624       ??_C@_0L@DOEEGOLL@?5hvcurveto?$AA@ 10073624     psaux.obj
 0002:0001d630       ??_C@_08INPIPOOF@?5rlineto?$AA@ 10073630     psaux.obj
 0002:0001d63c       ??_C@_08KNEGMKAP@?5rmoveto?$AA@ 1007363c     psaux.obj
 0002:0001d648       ??_C@_0L@FDCECOJG@?5rrcurveto?$AA@ 10073648     psaux.obj
 0002:0001d654       ??_C@_0L@GDCBEGAD@?5vhcurveto?$AA@ 10073654     psaux.obj
 0002:0001d660       ??_C@_08JLCPABP@?5vlineto?$AA@ 10073660     psaux.obj
 0002:0001d66c       ??_C@_08CJAMMEPF@?5vmoveto?$AA@ 1007366c     psaux.obj
 0002:0001d678       ??_C@_04HCDLGJGN@?5div?$AA@ 10073678     psaux.obj
 0002:0001d680       ??_C@_0DD@OINDMPPL@t1_decoder_parse_charstrings?3?5in@ 10073680     psaux.obj
 0002:0001d6b4       ??_C@_0DF@HCNFGFJA@t1_decoder_parse_charstrings?3?5to@ 100736b4     psaux.obj
 0002:0001d6ec       ??_C@_0DE@IHCGNKEN@t1_decoder_parse_charstrings?3?5in@ 100736ec     psaux.obj
 0002:0001d720       ??_C@_04PPJHHCJB@?5pop?$AA@ 10073720     psaux.obj
 0002:0001d728       ??_C@_0DO@KNDLOCKM@t1_decoder_parse_charstrings?3?5no@ 10073728     psaux.obj
 0002:0001d768       ??_C@_07LMNNPBJN@?5return?$AA@ 10073768     psaux.obj
 0002:0001d770       ??_C@_0DB@HGEABPPN@t1_decoder_parse_charstrings?3?5un@ 10073770     psaux.obj
 0002:0001d7a4       ??_C@_0M@HGANHGIB@?5dotsection?$AA@ 100737a4     psaux.obj
 0002:0001d7b0       ??_C@_06INOJCFNP@?5hstem?$AA@ 100737b0     psaux.obj
 0002:0001d7b8       ??_C@_07OCIKEDFA@?5hstem3?$AA@ 100737b8     psaux.obj
 0002:0001d7c0       ??_C@_06LEDFEGDE@?5vstem?$AA@ 100737c0     psaux.obj
 0002:0001d7c8       ??_C@_07NFGLKEMD@?5vstem3?$AA@ 100737c8     psaux.obj
 0002:0001d7d0       ??_C@_0BB@KDIDIPNA@?5setcurrentpoint?$AA@ 100737d0     psaux.obj
 0002:0001d7e4       ??_C@_0L@DHHACBCM@?5opcode_15?$AA@ 100737e4     psaux.obj
 0002:0001d7f0       ??_C@_0DD@BCBNJFPE@t1_decoder_parse_charstrings?3?5un@ 100737f0     psaux.obj
 0002:0001d824       ??_C@_09BOFBANME@?4?4end?4?4?6?6?$AA@ 10073824     psaux.obj
 0002:0001d830       ??_C@_0DI@FLHHPBJB@t1_decoder_init?3?5the?5?$GApsnames?8?5m@ 10073830     psaux.obj
 0002:0001d868       ??_C@_0EB@PGAKODCG@m?3?2svn?2?4private?2mini?2umodsys?2dep@ 10073868     psaux.obj
 0002:0001d8ac       ??_C@_0BE@DDNPCMFO@?$CB?$CB?$CBINVALID?5BASE?3?$CB?$CB?$CB?$AA@ 100738ac     psaux.obj
 0002:0001d8c0       ??_C@_0DH@CPJKBLHK@ps_mask_table_merge?3?5ignoring?5in@ 100738c0     pshinter.obj
 0002:0001d8f8       ??_C@_0CM@KHLDNAGM@ps_hints_stem?3?5invalid?5dimension@ 100738f8     pshinter.obj
 0002:0001d924       ??_C@_0DK@GKNKPEKG@ps_hints_stem?3?5could?5not?5add?5ste@ 10073924     pshinter.obj
 0002:0001d960       ??_C@_0DD@OKAAPPBD@ps_hints_stem?3?5called?5with?5inval@ 10073960     pshinter.obj
 0002:0001d994       ??_C@_0CP@FMBBOBED@ps_hints_t1stem3?3?5invalid?5dimens@ 10073994     pshinter.obj
 0002:0001d9c4       ??_C@_0DB@GCDGEBGC@ps_hints_t1stem3?3?5called?5with?5in@ 100739c4     pshinter.obj
 0002:0001d9f8       ??_C@_0DI@DMIKENBL@ps_hints_t1stem3?3?5could?5not?5add?5@ 100739f8     pshinter.obj
 0002:0001da30       ??_C@_0EC@MEDNBIJC@ps_hints_t2mask?3?5called?5with?5inv@ 10073a30     pshinter.obj
 0002:0001da78       ??_C@_0EF@HAEHOBPD@ps_hints_t2counter?3?5called?5with?5@ 10073a78     pshinter.obj
 0002:0001dac0       ??_C@_0CO@JKPANHOK@psh_hint_table_record?3?5invalid?5h@ 10073ac0     pshinter.obj
 0002:0001daf0       ??_C@_0DF@NFHOHEHE@psh_hint_table_record?3?5too?5many?5@ 10073af0     pshinter.obj
 0002:0001db28       ??_C@_0DD@DBNEHGNP@psh_hint_table_init?3?5missing?1inc@ 10073b28     pshinter.obj
 0002:0001db5c       ??_C@_0DE@KDCBFKMG@psh_hint_tableactivate_mask?3?5too@ 10073b5c     pshinter.obj
 0002:0001db90       ??_C@_07POODEHEH@psnames?$AA@ 10073b90     psnames.obj
 0002:0001db98       ??_C@_07CBDBLBPD@raster5?$AA@ 10073b98     raster.obj
 0002:0001dba0       ??_C@_07EFFNHEPH@raster1?$AA@ 10073ba0     raster.obj
 0002:0001dba8       ??_C@_0BI@MGIFCGPI@Set_High_Precision?$CI?$CFs?$CJ?6?$AA@ 10073ba8     raster.obj
 0002:0001dbc0       ??_C@_0BM@LJCIMGKP@New?5ascending?5profile?5?$DN?5?$CFp?6?$AA@ 10073bc0     raster.obj
 0002:0001dbdc       ??_C@_0BN@FOHPIGBE@New?5descending?5profile?5?$DN?5?$CFp?6?$AA@ 10073bdc     raster.obj
 0002:0001dbfc       ??_C@_0CI@BGPDJEGO@New_Profile?3?5invalid?5profile?5dir@ 10073bfc     raster.obj
 0002:0001dc24       ??_C@_0CK@CFDFDNDC@End_Profile?3?5negative?5height?5enc@ 10073c24     raster.obj
 0002:0001dc50       ??_C@_0CO@MKAFJPLK@Ending?5profile?5?$CFp?0?5start?5?$DN?5?$CFld?0?5@ 10073c50     raster.obj
 0002:0001dc80       ??_C@_0BJ@NHAHLGCP@overflow?5in?5End_Profile?6?$AA@ 10073c80     raster.obj
 0002:0001dc9c       ??_C@_0CL@MFKLBIHA@tt_face_lookup_table?3?5?$CF08p?0?5?$GA?$CFc?$CF@ 10073c9c     sfnt.obj
 0002:0001dcc8       ??_C@_0O@EPIPEIMI@found?5table?4?6?$AA@ 10073cc8     sfnt.obj
 0002:0001dcd8       ??_C@_0BG@IAJDEAEF@ignoring?5empty?5table?6?$AA@ 10073cd8     sfnt.obj
 0002:0001dcf0       ??_C@_0BG@MHBJFBAN@could?5not?5find?5table?6?$AA@ 10073cf0     sfnt.obj
 0002:0001dd06       ??_C@_00CNPNBAHC@?$AA@     10073d06     sfnt.obj
 0002:0001dd08       ??_C@_01LKDEMHDF@s?$AA@    10073d08     sfnt.obj
 0002:0001dd10       ??_C@_0ED@EPOGLPMF@check_table_dir?3?5can?5read?5only?5?$CF@ 10073d10     sfnt.obj
 0002:0001dd54       ??_C@_0CJ@FLLNGMPK@check_table_dir?3?5table?5entry?5?$CFd?5@ 10073d54     sfnt.obj
 0002:0001dd80       ??_C@_0CJ@CHKALDON@check_table_dir?3?5?$GAhead?8?5table?5to@ 10073d80     sfnt.obj
 0002:0001ddac       ??_C@_0DI@JKJDCPMA@check_table_dir?3?5no?5magic?5number@ 10073dac     sfnt.obj
 0002:0001dde4       ??_C@_0CC@PNEHFGIH@check_table_dir?3?5no?5tables?5found@ 10073de4     sfnt.obj
 0002:0001de08       ??_C@_0BB@IDPEGBNA@check_table_dir?3?$AA@ 10073e08     sfnt.obj
 0002:0001de1c       ??_C@_0DB@IIJHKNKO@?5neither?5?$GAhead?8?0?5?$GAbhed?8?0?5nor?5?$GAsi@ 10073e1c     sfnt.obj
 0002:0001de50       ??_C@_0BN@CHICAENP@tt_face_load_font_dir?3?5?$CF08p?6?$AA@ 10073e50     sfnt.obj
 0002:0001de70       ??_C@_0BL@NHFPEKII@?9?9?5Number?5of?5tables?3?5?$CF10u?6?$AA@ 10073e70     sfnt.obj
 0002:0001de8c       ??_C@_0BO@OALIFCCP@?9?9?5Format?5version?3?5?5?50x?$CF08lx?6?$AA@ 10073e8c     sfnt.obj
 0002:0001deac       ??_C@_0DN@PPONPIPP@tt_face_load_font_dir?3?5invalid?5t@ 10073eac     sfnt.obj
 0002:0001def0       ??_C@_0EM@IIGIPBPJ@?6?5?5tag?5?5?5?5offset?5?5?5?5length?5?5?5che@ 10073ef0     sfnt.obj
 0002:0001df3c       ??_C@_0CB@HGMCIHBO@?5?5?$CFc?$CFc?$CFc?$CFc?5?5?$CF08lx?5?5?$CF08lx?5?5?$CF08lx?6@ 10073f3c     sfnt.obj
 0002:0001df60       ??_C@_0BJ@KEOAEPMB@table?5directory?5loaded?6?6?$AA@ 10073f60     sfnt.obj
 0002:0001df7c       ??_C@_0BD@GIBJDOAC@Units?5per?5EM?3?5?$CF4u?6?$AA@ 10073f7c     sfnt.obj
 0002:0001df90       ??_C@_0BD@FAOKJHJC@IndexToLoc?3?5?5?5?$CF4d?6?$AA@ 10073f90     sfnt.obj
 0002:0001dfa8       ??_C@_0HL@PJCDKHJG@tt_face_load_maxp?3?5too?5much?5twil@ 10073fa8     sfnt.obj
 0002:0001e028       ??_C@_0EF@GCEDNBLG@tt_face_load_maxp?3?5abnormally?5la@ 10074028     sfnt.obj
 0002:0001e070       ??_C@_0P@MBCPJGML@numGlyphs?3?5?$CFu?6?$AA@ 10074070     sfnt.obj
 0002:0001e080       ??_C@_0CJ@MIJAPJH@tt_face_load_name?3?5invalid?5?$GAname@ 10074080     sfnt.obj
 0002:0001e0ac       ??_C@_0BF@PJOLDGB@sTypoAscender?3?5?5?$CF4d?6?$AA@ 100740ac     sfnt.obj
 0002:0001e0c4       ??_C@_0BF@FIIAGEKP@sTypoDescender?3?5?$CF4d?6?$AA@ 100740c4     sfnt.obj
 0002:0001e0dc       ??_C@_0BF@KLDGDLFB@usWinAscent?3?5?5?5?5?$CF4u?6?$AA@ 100740dc     sfnt.obj
 0002:0001e0f4       ??_C@_0BF@PFPGIJPG@usWinDescent?3?5?5?5?$CF4u?6?$AA@ 100740f4     sfnt.obj
 0002:0001e10c       ??_C@_0BH@DMHJKBIA@fsSelection?3?5?5?5?50x?$CF2x?6?$AA@ 1007410c     sfnt.obj
 0002:0001e124       ??_C@_0BE@OINBJNHM@FormatType?3?5?5?50x?$CFx?6?$AA@ 10074124     sfnt.obj
 0002:0001e138       ??_C@_05NEGJLIIG@?5?5yes?$AA@ 10074138     sfnt.obj
 0002:0001e140       ??_C@_05IIEOEKBC@?5?5?5no?$AA@ 10074140     sfnt.obj
 0002:0001e148       ??_C@_0BE@BLJNHHPM@isFixedPitch?3?5?5?5?$CFs?6?$AA@ 10074148     sfnt.obj
 0002:0001e15c       ??_C@_0P@INGOBNI@numRanges?3?5?$CFu?6?$AA@ 1007415c     sfnt.obj
 0002:0001e16c       ??_C@_0DI@KFMOBEKD@gaspRange?5?$CFd?3?5rangeMaxPPEM?5?$CF5d?0?5@ 1007416c     sfnt.obj
 0002:0001e1a4       ??_C@_0BI@PDIKHCDG@Ascender?3?5?5?5?5?5?5?5?5?5?5?$CF5d?6?$AA@ 100741a4     sfnt.obj
 0002:0001e1bc       ??_C@_0BI@EBCNGKMI@Descender?3?5?5?5?5?5?5?5?5?5?$CF5d?6?$AA@ 100741bc     sfnt.obj
 0002:0001e1d4       ??_C@_0BI@GOMALKPP@number_Of_Metrics?3?5?$CF5u?6?$AA@ 100741d4     sfnt.obj
 0002:0001e1f0       ??_C@_0EA@POFCMIGC@m?3?2svn?2?4private?2mini?2umodsys?2dep@ 100741f0     sfnt.obj
 0002:0001e230       ??_C@_0DL@JJHILCEG@tt_face_build_cmaps?3?5unsupported@ 10074230     sfnt.obj
 0002:0001e26c       ??_C@_0DE@GBEIEEOP@tt_face_build_cmaps?3?5broken?5cmap@ 1007426c     sfnt.obj
 0002:0001e2a0       ??_C@_0DJ@NBCEBNID@tt_face_build_cmaps?3?5unsupported@ 100742a0     sfnt.obj
 0002:0001e2dc       ??_C@_0DJ@MLEDOBHN@tt_face_load_kern?3?5kerning?5table@ 100742dc     sfnt.obj
 0002:0001e318       ??_C@_0DE@CLAOKAPF@tt_face_load_kern?3?5could?5not?5ext@ 10074318     sfnt.obj
 0002:0001e350       ??_C@_0EA@PHDONFKD@m?3?2svn?2?4private?2mini?2umodsys?2dep@ 10074350     sfnt.obj
 0002:0001e390       ??_C@_0CO@CDKEJLKM@?5?5not?5a?5font?5using?5the?5SFNT?5cont@ 10074390     sfnt.obj
 0002:0001e3c0       ??_C@_0CG@GHJPLPOB@sfnt_open_font?3?5file?5is?5a?5collec@ 100743c0     sfnt.obj
 0002:0001e3e8       ??_C@_0CA@CLBLEALO@sfnt_open_font?3?5synthesize?5TTC?6?$AA@ 100743e8     sfnt.obj
 0002:0001e408       ??_C@_0CN@FMHEADDH@sfnt_init_face?3?5cannot?5access?5?$GAs@ 10074408     sfnt.obj
 0002:0001e438       ??_C@_0N@PKPIBBJB@SFNT?5driver?6?$AA@ 10074438     sfnt.obj
 0002:0001e448       ??_C@_0BL@LDODPMPE@sfnt_init_face?3?5?$CF08p?0?5?$CFld?6?$AA@ 10074448     sfnt.obj
 0002:0001e464       ??_C@_0BH@LEODIEGM@sfnt_load_face?3?5?$CF08p?6?6?$AA@ 10074464     sfnt.obj
 0002:0001e47c       ??_C@_07PPKILMHI@?$GAbhed?8?5?$AA@ 1007447c     sfnt.obj
 0002:0001e484       ??_C@_04IGMOLEKE@?9?9?$DO?6?$AA@ 10074484     sfnt.obj
 0002:0001e48c       ??_C@_06IILMCCFO@loaded?$AA@ 1007448c     sfnt.obj
 0002:0001e494       ??_C@_07NCACNKHJ@missing?$AA@ 10074494     sfnt.obj
 0002:0001e49c       ??_C@_0P@KDDBDKEH@failed?5to?5load?$AA@ 1007449c     sfnt.obj
 0002:0001e4ac       ??_C@_07BCMGFGCI@?$GAhead?8?5?$AA@ 100744ac     sfnt.obj
 0002:0001e4b4       ??_C@_07GJOEAOKC@?$GAmaxp?8?5?$AA@ 100744b4     sfnt.obj
 0002:0001e4bc       ??_C@_07CDOJEAHH@?$GAcmap?8?5?$AA@ 100744bc     sfnt.obj
 0002:0001e4c4       ??_C@_07JHMLKLGA@?$GAname?8?5?$AA@ 100744c4     sfnt.obj
 0002:0001e4cc       ??_C@_07KNFFDEJK@?$GApost?8?5?$AA@ 100744cc     sfnt.obj
 0002:0001e4d4       ??_C@_09BBLFBEP@?$GA?$CFshhea?8?5?$AA@ 100744d4     sfnt.obj
 0002:0001e4e0       ??_C@_09CBEHGGNL@?$GA?$CFshmtx?8?5?$AA@ 100744e0     sfnt.obj
 0002:0001e4ec       ??_C@_0BL@CGOEDHCG@This?5is?5an?5SFNT?5Mac?5font?4?6?$AA@ 100744ec     sfnt.obj
 0002:0001e508       ??_C@_09KBDOBBOH@vertical?5?$AA@ 10074508     sfnt.obj
 0002:0001e514       ??_C@_06FMFBAPBJ@?$GAos2?8?5?$AA@ 10074514     sfnt.obj
 0002:0001e51c       ??_C@_07LFDPLFI@?$GAeblc?8?5?$AA@ 1007451c     sfnt.obj
 0002:0001e524       ??_C@_07DICHPELC@?$GApclt?8?5?$AA@ 10074524     sfnt.obj
 0002:0001e52c       ??_C@_07LKEEGAPN@?$GAgasp?8?5?$AA@ 1007452c     sfnt.obj
 0002:0001e534       ??_C@_07GLNDEBID@?$GAkern?8?5?$AA@ 10074534     sfnt.obj
 0002:0001e53c       ??_C@_0BG@ICCDACNE@sfnt_load_face?3?5done?6?$AA@ 1007453c     sfnt.obj
 0002:0001e554       ??_C@_0DE@MABHGHLP@Ignore?5glyph?5names?5for?5invalid?5G@ 10074554     sfnt.obj
 0002:0001e588       ??_C@_0CM@LIPCEJLG@tt_face_load_sbit_strikes?3?5table@ 10074588     sfnt.obj
 0002:0001e5b4       ??_C@_0DC@BBCMHNHM@tt_face_load_sbit_strikes?3?5inval@ 100745b4     sfnt.obj
 0002:0001e5e8       ??_C@_0BG@BFBBMCNL@sbit_num_strikes?3?5?$CFu?6?$AA@ 100745e8     sfnt.obj
 0002:0001e600       ??_C@_0CL@FLLFJNAH@tt_sbit_decoder_load_metrics?3?5br@ 10074600     sfnt.obj
 0002:0001e62c       ??_C@_0DO@OBKNPPOC@tt_sbit_decoder_load_byte_aligne@ 1007462c     sfnt.obj
 0002:0001e66c       ??_C@_0DC@EJMIPKNG@tt_sbit_decoder_load_byte_aligne@ 1007466c     sfnt.obj
 0002:0001e6a0       ??_C@_0CL@MBLAPJLN@tt_sbit_decoder_load_byte_aligne@ 100746a0     sfnt.obj
 0002:0001e6cc       ??_C@_0DN@CMJAIJLB@tt_sbit_decoder_load_bit_aligned@ 100746cc     sfnt.obj
 0002:0001e70c       ??_C@_0DB@HOGKMILJ@tt_sbit_decoder_load_bit_aligned@ 1007470c     sfnt.obj
 0002:0001e740       ??_C@_0CK@GPJNOIJH@tt_sbit_decoder_load_bit_aligned@ 10074740     sfnt.obj
 0002:0001e76c       ??_C@_0CN@DPFLEEKK@tt_sbit_decoder_load_compound?3?5b@ 1007476c     sfnt.obj
 0002:0001e79c       ??_C@_0DG@PBMCOCHC@tt_sbit_decoder_load_compound?3?5l@ 1007479c     sfnt.obj
 0002:0001e7d4       ??_C@_0CF@NKDEPFML@tt_sbit_decoder_load_compound?3?5d@ 100747d4     sfnt.obj
 0002:0001e800       ??_C@_0EH@OCMKCNMI@tt_sbit_decoder_load_image?3?5foun@ 10074800     sfnt.obj
 0002:0001e848       ??_C@_0DO@OIHGOFLO@tt_sbit_decoder_load_image?3?5no?5s@ 10074848     sfnt.obj
 0002:0001e888       ??_C@_0CM@MABCLHAJ@load_format_20?3?5?$CFd?5byte?5left?5in?5@ 10074888     sfnt.obj
 0002:0001e8b8       ??_C@_0FO@KECODNIJ@load_format_20?3?5exceeding?5string@ 100748b8     sfnt.obj
 0002:0001e918       ??_C@_0GA@LDEHPDAP@load_format_20?3?5all?5entries?5in?5p@ 10074918     sfnt.obj
 0002:0001e978       ??_C@_0M@IHBDFEAO@smooth?9lcdv?$AA@ 10074978     smooth.obj
 0002:0001e984       ??_C@_0L@KCJBAIJI@smooth?9lcd?$AA@ 10074984     smooth.obj
 0002:0001e990       ??_C@_08EDHNINEI@y?5?$DN?5?$CF3d?5?$AA@ 10074990     smooth.obj
 0002:0001e99c       ??_C@_0P@NDOJLBMK@?$FL?$CFd?4?4?$CFd?$FN?3?$CF02x?5?$AA@ 1007499c     smooth.obj
 0002:0001e9ac       ??_C@_0BD@BBCNCFCG@gray_sweep?3?5start?6?$AA@ 100749ac     smooth.obj
 0002:0001e9c0       ??_C@_0BB@JBKFABFN@gray_sweep?3?5end?6?$AA@ 100749c0     smooth.obj
 0002:0001e9d4       ??_C@_0CC@KMMLIIMO@gray_convert_glyph?3?5rotten?5glyph@ 100749d4     smooth.obj
 0002:0001e9f8       ??_C@_0EB@CPAMGION@ft_smooth_render_generic?3?5glyph?5@ 100749f8     smooth.obj
 0002:0001ea40       ??_C@_0EB@PJKKNDON@ft_smooth_render_generic?3?5glyph?5@ 10074a40     smooth.obj
 0002:0001ea84       ??_C@_0DE@MAGFHKIJ@ft_smooth_render_generic?3?5glyph?5@ 10074a84     smooth.obj
 0002:0001eab8       ??_C@_08DPNMCDIF@MIRP?$FL31?$FN?$AA@ 10074ab8     truetype.obj
 0002:0001eac4       ??_C@_08DOBOEJLC@MIRP?$FL30?$FN?$AA@ 10074ac4     truetype.obj
 0002:0001ead0       ??_C@_08IJHDBFFI@MIRP?$FL29?$FN?$AA@ 10074ad0     truetype.obj
 0002:0001eadc       ??_C@_08IILBHPGP@MIRP?$FL28?$FN?$AA@ 10074adc     truetype.obj
 0002:0001eae8       ??_C@_08IDONDIFC@MIRP?$FL27?$FN?$AA@ 10074ae8     truetype.obj
 0002:0001eaf4       ??_C@_08ICCPFCGF@MIRP?$FL26?$FN?$AA@ 10074af4     truetype.obj
 0002:0001eb00       ??_C@_08IAGJOMDM@MIRP?$FL25?$FN?$AA@ 10074b00     truetype.obj
 0002:0001eb0c       ??_C@_08IBKLIGAL@MIRP?$FL24?$FN?$AA@ 10074b0c     truetype.obj
 0002:0001eb18       ??_C@_08IEOEJAIO@MIRP?$FL23?$FN?$AA@ 10074b18     truetype.obj
 0002:0001eb24       ??_C@_08IFCGPKLJ@MIRP?$FL22?$FN?$AA@ 10074b24     truetype.obj
 0002:0001eb30       ??_C@_08IHGAEEOA@MIRP?$FL21?$FN?$AA@ 10074b30     truetype.obj
 0002:0001eb3c       ??_C@_08IGKCCONH@MIRP?$FL20?$FN?$AA@ 10074b3c     truetype.obj
 0002:0001eb48       ??_C@_08JLMGLKLG@MIRP?$FL19?$FN?$AA@ 10074b48     truetype.obj
 0002:0001eb54       ??_C@_08JKAENAIB@MIRP?$FL18?$FN?$AA@ 10074b54     truetype.obj
 0002:0001eb60       ??_C@_08JBFIJHLM@MIRP?$FL17?$FN?$AA@ 10074b60     truetype.obj
 0002:0001eb6c       ??_C@_08JAJKPNIL@MIRP?$FL16?$FN?$AA@ 10074b6c     truetype.obj
 0002:0001eb78       ??_C@_08JCNMEDNC@MIRP?$FL15?$FN?$AA@ 10074b78     truetype.obj
 0002:0001eb84       ??_C@_08JDBOCJOF@MIRP?$FL14?$FN?$AA@ 10074b84     truetype.obj
 0002:0001eb90       ??_C@_08JGFBDPGA@MIRP?$FL13?$FN?$AA@ 10074b90     truetype.obj
 0002:0001eb9c       ??_C@_08JHJDFFFH@MIRP?$FL12?$FN?$AA@ 10074b9c     truetype.obj
 0002:0001eba8       ??_C@_08JFNFOLAO@MIRP?$FL11?$FN?$AA@ 10074ba8     truetype.obj
 0002:0001ebb4       ??_C@_08JEBHIBDJ@MIRP?$FL10?$FN?$AA@ 10074bb4     truetype.obj
 0002:0001ebc0       ??_C@_08CDHKNNND@MIRP?$FL09?$FN?$AA@ 10074bc0     truetype.obj
 0002:0001ebcc       ??_C@_08CCLILHOE@MIRP?$FL08?$FN?$AA@ 10074bcc     truetype.obj
 0002:0001ebd8       ??_C@_08CJOEPANJ@MIRP?$FL07?$FN?$AA@ 10074bd8     truetype.obj
 0002:0001ebe4       ??_C@_08CICGJKOO@MIRP?$FL06?$FN?$AA@ 10074be4     truetype.obj
 0002:0001ebf0       ??_C@_08CKGACELH@MIRP?$FL05?$FN?$AA@ 10074bf0     truetype.obj
 0002:0001ebfc       ??_C@_08CLKCEOIA@MIRP?$FL04?$FN?$AA@ 10074bfc     truetype.obj
 0002:0001ec08       ??_C@_08COONFIAF@MIRP?$FL03?$FN?$AA@ 10074c08     truetype.obj
 0002:0001ec14       ??_C@_08CPCPDCDC@MIRP?$FL02?$FN?$AA@ 10074c14     truetype.obj
 0002:0001ec20       ??_C@_08CNGJIMGL@MIRP?$FL01?$FN?$AA@ 10074c20     truetype.obj
 0002:0001ec2c       ??_C@_08CMKLOGFM@MIRP?$FL00?$FN?$AA@ 10074c2c     truetype.obj
 0002:0001ec38       ??_C@_08KENJDGFE@MDRP?$FL31?$FN?$AA@ 10074c38     truetype.obj
 0002:0001ec44       ??_C@_08KFBLFMGD@MDRP?$FL30?$FN?$AA@ 10074c44     truetype.obj
 0002:0001ec50       ??_C@_08BCHGAAIJ@MDRP?$FL29?$FN?$AA@ 10074c50     truetype.obj
 0002:0001ec5c       ??_C@_08BDLEGKLO@MDRP?$FL28?$FN?$AA@ 10074c5c     truetype.obj
 0002:0001ec68       ??_C@_08BIOICNID@MDRP?$FL27?$FN?$AA@ 10074c68     truetype.obj
 0002:0001ec74       ??_C@_08BJCKEHLE@MDRP?$FL26?$FN?$AA@ 10074c74     truetype.obj
 0002:0001ec80       ??_C@_08BLGMPJON@MDRP?$FL25?$FN?$AA@ 10074c80     truetype.obj
 0002:0001ec8c       ??_C@_08BKKOJDNK@MDRP?$FL24?$FN?$AA@ 10074c8c     truetype.obj
 0002:0001ec98       ??_C@_08BPOBIFFP@MDRP?$FL23?$FN?$AA@ 10074c98     truetype.obj
 0002:0001eca4       ??_C@_08BOCDOPGI@MDRP?$FL22?$FN?$AA@ 10074ca4     truetype.obj
 0002:0001ecb0       ??_C@_08BMGFFBDB@MDRP?$FL21?$FN?$AA@ 10074cb0     truetype.obj
 0002:0001ecbc       ??_C@_08BNKHDLAG@MDRP?$FL20?$FN?$AA@ 10074cbc     truetype.obj
 0002:0001ecc8       ??_C@_08MDKPGH@MDRP?$FL19?$FN?$AA@ 10074cc8     truetype.obj
 0002:0001ecd4       ??_C@_08BABMFFA@MDRP?$FL18?$FN?$AA@ 10074cd4     truetype.obj
 0002:0001ece0       ??_C@_08KFNICGN@MDRP?$FL17?$FN?$AA@ 10074ce0     truetype.obj
 0002:0001ecec       ??_C@_08LJPOIFK@MDRP?$FL16?$FN?$AA@ 10074cec     truetype.obj
 0002:0001ecf8       ??_C@_08JNJFGAD@MDRP?$FL15?$FN?$AA@ 10074cf8     truetype.obj
 0002:0001ed04       ??_C@_08IBLDMDE@MDRP?$FL14?$FN?$AA@ 10074d04     truetype.obj
 0002:0001ed10       ??_C@_08NFECKLB@MDRP?$FL13?$FN?$AA@ 10074d10     truetype.obj
 0002:0001ed1c       ??_C@_08MJGEAIG@MDRP?$FL12?$FN?$AA@ 10074d1c     truetype.obj
 0002:0001ed28       ??_C@_08ONAPONP@MDRP?$FL11?$FN?$AA@ 10074d28     truetype.obj
 0002:0001ed34       ??_C@_08PBCJEOI@MDRP?$FL10?$FN?$AA@ 10074d34     truetype.obj
 0002:0001ed40       ??_C@_08LIHPMIAC@MDRP?$FL09?$FN?$AA@ 10074d40     truetype.obj
 0002:0001ed4c       ??_C@_08LJLNKCDF@MDRP?$FL08?$FN?$AA@ 10074d4c     truetype.obj
 0002:0001ed58       ??_C@_08LCOBOFAI@MDRP?$FL07?$FN?$AA@ 10074d58     truetype.obj
 0002:0001ed64       ??_C@_08LDCDIPDP@MDRP?$FL06?$FN?$AA@ 10074d64     truetype.obj
 0002:0001ed70       ??_C@_08LBGFDBGG@MDRP?$FL05?$FN?$AA@ 10074d70     truetype.obj
 0002:0001ed7c       ??_C@_08LAKHFLFB@MDRP?$FL04?$FN?$AA@ 10074d7c     truetype.obj
 0002:0001ed88       ??_C@_08LFOIENNE@MDRP?$FL03?$FN?$AA@ 10074d88     truetype.obj
 0002:0001ed94       ??_C@_08LECKCHOD@MDRP?$FL02?$FN?$AA@ 10074d94     truetype.obj
 0002:0001eda0       ??_C@_08LGGMJJLK@MDRP?$FL01?$FN?$AA@ 10074da0     truetype.obj
 0002:0001edac       ??_C@_08LHKOPDIN@MDRP?$FL00?$FN?$AA@ 10074dac     truetype.obj
 0002:0001edb8       ??_C@_08ODNDJCG@PushW?$FL7?$FN?$AA@ 10074db8     truetype.obj
 0002:0001edc4       ??_C@_08PPPFDBB@PushW?$FL6?$FN?$AA@ 10074dc4     truetype.obj
 0002:0001edd0       ??_C@_08NLJONEI@PushW?$FL5?$FN?$AA@ 10074dd0     truetype.obj
 0002:0001eddc       ??_C@_08MHLIHHP@PushW?$FL4?$FN?$AA@ 10074ddc     truetype.obj
 0002:0001ede8       ??_C@_08JDEJBPK@PushW?$FL3?$FN?$AA@ 10074de8     truetype.obj
 0002:0001edf4       ??_C@_08IPGPLMN@PushW?$FL2?$FN?$AA@ 10074df4     truetype.obj
 0002:0001ee00       ??_C@_08KLAEFJE@PushW?$FL1?$FN?$AA@ 10074e00     truetype.obj
 0002:0001ee0c       ??_C@_08LHCCPKD@PushW?$FL0?$FN?$AA@ 10074e0c     truetype.obj
 0002:0001ee18       ??_C@_08KGDNCBNE@PushB?$FL7?$FN?$AA@ 10074e18     truetype.obj
 0002:0001ee24       ??_C@_08KHPPELOD@PushB?$FL6?$FN?$AA@ 10074e24     truetype.obj
 0002:0001ee30       ??_C@_08KFLJPFLK@PushB?$FL5?$FN?$AA@ 10074e30     truetype.obj
 0002:0001ee3c       ??_C@_08KEHLJPIN@PushB?$FL4?$FN?$AA@ 10074e3c     truetype.obj
 0002:0001ee48       ??_C@_08KBDEIJAI@PushB?$FL3?$FN?$AA@ 10074e48     truetype.obj
 0002:0001ee54       ??_C@_08KAPGODDP@PushB?$FL2?$FN?$AA@ 10074e54     truetype.obj
 0002:0001ee60       ??_C@_08KCLAFNGG@PushB?$FL1?$FN?$AA@ 10074e60     truetype.obj
 0002:0001ee6c       ??_C@_08KDHCDHFB@PushB?$FL0?$FN?$AA@ 10074e6c     truetype.obj
 0002:0001ee78       ??_C@_07HAEJOCCK@INS_$AF?$AA@ 10074e78     truetype.obj
 0002:0001ee80       ??_C@_07FLGELBOJ@INS_$AE?$AA@ 10074e80     truetype.obj
 0002:0001ee88       ??_C@_07ECHPIAKI@INS_$AD?$AA@ 10074e88     truetype.obj
 0002:0001ee90       ??_C@_07NDOBGGP@INS_$AC?$AA@ 10074e90     truetype.obj
 0002:0001ee98       ??_C@_07BECFCHCO@INS_$AB?$AA@ 10074e98     truetype.obj
 0002:0001eea0       ??_C@_07DPAIHEON@INS_$AA?$AA@ 10074ea0     truetype.obj
 0002:0001eea8       ??_C@_07NIOOIHBD@INS_$A9?$AA@ 10074ea8     truetype.obj
 0002:0001eeb0       ??_C@_07MBPFLGFC@INS_$A8?$AA@ 10074eb0     truetype.obj
 0002:0001eeb8       ??_C@_07EGGNKKJN@INS_$A7?$AA@ 10074eb8     truetype.obj
 0002:0001eec0       ??_C@_07FPHGJLNM@INS_$A6?$AA@ 10074ec0     truetype.obj
 0002:0001eec8       ??_C@_07HEFLMIBP@INS_$A5?$AA@ 10074ec8     truetype.obj
 0002:0001eed0       ??_C@_07GNEAPJFO@INS_$A4?$AA@ 10074ed0     truetype.obj
 0002:0001eed8       ??_C@_07CCABGPJJ@INS_$A3?$AA@ 10074ed8     truetype.obj
 0002:0001eee0       ??_C@_07DLBKFONI@INS_$A2?$AA@ 10074ee0     truetype.obj
 0002:0001eee8       ??_C@_07BADHANBL@INS_$A1?$AA@ 10074ee8     truetype.obj
 0002:0001eef0       ??_C@_07JCMDMFK@INS_$A0?$AA@ 10074ef0     truetype.obj
 0002:0001eef8       ??_C@_07CKKLNLMC@INS_$9F?$AA@ 10074ef8     truetype.obj
 0002:0001ef00       ??_C@_07BIGIIAB@INS_$9E?$AA@ 10074f00     truetype.obj
 0002:0001ef08       ??_C@_07BIJNLJEA@INS_$9D?$AA@ 10074f08     truetype.obj
 0002:0001ef10       ??_C@_07FHNMCPIH@INS_$9C?$AA@ 10074f10     truetype.obj
 0002:0001ef18       ??_C@_07EOMHBOMG@INS_$9B?$AA@ 10074f18     truetype.obj
 0002:0001ef20       ??_C@_07GFOKENAF@INS_$9A?$AA@ 10074f20     truetype.obj
 0002:0001ef28       ??_C@_07ICAMLOPL@INS_$99?$AA@ 10074f28     truetype.obj
 0002:0001ef30       ??_C@_07JLBHIPLK@INS_$98?$AA@ 10074f30     truetype.obj
 0002:0001ef38       ??_C@_07BMIPJDHF@INS_$97?$AA@ 10074f38     truetype.obj
 0002:0001ef40       ??_C@_07FJEKCDE@INS_$96?$AA@ 10074f40     truetype.obj
 0002:0001ef48       ??_C@_07COLJPBPH@INS_$95?$AA@ 10074f48     truetype.obj
 0002:0001ef50       ??_C@_07DHKCMALG@INS_$94?$AA@ 10074f50     truetype.obj
 0002:0001ef58       ??_C@_07HIODFGHB@INS_$93?$AA@ 10074f58     truetype.obj
 0002:0001ef60       ??_C@_07GBPIGHDA@INS_$92?$AA@ 10074f60     truetype.obj
 0002:0001ef68       ??_C@_07EKNFDEPD@INS_$91?$AA@ 10074f68     truetype.obj
 0002:0001ef70       ??_C@_07FDMOAFLC@INS_$90?$AA@ 10074f70     truetype.obj
 0002:0001ef78       ??_C@_07CLGJLBPF@INS_$8F?$AA@ 10074f78     truetype.obj
 0002:0001ef80       ??_C@_08ILFNCJFO@InstCTRL?$AA@ 10074f80     truetype.obj
 0002:0001ef8c       ??_C@_08IJFGKEBC@ScanTYPE?$AA@ 10074f8c     truetype.obj
 0002:0001ef98       ??_C@_03KGHEHEMH@MIN?$AA@  10074f98     truetype.obj
 0002:0001ef9c       ??_C@_03LEPPJAKI@MAX?$AA@  10074f9c     truetype.obj
 0002:0001efa0       ??_C@_04JNDFKIIP@ROLL?$AA@ 10074fa0     truetype.obj
 0002:0001efa8       ??_C@_04KIDKFKBI@IDEF?$AA@ 10074fa8     truetype.obj
 0002:0001efb0       ??_C@_07NNGGHAHJ@GetINFO?$AA@ 10074fb0     truetype.obj
 0002:0001efb8       ??_C@_09EBBIDAIL@SDVPTL?$FL1?$FN?$AA@ 10074fb8     truetype.obj
 0002:0001efc4       ??_C@_09EANKFKLM@SDVPTL?$FL0?$FN?$AA@ 10074fc4     truetype.obj
 0002:0001efd0       ??_C@_08HLLKFIHK@ScanCTRL?$AA@ 10074fd0     truetype.obj
 0002:0001efdc       ??_C@_07DGGAKKIB@INS_$84?$AA@ 10074fdc     truetype.obj
 0002:0001efe4       ??_C@_07HJCBDMEG@INS_$83?$AA@ 10074fe4     truetype.obj
 0002:0001efec       ??_C@_09GNFNKKFO@FlipRgOFF?$AA@ 10074fec     truetype.obj
 0002:0001eff8       ??_C@_08NHCINLLI@FlipRgON?$AA@ 10074ff8     truetype.obj
 0002:0001f004       ??_C@_06HHAIKMKD@FlipPT?$AA@ 10075004     truetype.obj
 0002:0001f00c       ??_C@_02JIIELPFO@AA?$AA@   1007500c     truetype.obj
 0002:0001f010       ??_C@_05FKFACKCE@SANGW?$AA@ 10075010     truetype.obj
 0002:0001f018       ??_C@_04LLPFAEIN@RDTG?$AA@ 10075018     truetype.obj
 0002:0001f020       ??_C@_04FDFADEHH@RUTG?$AA@ 10075020     truetype.obj
 0002:0001f028       ??_C@_07EEFJDDMM@INS_$7B?$AA@ 10075028     truetype.obj
 0002:0001f030       ??_C@_04GKENMFND@ROFF?$AA@ 10075030     truetype.obj
 0002:0001f038       ??_C@_04JHHPKNFN@JROF?$AA@ 10075038     truetype.obj
 0002:0001f040       ??_C@_04OPILNNIO@JROT?$AA@ 10075040     truetype.obj
 0002:0001f048       ??_C@_08OMOIBANH@S45Round?$AA@ 10075048     truetype.obj
 0002:0001f054       ??_C@_06PJIJGAJE@SROUND?$AA@ 10075054     truetype.obj
 0002:0001f05c       ??_C@_0L@OBJDGKGL@DeltaCn?$FL2?$FN?$AA@ 1007505c     truetype.obj
 0002:0001f068       ??_C@_0L@ODNFNEDC@DeltaCn?$FL1?$FN?$AA@ 10075068     truetype.obj
 0002:0001f074       ??_C@_0L@OCBHLOAF@DeltaCn?$FL0?$FN?$AA@ 10075074     truetype.obj
 0002:0001f080       ??_C@_07IGKNNNAL@DeltaP3?$AA@ 10075080     truetype.obj
 0002:0001f088       ??_C@_07JPLGOMEK@DeltaP2?$AA@ 10075088     truetype.obj
 0002:0001f090       ??_C@_05PLGKJDMF@WCvtF?$AA@ 10075090     truetype.obj
 0002:0001f098       ??_C@_09OMOHLKNN@NROUND?$FL3?$FN?$AA@ 10075098     truetype.obj
 0002:0001f0a4       ??_C@_09ONCFNAOK@NROUND?$FL2?$FN?$AA@ 100750a4     truetype.obj
 0002:0001f0b0       ??_C@_09OPGDGOLD@NROUND?$FL1?$FN?$AA@ 100750b0     truetype.obj
 0002:0001f0bc       ??_C@_09OOKBAEIE@NROUND?$FL0?$FN?$AA@ 100750bc     truetype.obj
 0002:0001f0c8       ??_C@_08GJBHPBBG@ROUND?$FL3?$FN?$AA@ 100750c8     truetype.obj
 0002:0001f0d4       ??_C@_08GINFJLCB@ROUND?$FL2?$FN?$AA@ 100750d4     truetype.obj
 0002:0001f0e0       ??_C@_08GKJDCFHI@ROUND?$FL1?$FN?$AA@ 100750e0     truetype.obj
 0002:0001f0ec       ??_C@_08GLFBEPEP@ROUND?$FL0?$FN?$AA@ 100750ec     truetype.obj
 0002:0001f0f8       ??_C@_07LNIIDPBF@CEILING?$AA@ 100750f8     truetype.obj
 0002:0001f100       ??_C@_05DKADLPCF@FLOOR?$AA@ 10075100     truetype.obj
 0002:0001f108       ??_C@_03GMBJJJAE@NEG?$AA@  10075108     truetype.obj
 0002:0001f10c       ??_C@_03BPJLEIIC@ABS?$AA@  1007510c     truetype.obj
 0002:0001f110       ??_C@_03IBHOEMFB@MUL?$AA@  10075110     truetype.obj
 0002:0001f114       ??_C@_03FJGHKDBE@DIV?$AA@  10075114     truetype.obj
 0002:0001f118       ??_C@_03KPDLEBHD@SUB?$AA@  10075118     truetype.obj
 0002:0001f11c       ??_C@_03BOJFLAKG@ADD?$AA@  1007511c     truetype.obj
 0002:0001f120       ??_C@_03OBAGKLCE@SDS?$AA@  10075120     truetype.obj
 0002:0001f124       ??_C@_03LCNPIIDE@SDB?$AA@  10075124     truetype.obj
 0002:0001f128       ??_C@_07LEJLLPIJ@DeltaP1?$AA@ 10075128     truetype.obj
 0002:0001f130       ??_C@_03GBFNEA@NOT?$AA@    10075130     truetype.obj
 0002:0001f134       ??_C@_02PDPFNDMG@OR?$AA@   10075134     truetype.obj
 0002:0001f138       ??_C@_03BDACDFHA@AND?$AA@  10075138     truetype.obj
 0002:0001f13c       ??_C@_03KLBJNGCA@EIF?$AA@  1007513c     truetype.obj
 0002:0001f140       ??_C@_02NJNGHICB@IF?$AA@   10075140     truetype.obj
 0002:0001f144       ??_C@_04FPADKCAF@EVEN?$AA@ 10075144     truetype.obj
 0002:0001f14c       ??_C@_03POEKMHJF@ODD?$AA@  1007514c     truetype.obj
 0002:0001f150       ??_C@_03HAIBCMND@NEQ?$AA@  10075150     truetype.obj
 0002:0001f154       ??_C@_02NFEPAFND@EQ?$AA@   10075154     truetype.obj
 0002:0001f158       ??_C@_04ECJADHHA@GTEQ?$AA@ 10075158     truetype.obj
 0002:0001f160       ??_C@_02KLLMCFPI@GT?$AA@   10075160     truetype.obj
 0002:0001f164       ??_C@_04DFEAAGGB@LTEQ?$AA@ 10075164     truetype.obj
 0002:0001f16c       ??_C@_02KHOJMKBJ@LT?$AA@   1007516c     truetype.obj
 0002:0001f170       ??_C@_05KOLFGEDA@DEBUG?$AA@ 10075170     truetype.obj
 0002:0001f178       ??_C@_07POFDCCKK@FlipOFF?$AA@ 10075178     truetype.obj
 0002:0001f180       ??_C@_06NAFPLCDF@FlipON?$AA@ 10075180     truetype.obj
 0002:0001f188       ??_C@_03EKOPIACE@MPS?$AA@  10075188     truetype.obj
 0002:0001f18c       ??_C@_05DNGDPJOE@MPPEM?$AA@ 1007518c     truetype.obj
 0002:0001f194       ??_C@_05GGDIJNHK@MD?$FL1?$FN?$AA@ 10075194     truetype.obj
 0002:0001f19c       ??_C@_05GHPKPHEN@MD?$FL0?$FN?$AA@ 1007519c     truetype.obj
 0002:0001f1a4       ??_C@_04CKEOLFMP@SCFS?$AA@ 100751a4     truetype.obj
 0002:0001f1ac       ??_C@_05HFIDGCAM@GC?$FL1?$FN?$AA@ 100751ac     truetype.obj
 0002:0001f1b4       ??_C@_05HEEBAIDL@GC?$FL0?$FN?$AA@ 100751b4     truetype.obj
 0002:0001f1bc       ??_C@_04OJIAMLIK@RCvt?$AA@ 100751bc     truetype.obj
 0002:0001f1c4       ??_C@_05OHPCCGBC@WCvtP?$AA@ 100751c4     truetype.obj
 0002:0001f1cc       ??_C@_02POBANCKE@RS?$AA@   100751cc     truetype.obj
 0002:0001f1d0       ??_C@_02PINLBAEP@WS?$AA@   100751d0     truetype.obj
 0002:0001f1d4       ??_C@_06IBKPBHJE@NPushW?$AA@ 100751d4     truetype.obj
 0002:0001f1dc       ??_C@_06LGBKPBIA@NPushB?$AA@ 100751dc     truetype.obj
 0002:0001f1e4       ??_C@_07DDHBPFBP@MIAP?$FL1?$FN?$AA@ 100751e4     truetype.obj
 0002:0001f1ec       ??_C@_07DCLDJPCI@MIAP?$FL0?$FN?$AA@ 100751ec     truetype.obj
 0002:0001f1f4       ??_C@_04PHMKPAGC@RTDG?$AA@ 100751f4     truetype.obj
 0002:0001f1fc       ??_C@_07DJGPBGAB@AlignRP?$AA@ 100751fc     truetype.obj
 0002:0001f204       ??_C@_08HDPEIJKE@MSIRP?$FL1?$FN?$AA@ 10075204     truetype.obj
 0002:0001f210       ??_C@_08HCDGODJD@MSIRP?$FL0?$FN?$AA@ 10075210     truetype.obj
 0002:0001f21c       ??_C@_02MFEOMNPG@IP?$AA@   1007521c     truetype.obj
 0002:0001f220       ??_C@_05GKIAFJDM@SHPIX?$AA@ 10075220     truetype.obj
 0002:0001f228       ??_C@_06NHLGKINN@SHZ?$FL1?$FN?$AA@ 10075228     truetype.obj
 0002:0001f230       ??_C@_06NGHEMCOK@SHZ?$FL0?$FN?$AA@ 10075230     truetype.obj
 0002:0001f238       ??_C@_06LKEGFNCO@SHC?$FL1?$FN?$AA@ 10075238     truetype.obj
 0002:0001f240       ??_C@_06LLIEDHBJ@SHC?$FL0?$FN?$AA@ 10075240     truetype.obj
 0002:0001f248       ??_C@_06JNAGLAHM@SHP?$FL1?$FN?$AA@ 10075248     truetype.obj
 0002:0001f250       ??_C@_06JMMENKEL@SHP?$FL0?$FN?$AA@ 10075250     truetype.obj
 0002:0001f258       ??_C@_06OBOAGCLJ@IUP?$FL1?$FN?$AA@ 10075258     truetype.obj
 0002:0001f260       ??_C@_06OACCAIIO@IUP?$FL0?$FN?$AA@ 10075260     truetype.obj
 0002:0001f268       ??_C@_07FCKGJENP@MDAP?$FL1?$FN?$AA@ 10075268     truetype.obj
 0002:0001f270       ??_C@_07FDGEPOOI@MDAP?$FL0?$FN?$AA@ 10075270     truetype.obj
 0002:0001f278       ??_C@_04DLFDNEK@ENDF?$AA@  10075278     truetype.obj
 0002:0001f280       ??_C@_04CKGKMNMJ@FDEF?$AA@ 10075280     truetype.obj
 0002:0001f288       ??_C@_04CAGKGBIO@CALL?$AA@ 10075288     truetype.obj
 0002:0001f290       ??_C@_08HGJHKPAI@LOOPCALL?$AA@ 10075290     truetype.obj
 0002:0001f29c       ??_C@_03PDGGAEEL@UTP?$AA@  1007529c     truetype.obj
 0002:0001f2a0       ??_C@_07JHECGAFL@INS_$28?$AA@ 100752a0     truetype.obj
 0002:0001f2a8       ??_C@_08ELKIDBEA@AlignPTS?$AA@ 100752a8     truetype.obj
 0002:0001f2b4       ??_C@_06JIJONOKJ@MINDEX?$AA@ 100752b4     truetype.obj
 0002:0001f2bc       ??_C@_06MIKBKFPE@CINDEX?$AA@ 100752bc     truetype.obj
 0002:0001f2c4       ??_C@_05NCPPINNM@DEPTH?$AA@ 100752c4     truetype.obj
 0002:0001f2cc       ??_C@_04NLFHDAEB@SWAP?$AA@ 100752cc     truetype.obj
 0002:0001f2d4       ??_C@_05PONODPI@CLEAR?$AA@ 100752d4     truetype.obj
 0002:0001f2dc       ??_C@_03NEMLLIOI@POP?$AA@  100752dc     truetype.obj
 0002:0001f2e0       ??_C@_03BKABFOIG@DUP?$AA@  100752e0     truetype.obj
 0002:0001f2e4       ??_C@_03JMADNLNF@SSW?$AA@  100752e4     truetype.obj
 0002:0001f2e8       ??_C@_05ILJPOKEM@SSwCi?$AA@ 100752e8     truetype.obj
 0002:0001f2f0       ??_C@_06NHMMFIE@SCvTCi?$AA@ 100752f0     truetype.obj
 0002:0001f2f8       ??_C@_04KGNBNJIM@JMPR?$AA@ 100752f8     truetype.obj
 0002:0001f300       ??_C@_04JLPIBDPH@ELSE?$AA@ 10075300     truetype.obj
 0002:0001f308       ??_C@_03OLFEBEDN@SMD?$AA@  10075308     truetype.obj
 0002:0001f30c       ??_C@_04PONAAJAG@RTHG?$AA@ 1007530c     truetype.obj
 0002:0001f314       ??_C@_03GLDCLIGE@RTG?$AA@  10075314     truetype.obj
 0002:0001f318       ??_C@_05FLCOEOIP@SLOOP?$AA@ 10075318     truetype.obj
 0002:0001f320       ??_C@_04BPPEHCBI@SZPS?$AA@ 10075320     truetype.obj
 0002:0001f328       ??_C@_04GDBCCIPO@SZP2?$AA@ 10075328     truetype.obj
 0002:0001f330       ??_C@_04EIDPHLDN@SZP1?$AA@ 10075330     truetype.obj
 0002:0001f338       ??_C@_04FBCEEKHM@SZP0?$AA@ 10075338     truetype.obj
 0002:0001f340       ??_C@_04KGKGAABB@SRP2?$AA@ 10075340     truetype.obj
 0002:0001f348       ??_C@_04INILFDNC@SRP1?$AA@ 10075348     truetype.obj
 0002:0001f350       ??_C@_04JEJAGCJD@SRP0?$AA@ 10075350     truetype.obj
 0002:0001f358       ??_C@_05BJBILDCF@ISECT?$AA@ 10075358     truetype.obj
 0002:0001f360       ??_C@_06IOILEHIA@SFvTPv?$AA@ 10075360     truetype.obj
 0002:0001f368       ??_C@_03EAIOELMH@GFV?$AA@  10075368     truetype.obj
 0002:0001f36c       ??_C@_03FICFJEAF@GPV?$AA@  1007536c     truetype.obj
 0002:0001f370       ??_C@_05LIEBIJEJ@SFvFS?$AA@ 10075370     truetype.obj
 0002:0001f378       ??_C@_05FHOBOLGL@SPvFS?$AA@ 10075378     truetype.obj
 0002:0001f380       ??_C@_07OJLIEPCL@SFvTL?5?$CL?$AA@ 10075380     truetype.obj
 0002:0001f388       ??_C@_08EGCMEPMA@SFvTL?5?$HM?$HM?$AA@ 10075388     truetype.obj
 0002:0001f394       ??_C@_07ONLGOGNP@SPvTL?5?$CL?$AA@ 10075394     truetype.obj
 0002:0001f39c       ??_C@_08PMPIHHGM@SPvTL?5?$HM?$HM?$AA@ 1007539c     truetype.obj
 0002:0001f3a8       ??_C@_08EGCMFKKH@SFvTCA?5x?$AA@ 100753a8     truetype.obj
 0002:0001f3b4       ??_C@_08FPDHGLOG@SFvTCA?5y?$AA@ 100753b4     truetype.obj
 0002:0001f3c0       ??_C@_08PMPIGCAL@SPvTCA?5x?$AA@ 100753c0     truetype.obj
 0002:0001f3cc       ??_C@_08OFODFDEK@SPvTCA?5y?$AA@ 100753cc     truetype.obj
 0002:0001f3d8       ??_C@_07HFDOOKAA@SVTCA?5x?$AA@ 100753d8     truetype.obj
 0002:0001f3e0       ??_C@_07GMCFNLEB@SVTCA?5y?$AA@ 100753e0     truetype.obj
 0002:0001f3e8       ??_C@_07CDLHCBDE@tt?9glyf?$AA@ 100753e8     truetype.obj
 0002:0001f3f0       ??_C@_0O@DHADKGAK@multi?9masters?$AA@ 100753f0     truetype.obj
 0002:0001f400       ??_C@_08KJILHNAM@TrueType?$AA@ 10075400     truetype.obj
 0002:0001f40c       ??_C@_0BE@OJJAFABD@interpreter?9version?$AA@ 1007540c     truetype.obj
 0002:0001f420       ??_C@_0CI@DFPMECGB@tt_property_set?3?5missing?5propert@ 10075420     truetype.obj
 0002:0001f448       ??_C@_0CI@CIHEGHMF@tt_property_get?3?5missing?5propert@ 10075448     truetype.obj
 0002:0001f470       ??_C@_0L@CFBNLPCP@Locations?5?$AA@ 10075470     truetype.obj
 0002:0001f47c       ??_C@_0BB@PLONJGLO@table?5too?5large?6?$AA@ 1007547c     truetype.obj
 0002:0001f490       ??_C@_0CL@FKGHPAON@glyph?5count?5mismatch?$CB?5?5loca?3?5?$CFd?0@ 10075490     truetype.obj
 0002:0001f4bc       ??_C@_0BP@GGFJPGKJ@adjusting?5num_locations?5to?5?$CFd?6?$AA@ 100754bc     truetype.obj
 0002:0001f4dc       ??_C@_07HGLECIFL@loaded?6?$AA@ 100754dc     truetype.obj
 0002:0001f4e8       ??_C@_0HB@MOHDECEE@tt_face_get_location?3?5too?5large?5@ 100754e8     truetype.obj
 0002:0001f560       ??_C@_0HD@OBNBPFBE@tt_face_get_location?3?5too?5large?5@ 10075560     truetype.obj
 0002:0001f5d4       ??_C@_04DGNJNIML@CVT?5?$AA@ 100755d4     truetype.obj
 0002:0001f5dc       ??_C@_0M@NDFOJALC@is?5missing?6?$AA@ 100755dc     truetype.obj
 0002:0001f5e8       ??_C@_0O@NNKDKBGN@Font?5program?5?$AA@ 100755e8     truetype.obj
 0002:0001f5f8       ??_C@_0BE@JCLFNPKA@loaded?0?5?$CF12d?5bytes?6?$AA@ 100755f8     truetype.obj
 0002:0001f60c       ??_C@_0O@HBLDMHJP@Prep?5program?5?$AA@ 1007560c     truetype.obj
 0002:0001f61c       ??_C@_0CC@GHKIDEOD@?5?5advance?5width?5?$CIfont?5units?$CJ?3?5?$CFd@ 1007561c     truetype.obj
 0002:0001f640       ??_C@_0CG@BOBMINFM@?5?5left?5side?5bearing?5?$CIfont?5units?$CJ@ 10075640     truetype.obj
 0002:0001f668       ??_C@_0CD@EFKKHLDJ@?5?5advance?5height?5?$CIfont?5units?$CJ?3?5?$CF@ 10075668     truetype.obj
 0002:0001f68c       ??_C@_0CF@OJHICLND@?5?5top?5side?5bearing?5?$CIfont?5units?$CJ?3@ 1007568c     truetype.obj
 0002:0001f6b4       ??_C@_0L@CCJFCGJC@Glyph?5?$CFld?6?$AA@ 100756b4     truetype.obj
 0002:0001f6c0       ??_C@_0EF@MPDNENNL@m?3?2svn?2?4private?2mini?2umodsys?2dep@ 100756c0     truetype.obj
 0002:0001f708       ??_C@_0BF@FFONIHL@?5?5?$CD?5of?5contours?3?5?$CFd?6?$AA@ 10075708     truetype.obj
 0002:0001f720       ??_C@_0BI@PLPDCJI@?5?5xMin?3?5?$CF4d?5?5xMax?3?5?$CF4d?6?$AA@ 10075720     truetype.obj
 0002:0001f738       ??_C@_0BI@NJBJIJJI@?5?5yMin?3?5?$CF4d?5?5yMax?3?5?$CF4d?6?$AA@ 10075738     truetype.obj
 0002:0001f750       ??_C@_0BJ@KHGEHEJ@?5?5Instructions?5size?3?5?$CFu?6?$AA@ 10075750     truetype.obj
 0002:0001f76c       ??_C@_0DC@NGIDIKJC@TT_Load_Simple_Glyph?3?5too?5many?5i@ 1007576c     truetype.obj
 0002:0001f7a0       ??_C@_0DC@CHNDPNNA@TT_Load_Simple_Glyph?3?5instructio@ 100757a0     truetype.obj
 0002:0001f7d4       ??_C@_0CG@KJHFMCEP@TT_Hint_Glyph?3?5too?5long?5instruct@ 100757d4     truetype.obj
 0002:0001f7fc       ??_C@_0BL@GDFCBPID@?$CI0x?$CFlx?5byte?$CJ?5is?5truncated?6?$AA@ 100757fc     truetype.obj
 0002:0001f818       ??_C@_0BK@MIKHNDME@?5?5Instructions?5size?5?$DN?5?$CFd?6?$AA@ 10075818     truetype.obj
 0002:0001f838       ??_C@_0FB@OKBIEGNL@TT_Process_Composite_Glyph?3?5too?5@ 10075838     truetype.obj
 0002:0001f88c       ??_C@_0CL@BHCGKAAL@no?5?$GAglyf?8?5table?5but?5non?9zero?5?$GAlo@ 1007588c     truetype.obj
 0002:0001f8b8       ??_C@_0DN@PGFMAJDA@tt_loader_init?3?5grayscale?5change@ 100758b8     truetype.obj
 0002:0001f8f8       ??_C@_0CO@PBELKMDA@tt_loader_init?3?5could?5not?5access@ 100758f8     truetype.obj
 0002:0001f928       ??_C@_07JBKHDJHE@?4notdef?$AA@ 10075928     truetype.obj
 0002:0001f930       ??_C@_0M@LFDIHEDK@TTF?5driver?6?$AA@ 10075930     truetype.obj
 0002:0001f93c       ??_C@_0CL@KIBGNAPO@tt_face_init?3?5cannot?5access?5?$GAsfn@ 1007593c     truetype.obj
 0002:0001f968       ??_C@_0BC@JJINPPGC@?5?5not?5a?5TTF?5font?6?$AA@ 10075968     truetype.obj
 0002:0001f980       ??_C@_0GI@MMCLBIDK@tt_face_init?3?5Only?5the?5?$GA?4notdef?8@ 10075980     truetype.obj
 0002:0001f9e8       ??_C@_0BJ@PGIACECH@Executing?5?$GAfpgm?8?5table?4?6?$AA@ 100759e8     truetype.obj
 0002:0001fa04       ??_C@_0BJ@IBPFPBOF@Executing?5?$GAprep?8?5table?4?6?$AA@ 10075a04     truetype.obj
 0002:0001fa20       ??_C@_0EG@JHIBFMJI@m?3?2svn?2?4private?2mini?2umodsys?2dep@ 10075a20     truetype.obj
 0002:0001fa68       ??_C@_0CE@KIKCADGJ@Init_Context?3?5new?5object?5at?50x?$CF0@ 10075a68     truetype.obj
 0002:0001fa8c       ??_C@_0CI@NMCPIOBJ@Init_Context?3?5not?5enough?5memory?5@ 10075a8c     truetype.obj
 0002:0001fab4       ??_C@_02KNHHEEKP@?5?5?$AA@ 10075ab4     truetype.obj
 0002:0001fab8       ??_C@_0CH@EDANKCMM@?5?5The?5interpreter?5returned?5error@ 10075ab8     truetype.obj
 0002:0001fae0       ??_C@_05IBAMDCFI@Width?$AA@ 10075ae0     truetype.obj
 0002:0001fae8       ??_C@_0M@EDHPABCB@OpticalSize?$AA@ 10075ae8     truetype.obj
 0002:0001faf4       ??_C@_05BCGFHEPH@Slant?$AA@ 10075af4     truetype.obj
 0002:0001fafc       ??_C@_05KJLGPNNB@CVAR?5?$AA@ 10075afc     truetype.obj
 0002:0001fb04       ??_C@_0CG@BFBCJJHP@tt_face_vary_cvt?3?5no?5blend?5speci@ 10075b04     truetype.obj
 0002:0001fb2c       ??_C@_0CD@KMMHMBPJ@tt_face_vary_cvt?3?5no?5?$GAcvt?5?8?5tabl@ 10075b2c     truetype.obj
 0002:0001fb50       ??_C@_0BD@DHGNCPNC@bad?5table?5version?6?$AA@ 10075b50     truetype.obj
 0002:0001fb64       ??_C@_06JCBOBHIA@Type?51?$AA@ 10075b64     type1.obj
 0002:0001fb6c       ??_C@_0P@KEOGGALI@BuildCharArray?$AA@ 10075b6c     type1.obj
 0002:0001fb7c       ??_C@_0N@PGGOPDKP@DesignVector?$AA@ 10075b7c     type1.obj
 0002:0001fb8c       ??_C@_03MMGIAIPO@CDV?$AA@  10075b8c     type1.obj
 0002:0001fb90       ??_C@_03DOACNACD@NDV?$AA@  10075b90     type1.obj
 0002:0001fb94       ??_C@_0P@EMKCEFJO@?$CF?$CBPS?9AdobeFont?$AA@ 10075b94     type1.obj
 0002:0001fba4       ??_C@_0L@LLIKMEDC@?$CF?$CBFontType?$AA@ 10075ba4     type1.obj
 0002:0001fbb0       ??_C@_0BF@OBJOOMFD@?5?5not?5a?5Type?51?5font?6?$AA@ 10075bb0     type1.obj
 0002:0001fbc8       ??_C@_0DJ@DIIACHLF@T1_Get_Private_Dict?3?5invalid?5pri@ 10075bc8     type1.obj
 0002:0001fc04       ??_C@_0DF@JKCBBGLP@T1_Get_Private_Dict?3?5could?5not?5f@ 10075c04     type1.obj
 0002:0001fc3c       ??_C@_05OJJBIBFE@eexec?$AA@ 10075c3c     type1.obj
 0002:0001fc44       ??_C@_0DG@KENEOBOK@T1_Get_Private_Dict?3?5?$GAeexec?8?5not@ 10075c44     type1.obj
 0002:0001fc80       ??_C@_0EB@CDGPIDN@m?3?2svn?2?4private?2mini?2umodsys?2dep@ 10075c80     type1.obj
 0002:0001fcc4       ??_C@_0DG@FDPLANGL@parse_blend_axis_types?3?5incorrec@ 10075cc4     type1.obj
 0002:0001fcfc       ??_C@_0DP@NHOIKMJF@parse_blend_design_positions?3?5in@ 10075cfc     type1.obj
 0002:0001fd3c       ??_C@_0DK@HLHOOLOJ@parse_blend_design_positions?3?5in@ 10075d3c     type1.obj
 0002:0001fd78       ??_C@_0CP@EKOMBMEB@parse_blend_design_positions?3?5in@ 10075d78     type1.obj
 0002:0001fda8       ??_C@_0DG@CDNMPEHM@parse_blend_design_map?3?5incorrec@ 10075da8     type1.obj
 0002:0001fde0       ??_C@_0CJ@LFJMHIAI@parse_blend_design_map?3?5incorrec@ 10075de0     type1.obj
 0002:0001fe0c       ??_C@_0DG@GHJNDPMD@parse_weight_vector?3?5incorrect?5n@ 10075e0c     type1.obj
 0002:0001fe48       ??_C@_0HE@IECMEGI@parse_weight_vector?3?5?1BlendDesig@ 10075e48     type1.obj
 0002:0001fec0       ??_C@_0HN@DGGMHBJP@t1_load_keyword?3?5ignoring?5keywor@ 10075ec0     type1.obj
 0002:0001ff40       ??_C@_0CG@MFJIEGCO@read_binary_data?3?5invalid?5size?5f@ 10075f40     type1.obj
 0002:0001ff68       ??_C@_0CL@EBDFOJAM@t1_parse_font_matrix?3?5invalid?5fo@ 10075f68     type1.obj
 0002:0001ff94       ??_C@_0BP@KLKHBNPG@parse_encoding?3?5out?5of?5bounds?6?$AA@ 10075f94     type1.obj
 0002:0001ffb4       ??_C@_0O@NFMFMIMO@encoding?5end?6?$AA@ 10075fb4     type1.obj
 0002:0001ffc4       ??_C@_0BB@MLEHKAJM@StandardEncoding?$AA@ 10075fc4     type1.obj
 0002:0001ffd8       ??_C@_0P@LHOFAKJ@ExpertEncoding?$AA@ 10075fd8     type1.obj
 0002:0001ffe8       ??_C@_0BC@OHHLKLPP@ISOLatin1Encoding?$AA@ 10075fe8     type1.obj
 0002:0001fffc       ??_C@_03BHPKJDPK@dup?$AA@  10075ffc     type1.obj
 0002:00020000       ??_C@_03KMONJGDG@put?$AA@  10076000     type1.obj
 0002:00020004       ??_C@_09BJJLCLMA@closefile?$AA@ 10076004     type1.obj
 0002:00020010       ??_C@_0O@CJLBGMNG@FontDirectory?$AA@ 10076010     type1.obj
 0002:00020020       ??_C@_0EM@IJFOPHMP@parse_dict?3?5found?5?$GA?$CFs?8?5but?5ignor@ 10076020     type1.obj
 0002:00020070       ??_C@_0EM@IIPFEHK@T1_Open_Face?$CI?$CJ?3?5?1DesignVector?5co@ 10076070     type1.obj
 0002:000200bc       ??_C@_0CO@OLOEBBAC@T1_Open_Face?3?5cannot?5allocate?5Bu@ 100760bc     type1.obj
 0002:000200ec       ??_C@_0CP@DEPHJMKA@T1_Open_Face?3?5no?5?$GA?1CharStrings?8?5@ 100760ec     type1.obj
 0002:00020120       ??_C@_0EB@DFFOKPEJ@m?3?2svn?2?4private?2mini?2umodsys?2dep@ 10076120     type1.obj
 0002:00020164       ??_C@_0CM@LOPNIGHG@T1_Face_Init?3?5cannot?5access?5?$GApsa@ 10076164     type1.obj
 0002:00020190       ??_C@_0P@DGPEMFJJ@Type?51?5driver?6?$AA@ 10076190     type1.obj
 0002:000201a0       ??_C@_0CC@BMKDPKIC@T1_Face_Init?3?5invalid?5face?5index@ 100761a0     type1.obj
 0002:000201c8       ??_C@_0EC@EDJAMIM@m?3?2svn?2?4private?2mini?2umodsys?2dep@ 100761c8     type1.obj
 0002:0002020c       ??_C@_07GJBALKN@Type?542?$AA@ 1007620c     type42.obj
 0002:00020214       ??_C@_05FJOKMJFH@sfnts?$AA@ 10076214     type42.obj
 0002:0002021c       ??_C@_0CK@JKHMFEOJ@T42_Open_Face?3?5cannot?5handle?5Fon@ 1007621c     type42.obj
 0002:00020248       ??_C@_0CN@MCPPGLNG@T42_Open_Face?3?5no?5charstrings?5ar@ 10076248     type42.obj
 0002:00020278       ??_C@_0CN@MAKIMJMP@T42_Face_Init?3?5cannot?5access?5?$GAps@ 10076278     type42.obj
 0002:000202a8       ??_C@_0BA@DPJJGDHJ@Type?542?5driver?6?$AA@ 100762a8     type42.obj
 0002:000202b8       ??_C@_0CD@PBHBCFME@T42_Face_Init?3?5invalid?5face?5inde@ 100762b8     type42.obj
 0002:000202dc       ??_C@_0DC@FAIOLLMM@T42_Driver_Init?3?5cannot?5access?5?$GA@ 100762dc     type42.obj
 0002:00020310       ??_C@_0BC@IJJLOJBO@?$CF?$CBPS?9TrueTypeFont?$AA@ 10076310     type42.obj
 0002:00020324       ??_C@_0BF@JODNPIMN@?5?5not?5a?5Type42?5font?6?$AA@ 10076324     type42.obj
 0002:0002033c       ??_C@_0CD@GEPNNAKD@t42_parse_encoding?3?5out?5of?5bound@ 1007633c     type42.obj
 0002:00020360       ??_C@_0CD@IHAONGOM@t42_parse_encoding?3?5invalid?5toke@ 10076360     type42.obj
 0002:00020384       ??_C@_0DD@OGBHJDN@t42_parse_sfnts?3?5can?8t?5find?5begi@ 10076384     type42.obj
 0002:000203b8       ??_C@_0DM@KBNPAEAA@t42_parse_sfnts?3?5can?8t?5handle?5mi@ 100763b8     type42.obj
 0002:000203f4       ??_C@_0CG@CHKPOLCH@t42_parse_sfnts?3?5invalid?5string?5@ 100763f4     type42.obj
 0002:0002041c       ??_C@_0CH@EPBHFNII@t42_parse_sfnts?3?5too?5many?5binary@ 1007641c     type42.obj
 0002:00020444       ??_C@_0CO@PMKANJDE@t42_parse_sfnts?3?5invalid?5data?5in@ 10076444     type42.obj
 0002:00020474       ??_C@_0CB@NDOOGBOD@t42_parse_sfnts?3?5invalid?5string?6@ 10076474     type42.obj
 0002:00020498       ??_C@_0CG@HLGHJJOG@t42_parse_charstrings?3?5out?5of?5bo@ 10076498     type42.obj
 0002:000204c0       ??_C@_0CG@JIJEJPKJ@t42_parse_charstrings?3?5invalid?5t@ 100764c0     type42.obj
 0002:000204e8       ??_C@_0CK@PFGHLDNE@t42_parse_charstrings?3?5no?5?1?4notd@ 100764e8     type42.obj
 0002:00020514       ??_C@_05MDIJLHEA@known?$AA@ 10076514     type42.obj
 0002:0002051c       ??_C@_0CI@CGMOPDPD@oversubscribed?5dynamic?5bit?5lengt@ 1007651c     ftgzip.obj
 0002:00020544       ??_C@_0CE@LOHAHEGK@incomplete?5dynamic?5bit?5lengths?5t@ 10076544     ftgzip.obj
 0002:00020568       ??_C@_0CD@GJIDGCKE@oversubscribed?5literal?1length?5tr@ 10076568     ftgzip.obj
 0002:0002058c       ??_C@_0BP@NEEEJJNA@incomplete?5literal?1length?5tree?$AA@ 1007658c     ftgzip.obj
 0002:000205ac       ??_C@_0BN@KBLCDIAI@oversubscribed?5distance?5tree?$AA@ 100765ac     ftgzip.obj
 0002:000205cc       ??_C@_0BJ@CBCPDPJF@incomplete?5distance?5tree?$AA@ 100765cc     ftgzip.obj
 0002:000205e8       ??_C@_0CB@KPKKKLFO@empty?5distance?5tree?5with?5lengths@ 100765e8     ftgzip.obj
 0002:0002060c       ??_C@_0BM@FFFLPBBC@invalid?5literal?1length?5code?$AA@ 1007660c     ftgzip.obj
 0002:00020628       ??_C@_0BG@LBKINIKP@invalid?5distance?5code?$AA@ 10076628     ftgzip.obj
 0002:00020640       ??_C@_0BD@PJCBIDD@invalid?5block?5type?$AA@ 10076640     ftgzip.obj
 0002:00020654       ??_C@_0BN@LGAADGOK@invalid?5stored?5block?5lengths?$AA@ 10076654     ftgzip.obj
 0002:00020674       ??_C@_0CE@GMIGFPBB@too?5many?5length?5or?5distance?5symb@ 10076674     ftgzip.obj
 0002:00020698       ??_C@_0BK@BMMPFBBH@invalid?5bit?5length?5repeat?$AA@ 10076698     ftgzip.obj
 0002:000206b4       ??_C@_0BL@IHKGDAEE@unknown?5compression?5method?$AA@ 100766b4     ftgzip.obj
 0002:000206d0       ??_C@_0BE@EMOGCLGO@invalid?5window?5size?$AA@ 100766d0     ftgzip.obj
 0002:000206e4       ??_C@_0BH@LIBMMIGA@incorrect?5header?5check?$AA@ 100766e4     ftgzip.obj
 0002:000206fc       ??_C@_0BA@MOKMMFOD@need?5dictionary?$AA@ 100766fc     ftgzip.obj
 0002:0002070c       ??_C@_0BF@MEIGEHBE@incorrect?5data?5check?$AA@ 1007670c     ftgzip.obj
 0002:00020728       ??_C@_0EA@BKNCBLLI@m?3?2svn?2?4private?2mini?2umodsys?2dep@ 10076728     ftlzw.obj
 0002:00020768       ??_C@_0M@FPCOPFGH@Windows?5FNT?$AA@ 10076768     winfnt.obj
 0002:00020774       ??_C@_08NAMFKPDH@winfonts?$AA@ 10076774     winfnt.obj
 0002:00020780       ??_C@_0BK@ICKIODJD@?5?5not?5a?5Windows?5FNT?5file?6?$AA@ 10076780     winfnt.obj
 0002:0002079c       ??_C@_0CB@EKJMPNAG@?$FLcan?8t?5handle?5vector?5FNT?5fonts?$FN?6@ 1007679c     winfnt.obj
 0002:000207c0       ??_C@_0BE@GIKLCEAB@MZ?5signature?5found?6?$AA@ 100767c0     winfnt.obj
 0002:000207d4       ??_C@_0BE@JHNPMEAP@NE?5signature?5found?6?$AA@ 100767d4     winfnt.obj
 0002:000207e8       ??_C@_0CN@EJOGEPIK@this?5file?5doesn?8t?5contain?5any?5FN@ 100767e8     winfnt.obj
 0002:00020818       ??_C@_0BJ@HGIMDOPD@invalid?5number?5of?5faces?6?$AA@ 10076818     winfnt.obj
 0002:00020834       ??_C@_0BE@GOOBCEEN@PE?5signature?5found?6?$AA@ 10076834     winfnt.obj
 0002:00020848       ??_C@_0IK@JKJLNFFJ@magic?5?$CF04lx?0?5machine?5?$CF02x?0?5numbe@ 10076848     winfnt.obj
 0002:000208d4       ??_C@_0CE@LCFMCIAM@this?5file?5has?5an?5invalid?5PE?5head@ 100768d4     winfnt.obj
 0002:000208f8       ??_C@_0CP@OECOELNO@name?5?$CF?48s?0?5va?5?$CF04lx?0?5size?5?$CF04lx?0@ 100768f8     winfnt.obj
 0002:00020928       ??_C@_0CJ@JJKGIDAB@this?5file?5doesn?8t?5contain?5any?5re@ 10076928     winfnt.obj
 0002:00020954       ??_C@_0BO@GLDCMBH@found?5resources?5section?5?$CF?48s?6?$AA@ 10076954     winfnt.obj
 0002:00020974       ??_C@_0DD@JCCODEEE@found?5font?5?$CD?$CFlu?0?5offset?5?$CF04lx?0?5s@ 10076974     winfnt.obj
 0002:000209a8       ??_C@_0BJ@CKGBPFLK@font?5?$CD?$CFlu?5load?5error?5?$CFd?6?$AA@ 100769a8     winfnt.obj
 0002:000209c4       ??_C@_0BP@JIBKMFEB@font?5?$CD?$CFlu?5successfully?5loaded?6?$AA@ 100769c4     winfnt.obj
 0002:000209e4       ??_C@_0DB@PCIFMECM@this?5file?5doesn?8t?5contain?5any?5RT@ 100769e4     winfnt.obj
 0002:00020a18       ??_C@_0BE@DOCBHFBI@Windows?5FNT?5driver?6?$AA@ 10076a18     winfnt.obj
 0002:00020a2c       ??_C@_0CI@KDIJKEBA@use?5pixel_height?5as?5the?5nominal?5@ 10076a2c     winfnt.obj
 0002:00020a54       ??_C@_0BK@KFCFBMAC@invalid?5number?5of?5glyphs?6?$AA@ 10076a54     winfnt.obj
 0002:00020a70       ??_C@_0BM@DBMALMDP@invalid?5family?5name?5offset?6?$AA@ 10076a70     winfnt.obj
 0002:00020a8c       ??_C@_0M@DFCIIFPB@Bold?5Italic?$AA@ 10076a8c     winfnt.obj
 0002:00020a98       ??_C@_0BE@CKOHBAHK@invalid?5FNT?5offset?6?$AA@ 10076a98     winfnt.obj
 0002:00020aac       ??_C@_0BG@CNAIIIPE@invalid?5bitmap?5width?6?$AA@ 10076aac     winfnt.obj
 0002:00020ac8       __real@3f90000000000000    10076ac8      CIL library: CIL module
 0002:00020ad0       __real@3ef0000000000000    10076ad0      CIL library: CIL module
 0002:00020ad8       __real@408f400000000000    10076ad8      CIL library: CIL module
 0002:00020ae0       __real@41f0000000000000    10076ae0      CIL library: CIL module
 0002:00020ae8       __load_config_used         10076ae8     MSVCRT:loadcfg.obj
 0002:00020b30       ___safe_se_handler_table   10076b30     <linker-defined>
 0002:00020b34       ___rtc_iaa                 10076b34     MSVCRT:_initsect_.obj
 0002:00020b38       ___rtc_izz                 10076b38     MSVCRT:_initsect_.obj
 0002:00020b3c       ___rtc_taa                 10076b3c     MSVCRT:_initsect_.obj
 0002:00020b40       ___rtc_tzz                 10076b40     MSVCRT:_initsect_.obj
 0002:00020bac       __IMPORT_DESCRIPTOR_MSVCR90 10076bac     MSVCRT:MSVCR90.dll
 0002:00020bc0       __IMPORT_DESCRIPTOR_KERNEL32 10076bc0     kernel32:KERNEL32.dll
 0002:00020bd4       __NULL_IMPORT_DESCRIPTOR   10076bd4     MSVCRT:MSVCR90.dll
 0003:00000000       ___native_dllmain_reason   10079000     MSVCRT:natstart.obj
 0003:00000004       ___native_vcclrit_reason   10079004     MSVCRT:natstart.obj
 0003:00000008       ___security_cookie         10079008     MSVCRT:gs_cookie.obj
 0003:0000000c       ___security_cookie_complement 1007900c     MSVCRT:gs_cookie.obj
 0003:00000384       __forceCRTManifestRTM      10079384     MSVCRT:crtmanifestrtm.obj
 0003:00000388       ?__type_info_root_node@@3U__type_info_node@@A 10079388     MSVCRT:tncleanup.obj
 0003:000006b4       __adjust_fdiv              100796b4     <common>
 0003:000006b8       ___native_startup_state    100796b8     <common>
 0003:000006bc       ___native_startup_lock     100796bc     <common>
 0003:000006c0       ___onexitend               100796c0     <common>
 0003:000006c4       ___onexitbegin             100796c4     <common>
 0003:000006c8       ___dyn_tls_init_callback   100796c8     <common>
 0003:000006e0       _ft_trace_levels           100796e0     <common>

 entry point at        0001:0005435a

 Static symbols

 0001:00000000       _af_sort_pos               10001000 f    CIL library: CIL module
 0001:0000003b       _af_sort_and_quantize_widths 1000103b f    CIL library: CIL module
 0001:0000017f       _af_face_globals_compute_script_coverage 1000117f f    CIL library: CIL module
 0001:000002bb       _af_face_globals_new       100012bb f    CIL library: CIL module
 0001:00000318       _af_face_globals_free      10001318 f    CIL library: CIL module
 0001:00000396       _af_face_globals_get_metrics 10001396 f    CIL library: CIL module
 0001:00000431       _af_axis_hints_new_segment 10001431 f    CIL library: CIL module
 0001:000004a2       _af_axis_hints_new_edge    100014a2 f    CIL library: CIL module
 0001:00000567       _af_direction_compute      10001567 f    CIL library: CIL module
 0001:000005a9       _af_glyph_hints_done       100015a9 f    CIL library: CIL module
 0001:00000627       _af_glyph_hints_reload     10001627 f    CIL library: CIL module
 0001:00000927       _af_glyph_hints_save       10001927 f    CIL library: CIL module
 0001:0000096c       _af_glyph_hints_align_edge_points 1000196c f    CIL library: CIL module
 0001:00000a03       _af_glyph_hints_align_strong_points 10001a03 f    CIL library: CIL module
 0001:00000b93       _af_iup_interp             10001b93 f    CIL library: CIL module
 0001:00000cac       _af_glyph_hints_align_weak_points 10001cac f    CIL library: CIL module
 0001:00000eb6       _af_dummy_hints_init       10001eb6 f    CIL library: CIL module
 0001:00000eca       _cid_driver_init           10001eca f    CIL library: CIL module
 0001:00000eca       _tt_cmap14_char_index      10001eca f    CIL library: CIL module
 0001:00000eca       _af_dummy_hints_apply      10001eca f    CIL library: CIL module
 0001:00000eca       _T1_Driver_Init            10001eca f    CIL library: CIL module
 0001:00000ecd       _af_latin_metrics_init_widths 10001ecd f    CIL library: CIL module
 0001:000011c4       _af_latin_metrics_init_blues 100021c4 f    CIL library: CIL module
 0001:0000162d       _af_latin_metrics_init     1000262d f    CIL library: CIL module
 0001:0000167c       _af_latin_metrics_scale_dim 1000267c f    CIL library: CIL module
 0001:00001883       _af_latin_metrics_scale    10002883 f    CIL library: CIL module
 0001:000018b8       _af_latin_hints_compute_segments 100028b8 f    CIL library: CIL module
 0001:00001b3f       _af_latin_hints_link_segments 10002b3f f    CIL library: CIL module
 0001:00001c8a       _af_latin_hints_compute_edges 10002c8a f    CIL library: CIL module
 0001:00001f1c       _af_latin_hints_detect_features 10002f1c f    CIL library: CIL module
 0001:00001f48       _af_latin_hints_compute_blue_edges 10002f48 f    CIL library: CIL module
 0001:00002063       _af_latin_hints_init       10003063 f    CIL library: CIL module
 0001:000020e2       _af_cjk_snap_width         100030e2 f    CIL library: CIL module
 0001:000020e2       _af_latin_snap_width       100030e2 f    CIL library: CIL module
 0001:00002136       _af_latin_compute_stem_width 10003136 f    CIL library: CIL module
 0001:00002289       _af_latin_align_linked_edge 10003289 f    CIL library: CIL module
 0001:0000231a       _af_latin_hint_edges       1000331a f    CIL library: CIL module
 0001:00002c3c       _af_latin_hints_apply      10003c3c f    CIL library: CIL module
 0001:00002ce4       _af_cjk_metrics_init_widths 10003ce4 f    CIL library: CIL module
 0001:00002ef7       _af_cjk_metrics_init_blues 10003ef7 f    CIL library: CIL module
 0001:000032a4       _af_cjk_metrics_check_digits 100042a4 f    CIL library: CIL module
 0001:000032a4       _af_latin_metrics_check_digits 100042a4 f    CIL library: CIL module
 0001:00003305       _af_cjk_metrics_init       10004305 f    CIL library: CIL module
 0001:00003358       _af_cjk_metrics_scale_dim  10004358 f    CIL library: CIL module
 0001:00003504       _af_cjk_metrics_scale      10004504 f    CIL library: CIL module
 0001:0000353c       _af_cjk_hints_compute_segments 1000453c f    CIL library: CIL module
 0001:000035a4       _af_cjk_hints_link_segments 100045a4 f    CIL library: CIL module
 0001:00003851       _af_cjk_hints_compute_edges 10004851 f    CIL library: CIL module
 0001:00003b3a       _af_cjk_hints_detect_features 10004b3a f    CIL library: CIL module
 0001:00003b67       _af_cjk_hints_compute_blue_edges 10004b67 f    CIL library: CIL module
 0001:00003c99       _af_cjk_hints_init         10004c99 f    CIL library: CIL module
 0001:00003d08       _af_cjk_compute_stem_width 10004d08 f    CIL library: CIL module
 0001:00003e1d       _af_hint_normal_stem       10004e1d f    CIL library: CIL module
 0001:00003f93       _af_cjk_hint_edges         10004f93 f    CIL library: CIL module
 0001:0000439c       _af_cjk_align_edge_points  1000539c f    CIL library: CIL module
 0001:0000446a       _af_cjk_hints_apply        1000546a f    CIL library: CIL module
 0001:00004524       _af_indic_metrics_init     10005524 f    CIL library: CIL module
 0001:0000456f       _af_indic_metrics_scale    1000556f f    CIL library: CIL module
 0001:00004574       _af_indic_hints_init       10005574 f    CIL library: CIL module
 0001:00004579       _af_indic_hints_apply      10005579 f    CIL library: CIL module
 0001:0000457e       _af_loader_reset           1000557e f    CIL library: CIL module
 0001:000045be       _af_loader_load_g          100055be f    CIL library: CIL module
 0001:00004d4d       _af_loader_load_glyph      10005d4d f    CIL library: CIL module
 0001:00004f88       _af_get_interface          10005f88 f    CIL library: CIL module
 0001:00004f99       _af_autofitter_init        10005f99 f    CIL library: CIL module
 0001:00004fdc       _af_autofitter_done        10005fdc f    CIL library: CIL module
 0001:00005001       _af_autofitter_load_glyph  10006001 f    CIL library: CIL module
 0001:0000501c       __ft_face_scale_advances   1000601c f    CIL library: CIL module
 0001:00005340       _FT_MulFix_i386            10006340 f    CIL library: CIL module
 0001:00005340       _FT_MulFix_i386            10006340 f    CIL library: CIL module
 0001:00005340       _FT_MulFix_i386            10006340 f    CIL library: CIL module
 0001:00005340       _FT_MulFix_i386            10006340 f    CIL library: CIL module
 0001:00005340       _FT_MulFix_i386            10006340 f    CIL library: CIL module
 0001:00005340       _FT_MulFix_i386            10006340 f    CIL library: CIL module
 0001:00005340       _FT_MulFix_i386            10006340 f    CIL library: CIL module
 0001:00005340       _FT_MulFix_i386            10006340 f    CIL library: CIL module
 0001:00005340       _FT_MulFix_i386            10006340 f    CIL library: CIL module
 0001:00005340       _FT_MulFix_i386            10006340 f    CIL library: CIL module
 0001:00005800       _FT_GlyphLoader_Adjust_Points 10006800 f    CIL library: CIL module
 0001:00005b36       _body                      10006b36 f    CIL library: CIL module
 0001:00006845       _ft_glyphslot_init         10007845 f    CIL library: CIL module
 0001:00006964       _ft_glyphslot_clear        10007964 f    CIL library: CIL module
 0001:000069c7       _ft_glyphslot_done         100079c7 f    CIL library: CIL module
 0001:00006bae       _ft_glyphslot_grid_fit_metrics 10007bae f    CIL library: CIL module
 0001:00006fe9       _destroy_size              10007fe9 f    CIL library: CIL module
 0001:0000702a       _destroy_charmaps          1000802a f    CIL library: CIL module
 0001:00007068       _destroy_face              10008068 f    CIL library: CIL module
 0001:0000710d       _find_unicode_charmap      1000810d f    CIL library: CIL module
 0001:00007195       _find_variant_selector_charmap 10008195 f    CIL library: CIL module
 0001:000071ef       _open_face                 100081ef f    CIL library: CIL module
 0001:0000736b       _memory_stream_close       1000836b f    CIL library: CIL module
 0001:00007388       _open_face_from_buffer     10008388 f    CIL library: CIL module
 0001:00007450       _ft_lookup_PS_in_sfnt_stream 10008450 f    CIL library: CIL module
 0001:0000758b       _open_face_PS_from_sfnt_stream 1000858b f    CIL library: CIL module
 0001:00007654       _Mac_Read_POST_Resource    10008654 f    CIL library: CIL module
 0001:000078d9       _Mac_Read_sfnt_Resource    100088d9 f    CIL library: CIL module
 0001:000079d1       _IsMacResource             100089d1 f    CIL library: CIL module
 0001:00007ab2       _IsMacBinary               10008ab2 f    CIL library: CIL module
 0001:00007b5e       _load_face_in_embedded_rfork 10008b5e f    CIL library: CIL module
 0001:00007d21       _load_mac_face             10008d21 f    CIL library: CIL module
 0001:00008550       _ft_recompute_scaled_metrics 10009550 f    CIL library: CIL module
 0001:000090fc       _ft_cmap_done_internal     1000a0fc f    CIL library: CIL module
 0001:000098ce       _ft_add_renderer           1000a8ce f    CIL library: CIL module
 0001:00009974       _ft_remove_renderer        1000a974 f    CIL library: CIL module
 0001:00009c3b       _Destroy_Module            1000ac3b f    CIL library: CIL module
 0001:0000b662       _raccess_guess_apple_double 1000c662 f    CIL library: CIL module
 0001:0000b689       _raccess_guess_apple_single 1000c689 f    CIL library: CIL module
 0001:0000b6b0       _raccess_guess_darwin_ufs_export 1000c6b0 f    CIL library: CIL module
 0001:0000b6ff       _raccess_guess_darwin_hfsplus 1000c6ff f    CIL library: CIL module
 0001:0000b76b       _raccess_guess_darwin_newvfs 1000c76b f    CIL library: CIL module
 0001:0000b7da       _raccess_guess_vfat        1000c7da f    CIL library: CIL module
 0001:0000b80a       _raccess_guess_linux_cap   1000c80a f    CIL library: CIL module
 0001:0000b83a       _raccess_guess_linux_double 1000c83a f    CIL library: CIL module
 0001:0000b889       _raccess_guess_linux_netatalk 1000c889 f    CIL library: CIL module
 0001:0000b8d8       _raccess_guess_apple_generic 1000c8d8 f    CIL library: CIL module
 0001:0000b9c1       _raccess_guess_linux_double_from_file_name 1000c9c1 f    CIL library: CIL module
 0001:0000ba12       _raccess_make_file_name    1000ca12 f    CIL library: CIL module
 0001:0000c617       _ft_trig_downscale         1000d617 f    CIL library: CIL module
 0001:0000c644       _ft_trig_prenorm           1000d644 f    CIL library: CIL module
 0001:0000c689       _ft_trig_pseudo_rotate     1000d689 f    CIL library: CIL module
 0001:0000c751       _ft_trig_pseudo_polarize   1000d751 f    CIL library: CIL module
 0001:0000cf5d       _ft_alloc                  1000df5d f    CIL library: CIL module
 0001:0000cf69       _ft_realloc                1000df69 f    CIL library: CIL module
 0001:0000cf7a       _ft_free                   1000df7a f    CIL library: CIL module
 0001:0000cf86       _ft_ansi_stream_close      1000df86 f    CIL library: CIL module
 0001:0000cfa1       _ft_ansi_stream_io         1000dfa1 f    CIL library: CIL module
 0001:0000d1c4       _ft_bitmap_assure_buffer   1000e1c4 f    CIL library: CIL module
 0001:0000dad8       _ft_bitmap_glyph_init      1000ead8 f    CIL library: CIL module
 0001:0000db50       _ft_bitmap_glyph_copy      1000eb50 f    CIL library: CIL module
 0001:0000db7a       _ft_bitmap_glyph_done      1000eb7a f    CIL library: CIL module
 0001:0000db8c       _ft_bitmap_glyph_bbox      1000eb8c f    CIL library: CIL module
 0001:0000dbbe       _ft_outline_glyph_init     1000ebbe f    CIL library: CIL module
 0001:0000dc07       _ft_outline_glyph_done     1000ec07 f    CIL library: CIL module
 0001:0000dc19       _ft_outline_glyph_copy     1000ec19 f    CIL library: CIL module
 0001:0000dc54       _ft_outline_glyph_transform 1000ec54 f    CIL library: CIL module
 0001:0000dc8a       _ft_outline_glyph_bbox     1000ec8a f    CIL library: CIL module
 0001:0000dc9e       _ft_outline_glyph_prepare  1000ec9e f    CIL library: CIL module
 0001:0000dcc3       _ft_new_glyph              1000ecc3 f    CIL library: CIL module
 0001:0000e156       _ft_conic_is_small_enough  1000f156 f    CIL library: CIL module
 0001:0000e209       _gray_split_cubic          1000f209 f    CIL library: CIL module
 0001:0000e209       _ft_cubic_split            1000f209 f    CIL library: CIL module
 0001:0000e2b9       _ft_cubic_is_small_enough  1000f2b9 f    CIL library: CIL module
 0001:0000e449       _ft_stroke_border_grow     1000f449 f    CIL library: CIL module
 0001:0000e4b9       _ft_stroke_border_close    1000f4b9 f    CIL library: CIL module
 0001:0000e57e       _ft_stroke_border_lineto   1000f57e f    CIL library: CIL module
 0001:0000e627       _ft_stroke_border_conicto  1000f627 f    CIL library: CIL module
 0001:0000e692       _ft_stroke_border_cubicto  1000f692 f    CIL library: CIL module
 0001:0000e70f       _ft_stroke_border_arcto    1000f70f f    CIL library: CIL module
 0001:0000e85d       _ft_stroke_border_moveto   1000f85d f    CIL library: CIL module
 0001:0000e885       _ft_stroke_border_done     1000f885 f    CIL library: CIL module
 0001:0000e8b6       _ft_stroke_border_get_counts 1000f8b6 f    CIL library: CIL module
 0001:0000e912       _ft_stroke_border_export   1000f912 f    CIL library: CIL module
 0001:0000ea9f       _ft_stroker_arcto          1000fa9f f    CIL library: CIL module
 0001:0000eaef       _ft_stroker_cap            1000faef f    CIL library: CIL module
 0001:0000ec17       _ft_stroker_inside         1000fc17 f    CIL library: CIL module
 0001:0000ecde       _ft_stroker_outside        1000fcde f    CIL library: CIL module
 0001:0000eefd       _ft_stroker_process_corner 1000fefd f    CIL library: CIL module
 0001:0000ef44       _ft_stroker_subpath_start  1000ff44 f    CIL library: CIL module
 0001:0000f9d8       _ft_stroker_add_reverse_left 100109d8 f    CIL library: CIL module
 0001:000100ef       _hash_bucket               100110ef f    CIL library: CIL module
 0001:00010164       _hash_rehash               10011164 f    CIL library: CIL module
 0001:000101df       _hash_init                 100111df f    CIL library: CIL module
 0001:00010215       _hash_free                 10011215 f    CIL library: CIL module
 0001:00010252       _hash_insert               10011252 f    CIL library: CIL module
 0001:000102b9       __bdf_list_done            100112b9 f    CIL library: CIL module
 0001:000102d8       __bdf_list_ensure          100112d8 f    CIL library: CIL module
 0001:00010329       __bdf_list_shift           10011329 f    CIL library: CIL module
 0001:00010355       __bdf_list_join            10011355 f    CIL library: CIL module
 0001:000103b0       __bdf_list_split           100113b0 f    CIL library: CIL module
 0001:0001057a       __bdf_readstream           1001157a f    CIL library: CIL module
 0001:0001078b       __bdf_atoul                1001178b f    CIL library: CIL module
 0001:00010802       __bdf_atol                 10011802 f    CIL library: CIL module
 0001:000108a3       __bdf_atos                 100118a3 f    CIL library: CIL module
 0001:00010957       _by_encoding               10011957 f    CIL library: CIL module
 0001:00010977       _bdf_create_property       10011977 f    CIL library: CIL module
 0001:00010a67       __bdf_add_comment          10011a67 f    CIL library: CIL module
 0001:00010abe       __bdf_set_default_spacing  10011abe f    CIL library: CIL module
 0001:00010b96       __bdf_is_atom              10011b96 f    CIL library: CIL module
 0001:00010c7a       __bdf_add_property         10011c7a f    CIL library: CIL module
 0001:00010f2c       __bdf_parse_glyphs         10011f2c f    CIL library: CIL module
 0001:000118fa       __bdf_parse_properties     100128fa f    CIL library: CIL module
 0001:00011aee       __bdf_parse_start          10012aee f    CIL library: CIL module
 0001:00012108       _bdf_load_font             10013108 f    CIL library: CIL module
 0001:0001242e       _bdf_free_font             1001342e f    CIL library: CIL module
 0001:00012614       _bdf_get_font_property     10013614 f    CIL library: CIL module
 0001:00012647       _bdf_cmap_init             10013647 f    CIL library: CIL module
 0001:00012665       _bdf_cmap_char_index       10013665 f    CIL library: CIL module
 0001:000126a8       _bdf_cmap_char_next        100136a8 f    CIL library: CIL module
 0001:00012734       _bdf_interpret_style       10013734 f    CIL library: CIL module
 0001:000128f7       _BDF_Face_Done             100138f7 f    CIL library: CIL module
 0001:00012981       _BDF_Face_Init             10013981 f    CIL library: CIL module
 0001:00012e4d       _BDF_Size_Select           10013e4d f    CIL library: CIL module
 0001:00012e8a       _BDF_Size_Request          10013e8a f    CIL library: CIL module
 0001:00012f01       _BDF_Glyph_Load            10013f01 f    CIL library: CIL module
 0001:0001302b       _bdf_get_bdf_property      1001402b f    CIL library: CIL module
 0001:000130e5       _bdf_get_charset_id        100140e5 f    CIL library: CIL module
 0001:00013104       _bdf_driver_requester      10014104 f    CIL library: CIL module
 0001:00013115       _FTC_MruNode_Prepend       10014115 f    CIL library: CIL module
 0001:00013132       _FTC_MruNode_Up            10014132 f    CIL library: CIL module
 0001:00013169       _FTC_MruNode_Remove        10014169 f    CIL library: CIL module
 0001:000131bf       _FTC_MruList_Init          100141bf f    CIL library: CIL module
 0001:000131e6       _FTC_MruList_Reset         100141e6 f    CIL library: CIL module
 0001:00013213       _FTC_MruList_New           10014213 f    CIL library: CIL module
 0001:000132fb       _FTC_MruList_Remove        100142fb f    CIL library: CIL module
 0001:0001332d       _FTC_MruList_RemoveSelection 1001432d f    CIL library: CIL module
 0001:0001338c       _ftc_scaler_lookup_size    1001438c f    CIL library: CIL module
 0001:00013419       _ftc_size_node_done        10014419 f    CIL library: CIL module
 0001:0001342c       _ftc_size_node_compare     1001442c f    CIL library: CIL module
 0001:00013489       _ftc_size_node_init        10014489 f    CIL library: CIL module
 0001:000134b1       _ftc_size_node_reset       100144b1 f    CIL library: CIL module
 0001:000134e3       _ftc_size_node_compare_faceid 100144e3 f    CIL library: CIL module
 0001:00013582       _ftc_face_node_init        10014582 f    CIL library: CIL module
 0001:000135c4       _ftc_face_node_done        100145c4 f    CIL library: CIL module
 0001:000135f5       _ftc_face_node_compare     100145f5 f    CIL library: CIL module
 0001:000137c0       _FTC_Manager_Compress      100147c0 f    CIL library: CIL module
 0001:00013806       _FTC_Manager_RegisterCache 10014806 f    CIL library: CIL module
 0001:000138c9       _FTC_Manager_FlushN        100148c9 f    CIL library: CIL module
 0001:00013972       _ftc_cache_resize          10014972 f    CIL library: CIL module
 0001:00013a95       _ftc_node_destroy          10014a95 f    CIL library: CIL module
 0001:00013b1b       _ftc_cache_init            10014b1b f    CIL library: CIL module
 0001:00013b53       _FTC_Cache_Clear           10014b53 f    CIL library: CIL module
 0001:00013be2       _ftc_cache_done            10014be2 f    CIL library: CIL module
 0001:00013c16       _ftc_cache_add             10014c16 f    CIL library: CIL module
 0001:00013c91       _FTC_Cache_NewNode         10014c91 f    CIL library: CIL module
 0001:00013d12       _FTC_Cache_RemoveFaceID    10014d12 f    CIL library: CIL module
 0001:00013dd3       _ftc_cmap_node_free        10014dd3 f    CIL library: CIL module
 0001:00013de6       _ftc_cmap_node_new         10014de6 f    CIL library: CIL module
 0001:00013e48       _ftc_cmap_node_weight      10014e48 f    CIL library: CIL module
 0001:00013e4c       _ftc_cmap_node_compare     10014e4c f    CIL library: CIL module
 0001:00013e81       _ftc_cmap_node_remove_faceid 10014e81 f    CIL library: CIL module
 0001:000140a8       _FTC_GNode_UnselectFamily  100150a8 f    CIL library: CIL module
 0001:000140c7       _ftc_gnode_compare         100150c7 f    CIL library: CIL module
 0001:000140ef       _FTC_GNode_Compare         100150ef f    CIL library: CIL module
 0001:000140f4       _ftc_gcache_init           100150f4 f    CIL library: CIL module
 0001:00014122       _ftc_gcache_done           10015122 f    CIL library: CIL module
 0001:00014137       _ftc_inode_free            10015137 f    CIL library: CIL module
 0001:00014171       _ftc_inode_new             10015171 f    CIL library: CIL module
 0001:000141d6       _ftc_inode_weight          100151d6 f    CIL library: CIL module
 0001:00014216       _ftc_sbit_copy_bitmap      10015216 f    CIL library: CIL module
 0001:00014258       _ftc_snode_free            10015258 f    CIL library: CIL module
 0001:000142a7       _ftc_snode_load            100152a7 f    CIL library: CIL module
 0001:0001441f       _FTC_SNode_New             1001541f f    CIL library: CIL module
 0001:000144da       _ftc_snode_new             100154da f    CIL library: CIL module
 0001:000144ef       _ftc_snode_weight          100154ef f    CIL library: CIL module
 0001:00014540       _ftc_snode_compare         10015540 f    CIL library: CIL module
 0001:00014620       _FTC_SNode_Compare         10015620 f    CIL library: CIL module
 0001:00014625       _ftc_basic_family_compare  10015625 f    CIL library: CIL module
 0001:00014682       _ftc_basic_family_init     10015682 f    CIL library: CIL module
 0001:000146b0       _ftc_basic_family_get_count 100156b0 f    CIL library: CIL module
 0001:00014716       _ftc_basic_family_load_bitmap 10015716 f    CIL library: CIL module
 0001:0001475a       _ftc_basic_family_load_glyph 1001575a f    CIL library: CIL module
 0001:000147c9       _ftc_basic_gnode_compare_faceid 100157c9 f    CIL library: CIL module
 0001:000150ad       _tt_get_kerning            100160ad f    CIL library: CIL module
 0001:000150ad       _cff_get_kerning           100160ad f    CIL library: CIL module
 0001:000150dc       _cff_glyph_load            100160dc f    CIL library: CIL module
 0001:00015124       _cff_get_advances          10016124 f    CIL library: CIL module
 0001:00015178       _cff_get_glyph_name        10016178 f    CIL library: CIL module
 0001:000151c5       _cff_get_name_index        100161c5 f    CIL library: CIL module
 0001:00015268       _cff_ps_has_glyph_names    10016268 f    CIL library: CIL module
 0001:0001527a       _cff_ps_get_font_info      1001627a f    CIL library: CIL module
 0001:00015351       _cff_get_ps_name           10016351 f    CIL library: CIL module
 0001:00015362       _cff_get_cmap_info         10016362 f    CIL library: CIL module
 0001:000153be       _cff_get_ros               100163be f    CIL library: CIL module
 0001:00015478       _cff_get_is_cid            10016478 f    CIL library: CIL module
 0001:0001549f       _cff_get_cid_from_glyph_index 1001649f f    CIL library: CIL module
 0001:000154df       _cff_property_set          100164df f    CIL library: CIL module
 0001:0001554b       _cff_property_get          1001654b f    CIL library: CIL module
 0001:000155ab       _cff_get_interface         100165ab f    CIL library: CIL module
 0001:000155ef       _cff_parser_init           100165ef f    CIL library: CIL module
 0001:00015623       _cff_parse_integer         10016623 f    CIL library: CIL module
 0001:000156d1       _cff_parse_real            100166d1 f    CIL library: CIL module
 0001:000159b0       _cff_parse_num             100169b0 f    CIL library: CIL module
 0001:000159d2       _do_fixed                  100169d2 f    CIL library: CIL module
 0001:00015a39       _cff_parse_fixed_dynamic   10016a39 f    CIL library: CIL module
 0001:00015ad7       _cff_parse_font_matrix     10016ad7 f    CIL library: CIL module
 0001:00015c3d       _cff_parse_font_bbox       10016c3d f    CIL library: CIL module
 0001:00015d04       _cff_parse_private_dict    10016d04 f    CIL library: CIL module
 0001:00015d57       _cff_parse_cid_ros         10016d57 f    CIL library: CIL module
 0001:00015e0d       _cff_parser_run            10016e0d f    CIL library: CIL module
 0001:00016131       _cff_index_read_offset     10017131 f    CIL library: CIL module
 0001:00016177       _cff_index_init            10017177 f    CIL library: CIL module
 0001:0001626a       _cff_index_done            1001726a f    CIL library: CIL module
 0001:000162a1       _cff_index_load_offsets    100172a1 f    CIL library: CIL module
 0001:000163e1       _cff_index_get_pointers    100173e1 f    CIL library: CIL module
 0001:0001654e       _cff_index_access_element  1001754e f    CIL library: CIL module
 0001:0001669c       _cff_index_forget_element  1001769c f    CIL library: CIL module
 0001:000166b0       _cff_index_get_name        100176b0 f    CIL library: CIL module
 0001:0001672d       _cff_index_get_sid_string  1001772d f    CIL library: CIL module
 0001:00016765       _CFF_Load_FD_Select        10017765 f    CIL library: CIL module
 0001:000167dd       _cff_fd_select_get         100177dd f    CIL library: CIL module
 0001:00016870       _cff_charset_compute_cids  10017870 f    CIL library: CIL module
 0001:000168e1       _cff_charset_load          100178e1 f    CIL library: CIL module
 0001:00016ba5       _cff_encoding_load         10017ba5 f    CIL library: CIL module
 0001:00016e96       _cff_subfont_load          10017e96 f    CIL library: CIL module
 0001:000170c7       _cff_subfont_done          100180c7 f    CIL library: CIL module
 0001:000170f1       _cff_font_load             100180f1 f    CIL library: CIL module
 0001:0001754d       _cff_font_done             1001854d f    CIL library: CIL module
 0001:000176c2       _cff_size_get_globals_funcs 100186c2 f    CIL library: CIL module
 0001:000176fb       _cff_size_done             100186fb f    CIL library: CIL module
 0001:0001773a       _cff_make_private_dict     1001873a f    CIL library: CIL module
 0001:0001788c       _cff_size_init             1001888c f    CIL library: CIL module
 0001:00017972       _cff_size_select           10018972 f    CIL library: CIL module
 0001:00017a38       _cff_size_request          10018a38 f    CIL library: CIL module
 0001:00017b2f       _cff_slot_init             10018b2f f    CIL library: CIL module
 0001:00017b71       _cff_strcpy                10018b71 f    CIL library: CIL module
 0001:00017b89       _remove_subset_prefix      10018b89 f    CIL library: CIL module
 0001:00017bfc       _remove_style              10018bfc f    CIL library: CIL module
 0001:00017c79       _cff_face_init             10018c79 f    CIL library: CIL module
 0001:00018482       _cff_face_done             10019482 f    CIL library: CIL module
 0001:000184bf       _cff_driver_init           100194bf f    CIL library: CIL module
 0001:000184d1       _cff_builder_init          100194d1 f    CIL library: CIL module
 0001:00018540       _cff_compute_bias          10019540 f    CIL library: CIL module
 0001:00018563       _cff_decoder_init          10019563 f    CIL library: CIL module
 0001:000185d5       _cff_decoder_prepare       100195d5 f    CIL library: CIL module
 0001:000186e9       _cff_check_points          100196e9 f    CIL library: CIL module
 0001:00018714       _cff_builder_add_point     10019714 f    CIL library: CIL module
 0001:00018752       _cff_builder_add_point1    10019752 f    CIL library: CIL module
 0001:0001877d       _cff_builder_add_contour   1001977d f    CIL library: CIL module
 0001:000187d7       _cff_builder_start_point   100197d7 f    CIL library: CIL module
 0001:000187ff       _cff_builder_close_contour 100197ff f    CIL library: CIL module
 0001:0001888d       _cff_lookup_glyph_by_stdcharcode 1001988d f    CIL library: CIL module
 0001:000188cc       _cff_get_glyph_data        100198cc f    CIL library: CIL module
 0001:0001891b       _cff_free_glyph_data       1001991b f    CIL library: CIL module
 0001:00018963       _cff_slot_load             10019963 f    CIL library: CIL module
 0001:000190da       _cff_cmap_encoding_init    1001a0da f    CIL library: CIL module
 0001:000190f2       _cff_cmap_encoding_done    1001a0f2 f    CIL library: CIL module
 0001:000190fb       _cff_cmap_encoding_char_index 1001a0fb f    CIL library: CIL module
 0001:00019115       _cff_cmap_encoding_char_next 1001a115 f    CIL library: CIL module
 0001:00019152       _cff_sid_to_glyph_name     1001a152 f    CIL library: CIL module
 0001:0001916f       _cff_cmap_unicode_init     1001a16f f    CIL library: CIL module
 0001:000191ac       _t1_cmap_unicode_done      1001a1ac f    CIL library: CIL module
 0001:000191ac       _cff_cmap_unicode_done     1001a1ac f    CIL library: CIL module
 0001:000191ca       _cff_cmap_unicode_char_index 1001a1ca f    CIL library: CIL module
 0001:000191e7       _cff_cmap_unicode_char_next 1001a1e7 f    CIL library: CIL module
 0001:00019204       _cf2_arrstack_init         1001a204 f    CIL library: CIL module
 0001:00019243       _cf2_arrstack_finalize     1001a243 f    CIL library: CIL module
 0001:00019261       _cf2_arrstack_setNumElements 1001a261 f    CIL library: CIL module
 0001:00019302       _cf2_arrstack_size         1001a302 f    CIL library: CIL module
 0001:0001931e       _cf2_arrstack_getPointer   1001a31e f    CIL library: CIL module
 0001:00019359       _cf2_arrstack_push         1001a359 f    CIL library: CIL module
 0001:000193bc       _cf2_blues_init            1001a3bc f    CIL library: CIL module
 0001:0001987e       _cf2_blues_capture         1001a87e f    CIL library: CIL module
 0001:000199f4       _cf2_computeDarkening      1001a9f4 f    CIL library: CIL module
 0001:00019aeb       _cf2_font_setup            1001aaeb f    CIL library: CIL module
 0001:00019d83       _cf2_getGlyphOutline       1001ad83 f    CIL library: CIL module
 0001:00019e61       _cf2_checkTransform        1001ae61 f    CIL library: CIL module
 0001:00019eea       _cf2_builder_moveTo        1001aeea f    CIL library: CIL module
 0001:00019f31       _cf2_builder_lineTo        1001af31 f    CIL library: CIL module
 0001:00019f99       _cf2_builder_cubeTo        1001af99 f    CIL library: CIL module
 0001:0001a02b       _cf2_getScaleAndHintFlag   1001b02b f    CIL library: CIL module
 0001:0001a0a1       _cf2_decoder_parse_charstrings 1001b0a1 f    CIL library: CIL module
 0001:0001a26a       _cf2_initGlobalRegionBuffer 1001b26a f    CIL library: CIL module
 0001:0001a2d1       _cf2_getSeacComponent      1001b2d1 f    CIL library: CIL module
 0001:0001a34c       _cf2_freeSeacComponent     1001b34c f    CIL library: CIL module
 0001:0001a377       _cf2_initLocalRegionBuffer 1001b377 f    CIL library: CIL module
 0001:0001a3de       _cf2_getNominalWidthX      1001b3de f    CIL library: CIL module
 0001:0001a40b       _cf2_hint_init             1001b40b f    CIL library: CIL module
 0001:0001a4ed       _cf2_hintmap_init          1001b4ed f    CIL library: CIL module
 0001:0001a51e       _cf2_hintmap_map           1001b51e f    CIL library: CIL module
 0001:0001a5e5       _cf2_hintmap_adjustHints   1001b5e5 f    CIL library: CIL module
 0001:0001a971       _cf2_hintmap_insertHint    1001b971 f    CIL library: CIL module
 0001:0001ab5c       _cf2_hintmap_build         1001bb5c f    CIL library: CIL module
 0001:0001adf1       _cf2_glyphpath_init        1001bdf1 f    CIL library: CIL module
 0001:0001af3f       _cf2_glyphpath_hintPoint   1001bf3f f    CIL library: CIL module
 0001:0001afce       _cf2_glyphpath_computeIntersection 1001bfce f    CIL library: CIL module
 0001:0001b18d       _cf2_glyphpath_pushPrevElem 1001c18d f    CIL library: CIL module
 0001:0001b369       _cf2_glyphpath_pushMove    1001c369 f    CIL library: CIL module
 0001:0001b3ed       _cf2_glyphpath_computeOffset 1001c3ed f    CIL library: CIL module
 0001:0001b54a       _cf2_glyphpath_moveTo      1001c54a f    CIL library: CIL module
 0001:0001b5ce       _cf2_glyphpath_lineTo      1001c5ce f    CIL library: CIL module
 0001:0001b71f       _cf2_glyphpath_curveTo     1001c71f f    CIL library: CIL module
 0001:0001b8ec       _cf2_glyphpath_closeOpenPath 1001c8ec f    CIL library: CIL module
 0001:0001b97c       _cf2_hintmask_setCounts    1001c97c f    CIL library: CIL module
 0001:0001b9aa       _cf2_hintmask_read         1001c9aa f    CIL library: CIL module
 0001:0001ba21       _cf2_hintmask_setAll       1001ca21 f    CIL library: CIL module
 0001:0001ba84       _cf2_doStems               1001ca84 f    CIL library: CIL module
 0001:0001bb4d       _cf2_doFlex                1001cb4d f    CIL library: CIL module
 0001:0001bca7       _cf2_interpT2CharString    1001cca7 f    CIL library: CIL module
 0001:0001cfd3       _cf2_buf_readByte          1001dfd3 f    CIL library: CIL module
 0001:0001cff9       _cf2_stack_pushInt         1001dff9 f    CIL library: CIL module
 0001:0001d02b       _cf2_stack_popInt          1001e02b f    CIL library: CIL module
 0001:0001d073       _cf2_stack_popFixed        1001e073 f    CIL library: CIL module
 0001:0001d0ca       _cf2_stack_getReal         1001e0ca f    CIL library: CIL module
 0001:0001d13b       _cid_parser_new            1001e13b f    CIL library: CIL module
 0001:0001d417       _cid_get_offset            1001e417 f    CIL library: CIL module
 0001:0001d438       _cid_load_keyword          1001e438 f    CIL library: CIL module
 0001:0001d4e2       _cid_parse_font_matrix     1001e4e2 f    CIL library: CIL module
 0001:0001d5cd       _parse_fd_array            1001e5cd f    CIL library: CIL module
 0001:0001d646       _parse_expansion_factor    1001e646 f    CIL library: CIL module
 0001:0001d684       _cid_parse_dict            1001e684 f    CIL library: CIL module
 0001:0001d7b4       _cid_read_subrs            1001e7b4 f    CIL library: CIL module
 0001:0001dad0       _cid_hex_to_binary         1001ead0 f    CIL library: CIL module
 0001:0001dbe9       _cid_face_open             1001ebe9 f    CIL library: CIL module
 0001:0001dd1b       _cid_slot_init             1001ed1b f    CIL library: CIL module
 0001:0001dd57       _cid_size_get_globals_funcs 1001ed57 f    CIL library: CIL module
 0001:0001dd8a       _cid_size_done             1001ed8a f    CIL library: CIL module
 0001:0001ddad       _cid_size_init             1001edad f    CIL library: CIL module
 0001:0001ddf2       _cid_size_request          1001edf2 f    CIL library: CIL module
 0001:0001de26       _cid_face_done             1001ee26 f    CIL library: CIL module
 0001:0001df85       _cid_face_init             1001ef85 f    CIL library: CIL module
 0001:0001e1b2       _cid_get_postscript_name   1001f1b2 f    CIL library: CIL module
 0001:0001e1c7       _cid_ps_get_font_info      1001f1c7 f    CIL library: CIL module
 0001:0001e1e1       _cid_ps_get_font_extra     1001f1e1 f    CIL library: CIL module
 0001:0001e1f6       _cid_get_ros               1001f1f6 f    CIL library: CIL module
 0001:0001e22d       _cid_get_is_cid            1001f22d f    CIL library: CIL module
 0001:0001e23b       _cid_get_cid_from_glyph_index 1001f23b f    CIL library: CIL module
 0001:0001e24c       _cid_get_interface         1001f24c f    CIL library: CIL module
 0001:0001e25d       _cid_load_glyph            1001f25d f    CIL library: CIL module
 0001:0001e561       _cid_slot_load_glyph       1001f561 f    CIL library: CIL module
 0001:0001e837       _gxv_feat_registry_validate 1001f837 f    CIL library: CIL module
 0001:0001ea25       _gxv_feat_name_index_validate 1001fa25 f    CIL library: CIL module
 0001:0001eae4       _gxv_feat_setting_validate 1001fae4 f    CIL library: CIL module
 0001:0001eb62       _gxv_feat_name_validate    1001fb62 f    CIL library: CIL module
 0001:0001ecba       _gxv_feat_validate         1001fcba f    CIL library: CIL module
 0001:0001ee27       _ft_raccess_sort_ref_by_id 1001fe27 f    CIL library: CIL module
 0001:0001ee27       _gxv_compare_ushort_offset 1001fe27 f    CIL library: CIL module
 0001:0001ee43       _gxv_set_length_by_ushort_offset 1001fe43 f    CIL library: CIL module
 0001:0001eeef       _gxv_compare_ulong_offset  1001feef f    CIL library: CIL module
 0001:0001ef08       _gxv_set_length_by_ulong_offset 1001ff08 f    CIL library: CIL module
 0001:0001efa8       _gxv_array_getlimits_byte  1001ffa8 f    CIL library: CIL module
 0001:0001f009       _gxv_array_getlimits_ushort 10020009 f    CIL library: CIL module
 0001:0001f093       _gxv_BinSrchHeader_check_consistency 10020093 f    CIL library: CIL module
 0001:0001f213       _gxv_BinSrchHeader_validate 10020213 f    CIL library: CIL module
 0001:0001f38c       _gxv_lookup_value_load     1002038c f    CIL library: CIL module
 0001:0001f3a0       _gxv_LookupTable_fmt0_validate 100203a0 f    CIL library: CIL module
 0001:0001f4b9       _gxv_LookupTable_fmt2_skip_endmarkers 100204b9 f    CIL library: CIL module
 0001:0001f4f4       _gxv_LookupTable_fmt2_validate 100204f4 f    CIL library: CIL module
 0001:0001f760       _gxv_LookupTable_fmt4_validate 10020760 f    CIL library: CIL module
 0001:0001fa1a       _gxv_LookupTable_fmt6_validate 10020a1a f    CIL library: CIL module
 0001:0001fc18       _gxv_LookupTable_fmt8_validate 10020c18 f    CIL library: CIL module
 0001:0001fd14       _gxv_LookupTable_validate  10020d14 f    CIL library: CIL module
 0001:0001fe1e       _gxv_glyphid_validate      10020e1e f    CIL library: CIL module
 0001:0001fe8e       _gxv_ctlPoint_validate     10020e8e f    CIL library: CIL module
 0001:0001feda       _gxv_sfntName_validate     10020eda f    CIL library: CIL module
 0001:00020001       _gxv_ClassTable_validate   10021001 f    CIL library: CIL module
 0001:000201ee       _gxv_StateArray_validate   100211ee f    CIL library: CIL module
 0001:00020353       _gxv_EntryTable_validate   10021353 f    CIL library: CIL module
 0001:0002062f       _gxv_StateTable_subtable_setup 1002162f f    CIL library: CIL module
 0001:00020680       _gxv_StateTable_validate   10021680 f    CIL library: CIL module
 0001:0002095d       _gxv_XStateTable_subtable_setup 1002195d f    CIL library: CIL module
 0001:000209a8       _gxv_XClassTable_lookupval_validate 100219a8 f    CIL library: CIL module
 0001:000209cf       _gxv_XStateArray_validate  100219cf f    CIL library: CIL module
 0001:00020b49       _gxv_XEntryTable_validate  10021b49 f    CIL library: CIL module
 0001:00020da9       _gxv_XStateTable_validate  10021da9 f    CIL library: CIL module
 0001:000210cb       _gxv_odtect_add_range      100220cb f    CIL library: CIL module
 0001:000210ff       _gxv_odtect_validate       100220ff f    CIL library: CIL module
 0001:0002126b       _gxv_bsln_LookupValue_validate 1002226b f    CIL library: CIL module
 0001:000212df       _gxv_XClassTable_lookupfmt4_transit 100222df f    CIL library: CIL module
 0001:000212df       _gxv_prop_LookupFmt4_transit 100222df f    CIL library: CIL module
 0001:000212df       _gxv_bsln_LookupFmt4_transit 100222df f    CIL library: CIL module
 0001:000212df       _gxv_morx_subtable_type1_LookupFmt4_transit 100222df f    CIL library: CIL module
 0001:000212df       _gxv_mort_subtable_type4_lookupfmt4_transit 100222df f    CIL library: CIL module
 0001:00021327       _gxv_bsln_parts_fmt0_validate 10022327 f    CIL library: CIL module
 0001:00021391       _gxv_bsln_parts_fmt1_validate 10022391 f    CIL library: CIL module
 0001:00021409       _gxv_bsln_parts_fmt2_validate 10022409 f    CIL library: CIL module
 0001:00021523       _gxv_bsln_parts_fmt3_validate 10022523 f    CIL library: CIL module
 0001:0002159b       _gxv_bsln_validate         1002259b f    CIL library: CIL module
 0001:000216c6       _gxv_trak_trackTable_validate 100226c6 f    CIL library: CIL module
 0001:00021888       _gxv_trak_trackData_validate 10022888 f    CIL library: CIL module
 0001:00021a62       _gxv_trak_validate         10022a62 f    CIL library: CIL module
 0001:00021d03       _gxv_just_check_max_gid    10022d03 f    CIL library: CIL module
 0001:00021d5e       _gxv_just_wdp_entry_validate 10022d5e f    CIL library: CIL module
 0001:00021ded       _gxv_just_wdc_entry_validate 10022ded f    CIL library: CIL module
 0001:00021e92       _gxv_just_widthDeltaClusters_validate 10022e92 f    CIL library: CIL module
 0001:00021f0c       _gxv_just_actSubrecord_type0_validate 10022f0c f    CIL library: CIL module
 0001:00022027       _gxv_just_actSubrecord_type1_validate 10023027 f    CIL library: CIL module
 0001:00022070       _gxv_just_actSubrecord_type2_validate 10023070 f    CIL library: CIL module
 0001:000220f2       _gxv_just_actSubrecord_type4_validate 100230f2 f    CIL library: CIL module
 0001:00022269       _gxv_just_actSubrecord_type5_validate 10023269 f    CIL library: CIL module
 0001:0002230e       _gxv_just_actSubrecord_validate 1002330e f    CIL library: CIL module
 0001:0002243f       _gxv_just_pcActionRecord_validate 1002343f f    CIL library: CIL module
 0001:000224de       _gxv_just_pcTable_LookupValue_entry_validate 100234de f    CIL library: CIL module
 0001:00022509       _gxv_just_pcLookupTable_validate 10023509 f    CIL library: CIL module
 0001:0002257b       _gxv_just_postcompTable_validate 1002357b f    CIL library: CIL module
 0001:000225e9       _gxv_just_justClassTable_validate 100235e9 f    CIL library: CIL module
 0001:00022794       _gxv_just_wdcTable_LookupValue_validate 10023794 f    CIL library: CIL module
 0001:000227bd       _gxv_just_justData_validate 100237bd f    CIL library: CIL module
 0001:000229fc       _gxv_just_validate         100239fc f    CIL library: CIL module
 0001:00022c49       _gxv_mort_feature_validate 10023c49 f    CIL library: CIL module
 0001:00022deb       _gxv_mort_featurearray_validate 10023deb f    CIL library: CIL module
 0001:00022f3b       _gxv_mort_coverage_validate 10023f3b f    CIL library: CIL module
 0001:0002305c       _gxv_mort_subtables_validate 1002405c f    CIL library: CIL module
 0001:00023202       _gxv_mort_chain_validate   10024202 f    CIL library: CIL module
 0001:000232eb       _gxv_mort_validate         100242eb f    CIL library: CIL module
 0001:00023409       _gxv_mort_subtable_type0_entry_validate 10024409 f    CIL library: CIL module
 0001:00023695       _gxv_mort_subtable_type0_validate 10024695 f    CIL library: CIL module
 0001:00023723       _gxv_mort_subtable_type1_offset_to_subst_validate 10024723 f    CIL library: CIL module
 0001:0002376e       _gxv_mort_subtable_type1_entry_validate 1002476e f    CIL library: CIL module
 0001:000237e6       _gxv_mort_subtable_type1_substTable_validate 100247e6 f    CIL library: CIL module
 0001:00023902       _gxv_mort_subtable_type1_validate 10024902 f    CIL library: CIL module
 0001:000239b4       _gxv_mort_subtable_type2_opttable_load 100249b4 f    CIL library: CIL module
 0001:00023ac0       _gxv_mort_subtable_type2_subtable_setup 10024ac0 f    CIL library: CIL module
 0001:00023cf4       _gxv_mort_subtable_type2_ligActionOffset_validate 10024cf4 f    CIL library: CIL module
 0001:00023e7f       _gxv_mort_subtable_type2_entry_validate 10024e7f f    CIL library: CIL module
 0001:00023ea0       _gxv_mort_subtable_type2_ligatureTable_validate 10024ea0 f    CIL library: CIL module
 0001:00023f59       _gxv_mort_subtable_type2_validate 10024f59 f    CIL library: CIL module
 0001:00024008       _gxv_mort_subtable_type4_lookupval_validate 10025008 f    CIL library: CIL module
 0001:0002401d       _gxv_mort_subtable_type4_validate 1002501d f    CIL library: CIL module
 0001:00024083       _gxv_mort_subtable_type5_subtable_setup 10025083 f    CIL library: CIL module
 0001:000240d7       _gxv_mort_subtable_type5_InsertList_validate 100250d7 f    CIL library: CIL module
 0001:0002427e       _gxv_mort_subtable_type5_entry_validate 1002527e f    CIL library: CIL module
 0001:000242e9       _gxv_mort_subtable_type5_validate 100252e9 f    CIL library: CIL module
 0001:00024383       _gxv_morx_subtables_validate 10025383 f    CIL library: CIL module
 0001:00024540       _gxv_morx_chain_validate   10025540 f    CIL library: CIL module
 0001:0002463e       _gxv_morx_validate         1002563e f    CIL library: CIL module
 0001:0002474d       _gxv_morx_subtable_type0_entry_validate 1002574d f    CIL library: CIL module
 0001:0002479b       _gxv_morx_subtable_type0_validate 1002579b f    CIL library: CIL module
 0001:00024829       _gxv_morx_subtable_type1_substitutionTable_load 10025829 f    CIL library: CIL module
 0001:00024868       _gxv_morx_subtable_type1_entry_validate 10025868 f    CIL library: CIL module
 0001:00024996       _gxv_morx_subtable_type1_LookupValue_validate 10025996 f    CIL library: CIL module
 0001:000249f2       _gxv_morx_subtable_type1_substitutionTable_validate 100259f2 f    CIL library: CIL module
 0001:00024a84       _gxv_morx_subtable_type1_validate 10025a84 f    CIL library: CIL module
 0001:00024b3f       _gxv_morx_subtable_type2_opttable_load 10025b3f f    CIL library: CIL module
 0001:00024c6d       _gxv_morx_subtable_type2_subtable_setup 10025c6d f    CIL library: CIL module
 0001:00024e79       _gxv_morx_subtable_type2_ligActionIndex_validate 10025e79 f    CIL library: CIL module
 0001:0002500a       _gxv_morx_subtable_type2_entry_validate 1002600a f    CIL library: CIL module
 0001:00025065       _gxv_morx_subtable_type2_ligatureTable_validate 10026065 f    CIL library: CIL module
 0001:0002511a       _gxv_morx_subtable_type2_validate 1002611a f    CIL library: CIL module
 0001:000251c0       _gxv_morx_subtable_type4_validate 100261c0 f    CIL library: CIL module
 0001:00025216       _gxv_morx_subtable_type5_insertionGlyphList_load 10026216 f    CIL library: CIL module
 0001:00025262       _gxv_morx_subtable_type1_subtable_setup 10026262 f    CIL library: CIL module
 0001:00025262       _gxv_morx_subtable_type5_subtable_setup 10026262 f    CIL library: CIL module
 0001:000252bc       _gxv_morx_subtable_type5_InsertList_validate 100262bc f    CIL library: CIL module
 0001:00025376       _gxv_morx_subtable_type5_entry_validate 10026376 f    CIL library: CIL module
 0001:000253df       _gxv_morx_subtable_type5_validate 100263df f    CIL library: CIL module
 0001:0002547b       _gxv_kern_subtable_fmt0_pairs_validate 1002647b f    CIL library: CIL module
 0001:000255a7       _gxv_kern_subtable_fmt0_validate 100265a7 f    CIL library: CIL module
 0001:0002564f       _gxv_mort_subtable_type1_substitutionTable_load 1002664f f    CIL library: CIL module
 0001:0002564f       _gxv_kern_subtable_fmt1_valueTable_load 1002664f f    CIL library: CIL module
 0001:0002568e       _gxv_mort_subtable_type1_subtable_setup 1002668e f    CIL library: CIL module
 0001:0002568e       _gxv_kern_subtable_fmt1_subtable_setup 1002668e f    CIL library: CIL module
 0001:000256f0       _gxv_kern_subtable_fmt1_entry_validate 100266f0 f    CIL library: CIL module
 0001:0002573c       _gxv_kern_subtable_fmt1_validate 1002673c f    CIL library: CIL module
 0001:000257ae       _gxv_kern_subtable_fmt2_clstbl_validate 100267ae f    CIL library: CIL module
 0001:000258ef       _gxv_kern_subtable_fmt2_validate 100268ef f    CIL library: CIL module
 0001:00025b28       _gxv_kern_subtable_fmt3_validate 10026b28 f    CIL library: CIL module
 0001:00025d5a       _gxv_kern_coverage_new_apple_validate 10026d5a f    CIL library: CIL module
 0001:00025e0e       _gxv_kern_coverage_classic_apple_validate 10026e0e f    CIL library: CIL module
 0001:00025ece       _gxv_kern_coverage_classic_microsoft_validate 10026ece f    CIL library: CIL module
 0001:00025f93       _gxv_kern_coverage_validate 10026f93 f    CIL library: CIL module
 0001:000260a7       _gxv_kern_subtable_validate 100270a7 f    CIL library: CIL module
 0001:00026333       _gxv_kern_validate_generic 10027333 f    CIL library: CIL module
 0001:000264ba       _gxv_opbd_LookupValue_validate 100274ba f    CIL library: CIL module
 0001:00026545       _gxv_opbd_LookupFmt4_transit 10027545 f    CIL library: CIL module
 0001:00026554       _gxv_opbd_validate         10027554 f    CIL library: CIL module
 0001:000266dc       _gxv_prop_zero_advance_validate 100276dc f    CIL library: CIL module
 0001:00026781       _gxv_prop_property_validate 10027781 f    CIL library: CIL module
 0001:0002693e       _gxv_prop_LookupValue_validate 1002793e f    CIL library: CIL module
 0001:00026952       _gxv_prop_validate         10027952 f    CIL library: CIL module
 0001:00026b70       _gxv_lcar_LookupValue_validate 10027b70 f    CIL library: CIL module
 0001:00026c87       _gxv_lcar_LookupFmt4_transit 10027c87 f    CIL library: CIL module
 0001:00026cda       _gxv_lcar_validate         10027cda f    CIL library: CIL module
 0001:00026da4       _gxv_load_table            10027da4 f    CIL library: CIL module
 0001:00026da4       _otv_load_table            10027da4 f    CIL library: CIL module
 0001:00026dfb       _gxv_validate              10027dfb f    CIL library: CIL module
 0001:000274ba       _classic_kern_validate     100284ba f    CIL library: CIL module
 0001:00027581       _otv_BaseCoord_validate    10028581 f    CIL library: CIL module
 0001:0002766f       _otv_BaseTagList_validate  1002866f f    CIL library: CIL module
 0001:0002771a       _otv_BaseValues_validate   1002871a f    CIL library: CIL module
 0001:000277f6       _otv_MinMax_validate       100287f6 f    CIL library: CIL module
 0001:00027aa6       _otv_BaseScript_validate   10028aa6 f    CIL library: CIL module
 0001:00027c9e       _otv_BaseScriptList_validate 10028c9e f    CIL library: CIL module
 0001:00027d80       _otv_Axis_validate         10028d80 f    CIL library: CIL module
 0001:00027e5d       _otv_BASE_validate         10028e5d f    CIL library: CIL module
 0001:00027fa9       _otv_Coverage_validate     10028fa9 f    CIL library: CIL module
 0001:0002820f       _otv_Coverage_get_last     1002920f f    CIL library: CIL module
 0001:00028260       _otv_Coverage_get_count    10029260 f    CIL library: CIL module
 0001:000282ea       _otv_ClassDef_validate     100292ea f    CIL library: CIL module
 0001:00028506       _otv_Device_validate       10029506 f    CIL library: CIL module
 0001:000285c2       _otv_Lookup_validate       100295c2 f    CIL library: CIL module
 0001:00028702       _otv_LookupList_validate   10029702 f    CIL library: CIL module
 0001:000287e3       _otv_Feature_validate      100297e3 f    CIL library: CIL module
 0001:000288b9       _otv_FeatureList_validate  100298b9 f    CIL library: CIL module
 0001:000289b0       _otv_LangSys_validate      100299b0 f    CIL library: CIL module
 0001:00028af0       _otv_Script_validate       10029af0 f    CIL library: CIL module
 0001:00028c05       _otv_ScriptList_validate   10029c05 f    CIL library: CIL module
 0001:00028cfe       _otv_x_Ox                  10029cfe f    CIL library: CIL module
 0001:00028def       _otv_u_C_x_Ox              10029def f    CIL library: CIL module
 0001:00028f0e       _otv_x_ux                  10029f0e f    CIL library: CIL module
 0001:00028ff3       _otv_x_y_ux_sy             10029ff3 f    CIL library: CIL module
 0001:0002915d       _otv_x_ux_y_uy_z_uz_p_sp   1002a15d f    CIL library: CIL module
 0001:00029373       _otv_u_O_O_x_Onx           1002a373 f    CIL library: CIL module
 0001:000294c3       _otv_u_x_y_Ox_sy           1002a4c3 f    CIL library: CIL module
 0001:00029651       _otv_u_O_O_O_O_x_Onx       1002a651 f    CIL library: CIL module
 0001:000297e7       _otv_u_x_Ox_y_Oy_z_Oz_p_sp 1002a7e7 f    CIL library: CIL module
 0001:00029a62       _otv_GSUBGPOS_get_Lookup_count 1002aa62 f    CIL library: CIL module
 0001:00029a8b       _otv_GSUBGPOS_have_MarkAttachmentType_flag 1002aa8b f    CIL library: CIL module
 0001:00029afe       _otv_O_x_Ox                1002aafe f    CIL library: CIL module
 0001:00029c2d       _otv_CaretValue_validate   1002ac2d f    CIL library: CIL module
 0001:00029d10       _otv_GDEF_validate         1002ad10 f    CIL library: CIL module
 0001:00029fc3       _otv_x_sxy                 1002afc3 f    CIL library: CIL module
 0001:0002a11d       _otv_u_O_O_u_O_O           1002b11d f    CIL library: CIL module
 0001:0002a230       _otv_value_length          1002b230 f    CIL library: CIL module
 0001:0002a259       _otv_ValueRecord_validate  1002b259 f    CIL library: CIL module
 0001:0002a3b4       _otv_Anchor_validate       1002b3b4 f    CIL library: CIL module
 0001:0002a558       _otv_MarkArray_validate    1002b558 f    CIL library: CIL module
 0001:0002a636       _otv_SinglePos_validate    1002b636 f    CIL library: CIL module
 0001:0002a804       _otv_PairSet_validate      1002b804 f    CIL library: CIL module
 0001:0002a906       _otv_PairPos_validate      1002b906 f    CIL library: CIL module
 0001:0002ac6a       _otv_CursivePos_validate   1002bc6a f    CIL library: CIL module
 0001:0002ae9a       _otv_MarkBasePos_validate  1002be9a f    CIL library: CIL module
 0001:0002af72       _otv_MarkLigPos_validate   1002bf72 f    CIL library: CIL module
 0001:0002b058       _otv_MarkMarkPos_validate  1002c058 f    CIL library: CIL module
 0001:0002b12d       _otv_ContextPos_validate   1002c12d f    CIL library: CIL module
 0001:0002b26e       _otv_ChainContextPos_validate 1002c26e f    CIL library: CIL module
 0001:0002b3af       _otv_ExtensionPos_validate 1002c3af f    CIL library: CIL module
 0001:0002b4b9       _otv_GPOS_subtable_validate 1002c4b9 f    CIL library: CIL module
 0001:0002b4d8       _otv_GPOS_validate         1002c4d8 f    CIL library: CIL module
 0001:0002b5cf       _otv_SingleSubst_validate  1002c5cf f    CIL library: CIL module
 0001:0002b7af       _otv_MultipleSubst_validate 1002c7af f    CIL library: CIL module
 0001:0002b886       _otv_AlternateSubst_validate 1002c886 f    CIL library: CIL module
 0001:0002b95d       _otv_Ligature_validate     1002c95d f    CIL library: CIL module
 0001:0002ba43       _otv_LigatureSubst_validate 1002ca43 f    CIL library: CIL module
 0001:0002bb22       _otv_ContextSubst_validate 1002cb22 f    CIL library: CIL module
 0001:0002bc63       _otv_ChainContextSubst_validate 1002cc63 f    CIL library: CIL module
 0001:0002bda4       _otv_ExtensionSubst_validate 1002cda4 f    CIL library: CIL module
 0001:0002beb3       _otv_ReverseChainSingleSubst_validate 1002ceb3 f    CIL library: CIL module
 0001:0002c114       _otv_GSUB_validate         1002d114 f    CIL library: CIL module
 0001:0002c20b       _otv_JstfPriority_validate 1002d20b f    CIL library: CIL module
 0001:0002c712       _otv_JstfScript_validate   1002d712 f    CIL library: CIL module
 0001:0002c94b       _otv_JSTF_validate         1002d94b f    CIL library: CIL module
 0001:0002ca5f       _otv_MathConstants_validate 1002da5f f    CIL library: CIL module
 0001:0002cb42       _otv_MathItalicsCorrectionInfo_validate 1002db42 f    CIL library: CIL module
 0001:0002cccb       _otv_MathKern_validate     1002dccb f    CIL library: CIL module
 0001:0002ce2c       _otv_MathKernInfo_validate 1002de2c f    CIL library: CIL module
 0001:0002cfb9       _otv_MathGlyphInfo_validate 1002dfb9 f    CIL library: CIL module
 0001:0002d105       _otv_GlyphAssembly_validate 1002e105 f    CIL library: CIL module
 0001:0002d1fe       _otv_MathGlyphConstruction_validate 1002e1fe f    CIL library: CIL module
 0001:0002d2fc       _otv_MathVariants_validate 1002e2fc f    CIL library: CIL module
 0001:0002d57e       _otv_MATH_validate         1002e57e f    CIL library: CIL module
 0001:0002d65c       _otv_validate              1002e65c f    CIL library: CIL module
 0001:0002da6c       _BitOrderInvert            1002ea6c f    CIL library: CIL module
 0001:0002daaa       _pcf_read_TOC              1002eaaa f    CIL library: CIL module
 0001:0002dcc0       _pcf_get_metric            1002ecc0 f    CIL library: CIL module
 0001:0002dd51       _pcf_seek_to_table_type    1002ed51 f    CIL library: CIL module
 0001:0002ddb4       _pcf_find_property         1002edb4 f    CIL library: CIL module
 0001:0002de2d       _pcf_get_properties        1002ee2d f    CIL library: CIL module
 0001:0002e16e       _pcf_get_metrics           1002f16e f    CIL library: CIL module
 0001:0002e31d       _pcf_get_bitmaps           1002f31d f    CIL library: CIL module
 0001:0002e560       _pcf_get_encodings         1002f560 f    CIL library: CIL module
 0001:0002e78e       _pcf_get_accel             1002f78e f    CIL library: CIL module
 0001:0002e893       _pcf_interpret_style       1002f893 f    CIL library: CIL module
 0001:0002ea50       _pcf_load_font             1002fa50 f    CIL library: CIL module
 0001:0002ed35       _pcf_cmap_init             1002fd35 f    CIL library: CIL module
 0001:0002ed50       _pfr_cmap_done             1002fd50 f    CIL library: CIL module
 0001:0002ed50       _pcf_cmap_done             1002fd50 f    CIL library: CIL module
 0001:0002ed50       _bdf_cmap_done             1002fd50 f    CIL library: CIL module
 0001:0002ed5d       _pcf_cmap_char_index       1002fd5d f    CIL library: CIL module
 0001:0002ed99       _pcf_cmap_char_next        1002fd99 f    CIL library: CIL module
 0001:0002ee1e       _PCF_Face_Done             1002fe1e f    CIL library: CIL module
 0001:0002ef48       _PCF_Face_Init             1002ff48 f    CIL library: CIL module
 0001:0002f09c       _PCF_Size_Select           1003009c f    CIL library: CIL module
 0001:0002f0dc       _PCF_Size_Request          100300dc f    CIL library: CIL module
 0001:0002f153       _PCF_Glyph_Load            10030153 f    CIL library: CIL module
 0001:0002f3bd       _pcf_get_bdf_property      100303bd f    CIL library: CIL module
 0001:0002f436       _pcf_get_charset_id        10030436 f    CIL library: CIL module
 0001:0002f455       _pcf_driver_requester      10030455 f    CIL library: CIL module
 0001:0002f466       _pfr_extra_items_parse     10030466 f    CIL library: CIL module
 0001:0002f4ed       _pfr_log_font_load         100304ed f    CIL library: CIL module
 0001:0002f774       _pfr_extra_item_load_bitmap_info 10030774 f    CIL library: CIL module
 0001:0002f931       _pfr_extra_item_load_font_id 10030931 f    CIL library: CIL module
 0001:0002f981       _pfr_extra_item_load_stem_snaps 10030981 f    CIL library: CIL module
 0001:0002fa23       _pfr_extra_item_load_kerning_pairs 10030a23 f    CIL library: CIL module
 0001:0002fbc9       _pfr_aux_name_load         10030bc9 f    CIL library: CIL module
 0001:0002fc3f       _pfr_phy_font_done         10030c3f f    CIL library: CIL module
 0001:0002fcf3       _pfr_phy_font_load         10030cf3 f    CIL library: CIL module
 0001:000301ab       _pfr_glyph_close_contour   100311ab f    CIL library: CIL module
 0001:00030220       _pfr_glyph_line_to         10031220 f    CIL library: CIL module
 0001:00030286       _pfr_glyph_curve_to        10031286 f    CIL library: CIL module
 0001:0003031e       _pfr_glyph_move_to         1003131e f    CIL library: CIL module
 0001:0003036a       _pfr_glyph_load_simple     1003136a f    CIL library: CIL module
 0001:0003093a       _pfr_glyph_load_compound   1003193a f    CIL library: CIL module
 0001:00030c13       _pfr_glyph_load_rec        10031c13 f    CIL library: CIL module
 0001:00030e24       _pfr_cmap_init             10031e24 f    CIL library: CIL module
 0001:00030e63       _pfr_cmap_char_index       10031e63 f    CIL library: CIL module
 0001:00030ea1       _pfr_cmap_char_next        10031ea1 f    CIL library: CIL module
 0001:00030f16       _pfr_face_done             10031f16 f    CIL library: CIL module
 0001:00030f51       _pfr_face_init             10031f51 f    CIL library: CIL module
 0001:000312a4       _pfr_slot_init             100322a4 f    CIL library: CIL module
 0001:000312d3       _pfr_slot_done             100322d3 f    CIL library: CIL module
 0001:00031331       _pfr_slot_load             10032331 f    CIL library: CIL module
 0001:00031528       _pfr_face_get_kerning      10032528 f    CIL library: CIL module
 0001:0003170e       _pfr_get_kerning           1003270e f    CIL library: CIL module
 0001:00031771       _pfr_get_advance           10032771 f    CIL library: CIL module
 0001:000317a8       _pfr_get_metrics           100327a8 f    CIL library: CIL module
 0001:0003181d       _pfr_get_service           1003281d f    CIL library: CIL module
 0001:0003182e       _pfr_bitwriter_decode_bytes 1003282e f    CIL library: CIL module
 0001:000318cf       _pfr_bitwriter_decode_rle1 100328cf f    CIL library: CIL module
 0001:000319a3       _pfr_bitwriter_decode_rle2 100329a3 f    CIL library: CIL module
 0001:00031a4a       _pfr_lookup_bitmap_data    10032a4a f    CIL library: CIL module
 0001:00031b3d       _pfr_load_bitmap_metrics   10032b3d f    CIL library: CIL module
 0001:00031d75       _pfr_load_bitmap_bits      10032d75 f    CIL library: CIL module
 0001:00031e0f       _pfr_slot_load_bitmap      10032e0f f    CIL library: CIL module
 0001:000320ce       _ps_table_new              100330ce f    CIL library: CIL module
 0001:00032153       _shift_elements            10033153 f    CIL library: CIL module
 0001:00032178       _reallocate_t1_table       10033178 f    CIL library: CIL module
 0001:000321ce       _ps_table_add              100331ce f    CIL library: CIL module
 0001:0003228e       _ps_table_done             1003328e f    CIL library: CIL module
 0001:000322df       _ps_table_release          100332df f    CIL library: CIL module
 0001:00032320       _skip_spaces               10033320 f    CIL library: CIL module
 0001:00032363       _skip_literal_string       10033363 f    CIL library: CIL module
 0001:000323ec       _skip_string               100333ec f    CIL library: CIL module
 0001:00032451       _skip_procedure            10033451 f    CIL library: CIL module
 0001:000324ee       _ps_parser_skip_PS_token   100334ee f    CIL library: CIL module
 0001:0003261d       _ps_parser_skip_spaces     1003361d f    CIL library: CIL module
 0001:0003262c       _ps_parser_to_token        1003362c f    CIL library: CIL module
 0001:00032747       _ps_parser_to_token_array  10033747 f    CIL library: CIL module
 0001:000327f1       _ps_tocoordarray           100337f1 f    CIL library: CIL module
 0001:000328a7       _ps_tofixedarray           100338a7 f    CIL library: CIL module
 0001:0003295a       _ps_tobool                 1003395a f    CIL library: CIL module
 0001:000329b5       _ps_parser_load_field      100339b5 f    CIL library: CIL module
 0001:00032d69       _ps_parser_load_field_table 10033d69 f    CIL library: CIL module
 0001:00032e48       _ps_parser_to_int          10033e48 f    CIL library: CIL module
 0001:00032e5f       _ps_parser_to_bytes        10033e5f f    CIL library: CIL module
 0001:00032ed6       _ps_parser_to_fixed        10033ed6 f    CIL library: CIL module
 0001:00032ef3       _ps_parser_to_coord_array  10033ef3 f    CIL library: CIL module
 0001:00032f16       _ps_parser_to_fixed_array  10033f16 f    CIL library: CIL module
 0001:00032f3d       _ps_parser_init            10033f3d f    CIL library: CIL module
 0001:00032f6e       _t1_builder_init           10033f6e f    CIL library: CIL module
 0001:00032ff4       _t1_builder_done           10033ff4 f    CIL library: CIL module
 0001:0003300f       _t1_builder_check_points   1003400f f    CIL library: CIL module
 0001:00033045       _t1_builder_add_point      10034045 f    CIL library: CIL module
 0001:00033095       _t1_builder_add_point1     10034095 f    CIL library: CIL module
 0001:000330c3       _t1_builder_add_contour    100340c3 f    CIL library: CIL module
 0001:00033135       _t1_builder_start_point    10034135 f    CIL library: CIL module
 0001:00033167       _t1_builder_close_contour  10034167 f    CIL library: CIL module
 0001:000331f9       _t1_decrypt                100341f9 f    CIL library: CIL module
 0001:00033217       _t1_lookup_glyph_by_stdcharcode 10034217 f    CIL library: CIL module
 0001:0003329b       _t1operator_seac           1003429b f    CIL library: CIL module
 0001:0003346e       _t1_decoder_parse_charstrings 1003446e f    CIL library: CIL module
 0001:00034656       _t1_decoder_init           10035656 f    CIL library: CIL module
 0001:000346ed       _t1_decoder_done           100356ed f    CIL library: CIL module
 0001:000346f2       _t1_cmap_std_init          100356f2 f    CIL library: CIL module
 0001:0003473c       _t1_cmap_std_done          1003573c f    CIL library: CIL module
 0001:0003474f       _t1_cmap_std_char_index    1003574f f    CIL library: CIL module
 0001:000347d3       _t1_cmap_std_char_next     100357d3 f    CIL library: CIL module
 0001:00034802       _t1_cmap_standard_init     10035802 f    CIL library: CIL module
 0001:00034811       _t1_cmap_expert_init       10035811 f    CIL library: CIL module
 0001:00034820       _t1_cmap_custom_init       10035820 f    CIL library: CIL module
 0001:00034873       _t1_cmap_custom_done       10035873 f    CIL library: CIL module
 0001:00034883       _t1_cmap_custom_char_index 10035883 f    CIL library: CIL module
 0001:000348a9       _t1_cmap_custom_char_next  100358a9 f    CIL library: CIL module
 0001:000348e7       _psaux_get_glyph_name      100358e7 f    CIL library: CIL module
 0001:000348f9       _t1_cmap_unicode_init      100358f9 f    CIL library: CIL module
 0001:00034921       _t1_cmap_unicode_char_index 10035921 f    CIL library: CIL module
 0001:00034938       _t1_cmap_unicode_char_next 10035938 f    CIL library: CIL module
 0001:0003494f       _afm_stream_skip_spaces    1003594f f    CIL library: CIL module
 0001:000349aa       _afm_stream_read_one       100359aa f    CIL library: CIL module
 0001:00034a10       _afm_stream_read_string    10035a10 f    CIL library: CIL module
 0001:00034a5e       _afm_parser_read_vals      10035a5e f    CIL library: CIL module
 0001:00034b7b       _afm_parser_next_key       10035b7b f    CIL library: CIL module
 0001:00034bb7       _afm_tokenize              10035bb7 f    CIL library: CIL module
 0001:00034bfe       _afm_parser_init           10035bfe f    CIL library: CIL module
 0001:00034c49       _afm_parser_done           10035c49 f    CIL library: CIL module
 0001:00034c60       _afm_parser_read_int       10035c60 f    CIL library: CIL module
 0001:00034c93       _afm_parse_track_kern      10035c93 f    CIL library: CIL module
 0001:00034db3       _afm_compare_kern_pairs    10035db3 f    CIL library: CIL module
 0001:00034db3       _compare_kern_pairs        10035db3 f    CIL library: CIL module
 0001:00034dd6       _afm_parse_kern_pairs      10035dd6 f    CIL library: CIL module
 0001:00034f17       _afm_parse_kern_data       10035f17 f    CIL library: CIL module
 0001:00034f79       _afm_parser_skip_section   10035f79 f    CIL library: CIL module
 0001:00034fca       _afm_parser_parse          10035fca f    CIL library: CIL module
 0001:0003521c       _PS_Conv_Strtol            1003621c f    CIL library: CIL module
 0001:00035317       _PS_Conv_ToInt             10036317 f    CIL library: CIL module
 0001:00035369       _PS_Conv_ToFixed           10036369 f    CIL library: CIL module
 0001:000355ae       _PS_Conv_ASCIIHexDecode    100365ae f    CIL library: CIL module
 0001:0003564e       _PS_Conv_EexecDecode       1003664e f    CIL library: CIL module
 0001:000356cc       _ps_mask_ensure            100366cc f    CIL library: CIL module
 0001:0003571b       _ps_mask_test_bit          1003671b f    CIL library: CIL module
 0001:0003573b       _ps_mask_set_bit           1003673b f    CIL library: CIL module
 0001:00035777       _ps_mask_table_done        10036777 f    CIL library: CIL module
 0001:000357c1       _ps_mask_table_ensure      100367c1 f    CIL library: CIL module
 0001:000357ff       _ps_mask_table_alloc       100367ff f    CIL library: CIL module
 0001:0003583f       _ps_mask_table_last        1003683f f    CIL library: CIL module
 0001:00035871       _ps_mask_table_set_bits    10036871 f    CIL library: CIL module
 0001:000358fc       _ps_mask_table_merge       100368fc f    CIL library: CIL module
 0001:00035a1d       _ps_mask_table_merge_all   10036a1d f    CIL library: CIL module
 0001:00035af0       _ps_dimension_done         10036af0 f    CIL library: CIL module
 0001:00035b24       _ps_dimension_reset_mask   10036b24 f    CIL library: CIL module
 0001:00035b4b       _ps_dimension_set_mask_bits 10036b4b f    CIL library: CIL module
 0001:00035b68       _ps_dimension_add_t1stem   10036b68 f    CIL library: CIL module
 0001:00035c76       _ps_dimension_add_counter  10036c76 f    CIL library: CIL module
 0001:00035d0e       _ps_dimension_end          10036d0e f    CIL library: CIL module
 0001:00035d2f       _ps_hints_stem             10036d2f f    CIL library: CIL module
 0001:00035ddc       _ps_hints_t1stem3          10036ddc f    CIL library: CIL module
 0001:00035ebe       _ps_hints_t1reset          10036ebe f    CIL library: CIL module
 0001:00035eff       _ps_hints_t2mask           10036eff f    CIL library: CIL module
 0001:00035f7d       _ps_hints_t2counter        10036f7d f    CIL library: CIL module
 0001:00036015       _ps_hints_close            10037015 f    CIL library: CIL module
 0001:00036047       _t1_hints_open             10037047 f    CIL library: CIL module
 0001:0003606a       _t1_hints_stem             1003706a f    CIL library: CIL module
 0001:000360a4       _t2_hints_open             100370a4 f    CIL library: CIL module
 0001:000360c7       _t2_hints_stems            100370c7 f    CIL library: CIL module
 0001:00036156       _psh_globals_scale_widths  10037156 f    CIL library: CIL module
 0001:000361d0       _psh_blues_set_zones_0     100371d0 f    CIL library: CIL module
 0001:000362d4       _psh_blues_set_zones       100372d4 f    CIL library: CIL module
 0001:00036407       _psh_blues_scale_zones     10037407 f    CIL library: CIL module
 0001:0003658e       _psh_calc_max_height       1003758e f    CIL library: CIL module
 0001:000365b5       _psh_blues_snap_stem       100375b5 f    CIL library: CIL module
 0001:0003668b       _psh_globals_destroy       1003768b f    CIL library: CIL module
 0001:000366c1       _psh_globals_new           100376c1 f    CIL library: CIL module
 0001:00036825       _psh_globals_set_scale     10037825 f    CIL library: CIL module
 0001:00036897       _psh_hint_table_done       10037897 f    CIL library: CIL module
 0001:000368da       _psh_hint_table_record     100378da f    CIL library: CIL module
 0001:00036981       _psh_hint_table_init       10037981 f    CIL library: CIL module
 0001:00036ad7       _psh_hint_table_activate_mask 10037ad7 f    CIL library: CIL module
 0001:00036bca       _psh_dimension_quantize_len 10037bca f    CIL library: CIL module
 0001:00036c1d       _psh_hint_align            10037c1d f    CIL library: CIL module
 0001:00036e84       _psh_glyph_compute_inflections 10037e84 f    CIL library: CIL module
 0001:00036fc1       _psh_glyph_done            10037fc1 f    CIL library: CIL module
 0001:00037000       _psh_compute_dir           10038000 f    CIL library: CIL module
 0001:00037040       _psh_glyph_load_points     10038040 f    CIL library: CIL module
 0001:00037082       _psh_glyph_save_points     10038082 f    CIL library: CIL module
 0001:000370dd       _psh_glyph_init            100380dd f    CIL library: CIL module
 0001:0003732a       _psh_glyph_compute_extrema 1003832a f    CIL library: CIL module
 0001:00037411       _psh_hint_table_find_strong_points 10038411 f    CIL library: CIL module
 0001:000375c2       _psh_glyph_find_strong_points 100385c2 f    CIL library: CIL module
 0001:000376da       _psh_glyph_find_blue_points 100386da f    CIL library: CIL module
 0001:000377e0       _psh_glyph_interpolate_strong_points 100387e0 f    CIL library: CIL module
 0001:0003787a       _psh_glyph_interpolate_normal_points 1003887a f    CIL library: CIL module
 0001:00037a54       _psh_glyph_interpolate_other_points 10038a54 f    CIL library: CIL module
 0001:00037dcf       _ps_hinter_done            10038dcf f    CIL library: CIL module
 0001:00037e04       _ps_hinter_init            10038e04 f    CIL library: CIL module
 0001:00037ea9       _pshinter_get_globals_funcs 10038ea9 f    CIL library: CIL module
 0001:00037eb1       _pshinter_get_t1_funcs     10038eb1 f    CIL library: CIL module
 0001:00037eb9       _pshinter_get_t2_funcs     10038eb9 f    CIL library: CIL module
 0001:00037ec3       _ft_get_adobe_glyph_index  10038ec3 f    CIL library: CIL module
 0001:00037f88       _ps_unicode_value          10038f88 f    CIL library: CIL module
 0001:0003805f       _compare_uni_maps          1003905f f    CIL library: CIL module
 0001:00038090       _ps_unicodes_init          10039090 f    CIL library: CIL module
 0001:0003824d       _ps_unicodes_char_index    1003924d f    CIL library: CIL module
 0001:000382ab       _ps_unicodes_char_next     100392ab f    CIL library: CIL module
 0001:00038331       _ps_get_macintosh_name     10039331 f    CIL library: CIL module
 0001:0003834c       _ps_get_standard_strings   1003934c f    CIL library: CIL module
 0001:00038368       _psnames_get_service       10039368 f    CIL library: CIL module
 0001:00038379       _Set_High_Precision        10039379 f    CIL library: CIL module
 0001:000383e8       _New_Profile               100393e8 f    CIL library: CIL module
 0001:000384c7       _End_Profile               100394c7 f    CIL library: CIL module
 0001:00038584       _Insert_Y_Turn             10039584 f    CIL library: CIL module
 0001:000385e8       _Finalize_Profile_Table    100395e8 f    CIL library: CIL module
 0001:00038683       _Split_Conic               10039683 f    CIL library: CIL module
 0001:000386e3       _Split_Cubic               100396e3 f    CIL library: CIL module
 0001:0003876f       _Line_Up                   1003976f f    CIL library: CIL module
 0001:000388ed       _Bezier_Up                 100398ed f    CIL library: CIL module
 0001:00038a3f       _Bezier_Down               10039a3f f    CIL library: CIL module
 0001:00038a86       _Line_To                   10039a86 f    CIL library: CIL module
 0001:00038bd6       _Conic_To                  10039bd6 f    CIL library: CIL module
 0001:00038d1a       _Cubic_To                  10039d1a f    CIL library: CIL module
 0001:00038e87       _Decompose_Curve           10039e87 f    CIL library: CIL module
 0001:00039185       _Convert_Glyph             1003a185 f    CIL library: CIL module
 0001:000392a4       _InsNew                    1003a2a4 f    CIL library: CIL module
 0001:000392bd       _DelOld                    1003a2bd f    CIL library: CIL module
 0001:000392d5       _Sort                      1003a2d5 f    CIL library: CIL module
 0001:0003933b       _Vertical_Sweep_Init       1003a33b f    CIL library: CIL module
 0001:00039385       _Vertical_Sweep_Span       1003a385 f    CIL library: CIL module
 0001:00039456       _Vertical_Sweep_Drop       1003a456 f    CIL library: CIL module
 0001:000395c6       _Vertical_Sweep_Step       1003a5c6 f    CIL library: CIL module
 0001:000395d8       _Horizontal_Sweep_Span     1003a5d8 f    CIL library: CIL module
 0001:00039644       _Horizontal_Sweep_Drop     1003a644 f    CIL library: CIL module
 0001:000397af       _Draw_Sweep                1003a7af f    CIL library: CIL module
 0001:00039a64       _Render_Single_Pass        1003aa64 f    CIL library: CIL module
 0001:00039b65       _Render_Glyph              1003ab65 f    CIL library: CIL module
 0001:00039c87       _ft_black_new              1003ac87 f    CIL library: CIL module
 0001:00039cb6       _ft_black_done             1003acb6 f    CIL library: CIL module
 0001:00039cc6       _ft_black_reset            1003acc6 f    CIL library: CIL module
 0001:00039d03       _ft_black_render           1003ad03 f    CIL library: CIL module
 0001:00039dd0       _ft_raster1_set_mode       1003add0 f    CIL library: CIL module
 0001:00039dd0       _ft_smooth_set_mode        1003add0 f    CIL library: CIL module
 0001:00039dec       _ft_smooth_transform       1003adec f    CIL library: CIL module
 0001:00039dec       _ft_raster1_transform      1003adec f    CIL library: CIL module
 0001:00039e37       _ft_raster1_get_cbox       1003ae37 f    CIL library: CIL module
 0001:00039e37       _ft_smooth_get_cbox        1003ae37 f    CIL library: CIL module
 0001:00039e63       _ft_raster1_render         1003ae63 f    CIL library: CIL module
 0001:0003a03f       _tt_face_lookup_table      1003b03f f    CIL library: CIL module
 0001:0003a0ea       _tt_face_goto_table        1003b0ea f    CIL library: CIL module
 0001:0003a121       _check_table_dir           1003b121 f    CIL library: CIL module
 0001:0003a320       _tt_face_load_font_dir     1003b320 f    CIL library: CIL module
 0001:0003a514       _tt_face_load_any          1003b514 f    CIL library: CIL module
 0001:0003a573       _tt_face_load_generic_header 1003b573 f    CIL library: CIL module
 0001:0003a5ce       _tt_face_load_head         1003b5ce f    CIL library: CIL module
 0001:0003a5fa       _tt_face_load_bhed         1003b5fa f    CIL library: CIL module
 0001:0003a626       _tt_face_load_maxp         1003b626 f    CIL library: CIL module
 0001:0003a73f       _tt_face_load_name         1003b73f f    CIL library: CIL module
 0001:0003a890       _tt_face_free_name         1003b890 f    CIL library: CIL module
 0001:0003a908       _tt_face_load_cmap         1003b908 f    CIL library: CIL module
 0001:0003a94b       _tt_face_load_os2          1003b94b f    CIL library: CIL module
 0001:0003aa6f       _tt_face_load_post         1003ba6f f    CIL library: CIL module
 0001:0003aaea       _tt_face_load_pclt         1003baea f    CIL library: CIL module
 0001:0003ab22       _tt_face_load_gasp         1003bb22 f    CIL library: CIL module
 0001:0003ac60       _tt_face_load_hmtx         1003bc60 f    CIL library: CIL module
 0001:0003acb9       _tt_face_load_hhea         1003bcb9 f    CIL library: CIL module
 0001:0003ad7b       _tt_face_get_metrics       1003bd7b f    CIL library: CIL module
 0001:0003ae9d       _tt_cmap_init              1003be9d f    CIL library: CIL module
 0001:0003aeab       _tt_cmap0_validate         1003beab f    CIL library: CIL module
 0001:0003af0b       _tt_cmap0_char_index       1003bf0b f    CIL library: CIL module
 0001:0003af26       _tt_cmap0_char_next        1003bf26 f    CIL library: CIL module
 0001:0003af5b       _tt_cmap0_get_info         1003bf5b f    CIL library: CIL module
 0001:0003af84       _tt_cmap2_validate         1003bf84 f    CIL library: CIL module
 0001:0003b118       _tt_cmap2_get_subheader    1003c118 f    CIL library: CIL module
 0001:0003b178       _tt_cmap2_char_index       1003c178 f    CIL library: CIL module
 0001:0003b21f       _tt_cmap2_char_next        1003c21f f    CIL library: CIL module
 0001:0003b32b       _tt_cmap2_get_info         1003c32b f    CIL library: CIL module
 0001:0003b356       _tt_cmap4_init             1003c356 f    CIL library: CIL module
 0001:0003b383       _tt_cmap4_set_range        1003c383 f    CIL library: CIL module
 0001:0003b4be       _tt_cmap4_next             1003c4be f    CIL library: CIL module
 0001:0003b549       _tt_cmap4_validate         1003c549 f    CIL library: CIL module
 0001:0003b88a       _tt_cmap4_char_map_linear  1003c88a f    CIL library: CIL module
 0001:0003ba2a       _tt_cmap4_char_map_binary  1003ca2a f    CIL library: CIL module
 0001:0003bef3       _tt_cmap4_char_index       1003cef3 f    CIL library: CIL module
 0001:0003bf22       _tt_cmap4_char_next        1003cf22 f    CIL library: CIL module
 0001:0003bf73       _tt_cmap4_get_info         1003cf73 f    CIL library: CIL module
 0001:0003bf9c       _tt_cmap6_validate         1003cf9c f    CIL library: CIL module
 0001:0003c02a       _tt_cmap6_char_index       1003d02a f    CIL library: CIL module
 0001:0003c07f       _tt_cmap6_char_next        1003d07f f    CIL library: CIL module
 0001:0003c105       _tt_cmap6_get_info         1003d105 f    CIL library: CIL module
 0001:0003c130       _tt_cmap8_validate         1003d130 f    CIL library: CIL module
 0001:0003c382       _tt_cmap8_char_index       1003d382 f    CIL library: CIL module
 0001:0003c478       _tt_cmap8_char_next        1003d478 f    CIL library: CIL module
 0001:0003c5a6       _tt_cmap8_get_info         1003d5a6 f    CIL library: CIL module
 0001:0003c5de       _tt_cmap10_validate        1003d5de f    CIL library: CIL module
 0001:0003c689       _tt_cmap10_char_index      1003d689 f    CIL library: CIL module
 0001:0003c6f8       _tt_cmap10_char_next       1003d6f8 f    CIL library: CIL module
 0001:0003c785       _tt_cmap10_get_info        1003d785 f    CIL library: CIL module
 0001:0003c7bf       _tt_cmap12_init            1003d7bf f    CIL library: CIL module
 0001:0003c7bf       _tt_cmap13_init            1003d7bf f    CIL library: CIL module
 0001:0003c7f7       _tt_cmap12_validate        1003d7f7 f    CIL library: CIL module
 0001:0003c982       _tt_cmap12_next            1003d982 f    CIL library: CIL module
 0001:0003ca59       _tt_cmap12_char_map_binary 1003da59 f    CIL library: CIL module
 0001:0003cbaa       _tt_cmap12_char_index      1003dbaa f    CIL library: CIL module
 0001:0003cbbe       _tt_cmap12_char_next       1003dbbe f    CIL library: CIL module
 0001:0003cc07       _tt_cmap12_get_info        1003dc07 f    CIL library: CIL module
 0001:0003cc41       _tt_cmap13_validate        1003dc41 f    CIL library: CIL module
 0001:0003cdc4       _tt_cmap13_next            1003ddc4 f    CIL library: CIL module
 0001:0003ce8a       _tt_cmap13_char_map_binary 1003de8a f    CIL library: CIL module
 0001:0003cfd8       _tt_cmap13_char_index      1003dfd8 f    CIL library: CIL module
 0001:0003cfec       _tt_cmap13_char_next       1003dfec f    CIL library: CIL module
 0001:0003d035       _tt_cmap13_get_info        1003e035 f    CIL library: CIL module
 0001:0003d06f       _tt_cmap14_done            1003e06f f    CIL library: CIL module
 0001:0003d095       _tt_cmap14_ensure          1003e095 f    CIL library: CIL module
 0001:0003d0cc       _tt_cmap14_init            1003e0cc f    CIL library: CIL module
 0001:0003d108       _tt_cmap14_validate        1003e108 f    CIL library: CIL module
 0001:0003d3eb       _tt_cmap14_char_next       1003e3eb f    CIL library: CIL module
 0001:0003d3f5       _tt_cmap14_get_info        1003e3f5 f    CIL library: CIL module
 0001:0003d406       _tt_cmap14_char_map_def_binary 1003e406 f    CIL library: CIL module
 0001:0003d482       _tt_cmap14_char_map_nondef_binary 1003e482 f    CIL library: CIL module
 0001:0003d509       _tt_cmap14_find_variant    1003e509 f    CIL library: CIL module
 0001:0003d57d       _tt_cmap14_char_var_index  1003e57d f    CIL library: CIL module
 0001:0003d613       _tt_cmap14_char_var_isdefault 1003e613 f    CIL library: CIL module
 0001:0003d6ad       _tt_cmap14_variants        1003e6ad f    CIL library: CIL module
 0001:0003d726       _tt_cmap14_char_variants   1003e726 f    CIL library: CIL module
 0001:0003d854       _tt_cmap14_def_char_count  1003e854 f    CIL library: CIL module
 0001:0003d88e       _tt_cmap14_get_def_chars   1003e88e f    CIL library: CIL module
 0001:0003d916       _tt_cmap14_get_nondef_chars 1003e916 f    CIL library: CIL module
 0001:0003d9b8       _tt_cmap14_variant_chars   1003e9b8 f    CIL library: CIL module
 0001:0003dc84       _tt_face_build_cmaps       1003ec84 f    CIL library: CIL module
 0001:0003dee9       _tt_get_cmap_info          1003eee9 f    CIL library: CIL module
 0001:0003defb       _tt_face_load_kern         1003eefb f    CIL library: CIL module
 0001:0003e120       _tt_face_get_kerning       1003f120 f    CIL library: CIL module
 0001:0003e2ed       _tt_name_entry_ascii_from_utf16 1003f2ed f    CIL library: CIL module
 0001:0003e35a       _tt_name_entry_ascii_from_other 1003f35a f    CIL library: CIL module
 0001:0003e3b7       _tt_face_get_name          1003f3b7 f    CIL library: CIL module
 0001:0003e5aa       _sfnt_open_font            1003f5aa f    CIL library: CIL module
 0001:0003e743       _sfnt_init_face            1003f743 f    CIL library: CIL module
 0001:0003e82c       _sfnt_load_face            1003f82c f    CIL library: CIL module
 0001:0003f59c       _sfnt_done_face            1004059c f    CIL library: CIL module
 0001:0003f742       _get_sfnt_table            10040742 f    CIL library: CIL module
 0001:0003f7c9       _sfnt_table_info           100407c9 f    CIL library: CIL module
 0001:0003f830       _sfnt_get_glyph_name       10040830 f    CIL library: CIL module
 0001:0003f863       _sfnt_get_name_index       10040863 f    CIL library: CIL module
 0001:0003f8ea       _sfnt_get_ps_name          100408ea f    CIL library: CIL module
 0001:0003fb00       _sfnt_get_charset_id       10040b00 f    CIL library: CIL module
 0001:0003fb59       _sfnt_get_interface        10040b59 f    CIL library: CIL module
 0001:0003fb6a       _tt_face_load_eblc         10040b6a f    CIL library: CIL module
 0001:0003fccd       _tt_face_free_eblc         10040ccd f    CIL library: CIL module
 0001:0003fcf3       _tt_face_set_sbit_strike   10040cf3 f    CIL library: CIL module
 0001:0003fd0a       _tt_face_load_strike_metrics 10040d0a f    CIL library: CIL module
 0001:0003fd77       _tt_sbit_decoder_init      10040d77 f    CIL library: CIL module
 0001:0003fe8c       _tt_sbit_decoder_alloc_bitmap 10040e8c f    CIL library: CIL module
 0001:0003ff4b       _tt_sbit_decoder_load_metrics 10040f4b f    CIL library: CIL module
 0001:0003ffc0       _tt_sbit_decoder_load_byte_aligned 10040fc0 f    CIL library: CIL module
 0001:00040167       _tt_sbit_decoder_load_bit_aligned 10041167 f    CIL library: CIL module
 0001:000403a2       _tt_sbit_decoder_load_compound 100413a2 f    CIL library: CIL module
 0001:000404e7       _tt_sbit_decoder_load_bitmap 100414e7 f    CIL library: CIL module
 0001:000406f9       _tt_sbit_decoder_load_image 100416f9 f    CIL library: CIL module
 0001:00040ae4       _tt_face_load_sbit_image   10041ae4 f    CIL library: CIL module
 0001:00040b19       _load_format_20            10041b19 f    CIL library: CIL module
 0001:00040da5       _load_format_25            10041da5 f    CIL library: CIL module
 0001:00040e57       _load_post_names           10041e57 f    CIL library: CIL module
 0001:00040ecc       _tt_face_free_ps_names     10041ecc f    CIL library: CIL module
 0001:00040f95       _tt_face_get_ps_name       10041f95 f    CIL library: CIL module
 0001:0004108f       _tt_face_load_bdf_props    1004208f f    CIL library: CIL module
 0001:000411ca       _tt_face_find_bdf_prop     100421ca f    CIL library: CIL module
 0001:000413aa       _gray_compute_cbox         100423aa f    CIL library: CIL module
 0001:00041436       _gray_find_cell            10042436 f    CIL library: CIL module
 0001:00041499       _gray_record_cell          10042499 f    CIL library: CIL module
 0001:000414bb       _gray_set_cell             100424bb f    CIL library: CIL module
 0001:00041511       _gray_render_scanline      10042511 f    CIL library: CIL module
 0001:0004164d       _gray_render_line          1004264d f    CIL library: CIL module
 0001:0004187d       _gray_split_conic          1004287d f    CIL library: CIL module
 0001:000418d9       _gray_render_conic         100428d9 f    CIL library: CIL module
 0001:000419e1       _gray_render_cubic         100429e1 f    CIL library: CIL module
 0001:00041b7f       _gray_move_to              10042b7f f    CIL library: CIL module
 0001:00041bf4       _gray_line_to              10042bf4 f    CIL library: CIL module
 0001:00041c13       _gray_conic_to             10042c13 f    CIL library: CIL module
 0001:00041c29       _gray_cubic_to             10042c29 f    CIL library: CIL module
 0001:00041c42       _gray_render_span          10042c42 f    CIL library: CIL module
 0001:00041ce5       _gray_hline                10042ce5 f    CIL library: CIL module
 0001:00041e8a       _gray_sweep                10042e8a f    CIL library: CIL module
 0001:00042006       _gray_convert_glyph_inner  10043006 f    CIL library: CIL module
 0001:00042057       _gray_convert_glyph        10043057 f    CIL library: CIL module
 0001:0004231d       _gray_raster_render        1004331d f    CIL library: CIL module
 0001:000424d5       _gray_raster_new           100434d5 f    CIL library: CIL module
 0001:00042504       _gray_raster_done          10043504 f    CIL library: CIL module
 0001:00042514       _gray_raster_reset         10043514 f    CIL library: CIL module
 0001:00042556       _ft_raster1_init           10043556 f    CIL library: CIL module
 0001:00042556       _ft_smooth_init            10043556 f    CIL library: CIL module
 0001:0004257b       _ft_smooth_render_generic  1004357b f    CIL library: CIL module
 0001:000428c3       _ft_smooth_render          100438c3 f    CIL library: CIL module
 0001:000428e5       _ft_smooth_render_lcd      100438e5 f    CIL library: CIL module
 0001:0004290b       _ft_smooth_render_lcd_v    1004390b f    CIL library: CIL module
 0001:00042931       _tt_property_set           10043931 f    CIL library: CIL module
 0001:0004297c       _tt_property_get           1004397c f    CIL library: CIL module
 0001:000429be       _tt_get_advances           100439be f    CIL library: CIL module
 0001:00042a2a       _tt_size_select            10043a2a f    CIL library: CIL module
 0001:00042a74       _tt_size_request           10043a74 f    CIL library: CIL module
 0001:00042ae1       _tt_glyph_load             10043ae1 f    CIL library: CIL module
 0001:00042b5c       _tt_get_interface          10043b5c f    CIL library: CIL module
 0001:00042baa       _tt_face_load_loca         10043baa f    CIL library: CIL module
 0001:00042d53       _tt_face_get_location      10043d53 f    CIL library: CIL module
 0001:00042e85       _tt_face_load_cvt          10043e85 f    CIL library: CIL module
 0001:00042f8a       _tt_face_load_fpgm         10043f8a f    CIL library: CIL module
 0001:00043022       _tt_face_load_prep         10044022 f    CIL library: CIL module
 0001:000430ba       _tt_face_load_hdmx         100440ba f    CIL library: CIL module
 0001:00043214       _tt_face_get_device_metrics 10044214 f    CIL library: CIL module
 0001:0004326b       _TT_Get_HMetrics           1004426b f    CIL library: CIL module
 0001:000432b3       _TT_Get_VMetrics           100442b3 f    CIL library: CIL module
 0001:00043312       _tt_get_metrics            10044312 f    CIL library: CIL module
 0001:00043381       _tt_get_metrics_incr_overrides 10044381 f    CIL library: CIL module
 0001:000433fb       _translate_array           100443fb f    CIL library: CIL module
 0001:00043425       _TT_Access_Glyph_Frame     10044425 f    CIL library: CIL module
 0001:0004347e       _TT_Forget_Glyph_Frame     1004447e f    CIL library: CIL module
 0001:0004348c       _TT_Load_Glyph_Header      1004448c f    CIL library: CIL module
 0001:0004357c       _TT_Load_Simple_Glyph      1004457c f    CIL library: CIL module
 0001:00043955       _TT_Load_Composite_Glyph   10044955 f    CIL library: CIL module
 0001:00043b8c       _tt_prepare_zone           10044b8c f    CIL library: CIL module
 0001:00043bd8       _TT_Hint_Glyph             10044bd8 f    CIL library: CIL module
 0001:00043e26       _TT_Process_Simple_Glyph   10044e26 f    CIL library: CIL module
 0001:00044039       _TT_Process_Composite_Component 10045039 f    CIL library: CIL module
 0001:0004417c       _TT_Process_Composite_Glyph 1004517c f    CIL library: CIL module
 0001:000443bb       _load_truetype_glyph       100453bb f    CIL library: CIL module
 0001:00044a05       _compute_glyph_metrics     10045a05 f    CIL library: CIL module
 0001:00044bd9       _load_sbit_image           10045bd9 f    CIL library: CIL module
 0001:00044c91       _tt_loader_init            10045c91 f    CIL library: CIL module
 0001:00044e7e       _TT_Load_Glyph             10045e7e f    CIL library: CIL module
 0001:00045056       _tt_glyphzone_done         10046056 f    CIL library: CIL module
 0001:000450b6       _tt_glyphzone_new          100460b6 f    CIL library: CIL module
 0001:0004517d       _tt_synth_sfnt_checksum    1004617d f    CIL library: CIL module
 0001:000451e8       _tt_check_trickyness_sfnt_ids 100461e8 f    CIL library: CIL module
 0001:0004532d       _tt_check_trickyness       1004632d f    CIL library: CIL module
 0001:00045371       _tt_check_single_notdef    10046371 f    CIL library: CIL module
 0001:000453fc       _tt_face_init              100463fc f    CIL library: CIL module
 0001:000455c1       _tt_face_done              100465c1 f    CIL library: CIL module
 0001:00045698       _tt_size_run_fpgm          10046698 f    CIL library: CIL module
 0001:000457b5       _tt_size_run_prep          100467b5 f    CIL library: CIL module
 0001:00045910       _tt_size_done_bytecode     10046910 f    CIL library: CIL module
 0001:000459b3       _tt_size_init_bytecode     100469b3 f    CIL library: CIL module
 0001:00045b4a       _tt_size_ready_bytecode    10046b4a f    CIL library: CIL module
 0001:00045c3c       _tt_size_init              10046c3c f    CIL library: CIL module
 0001:00045c58       _tt_size_done              10046c58 f    CIL library: CIL module
 0001:00045c71       _tt_size_reset             10046c71 f    CIL library: CIL module
 0001:00045db2       _tt_driver_init            10046db2 f    CIL library: CIL module
 0001:00045dd4       _tt_driver_done            10046dd4 f    CIL library: CIL module
 0001:00045ded       _tt_slot_init              10046ded f    CIL library: CIL module
 0001:00045e00       _TT_Goto_CodeRange         10046e00 f    CIL library: CIL module
 0001:00045e40       _TT_Done_Context           10046e40 f    CIL library: CIL module
 0001:00045eae       _Init_Context              10046eae f    CIL library: CIL module
 0001:00045f39       _Update_Max                10046f39 f    CIL library: CIL module
 0001:00045f71       _TT_Load_Context           10046f71 f    CIL library: CIL module
 0001:0004613c       _TT_Save_Context           1004713c f    CIL library: CIL module
 0001:00046190       _TT_Run_Context            10047190 f    CIL library: CIL module
 0001:0004626d       _TT_MulFix14               1004726d f    CIL library: CIL module
 0001:000462c1       _TT_DotFix14               100472c1 f    CIL library: CIL module
 0001:0004634d       _Current_Ratio             1004734d f    CIL library: CIL module
 0001:000463b0       _Current_Ppem              100473b0 f    CIL library: CIL module
 0001:000463ca       _Read_CVT                  100473ca f    CIL library: CIL module
 0001:000463dc       _Read_CVT_Stretched        100473dc f    CIL library: CIL module
 0001:000463fd       _Write_CVT                 100473fd f    CIL library: CIL module
 0001:00046413       _Write_CVT_Stretched       10047413 f    CIL library: CIL module
 0001:00046438       _Move_CVT                  10047438 f    CIL library: CIL module
 0001:00046450       _Move_CVT_Stretched        10047450 f    CIL library: CIL module
 0001:00046479       _Ins_Goto_CodeRange        10047479 f    CIL library: CIL module
 0001:000464d0       _Direct_Move               100474d0 f    CIL library: CIL module
 0001:00046550       _Direct_Move_Orig          10047550 f    CIL library: CIL module
 0001:000465b4       _Direct_Move_X             100475b4 f    CIL library: CIL module
 0001:000465d4       _Direct_Move_Y             100475d4 f    CIL library: CIL module
 0001:000465f5       _Direct_Move_Orig_X        100475f5 f    CIL library: CIL module
 0001:0004660b       _Direct_Move_Orig_Y        1004760b f    CIL library: CIL module
 0001:00046622       _Round_None                10047622 f    CIL library: CIL module
 0001:00046647       _Round_To_Grid             10047647 f    CIL library: CIL module
 0001:00046672       _Round_To_Half_Grid        10047672 f    CIL library: CIL module
 0001:000466a5       _Round_Down_To_Grid        100476a5 f    CIL library: CIL module
 0001:000466cd       _Round_Up_To_Grid          100476cd f    CIL library: CIL module
 0001:000466f8       _Round_To_Double_Grid      100476f8 f    CIL library: CIL module
 0001:00046723       _Round_Super               10047723 f    CIL library: CIL module
 0001:00046770       _Round_Super_45            10047770 f    CIL library: CIL module
 0001:000467c5       _Compute_Round             100477c5 f    CIL library: CIL module
 0001:0004684d       _SetSuperRound             1004784d f    CIL library: CIL module
 0001:00046933       _Project                   10047933 f    CIL library: CIL module
 0001:00046957       _Dual_Project              10047957 f    CIL library: CIL module
 0001:0004697b       _Project_x                 1004797b f    CIL library: CIL module
 0001:00046980       _Project_y                 10047980 f    CIL library: CIL module
 0001:00046985       _Compute_Funcs             10047985 f    CIL library: CIL module
 0001:00046ac5       _Normalize                 10047ac5 f    CIL library: CIL module
 0001:00046b25       _Ins_SxVTL                 10047b25 f    CIL library: CIL module
 0001:00046b8f       _Ins_MINDEX                10047b8f f    CIL library: CIL module
 0001:00046bda       _SkipCode                  10047bda f    CIL library: CIL module
 0001:00046c5d       _Ins_FDEF                  10047c5d f    CIL library: CIL module
 0001:00046d0c       _Ins_ENDF                  10047d0c f    CIL library: CIL module
 0001:00046d5b       _Ins_CALL                  10047d5b f    CIL library: CIL module
 0001:00046e11       _Ins_LOOPCALL              10047e11 f    CIL library: CIL module
 0001:00046ed2       _Ins_IDEF                  10047ed2 f    CIL library: CIL module
 0001:00046f7d       _Ins_NPUSHB                10047f7d f    CIL library: CIL module
 0001:00046fe6       _Ins_NPUSHW                10047fe6 f    CIL library: CIL module
 0001:00047076       _Ins_PUSHB                 10048076 f    CIL library: CIL module
 0001:000470cd       _Ins_PUSHW                 100480cd f    CIL library: CIL module
 0001:0004714c       _Ins_GC                    1004814c f    CIL library: CIL module
 0001:0004719f       _Ins_SCFS                  1004819f f    CIL library: CIL module
 0001:00047215       _Ins_MD                    10048215 f    CIL library: CIL module
 0001:00047339       _Ins_SDPVTL                10048339 f    CIL library: CIL module
 0001:0004740b       _Ins_SZP0                  1004840b f    CIL library: CIL module
 0001:0004744c       _Ins_SZP1                  1004844c f    CIL library: CIL module
 0001:0004748d       _Ins_SZP2                  1004848d f    CIL library: CIL module
 0001:000474ce       _Ins_SZPS                  100484ce f    CIL library: CIL module
 0001:0004753b       _Ins_SCANCTRL              1004853b f    CIL library: CIL module
 0001:000475ed       _Ins_FLIPPT                100485ed f    CIL library: CIL module
 0001:00047664       _Ins_FLIPRGON              10048664 f    CIL library: CIL module
 0001:000476ab       _Ins_FLIPRGOFF             100486ab f    CIL library: CIL module
 0001:000476f2       _Compute_Point_Displacement 100486f2 f    CIL library: CIL module
 0001:000477aa       _Move_Zp2_Point            100487aa f    CIL library: CIL module
 0001:00047806       _Ins_SHP                   10048806 f    CIL library: CIL module
 0001:000478a3       _Ins_SHC                   100488a3 f    CIL library: CIL module
 0001:0004797a       _Ins_SHZ                   1004897a f    CIL library: CIL module
 0001:00047a29       _Ins_SHPIX                 10048a29 f    CIL library: CIL module
 0001:00047ad5       _Ins_MSIRP                 10048ad5 f    CIL library: CIL module
 0001:00047bce       _Ins_MDAP                  10048bce f    CIL library: CIL module
 0001:00047c43       _Ins_MIAP                  10048c43 f    CIL library: CIL module
 0001:00047d4f       _Ins_MDRP                  10048d4f f    CIL library: CIL module
 0001:00047f33       _Ins_MIRP                  10048f33 f    CIL library: CIL module
 0001:0004815c       _Ins_ALIGNRP               1004915c f    CIL library: CIL module
 0001:00048214       _Ins_ISECT                 10049214 f    CIL library: CIL module
 0001:00048427       _Ins_ALIGNPTS              10049427 f    CIL library: CIL module
 0001:000484a6       _Ins_IP                    100494a6 f    CIL library: CIL module
 0001:0004871d       _Ins_UTP                   1004971d f    CIL library: CIL module
 0001:0004875e       __iup_worker_interpolate   1004975e f    CIL library: CIL module
 0001:00048874       _Ins_IUP                   10049874 f    CIL library: CIL module
 0001:000489da       _Ins_DELTAP                100499da f    CIL library: CIL module
 0001:00048abe       _Ins_DELTAC                10049abe f    CIL library: CIL module
 0001:00048b9f       _Ins_GETINFO               10049b9f f    CIL library: CIL module
 0001:00048be8       _Ins_UNKNOWN               10049be8 f    CIL library: CIL module
 0001:00049aac       _ft_var_readpackedpoints   1004aaac f    CIL library: CIL module
 0001:00049bc9       _ft_var_readpackeddeltas   1004abc9 f    CIL library: CIL module
 0001:00049cae       _ft_var_load_avar          1004acae f    CIL library: CIL module
 0001:00049e11       _ft_var_load_gvar          1004ae11 f    CIL library: CIL module
 0001:0004a003       _ft_var_apply_tuple        1004b003 f    CIL library: CIL module
 0001:0004a0c1       _TT_Get_MM_Var             1004b0c1 f    CIL library: CIL module
 0001:0004a45d       _TT_Set_MM_Blend           1004b45d f    CIL library: CIL module
 0001:0004a5a8       _TT_Set_Var_Design         1004b5a8 f    CIL library: CIL module
 0001:0004a770       _tt_face_vary_cvt          1004b770 f    CIL library: CIL module
 0001:0004ab23       _TT_Vary_Get_Glyph_Deltas  1004bb23 f    CIL library: CIL module
 0001:0004af8b       _tt_done_blend             1004bf8b f    CIL library: CIL module
 0001:0004b01d       _read_pfb_tag              1004c01d f    CIL library: CIL module
 0001:0004b06f       _check_type1_format        1004c06f f    CIL library: CIL module
 0001:0004b0ea       _T1_New_Parser             1004c0ea f    CIL library: CIL module
 0001:0004b256       _T1_Get_Private_Dict       1004c256 f    CIL library: CIL module
 0001:0004b56e       _t1_allocate_blend         1004c56e f    CIL library: CIL module
 0001:0004b74f       _T1_Get_Multi_Master       1004c74f f    CIL library: CIL module
 0001:0004b7b8       _mm_axis_unmap             1004c7b8 f    CIL library: CIL module
 0001:0004b82d       _mm_weights_unmap          1004c82d f    CIL library: CIL module
 0001:0004b922       _T1_Get_MM_Var             1004c922 f    CIL library: CIL module
 0001:0004bac5       _T1_Set_MM_Blend           1004cac5 f    CIL library: CIL module
 0001:0004bb53       _T1_Set_MM_Design          1004cb53 f    CIL library: CIL module
 0001:0004bc57       _T1_Set_Var_Design         1004cc57 f    CIL library: CIL module
 0001:0004bca8       _T1_Done_Blend             1004cca8 f    CIL library: CIL module
 0001:0004bdc7       _parse_blend_axis_types    1004cdc7 f    CIL library: CIL module
 0001:0004beb7       _parse_blend_design_positions 1004ceb7 f    CIL library: CIL module
 0001:0004c01d       _parse_blend_design_map    1004d01d f    CIL library: CIL module
 0001:0004c19a       _parse_weight_vector       1004d19a f    CIL library: CIL module
 0001:0004c2a9       _parse_buildchar           1004d2a9 f    CIL library: CIL module
 0001:0004c2c4       _t1_load_keyword           1004d2c4 f    CIL library: CIL module
 0001:0004c3cb       _parse_private             1004d3cb f    CIL library: CIL module
 0001:0004c3d7       _read_binary_data          1004d3d7 f    CIL library: CIL module
 0001:0004c447       _t1_parse_font_matrix      1004d447 f    CIL library: CIL module
 0001:0004c543       _parse_encoding            1004d543 f    CIL library: CIL module
 0001:0004c8d2       _parse_subrs               1004d8d2 f    CIL library: CIL module
 0001:0004cacd       _parse_charstrings         1004dacd f    CIL library: CIL module
 0001:0004cfc7       _parse_dict                1004dfc7 f    CIL library: CIL module
 0001:0004d339       _t1_done_loader            1004e339 f    CIL library: CIL module
 0001:0004d3c9       _T1_Open_Face              1004e3c9 f    CIL library: CIL module
 0001:0004d7e3       _T1_Size_Get_Globals_Funcs 1004e7e3 f    CIL library: CIL module
 0001:0004d816       _T1_Size_Done              1004e816 f    CIL library: CIL module
 0001:0004d839       _T1_Size_Init              1004e839 f    CIL library: CIL module
 0001:0004d875       _T1_Size_Request           1004e875 f    CIL library: CIL module
 0001:0004d8ad       _cff_slot_done             1004e8ad f    CIL library: CIL module
 0001:0004d8ad       _T1_GlyphSlot_Done         1004e8ad f    CIL library: CIL module
 0001:0004d8ad       _cid_slot_done             1004e8ad f    CIL library: CIL module
 0001:0004d8bc       _T1_GlyphSlot_Init         1004e8bc f    CIL library: CIL module
 0001:0004d8f8       _T1_Face_Done              1004e8f8 f    CIL library: CIL module
 0001:0004da86       _T1_Face_Init              1004ea86 f    CIL library: CIL module
 0001:0004dda8       _cff_driver_done           1004eda8 f    CIL library: CIL module
 0001:0004dda8       _T1_Driver_Done            1004eda8 f    CIL library: CIL module
 0001:0004dda8       _ps_parser_done            1004eda8 f    CIL library: CIL module
 0001:0004dda8       _cf2_free_instance         1004eda8 f    CIL library: CIL module
 0001:0004dda8       _Horizontal_Sweep_Step     1004eda8 f    CIL library: CIL module
 0001:0004dda8       _ft_black_set_mode         1004eda8 f    CIL library: CIL module
 0001:0004dda8       _T42_Driver_Done           1004eda8 f    CIL library: CIL module
 0001:0004dda8       _cid_driver_done           1004eda8 f    CIL library: CIL module
 0001:0004dda8       _gxv_just_classTable_entry_validate 1004eda8 f    CIL library: CIL module
 0001:0004dda8       _Horizontal_Sweep_Init     1004eda8 f    CIL library: CIL module
 0001:0004dda9       _t1_get_name_index         1004eda9 f    CIL library: CIL module
 0001:0004ddfd       _t42_get_ps_font_name      1004edfd f    CIL library: CIL module
 0001:0004ddfd       _t1_get_ps_name            1004edfd f    CIL library: CIL module
 0001:0004de08       _t42_ps_get_font_info      1004ee08 f    CIL library: CIL module
 0001:0004de08       _t1_ps_get_font_info       1004ee08 f    CIL library: CIL module
 0001:0004de22       _t1_ps_get_font_value      1004ee22 f    CIL library: CIL module
 0001:0004e666       _Get_Interface             1004f666 f    CIL library: CIL module
 0001:0004e677       _Get_Kerning               1004f677 f    CIL library: CIL module
 0001:0004e6a3       _T1_Parse_Glyph_And_Get_Char_String 1004f6a3 f    CIL library: CIL module
 0001:0004e79f       _T1_Parse_Glyph            1004f79f f    CIL library: CIL module
 0001:0004e7e3       _T1_Compute_Max_Advance    1004f7e3 f    CIL library: CIL module
 0001:0004e8eb       _T1_Get_Advances           1004f8eb f    CIL library: CIL module
 0001:0004e9d0       _T1_Load_Glyph             1004f9d0 f    CIL library: CIL module
 0001:0004edcc       _T1_Done_Metrics           1004fdcc f    CIL library: CIL module
 0001:0004ee02       _t1_get_index              1004fe02 f    CIL library: CIL module
 0001:0004ee73       _T1_Read_PFM               1004fe73 f    CIL library: CIL module
 0001:0004f023       _T1_Read_Metrics           10050023 f    CIL library: CIL module
 0001:0004f1cf       _T1_Get_Kerning            100501cf f    CIL library: CIL module
 0001:0004f22b       _T1_Get_Track_Kerning      1005022b f    CIL library: CIL module
 0001:0004f2b1       _T42_Open_Face             100502b1 f    CIL library: CIL module
 0001:0004f50c       _T42_Face_Init             1005050c f    CIL library: CIL module
 0001:0004f801       _T42_Face_Done             10050801 f    CIL library: CIL module
 0001:0004f94c       _T42_Driver_Init           1005094c f    CIL library: CIL module
 0001:0004f97d       _T42_Size_Init             1005097d f    CIL library: CIL module
 0001:0004f9ab       _T42_Size_Request          100509ab f    CIL library: CIL module
 0001:0004f9e6       _T42_Size_Select           100509e6 f    CIL library: CIL module
 0001:0004fa21       _T42_Size_Done             10050a21 f    CIL library: CIL module
 0001:0004fa4e       _T42_GlyphSlot_Init        10050a4e f    CIL library: CIL module
 0001:0004fa87       _T42_GlyphSlot_Done        10050a87 f    CIL library: CIL module
 0001:0004fa98       _T42_GlyphSlot_Load        10050a98 f    CIL library: CIL module
 0001:0004fba1       _t42_parser_init           10050ba1 f    CIL library: CIL module
 0001:0004fcbb       _t42_is_space              10050cbb f    CIL library: CIL module
 0001:0004fcda       _t42_parse_font_matrix     10050cda f    CIL library: CIL module
 0001:0004fd9d       _t42_parse_encoding        10050d9d f    CIL library: CIL module
 0001:00050091       _t42_parse_sfnts           10051091 f    CIL library: CIL module
 0001:0005037c       _t42_parse_charstrings     1005137c f    CIL library: CIL module
 0001:000506fe       _t42_load_keyword          100516fe f    CIL library: CIL module
 0001:0005076a       _t42_parse_dict            1005176a f    CIL library: CIL module
 0001:000508e4       _t42_loader_done           100518e4 f    CIL library: CIL module
 0001:0005094e       _t1_get_glyph_name         1005194e f    CIL library: CIL module
 0001:0005094e       _t42_get_glyph_name        1005194e f    CIL library: CIL module
 0001:00050972       _t42_get_name_index        10051972 f    CIL library: CIL module
 0001:000509f1       _t1_ps_get_font_extra      100519f1 f    CIL library: CIL module
 0001:000509f1       _t42_ps_get_font_extra     100519f1 f    CIL library: CIL module
 0001:00050a06       _t42_ps_has_glyph_names    10051a06 f    CIL library: CIL module
 0001:00050a06       _t1_ps_has_glyph_names     10051a06 f    CIL library: CIL module
 0001:00050a0a       _t42_ps_get_font_private   10051a0a f    CIL library: CIL module
 0001:00050a0a       _t1_ps_get_font_private    10051a0a f    CIL library: CIL module
 0001:00050a24       _T42_Get_Interface         10051a24 f    CIL library: CIL module
 0001:00050a39       _huft_build                10051a39 f    CIL library: CIL module
 0001:00050dcf       _inflate_trees_bits        10051dcf f    CIL library: CIL module
 0001:00050e4b       _inflate_trees_dynamic     10051e4b f    CIL library: CIL module
 0001:00050f6b       _inflate_flush             10051f6b f    CIL library: CIL module
 0001:0005104e       _inflate_codes_new         1005204e f    CIL library: CIL module
 0001:0005107f       _inflate_codes             1005207f f    CIL library: CIL module
 0001:00051507       _inflate_blocks_reset      10052507 f    CIL library: CIL module
 0001:00051562       _inflate_blocks_new        10052562 f    CIL library: CIL module
 0001:000515e2       _inflate_blocks            100525e2 f    CIL library: CIL module
 0001:00051dd6       _inflateReset              10052dd6 f    CIL library: CIL module
 0001:00051e13       _inflateEnd                10052e13 f    CIL library: CIL module
 0001:00051e6b       _inflateInit2_             10052e6b f    CIL library: CIL module
 0001:00051f08       _inflate                   10052f08 f    CIL library: CIL module
 0001:0005228c       _adler32                   1005328c f    CIL library: CIL module
 0001:0005239e       _ft_gzip_alloc             1005339e f    CIL library: CIL module
 0001:000523ba       _zcfree                    100533ba f    CIL library: CIL module
 0001:000523ba       _ft_gzip_free              100533ba f    CIL library: CIL module
 0001:000523bf       _zcalloc                   100533bf f    CIL library: CIL module
 0001:000523c4       _ft_gzip_check_header      100533c4 f    CIL library: CIL module
 0001:000524bb       _ft_gzip_file_init         100534bb f    CIL library: CIL module
 0001:00052539       _ft_gzip_file_done         10053539 f    CIL library: CIL module
 0001:00052564       _ft_gzip_file_reset        10053564 f    CIL library: CIL module
 0001:000525b0       _ft_gzip_file_fill_output  100535b0 f    CIL library: CIL module
 0001:00052660       _ft_gzip_file_skip_output  10053660 f    CIL library: CIL module
 0001:0005269c       _ft_gzip_file_io           1005369c f    CIL library: CIL module
 0001:00052725       _ft_gzip_stream_close      10053725 f    CIL library: CIL module
 0001:0005274c       _ft_gzip_stream_io         1005374c f    CIL library: CIL module
 0001:00052766       _ft_gzip_get_uncompressed_size 10053766 f    CIL library: CIL module
 0001:000528be       _ft_lzw_check_header       100538be f    CIL library: CIL module
 0001:000528f8       _ft_lzw_file_init          100538f8 f    CIL library: CIL module
 0001:0005293a       _ft_lzw_file_done          1005393a f    CIL library: CIL module
 0001:0005298f       _ft_lzw_file_skip_output   1005398f f    CIL library: CIL module
 0001:000529f5       _ft_lzw_file_io            100539f5 f    CIL library: CIL module
 0001:00052aed       _ft_lzw_stream_close       10053aed f    CIL library: CIL module
 0001:00052b14       _ft_lzw_stream_io          10053b14 f    CIL library: CIL module
 0001:00052bb7       _ft_lzwstate_refill        10053bb7 f    CIL library: CIL module
 0001:00052bff       _ft_lzwstate_get_code      10053bff f    CIL library: CIL module
 0001:00052cb8       _ft_lzwstate_stack_grow    10053cb8 f    CIL library: CIL module
 0001:00052d1a       _ft_lzwstate_prefix_grow   10053d1a f    CIL library: CIL module
 0001:00053059       _fnt_font_done             10054059 f    CIL library: CIL module
 0001:000530af       _fnt_font_load             100540af f    CIL library: CIL module
 0001:00053199       _fnt_face_get_dll_font     10054199 f    CIL library: CIL module
 0001:0005394c       _fnt_cmap_init             1005494c f    CIL library: CIL module
 0001:0005396c       _fnt_cmap_char_index       1005496c f    CIL library: CIL module
 0001:00053982       _fnt_cmap_char_next        10054982 f    CIL library: CIL module
 0001:000539b3       _FNT_Face_Done             100549b3 f    CIL library: CIL module
 0001:000539db       _FNT_Face_Init             100549db f    CIL library: CIL module
 0001:00053cfa       _FNT_Size_Select           10054cfa f    CIL library: CIL module
 0001:00053d3e       _FNT_Size_Request          10054d3e f    CIL library: CIL module
 0001:00053db6       _FNT_Load_Glyph            10054db6 f    CIL library: CIL module
 0001:00053fa1       _winfnt_get_header         10054fa1 f    CIL library: CIL module
 0001:00053fbe       _winfnt_get_service        10054fbe f    CIL library: CIL module
 0001:00053fcf       _pre_c_init                10054fcf f   MSVCRT:crtdll.obj
 0001:00054244       ___DllMainCRTStartup       10055244 f   MSVCRT:crtdll.obj

 Exports

  ordinal    name

        1    _FTC_CMapCache_Lookup
               exported name: FTC_CMapCache_Lookup
        2    _FTC_CMapCache_New
               exported name: FTC_CMapCache_New
        3    _FTC_ImageCache_Lookup
               exported name: FTC_ImageCache_Lookup
        4    _FTC_ImageCache_LookupScaler
               exported name: FTC_ImageCache_LookupScaler
        5    _FTC_ImageCache_New
               exported name: FTC_ImageCache_New
        6    _FTC_Manager_Done
               exported name: FTC_Manager_Done
        7    _FTC_Manager_LookupFace
               exported name: FTC_Manager_LookupFace
        8    _FTC_Manager_LookupSize
               exported name: FTC_Manager_LookupSize
        9    _FTC_Manager_New
               exported name: FTC_Manager_New
       10    _FTC_Manager_RemoveFaceID
               exported name: FTC_Manager_RemoveFaceID
       11    _FTC_Manager_Reset
               exported name: FTC_Manager_Reset
       12    _FTC_Node_Unref
               exported name: FTC_Node_Unref
       13    _FTC_SBitCache_Lookup
               exported name: FTC_SBitCache_Lookup
       14    _FTC_SBitCache_LookupScaler
               exported name: FTC_SBitCache_LookupScaler
       15    _FTC_SBitCache_New
               exported name: FTC_SBitCache_New
       16    _FT_Activate_Size
               exported name: FT_Activate_Size
       17    _FT_Add_Default_Modules
               exported name: FT_Add_Default_Modules
       18    _FT_Add_Module
               exported name: FT_Add_Module
       19    _FT_Angle_Diff
               exported name: FT_Angle_Diff
       20    _FT_Atan2
               exported name: FT_Atan2
       21    _FT_Attach_File
               exported name: FT_Attach_File
       22    _FT_Attach_Stream
               exported name: FT_Attach_Stream
       23    _FT_Bitmap_Convert
               exported name: FT_Bitmap_Convert
       24    _FT_Bitmap_Copy
               exported name: FT_Bitmap_Copy
       25    _FT_Bitmap_Done
               exported name: FT_Bitmap_Done
       26    _FT_Bitmap_Embolden
               exported name: FT_Bitmap_Embolden
       27    _FT_Bitmap_New
               exported name: FT_Bitmap_New
       28    _FT_CMap_Done
               exported name: FT_CMap_Done
       29    _FT_CMap_New
               exported name: FT_CMap_New
       30    _FT_CeilFix
               exported name: FT_CeilFix
       31    _FT_Cos
               exported name: FT_Cos
       32    _FT_DivFix
               exported name: FT_DivFix
       33    _FT_Done_Face
               exported name: FT_Done_Face
       34    _FT_Done_FreeType
               exported name: FT_Done_FreeType
       35    _FT_Done_Glyph
               exported name: FT_Done_Glyph
       36    _FT_Done_GlyphSlot
               exported name: FT_Done_GlyphSlot
       37    _FT_Done_Library
               exported name: FT_Done_Library
       38    _FT_Done_Memory
               exported name: FT_Done_Memory
       39    _FT_Done_Size
               exported name: FT_Done_Size
       40    _FT_Face_GetCharVariantIndex
               exported name: FT_Face_GetCharVariantIndex
       41    _FT_Face_GetCharVariantIsDefault
               exported name: FT_Face_GetCharVariantIsDefault
       42    _FT_Face_GetCharsOfVariant
               exported name: FT_Face_GetCharsOfVariant
       43    _FT_Face_GetVariantSelectors
               exported name: FT_Face_GetVariantSelectors
       44    _FT_Face_GetVariantsOfChar
               exported name: FT_Face_GetVariantsOfChar
       45    _FT_FloorFix
               exported name: FT_FloorFix
       46    _FT_Get_Advance
               exported name: FT_Get_Advance
       47    _FT_Get_Advances
               exported name: FT_Get_Advances
       48    _FT_Get_CMap_Format
               exported name: FT_Get_CMap_Format
       49    _FT_Get_CMap_Language_ID
               exported name: FT_Get_CMap_Language_ID
       50    _FT_Get_Char_Index
               exported name: FT_Get_Char_Index
       51    _FT_Get_Charmap_Index
               exported name: FT_Get_Charmap_Index
       52    _FT_Get_First_Char
               exported name: FT_Get_First_Char
       53    _FT_Get_Glyph
               exported name: FT_Get_Glyph
       54    _FT_Get_Glyph_Name
               exported name: FT_Get_Glyph_Name
       55    _FT_Get_Kerning
               exported name: FT_Get_Kerning
       56    _FT_Get_Module
               exported name: FT_Get_Module
       57    _FT_Get_Module_Interface
               exported name: FT_Get_Module_Interface
       58    _FT_Get_Name_Index
               exported name: FT_Get_Name_Index
       59    _FT_Get_Next_Char
               exported name: FT_Get_Next_Char
       60    _FT_Get_Postscript_Name
               exported name: FT_Get_Postscript_Name
       61    _FT_Get_Renderer
               exported name: FT_Get_Renderer
       62    _FT_Get_Sfnt_Name
               exported name: FT_Get_Sfnt_Name
       63    _FT_Get_Sfnt_Name_Count
               exported name: FT_Get_Sfnt_Name_Count
       64    _FT_Get_Sfnt_Table
               exported name: FT_Get_Sfnt_Table
       65    _FT_Get_SubGlyph_Info
               exported name: FT_Get_SubGlyph_Info
       66    _FT_Get_Track_Kerning
               exported name: FT_Get_Track_Kerning
       67    _FT_Get_TrueType_Engine_Type
               exported name: FT_Get_TrueType_Engine_Type
       68    _FT_GlyphLoader_Add
               exported name: FT_GlyphLoader_Add
       69    _FT_GlyphLoader_CheckPoints
               exported name: FT_GlyphLoader_CheckPoints
       70    _FT_GlyphLoader_CheckSubGlyphs
               exported name: FT_GlyphLoader_CheckSubGlyphs
       71    _FT_GlyphLoader_CopyPoints
               exported name: FT_GlyphLoader_CopyPoints
       72    _FT_GlyphLoader_CreateExtra
               exported name: FT_GlyphLoader_CreateExtra
       73    _FT_GlyphLoader_Done
               exported name: FT_GlyphLoader_Done
       74    _FT_GlyphLoader_New
               exported name: FT_GlyphLoader_New
       75    _FT_GlyphLoader_Prepare
               exported name: FT_GlyphLoader_Prepare
       76    _FT_GlyphLoader_Reset
               exported name: FT_GlyphLoader_Reset
       77    _FT_GlyphLoader_Rewind
               exported name: FT_GlyphLoader_Rewind
       78    _FT_GlyphSlot_Own_Bitmap
               exported name: FT_GlyphSlot_Own_Bitmap
       79    _FT_Glyph_Copy
               exported name: FT_Glyph_Copy
       80    _FT_Glyph_Get_CBox
               exported name: FT_Glyph_Get_CBox
       81    _FT_Glyph_Stroke
               exported name: FT_Glyph_Stroke
       82    _FT_Glyph_StrokeBorder
               exported name: FT_Glyph_StrokeBorder
       83    _FT_Glyph_To_Bitmap
               exported name: FT_Glyph_To_Bitmap
       84    _FT_Glyph_Transform
               exported name: FT_Glyph_Transform
       85    _FT_Hypot
               exported name: FT_Hypot
       86    _FT_Init_FreeType
               exported name: FT_Init_FreeType
       87    _FT_Library_Version
               exported name: FT_Library_Version
       88    _FT_List_Add
               exported name: FT_List_Add
       89    _FT_List_Finalize
               exported name: FT_List_Finalize
       90    _FT_List_Find
               exported name: FT_List_Find
       91    _FT_List_Insert
               exported name: FT_List_Insert
       92    _FT_List_Iterate
               exported name: FT_List_Iterate
       93    _FT_List_Remove
               exported name: FT_List_Remove
       94    _FT_List_Up
               exported name: FT_List_Up
       95    _FT_Load_Char
               exported name: FT_Load_Char
       96    _FT_Load_Glyph
               exported name: FT_Load_Glyph
       97    _FT_Load_Sfnt_Table
               exported name: FT_Load_Sfnt_Table
       98    _FT_Lookup_Renderer
               exported name: FT_Lookup_Renderer
       99    _FT_MSB
               exported name: FT_MSB
      100    _FT_Match_Size
               exported name: FT_Match_Size
      101    _FT_Matrix_Invert
               exported name: FT_Matrix_Invert
      102    _FT_Matrix_Multiply
               exported name: FT_Matrix_Multiply
      103    _FT_Matrix_Multiply_Scaled
               exported name: FT_Matrix_Multiply_Scaled
      104    _FT_Message
               exported name: FT_Message
      105    _FT_MulDiv
               exported name: FT_MulDiv
      106    _FT_MulDiv_No_Round
               exported name: FT_MulDiv_No_Round
      107    _FT_New_Face
               exported name: FT_New_Face
      108    _FT_New_GlyphSlot
               exported name: FT_New_GlyphSlot
      109    _FT_New_Library
               exported name: FT_New_Library
      110    _FT_New_Memory
               exported name: FT_New_Memory
      111    _FT_New_Memory_Face
               exported name: FT_New_Memory_Face
      112    _FT_New_Size
               exported name: FT_New_Size
      113    _FT_Open_Face
               exported name: FT_Open_Face
      114    _FT_Outline_Check
               exported name: FT_Outline_Check
      115    _FT_Outline_Copy
               exported name: FT_Outline_Copy
      116    _FT_Outline_Decompose
               exported name: FT_Outline_Decompose
      117    _FT_Outline_Done
               exported name: FT_Outline_Done
      118    _FT_Outline_Done_Internal
               exported name: FT_Outline_Done_Internal
      119    _FT_Outline_Embolden
               exported name: FT_Outline_Embolden
      120    _FT_Outline_EmboldenXY
               exported name: FT_Outline_EmboldenXY
      121    _FT_Outline_GetInsideBorder
               exported name: FT_Outline_GetInsideBorder
      122    _FT_Outline_GetOutsideBorder
               exported name: FT_Outline_GetOutsideBorder
      123    _FT_Outline_Get_Bitmap
               exported name: FT_Outline_Get_Bitmap
      124    _FT_Outline_Get_CBox
               exported name: FT_Outline_Get_CBox
      125    _FT_Outline_Get_Orientation
               exported name: FT_Outline_Get_Orientation
      126    _FT_Outline_New
               exported name: FT_Outline_New
      127    _FT_Outline_New_Internal
               exported name: FT_Outline_New_Internal
      128    _FT_Outline_Render
               exported name: FT_Outline_Render
      129    _FT_Outline_Reverse
               exported name: FT_Outline_Reverse
      130    _FT_Outline_Transform
               exported name: FT_Outline_Transform
      131    _FT_Outline_Translate
               exported name: FT_Outline_Translate
      132    _FT_Panic
               exported name: FT_Panic
      133    _FT_Property_Get
               exported name: FT_Property_Get
      134    _FT_Property_Set
               exported name: FT_Property_Set
      135    _FT_Raccess_Get_DataOffsets
               exported name: FT_Raccess_Get_DataOffsets
      136    _FT_Raccess_Get_HeaderInfo
               exported name: FT_Raccess_Get_HeaderInfo
      137    _FT_Raccess_Guess
               exported name: FT_Raccess_Guess
      138    _FT_Reference_Face
               exported name: FT_Reference_Face
      139    _FT_Reference_Library
               exported name: FT_Reference_Library
      140    _FT_Remove_Module
               exported name: FT_Remove_Module
      141    _FT_Render_Glyph
               exported name: FT_Render_Glyph
      142    _FT_Render_Glyph_Internal
               exported name: FT_Render_Glyph_Internal
      143    _FT_Request_Metrics
               exported name: FT_Request_Metrics
      144    _FT_Request_Size
               exported name: FT_Request_Size
      145    _FT_RoundFix
               exported name: FT_RoundFix
      146    _FT_Select_Charmap
               exported name: FT_Select_Charmap
      147    _FT_Select_Metrics
               exported name: FT_Select_Metrics
      148    _FT_Select_Size
               exported name: FT_Select_Size
      149    _FT_Set_Char_Size
               exported name: FT_Set_Char_Size
      150    _FT_Set_Charmap
               exported name: FT_Set_Charmap
      151    _FT_Set_Debug_Hook
               exported name: FT_Set_Debug_Hook
      152    _FT_Set_Pixel_Sizes
               exported name: FT_Set_Pixel_Sizes
      153    _FT_Set_Renderer
               exported name: FT_Set_Renderer
      154    _FT_Set_Transform
               exported name: FT_Set_Transform
      155    _FT_Sfnt_Table_Info
               exported name: FT_Sfnt_Table_Info
      156    _FT_Sin
               exported name: FT_Sin
      157    _FT_SqrtFixed
               exported name: FT_SqrtFixed
      158    _FT_Stream_Close
               exported name: FT_Stream_Close
      159    _FT_Stream_EnterFrame
               exported name: FT_Stream_EnterFrame
      160    _FT_Stream_ExitFrame
               exported name: FT_Stream_ExitFrame
      161    _FT_Stream_ExtractFrame
               exported name: FT_Stream_ExtractFrame
      162    _FT_Stream_Free
               exported name: FT_Stream_Free
      163    _FT_Stream_GetChar
               exported name: FT_Stream_GetChar
      164    _FT_Stream_GetULong
               exported name: FT_Stream_GetULong
      165    _FT_Stream_GetULongLE
               exported name: FT_Stream_GetULongLE
      166    _FT_Stream_GetUOffset
               exported name: FT_Stream_GetUOffset
      167    _FT_Stream_GetUShort
               exported name: FT_Stream_GetUShort
      168    _FT_Stream_GetUShortLE
               exported name: FT_Stream_GetUShortLE
      169    _FT_Stream_New
               exported name: FT_Stream_New
      170    _FT_Stream_Open
               exported name: FT_Stream_Open
      171    _FT_Stream_OpenBzip2
               exported name: FT_Stream_OpenBzip2
      172    _FT_Stream_OpenGzip
               exported name: FT_Stream_OpenGzip
      173    _FT_Stream_OpenLZW
               exported name: FT_Stream_OpenLZW
      174    _FT_Stream_OpenMemory
               exported name: FT_Stream_OpenMemory
      175    _FT_Stream_Pos
               exported name: FT_Stream_Pos
      176    _FT_Stream_Read
               exported name: FT_Stream_Read
      177    _FT_Stream_ReadAt
               exported name: FT_Stream_ReadAt
      178    _FT_Stream_ReadChar
               exported name: FT_Stream_ReadChar
      179    _FT_Stream_ReadFields
               exported name: FT_Stream_ReadFields
      180    _FT_Stream_ReadULong
               exported name: FT_Stream_ReadULong
      181    _FT_Stream_ReadULongLE
               exported name: FT_Stream_ReadULongLE
      182    _FT_Stream_ReadUOffset
               exported name: FT_Stream_ReadUOffset
      183    _FT_Stream_ReadUShort
               exported name: FT_Stream_ReadUShort
      184    _FT_Stream_ReadUShortLE
               exported name: FT_Stream_ReadUShortLE
      185    _FT_Stream_ReleaseFrame
               exported name: FT_Stream_ReleaseFrame
      186    _FT_Stream_Seek
               exported name: FT_Stream_Seek
      187    _FT_Stream_Skip
               exported name: FT_Stream_Skip
      188    _FT_Stream_TryRead
               exported name: FT_Stream_TryRead
      189    _FT_Stroker_BeginSubPath
               exported name: FT_Stroker_BeginSubPath
      190    _FT_Stroker_ConicTo
               exported name: FT_Stroker_ConicTo
      191    _FT_Stroker_CubicTo
               exported name: FT_Stroker_CubicTo
      192    _FT_Stroker_Done
               exported name: FT_Stroker_Done
      193    _FT_Stroker_EndSubPath
               exported name: FT_Stroker_EndSubPath
      194    _FT_Stroker_Export
               exported name: FT_Stroker_Export
      195    _FT_Stroker_ExportBorder
               exported name: FT_Stroker_ExportBorder
      196    _FT_Stroker_GetBorderCounts
               exported name: FT_Stroker_GetBorderCounts
      197    _FT_Stroker_GetCounts
               exported name: FT_Stroker_GetCounts
      198    _FT_Stroker_LineTo
               exported name: FT_Stroker_LineTo
      199    _FT_Stroker_New
               exported name: FT_Stroker_New
      200    _FT_Stroker_ParseOutline
               exported name: FT_Stroker_ParseOutline
      201    _FT_Stroker_Rewind
               exported name: FT_Stroker_Rewind
      202    _FT_Stroker_Set
               exported name: FT_Stroker_Set
      203    _FT_Tan
               exported name: FT_Tan
      204    _FT_Throw
               exported name: FT_Throw
      205    _FT_Trace_Get_Count
               exported name: FT_Trace_Get_Count
      206    _FT_Trace_Get_Name
               exported name: FT_Trace_Get_Name
      207    _FT_Vector_From_Polar
               exported name: FT_Vector_From_Polar
      208    _FT_Vector_Length
               exported name: FT_Vector_Length
      209    _FT_Vector_Polarize
               exported name: FT_Vector_Polarize
      210    _FT_Vector_Rotate
               exported name: FT_Vector_Rotate
      211    _FT_Vector_Transform
               exported name: FT_Vector_Transform
      212    _FT_Vector_Transform_Scaled
               exported name: FT_Vector_Transform_Scaled
      213    _FT_Vector_Unit
               exported name: FT_Vector_Unit
      214    _TT_New_Context
               exported name: TT_New_Context
      215    _TT_RunIns
               exported name: TT_RunIns
      216    _ft_corner_is_flat
               exported name: ft_corner_is_flat
      217    _ft_corner_orientation
               exported name: ft_corner_orientation
      218    _ft_debug_init
               exported name: ft_debug_init
      219    _ft_glyphslot_alloc_bitmap
               exported name: ft_glyphslot_alloc_bitmap
      220    _ft_glyphslot_free_bitmap
               exported name: ft_glyphslot_free_bitmap
      221    _ft_glyphslot_set_bitmap
               exported name: ft_glyphslot_set_bitmap
      222    _ft_highpow2
               exported name: ft_highpow2
      223    _ft_mem_alloc
               exported name: ft_mem_alloc
      224    _ft_mem_dup
               exported name: ft_mem_dup
      225    _ft_mem_free
               exported name: ft_mem_free
      226    _ft_mem_qalloc
               exported name: ft_mem_qalloc
      227    _ft_mem_qrealloc
               exported name: ft_mem_qrealloc
      228    _ft_mem_realloc
               exported name: ft_mem_realloc
      229    _ft_mem_strcpyn
               exported name: ft_mem_strcpyn
      230    _ft_mem_strdup
               exported name: ft_mem_strdup
      231    _ft_module_get_service
               exported name: ft_module_get_service
      232    _ft_service_list_lookup
               exported name: ft_service_list_lookup
      233    _ft_synthesize_vertical_metrics
               exported name: ft_synthesize_vertical_metrics
      234    _ft_validator_error
               exported name: ft_validator_error
      235    _ft_validator_init
               exported name: ft_validator_init
      236    _ft_validator_run
               exported name: ft_validator_run
