 libSDL2

 Timestamp is 526a9582 (Fri Oct 25 19:00:02 2013)

 Preferred load address is 10000000

 Start         Length     Name                   Class
 0001:00000000 0007af5aH .text                   CODE
 0002:00000000 00000434H .idata$5                DATA
 0002:00000434 00000004H .CRT$XCA                DATA
 0002:00000438 00000004H .CRT$XCZ                DATA
 0002:0000043c 00000004H .CRT$XIA                DATA
 0002:00000440 00000004H .CRT$XIAA               DATA
 0002:00000444 00000004H .CRT$XIC                DATA
 0002:00000448 00000004H .CRT$XIZ                DATA
 0002:00000450 0000b918H .rdata                  DATA
 0002:0000bd70 00000004H .rdata$sxdata           DATA
 0002:0000bd74 00000004H .rtc$IAA                DATA
 0002:0000bd78 00000004H .rtc$IZZ                DATA
 0002:0000bd7c 00000004H .rtc$TAA                DATA
 0002:0000bd80 00000004H .rtc$TZZ                DATA
 0002:0000bd88 00000084H .xdata$x                DATA
 0002:0000be0c 000000c8H .idata$2                DATA
 0002:0000bed4 00000014H .idata$3                DATA
 0002:0000bee8 00000434H .idata$4                DATA
 0002:0000c31c 000011a0H .idata$6                DATA
 0002:0000d4c0 000039a5H .edata                  DATA
 0003:00000000 00002530H .data                   DATA
 0003:00002530 0000b1b8H .bss                    DATA

  Address         Publics by Value              Rva+Base       Lib:Object

 0000:00000000       __except_list              00000000     <absolute>
 0000:00000001       ___safe_se_handler_count   00000001     <absolute>
 0000:00009876       __ldused                   00009876     <absolute>
 0000:00009876       __fltused                  00009876     <absolute>
 0000:00000000       ___ImageBase               10000000     <linker-defined>
 0001:00000000       _SDL_AtomicCAS             10001000 f   SDL_atomic.obj
 0001:00000000       _SDL_AtomicCASPtr          10001000 f   SDL_atomic.obj
 0001:00000037       _SDL_AtomicTryLock         10001037 f   SDL_spinlock.obj
 0001:00000049       _SDL_AtomicLock            10001049 f   SDL_spinlock.obj
 0001:00000062       _SDL_AtomicUnlock          10001062 f   SDL_spinlock.obj
 0001:00000089       _DUMMY_PumpEvents          10001089 f   SDL_nullevents.obj
 0001:000001ab       _SDL_RunAudio              100011ab f   SDL_audio.obj
 0001:0000045c       _SDL_GetNumAudioDrivers    1000145c f   SDL_audio.obj
 0001:00000460       _SDL_GetAudioDriver        10001460 f   SDL_audio.obj
 0001:00000476       _SDL_AudioInit             10001476 f   SDL_audio.obj
 0001:0000058b       _SDL_GetCurrentAudioDriver 1000158b f   SDL_audio.obj
 0001:0000064d       _SDL_GetNumAudioDevices    1000164d f   SDL_audio.obj
 0001:000006d6       _SDL_GetAudioDeviceName    100016d6 f   SDL_audio.obj
 0001:00000c17       _SDL_OpenAudio             10001c17 f   SDL_audio.obj
 0001:00000c81       _SDL_OpenAudioDevice       10001c81 f   SDL_audio.obj
 0001:00000c9f       _SDL_GetAudioDeviceStatus  10001c9f f   SDL_audio.obj
 0001:00000cc7       _SDL_GetAudioStatus        10001cc7 f   SDL_audio.obj
 0001:00000cd0       _SDL_PauseAudioDevice      10001cd0 f   SDL_audio.obj
 0001:00000cfc       _SDL_PauseAudio            10001cfc f   SDL_audio.obj
 0001:00000d0a       _SDL_LockAudioDevice       10001d0a f   SDL_audio.obj
 0001:00000d20       _SDL_LockAudio             10001d20 f   SDL_audio.obj
 0001:00000d29       _SDL_UnlockAudioDevice     10001d29 f   SDL_audio.obj
 0001:00000d3f       _SDL_UnlockAudio           10001d3f f   SDL_audio.obj
 0001:00000d48       _SDL_CloseAudioDevice      10001d48 f   SDL_audio.obj
 0001:00000d6b       _SDL_CloseAudio            10001d6b f   SDL_audio.obj
 0001:00000d74       _SDL_AudioQuit             10001d74 f   SDL_audio.obj
 0001:00000de9       _SDL_FirstAudioFormat      10001de9 f   SDL_audio.obj
 0001:00000e1b       _SDL_NextAudioFormat       10001e1b f   SDL_audio.obj
 0001:00000e49       _SDL_CalculateAudioSpec    10001e49 f   SDL_audio.obj
 0001:00000e73       _SDL_MixAudio              10001e73 f   SDL_audio.obj
 0001:000021ce       _SDL_ConvertAudio          100031ce f   SDL_audiocvt.obj
 0001:000023c0       _SDL_BuildAudioCVT         100033c0 f   SDL_audiocvt.obj
 0001:00020459       _SDL_MixAudioFormat        10021459 f   SDL_mixer.obj
 0001:0002134f       _SDL_LoadWAV_RW            1002234f f   SDL_wave.obj
 0001:00021804       _SDL_GetCPUCount           10022804 f   SDL_cpuinfo.obj
 0001:000218e8       _SDL_GetCPUCacheLineSize   100228e8 f   SDL_cpuinfo.obj
 0001:00021a62       _SDL_HasRDTSC              10022a62 f   SDL_cpuinfo.obj
 0001:00021a6e       _SDL_HasAltiVec            10022a6e f   SDL_cpuinfo.obj
 0001:00021a7c       _SDL_HasMMX                10022a7c f   SDL_cpuinfo.obj
 0001:00021a8b       _SDL_Has3DNow              10022a8b f   SDL_cpuinfo.obj
 0001:00021a9a       _SDL_HasSSE                10022a9a f   SDL_cpuinfo.obj
 0001:00021aa9       _SDL_HasSSE2               10022aa9 f   SDL_cpuinfo.obj
 0001:00021ab8       _SDL_HasSSE3               10022ab8 f   SDL_cpuinfo.obj
 0001:00021ac7       _SDL_HasSSE41              10022ac7 f   SDL_cpuinfo.obj
 0001:00021ad3       _SDL_HasSSE42              10022ad3 f   SDL_cpuinfo.obj
 0001:00021adf       _SDL_GetSystemRAM          10022adf f   SDL_cpuinfo.obj
 0001:00021b1d       _SDL_SendClipboardUpdate   10022b1d f   SDL_clipboardevents.obj
 0001:00021b5e       _SDL_SendDropFile          10022b5e f   SDL_dropevents.obj
 0001:00021bac       _SDL_StopEventLoop         10022bac f   SDL_events.obj
 0001:00021cae       _SDL_StartEventLoop        10022cae f   SDL_events.obj
 0001:00021dea       _SDL_PeepEvents            10022dea f   SDL_events.obj
 0001:00021f5d       _SDL_HasEvent              10022f5d f   SDL_events.obj
 0001:00021f7d       _SDL_HasEvents             10022f7d f   SDL_events.obj
 0001:00021f9d       _SDL_FlushEvent            10022f9d f   SDL_events.obj
 0001:00021fad       _SDL_FlushEvents           10022fad f   SDL_events.obj
 0001:00021ffa       _SDL_PumpEvents            10022ffa f   SDL_events.obj
 0001:00022041       _SDL_PollEvent             10023041 f   SDL_events.obj
 0001:0002204f       _SDL_WaitEvent             1002304f f   SDL_events.obj
 0001:0002205d       _SDL_WaitEventTimeout      1002305d f   SDL_events.obj
 0001:000220ce       _SDL_PushEvent             100230ce f   SDL_events.obj
 0001:00022137       _SDL_SetEventFilter        10023137 f   SDL_events.obj
 0001:0002215f       _SDL_GetEventFilter        1002315f f   SDL_events.obj
 0001:00022188       _SDL_AddEventWatch         10023188 f   SDL_events.obj
 0001:000221b1       _SDL_DelEventWatch         100231b1 f   SDL_events.obj
 0001:000221f3       _SDL_FilterEvents          100231f3 f   SDL_events.obj
 0001:0002223e       _SDL_EventState            1002323e f   SDL_events.obj
 0001:000222e1       _SDL_RegisterEvents        100232e1 f   SDL_events.obj
 0001:00022303       _SDL_SendSysWMEvent        10023303 f   SDL_events.obj
 0001:0002235a       _SDL_RecordGesture         1002335a f   SDL_gesture.obj
 0001:000223ef       _SDL_SaveAllDollarTemplates 100233ef f   SDL_gesture.obj
 0001:00022461       _SDL_SaveDollarTemplate    10023461 f   SDL_gesture.obj
 0001:000225df       _SDL_LoadDollarTemplates   100235df f   SDL_gesture.obj
 0001:00022bb0       _SDL_GestureAddTouch       10023bb0 f   SDL_gesture.obj
 0001:00022c55       _SDL_SendGestureMulti      10023c55 f   SDL_gesture.obj
 0001:00022d28       _SDL_GestureProcessEvent   10023d28 f   SDL_gesture.obj
 0001:00023096       _SDL_UCS4ToUTF8            10024096 f   SDL_keyboard.obj
 0001:000231fc       _SDL_GetKeyboardFocus      100241fc f   SDL_keyboard.obj
 0001:00023202       _SDL_SetKeyboardFocus      10024202 f   SDL_keyboard.obj
 0001:000232bd       _SDL_SendKeyboardKey       100242bd f   SDL_keyboard.obj
 0001:000234d4       _SDL_SendKeyboardText      100244d4 f   SDL_keyboard.obj
 0001:0002354d       _SDL_SendEditingText       1002454d f   SDL_keyboard.obj
 0001:000235c0       _SDL_GetKeyboardState      100245c0 f   SDL_keyboard.obj
 0001:000235d4       _SDL_GetModState           100245d4 f   SDL_keyboard.obj
 0001:000235dc       _SDL_SetModState           100245dc f   SDL_keyboard.obj
 0001:000235e8       _SDL_GetKeyFromScancode    100245e8 f   SDL_keyboard.obj
 0001:0002360f       _SDL_GetScancodeFromKey    1002460f f   SDL_keyboard.obj
 0001:0002362d       _SDL_GetScancodeName       1002462d f   SDL_keyboard.obj
 0001:0002365c       _SDL_GetScancodeFromName   1002465c f   SDL_keyboard.obj
 0001:000236a9       _SDL_GetKeyName            100246a9 f   SDL_keyboard.obj
 0001:00023710       _SDL_GetKeyFromName        10024710 f   SDL_keyboard.obj
 0001:0002381a       _SDL_GetMouseFocus         1002481a f   SDL_mouse.obj
 0001:00023820       _SDL_SetMouseFocus         10024820 f   SDL_mouse.obj
 0001:000238ea       _SDL_SendMouseMotion       100248ea f   SDL_mouse.obj
 0001:00023ab0       _SDL_SendMouseButton       10024ab0 f   SDL_mouse.obj
 0001:00023bab       _SDL_SendMouseWheel        10024bab f   SDL_mouse.obj
 0001:00023c1c       _SDL_MouseQuit             10024c1c f   SDL_mouse.obj
 0001:00023c66       _SDL_GetMouseState         10024c66 f   SDL_mouse.obj
 0001:00023c8c       _SDL_GetRelativeMouseState 10024c8c f   SDL_mouse.obj
 0001:00023cc0       _SDL_WarpMouseInWindow     10024cc0 f   SDL_mouse.obj
 0001:00023d02       _SDL_SetRelativeMouseMode  10024d02 f   SDL_mouse.obj
 0001:00023dd1       _SDL_GetRelativeMouseMode  10024dd1 f   SDL_mouse.obj
 0001:00023dd7       _SDL_CreateCursor          10024dd7 f   SDL_mouse.obj
 0001:00023eba       _SDL_CreateColorCursor     10024eba f   SDL_mouse.obj
 0001:00023f58       _SDL_CreateSystemCursor    10024f58 f   SDL_mouse.obj
 0001:00023f88       _SDL_SetCursor             10024f88 f   SDL_mouse.obj
 0001:00024007       _SDL_GetCursor             10025007 f   SDL_mouse.obj
 0001:0002400d       _SDL_GetDefaultCursor      1002500d f   SDL_mouse.obj
 0001:00024013       _SDL_FreeCursor            10025013 f   SDL_mouse.obj
 0001:0002406f       _SDL_ShowCursor            1002506f f   SDL_mouse.obj
 0001:000240b3       _SDL_SendQuit              100250b3 f   SDL_quit.obj
 0001:000240ed       _SDL_GetNumTouchDevices    100250ed f   SDL_touch.obj
 0001:000240f3       _SDL_GetTouchDevice        100250f3 f   SDL_touch.obj
 0001:00024153       _SDL_GetTouch              10025153 f   SDL_touch.obj
 0001:000241bd       _SDL_GetFinger             100251bd f   SDL_touch.obj
 0001:000241e1       _SDL_GetNumTouchFingers    100251e1 f   SDL_touch.obj
 0001:00024203       _SDL_GetTouchFinger        10025203 f   SDL_touch.obj
 0001:0002423f       _SDL_AddTouch              1002523f f   SDL_touch.obj
 0001:0002438b       _SDL_SendTouch             1002538b f   SDL_touch.obj
 0001:000244ff       _SDL_SendTouchMotion       100254ff f   SDL_touch.obj
 0001:0002463f       _SDL_DelTouch              1002563f f   SDL_touch.obj
 0001:000246ad       _SDL_TouchQuit             100256ad f   SDL_touch.obj
 0001:0002475d       _SDL_SendWindowEvent       1002575d f   SDL_windowevents.obj
 0001:00025008       _SDL_RWFromFile            10026008 f   SDL_rwops.obj
 0001:00025084       _SDL_RWFromFP              10026084 f   SDL_rwops.obj
 0001:000250c5       _SDL_RWFromMem             100260c5 f   SDL_rwops.obj
 0001:00025141       _SDL_RWFromConstMem        10026141 f   SDL_rwops.obj
 0001:000251bd       _SDL_AllocRW               100261bd f   SDL_rwops.obj
 0001:000251de       _SDL_ReadU8                100261de f   SDL_rwops.obj
 0001:000251fd       _SDL_ReadLE16              100261fd f   SDL_rwops.obj
 0001:0002521d       _SDL_ReadBE16              1002621d f   SDL_rwops.obj
 0001:00025247       _SDL_ReadLE32              10026247 f   SDL_rwops.obj
 0001:00025266       _SDL_ReadBE32              10026266 f   SDL_rwops.obj
 0001:000252a8       _SDL_ReadLE64              100262a8 f   SDL_rwops.obj
 0001:000252cf       _SDL_ReadBE64              100262cf f   SDL_rwops.obj
 0001:00025346       _SDL_WriteU8               10026346 f   SDL_rwops.obj
 0001:0002535b       _SDL_WriteLE16             1002635b f   SDL_rwops.obj
 0001:00025370       _SDL_WriteBE16             10026370 f   SDL_rwops.obj
 0001:00025395       _SDL_WriteLE32             10026395 f   SDL_rwops.obj
 0001:000253aa       _SDL_WriteBE32             100263aa f   SDL_rwops.obj
 0001:000253eb       _SDL_WriteLE64             100263eb f   SDL_rwops.obj
 0001:00025400       _SDL_WriteBE64             10026400 f   SDL_rwops.obj
 0001:00025473       _SDL_HapticInit            10026473 f   SDL_haptic.obj
 0001:000254fb       _SDL_NumHaptics            100264fb f   SDL_haptic.obj
 0001:00025503       _SDL_HapticName            10026503 f   SDL_haptic.obj
 0001:00025538       _SDL_HapticOpen            10026538 f   SDL_haptic.obj
 0001:00025636       _SDL_HapticOpened          10026636 f   SDL_haptic.obj
 0001:00025684       _SDL_HapticIndex           10026684 f   SDL_haptic.obj
 0001:0002569e       _SDL_MouseIsHaptic         1002669e f   SDL_haptic.obj
 0001:000256ad       _SDL_HapticOpenFromMouse   100266ad f   SDL_haptic.obj
 0001:000256cc       _SDL_JoystickIsHaptic      100266cc f   SDL_haptic.obj
 0001:000256f3       _SDL_HapticOpenFromJoystick 100266f3 f   SDL_haptic.obj
 0001:000257fd       _SDL_HapticClose           100267fd f   SDL_haptic.obj
 0001:00025887       _SDL_HapticNumEffects      10026887 f   SDL_haptic.obj
 0001:000258a1       _SDL_HapticNumEffectsPlaying 100268a1 f   SDL_haptic.obj
 0001:000258bb       _SDL_HapticQuery           100268bb f   SDL_haptic.obj
 0001:000258d2       _SDL_HapticNumAxes         100268d2 f   SDL_haptic.obj
 0001:000258ec       _SDL_HapticEffectSupported 100268ec f   SDL_haptic.obj
 0001:00025913       _SDL_HapticNewEffect       10026913 f   SDL_haptic.obj
 0001:000259c8       _SDL_HapticUpdateEffect    100269c8 f   SDL_haptic.obj
 0001:00025a37       _SDL_HapticRunEffect       10026a37 f   SDL_haptic.obj
 0001:00025a7b       _SDL_HapticStopEffect      10026a7b f   SDL_haptic.obj
 0001:00025abc       _SDL_HapticDestroyEffect   10026abc f   SDL_haptic.obj
 0001:00025af9       _SDL_HapticGetEffectStatus 10026af9 f   SDL_haptic.obj
 0001:00025b6a       _SDL_HapticSetGain         10026b6a f   SDL_haptic.obj
 0001:00025bf3       _SDL_HapticSetAutocenter   10026bf3 f   SDL_haptic.obj
 0001:00025c44       _SDL_HapticPause           10026c44 f   SDL_haptic.obj
 0001:00025c90       _SDL_HapticUnpause         10026c90 f   SDL_haptic.obj
 0001:00025cd0       _SDL_HapticStopAll         10026cd0 f   SDL_haptic.obj
 0001:00025cec       _SDL_HapticRumbleSupported 10026cec f   SDL_haptic.obj
 0001:00025d0d       _SDL_HapticRumbleInit      10026d0d f   SDL_haptic.obj
 0001:00025dbb       _SDL_HapticRumblePlay      10026dbb f   SDL_haptic.obj
 0001:00025e6f       _SDL_HapticRumbleStop      10026e6f f   SDL_haptic.obj
 0001:00025ea2       _SDL_GameControllerEventWatcher 10026ea2 f   SDL_gamecontroller.obj
 0001:000261b5       _SDL_PrivateGetControllerMappingForGUID 100271b5 f   SDL_gamecontroller.obj
 0001:000261d7       _SDL_PrivateGetControllerMapping 100271d7 f   SDL_gamecontroller.obj
 0001:00026233       _SDL_GameControllerGetAxisFromString 10027233 f   SDL_gamecontroller.obj
 0001:00026277       _SDL_GameControllerGetStringForAxis 10027277 f   SDL_gamecontroller.obj
 0001:0002628b       _SDL_GameControllerGetButtonFromString 1002728b f   SDL_gamecontroller.obj
 0001:000262cf       _SDL_GameControllerGetStringForButton 100272cf f   SDL_gamecontroller.obj
 0001:000262e3       _SDL_PrivateGameControllerParseButton 100272e3 f   SDL_gamecontroller.obj
 0001:000264c1       _SDL_PrivateLoadButtonMapping 100274c1 f   SDL_gamecontroller.obj
 0001:00026538       _SDL_PrivateGetControllerNameFromMappingString 10027538 f   SDL_gamecontroller.obj
 0001:000265a1       _SDL_PrivateGameControllerRefreshMapping 100275a1 f   SDL_gamecontroller.obj
 0001:00026606       _SDL_GameControllerAddMapping 10027606 f   SDL_gamecontroller.obj
 0001:00026794       _SDL_GameControllerMappingForGUID 10027794 f   SDL_gamecontroller.obj
 0001:00026829       _SDL_GameControllerMapping 10027829 f   SDL_gamecontroller.obj
 0001:000268c0       _SDL_GameControllerInit    100278c0 f   SDL_gamecontroller.obj
 0001:000268fd       _SDL_GameControllerNameForIndex 100278fd f   SDL_gamecontroller.obj
 0001:00026912       _SDL_IsGameController      10027912 f   SDL_gamecontroller.obj
 0001:00026923       _SDL_GameControllerOpen    10027923 f   SDL_gamecontroller.obj
 0001:00026a11       _SDL_GameControllerUpdate  10027a11 f   SDL_gamecontroller.obj
 0001:00026a16       _SDL_GameControllerGetAxis 10027a16 f   SDL_gamecontroller.obj
 0001:00026a74       _SDL_GameControllerGetButton 10027a74 f   SDL_gamecontroller.obj
 0001:00026aea       _SDL_GameControllerGetAttached 10027aea f   SDL_gamecontroller.obj
 0001:00026afc       _SDL_GameControllerName    10027afc f   SDL_gamecontroller.obj
 0001:00026b09       _SDL_GameControllerGetJoystick 10027b09 f   SDL_gamecontroller.obj
 0001:00026b15       _SDL_GameControllerGetBindForAxis 10027b15 f   SDL_gamecontroller.obj
 0001:00026b5c       _SDL_GameControllerGetBindForButton 10027b5c f   SDL_gamecontroller.obj
 0001:00026bc1       _SDL_GameControllerClose   10027bc1 f   SDL_gamecontroller.obj
 0001:00026c1d       _SDL_GameControllerQuit    10027c1d f   SDL_gamecontroller.obj
 0001:00026c74       _SDL_PrivateGameControllerAxis 10027c74 f   SDL_gamecontroller.obj
 0001:00026cc5       _SDL_PrivateGameControllerButton 10027cc5 f   SDL_gamecontroller.obj
 0001:00026d31       _SDL_GameControllerEventState 10027d31 f   SDL_gamecontroller.obj
 0001:00026dc2       _SDL_NumJoysticks          10027dc2 f   SDL_joystick.obj
 0001:00026dd8       _SDL_JoystickNameForIndex  10027dd8 f   SDL_joystick.obj
 0001:00026e05       _SDL_JoystickOpen          10027e05 f   SDL_joystick.obj
 0001:00026f9d       _SDL_PrivateJoystickValid  10027f9d f   SDL_joystick.obj
 0001:00026fba       _SDL_JoystickNumAxes       10027fba f   SDL_joystick.obj
 0001:00026fd4       _SDL_JoystickNumHats       10027fd4 f   SDL_joystick.obj
 0001:00026fee       _SDL_JoystickNumBalls      10027fee f   SDL_joystick.obj
 0001:00027008       _SDL_JoystickNumButtons    10028008 f   SDL_joystick.obj
 0001:00027022       _SDL_JoystickGetAxis       10028022 f   SDL_joystick.obj
 0001:00027057       _SDL_JoystickGetHat        10028057 f   SDL_joystick.obj
 0001:0002708b       _SDL_JoystickGetBall       1002808b f   SDL_joystick.obj
 0001:000270f1       _SDL_JoystickGetButton     100280f1 f   SDL_joystick.obj
 0001:00027125       _SDL_JoystickGetAttached   10028125 f   SDL_joystick.obj
 0001:0002714c       _SDL_JoystickInstanceID    1002814c f   SDL_joystick.obj
 0001:00027165       _SDL_JoystickName          10028165 f   SDL_joystick.obj
 0001:0002717c       _SDL_JoystickClose         1002817c f   SDL_joystick.obj
 0001:00027240       _SDL_PrivateJoystickAxis   10028240 f   SDL_joystick.obj
 0001:000272be       _SDL_PrivateJoystickHat    100282be f   SDL_joystick.obj
 0001:00027333       _SDL_PrivateJoystickButton 10028333 f   SDL_joystick.obj
 0001:000273b2       _SDL_JoystickUpdate        100283b2 f   SDL_joystick.obj
 0001:0002744c       _SDL_JoystickEventState    1002844c f   SDL_joystick.obj
 0001:000274c4       _SDL_JoystickGetDeviceGUID 100284c4 f   SDL_joystick.obj
 0001:00027527       _SDL_JoystickGetGUID       10028527 f   SDL_joystick.obj
 0001:00027563       _SDL_JoystickGetGUIDString 10028563 f   SDL_joystick.obj
 0001:000275e2       _SDL_JoystickGetGUIDFromString 100285e2 f   SDL_joystick.obj
 0001:0002764a       _SDL_uclibc_copysign       1002864a f   s_copysign.obj
 0001:00027677       _SDL_uclibc_scalbn         10028677 f   s_scalbn.obj
 0001:00027767       _SDL_GetPowerInfo          10028767 f   SDL_power.obj
 0001:000277b1       _SDL_GetNumRenderDrivers   100287b1 f   SDL_render.obj
 0001:000277b5       _SDL_GetRenderDriverInfo   100287b5 f   SDL_render.obj
 0001:00027a29       _SDL_CreateWindowAndRenderer 10028a29 f   SDL_render.obj
 0001:00027a78       _SDL_CreateRenderer        10028a78 f   SDL_render.obj
 0001:00027beb       _SDL_CreateSoftwareRenderer 10028beb f   SDL_render.obj
 0001:00027c1d       _SDL_GetRenderer           10028c1d f   SDL_render.obj
 0001:00027c2e       _SDL_GetRendererInfo       10028c2e f   SDL_render.obj
 0001:00027c61       _SDL_GetRendererOutputSize 10028c61 f   SDL_render.obj
 0001:00027d92       _SDL_CreateTexture         10028d92 f   SDL_render.obj
 0001:00027feb       _SDL_CreateTextureFromSurface 10028feb f   SDL_render.obj
 0001:000281b7       _SDL_QueryTexture          100291b7 f   SDL_render.obj
 0001:0002820d       _SDL_SetTextureColorMod    1002920d f   SDL_render.obj
 0001:00028286       _SDL_GetTextureColorMod    10029286 f   SDL_render.obj
 0001:000282cf       _SDL_SetTextureAlphaMod    100292cf f   SDL_render.obj
 0001:00028330       _SDL_GetTextureAlphaMod    10029330 f   SDL_render.obj
 0001:0002835f       _SDL_SetTextureBlendMode   1002935f f   SDL_render.obj
 0001:000283ac       _SDL_GetTextureBlendMode   100293ac f   SDL_render.obj
 0001:000285fb       _SDL_UpdateTexture         100295fb f   SDL_render.obj
 0001:000287c7       _SDL_UpdateYUVTexture      100297c7 f   SDL_render.obj
 0001:000289ad       _SDL_LockTexture           100299ad f   SDL_render.obj
 0001:00028b35       _SDL_UnlockTexture         10029b35 f   SDL_render.obj
 0001:00028b8a       _SDL_RenderTargetSupported 10029b8a f   SDL_render.obj
 0001:00028ba5       _SDL_SetRenderTarget       10029ba5 f   SDL_render.obj
 0001:00028d43       _SDL_GetRenderTarget       10029d43 f   SDL_render.obj
 0001:00028ea4       _SDL_RenderSetLogicalSize  10029ea4 f   SDL_render.obj
 0001:00028f1b       _SDL_RenderGetLogicalSize  10029f1b f   SDL_render.obj
 0001:00028f58       _SDL_RenderSetViewport     10029f58 f   SDL_render.obj
 0001:00029037       _SDL_RenderGetViewport     1002a037 f   SDL_render.obj
 0001:000290b0       _SDL_RenderSetClipRect     1002a0b0 f   SDL_render.obj
 0001:00029171       _SDL_RenderGetClipRect     1002a171 f   SDL_render.obj
 0001:000291ea       _SDL_RenderSetScale        1002a1ea f   SDL_render.obj
 0001:00029220       _SDL_RenderGetScale        1002a220 f   SDL_render.obj
 0001:0002925d       _SDL_SetRenderDrawColor    1002a25d f   SDL_render.obj
 0001:000292a7       _SDL_GetRenderDrawColor    1002a2a7 f   SDL_render.obj
 0001:00029309       _SDL_SetRenderDrawBlendMode 1002a309 f   SDL_render.obj
 0001:00029335       _SDL_GetRenderDrawBlendMode 1002a335 f   SDL_render.obj
 0001:00029363       _SDL_RenderClear           1002a363 f   SDL_render.obj
 0001:00029394       _SDL_RenderDrawPoint       1002a394 f   SDL_render.obj
 0001:00029422       _SDL_RenderDrawPoints      1002a422 f   SDL_render.obj
 0001:000294fe       _SDL_RenderDrawLine        1002a4fe f   SDL_render.obj
 0001:0002969a       _SDL_RenderDrawLines       1002a69a f   SDL_render.obj
 0001:00029779       _SDL_RenderDrawRect        1002a779 f   SDL_render.obj
 0001:00029816       _SDL_RenderDrawRects       1002a816 f   SDL_render.obj
 0001:0002988d       _SDL_RenderFillRect        1002a88d f   SDL_render.obj
 0001:000298fb       _SDL_RenderFillRects       1002a8fb f   SDL_render.obj
 0001:000299c9       _SDL_RenderCopy            1002a9c9 f   SDL_render.obj
 0001:00029b27       _SDL_RenderCopyEx          1002ab27 f   SDL_render.obj
 0001:00029cc7       _SDL_RenderReadPixels      1002acc7 f   SDL_render.obj
 0001:00029de5       _SDL_RenderPresent         1002ade5 f   SDL_render.obj
 0001:00029e10       _SDL_DestroyTexture        1002ae10 f   SDL_render.obj
 0001:00029eab       _SDL_DestroyRenderer       1002aeab f   SDL_render.obj
 0001:00029f0f       _SDL_GL_BindTexture        1002af0f f   SDL_render.obj
 0001:00029f60       _SDL_GL_UnbindTexture      1002af60 f   SDL_render.obj
 0001:0002b402       _SDL_SW_CreateYUVTexture   1002c402 f   SDL_yuv_sw.obj
 0001:0002b5bc       _SDL_SW_UpdateYUVTexture   1002c5bc f   SDL_yuv_sw.obj
 0001:0002b810       _SDL_SW_UpdateYUVTexturePlanar 1002c810 f   SDL_yuv_sw.obj
 0001:0002b99e       _SDL_SW_CopyYUVToRGB       1002c99e f   SDL_yuv_sw.obj
 0001:0002bbfe       _SDL_SW_DestroyYUVTexture  1002cbfe f   SDL_yuv_sw.obj
 0001:0002bc30       _SDL_setenv                1002cc30 f   SDL_getenv.obj
 0001:0002bc73       _SDL_getenv                1002cc73 f   SDL_getenv.obj
 0001:0002bd65       _SDL_iconv_open            1002cd65 f   SDL_iconv.obj
 0001:0002be1f       _SDL_iconv                 1002ce1f f   SDL_iconv.obj
 0001:0002c6eb       _SDL_iconv_close           1002d6eb f   SDL_iconv.obj
 0001:0002c700       _SDL_iconv_string          1002d700 f   SDL_iconv.obj
 0001:0002c805       _SDL_malloc                1002d805 f   SDL_malloc.obj
 0001:0002c80b       _SDL_calloc                1002d80b f   SDL_malloc.obj
 0001:0002c811       _SDL_realloc               1002d811 f   SDL_malloc.obj
 0001:0002c817       _SDL_free                  1002d817 f   SDL_malloc.obj
 0001:0002c817       _SDL_FreeWAV               1002d817 f   SDL_wave.obj
 0001:0002c817       _SDL_FreeRW                1002d817 f   SDL_rwops.obj
 0001:0002c81d       _SDL_qsort                 1002d81d f   SDL_qsort.obj
 0001:0002c823       _SDL_atan                  1002d823 f   SDL_stdlib.obj
 0001:0002c82c       _SDL_atan2                 1002d82c f   SDL_stdlib.obj
 0001:0002c839       _SDL_ceil                  1002d839 f   SDL_stdlib.obj
 0001:0002c84b       _SDL_copysign              1002d84b f   SDL_stdlib.obj
 0001:0002c866       _SDL_cos                   1002d866 f   SDL_stdlib.obj
 0001:0002c86f       _SDL_cosf                  1002d86f f   SDL_stdlib.obj
 0001:0002c882       _SDL_fabs                  1002d882 f   SDL_stdlib.obj
 0001:0002c889       _SDL_floor                 1002d889 f   SDL_stdlib.obj
 0001:0002c89a       _SDL_log                   1002d89a f   SDL_stdlib.obj
 0001:0002c8a3       _SDL_pow                   1002d8a3 f   SDL_stdlib.obj
 0001:0002c8b0       _SDL_scalbn                1002d8b0 f   SDL_stdlib.obj
 0001:0002c8cd       _SDL_sin                   1002d8cd f   SDL_stdlib.obj
 0001:0002c8d6       _SDL_sinf                  1002d8d6 f   SDL_stdlib.obj
 0001:0002c8e9       _SDL_sqrt                  1002d8e9 f   SDL_stdlib.obj
 0001:0002c8f2       _SDL_abs                   1002d8f2 f   SDL_stdlib.obj
 0001:0002c8fc       _SDL_isdigit               1002d8fc f   SDL_stdlib.obj
 0001:0002c902       _SDL_isspace               1002d902 f   SDL_stdlib.obj
 0001:0002c908       _SDL_toupper               1002d908 f   SDL_stdlib.obj
 0001:0002c90e       _SDL_tolower               1002d90e f   SDL_stdlib.obj
 0001:0002ccf2       _SDL_memset                1002dcf2 f   SDL_string.obj
 0001:0002ccf7       _SDL_memcpy                1002dcf7 f   SDL_string.obj
 0001:0002ccfc       _SDL_memmove               1002dcfc f   SDL_string.obj
 0001:0002cd02       _SDL_memcmp                1002dd02 f   SDL_string.obj
 0001:0002cd1e       _SDL_strlen                1002dd1e f   SDL_string.obj
 0001:0002cd2f       _SDL_wcslen                1002dd2f f   SDL_string.obj
 0001:0002cd44       _SDL_wcslcpy               1002dd44 f   SDL_string.obj
 0001:0002cd83       _SDL_wcslcat               1002dd83 f   SDL_string.obj
 0001:0002cdbf       _SDL_strlcpy               1002ddbf f   SDL_string.obj
 0001:0002ce01       _SDL_utf8strlcpy           1002de01 f   SDL_string.obj
 0001:0002ce9c       _SDL_strlcat               1002de9c f   SDL_string.obj
 0001:0002cee7       _SDL_strdup                1002dee7 f   SDL_string.obj
 0001:0002cf1d       _SDL_strrev                1002df1d f   SDL_string.obj
 0001:0002cf23       _SDL_strupr                1002df23 f   SDL_string.obj
 0001:0002cf29       _SDL_strlwr                1002df29 f   SDL_string.obj
 0001:0002cf2f       _SDL_strchr                1002df2f f   SDL_string.obj
 0001:0002cf35       _SDL_strrchr               1002df35 f   SDL_string.obj
 0001:0002cf3b       _SDL_strstr                1002df3b f   SDL_string.obj
 0001:0002cf41       _SDL_itoa                  1002df41 f   SDL_string.obj
 0001:0002cf41       _SDL_ltoa                  1002df41 f   SDL_string.obj
 0001:0002cf47       _SDL_ultoa                 1002df47 f   SDL_string.obj
 0001:0002cf47       _SDL_uitoa                 1002df47 f   SDL_string.obj
 0001:0002cf4d       _SDL_lltoa                 1002df4d f   SDL_string.obj
 0001:0002cfdb       _SDL_ulltoa                1002dfdb f   SDL_string.obj
 0001:0002d047       _SDL_atoi                  1002e047 f   SDL_string.obj
 0001:0002d04d       _SDL_atof                  1002e04d f   SDL_string.obj
 0001:0002d053       _SDL_strtol                1002e053 f   SDL_string.obj
 0001:0002d059       _SDL_strtoul               1002e059 f   SDL_string.obj
 0001:0002d05f       _SDL_strtoll               1002e05f f   SDL_string.obj
 0001:0002d0c0       _SDL_strtoull              1002e0c0 f   SDL_string.obj
 0001:0002d121       _SDL_strtod                1002e121 f   SDL_string.obj
 0001:0002d127       _SDL_strcmp                1002e127 f   SDL_string.obj
 0001:0002d152       _SDL_strncmp               1002e152 f   SDL_string.obj
 0001:0002d158       _SDL_strcasecmp            1002e158 f   SDL_string.obj
 0001:0002d15e       _SDL_strncasecmp           1002e15e f   SDL_string.obj
 0001:0002d164       _SDL_sscanf                1002e164 f   SDL_string.obj
 0001:0002d546       _SDL_snprintf              1002e546 f   SDL_string.obj
 0001:0002d838       _SDL_vsnprintf             1002e838 f   SDL_string.obj
 0001:0002db93       _SDL_TLSCreate             1002eb93 f   SDL_thread.obj
 0001:0002dba1       _SDL_TLSGet                1002eba1 f   SDL_thread.obj
 0001:0002dbbe       _SDL_TLSSet                1002ebbe f   SDL_thread.obj
 0001:0002dc57       _SDL_Generic_GetTLSData    1002ec57 f   SDL_thread.obj
 0001:0002dcd0       _SDL_Generic_SetTLSData    1002ecd0 f   SDL_thread.obj
 0001:0002dd66       _SDL_GetErrBuf             1002ed66 f   SDL_thread.obj
 0001:0002de3a       _SDL_RunThread             1002ee3a f   SDL_thread.obj
 0001:0002deaa       _SDL_CreateThread          1002eeaa f   SDL_thread.obj
 0001:0002dfb3       _SDL_GetThreadID           1002efb3 f   SDL_thread.obj
 0001:0002dfc4       _SDL_GetThreadName         1002efc4 f   SDL_thread.obj
 0001:0002dfd6       _SDL_SetThreadPriority     1002efd6 f   SDL_thread.obj
 0001:0002e00e       _SDL_WaitThread            1002f00e f   SDL_thread.obj
 0001:0002e1b4       _SDL_TimerInit             1002f1b4 f   SDL_timer.obj
 0001:0002e22b       _SDL_TimerQuit             1002f22b f   SDL_timer.obj
 0001:0002e2e5       _SDL_AddTimer              1002f2e5 f   SDL_timer.obj
 0001:0002e414       _SDL_RemoveTimer           1002f414 f   SDL_timer.obj
 0001:0002e6c9       _SDL_CalculateBlit         1002f6c9 f   SDL_blit.obj
 0001:0002f3f2       _SDL_CalculateBlit0        100303f2 f   SDL_blit_0.obj
 0001:000320eb       _SDL_CalculateBlit1        100330eb f   SDL_blit_1.obj
 0001:000388d9       _SDL_CalculateBlitA        100398d9 f   SDL_blit_A.obj
 0001:00044f0b       _SDL_BlitCopy              10045f0b f   SDL_blit_copy.obj
 0001:0004d014       _SDL_CalculateBlitN        1004e014 f   SDL_blit_N.obj
 0001:0004d21e       _SDL_Blit_Slow             1004e21e f   SDL_blit_slow.obj
 0001:0004d961       _SDL_LoadBMP_RW            1004e961 f   SDL_bmp.obj
 0001:0004df3b       _SDL_SaveBMP_RW            1004ef3b f   SDL_bmp.obj
 0001:0004e31e       _SDL_SetClipboardText      1004f31e f   SDL_clipboard.obj
 0001:0004e361       _SDL_GetClipboardText      1004f361 f   SDL_clipboard.obj
 0001:0004e38c       _SDL_HasClipboardText      1004f38c f   SDL_clipboard.obj
 0001:0004e9a4       _SDL_FillRect              1004f9a4 f   SDL_fillrect.obj
 0001:0004eba8       _SDL_FillRects             1004fba8 f   SDL_fillrect.obj
 0001:0004ebef       _SDL_GetPixelFormatName    1004fbef f   SDL_pixels.obj
 0001:0004edf8       _SDL_PixelFormatEnumToMasks 1004fdf8 f   SDL_pixels.obj
 0001:0004f040       _SDL_MasksToPixelFormatEnum 10050040 f   SDL_pixels.obj
 0001:0004f487       _SDL_AllocFormat           10050487 f   SDL_pixels.obj
 0001:0004f51c       _SDL_InitFormat            1005051c f   SDL_pixels.obj
 0001:0004f656       _SDL_FreeFormat            10050656 f   SDL_pixels.obj
 0001:0004f6ca       _SDL_AllocPalette          100506ca f   SDL_pixels.obj
 0001:0004f73f       _SDL_SetPixelFormatPalette 1005073f f   SDL_pixels.obj
 0001:0004f794       _SDL_SetPaletteColors      10050794 f   SDL_pixels.obj
 0001:0004f7e9       _SDL_FreePalette           100507e9 f   SDL_pixels.obj
 0001:0004f820       _SDL_FindColor             10050820 f   SDL_pixels.obj
 0001:0004f8a9       _SDL_MapRGB                100508a9 f   SDL_pixels.obj
 0001:0004f906       _SDL_MapRGBA               10050906 f   SDL_pixels.obj
 0001:0004f971       _SDL_GetRGB                10050971 f   SDL_pixels.obj
 0001:0004fa2a       _SDL_GetRGBA               10050a2a f   SDL_pixels.obj
 0001:0004fe34       _SDL_InvalidateMap         10050e34 f   SDL_pixels.obj
 0001:0004fe69       _SDL_MapSurface            10050e69 f   SDL_pixels.obj
 0001:0004ffeb       _SDL_CalculateGammaRamp    10050feb f   SDL_pixels.obj
 0001:000500c8       _SDL_HasIntersection       100510c8 f   SDL_rect.obj
 0001:00050157       _SDL_IntersectRect         10051157 f   SDL_rect.obj
 0001:0005021b       _SDL_UnionRect             1005121b f   SDL_rect.obj
 0001:000502dc       _SDL_EnclosePoints         100512dc f   SDL_rect.obj
 0001:0005047f       _SDL_IntersectRectAndLine  1005147f f   SDL_rect.obj
 0001:0005076d       _SDL_GetSpanEnclosingRect  1005176d f   SDL_rect.obj
 0001:00051879       _SDL_RLEBlit               10052879 f   SDL_RLEaccel.obj
 0001:00052ae3       _SDL_RLEAlphaBlit          10053ae3 f   SDL_RLEaccel.obj
 0001:00053b92       _SDL_RLESurface            10054b92 f   SDL_RLEaccel.obj
 0001:00053d5c       _SDL_UnRLESurface          10054d5c f   SDL_RLEaccel.obj
 0001:00053e0c       _SDL_CreateShapedWindow    10054e0c f   SDL_shape.obj
 0001:00053e7d       _SDL_IsShapedWindow        10054e7d f   SDL_shape.obj
 0001:000540ab       _SDL_CalculateShapeTree    100550ab f   SDL_shape.obj
 0001:00054107       _SDL_TraverseShapeTree     10055107 f   SDL_shape.obj
 0001:0005414a       _SDL_FreeShapeTree         1005514a f   SDL_shape.obj
 0001:00054191       _SDL_SetWindowShape        10055191 f   SDL_shape.obj
 0001:0005421c       _SDL_GetShapedWindowMode   1005521c f   SDL_shape.obj
 0001:000543f1       _SDL_SoftStretch           100553f1 f   SDL_stretch.obj
 0001:00054651       _SDL_CreateRGBSurface      10055651 f   SDL_surface.obj
 0001:00054814       _SDL_CreateRGBSurfaceFrom  10055814 f   SDL_surface.obj
 0001:00054865       _SDL_SetSurfacePalette     10055865 f   SDL_surface.obj
 0001:0005488a       _SDL_SetSurfaceRLE         1005588a f   SDL_surface.obj
 0001:000548c7       _SDL_SetColorKey           100558c7 f   SDL_surface.obj
 0001:000549bf       _SDL_GetColorKey           100559bf f   SDL_surface.obj
 0001:00054b06       _SDL_SetSurfaceColorMod    10055b06 f   SDL_surface.obj
 0001:00054b69       _SDL_GetSurfaceColorMod    10055b69 f   SDL_surface.obj
 0001:00054ba8       _SDL_SetSurfaceAlphaMod    10055ba8 f   SDL_surface.obj
 0001:00054bea       _SDL_GetSurfaceAlphaMod    10055bea f   SDL_surface.obj
 0001:00054c09       _SDL_SetSurfaceBlendMode   10055c09 f   SDL_surface.obj
 0001:00054c73       _SDL_GetSurfaceBlendMode   10055c73 f   SDL_surface.obj
 0001:00054cbd       _SDL_SetClipRect           10055cbd f   SDL_surface.obj
 0001:00054d0f       _SDL_GetClipRect           10055d0f f   SDL_surface.obj
 0001:00054d2b       _SDL_LowerBlit             10055d2b f   SDL_surface.obj
 0001:00054d8a       _SDL_UpperBlit             10055d8a f   SDL_surface.obj
 0001:00054f27       _SDL_UpperBlitScaled       10055f27 f   SDL_surface.obj
 0001:000550a3       _SDL_LowerBlitScaled       100560a3 f   SDL_surface.obj
 0001:00055200       _SDL_LockSurface           10056200 f   SDL_surface.obj
 0001:0005522d       _SDL_UnlockSurface         1005622d f   SDL_surface.obj
 0001:00055252       _SDL_ConvertSurface        10056252 f   SDL_surface.obj
 0001:000554ee       _SDL_ConvertSurfaceFormat  100564ee f   SDL_surface.obj
 0001:000555ca       _SDL_ConvertPixels         100565ca f   SDL_surface.obj
 0001:00055723       _SDL_FreeSurface           10056723 f   SDL_surface.obj
 0001:00055ba4       _SDL_GetNumVideoDrivers    10056ba4 f   SDL_video.obj
 0001:00055ba8       _SDL_GetVideoDriver        10056ba8 f   SDL_video.obj
 0001:00055bbe       _SDL_VideoInit             10056bbe f   SDL_video.obj
 0001:00055e31       _SDL_GetCurrentVideoDriver 10056e31 f   SDL_video.obj
 0001:00055e45       _SDL_AddVideoDisplay       10056e45 f   SDL_video.obj
 0001:00055ee9       _SDL_GetNumVideoDisplays   10056ee9 f   SDL_video.obj
 0001:00055f2a       _SDL_GetDisplayDriverData  10056f2a f   SDL_video.obj
 0001:00055f6e       _SDL_GetDisplayName        10056f6e f   SDL_video.obj
 0001:00055fb3       _SDL_GetDisplayBounds      10056fb3 f   SDL_video.obj
 0001:0005604b       _SDL_AddDisplayMode        1005704b f   SDL_video.obj
 0001:0005610a       _SDL_GetNumDisplayModes    1005710a f   SDL_video.obj
 0001:00056156       _SDL_GetDisplayMode        10057156 f   SDL_video.obj
 0001:000561e0       _SDL_GetDesktopDisplayMode 100571e0 f   SDL_video.obj
 0001:00056239       _SDL_GetCurrentDisplayMode 10057239 f   SDL_video.obj
 0001:000563f0       _SDL_GetClosestDisplayMode 100573f0 f   SDL_video.obj
 0001:00056513       _SDL_GetWindowDisplayIndex 10057513 f   SDL_video.obj
 0001:000566ac       _SDL_GetDisplayForWindow   100576ac f   SDL_video.obj
 0001:000566cd       _SDL_SetWindowDisplayMode  100576cd f   SDL_video.obj
 0001:0005671d       _SDL_GetWindowDisplayMode  1005771d f   SDL_video.obj
 0001:000567f0       _SDL_GetWindowPixelFormat  100577f0 f   SDL_video.obj
 0001:000569f9       _SDL_CreateWindow          100579f9 f   SDL_video.obj
 0001:00056beb       _SDL_CreateWindowFrom      10057beb f   SDL_video.obj
 0001:00056c7a       _SDL_RecreateWindow        10057c7a f   SDL_video.obj
 0001:00056db9       _SDL_GetWindowID           10057db9 f   SDL_video.obj
 0001:00056dec       _SDL_GetWindowFromID       10057dec f   SDL_video.obj
 0001:00056e10       _SDL_GetWindowFlags        10057e10 f   SDL_video.obj
 0001:00056e43       _SDL_SetWindowTitle        10057e43 f   SDL_video.obj
 0001:00056eb8       _SDL_GetWindowTitle        10057eb8 f   SDL_video.obj
 0001:00056ef5       _SDL_SetWindowIcon         10057ef5 f   SDL_video.obj
 0001:00056f62       _SDL_SetWindowData         10057f62 f   SDL_video.obj
 0001:00057051       _SDL_GetWindowData         10058051 f   SDL_video.obj
 0001:000570cb       _SDL_SetWindowPosition     100580cb f   SDL_video.obj
 0001:000571e5       _SDL_GetWindowPosition     100581e5 f   SDL_video.obj
 0001:0005724c       _SDL_SetWindowBordered     1005824c f   SDL_video.obj
 0001:000572bb       _SDL_SetWindowSize         100582bb f   SDL_video.obj
 0001:00057345       _SDL_GetWindowSize         10058345 f   SDL_video.obj
 0001:0005738b       _SDL_SetWindowMinimumSize  1005838b f   SDL_video.obj
 0001:00057422       _SDL_GetWindowMinimumSize  10058422 f   SDL_video.obj
 0001:00057468       _SDL_SetWindowMaximumSize  10058468 f   SDL_video.obj
 0001:000574ff       _SDL_GetWindowMaximumSize  100584ff f   SDL_video.obj
 0001:00057545       _SDL_ShowWindow            10058545 f   SDL_video.obj
 0001:00057597       _SDL_HideWindow            10058597 f   SDL_video.obj
 0001:000575fb       _SDL_RaiseWindow           100585fb f   SDL_video.obj
 0001:0005763b       _SDL_MaximizeWindow        1005863b f   SDL_video.obj
 0001:0005767b       _SDL_MinimizeWindow        1005867b f   SDL_video.obj
 0001:000576cf       _SDL_RestoreWindow         100586cf f   SDL_video.obj
 0001:0005770f       _SDL_SetWindowFullscreen   1005870f f   SDL_video.obj
 0001:000577ff       _SDL_GetWindowSurface      100587ff f   SDL_video.obj
 0001:00057866       _SDL_UpdateWindowSurface   10058866 f   SDL_video.obj
 0001:000578c3       _SDL_UpdateWindowSurfaceRects 100588c3 f   SDL_video.obj
 0001:00057917       _SDL_SetWindowBrightness   10058917 f   SDL_video.obj
 0001:00057986       _SDL_GetWindowBrightness   10058986 f   SDL_video.obj
 0001:000579b9       _SDL_SetWindowGammaRamp    100589b9 f   SDL_video.obj
 0001:00057a98       _SDL_GetWindowGammaRamp    10058a98 f   SDL_video.obj
 0001:00057bca       _SDL_UpdateWindowGrab      10058bca f   SDL_video.obj
 0001:00057bf9       _SDL_SetWindowGrab         10058bf9 f   SDL_video.obj
 0001:00057c5b       _SDL_GetWindowGrab         10058c5b f   SDL_video.obj
 0001:00057c94       _SDL_OnWindowResized       10058c94 f   SDL_video.obj
 0001:00057caa       _SDL_OnWindowRestored      10058caa f   SDL_video.obj
 0001:00057ccd       _SDL_OnWindowFocusGained   10058ccd f   SDL_video.obj
 0001:00057d21       _SDL_OnWindowFocusLost     10058d21 f   SDL_video.obj
 0001:00057d68       _SDL_GetFocusWindow        10058d68 f   SDL_video.obj
 0001:00057d8c       _SDL_DestroyWindow         10058d8c f   SDL_video.obj
 0001:00057ec4       _SDL_IsScreenSaverEnabled  10058ec4 f   SDL_video.obj
 0001:00057edd       _SDL_EnableScreenSaver     10058edd f   SDL_video.obj
 0001:00057f03       _SDL_DisableScreenSaver    10058f03 f   SDL_video.obj
 0001:00057f2c       _SDL_VideoQuit             10058f2c f   SDL_video.obj
 0001:0005806f       _SDL_GL_LoadLibrary        1005906f f   SDL_video.obj
 0001:000580fe       _SDL_GL_GetProcAddress     100590fe f   SDL_video.obj
 0001:00058147       _SDL_GL_UnloadLibrary      10059147 f   SDL_video.obj
 0001:0005817b       _SDL_GL_ExtensionSupported 1005917b f   SDL_video.obj
 0001:0005828d       _SDL_GL_SetAttribute       1005928d f   SDL_video.obj
 0001:000584a5       _SDL_GL_GetAttribute       100594a5 f   SDL_video.obj
 0001:000586cd       _SDL_GL_CreateContext      100596cd f   SDL_video.obj
 0001:00058758       _SDL_GL_MakeCurrent        10059758 f   SDL_video.obj
 0001:00058811       _SDL_GL_GetCurrentWindow   10059811 f   SDL_video.obj
 0001:00058832       _SDL_GL_GetCurrentContext  10059832 f   SDL_video.obj
 0001:00058853       _SDL_GL_GetDrawableSize    10059853 f   SDL_video.obj
 0001:000588a6       _SDL_GL_SetSwapInterval    100598a6 f   SDL_video.obj
 0001:000588e9       _SDL_GL_GetSwapInterval    100598e9 f   SDL_video.obj
 0001:00058912       _SDL_GL_SwapWindow         10059912 f   SDL_video.obj
 0001:0005896c       _SDL_GL_DeleteContext      1005996c f   SDL_video.obj
 0001:000589a3       _SDL_GetWindowWMInfo       100599a3 f   SDL_video.obj
 0001:000589f5       _SDL_StartTextInput        100599f5 f   SDL_video.obj
 0001:00058a4c       _SDL_IsTextInputActive     10059a4c f   SDL_video.obj
 0001:00058a64       _SDL_StopTextInput         10059a64 f   SDL_video.obj
 0001:00058abb       _SDL_SetTextInputRect      10059abb f   SDL_video.obj
 0001:00058ad8       _SDL_HasScreenKeyboardSupport 10059ad8 f   SDL_video.obj
 0001:00058af3       _SDL_IsScreenKeyboardShown 10059af3 f   SDL_video.obj
 0001:00058b53       _SDL_ShowMessageBox        10059b53 f   SDL_video.obj
 0001:00058c02       _SDL_ShowSimpleMessageBox  10059c02 f   SDL_video.obj
 0001:00058c5b       _SDL_ShouldAllowTopmost    10059c5b f   SDL_video.obj
 0001:00058e7d       _SDL_SetMainReady          10059e7d f   SDL.obj
 0001:00058e88       _SDL_InitSubSystem         10059e88 f   SDL.obj
 0001:00059057       _SDL_Init                  1005a057 f   SDL.obj
 0001:0005905c       _SDL_QuitSubSystem         1005a05c f   SDL.obj
 0001:000591c1       _SDL_WasInit               1005a1c1 f   SDL.obj
 0001:000592f9       _SDL_Quit                  1005a2f9 f   SDL.obj
 0001:000593a4       _SDL_GetVersion            1005a3a4 f   SDL.obj
 0001:000593b4       _SDL_GetRevision           1005a3b4 f   SDL.obj
 0001:000593ba       _SDL_GetRevisionNumber     1005a3ba f   SDL.obj
 0001:000593c0       _SDL_GetPlatform           1005a3c0 f   SDL.obj
 0001:0005971f       _SDL_ReportAssertion       1005a71f f   SDL_assert.obj
 0001:00059813       _SDL_SetAssertionHandler   1005a813 f   SDL_assert.obj
 0001:0005983c       _SDL_GetAssertionReport    1005a83c f   SDL_assert.obj
 0001:00059842       _SDL_ResetAssertionReport  1005a842 f   SDL_assert.obj
 0001:00059865       _SDL_SetError              1005a865 f   SDL_error.obj
 0001:00059af9       _SDL_GetError              1005aaf9 f   SDL_error.obj
 0001:00059afe       _SDL_ClearError            1005aafe f   SDL_error.obj
 0001:00059b07       _SDL_Error                 1005ab07 f   SDL_error.obj
 0001:00059b4b       _SDL_SetHintWithPriority   1005ab4b f   SDL_hints.obj
 0001:00059c35       _SDL_SetHint               1005ac35 f   SDL_hints.obj
 0001:00059c48       _SDL_GetHint               1005ac48 f   SDL_hints.obj
 0001:00059c8a       _SDL_AddHintCallback       1005ac8a f   SDL_hints.obj
 0001:00059d61       _SDL_DelHintCallback       1005ad61 f   SDL_hints.obj
 0001:00059dc3       _SDL_ClearHints            1005adc3 f   SDL_hints.obj
 0001:00059e0b       _SDL_LogSetAllPriority     1005ae0b f   SDL_log.obj
 0001:00059e33       _SDL_LogSetPriority        1005ae33 f   SDL_log.obj
 0001:00059e71       _SDL_LogGetPriority        1005ae71 f   SDL_log.obj
 0001:00059eb0       _SDL_LogResetPriorities    1005aeb0 f   SDL_log.obj
 0001:00059efc       _SDL_Log                   1005aefc f   SDL_log.obj
 0001:00059f12       _SDL_LogVerbose            1005af12 f   SDL_log.obj
 0001:00059f2a       _SDL_LogDebug              1005af2a f   SDL_log.obj
 0001:00059f42       _SDL_LogInfo               1005af42 f   SDL_log.obj
 0001:00059f5c       _SDL_LogWarn               1005af5c f   SDL_log.obj
 0001:00059f74       _SDL_LogError              1005af74 f   SDL_log.obj
 0001:00059f8e       _SDL_LogCritical           1005af8e f   SDL_log.obj
 0001:00059fa6       _SDL_LogMessage            1005afa6 f   SDL_log.obj
 0001:00059fc0       _SDL_LogMessageV           1005afc0 f   SDL_log.obj
 0001:0005a19a       _SDL_LogGetOutputFunction  1005b19a f   SDL_log.obj
 0001:0005a1bb       _SDL_LogSetOutputFunction  1005b1bb f   SDL_log.obj
 0001:0005b3aa       _XAudio2Create             1005c3aa f i SDL_xaudio2.obj
 0001:0005ba26       _WIN_SetError              1005ca26 f   SDL_windows.obj
 0001:0005bab4       _WIN_CoInitialize          1005cab4 f   SDL_windows.obj
 0001:0005bac6       _SDL_GetBasePath           1005cac6 f   SDL_sysfilesystem.obj
 0001:0005bb3a       _SDL_GetPrefPath           1005cb3a f   SDL_sysfilesystem.obj
 0001:0005bc32       _SDL_SYS_HapticInit        1005cc32 f   SDL_syshaptic.obj
 0001:0005c381       _SDL_SYS_HapticOpen        1005d381 f   SDL_syshaptic.obj
 0001:0005c3cb       _SDL_SYS_HapticMouse       1005d3cb f   SDL_syshaptic.obj
 0001:0005c3f1       _SDL_SYS_JoystickIsHaptic  1005d3f1 f   SDL_syshaptic.obj
 0001:0005c40d       _SDL_SYS_JoystickSameHaptic 1005d40d f   SDL_syshaptic.obj
 0001:0005c49d       _SDL_SYS_HapticOpenFromJoystick 1005d49d f   SDL_syshaptic.obj
 0001:0005c57e       _SDL_SYS_HapticClose       1005d57e f   SDL_syshaptic.obj
 0001:0005c5e8       _SDL_SYS_HapticQuit        1005d5e8 f   SDL_syshaptic.obj
 0001:0005cf67       _SDL_SYS_HapticNewEffect   1005df67 f   SDL_syshaptic.obj
 0001:0005d02c       _SDL_SYS_HapticUpdateEffect 1005e02c f   SDL_syshaptic.obj
 0001:0005d116       _SDL_SYS_HapticRunEffect   1005e116 f   SDL_syshaptic.obj
 0001:0005d1db       _SDL_SYS_HapticStopEffect  1005e1db f   SDL_syshaptic.obj
 0001:0005d24d       _SDL_SYS_HapticDestroyEffect 1005e24d f   SDL_syshaptic.obj
 0001:0005d299       _SDL_SYS_HapticSetGain     1005e299 f   SDL_syshaptic.obj
 0001:0005d2e4       _SDL_SYS_HapticSetAutocenter 1005e2e4 f   SDL_syshaptic.obj
 0001:0005d334       _SDL_SYS_HapticStopAll     1005e334 f   SDL_syshaptic.obj
 0001:0005d412       _WIN_LoadXInputDLL         1005e412 f   SDL_dxjoystick.obj
 0001:0005d4cb       _WIN_UnloadXInputDLL       1005e4cb f   SDL_dxjoystick.obj
 0001:0005d65a       _SDL_PrivateJoystickDetectProc@16 1005e65a f   SDL_dxjoystick.obj
 0001:0005d8e5       _SDL_SYS_JoystickInit      1005e8e5 f   SDL_dxjoystick.obj
 0001:0005dc9f       _SDL_SYS_JoystickDetect    1005ec9f f   SDL_dxjoystick.obj
 0001:0005de17       _SDL_SYS_JoystickNameForDeviceIndex 1005ee17 f   SDL_dxjoystick.obj
 0001:0005de30       _SDL_SYS_GetInstanceIdOfDeviceIndex 1005ee30 f   SDL_dxjoystick.obj
 0001:0005de49       _SDL_SYS_JoystickOpen      1005ee49 f   SDL_dxjoystick.obj
 0001:0005e371       _SDL_SYS_JoystickUpdate_Polled 1005f371 f   SDL_dxjoystick.obj
 0001:0005e523       _SDL_SYS_JoystickUpdate_Buffered 1005f523 f   SDL_dxjoystick.obj
 0001:0005e65e       _SDL_SYS_JoystickUpdate_XInput 1005f65e f   SDL_dxjoystick.obj
 0001:0005ea60       _SDL_SYS_JoystickUpdate    1005fa60 f   SDL_dxjoystick.obj
 0001:0005ead7       _SDL_SYS_JoystickQuit      1005fad7 f   SDL_dxjoystick.obj
 0001:0005ebb7       _SDL_LoadObject            1005fbb7 f   SDL_sysloadso.obj
 0001:0005ec3f       _SDL_LoadFunction          1005fc3f f   SDL_sysloadso.obj
 0001:0005ec9c       _SDL_UnloadObject          1005fc9c f   SDL_sysloadso.obj
 0001:0005ecae       _SDL_GetPowerInfo_Windows  1005fcae f   SDL_syspower.obj
 0001:00060fa7       _SDL_RenderGetD3D9Device   10061fa7 f   SDL_render_d3d.obj
 0001:000644a5       _GL_CreateShaderContext    100654a5 f   SDL_shaders_gl.obj
 0001:00064680       _GL_DestroyShaderContext   10065680 f   SDL_shaders_gl.obj
 0001:00068de1       _SDL_BlendFillRects        10069de1 f   SDL_blendfillrect.obj
 0001:00070727       _SDL_BlendLines            10071727 f   SDL_blendline.obj
 0001:000718cd       _SDL_BlendPoint            100728cd f   SDL_blendpoint.obj
 0001:00071a35       _SDL_BlendPoints           10072a35 f   SDL_blendpoint.obj
 0001:000725fd       _SDL_DrawLines             100735fd f   SDL_drawline.obj
 0001:000726d2       _SDL_DrawPoint             100736d2 f   SDL_drawpoint.obj
 0001:00072771       _SDL_DrawPoints            10073771 f   SDL_drawpoint.obj
 0001:00072885       _SW_CreateRendererForSurface 10073885 f   SDL_render_sw.obj
 0001:00073720       _SDLgfx_rotozoomSurfaceSizeTrig 10074720 f   SDL_rotate.obj
 0001:00073f48       _SDLgfx_rotateSurface      10074f48 f   SDL_rotate.obj
 0001:0007415a       _SDL_CreateMutex           1007515a f   SDL_sysmutex.obj
 0001:00074184       _SDL_DestroyMutex          10075184 f   SDL_sysmutex.obj
 0001:0007419e       _SDL_LockMutex             1007519e f   SDL_sysmutex.obj
 0001:000741be       _SDL_TryLockMutex          100751be f   SDL_sysmutex.obj
 0001:000741e9       _SDL_UnlockMutex           100751e9 f   SDL_sysmutex.obj
 0001:00074209       _SDL_CreateSemaphore       10075209 f   SDL_syssem.obj
 0001:00074258       _SDL_DestroySemaphore      10075258 f   SDL_syssem.obj
 0001:0007427b       _SDL_SemWaitTimeout        1007527b f   SDL_syssem.obj
 0001:000742ca       _SDL_SemTryWait            100752ca f   SDL_syssem.obj
 0001:000742d8       _SDL_SemWait               100752d8 f   SDL_syssem.obj
 0001:000742e6       _SDL_SemValue              100752e6 f   SDL_syssem.obj
 0001:00074300       _SDL_SemPost               10075300 f   SDL_syssem.obj
 0001:00074376       _SDL_SYS_CreateThread      10075376 f   SDL_systhread.obj
 0001:000743ee       _SDL_ThreadID              100753ee f   SDL_systhread.obj
 0001:000743f4       _SDL_SYS_GetTLSData        100753f4 f   SDL_systls.obj
 0001:00074461       _SDL_SYS_SetTLSData        10075461 f   SDL_systls.obj
 0001:00074492       _SDL_CreateCond            10075492 f   SDL_syscond.obj
 0001:000744f2       _SDL_DestroyCond           100754f2 f   SDL_syscond.obj
 0001:0007452e       _SDL_CondSignal            1007552e f   SDL_syscond.obj
 0001:00074580       _SDL_CondBroadcast         10075580 f   SDL_syscond.obj
 0001:000745ed       _SDL_CondWaitTimeout       100755ed f   SDL_syscond.obj
 0001:00074683       _SDL_CondWait              10075683 f   SDL_syscond.obj
 0001:000746ec       _SDL_InitTicks             100756ec f   SDL_systimer.obj
 0001:0007474e       _SDL_GetTicks              1007574e f   SDL_systimer.obj
 0001:000747c1       _SDL_GetPerformanceCounter 100757c1 f   SDL_systimer.obj
 0001:000747e5       _SDL_GetPerformanceFrequency 100757e5 f   SDL_systimer.obj
 0001:00074809       _SDL_Delay                 10075809 f   SDL_systimer.obj
 0001:00074814       _SDL_DUMMY_CreateWindowFramebuffer 10075814 f   SDL_nullframebuffer.obj
 0001:000748b4       _SDL_DUMMY_UpdateWindowFramebuffer 100758b4 f   SDL_nullframebuffer.obj
 0001:0007493c       _SDL_DUMMY_DestroyWindowFramebuffer 1007593c f   SDL_nullframebuffer.obj
 0001:00074a63       _WIN_SetClipboardText      10075a63 f   SDL_windowsclipboard.obj
 0001:00074bb2       _WIN_GetClipboardText      10075bb2 f   SDL_windowsclipboard.obj
 0001:00074c4c       _WIN_HasClipboardText      10075c4c f   SDL_windowsclipboard.obj
 0001:00074f7a       _WIN_CheckWParamMouseButton 10075f7a f   SDL_windowsevents.obj
 0001:00074faa       _WIN_CheckWParamMouseButtons 10075faa f   SDL_windowsevents.obj
 0001:0007502a       _WIN_CheckRawMouseButtons  1007602a f   SDL_windowsevents.obj
 0001:00075171       _WIN_WindowProc@16         10076171 f   SDL_windowsevents.obj
 0001:00075dbe       _WIN_PumpEvents            10076dbe f   SDL_windowsevents.obj
 0001:00075f23       _SDL_RegisterApp           10076f23 f   SDL_windowsevents.obj
 0001:0007601f       _WIN_CreateWindowFramebuffer 1007701f f   SDL_windowsframebuffer.obj
 0001:000761b7       _WIN_UpdateWindowFramebuffer 100771b7 f   SDL_windowsframebuffer.obj
 0001:000761de       _WIN_DestroyWindowFramebuffer 100771de f   SDL_windowsframebuffer.obj
 0001:00076210       _WIN_InitKeyboard          10077210 f   SDL_windowskeyboard.obj
 0001:0007633a       _WIN_UpdateKeymap          1007733a f   SDL_windowskeyboard.obj
 0001:000763d3       _WIN_QuitKeyboard          100773d3 f   SDL_windowskeyboard.obj
 0001:0007643a       _WIN_StartTextInput        1007743a f   SDL_windowskeyboard.obj
 0001:0007647d       _WIN_StopTextInput         1007747d f   SDL_windowskeyboard.obj
 0001:000764b0       _WIN_SetTextInputRect      100774b0 f   SDL_windowskeyboard.obj
 0001:00077015       _IME_HandleMessage         10078015 f   SDL_windowskeyboard.obj
 0001:00077384       _TSFSink_AddRef@4          10078384 f   SDL_windowskeyboard.obj
 0001:00077391       _TSFSink_Release@4         10078391 f   SDL_windowskeyboard.obj
 0001:000773aa       _UIElementSink_QueryInterface@12 100783aa f   SDL_windowskeyboard.obj
 0001:000773fd       _UILess_GetUIElement       100783fd f   SDL_windowskeyboard.obj
 0001:00077440       _UIElementSink_BeginUIElement@12 10078440 f   SDL_windowskeyboard.obj
 0001:000774da       _UIElementSink_UpdateUIElement@8 100784da f   SDL_windowskeyboard.obj
 0001:0007757f       _UIElementSink_EndUIElement@8 1007857f f   SDL_windowskeyboard.obj
 0001:00077620       _IPPASink_QueryInterface@12 10078620 f   SDL_windowskeyboard.obj
 0001:00077673       _IPPASink_OnActivated@32   10078673 f   SDL_windowskeyboard.obj
 0001:00077cc4       _WIN_ShowMessageBox        10078cc4 f   SDL_windowsmessagebox.obj
 0001:00078158       _WIN_InitModes             10079158 f   SDL_windowsmodes.obj
 0001:0007828b       _WIN_GetDisplayBounds      1007928b f   SDL_windowsmodes.obj
 0001:000782b6       _WIN_GetDisplayModes       100792b6 f   SDL_windowsmodes.obj
 0001:00078344       _WIN_SetDisplayMode        10079344 f   SDL_windowsmodes.obj
 0001:0007870f       _WIN_InitMouse             1007970f f   SDL_windowsmouse.obj
 0001:00078790       _WIN_GL_LoadLibrary        10079790 f   SDL_windowsopengl.obj
 0001:0007889e       _WIN_GL_GetProcAddress     1007989e f   SDL_windowsopengl.obj
 0001:000788c6       _WIN_GL_UnloadLibrary      100798c6 f   SDL_windowsopengl.obj
 0001:00078fcf       _WIN_GL_CreateContext      10079fcf f   SDL_windowsopengl.obj
 0001:00079157       _WIN_GL_MakeCurrent        1007a157 f   SDL_windowsopengl.obj
 0001:000791ab       _WIN_GL_SetSwapInterval    1007a1ab f   SDL_windowsopengl.obj
 0001:000791fe       _WIN_GL_GetSwapInterval    1007a1fe f   SDL_windowsopengl.obj
 0001:00079214       _WIN_GL_SwapWindow         1007a214 f   SDL_windowsopengl.obj
 0001:00079225       _WIN_GL_DeleteContext      1007a225 f   SDL_windowsopengl.obj
 0001:0007923b       _Win32_CreateShaper        1007a23b f   SDL_windowsshape.obj
 0001:00079282       _CombineRectRegions        1007a282 f   SDL_windowsshape.obj
 0001:000792d2       _Win32_SetWindowShape      1007a2d2 f   SDL_windowsshape.obj
 0001:00079368       _Win32_ResizeWindowShape   1007a368 f   SDL_windowsshape.obj
 0001:000796af       _D3D_LoadDLL               1007a6af f   SDL_windowsvideo.obj
 0001:000796f9       _SDL_Direct3D9GetAdapterIndex 1007a6f9 f   SDL_windowsvideo.obj
 0001:00079a88       _WIN_CreateWindow          1007aa88 f   SDL_windowswindow.obj
 0001:00079b83       _WIN_CreateWindowFrom      1007ab83 f   SDL_windowswindow.obj
 0001:00079bfb       _WIN_SetWindowTitle        1007abfb f   SDL_windowswindow.obj
 0001:00079c55       _WIN_SetWindowIcon         1007ac55 f   SDL_windowswindow.obj
 0001:00079d61       _WIN_SetWindowPosition     1007ad61 f   SDL_windowswindow.obj
 0001:00079d73       _WIN_SetWindowSize         1007ad73 f   SDL_windowswindow.obj
 0001:00079d85       _WIN_ShowWindow            1007ad85 f   SDL_windowswindow.obj
 0001:00079d98       _WIN_HideWindow            1007ad98 f   SDL_windowswindow.obj
 0001:00079dab       _WIN_RaiseWindow           1007adab f   SDL_windowswindow.obj
 0001:00079dc9       _WIN_MaximizeWindow        1007adc9 f   SDL_windowswindow.obj
 0001:00079ddc       _WIN_MinimizeWindow        1007addc f   SDL_windowswindow.obj
 0001:00079def       _WIN_SetWindowBordered     1007adef f   SDL_windowswindow.obj
 0001:00079e39       _WIN_RestoreWindow         1007ae39 f   SDL_windowswindow.obj
 0001:00079e4c       _WIN_SetWindowFullscreen   1007ae4c f   SDL_windowswindow.obj
 0001:00079f4b       _WIN_SetWindowGammaRamp    1007af4b f   SDL_windowswindow.obj
 0001:00079f9a       _WIN_GetWindowGammaRamp    1007af9a f   SDL_windowswindow.obj
 0001:00079fe9       _WIN_SetWindowGrab         1007afe9 f   SDL_windowswindow.obj
 0001:0007a053       _WIN_DestroyWindow         1007b053 f   SDL_windowswindow.obj
 0001:0007a099       _WIN_GetWindowWMInfo       1007b099 f   SDL_windowswindow.obj
 0001:0007a0ca       _SDL_HelperWindowCreate    1007b0ca f   SDL_windowswindow.obj
 0001:0007a167       _WIN_OnWindowEnter         1007b167 f   SDL_windowswindow.obj
 0001:0007a19e       _ImmGetIMEFileNameA@12     1007b19e f   Imm32:IMM32.dll
 0001:0007a1a4       _ImmGetContext@4           1007b1a4 f   Imm32:IMM32.dll
 0001:0007a1aa       _ImmReleaseContext@8       1007b1aa f   Imm32:IMM32.dll
 0001:0007a1b0       _ImmGetCompositionStringW@16 1007b1b0 f   Imm32:IMM32.dll
 0001:0007a1b6       _ImmSetCompositionStringW@24 1007b1b6 f   Imm32:IMM32.dll
 0001:0007a1bc       _ImmGetCandidateListW@16   1007b1bc f   Imm32:IMM32.dll
 0001:0007a1c2       _ImmAssociateContext@8     1007b1c2 f   Imm32:IMM32.dll
 0001:0007a1c8       _ImmNotifyIME@16           1007b1c8 f   Imm32:IMM32.dll
 0001:0007a1ce       _VerQueryValueA@16         1007b1ce f   Version:VERSION.dll
 0001:0007a1d4       _GetFileVersionInfoSizeA@8 1007b1d4 f   Version:VERSION.dll
 0001:0007a1da       _GetFileVersionInfoA@16    1007b1da f   Version:VERSION.dll
 0001:0007a1e0       _GetSystemPowerStatus@4    1007b1e0 f   kernel32:KERNEL32.dll
 0001:0007a235       __CRT_INIT@12              1007b235 f   MSVCRT:crtdll.obj
 0001:0007a571       __DllMainCRTStartup@12     1007b571 f   MSVCRT:crtdll.obj
 0001:0007a594       ___clean_type_info_names   1007b594 f   MSVCRT:tncleanup.obj
 0001:0007a5a0       __onexit                   1007b5a0 f   MSVCRT:atonexit.obj
 0001:0007a645       _atexit                    1007b645 f   MSVCRT:atonexit.obj
 0001:0007a65c       __RTC_Initialize           1007b65c f   MSVCRT:_initsect_.obj
 0001:0007a682       __RTC_Terminate            1007b682 f   MSVCRT:_initsect_.obj
 0001:0007a6b0       __ValidateImageBase        1007b6b0 f   MSVCRT:pesect.obj
 0001:0007a6f0       __FindPESection            1007b6f0 f   MSVCRT:pesect.obj
 0001:0007a740       __IsNonwritableInCurrentImage 1007b740 f   MSVCRT:pesect.obj
 0001:0007a7fe       __initterm                 1007b7fe f   MSVCRT:MSVCR90.dll
 0001:0007a804       __initterm_e               1007b804 f   MSVCRT:MSVCR90.dll
 0001:0007a80a       __amsg_exit                1007b80a f   MSVCRT:MSVCR90.dll
 0001:0007a810       ___CppXcptFilter           1007b810 f   MSVCRT:MSVCR90.dll
 0001:0007a816       _DllMain@12                1007b816 f   MSVCRT:dllmain.obj
 0001:0007a83c       __SEH_prolog4              1007b83c f   MSVCRT:sehprolg4.obj
 0001:0007a881       __SEH_epilog4              1007b881 f   MSVCRT:sehprolg4.obj
 0001:0007a895       __except_handler4          1007b895 f   MSVCRT:chandler4gs.obj
 0001:0007a8ba       ___security_init_cookie    1007b8ba f   MSVCRT:gs_support.obj
 0001:0007a950       ___clean_type_info_names_internal 1007b950 f   MSVCRT:MSVCR90.dll
 0001:0007a956       __unlock                   1007b956 f   MSVCRT:MSVCR90.dll
 0001:0007a95c       ___dllonexit               1007b95c f   MSVCRT:MSVCR90.dll
 0001:0007a962       __lock                     1007b962 f   MSVCRT:MSVCR90.dll
 0001:0007a968       @__security_check_cookie@4 1007b968 f   MSVCRT:secchk.obj
 0001:0007a978       __except_handler4_common   1007b978 f   MSVCRT:MSVCR90.dll
 0001:0007a97e       ___report_gsfailure        1007b97e f   MSVCRT:gs_report.obj
 0001:0007aa84       __crt_debugger_hook        1007ba84 f   MSVCRT:MSVCR90.dll
 0001:0007aa90       __allshl                   1007ba90 f   MSVCRT:llshl.obj
 0001:0007aab0       _memcpy                    1007bab0 f   MSVCRT:MSVCR90.dll
 0001:0007aab6       _memset                    1007bab6 f   MSVCRT:MSVCR90.dll
 0001:0007aabc       __CIsqrt                   1007babc f   MSVCRT:MSVCR90.dll
 0001:0007aac2       __CIsin                    1007bac2 f   MSVCRT:MSVCR90.dll
 0001:0007aac8       __CIpow                    1007bac8 f   MSVCRT:MSVCR90.dll
 0001:0007aace       __CIlog                    1007bace f   MSVCRT:MSVCR90.dll
 0001:0007aad4       _floor                     1007bad4 f   MSVCRT:MSVCR90.dll
 0001:0007aada       __CIcos                    1007bada f   MSVCRT:MSVCR90.dll
 0001:0007aae0       __CIatan2                  1007bae0 f   MSVCRT:MSVCR90.dll
 0001:0007aae6       __CIatan                   1007bae6 f   MSVCRT:MSVCR90.dll
 0001:0007aaf0       __alloca_probe_16          1007baf0 f   MSVCRT:alloca16.obj
 0001:0007ab06       __alloca_probe_8           1007bb06     MSVCRT:alloca16.obj
 0001:0007ab20       __ftol2_sse                1007bb20 f   MSVCRT:ftol2.obj
 0001:0007ab29       __ftol2_pentium4           1007bb29 f   MSVCRT:ftol2.obj
 0001:0007ab3c       __ftol2_sse_excpt          1007bb3c f   MSVCRT:ftol2.obj
 0001:0007ab56       __ftol2                    1007bb56 f   MSVCRT:ftol2.obj
 0001:0007abd0       __allshr                   1007bbd0 f   MSVCRT:llshr.obj
 0001:0007ac00       __allmul                   1007bc00 f   MSVCRT:llmul.obj
 0001:0007ac40       __aulldvrm                 1007bc40 f   MSVCRT:ulldvrm.obj
 0001:0007ace0       __alldvrm                  1007bce0 f   MSVCRT:lldvrm.obj
 0001:0007adc0       __alldiv                   1007bdc0 f   MSVCRT:lldiv.obj
 0001:0007ae70       __chkstk                   1007be70 f   MSVCRT:chkstk.obj
 0001:0007ae70       __alloca_probe             1007be70     MSVCRT:chkstk.obj
 0001:0007aeeb       __get_sse2_info            1007beeb f   MSVCRT:cpu_disp.obj
 0001:0007af4d       ___sse2_available_init     1007bf4d f   MSVCRT:cpu_disp.obj
 0002:00000000       __imp__CreateCompatibleDC@4 1007c000     gdi32:GDI32.dll
 0002:00000004       __imp__SelectObject@8      1007c004     gdi32:GDI32.dll
 0002:00000008       __imp__DeleteObject@4      1007c008     gdi32:GDI32.dll
 0002:0000000c       __imp__GetDIBits@28        1007c00c     gdi32:GDI32.dll
 0002:00000010       __imp__CreateDIBSection@24 1007c010     gdi32:GDI32.dll
 0002:00000014       __imp__DeleteDC@4          1007c014     gdi32:GDI32.dll
 0002:00000018       __imp__BitBlt@36           1007c018     gdi32:GDI32.dll
 0002:0000001c       __imp__GetDeviceGammaRamp@8 1007c01c     gdi32:GDI32.dll
 0002:00000020       __imp__SetDeviceGammaRamp@8 1007c020     gdi32:GDI32.dll
 0002:00000024       __imp__CombineRgn@16       1007c024     gdi32:GDI32.dll
 0002:00000028       __imp__CreateRectRgn@16    1007c028     gdi32:GDI32.dll
 0002:0000002c       __imp__DescribePixelFormat@16 1007c02c     gdi32:GDI32.dll
 0002:00000030       __imp__ChoosePixelFormat@8 1007c030     gdi32:GDI32.dll
 0002:00000034       __imp__SetPixelFormat@12   1007c034     gdi32:GDI32.dll
 0002:00000038       __imp__SwapBuffers@4       1007c038     gdi32:GDI32.dll
 0002:0000003c       __imp__CreateBitmap@20     1007c03c     gdi32:GDI32.dll
 0002:00000040       __imp__CreateDCW@16        1007c040     gdi32:GDI32.dll
 0002:00000044       __imp__GetTextMetricsW@8   1007c044     gdi32:GDI32.dll
 0002:00000048       __imp__CreateFontIndirectW@4 1007c048     gdi32:GDI32.dll
 0002:0000004c       __imp__GetDeviceCaps@8     1007c04c     gdi32:GDI32.dll
 0002:00000050       __imp__CreateCompatibleBitmap@12 1007c050     gdi32:GDI32.dll
 0002:00000054       \177GDI32_NULL_THUNK_DATA  1007c054     gdi32:GDI32.dll
 0002:00000058       __imp__ImmGetContext@4     1007c058     Imm32:IMM32.dll
 0002:0000005c       __imp__ImmReleaseContext@8 1007c05c     Imm32:IMM32.dll
 0002:00000060       __imp__ImmGetCompositionStringW@16 1007c060     Imm32:IMM32.dll
 0002:00000064       __imp__ImmSetCompositionStringW@24 1007c064     Imm32:IMM32.dll
 0002:00000068       __imp__ImmGetCandidateListW@16 1007c068     Imm32:IMM32.dll
 0002:0000006c       __imp__ImmAssociateContext@8 1007c06c     Imm32:IMM32.dll
 0002:00000070       __imp__ImmNotifyIME@16     1007c070     Imm32:IMM32.dll
 0002:00000074       __imp__ImmGetIMEFileNameA@12 1007c074     Imm32:IMM32.dll
 0002:00000078       \177IMM32_NULL_THUNK_DATA  1007c078     Imm32:IMM32.dll
 0002:0000007c       __imp__GetSystemPowerStatus@4 1007c07c     kernel32:KERNEL32.dll
 0002:00000080       __imp__LoadLibraryW@4      1007c080     kernel32:KERNEL32.dll
 0002:00000084       __imp__FreeLibrary@4       1007c084     kernel32:KERNEL32.dll
 0002:00000088       __imp__GetModuleHandleW@4  1007c088     kernel32:KERNEL32.dll
 0002:0000008c       __imp__GetModuleFileNameW@12 1007c08c     kernel32:KERNEL32.dll
 0002:00000090       __imp__FormatMessageW@28   1007c090     kernel32:KERNEL32.dll
 0002:00000094       __imp__CreateSemaphoreW@16 1007c094     kernel32:KERNEL32.dll
 0002:00000098       __imp__ReleaseSemaphore@12 1007c098     kernel32:KERNEL32.dll
 0002:0000009c       __imp__WideCharToMultiByte@32 1007c09c     kernel32:KERNEL32.dll
 0002:000000a0       __imp__WaitForSingleObject@8 1007c0a0     kernel32:KERNEL32.dll
 0002:000000a4       __imp__AttachConsole@4     1007c0a4     kernel32:KERNEL32.dll
 0002:000000a8       __imp__GetLastError@0      1007c0a8     kernel32:KERNEL32.dll
 0002:000000ac       __imp__GetStdHandle@4      1007c0ac     kernel32:KERNEL32.dll
 0002:000000b0       __imp__lstrlenW@4          1007c0b0     kernel32:KERNEL32.dll
 0002:000000b4       __imp__WriteConsoleW@20    1007c0b4     kernel32:KERNEL32.dll
 0002:000000b8       __imp__OutputDebugStringW@4 1007c0b8     kernel32:KERNEL32.dll
 0002:000000bc       __imp__ExitProcess@4       1007c0bc     kernel32:KERNEL32.dll
 0002:000000c0       __imp__MulDiv@12           1007c0c0     kernel32:KERNEL32.dll
 0002:000000c4       __imp__GetVersionExA@4     1007c0c4     kernel32:KERNEL32.dll
 0002:000000c8       __imp__CompareStringA@24   1007c0c8     kernel32:KERNEL32.dll
 0002:000000cc       __imp__GlobalUnlock@4      1007c0cc     kernel32:KERNEL32.dll
 0002:000000d0       __imp__GlobalAlloc@8       1007c0d0     kernel32:KERNEL32.dll
 0002:000000d4       __imp__GlobalLock@4        1007c0d4     kernel32:KERNEL32.dll
 0002:000000d8       __imp__QueryPerformanceFrequency@4 1007c0d8     kernel32:KERNEL32.dll
 0002:000000dc       __imp__Sleep@4             1007c0dc     kernel32:KERNEL32.dll
 0002:000000e0       __imp__QueryPerformanceCounter@4 1007c0e0     kernel32:KERNEL32.dll
 0002:000000e4       __imp__TlsAlloc@0          1007c0e4     kernel32:KERNEL32.dll
 0002:000000e8       __imp__TlsSetValue@8       1007c0e8     kernel32:KERNEL32.dll
 0002:000000ec       __imp__TlsGetValue@4       1007c0ec     kernel32:KERNEL32.dll
 0002:000000f0       __imp__CreateThread@24     1007c0f0     kernel32:KERNEL32.dll
 0002:000000f4       __imp__GetCurrentThreadId@0 1007c0f4     kernel32:KERNEL32.dll
 0002:000000f8       __imp__SetThreadPriority@8 1007c0f8     kernel32:KERNEL32.dll
 0002:000000fc       __imp__GetCurrentThread@0  1007c0fc     kernel32:KERNEL32.dll
 0002:00000100       __imp__InterlockedDecrement@4 1007c100     kernel32:KERNEL32.dll
 0002:00000104       __imp__SetEnvironmentVariableA@8 1007c104     kernel32:KERNEL32.dll
 0002:00000108       __imp__GetEnvironmentVariableA@12 1007c108     kernel32:KERNEL32.dll
 0002:0000010c       __imp__CloseHandle@4       1007c10c     kernel32:KERNEL32.dll
 0002:00000110       __imp__GetFileSizeEx@8     1007c110     kernel32:KERNEL32.dll
 0002:00000114       __imp__CreateFileW@28      1007c114     kernel32:KERNEL32.dll
 0002:00000118       __imp__ReadFile@20         1007c118     kernel32:KERNEL32.dll
 0002:0000011c       __imp__WriteFile@20        1007c11c     kernel32:KERNEL32.dll
 0002:00000120       __imp__SetFilePointerEx@20 1007c120     kernel32:KERNEL32.dll
 0002:00000124       __imp__SetErrorMode@4      1007c124     kernel32:KERNEL32.dll
 0002:00000128       __imp__SetFilePointer@16   1007c128     kernel32:KERNEL32.dll
 0002:0000012c       __imp__GetSystemInfo@4     1007c12c     kernel32:KERNEL32.dll
 0002:00000130       __imp__GlobalMemoryStatusEx@4 1007c130     kernel32:KERNEL32.dll
 0002:00000134       __imp__InterlockedExchange@8 1007c134     kernel32:KERNEL32.dll
 0002:00000138       __imp__TryEnterCriticalSection@4 1007c138     kernel32:KERNEL32.dll
 0002:0000013c       __imp__InterlockedCompareExchange@12 1007c13c     kernel32:KERNEL32.dll
 0002:00000140       __imp__DisableThreadLibraryCalls@4 1007c140     kernel32:KERNEL32.dll
 0002:00000144       __imp__GetTickCount@0      1007c144     kernel32:KERNEL32.dll
 0002:00000148       __imp__GetCurrentProcessId@0 1007c148     kernel32:KERNEL32.dll
 0002:0000014c       __imp__GetSystemTimeAsFileTime@4 1007c14c     kernel32:KERNEL32.dll
 0002:00000150       __imp__TerminateProcess@8  1007c150     kernel32:KERNEL32.dll
 0002:00000154       __imp__GetCurrentProcess@0 1007c154     kernel32:KERNEL32.dll
 0002:00000158       __imp__UnhandledExceptionFilter@4 1007c158     kernel32:KERNEL32.dll
 0002:0000015c       __imp__SetUnhandledExceptionFilter@4 1007c15c     kernel32:KERNEL32.dll
 0002:00000160       __imp__IsDebuggerPresent@0 1007c160     kernel32:KERNEL32.dll
 0002:00000164       __imp__InitializeCriticalSectionAndSpinCount@8 1007c164     kernel32:KERNEL32.dll
 0002:00000168       __imp__LeaveCriticalSection@4 1007c168     kernel32:KERNEL32.dll
 0002:0000016c       __imp__EnterCriticalSection@4 1007c16c     kernel32:KERNEL32.dll
 0002:00000170       __imp__DeleteCriticalSection@4 1007c170     kernel32:KERNEL32.dll
 0002:00000174       __imp__InterlockedIncrement@4 1007c174     kernel32:KERNEL32.dll
 0002:00000178       __imp__GetProcAddress@8    1007c178     kernel32:KERNEL32.dll
 0002:0000017c       \177KERNEL32_NULL_THUNK_DATA 1007c17c     kernel32:KERNEL32.dll
 0002:00000180       __imp___encoded_null       1007c180     MSVCRT:MSVCR90.dll
 0002:00000184       __imp___malloc_crt         1007c184     MSVCRT:MSVCR90.dll
 0002:00000188       __imp___encode_pointer     1007c188     MSVCRT:MSVCR90.dll
 0002:0000018c       __imp___beginthreadex      1007c18c     MSVCRT:MSVCR90.dll
 0002:00000190       __imp___endthreadex        1007c190     MSVCRT:MSVCR90.dll
 0002:00000194       __imp__fprintf             1007c194     MSVCRT:MSVCR90.dll
 0002:00000198       __imp___CIatan2            1007c198     MSVCRT:MSVCR90.dll
 0002:0000019c       __imp___CIcos              1007c19c     MSVCRT:MSVCR90.dll
 0002:000001a0       __imp__floor               1007c1a0     MSVCRT:MSVCR90.dll
 0002:000001a4       __imp___CIlog              1007c1a4     MSVCRT:MSVCR90.dll
 0002:000001a8       __imp___CIpow              1007c1a8     MSVCRT:MSVCR90.dll
 0002:000001ac       __imp___CIsin              1007c1ac     MSVCRT:MSVCR90.dll
 0002:000001b0       __imp___CIsqrt             1007c1b0     MSVCRT:MSVCR90.dll
 0002:000001b4       __imp__memset              1007c1b4     MSVCRT:MSVCR90.dll
 0002:000001b8       __imp__memcpy              1007c1b8     MSVCRT:MSVCR90.dll
 0002:000001bc       __imp__fgets               1007c1bc     MSVCRT:MSVCR90.dll
 0002:000001c0       __imp__fflush              1007c1c0     MSVCRT:MSVCR90.dll
 0002:000001c4       __imp____iob_func          1007c1c4     MSVCRT:MSVCR90.dll
 0002:000001c8       __imp___ltoa               1007c1c8     MSVCRT:MSVCR90.dll
 0002:000001cc       __imp__atof                1007c1cc     MSVCRT:MSVCR90.dll
 0002:000001d0       __imp__strtoul             1007c1d0     MSVCRT:MSVCR90.dll
 0002:000001d4       __imp__strrchr             1007c1d4     MSVCRT:MSVCR90.dll
 0002:000001d8       __imp___CIatan             1007c1d8     MSVCRT:MSVCR90.dll
 0002:000001dc       __imp___initterm           1007c1dc     MSVCRT:MSVCR90.dll
 0002:000001e0       __imp___initterm_e         1007c1e0     MSVCRT:MSVCR90.dll
 0002:000001e4       __imp___amsg_exit          1007c1e4     MSVCRT:MSVCR90.dll
 0002:000001e8       __imp___adjust_fdiv        1007c1e8     MSVCRT:MSVCR90.dll
 0002:000001ec       __imp____CppXcptFilter     1007c1ec     MSVCRT:MSVCR90.dll
 0002:000001f0       __imp____clean_type_info_names_internal 1007c1f0     MSVCRT:MSVCR90.dll
 0002:000001f4       __imp___unlock             1007c1f4     MSVCRT:MSVCR90.dll
 0002:000001f8       __imp___ultoa              1007c1f8     MSVCRT:MSVCR90.dll
 0002:000001fc       __imp__strtol              1007c1fc     MSVCRT:MSVCR90.dll
 0002:00000200       __imp___strupr             1007c200     MSVCRT:MSVCR90.dll
 0002:00000204       __imp__atoi                1007c204     MSVCRT:MSVCR90.dll
 0002:00000208       __imp__strchr              1007c208     MSVCRT:MSVCR90.dll
 0002:0000020c       __imp__strstr              1007c20c     MSVCRT:MSVCR90.dll
 0002:00000210       __imp___strrev             1007c210     MSVCRT:MSVCR90.dll
 0002:00000214       __imp___strlwr             1007c214     MSVCRT:MSVCR90.dll
 0002:00000218       __imp__strncmp             1007c218     MSVCRT:MSVCR90.dll
 0002:0000021c       __imp__memmove             1007c21c     MSVCRT:MSVCR90.dll
 0002:00000220       __imp___strnicmp           1007c220     MSVCRT:MSVCR90.dll
 0002:00000224       __imp__strtod              1007c224     MSVCRT:MSVCR90.dll
 0002:00000228       __imp___stricmp            1007c228     MSVCRT:MSVCR90.dll
 0002:0000022c       __imp__toupper             1007c22c     MSVCRT:MSVCR90.dll
 0002:00000230       __imp__isdigit             1007c230     MSVCRT:MSVCR90.dll
 0002:00000234       __imp__tolower             1007c234     MSVCRT:MSVCR90.dll
 0002:00000238       __imp__isspace             1007c238     MSVCRT:MSVCR90.dll
 0002:0000023c       __imp___crt_debugger_hook  1007c23c     MSVCRT:MSVCR90.dll
 0002:00000240       __imp___except_handler4_common 1007c240     MSVCRT:MSVCR90.dll
 0002:00000244       __imp___onexit             1007c244     MSVCRT:MSVCR90.dll
 0002:00000248       __imp___lock               1007c248     MSVCRT:MSVCR90.dll
 0002:0000024c       __imp__signal              1007c24c     MSVCRT:MSVCR90.dll
 0002:00000250       __imp__fread               1007c250     MSVCRT:MSVCR90.dll
 0002:00000254       __imp__ferror              1007c254     MSVCRT:MSVCR90.dll
 0002:00000258       __imp__fwrite              1007c258     MSVCRT:MSVCR90.dll
 0002:0000025c       __imp__ftell               1007c25c     MSVCRT:MSVCR90.dll
 0002:00000260       __imp__fseek               1007c260     MSVCRT:MSVCR90.dll
 0002:00000264       __imp__fclose              1007c264     MSVCRT:MSVCR90.dll
 0002:00000268       __imp__free                1007c268     MSVCRT:MSVCR90.dll
 0002:0000026c       __imp__calloc              1007c26c     MSVCRT:MSVCR90.dll
 0002:00000270       __imp__malloc              1007c270     MSVCRT:MSVCR90.dll
 0002:00000274       __imp__realloc             1007c274     MSVCRT:MSVCR90.dll
 0002:00000278       __imp__qsort               1007c278     MSVCRT:MSVCR90.dll
 0002:0000027c       __imp___decode_pointer     1007c27c     MSVCRT:MSVCR90.dll
 0002:00000280       __imp__ceil                1007c280     MSVCRT:MSVCR90.dll
 0002:00000284       __imp____dllonexit         1007c284     MSVCRT:MSVCR90.dll
 0002:00000288       \177MSVCR90_NULL_THUNK_DATA 1007c288     MSVCRT:MSVCR90.dll
 0002:0000028c       __imp__SysFreeString@4     1007c28c     oleaut32:OLEAUT32.dll
 0002:00000290       \177OLEAUT32_NULL_THUNK_DATA 1007c290     oleaut32:OLEAUT32.dll
 0002:00000294       __imp__DragFinish@4        1007c294     shell32:SHELL32.dll
 0002:00000298       __imp__DragQueryFileW@16   1007c298     shell32:SHELL32.dll
 0002:0000029c       __imp__SHGetFolderPathW@20 1007c29c     shell32:SHELL32.dll
 0002:000002a0       __imp__DragAcceptFiles@8   1007c2a0     shell32:SHELL32.dll
 0002:000002a4       \177SHELL32_NULL_THUNK_DATA 1007c2a4     shell32:SHELL32.dll
 0002:000002a8       __imp__GetFocus@0          1007c2a8     user32:USER32.dll
 0002:000002ac       __imp__TrackMouseEvent@4   1007c2ac     user32:USER32.dll
 0002:000002b0       __imp__SetPropW@12         1007c2b0     user32:USER32.dll
 0002:000002b4       __imp__GetWindowTextW@12   1007c2b4     user32:USER32.dll
 0002:000002b8       __imp__SetWindowLongW@12   1007c2b8     user32:USER32.dll
 0002:000002bc       __imp__CreateIconFromResource@16 1007c2bc     user32:USER32.dll
 0002:000002c0       __imp__SetWindowPos@28     1007c2c0     user32:USER32.dll
 0002:000002c4       __imp__GetWindowTextLengthW@4 1007c2c4     user32:USER32.dll
 0002:000002c8       __imp__SetWindowTextW@8    1007c2c8     user32:USER32.dll
 0002:000002cc       __imp__SetWindowRgn@12     1007c2cc     user32:USER32.dll
 0002:000002d0       __imp__LoadCursorW@8       1007c2d0     user32:USER32.dll
 0002:000002d4       __imp__CreateIconIndirect@4 1007c2d4     user32:USER32.dll
 0002:000002d8       __imp__SetCursorPos@8      1007c2d8     user32:USER32.dll
 0002:000002dc       __imp__GetActiveWindow@0   1007c2dc     user32:USER32.dll
 0002:000002e0       __imp__RegisterRawInputDevices@12 1007c2e0     user32:USER32.dll
 0002:000002e4       __imp__DestroyIcon@4       1007c2e4     user32:USER32.dll
 0002:000002e8       __imp__EnumDisplayDevicesW@16 1007c2e8     user32:USER32.dll
 0002:000002ec       __imp__ChangeDisplaySettingsExW@20 1007c2ec     user32:USER32.dll
 0002:000002f0       __imp__EnumDisplaySettingsW@12 1007c2f0     user32:USER32.dll
 0002:000002f4       __imp__SendMessageW@16     1007c2f4     user32:USER32.dll
 0002:000002f8       __imp__ShowWindow@8        1007c2f8     user32:USER32.dll
 0002:000002fc       __imp__DrawTextW@20        1007c2fc     user32:USER32.dll
 0002:00000300       __imp__DialogBoxIndirectParamW@20 1007c300     user32:USER32.dll
 0002:00000304       __imp__GetDC@4             1007c304     user32:USER32.dll
 0002:00000308       __imp__SystemParametersInfoW@16 1007c308     user32:USER32.dll
 0002:0000030c       __imp__ReleaseDC@8         1007c30c     user32:USER32.dll
 0002:00000310       __imp__EndDialog@8         1007c310     user32:USER32.dll
 0002:00000314       __imp__SystemParametersInfoA@16 1007c314     user32:USER32.dll
 0002:00000318       __imp__MapVirtualKeyW@8    1007c318     user32:USER32.dll
 0002:0000031c       __imp__GetKeyboardLayout@4 1007c31c     user32:USER32.dll
 0002:00000320       __imp__ClientToScreen@8    1007c320     user32:USER32.dll
 0002:00000324       __imp__SetCursor@4         1007c324     user32:USER32.dll
 0002:00000328       __imp__ScreenToClient@8    1007c328     user32:USER32.dll
 0002:0000032c       __imp__GetWindowRect@8     1007c32c     user32:USER32.dll
 0002:00000330       __imp__GetRawInputData@20  1007c330     user32:USER32.dll
 0002:00000334       __imp__LoadImageW@24       1007c334     user32:USER32.dll
 0002:00000338       __imp__IsZoomed@4          1007c338     user32:USER32.dll
 0002:0000033c       __imp__GetKeyState@4       1007c33c     user32:USER32.dll
 0002:00000340       __imp__GetClientRect@8     1007c340     user32:USER32.dll
 0002:00000344       __imp__GetClassInfoW@12    1007c344     user32:USER32.dll
 0002:00000348       __imp__GetUpdateRect@12    1007c348     user32:USER32.dll
 0002:0000034c       __imp__GetKeyboardState@4  1007c34c     user32:USER32.dll
 0002:00000350       __imp__GetMenu@4           1007c350     user32:USER32.dll
 0002:00000354       __imp__GetAsyncKeyState@4  1007c354     user32:USER32.dll
 0002:00000358       __imp__GetWindowLongW@8    1007c358     user32:USER32.dll
 0002:0000035c       __imp__GetCursorPos@4      1007c35c     user32:USER32.dll
 0002:00000360       __imp__ClipCursor@4        1007c360     user32:USER32.dll
 0002:00000364       __imp__AdjustWindowRectEx@16 1007c364     user32:USER32.dll
 0002:00000368       __imp__RegisterClassW@4    1007c368     user32:USER32.dll
 0002:0000036c       __imp__ToUnicode@24        1007c36c     user32:USER32.dll
 0002:00000370       __imp__GetPropW@8          1007c370     user32:USER32.dll
 0002:00000374       __imp__ValidateRect@8      1007c374     user32:USER32.dll
 0002:00000378       __imp__CallWindowProcW@20  1007c378     user32:USER32.dll
 0002:0000037c       __imp__CloseClipboard@0    1007c37c     user32:USER32.dll
 0002:00000380       __imp__IsClipboardFormatAvailable@4 1007c380     user32:USER32.dll
 0002:00000384       __imp__GetClipboardData@4  1007c384     user32:USER32.dll
 0002:00000388       __imp__EmptyClipboard@0    1007c388     user32:USER32.dll
 0002:0000038c       __imp__OpenClipboard@4     1007c38c     user32:USER32.dll
 0002:00000390       __imp__GetClipboardSequenceNumber@0 1007c390     user32:USER32.dll
 0002:00000394       __imp__SetClipboardData@8  1007c394     user32:USER32.dll
 0002:00000398       __imp__DestroyWindow@4     1007c398     user32:USER32.dll
 0002:0000039c       __imp__GetMessageW@16      1007c39c     user32:USER32.dll
 0002:000003a0       __imp__UnregisterClassW@8  1007c3a0     user32:USER32.dll
 0002:000003a4       __imp__TranslateMessage@4  1007c3a4     user32:USER32.dll
 0002:000003a8       __imp__RegisterClassExW@4  1007c3a8     user32:USER32.dll
 0002:000003ac       __imp__PeekMessageW@20     1007c3ac     user32:USER32.dll
 0002:000003b0       __imp__GetRawInputDeviceInfoA@16 1007c3b0     user32:USER32.dll
 0002:000003b4       __imp__RegisterDeviceNotificationW@12 1007c3b4     user32:USER32.dll
 0002:000003b8       __imp__CreateWindowExW@48  1007c3b8     user32:USER32.dll
 0002:000003bc       __imp__UnregisterDeviceNotification@4 1007c3bc     user32:USER32.dll
 0002:000003c0       __imp__GetRawInputDeviceList@12 1007c3c0     user32:USER32.dll
 0002:000003c4       __imp__DefWindowProcW@16   1007c3c4     user32:USER32.dll
 0002:000003c8       __imp__DispatchMessageW@4  1007c3c8     user32:USER32.dll
 0002:000003cc       __imp__GetDesktopWindow@0  1007c3cc     user32:USER32.dll
 0002:000003d0       \177USER32_NULL_THUNK_DATA 1007c3d0     user32:USER32.dll
 0002:000003d4       __imp__VerQueryValueA@16   1007c3d4     Version:VERSION.dll
 0002:000003d8       __imp__GetFileVersionInfoSizeA@8 1007c3d8     Version:VERSION.dll
 0002:000003dc       __imp__GetFileVersionInfoA@16 1007c3dc     Version:VERSION.dll
 0002:000003e0       \177VERSION_NULL_THUNK_DATA 1007c3e0     Version:VERSION.dll
 0002:000003e4       __imp__waveOutOpen@24      1007c3e4     winmm:WINMM.dll
 0002:000003e8       __imp__waveOutGetNumDevs@0 1007c3e8     winmm:WINMM.dll
 0002:000003ec       __imp__waveOutPrepareHeader@12 1007c3ec     winmm:WINMM.dll
 0002:000003f0       __imp__timeBeginPeriod@4   1007c3f0     winmm:WINMM.dll
 0002:000003f4       __imp__timeGetTime@0       1007c3f4     winmm:WINMM.dll
 0002:000003f8       __imp__timeEndPeriod@4     1007c3f8     winmm:WINMM.dll
 0002:000003fc       __imp__waveOutClose@4      1007c3fc     winmm:WINMM.dll
 0002:00000400       __imp__waveOutGetDevCapsW@12 1007c400     winmm:WINMM.dll
 0002:00000404       __imp__waveInClose@4       1007c404     winmm:WINMM.dll
 0002:00000408       __imp__waveOutWrite@12     1007c408     winmm:WINMM.dll
 0002:0000040c       __imp__waveInGetDevCapsW@12 1007c40c     winmm:WINMM.dll
 0002:00000410       __imp__waveOutGetErrorTextW@12 1007c410     winmm:WINMM.dll
 0002:00000414       __imp__waveInOpen@24       1007c414     winmm:WINMM.dll
 0002:00000418       __imp__waveInGetNumDevs@0  1007c418     winmm:WINMM.dll
 0002:0000041c       __imp__waveOutUnprepareHeader@12 1007c41c     winmm:WINMM.dll
 0002:00000420       \177WINMM_NULL_THUNK_DATA  1007c420     winmm:WINMM.dll
 0002:00000424       __imp__CoUninitialize@0    1007c424     ole32:ole32.dll
 0002:00000428       __imp__CoInitialize@4      1007c428     ole32:ole32.dll
 0002:0000042c       __imp__CoCreateInstance@20 1007c42c     ole32:ole32.dll
 0002:00000430       \177ole32_NULL_THUNK_DATA  1007c430     ole32:ole32.dll
 0002:00000434       ___xc_a                    1007c434     MSVCRT:cinitexe.obj
 0002:00000438       ___xc_z                    1007c438     MSVCRT:cinitexe.obj
 0002:0000043c       ___xi_a                    1007c43c     MSVCRT:cinitexe.obj
 0002:00000448       ___xi_z                    1007c448     MSVCRT:cinitexe.obj
 0002:00000450       _CLSID_TF_ThreadMgr        1007c450     uuid:msctf_g.obj
 0002:00000460       _CLSID_TF_LangBarMgr       1007c460     uuid:msctf_g.obj
 0002:00000470       _CLSID_TF_DisplayAttributeMgr 1007c470     uuid:msctf_g.obj
 0002:00000480       _CLSID_TF_CategoryMgr      1007c480     uuid:msctf_g.obj
 0002:00000490       _CLSID_TF_InputProcessorProfiles 1007c490     uuid:msctf_g.obj
 0002:000004a0       _CLSID_TF_LangBarItemMgr   1007c4a0     uuid:msctf_g.obj
 0002:000004b0       _CLSID_TF_ClassicLangBar   1007c4b0     uuid:msctf_g.obj
 0002:000004c0       _CLSID_TF_TransitoryExtensionUIEntry 1007c4c0     uuid:msctf_g.obj
 0002:000004d0       _GUID_PROP_TEXTOWNER       1007c4d0     uuid:msctf_g.obj
 0002:000004e0       _GUID_PROP_ATTRIBUTE       1007c4e0     uuid:msctf_g.obj
 0002:000004f0       _GUID_PROP_LANGID          1007c4f0     uuid:msctf_g.obj
 0002:00000500       _GUID_PROP_READING         1007c500     uuid:msctf_g.obj
 0002:00000510       _GUID_PROP_COMPOSING       1007c510     uuid:msctf_g.obj
 0002:00000520       _GUID_SYSTEM_FUNCTIONPROVIDER 1007c520     uuid:msctf_g.obj
 0002:00000530       _GUID_APP_FUNCTIONPROVIDER 1007c530     uuid:msctf_g.obj
 0002:00000540       _GUID_TFCAT_CATEGORY_OF_TIP 1007c540     uuid:msctf_g.obj
 0002:00000550       _GUID_TFCAT_TIP_KEYBOARD   1007c550     uuid:msctf_g.obj
 0002:00000560       _GUID_TFCAT_TIP_SPEECH     1007c560     uuid:msctf_g.obj
 0002:00000570       _GUID_TFCAT_TIP_HANDWRITING 1007c570     uuid:msctf_g.obj
 0002:00000580       _GUID_TFCAT_PROP_AUDIODATA 1007c580     uuid:msctf_g.obj
 0002:00000590       _GUID_TFCAT_PROP_INKDATA   1007c590     uuid:msctf_g.obj
 0002:000005a0       _GUID_COMPARTMENT_SAPI_AUDIO 1007c5a0     uuid:msctf_g.obj
 0002:000005b0       _GUID_COMPARTMENT_KEYBOARD_DISABLED 1007c5b0     uuid:msctf_g.obj
 0002:000005c0       _GUID_COMPARTMENT_KEYBOARD_OPENCLOSE 1007c5c0     uuid:msctf_g.obj
 0002:000005d0       _GUID_COMPARTMENT_HANDWRITING_OPENCLOSE 1007c5d0     uuid:msctf_g.obj
 0002:000005e0       _GUID_COMPARTMENT_SPEECH_DISABLED 1007c5e0     uuid:msctf_g.obj
 0002:000005f0       _GUID_COMPARTMENT_SPEECH_OPENCLOSE 1007c5f0     uuid:msctf_g.obj
 0002:00000600       _GUID_COMPARTMENT_SPEECH_GLOBALSTATE 1007c600     uuid:msctf_g.obj
 0002:00000610       _GUID_COMPARTMENT_CONVERSIONMODEBIAS 1007c610     uuid:msctf_g.obj
 0002:00000620       _GUID_PROP_MODEBIAS        1007c620     uuid:msctf_g.obj
 0002:00000630       _GUID_COMPARTMENT_KEYBOARD_INPUTMODE 1007c630     uuid:msctf_g.obj
 0002:00000640       _GUID_MODEBIAS_NONE        1007c640     uuid:msctf_g.obj
 0002:00000650       _GUID_MODEBIAS_URLHISTORY  1007c650     uuid:msctf_g.obj
 0002:00000660       _GUID_MODEBIAS_FILENAME    1007c660     uuid:msctf_g.obj
 0002:00000670       _GUID_MODEBIAS_READING     1007c670     uuid:msctf_g.obj
 0002:00000680       _GUID_MODEBIAS_DATETIME    1007c680     uuid:msctf_g.obj
 0002:00000690       _GUID_MODEBIAS_NAME        1007c690     uuid:msctf_g.obj
 0002:000006a0       _GUID_MODEBIAS_CONVERSATION 1007c6a0     uuid:msctf_g.obj
 0002:000006b0       _GUID_MODEBIAS_NUMERIC     1007c6b0     uuid:msctf_g.obj
 0002:000006c0       _GUID_MODEBIAS_HIRAGANA    1007c6c0     uuid:msctf_g.obj
 0002:000006d0       _GUID_MODEBIAS_KATAKANA    1007c6d0     uuid:msctf_g.obj
 0002:000006e0       _GUID_MODEBIAS_HANGUL      1007c6e0     uuid:msctf_g.obj
 0002:000006f0       _GUID_MODEBIAS_CHINESE     1007c6f0     uuid:msctf_g.obj
 0002:00000700       _GUID_MODEBIAS_HALFWIDTHKATAKANA 1007c700     uuid:msctf_g.obj
 0002:00000710       _GUID_MODEBIAS_FULLWIDTHALPHANUMERIC 1007c710     uuid:msctf_g.obj
 0002:00000720       _GUID_MODEBIAS_HALFWIDTHALPHANUMERIC 1007c720     uuid:msctf_g.obj
 0002:00000730       _GUID_MODEBIAS_FULLWIDTHHANGUL 1007c730     uuid:msctf_g.obj
 0002:00000740       _GUID_TFCAT_PROPSTYLE_CUSTOM 1007c740     uuid:msctf_g.obj
 0002:00000750       _GUID_TFCAT_PROPSTYLE_STATIC 1007c750     uuid:msctf_g.obj
 0002:00000760       _GUID_TFCAT_PROPSTYLE_STATICCOMPACT 1007c760     uuid:msctf_g.obj
 0002:00000770       _GUID_TFCAT_DISPLAYATTRIBUTEPROVIDER 1007c770     uuid:msctf_g.obj
 0002:00000780       _GUID_TFCAT_DISPLAYATTRIBUTEPROPERTY 1007c780     uuid:msctf_g.obj
 0002:00000790       _GUID_COMPARTMENT_SPEECH_DICTATIONSTAT 1007c790     uuid:msctf_g.obj
 0002:000007a0       _GUID_COMPARTMENT_PERSISTMENUENABLED 1007c7a0     uuid:msctf_g.obj
 0002:000007b0       _GUID_COMPARTMENT_SPEECH_UI_STATUS 1007c7b0     uuid:msctf_g.obj
 0002:000007c0       _GUID_COMPARTMENT_EMPTYCONTEXT 1007c7c0     uuid:msctf_g.obj
 0002:000007d0       _GUID_COMPARTMENT_TIPUISTATUS 1007c7d0     uuid:msctf_g.obj
 0002:000007e0       _GUID_COMPARTMENT_SPEECH_CFGMENU 1007c7e0     uuid:msctf_g.obj
 0002:000007f0       _GUID_LBI_SAPILAYR_CFGMENUBUTTON 1007c7f0     uuid:msctf_g.obj
 0002:00000800       _GUID_TFCAT_TIPCAP_SECUREMODE 1007c800     uuid:msctf_g.obj
 0002:00000810       _GUID_TFCAT_TIPCAP_UIELEMENTENABLED 1007c810     uuid:msctf_g.obj
 0002:00000820       _GUID_TFCAT_TIPCAP_INPUTMODECOMPARTMENT 1007c820     uuid:msctf_g.obj
 0002:00000830       _GUID_TFCAT_TIPCAP_COMLESS 1007c830     uuid:msctf_g.obj
 0002:00000840       _GUID_TFCAT_TIPCAP_WOW16   1007c840     uuid:msctf_g.obj
 0002:00000850       _GUID_COMPARTMENT_KEYBOARD_INPUTMODE_CONVERSION 1007c850     uuid:msctf_g.obj
 0002:00000860       _GUID_COMPARTMENT_KEYBOARD_INPUTMODE_SENTENCE 1007c860     uuid:msctf_g.obj
 0002:00000870       _GUID_COMPARTMENT_TRANSITORYEXTENSION 1007c870     uuid:msctf_g.obj
 0002:00000880       _GUID_COMPARTMENT_TRANSITORYEXTENSION_DOCUMENTMANAGER 1007c880     uuid:msctf_g.obj
 0002:00000890       _GUID_COMPARTMENT_TRANSITORYEXTENSION_PARENT 1007c890     uuid:msctf_g.obj
 0002:000008a0       _GUID_TFCAT_TRANSITORYEXTENSIONUI 1007c8a0     uuid:msctf_g.obj
 0002:000008b0       _IID_ITfThreadMgr          1007c8b0     uuid:msctf_i.obj
 0002:000008c0       _IID_ITfThreadMgrEx        1007c8c0     uuid:msctf_i.obj
 0002:000008d0       _IID_ITfThreadMgrEventSink 1007c8d0     uuid:msctf_i.obj
 0002:000008e0       _IID_ITfConfigureSystemKeystrokeFeed 1007c8e0     uuid:msctf_i.obj
 0002:000008f0       _IID_IEnumTfDocumentMgrs   1007c8f0     uuid:msctf_i.obj
 0002:00000900       _IID_ITfDocumentMgr        1007c900     uuid:msctf_i.obj
 0002:00000910       _IID_IEnumTfContexts       1007c910     uuid:msctf_i.obj
 0002:00000920       _IID_ITfCompositionView    1007c920     uuid:msctf_i.obj
 0002:00000930       _IID_IEnumITfCompositionView 1007c930     uuid:msctf_i.obj
 0002:00000940       _IID_ITfComposition        1007c940     uuid:msctf_i.obj
 0002:00000950       _IID_ITfCompositionSink    1007c950     uuid:msctf_i.obj
 0002:00000960       _IID_ITfContextComposition 1007c960     uuid:msctf_i.obj
 0002:00000970       _IID_ITfContextOwnerCompositionServices 1007c970     uuid:msctf_i.obj
 0002:00000980       _IID_ITfContextOwnerCompositionSink 1007c980     uuid:msctf_i.obj
 0002:00000990       _IID_ITfContextView        1007c990     uuid:msctf_i.obj
 0002:000009a0       _IID_IEnumTfContextViews   1007c9a0     uuid:msctf_i.obj
 0002:000009b0       _IID_ITfContext            1007c9b0     uuid:msctf_i.obj
 0002:000009c0       _IID_ITfQueryEmbedded      1007c9c0     uuid:msctf_i.obj
 0002:000009d0       _IID_ITfInsertAtSelection  1007c9d0     uuid:msctf_i.obj
 0002:000009e0       _IID_ITfCleanupContextSink 1007c9e0     uuid:msctf_i.obj
 0002:000009f0       _IID_ITfCleanupContextDurationSink 1007c9f0     uuid:msctf_i.obj
 0002:00000a00       _IID_ITfReadOnlyProperty   1007ca00     uuid:msctf_i.obj
 0002:00000a10       _IID_IEnumTfPropertyValue  1007ca10     uuid:msctf_i.obj
 0002:00000a20       _IID_ITfMouseTracker       1007ca20     uuid:msctf_i.obj
 0002:00000a30       _IID_ITfMouseTrackerACP    1007ca30     uuid:msctf_i.obj
 0002:00000a40       _IID_ITfMouseSink          1007ca40     uuid:msctf_i.obj
 0002:00000a50       _IID_ITfEditRecord         1007ca50     uuid:msctf_i.obj
 0002:00000a60       _IID_ITfTextEditSink       1007ca60     uuid:msctf_i.obj
 0002:00000a70       _IID_ITfTextLayoutSink     1007ca70     uuid:msctf_i.obj
 0002:00000a80       _IID_ITfStatusSink         1007ca80     uuid:msctf_i.obj
 0002:00000a90       _IID_ITfEditTransactionSink 1007ca90     uuid:msctf_i.obj
 0002:00000aa0       _IID_ITfContextOwner       1007caa0     uuid:msctf_i.obj
 0002:00000ab0       _IID_ITfContextOwnerServices 1007cab0     uuid:msctf_i.obj
 0002:00000ac0       _IID_ITfContextKeyEventSink 1007cac0     uuid:msctf_i.obj
 0002:00000ad0       _IID_ITfEditSession        1007cad0     uuid:msctf_i.obj
 0002:00000ae0       _IID_ITfRange              1007cae0     uuid:msctf_i.obj
 0002:00000af0       _IID_ITfRangeACP           1007caf0     uuid:msctf_i.obj
 0002:00000b00       _IID_ITextStoreACPServices 1007cb00     uuid:msctf_i.obj
 0002:00000b10       _IID_ITfRangeBackup        1007cb10     uuid:msctf_i.obj
 0002:00000b20       _IID_ITfPropertyStore      1007cb20     uuid:msctf_i.obj
 0002:00000b30       _IID_IEnumTfRanges         1007cb30     uuid:msctf_i.obj
 0002:00000b40       _IID_ITfCreatePropertyStore 1007cb40     uuid:msctf_i.obj
 0002:00000b50       _IID_ITfPersistentPropertyLoaderACP 1007cb50     uuid:msctf_i.obj
 0002:00000b60       _IID_ITfProperty           1007cb60     uuid:msctf_i.obj
 0002:00000b70       _IID_IEnumTfProperties     1007cb70     uuid:msctf_i.obj
 0002:00000b80       _IID_ITfCompartment        1007cb80     uuid:msctf_i.obj
 0002:00000b90       _IID_ITfCompartmentEventSink 1007cb90     uuid:msctf_i.obj
 0002:00000ba0       _IID_ITfCompartmentMgr     1007cba0     uuid:msctf_i.obj
 0002:00000bb0       _IID_ITfFunction           1007cbb0     uuid:msctf_i.obj
 0002:00000bc0       _IID_ITfFunctionProvider   1007cbc0     uuid:msctf_i.obj
 0002:00000bd0       _IID_IEnumTfFunctionProviders 1007cbd0     uuid:msctf_i.obj
 0002:00000be0       _IID_ITfInputProcessorProfiles 1007cbe0     uuid:msctf_i.obj
 0002:00000bf0       _IID_ITfInputProcessorProfilesEx 1007cbf0     uuid:msctf_i.obj
 0002:00000c00       _IID_ITfInputProcessorProfileSubstituteLayout 1007cc00     uuid:msctf_i.obj
 0002:00000c10       _IID_ITfActiveLanguageProfileNotifySink 1007cc10     uuid:msctf_i.obj
 0002:00000c20       _IID_IEnumTfLanguageProfiles 1007cc20     uuid:msctf_i.obj
 0002:00000c30       _IID_ITfLanguageProfileNotifySink 1007cc30     uuid:msctf_i.obj
 0002:00000c40       _IID_ITfInputProcessorProfileMgr 1007cc40     uuid:msctf_i.obj
 0002:00000c50       _IID_IEnumTfInputProcessorProfiles 1007cc50     uuid:msctf_i.obj
 0002:00000c60       _IID_ITfInputProcessorProfileActivationSink 1007cc60     uuid:msctf_i.obj
 0002:00000c70       _IID_ITfKeystrokeMgr       1007cc70     uuid:msctf_i.obj
 0002:00000c80       _IID_ITfKeyEventSink       1007cc80     uuid:msctf_i.obj
 0002:00000c90       _IID_ITfKeyTraceEventSink  1007cc90     uuid:msctf_i.obj
 0002:00000ca0       _IID_ITfPreservedKeyNotifySink 1007cca0     uuid:msctf_i.obj
 0002:00000cb0       _IID_ITfMessagePump        1007ccb0     uuid:msctf_i.obj
 0002:00000cc0       _IID_ITfThreadFocusSink    1007ccc0     uuid:msctf_i.obj
 0002:00000cd0       _IID_ITfTextInputProcessor 1007ccd0     uuid:msctf_i.obj
 0002:00000ce0       _IID_ITfTextInputProcessorEx 1007cce0     uuid:msctf_i.obj
 0002:00000cf0       _IID_ITfClientId           1007ccf0     uuid:msctf_i.obj
 0002:00000d00       _IID_ITfDisplayAttributeInfo 1007cd00     uuid:msctf_i.obj
 0002:00000d10       _IID_IEnumTfDisplayAttributeInfo 1007cd10     uuid:msctf_i.obj
 0002:00000d20       _IID_ITfDisplayAttributeProvider 1007cd20     uuid:msctf_i.obj
 0002:00000d30       _IID_ITfDisplayAttributeMgr 1007cd30     uuid:msctf_i.obj
 0002:00000d40       _IID_ITfDisplayAttributeNotifySink 1007cd40     uuid:msctf_i.obj
 0002:00000d50       _IID_ITfCategoryMgr        1007cd50     uuid:msctf_i.obj
 0002:00000d60       _IID_ITfSource             1007cd60     uuid:msctf_i.obj
 0002:00000d70       _IID_ITfSourceSingle       1007cd70     uuid:msctf_i.obj
 0002:00000d80       _IID_ITfUIElementMgr       1007cd80     uuid:msctf_i.obj
 0002:00000d90       _IID_IEnumTfUIElements     1007cd90     uuid:msctf_i.obj
 0002:00000da0       _IID_ITfUIElementSink      1007cda0     uuid:msctf_i.obj
 0002:00000db0       _IID_ITfUIElement          1007cdb0     uuid:msctf_i.obj
 0002:00000dc0       _IID_ITfCandidateListUIElement 1007cdc0     uuid:msctf_i.obj
 0002:00000dd0       _IID_ITfCandidateListUIElementBehavior 1007cdd0     uuid:msctf_i.obj
 0002:00000de0       _IID_ITfReadingInformationUIElement 1007cde0     uuid:msctf_i.obj
 0002:00000df0       _IID_ITfTransitoryExtensionUIElement 1007cdf0     uuid:msctf_i.obj
 0002:00000e00       _IID_ITfTransitoryExtensionSink 1007ce00     uuid:msctf_i.obj
 0002:00000e10       _IID_ITfToolTipUIElement   1007ce10     uuid:msctf_i.obj
 0002:00000e20       _IID_IUnknown              1007ce20     uuid:unknwn_i.obj
 0002:00000e30       __pDefaultRawDllMain       1007ce30     MSVCRT:crtdll.obj
 0002:00000e30       __pRawDllMain              1007ce30     MSVCRT:crtdll.obj
 0002:00001254       _c_dfDIJoystick2           1007d254     SDL_dxjoystick.obj
 0002:00003f80       _sdl_audio_type_filters    1007ff80     SDL_audiotypecvt.obj
 0002:00004258       _sdl_audio_rate_filters    10080258     SDL_audiotypecvt.obj
 0002:000059f4       ??_C@_0BI@GBAHCMKM@Invalid?5audio?5device?5ID?$AA@ 100819f4     SDL_audio.obj
 0002:00005a0c       ??_C@_02HNFGHGEN@U8?$AA@   10081a0c     SDL_audio.obj
 0002:00005a10       ??_C@_02HJNLAKPP@S8?$AA@   10081a10     SDL_audio.obj
 0002:00005a14       ??_C@_06IPEOCFFE@U16LSB?$AA@ 10081a14     SDL_audio.obj
 0002:00005a1c       ??_C@_06OMJOBAGO@S16LSB?$AA@ 10081a1c     SDL_audio.obj
 0002:00005a24       ??_C@_06DHPCECDB@U16MSB?$AA@ 10081a24     SDL_audio.obj
 0002:00005a2c       ??_C@_06FECCHHAL@S16MSB?$AA@ 10081a2c     SDL_audio.obj
 0002:00005a34       ??_C@_06NJHKMEFL@U16SYS?$AA@ 10081a34     SDL_audio.obj
 0002:00005a3c       ??_C@_06LKKKPBGB@S16SYS?$AA@ 10081a3c     SDL_audio.obj
 0002:00005a44       ??_C@_03IONNMBKB@U16?$AA@  10081a44     SDL_audio.obj
 0002:00005a48       ??_C@_03KLLGJOHN@S16?$AA@  10081a48     SDL_audio.obj
 0002:00005a4c       ??_C@_06FENGBHKF@S32LSB?$AA@ 10081a4c     SDL_audio.obj
 0002:00005a54       ??_C@_06OMGKHAMA@S32MSB?$AA@ 10081a54     SDL_audio.obj
 0002:00005a5c       ??_C@_06COCPGKK@S32SYS?$AA@ 10081a5c     SDL_audio.obj
 0002:00005a64       ??_C@_03MMFOIPBH@S32?$AA@  10081a64     SDL_audio.obj
 0002:00005a68       ??_C@_06GBDAKEMM@F32LSB?$AA@ 10081a68     SDL_audio.obj
 0002:00005a70       ??_C@_06NJIMMDKJ@F32MSB?$AA@ 10081a70     SDL_audio.obj
 0002:00005a78       ??_C@_06DHAEEFMD@F32SYS?$AA@ 10081a78     SDL_audio.obj
 0002:00005a80       ??_C@_03KLJJCILK@F32?$AA@  10081a80     SDL_audio.obj
 0002:00005a84       ??_C@_0BA@PEENPIKJ@SDL_AUDIODRIVER?$AA@ 10081a84     SDL_audio.obj
 0002:00005a94       ??_C@_0CA@JKJLPNCO@Audio?5target?5?8?$CFs?8?5not?5available?$AA@ 10081a94     SDL_audio.obj
 0002:00005ab4       ??_C@_0BK@FMHDHGOG@No?5available?5audio?5device?$AA@ 10081ab4     SDL_audio.obj
 0002:00005ad0       ??_C@_0CD@HHOELEPA@Audio?5subsystem?5is?5not?5initializ@ 10081ad0     SDL_audio.obj
 0002:00005af4       ??_C@_0BD@GHPKDOM@No?5capture?5support?$AA@ 10081af4     SDL_audio.obj
 0002:00005b08       ??_C@_0BM@FHCHCIML@System?5audio?5capture?5device?$AA@ 10081b08     SDL_audio.obj
 0002:00005b24       ??_C@_0BL@ICFJNBDI@System?5audio?5output?5device?$AA@ 10081b24     SDL_audio.obj
 0002:00005b40       ??_C@_0P@NLEIANHE@No?5such?5device?$AA@ 10081b40     SDL_audio.obj
 0002:00005b50       ??_C@_0CH@KOHFKNH@SDL_OpenAudio?$CI?$CJ?5passed?5a?5NULL?5ca@ 10081b50     SDL_audio.obj
 0002:00005b78       ??_C@_0BE@HHGJFOAF@SDL_AUDIO_FREQUENCY?$AA@ 10081b78     SDL_audio.obj
 0002:00005b8c       ??_C@_0BB@DLGECLFP@SDL_AUDIO_FORMAT?$AA@ 10081b8c     SDL_audio.obj
 0002:00005ba0       ??_C@_0BD@IDIMOGAM@SDL_AUDIO_CHANNELS?$AA@ 10081ba0     SDL_audio.obj
 0002:00005bb4       ??_C@_0CG@MFNBOJNE@Unsupported?5number?5of?5audio?5chan@ 10081bb4     SDL_audio.obj
 0002:00005bdc       ??_C@_0BC@ILGDJACM@SDL_AUDIO_SAMPLES?$AA@ 10081bdc     SDL_audio.obj
 0002:00005bf0       ??_C@_0BG@KLPMJNAK@SDL_AUDIO_DEVICE_NAME?$AA@ 10081bf0     SDL_audio.obj
 0002:00005c08       ??_C@_0BK@NMAHONFG@Audio?5device?5already?5open?$AA@ 10081c08     SDL_audio.obj
 0002:00005c24       ??_C@_0BL@JMFAHGBA@Couldn?8t?5create?5mixer?5lock?$AA@ 10081c24     SDL_audio.obj
 0002:00005c40       ??_C@_0BM@EMKILBGE@Too?5many?5open?5audio?5devices?$AA@ 10081c40     SDL_audio.obj
 0002:00005c5c       ??_C@_0O@DNFINDFK@SDLAudioDev?$CFd?$AA@ 10081c5c     SDL_audio.obj
 0002:00005c6c       ??_C@_0BN@DPLMHEIO@Couldn?8t?5create?5audio?5thread?$AA@ 10081c6c     SDL_audio.obj
 0002:00005c8c       ??_C@_0BP@FIICIEOD@Audio?5device?5is?5already?5opened?$AA@ 10081c8c     SDL_audio.obj
 0002:00005cac       ??_C@_0CD@DJIMOKAG@No?5buffer?5allocated?5for?5conversi@ 10081cac     SDL_audiocvt.obj
 0002:00005cd0       ??_C@_0CK@HCBIOFFL@No?5conversion?5available?5for?5thes@ 10081cd0     SDL_audiocvt.obj
 0002:00005cfc       ??_C@_0CI@HLMOJNNO@No?5conversion?5available?5for?5thes@ 10081cfc     SDL_audiocvt.obj
 0002:00005d24       ??_C@_03OMAHNABO@cvt?$AA@  10081d24     SDL_audiocvt.obj
 0002:00005d28       ??_C@_0BK@OFPBKIMP@Parameter?5?8?$CFs?8?5is?5invalid?$AA@ 10081d28     SDL_audiocvt.obj
 0002:00005d44       ??_C@_0BG@NBOKNCDG@Invalid?5source?5format?$AA@ 10081d44     SDL_audiocvt.obj
 0002:00005d5c       ??_C@_0BL@COJNMENJ@Invalid?5destination?5format?$AA@ 10081d5c     SDL_audiocvt.obj
 0002:00005d78       ??_C@_0CH@MHFJAAGB@Source?5or?5destination?5channels?5i@ 10081d78     SDL_audiocvt.obj
 0002:00005da0       ??_C@_0CD@IJPPMKEJ@Source?5or?5destination?5rate?5is?5ze@ 10081da0     SDL_audiocvt.obj
 0002:00005dc4       ??_C@_0CF@KCBIJDPI@SDL_MixAudio?$CI?$CJ?3?5unknown?5audio?5fo@ 10081dc4     SDL_mixer.obj
 0002:00005dec       ??_C@_0CF@NFKCBAOA@Unknown?5set?5of?5MS_ADPCM?5coeffici@ 10081dec     SDL_wave.obj
 0002:00005e14       ??_C@_0CO@DHPDNJHB@IMA?5ADPCM?5decoder?5can?5only?5handl@ 10081e14     SDL_wave.obj
 0002:00005e44       ??_C@_0CC@BJEGLMJD@Unrecognized?5file?5type?5?$CInot?5WAVE@ 10081e44     SDL_wave.obj
 0002:00005e68       ??_C@_0CB@EABBOIIL@Complex?5WAVE?5files?5not?5supported@ 10081e68     SDL_wave.obj
 0002:00005e8c       ??_C@_0CA@JEIHHJCP@MPEG?5Layer?53?5data?5not?5supported?$AA@ 10081e8c     SDL_wave.obj
 0002:00005eac       ??_C@_0CB@EHGDPNNH@Unknown?5WAVE?5data?5format?3?50x?$CF?44x@ 10081eac     SDL_wave.obj
 0002:00005ed0       ??_C@_0BP@ILCMBFOC@Unknown?5?$CFd?9bit?5PCM?5data?5format?$AA@ 10081ed0     SDL_wave.obj
 0002:00005ef0       ??_C@_07NBCGADJA@Unknown?$AA@ 10081ef0     SDL_cpuinfo.obj
 0002:00005ef8       ??_C@_0N@BDDFKIGD@GenuineIntel?$AA@ 10081ef8     SDL_cpuinfo.obj
 0002:00005f08       ??_C@_0N@FFJGBINN@AuthenticAMD?$AA@ 10081f08     SDL_cpuinfo.obj
 0002:00005f18       ??_C@_0CA@KEFOKNGF@Event?5queue?5is?5full?5?$CI?$CFd?5events?$CJ?$AA@ 10081f18     SDL_events.obj
 0002:00005f38       ??_C@_0CE@CDPBMIFK@The?5event?5system?5has?5been?5shut?5d@ 10081f38     SDL_events.obj
 0002:00005f5c       ??_C@_0BK@HJKEJEPM@Couldn?8t?5lock?5event?5queue?$AA@ 10081f5c     SDL_events.obj
 0002:00005f78       ??_C@_0BC@PJPPNBHC@Unknown?5gestureId?$AA@ 10081f78     SDL_gesture.obj
 0002:00005f8c       ??_C@_0BH@INDOOHAJ@ERROR?3?5NumPoints?5?$DN?5?$CFi?6?$AA@ 10081f8c     SDL_gesture.obj
 0002:00005fa4       ??_C@_05PFDOMJEF@Sleep?$AA@ 10081fa4     SDL_keyboard.obj
 0002:00005fac       ??_C@_05MPBAGENF@Eject?$AA@ 10081fac     SDL_keyboard.obj
 0002:00005fb4       ??_C@_0L@MAOELAJE@KBDIllumUp?$AA@ 10081fb4     SDL_keyboard.obj
 0002:00005fc0       ??_C@_0N@CBHGPNHB@KBDIllumDown?$AA@ 10081fc0     SDL_keyboard.obj
 0002:00005fd0       ??_C@_0P@NGFJAOAA@KBDIllumToggle?$AA@ 10081fd0     SDL_keyboard.obj
 0002:00005fe0       ??_C@_0O@PCMNKMED@DisplaySwitch?$AA@ 10081fe0     SDL_keyboard.obj
 0002:00005ff0       ??_C@_0N@DDCICAAF@BrightnessUp?$AA@ 10081ff0     SDL_keyboard.obj
 0002:00006000       ??_C@_0P@LJCDCGKC@BrightnessDown?$AA@ 10082000     SDL_keyboard.obj
 0002:00006010       ??_C@_0N@FJIAAMPO@AC?5Bookmarks?$AA@ 10082010     SDL_keyboard.obj
 0002:00006020       ??_C@_0L@BAJLEOLK@AC?5Refresh?$AA@ 10082020     SDL_keyboard.obj
 0002:0000602c       ??_C@_07PKPPPPAM@AC?5Stop?$AA@ 1008202c     SDL_keyboard.obj
 0002:00006034       ??_C@_0L@DOKIFDLE@AC?5Forward?$AA@ 10082034     SDL_keyboard.obj
 0002:00006040       ??_C@_07GAJENEGN@AC?5Back?$AA@ 10082040     SDL_keyboard.obj
 0002:00006048       ??_C@_07FOOGLLHL@AC?5Home?$AA@ 10082048     SDL_keyboard.obj
 0002:00006050       ??_C@_09LLLBGJHM@AC?5Search?$AA@ 10082050     SDL_keyboard.obj
 0002:0000605c       ??_C@_08JABLAMKL@Computer?$AA@ 1008205c     SDL_keyboard.obj
 0002:00006068       ??_C@_0L@NOCPEFKJ@Calculator?$AA@ 10082068     SDL_keyboard.obj
 0002:00006074       ??_C@_04JEGKNAHI@Mail?$AA@ 10082074     SDL_keyboard.obj
 0002:0000607c       ??_C@_03BEGIOEFO@WWW?$AA@  1008207c     SDL_keyboard.obj
 0002:00006080       ??_C@_0M@CEBELPBB@MediaSelect?$AA@ 10082080     SDL_keyboard.obj
 0002:0000608c       ??_C@_09NDOEPEEN@AudioMute?$AA@ 1008208c     SDL_keyboard.obj
 0002:00006098       ??_C@_09JKBPIDKN@AudioPlay?$AA@ 10082098     SDL_keyboard.obj
 0002:000060a4       ??_C@_09JDEOBAEO@AudioStop?$AA@ 100820a4     SDL_keyboard.obj
 0002:000060b0       ??_C@_09KKEIBHBC@AudioPrev?$AA@ 100820b0     SDL_keyboard.obj
 0002:000060bc       ??_C@_09JOJOADHG@AudioNext?$AA@ 100820bc     SDL_keyboard.obj
 0002:000060c8       ??_C@_0L@KDBMEDAD@ModeSwitch?$AA@ 100820c8     SDL_keyboard.obj
 0002:000060d4       ??_C@_09CPFOEFGD@Right?5GUI?$AA@ 100820d4     SDL_keyboard.obj
 0002:000060e0       ??_C@_09ELGHIMBO@Right?5Alt?$AA@ 100820e0     SDL_keyboard.obj
 0002:000060ec       ??_C@_0M@COKLDKMB@Right?5Shift?$AA@ 100820ec     SDL_keyboard.obj
 0002:000060f8       ??_C@_0L@NIOMCOOG@Right?5Ctrl?$AA@ 100820f8     SDL_keyboard.obj
 0002:00006104       ??_C@_08ENEANEAC@Left?5GUI?$AA@ 10082104     SDL_keyboard.obj
 0002:00006110       ??_C@_08CJHJBNHP@Left?5Alt?$AA@ 10082110     SDL_keyboard.obj
 0002:0000611c       ??_C@_0L@NFEFKBOL@Left?5Shift?$AA@ 1008211c     SDL_keyboard.obj
 0002:00006128       ??_C@_09OCDLGBLJ@Left?5Ctrl?$AA@ 10082128     SDL_keyboard.obj
 0002:00006134       ??_C@_0BD@KBIBGAAO@Keypad?5Hexadecimal?$AA@ 10082134     SDL_keyboard.obj
 0002:00006148       ??_C@_0P@MBNLDFOJ@Keypad?5Decimal?$AA@ 10082148     SDL_keyboard.obj
 0002:00006158       ??_C@_0N@PNIAGAOK@Keypad?5Octal?$AA@ 10082158     SDL_keyboard.obj
 0002:00006168       ??_C@_0O@ECHLAKEG@Keypad?5Binary?$AA@ 10082168     SDL_keyboard.obj
 0002:00006178       ??_C@_0BC@FKGMMPFP@Keypad?5ClearEntry?$AA@ 10082178     SDL_keyboard.obj
 0002:0000618c       ??_C@_0N@DEPGDIGF@Keypad?5Clear?$AA@ 1008218c     SDL_keyboard.obj
 0002:0000619c       ??_C@_0L@LNOCKNIG@Keypad?5?$CL?1?9?$AA@ 1008219c     SDL_keyboard.obj
 0002:000061a8       ??_C@_0BB@LHCBCJFB@Keypad?5MemDivide?$AA@ 100821a8     SDL_keyboard.obj
 0002:000061bc       ??_C@_0BD@DKCEJAEF@Keypad?5MemMultiply?$AA@ 100821bc     SDL_keyboard.obj
 0002:000061d0       ??_C@_0BD@EPHONNOC@Keypad?5MemSubtract?$AA@ 100821d0     SDL_keyboard.obj
 0002:000061e4       ??_C@_0O@MDKENMOE@Keypad?5MemAdd?$AA@ 100821e4     SDL_keyboard.obj
 0002:000061f4       ??_C@_0BA@CEGPFMHP@Keypad?5MemClear?$AA@ 100821f4     SDL_keyboard.obj
 0002:00006204       ??_C@_0BB@HGIIJKDC@Keypad?5MemRecall?$AA@ 10082204     SDL_keyboard.obj
 0002:00006218       ??_C@_0BA@DHHPLHM@Keypad?5MemStore?$AA@ 10082218     SDL_keyboard.obj
 0002:00006228       ??_C@_08LCMCNMH@Keypad?5?$CB?$AA@ 10082228     SDL_keyboard.obj
 0002:00006234       ??_C@_08HHMKHHCB@Keypad?5?$EA?$AA@ 10082234     SDL_keyboard.obj
 0002:00006240       ??_C@_0N@BLFFIHNC@Keypad?5Space?$AA@ 10082240     SDL_keyboard.obj
 0002:00006250       ??_C@_08DJBKEPEF@Keypad?5?$CD?$AA@ 10082250     SDL_keyboard.obj
 0002:0000625c       ??_C@_08KCBKOGFN@Keypad?5?3?$AA@ 1008225c     SDL_keyboard.obj
 0002:00006268       ??_C@_09OCOFPACH@Keypad?5?$HM?$HM?$AA@ 10082268     SDL_keyboard.obj
 0002:00006274       ??_C@_08EDJAONO@Keypad?5?$HM?$AA@ 10082274     SDL_keyboard.obj
 0002:00006280       ??_C@_09MDJKOOJP@Keypad?5?$CG?$CG?$AA@ 10082280     SDL_keyboard.obj
 0002:0000628c       ??_C@_08EEGNLLAA@Keypad?5?$CG?$AA@ 1008228c     SDL_keyboard.obj
 0002:00006298       ??_C@_08MGHGCDFJ@Keypad?5?$DO?$AA@ 10082298     SDL_keyboard.obj
 0002:000062a4       ??_C@_08PEEAEBNL@Keypad?5?$DM?$AA@ 100822a4     SDL_keyboard.obj
 0002:000062b0       ??_C@_08GPEAOIMD@Keypad?5?$CF?$AA@ 100822b0     SDL_keyboard.obj
 0002:000062bc       ??_C@_08KDILEIPO@Keypad?5?$FO?$AA@ 100822bc     SDL_keyboard.obj
 0002:000062c8       ??_C@_0L@CEBIAMON@Keypad?5XOR?$AA@ 100822c8     SDL_keyboard.obj
 0002:000062d4       ??_C@_08CBJANAKH@Keypad?5F?$AA@ 100822d4     SDL_keyboard.obj
 0002:000062e0       ??_C@_08KLNIDGE@Keypad?5E?$AA@ 100822e0     SDL_keyboard.obj
 0002:000062ec       ??_C@_08BDKGLCCF@Keypad?5D?$AA@ 100822ec     SDL_keyboard.obj
 0002:000062f8       ??_C@_08FMOHCEOC@Keypad?5C?$AA@ 100822f8     SDL_keyboard.obj
 0002:00006304       ??_C@_08EFPMBFKD@Keypad?5B?$AA@ 10082304     SDL_keyboard.obj
 0002:00006310       ??_C@_08GONBEGGA@Keypad?5A?$AA@ 10082310     SDL_keyboard.obj
 0002:0000631c       ??_C@_0BB@NKEPJCKA@Keypad?5Backspace?$AA@ 1008231c     SDL_keyboard.obj
 0002:00006330       ??_C@_0L@IDFLOOEM@Keypad?5Tab?$AA@ 10082330     SDL_keyboard.obj
 0002:0000633c       ??_C@_08BNCCDPJP@Keypad?5?$HN?$AA@ 1008233c     SDL_keyboard.obj
 0002:00006348       ??_C@_08ELHIJIBJ@Keypad?5?$HL?$AA@ 10082348     SDL_keyboard.obj
 0002:00006354       ??_C@_08MDPFKHMP@Keypad?5?$CJ?$AA@ 10082354     SDL_keyboard.obj
 0002:00006360       ??_C@_08NKOOJGIO@Keypad?5?$CI?$AA@ 10082360     SDL_keyboard.obj
 0002:0000636c       ??_C@_0BA@CDJJGJFH@CurrencySubUnit?$AA@ 1008236c     SDL_keyboard.obj
 0002:0000637c       ??_C@_0N@HKGOPMKO@CurrencyUnit?$AA@ 1008237c     SDL_keyboard.obj
 0002:0000638c       ??_C@_0BB@BHEJKAFH@DecimalSeparator?$AA@ 1008238c     SDL_keyboard.obj
 0002:000063a0       ??_C@_0BD@FBEEJGMN@ThousandsSeparator?$AA@ 100823a0     SDL_keyboard.obj
 0002:000063b4       ??_C@_0L@NCOMPFEJ@Keypad?5000?$AA@ 100823b4     SDL_keyboard.obj
 0002:000063c0       ??_C@_09MHKJIEIK@Keypad?500?$AA@ 100823c0     SDL_keyboard.obj
 0002:000063cc       ??_C@_05IGOGODKB@ExSel?$AA@ 100823cc     SDL_keyboard.obj
 0002:000063d4       ??_C@_05BKAPBIBN@CrSel?$AA@ 100823d4     SDL_keyboard.obj
 0002:000063dc       ??_C@_0O@OJCMKPED@Clear?5?1?5Again?$AA@ 100823dc     SDL_keyboard.obj
 0002:000063ec       ??_C@_04NLFEHFFJ@Oper?$AA@ 100823ec     SDL_keyboard.obj
 0002:000063f4       ??_C@_03EKFHOMB@Out?$AA@   100823f4     SDL_keyboard.obj
 0002:000063f8       ??_C@_09IBFEOKHN@Separator?$AA@ 100823f8     SDL_keyboard.obj
 0002:00006404       ??_C@_05NJANMKOE@Prior?$AA@ 10082404     SDL_keyboard.obj
 0002:0000640c       ??_C@_05MDNHABIA@Clear?$AA@ 1008240c     SDL_keyboard.obj
 0002:00006414       ??_C@_06FMBNCPDL@Cancel?$AA@ 10082414     SDL_keyboard.obj
 0002:0000641c       ??_C@_06PLMNJDOI@SysReq?$AA@ 1008241c     SDL_keyboard.obj
 0002:00006424       ??_C@_08FOFMEMCE@AltErase?$AA@ 10082424     SDL_keyboard.obj
 0002:00006430       ??_C@_0BB@OAIGOAAA@Keypad?5?$DN?5?$CIAS400?$CJ?$AA@ 10082430     SDL_keyboard.obj
 0002:00006444       ??_C@_08LOICFDIK@Keypad?5?0?$AA@ 10082444     SDL_keyboard.obj
 0002:00006450       ??_C@_0L@KMNGHJCB@VolumeDown?$AA@ 10082450     SDL_keyboard.obj
 0002:0000645c       ??_C@_08COJOPKDJ@VolumeUp?$AA@ 1008245c     SDL_keyboard.obj
 0002:00006468       ??_C@_04IOCNJLNK@Mute?$AA@ 10082468     SDL_keyboard.obj
 0002:00006470       ??_C@_04OLJIFFAL@Find?$AA@ 10082470     SDL_keyboard.obj
 0002:00006478       ??_C@_05NEBJFIEK@Paste?$AA@ 10082478     SDL_keyboard.obj
 0002:00006480       ??_C@_04OPMHGHMB@Copy?$AA@ 10082480     SDL_keyboard.obj
 0002:00006488       ??_C@_03EOHDMBHJ@Cut?$AA@  10082488     SDL_keyboard.obj
 0002:0000648c       ??_C@_04LPGMNMPN@Undo?$AA@ 1008248c     SDL_keyboard.obj
 0002:00006494       ??_C@_05JOMJAKCI@Again?$AA@ 10082494     SDL_keyboard.obj
 0002:0000649c       ??_C@_04MOIHHPNJ@Stop?$AA@ 1008249c     SDL_keyboard.obj
 0002:000064a4       ??_C@_06HJGPBJLE@Select?$AA@ 100824a4     SDL_keyboard.obj
 0002:000064ac       ??_C@_04IFEHPILC@Menu?$AA@ 100824ac     SDL_keyboard.obj
 0002:000064b4       ??_C@_04DDFEFHOJ@Help?$AA@ 100824b4     SDL_keyboard.obj
 0002:000064bc       ??_C@_07LFBPOOOH@Execute?$AA@ 100824bc     SDL_keyboard.obj
 0002:000064c4       ??_C@_03PMABOFAL@F24?$AA@  100824c4     SDL_keyboard.obj
 0002:000064c8       ??_C@_03LDEAHDMM@F23?$AA@  100824c8     SDL_keyboard.obj
 0002:000064cc       ??_C@_03KKFLECIN@F22?$AA@  100824cc     SDL_keyboard.obj
 0002:000064d0       ??_C@_03IBHGBBEO@F21?$AA@  100824d0     SDL_keyboard.obj
 0002:000064d4       ??_C@_03JIGNCAAP@F20?$AA@  100824d4     SDL_keyboard.obj
 0002:000064d8       ??_C@_03ELOJCFBP@F19?$AA@  100824d8     SDL_keyboard.obj
 0002:000064dc       ??_C@_03FCPCBEFO@F18?$AA@  100824dc     SDL_keyboard.obj
 0002:000064e0       ??_C@_03NFGKAIJB@F17?$AA@  100824e0     SDL_keyboard.obj
 0002:000064e4       ??_C@_03MMHBDJNA@F16?$AA@  100824e4     SDL_keyboard.obj
 0002:000064e8       ??_C@_03OHFMGKBD@F15?$AA@  100824e8     SDL_keyboard.obj
 0002:000064ec       ??_C@_03POEHFLFC@F14?$AA@  100824ec     SDL_keyboard.obj
 0002:000064f0       ??_C@_03LBAGMNJF@F13?$AA@  100824f0     SDL_keyboard.obj
 0002:000064f4       ??_C@_08ONFLHAJK@Keypad?5?$DN?$AA@ 100824f4     SDL_keyboard.obj
 0002:00006500       ??_C@_05PMCMDMKN@Power?$AA@ 10082500     SDL_keyboard.obj
 0002:00006508       ??_C@_0M@NJALGCHB@Application?$AA@ 10082508     SDL_keyboard.obj
 0002:00006514       ??_C@_08IMLEDBAI@Keypad?5?4?$AA@ 10082514     SDL_keyboard.obj
 0002:00006520       ??_C@_08FIPFAONH@Keypad?50?$AA@ 10082520     SDL_keyboard.obj
 0002:0000652c       ??_C@_08IJDHLFJO@Keypad?59?$AA@ 1008252c     SDL_keyboard.obj
 0002:00006538       ??_C@_08JACMIENP@Keypad?58?$AA@ 10082538     SDL_keyboard.obj
 0002:00006544       ??_C@_08BHLEJIBA@Keypad?57?$AA@ 10082544     SDL_keyboard.obj
 0002:00006550       ??_C@_08OKPKJFB@Keypad?56?$AA@ 10082550     SDL_keyboard.obj
 0002:0000655c       ??_C@_08CFICPKJC@Keypad?55?$AA@ 1008255c     SDL_keyboard.obj
 0002:00006568       ??_C@_08DMJJMLND@Keypad?54?$AA@ 10082568     SDL_keyboard.obj
 0002:00006574       ??_C@_08HDNIFNBE@Keypad?53?$AA@ 10082574     SDL_keyboard.obj
 0002:00006580       ??_C@_08GKMDGMFF@Keypad?52?$AA@ 10082580     SDL_keyboard.obj
 0002:0000658c       ??_C@_08EBOODPJG@Keypad?51?$AA@ 1008258c     SDL_keyboard.obj
 0002:00006598       ??_C@_0N@HHMDBADO@Keypad?5Enter?$AA@ 10082598     SDL_keyboard.obj
 0002:000065a8       ??_C@_08PBMDMFEN@Keypad?5?$CL?$AA@ 100825a8     SDL_keyboard.obj
 0002:000065b4       ??_C@_08KHJJGCML@Keypad?5?9?$AA@ 100825b4     SDL_keyboard.obj
 0002:000065c0       ??_C@_08OINIPEAM@Keypad?5?$CK?$AA@ 100825c0     SDL_keyboard.obj
 0002:000065cc       ??_C@_08JFKPAAEJ@Keypad?5?1?$AA@ 100825cc     SDL_keyboard.obj
 0002:000065d8       ??_C@_07FPOPKJEN@Numlock?$AA@ 100825d8     SDL_keyboard.obj
 0002:000065e0       ??_C@_02EFPGLDEA@Up?$AA@   100825e0     SDL_keyboard.obj
 0002:000065e4       ??_C@_04FNCLCJMC@Down?$AA@ 100825e4     SDL_keyboard.obj
 0002:000065ec       ??_C@_04KPCPLBPL@Left?$AA@ 100825ec     SDL_keyboard.obj
 0002:000065f4       ??_C@_05DADPALEM@Right?$AA@ 100825f4     SDL_keyboard.obj
 0002:000065fc       ??_C@_08FDLMHKA@PageDown?$AA@ 100825fc     SDL_keyboard.obj
 0002:00006608       ??_C@_03DBKJMAGF@End?$AA@  10082608     SDL_keyboard.obj
 0002:0000660c       ??_C@_06JBKGCNBB@Delete?$AA@ 1008260c     SDL_keyboard.obj
 0002:00006614       ??_C@_06OAEMCMAI@PageUp?$AA@ 10082614     SDL_keyboard.obj
 0002:0000661c       ??_C@_04GKJODLKO@Home?$AA@ 1008261c     SDL_keyboard.obj
 0002:00006624       ??_C@_06CPFCODOD@Insert?$AA@ 10082624     SDL_keyboard.obj
 0002:0000662c       ??_C@_05PEDNBBBD@Pause?$AA@ 1008262c     SDL_keyboard.obj
 0002:00006634       ??_C@_0L@JJJEGPLJ@ScrollLock?$AA@ 10082634     SDL_keyboard.obj
 0002:00006640       ??_C@_0M@CJIDBHOK@PrintScreen?$AA@ 10082640     SDL_keyboard.obj
 0002:0000664c       ??_C@_03KIBNPMNE@F12?$AA@  1008264c     SDL_keyboard.obj
 0002:00006650       ??_C@_03IDDAKPBH@F11?$AA@  10082650     SDL_keyboard.obj
 0002:00006654       ??_C@_03JKCLJOFG@F10?$AA@  10082654     SDL_keyboard.obj
 0002:00006658       ??_C@_02HKCNFKCF@F9?$AA@   10082658     SDL_keyboard.obj
 0002:0000665c       ??_C@_02GDDGGLGE@F8?$AA@   1008265c     SDL_keyboard.obj
 0002:00006660       ??_C@_02OEKOHHKL@F7?$AA@   10082660     SDL_keyboard.obj
 0002:00006664       ??_C@_02PNLFEGOK@F6?$AA@   10082664     SDL_keyboard.obj
 0002:00006668       ??_C@_02NGJIBFCJ@F5?$AA@   10082668     SDL_keyboard.obj
 0002:0000666c       ??_C@_02MPIDCEGI@F4?$AA@   1008266c     SDL_keyboard.obj
 0002:00006670       ??_C@_02IAMCLCKP@F3?$AA@   10082670     SDL_keyboard.obj
 0002:00006674       ??_C@_02JJNJIDOO@F2?$AA@   10082674     SDL_keyboard.obj
 0002:00006678       ??_C@_02LCPENACN@F1?$AA@   10082678     SDL_keyboard.obj
 0002:0000667c       ??_C@_08LBKIEOPK@CapsLock?$AA@ 1008267c     SDL_keyboard.obj
 0002:00006688       ??_C@_01KMDKNFGN@?1?$AA@   10082688     SDL_keyboard.obj
 0002:0000668c       ??_C@_01LFCBOECM@?4?$AA@   1008268c     SDL_keyboard.obj
 0002:00006690       ??_C@_01IHBHIGKO@?0?$AA@   10082690     SDL_keyboard.obj
 0002:00006694       ??_C@_01NLNLIGKH@?$GA?$AA@ 10082694     SDL_keyboard.obj
 0002:00006698       ??_C@_01GEODFPGF@?8?$AA@   10082698     SDL_keyboard.obj
 0002:0000669c       ??_C@_01ICJEACDI@?$DL?$AA@ 1008269c     SDL_keyboard.obj
 0002:000066a0       ??_C@_01IPJKGB@?$CD?$AA@   100826a0     SDL_keyboard.obj
 0002:000066a4       ??_C@_01KICIPPFI@?2?$AA@   100826a4     SDL_keyboard.obj
 0002:000066a8       ??_C@_01LBDDMOBJ@?$FN?$AA@ 100826a8     SDL_keyboard.obj
 0002:000066ac       ??_C@_01OHGJGJJP@?$FL?$AA@ 100826ac     SDL_keyboard.obj
 0002:000066b0       ??_C@_01NEMOKFLO@?$DN?$AA@ 100826b0     SDL_keyboard.obj
 0002:000066b4       ??_C@_01JOAMLHOP@?9?$AA@   100826b4     SDL_keyboard.obj
 0002:000066b8       ??_C@_05OMHELODH@Space?$AA@ 100826b8     SDL_keyboard.obj
 0002:000066c0       ??_C@_03IEAKBACE@Tab?$AA@  100826c0     SDL_keyboard.obj
 0002:000066c4       ??_C@_09LPBCIPOJ@Backspace?$AA@ 100826c4     SDL_keyboard.obj
 0002:000066d0       ??_C@_06OIGFGPHJ@Escape?$AA@ 100826d0     SDL_keyboard.obj
 0002:000066d8       ??_C@_06HCFIKKEA@Return?$AA@ 100826d8     SDL_keyboard.obj
 0002:000066e0       ??_C@_01GBGANLPD@0?$AA@    100826e0     SDL_keyboard.obj
 0002:000066e4       ??_C@_01LAKCGALK@9?$AA@    100826e4     SDL_keyboard.obj
 0002:000066e8       ??_C@_01KJLJFBPL@8?$AA@    100826e8     SDL_keyboard.obj
 0002:000066ec       ??_C@_01COCBENDE@7?$AA@    100826ec     SDL_keyboard.obj
 0002:000066f0       ??_C@_01DHDKHMHF@6?$AA@    100826f0     SDL_keyboard.obj
 0002:000066f4       ??_C@_01BMBHCPLG@5?$AA@    100826f4     SDL_keyboard.obj
 0002:000066f8       ??_C@_01FAMBOPH@4?$AA@     100826f8     SDL_keyboard.obj
 0002:000066fc       ??_C@_01EKENIIDA@3?$AA@    100826fc     SDL_keyboard.obj
 0002:00006700       ??_C@_01FDFGLJHB@2?$AA@    10082700     SDL_keyboard.obj
 0002:00006704       ??_C@_01HIHLOKLC@1?$AA@    10082704     SDL_keyboard.obj
 0002:00006708       ??_C@_01POHCFINO@Z?$AA@    10082708     SDL_keyboard.obj
 0002:0000670c       ??_C@_01NFFPALBN@Y?$AA@    1008270c     SDL_keyboard.obj
 0002:00006710       ??_C@_01MMEEDKFM@X?$AA@    10082710     SDL_keyboard.obj
 0002:00006714       ??_C@_01ELNMCGJD@W?$AA@    10082714     SDL_keyboard.obj
 0002:00006718       ??_C@_01FCMHBHNC@V?$AA@    10082718     SDL_keyboard.obj
 0002:0000671c       ??_C@_01HJOKEEBB@U?$AA@    1008271c     SDL_keyboard.obj
 0002:00006720       ??_C@_01GAPBHFFA@T?$AA@    10082720     SDL_keyboard.obj
 0002:00006724       ??_C@_01CPLAODJH@S?$AA@    10082724     SDL_keyboard.obj
 0002:00006728       ??_C@_01DGKLNCNG@R?$AA@    10082728     SDL_keyboard.obj
 0002:0000672c       ??_C@_01BNIGIBBF@Q?$AA@    1008272c     SDL_keyboard.obj
 0002:00006730       ??_C@_01EJNLAFE@P?$AA@     10082730     SDL_keyboard.obj
 0002:00006734       ??_C@_01MJMHLOMK@O?$AA@    10082734     SDL_keyboard.obj
 0002:00006738       ??_C@_01NANMIPIL@N?$AA@    10082738     SDL_keyboard.obj
 0002:0000673c       ??_C@_01PLPBNMEI@M?$AA@    1008273c     SDL_keyboard.obj
 0002:00006740       ??_C@_01OCOKONAJ@L?$AA@    10082740     SDL_keyboard.obj
 0002:00006744       ??_C@_01KNKLHLMO@K?$AA@    10082744     SDL_keyboard.obj
 0002:00006748       ??_C@_01LELAEKIP@J?$AA@    10082748     SDL_keyboard.obj
 0002:0000674c       ??_C@_01JPJNBJEM@I?$AA@    1008274c     SDL_keyboard.obj
 0002:00006750       ??_C@_01IGIGCIAN@H?$AA@    10082750     SDL_keyboard.obj
 0002:00006754       ??_C@_01BBODEMC@G?$AA@     10082754     SDL_keyboard.obj
 0002:00006758       ??_C@_01BIAFAFID@F?$AA@    10082758     SDL_keyboard.obj
 0002:0000675c       ??_C@_01DDCIFGEA@E?$AA@    1008275c     SDL_keyboard.obj
 0002:00006760       ??_C@_01CKDDGHAB@D?$AA@    10082760     SDL_keyboard.obj
 0002:00006764       ??_C@_01GFHCPBMG@C?$AA@    10082764     SDL_keyboard.obj
 0002:00006768       ??_C@_01HMGJMAIH@B?$AA@    10082768     SDL_keyboard.obj
 0002:0000676c       ??_C@_01FHEEJDEE@A?$AA@    1008276c     SDL_keyboard.obj
 0002:00006770       ??_C@_08HLAAIMLE@scancode?$AA@ 10082770     SDL_keyboard.obj
 0002:00006779       ??_C@_00CNPNBAHC@?$AA@     10082779     SDL_keyboard.obj
 0002:0000677c       ??_C@_04MEMAJGDJ@name?$AA@ 1008277c     SDL_keyboard.obj
 0002:00006784       ??_C@_0BL@BGKPDNAH@Passed?5NULL?5cursor?5surface?$AA@ 10082784     SDL_mouse.obj
 0002:000067a0       ??_C@_0CE@ONCGMING@Cursors?5are?5not?5currently?5suppor@ 100827a0     SDL_mouse.obj
 0002:000067c4       ??_C@_0CK@FOGGMOIE@Cursor?5hot?5spot?5doesn?8t?5lie?5with@ 100827c4     SDL_mouse.obj
 0002:000067f0       ??_C@_0CO@KIADCPBM@CreateSystemCursor?5is?5not?5curren@ 100827f0     SDL_mouse.obj
 0002:00006820       ??_C@_0CN@KHNBINHD@Cursor?5not?5associated?5with?5the?5c@ 10082820     SDL_mouse.obj
 0002:00006850       ??_C@_0BF@LOOJNMCH@Unknown?5touch?5device?$AA@ 10082850     SDL_touch.obj
 0002:00006868       ??_C@_0BF@OPPFFOCB@Unknown?5touch?5finger?$AA@ 10082868     SDL_touch.obj
 0002:00006880       ??_C@_05EGJIMALK@UTF?98?$AA@ 10082880     SDL_rwops.obj
 0002:00006888       ??_C@_08NBDJLNFA@UTF?916LE?$AA@ 10082888     SDL_rwops.obj
 0002:00006894       ??_C@_0BB@MAHHKGJO@Couldn?8t?5open?5?$CFs?$AA@ 10082894     SDL_rwops.obj
 0002:000068a8       ??_C@_0DD@BONPLNKB@windows_file_size?3?5invalid?5conte@ 100828a8     SDL_rwops.obj
 0002:000068dc       ??_C@_0BC@OALHGCKK@windows_file_size?$AA@ 100828dc     SDL_rwops.obj
 0002:000068f0       ??_C@_0DD@GHOJGNAN@windows_file_seek?3?5invalid?5conte@ 100828f0     SDL_rwops.obj
 0002:00006924       ??_C@_0CO@KPOKANFC@windows_file_seek?3?5Unknown?5value@ 10082924     SDL_rwops.obj
 0002:00006954       ??_C@_0BC@CDJIBENB@windows_file_seek?$AA@ 10082954     SDL_rwops.obj
 0002:00006968       ??_C@_0BL@POAIIGEL@Unknown?5value?5for?5?8whence?8?$AA@ 10082968     SDL_rwops.obj
 0002:00006984       ??_C@_0CA@JBFLDJAJ@Can?8t?5write?5to?5read?9only?5memory?$AA@ 10082984     SDL_rwops.obj
 0002:000069a4       ??_C@_0CP@CEKLGBGL@SDL_RWFromFile?$CI?$CJ?3?5No?5file?5or?5no?5@ 100829a4     SDL_rwops.obj
 0002:000069d4       ??_C@_03IJLIBDBM@mem?$AA@  100829d4     SDL_rwops.obj
 0002:000069d8       ??_C@_04IAGNFIBA@size?$AA@ 100829d8     SDL_rwops.obj
 0002:000069e0       ??_C@_0CJ@CLGEGAH@Haptic?3?5Invalid?5haptic?5device?5id@ 100829e0     SDL_haptic.obj
 0002:00006a0c       ??_C@_0CO@IDKAEOOL@Haptic?3?5There?5are?5?$CFd?5haptic?5devi@ 10082a0c     SDL_haptic.obj
 0002:00006a40       ??_C@_0EB@ICAOBCMF@Haptic?3?5Trying?5to?5add?5device?5pas@ 10082a40     SDL_haptic.obj
 0002:00006a84       ??_C@_0CF@OLEHEDKL@Haptic?3?5Mouse?5isn?8t?5a?5haptic?5dev@ 10082a84     SDL_haptic.obj
 0002:00006aac       ??_C@_0BO@OPPLHOL@Haptic?3?5Joystick?5isn?8t?5valid?4?$AA@ 10082aac     SDL_haptic.obj
 0002:00006acc       ??_C@_0CI@CDHFKME@Haptic?3?5Joystick?5isn?8t?5a?5haptic?5@ 10082acc     SDL_haptic.obj
 0002:00006af4       ??_C@_0CP@DJECPABH@Haptic?3?5Effect?5not?5supported?5by?5@ 10082af4     SDL_haptic.obj
 0002:00006b24       ??_C@_0CH@ICMCFNE@Haptic?3?5Device?5has?5no?5free?5space@ 10082b24     SDL_haptic.obj
 0002:00006b4c       ??_C@_0CD@IMHNJKEL@Haptic?3?5Invalid?5effect?5identifie@ 10082b4c     SDL_haptic.obj
 0002:00006b70       ??_C@_0CJ@MDADBPFK@Haptic?3?5Updating?5effect?5type?5is?5@ 10082b70     SDL_haptic.obj
 0002:00006b9c       ??_C@_0DA@NGHOOEAB@Haptic?3?5Device?5does?5not?5support?5@ 10082b9c     SDL_haptic.obj
 0002:00006bcc       ??_C@_0CO@PILDIIIE@Haptic?3?5Device?5does?5not?5support?5@ 10082bcc     SDL_haptic.obj
 0002:00006bfc       ??_C@_0CI@HILODHLA@Haptic?3?5Gain?5must?5be?5between?50?5a@ 10082bfc     SDL_haptic.obj
 0002:00006c24       ??_C@_0BE@FBEGKDN@SDL_HAPTIC_GAIN_MAX?$AA@ 10082c24     SDL_haptic.obj
 0002:00006c38       ??_C@_0DE@IBKOEMEL@Haptic?3?5Device?5does?5not?5support?5@ 10082c38     SDL_haptic.obj
 0002:00006c6c       ??_C@_0CO@HOBGEPK@Haptic?3?5Autocenter?5must?5be?5betwe@ 10082c6c     SDL_haptic.obj
 0002:00006c9c       ??_C@_0DB@OHCMFLHG@Haptic?3?5Device?5does?5not?5support?5@ 10082c9c     SDL_haptic.obj
 0002:00006cd0       ??_C@_0BO@DIDGIBMF@Device?5doesn?8t?5support?5rumble?$AA@ 10082cd0     SDL_haptic.obj
 0002:00006cf0       ??_C@_0DH@CCBEHCBA@Haptic?3?5Rumble?5effect?5not?5initia@ 10082cf0     SDL_haptic.obj
 0002:00006d28       ??_C@_07FLLKAONK@dpright?$AA@ 10082d28     SDL_gamecontroller.obj
 0002:00006d30       ??_C@_06EBHLNDKL@dpleft?$AA@ 10082d30     SDL_gamecontroller.obj
 0002:00006d38       ??_C@_06LDHPELJC@dpdown?$AA@ 10082d38     SDL_gamecontroller.obj
 0002:00006d40       ??_C@_04EDFFKKLO@dpup?$AA@ 10082d40     SDL_gamecontroller.obj
 0002:00006d48       ??_C@_0O@LCPOPKLJ@rightshoulder?$AA@ 10082d48     SDL_gamecontroller.obj
 0002:00006d58       ??_C@_0N@MEFCLEJO@leftshoulder?$AA@ 10082d58     SDL_gamecontroller.obj
 0002:00006d68       ??_C@_0L@DHLNGPDM@rightstick?$AA@ 10082d68     SDL_gamecontroller.obj
 0002:00006d74       ??_C@_09MEKLKMGE@leftstick?$AA@ 10082d74     SDL_gamecontroller.obj
 0002:00006d80       ??_C@_05FAGFPHJG@start?$AA@ 10082d80     SDL_gamecontroller.obj
 0002:00006d88       ??_C@_05HLIEEKJG@guide?$AA@ 10082d88     SDL_gamecontroller.obj
 0002:00006d90       ??_C@_04JFCNHLLM@back?$AA@ 10082d90     SDL_gamecontroller.obj
 0002:00006d98       ??_C@_01EANLCPLP@y?$AA@    10082d98     SDL_gamecontroller.obj
 0002:00006d9c       ??_C@_01FJMABOPO@x?$AA@    10082d9c     SDL_gamecontroller.obj
 0002:00006da0       ??_C@_01OJONOECF@b?$AA@    10082da0     SDL_gamecontroller.obj
 0002:00006da4       ??_C@_01MCMALHOG@a?$AA@    10082da4     SDL_gamecontroller.obj
 0002:00006da8       ??_C@_0N@CLKIAFGP@righttrigger?$AA@ 10082da8     SDL_gamecontroller.obj
 0002:00006db8       ??_C@_0M@FLKHLCCP@lefttrigger?$AA@ 10082db8     SDL_gamecontroller.obj
 0002:00006dc4       ??_C@_06EOBKMJJD@righty?$AA@ 10082dc4     SDL_gamecontroller.obj
 0002:00006dcc       ??_C@_06FHABPINC@rightx?$AA@ 10082dcc     SDL_gamecontroller.obj
 0002:00006dd4       ??_C@_05NDJBMDKM@lefty?$AA@ 10082dd4     SDL_gamecontroller.obj
 0002:00006ddc       ??_C@_05MKIKPCON@leftx?$AA@ 10082ddc     SDL_gamecontroller.obj
 0002:00006de8       ??_C@_0PD@JKKLOKNP@xinput?0X360?5Controller?0a?3b10?0b?3b@ 10082de8     SDL_gamecontroller.obj
 0002:00006ee0       ??_C@_0BAO@FMMLNAN@25090500000000000000504944564944@ 10082ee0     SDL_gamecontroller.obj
 0002:00006ff0       ??_C@_0BAO@DNPAEFIG@4c056802000000000000504944564944@ 10082ff0     SDL_gamecontroller.obj
 0002:00007100       ??_C@_0BBC@GBLINCAN@88880803000000000000504944564944@ 10083100     SDL_gamecontroller.obj
 0002:00007218       ??_C@_0BAP@HGGFDEDO@6d0419c2000000000000504944564944@ 10083218     SDL_gamecontroller.obj
 0002:00007328       ??_C@_0BBI@NPKHGDHN@6d0416c2000000000000504944564944@ 10083328     SDL_gamecontroller.obj
 0002:00007440       ??_C@_0BBB@LPODHOOC@ffff0000000000000000504944564944@ 10083440     SDL_gamecontroller.obj
 0002:00007558       ??_C@_0BBM@ENNFIHLO@341a3608000000000000504944564944@ 10083558     SDL_gamecontroller.obj
 0002:00007674       ??_C@_0BJ@MJGIDEEP@Axis?5index?5too?5large?3?5?$CFd?$AA@ 10083674     SDL_gamecontroller.obj
 0002:00007690       ??_C@_0BL@NCEBLBBK@Button?5index?5too?5large?3?5?$CFd?$AA@ 10083690     SDL_gamecontroller.obj
 0002:000076ac       ??_C@_0BI@HJBNAHDG@Hat?5index?5too?5large?3?5?$CFd?$AA@ 100836ac     SDL_gamecontroller.obj
 0002:000076c4       ??_C@_0BK@CCMLICPB@Button?5name?5too?5large?3?5?$CFs?$AA@ 100836c4     SDL_gamecontroller.obj
 0002:000076e0       ??_C@_0CD@NANNFFFE@Joystick?5button?5name?5too?5large?3?5@ 100836e0     SDL_gamecontroller.obj
 0002:00007704       ??_C@_06MGLLJPKG@xinput?$AA@ 10083704     SDL_gamecontroller.obj
 0002:0000770c       ??_C@_08MCDBFJAE@?$CFs?0?$CFs?0?$CFs?$AA@ 1008370c     SDL_gamecontroller.obj
 0002:00007718       ??_C@_0BJ@IJEKINBN@SDL_GAMECONTROLLERCONFIG?$AA@ 10083718     SDL_gamecontroller.obj
 0002:00007734       ??_C@_0CB@KCPNOAKL@There?5are?5?$CFd?5joysticks?5available@ 10083734     SDL_gamecontroller.obj
 0002:00007758       ??_C@_0CG@GBEAHDNE@Couldn?8t?5find?5mapping?5for?5device@ 10083758     SDL_gamecontroller.obj
 0002:00007780       ??_C@_0CF@GPJAGHLN@SDL_JOYSTICK_ALLOW_BACKGROUND_EV@ 10083780     SDL_joystick.obj
 0002:000077a8       ??_C@_0CA@FCHBKHPL@Joystick?5hasn?8t?5been?5opened?5yet?$AA@ 100837a8     SDL_joystick.obj
 0002:000077c8       ??_C@_0BK@DOKCBDHC@Joystick?5only?5has?5?$CFd?5axes?$AA@ 100837c8     SDL_joystick.obj
 0002:000077e4       ??_C@_0BK@DEHKAFB@Joystick?5only?5has?5?$CFd?5hats?$AA@ 100837e4     SDL_joystick.obj
 0002:00007800       ??_C@_0BL@DLDBLEKM@Joystick?5only?5has?5?$CFd?5balls?$AA@ 10083800     SDL_joystick.obj
 0002:0000781c       ??_C@_0BN@LOKOHPBB@Joystick?5only?5has?5?$CFd?5buttons?$AA@ 1008381c     SDL_joystick.obj
 0002:0000783c       ??_C@_0CF@LNPFIFJC@index?5must?5be?5in?5the?5range?5of?50?5@ 1008383c     SDL_render.obj
 0002:00007864       ??_C@_0P@ECEHCKEF@Invalid?5window?$AA@ 10083864     SDL_render.obj
 0002:00007874       ??_C@_0CI@NCMHHKLK@Renderer?5already?5associated?5with@ 10083874     SDL_render.obj
 0002:0000789c       ??_C@_0BB@BNJAOAFB@SDL_RENDER_VSYNC?$AA@ 1008389c     SDL_render.obj
 0002:000078b0       ??_C@_0BC@FOCBAEFG@SDL_RENDER_DRIVER?$AA@ 100838b0     SDL_render.obj
 0002:000078c4       ??_C@_0CF@DLEDKEIF@Couldn?8t?5find?5matching?5render?5dr@ 100838c4     SDL_render.obj
 0002:000078ec       ??_C@_0CL@KECFMKMA@index?5must?5be?5?91?5or?5in?5the?5range@ 100838ec     SDL_render.obj
 0002:00007918       ??_C@_0BG@BMDGIALD@_SDL_WindowRenderData?$AA@ 10083918     SDL_render.obj
 0002:00007930       ??_C@_0BF@JODAKHNK@Created?5renderer?3?5?$CFs?$AA@ 10083930     SDL_render.obj
 0002:00007948       ??_C@_0BB@GFPGJKPN@Invalid?5renderer?$AA@ 10083948     SDL_render.obj
 0002:0000795c       ??_C@_0CO@CJKFMNM@Renderer?5doesn?8t?5support?5queryin@ 1008395c     SDL_render.obj
 0002:0000798c       ??_C@_0CG@LJJJCNJI@Palettized?5textures?5are?5not?5supp@ 1008398c     SDL_render.obj
 0002:000079b4       ??_C@_0BO@KMOMBDEL@Texture?5dimensions?5can?8t?5be?50?$AA@ 100839b4     SDL_render.obj
 0002:000079d4       ??_C@_0CI@DIOFGJGK@Texture?5dimensions?5are?5limited?5t@ 100839d4     SDL_render.obj
 0002:000079fc       ??_C@_0DD@GCMDHNIP@SDL_CreateTextureFromSurface?$CI?$CJ?5p@ 100839fc     SDL_render.obj
 0002:00007a30       ??_C@_0BA@NLFBADFE@Invalid?5texture?$AA@ 10083a30     SDL_render.obj
 0002:00007a40       ??_C@_06CBIFBKHG@pixels?$AA@ 10083a40     SDL_render.obj
 0002:00007a48       ??_C@_05NCNFOFLM@pitch?$AA@ 10083a48     SDL_render.obj
 0002:00007a50       ??_C@_06FKGHPCMG@Yplane?$AA@ 10083a50     SDL_render.obj
 0002:00007a58       ??_C@_06EIDGDHAF@Ypitch?$AA@ 10083a58     SDL_render.obj
 0002:00007a60       ??_C@_06JNMHJILC@Uplane?$AA@ 10083a60     SDL_render.obj
 0002:00007a68       ??_C@_06IPJGFNHB@Upitch?$AA@ 10083a68     SDL_render.obj
 0002:00007a70       ??_C@_06KMCPICCP@Vplane?$AA@ 10083a70     SDL_render.obj
 0002:00007a78       ??_C@_06LOHOEHOM@Vpitch?$AA@ 10083a78     SDL_render.obj
 0002:00007a80       ??_C@_0CE@GPMMJMLE@Texture?5format?5must?5by?5YV12?5or?5I@ 10083a80     SDL_render.obj
 0002:00007aa4       ??_C@_0CN@PFPBINLD@SDL_LockTexture?$CI?$CJ?3?5texture?5must?5@ 10083aa4     SDL_render.obj
 0002:00007ad4       ??_C@_0CL@DMDPPMKG@Texture?5was?5not?5created?5with?5thi@ 10083ad4     SDL_render.obj
 0002:00007b00       ??_C@_0DC@GJADPECC@Texture?5not?5created?5with?5SDL_TEX@ 10083b00     SDL_render.obj
 0002:00007b34       ??_C@_0CL@EDIJBFA@SDL_RenderDrawPoints?$CI?$CJ?3?5Passed?5N@ 10083b34     SDL_render.obj
 0002:00007b60       ??_C@_0CK@LINDOKPA@SDL_RenderDrawLines?$CI?$CJ?3?5Passed?5NU@ 10083b60     SDL_render.obj
 0002:00007b8c       ??_C@_0CJ@ECBHPODM@SDL_RenderDrawRects?$CI?$CJ?3?5Passed?5NU@ 10083b8c     SDL_render.obj
 0002:00007bb8       ??_C@_0CJ@NNHIGIMN@SDL_RenderFillRects?$CI?$CJ?3?5Passed?5NU@ 10083bb8     SDL_render.obj
 0002:00007be4       ??_C@_0CH@BFFKFKID@Renderer?5does?5not?5support?5Render@ 10083be4     SDL_render.obj
 0002:00007c0c       ??_C@_0CD@JCHGOJPA@Unsupported?5YUV?5destination?5form@ 10083c0c     SDL_yuv_sw.obj
 0002:00007c30       ??_C@_0BH@NPDOPCKC@Unsupported?5YUV?5format?$AA@ 10083c30     SDL_yuv_sw.obj
 0002:00007c48       ??_C@_0DH@OKPODNGN@YV12?5and?5IYUV?5textures?5only?5supp@ 10083c48     SDL_yuv_sw.obj
 0002:00007c80       ??_C@_0BP@KIPHAOMO@Unsupported?5YUV?5format?5in?5copy?$AA@ 10083c80     SDL_yuv_sw.obj
 0002:00007ca0       ??_C@_0P@GKIBCCHP@UCS?94?9INTERNAL?$AA@ 10083ca0     SDL_iconv.obj
 0002:00007cb0       ??_C@_07MAOKKOCE@UCS?94BE?$AA@ 10083cb0     SDL_iconv.obj
 0002:00007cb8       ??_C@_07MKHEIDCO@UCS?94LE?$AA@ 10083cb8     SDL_iconv.obj
 0002:00007cc0       ??_C@_05FPCKGDIJ@UCS?94?$AA@ 10083cc0     SDL_iconv.obj
 0002:00007cc8       ??_C@_04JFFPNMJE@UCS4?$AA@ 10083cc8     SDL_iconv.obj
 0002:00007cd0       ??_C@_0P@ICDEOIDM@UCS?92?9INTERNAL?$AA@ 10083cd0     SDL_iconv.obj
 0002:00007ce0       ??_C@_07OFIBPBPI@UCS?92BE?$AA@ 10083ce0     SDL_iconv.obj
 0002:00007ce8       ??_C@_07OPBPNMPC@UCS?92LE?$AA@ 10083ce8     SDL_iconv.obj
 0002:00007cf0       ??_C@_05JHAMEAP@UCS?92?$AA@ 10083cf0     SDL_iconv.obj
 0002:00007cf8       ??_C@_04MDAFHLBC@UCS2?$AA@ 10083cf8     SDL_iconv.obj
 0002:00007d00       ??_C@_08CEJLHJGH@UTF?932LE?$AA@ 10083d00     SDL_iconv.obj
 0002:00007d0c       ??_C@_07MBKNMEHJ@UTF32LE?$AA@ 10083d0c     SDL_iconv.obj
 0002:00007d14       ??_C@_08COAFFEGN@UTF?932BE?$AA@ 10083d14     SDL_iconv.obj
 0002:00007d20       ??_C@_07MLDDOJHD@UTF32BE?$AA@ 10083d20     SDL_iconv.obj
 0002:00007d28       ??_C@_06MKNHHJMC@UTF?932?$AA@ 10083d28     SDL_iconv.obj
 0002:00007d30       ??_C@_05KKMPKGEK@UTF32?$AA@ 10083d30     SDL_iconv.obj
 0002:00007d38       ??_C@_07DEAPAAEO@UTF16LE?$AA@ 10083d38     SDL_iconv.obj
 0002:00007d40       ??_C@_08NLKHJAFK@UTF?916BE?$AA@ 10083d40     SDL_iconv.obj
 0002:00007d4c       ??_C@_07DOJBCNEE@UTF16BE?$AA@ 10083d4c     SDL_iconv.obj
 0002:00007d54       ??_C@_06KNDPGIKI@UTF?916?$AA@ 10083d54     SDL_iconv.obj
 0002:00007d5c       ??_C@_05MNCHLHCA@UTF16?$AA@ 10083d5c     SDL_iconv.obj
 0002:00007d64       ??_C@_04OOMJJNCF@UTF8?$AA@ 10083d64     SDL_iconv.obj
 0002:00007d6c       ??_C@_0L@GJIJNDEK@ISO?98859?91?$AA@ 10083d6c     SDL_iconv.obj
 0002:00007d78       ??_C@_06DBMBMKI@8859?91?$AA@ 10083d78     SDL_iconv.obj
 0002:00007d80       ??_C@_08DIBGJKBD@US?9ASCII?$AA@ 10083d80     SDL_iconv.obj
 0002:00007d8c       ??_C@_05CCNLIHFO@ASCII?$AA@ 10083d8c     SDL_iconv.obj
 0002:00007d94       ??_C@_06NEFDFEKB@LC_ALL?$AA@ 10083d94     SDL_iconv.obj
 0002:00007d9c       ??_C@_08EADHIDAD@LC_CTYPE?$AA@ 10083d9c     SDL_iconv.obj
 0002:00007da8       ??_C@_0M@OEOGJAKB@LC_MESSAGES?$AA@ 10083da8     SDL_iconv.obj
 0002:00007db4       ??_C@_04ECEKPLPK@LANG?$AA@ 10083db4     SDL_iconv.obj
 0002:00007dbc       ??_C@_02MDDDDAID@0x?$AA@   10083dbc     SDL_string.obj
 0002:00007dc0       ??_C@_03KDGLFNIB@I64?$AA@  10083dc0     SDL_string.obj
 0002:00007dc4       ??_C@_02EGCJHIOB@id?$AA@   10083dc4     SDL_thread.obj
 0002:00007dc8       ??_C@_08OFDBCHEE@SDLTimer?$AA@ 10083dc8     SDL_timer.obj
 0002:00007dd4       ??_C@_0BG@FDAAEABG@SDL_BLIT_CPU_FEATURES?$AA@ 10083dd4     SDL_blit.obj
 0002:00007dec       ??_C@_02GMHACPFF@?$CFu?$AA@ 10083dec     SDL_blit.obj
 0002:00007df0       ??_C@_0BP@DOEMAMAO@Blit?5combination?5not?5supported?$AA@ 10083df0     SDL_blit.obj
 0002:00007e10       ??_C@_02DGHHEOAL@BM?$AA@   10083e10     SDL_bmp.obj
 0002:00007e14       ??_C@_0BP@KFCLDKFK@File?5is?5not?5a?5Windows?5BMP?5file?$AA@ 10083e14     SDL_bmp.obj
 0002:00007e34       ??_C@_0CD@JAGEONDI@Compressed?5BMP?5files?5not?5support@ 10083e34     SDL_bmp.obj
 0002:00007e58       ??_C@_0BH@MBEMJCJD@Error?5reading?5from?5BMP?$AA@ 10083e58     SDL_bmp.obj
 0002:00007e70       ??_C@_0BP@EDKJCFAN@?$CFd?5bpp?5BMP?5files?5not?5supported?$AA@ 10083e70     SDL_bmp.obj
 0002:00007e90       ??_C@_0CB@KFIBCIJC@Couldn?8t?5convert?5image?5to?5?$CFd?5bpp@ 10083e90     SDL_bmp.obj
 0002:00007eb4       ??_C@_0CA@JMOKMMHL@Passed?5NULL?5destination?5surface?$AA@ 10083eb4     SDL_fillrect.obj
 0002:00007ed4       ??_C@_0CL@EEMMFBLB@SDL_FillRect?$CI?$CJ?3?5Unsupported?5surf@ 10083ed4     SDL_fillrect.obj
 0002:00007f00       ??_C@_0CK@NBGGFHE@SDL_FillRect?$CI?$CJ?3?5You?5must?5lock?5th@ 10083f00     SDL_fillrect.obj
 0002:00007f2c       ??_C@_0CC@BHMHHMOO@SDL_FillRects?$CI?$CJ?5passed?5NULL?5rect@ 10083f2c     SDL_fillrect.obj
 0002:00007f50       ??_C@_0BK@CDDKPENB@SDL_PIXELFORMAT_INDEX1LSB?$AA@ 10083f50     SDL_pixels.obj
 0002:00007f6c       ??_C@_0BK@JLIGJDLE@SDL_PIXELFORMAT_INDEX1MSB?$AA@ 10083f6c     SDL_pixels.obj
 0002:00007f88       ??_C@_0BK@OLNKHLKB@SDL_PIXELFORMAT_INDEX4LSB?$AA@ 10083f88     SDL_pixels.obj
 0002:00007fa4       ??_C@_0BK@FDGGBMME@SDL_PIXELFORMAT_INDEX4MSB?$AA@ 10083fa4     SDL_pixels.obj
 0002:00007fc0       ??_C@_0BH@MENODIDB@SDL_PIXELFORMAT_INDEX8?$AA@ 10083fc0     SDL_pixels.obj
 0002:00007fd8       ??_C@_0BH@PJHBGHGG@SDL_PIXELFORMAT_RGB332?$AA@ 10083fd8     SDL_pixels.obj
 0002:00007ff0       ??_C@_0BH@DHLDOONM@SDL_PIXELFORMAT_RGB444?$AA@ 10083ff0     SDL_pixels.obj
 0002:00008008       ??_C@_0BH@JHNGNCMP@SDL_PIXELFORMAT_RGB555?$AA@ 10084008     SDL_pixels.obj
 0002:00008020       ??_C@_0BH@JAOINJID@SDL_PIXELFORMAT_BGR555?$AA@ 10084020     SDL_pixels.obj
 0002:00008038       ??_C@_0BJ@NMCCEMOE@SDL_PIXELFORMAT_ARGB4444?$AA@ 10084038     SDL_pixels.obj
 0002:00008054       ??_C@_0BJ@KJJIFABG@SDL_PIXELFORMAT_RGBA4444?$AA@ 10084054     SDL_pixels.obj
 0002:00008070       ??_C@_0BJ@KDEPHPFE@SDL_PIXELFORMAT_ABGR4444?$AA@ 10084070     SDL_pixels.obj
 0002:0000808c       ??_C@_0BJ@GCIGIOKJ@SDL_PIXELFORMAT_BGRA4444?$AA@ 1008408c     SDL_pixels.obj
 0002:000080a8       ??_C@_0BJ@LEKHPPIH@SDL_PIXELFORMAT_ARGB1555?$AA@ 100840a8     SDL_pixels.obj
 0002:000080c4       ??_C@_0BJ@FAPBIALB@SDL_PIXELFORMAT_RGBA5551?$AA@ 100840c4     SDL_pixels.obj
 0002:000080e0       ??_C@_0BJ@MLMKMMDH@SDL_PIXELFORMAT_ABGR1555?$AA@ 100840e0     SDL_pixels.obj
 0002:000080fc       ??_C@_0BJ@JLOPFOAO@SDL_PIXELFORMAT_BGRA5551?$AA@ 100840fc     SDL_pixels.obj
 0002:00008118       ??_C@_0BH@JFJAGMJG@SDL_PIXELFORMAT_RGB565?$AA@ 10084118     SDL_pixels.obj
 0002:00008130       ??_C@_0BH@JCKOGHNK@SDL_PIXELFORMAT_BGR565?$AA@ 10084130     SDL_pixels.obj
 0002:00008148       ??_C@_0BG@EOOMKEOM@SDL_PIXELFORMAT_RGB24?$AA@ 10084148     SDL_pixels.obj
 0002:00008160       ??_C@_0BG@BNCDPBOI@SDL_PIXELFORMAT_BGR24?$AA@ 10084160     SDL_pixels.obj
 0002:00008178       ??_C@_0BH@NIMKOHAM@SDL_PIXELFORMAT_RGB888?$AA@ 10084178     SDL_pixels.obj
 0002:00008190       ??_C@_0BJ@KHMIOHJE@SDL_PIXELFORMAT_RGBX8888?$AA@ 10084190     SDL_pixels.obj
 0002:000081ac       ??_C@_0BH@NPPEOMEA@SDL_PIXELFORMAT_BGR888?$AA@ 100841ac     SDL_pixels.obj
 0002:000081c4       ??_C@_0BJ@GMNGDJCL@SDL_PIXELFORMAT_BGRX8888?$AA@ 100841c4     SDL_pixels.obj
 0002:000081e0       ??_C@_0BJ@PGKLKIDF@SDL_PIXELFORMAT_ARGB8888?$AA@ 100841e0     SDL_pixels.obj
 0002:000081fc       ??_C@_0BJ@IDBBLEMH@SDL_PIXELFORMAT_RGBA8888?$AA@ 100841fc     SDL_pixels.obj
 0002:00008218       ??_C@_0BJ@IJMGJLIF@SDL_PIXELFORMAT_ABGR8888?$AA@ 10084218     SDL_pixels.obj
 0002:00008234       ??_C@_0BJ@EIAPGKHI@SDL_PIXELFORMAT_BGRA8888?$AA@ 10084234     SDL_pixels.obj
 0002:00008250       ??_C@_0BM@OKKFJDPO@SDL_PIXELFORMAT_ARGB2101010?$AA@ 10084250     SDL_pixels.obj
 0002:0000826c       ??_C@_0BF@FBJLLF@SDL_PIXELFORMAT_YV12?$AA@ 1008426c     SDL_pixels.obj
 0002:00008284       ??_C@_0BF@HGJNNBDO@SDL_PIXELFORMAT_IYUV?$AA@ 10084284     SDL_pixels.obj
 0002:0000829c       ??_C@_0BF@FECAKOMD@SDL_PIXELFORMAT_YUY2?$AA@ 1008429c     SDL_pixels.obj
 0002:000082b4       ??_C@_0BF@FGFDAJCL@SDL_PIXELFORMAT_UYVY?$AA@ 100842b4     SDL_pixels.obj
 0002:000082cc       ??_C@_0BF@GMCJPMEN@SDL_PIXELFORMAT_YVYU?$AA@ 100842cc     SDL_pixels.obj
 0002:000082e4       ??_C@_0BI@BMDHPIBC@SDL_PIXELFORMAT_UNKNOWN?$AA@ 100842e4     SDL_pixels.obj
 0002:000082fc       ??_C@_0CH@OBIBNFFP@FOURCC?5pixel?5formats?5are?5not?5sup@ 100842fc     SDL_pixels.obj
 0002:00008324       ??_C@_0BF@BGLAILLL@Unknown?5pixel?5format?$AA@ 10084324     SDL_pixels.obj
 0002:0000833c       ??_C@_06DLEPGFEF@format?$AA@ 1008433c     SDL_pixels.obj
 0002:00008344       ??_C@_07HAKAJCPK@ncolors?$AA@ 10084344     SDL_pixels.obj
 0002:0000834c       ??_C@_0CP@FEFEDGPM@SDL_SetPixelFormatPalette?$CI?$CJ?5pass@ 1008434c     SDL_pixels.obj
 0002:00008380       ??_C@_0EL@BMJKHCAE@SDL_SetPixelFormatPalette?$CI?$CJ?5pass@ 10084380     SDL_pixels.obj
 0002:000083cc       ??_C@_07JKIHKJOO@palette?$AA@ 100843cc     SDL_pixels.obj
 0002:000083d4       ??_C@_05KDLBCAI@gamma?$AA@ 100843d4     SDL_pixels.obj
 0002:000083dc       ??_C@_04FGGFAKKO@ramp?$AA@ 100843dc     SDL_pixels.obj
 0002:000083e4       ??_C@_06KJFADLGN@result?$AA@ 100843e4     SDL_rect.obj
 0002:000083ec       ??_C@_06GPGIDCJA@points?$AA@ 100843ec     SDL_rect.obj
 0002:000083f4       ??_C@_05IOMEMJEC@count?$AA@ 100843f4     SDL_rect.obj
 0002:000083fc       ??_C@_04LHPFHFPH@rect?$AA@ 100843fc     SDL_rect.obj
 0002:00008404       ??_C@_02KEEMFOFH@X1?$AA@   10084404     SDL_rect.obj
 0002:00008408       ??_C@_02KFIODEGA@Y1?$AA@   10084408     SDL_rect.obj
 0002:0000840c       ??_C@_02IPGBANJE@X2?$AA@   1008440c     SDL_rect.obj
 0002:00008410       ??_C@_02IOKDGHKD@Y2?$AA@   10084410     SDL_rect.obj
 0002:00008414       ??_C@_05IGKADHGO@width?$AA@ 10084414     SDL_rect.obj
 0002:0000841c       ??_C@_06LNLHEAAG@height?$AA@ 1008441c     SDL_rect.obj
 0002:00008424       ??_C@_05CHHMLIPP@rects?$AA@ 10084424     SDL_rect.obj
 0002:0000842c       ??_C@_04FOPLNFFP@span?$AA@ 1008442c     SDL_rect.obj
 0002:00008434       ??_C@_08OKMHOFBF@numrects?$AA@ 10084434     SDL_rect.obj
 0002:00008440       ??_C@_0CF@MJPDNGPI@Only?5works?5with?5same?5format?5surf@ 10084440     SDL_stretch.obj
 0002:00008468       ??_C@_0BO@BIKFPOBL@Invalid?5source?5blit?5rectangle?$AA@ 10084468     SDL_stretch.obj
 0002:00008488       ??_C@_0CD@JKBIJKNH@Invalid?5destination?5blit?5rectang@ 10084488     SDL_stretch.obj
 0002:000084ac       ??_C@_0CD@LPFFNOGB@Unable?5to?5lock?5destination?5surfa@ 100844ac     SDL_stretch.obj
 0002:000084d0       ??_C@_0BO@HEMJFNN@Unable?5to?5lock?5source?5surface?$AA@ 100844d0     SDL_stretch.obj
 0002:000084f0       ??_C@_0CO@NKNMDJLH@SDL_SetSurfacePalette?$CI?$CJ?5passed?5a@ 100844f0     SDL_surface.obj
 0002:00008520       ??_C@_07IHELBNLD@surface?$AA@ 10084520     SDL_surface.obj
 0002:00008528       ??_C@_03ICHNJLJF@key?$AA@  10084528     SDL_surface.obj
 0002:0000852c       ??_C@_0CF@ILLBAFPC@SDL_UpperBlit?3?5passed?5a?5NULL?5sur@ 1008452c     SDL_surface.obj
 0002:00008554       ??_C@_0CI@DBDIFOAL@Surfaces?5must?5not?5be?5locked?5duri@ 10084554     SDL_surface.obj
 0002:0000857c       ??_C@_0CL@LLGPMFND@SDL_UpperBlitScaled?3?5passed?5a?5NU@ 1008457c     SDL_surface.obj
 0002:000085a8       ??_C@_0BK@EIJMFOLB@Empty?5destination?5palette?$AA@ 100845a8     SDL_surface.obj
 0002:000085c4       ??_C@_0CE@NLKAGGOI@Indexed?5pixel?5formats?5not?5suppor@ 100845c4     SDL_surface.obj
 0002:000085e8       ??_C@_03HHBLCKEM@dst?$AA@  100845e8     SDL_surface.obj
 0002:000085ec       ??_C@_09GMDIHBEH@dst_pitch?$AA@ 100845ec     SDL_surface.obj
 0002:000085f8       ??_C@_0BM@LNJEPOHC@Unknown?5FOURCC?5pixel?5format?$AA@ 100845f8     SDL_surface.obj
 0002:00008614       ??_C@_08CGFBBPDL@software?$AA@ 10084614     SDL_video.obj
 0002:00008620       ??_C@_0BN@HCNOJOLL@SDL_FRAMEBUFFER_ACCELERATION?$AA@ 10084620     SDL_video.obj
 0002:00008640       ??_C@_0BH@IDJPBJJE@_SDL_WindowTextureData?$AA@ 10084640     SDL_video.obj
 0002:00008658       ??_C@_0CM@JJFMKOBB@No?5hardware?5accelerated?5renderer@ 10084658     SDL_video.obj
 0002:00008684       ??_C@_0BH@NFBPFOBG@No?5window?5texture?5data?$AA@ 10084684     SDL_video.obj
 0002:0000869c       ??_C@_0CJ@DHBOLPOL@Video?5subsystem?5has?5not?5been?5ini@ 1008469c     SDL_video.obj
 0002:000086c8       ??_C@_0BA@MOBFFJMC@SDL_VIDEODRIVER?$AA@ 100846c8     SDL_video.obj
 0002:000086d8       ??_C@_0BB@PBJMHGCP@?$CFs?5not?5available?$AA@ 100846d8     SDL_video.obj
 0002:000086ec       ??_C@_0BK@IGCJJGJH@No?5available?5video?5device?$AA@ 100846ec     SDL_video.obj
 0002:00008708       ??_C@_0CK@PJKOKGCO@The?5video?5driver?5did?5not?5add?5any@ 10084708     SDL_video.obj
 0002:00008734       ??_C@_0CJ@BDEGNDKI@displayIndex?5must?5be?5in?5the?5rang@ 10084734     SDL_video.obj
 0002:00008760       ??_C@_0CP@MMIDKBJN@Missing?5desired?5mode?5or?5closest?5@ 10084760     SDL_video.obj
 0002:00008790       ??_C@_0CF@DMFBCMNF@No?5video?5mode?5large?5enough?5for?5?$CF@ 10084790     SDL_video.obj
 0002:000087b8       ??_C@_0DD@BKEAPIHL@Video?5driver?5doesn?8t?5support?5cha@ 100847b8     SDL_video.obj
 0002:000087ec       ??_C@_0BL@CMDGLANO@Couldn?8t?5find?5any?5displays?$AA@ 100847ec     SDL_video.obj
 0002:00008808       ??_C@_04GMGOKAFF@mode?$AA@ 10084808     SDL_video.obj
 0002:00008810       ??_C@_0CB@OHLALJML@Couldn?8t?5find?5display?5mode?5match@ 10084810     SDL_video.obj
 0002:00008834       ??_C@_0CC@CAKIDHIB@No?5OpenGL?5support?5in?5video?5drive@ 10084834     SDL_video.obj
 0002:00008858       ??_C@_0BL@DGHGGGKK@SDL_VIDEO_HIGHDPI_DISABLED?$AA@ 10084858     SDL_video.obj
 0002:00008874       ??_C@_01NOFIACDB@w?$AA@    10084874     SDL_video.obj
 0002:00008878       ??_C@_01BDACAMKP@h?$AA@    10084878     SDL_video.obj
 0002:0000887c       ??_C@_05LCBCFBGI@min_w?$AA@ 1008487c     SDL_video.obj
 0002:00008884       ??_C@_05HPEIFPPG@min_h?$AA@ 10084884     SDL_video.obj
 0002:0000888c       ??_C@_05PHBABCOK@max_w?$AA@ 1008488c     SDL_video.obj
 0002:00008894       ??_C@_05DKEKBMHE@max_h?$AA@ 10084894     SDL_video.obj
 0002:000088a0       ??_C@_0FD@MJKLOGDC@Window?5surface?5is?5invalid?0?5pleas@ 100848a0     SDL_video.obj
 0002:000088f4       ??_C@_0CB@HINFJDCH@SDL_VIDEO_MINIMIZE_ON_FOCUS_LOSS@ 100848f4     SDL_video.obj
 0002:00008918       ??_C@_0BO@MEFFCKHK@OpenGL?5library?5already?5loaded?$AA@ 10084918     SDL_video.obj
 0002:00008938       ??_C@_0CG@ECAMDENE@No?5dynamic?5GL?5support?5in?5video?5d@ 10084938     SDL_video.obj
 0002:00008960       ??_C@_0BN@PLLLAMKF@No?5GL?5driver?5has?5been?5loaded?$AA@ 10084960     SDL_video.obj
 0002:00008980       ??_C@_0M@OPOBFDCB@glGetString?$AA@ 10084980     SDL_video.obj
 0002:0000898c       ??_C@_0N@PILJCBOD@glGetStringi?$AA@ 1008498c     SDL_video.obj
 0002:0000899c       ??_C@_0O@DHHDCCLF@glGetIntegerv?$AA@ 1008499c     SDL_video.obj
 0002:000089ac       ??_C@_0BP@CHJEIHOP@Unknown?5OpenGL?5context?5flag?5?$CFd?$AA@ 100849ac     SDL_video.obj
 0002:000089cc       ??_C@_0CC@BNDGNJM@Unknown?5OpenGL?5context?5profile?5?$CF@ 100849cc     SDL_video.obj
 0002:000089f0       ??_C@_0BJ@FAFAIBBO@Unknown?5OpenGL?5attribute?$AA@ 100849f0     SDL_video.obj
 0002:00008a0c       ??_C@_0L@FPKAMKHB@glGetError?$AA@ 10084a0c     SDL_video.obj
 0002:00008a18       ??_C@_0BO@NDHCPHLG@OpenGL?5error?3?5GL_INVALID_ENUM?$AA@ 10084a18     SDL_video.obj
 0002:00008a38       ??_C@_0BP@JHOJNCDH@OpenGL?5error?3?5GL_INVALID_VALUE?$AA@ 10084a38     SDL_video.obj
 0002:00008a58       ??_C@_0BD@NGELPIEC@OpenGL?5error?3?5?$CF08X?$AA@ 10084a58     SDL_video.obj
 0002:00008a6c       ??_C@_0CM@GIPMDBFE@The?5specified?5window?5isn?8t?5an?5Op@ 10084a6c     SDL_video.obj
 0002:00008a98       ??_C@_0CI@OGHNAHBA@No?5OpenGL?5context?5has?5been?5made?5@ 10084a98     SDL_video.obj
 0002:00008ac0       ??_C@_0CL@CJNDMCPL@Setting?5the?5swap?5interval?5is?5not@ 10084ac0     SDL_video.obj
 0002:00008aec       ??_C@_0CP@OKIGHHPL@The?5specified?5window?5has?5not?5bee@ 10084aec     SDL_video.obj
 0002:00008b1c       ??_C@_0P@LGGKDEAA@messageboxdata?$AA@ 10084b1c     SDL_video.obj
 0002:00008b2c       ??_C@_0BM@BELKCJEG@No?5message?5system?5available?$AA@ 10084b2c     SDL_video.obj
 0002:00008b48       ??_C@_02GIPFHKNO@OK?$AA@   10084b48     SDL_video.obj
 0002:00008b4c       ??_C@_0BC@FKKMJHGG@SDL_ALLOW_TOPMOST?$AA@ 10084b4c     SDL_video.obj
 0002:00008b60       ??_C@_0HA@PAHJMIFJ@Application?5didn?8t?5initialize?5pr@ 10084b60     SDL.obj
 0002:00008bd0       ??_C@_0BF@GFOHIHEC@hg?97890?3c031abe0b287?$AA@ 10084bd0     SDL.obj
 0002:00008be8       ??_C@_07LDLFNPGN@Windows?$AA@ 10084be8     SDL.obj
 0002:00008bf0       ??_C@_0BJ@EINIMBNM@?6?6SDL?5assertion?5report?4?6?$AA@ 10084bf0     SDL_assert.obj
 0002:00008c0c       ??_C@_0CN@NMLKMLNC@All?5SDL?5assertions?5between?5last?5@ 10084c0c     SDL_assert.obj
 0002:00008c3c       ??_C@_03ICICOMAL@yes?$AA@  10084c3c     SDL_assert.obj
 0002:00008c40       ??_C@_02KAJCLHKP@no?$AA@   10084c40     SDL_assert.obj
 0002:00008c44       ??_C@_01LKDEMHDF@s?$AA@    10084c44     SDL_assert.obj
 0002:00008c48       ??_C@_0EL@KPNIHJHB@?8?$CFs?8?6?5?5?5?5?$CK?5?$CFs?5?$CI?$CFs?3?$CFd?$CJ?6?5?5?5?5?$CK?5trig@ 10084c48     SDL_assert.obj
 0002:00008c94       ??_C@_01EEMJAFIK@?6?$AA@   10084c94     SDL_assert.obj
 0002:00008c98       ??_C@_05BDHMEGNH@Retry?$AA@ 10084c98     SDL_assert.obj
 0002:00008ca0       ??_C@_05EMFLFCNO@Break?$AA@ 10084ca0     SDL_assert.obj
 0002:00008ca8       ??_C@_05BGKIEECB@Abort?$AA@ 10084ca8     SDL_assert.obj
 0002:00008cb0       ??_C@_06KMEJCCGM@Ignore?$AA@ 10084cb0     SDL_assert.obj
 0002:00008cb8       ??_C@_0O@FDONODGA@Always?5Ignore?$AA@ 10084cb8     SDL_assert.obj
 0002:00008cc8       ??_C@_04CLCEDBPF@time?$AA@ 10084cc8     SDL_assert.obj
 0002:00008cd0       ??_C@_05MJOOAIJH@times?$AA@ 10084cd0     SDL_assert.obj
 0002:00008cd8       ??_C@_0DK@HEAEJLAB@Assertion?5failure?5at?5?$CFs?5?$CI?$CFs?3?$CFd?$CJ?0@ 10084cd8     SDL_assert.obj
 0002:00008d14       ??_C@_06OAKLJOPD@?6?6?$CFs?6?6?$AA@ 10084d14     SDL_assert.obj
 0002:00008d1c       ??_C@_0L@FMCFDIJL@SDL_ASSERT?$AA@ 10084d1c     SDL_assert.obj
 0002:00008d28       ??_C@_05BBAEEBBH@abort?$AA@ 10084d28     SDL_assert.obj
 0002:00008d30       ??_C@_05ELPHFHOI@break?$AA@ 10084d30     SDL_assert.obj
 0002:00008d38       ??_C@_05BENAEDOB@retry?$AA@ 10084d38     SDL_assert.obj
 0002:00008d40       ??_C@_06GDPEBLPA@ignore?$AA@ 10084d40     SDL_assert.obj
 0002:00008d48       ??_C@_0O@CEEECBBI@always_ignore?$AA@ 10084d48     SDL_assert.obj
 0002:00008d58       ??_C@_0BB@NAGLCMLI@Assertion?5Failed?$AA@ 10084d58     SDL_assert.obj
 0002:00008d6c       ??_C@_0DC@PAMILCEE@Abort?1Break?1Retry?1Ignore?1AlwaysI@ 10084d6c     SDL_assert.obj
 0002:00008da0       ??_C@_01KDCPPGHE@r?$AA@    10084da0     SDL_assert.obj
 0002:00008da4       ??_C@_01KBJDNOO@i?$AA@     10084da4     SDL_assert.obj
 0002:00008da8       ??_C@_06OJHGLDPL@?$CInull?$CJ?$AA@ 10084da8     SDL_error.obj
 0002:00008db0       ??_C@_02DKCKIIND@?$CFs?$AA@ 10084db0     SDL_error.obj
 0002:00008db4       ??_C@_0O@NALGGDJF@Out?5of?5memory?$AA@ 10084db4     SDL_error.obj
 0002:00008dc4       ??_C@_0BO@HOPHLHIA@Error?5reading?5from?5datastream?$AA@ 10084dc4     SDL_error.obj
 0002:00008de4       ??_C@_0BM@HKBAIOID@Error?5writing?5to?5datastream?$AA@ 10084de4     SDL_error.obj
 0002:00008e00       ??_C@_0BM@ILIHIMKK@Error?5seeking?5in?5datastream?$AA@ 10084e00     SDL_error.obj
 0002:00008e1c       ??_C@_0CA@FADPPBJI@That?5operation?5is?5not?5supported?$AA@ 10084e1c     SDL_error.obj
 0002:00008e3c       ??_C@_0BC@GIFKALJN@Unknown?5SDL?5error?$AA@ 10084e3c     SDL_error.obj
 0002:00008e50       ??_C@_08PPIJGMPL@callback?$AA@ 10084e50     SDL_hints.obj
 0002:00008e5c       ??_C@_08FOLAHAHG@CRITICAL?$AA@ 10084e5c     SDL_log.obj
 0002:00008e68       ??_C@_05MBDEGLCK@ERROR?$AA@ 10084e68     SDL_log.obj
 0002:00008e70       ??_C@_04JBIELMDE@WARN?$AA@ 10084e70     SDL_log.obj
 0002:00008e78       ??_C@_04BEADLPGM@INFO?$AA@ 10084e78     SDL_log.obj
 0002:00008e80       ??_C@_05KOLFGEDA@DEBUG?$AA@ 10084e80     SDL_log.obj
 0002:00008e88       ??_C@_07FMFBEBBO@VERBOSE?$AA@ 10084e88     SDL_log.obj
 0002:00008e90       ??_C@_1EA@OPGHHGCB@?$AAP?$AAa?$AAr?$AAe?$AAn?$AAt?$AA?5?$AAp?$AAr?$AAo?$AAc?$AAe?$AAs?$AAs?$AA?5?$AAh?$AAa?$AAs?$AA?5?$AAn?$AAo?$AA?5?$AAc?$AAo?$AAn?$AAs?$AAo?$AAl?$AAe?$AA?$AN?$AA?6?$AA?$AA@ 10084e90     SDL_log.obj
 0002:00008ed0       ??_C@_1GA@DGPJMCOB@?$AAC?$AAo?$AAu?$AAl?$AAd?$AA?5?$AAn?$AAo?$AAt?$AA?5?$AAa?$AAt?$AAt?$AAa?$AAc?$AAh?$AA?5?$AAt?$AAo?$AA?5?$AAc?$AAo?$AAn?$AAs?$AAo?$AAl?$AAe?$AA?5?$AAo?$AAf?$AA?5?$AAp@ 10084ed0     SDL_log.obj
 0002:00008f30       ??_C@_1DE@PLMANODD@?$AAE?$AAr?$AAr?$AAo?$AAr?$AA?5?$AAa?$AAt?$AAt?$AAa?$AAc?$AAh?$AAi?$AAn?$AAg?$AA?5?$AAc?$AAo?$AAn?$AAs?$AAo?$AAl?$AAe?$AA?$AN?$AA?6?$AA?$AA@ 10084f30     SDL_log.obj
 0002:00008f64       ??_C@_08HKGMJBDL@?$CFs?3?5?$CFs?$AN?6?$AA@ 10084f64     SDL_log.obj
 0002:00008f70       ??_C@_1DK@PCHLPFDO@?$AAE?$AAr?$AAr?$AAo?$AAr?$AA?5?$AAc?$AAa?$AAl?$AAl?$AAi?$AAn?$AAg?$AA?5?$AAW?$AAr?$AAi?$AAt?$AAe?$AAC?$AAo?$AAn?$AAs?$AAo?$AAl?$AAe?$AA?$AN?$AA?6?$AA?$AA@ 10084f70     SDL_log.obj
 0002:00008fb0       ??_C@_1FI@MPFEIBNO@?$AAI?$AAn?$AAs?$AAu?$AAf?$AAf?$AAi?$AAc?$AAi?$AAe?$AAn?$AAt?$AA?5?$AAh?$AAe?$AAa?$AAp?$AA?5?$AAm?$AAe?$AAm?$AAo?$AAr?$AAy?$AA?5?$AAt?$AAo?$AA?5?$AAw?$AAr?$AAi?$AAt@ 10084fb0     SDL_log.obj
 0002:00009008       ??_C@_07KJFPOMFC@?$CFs?3?5?$CFs?6?$AA@ 10085008     SDL_log.obj
 0002:00009010       ??_C@_0M@LAJMFNGO@DirectSound?$AA@ 10085010     SDL_directsound.obj
 0002:0000901c       ??_C@_0M@KPABIDKA@directsound?$AA@ 1008501c     SDL_directsound.obj
 0002:00009028       ??_C@_0L@HDBBEELN@DSOUND?4DLL?$AA@ 10085028     SDL_directsound.obj
 0002:00009034       ??_C@_0CH@NFJKGABA@DirectSound?3?5failed?5to?5load?5DSOU@ 10085034     SDL_directsound.obj
 0002:0000905c       ??_C@_0BD@PPENOOPJ@DirectSoundCreate8?$AA@ 1008505c     SDL_directsound.obj
 0002:00009070       ??_C@_0BG@OJAPKKIE@DirectSoundEnumerateW?$AA@ 10085070     SDL_directsound.obj
 0002:00009088       ??_C@_0BN@JKJKKMPN@DirectSoundCaptureEnumerateW?$AA@ 10085088     SDL_directsound.obj
 0002:000090a8       ??_C@_0DA@ELPKNKIN@DirectSound?3?5System?5doesn?8t?5appe@ 100850a8     SDL_directsound.obj
 0002:000090d8       ??_C@_0DM@JJOFOEI@Unsupported?5interface?5?9?9?5Is?5Dire@ 100850d8     SDL_directsound.obj
 0002:00009114       ??_C@_0BE@GLHDGGEN@Audio?5device?5in?5use?$AA@ 10085114     SDL_directsound.obj
 0002:00009128       ??_C@_0BJ@BCDADOAG@Unsupported?5audio?5format?$AA@ 10085128     SDL_directsound.obj
 0002:00009144       ??_C@_0BH@IKJEADGO@Mixing?5buffer?5was?5lost?$AA@ 10085144     SDL_directsound.obj
 0002:0000915c       ??_C@_0CD@OGCOBAMK@Control?5requested?5is?5not?5availab@ 1008515c     SDL_directsound.obj
 0002:00009180       ??_C@_0CD@NGJIFEPO@Invalid?5call?5for?5the?5current?5sta@ 10085180     SDL_directsound.obj
 0002:000091a4       ??_C@_0BC@DBAKKFEN@Invalid?5parameter?$AA@ 100851a4     SDL_directsound.obj
 0002:000091b8       ??_C@_0BG@GAGDGGKF@No?5audio?5device?5found?$AA@ 100851b8     SDL_directsound.obj
 0002:000091d0       ??_C@_0BN@BIOCBOLC@Caller?5doesn?8t?5have?5priority?$AA@ 100851d0     SDL_directsound.obj
 0002:000091f0       ??_C@_0BH@KGLDLPJN@Function?5not?5supported?$AA@ 100851f0     SDL_directsound.obj
 0002:00009208       ??_C@_0CE@IOEIACHK@?$CFs?3?5Unknown?5DirectSound?5error?3?50@ 10085208     SDL_directsound.obj
 0002:0000922c       ??_C@_06DJHOIPC@?$CFs?3?5?$CFs?$AA@ 1008522c     SDL_directsound.obj
 0002:00009234       ??_C@_0BP@NBENMCLC@DirectSound?5GetCurrentPosition?$AA@ 10085234     SDL_directsound.obj
 0002:00009254       ??_C@_0BB@DKNLGBEB@DirectSound?5Lock?$AA@ 10085254     SDL_directsound.obj
 0002:00009268       ??_C@_0CA@GJIJLPBI@DirectSound?5SetCooperativeLevel?$AA@ 10085268     SDL_directsound.obj
 0002:00009288       ??_C@_0CM@NEEALHAF@Sound?5buffer?5size?5must?5be?5betwee@ 10085288     SDL_directsound.obj
 0002:000092b4       ??_C@_0BO@CMKKFKKH@DirectSound?5CreateSoundBuffer?$AA@ 100852b4     SDL_directsound.obj
 0002:000092d4       ??_C@_0CI@KOMNGPLK@DirectSound?3?5Requested?5device?5no@ 100852d4     SDL_directsound.obj
 0002:000092fc       ??_C@_0BC@GKIGDBEH@DirectSoundCreate?$AA@ 100852fc     SDL_directsound.obj
 0002:00009310       ??_C@_0CG@EHPHCAHI@DirectSound?3?5Unsupported?5audio?5f@ 10085310     SDL_directsound.obj
 0002:00009338       ??_C@_0BF@LBLFPHGI@direct?9to?9disk?5audio?$AA@ 10085338     SDL_diskaudio.obj
 0002:00009350       ??_C@_04MDPPAFID@disk?$AA@ 10085350     SDL_diskaudio.obj
 0002:00009358       ??_C@_0BC@EJBICNOJ@SDL_DISKAUDIOFILE?$AA@ 10085358     SDL_diskaudio.obj
 0002:0000936c       ??_C@_0N@CHLPLOMH@sdlaudio?4raw?$AA@ 1008536c     SDL_diskaudio.obj
 0002:0000937c       ??_C@_0BD@DNNHEADK@SDL_DISKAUDIODELAY?$AA@ 1008537c     SDL_diskaudio.obj
 0002:00009390       ??_C@_02GMLFBBN@wb?$AA@    10085390     SDL_diskaudio.obj
 0002:00009398       ??_C@_0FB@KJEPFHFP@WARNING?3?5You?5are?5using?5the?5SDL?5d@ 10085398     SDL_diskaudio.obj
 0002:000093ec       ??_C@_0BH@JLDIBOEB@SDL?5dummy?5audio?5driver?$AA@ 100853ec     SDL_dummyaudio.obj
 0002:00009404       ??_C@_05JLNEMJLN@dummy?$AA@ 10085404     SDL_dummyaudio.obj
 0002:0000940c       ??_C@_0BH@GKJPCENE@Windows?5Waveform?5Audio?$AA@ 1008540c     SDL_winmm.obj
 0002:00009424       ??_C@_05IHJNLLLA@winmm?$AA@ 10085424     SDL_winmm.obj
 0002:0000942c       ??_C@_04PFAOODAA@?$CFs?3?5?$AA@ 1008542c     SDL_winmm.obj
 0002:00009434       ??_C@_0BL@OFHOFDGG@Requested?5device?5not?5found?$AA@ 10085434     SDL_winmm.obj
 0002:00009450       ??_C@_0O@CELKDPDK@waveOutOpen?$CI?$CJ?$AA@ 10085450     SDL_winmm.obj
 0002:00009460       ??_C@_0BK@OJANNCMP@Couldn?8t?5create?5semaphore?$AA@ 10085460     SDL_winmm.obj
 0002:0000947c       ??_C@_0BH@BBOCBLHN@waveOutPrepareHeader?$CI?$CJ?$AA@ 1008547c     SDL_winmm.obj
 0002:00009494       ??_C@_07CBOKJLDC@XAudio2?$AA@ 10085494     SDL_xaudio2.obj
 0002:0000949c       ??_C@_07BHCBMAPI@xaudio2?$AA@ 1008549c     SDL_xaudio2.obj
 0002:000094a4       _CLSID_XAudio2             100854a4     SDL_xaudio2.obj
 0002:000094b4       _IID_IXAudio2              100854b4     SDL_xaudio2.obj
 0002:000094c4       ??_C@_0CG@BNIJJBF@XAudio2?3?5capture?5devices?5unsuppo@ 100854c4     SDL_xaudio2.obj
 0002:000094ec       ??_C@_0CO@ELNBNNFO@XAudio2?3?5XAudio2Create?$CI?$CJ?5failed?5@ 100854ec     SDL_xaudio2.obj
 0002:0000951c       ??_C@_0CM@JNBFMGBO@XAudio2?3?5IXAudio2?3?3GetDeviceCoun@ 1008551c     SDL_xaudio2.obj
 0002:00009548       ??_C@_0CJ@DCAHGNEB@XAudio2?3?5XAudio2Create?$CI?$CJ?5failed?5@ 10085548     SDL_xaudio2.obj
 0002:00009574       ??_C@_0CL@EDNIGOKA@XAudio2?3?5IXAudio2_GetDeviceCount@ 10085574     SDL_xaudio2.obj
 0002:000095a0       ??_C@_0CF@HIAGHDDL@XAudio2?3?5Requested?5device?5not?5fo@ 100855a0     SDL_xaudio2.obj
 0002:000095c8       ??_C@_0CD@DNEBDLGK@XAudio2?3?5CreateSemaphore?$CI?$CJ?5faile@ 100855c8     SDL_xaudio2.obj
 0002:000095ec       ??_C@_0CC@KNNHBGPH@XAudio2?3?5Unsupported?5audio?5forma@ 100855ec     SDL_xaudio2.obj
 0002:00009610       ??_C@_0CJ@DJKFDENO@XAudio2?3?5Couldn?8t?5create?5masteri@ 10085610     SDL_xaudio2.obj
 0002:0000963c       ??_C@_0CG@FOKNDGEM@XAudio2?3?5Couldn?8t?5create?5source?5@ 1008563c     SDL_xaudio2.obj
 0002:00009664       ??_C@_0BP@OCHMIPBL@XAudio2?3?5Couldn?8t?5start?5engine?$AA@ 10085664     SDL_xaudio2.obj
 0002:00009684       ??_C@_0CF@JLGFHOBF@XAudio2?3?5Couldn?8t?5start?5source?5v@ 10085684     SDL_xaudio2.obj
 0002:000096ac       ??_C@_0BP@NMMCGJNC@XAudio2?3?5CoInitialize?$CI?$CJ?5failed?$AA@ 100856ac     SDL_xaudio2.obj
 0002:000096cc       ??_C@_0DC@DAMIPGFE@XAudio2?3?5XAudio2Create?$CI?$CJ?5failed?5@ 100856cc     SDL_xaudio2.obj
 0002:00009700       ??_C@_02LMMGGCAJ@?3?5?$AA@ 10085700     SDL_windows.obj
 0002:00009704       ??_C@_06DIJPEION@?$CFs?$CFs?$CFs?$AA@ 10085704     SDL_windows.obj
 0002:0000970c       ??_C@_0BJ@JHJFIDKK@Couldn?8t?5locate?5our?5?4exe?$AA@ 1008570c     SDL_sysfilesystem.obj
 0002:00009728       ??_C@_0BN@GLBPFIPM@Couldn?8t?5locate?5our?5prefpath?$AA@ 10085728     SDL_sysfilesystem.obj
 0002:00009748       ??_C@_09EECDJGEH@?$CFs?2?$CFs?2?$CFs?2?$AA@ 10085748     SDL_sysfilesystem.obj
 0002:00009754       ??_C@_0BA@HFDONPBH@Haptic?5error?5?$CFs?$AA@ 10085754     SDL_syshaptic.obj
 0002:00009764       ??_C@_0BD@IGMJGOIE@SDL_XINPUT_ENABLED?$AA@ 10085764     SDL_syshaptic.obj
 0002:00009778       ??_C@_0CA@OOHOCMID@Haptic?3?5SubSystem?5already?5open?4?$AA@ 10085778     SDL_syshaptic.obj
 0002:00009798       ??_C@_0N@BAOBAGOC@Coinitialize?$AA@ 10085798     SDL_syshaptic.obj
 0002:000097a8       ??_C@_0BB@FBCNKNOO@CoCreateInstance?$AA@ 100857a8     SDL_syshaptic.obj
 0002:000097bc       ??_C@_0CN@IHIHLPGF@GetModuleHandle?$CI?$CJ?5failed?5with?5er@ 100857bc     SDL_syshaptic.obj
 0002:000097ec       ??_C@_0CA@IAEMDCKI@Initializing?5DirectInput?5device?$AA@ 100857ec     SDL_syshaptic.obj
 0002:0000980c       ??_C@_0CA@FDLBMNIL@Enumerating?5DirectInput?5devices?$AA@ 1008580c     SDL_syshaptic.obj
 0002:0000982c       ??_C@_0BG@EJANGHHD@XInput?5Controller?5?$CD?$CFu?$AA@ 1008582c     SDL_syshaptic.obj
 0002:00009844       ??_C@_0BM@ICAKHFOB@Creating?5DirectInput?5device?$AA@ 10085844     SDL_syshaptic.obj
 0002:00009860       ??_C@_0BP@CEGFPCDM@Querying?5DirectInput?5interface?$AA@ 10085860     SDL_syshaptic.obj
 0002:00009880       ??_C@_0CE@GDBBNLAM@Couldn?8t?5create?5XInput?5haptic?5mu@ 10085880     SDL_syshaptic.obj
 0002:000098a4       ??_C@_0P@CINKNAAE@SDLXInputDev?$CFd?$AA@ 100858a4     SDL_syshaptic.obj
 0002:000098b4       ??_C@_0CF@NJPNFGFE@Couldn?8t?5create?5XInput?5haptic?5th@ 100858b4     SDL_syshaptic.obj
 0002:000098dc       ??_C@_0CH@CGNPPJHJ@Setting?5cooperative?5level?5to?5exc@ 100858dc     SDL_syshaptic.obj
 0002:00009904       ??_C@_0BE@LFMAKGDE@Setting?5data?5format?$AA@ 10085904     SDL_syshaptic.obj
 0002:00009918       ??_C@_0BE@HECEPECB@Getting?5device?5axes?$AA@ 10085918     SDL_syshaptic.obj
 0002:0000992c       ??_C@_0BN@KPNHDECB@Acquiring?5DirectInput?5device?$AA@ 1008592c     SDL_syshaptic.obj
 0002:0000994c       ??_C@_0BB@MJNJGMLC@Resetting?5device?$AA@ 1008594c     SDL_syshaptic.obj
 0002:00009960       ??_C@_0BD@NLGLKAMF@Enabling?5actuators?$AA@ 10085960     SDL_syshaptic.obj
 0002:00009974       ??_C@_0BO@DIPJPIHH@Enumerating?5supported?5effects?$AA@ 10085974     SDL_syshaptic.obj
 0002:00009994       ??_C@_0DF@OBBOHBHK@Haptic?3?5Internal?5error?5on?5findin@ 10085994     SDL_syshaptic.obj
 0002:000099cc       ??_C@_0CA@HKGKHKL@Haptic?3?5Unknown?5direction?5type?4?$AA@ 100859cc     SDL_syshaptic.obj
 0002:000099ec       ??_C@_0BN@MEGCJADB@Haptic?3?5Unknown?5effect?5type?4?$AA@ 100859ec     SDL_syshaptic.obj
 0002:00009a0c       ??_C@_0BI@OLGPNEE@Unable?5to?5create?5effect?$AA@ 10085a0c     SDL_syshaptic.obj
 0002:00009a24       ??_C@_0BI@GLDPHDLK@Unable?5to?5update?5effect?$AA@ 10085a24     SDL_syshaptic.obj
 0002:00009a3c       ??_C@_0BD@GOAAEJJJ@Running?5the?5effect?$AA@ 10085a3c     SDL_syshaptic.obj
 0002:00009a50       ??_C@_0BG@DMHHBCEP@Unable?5to?5stop?5effect?$AA@ 10085a50     SDL_syshaptic.obj
 0002:00009a68       ??_C@_0CA@OGBNMFGN@Removing?5effect?5from?5the?5device?$AA@ 10085a68     SDL_syshaptic.obj
 0002:00009a88       ??_C@_0BG@BCMPKABI@Getting?5effect?5status?$AA@ 10085a88     SDL_syshaptic.obj
 0002:00009aa0       ??_C@_0N@CNIPICNP@Setting?5gain?$AA@ 10085aa0     SDL_syshaptic.obj
 0002:00009ab0       ??_C@_0BD@IJBJFEHG@Setting?5autocenter?$AA@ 10085ab0     SDL_syshaptic.obj
 0002:00009ac4       ??_C@_0BD@CLAFEHOG@Pausing?5the?5device?$AA@ 10085ac4     SDL_syshaptic.obj
 0002:00009ad8       ??_C@_0BE@IPOIGCPM@Stopping?5the?5device?$AA@ 10085ad8     SDL_syshaptic.obj
 0002:00009aec       _CLSID_DirectInput8        10085aec     SDL_dxjoystick.obj
 0002:00009afc       _IID_IDirectInput8W        10085afc     SDL_dxjoystick.obj
 0002:00009b0c       _IID_IDirectInputDevice8W  10085b0c     SDL_dxjoystick.obj
 0002:00009b1c       _GUID_XAxis                10085b1c     SDL_dxjoystick.obj
 0002:00009b2c       _GUID_YAxis                10085b2c     SDL_dxjoystick.obj
 0002:00009b3c       _GUID_ZAxis                10085b3c     SDL_dxjoystick.obj
 0002:00009b4c       _GUID_RxAxis               10085b4c     SDL_dxjoystick.obj
 0002:00009b5c       _GUID_RyAxis               10085b5c     SDL_dxjoystick.obj
 0002:00009b6c       _GUID_RzAxis               10085b6c     SDL_dxjoystick.obj
 0002:00009b7c       _GUID_Slider               10085b7c     SDL_dxjoystick.obj
 0002:00009b8c       _GUID_POV                  10085b8c     SDL_dxjoystick.obj
 0002:00009b9c       _GUID_ConstantForce        10085b9c     SDL_dxjoystick.obj
 0002:00009bac       _GUID_RampForce            10085bac     SDL_dxjoystick.obj
 0002:00009bbc       _GUID_Sine                 10085bbc     SDL_dxjoystick.obj
 0002:00009bcc       _GUID_Triangle             10085bcc     SDL_dxjoystick.obj
 0002:00009bdc       _GUID_SawtoothUp           10085bdc     SDL_dxjoystick.obj
 0002:00009bec       _GUID_SawtoothDown         10085bec     SDL_dxjoystick.obj
 0002:00009bfc       _GUID_Spring               10085bfc     SDL_dxjoystick.obj
 0002:00009c0c       _GUID_Damper               10085c0c     SDL_dxjoystick.obj
 0002:00009c1c       _GUID_Inertia              10085c1c     SDL_dxjoystick.obj
 0002:00009c2c       _GUID_Friction             10085c2c     SDL_dxjoystick.obj
 0002:00009c3c       _GUID_CustomForce          10085c3c     SDL_dxjoystick.obj
 0002:00009c4c       _GUID_DEVINTERFACE_HID     10085c4c     SDL_dxjoystick.obj
 0002:00009c5c       ??_C@_1BM@DHEJPPLB@?$AAX?$AAI?$AAn?$AAp?$AAu?$AAt?$AA1?$AA_?$AA4?$AA?4?$AAd?$AAl?$AAl?$AA?$AA@ 10085c5c     SDL_dxjoystick.obj
 0002:00009c78       ??_C@_1BM@EDNBBGDO@?$AAX?$AAI?$AAn?$AAp?$AAu?$AAt?$AA1?$AA_?$AA3?$AA?4?$AAd?$AAl?$AAl?$AA?$AA@ 10085c78     SDL_dxjoystick.obj
 0002:00009c94       ??_C@_1CE@DAJCKNBI@?$AAb?$AAi?$AAn?$AA?2?$AAX?$AAI?$AAn?$AAp?$AAu?$AAt?$AA1?$AA_?$AA3?$AA?4?$AAd?$AAl?$AAl?$AA?$AA@ 10085c94     SDL_dxjoystick.obj
 0002:00009cb8       ??_C@_0P@KDAIIEFP@XInputSetState?$AA@ 10085cb8     SDL_dxjoystick.obj
 0002:00009cc8       ??_C@_0BG@ELBNFOBA@XInputGetCapabilities?$AA@ 10085cc8     SDL_dxjoystick.obj
 0002:00009ce0       ??_C@_0BG@PGNDGGHJ@?$CFs?$CI?$CJ?5DirectX?5error?5?$CFd?$AA@ 10085ce0     SDL_dxjoystick.obj
 0002:00009cf8       _IID_ValveStreamingGamepad 10085cf8     SDL_dxjoystick.obj
 0002:00009d08       _IID_X360WiredGamepad      10085d08     SDL_dxjoystick.obj
 0002:00009d18       _IID_X360WirelessGamepad   10085d18     SDL_dxjoystick.obj
 0002:00009d28       ??_C@_03HAFBONIK@IG_?$AA@  10085d28     SDL_dxjoystick.obj
 0002:00009d2c       ??_C@_1BA@HHOMBECE@?$AAM?$AAe?$AAs?$AAs?$AAa?$AAg?$AAe?$AA?$AA@ 10085d2c     SDL_dxjoystick.obj
 0002:00009d3c       ??_C@_0DJ@IJFBKGMA@Failed?5to?5create?5register?5class?5@ 10085d3c     SDL_dxjoystick.obj
 0002:00009d78       ??_C@_0DJ@EBHOBMGJ@Failed?5to?5create?5message?5window?5@ 10085d78     SDL_dxjoystick.obj
 0002:00009db4       ??_C@_0DI@EMNBJMJJ@Failed?5to?5create?5notify?5device?5f@ 10085db4     SDL_dxjoystick.obj
 0002:00009dec       ??_C@_0N@JGHNIJDF@CoInitialize?$AA@ 10085dec     SDL_dxjoystick.obj
 0002:00009dfc       ??_C@_0BJ@FLKLDKAH@IDirectInput?3?3Initialize?$AA@ 10085dfc     SDL_dxjoystick.obj
 0002:00009e18       ??_C@_0N@FBMHFCIJ@SDL_joystick?$AA@ 10085e18     SDL_dxjoystick.obj
 0002:00009e28       ??_C@_0EC@CBEGEJNB@Failed?5to?5obtain?5XInput?5device?5c@ 10085e28     SDL_dxjoystick.obj
 0002:00009e6c       ??_C@_0BL@POPFKOJA@IDirectInput?3?3CreateDevice?$AA@ 10085e6c     SDL_dxjoystick.obj
 0002:00009e88       ??_C@_0CE@JBAFPFE@IDirectInputDevice8?3?3QueryInterf@ 10085e88     SDL_dxjoystick.obj
 0002:00009eac       ??_C@_0CJ@ONAFIIOJ@IDirectInputDevice8?3?3SetCooperat@ 10085eac     SDL_dxjoystick.obj
 0002:00009ed8       ??_C@_0CD@OHACMINP@IDirectInputDevice8?3?3SetDataForm@ 10085ed8     SDL_dxjoystick.obj
 0002:00009efc       ??_C@_0CF@JJNMLIHA@IDirectInputDevice8?3?3GetCapabili@ 10085efc     SDL_dxjoystick.obj
 0002:00009f24       ??_C@_0BN@LHLPHABN@IDirectInputDevice8?3?3Acquire?$AA@ 10085f24     SDL_dxjoystick.obj
 0002:00009f44       ??_C@_0BP@FAFKDEAH@IDirectInputDevice8?3?3Unacquire?$AA@ 10085f44     SDL_dxjoystick.obj
 0002:00009f64       ??_C@_0CB@KPCBBHIA@IDirectInputDevice8?3?3SetProperty@ 10085f64     SDL_dxjoystick.obj
 0002:00009f88       ??_C@_0BA@KGPCPNLA@Failed?5loading?5?$AA@ 10085f88     SDL_sysloadso.obj
 0002:00009f98       ??_C@_08OJGABALO@direct3d?$AA@ 10085f98     SDL_render_d3d.obj
 0002:00009fa4       ??_C@_0BD@DHLNJIBM@WRONGTEXTUREFORMAT?$AA@ 10085fa4     SDL_render_d3d.obj
 0002:00009fb8       ??_C@_0BK@FJAPDONA@UNSUPPORTEDCOLOROPERATION?$AA@ 10085fb8     SDL_render_d3d.obj
 0002:00009fd4       ??_C@_0BE@PLIOPCEI@UNSUPPORTEDCOLORARG?$AA@ 10085fd4     SDL_render_d3d.obj
 0002:00009fe8       ??_C@_0BK@OANJPOPO@UNSUPPORTEDALPHAOPERATION?$AA@ 10085fe8     SDL_render_d3d.obj
 0002:0000a004       ??_C@_0BE@MBMMPGHN@UNSUPPORTEDALPHAARG?$AA@ 10086004     SDL_render_d3d.obj
 0002:0000a018       ??_C@_0BC@EHAPNPON@TOOMANYOPERATIONS?$AA@ 10086018     SDL_render_d3d.obj
 0002:0000a02c       ??_C@_0BJ@DHHCDPAL@CONFLICTINGTEXTUREFILTER?$AA@ 1008602c     SDL_render_d3d.obj
 0002:0000a048       ??_C@_0BH@NEKKIPCN@UNSUPPORTEDFACTORVALUE?$AA@ 10086048     SDL_render_d3d.obj
 0002:0000a060       ??_C@_0BH@FGAAPKGF@CONFLICTINGRENDERSTATE?$AA@ 10086060     SDL_render_d3d.obj
 0002:0000a078       ??_C@_0BJ@ELJJPGHB@UNSUPPORTEDTEXTUREFILTER?$AA@ 10086078     SDL_render_d3d.obj
 0002:0000a094       ??_C@_0BK@CCHIJEEG@CONFLICTINGTEXTUREPALETTE?$AA@ 10086094     SDL_render_d3d.obj
 0002:0000a0b0       ??_C@_0BE@OJGIEDB@DRIVERINTERNALERROR?$AA@ 100860b0     SDL_render_d3d.obj
 0002:0000a0c4       ??_C@_08DJOBNNJD@NOTFOUND?$AA@ 100860c4     SDL_render_d3d.obj
 0002:0000a0d0       ??_C@_08CBEFIFPI@MOREDATA?$AA@ 100860d0     SDL_render_d3d.obj
 0002:0000a0dc       ??_C@_0L@HJMPAIAB@DEVICELOST?$AA@ 100860dc     SDL_render_d3d.obj
 0002:0000a0e8       ??_C@_0P@PDBGBNP@DEVICENOTRESET?$AA@ 100860e8     SDL_render_d3d.obj
 0002:0000a0f8       ??_C@_0N@KBHOOAEG@NOTAVAILABLE?$AA@ 100860f8     SDL_render_d3d.obj
 0002:0000a108       ??_C@_0BB@IBMCGPFC@OUTOFVIDEOMEMORY?$AA@ 10086108     SDL_render_d3d.obj
 0002:0000a11c       ??_C@_0O@FIGMNLIE@INVALIDDEVICE?$AA@ 1008611c     SDL_render_d3d.obj
 0002:0000a12c       ??_C@_0M@PCOCKBEN@INVALIDCALL?$AA@ 1008612c     SDL_render_d3d.obj
 0002:0000a138       ??_C@_0BC@DCIILAAF@DRIVERINVALIDCALL?$AA@ 10086138     SDL_render_d3d.obj
 0002:0000a14c       ??_C@_0BA@OABMFANH@WASSTILLDRAWING?$AA@ 1008614c     SDL_render_d3d.obj
 0002:0000a15c       ??_C@_07NFANNNEC@UNKNOWN?$AA@ 1008615c     SDL_render_d3d.obj
 0002:0000a164       ??_C@_07BOHBIPEF@Reset?$CI?$CJ?$AA@ 10086164     SDL_render_d3d.obj
 0002:0000a16c       ??_C@_0N@DMDLAKKI@BeginScene?$CI?$CJ?$AA@ 1008616c     SDL_render_d3d.obj
 0002:0000a17c       ??_C@_0P@EAGFHGIC@D3DX9_?$CF02d?4dll?$AA@ 1008617c     SDL_render_d3d.obj
 0002:0000a18c       ??_C@_0BG@DFLMNNHG@D3DXCreateMatrixStack?$AA@ 1008618c     SDL_render_d3d.obj
 0002:0000a1a4       ??_C@_0CE@JPMMDFFJ@Unable?5to?5create?5Direct3D?5interf@ 100861a4     SDL_render_d3d.obj
 0002:0000a1c8       ??_C@_0BP@FKMPCAOC@SDL_RENDER_DIRECT3D_THREADSAFE?$AA@ 100861c8     SDL_render_d3d.obj
 0002:0000a1e8       ??_C@_0P@DKPBPIND@CreateDevice?$CI?$CJ?$AA@ 100861e8     SDL_render_d3d.obj
 0002:0000a1f8       ??_C@_0P@LILPBKPC@GetSwapChain?$CI?$CJ?$AA@ 100861f8     SDL_render_d3d.obj
 0002:0000a208       ??_C@_0BH@OACCMGIL@GetPresentParameters?$CI?$CJ?$AA@ 10086208     SDL_render_d3d.obj
 0002:0000a220       ??_C@_0BE@JJGHPJPJ@CreatePixelShader?$CI?$CJ?$AA@ 10086220     SDL_render_d3d.obj
 0002:0000a234       ??_C@_0BJ@IKKFCKKE@SDL_RENDER_SCALE_QUALITY?$AA@ 10086234     SDL_render_d3d.obj
 0002:0000a250       ??_C@_07NHJEPDMH@nearest?$AA@ 10086250     SDL_render_d3d.obj
 0002:0000a258       ??_C@_0BA@HIMDGK@CreateTexture?$CI?$CJ?$AA@ 10086258     SDL_render_d3d.obj
 0002:0000a268       ??_C@_0L@CEANEPNI@LockRect?$CI?$CJ?$AA@ 10086268     SDL_render_d3d.obj
 0002:0000a274       ??_C@_0BC@DGDHANIH@GetSurfaceLevel?$CI?$CJ?$AA@ 10086274     SDL_render_d3d.obj
 0002:0000a288       ??_C@_0BC@NCCBNGOP@SetRenderTarget?$CI?$CJ?$AA@ 10086288     SDL_render_d3d.obj
 0002:0000a29c       ??_C@_0N@LKNCFGPA@SetScissor?$CI?$CJ?$AA@ 1008629c     SDL_render_d3d.obj
 0002:0000a2ac       ??_C@_07DOJMODLJ@Clear?$CI?$CJ?$AA@ 100862ac     SDL_render_d3d.obj
 0002:0000a2b4       ??_C@_0N@NNEFOEDA@SetTexture?$CI?$CJ?$AA@ 100862b4     SDL_render_d3d.obj
 0002:0000a2c4       ??_C@_0BC@JBFLDFJF@DrawPrimitiveUP?$CI?$CJ?$AA@ 100862c4     SDL_render_d3d.obj
 0002:0000a2d8       ??_C@_0M@FGHHKMN@SetShader?$CI?$CJ?$AA@ 100862d8     SDL_render_d3d.obj
 0002:0000a2e4       ??_C@_0BA@MENEPFO@GetBackBuffer?$CI?$CJ?$AA@ 100862e4     SDL_render_d3d.obj
 0002:0000a2f4       ??_C@_09FDHJFFBD@GetDesc?$CI?$CJ?$AA@ 100862f4     SDL_render_d3d.obj
 0002:0000a300       ??_C@_0BO@GNHHPPBF@CreateOffscreenPlainSurface?$CI?$CJ?$AA@ 10086300     SDL_render_d3d.obj
 0002:0000a320       ??_C@_0BG@EEMBJHPM@GetRenderTargetData?$CI?$CJ?$AA@ 10086320     SDL_render_d3d.obj
 0002:0000a338       ??_C@_09NGMBHGEG@Present?$CI?$CJ?$AA@ 10086338     SDL_render_d3d.obj
 0002:0000a344       ??_C@_0BP@NHLKALBC@Renderer?5is?5not?5a?5D3D?5renderer?$AA@ 10086344     SDL_render_d3d.obj
 0002:0000a364       ??_C@_06BKLEJAEP@opengl?$AA@ 10086364     SDL_render_gl.obj
 0002:0000a36c       ??_C@_0BA@LLPLHEDK@GL_INVALID_ENUM?$AA@ 1008636c     SDL_render_gl.obj
 0002:0000a37c       ??_C@_0BB@HDIPJELP@GL_INVALID_VALUE?$AA@ 1008637c     SDL_render_gl.obj
 0002:0000a390       ??_C@_0BF@NFNGKHIL@GL_INVALID_OPERATION?$AA@ 10086390     SDL_render_gl.obj
 0002:0000a3a8       ??_C@_0BB@JMBJBKGI@GL_OUT_OF_MEMORY?$AA@ 100863a8     SDL_render_gl.obj
 0002:0000a3bc       ??_C@_0M@OIOFJFPO@GL_NO_ERROR?$AA@ 100863bc     SDL_render_gl.obj
 0002:0000a3c8       ??_C@_0BC@DLCDMCHH@GL_STACK_OVERFLOW?$AA@ 100863c8     SDL_render_gl.obj
 0002:0000a3dc       ??_C@_0BD@KAJAFKFC@GL_STACK_UNDERFLOW?$AA@ 100863dc     SDL_render_gl.obj
 0002:0000a3f0       ??_C@_0BD@LDAMLOIE@GL_TABLE_TOO_LARGE?$AA@ 100863f0     SDL_render_gl.obj
 0002:0000a404       ??_C@_0BD@CLGJLBBL@?$CFs?3?5?$CFs?5?$CI?$CFd?$CJ?3?5?$CFs?5?$CFs?$AA@ 10086404     SDL_render_gl.obj
 0002:0000a418       ??_C@_07DCLBNMLN@generic?$AA@ 10086418     SDL_render_gl.obj
 0002:0000a420       ??_C@_0BK@COKHDDAG@?$CFs?3?5?$CFs?5?$CI?$CFd?$CJ?3?5?$CFs?5?$CFs?5?$CI0x?$CFX?$CJ?$AA@ 10086420     SDL_render_gl.obj
 0002:0000a43c       ??_C@_07FCOIFMD@glBegin?$AA@ 1008643c     SDL_render_gl.obj
 0002:0000a444       ??_C@_0CC@HOMNALC@Couldn?8t?5load?5GL?5function?5?$CFs?3?5?$CFs@ 10086444     SDL_render_gl.obj
 0002:0000a468       ??_C@_0O@JKKCIBGC@glBindTexture?$AA@ 10086468     SDL_render_gl.obj
 0002:0000a478       ??_C@_0M@PFBKOKOH@glBlendFunc?$AA@ 10086478     SDL_render_gl.obj
 0002:0000a484       ??_C@_0BE@LLLCIIOO@glBlendFuncSeparate?$AA@ 10086484     SDL_render_gl.obj
 0002:0000a498       ??_C@_07IBAPPAHJ@glClear?$AA@ 10086498     SDL_render_gl.obj
 0002:0000a4a0       ??_C@_0N@OGLMDNKC@glClearColor?$AA@ 100864a0     SDL_render_gl.obj
 0002:0000a4b0       ??_C@_09PKFCMFPF@glColor4f?$AA@ 100864b0     SDL_render_gl.obj
 0002:0000a4bc       ??_C@_0BB@KMPLFJIC@glDeleteTextures?$AA@ 100864bc     SDL_render_gl.obj
 0002:0000a4d0       ??_C@_09MHGMIMKN@glDisable?$AA@ 100864d0     SDL_render_gl.obj
 0002:0000a4dc       ??_C@_0BF@LJDHBNBP@glDisableClientState?$AA@ 100864dc     SDL_render_gl.obj
 0002:0000a4f4       ??_C@_0N@CMNPPOHA@glDrawArrays?$AA@ 100864f4     SDL_render_gl.obj
 0002:0000a504       ??_C@_0N@FLFIHFDP@glDrawPixels?$AA@ 10086504     SDL_render_gl.obj
 0002:0000a514       ??_C@_08OOEHEKOP@glEnable?$AA@ 10086514     SDL_render_gl.obj
 0002:0000a520       ??_C@_0BE@KECPKGNE@glEnableClientState?$AA@ 10086520     SDL_render_gl.obj
 0002:0000a534       ??_C@_05OIBMBLHE@glEnd?$AA@ 10086534     SDL_render_gl.obj
 0002:0000a53c       ??_C@_0O@LLMANLNK@glGenTextures?$AA@ 1008653c     SDL_render_gl.obj
 0002:0000a54c       ??_C@_0O@LADEDGJO@glGetPointerv?$AA@ 1008654c     SDL_render_gl.obj
 0002:0000a55c       ??_C@_0M@CFLGNFPG@glLineWidth?$AA@ 1008655c     SDL_render_gl.obj
 0002:0000a568       ??_C@_0P@EJAFHEPO@glLoadIdentity?$AA@ 10086568     SDL_render_gl.obj
 0002:0000a578       ??_C@_0N@KDLNHKEJ@glMatrixMode?$AA@ 10086578     SDL_render_gl.obj
 0002:0000a588       ??_C@_07DBAFHOII@glOrtho?$AA@ 10086588     SDL_render_gl.obj
 0002:0000a590       ??_C@_0O@JCCIGLOF@glPixelStorei?$AA@ 10086590     SDL_render_gl.obj
 0002:0000a5a0       ??_C@_0M@EEAPMMNM@glPointSize?$AA@ 100865a0     SDL_render_gl.obj
 0002:0000a5ac       ??_C@_0M@JPEAAEEK@glPopMatrix?$AA@ 100865ac     SDL_render_gl.obj
 0002:0000a5b8       ??_C@_0N@IHFNHGBL@glPushMatrix?$AA@ 100865b8     SDL_render_gl.obj
 0002:0000a5c8       ??_C@_0O@LMHMIIIJ@glRasterPos2i?$AA@ 100865c8     SDL_render_gl.obj
 0002:0000a5d8       ??_C@_0N@HFKHBECK@glReadBuffer?$AA@ 100865d8     SDL_render_gl.obj
 0002:0000a5e8       ??_C@_0N@CKFNNHOO@glReadPixels?$AA@ 100865e8     SDL_render_gl.obj
 0002:0000a5f8       ??_C@_07FFLNKKCE@glRectf?$AA@ 100865f8     SDL_render_gl.obj
 0002:0000a600       ??_C@_09GANFLDAO@glRotated?$AA@ 10086600     SDL_render_gl.obj
 0002:0000a60c       ??_C@_09ECGPAEPL@glScissor?$AA@ 1008660c     SDL_render_gl.obj
 0002:0000a618       ??_C@_0N@BKNBCOAE@glTexCoord2f?$AA@ 10086618     SDL_render_gl.obj
 0002:0000a628       ??_C@_09FCLLGECI@glTexEnvf?$AA@ 10086628     SDL_render_gl.obj
 0002:0000a634       ??_C@_0N@JBIKHLCC@glTexImage2D?$AA@ 10086634     SDL_render_gl.obj
 0002:0000a644       ??_C@_0BA@KDNJAKA@glTexParameteri?$AA@ 10086644     SDL_render_gl.obj
 0002:0000a654       ??_C@_0BA@NHKIJEMK@glTexSubImage2D?$AA@ 10086654     SDL_render_gl.obj
 0002:0000a664       ??_C@_0N@IFPDDBNE@glTranslatef?$AA@ 10086664     SDL_render_gl.obj
 0002:0000a674       ??_C@_0L@LPFKLMDB@glVertex2f?$AA@ 10086674     SDL_render_gl.obj
 0002:0000a680       ??_C@_0BA@HAHECJNK@glVertexPointer?$AA@ 10086680     SDL_render_gl.obj
 0002:0000a690       ??_C@_0L@KBLIPDFH@glViewport?$AA@ 10086690     SDL_render_gl.obj
 0002:0000a69c       ??_C@_0O@HDFGMLFM@GL_ResetState?$AA@ 1008669c     SDL_render_gl.obj
 0002:0000a6ac       ??_C@_0DI@KKCONEIB@?4?4?2?4?4?2?4?4?2depends?2SDL2?2src?2render@ 100866ac     SDL_render_gl.obj
 0002:0000a6e4       ??_C@_0BE@OHIPHHMJ@GL_ARB_debug_output?$AA@ 100866e4     SDL_render_gl.obj
 0002:0000a6f8       ??_C@_0BK@IEHNBEGE@glDebugMessageCallbackARB?$AA@ 100866f8     SDL_render_gl.obj
 0002:0000a714       ??_C@_0BJ@NKHMPMDJ@GL_ARB_texture_rectangle?$AA@ 10086714     SDL_render_gl.obj
 0002:0000a730       ??_C@_0BJ@CDAOFBMC@GL_EXT_texture_rectangle?$AA@ 10086730     SDL_render_gl.obj
 0002:0000a74c       ??_C@_0BE@MEMOPMEA@GL_ARB_multitexture?$AA@ 1008674c     SDL_render_gl.obj
 0002:0000a760       ??_C@_0BD@IKCKKKNH@glActiveTextureARB?$AA@ 10086760     SDL_render_gl.obj
 0002:0000a774       ??_C@_0BK@NIFPALMB@SDL_RENDER_OPENGL_SHADERS?$AA@ 10086774     SDL_render_gl.obj
 0002:0000a790       ??_C@_07DKCFBCHE@ENABLED?$AA@ 10086790     SDL_render_gl.obj
 0002:0000a798       ??_C@_08GLNGGDPJ@DISABLED?$AA@ 10086798     SDL_render_gl.obj
 0002:0000a7a4       ??_C@_0BD@GMFMGLNE@OpenGL?5shaders?3?5?$CFs?$AA@ 100867a4     SDL_render_gl.obj
 0002:0000a7b8       ??_C@_0BK@GDONINOA@GL_EXT_framebuffer_object?$AA@ 100867b8     SDL_render_gl.obj
 0002:0000a7d4       ??_C@_0BF@FFIJGJAM@glGenFramebuffersEXT?$AA@ 100867d4     SDL_render_gl.obj
 0002:0000a7ec       ??_C@_0BI@NPEJNLO@glDeleteFramebuffersEXT?$AA@ 100867ec     SDL_render_gl.obj
 0002:0000a804       ??_C@_0BK@LFOBEPCF@glFramebufferTexture2DEXT?$AA@ 10086804     SDL_render_gl.obj
 0002:0000a820       ??_C@_0BF@EMIECBAK@glBindFramebufferEXT?$AA@ 10086820     SDL_render_gl.obj
 0002:0000a838       ??_C@_0BM@GOHPHGGE@glCheckFramebufferStatusEXT?$AA@ 10086838     SDL_render_gl.obj
 0002:0000a854       ??_C@_0CK@BEJNMJGD@Texture?5format?5?$CFs?5not?5supported?5@ 10086854     SDL_render_gl.obj
 0002:0000a880       ??_C@_0BB@MHNLJJMD@GL_CreateTexture?$AA@ 10086880     SDL_render_gl.obj
 0002:0000a894       ??_C@_0P@FONCNNHG@glGenTexures?$CI?$CJ?$AA@ 10086894     SDL_render_gl.obj
 0002:0000a8a4       ??_C@_0P@BCHNPHKN@glTexImage2D?$CI?$CJ?$AA@ 100868a4     SDL_render_gl.obj
 0002:0000a8b4       ??_C@_0BB@KCFCBHDN@GL_UpdateTexture?$AA@ 100868b4     SDL_render_gl.obj
 0002:0000a8c8       ??_C@_0BC@LEGPDHIC@glTexSubImage2D?$CI?$CJ?$AA@ 100868c8     SDL_render_gl.obj
 0002:0000a8dc       ??_C@_0BE@JMMGJEIO@GL_UpdateTextureYUV?$AA@ 100868dc     SDL_render_gl.obj
 0002:0000a8f0       ??_C@_0CD@NNDEHCIN@glFramebufferTexture2DEXT?$CI?$CJ?5fail@ 100868f0     SDL_render_gl.obj
 0002:0000a914       ??_C@_0BC@JJKHKFFK@GL_UpdateViewport?$AA@ 10086914     SDL_render_gl.obj
 0002:0000a928       ??_C@_0BD@KIBGGFAN@GL_RenderDrawLines?$AA@ 10086928     SDL_render_gl.obj
 0002:0000a93c       ??_C@_0BD@GPAICLAJ@GL_RenderFillRects?$AA@ 1008693c     SDL_render_gl.obj
 0002:0000a950       ??_C@_0O@PNIKMJCJ@GL_RenderCopy?$AA@ 10086950     SDL_render_gl.obj
 0002:0000a960       ??_C@_0BA@DHEJKEKA@GL_RenderCopyEx?$AA@ 10086960     SDL_render_gl.obj
 0002:0000a970       ??_C@_0BE@FDKKJCOJ@GL_RenderReadPixels?$AA@ 10086970     SDL_render_gl.obj
 0002:0000a984       ??_C@_0P@KKFCDLPL@glReadPixels?$CI?$CJ?$AA@ 10086984     SDL_render_gl.obj
 0002:0000a994       ??_C@_0BD@CBCGLKNF@GL_DestroyRenderer?$AA@ 10086994     SDL_render_gl.obj
 0002:0000a9a8       ??_C@_0DFF@IBJPCLPC@varying?5vec4?5v_color?$DL?6varying?5ve@ 100869a8     SDL_shaders_gl.obj
 0002:0000ad00       ??_C@_0JC@KPDEEJDO@varying?5vec4?5v_color?$DL?6varying?5ve@ 10086d00     SDL_shaders_gl.obj
 0002:0000ad98       ??_C@_0LO@CAAGHOIK@varying?5vec4?5v_color?$DL?6varying?5ve@ 10086d98     SDL_shaders_gl.obj
 0002:0000ae58       ??_C@_0ED@IIANLGMK@varying?5vec4?5v_color?$DL?6?6void?5main@ 10086e58     SDL_shaders_gl.obj
 0002:0000aea0       ??_C@_0HL@BPKNAHMN@varying?5vec4?5v_color?$DL?6?6void?5main@ 10086ea0     SDL_shaders_gl.obj
 0002:0000af1c       ??_C@_0CC@FHAMENEF@Failed?5to?5compile?5shader?3?6?$CFs?$CFs?6?$CF@ 10086f1c     SDL_shaders_gl.obj
 0002:0000af40       ??_C@_0EB@ODCDMOAP@?$CDdefine?5sampler2D?5sampler2DRect?6@ 10086f40     SDL_shaders_gl.obj
 0002:0000af84       ??_C@_05BOMAELGN@tex?$CFd?$AA@ 10086f84     SDL_shaders_gl.obj
 0002:0000af8c       ??_C@_0BG@OLLFAEMA@GL_ARB_shader_objects?$AA@ 10086f8c     SDL_shaders_gl.obj
 0002:0000afa4       ??_C@_0BM@IABMMANC@GL_ARB_shading_language_100?$AA@ 10086fa4     SDL_shaders_gl.obj
 0002:0000afc0       ??_C@_0BF@GNLBPIJF@GL_ARB_vertex_shader?$AA@ 10086fc0     SDL_shaders_gl.obj
 0002:0000afd8       ??_C@_0BH@MOFIMEJB@GL_ARB_fragment_shader?$AA@ 10086fd8     SDL_shaders_gl.obj
 0002:0000aff0       ??_C@_0BC@GINLBKLJ@glAttachObjectARB?$AA@ 10086ff0     SDL_shaders_gl.obj
 0002:0000b004       ??_C@_0BD@BEDGBOPM@glCompileShaderARB?$AA@ 10087004     SDL_shaders_gl.obj
 0002:0000b018       ??_C@_0BJ@KGMBEPBI@glCreateProgramObjectARB?$AA@ 10087018     SDL_shaders_gl.obj
 0002:0000b034       ??_C@_0BI@FMNPOEGE@glCreateShaderObjectARB?$AA@ 10087034     SDL_shaders_gl.obj
 0002:0000b04c       ??_C@_0BC@MJFNICLA@glDeleteObjectARB?$AA@ 1008704c     SDL_shaders_gl.obj
 0002:0000b060       ??_C@_0BA@FLIOBLOG@glGetInfoLogARB?$AA@ 10087060     SDL_shaders_gl.obj
 0002:0000b070       ??_C@_0BK@IDAIKMOL@glGetObjectParameterivARB?$AA@ 10087070     SDL_shaders_gl.obj
 0002:0000b08c       ??_C@_0BI@CAFPPHDC@glGetUniformLocationARB?$AA@ 1008708c     SDL_shaders_gl.obj
 0002:0000b0a4       ??_C@_0BB@HPIAOOAG@glLinkProgramARB?$AA@ 100870a4     SDL_shaders_gl.obj
 0002:0000b0b8       ??_C@_0BC@MCCOFGJG@glShaderSourceARB?$AA@ 100870b8     SDL_shaders_gl.obj
 0002:0000b0cc       ??_C@_0P@CHIIJDJD@glUniform1iARB?$AA@ 100870cc     SDL_shaders_gl.obj
 0002:0000b0dc       ??_C@_0P@KFNIAEEC@glUniform1fARB?$AA@ 100870dc     SDL_shaders_gl.obj
 0002:0000b0ec       ??_C@_0BG@JEOFPDIM@glUseProgramObjectARB?$AA@ 100870ec     SDL_shaders_gl.obj
 0002:0000b104       ??_C@_0DB@DMEFHBOK@SDL_BlendFillRects?$CI?$CJ?3?5Unsupporte@ 10087104     SDL_blendfillrect.obj
 0002:0000b138       ??_C@_0DC@OFMLCIFH@SDL_BlendLines?$CI?$CJ?3?5Passed?5NULL?5de@ 10087138     SDL_blendline.obj
 0002:0000b16c       ??_C@_0CN@NMDLPMAN@SDL_BlendLines?$CI?$CJ?3?5Unsupported?5su@ 1008716c     SDL_blendline.obj
 0002:0000b19c       ??_C@_0CN@MJLFJIEA@SDL_BlendPoint?$CI?$CJ?3?5Unsupported?5su@ 1008719c     SDL_blendpoint.obj
 0002:0000b1cc       ??_C@_0CO@MJCFLEAC@SDL_BlendPoints?$CI?$CJ?3?5Unsupported?5s@ 100871cc     SDL_blendpoint.obj
 0002:0000b1fc       ??_C@_0DB@MDDBOCLK@SDL_DrawLines?$CI?$CJ?3?5Passed?5NULL?5des@ 100871fc     SDL_drawline.obj
 0002:0000b230       ??_C@_0CM@EGJBCCAD@SDL_DrawLines?$CI?$CJ?3?5Unsupported?5sur@ 10087230     SDL_drawline.obj
 0002:0000b25c       ??_C@_0CM@FDBPEGEO@SDL_DrawPoint?$CI?$CJ?3?5Unsupported?5sur@ 1008725c     SDL_drawpoint.obj
 0002:0000b288       ??_C@_0CN@COAHDDNL@SDL_DrawPoints?$CI?$CJ?3?5Unsupported?5su@ 10087288     SDL_drawpoint.obj
 0002:0000b2b8       ??_C@_0CH@OACHJIDA@Can?8t?5create?5renderer?5for?5NULL?5s@ 100872b8     SDL_render_sw.obj
 0002:0000b2e0       ??_C@_0DB@MNHOFIPN@Software?5renderer?5doesn?8t?5have?5a@ 100872e0     SDL_render_sw.obj
 0002:0000b314       ??_C@_0BH@DNELNPHN@Unknown?5texture?5format?$AA@ 10087314     SDL_render_sw.obj
 0002:0000b32c       ??_C@_0CI@BAFMCAO@Tried?5to?5read?5outside?5of?5surface@ 1008732c     SDL_render_sw.obj
 0002:0000b354       ??_C@_0BE@JKAFKGBP@Passed?5a?5NULL?5mutex?$AA@ 10087354     SDL_sysmutex.obj
 0002:0000b368       ??_C@_0BC@MPKHDLJP@Passed?5a?5NULL?5sem?$AA@ 10087368     SDL_syssem.obj
 0002:0000b37c       ??_C@_0BN@CBILABAM@WaitForSingleObject?$CI?$CJ?5failed?$AA@ 1008737c     SDL_syssem.obj
 0002:0000b39c       ??_C@_0BK@PIIIPHLC@ReleaseSemaphore?$CI?$CJ?5failed?$AA@ 1008739c     SDL_syssem.obj
 0002:0000b3b8       ??_C@_0CG@NEOFPKAN@Not?5enough?5resources?5to?5create?5t@ 100873b8     SDL_systhread.obj
 0002:0000b3e0       ??_C@_0BE@HPNLNCEL@SetThreadPriority?$CI?$CJ?$AA@ 100873e0     SDL_systhread.obj
 0002:0000b3f4       ??_C@_0BF@HILEIFFM@TlsSetValue?$CI?$CJ?5failed?$AA@ 100873f4     SDL_systls.obj
 0002:0000b40c       ??_C@_0CB@LHOHCCCA@Passed?5a?5NULL?5condition?5variable@ 1008740c     SDL_syscond.obj
 0002:0000b430       ??_C@_0BF@NCNBHJCC@SDL_TIMER_RESOLUTION?$AA@ 10087430     SDL_systimer.obj
 0002:0000b448       ??_C@_0BC@CBICHLPL@_SDL_DummySurface?$AA@ 10087448     SDL_nullframebuffer.obj
 0002:0000b45c       ??_C@_0CH@PGFAPKOK@Couldn?8t?5find?5dummy?5surface?5for?5@ 1008745c     SDL_nullframebuffer.obj
 0002:0000b484       ??_C@_0BM@HKOHMACG@SDL_VIDEO_DUMMY_SAVE_FRAMES?$AA@ 10087484     SDL_nullframebuffer.obj
 0002:0000b4a0       ??_C@_0BH@PIFAGDNK@SDL_window?$CFd?9?$CF8?48d?4bmp?$AA@ 100874a0     SDL_nullframebuffer.obj
 0002:0000b4b8       ??_C@_0BH@EBGCPODA@SDL?5dummy?5video?5driver?$AA@ 100874b8     SDL_nullvideo.obj
 0002:0000b4d0       ??_C@_0BM@MNLLJAOA@Couldn?8t?5set?5clipboard?5data?$AA@ 100874d0     SDL_windowsclipboard.obj
 0002:0000b4ec       ??_C@_0BI@FDMHAIB@Couldn?8t?5open?5clipboard?$AA@ 100874ec     SDL_windowsclipboard.obj
 0002:0000b504       ??_C@_0BM@DHJBKGAI@Couldn?8t?5get?5clipboard?5data?$AA@ 10087504     SDL_windowsclipboard.obj
 0002:0000b520       ??_C@_1BO@GJPGBFDB@?$AAS?$AAD?$AAL?$AA_?$AAW?$AAi?$AAn?$AAd?$AAo?$AAw?$AAD?$AAa?$AAt?$AAa?$AA?$AA@ 10087520     SDL_windowsevents.obj
 0002:0000b540       ??_C@_07MLLNJGBE@SDL_app?$AA@ 10087540     SDL_windowsevents.obj
 0002:0000b548       ??_C@_0CE@GEIOGHII@Couldn?8t?5register?5application?5cl@ 10087548     SDL_windowsevents.obj
 0002:0000b56c       ??_C@_0BF@BCJDIJDJ@Unable?5to?5create?5DIB?$AA@ 1008756c     SDL_windowsframebuffer.obj
 0002:0000b584       ??_C@_0N@ILBHIOPE@Left?5Windows?$AA@ 10087584     SDL_windowskeyboard.obj
 0002:0000b594       ??_C@_0O@IDKBPDPO@Right?5Windows?$AA@ 10087594     SDL_windowskeyboard.obj
 0002:0000b5a4       ??_C@_09EFEMJFBN@imm32?4dll?$AA@ 100875a4     SDL_windowskeyboard.obj
 0002:0000b5b0       ??_C@_0L@JGAMEFKO@ImmLockIMC?$AA@ 100875b0     SDL_windowskeyboard.obj
 0002:0000b5bc       ??_C@_0N@PDIACEGP@ImmUnlockIMC?$AA@ 100875bc     SDL_windowskeyboard.obj
 0002:0000b5cc       ??_C@_0M@OKKMJOGM@ImmLockIMCC?$AA@ 100875cc     SDL_windowskeyboard.obj
 0002:0000b5d8       ??_C@_0O@GKKOACL@ImmUnlockIMCC?$AA@ 100875d8     SDL_windowskeyboard.obj
 0002:0000b5e8       ??_C@_0N@FFMHCBAD@TINTLGNT?4IME?$AA@ 100875e8     SDL_windowskeyboard.obj
 0002:0000b5f8       ??_C@_0N@JMLDIBIB@CINTLGNT?4IME?$AA@ 100875f8     SDL_windowskeyboard.obj
 0002:0000b608       ??_C@_0N@FHDFFBN@MSTCIPHA?4IME?$AA@ 10087608     SDL_windowskeyboard.obj
 0002:0000b618       ??_C@_0N@JFHOELJF@PINTLGNT?4IME?$AA@ 10087618     SDL_windowskeyboard.obj
 0002:0000b628       ??_C@_0N@ONOBNHOE@MSSCIPYA?4IME?$AA@ 10087628     SDL_windowskeyboard.obj
 0002:0000b638       ??_C@_0BB@EOIFCLLM@GetReadingString?$AA@ 10087638     SDL_windowskeyboard.obj
 0002:0000b64c       ??_C@_0BC@MEELNKEC@ShowReadingWindow?$AA@ 1008764c     SDL_windowskeyboard.obj
 0002:0000b660       ??_C@_11LOCGONAA@?$AA?$AA@ 10087660     SDL_windowskeyboard.obj
 0002:0000b664       ??_C@_0BG@EEEBJAMO@No?5displays?5available?$AA@ 10087664     SDL_windowsmodes.obj
 0002:0000b67c       ??_C@_0P@GKAKGMM@Unknown?5reason?$AA@ 1008767c     SDL_windowsmodes.obj
 0002:0000b68c       ??_C@_0BF@GEBMIKCB@DISP_CHANGE_BADFLAGS?$AA@ 1008768c     SDL_windowsmodes.obj
 0002:0000b6a4       ??_C@_0BE@NENINPMB@DISP_CHANGE_BADMODE?$AA@ 100876a4     SDL_windowsmodes.obj
 0002:0000b6b8       ??_C@_0BF@NLGDBEAK@DISP_CHANGE_BADPARAM?$AA@ 100876b8     SDL_windowsmodes.obj
 0002:0000b6d0       ??_C@_0BD@NMKNJEGN@DISP_CHANGE_FAILED?$AA@ 100876d0     SDL_windowsmodes.obj
 0002:0000b6e4       ??_C@_0CF@HODIIFDI@ChangeDisplaySettingsEx?$CI?$CJ?5failed@ 100876e4     SDL_windowsmodes.obj
 0002:0000b70c       ??_C@_0BF@FOPPOLMK@CreateIconIndirect?$CI?$CJ?$AA@ 1008770c     SDL_windowsmouse.obj
 0002:0000b724       ??_C@_0BD@HJLOMBBH@SDL_OPENGL_LIBRARY?$AA@ 10087724     SDL_windowsopengl.obj
 0002:0000b738       ??_C@_0N@CKFCKPPG@OPENGL32?4DLL?$AA@ 10087738     SDL_windowsopengl.obj
 0002:0000b748       ??_C@_0BC@FFKMKEGM@wglGetProcAddress?$AA@ 10087748     SDL_windowsopengl.obj
 0002:0000b75c       ??_C@_0BB@GHMBNOIP@wglCreateContext?$AA@ 1008775c     SDL_windowsopengl.obj
 0002:0000b770       ??_C@_0BB@OGAIJNNO@wglDeleteContext?$AA@ 10087770     SDL_windowsopengl.obj
 0002:0000b784       ??_C@_0P@BBBFNDGG@wglMakeCurrent?$AA@ 10087784     SDL_windowsopengl.obj
 0002:0000b794       ??_C@_0O@GCGJMHDL@wglShareLists?$AA@ 10087794     SDL_windowsopengl.obj
 0002:0000b7a4       ??_C@_0CE@LLKDOCIF@Could?5not?5retrieve?5OpenGL?5functi@ 100877a4     SDL_windowsopengl.obj
 0002:0000b7c8       ??_C@_0BK@JOBLJGNA@wglGetExtensionsStringARB?$AA@ 100877c8     SDL_windowsopengl.obj
 0002:0000b7e4       ??_C@_0BF@OGGDOHFN@WGL_ARB_pixel_format?$AA@ 100877e4     SDL_windowsopengl.obj
 0002:0000b7fc       ??_C@_0BI@JPMGGILH@wglChoosePixelFormatARB?$AA@ 100877fc     SDL_windowsopengl.obj
 0002:0000b814       ??_C@_0BN@GDKHKIAN@wglGetPixelFormatAttribivARB?$AA@ 10087814     SDL_windowsopengl.obj
 0002:0000b834       ??_C@_0BF@NPDKPIKE@WGL_EXT_swap_control?$AA@ 10087834     SDL_windowsopengl.obj
 0002:0000b84c       ??_C@_0BD@IINOPBDD@wglSwapIntervalEXT?$AA@ 1008784c     SDL_windowsopengl.obj
 0002:0000b860       ??_C@_0BG@EDKPJPEA@wglGetSwapIntervalEXT?$AA@ 10087860     SDL_windowsopengl.obj
 0002:0000b878       ??_C@_0BK@EAEHPPPH@WGL_EXT_swap_control_tear?$AA@ 10087878     SDL_windowsopengl.obj
 0002:0000b894       ??_C@_0CG@MJCPNACG@No?5matching?5GL?5pixel?5format?5avai@ 10087894     SDL_windowsopengl.obj
 0002:0000b8bc       ??_C@_0BB@NPBPIACN@SetPixelFormat?$CI?$CJ?$AA@ 100878bc     SDL_windowsopengl.obj
 0002:0000b8d0       ??_C@_0BM@FIACDMLK@Could?5not?5create?5GL?5context?$AA@ 100878d0     SDL_windowsopengl.obj
 0002:0000b8ec       ??_C@_0BL@PDDHMPGF@wglCreateContextAttribsARB?$AA@ 100878ec     SDL_windowsopengl.obj
 0002:0000b908       ??_C@_0BI@NLGKFGGC@GL?53?4x?5is?5not?5supported?$AA@ 10087908     SDL_windowsopengl.obj
 0002:0000b920       ??_C@_0BH@HIPGPHLC@OpenGL?5not?5initialized?$AA@ 10087920     SDL_windowsopengl.obj
 0002:0000b938       ??_C@_0BB@FOGFNGOJ@wglMakeCurrent?$CI?$CJ?$AA@ 10087938     SDL_windowsopengl.obj
 0002:0000b94c       ??_C@_0CO@BBIPCEKJ@Negative?5swap?5interval?5unsupport@ 1008794c     SDL_windowsopengl.obj
 0002:0000b97c       ??_C@_0BF@EMMJKHNH@wglSwapIntervalEXT?$CI?$CJ?$AA@ 1008797c     SDL_windowsopengl.obj
 0002:0000b994       ??_C@_0BJ@OPANIJGA@SDL?5Windows?5video?5driver?$AA@ 10087994     SDL_windowsvideo.obj
 0002:0000b9b0       ??_C@_07EKMDLNDL@windows?$AA@ 100879b0     SDL_windowsvideo.obj
 0002:0000b9b8       ??_C@_0L@NDEGIDAG@USER32?4DLL?$AA@ 100879b8     SDL_windowsvideo.obj
 0002:0000b9c4       ??_C@_0BG@NAJBBCHN@CloseTouchInputHandle?$AA@ 100879c4     SDL_windowsvideo.obj
 0002:0000b9dc       ??_C@_0BC@NHGPJPFD@GetTouchInputInfo?$AA@ 100879dc     SDL_windowsvideo.obj
 0002:0000b9f0       ??_C@_0BE@PENJIHMC@RegisterTouchWindow?$AA@ 100879f0     SDL_windowsvideo.obj
 0002:0000ba04       ??_C@_08ENDAMAGJ@D3D9?4DLL?$AA@ 10087a04     SDL_windowsvideo.obj
 0002:0000ba10       ??_C@_0BA@FAFMMBOF@Direct3DCreate9?$AA@ 10087a10     SDL_windowsvideo.obj
 0002:0000ba20       ??_C@_0BG@KBIJBEIN@Invalid?5display?5index?$AA@ 10087a20     SDL_windowsvideo.obj
 0002:0000ba38       ??_C@_1DM@NIAKBFKG@?$AAS?$AAD?$AAL?$AAH?$AAe?$AAl?$AAp?$AAe?$AAr?$AAW?$AAi?$AAn?$AAd?$AAo?$AAw?$AAI?$AAn?$AAp?$AAu?$AAt?$AAM?$AAs?$AAg?$AAW?$AAi?$AAn?$AAd?$AAo?$AAw?$AA?$AA@ 10087a38     SDL_windowswindow.obj
 0002:0000ba74       ??_C@_1DI@HFFBEPOK@?$AAS?$AAD?$AAL?$AAH?$AAe?$AAl?$AAp?$AAe?$AAr?$AAW?$AAi?$AAn?$AAd?$AAo?$AAw?$AAI?$AAn?$AAp?$AAu?$AAt?$AAC?$AAa?$AAt?$AAc?$AAh?$AAe?$AAr?$AA?$AA@ 10087a74     SDL_windowswindow.obj
 0002:0000baac       ??_C@_0BB@LDNNKPIM@SetProp?$CI?$CJ?5failed?$AA@ 10087aac     SDL_windowswindow.obj
 0002:0000bac0       ??_C@_0BH@GEFOGILD@Couldn?8t?5create?5window?$AA@ 10087ac0     SDL_windowswindow.obj
 0002:0000bad8       ??_C@_0BF@MNMPNNFF@SetDeviceGammaRamp?$CI?$CJ?$AA@ 10087ad8     SDL_windowswindow.obj
 0002:0000baf0       ??_C@_0BF@JENCMLAC@GetDeviceGammaRamp?$CI?$CJ?$AA@ 10087af0     SDL_windowswindow.obj
 0002:0000bb08       ??_C@_0CJ@OMPJCJPJ@Application?5not?5compiled?5with?5SD@ 10087b08     SDL_windowswindow.obj
 0002:0000bb34       ??_C@_0CF@LJAACKDL@Unable?5to?5create?5Helper?5Window?5C@ 10087b34     SDL_windowswindow.obj
 0002:0000bb5c       ??_C@_0BP@GLJKBNOL@Unable?5to?5create?5Helper?5Window?$AA@ 10087b5c     SDL_windowswindow.obj
 0002:0000bb7c       ??_C@_0CA@IDNJGKMC@Unable?5to?5destroy?5Helper?5Window?$AA@ 10087b7c     SDL_windowswindow.obj
 0002:0000bb9c       ??_C@_0CG@PMABDENB@Unable?5to?5destroy?5Helper?5Window?5@ 10087b9c     SDL_windowswindow.obj
 0002:0000bbc4       __real@45f00800            10087bc4      CIL library: CIL module
 0002:0000bbc8       __real@46040000            10087bc8      CIL library: CIL module
 0002:0000bbd0       __real@3f70101020000000    10087bd0      CIL library: CIL module
 0002:0000bbd8       __real@bf800000            10087bd8      CIL library: CIL module
 0002:0000bbe0       __real@c000000000000000    10087be0      CIL library: CIL module
 0002:0000bbe8       __real@4000000000000000    10087be8      CIL library: CIL module
 0002:0000bbf0       __real@3f90000000000000    10087bf0      CIL library: CIL module
 0002:0000bbf8       __real@3fe0000000000000    10087bf8      CIL library: CIL module
 0002:0000bc00       __real@3fd0000000000000    10087c00      CIL library: CIL module
 0002:0000bc08       __real@4008000000000000    10087c08      CIL library: CIL module
 0002:0000bc10       __real@41dfffffffc00000    10087c10      CIL library: CIL module
 0002:0000bc18       __real@40dfffc000000000    10087c18      CIL library: CIL module
 0002:0000bc20       __real@3ff0000000000000    10087c20      CIL library: CIL module
 0002:0000bc28       __real@405fc00000000000    10087c28      CIL library: CIL module
 0002:0000bc30       __real@3e00000000000000    10087c30      CIL library: CIL module
 0002:0000bc38       __real@3f00002000000000    10087c38      CIL library: CIL module
 0002:0000bc40       __real@3f80204080000000    10087c40      CIL library: CIL module
 0002:0000bc48       __real@3f91df46a2529d39    10087c48      CIL library: CIL module
 0002:0000bc50       __real@3fa1df46a2529d39    10087c50      CIL library: CIL module
 0002:0000bc58       __real@3fd87221915b6dcc    10087c58      CIL library: CIL module
 0002:0000bc60       __real@3fe3c6ef3752491a    10087c60      CIL library: CIL module
 0002:0000bc68       __real@bff921fb54442d18    10087c68      CIL library: CIL module
 0002:0000bc70       __real@3e3ddb6d            10087c70      CIL library: CIL module
 0002:0000bc74       __real@be3ddb6d            10087c74      CIL library: CIL module
 0002:0000bc78       __real@3fe921fb54442d18    10087c78      CIL library: CIL module
 0002:0000bc80       __real@bfe921fb54442d18    10087c80      CIL library: CIL module
 0002:0000bc88       __real@0000000000000000    10087c88      CIL library: CIL module
 0002:0000bc90       __real@41f0000000000000    10087c90      CIL library: CIL module
 0002:0000bc98       __real@40efffe000000000    10087c98      CIL library: CIL module
 0002:0000bca0       __real@3f70000000000000    10087ca0      CIL library: CIL module
 0002:0000bca8       __real@4070000000000000    10087ca8      CIL library: CIL module
 0002:0000bcb0       __real@404f800000000000    10087cb0      CIL library: CIL module
 0002:0000bcb8       __real@3f80000000000000    10087cb8      CIL library: CIL module
 0002:0000bcc0       __real@c7efffffe0000000    10087cc0      CIL library: CIL module
 0002:0000bcc8       __real@47efffffe0000000    10087cc8      CIL library: CIL module
 0002:0000bcd0       __real@461c4000            10087cd0      CIL library: CIL module
 0002:0000bcd8       __real@3ffc5fe740317f9c    10087cd8      CIL library: CIL module
 0002:0000bce0       __real@bfd60ad3ea582b50    10087ce0      CIL library: CIL module
 0002:0000bce8       __real@bfe6d5d7ace82bfe    10087ce8      CIL library: CIL module
 0002:0000bcf0       __real@3ff66be12d60bfc9    10087cf0      CIL library: CIL module
 0002:0000bcf8       __real@3f1a36e2eb1c432d    10087cf8      CIL library: CIL module
 0002:0000bd00       __real@bf000000            10087d00      CIL library: CIL module
 0002:0000bd04       __real@3f000000            10087d04      CIL library: CIL module
 0002:0000bd08       __real@4066800000000000    10087d08      CIL library: CIL module
 0002:0000bd10       __real@400921fb54442d18    10087d10      CIL library: CIL module
 0002:0000bd18       __real@40f0000000000000    10087d18      CIL library: CIL module
 0002:0000bd20       __load_config_used         10087d20     MSVCRT:loadcfg.obj
 0002:0000bd70       ___safe_se_handler_table   10087d70     <linker-defined>
 0002:0000bd74       ___rtc_iaa                 10087d74     MSVCRT:_initsect_.obj
 0002:0000bd78       ___rtc_izz                 10087d78     MSVCRT:_initsect_.obj
 0002:0000bd7c       ___rtc_taa                 10087d7c     MSVCRT:_initsect_.obj
 0002:0000bd80       ___rtc_tzz                 10087d80     MSVCRT:_initsect_.obj
 0002:0000be0c       __IMPORT_DESCRIPTOR_USER32 10087e0c     user32:USER32.dll
 0002:0000be20       __IMPORT_DESCRIPTOR_GDI32  10087e20     gdi32:GDI32.dll
 0002:0000be34       __IMPORT_DESCRIPTOR_SHELL32 10087e34     shell32:SHELL32.dll
 0002:0000be48       __IMPORT_DESCRIPTOR_WINMM  10087e48     winmm:WINMM.dll
 0002:0000be5c       __IMPORT_DESCRIPTOR_IMM32  10087e5c     Imm32:IMM32.dll
 0002:0000be70       __IMPORT_DESCRIPTOR_VERSION 10087e70     Version:VERSION.dll
 0002:0000be84       __IMPORT_DESCRIPTOR_KERNEL32 10087e84     kernel32:KERNEL32.dll
 0002:0000be98       __IMPORT_DESCRIPTOR_ole32  10087e98     ole32:ole32.dll
 0002:0000beac       __IMPORT_DESCRIPTOR_OLEAUT32 10087eac     oleaut32:OLEAUT32.dll
 0002:0000bec0       __IMPORT_DESCRIPTOR_MSVCR90 10087ec0     MSVCRT:MSVCR90.dll
 0002:0000bed4       __NULL_IMPORT_DESCRIPTOR   10087ed4     user32:USER32.dll
 0003:00000000       ___native_dllmain_reason   1008d000     MSVCRT:natstart.obj
 0003:00000004       ___native_vcclrit_reason   1008d004     MSVCRT:natstart.obj
 0003:00000008       ___security_cookie         1008d008     MSVCRT:gs_cookie.obj
 0003:0000000c       ___security_cookie_complement 1008d00c     MSVCRT:gs_cookie.obj
 0003:00000018       _WINDOWS_bootstrap         1008d018     SDL_windowsvideo.obj
 0003:00000050       _DUMMY_bootstrap           1008d050     SDL_nullvideo.obj
 0003:00000068       _SW_RenderDriver           1008d068     SDL_render_sw.obj
 0003:000000e0       _GL_RenderDriver           1008d0e0     SDL_render_gl.obj
 0003:00000138       _D3D_RenderDriver          1008d138     SDL_render_d3d.obj
 0003:000001a0       _dfDIJoystick2             1008d1a0     SDL_dxjoystick.obj
 0003:00000be0       _XAUDIO2_bootstrap         1008dbe0     SDL_xaudio2.obj
 0003:00000c10       _WINMM_bootstrap           1008dc10     SDL_winmm.obj
 0003:00000c20       _DUMMYAUD_bootstrap        1008dc20     SDL_dummyaudio.obj
 0003:00000c30       _DISKAUD_bootstrap         1008dc30     SDL_diskaudio.obj
 0003:00000c40       _DSOUND_bootstrap          1008dc40     SDL_directsound.obj
 0003:00000e94       _SDL_expand_byte           1008de94     SDL_pixels.obj
 0003:00000eb8       _SDL_GeneratedBlitFuncTable 1008deb8     SDL_blit_auto.obj
 0003:00002534       __forceCRTManifestRTM      1008f534     MSVCRT:crtmanifestrtm.obj
 0003:00002538       ?__type_info_root_node@@3U__type_info_node@@A 1008f538     MSVCRT:tncleanup.obj
 0003:0000d52c       _SDL_EventOK               1009a52c     SDL_events.obj
 0003:0000d534       _SDL_numGestureTouches     1009a534     SDL_gesture.obj
 0003:0000d540       _SDL_numhaptics            1009a540     SDL_haptic.obj
 0003:0000d544       _SDL_haptics               1009a544     SDL_haptic.obj
 0003:0000d5cc       _SDL_XInputGetState        1009a5cc     SDL_dxjoystick.obj
 0003:0000d5d0       _SDL_XInputSetState        1009a5d0     SDL_dxjoystick.obj
 0003:0000d5d4       _SDL_XInputGetCapabilities 1009a5d4     SDL_dxjoystick.obj
 0003:0000d5d8       _SDL_XInputVersion         1009a5d8     SDL_dxjoystick.obj
 0003:0000d604       _SDL_Appname               1009a604     SDL_windowsevents.obj
 0003:0000d608       _SDL_Appstyle              1009a608     SDL_windowsevents.obj
 0003:0000d60c       _SDL_Instance              1009a60c     SDL_windowsevents.obj
 0003:0000d6b4       _SDL_cursor                1009a6b4     SDL_windowsmouse.obj
 0003:0000d6b8       _SDL_HelperWindow          1009a6b8     SDL_windowswindow.obj
 0003:0000d6c0       ___sse2_available          1009a6c0     <common>
 0003:0000d6c4       __adjust_fdiv              1009a6c4     <common>
 0003:0000d6c8       ___native_startup_state    1009a6c8     <common>
 0003:0000d6cc       ___native_startup_lock     1009a6cc     <common>
 0003:0000d6d0       ___onexitend               1009a6d0     <common>
 0003:0000d6d4       ___onexitbegin             1009a6d4     <common>
 0003:0000d6d8       ___dyn_tls_init_callback   1009a6d8     <common>
 0003:0000d6dc       _SDL_gestureTouch          1009a6dc     <common>
 0003:0000d6e0       _recordAll                 1009a6e0     <common>
 0003:0000d6e4       _SDL_EventOKParam          1009a6e4     <common>

 entry point at        0001:0007a571

 Static symbols

 0001:0000006a       _get_audio_device          1000106a f    CIL library: CIL module
 0001:00000089       _SDL_AudioDetectDevices_Default 10001089 f    CIL library: CIL module
 0001:00000089       _DUMMY_VideoQuit           10001089 f    CIL library: CIL module
 0001:00000089       _SW_UnlockTexture          10001089 f    CIL library: CIL module
 0001:00000089       _SDL_AudioCloseDevice_Default 10001089 f    CIL library: CIL module
 0001:00000089       _SDL_AudioDeinitialize_Default 10001089 f    CIL library: CIL module
 0001:00000089       _SDL_AudioThreadInit_Default 10001089 f    CIL library: CIL module
 0001:00000089       _SDL_AudioWaitDevice_Default 10001089 f    CIL library: CIL module
 0001:00000089       _SDL_AudioPlayDevice_Default 10001089 f    CIL library: CIL module
 0001:00000089       _SDL_AudioWaitDone_Default 10001089 f    CIL library: CIL module
 0001:0000008a       _SDL_AudioOpenDevice_Default 1000108a f    CIL library: CIL module
 0001:0000008e       _SDL_AudioLockDevice_Default 1000108e f    CIL library: CIL module
 0001:000000b8       _SDL_AudioUnlockDevice_Default 100010b8 f    CIL library: CIL module
 0001:000000e2       _finalize_audio_entry_points 100010e2 f    CIL library: CIL module
 0001:000002ef       _SDL_ParseAudioFormat      100012ef f    CIL library: CIL module
 0001:00000591       _free_device_list          10001591 f    CIL library: CIL module
 0001:000005c5       _SDL_AddCaptureAudioDevice 100015c5 f    CIL library: CIL module
 0001:00000609       _SDL_AddOutputAudioDevice  10001609 f    CIL library: CIL module
 0001:0000075a       _close_audio_device        1000175a f    CIL library: CIL module
 0001:000007bf       _prepare_audiospec         100017bf f    CIL library: CIL module
 0001:000008d4       _open_audio_device         100018d4 f    CIL library: CIL module
 0001:00000ea9       _SDL_ConvertMono           10001ea9 f    CIL library: CIL module
 0001:000012ff       _SDL_ConvertStrip          100022ff f    CIL library: CIL module
 0001:000013bb       _SDL_ConvertStrip_2        100023bb f    CIL library: CIL module
 0001:000014af       _SDL_ConvertStereo         100024af f    CIL library: CIL module
 0001:0000154f       _SDL_ConvertSurround       1000254f f    CIL library: CIL module
 0001:00001d18       _SDL_ConvertSurround_4     10002d18 f    CIL library: CIL module
 0001:00002208       _SDL_BuildAudioTypeCVT     10003208 f    CIL library: CIL module
 0001:000022bb       _SDL_BuildAudioResampleCVT 100032bb f    CIL library: CIL module
 0001:0000260d       _SDL_Convert_U8_to_S8      1000360d f    CIL library: CIL module
 0001:00002647       _SDL_Convert_U8_to_U16LSB  10003647 f    CIL library: CIL module
 0001:0000268e       _SDL_Convert_U8_to_S16LSB  1000368e f    CIL library: CIL module
 0001:000026dc       _SDL_Convert_U8_to_U16MSB  100036dc f    CIL library: CIL module
 0001:0000272a       _SDL_Convert_U8_to_S16MSB  1000372a f    CIL library: CIL module
 0001:00002782       _SDL_Convert_U8_to_S32LSB  10003782 f    CIL library: CIL module
 0001:000027ce       _SDL_Convert_U8_to_S32MSB  100037ce f    CIL library: CIL module
 0001:0000284a       _SDL_Convert_U8_to_F32LSB  1000384a f    CIL library: CIL module
 0001:000028a5       _SDL_Convert_U8_to_F32MSB  100038a5 f    CIL library: CIL module
 0001:00002935       _SDL_Convert_S8_to_U8      10003935 f    CIL library: CIL module
 0001:0000296c       _SDL_Convert_S8_to_U16LSB  1000396c f    CIL library: CIL module
 0001:000029bd       _SDL_Convert_S8_to_S16LSB  100039bd f    CIL library: CIL module
 0001:00002a07       _SDL_Convert_S8_to_U16MSB  10003a07 f    CIL library: CIL module
 0001:00002a5f       _SDL_Convert_S8_to_S16MSB  10003a5f f    CIL library: CIL module
 0001:00002aad       _SDL_Convert_S8_to_S32LSB  10003aad f    CIL library: CIL module
 0001:00002af6       _SDL_Convert_S8_to_S32MSB  10003af6 f    CIL library: CIL module
 0001:00002b6f       _SDL_Convert_S8_to_F32LSB  10003b6f f    CIL library: CIL module
 0001:00002bc4       _SDL_Convert_S8_to_F32MSB  10003bc4 f    CIL library: CIL module
 0001:00002c4e       _SDL_Convert_U16LSB_to_U8  10003c4e f    CIL library: CIL module
 0001:00002c91       _SDL_Convert_U16LSB_to_S8  10003c91 f    CIL library: CIL module
 0001:00002cda       _SDL_Convert_U16LSB_to_S16LSB 10003cda f    CIL library: CIL module
 0001:00002d1c       _SDL_Convert_U16LSB_to_U16MSB 10003d1c f    CIL library: CIL module
 0001:00002d5d       _SDL_Convert_U16LSB_to_S16MSB 10003d5d f    CIL library: CIL module
 0001:00002da3       _SDL_Convert_U16LSB_to_S32LSB 10003da3 f    CIL library: CIL module
 0001:00002df2       _SDL_Convert_U16LSB_to_S32MSB 10003df2 f    CIL library: CIL module
 0001:00002e70       _SDL_Convert_U16LSB_to_F32LSB 10003e70 f    CIL library: CIL module
 0001:00002ecb       _SDL_Convert_U16LSB_to_F32MSB 10003ecb f    CIL library: CIL module
 0001:00002f5a       _SDL_Convert_S16LSB_to_U8  10003f5a f    CIL library: CIL module
 0001:00002fa0       _SDL_Convert_S16LSB_to_S8  10003fa0 f    CIL library: CIL module
 0001:00002fe6       _SDL_Convert_S16LSB_to_U16LSB 10003fe6 f    CIL library: CIL module
 0001:00003025       _SDL_Convert_S16LSB_to_U16MSB 10004025 f    CIL library: CIL module
 0001:0000306b       _SDL_Convert_S16LSB_to_S16MSB 1000406b f    CIL library: CIL module
 0001:000030ac       _SDL_Convert_S16LSB_to_S32LSB 100040ac f    CIL library: CIL module
 0001:000030f5       _SDL_Convert_S16LSB_to_S32MSB 100040f5 f    CIL library: CIL module
 0001:0000316d       _SDL_Convert_S16LSB_to_F32LSB 1000416d f    CIL library: CIL module
 0001:000031c2       _SDL_Convert_S16LSB_to_F32MSB 100041c2 f    CIL library: CIL module
 0001:0000324b       _SDL_Convert_U16MSB_to_U8  1000424b f    CIL library: CIL module
 0001:00003296       _SDL_Convert_U16MSB_to_S8  10004296 f    CIL library: CIL module
 0001:000032e7       _SDL_Convert_U16MSB_to_U16LSB 100042e7 f    CIL library: CIL module
 0001:00003325       _SDL_Convert_U16MSB_to_S16LSB 10004325 f    CIL library: CIL module
 0001:00003370       _SDL_Convert_U16MSB_to_S16MSB 10004370 f    CIL library: CIL module
 0001:000033bf       _SDL_Convert_U16MSB_to_S32LSB 100043bf f    CIL library: CIL module
 0001:00003415       _SDL_Convert_U16MSB_to_S32MSB 10004415 f    CIL library: CIL module
 0001:0000349a       _SDL_Convert_U16MSB_to_F32LSB 1000449a f    CIL library: CIL module
 0001:000034fc       _SDL_Convert_U16MSB_to_F32MSB 100044fc f    CIL library: CIL module
 0001:00003592       _SDL_Convert_S16MSB_to_U8  10004592 f    CIL library: CIL module
 0001:000035e0       _SDL_Convert_S16MSB_to_S8  100045e0 f    CIL library: CIL module
 0001:0000362e       _SDL_Convert_S16MSB_to_U16LSB 1000462e f    CIL library: CIL module
 0001:00003676       _SDL_Convert_S16MSB_to_S16LSB 10004676 f    CIL library: CIL module
 0001:000036b7       _SDL_Convert_S16MSB_to_U16MSB 100046b7 f    CIL library: CIL module
 0001:00003706       _SDL_Convert_S16MSB_to_S32LSB 10004706 f    CIL library: CIL module
 0001:00003756       _SDL_Convert_S16MSB_to_S32MSB 10004756 f    CIL library: CIL module
 0001:000037d5       _SDL_Convert_S16MSB_to_F32LSB 100047d5 f    CIL library: CIL module
 0001:00003831       _SDL_Convert_S16MSB_to_F32MSB 10004831 f    CIL library: CIL module
 0001:000038bf       _SDL_Convert_S32LSB_to_U8  100048bf f    CIL library: CIL module
 0001:0000390b       _SDL_Convert_S32LSB_to_S8  1000490b f    CIL library: CIL module
 0001:00003957       _SDL_Convert_S32LSB_to_U16LSB 10004957 f    CIL library: CIL module
 0001:000039a6       _SDL_Convert_S32LSB_to_S16LSB 100049a6 f    CIL library: CIL module
 0001:000039f3       _SDL_Convert_S32LSB_to_U16MSB 100049f3 f    CIL library: CIL module
 0001:00003a49       _SDL_Convert_S32LSB_to_S16MSB 10004a49 f    CIL library: CIL module
 0001:00003a9a       _SDL_Convert_S32LSB_to_S32MSB 10004a9a f    CIL library: CIL module
 0001:00003b08       _SDL_Convert_S32LSB_to_F32LSB 10004b08 f    CIL library: CIL module
 0001:00003b4a       _SDL_Convert_S32LSB_to_F32MSB 10004b4a f    CIL library: CIL module
 0001:00003bc5       _SDL_Convert_S32MSB_to_U8  10004bc5 f    CIL library: CIL module
 0001:00003c10       _SDL_Convert_S32MSB_to_S8  10004c10 f    CIL library: CIL module
 0001:00003c69       _SDL_Convert_S32MSB_to_U16LSB 10004c69 f    CIL library: CIL module
 0001:00003cc9       _SDL_Convert_S32MSB_to_S16LSB 10004cc9 f    CIL library: CIL module
 0001:00003d3f       _SDL_Convert_S32MSB_to_U16MSB 10004d3f f    CIL library: CIL module
 0001:00003da6       _SDL_Convert_S32MSB_to_S16MSB 10004da6 f    CIL library: CIL module
 0001:00003e20       _SDL_Convert_S32MSB_to_S32LSB 10004e20 f    CIL library: CIL module
 0001:00003e8e       _SDL_Convert_S32MSB_to_F32LSB 10004e8e f    CIL library: CIL module
 0001:00003f09       _SDL_Convert_S32MSB_to_F32MSB 10004f09 f    CIL library: CIL module
 0001:00003fba       _SDL_Convert_F32LSB_to_U8  10004fba f    CIL library: CIL module
 0001:0000401d       _SDL_Convert_F32LSB_to_S8  1000501d f    CIL library: CIL module
 0001:0000407d       _SDL_Convert_F32LSB_to_U16LSB 1000507d f    CIL library: CIL module
 0001:000040de       _SDL_Convert_F32LSB_to_S16LSB 100050de f    CIL library: CIL module
 0001:0000413c       _SDL_Convert_F32LSB_to_U16MSB 1000513c f    CIL library: CIL module
 0001:000041a4       _SDL_Convert_F32LSB_to_S16MSB 100051a4 f    CIL library: CIL module
 0001:00004206       _SDL_Convert_F32LSB_to_S32LSB 10005206 f    CIL library: CIL module
 0001:00004258       _SDL_Convert_F32LSB_to_S32MSB 10005258 f    CIL library: CIL module
 0001:000042ce       _SDL_Convert_F32LSB_to_F32MSB 100052ce f    CIL library: CIL module
 0001:00004343       _SDL_Convert_F32MSB_to_U8  10005343 f    CIL library: CIL module
 0001:000043d7       _SDL_Convert_F32MSB_to_S8  100053d7 f    CIL library: CIL module
 0001:00004468       _SDL_Convert_F32MSB_to_U16LSB 10005468 f    CIL library: CIL module
 0001:000044fa       _SDL_Convert_F32MSB_to_S16LSB 100054fa f    CIL library: CIL module
 0001:00004589       _SDL_Convert_F32MSB_to_U16MSB 10005589 f    CIL library: CIL module
 0001:00004622       _SDL_Convert_F32MSB_to_S16MSB 10005622 f    CIL library: CIL module
 0001:000046b5       _SDL_Convert_F32MSB_to_S32LSB 100056b5 f    CIL library: CIL module
 0001:00004738       _SDL_Convert_F32MSB_to_S32MSB 10005738 f    CIL library: CIL module
 0001:000047ee       _SDL_Convert_F32MSB_to_F32LSB 100057ee f    CIL library: CIL module
 0001:00004863       _SDL_Upsample_U8_1c        10005863 f    CIL library: CIL module
 0001:000048eb       _SDL_Downsample_U8_1c      100058eb f    CIL library: CIL module
 0001:00004971       _SDL_Upsample_U8_2c        10005971 f    CIL library: CIL module
 0001:00004a1d       _SDL_Downsample_U8_2c      10005a1d f    CIL library: CIL module
 0001:00004ac0       _SDL_Upsample_U8_4c        10005ac0 f    CIL library: CIL module
 0001:00004ba4       _SDL_Downsample_U8_4c      10005ba4 f    CIL library: CIL module
 0001:00004c7f       _SDL_Upsample_U8_6c        10005c7f f    CIL library: CIL module
 0001:00004da0       _SDL_Downsample_U8_6c      10005da0 f    CIL library: CIL module
 0001:00004ebc       _SDL_Upsample_U8_8c        10005ebc f    CIL library: CIL module
 0001:00005017       _SDL_Downsample_U8_8c      10006017 f    CIL library: CIL module
 0001:00005169       _SDL_Upsample_S8_1c        10006169 f    CIL library: CIL module
 0001:000051f1       _SDL_Downsample_S8_1c      100061f1 f    CIL library: CIL module
 0001:00005277       _SDL_Upsample_S8_2c        10006277 f    CIL library: CIL module
 0001:00005323       _SDL_Downsample_S8_2c      10006323 f    CIL library: CIL module
 0001:000053c6       _SDL_Upsample_S8_4c        100063c6 f    CIL library: CIL module
 0001:000054aa       _SDL_Downsample_S8_4c      100064aa f    CIL library: CIL module
 0001:00005585       _SDL_Upsample_S8_6c        10006585 f    CIL library: CIL module
 0001:000056a6       _SDL_Downsample_S8_6c      100066a6 f    CIL library: CIL module
 0001:000057c2       _SDL_Upsample_S8_8c        100067c2 f    CIL library: CIL module
 0001:0000591d       _SDL_Downsample_S8_8c      1000691d f    CIL library: CIL module
 0001:00005a6f       _SDL_Upsample_U16LSB_1c    10006a6f f    CIL library: CIL module
 0001:00005afc       _SDL_Downsample_U16LSB_1c  10006afc f    CIL library: CIL module
 0001:00005b87       _SDL_Upsample_U16LSB_2c    10006b87 f    CIL library: CIL module
 0001:00005c42       _SDL_Downsample_U16LSB_2c  10006c42 f    CIL library: CIL module
 0001:00005cef       _SDL_Upsample_U16LSB_4c    10006cef f    CIL library: CIL module
 0001:00005df6       _SDL_Downsample_U16LSB_4c  10006df6 f    CIL library: CIL module
 0001:00005ee5       _SDL_Upsample_U16LSB_6c    10006ee5 f    CIL library: CIL module
 0001:00006031       _SDL_Downsample_U16LSB_6c  10007031 f    CIL library: CIL module
 0001:0000616f       _SDL_Upsample_U16LSB_8c    1000716f f    CIL library: CIL module
 0001:00006301       _SDL_Downsample_U16LSB_8c  10007301 f    CIL library: CIL module
 0001:00006481       _SDL_Upsample_S16LSB_1c    10007481 f    CIL library: CIL module
 0001:0000650e       _SDL_Downsample_S16LSB_1c  1000750e f    CIL library: CIL module
 0001:00006599       _SDL_Upsample_S16LSB_2c    10007599 f    CIL library: CIL module
 0001:00006654       _SDL_Downsample_S16LSB_2c  10007654 f    CIL library: CIL module
 0001:000066ff       _SDL_Upsample_S16LSB_4c    100076ff f    CIL library: CIL module
 0001:00006806       _SDL_Downsample_S16LSB_4c  10007806 f    CIL library: CIL module
 0001:000068f3       _SDL_Upsample_S16LSB_6c    100078f3 f    CIL library: CIL module
 0001:00006a3f       _SDL_Downsample_S16LSB_6c  10007a3f f    CIL library: CIL module
 0001:00006b7b       _SDL_Upsample_S16LSB_8c    10007b7b f    CIL library: CIL module
 0001:00006d0d       _SDL_Downsample_S16LSB_8c  10007d0d f    CIL library: CIL module
 0001:00006e8b       _SDL_Upsample_U16MSB_1c    10007e8b f    CIL library: CIL module
 0001:00006f2e       _SDL_Downsample_U16MSB_1c  10007f2e f    CIL library: CIL module
 0001:00006fce       _SDL_Upsample_U16MSB_2c    10007fce f    CIL library: CIL module
 0001:000070ad       _SDL_Downsample_U16MSB_2c  100080ad f    CIL library: CIL module
 0001:00007183       _SDL_Upsample_U16MSB_4c    10008183 f    CIL library: CIL module
 0001:000072d2       _SDL_Downsample_U16MSB_4c  100082d2 f    CIL library: CIL module
 0001:00007419       _SDL_Upsample_U16MSB_6c    10008419 f    CIL library: CIL module
 0001:000075d5       _SDL_Downsample_U16MSB_6c  100085d5 f    CIL library: CIL module
 0001:00007784       _SDL_Upsample_U16MSB_8c    10008784 f    CIL library: CIL module
 0001:000079a6       _SDL_Downsample_U16MSB_8c  100089a6 f    CIL library: CIL module
 0001:00007bbb       _SDL_Upsample_S16MSB_1c    10008bbb f    CIL library: CIL module
 0001:00007c5e       _SDL_Downsample_S16MSB_1c  10008c5e f    CIL library: CIL module
 0001:00007cfe       _SDL_Upsample_S16MSB_2c    10008cfe f    CIL library: CIL module
 0001:00007ddd       _SDL_Downsample_S16MSB_2c  10008ddd f    CIL library: CIL module
 0001:00007eaf       _SDL_Upsample_S16MSB_4c    10008eaf f    CIL library: CIL module
 0001:00007ffe       _SDL_Downsample_S16MSB_4c  10008ffe f    CIL library: CIL module
 0001:0000813d       _SDL_Upsample_S16MSB_6c    1000913d f    CIL library: CIL module
 0001:000082f9       _SDL_Downsample_S16MSB_6c  100092f9 f    CIL library: CIL module
 0001:0000849c       _SDL_Upsample_S16MSB_8c    1000949c f    CIL library: CIL module
 0001:000086be       _SDL_Downsample_S16MSB_8c  100096be f    CIL library: CIL module
 0001:000088c3       _SDL_Upsample_S32LSB_1c    100098c3 f    CIL library: CIL module
 0001:00008973       _SDL_Downsample_S32LSB_1c  10009973 f    CIL library: CIL module
 0001:00008a1d       _SDL_Upsample_S32LSB_2c    10009a1d f    CIL library: CIL module
 0001:00008af4       _SDL_Downsample_S32LSB_2c  10009af4 f    CIL library: CIL module
 0001:00008bd0       _SDL_Upsample_S32LSB_4c    10009bd0 f    CIL library: CIL module
 0001:00008d09       _SDL_Downsample_S32LSB_4c  10009d09 f    CIL library: CIL module
 0001:00008e45       _SDL_Upsample_S32LSB_6c    10009e45 f    CIL library: CIL module
 0001:00008fd6       _SDL_Downsample_S32LSB_6c  10009fd6 f    CIL library: CIL module
 0001:00009166       _SDL_Upsample_S32LSB_8c    1000a166 f    CIL library: CIL module
 0001:0000934b       _SDL_Downsample_S32LSB_8c  1000a34b f    CIL library: CIL module
 0001:0000952f       _SDL_Upsample_S32MSB_1c    1000a52f f    CIL library: CIL module
 0001:0000965b       _SDL_Downsample_S32MSB_1c  1000a65b f    CIL library: CIL module
 0001:0000977d       _SDL_Upsample_S32MSB_2c    1000a77d f    CIL library: CIL module
 0001:0000992c       _SDL_Downsample_S32MSB_2c  1000a92c f    CIL library: CIL module
 0001:00009adb       _SDL_Upsample_S32MSB_4c    1000aadb f    CIL library: CIL module
 0001:00009dbf       _SDL_Downsample_S32MSB_4c  1000adbf f    CIL library: CIL module
 0001:0000a0a6       _SDL_Upsample_S32MSB_6c    1000b0a6 f    CIL library: CIL module
 0001:0000a496       _SDL_Downsample_S32MSB_6c  1000b496 f    CIL library: CIL module
 0001:0000a89d       _SDL_Upsample_S32MSB_8c    1000b89d f    CIL library: CIL module
 0001:0000ad67       _SDL_Downsample_S32MSB_8c  1000bd67 f    CIL library: CIL module
 0001:0000b28e       _SDL_Upsample_F32LSB_1c    1000c28e f    CIL library: CIL module
 0001:0000b311       _SDL_Downsample_F32LSB_1c  1000c311 f    CIL library: CIL module
 0001:0000b394       _SDL_Upsample_F32LSB_2c    1000c394 f    CIL library: CIL module
 0001:0000b440       _SDL_Downsample_F32LSB_2c  1000c440 f    CIL library: CIL module
 0001:0000b4df       _SDL_Upsample_F32LSB_4c    1000c4df f    CIL library: CIL module
 0001:0000b5bb       _SDL_Downsample_F32LSB_4c  1000c5bb f    CIL library: CIL module
 0001:0000b68b       _SDL_Upsample_F32LSB_6c    1000c68b f    CIL library: CIL module
 0001:0000b79d       _SDL_Downsample_F32LSB_6c  1000c79d f    CIL library: CIL module
 0001:0000b89f       _SDL_Upsample_F32LSB_8c    1000c89f f    CIL library: CIL module
 0001:0000b9df       _SDL_Downsample_F32LSB_8c  1000c9df f    CIL library: CIL module
 0001:0000bb17       _SDL_Upsample_F32MSB_1c    1000cb17 f    CIL library: CIL module
 0001:0000bc3a       _SDL_Downsample_F32MSB_1c  1000cc3a f    CIL library: CIL module
 0001:0000bd55       _SDL_Upsample_F32MSB_2c    1000cd55 f    CIL library: CIL module
 0001:0000bf0f       _SDL_Downsample_F32MSB_2c  1000cf0f f    CIL library: CIL module
 0001:0000c0bb       _SDL_Upsample_F32MSB_4c    1000d0bb f    CIL library: CIL module
 0001:0000c37e       _SDL_Downsample_F32MSB_4c  1000d37e f    CIL library: CIL module
 0001:0000c639       _SDL_Upsample_F32MSB_6c    1000d639 f    CIL library: CIL module
 0001:0000ca08       _SDL_Downsample_F32MSB_6c  1000da08 f    CIL library: CIL module
 0001:0000cdcf       _SDL_Upsample_F32MSB_8c    1000ddcf f    CIL library: CIL module
 0001:0000d2aa       _SDL_Downsample_F32MSB_8c  1000e2aa f    CIL library: CIL module
 0001:0000d77d       _SDL_Upsample_U8_1c_x2     1000e77d f    CIL library: CIL module
 0001:0000d7e8       _SDL_Downsample_U8_1c_x2   1000e7e8 f    CIL library: CIL module
 0001:0000d84d       _SDL_Upsample_U8_1c_x4     1000e84d f    CIL library: CIL module
 0001:0000d8e8       _SDL_Downsample_U8_1c_x4   1000e8e8 f    CIL library: CIL module
 0001:0000d952       _SDL_Upsample_U8_2c_x2     1000e952 f    CIL library: CIL module
 0001:0000d9e5       _SDL_Downsample_U8_2c_x2   1000e9e5 f    CIL library: CIL module
 0001:0000da72       _SDL_Upsample_U8_2c_x4     1000ea72 f    CIL library: CIL module
 0001:0000db62       _SDL_Downsample_U8_2c_x4   1000eb62 f    CIL library: CIL module
 0001:0000dbf3       _SDL_Upsample_U8_4c_x2     1000ebf3 f    CIL library: CIL module
 0001:0000dcf6       _SDL_Downsample_U8_4c_x2   1000ecf6 f    CIL library: CIL module
 0001:0000ddd6       _SDL_Upsample_U8_4c_x4     1000edd6 f    CIL library: CIL module
 0001:0000df8a       _SDL_Downsample_U8_4c_x4   1000ef8a f    CIL library: CIL module
 0001:0000e06e       _SDL_Upsample_U8_6c_x2     1000f06e f    CIL library: CIL module
 0001:0000e1d2       _SDL_Downsample_U8_6c_x2   1000f1d2 f    CIL library: CIL module
 0001:0000e307       _SDL_Upsample_U8_6c_x4     1000f307 f    CIL library: CIL module
 0001:0000e571       _SDL_Downsample_U8_6c_x4   1000f571 f    CIL library: CIL module
 0001:0000e6aa       _SDL_Upsample_U8_8c_x2     1000f6aa f    CIL library: CIL module
 0001:0000e86e       _SDL_Downsample_U8_8c_x2   1000f86e f    CIL library: CIL module
 0001:0000e9f7       _SDL_Upsample_U8_8c_x4     1000f9f7 f    CIL library: CIL module
 0001:0000ed15       _SDL_Downsample_U8_8c_x4   1000fd15 f    CIL library: CIL module
 0001:0000eea2       _SDL_Upsample_S8_1c_x2     1000fea2 f    CIL library: CIL module
 0001:0000ef0d       _SDL_Downsample_S8_1c_x2   1000ff0d f    CIL library: CIL module
 0001:0000ef72       _SDL_Upsample_S8_1c_x4     1000ff72 f    CIL library: CIL module
 0001:0000f00d       _SDL_Downsample_S8_1c_x4   1001000d f    CIL library: CIL module
 0001:0000f077       _SDL_Upsample_S8_2c_x2     10010077 f    CIL library: CIL module
 0001:0000f10a       _SDL_Downsample_S8_2c_x2   1001010a f    CIL library: CIL module
 0001:0000f197       _SDL_Upsample_S8_2c_x4     10010197 f    CIL library: CIL module
 0001:0000f287       _SDL_Downsample_S8_2c_x4   10010287 f    CIL library: CIL module
 0001:0000f318       _SDL_Upsample_S8_4c_x2     10010318 f    CIL library: CIL module
 0001:0000f41b       _SDL_Downsample_S8_4c_x2   1001041b f    CIL library: CIL module
 0001:0000f4fb       _SDL_Upsample_S8_4c_x4     100104fb f    CIL library: CIL module
 0001:0000f6af       _SDL_Downsample_S8_4c_x4   100106af f    CIL library: CIL module
 0001:0000f793       _SDL_Upsample_S8_6c_x2     10010793 f    CIL library: CIL module
 0001:0000f8f7       _SDL_Downsample_S8_6c_x2   100108f7 f    CIL library: CIL module
 0001:0000fa2c       _SDL_Upsample_S8_6c_x4     10010a2c f    CIL library: CIL module
 0001:0000fc96       _SDL_Downsample_S8_6c_x4   10010c96 f    CIL library: CIL module
 0001:0000fdcf       _SDL_Upsample_S8_8c_x2     10010dcf f    CIL library: CIL module
 0001:0000ff93       _SDL_Downsample_S8_8c_x2   10010f93 f    CIL library: CIL module
 0001:0001011c       _SDL_Upsample_S8_8c_x4     1001111c f    CIL library: CIL module
 0001:0001043a       _SDL_Downsample_S8_8c_x4   1001143a f    CIL library: CIL module
 0001:000105c7       _SDL_Upsample_U16LSB_1c_x2 100115c7 f    CIL library: CIL module
 0001:00010626       _SDL_Downsample_U16LSB_1c_x2 10011626 f    CIL library: CIL module
 0001:0001067e       _SDL_Upsample_U16LSB_1c_x4 1001167e f    CIL library: CIL module
 0001:0001070a       _SDL_Downsample_U16LSB_1c_x4 1001170a f    CIL library: CIL module
 0001:00010766       _SDL_Upsample_U16LSB_2c_x2 10011766 f    CIL library: CIL module
 0001:000107f9       _SDL_Downsample_U16LSB_2c_x2 100117f9 f    CIL library: CIL module
 0001:00010876       _SDL_Upsample_U16LSB_2c_x4 10011876 f    CIL library: CIL module
 0001:00010957       _SDL_Downsample_U16LSB_2c_x4 10011957 f    CIL library: CIL module
 0001:000109d8       _SDL_Upsample_U16LSB_4c_x2 100119d8 f    CIL library: CIL module
 0001:00010acb       _SDL_Downsample_U16LSB_4c_x2 10011acb f    CIL library: CIL module
 0001:00010b8f       _SDL_Upsample_U16LSB_4c_x4 10011b8f f    CIL library: CIL module
 0001:00010ced       _SDL_Downsample_U16LSB_4c_x4 10011ced f    CIL library: CIL module
 0001:00010db5       _SDL_Upsample_U16LSB_6c_x2 10011db5 f    CIL library: CIL module
 0001:00010ee6       _SDL_Downsample_U16LSB_6c_x2 10011ee6 f    CIL library: CIL module
 0001:00010ff5       _SDL_Upsample_U16LSB_6c_x4 10011ff5 f    CIL library: CIL module
 0001:000111e7       _SDL_Downsample_U16LSB_6c_x4 100121e7 f    CIL library: CIL module
 0001:000112fa       _SDL_Upsample_U16LSB_8c_x2 100122fa f    CIL library: CIL module
 0001:0001147f       _SDL_Downsample_U16LSB_8c_x2 1001247f f    CIL library: CIL module
 0001:000115d0       _SDL_Upsample_U16LSB_8c_x4 100125d0 f    CIL library: CIL module
 0001:00011856       _SDL_Downsample_U16LSB_8c_x4 10012856 f    CIL library: CIL module
 0001:000119ab       _SDL_Upsample_S16LSB_1c_x2 100129ab f    CIL library: CIL module
 0001:00011a0a       _SDL_Downsample_S16LSB_1c_x2 10012a0a f    CIL library: CIL module
 0001:00011a62       _SDL_Upsample_S16LSB_1c_x4 10012a62 f    CIL library: CIL module
 0001:00011aee       _SDL_Downsample_S16LSB_1c_x4 10012aee f    CIL library: CIL module
 0001:00011b4a       _SDL_Upsample_S16LSB_2c_x2 10012b4a f    CIL library: CIL module
 0001:00011bdd       _SDL_Downsample_S16LSB_2c_x2 10012bdd f    CIL library: CIL module
 0001:00011c5a       _SDL_Upsample_S16LSB_2c_x4 10012c5a f    CIL library: CIL module
 0001:00011d3b       _SDL_Downsample_S16LSB_2c_x4 10012d3b f    CIL library: CIL module
 0001:00011dbc       _SDL_Upsample_S16LSB_4c_x2 10012dbc f    CIL library: CIL module
 0001:00011eaf       _SDL_Downsample_S16LSB_4c_x2 10012eaf f    CIL library: CIL module
 0001:00011f73       _SDL_Upsample_S16LSB_4c_x4 10012f73 f    CIL library: CIL module
 0001:000120d1       _SDL_Downsample_S16LSB_4c_x4 100130d1 f    CIL library: CIL module
 0001:00012199       _SDL_Upsample_S16LSB_6c_x2 10013199 f    CIL library: CIL module
 0001:000122ca       _SDL_Downsample_S16LSB_6c_x2 100132ca f    CIL library: CIL module
 0001:000123d9       _SDL_Upsample_S16LSB_6c_x4 100133d9 f    CIL library: CIL module
 0001:000125cb       _SDL_Downsample_S16LSB_6c_x4 100135cb f    CIL library: CIL module
 0001:000126de       _SDL_Upsample_S16LSB_8c_x2 100136de f    CIL library: CIL module
 0001:00012863       _SDL_Downsample_S16LSB_8c_x2 10013863 f    CIL library: CIL module
 0001:000129b4       _SDL_Upsample_S16LSB_8c_x4 100139b4 f    CIL library: CIL module
 0001:00012c3a       _SDL_Downsample_S16LSB_8c_x4 10013c3a f    CIL library: CIL module
 0001:00012d8f       _SDL_Upsample_U16MSB_1c_x2 10013d8f f    CIL library: CIL module
 0001:00012dfc       _SDL_Downsample_U16MSB_1c_x2 10013dfc f    CIL library: CIL module
 0001:00012e62       _SDL_Upsample_U16MSB_1c_x4 10013e62 f    CIL library: CIL module
 0001:00012efc       _SDL_Downsample_U16MSB_1c_x4 10013efc f    CIL library: CIL module
 0001:00012f66       _SDL_Upsample_U16MSB_2c_x2 10013f66 f    CIL library: CIL module
 0001:00013015       _SDL_Downsample_U16MSB_2c_x2 10014015 f    CIL library: CIL module
 0001:000130ae       _SDL_Upsample_U16MSB_2c_x4 100140ae f    CIL library: CIL module
 0001:000131ab       _SDL_Downsample_U16MSB_2c_x4 100141ab f    CIL library: CIL module
 0001:00013248       _SDL_Upsample_U16MSB_4c_x2 10014248 f    CIL library: CIL module
 0001:00013373       _SDL_Downsample_U16MSB_4c_x2 10014373 f    CIL library: CIL module
 0001:00013476       _SDL_Upsample_U16MSB_4c_x4 10014476 f    CIL library: CIL module
 0001:0001360c       _SDL_Downsample_U16MSB_4c_x4 1001460c f    CIL library: CIL module
 0001:00013713       _SDL_Upsample_U16MSB_6c_x2 10014713 f    CIL library: CIL module
 0001:00013898       _SDL_Downsample_U16MSB_6c_x2 10014898 f    CIL library: CIL module
 0001:000139fb       _SDL_Upsample_U16MSB_6c_x4 100149fb f    CIL library: CIL module
 0001:00013c41       _SDL_Downsample_U16MSB_6c_x4 10014c41 f    CIL library: CIL module
 0001:00013da8       _SDL_Upsample_U16MSB_8c_x2 10014da8 f    CIL library: CIL module
 0001:00013f9d       _SDL_Downsample_U16MSB_8c_x2 10014f9d f    CIL library: CIL module
 0001:0001415e       _SDL_Upsample_U16MSB_8c_x4 1001515e f    CIL library: CIL module
 0001:00014454       _SDL_Downsample_U16MSB_8c_x4 10015454 f    CIL library: CIL module
 0001:00014619       _SDL_Upsample_S16MSB_1c_x2 10015619 f    CIL library: CIL module
 0001:00014686       _SDL_Downsample_S16MSB_1c_x2 10015686 f    CIL library: CIL module
 0001:000146ec       _SDL_Upsample_S16MSB_1c_x4 100156ec f    CIL library: CIL module
 0001:00014786       _SDL_Downsample_S16MSB_1c_x4 10015786 f    CIL library: CIL module
 0001:000147f0       _SDL_Upsample_S16MSB_2c_x2 100157f0 f    CIL library: CIL module
 0001:0001489f       _SDL_Downsample_S16MSB_2c_x2 1001589f f    CIL library: CIL module
 0001:00014938       _SDL_Upsample_S16MSB_2c_x4 10015938 f    CIL library: CIL module
 0001:00014a35       _SDL_Downsample_S16MSB_2c_x4 10015a35 f    CIL library: CIL module
 0001:00014ad2       _SDL_Upsample_S16MSB_4c_x2 10015ad2 f    CIL library: CIL module
 0001:00014bfd       _SDL_Downsample_S16MSB_4c_x2 10015bfd f    CIL library: CIL module
 0001:00014d00       _SDL_Upsample_S16MSB_4c_x4 10015d00 f    CIL library: CIL module
 0001:00014e96       _SDL_Downsample_S16MSB_4c_x4 10015e96 f    CIL library: CIL module
 0001:00014f9d       _SDL_Upsample_S16MSB_6c_x2 10015f9d f    CIL library: CIL module
 0001:00015122       _SDL_Downsample_S16MSB_6c_x2 10016122 f    CIL library: CIL module
 0001:00015285       _SDL_Upsample_S16MSB_6c_x4 10016285 f    CIL library: CIL module
 0001:000154cb       _SDL_Downsample_S16MSB_6c_x4 100164cb f    CIL library: CIL module
 0001:00015632       _SDL_Upsample_S16MSB_8c_x2 10016632 f    CIL library: CIL module
 0001:00015827       _SDL_Downsample_S16MSB_8c_x2 10016827 f    CIL library: CIL module
 0001:000159dc       _SDL_Upsample_S16MSB_8c_x4 100169dc f    CIL library: CIL module
 0001:00015cd2       _SDL_Downsample_S16MSB_8c_x4 10016cd2 f    CIL library: CIL module
 0001:00015e8b       _SDL_Upsample_S32LSB_1c_x2 10016e8b f    CIL library: CIL module
 0001:00015f26       _SDL_Downsample_S32LSB_1c_x2 10016f26 f    CIL library: CIL module
 0001:00015fbf       _SDL_Upsample_S32LSB_1c_x4 10016fbf f    CIL library: CIL module
 0001:000160b2       _SDL_Downsample_S32LSB_1c_x4 100170b2 f    CIL library: CIL module
 0001:0001614f       _SDL_Upsample_S32LSB_2c_x2 1001714f f    CIL library: CIL module
 0001:00016230       _SDL_Downsample_S32LSB_2c_x2 10017230 f    CIL library: CIL module
 0001:00016311       _SDL_Upsample_S32LSB_2c_x4 10017311 f    CIL library: CIL module
 0001:0001648b       _SDL_Downsample_S32LSB_2c_x4 1001748b f    CIL library: CIL module
 0001:00016570       _SDL_Upsample_S32LSB_4c_x2 10017570 f    CIL library: CIL module
 0001:000166eb       _SDL_Downsample_S32LSB_4c_x2 100176eb f    CIL library: CIL module
 0001:00016853       _SDL_Upsample_S32LSB_4c_x4 10017853 f    CIL library: CIL module
 0001:00016ae5       _SDL_Downsample_S32LSB_4c_x4 10017ae5 f    CIL library: CIL module
 0001:00016c51       _SDL_Upsample_S32LSB_6c_x2 10017c51 f    CIL library: CIL module
 0001:00016e5e       _SDL_Downsample_S32LSB_6c_x2 10017e5e f    CIL library: CIL module
 0001:0001704a       _SDL_Upsample_S32LSB_6c_x4 1001804a f    CIL library: CIL module
 0001:000173f6       _SDL_Downsample_S32LSB_6c_x4 100183f6 f    CIL library: CIL module
 0001:000175e6       _SDL_Upsample_S32LSB_8c_x2 100185e6 f    CIL library: CIL module
 0001:000178b2       _SDL_Downsample_S32LSB_8c_x2 100188b2 f    CIL library: CIL module
 0001:00017b5b       _SDL_Upsample_S32LSB_8c_x4 10018b5b f    CIL library: CIL module
 0001:00018075       _SDL_Downsample_S32LSB_8c_x4 10019075 f    CIL library: CIL module
 0001:00018322       _SDL_Upsample_S32MSB_1c_x2 10019322 f    CIL library: CIL module
 0001:00018401       _SDL_Downsample_S32MSB_1c_x2 10019401 f    CIL library: CIL module
 0001:000184dc       _SDL_Upsample_S32MSB_1c_x4 100194dc f    CIL library: CIL module
 0001:00018612       _SDL_Downsample_S32MSB_1c_x4 10019612 f    CIL library: CIL module
 0001:000186f1       _SDL_Upsample_S32MSB_2c_x2 100196f1 f    CIL library: CIL module
 0001:00018868       _SDL_Downsample_S32MSB_2c_x2 10019868 f    CIL library: CIL module
 0001:000189d6       _SDL_Upsample_S32MSB_2c_x4 100199d6 f    CIL library: CIL module
 0001:00018bdb       _SDL_Downsample_S32MSB_2c_x4 10019bdb f    CIL library: CIL module
 0001:00018d4d       _SDL_Upsample_S32MSB_4c_x2 10019d4d f    CIL library: CIL module
 0001:00018fd2       _SDL_Downsample_S32MSB_4c_x2 10019fd2 f    CIL library: CIL module
 0001:00019241       _SDL_Upsample_S32MSB_4c_x4 1001a241 f    CIL library: CIL module
 0001:000195e0       _SDL_Downsample_S32MSB_4c_x4 1001a5e0 f    CIL library: CIL module
 0001:00019853       _SDL_Upsample_S32MSB_6c_x2 1001a853 f    CIL library: CIL module
 0001:00019bea       _SDL_Downsample_S32MSB_6c_x2 1001abea f    CIL library: CIL module
 0001:00019f55       _SDL_Upsample_S32MSB_6c_x4 1001af55 f    CIL library: CIL module
 0001:0001a492       _SDL_Downsample_S32MSB_6c_x4 1001b492 f    CIL library: CIL module
 0001:0001a801       _SDL_Upsample_S32MSB_8c_x2 1001b801 f    CIL library: CIL module
 0001:0001ace9       _SDL_Downsample_S32MSB_8c_x2 1001bce9 f    CIL library: CIL module
 0001:0001b18f       _SDL_Upsample_S32MSB_8c_x4 1001c18f f    CIL library: CIL module
 0001:0001b8bb       _SDL_Downsample_S32MSB_8c_x4 1001c8bb f    CIL library: CIL module
 0001:0001bd65       _SDL_Upsample_F32LSB_1c_x2 1001cd65 f    CIL library: CIL module
 0001:0001bdc4       _SDL_Downsample_F32LSB_1c_x2 1001cdc4 f    CIL library: CIL module
 0001:0001be1f       _SDL_Upsample_F32LSB_1c_x4 1001ce1f f    CIL library: CIL module
 0001:0001beae       _SDL_Downsample_F32LSB_1c_x4 1001ceae f    CIL library: CIL module
 0001:0001bf0d       _SDL_Upsample_F32LSB_2c_x2 1001cf0d f    CIL library: CIL module
 0001:0001bf90       _SDL_Downsample_F32LSB_2c_x2 1001cf90 f    CIL library: CIL module
 0001:0001c010       _SDL_Upsample_F32LSB_2c_x4 1001d010 f    CIL library: CIL module
 0001:0001c0d1       _SDL_Downsample_F32LSB_2c_x4 1001d0d1 f    CIL library: CIL module
 0001:0001c155       _SDL_Upsample_F32LSB_4c_x2 1001d155 f    CIL library: CIL module
 0001:0001c217       _SDL_Downsample_F32LSB_4c_x2 1001d217 f    CIL library: CIL module
 0001:0001c2c4       _SDL_Upsample_F32LSB_4c_x4 1001d2c4 f    CIL library: CIL module
 0001:0001c424       _SDL_Downsample_F32LSB_4c_x4 1001d424 f    CIL library: CIL module
 0001:0001c4d5       _SDL_Upsample_F32LSB_6c_x2 1001d4d5 f    CIL library: CIL module
 0001:0001c5ef       _SDL_Downsample_F32LSB_6c_x2 1001d5ef f    CIL library: CIL module
 0001:0001c6e2       _SDL_Upsample_F32LSB_6c_x4 1001d6e2 f    CIL library: CIL module
 0001:0001c8d2       _SDL_Downsample_F32LSB_6c_x4 1001d8d2 f    CIL library: CIL module
 0001:0001c9c9       _SDL_Upsample_F32LSB_8c_x2 1001d9c9 f    CIL library: CIL module
 0001:0001cb37       _SDL_Downsample_F32LSB_8c_x2 1001db37 f    CIL library: CIL module
 0001:0001cc74       _SDL_Upsample_F32LSB_8c_x4 1001dc74 f    CIL library: CIL module
 0001:0001cef4       _SDL_Downsample_F32LSB_8c_x4 1001def4 f    CIL library: CIL module
 0001:0001d035       _SDL_Upsample_F32MSB_1c_x2 1001e035 f    CIL library: CIL module
 0001:0001d113       _SDL_Downsample_F32MSB_1c_x2 1001e113 f    CIL library: CIL module
 0001:0001d1eb       _SDL_Upsample_F32MSB_1c_x4 1001e1eb f    CIL library: CIL module
 0001:0001d2fd       _SDL_Downsample_F32MSB_1c_x4 1001e2fd f    CIL library: CIL module
 0001:0001d3d9       _SDL_Upsample_F32MSB_2c_x2 1001e3d9 f    CIL library: CIL module
 0001:0001d541       _SDL_Downsample_F32MSB_2c_x2 1001e541 f    CIL library: CIL module
 0001:0001d6aa       _SDL_Upsample_F32MSB_2c_x4 1001e6aa f    CIL library: CIL module
 0001:0001d850       _SDL_Downsample_F32MSB_2c_x4 1001e850 f    CIL library: CIL module
 0001:0001d9bd       _SDL_Upsample_F32MSB_4c_x2 1001e9bd f    CIL library: CIL module
 0001:0001dc16       _SDL_Downsample_F32MSB_4c_x2 1001ec16 f    CIL library: CIL module
 0001:0001de55       _SDL_Upsample_F32MSB_4c_x4 1001ee55 f    CIL library: CIL module
 0001:0001e156       _SDL_Downsample_F32MSB_4c_x4 1001f156 f    CIL library: CIL module
 0001:0001e399       _SDL_Upsample_F32MSB_6c_x2 1001f399 f    CIL library: CIL module
 0001:0001e6f2       _SDL_Downsample_F32MSB_6c_x2 1001f6f2 f    CIL library: CIL module
 0001:0001ea23       _SDL_Upsample_F32MSB_6c_x4 1001fa23 f    CIL library: CIL module
 0001:0001ee74       _SDL_Downsample_F32MSB_6c_x4 1001fe74 f    CIL library: CIL module
 0001:0001f1a9       _SDL_Upsample_F32MSB_8c_x2 100201a9 f    CIL library: CIL module
 0001:0001f60f       _SDL_Downsample_F32MSB_8c_x2 1002060f f    CIL library: CIL module
 0001:0001fa3f       _SDL_Upsample_F32MSB_8c_x4 10020a3f f    CIL library: CIL module
 0001:00020025       _SDL_Downsample_F32MSB_8c_x4 10021025 f    CIL library: CIL module
 0001:00020969       _InitMS_ADPCM              10021969 f    CIL library: CIL module
 0001:00020a3d       _MS_ADPCM_nibble           10021a3d f    CIL library: CIL module
 0001:00020b15       _MS_ADPCM_decode           10021b15 f    CIL library: CIL module
 0001:00020d30       _InitIMA_ADPCM             10021d30 f    CIL library: CIL module
 0001:00020d88       _IMA_ADPCM_nibble          10021d88 f    CIL library: CIL module
 0001:00021197       _IMA_ADPCM_decode          10022197 f    CIL library: CIL module
 0001:00021613       _ReadChunk                 10022613 f    CIL library: CIL module
 0001:00021673       _CPU_haveCPUID             10022673 f    CIL library: CIL module
 0001:00021698       _CPU_getCPUIDFeatures      10022698 f    CIL library: CIL module
 0001:000216d7       _CPU_have3DNow             100226d7 f    CIL library: CIL module
 0001:00021725       _CPU_haveSSE3              10022725 f    CIL library: CIL module
 0001:0002176e       _CPU_haveSSE41             1002276e f    CIL library: CIL module
 0001:000217b9       _CPU_haveSSE42             100227b9 f    CIL library: CIL module
 0001:00021833       _SDL_GetCPUType            10022833 f    CIL library: CIL module
 0001:00021962       _SDL_GetCPUFeatures        10022962 f    CIL library: CIL module
 0001:00021cfd       _SDL_AddEvent              10022cfd f    CIL library: CIL module
 0001:00021d99       _SDL_CutEvent              10022d99 f    CIL library: CIL module
 0001:000223d2       _SaveTemplate              100233d2 f    CIL library: CIL module
 0001:000224de       _SDL_AddDollarGesture_one  100234de f    CIL library: CIL module
 0001:00022587       _SDL_AddDollarGesture      10023587 f    CIL library: CIL module
 0001:000226c1       _dollarDifference          100236c1 f    CIL library: CIL module
 0001:00022759       _bestDollarDifference      10023759 f    CIL library: CIL module
 0001:00022861       _dollarNormalize           10023861 f    CIL library: CIL module
 0001:00022b1a       _dollarRecognize           10023b1a f    CIL library: CIL module
 0001:00022c14       _SDL_GetGestureTouch       10023c14 f    CIL library: CIL module
 0001:00022ca5       _SDL_SendGestureDollar     10023ca5 f    CIL library: CIL module
 0001:00022cef       _SDL_SendDollarRecord      10023cef f    CIL library: CIL module
 0001:00023867       _SDL_UpdateMouseFocus      10024867 f    CIL library: CIL module
 0001:0002391c       _SDL_PrivateSendMouseMotion 1002491c f    CIL library: CIL module
 0001:0002409d       _SDL_HandleSIG             1002509d f    CIL library: CIL module
 0001:00024122       _SDL_GetTouchIndex         10025122 f    CIL library: CIL module
 0001:0002418e       _SDL_GetFingerIndex        1002518e f    CIL library: CIL module
 0001:000242d0       _SDL_AddFinger             100252d0 f    CIL library: CIL module
 0001:00024350       _SDL_DelFinger             10025350 f    CIL library: CIL module
 0001:000246ee       _RemovePendingResizedEvents 100256ee f    CIL library: CIL module
 0001:00024713       _RemovePendingSizeChangedEvents 10025713 f    CIL library: CIL module
 0001:00024738       _RemovePendingMoveEvents   10025738 f    CIL library: CIL module
 0001:000249d5       _windows_file_open         100259d5 f    CIL library: CIL module
 0001:00024b43       _windows_file_size         10025b43 f    CIL library: CIL module
 0001:00024b88       _windows_file_seek         10025b88 f    CIL library: CIL module
 0001:00024c22       _windows_file_read         10025c22 f    CIL library: CIL module
 0001:00024ced       _windows_file_write        10025ced f    CIL library: CIL module
 0001:00024d78       _windows_file_close        10025d78 f    CIL library: CIL module
 0001:00024dae       _stdio_size                10025dae f    CIL library: CIL module
 0001:00024e06       _stdio_seek                10025e06 f    CIL library: CIL module
 0001:00024e39       _stdio_read                10025e39 f    CIL library: CIL module
 0001:00024e78       _stdio_write               10025e78 f    CIL library: CIL module
 0001:00024eb7       _stdio_close               10025eb7 f    CIL library: CIL module
 0001:00024eed       _mem_size                  10025eed f    CIL library: CIL module
 0001:00024ef9       _mem_seek                  10025ef9 f    CIL library: CIL module
 0001:00024f4c       _mem_read                  10025f4c f    CIL library: CIL module
 0001:00024fa0       _mem_write                 10025fa0 f    CIL library: CIL module
 0001:00024fe2       _mem_writeconst            10025fe2 f    CIL library: CIL module
 0001:00024ff3       _mem_close                 10025ff3 f    CIL library: CIL module
 0001:000254c1       _ValidHaptic               100264c1 f    CIL library: CIL module
 0001:000259ad       _ValidEffect               100269ad f    CIL library: CIL module
 0001:000263f9       _SDL_PrivateGameControllerParseControllerConfigString 100273f9 f    CIL library: CIL module
 0001:00026846       _SDL_GameControllerLoadHints 10027846 f    CIL library: CIL module
 0001:00026da2       _SDL_JoystickAllowBackgroundEventsChanged 10027da2 f    CIL library: CIL module
 0001:0002721c       _SDL_PrivateJoystickShouldIgnoreEvent 1002821c f    CIL library: CIL module
 0001:000275ac       _nibble                    100285ac f    CIL library: CIL module
 0001:000277e8       _SDL_RendererEventWatch    100287e8 f    CIL library: CIL module
 0001:00027cdd       _GetClosestSupportedFormat 10028cdd f    CIL library: CIL module
 0001:000283db       _SDL_UpdateTextureYUV      100293db f    CIL library: CIL module
 0001:00028504       _SDL_UpdateTextureNative   10029504 f    CIL library: CIL module
 0001:000286a2       _SDL_UpdateTextureYUVPlanar 100296a2 f    CIL library: CIL module
 0001:000288d9       _SDL_LockTextureYUV        100298d9 f    CIL library: CIL module
 0001:00028941       _SDL_LockTextureNative     10029941 f    CIL library: CIL module
 0001:00028a34       _SDL_UnlockTextureYUV      10029a34 f    CIL library: CIL module
 0001:00028a92       _SDL_UnlockTextureNative   10029a92 f    CIL library: CIL module
 0001:00028d4e       _UpdateLogicalSize         10029d4e f    CIL library: CIL module
 0001:000293b8       _RenderDrawPointsWithRects 1002a3b8 f    CIL library: CIL module
 0001:0002952f       _RenderDrawLinesWithRects  1002a52f f    CIL library: CIL module
 0001:00029f9d       _Color16DitherYV12Mod1X    1002af9d f    CIL library: CIL module
 0001:0002a117       _Color24DitherYV12Mod1X    1002b117 f    CIL library: CIL module
 0001:0002a2c2       _Color32DitherYV12Mod1X    1002b2c2 f    CIL library: CIL module
 0001:0002a42d       _Color16DitherYV12Mod2X    1002b42d f    CIL library: CIL module
 0001:0002a5ce       _Color24DitherYV12Mod2X    1002b5ce f    CIL library: CIL module
 0001:0002a836       _Color32DitherYV12Mod2X    1002b836 f    CIL library: CIL module
 0001:0002a9ef       _Color16DitherYUY2Mod1X    1002b9ef f    CIL library: CIL module
 0001:0002aaec       _Color24DitherYUY2Mod1X    1002baec f    CIL library: CIL module
 0001:0002ac00       _Color32DitherYUY2Mod1X    1002bc00 f    CIL library: CIL module
 0001:0002acf7       _Color16DitherYUY2Mod2X    1002bcf7 f    CIL library: CIL module
 0001:0002ae02       _Color24DitherYUY2Mod2X    1002be02 f    CIL library: CIL module
 0001:0002af61       _Color32DitherYUY2Mod2X    1002bf61 f    CIL library: CIL module
 0001:0002b07b       _number_of_bits_set        1002c07b f    CIL library: CIL module
 0001:0002b099       _free_bits_at_bottom       1002c099 f    CIL library: CIL module
 0001:0002b0b7       _SDL_SW_SetupYUVDisplay    1002c0b7 f    CIL library: CIL module
 0001:0002bccd       _getlocale                 1002cccd f    CIL library: CIL module
 0001:0002c817       _DUMMY_DeleteDevice        1002d817 f    CIL library: CIL module
 0001:0002c914       _SDL_ScanLong              1002d914 f    CIL library: CIL module
 0001:0002c9ab       _SDL_ScanUnsignedLong      1002d9ab f    CIL library: CIL module
 0001:0002ca2e       _SDL_ScanUintPtrT          1002da2e f    CIL library: CIL module
 0001:0002caa4       _SDL_ScanLongLong          1002daa4 f    CIL library: CIL module
 0001:0002cb7b       _SDL_ScanUnsignedLongLong  1002db7b f    CIL library: CIL module
 0001:0002cc36       _SDL_ScanFloat             1002dc36 f    CIL library: CIL module
 0001:0002d560       _SDL_PrintString           1002e560 f    CIL library: CIL module
 0001:0002d608       _SDL_PrintLong             1002e608 f    CIL library: CIL module
 0001:0002d646       _SDL_PrintUnsignedLong     1002e646 f    CIL library: CIL module
 0001:0002d684       _SDL_PrintFloat            1002e684 f    CIL library: CIL module
 0001:0002e054       _SDL_AddTimerInternal      1002f054 f    CIL library: CIL module
 0001:0002e08a       _SDL_TimerThread           1002f08a f    CIL library: CIL module
 0001:0002e485       _SDL_SoftBlit              1002f485 f    CIL library: CIL module
 0001:0002e5b8       _SDL_ChooseBlitFunc        1002f5b8 f    CIL library: CIL module
 0001:0002e877       _BlitBto1                  1002f877 f    CIL library: CIL module
 0001:0002e935       _BlitBto2                  1002f935 f    CIL library: CIL module
 0001:0002e9c9       _BlitBto3                  1002f9c9 f    CIL library: CIL module
 0001:0002ea60       _BlitBto4                  1002fa60 f    CIL library: CIL module
 0001:0002eaf9       _BlitBto1Key               1002faf9 f    CIL library: CIL module
 0001:0002ebdf       _BlitBto2Key               1002fbdf f    CIL library: CIL module
 0001:0002ec7f       _BlitBto3Key               1002fc7f f    CIL library: CIL module
 0001:0002ed1e       _BlitBto4Key               1002fd1e f    CIL library: CIL module
 0001:0002edc1       _BlitBtoNAlpha             1002fdc1 f    CIL library: CIL module
 0001:0002f110       _BlitBtoNAlphaKey          10030110 f    CIL library: CIL module
 0001:0002f458       _Blit1to1                  10030458 f    CIL library: CIL module
 0001:0002f530       _Blit1to2                  10030530 f    CIL library: CIL module
 0001:0002f630       _Blit1to3                  10030630 f    CIL library: CIL module
 0001:0002f7c0       _Blit1to4                  100307c0 f    CIL library: CIL module
 0001:0002f8bc       _Blit1to1Key               100308bc f    CIL library: CIL module
 0001:0002fa94       _Blit1to2Key               10030a94 f    CIL library: CIL module
 0001:0002fbd4       _Blit1to3Key               10030bd4 f    CIL library: CIL module
 0001:0002fd8c       _Blit1to4Key               10030d8c f    CIL library: CIL module
 0001:0002fec4       _Blit1toNAlpha             10030ec4 f    CIL library: CIL module
 0001:00030a3b       _Blit1toNAlphaKey          10031a3b f    CIL library: CIL module
 0001:00032148       _BlitNto1SurfaceAlpha      10033148 f    CIL library: CIL module
 0001:0003293a       _BlitNto1PixelAlpha        1003393a f    CIL library: CIL module
 0001:000332c2       _BlitNto1SurfaceAlphaKey   100342c2 f    CIL library: CIL module
 0001:00033e9a       _BlitRGBtoRGBSurfaceAlpha128MMX 10034e9a f    CIL library: CIL module
 0001:00033fa7       _BlitRGBtoRGBSurfaceAlphaMMX 10034fa7 f    CIL library: CIL module
 0001:00034163       _BlitRGBtoRGBPixelAlphaMMX 10035163 f    CIL library: CIL module
 0001:000343fd       _BlitRGBtoRGBSurfaceAlpha128 100353fd f    CIL library: CIL module
 0001:00034544       _BlitRGBtoRGBSurfaceAlpha  10035544 f    CIL library: CIL module
 0001:0003472b       _BlitRGBtoRGBPixelAlpha    1003572b f    CIL library: CIL module
 0001:00034a14       _BlitRGBtoRGBPixelAlphaMMX3DNOW 10035a14 f    CIL library: CIL module
 0001:00034cd2       _Blit16to16SurfaceAlpha128 10035cd2 f    CIL library: CIL module
 0001:00034ef2       _Blit565to565SurfaceAlphaMMX 10035ef2 f    CIL library: CIL module
 0001:0003525a       _Blit555to555SurfaceAlphaMMX 1003625a f    CIL library: CIL module
 0001:000355ee       _Blit565to565SurfaceAlpha  100365ee f    CIL library: CIL module
 0001:0003576a       _Blit555to555SurfaceAlpha  1003676a f    CIL library: CIL module
 0001:000358e6       _BlitARGBto565PixelAlpha   100368e6 f    CIL library: CIL module
 0001:00035b95       _BlitARGBto555PixelAlpha   10036b95 f    CIL library: CIL module
 0001:00035e44       _BlitNtoNSurfaceAlpha      10036e44 f    CIL library: CIL module
 0001:00036c30       _BlitNtoNSurfaceAlphaKey   10037c30 f    CIL library: CIL module
 0001:000377d7       _BlitNtoNPixelAlpha        100387d7 f    CIL library: CIL module
 0001:00038b53       _SDL_Blit_RGB888_RGB888_Blend 10039b53 f    CIL library: CIL module
 0001:00038c7c       _SDL_Blit_RGB888_RGB888_Blend_Scale 10039c7c f    CIL library: CIL module
 0001:00038e18       _SDL_Blit_RGB888_RGB888_Modulate_Scale 10039e18 f    CIL library: CIL module
 0001:00038e18       _SDL_Blit_ARGB8888_RGB888_Modulate_Scale 10039e18 f    CIL library: CIL module
 0001:00038f6d       _SDL_Blit_RGB888_RGB888_Modulate_Blend 10039f6d f    CIL library: CIL module
 0001:0003918f       _SDL_Blit_RGB888_RGB888_Modulate_Blend_Scale 1003a18f f    CIL library: CIL module
 0001:0003942a       _SDL_Blit_RGB888_BGR888_Blend 1003a42a f    CIL library: CIL module
 0001:00039562       _SDL_Blit_RGB888_BGR888_Blend_Scale 1003a562 f    CIL library: CIL module
 0001:000396fe       _SDL_Blit_ARGB8888_BGR888_Modulate_Scale 1003a6fe f    CIL library: CIL module
 0001:000396fe       _SDL_Blit_RGB888_BGR888_Modulate_Scale 1003a6fe f    CIL library: CIL module
 0001:00039853       _SDL_Blit_RGB888_BGR888_Modulate_Blend 1003a853 f    CIL library: CIL module
 0001:00039a73       _SDL_Blit_RGB888_BGR888_Modulate_Blend_Scale 1003aa73 f    CIL library: CIL module
 0001:00039d0c       _SDL_Blit_RGB888_ARGB8888_Scale 1003ad0c f    CIL library: CIL module
 0001:00039dfd       _SDL_Blit_RGB888_ARGB8888_Blend 1003adfd f    CIL library: CIL module
 0001:00039f3e       _SDL_Blit_RGB888_ARGB8888_Blend_Scale 1003af3e f    CIL library: CIL module
 0001:0003a0f7       _SDL_Blit_RGB888_ARGB8888_Modulate 1003b0f7 f    CIL library: CIL module
 0001:0003a212       _SDL_Blit_RGB888_ARGB8888_Modulate_Scale 1003b212 f    CIL library: CIL module
 0001:0003a39a       _SDL_Blit_RGB888_ARGB8888_Modulate_Blend 1003b39a f    CIL library: CIL module
 0001:0003a5e4       _SDL_Blit_RGB888_ARGB8888_Modulate_Blend_Scale 1003b5e4 f    CIL library: CIL module
 0001:0003a8a7       _SDL_Blit_ARGB8888_BGR888_Scale 1003b8a7 f    CIL library: CIL module
 0001:0003a8a7       _SDL_Blit_BGR888_RGB888_Scale 1003b8a7 f    CIL library: CIL module
 0001:0003a8a7       _SDL_Blit_RGB888_BGR888_Scale 1003b8a7 f    CIL library: CIL module
 0001:0003a8a7       _SDL_Blit_ABGR8888_RGB888_Scale 1003b8a7 f    CIL library: CIL module
 0001:0003a98e       _SDL_Blit_BGR888_RGB888_Blend 1003b98e f    CIL library: CIL module
 0001:0003aab7       _SDL_Blit_BGR888_RGB888_Blend_Scale 1003bab7 f    CIL library: CIL module
 0001:0003ac53       _SDL_Blit_ABGR8888_RGB888_Modulate 1003bc53 f    CIL library: CIL module
 0001:0003ac53       _SDL_Blit_BGR888_RGB888_Modulate 1003bc53 f    CIL library: CIL module
 0001:0003ad33       _SDL_Blit_BGR888_RGB888_Modulate_Blend 1003bd33 f    CIL library: CIL module
 0001:0003af54       _SDL_Blit_BGR888_RGB888_Modulate_Blend_Scale 1003bf54 f    CIL library: CIL module
 0001:0003b1ee       _SDL_Blit_BGR888_BGR888_Blend 1003c1ee f    CIL library: CIL module
 0001:0003b326       _SDL_Blit_BGR888_BGR888_Blend_Scale 1003c326 f    CIL library: CIL module
 0001:0003b4c2       _SDL_Blit_BGR888_BGR888_Modulate 1003c4c2 f    CIL library: CIL module
 0001:0003b4c2       _SDL_Blit_ABGR8888_BGR888_Modulate 1003c4c2 f    CIL library: CIL module
 0001:0003b5a2       _SDL_Blit_BGR888_BGR888_Modulate_Blend 1003c5a2 f    CIL library: CIL module
 0001:0003b7c1       _SDL_Blit_BGR888_BGR888_Modulate_Blend_Scale 1003c7c1 f    CIL library: CIL module
 0001:0003ba59       _SDL_Blit_BGR888_ARGB8888_Scale 1003ca59 f    CIL library: CIL module
 0001:0003bb45       _SDL_Blit_BGR888_ARGB8888_Blend 1003cb45 f    CIL library: CIL module
 0001:0003bc86       _SDL_Blit_BGR888_ARGB8888_Blend_Scale 1003cc86 f    CIL library: CIL module
 0001:0003be3f       _SDL_Blit_BGR888_ARGB8888_Modulate 1003ce3f f    CIL library: CIL module
 0001:0003bf5c       _SDL_Blit_BGR888_ARGB8888_Modulate_Scale 1003cf5c f    CIL library: CIL module
 0001:0003c0e5       _SDL_Blit_BGR888_ARGB8888_Modulate_Blend 1003d0e5 f    CIL library: CIL module
 0001:0003c32e       _SDL_Blit_BGR888_ARGB8888_Modulate_Blend_Scale 1003d32e f    CIL library: CIL module
 0001:0003c5f0       _SDL_Blit_ARGB8888_RGB888_Scale 1003d5f0 f    CIL library: CIL module
 0001:0003c5f0       _SDL_Blit_ABGR8888_BGR888_Scale 1003d5f0 f    CIL library: CIL module
 0001:0003c6db       _SDL_Blit_ARGB8888_RGB888_Blend 1003d6db f    CIL library: CIL module
 0001:0003c88a       _SDL_Blit_ARGB8888_RGB888_Blend_Scale 1003d88a f    CIL library: CIL module
 0001:0003cab8       _SDL_Blit_ARGB8888_RGB888_Modulate 1003dab8 f    CIL library: CIL module
 0001:0003cab8       _SDL_Blit_RGB888_RGB888_Modulate 1003dab8 f    CIL library: CIL module
 0001:0003cb98       _SDL_Blit_ARGB8888_RGB888_Modulate_Blend 1003db98 f    CIL library: CIL module
 0001:0003cdbe       _SDL_Blit_ARGB8888_RGB888_Modulate_Blend_Scale 1003ddbe f    CIL library: CIL module
 0001:0003d05d       _SDL_Blit_ARGB8888_BGR888_Blend 1003e05d f    CIL library: CIL module
 0001:0003d20d       _SDL_Blit_ARGB8888_BGR888_Blend_Scale 1003e20d f    CIL library: CIL module
 0001:0003d435       _SDL_Blit_RGB888_BGR888_Modulate 1003e435 f    CIL library: CIL module
 0001:0003d435       _SDL_Blit_ARGB8888_BGR888_Modulate 1003e435 f    CIL library: CIL module
 0001:0003d515       _SDL_Blit_ARGB8888_BGR888_Modulate_Blend 1003e515 f    CIL library: CIL module
 0001:0003d739       _SDL_Blit_ARGB8888_BGR888_Modulate_Blend_Scale 1003e739 f    CIL library: CIL module
 0001:0003d9d6       _SDL_Blit_RGB888_RGB888_Scale 1003e9d6 f    CIL library: CIL module
 0001:0003d9d6       _SDL_Blit_ARGB8888_ARGB8888_Scale 1003e9d6 f    CIL library: CIL module
 0001:0003d9d6       _SDL_Blit_BGR888_BGR888_Scale 1003e9d6 f    CIL library: CIL module
 0001:0003da8e       _SDL_Blit_ARGB8888_ARGB8888_Blend 1003ea8e f    CIL library: CIL module
 0001:0003dc68       _SDL_Blit_ARGB8888_ARGB8888_Blend_Scale 1003ec68 f    CIL library: CIL module
 0001:0003deb8       _SDL_Blit_ARGB8888_ARGB8888_Modulate 1003eeb8 f    CIL library: CIL module
 0001:0003dfd7       _SDL_Blit_ARGB8888_ARGB8888_Modulate_Scale 1003efd7 f    CIL library: CIL module
 0001:0003e164       _SDL_Blit_ARGB8888_ARGB8888_Modulate_Blend 1003f164 f    CIL library: CIL module
 0001:0003e3b2       _SDL_Blit_ARGB8888_ARGB8888_Modulate_Blend_Scale 1003f3b2 f    CIL library: CIL module
 0001:0003e679       _SDL_Blit_BGRA8888_BGR888_Scale 1003f679 f    CIL library: CIL module
 0001:0003e679       _SDL_Blit_RGBA8888_RGB888_Scale 1003f679 f    CIL library: CIL module
 0001:0003e766       _SDL_Blit_RGBA8888_RGB888_Blend 1003f766 f    CIL library: CIL module
 0001:0003e91e       _SDL_Blit_RGBA8888_RGB888_Blend_Scale 1003f91e f    CIL library: CIL module
 0001:0003eb3f       _SDL_Blit_RGBA8888_RGB888_Modulate 1003fb3f f    CIL library: CIL module
 0001:0003ec1f       _SDL_Blit_RGBA8888_RGB888_Modulate_Scale 1003fc1f f    CIL library: CIL module
 0001:0003ed74       _SDL_Blit_RGBA8888_RGB888_Modulate_Blend 1003fd74 f    CIL library: CIL module
 0001:0003ef99       _SDL_Blit_RGBA8888_RGB888_Modulate_Blend_Scale 1003ff99 f    CIL library: CIL module
 0001:0003f239       _SDL_Blit_BGRA8888_RGB888_Scale 10040239 f    CIL library: CIL module
 0001:0003f239       _SDL_Blit_RGBA8888_BGR888_Scale 10040239 f    CIL library: CIL module
 0001:0003f322       _SDL_Blit_RGBA8888_BGR888_Blend 10040322 f    CIL library: CIL module
 0001:0003f4d9       _SDL_Blit_RGBA8888_BGR888_Blend_Scale 100404d9 f    CIL library: CIL module
 0001:0003f6fc       _SDL_Blit_RGBA8888_BGR888_Modulate 100406fc f    CIL library: CIL module
 0001:0003f7dc       _SDL_Blit_RGBA8888_BGR888_Modulate_Scale 100407dc f    CIL library: CIL module
 0001:0003f93e       _SDL_Blit_RGBA8888_BGR888_Modulate_Blend 1004093e f    CIL library: CIL module
 0001:0003fb61       _SDL_Blit_RGBA8888_BGR888_Modulate_Blend_Scale 10040b61 f    CIL library: CIL module
 0001:0003fdff       _SDL_Blit_RGBA8888_ARGB8888_Scale 10040dff f    CIL library: CIL module
 0001:0003fef0       _SDL_Blit_RGBA8888_ARGB8888_Blend 10040ef0 f    CIL library: CIL module
 0001:000400c7       _SDL_Blit_RGBA8888_ARGB8888_Blend_Scale 100410c7 f    CIL library: CIL module
 0001:00040312       _SDL_Blit_RGBA8888_ARGB8888_Modulate 10041312 f    CIL library: CIL module
 0001:0004042f       _SDL_Blit_RGBA8888_ARGB8888_Modulate_Scale 1004142f f    CIL library: CIL module
 0001:000405c7       _SDL_Blit_RGBA8888_ARGB8888_Modulate_Blend 100415c7 f    CIL library: CIL module
 0001:00040814       _SDL_Blit_RGBA8888_ARGB8888_Modulate_Blend_Scale 10041814 f    CIL library: CIL module
 0001:00040adc       _SDL_Blit_ABGR8888_RGB888_Blend 10041adc f    CIL library: CIL module
 0001:00040c8b       _SDL_Blit_ABGR8888_RGB888_Blend_Scale 10041c8b f    CIL library: CIL module
 0001:00040eb6       _SDL_Blit_ABGR8888_RGB888_Modulate_Scale 10041eb6 f    CIL library: CIL module
 0001:00040eb6       _SDL_Blit_BGR888_RGB888_Modulate_Scale 10041eb6 f    CIL library: CIL module
 0001:0004100b       _SDL_Blit_ABGR8888_RGB888_Modulate_Blend 1004200b f    CIL library: CIL module
 0001:00041230       _SDL_Blit_ABGR8888_RGB888_Modulate_Blend_Scale 10042230 f    CIL library: CIL module
 0001:000414ce       _SDL_Blit_ABGR8888_BGR888_Blend 100424ce f    CIL library: CIL module
 0001:0004167e       _SDL_Blit_ABGR8888_BGR888_Blend_Scale 1004267e f    CIL library: CIL module
 0001:000418a6       _SDL_Blit_ABGR8888_BGR888_Modulate_Scale 100428a6 f    CIL library: CIL module
 0001:000418a6       _SDL_Blit_BGR888_BGR888_Modulate_Scale 100428a6 f    CIL library: CIL module
 0001:000419fb       _SDL_Blit_ABGR8888_BGR888_Modulate_Blend 100429fb f    CIL library: CIL module
 0001:00041c1e       _SDL_Blit_ABGR8888_BGR888_Modulate_Blend_Scale 10042c1e f    CIL library: CIL module
 0001:00041eba       _SDL_Blit_ABGR8888_ARGB8888_Scale 10042eba f    CIL library: CIL module
 0001:00041fab       _SDL_Blit_ABGR8888_ARGB8888_Blend 10042fab f    CIL library: CIL module
 0001:00042185       _SDL_Blit_ABGR8888_ARGB8888_Blend_Scale 10043185 f    CIL library: CIL module
 0001:000423d5       _SDL_Blit_ABGR8888_ARGB8888_Modulate 100433d5 f    CIL library: CIL module
 0001:000424f4       _SDL_Blit_ABGR8888_ARGB8888_Modulate_Scale 100434f4 f    CIL library: CIL module
 0001:00042682       _SDL_Blit_ABGR8888_ARGB8888_Modulate_Blend 10043682 f    CIL library: CIL module
 0001:000428cf       _SDL_Blit_ABGR8888_ARGB8888_Modulate_Blend_Scale 100438cf f    CIL library: CIL module
 0001:00042b95       _SDL_Blit_BGRA8888_RGB888_Blend 10043b95 f    CIL library: CIL module
 0001:00042d41       _SDL_Blit_BGRA8888_RGB888_Blend_Scale 10043d41 f    CIL library: CIL module
 0001:00042f6a       _SDL_Blit_BGRA8888_RGB888_Modulate 10043f6a f    CIL library: CIL module
 0001:0004304a       _SDL_Blit_BGRA8888_RGB888_Modulate_Scale 1004404a f    CIL library: CIL module
 0001:000431ac       _SDL_Blit_BGRA8888_RGB888_Modulate_Blend 100441ac f    CIL library: CIL module
 0001:000433d0       _SDL_Blit_BGRA8888_RGB888_Modulate_Blend_Scale 100443d0 f    CIL library: CIL module
 0001:0004366d       _SDL_Blit_BGRA8888_BGR888_Blend 1004466d f    CIL library: CIL module
 0001:00043826       _SDL_Blit_BGRA8888_BGR888_Blend_Scale 10044826 f    CIL library: CIL module
 0001:00043a4d       _SDL_Blit_BGRA8888_BGR888_Modulate 10044a4d f    CIL library: CIL module
 0001:00043b2d       _SDL_Blit_BGRA8888_BGR888_Modulate_Scale 10044b2d f    CIL library: CIL module
 0001:00043c82       _SDL_Blit_BGRA8888_BGR888_Modulate_Blend 10044c82 f    CIL library: CIL module
 0001:00043ea4       _SDL_Blit_BGRA8888_BGR888_Modulate_Blend_Scale 10044ea4 f    CIL library: CIL module
 0001:0004413f       _SDL_Blit_BGRA8888_ARGB8888_Scale 1004513f f    CIL library: CIL module
 0001:00044230       _SDL_Blit_BGRA8888_ARGB8888_Blend 10045230 f    CIL library: CIL module
 0001:00044409       _SDL_Blit_BGRA8888_ARGB8888_Blend_Scale 10045409 f    CIL library: CIL module
 0001:00044658       _SDL_Blit_BGRA8888_ARGB8888_Modulate 10045658 f    CIL library: CIL module
 0001:00044774       _SDL_Blit_BGRA8888_ARGB8888_Modulate_Scale 10045774 f    CIL library: CIL module
 0001:00044908       _SDL_Blit_BGRA8888_ARGB8888_Modulate_Blend 10045908 f    CIL library: CIL module
 0001:00044b54       _SDL_Blit_BGRA8888_ARGB8888_Modulate_Blend_Scale 10045b54 f    CIL library: CIL module
 0001:00044e19       _SDL_memcpySSE             10045e19 f    CIL library: CIL module
 0001:00044e77       _SDL_memcpyMMX             10045e77 f    CIL library: CIL module
 0001:0004502e       _Blit_RGB888_index8        1004602e f    CIL library: CIL module
 0001:0004537e       _Blit_RGB101010_index8     1004637e f    CIL library: CIL module
 0001:000456ce       _Blit_RGB888_RGB555        100466ce f    CIL library: CIL module
 0001:000458ae       _Blit_RGB888_RGB565        100468ae f    CIL library: CIL module
 0001:00045a8e       _Blit_RGB565_32            10046a8e f    CIL library: CIL module
 0001:00045bda       _Blit_RGB565_ARGB8888      10046bda f    CIL library: CIL module
 0001:00045beb       _Blit_RGB565_ABGR8888      10046beb f    CIL library: CIL module
 0001:00045bfc       _Blit_RGB565_RGBA8888      10046bfc f    CIL library: CIL module
 0001:00045c0d       _Blit_RGB565_BGRA8888      10046c0d f    CIL library: CIL module
 0001:00045c1f       _BlitNto1                  10046c1f f    CIL library: CIL module
 0001:00047127       _Blit4to4MaskAlpha         10048127 f    CIL library: CIL module
 0001:000472e3       _BlitNtoN                  100482e3 f    CIL library: CIL module
 0001:000485b3       _BlitNtoNCopyAlpha         100495b3 f    CIL library: CIL module
 0001:000488a3       _BlitNto1Key               100498a3 f    CIL library: CIL module
 0001:00049643       _Blit2to2Key               1004a643 f    CIL library: CIL module
 0001:0004979b       _BlitNtoNKey               1004a79b f    CIL library: CIL module
 0001:0004a51b       _BlitNtoNKeyCopyAlpha      1004b51b f    CIL library: CIL module
 0001:0004bb73       _Blit2101010toN            1004cb73 f    CIL library: CIL module
 0001:0004c69c       _BlitNto2101010            1004d69c f    CIL library: CIL module
 0001:0004e3b6       _SDL_FillRect1SSE          1004f3b6 f    CIL library: CIL module
 0001:0004e459       _SDL_FillRect2SSE          1004f459 f    CIL library: CIL module
 0001:0004e534       _SDL_FillRect4SSE          1004f534 f    CIL library: CIL module
 0001:0004e5e7       _SDL_FillRect1MMX          1004f5e7 f    CIL library: CIL module
 0001:0004e694       _SDL_FillRect2MMX          1004f694 f    CIL library: CIL module
 0001:0004e776       _SDL_FillRect4MMX          1004f776 f    CIL library: CIL module
 0001:0004e830       _SDL_FillRect1             1004f830 f    CIL library: CIL module
 0001:0004e8da       _SDL_FillRect2             1004f8da f    CIL library: CIL module
 0001:0004e954       _SDL_FillRect4             1004f954 f    CIL library: CIL module
 0001:0004fb0d       _Map1to1                   10050b0d f    CIL library: CIL module
 0001:0004fba1       _Map1toN                   10050ba1 f    CIL library: CIL module
 0001:0004fd94       _MapNto1                   10050d94 f    CIL library: CIL module
 0001:00050444       _ComputeOutCode            10051444 f    CIL library: CIL module
 0001:00050822       _RLEClipBlit               10051822 f    CIL library: CIL module
 0001:0005268b       _RLEAlphaClipBlit          1005368b f    CIL library: CIL module
 0001:00052ef6       _copy_opaque_16            10053ef6 f    CIL library: CIL module
 0001:00052fbb       _uncopy_opaque_16          10053fbb f    CIL library: CIL module
 0001:00053093       _copy_transl_565           10054093 f    CIL library: CIL module
 0001:0005314e       _copy_transl_555           1005414e f    CIL library: CIL module
 0001:00053209       _uncopy_transl_16          10054209 f    CIL library: CIL module
 0001:000532e9       _copy_32                   100542e9 f    CIL library: CIL module
 0001:00053380       _uncopy_32                 10054380 f    CIL library: CIL module
 0001:00053446       _RLEAlphaSurface           10054446 f    CIL library: CIL module
 0001:0005389f       _getpix_8                  1005489f f    CIL library: CIL module
 0001:000538a7       _getpix_16                 100548a7 f    CIL library: CIL module
 0001:000538af       _getpix_24                 100548af f    CIL library: CIL module
 0001:000538c9       _getpix_32                 100548c9 f    CIL library: CIL module
 0001:000538d0       _RLEColorkeySurface        100548d0 f    CIL library: CIL module
 0001:00053c37       _UnRLEAlpha                10054c37 f    CIL library: CIL module
 0001:00053e91       _RecursivelyCalculateShapeTree 10054e91 f    CIL library: CIL module
 0001:0005426c       _copy_row1                 1005526c f    CIL library: CIL module
 0001:000542c5       _copy_row2                 100552c5 f    CIL library: CIL module
 0001:00054321       _copy_row4                 10055321 f    CIL library: CIL module
 0001:0005437c       _copy_row3                 1005537c f    CIL library: CIL module
 0001:000549e7       _SDL_ConvertColorkeyToAlpha 100559e7 f    CIL library: CIL module
 0001:00055520       _SDL_CreateSurfaceOnStack  10056520 f    CIL library: CIL module
 0001:000557a9       _ShouldUseTextureFramebuffer 100567a9 f    CIL library: CIL module
 0001:000557f6       _SDL_CreateWindowTexture   100567f6 f    CIL library: CIL module
 0001:00055a4d       _SDL_UpdateWindowTexture   10056a4d f    CIL library: CIL module
 0001:00055af4       _SDL_DestroyWindowTexture  10056af4 f    CIL library: CIL module
 0001:00055b3f       _cmpmodes                  10056b3f f    CIL library: CIL module
 0001:00055b98       _SDL_UninitializedVideo    10056b98 f    CIL library: CIL module
 0001:00055f01       _SDL_GetIndexOfDisplay     10056f01 f    CIL library: CIL module
 0001:000560da       _SDL_GetNumDisplayModesForDisplay 100570da f    CIL library: CIL module
 0001:00056292       _SDL_GetClosestDisplayModeForDisplay 10057292 f    CIL library: CIL module
 0001:00056443       _SDL_SetDisplayModeForDisplay 10057443 f    CIL library: CIL module
 0001:0005682a       _SDL_RestoreMousePosition  1005782a f    CIL library: CIL module
 0001:00056855       _SDL_UpdateFullscreenMode  10057855 f    CIL library: CIL module
 0001:00056997       _SDL_FinishWindowCreation  10057997 f    CIL library: CIL module
 0001:00057784       _SDL_CreateWindowFramebuffer 10058784 f    CIL library: CIL module
 0001:00058b1a       _SDL_MessageboxValidForDriver 10059b1a f    CIL library: CIL module
 0001:00058c79       _SDL_PrivateSubsystemRefCountIncr 10059c79 f    CIL library: CIL module
 0001:00058cef       _SDL_PrivateSubsystemRefCountDecr 10059cef f    CIL library: CIL module
 0001:00058d6f       _SDL_PrivateShouldInitSubsystem 10059d6f f    CIL library: CIL module
 0001:00058dec       _SDL_PrivateShouldQuitSubsystem 10059dec f    CIL library: CIL module
 0001:000593c6       _debug_print               1005a3c6 f    CIL library: CIL module
 0001:000593dc       _SDL_GenerateAssertionReport 1005a3dc f    CIL library: CIL module
 0001:00059461       _SDL_PromptAssertion       1005a461 f    CIL library: CIL module
 0001:000599c4       _SDL_GetErrorMsg           1005a9c4 f    CIL library: CIL module
 0001:0005a049       _SDL_LogOutput             1005b049 f    CIL library: CIL module
 0001:0005a1ce       _DSOUND_Unload             1005b1ce f    CIL library: CIL module
 0001:0005a1fb       _DSOUND_Load               1005b1fb f    CIL library: CIL module
 0001:0005a28b       _SetDSerror                1005b28b f    CIL library: CIL module
 0001:0005a3dd       _FindAllDevs@16            1005b3dd f    CIL library: CIL module
 0001:0005a424       _DSOUND_DetectDevices      1005b424 f    CIL library: CIL module
 0001:0005a442       _DSOUND_WaitDevice         1005b442 f    CIL library: CIL module
 0001:0005a538       _DSOUND_PlayDevice         1005b538 f    CIL library: CIL module
 0001:0005a560       _DSOUND_GetDeviceBuf       1005b560 f    CIL library: CIL module
 0001:0005a67e       _DSOUND_WaitDone           1005b67e f    CIL library: CIL module
 0001:0005a6c3       _DSOUND_CloseDevice        1005b6c3 f    CIL library: CIL module
 0001:0005a71c       _CreateSecondary           1005b71c f    CIL library: CIL module
 0001:0005a872       _FindDevGUID@16            1005b872 f    CIL library: CIL module
 0001:0005a8de       _DSOUND_OpenDevice         1005b8de f    CIL library: CIL module
 0001:0005aa37       _DSOUND_Deinitialize       1005ba37 f    CIL library: CIL module
 0001:0005aa3c       _DSOUND_Init               1005ba3c f    CIL library: CIL module
 0001:0005aa85       _DISKAUD_WaitDevice        1005ba85 f    CIL library: CIL module
 0001:0005aa99       _DISKAUD_PlayDevice        1005ba99 f    CIL library: CIL module
 0001:0005aac9       _DISKAUD_GetDeviceBuf      1005bac9 f    CIL library: CIL module
 0001:0005aad7       _DISKAUD_CloseDevice       1005bad7 f    CIL library: CIL module
 0001:0005ab2b       _DISKAUD_OpenDevice        1005bb2b f    CIL library: CIL module
 0001:0005ac38       _DISKAUD_Init              1005bc38 f    CIL library: CIL module
 0001:0005ac63       _DUMMYAUD_Init             1005bc63 f    CIL library: CIL module
 0001:0005ac75       _DetectWaveOutDevs         1005bc75 f    CIL library: CIL module
 0001:0005acde       _DetectWaveInDevs          1005bcde f    CIL library: CIL module
 0001:0005ad4f       _WINMM_DetectDevices       1005bd4f f    CIL library: CIL module
 0001:0005ad68       _CaptureSound@20           1005bd68 f    CIL library: CIL module
 0001:0005ad8c       _FillSound@20              1005bd8c f    CIL library: CIL module
 0001:0005adb0       _SetMMerror                1005bdb0 f    CIL library: CIL module
 0001:0005ae36       _WINMM_WaitDevice          1005be36 f    CIL library: CIL module
 0001:0005ae4c       _WINMM_GetDeviceBuf        1005be4c f    CIL library: CIL module
 0001:0005ae61       _WINMM_PlayDevice          1005be61 f    CIL library: CIL module
 0001:0005ae9a       _WINMM_WaitDone            1005be9a f    CIL library: CIL module
 0001:0005aec7       _WINMM_CloseDevice         1005bec7 f    CIL library: CIL module
 0001:0005af91       _PrepWaveFormat            1005bf91 f    CIL library: CIL module
 0001:0005b014       _WINMM_OpenDevice          1005c014 f    CIL library: CIL module
 0001:0005b372       _WINMM_Init                1005c372 f    CIL library: CIL module
 0001:0005b3f5       _XAUDIO2_DetectDevices     1005c3f5 f    CIL library: CIL module
 0001:0005b4b6       _VoiceCBOnBufferEnd@8      1005c4b6 f    CIL library: CIL module
 0001:0005b4d0       _VoiceCBOnVoiceError@12    1005c4d0 f    CIL library: CIL module
 0001:0005b4d3       _VoiceCBOnStreamEnd@4      1005c4d3 f    CIL library: CIL module
 0001:0005b4d3       _VoiceCBOnVoiceProcessPassEnd@4 1005c4d3 f    CIL library: CIL module
 0001:0005b4d6       _VoiceCBOnVoiceProcessPassStart@8 1005c4d6 f    CIL library: CIL module
 0001:0005b4d6       _VoiceCBOnBufferStart@8    1005c4d6 f    CIL library: CIL module
 0001:0005b4d6       _VoiceCBOnLoopEnd@8        1005c4d6 f    CIL library: CIL module
 0001:0005b4d9       _XAUDIO2_GetDeviceBuf      1005c4d9 f    CIL library: CIL module
 0001:0005b4e7       _XAUDIO2_PlayDevice        1005c4e7 f    CIL library: CIL module
 0001:0005b561       _XAUDIO2_WaitDevice        1005c561 f    CIL library: CIL module
 0001:0005b580       _XAUDIO2_WaitDone          1005c580 f    CIL library: CIL module
 0001:0005b5c1       _XAUDIO2_CloseDevice       1005c5c1 f    CIL library: CIL module
 0001:0005b659       _XAUDIO2_OpenDevice        1005c659 f    CIL library: CIL module
 0001:0005b99d       _XAUDIO2_Deinitialize      1005c99d f    CIL library: CIL module
 0001:0005b9a3       _XAUDIO2_Init              1005c9a3 f    CIL library: CIL module
 0001:0005bc21       _DI_SetError               1005cc21 f    CIL library: CIL module
 0001:0005bdee       _EnumHapticsCallback@8     1005cdee f    CIL library: CIL module
 0001:0005becc       _DI_EffectCallback@8       1005cecc f    CIL library: CIL module
 0001:0005bfc8       _DI_DeviceObjectCallback@8 1005cfc8 f    CIL library: CIL module
 0001:0005bffe       _SDL_SYS_HapticOpenFromInstance 1005cffe f    CIL library: CIL module
 0001:0005c080       _SDL_SYS_HapticOpenFromXInput 1005d080 f    CIL library: CIL module
 0001:0005c1b8       _SDL_SYS_HapticOpenFromDevice8 1005d1b8 f    CIL library: CIL module
 0001:0005c64e       _DIGetTriggerButton        1005d64e f    CIL library: CIL module
 0001:0005c662       _SDL_SYS_SetDirection      1005d662 f    CIL library: CIL module
 0001:0005c6fb       _SDL_SYS_ToDIEFFECT        1005d6fb f    CIL library: CIL module
 0001:0005ce92       _SDL_SYS_HapticFreeDIEFFECT 1005de92 f    CIL library: CIL module
 0001:0005cee0       _SDL_SYS_HapticEffectType  1005dee0 f    CIL library: CIL module
 0001:0005d3a1       _SDL_RunXInputHaptic       1005e3a1 f    CIL library: CIL module
 0001:0005d4eb       _SetDIerror                1005e4eb f    CIL library: CIL module
 0001:0005d501       _SDL_IsXInputDevice        1005e501 f    CIL library: CIL module
 0001:0005d695       _SDL_JoystickThread        1005e695 f    CIL library: CIL module
 0001:0005da1a       _EnumJoysticksCallback@8   1005ea1a f    CIL library: CIL module
 0001:0005db63       _AddXInputDevice           1005eb63 f    CIL library: CIL module
 0001:0005dc62       _EnumXInputDevices         1005ec62 f    CIL library: CIL module
 0001:0005e0f4       _SortDevFunc               1005f0f4 f    CIL library: CIL module
 0001:0005e10d       _SortDevObjects            1005f10d f    CIL library: CIL module
 0001:0005e181       _EnumDevObjectsCallback@8  1005f181 f    CIL library: CIL module
 0001:0005e9cb       _TranslatePOV              1005f9cb f    CIL library: CIL module
 0001:0005ea3b       _SDL_PrivateJoystickAxis_Int 1005fa3b f    CIL library: CIL module
 0001:0005ed3b       _D3D_SetError              1005fd3b f    CIL library: CIL module
 0001:0005eec5       _PixelFormatToD3DFMT       1005fec5 f    CIL library: CIL module
 0001:0005eefb       _D3D_InitRenderState       1005fefb f    CIL library: CIL module
 0001:0005f03b       _D3D_Reset                 1006003b f    CIL library: CIL module
 0001:0005f0ab       _D3D_ActivateRenderer      100600ab f    CIL library: CIL module
 0001:0005f165       _D3D_CreateRenderer        10060165 f    CIL library: CIL module
 0001:0005f947       _D3D_WindowEvent           10060947 f    CIL library: CIL module
 0001:0005f963       _D3D_CreateTexture         10060963 f    CIL library: CIL module
 0001:0005fab3       _D3D_UpdateTextureInternal 10060ab3 f    CIL library: CIL module
 0001:0005fb8d       _D3D_UpdateTexture         10060b8d f    CIL library: CIL module
 0001:0005fcc7       _D3D_UpdateTextureYUV      10060cc7 f    CIL library: CIL module
 0001:0005fd97       _D3D_LockTexture           10060d97 f    CIL library: CIL module
 0001:0005feb4       _D3D_UnlockTexture         10060eb4 f    CIL library: CIL module
 0001:0005ff36       _D3D_SetRenderTarget       10060f36 f    CIL library: CIL module
 0001:0005ffb5       _D3D_UpdateViewport        10060fb5 f    CIL library: CIL module
 0001:00060086       _D3D_UpdateClipRect        10061086 f    CIL library: CIL module
 0001:00060118       _D3D_RenderClear           10061118 f    CIL library: CIL module
 0001:0006027b       _D3D_SetBlendMode          1006127b f    CIL library: CIL module
 0001:00060372       _D3D_RenderDrawPoints      10061372 f    CIL library: CIL module
 0001:0006045b       _D3D_RenderDrawLines       1006145b f    CIL library: CIL module
 0001:000605a0       _D3D_RenderFillRects       100615a0 f    CIL library: CIL module
 0001:000606f0       _D3D_UpdateTextureScaleMode 100616f0 f    CIL library: CIL module
 0001:00060733       _D3D_RenderCopy            10061733 f    CIL library: CIL module
 0001:0006095d       _D3D_RenderCopyEx          1006195d f    CIL library: CIL module
 0001:00060cd3       _D3D_RenderReadPixels      10061cd3 f    CIL library: CIL module
 0001:00060e6d       _D3D_RenderPresent         10061e6d f    CIL library: CIL module
 0001:00060ed4       _D3D_DestroyTexture        10061ed4 f    CIL library: CIL module
 0001:00060f24       _D3D_DestroyRenderer       10061f24 f    CIL library: CIL module
 0001:00060fda       _GL_LoadFunctions          10061fda f    CIL library: CIL module
 0001:00061402       _GL_ActivateRenderer       10062402 f    CIL library: CIL module
 0001:0006148d       _GL_ResetState             1006248d f    CIL library: CIL module
 0001:00061647       _GL_HandleDebugMessage@28  10062647 f    CIL library: CIL module
 0001:000616d2       _GL_GetFBO                 100626d2 f    CIL library: CIL module
 0001:00061729       _GL_CreateRenderer         10062729 f    CIL library: CIL module
 0001:00061a9f       _GL_WindowEvent            10062a9f f    CIL library: CIL module
 0001:00061aba       _GL_GetOutputSize          10062aba f    CIL library: CIL module
 0001:00061ad7       _GL_CreateTexture          10062ad7 f    CIL library: CIL module
 0001:000624ea       _GL_UpdateTexture          100634ea f    CIL library: CIL module
 0001:000627ed       _GL_UpdateTextureYUV       100637ed f    CIL library: CIL module
 0001:00062a70       _GL_LockTexture            10063a70 f    CIL library: CIL module
 0001:00062ae7       _GL_UnlockTexture          10063ae7 f    CIL library: CIL module
 0001:00062b57       _GL_SetRenderTarget        10063b57 f    CIL library: CIL module
 0001:00062bc6       _GL_UpdateViewport         10063bc6 f    CIL library: CIL module
 0001:00062df9       _GL_UpdateClipRect         10063df9 f    CIL library: CIL module
 0001:00062e4f       _GL_SetShader              10063e4f f    CIL library: CIL module
 0001:00062e6e       _GL_SetColor               10063e6e f    CIL library: CIL module
 0001:00062ef2       _GL_SetBlendMode           10063ef2 f    CIL library: CIL module
 0001:00062fce       _GL_SetDrawingState        10063fce f    CIL library: CIL module
 0001:00063019       _GL_RenderClear            10064019 f    CIL library: CIL module
 0001:000630ad       _GL_RenderDrawPoints       100640ad f    CIL library: CIL module
 0001:00063126       _GL_RenderDrawLines        10064126 f    CIL library: CIL module
 0001:00063357       _GL_RenderFillRects        10064357 f    CIL library: CIL module
 0001:00063536       _GL_RenderCopy             10064536 f    CIL library: CIL module
 0001:000638a6       _GL_RenderCopyEx           100648a6 f    CIL library: CIL module
 0001:00063cfa       _GL_RenderReadPixels       10064cfa f    CIL library: CIL module
 0001:00063fbb       _GL_RenderPresent          10064fbb f    CIL library: CIL module
 0001:00063fd5       _GL_DestroyTexture         10064fd5 f    CIL library: CIL module
 0001:0006402d       _GL_DestroyRenderer        1006502d f    CIL library: CIL module
 0001:00064272       _GL_BindTexture            10065272 f    CIL library: CIL module
 0001:000642f0       _GL_UnbindTexture          100652f0 f    CIL library: CIL module
 0001:00064346       _CompileShader             10065346 f    CIL library: CIL module
 0001:000643c4       _CompileShaderProgram      100653c4 f    CIL library: CIL module
 0001:000646aa       _SDL_BlendFillRect_RGB555  100656aa f    CIL library: CIL module
 0001:00064ff6       _SDL_BlendFillRect_RGB565  10065ff6 f    CIL library: CIL module
 0001:0006594b       _SDL_BlendFillRect_RGB888  1006694b f    CIL library: CIL module
 0001:00065f27       _SDL_BlendFillRect_ARGB8888 10066f27 f    CIL library: CIL module
 0001:00066602       _SDL_BlendFillRect_RGB     10067602 f    CIL library: CIL module
 0001:00067f17       _SDL_BlendFillRect_RGBA    10068f17 f    CIL library: CIL module
 0001:00068f29       _SDL_BlendLine_RGB2        10069f29 f    CIL library: CIL module
 0001:0006a343       _SDL_BlendLine_RGB555      1006b343 f    CIL library: CIL module
 0001:0006b31c       _SDL_BlendLine_RGB565      1006c31c f    CIL library: CIL module
 0001:0006c2e4       _SDL_BlendLine_RGB4        1006d2e4 f    CIL library: CIL module
 0001:0006d6ea       _SDL_BlendLine_RGBA4       1006e6ea f    CIL library: CIL module
 0001:0006ed2e       _SDL_BlendLine_RGB888      1006fd2e f    CIL library: CIL module
 0001:0006f986       _SDL_BlendLine_ARGB8888    10070986 f    CIL library: CIL module
 0001:000706c7       _SDL_CalculateBlendLineFunc 100716c7 f    CIL library: CIL module
 0001:0007081b       _SDL_BlendPoint_RGB555     1007181b f    CIL library: CIL module
 0001:00070a3d       _SDL_BlendPoint_RGB565     10071a3d f    CIL library: CIL module
 0001:00070c70       _SDL_BlendPoint_RGB888     10071c70 f    CIL library: CIL module
 0001:00070dce       _SDL_BlendPoint_ARGB8888   10071dce f    CIL library: CIL module
 0001:00070f71       _SDL_BlendPoint_RGB        10071f71 f    CIL library: CIL module
 0001:0007152e       _SDL_BlendPoint_RGBA       1007252e f    CIL library: CIL module
 0001:00071b92       _SDL_DrawLine1             10072b92 f    CIL library: CIL module
 0001:00071d9c       _SDL_DrawLine2             10072d9c f    CIL library: CIL module
 0001:000721be       _SDL_DrawLine4             100731be f    CIL library: CIL module
 0001:000725d4       _SDL_CalculateDrawLineFunc 100735d4 f    CIL library: CIL module
 0001:00072849       _SW_ActivateRenderer       10073849 f    CIL library: CIL module
 0001:0007299a       _SW_CreateRenderer         1007399a f    CIL library: CIL module
 0001:000729ae       _SW_WindowEvent            100739ae f    CIL library: CIL module
 0001:000729ca       _SW_GetOutputSize          100739ca f    CIL library: CIL module
 0001:00072a05       _SW_CreateTexture          10073a05 f    CIL library: CIL module
 0001:00072aac       _SW_SetTextureColorMod     10073aac f    CIL library: CIL module
 0001:00072acc       _SW_SetTextureAlphaMod     10073acc f    CIL library: CIL module
 0001:00072ae1       _SW_SetTextureBlendMode    10073ae1 f    CIL library: CIL module
 0001:00072af4       _SW_UpdateTexture          10073af4 f    CIL library: CIL module
 0001:00072b79       _SW_LockTexture            10073b79 f    CIL library: CIL module
 0001:00072bac       _SW_SetRenderTarget        10073bac f    CIL library: CIL module
 0001:00072bcb       _SW_UpdateViewport         10073bcb f    CIL library: CIL module
 0001:00072bed       _SW_UpdateClipRect         10073bed f    CIL library: CIL module
 0001:00072c21       _SW_RenderClear            10073c21 f    CIL library: CIL module
 0001:00072c99       _SW_RenderDrawPoints       10073c99 f    CIL library: CIL module
 0001:00072df8       _SW_RenderDrawLines        10073df8 f    CIL library: CIL module
 0001:00072f5b       _SW_RenderFillRects        10073f5b f    CIL library: CIL module
 0001:0007312f       _SW_RenderCopy             1007412f f    CIL library: CIL module
 0001:000731fe       _SW_RenderCopyEx           100741fe f    CIL library: CIL module
 0001:00073600       _SW_RenderReadPixels       10074600 f    CIL library: CIL module
 0001:000736c5       _SW_RenderPresent          100746c5 f    CIL library: CIL module
 0001:000736db       _SW_DestroyTexture         100746db f    CIL library: CIL module
 0001:000736e9       _SW_DestroyRenderer        100746e9 f    CIL library: CIL module
 0001:00073705       __colorkey                 10074705 f    CIL library: CIL module
 0001:00073a45       __transformSurfaceRGBA     10074a45 f    CIL library: CIL module
 0001:00073e08       _transformSurfaceY         10074e08 f    CIL library: CIL module
 0001:00074344       _RunThread                 10075344 f    CIL library: CIL module
 0001:0007436a       _RunThreadViaCreateThread@4 1007536a f    CIL library: CIL module
 0001:0007436a       _RunThreadViaBeginThreadEx@4 1007536a f    CIL library: CIL module
 0001:00074696       _timeSetPeriod             10075696 f    CIL library: CIL module
 0001:000746bc       _SDL_TimerResolutionChanged 100756bc f    CIL library: CIL module
 0001:00074956       _DUMMY_Available           10075956 f    CIL library: CIL module
 0001:0007497b       _DUMMY_CreateDevice        1007597b f    CIL library: CIL module
 0001:000749e0       _DUMMY_VideoInit           100759e0 f    CIL library: CIL module
 0001:00074a60       _DUMMY_SetDisplayMode      10075a60 f    CIL library: CIL module
 0001:00074a60       _DUMMYAUD_OpenDevice       10075a60 f    CIL library: CIL module
 0001:00074a60       _SDL_AudioGetDeviceBuf_Default 10075a60 f    CIL library: CIL module
 0001:00074c72       _WindowsScanCodeToSDLScanCode 10075c72 f    CIL library: CIL module
 0001:000764e4       _IME_Init                  100774e4 f    CIL library: CIL module
 0001:0007660e       _IME_Enable                1007760e f    CIL library: CIL module
 0001:0007664d       _IME_Disable               1007764d f    CIL library: CIL module
 0001:00076676       _IME_GetReadingString      10077676 f    CIL library: CIL module
 0001:00076858       _IME_InputLangChanged      10077858 f    CIL library: CIL module
 0001:000768a9       _IME_GetId                 100778a9 f    CIL library: CIL module
 0001:00076b1c       _IME_SetupAPI              10077b1c f    CIL library: CIL module
 0001:00076bb8       _IME_UpdateInputLocale     10077bb8 f    CIL library: CIL module
 0001:00076c1e       _IME_ClearComposition      10077c1e f    CIL library: CIL module
 0001:00076c7e       _IME_GetCompositionString  10077c7e f    CIL library: CIL module
 0001:00076cf9       _IME_SendInputEvent        10077cf9 f    CIL library: CIL module
 0001:00076d3d       _IME_SendEditingEvent      10077d3d f    CIL library: CIL module
 0001:00076df5       _IME_AddCandidate          10077df5 f    CIL library: CIL module
 0001:00076e70       _IME_GetCandidateList      10077e70 f    CIL library: CIL module
 0001:00076fe4       _IME_ShowCandidateList     10077fe4 f    CIL library: CIL module
 0001:00076ffd       _IME_HideCandidateList     10077ffd f    CIL library: CIL module
 0001:00077243       _UILess_GetCandidateList   10078243 f    CIL library: CIL module
 0001:000776c6       _UILess_EnableUIUpdates    100786c6 f    CIL library: CIL module
 0001:0007771a       _UILess_DisableUIUpdates   1007871a f    CIL library: CIL module
 0001:00077768       _UILess_SetupSinks         10078768 f    CIL library: CIL module
 0001:00077872       _UILess_ReleaseSinks       10078872 f    CIL library: CIL module
 0001:00077913       _MessageBoxDialogProc      10078913 f    CIL library: CIL module
 0001:00077934       _ExpandDialogSpace         10078934 f    CIL library: CIL module
 0001:00077983       _AddDialogData             10078983 f    CIL library: CIL module
 0001:000779af       _AddDialogString           100789af f    CIL library: CIL module
 0001:00077a15       _Vec2ToDLU                 10078a15 f    CIL library: CIL module
 0001:00077a46       _AddDialogControl          10078a46 f    CIL library: CIL module
 0001:00077b28       _FreeDialogData            10078b28 f    CIL library: CIL module
 0001:00077b3b       _CreateDialogData          10078b3b f    CIL library: CIL module
 0001:00077eda       _WIN_GetDisplayMode        10078eda f    CIL library: CIL module
 0001:00078083       _WIN_AddDisplay            10079083 f    CIL library: CIL module
 0001:000783b7       _WIN_CreateCursor          100793b7 f    CIL library: CIL module
 0001:00078530       _WIN_CreateSystemCursor    10079530 f    CIL library: CIL module
 0001:000785f4       _WIN_FreeCursor            100795f4 f    CIL library: CIL module
 0001:0007860c       _WIN_ShowCursor            1007960c f    CIL library: CIL module
 0001:00078633       _WIN_WarpMouse             10079633 f    CIL library: CIL module
 0001:00078666       _WIN_SetRelativeMouseMode  10079666 f    CIL library: CIL module
 0001:000788f2       _WIN_GL_SetupPixelFormat   100798f2 f    CIL library: CIL module
 0001:000789c0       _WIN_GL_ChoosePixelFormat  100799c0 f    CIL library: CIL module
 0001:00078b6d       _HasExtension              10079b6d f    CIL library: CIL module
 0001:00078bd7       _WIN_GL_InitExtensions     10079bd7 f    CIL library: CIL module
 0001:00078ccc       _WIN_GL_ChoosePixelFormatARB 10079ccc f    CIL library: CIL module
 0001:00078da8       _WIN_GL_SetupWindowInternal 10079da8 f    CIL library: CIL module
 0001:000793ba       _WIN_Available             1007a3ba f    CIL library: CIL module
 0001:000793be       _WIN_DeleteDevice          1007a3be f    CIL library: CIL module
 0001:00079443       _WIN_CreateDevice          1007a443 f    CIL library: CIL module
 0001:00079663       _WIN_VideoInit             1007a663 f    CIL library: CIL module
 0001:00079686       _WIN_VideoQuit             1007a686 f    CIL library: CIL module
 0001:000797c6       _GetWindowStyle            1007a7c6 f    CIL library: CIL module
 0001:000797f4       _WIN_SetWindowPositionInternal 1007a7f4 f    CIL library: CIL module
 0001:00079899       _SetupWindowData           1007a899 f    CIL library: CIL module
 0001:0007a1e6       _pre_c_init                1007b1e6 f   MSVCRT:crtdll.obj
 0001:0007a45b       ___DllMainCRTStartup       1007b45b f   MSVCRT:crtdll.obj
 0001:0007ae9b       _has_osfxsr_set            1007be9b f   MSVCRT:cpu_disp.obj

 Exports

  ordinal    name

        1    _SDL_AddEventWatch
               exported name: SDL_AddEventWatch
        2    _SDL_AddHintCallback
               exported name: SDL_AddHintCallback
        3    _SDL_AddTimer
               exported name: SDL_AddTimer
        4    _SDL_AllocFormat
               exported name: SDL_AllocFormat
        5    _SDL_AllocPalette
               exported name: SDL_AllocPalette
        6    _SDL_AllocRW
               exported name: SDL_AllocRW
        7    _SDL_AtomicCAS
               exported name: SDL_AtomicCAS
        8    _SDL_AtomicCASPtr
               exported name: SDL_AtomicCASPtr
        9    _SDL_AtomicLock
               exported name: SDL_AtomicLock
       10    _SDL_AtomicTryLock
               exported name: SDL_AtomicTryLock
       11    _SDL_AtomicUnlock
               exported name: SDL_AtomicUnlock
       12    _SDL_AudioInit
               exported name: SDL_AudioInit
       13    _SDL_AudioQuit
               exported name: SDL_AudioQuit
       14    _SDL_BuildAudioCVT
               exported name: SDL_BuildAudioCVT
       15    _SDL_CalculateGammaRamp
               exported name: SDL_CalculateGammaRamp
       16    _SDL_ClearError
               exported name: SDL_ClearError
       17    _SDL_ClearHints
               exported name: SDL_ClearHints
       18    _SDL_CloseAudio
               exported name: SDL_CloseAudio
       19    _SDL_CloseAudioDevice
               exported name: SDL_CloseAudioDevice
       20    _SDL_CondBroadcast
               exported name: SDL_CondBroadcast
       21    _SDL_CondSignal
               exported name: SDL_CondSignal
       22    _SDL_CondWait
               exported name: SDL_CondWait
       23    _SDL_CondWaitTimeout
               exported name: SDL_CondWaitTimeout
       24    _SDL_ConvertAudio
               exported name: SDL_ConvertAudio
       25    _SDL_ConvertPixels
               exported name: SDL_ConvertPixels
       26    _SDL_ConvertSurface
               exported name: SDL_ConvertSurface
       27    _SDL_ConvertSurfaceFormat
               exported name: SDL_ConvertSurfaceFormat
       28    _SDL_CreateColorCursor
               exported name: SDL_CreateColorCursor
       29    _SDL_CreateCond
               exported name: SDL_CreateCond
       30    _SDL_CreateCursor
               exported name: SDL_CreateCursor
       31    _SDL_CreateMutex
               exported name: SDL_CreateMutex
       32    _SDL_CreateRGBSurface
               exported name: SDL_CreateRGBSurface
       33    _SDL_CreateRGBSurfaceFrom
               exported name: SDL_CreateRGBSurfaceFrom
       34    _SDL_CreateRenderer
               exported name: SDL_CreateRenderer
       35    _SDL_CreateSemaphore
               exported name: SDL_CreateSemaphore
       36    _SDL_CreateShapedWindow
               exported name: SDL_CreateShapedWindow
       37    _SDL_CreateSoftwareRenderer
               exported name: SDL_CreateSoftwareRenderer
       38    _SDL_CreateSystemCursor
               exported name: SDL_CreateSystemCursor
       39    _SDL_CreateTexture
               exported name: SDL_CreateTexture
       40    _SDL_CreateTextureFromSurface
               exported name: SDL_CreateTextureFromSurface
       41    _SDL_CreateThread
               exported name: SDL_CreateThread
       42    _SDL_CreateWindow
               exported name: SDL_CreateWindow
       43    _SDL_CreateWindowAndRenderer
               exported name: SDL_CreateWindowAndRenderer
       44    _SDL_CreateWindowFrom
               exported name: SDL_CreateWindowFrom
       45    _SDL_DelEventWatch
               exported name: SDL_DelEventWatch
       46    _SDL_DelHintCallback
               exported name: SDL_DelHintCallback
       47    _SDL_Delay
               exported name: SDL_Delay
       48    _SDL_DestroyCond
               exported name: SDL_DestroyCond
       49    _SDL_DestroyMutex
               exported name: SDL_DestroyMutex
       50    _SDL_DestroyRenderer
               exported name: SDL_DestroyRenderer
       51    _SDL_DestroySemaphore
               exported name: SDL_DestroySemaphore
       52    _SDL_DestroyTexture
               exported name: SDL_DestroyTexture
       53    _SDL_DestroyWindow
               exported name: SDL_DestroyWindow
       54    _SDL_Direct3D9GetAdapterIndex
               exported name: SDL_Direct3D9GetAdapterIndex
       55    _SDL_DisableScreenSaver
               exported name: SDL_DisableScreenSaver
       56    _SDL_EnableScreenSaver
               exported name: SDL_EnableScreenSaver
       57    _SDL_EnclosePoints
               exported name: SDL_EnclosePoints
       58    _SDL_Error
               exported name: SDL_Error
       59    _SDL_EventState
               exported name: SDL_EventState
       60    _SDL_FillRect
               exported name: SDL_FillRect
       61    _SDL_FillRects
               exported name: SDL_FillRects
       62    _SDL_FilterEvents
               exported name: SDL_FilterEvents
       63    _SDL_FlushEvent
               exported name: SDL_FlushEvent
       64    _SDL_FlushEvents
               exported name: SDL_FlushEvents
       65    _SDL_FreeCursor
               exported name: SDL_FreeCursor
       66    _SDL_FreeFormat
               exported name: SDL_FreeFormat
       67    _SDL_FreePalette
               exported name: SDL_FreePalette
       68    _SDL_FreeRW
               exported name: SDL_FreeRW
       69    _SDL_FreeSurface
               exported name: SDL_FreeSurface
       70    _SDL_FreeWAV
               exported name: SDL_FreeWAV
       71    _SDL_GL_BindTexture
               exported name: SDL_GL_BindTexture
       72    _SDL_GL_CreateContext
               exported name: SDL_GL_CreateContext
       73    _SDL_GL_DeleteContext
               exported name: SDL_GL_DeleteContext
       74    _SDL_GL_ExtensionSupported
               exported name: SDL_GL_ExtensionSupported
       75    _SDL_GL_GetAttribute
               exported name: SDL_GL_GetAttribute
       76    _SDL_GL_GetCurrentContext
               exported name: SDL_GL_GetCurrentContext
       77    _SDL_GL_GetCurrentWindow
               exported name: SDL_GL_GetCurrentWindow
       78    _SDL_GL_GetDrawableSize
               exported name: SDL_GL_GetDrawableSize
       79    _SDL_GL_GetProcAddress
               exported name: SDL_GL_GetProcAddress
       80    _SDL_GL_GetSwapInterval
               exported name: SDL_GL_GetSwapInterval
       81    _SDL_GL_LoadLibrary
               exported name: SDL_GL_LoadLibrary
       82    _SDL_GL_MakeCurrent
               exported name: SDL_GL_MakeCurrent
       83    _SDL_GL_SetAttribute
               exported name: SDL_GL_SetAttribute
       84    _SDL_GL_SetSwapInterval
               exported name: SDL_GL_SetSwapInterval
       85    _SDL_GL_SwapWindow
               exported name: SDL_GL_SwapWindow
       86    _SDL_GL_UnbindTexture
               exported name: SDL_GL_UnbindTexture
       87    _SDL_GL_UnloadLibrary
               exported name: SDL_GL_UnloadLibrary
       88    _SDL_GameControllerAddMapping
               exported name: SDL_GameControllerAddMapping
       89    _SDL_GameControllerClose
               exported name: SDL_GameControllerClose
       90    _SDL_GameControllerEventState
               exported name: SDL_GameControllerEventState
       91    _SDL_GameControllerGetAttached
               exported name: SDL_GameControllerGetAttached
       92    _SDL_GameControllerGetAxis
               exported name: SDL_GameControllerGetAxis
       93    _SDL_GameControllerGetAxisFromString
               exported name: SDL_GameControllerGetAxisFromString
       94    _SDL_GameControllerGetBindForAxis
               exported name: SDL_GameControllerGetBindForAxis
       95    _SDL_GameControllerGetBindForButton
               exported name: SDL_GameControllerGetBindForButton
       96    _SDL_GameControllerGetButton
               exported name: SDL_GameControllerGetButton
       97    _SDL_GameControllerGetButtonFromString
               exported name: SDL_GameControllerGetButtonFromString
       98    _SDL_GameControllerGetJoystick
               exported name: SDL_GameControllerGetJoystick
       99    _SDL_GameControllerGetStringForAxis
               exported name: SDL_GameControllerGetStringForAxis
      100    _SDL_GameControllerGetStringForButton
               exported name: SDL_GameControllerGetStringForButton
      101    _SDL_GameControllerMapping
               exported name: SDL_GameControllerMapping
      102    _SDL_GameControllerMappingForGUID
               exported name: SDL_GameControllerMappingForGUID
      103    _SDL_GameControllerName
               exported name: SDL_GameControllerName
      104    _SDL_GameControllerNameForIndex
               exported name: SDL_GameControllerNameForIndex
      105    _SDL_GameControllerOpen
               exported name: SDL_GameControllerOpen
      106    _SDL_GameControllerUpdate
               exported name: SDL_GameControllerUpdate
      107    _SDL_GetAssertionReport
               exported name: SDL_GetAssertionReport
      108    _SDL_GetAudioDeviceName
               exported name: SDL_GetAudioDeviceName
      109    _SDL_GetAudioDeviceStatus
               exported name: SDL_GetAudioDeviceStatus
      110    _SDL_GetAudioDriver
               exported name: SDL_GetAudioDriver
      111    _SDL_GetAudioStatus
               exported name: SDL_GetAudioStatus
      112    _SDL_GetBasePath
               exported name: SDL_GetBasePath
      113    _SDL_GetCPUCacheLineSize
               exported name: SDL_GetCPUCacheLineSize
      114    _SDL_GetCPUCount
               exported name: SDL_GetCPUCount
      115    _SDL_GetClipRect
               exported name: SDL_GetClipRect
      116    _SDL_GetClipboardText
               exported name: SDL_GetClipboardText
      117    _SDL_GetClosestDisplayMode
               exported name: SDL_GetClosestDisplayMode
      118    _SDL_GetColorKey
               exported name: SDL_GetColorKey
      119    _SDL_GetCurrentAudioDriver
               exported name: SDL_GetCurrentAudioDriver
      120    _SDL_GetCurrentDisplayMode
               exported name: SDL_GetCurrentDisplayMode
      121    _SDL_GetCurrentVideoDriver
               exported name: SDL_GetCurrentVideoDriver
      122    _SDL_GetCursor
               exported name: SDL_GetCursor
      123    _SDL_GetDefaultCursor
               exported name: SDL_GetDefaultCursor
      124    _SDL_GetDesktopDisplayMode
               exported name: SDL_GetDesktopDisplayMode
      125    _SDL_GetDisplayBounds
               exported name: SDL_GetDisplayBounds
      126    _SDL_GetDisplayMode
               exported name: SDL_GetDisplayMode
      127    _SDL_GetDisplayName
               exported name: SDL_GetDisplayName
      128    _SDL_GetError
               exported name: SDL_GetError
      129    _SDL_GetEventFilter
               exported name: SDL_GetEventFilter
      130    _SDL_GetHint
               exported name: SDL_GetHint
      131    _SDL_GetKeyFromName
               exported name: SDL_GetKeyFromName
      132    _SDL_GetKeyFromScancode
               exported name: SDL_GetKeyFromScancode
      133    _SDL_GetKeyName
               exported name: SDL_GetKeyName
      134    _SDL_GetKeyboardFocus
               exported name: SDL_GetKeyboardFocus
      135    _SDL_GetKeyboardState
               exported name: SDL_GetKeyboardState
      136    _SDL_GetModState
               exported name: SDL_GetModState
      137    _SDL_GetMouseFocus
               exported name: SDL_GetMouseFocus
      138    _SDL_GetMouseState
               exported name: SDL_GetMouseState
      139    _SDL_GetNumAudioDevices
               exported name: SDL_GetNumAudioDevices
      140    _SDL_GetNumAudioDrivers
               exported name: SDL_GetNumAudioDrivers
      141    _SDL_GetNumDisplayModes
               exported name: SDL_GetNumDisplayModes
      142    _SDL_GetNumRenderDrivers
               exported name: SDL_GetNumRenderDrivers
      143    _SDL_GetNumTouchDevices
               exported name: SDL_GetNumTouchDevices
      144    _SDL_GetNumTouchFingers
               exported name: SDL_GetNumTouchFingers
      145    _SDL_GetNumVideoDisplays
               exported name: SDL_GetNumVideoDisplays
      146    _SDL_GetNumVideoDrivers
               exported name: SDL_GetNumVideoDrivers
      147    _SDL_GetPerformanceCounter
               exported name: SDL_GetPerformanceCounter
      148    _SDL_GetPerformanceFrequency
               exported name: SDL_GetPerformanceFrequency
      149    _SDL_GetPixelFormatName
               exported name: SDL_GetPixelFormatName
      150    _SDL_GetPlatform
               exported name: SDL_GetPlatform
      151    _SDL_GetPowerInfo
               exported name: SDL_GetPowerInfo
      152    _SDL_GetPrefPath
               exported name: SDL_GetPrefPath
      153    _SDL_GetRGB
               exported name: SDL_GetRGB
      154    _SDL_GetRGBA
               exported name: SDL_GetRGBA
      155    _SDL_GetRelativeMouseMode
               exported name: SDL_GetRelativeMouseMode
      156    _SDL_GetRelativeMouseState
               exported name: SDL_GetRelativeMouseState
      157    _SDL_GetRenderDrawBlendMode
               exported name: SDL_GetRenderDrawBlendMode
      158    _SDL_GetRenderDrawColor
               exported name: SDL_GetRenderDrawColor
      159    _SDL_GetRenderDriverInfo
               exported name: SDL_GetRenderDriverInfo
      160    _SDL_GetRenderTarget
               exported name: SDL_GetRenderTarget
      161    _SDL_GetRenderer
               exported name: SDL_GetRenderer
      162    _SDL_GetRendererInfo
               exported name: SDL_GetRendererInfo
      163    _SDL_GetRendererOutputSize
               exported name: SDL_GetRendererOutputSize
      164    _SDL_GetRevision
               exported name: SDL_GetRevision
      165    _SDL_GetRevisionNumber
               exported name: SDL_GetRevisionNumber
      166    _SDL_GetScancodeFromKey
               exported name: SDL_GetScancodeFromKey
      167    _SDL_GetScancodeFromName
               exported name: SDL_GetScancodeFromName
      168    _SDL_GetScancodeName
               exported name: SDL_GetScancodeName
      169    _SDL_GetShapedWindowMode
               exported name: SDL_GetShapedWindowMode
      170    _SDL_GetSurfaceAlphaMod
               exported name: SDL_GetSurfaceAlphaMod
      171    _SDL_GetSurfaceBlendMode
               exported name: SDL_GetSurfaceBlendMode
      172    _SDL_GetSurfaceColorMod
               exported name: SDL_GetSurfaceColorMod
      173    _SDL_GetSystemRAM
               exported name: SDL_GetSystemRAM
      174    _SDL_GetTextureAlphaMod
               exported name: SDL_GetTextureAlphaMod
      175    _SDL_GetTextureBlendMode
               exported name: SDL_GetTextureBlendMode
      176    _SDL_GetTextureColorMod
               exported name: SDL_GetTextureColorMod
      177    _SDL_GetThreadID
               exported name: SDL_GetThreadID
      178    _SDL_GetThreadName
               exported name: SDL_GetThreadName
      179    _SDL_GetTicks
               exported name: SDL_GetTicks
      180    _SDL_GetTouchDevice
               exported name: SDL_GetTouchDevice
      181    _SDL_GetTouchFinger
               exported name: SDL_GetTouchFinger
      182    _SDL_GetVersion
               exported name: SDL_GetVersion
      183    _SDL_GetVideoDriver
               exported name: SDL_GetVideoDriver
      184    _SDL_GetWindowBrightness
               exported name: SDL_GetWindowBrightness
      185    _SDL_GetWindowData
               exported name: SDL_GetWindowData
      186    _SDL_GetWindowDisplayIndex
               exported name: SDL_GetWindowDisplayIndex
      187    _SDL_GetWindowDisplayMode
               exported name: SDL_GetWindowDisplayMode
      188    _SDL_GetWindowFlags
               exported name: SDL_GetWindowFlags
      189    _SDL_GetWindowFromID
               exported name: SDL_GetWindowFromID
      190    _SDL_GetWindowGammaRamp
               exported name: SDL_GetWindowGammaRamp
      191    _SDL_GetWindowGrab
               exported name: SDL_GetWindowGrab
      192    _SDL_GetWindowID
               exported name: SDL_GetWindowID
      193    _SDL_GetWindowMaximumSize
               exported name: SDL_GetWindowMaximumSize
      194    _SDL_GetWindowMinimumSize
               exported name: SDL_GetWindowMinimumSize
      195    _SDL_GetWindowPixelFormat
               exported name: SDL_GetWindowPixelFormat
      196    _SDL_GetWindowPosition
               exported name: SDL_GetWindowPosition
      197    _SDL_GetWindowSize
               exported name: SDL_GetWindowSize
      198    _SDL_GetWindowSurface
               exported name: SDL_GetWindowSurface
      199    _SDL_GetWindowTitle
               exported name: SDL_GetWindowTitle
      200    _SDL_GetWindowWMInfo
               exported name: SDL_GetWindowWMInfo
      201    _SDL_HapticClose
               exported name: SDL_HapticClose
      202    _SDL_HapticDestroyEffect
               exported name: SDL_HapticDestroyEffect
      203    _SDL_HapticEffectSupported
               exported name: SDL_HapticEffectSupported
      204    _SDL_HapticGetEffectStatus
               exported name: SDL_HapticGetEffectStatus
      205    _SDL_HapticIndex
               exported name: SDL_HapticIndex
      206    _SDL_HapticName
               exported name: SDL_HapticName
      207    _SDL_HapticNewEffect
               exported name: SDL_HapticNewEffect
      208    _SDL_HapticNumAxes
               exported name: SDL_HapticNumAxes
      209    _SDL_HapticNumEffects
               exported name: SDL_HapticNumEffects
      210    _SDL_HapticNumEffectsPlaying
               exported name: SDL_HapticNumEffectsPlaying
      211    _SDL_HapticOpen
               exported name: SDL_HapticOpen
      212    _SDL_HapticOpenFromJoystick
               exported name: SDL_HapticOpenFromJoystick
      213    _SDL_HapticOpenFromMouse
               exported name: SDL_HapticOpenFromMouse
      214    _SDL_HapticOpened
               exported name: SDL_HapticOpened
      215    _SDL_HapticPause
               exported name: SDL_HapticPause
      216    _SDL_HapticQuery
               exported name: SDL_HapticQuery
      217    _SDL_HapticRumbleInit
               exported name: SDL_HapticRumbleInit
      218    _SDL_HapticRumblePlay
               exported name: SDL_HapticRumblePlay
      219    _SDL_HapticRumbleStop
               exported name: SDL_HapticRumbleStop
      220    _SDL_HapticRumbleSupported
               exported name: SDL_HapticRumbleSupported
      221    _SDL_HapticRunEffect
               exported name: SDL_HapticRunEffect
      222    _SDL_HapticSetAutocenter
               exported name: SDL_HapticSetAutocenter
      223    _SDL_HapticSetGain
               exported name: SDL_HapticSetGain
      224    _SDL_HapticStopAll
               exported name: SDL_HapticStopAll
      225    _SDL_HapticStopEffect
               exported name: SDL_HapticStopEffect
      226    _SDL_HapticUnpause
               exported name: SDL_HapticUnpause
      227    _SDL_HapticUpdateEffect
               exported name: SDL_HapticUpdateEffect
      228    _SDL_Has3DNow
               exported name: SDL_Has3DNow
      229    _SDL_HasAltiVec
               exported name: SDL_HasAltiVec
      230    _SDL_HasClipboardText
               exported name: SDL_HasClipboardText
      231    _SDL_HasEvent
               exported name: SDL_HasEvent
      232    _SDL_HasEvents
               exported name: SDL_HasEvents
      233    _SDL_HasIntersection
               exported name: SDL_HasIntersection
      234    _SDL_HasMMX
               exported name: SDL_HasMMX
      235    _SDL_HasRDTSC
               exported name: SDL_HasRDTSC
      236    _SDL_HasSSE
               exported name: SDL_HasSSE
      237    _SDL_HasSSE2
               exported name: SDL_HasSSE2
      238    _SDL_HasSSE3
               exported name: SDL_HasSSE3
      239    _SDL_HasSSE41
               exported name: SDL_HasSSE41
      240    _SDL_HasSSE42
               exported name: SDL_HasSSE42
      241    _SDL_HasScreenKeyboardSupport
               exported name: SDL_HasScreenKeyboardSupport
      242    _SDL_HideWindow
               exported name: SDL_HideWindow
      243    _SDL_Init
               exported name: SDL_Init
      244    _SDL_InitSubSystem
               exported name: SDL_InitSubSystem
      245    _SDL_IntersectRect
               exported name: SDL_IntersectRect
      246    _SDL_IntersectRectAndLine
               exported name: SDL_IntersectRectAndLine
      247    _SDL_IsGameController
               exported name: SDL_IsGameController
      248    _SDL_IsScreenKeyboardShown
               exported name: SDL_IsScreenKeyboardShown
      249    _SDL_IsScreenSaverEnabled
               exported name: SDL_IsScreenSaverEnabled
      250    _SDL_IsShapedWindow
               exported name: SDL_IsShapedWindow
      251    _SDL_IsTextInputActive
               exported name: SDL_IsTextInputActive
      252    _SDL_JoystickClose
               exported name: SDL_JoystickClose
      253    _SDL_JoystickEventState
               exported name: SDL_JoystickEventState
      254    _SDL_JoystickGetAttached
               exported name: SDL_JoystickGetAttached
      255    _SDL_JoystickGetAxis
               exported name: SDL_JoystickGetAxis
      256    _SDL_JoystickGetBall
               exported name: SDL_JoystickGetBall
      257    _SDL_JoystickGetButton
               exported name: SDL_JoystickGetButton
      258    _SDL_JoystickGetDeviceGUID
               exported name: SDL_JoystickGetDeviceGUID
      259    _SDL_JoystickGetGUID
               exported name: SDL_JoystickGetGUID
      260    _SDL_JoystickGetGUIDFromString
               exported name: SDL_JoystickGetGUIDFromString
      261    _SDL_JoystickGetGUIDString
               exported name: SDL_JoystickGetGUIDString
      262    _SDL_JoystickGetHat
               exported name: SDL_JoystickGetHat
      263    _SDL_JoystickInstanceID
               exported name: SDL_JoystickInstanceID
      264    _SDL_JoystickIsHaptic
               exported name: SDL_JoystickIsHaptic
      265    _SDL_JoystickName
               exported name: SDL_JoystickName
      266    _SDL_JoystickNameForIndex
               exported name: SDL_JoystickNameForIndex
      267    _SDL_JoystickNumAxes
               exported name: SDL_JoystickNumAxes
      268    _SDL_JoystickNumBalls
               exported name: SDL_JoystickNumBalls
      269    _SDL_JoystickNumButtons
               exported name: SDL_JoystickNumButtons
      270    _SDL_JoystickNumHats
               exported name: SDL_JoystickNumHats
      271    _SDL_JoystickOpen
               exported name: SDL_JoystickOpen
      272    _SDL_JoystickUpdate
               exported name: SDL_JoystickUpdate
      273    _SDL_LoadBMP_RW
               exported name: SDL_LoadBMP_RW
      274    _SDL_LoadDollarTemplates
               exported name: SDL_LoadDollarTemplates
      275    _SDL_LoadFunction
               exported name: SDL_LoadFunction
      276    _SDL_LoadObject
               exported name: SDL_LoadObject
      277    _SDL_LoadWAV_RW
               exported name: SDL_LoadWAV_RW
      278    _SDL_LockAudio
               exported name: SDL_LockAudio
      279    _SDL_LockAudioDevice
               exported name: SDL_LockAudioDevice
      280    _SDL_LockMutex
               exported name: SDL_LockMutex
      281    _SDL_LockSurface
               exported name: SDL_LockSurface
      282    _SDL_LockTexture
               exported name: SDL_LockTexture
      283    _SDL_Log
               exported name: SDL_Log
      284    _SDL_LogCritical
               exported name: SDL_LogCritical
      285    _SDL_LogDebug
               exported name: SDL_LogDebug
      286    _SDL_LogError
               exported name: SDL_LogError
      287    _SDL_LogGetOutputFunction
               exported name: SDL_LogGetOutputFunction
      288    _SDL_LogGetPriority
               exported name: SDL_LogGetPriority
      289    _SDL_LogInfo
               exported name: SDL_LogInfo
      290    _SDL_LogMessage
               exported name: SDL_LogMessage
      291    _SDL_LogMessageV
               exported name: SDL_LogMessageV
      292    _SDL_LogResetPriorities
               exported name: SDL_LogResetPriorities
      293    _SDL_LogSetAllPriority
               exported name: SDL_LogSetAllPriority
      294    _SDL_LogSetOutputFunction
               exported name: SDL_LogSetOutputFunction
      295    _SDL_LogSetPriority
               exported name: SDL_LogSetPriority
      296    _SDL_LogVerbose
               exported name: SDL_LogVerbose
      297    _SDL_LogWarn
               exported name: SDL_LogWarn
      298    _SDL_LowerBlit
               exported name: SDL_LowerBlit
      299    _SDL_LowerBlitScaled
               exported name: SDL_LowerBlitScaled
      300    _SDL_MapRGB
               exported name: SDL_MapRGB
      301    _SDL_MapRGBA
               exported name: SDL_MapRGBA
      302    _SDL_MasksToPixelFormatEnum
               exported name: SDL_MasksToPixelFormatEnum
      303    _SDL_MaximizeWindow
               exported name: SDL_MaximizeWindow
      304    _SDL_MinimizeWindow
               exported name: SDL_MinimizeWindow
      305    _SDL_MixAudio
               exported name: SDL_MixAudio
      306    _SDL_MixAudioFormat
               exported name: SDL_MixAudioFormat
      307    _SDL_MouseIsHaptic
               exported name: SDL_MouseIsHaptic
      308    _SDL_NumHaptics
               exported name: SDL_NumHaptics
      309    _SDL_NumJoysticks
               exported name: SDL_NumJoysticks
      310    _SDL_OpenAudio
               exported name: SDL_OpenAudio
      311    _SDL_OpenAudioDevice
               exported name: SDL_OpenAudioDevice
      312    _SDL_PauseAudio
               exported name: SDL_PauseAudio
      313    _SDL_PauseAudioDevice
               exported name: SDL_PauseAudioDevice
      314    _SDL_PeepEvents
               exported name: SDL_PeepEvents
      315    _SDL_PixelFormatEnumToMasks
               exported name: SDL_PixelFormatEnumToMasks
      316    _SDL_PollEvent
               exported name: SDL_PollEvent
      317    _SDL_PumpEvents
               exported name: SDL_PumpEvents
      318    _SDL_PushEvent
               exported name: SDL_PushEvent
      319    _SDL_QueryTexture
               exported name: SDL_QueryTexture
      320    _SDL_Quit
               exported name: SDL_Quit
      321    _SDL_QuitSubSystem
               exported name: SDL_QuitSubSystem
      322    _SDL_RWFromConstMem
               exported name: SDL_RWFromConstMem
      323    _SDL_RWFromFP
               exported name: SDL_RWFromFP
      324    _SDL_RWFromFile
               exported name: SDL_RWFromFile
      325    _SDL_RWFromMem
               exported name: SDL_RWFromMem
      326    _SDL_RaiseWindow
               exported name: SDL_RaiseWindow
      327    _SDL_ReadBE16
               exported name: SDL_ReadBE16
      328    _SDL_ReadBE32
               exported name: SDL_ReadBE32
      329    _SDL_ReadBE64
               exported name: SDL_ReadBE64
      330    _SDL_ReadLE16
               exported name: SDL_ReadLE16
      331    _SDL_ReadLE32
               exported name: SDL_ReadLE32
      332    _SDL_ReadLE64
               exported name: SDL_ReadLE64
      333    _SDL_ReadU8
               exported name: SDL_ReadU8
      334    _SDL_RecordGesture
               exported name: SDL_RecordGesture
      335    _SDL_RegisterEvents
               exported name: SDL_RegisterEvents
      336    _SDL_RemoveTimer
               exported name: SDL_RemoveTimer
      337    _SDL_RenderClear
               exported name: SDL_RenderClear
      338    _SDL_RenderCopy
               exported name: SDL_RenderCopy
      339    _SDL_RenderCopyEx
               exported name: SDL_RenderCopyEx
      340    _SDL_RenderDrawLine
               exported name: SDL_RenderDrawLine
      341    _SDL_RenderDrawLines
               exported name: SDL_RenderDrawLines
      342    _SDL_RenderDrawPoint
               exported name: SDL_RenderDrawPoint
      343    _SDL_RenderDrawPoints
               exported name: SDL_RenderDrawPoints
      344    _SDL_RenderDrawRect
               exported name: SDL_RenderDrawRect
      345    _SDL_RenderDrawRects
               exported name: SDL_RenderDrawRects
      346    _SDL_RenderFillRect
               exported name: SDL_RenderFillRect
      347    _SDL_RenderFillRects
               exported name: SDL_RenderFillRects
      348    _SDL_RenderGetClipRect
               exported name: SDL_RenderGetClipRect
      349    _SDL_RenderGetD3D9Device
               exported name: SDL_RenderGetD3D9Device
      350    _SDL_RenderGetLogicalSize
               exported name: SDL_RenderGetLogicalSize
      351    _SDL_RenderGetScale
               exported name: SDL_RenderGetScale
      352    _SDL_RenderGetViewport
               exported name: SDL_RenderGetViewport
      353    _SDL_RenderPresent
               exported name: SDL_RenderPresent
      354    _SDL_RenderReadPixels
               exported name: SDL_RenderReadPixels
      355    _SDL_RenderSetClipRect
               exported name: SDL_RenderSetClipRect
      356    _SDL_RenderSetLogicalSize
               exported name: SDL_RenderSetLogicalSize
      357    _SDL_RenderSetScale
               exported name: SDL_RenderSetScale
      358    _SDL_RenderSetViewport
               exported name: SDL_RenderSetViewport
      359    _SDL_RenderTargetSupported
               exported name: SDL_RenderTargetSupported
      360    _SDL_ReportAssertion
               exported name: SDL_ReportAssertion
      361    _SDL_ResetAssertionReport
               exported name: SDL_ResetAssertionReport
      362    _SDL_RestoreWindow
               exported name: SDL_RestoreWindow
      363    _SDL_SaveAllDollarTemplates
               exported name: SDL_SaveAllDollarTemplates
      364    _SDL_SaveBMP_RW
               exported name: SDL_SaveBMP_RW
      365    _SDL_SaveDollarTemplate
               exported name: SDL_SaveDollarTemplate
      366    _SDL_SemPost
               exported name: SDL_SemPost
      367    _SDL_SemTryWait
               exported name: SDL_SemTryWait
      368    _SDL_SemValue
               exported name: SDL_SemValue
      369    _SDL_SemWait
               exported name: SDL_SemWait
      370    _SDL_SemWaitTimeout
               exported name: SDL_SemWaitTimeout
      371    _SDL_SetAssertionHandler
               exported name: SDL_SetAssertionHandler
      372    _SDL_SetClipRect
               exported name: SDL_SetClipRect
      373    _SDL_SetClipboardText
               exported name: SDL_SetClipboardText
      374    _SDL_SetColorKey
               exported name: SDL_SetColorKey
      375    _SDL_SetCursor
               exported name: SDL_SetCursor
      376    _SDL_SetError
               exported name: SDL_SetError
      377    _SDL_SetEventFilter
               exported name: SDL_SetEventFilter
      378    _SDL_SetHint
               exported name: SDL_SetHint
      379    _SDL_SetHintWithPriority
               exported name: SDL_SetHintWithPriority
      380    _SDL_SetMainReady
               exported name: SDL_SetMainReady
      381    _SDL_SetModState
               exported name: SDL_SetModState
      382    _SDL_SetPaletteColors
               exported name: SDL_SetPaletteColors
      383    _SDL_SetPixelFormatPalette
               exported name: SDL_SetPixelFormatPalette
      384    _SDL_SetRelativeMouseMode
               exported name: SDL_SetRelativeMouseMode
      385    _SDL_SetRenderDrawBlendMode
               exported name: SDL_SetRenderDrawBlendMode
      386    _SDL_SetRenderDrawColor
               exported name: SDL_SetRenderDrawColor
      387    _SDL_SetRenderTarget
               exported name: SDL_SetRenderTarget
      388    _SDL_SetSurfaceAlphaMod
               exported name: SDL_SetSurfaceAlphaMod
      389    _SDL_SetSurfaceBlendMode
               exported name: SDL_SetSurfaceBlendMode
      390    _SDL_SetSurfaceColorMod
               exported name: SDL_SetSurfaceColorMod
      391    _SDL_SetSurfacePalette
               exported name: SDL_SetSurfacePalette
      392    _SDL_SetSurfaceRLE
               exported name: SDL_SetSurfaceRLE
      393    _SDL_SetTextInputRect
               exported name: SDL_SetTextInputRect
      394    _SDL_SetTextureAlphaMod
               exported name: SDL_SetTextureAlphaMod
      395    _SDL_SetTextureBlendMode
               exported name: SDL_SetTextureBlendMode
      396    _SDL_SetTextureColorMod
               exported name: SDL_SetTextureColorMod
      397    _SDL_SetThreadPriority
               exported name: SDL_SetThreadPriority
      398    _SDL_SetWindowBordered
               exported name: SDL_SetWindowBordered
      399    _SDL_SetWindowBrightness
               exported name: SDL_SetWindowBrightness
      400    _SDL_SetWindowData
               exported name: SDL_SetWindowData
      401    _SDL_SetWindowDisplayMode
               exported name: SDL_SetWindowDisplayMode
      402    _SDL_SetWindowFullscreen
               exported name: SDL_SetWindowFullscreen
      403    _SDL_SetWindowGammaRamp
               exported name: SDL_SetWindowGammaRamp
      404    _SDL_SetWindowGrab
               exported name: SDL_SetWindowGrab
      405    _SDL_SetWindowIcon
               exported name: SDL_SetWindowIcon
      406    _SDL_SetWindowMaximumSize
               exported name: SDL_SetWindowMaximumSize
      407    _SDL_SetWindowMinimumSize
               exported name: SDL_SetWindowMinimumSize
      408    _SDL_SetWindowPosition
               exported name: SDL_SetWindowPosition
      409    _SDL_SetWindowShape
               exported name: SDL_SetWindowShape
      410    _SDL_SetWindowSize
               exported name: SDL_SetWindowSize
      411    _SDL_SetWindowTitle
               exported name: SDL_SetWindowTitle
      412    _SDL_ShowCursor
               exported name: SDL_ShowCursor
      413    _SDL_ShowMessageBox
               exported name: SDL_ShowMessageBox
      414    _SDL_ShowSimpleMessageBox
               exported name: SDL_ShowSimpleMessageBox
      415    _SDL_ShowWindow
               exported name: SDL_ShowWindow
      416    _SDL_SoftStretch
               exported name: SDL_SoftStretch
      417    _SDL_StartTextInput
               exported name: SDL_StartTextInput
      418    _SDL_StopTextInput
               exported name: SDL_StopTextInput
      419    _SDL_TLSCreate
               exported name: SDL_TLSCreate
      420    _SDL_TLSGet
               exported name: SDL_TLSGet
      421    _SDL_TLSSet
               exported name: SDL_TLSSet
      422    _SDL_ThreadID
               exported name: SDL_ThreadID
      423    _SDL_TryLockMutex
               exported name: SDL_TryLockMutex
      424    _SDL_UnionRect
               exported name: SDL_UnionRect
      425    _SDL_UnloadObject
               exported name: SDL_UnloadObject
      426    _SDL_UnlockAudio
               exported name: SDL_UnlockAudio
      427    _SDL_UnlockAudioDevice
               exported name: SDL_UnlockAudioDevice
      428    _SDL_UnlockMutex
               exported name: SDL_UnlockMutex
      429    _SDL_UnlockSurface
               exported name: SDL_UnlockSurface
      430    _SDL_UnlockTexture
               exported name: SDL_UnlockTexture
      431    _SDL_UpdateTexture
               exported name: SDL_UpdateTexture
      432    _SDL_UpdateWindowSurface
               exported name: SDL_UpdateWindowSurface
      433    _SDL_UpdateWindowSurfaceRects
               exported name: SDL_UpdateWindowSurfaceRects
      434    _SDL_UpdateYUVTexture
               exported name: SDL_UpdateYUVTexture
      435    _SDL_UpperBlit
               exported name: SDL_UpperBlit
      436    _SDL_UpperBlitScaled
               exported name: SDL_UpperBlitScaled
      437    _SDL_VideoInit
               exported name: SDL_VideoInit
      438    _SDL_VideoQuit
               exported name: SDL_VideoQuit
      439    _SDL_WaitEvent
               exported name: SDL_WaitEvent
      440    _SDL_WaitEventTimeout
               exported name: SDL_WaitEventTimeout
      441    _SDL_WaitThread
               exported name: SDL_WaitThread
      442    _SDL_WarpMouseInWindow
               exported name: SDL_WarpMouseInWindow
      443    _SDL_WasInit
               exported name: SDL_WasInit
      444    _SDL_WriteBE16
               exported name: SDL_WriteBE16
      445    _SDL_WriteBE32
               exported name: SDL_WriteBE32
      446    _SDL_WriteBE64
               exported name: SDL_WriteBE64
      447    _SDL_WriteLE16
               exported name: SDL_WriteLE16
      448    _SDL_WriteLE32
               exported name: SDL_WriteLE32
      449    _SDL_WriteLE64
               exported name: SDL_WriteLE64
      450    _SDL_WriteU8
               exported name: SDL_WriteU8
      451    _SDL_abs
               exported name: SDL_abs
      452    _SDL_atan
               exported name: SDL_atan
      453    _SDL_atan2
               exported name: SDL_atan2
      454    _SDL_atof
               exported name: SDL_atof
      455    _SDL_atoi
               exported name: SDL_atoi
      456    _SDL_calloc
               exported name: SDL_calloc
      457    _SDL_ceil
               exported name: SDL_ceil
      458    _SDL_copysign
               exported name: SDL_copysign
      459    _SDL_cos
               exported name: SDL_cos
      460    _SDL_cosf
               exported name: SDL_cosf
      461    _SDL_fabs
               exported name: SDL_fabs
      462    _SDL_floor
               exported name: SDL_floor
      463    _SDL_free
               exported name: SDL_free
      464    _SDL_getenv
               exported name: SDL_getenv
      465    _SDL_iconv
               exported name: SDL_iconv
      466    _SDL_iconv_close
               exported name: SDL_iconv_close
      467    _SDL_iconv_open
               exported name: SDL_iconv_open
      468    _SDL_iconv_string
               exported name: SDL_iconv_string
      469    _SDL_isdigit
               exported name: SDL_isdigit
      470    _SDL_isspace
               exported name: SDL_isspace
      471    _SDL_itoa
               exported name: SDL_itoa
      472    _SDL_lltoa
               exported name: SDL_lltoa
      473    _SDL_log
               exported name: SDL_log
      474    _SDL_ltoa
               exported name: SDL_ltoa
      475    _SDL_malloc
               exported name: SDL_malloc
      476    _SDL_memcmp
               exported name: SDL_memcmp
      477    _SDL_memcpy
               exported name: SDL_memcpy
      478    _SDL_memmove
               exported name: SDL_memmove
      479    _SDL_memset
               exported name: SDL_memset
      480    _SDL_pow
               exported name: SDL_pow
      481    _SDL_qsort
               exported name: SDL_qsort
      482    _SDL_realloc
               exported name: SDL_realloc
      483    _SDL_scalbn
               exported name: SDL_scalbn
      484    _SDL_setenv
               exported name: SDL_setenv
      485    _SDL_sin
               exported name: SDL_sin
      486    _SDL_sinf
               exported name: SDL_sinf
      487    _SDL_snprintf
               exported name: SDL_snprintf
      488    _SDL_sqrt
               exported name: SDL_sqrt
      489    _SDL_sscanf
               exported name: SDL_sscanf
      490    _SDL_strcasecmp
               exported name: SDL_strcasecmp
      491    _SDL_strchr
               exported name: SDL_strchr
      492    _SDL_strcmp
               exported name: SDL_strcmp
      493    _SDL_strdup
               exported name: SDL_strdup
      494    _SDL_strlcat
               exported name: SDL_strlcat
      495    _SDL_strlcpy
               exported name: SDL_strlcpy
      496    _SDL_strlen
               exported name: SDL_strlen
      497    _SDL_strlwr
               exported name: SDL_strlwr
      498    _SDL_strncasecmp
               exported name: SDL_strncasecmp
      499    _SDL_strncmp
               exported name: SDL_strncmp
      500    _SDL_strrchr
               exported name: SDL_strrchr
      501    _SDL_strrev
               exported name: SDL_strrev
      502    _SDL_strstr
               exported name: SDL_strstr
      503    _SDL_strtod
               exported name: SDL_strtod
      504    _SDL_strtol
               exported name: SDL_strtol
      505    _SDL_strtoll
               exported name: SDL_strtoll
      506    _SDL_strtoul
               exported name: SDL_strtoul
      507    _SDL_strtoull
               exported name: SDL_strtoull
      508    _SDL_strupr
               exported name: SDL_strupr
      509    _SDL_tolower
               exported name: SDL_tolower
      510    _SDL_toupper
               exported name: SDL_toupper
      511    _SDL_uitoa
               exported name: SDL_uitoa
      512    _SDL_ulltoa
               exported name: SDL_ulltoa
      513    _SDL_ultoa
               exported name: SDL_ultoa
      514    _SDL_utf8strlcpy
               exported name: SDL_utf8strlcpy
      515    _SDL_vsnprintf
               exported name: SDL_vsnprintf
      516    _SDL_wcslcat
               exported name: SDL_wcslcat
      517    _SDL_wcslcpy
               exported name: SDL_wcslcpy
      518    _SDL_wcslen
               exported name: SDL_wcslen
