 plugin_test1

 Timestamp is 5329b418 (Wed Mar 19 18:13:28 2014)

 Preferred load address is 10000000

 Start         Length     Name                   Class
 0001:00000000 00029501H .text                   CODE
 0001:00029501 0000092fH .text$x                 CODE
 0001:00029e30 0000111fH .text$yc                CODE
 0001:0002af4f 0000067bH .text$yd                CODE
 0002:00000000 00000218H .idata$5                DATA
 0002:00000218 00000004H .CRT$XCA                DATA
 0002:0000021c 00000fc0H .CRT$XCU                DATA
 0002:000011dc 00000004H .CRT$XCZ                DATA
 0002:000011e0 00000004H .CRT$XIA                DATA
 0002:000011e4 00000004H .CRT$XIAA               DATA
 0002:000011e8 00000004H .CRT$XIC                DATA
 0002:000011ec 00000004H .CRT$XIZ                DATA
 0002:000011f0 0000cca8H .rdata                  DATA
 0002:0000de98 00001e58H .rdata$r                DATA
 0002:0000fcf0 00000114H .rdata$sxdata           DATA
 0002:0000fe04 00000004H .rtc$IAA                DATA
 0002:0000fe08 00000004H .rtc$IZZ                DATA
 0002:0000fe0c 00000004H .rtc$TAA                DATA
 0002:0000fe10 00000004H .rtc$TZZ                DATA
 0002:0000fe18 00000f6cH .xdata$x                DATA
 0002:00010d84 00000078H .idata$2                DATA
 0002:00010dfc 00000014H .idata$3                DATA
 0002:00010e10 00000218H .idata$4                DATA
 0002:00011028 000009a8H .idata$6                DATA
 0002:000119d0 0000005cH .edata                  DATA
 0003:00000000 00001470H .data                   DATA
 0003:00001470 00001900H .bss                    DATA

  Address         Publics by Value              Rva+Base       Lib:Object

 0000:00000000       __except_list              00000000     <absolute>
 0000:00000045       ___safe_se_handler_count   00000045     <absolute>
 0000:00009876       __ldused                   00009876     <absolute>
 0000:00009876       __fltused                  00009876     <absolute>
 0000:00000000       ___ImageBase               10000000     <linker-defined>
 0001:00000000       ?new_data@SMemorySharedData@core@UModSys@@SAPAU123@IPBUSSourceContext@23@@Z 10001000 f i plugin_test1.obj
 0001:00000024       ?link@SCMemShared@core@UModSys@@QAE_NPAUSMemorySharedData@23@PAUSSourceContext@23@@Z 10001024 f i plugin_test1.obj
 0001:00000024       ?link@SMemShared@core@UModSys@@QAE_NPAUSMemorySharedData@23@PAUSSourceContext@23@@Z 10001024 f i plugin_test1.obj
 0001:00000049       ??1SMemShared@core@UModSys@@QAE@XZ 10001049 f i plugin_test1.obj
 0001:00000049       ??1State@RImage_Memory@stdlib@lib2d@modules@UModSys@@QAE@XZ 10001049 f i umodsys_lib_lib2d:umodsys.mod.2d.stdlib.obj
 0001:00000049       ??1SCMemShared@core@UModSys@@QAE@XZ 10001049 f i plugin_test1.obj
 0001:00000053       ??6SUniquePtrList@core@UModSys@@QAEAAU012@PBUSUniquePointerInfo@12@@Z 10001053 f i plugin_test1.obj
 0001:00000084       ??3IRoot@core@UModSys@@SAXPAXABUSIMemAlloc@12@@Z 10001084 f i plugin_test1.obj
 0001:0000009d       ?_root_get_other_interface@IRefObject@core@UModSys@@IBEPBUIRoot@23@PBUSUniquePointerInfo@23@@Z 1000109d f i plugin_test1.obj
 0001:0000009d       ?_root_get_other_interface@IRefObject@core@UModSys@@IAEPAUIRoot@23@PBUSUniquePointerInfo@23@@Z 1000109d f i plugin_test1.obj
 0001:000000be       ?_root_get_interface_types@IRefObject@core@UModSys@@SAIAAUSUniquePtrList@23@@Z 100010be f i plugin_test1.obj
 0001:000000de       ?_root_is_interface_supported@IRefObject@core@UModSys@@SA_NPBUSUniquePointerInfo@23@@Z 100010de f i plugin_test1.obj
 0001:000000f5       ??$slen@D@su@tl@UModSys@@YAIPBD@Z 100010f5 f i plugin_test1.obj
 0001:0000010e       ??$seq@D@su@tl@UModSys@@YA_NPBD0@Z 1000110e f i plugin_test1.obj
 0001:0000013b       ??0SParameters@core@UModSys@@QAE@PAUIParameters@12@PAXH@Z 1000113b f i plugin_test1.obj
 0001:0000015e       ?add@SParameters@core@UModSys@@QAE_NPBDH@Z 1000115e f i plugin_test1.obj
 0001:00000179       ?_root_get_other_interface@IGenerator@base@UModSys@@IBEPBUIRoot@core@3@PBUSUniquePointerInfo@53@@Z 10001179 f i plugin_test1.obj
 0001:00000179       ?_root_get_other_interface@IGenerator@base@UModSys@@IAEPAUIRoot@core@3@PBUSUniquePointerInfo@53@@Z 10001179 f i plugin_test1.obj
 0001:00000195       ?_root_is_interface_supported@IGenerator@base@UModSys@@SA_NPBUSUniquePointerInfo@core@3@@Z 10001195 f i plugin_test1.obj
 0001:000001b5       ?_root_is_interface_supported@IBinObjFilter@libmedia@UModSys@@SA_NPBUSUniquePointerInfo@core@3@@Z 100011b5 f i plugin_test1.obj
 0001:000001d5       ?set_info@IImage@lib2d@UModSys@@QAE_NW4eImageType@23@HHPBD@Z 100011d5 f i plugin_test1.obj
 0001:00000200       ?render_text@IRenderDriver@lib2d@UModSys@@QAE_NABU?$TVector2@H@math3d@3@PBHHPBU?$TVector2@M@53@@Z 10001200 f i plugin_test1.obj
 0001:0000022e       ??1IBinObjFilter@libmedia@UModSys@@UAE@XZ 1000122e f i plugin_test1.obj
 0001:00000233       ??1ILibObject@libmedia@UModSys@@UAE@XZ 10001233 f i plugin_test1.obj
 0001:0000026a       ?root_get_interface_info@RTest1_Shell@test1@test@modules@UModSys@@UBEABUSUniquePointerInfo@core@5@XZ 1000126a f i plugin_test1.obj
 0001:00000270       ?root_get_interface_type@RTest1_Shell@test1@test@modules@UModSys@@UBEPBUSUniquePointerInfo@core@5@XZ 10001270 f i plugin_test1.obj
 0001:00000276       ?root_get_other_interface@RTest1_Shell@test1@test@modules@UModSys@@UBEPBUIRoot@core@5@PBUSUniquePointerInfo@75@@Z 10001276 f i plugin_test1.obj
 0001:00000276       ?root_get_other_interface@RTest1_Shell@test1@test@modules@UModSys@@UAEPAUIRoot@core@5@PBUSUniquePointerInfo@75@@Z 10001276 f i plugin_test1.obj
 0001:00000297       ?root_is_interface_supported@RTest1_Shell@test1@test@modules@UModSys@@UBE_NPBUSUniquePointerInfo@core@5@@Z 10001297 f i plugin_test1.obj
 0001:000002be       ?ref_add@RTest1_Shell@test1@test@modules@UModSys@@UBEXXZ 100012be f i plugin_test1.obj
 0001:000002c2       ?ref_remove@RTest1_Shell@test1@test@modules@UModSys@@UBEXXZ 100012c2 f i plugin_test1.obj
 0001:000002cd       ?ref_links@RTest1_Shell@test1@test@modules@UModSys@@UBEHXZ 100012cd f i plugin_test1.obj
 0001:000002d1       ?ref_weak@RTest1_Shell@test1@test@modules@UModSys@@UBE_NAAUWeakPointer@IRefObject@core@5@@Z 100012d1 f i plugin_test1.obj
 0001:000002f0       ?suicide@RTest1_Shell@test1@test@modules@UModSys@@UAEXXZ 100012f0 f i plugin_test1.obj
 0001:0000032d       ??0RTest1_Shell@test1@test@modules@UModSys@@QAE@PAUIModObject@base@4@@Z 1000132d f i plugin_test1.obj
 0001:0000043f       ??1RTest1_Shell@test1@test@modules@UModSys@@UAE@XZ 1000143f f i plugin_test1.obj
 0001:000004c7       ?connect@RTest1_Shell@test1@test@modules@UModSys@@UAE_NXZ 100014c7 f i plugin_test1.obj
 0001:000004df       ?disconnect@RTest1_Shell@test1@test@modules@UModSys@@UAE_NXZ 100014df f i plugin_test1.obj
 0001:000004f7       ?process_tick@RTest1_Shell@test1@test@modules@UModSys@@UAE_NABUSTimeMsec@core@5@@Z 100014f7 f i plugin_test1.obj
 0001:00000523       ?process_command@RTest1_Shell@test1@test@modules@UModSys@@UAE_NHQBU?$TString@U?$TSCoreConst@D@su@tl@UModSys@@U?$TComparerBinaryHash@D@234@@tl@5@@Z 10001523 f i plugin_test1.obj
 0001:00000542       ??_GRTest1_Shell@test1@test@modules@UModSys@@UAEPAXI@Z 10001542 f i plugin_test1.obj
 0001:00000542       ??_ERTest1_Shell@test1@test@modules@UModSys@@UAEPAXI@Z 10001542 f i  CIL library: CIL module
 0001:0000055f       ??1ITerminal@libui@UModSys@@UAE@XZ 1000155f f i umodsys_lib_libui:umodsys.mod.ui.SDL_GL.obj
 0001:0000055f       ??1IImageFactory@lib2d@UModSys@@UAE@XZ 1000155f f i umodsys_lib_lib2d:umodsys.mod.2d.stdlib.obj
 0001:0000055f       ??1ICollector@libui@UModSys@@UAE@XZ 1000155f f i umodsys_lib_libui:umodsys.mod.ui.frames.obj
 0001:0000055f       ??1IVertexArray@lib3d@UModSys@@UAE@XZ 1000155f f i umodsys_lib_libui:umodsys.mod.ui.SDL_GL.obj
 0001:0000055f       ??1IMouseController@libui@UModSys@@UAE@XZ 1000155f f i umodsys_lib_libui:umodsys.mod.ui.SDL_GL.obj
 0001:0000055f       ??1IRenderDriver@lib3d@UModSys@@UAE@XZ 1000155f f i umodsys_lib_libui:umodsys.mod.ui.SDL_GL.obj
 0001:0000055f       ??1ISerializeReader@libmedia@UModSys@@UAE@XZ 1000155f f i umodsys_lib_libmedia:umodsys.mod.media.serialize_json.obj
 0001:0000055f       ??1IRenderDriver@lib2d@UModSys@@UAE@XZ 1000155f f i umodsys_lib_libui:umodsys.mod.ui.SDL_GL.obj
 0001:0000055f       ??1IRefObject@core@UModSys@@UAE@XZ 1000155f f i umodsys_lib_core:umodsys.core.objects.obj
 0001:0000055f       ??1IClient@IBinArchiveFrame@libmedia@UModSys@@UAE@XZ 1000155f f i umodsys_lib_libmedia:umodsys.mod.media.zlib.obj
 0001:0000055f       ??1IFrame@libui@UModSys@@UAE@XZ 1000155f f i umodsys_lib_libui:umodsys.mod.ui.frames.obj
 0001:0000055f       ??1IDialog@libui@UModSys@@UAE@XZ 1000155f f i umodsys_lib_libui:umodsys.mod.ui.frames.obj
 0001:0000055f       ??1ISerializeWriter@libmedia@UModSys@@UAE@XZ 1000155f f i umodsys_lib_libmedia:umodsys.mod.media.serialize_json.obj
 0001:0000055f       ??1IKeyboardController@libui@UModSys@@UAE@XZ 1000155f f i umodsys_lib_libui:umodsys.mod.ui.SDL_GL.obj
 0001:0000055f       ??1IImage@lib2d@UModSys@@UAE@XZ 1000155f f i umodsys_lib_lib2d:umodsys.mod.2d.stdlib.obj
 0001:0000055f       ??1IShell@base@UModSys@@UAE@XZ 1000155f f i plugin_test1.obj
 0001:0000055f       ??1IMultiImage@lib2d@UModSys@@UAE@XZ 1000155f f i umodsys_lib_lib2d:umodsys.mod.2d.stdlib.obj
 0001:00000566       ?ui_newframes@RTest1_Shell@test1@test@modules@UModSys@@SA?AU?$TRefObject@UICollector@libui@UModSys@@U?$TRefObjectFunc@UICollector@libui@UModSys@@@tl@3@@tl@5@ABU?$TString@U?$TSCoreConst@D@su@tl@UModSys@@U?$TComparerBinaryHash@D@234@@75@ABUSParameters@core@5@@Z 10001566 f   plugin_test1.obj
 0001:00000584       ?ui_newterm@RTest1_Shell@test1@test@modules@UModSys@@SA?AU?$TRefObject@UITerminal@libui@UModSys@@U?$TRefObjectFunc@UITerminal@libui@UModSys@@@tl@3@@tl@5@ABU?$TString@U?$TSCoreConst@D@su@tl@UModSys@@U?$TComparerBinaryHash@D@234@@75@ABUSParameters@core@5@@Z 10001584 f   plugin_test1.obj
 0001:000005a2       ?key_pressed@RTest1_Shell@test1@test@modules@UModSys@@UAE_NABUSKeyboardInputRaw@libui@5@@Z 100015a2 f   plugin_test1.obj
 0001:000005e4       ?key_text@RTest1_Shell@test1@test@modules@UModSys@@UAE_NABUSKeyboardInputText@libui@5@@Z 100015e4 f   plugin_test1.obj
 0001:0000061d       ?mouse_event@RTest1_Shell@test1@test@modules@UModSys@@UAE_NABUSMouseInput@libui@5@@Z 1000161d f   plugin_test1.obj
 0001:00000682       ?command@RTest1_Shell@test1@test@modules@UModSys@@UAE_NABUSController@libui@5@HABUSFrameDataIn@75@@Z 10001682 f   plugin_test1.obj
 0001:000006bd       ?db_get@RTest1_Shell@test1@test@modules@UModSys@@UAE_NABUSController@libui@5@QBDABUSFrameDataOut@75@@Z 100016bd f   plugin_test1.obj
 0001:00000712       ?db_get@RTest1_Shell@test1@test@modules@UModSys@@UAE_NABUSController@libui@5@QBDHABUSFrameDataOut@75@@Z 10001712 f   plugin_test1.obj
 0001:00000767       ?font_2d@UI_Info@RTest1_Shell@test1@test@modules@UModSys@@QAE_NXZ 10001767 f   plugin_test1.obj
 0001:0000089d       ?init_term@UI_Info@RTest1_Shell@test1@test@modules@UModSys@@QAE_NPBD@Z 1000189d f   plugin_test1.obj
 0001:00000a88       ?create_3d@UI_Info@RTest1_Shell@test1@test@modules@UModSys@@QAE_NPBD@Z 10001a88 f   plugin_test1.obj
 0001:00000b66       ?new_frames@UI_Info@RTest1_Shell@test1@test@modules@UModSys@@QAE_NPAUIController@libui@6@@Z 10001b66 f   plugin_test1.obj
 0001:00000ff4       ??1SFrameCreateParameters@libui@UModSys@@QAE@XZ 10001ff4 f i plugin_test1.obj
 0001:00001005       ?shutdown@UI_Info@RTest1_Shell@test1@test@modules@UModSys@@QAEXXZ 10002005 f   plugin_test1.obj
 0001:0000103a       ?cycle3d@UI_Info@RTest1_Shell@test1@test@modules@UModSys@@QAEXXZ 1000203a f   plugin_test1.obj
 0001:0000131b       ??1UI_Info@RTest1_Shell@test1@test@modules@UModSys@@QAE@XZ 1000231b f i plugin_test1.obj
 0001:000013d4       ?ui_test2@RTest1_Shell@test1@test@modules@UModSys@@QAEXXZ 100023d4 f   plugin_test1.obj
 0001:000014f4       ?get_generated_names@RGenerator@test1@test@modules@UModSys@@UBEHAAUSUniquePtrList@core@5@@Z 100024f4 f i plugin_test1.obj
 0001:0000150d       ?get_generated_types@RGenerator@test1@test@modules@UModSys@@UBEHAAUSUniquePtrList@core@5@PBUSUniquePointerInfo@75@@Z 1000250d f i plugin_test1.obj
 0001:00001541       ?generate@RGenerator@test1@test@modules@UModSys@@UAE_NAAU?$TRefObject@UIRefObject@core@UModSys@@U?$TRefObjectFunc@UIRefObject@core@UModSys@@@tl@3@@tl@5@PBUSUniquePointerInfo@core@5@ABUSParameters@95@@Z 10002541 f i plugin_test1.obj
 0001:000015c3       ?root_get_interface_info@RGenerator@test1@test@modules@UModSys@@UBEABUSUniquePointerInfo@core@5@XZ 100025c3 f i plugin_test1.obj
 0001:000015c9       ?root_get_interface_type@RGenerator@test1@test@modules@UModSys@@UBEPBUSUniquePointerInfo@core@5@XZ 100025c9 f i plugin_test1.obj
 0001:000015cf       ?root_get_other_interface@RGenerator@test1@test@modules@UModSys@@UBEPBUIRoot@core@5@PBUSUniquePointerInfo@75@@Z 100025cf f i plugin_test1.obj
 0001:000015cf       ?root_get_other_interface@RGenerator@test1@test@modules@UModSys@@UAEPAUIRoot@core@5@PBUSUniquePointerInfo@75@@Z 100025cf f i plugin_test1.obj
 0001:000015e8       ?root_is_interface_supported@RGenerator@test1@test@modules@UModSys@@UBE_NPBUSUniquePointerInfo@core@5@@Z 100025e8 f i plugin_test1.obj
 0001:00001607       ?get_uid@RGenerator@test1@test@modules@UModSys@@UBEPBUSUniquePointerInfo@core@5@XZ 10002607 f i plugin_test1.obj
 0001:0000160d       ?do_open@RModuleReg@test1@test@modules@UModSys@@UAE_NXZ 1000260d f i plugin_test1.obj
 0001:00001670       ?do_close@RModuleReg@test1@test@modules@UModSys@@UAE_NXZ 10002670 f i plugin_test1.obj
 0001:000016c0       ??_ERModuleReg@images_std@media@modules@UModSys@@UAEPAXI@Z 100026c0 f i  CIL library: CIL module
 0001:000016c0       ??_GRModuleReg@frames@ui@modules@UModSys@@UAEPAXI@Z 100026c0 f i umodsys_lib_libui:umodsys.mod.ui.frames.obj
 0001:000016c0       ??_ERModuleReg@stdlib@lib2d@modules@UModSys@@UAEPAXI@Z 100026c0 f i  CIL library: CIL module
 0001:000016c0       ??_GRModuleReg@test1@test@modules@UModSys@@UAEPAXI@Z 100026c0 f i plugin_test1.obj
 0001:000016c0       ??_GRModuleReg@SDL_GL@ui@modules@UModSys@@UAEPAXI@Z 100026c0 f i umodsys_lib_libui:umodsys.mod.ui.SDL_GL.obj
 0001:000016c0       ??_EIModuleReg@base@UModSys@@UAEPAXI@Z 100026c0 f i  CIL library: CIL module
 0001:000016c0       ??_GRModuleReg@zlib@media@modules@UModSys@@UAEPAXI@Z 100026c0 f i umodsys_lib_libmedia:umodsys.mod.media.zlib.obj
 0001:000016c0       ??_ERModuleReg@SDL_core@ui@modules@UModSys@@UAEPAXI@Z 100026c0 f i  CIL library: CIL module
 0001:000016c0       ??_GRModuleReg@SDL_core@ui@modules@UModSys@@UAEPAXI@Z 100026c0 f i umodsys_lib_libui:umodsys.mod.ui.SDL_core.obj
 0001:000016c0       ??_GRModuleReg@serialize_json@media@modules@UModSys@@UAEPAXI@Z 100026c0 f i umodsys_lib_libmedia:umodsys.mod.media.serialize_json.obj
 0001:000016c0       ??_ERModuleReg@zlib@media@modules@UModSys@@UAEPAXI@Z 100026c0 f i  CIL library: CIL module
 0001:000016c0       ??_GRModuleReg@stdlib@lib2d@modules@UModSys@@UAEPAXI@Z 100026c0 f i umodsys_lib_lib2d:umodsys.mod.2d.stdlib.obj
 0001:000016c0       ??_ERModuleReg@SDL_GL@ui@modules@UModSys@@UAEPAXI@Z 100026c0 f i  CIL library: CIL module
 0001:000016c0       ??_GIModuleReg@base@UModSys@@UAEPAXI@Z 100026c0 f i umodsys_lib_base:umodsys.base.modulereg.obj
 0001:000016c0       ??_ERModuleReg@frames@ui@modules@UModSys@@UAEPAXI@Z 100026c0 f i  CIL library: CIL module
 0001:000016c0       ??_ERModuleReg@serialize_json@media@modules@UModSys@@UAEPAXI@Z 100026c0 f i  CIL library: CIL module
 0001:000016c0       ??_GRModuleReg@images_std@media@modules@UModSys@@UAEPAXI@Z 100026c0 f i umodsys_lib_libmedia:umodsys.mod.media.images_std.obj
 0001:000016c0       ??_ERModuleReg@test1@test@modules@UModSys@@UAEPAXI@Z 100026c0 f i  CIL library: CIL module
 0001:000016dd       ?get_module@RGenerator@test1@test@modules@UModSys@@UBEPAUIModule@base@5@XZ 100026dd f   plugin_test1.obj
 0001:000016e3       ?mod_inc@RGenerator@test1@test@modules@UModSys@@UBE_NXZ 100026e3 f   plugin_test1.obj
 0001:000016ee       ?mod_dec@RGenerator@test1@test@modules@UModSys@@UBE_NXZ 100026ee f   plugin_test1.obj
 0001:000016f9       ?s_holder@RGenerator@test1@test@modules@UModSys@@SAAAU?$TTypeStaticHolder@URGenerator@test1@test@modules@UModSys@@@tl@5@XZ 100026f9 f   plugin_test1.obj
 0001:0000172b       ??0?$TString@U?$TSCoreConst@D@su@tl@UModSys@@U?$TComparerBinaryHash@D@234@@tl@UModSys@@QAE@PBD@Z 1000272b f i plugin_test1.obj
 0001:00001750       ??8?$TString@U?$TSCoreConst@D@su@tl@UModSys@@U?$TComparerBinaryHash@D@234@@tl@UModSys@@QBE_NPBD@Z 10002750 f i plugin_test1.obj
 0001:00001772       ??4?$TString@U?$TSCoreConst@D@su@tl@UModSys@@U?$TComparerBinaryHash@D@234@@tl@UModSys@@QAEABU012@PBD@Z 10002772 f i plugin_test1.obj
 0001:0000178e       ??0?$TString@U?$TSCoreShared@USIMemAlloc@core@UModSys@@D@su@tl@UModSys@@U?$TComparerBinaryHash@D@234@@tl@UModSys@@QAE@XZ 1000278e f i plugin_test1.obj
 0001:000017a4       ??4?$TString@U?$TSCoreShared@USIMemAlloc@core@UModSys@@D@su@tl@UModSys@@U?$TComparerBinaryHash@D@234@@tl@UModSys@@QAEABU012@ABU012@@Z 100027a4 f i plugin_test1.obj
 0001:000017c6       ??0?$TParametersA@$0EAA@@core@UModSys@@QAE@XZ 100027c6 f i plugin_test1.obj
 0001:000017e8       ?update@?$TComparerBinaryHash@D@su@tl@UModSys@@QAEXPBDI@Z 100027e8 f i plugin_test1.obj
 0001:0000181f       ?info_release@?$TSCoreShared@USIMemAlloc@core@UModSys@@D@su@tl@UModSys@@QAEXXZ 1000281f f i plugin_test1.obj
 0001:00001858       ?info_new@?$TSCoreShared@USIMemAlloc@core@UModSys@@D@su@tl@UModSys@@QAE_NPBDI@Z 10002858 f i plugin_test1.obj
 0001:000018bc       ?get_null@?$TSCoreShared@USIMemAlloc@core@UModSys@@D@su@tl@UModSys@@SAPAU?$TSharedStringInfo@DUSIMemAlloc@core@UModSys@@@234@XZ 100028bc f i plugin_test1.obj
 0001:000018f4       ??$generate_type@UICollector@libui@UModSys@@@RTest1_Shell@test1@test@modules@UModSys@@SA?AU?$TRefObject@UICollector@libui@UModSys@@U?$TRefObjectFunc@UICollector@libui@UModSys@@@tl@3@@tl@4@ABU?$TString@U?$TSCoreConst@D@su@tl@UModSys@@U?$TComparerBinaryHash@D@234@@64@ABUSParameters@core@4@PBD@Z 100028f4 f i plugin_test1.obj
 0001:000019ee       ??$generate_type@UITerminal@libui@UModSys@@@RTest1_Shell@test1@test@modules@UModSys@@SA?AU?$TRefObject@UITerminal@libui@UModSys@@U?$TRefObjectFunc@UITerminal@libui@UModSys@@@tl@3@@tl@4@ABU?$TString@U?$TSCoreConst@D@su@tl@UModSys@@U?$TComparerBinaryHash@D@234@@64@ABUSParameters@core@4@PBD@Z 100029ee f i plugin_test1.obj
 0001:00001ae8       ??$t_create_handler@UIKeyboardController@libui@UModSys@@@ITerminal@libui@UModSys@@QAE_NAAU?$TRefObject@UIKeyboardController@libui@UModSys@@U?$TRefObjectFunc@UIKeyboardController@libui@UModSys@@@tl@3@@tl@2@PBDPBUSParameters@core@2@@Z 10002ae8 f i plugin_test1.obj
 0001:00001b6a       ??$t_create_handler@UIMouseController@libui@UModSys@@@ITerminal@libui@UModSys@@QAE_NAAU?$TRefObject@UIMouseController@libui@UModSys@@U?$TRefObjectFunc@UIMouseController@libui@UModSys@@@tl@3@@tl@2@PBDPBUSParameters@core@2@@Z 10002b6a f i plugin_test1.obj
 0001:00001bec       ??$t_create_handler@UIRenderDriver@lib3d@UModSys@@@ITerminal@libui@UModSys@@QAE_NAAU?$TRefObject@UIRenderDriver@lib3d@UModSys@@U?$TRefObjectFunc@UIRenderDriver@lib3d@UModSys@@@tl@3@@tl@2@PBDPBUSParameters@core@2@@Z 10002bec f i plugin_test1.obj
 0001:00001c70       ??1?$TRefObject@UIModObject@base@UModSys@@U?$TModObjectFunc@UIModObject@base@UModSys@@@tl@3@@tl@UModSys@@QAE@XZ 10002c70 f i plugin_test1.obj
 0001:00001c86       ?s_init@?$TModObjectFunc@UIModObject@base@UModSys@@@tl@UModSys@@SAXAAPAUIModObject@base@3@PAU453@@Z 10002c86 f i plugin_test1.obj
 0001:00001c9f       ??$t_ref_get_other_interface@UIStreamReader@libmedia@UModSys@@U?$TRefObjectFunc@UIStreamReader@libmedia@UModSys@@@tl@3@@IRefObject@core@UModSys@@QAE_NAAU?$TRefObject@UIStreamReader@libmedia@UModSys@@U?$TRefObjectFunc@UIStreamReader@libmedia@UModSys@@@tl@3@@tl@2@@Z 10002c9f f i plugin_test1.obj
 0001:00001cce       ??$t_ref_get_other_interface@UIStreamWriter@libmedia@UModSys@@U?$TRefObjectFunc@UIStreamWriter@libmedia@UModSys@@@tl@3@@IRefObject@core@UModSys@@QAE_NAAU?$TRefObject@UIStreamWriter@libmedia@UModSys@@U?$TRefObjectFunc@UIStreamWriter@libmedia@UModSys@@@tl@3@@tl@2@@Z 10002cce f i plugin_test1.obj
 0001:00001cfd       ??$t_generate@UICollector@libui@UModSys@@@SModuleContext@base@UModSys@@QAE_NAAU?$TRefObject@UICollector@libui@UModSys@@U?$TRefObjectFunc@UICollector@libui@UModSys@@@tl@3@@tl@2@PBUSUniquePointerInfo@core@2@ABUSParameters@62@@Z 10002cfd f i plugin_test1.obj
 0001:00001d99       ??$t_generate@UITerminal@libui@UModSys@@@SModuleContext@base@UModSys@@QAE_NAAU?$TRefObject@UITerminal@libui@UModSys@@U?$TRefObjectFunc@UITerminal@libui@UModSys@@@tl@3@@tl@2@PBUSUniquePointerInfo@core@2@ABUSParameters@62@@Z 10002d99 f i plugin_test1.obj
 0001:00001e35       ??$t_ref_get_other_interface@UIImageFactory@lib2d@UModSys@@U?$TRefObjectFunc@UIImageFactory@lib2d@UModSys@@@tl@3@@IRefObject@core@UModSys@@QAE_NAAU?$TRefObject@UIImageFactory@lib2d@UModSys@@U?$TRefObjectFunc@UIImageFactory@lib2d@UModSys@@@tl@3@@tl@2@@Z 10002e35 f i plugin_test1.obj
 0001:00001e64       ??$t_ref_get_other_interface@UIMultiImage@lib2d@UModSys@@U?$TRefObjectFunc@UIMultiImage@lib2d@UModSys@@@tl@3@@IRefObject@core@UModSys@@QAE_NAAU?$TRefObject@UIMultiImage@lib2d@UModSys@@U?$TRefObjectFunc@UIMultiImage@lib2d@UModSys@@@tl@3@@tl@2@@Z 10002e64 f i plugin_test1.obj
 0001:00001e84       ??4?$TRefObject@UIImage@lib2d@UModSys@@U?$TRefObjectFunc@UIImage@lib2d@UModSys@@@tl@3@@tl@UModSys@@QAEABU012@PAUIImage@lib2d@2@@Z 10002e84 f i plugin_test1.obj
 0001:00001e84       ??4?$TRefObject@UIRefObject@core@UModSys@@U?$TRefObjectFunc@UIRefObject@core@UModSys@@@tl@3@@tl@UModSys@@QAEABU012@PAUIRefObject@core@2@@Z 10002e84 f i plugin_test1.obj
 0001:00001e84       ??4?$TRefObject@UIMultiImage@lib2d@UModSys@@U?$TRefObjectFunc@UIMultiImage@lib2d@UModSys@@@tl@3@@tl@UModSys@@QAEABU012@PAUIMultiImage@lib2d@2@@Z 10002e84 f i plugin_test1.obj
 0001:00001e84       ??4?$TRefObject@UIRenderDriver@lib2d@UModSys@@U?$TRefObjectFunc@UIRenderDriver@lib2d@UModSys@@@tl@3@@tl@UModSys@@QAEABU012@PAUIRenderDriver@lib2d@2@@Z 10002e84 f i plugin_test1.obj
 0001:00001e84       ??4?$TRefObject@URFrame_Common@frames@ui@modules@UModSys@@U?$TRefObjectFunc@URFrame_Common@frames@ui@modules@UModSys@@@tl@5@@tl@UModSys@@QAEABU012@PAURFrame_Common@frames@ui@modules@2@@Z 10002e84 f i umodsys_lib_libui:umodsys.mod.ui.frames.obj
 0001:00001e9f       ?alloc@SMemShared@core@UModSys@@QAE_NIPAUSSourceContext@23@@Z 10002e9f f i umodsys_lib_lib2d:umodsys.mod.2d.stdlib.obj
 0001:00001eb8       ??BSCMemShared@core@UModSys@@QBE?AUSCMem@12@XZ 10002eb8 f i plugin_test1.obj
 0001:00001eb8       ??BSMemShared@core@UModSys@@QBE?AUSMem@12@XZ 10002eb8 f i umodsys_lib_lib2d:umodsys.mod.2d.stdlib.obj
 0001:00001eb8       ?get@SMemShared@core@UModSys@@QBE?AUSMem@23@XZ 10002eb8 f i umodsys_lib_libmedia:umodsys.mod.media.images_std.obj
 0001:00001ee8       ?ConvertSameSize@stdlib@lib2d@modules@UModSys@@YA_NW4eImageType@24@ABU?$TVector2@H@math3d@4@11ABUSMem@core@4@11ABUSCMem@94@@Z 10002ee8 f i umodsys_lib_lib2d:umodsys.mod.2d.stdlib.obj
 0001:00001f6b       ?ConvertSame@stdlib@lib2d@modules@UModSys@@YA_NW4eImageType@24@ABU?$TBoundBox2@H@math3d@4@ABU?$TVector2@H@74@ABUSMem@core@4@12ABUSCMem@core@4@@Z 10002f6b f i umodsys_lib_lib2d:umodsys.mod.2d.stdlib.obj
 0001:00001fce       ?Convert@stdlib@lib2d@modules@UModSys@@YA_NABU?$TBoundBox2@H@math3d@4@ABUSImageInfo@24@ABUSMem@core@4@01ABUSCMem@94@@Z 10002fce f i umodsys_lib_lib2d:umodsys.mod.2d.stdlib.obj
 0001:00002030       ?root_get_interface_info@RImage_Memory@stdlib@lib2d@modules@UModSys@@UBEABUSUniquePointerInfo@core@5@XZ 10003030 f i umodsys_lib_lib2d:umodsys.mod.2d.stdlib.obj
 0001:00002036       ?root_get_interface_type@RImage_Memory@stdlib@lib2d@modules@UModSys@@UBEPBUSUniquePointerInfo@core@5@XZ 10003036 f i umodsys_lib_lib2d:umodsys.mod.2d.stdlib.obj
 0001:0000203c       ?root_get_other_interface@RImage_Memory@stdlib@lib2d@modules@UModSys@@UBEPBUIRoot@core@5@PBUSUniquePointerInfo@75@@Z 1000303c f i umodsys_lib_lib2d:umodsys.mod.2d.stdlib.obj
 0001:0000203c       ?root_get_other_interface@RImage_Memory@stdlib@lib2d@modules@UModSys@@UAEPAUIRoot@core@5@PBUSUniquePointerInfo@75@@Z 1000303c f i umodsys_lib_lib2d:umodsys.mod.2d.stdlib.obj
 0001:0000205d       ?root_is_interface_supported@RImage_Memory@stdlib@lib2d@modules@UModSys@@UBE_NPBUSUniquePointerInfo@core@5@@Z 1000305d f i umodsys_lib_lib2d:umodsys.mod.2d.stdlib.obj
 0001:00002084       ?ref_add@RGenerator@zlib@media@modules@UModSys@@UBEXXZ 10003084 f i umodsys_lib_libmedia:umodsys.mod.media.zlib.obj
 0001:00002084       ?ref_add@RMultiImage2D_SDL_ttf@SDL_GL@ui@modules@UModSys@@UBEXXZ 10003084 f i umodsys_lib_libui:umodsys.mod.ui.SDL_GL.obj
 0001:00002084       ?ref_add@RImage_Memory@stdlib@lib2d@modules@UModSys@@UBEXXZ 10003084 f i umodsys_lib_lib2d:umodsys.mod.2d.stdlib.obj
 0001:00002084       ?ref_add@RGenerator@test1@test@modules@UModSys@@UBEXXZ 10003084 f i plugin_test1.obj
 0001:00002084       ?ref_add@RMultiImage2D_SDL_ttf@SDL_core@ui@modules@UModSys@@UBEXXZ 10003084 f i umodsys_lib_libui:umodsys.mod.ui.SDL_core.obj
 0001:00002084       ?ref_add@RGenerator@frames@ui@modules@UModSys@@UBEXXZ 10003084 f i umodsys_lib_libui:umodsys.mod.ui.frames.obj
 0001:00002084       ?ref_add@RVertexArray@SDL_GL@ui@modules@UModSys@@UBEXXZ 10003084 f i umodsys_lib_libui:umodsys.mod.ui.SDL_GL.obj
 0001:00002084       ?ref_add@RGenerator@serialize_json@media@modules@UModSys@@UBEXXZ 10003084 f i umodsys_lib_libmedia:umodsys.mod.media.serialize_json.obj
 0001:00002084       ?ref_add@RMultiImage@stdlib@lib2d@modules@UModSys@@UBEXXZ 10003084 f i umodsys_lib_lib2d:umodsys.mod.2d.stdlib.obj
 0001:00002084       ?ref_add@RSerializeReader@serialize_json@media@modules@UModSys@@UBEXXZ 10003084 f i umodsys_lib_libmedia:umodsys.mod.media.serialize_json.obj
 0001:00002084       ?ref_add@RGenerator@SDL_core@ui@modules@UModSys@@UBEXXZ 10003084 f i umodsys_lib_libui:umodsys.mod.ui.SDL_core.obj
 0001:00002084       ?ref_add@RImageFactory_Memory@stdlib@lib2d@modules@UModSys@@UBEXXZ 10003084 f i umodsys_lib_lib2d:umodsys.mod.2d.stdlib.obj
 0001:00002084       ?ref_add@RGenerator@SDL_GL@ui@modules@UModSys@@UBEXXZ 10003084 f i umodsys_lib_libui:umodsys.mod.ui.SDL_GL.obj
 0001:00002084       ?ref_add@RDialog@frames@ui@modules@UModSys@@UBEXXZ 10003084 f i umodsys_lib_libui:umodsys.mod.ui.frames.obj
 0001:00002084       ?ref_add@RGenerator@images_std@media@modules@UModSys@@UBEXXZ 10003084 f i umodsys_lib_libmedia:umodsys.mod.media.images_std.obj
 0001:00002084       ?ref_add@RTerminal@SDL_GL@ui@modules@UModSys@@UBEXXZ 10003084 f i umodsys_lib_libui:umodsys.mod.ui.SDL_GL.obj
 0001:00002084       ?ref_add@RBinArchiveFrameClient_ZIP@zlib@media@modules@UModSys@@UBEXXZ 10003084 f i umodsys_lib_libmedia:umodsys.mod.media.zlib.obj
 0001:00002084       ?ref_add@RGenerator@stdlib@lib2d@modules@UModSys@@UBEXXZ 10003084 f i umodsys_lib_lib2d:umodsys.mod.2d.stdlib.obj
 0001:00002084       ?ref_add@RTerminal@SDL_core@ui@modules@UModSys@@UBEXXZ 10003084 f i umodsys_lib_libui:umodsys.mod.ui.SDL_core.obj
 0001:00002088       ??0State@RImage_Memory@stdlib@lib2d@modules@UModSys@@QAE@XZ 10003088 f i umodsys_lib_lib2d:umodsys.mod.2d.stdlib.obj
 0001:000020ba       ?root_get_interface_info@RImageFactory_Memory@stdlib@lib2d@modules@UModSys@@UBEABUSUniquePointerInfo@core@5@XZ 100030ba f i umodsys_lib_lib2d:umodsys.mod.2d.stdlib.obj
 0001:000020c0       ?root_get_interface_type@RImageFactory_Memory@stdlib@lib2d@modules@UModSys@@UBEPBUSUniquePointerInfo@core@5@XZ 100030c0 f i umodsys_lib_lib2d:umodsys.mod.2d.stdlib.obj
 0001:000020c6       ?root_get_other_interface@RImageFactory_Memory@stdlib@lib2d@modules@UModSys@@UAEPAUIRoot@core@5@PBUSUniquePointerInfo@75@@Z 100030c6 f i umodsys_lib_lib2d:umodsys.mod.2d.stdlib.obj
 0001:000020c6       ?root_get_other_interface@RImageFactory_Memory@stdlib@lib2d@modules@UModSys@@UBEPBUIRoot@core@5@PBUSUniquePointerInfo@75@@Z 100030c6 f i umodsys_lib_lib2d:umodsys.mod.2d.stdlib.obj
 0001:000020e7       ?root_is_interface_supported@RImageFactory_Memory@stdlib@lib2d@modules@UModSys@@UBE_NPBUSUniquePointerInfo@core@5@@Z 100030e7 f i umodsys_lib_lib2d:umodsys.mod.2d.stdlib.obj
 0001:0000210e       ?root_get_interface_info@RMultiImage@stdlib@lib2d@modules@UModSys@@UBEABUSUniquePointerInfo@core@5@XZ 1000310e f i umodsys_lib_lib2d:umodsys.mod.2d.stdlib.obj
 0001:00002114       ?root_get_interface_type@RMultiImage@stdlib@lib2d@modules@UModSys@@UBEPBUSUniquePointerInfo@core@5@XZ 10003114 f i umodsys_lib_lib2d:umodsys.mod.2d.stdlib.obj
 0001:0000211a       ?root_get_other_interface@RMultiImage@stdlib@lib2d@modules@UModSys@@UAEPAUIRoot@core@5@PBUSUniquePointerInfo@75@@Z 1000311a f i umodsys_lib_lib2d:umodsys.mod.2d.stdlib.obj
 0001:0000211a       ?root_get_other_interface@RMultiImage@stdlib@lib2d@modules@UModSys@@UBEPBUIRoot@core@5@PBUSUniquePointerInfo@75@@Z 1000311a f i umodsys_lib_lib2d:umodsys.mod.2d.stdlib.obj
 0001:0000213b       ?root_is_interface_supported@RMultiImage@stdlib@lib2d@modules@UModSys@@UBE_NPBUSUniquePointerInfo@core@5@@Z 1000313b f i umodsys_lib_lib2d:umodsys.mod.2d.stdlib.obj
 0001:00002162       ?ref_remove@RVertexArray@SDL_GL@ui@modules@UModSys@@UBEXXZ 10003162 f i umodsys_lib_libui:umodsys.mod.ui.SDL_GL.obj
 0001:00002162       ?ref_remove@RGenerator@zlib@media@modules@UModSys@@UBEXXZ 10003162 f i umodsys_lib_libmedia:umodsys.mod.media.zlib.obj
 0001:00002162       ?ref_remove@RTerminal@SDL_core@ui@modules@UModSys@@UBEXXZ 10003162 f i umodsys_lib_libui:umodsys.mod.ui.SDL_core.obj
 0001:00002162       ?ref_remove@RMultiImage@stdlib@lib2d@modules@UModSys@@UBEXXZ 10003162 f i umodsys_lib_lib2d:umodsys.mod.2d.stdlib.obj
 0001:00002162       ?ref_remove@RImageFactory_Memory@stdlib@lib2d@modules@UModSys@@UBEXXZ 10003162 f i umodsys_lib_lib2d:umodsys.mod.2d.stdlib.obj
 0001:00002162       ?ref_remove@RGenerator@stdlib@lib2d@modules@UModSys@@UBEXXZ 10003162 f i umodsys_lib_lib2d:umodsys.mod.2d.stdlib.obj
 0001:00002162       ?ref_remove@RGenerator@serialize_json@media@modules@UModSys@@UBEXXZ 10003162 f i umodsys_lib_libmedia:umodsys.mod.media.serialize_json.obj
 0001:00002162       ?ref_remove@RMultiImage2D_SDL_ttf@SDL_GL@ui@modules@UModSys@@UBEXXZ 10003162 f i umodsys_lib_libui:umodsys.mod.ui.SDL_GL.obj
 0001:00002162       ?ref_remove@RBinArchiveFrameClient_ZIP@zlib@media@modules@UModSys@@UBEXXZ 10003162 f i umodsys_lib_libmedia:umodsys.mod.media.zlib.obj
 0001:00002162       ?ref_remove@RGenerator@test1@test@modules@UModSys@@UBEXXZ 10003162 f i plugin_test1.obj
 0001:00002162       ?ref_remove@RTerminal@SDL_GL@ui@modules@UModSys@@UBEXXZ 10003162 f i umodsys_lib_libui:umodsys.mod.ui.SDL_GL.obj
 0001:00002162       ?ref_remove@RGenerator@images_std@media@modules@UModSys@@UBEXXZ 10003162 f i umodsys_lib_libmedia:umodsys.mod.media.images_std.obj
 0001:00002162       ?ref_remove@RGenerator@frames@ui@modules@UModSys@@UBEXXZ 10003162 f i umodsys_lib_libui:umodsys.mod.ui.frames.obj
 0001:00002162       ?ref_remove@RImage_Memory@stdlib@lib2d@modules@UModSys@@UBEXXZ 10003162 f i umodsys_lib_lib2d:umodsys.mod.2d.stdlib.obj
 0001:00002162       ?ref_remove@RGenerator@SDL_core@ui@modules@UModSys@@UBEXXZ 10003162 f i umodsys_lib_libui:umodsys.mod.ui.SDL_core.obj
 0001:00002162       ?ref_remove@RGenerator@SDL_GL@ui@modules@UModSys@@UBEXXZ 10003162 f i umodsys_lib_libui:umodsys.mod.ui.SDL_GL.obj
 0001:00002162       ?ref_remove@RMultiImage2D_SDL_ttf@SDL_core@ui@modules@UModSys@@UBEXXZ 10003162 f i umodsys_lib_libui:umodsys.mod.ui.SDL_core.obj
 0001:00002162       ?ref_remove@RDialog@frames@ui@modules@UModSys@@UBEXXZ 10003162 f i umodsys_lib_libui:umodsys.mod.ui.frames.obj
 0001:00002162       ?ref_remove@RSerializeReader@serialize_json@media@modules@UModSys@@UBEXXZ 10003162 f i umodsys_lib_libmedia:umodsys.mod.media.serialize_json.obj
 0001:0000216d       ?get_generated_names@RGenerator@stdlib@lib2d@modules@UModSys@@UBEHAAUSUniquePtrList@core@5@@Z 1000316d f i umodsys_lib_lib2d:umodsys.mod.2d.stdlib.obj
 0001:0000219c       ?get_generated_types@RGenerator@stdlib@lib2d@modules@UModSys@@UBEHAAUSUniquePtrList@core@5@PBUSUniquePointerInfo@75@@Z 1000319c f i umodsys_lib_lib2d:umodsys.mod.2d.stdlib.obj
 0001:00002206       ?generate@RGenerator@stdlib@lib2d@modules@UModSys@@UAE_NAAU?$TRefObject@UIRefObject@core@UModSys@@U?$TRefObjectFunc@UIRefObject@core@UModSys@@@tl@3@@tl@5@PBUSUniquePointerInfo@core@5@ABUSParameters@95@@Z 10003206 f i umodsys_lib_lib2d:umodsys.mod.2d.stdlib.obj
 0001:00002271       ?root_get_interface_info@RGenerator@stdlib@lib2d@modules@UModSys@@UBEABUSUniquePointerInfo@core@5@XZ 10003271 f i umodsys_lib_lib2d:umodsys.mod.2d.stdlib.obj
 0001:00002277       ?root_get_interface_type@RGenerator@stdlib@lib2d@modules@UModSys@@UBEPBUSUniquePointerInfo@core@5@XZ 10003277 f i umodsys_lib_lib2d:umodsys.mod.2d.stdlib.obj
 0001:0000227d       ?root_get_other_interface@RGenerator@stdlib@lib2d@modules@UModSys@@UAEPAUIRoot@core@5@PBUSUniquePointerInfo@75@@Z 1000327d f i umodsys_lib_lib2d:umodsys.mod.2d.stdlib.obj
 0001:0000227d       ?root_get_other_interface@RGenerator@stdlib@lib2d@modules@UModSys@@UBEPBUIRoot@core@5@PBUSUniquePointerInfo@75@@Z 1000327d f i umodsys_lib_lib2d:umodsys.mod.2d.stdlib.obj
 0001:00002296       ?root_is_interface_supported@RGenerator@stdlib@lib2d@modules@UModSys@@UBE_NPBUSUniquePointerInfo@core@5@@Z 10003296 f i umodsys_lib_lib2d:umodsys.mod.2d.stdlib.obj
 0001:000022b5       ?get_uid@RGenerator@stdlib@lib2d@modules@UModSys@@UBEPBUSUniquePointerInfo@core@5@XZ 100032b5 f i umodsys_lib_lib2d:umodsys.mod.2d.stdlib.obj
 0001:000022bb       ?set_info@RImage_Memory@stdlib@lib2d@modules@UModSys@@UAE_NABUSImagePatchInfo@35@PBD@Z 100032bb f   umodsys_lib_lib2d:umodsys.mod.2d.stdlib.obj
 0001:00002423       ??4State@RImage_Memory@stdlib@lib2d@modules@UModSys@@QAEAAU012345@ABU012345@@Z 10003423 f i umodsys_lib_lib2d:umodsys.mod.2d.stdlib.obj
 0001:00002473       ?set_data@RImage_Memory@stdlib@lib2d@modules@UModSys@@UAE_NABUSImagePatchInfo@35@ABUSCMem@core@5@H@Z 10003473 f   umodsys_lib_lib2d:umodsys.mod.2d.stdlib.obj
 0001:000024dd       ?get_info@RImage_Memory@stdlib@lib2d@modules@UModSys@@UBEABUSImageInfo@35@XZ 100034dd f   umodsys_lib_lib2d:umodsys.mod.2d.stdlib.obj
 0001:000024e1       ?get_data@RImage_Memory@stdlib@lib2d@modules@UModSys@@UBE_NABUSImagePatchInfo@35@ABUSMem@core@5@H@Z 100034e1 f   umodsys_lib_lib2d:umodsys.mod.2d.stdlib.obj
 0001:00002567       ??0RImage_Memory@stdlib@lib2d@modules@UModSys@@QAE@PAUIModObject@base@4@ABUSParameters@core@4@@Z 10003567 f   umodsys_lib_lib2d:umodsys.mod.2d.stdlib.obj
 0001:000025b3       ??_GRImage_Memory@stdlib@lib2d@modules@UModSys@@UAEPAXI@Z 100035b3 f i umodsys_lib_lib2d:umodsys.mod.2d.stdlib.obj
 0001:000025b3       ??_ERImage_Memory@stdlib@lib2d@modules@UModSys@@UAEPAXI@Z 100035b3 f i  CIL library: CIL module
 0001:00002600       ?image_new@RImageFactory_Memory@stdlib@lib2d@modules@UModSys@@UAE?AU?$TRefObject@UIImage@lib2d@UModSys@@U?$TRefObjectFunc@UIImage@lib2d@UModSys@@@tl@3@@tl@5@XZ 10003600 f   umodsys_lib_lib2d:umodsys.mod.2d.stdlib.obj
 0001:00002746       ??1?$TParametersA@$0EAA@@core@UModSys@@QAE@XZ 10003746 f i plugin_test1.obj
 0001:00002746       ??1SParameters@core@UModSys@@QAE@XZ 10003746 f i plugin_test1.obj
 0001:00002746       ??1?$TParametersA@$0BAA@@core@UModSys@@QAE@XZ 10003746 f i umodsys_lib_libui:umodsys.mod.ui.SDL_core.obj
 0001:00002746       ??1?$TParametersA@$0BAL@@core@UModSys@@QAE@XZ 10003746 f i umodsys_lib_lib2d:umodsys.mod.2d.stdlib.obj
 0001:00002753       ?image_new@RImageFactory_Memory@stdlib@lib2d@modules@UModSys@@UAE?AU?$TRefObject@UIImage@lib2d@UModSys@@U?$TRefObjectFunc@UIImage@lib2d@UModSys@@@tl@3@@tl@5@ABUSImagePatchInfo@35@PBD@Z 10003753 f   umodsys_lib_lib2d:umodsys.mod.2d.stdlib.obj
 0001:000028a9       ??0RImageFactory_Memory@stdlib@lib2d@modules@UModSys@@QAE@PAUIModObject@base@4@ABUSParameters@core@4@@Z 100038a9 f   umodsys_lib_lib2d:umodsys.mod.2d.stdlib.obj
 0001:000028ed       ?get_max_cell_size@RMultiImage@stdlib@lib2d@modules@UModSys@@UBE?AU?$TVector2@H@math3d@5@XZ 100038ed f   umodsys_lib_lib2d:umodsys.mod.2d.stdlib.obj
 0001:000028ed       ?get_max_layer_size@RMultiImage@stdlib@lib2d@modules@UModSys@@UBE?AU?$TVector2@H@math3d@5@XZ 100038ed f   umodsys_lib_lib2d:umodsys.mod.2d.stdlib.obj
 0001:0000290f       ?get_fixed_cell_size@RMultiImage@stdlib@lib2d@modules@UModSys@@UBE?AU?$TVector2@H@math3d@5@XZ 1000390f f   umodsys_lib_lib2d:umodsys.mod.2d.stdlib.obj
 0001:0000292d       ?get_layer_count@RMultiImage@stdlib@lib2d@modules@UModSys@@UBEGXZ 1000392d f   umodsys_lib_lib2d:umodsys.mod.2d.stdlib.obj
 0001:0000293b       ?get_layer@RMultiImage@stdlib@lib2d@modules@UModSys@@UBEPAUIImage@35@G@Z 1000393b f   umodsys_lib_lib2d:umodsys.mod.2d.stdlib.obj
 0001:00002958       ?get_cell_count@RMultiImage@stdlib@lib2d@modules@UModSys@@UBEIXZ 10003958 f   umodsys_lib_lib2d:umodsys.mod.2d.stdlib.obj
 0001:00002965       ?get_cell@RMultiImage@stdlib@lib2d@modules@UModSys@@UBE_NIAAU?$TVector2@H@math3d@5@PAU675@PAG@Z 10003965 f   umodsys_lib_lib2d:umodsys.mod.2d.stdlib.obj
 0001:000029c3       ?get_cell@RMultiImage@stdlib@lib2d@modules@UModSys@@UBE_NIAAUSImageCellInfo@35@@Z 100039c3 f   umodsys_lib_lib2d:umodsys.mod.2d.stdlib.obj
 0001:000029e9       ?set_layer_count@RMultiImage@stdlib@lib2d@modules@UModSys@@UAE_NG@Z 100039e9 f   umodsys_lib_lib2d:umodsys.mod.2d.stdlib.obj
 0001:00002ac9       ?setup_fixed_cell@RMultiImage@stdlib@lib2d@modules@UModSys@@UAE_NHH@Z 10003ac9 f   umodsys_lib_lib2d:umodsys.mod.2d.stdlib.obj
 0001:00002aea       ?setup_variable_cell@RMultiImage@stdlib@lib2d@modules@UModSys@@UAE_NPBUSImageCellInfo@35@KK@Z 10003aea f   umodsys_lib_lib2d:umodsys.mod.2d.stdlib.obj
 0001:00002b5c       ??0RMultiImage@stdlib@lib2d@modules@UModSys@@QAE@PAUIModObject@base@4@ABUSParameters@core@4@@Z 10003b5c f   umodsys_lib_lib2d:umodsys.mod.2d.stdlib.obj
 0001:00002c03       ??_ERMultiImage@stdlib@lib2d@modules@UModSys@@UAEPAXI@Z 10003c03 f i  CIL library: CIL module
 0001:00002c03       ??_GRMultiImage@stdlib@lib2d@modules@UModSys@@UAEPAXI@Z 10003c03 f i umodsys_lib_lib2d:umodsys.mod.2d.stdlib.obj
 0001:00002c67       ?do_open@RModuleReg@stdlib@lib2d@modules@UModSys@@UAE_NXZ 10003c67 f i umodsys_lib_lib2d:umodsys.mod.2d.stdlib.obj
 0001:00002cb5       ?do_close@RModuleReg@stdlib@lib2d@modules@UModSys@@UAE_NXZ 10003cb5 f i umodsys_lib_lib2d:umodsys.mod.2d.stdlib.obj
 0001:00002cf0       ?get_module@RGenerator@stdlib@lib2d@modules@UModSys@@UBEPAUIModule@base@5@XZ 10003cf0 f   umodsys_lib_lib2d:umodsys.mod.2d.stdlib.obj
 0001:00002cf6       ?mod_inc@RGenerator@stdlib@lib2d@modules@UModSys@@UBE_NXZ 10003cf6 f   umodsys_lib_lib2d:umodsys.mod.2d.stdlib.obj
 0001:00002d01       ?mod_dec@RGenerator@stdlib@lib2d@modules@UModSys@@UBE_NXZ 10003d01 f   umodsys_lib_lib2d:umodsys.mod.2d.stdlib.obj
 0001:00002d0c       ?s_holder@RGenerator@stdlib@lib2d@modules@UModSys@@SAAAU?$TTypeStaticHolder@URGenerator@stdlib@lib2d@modules@UModSys@@@tl@5@XZ 10003d0c f   umodsys_lib_lib2d:umodsys.mod.2d.stdlib.obj
 0001:00002d3e       ??1?$TDynarrayDynamic@USImageCellInfo@lib2d@UModSys@@U?$TAllocator@USIMemAlloc@core@UModSys@@USCountCalcPower2@23@@tl@3@@tl@UModSys@@QAE@XZ 10003d3e f i umodsys_lib_lib2d:umodsys.mod.2d.stdlib.obj
 0001:00002d43       ?Resize@?$TDynarray@U?$TDynarrayHolderDynamic@USImageCellInfo@lib2d@UModSys@@U?$TAllocator@USIMemAlloc@core@UModSys@@USCountCalcPower2@23@@tl@3@@tl@UModSys@@@tl@UModSys@@QAE_NI@Z 10003d43 f i umodsys_lib_lib2d:umodsys.mod.2d.stdlib.obj
 0001:00002d70       ??1?$TDynarrayDynamic@U?$TRefObject@UIImage@lib2d@UModSys@@U?$TRefObjectFunc@UIImage@lib2d@UModSys@@@tl@3@@tl@UModSys@@U?$TAllocator@USIMemAlloc@core@UModSys@@USCountCalcPower2@23@@23@@tl@UModSys@@QAE@XZ 10003d70 f i umodsys_lib_lib2d:umodsys.mod.2d.stdlib.obj
 0001:00002d75       ??1?$TDynarray@U?$TDynarrayHolderDynamic@USImageCellInfo@lib2d@UModSys@@U?$TAllocator@USIMemAlloc@core@UModSys@@USCountCalcPower2@23@@tl@3@@tl@UModSys@@@tl@UModSys@@QAE@XZ 10003d75 f i umodsys_lib_lib2d:umodsys.mod.2d.stdlib.obj
 0001:00002dd1       ??1?$TDynarray@U?$TDynarrayHolderDynamic@U?$TRefObject@UIImage@lib2d@UModSys@@U?$TRefObjectFunc@UIImage@lib2d@UModSys@@@tl@3@@tl@UModSys@@U?$TAllocator@USIMemAlloc@core@UModSys@@USCountCalcPower2@23@@23@@tl@UModSys@@@tl@UModSys@@QAE@XZ 10003dd1 f i umodsys_lib_lib2d:umodsys.mod.2d.stdlib.obj
 0001:00002e14       ??_GRGenerator@test1@test@modules@UModSys@@UAEPAXI@Z 10003e14 f i plugin_test1.obj
 0001:00002e14       ??_ERGenerator@test1@test@modules@UModSys@@UAEPAXI@Z 10003e14 f i  CIL library: CIL module
 0001:00002e14       ??_GRImageFactory_Memory@stdlib@lib2d@modules@UModSys@@UAEPAXI@Z 10003e14 f i umodsys_lib_lib2d:umodsys.mod.2d.stdlib.obj
 0001:00002e14       ??_GRGenerator@SDL_GL@ui@modules@UModSys@@UAEPAXI@Z 10003e14 f i umodsys_lib_libui:umodsys.mod.ui.SDL_GL.obj
 0001:00002e14       ??_ERImageFactory_Memory@stdlib@lib2d@modules@UModSys@@UAEPAXI@Z 10003e14 f i  CIL library: CIL module
 0001:00002e14       ??_GRBinArchiveFrameClient_ZIP@zlib@media@modules@UModSys@@UAEPAXI@Z 10003e14 f i umodsys_lib_libmedia:umodsys.mod.media.zlib.obj
 0001:00002e14       ??_GRGenerator@serialize_json@media@modules@UModSys@@UAEPAXI@Z 10003e14 f i umodsys_lib_libmedia:umodsys.mod.media.serialize_json.obj
 0001:00002e14       ??_ERGenerator@SDL_GL@ui@modules@UModSys@@UAEPAXI@Z 10003e14 f i  CIL library: CIL module
 0001:00002e14       ??_GRGenerator@stdlib@lib2d@modules@UModSys@@UAEPAXI@Z 10003e14 f i umodsys_lib_lib2d:umodsys.mod.2d.stdlib.obj
 0001:00002e14       ??_ERGenerator@images_std@media@modules@UModSys@@UAEPAXI@Z 10003e14 f i  CIL library: CIL module
 0001:00002e14       ??_GRGenerator@frames@ui@modules@UModSys@@UAEPAXI@Z 10003e14 f i umodsys_lib_libui:umodsys.mod.ui.frames.obj
 0001:00002e14       ??_ERBinArchiveFrameClient_ZIP@zlib@media@modules@UModSys@@UAEPAXI@Z 10003e14 f i  CIL library: CIL module
 0001:00002e14       ??_ERGenerator@SDL_core@ui@modules@UModSys@@UAEPAXI@Z 10003e14 f i  CIL library: CIL module
 0001:00002e14       ??_GRGenerator@images_std@media@modules@UModSys@@UAEPAXI@Z 10003e14 f i umodsys_lib_libmedia:umodsys.mod.media.images_std.obj
 0001:00002e14       ??_ERGenerator@serialize_json@media@modules@UModSys@@UAEPAXI@Z 10003e14 f i  CIL library: CIL module
 0001:00002e14       ??_ERGenerator@frames@ui@modules@UModSys@@UAEPAXI@Z 10003e14 f i  CIL library: CIL module
 0001:00002e14       ??_EIRoot@core@UModSys@@UAEPAXI@Z 10003e14 f i  CIL library: CIL module
 0001:00002e14       ??_GRGenerator@SDL_core@ui@modules@UModSys@@UAEPAXI@Z 10003e14 f i umodsys_lib_libui:umodsys.mod.ui.SDL_core.obj
 0001:00002e14       ??_ERGenerator@zlib@media@modules@UModSys@@UAEPAXI@Z 10003e14 f i  CIL library: CIL module
 0001:00002e14       ??_GRGenerator@zlib@media@modules@UModSys@@UAEPAXI@Z 10003e14 f i umodsys_lib_libmedia:umodsys.mod.media.zlib.obj
 0001:00002e14       ??_ERGenerator@stdlib@lib2d@modules@UModSys@@UAEPAXI@Z 10003e14 f i  CIL library: CIL module
 0001:00002e14       ??_GIRoot@core@UModSys@@UAEPAXI@Z 10003e14 f i plugin_test1.obj
 0001:00002e31       ?ResizeRel@?$TDynarray@U?$TDynarrayHolderDynamic@U?$TRefObject@UIImage@lib2d@UModSys@@U?$TRefObjectFunc@UIImage@lib2d@UModSys@@@tl@3@@tl@UModSys@@U?$TAllocator@USIMemAlloc@core@UModSys@@USCountCalcPower2@23@@23@@tl@UModSys@@@tl@UModSys@@QAE_NH@Z 10003e31 f i umodsys_lib_lib2d:umodsys.mod.2d.stdlib.obj
 0001:00002eb1       ??$t_gen_param@URImage_Memory@stdlib@lib2d@modules@UModSys@@URGenerator@2345@@IGenerator@base@UModSys@@IAE_NPAURGenerator@stdlib@lib2d@modules@2@AAU?$TRefObject@UIRefObject@core@UModSys@@U?$TRefObjectFunc@UIRefObject@core@UModSys@@@tl@3@@tl@2@PBUSUniquePointerInfo@core@2@ABUSParameters@core@2@@Z 10003eb1 f i umodsys_lib_lib2d:umodsys.mod.2d.stdlib.obj
 0001:00002f43       ??$t_gen_param@URImageFactory_Memory@stdlib@lib2d@modules@UModSys@@URGenerator@2345@@IGenerator@base@UModSys@@IAE_NPAURGenerator@stdlib@lib2d@modules@2@AAU?$TRefObject@UIRefObject@core@UModSys@@U?$TRefObjectFunc@UIRefObject@core@UModSys@@@tl@3@@tl@2@PBUSUniquePointerInfo@core@2@ABUSParameters@core@2@@Z 10003f43 f i umodsys_lib_lib2d:umodsys.mod.2d.stdlib.obj
 0001:00002fd5       ??$t_gen_param@URMultiImage@stdlib@lib2d@modules@UModSys@@URGenerator@2345@@IGenerator@base@UModSys@@IAE_NPAURGenerator@stdlib@lib2d@modules@2@AAU?$TRefObject@UIRefObject@core@UModSys@@U?$TRefObjectFunc@UIRefObject@core@UModSys@@@tl@3@@tl@2@PBUSUniquePointerInfo@core@2@ABUSParameters@core@2@@Z 10003fd5 f i umodsys_lib_lib2d:umodsys.mod.2d.stdlib.obj
 0001:0000307d       ??$ValidateConstruction@UIImage@lib2d@UModSys@@URImage_Memory@stdlib@2modules@3@@core@UModSys@@YA_NAAU?$TRefObject@UIImage@lib2d@UModSys@@U?$TRefObjectFunc@UIImage@lib2d@UModSys@@@tl@3@@tl@1@PAURImage_Memory@stdlib@lib2d@modules@1@@Z 1000407d f i umodsys_lib_lib2d:umodsys.mod.2d.stdlib.obj
 0001:000030be       ?remove@WeakPointer@IRefObject@core@UModSys@@QAEXXZ 100040be f i umodsys_lib_libui:umodsys.mod.ui.SDL_GL.obj
 0001:000030e4       ?get@SParameters@core@UModSys@@QBE_NPBDAAPBD@Z 100040e4 f i umodsys_lib_libui:umodsys.mod.ui.SDL_GL.obj
 0001:000030ff       ?get@SParameters@core@UModSys@@QBE_NPBDAAH@Z 100040ff f i umodsys_lib_libui:umodsys.mod.ui.SDL_GL.obj
 0001:0000311a       ?check_ext@SGLFuncsBase@SDL_GL@ui@modules@UModSys@@QAE_NPBD@Z 1000411a f i umodsys_lib_libui:umodsys.mod.ui.SDL_GL.obj
 0001:0000312d       ?set_blend@SGLFuncs@SDL_GL@ui@modules@UModSys@@QBEX_N@Z 1000412d f i umodsys_lib_libui:umodsys.mod.ui.SDL_GL.obj
 0001:00003159       ?set_blend@SGLFuncs@SDL_GL@ui@modules@UModSys@@QBEXII@Z 10004159 f i umodsys_lib_libui:umodsys.mod.ui.SDL_GL.obj
 0001:00003183       ?set_stage@SGLFuncs@SDL_GL@ui@modules@UModSys@@QBEXH@Z 10004183 f i umodsys_lib_libui:umodsys.mod.ui.SDL_GL.obj
 0001:000031b6       ?set_tex2d@SGLFuncs@SDL_GL@ui@modules@UModSys@@QBEX_N@Z 100041b6 f i umodsys_lib_libui:umodsys.mod.ui.SDL_GL.obj
 0001:000031e2       ?set_bound@SGLFuncs@SDL_GL@ui@modules@UModSys@@QBEXI@Z 100041e2 f i umodsys_lib_libui:umodsys.mod.ui.SDL_GL.obj
 0001:00003207       ?set_ctc@SGLFuncsLegacy@SDL_GL@ui@modules@UModSys@@QBEX_N@Z 10004207 f i umodsys_lib_libui:umodsys.mod.ui.SDL_GL.obj
 0001:0000322f       ?set_composite@SGLFuncsLegacy@SDL_GL@ui@modules@UModSys@@QBEXH@Z 1000422f f i umodsys_lib_libui:umodsys.mod.ui.SDL_GL.obj
 0001:00003257       ?set_composite_all@SGLFuncsLegacy@SDL_GL@ui@modules@UModSys@@QBEXH@Z 10004257 f i umodsys_lib_libui:umodsys.mod.ui.SDL_GL.obj
 0001:000032b8       ?force@TextureInfo@SGLFuncs@SDL_GL@ui@modules@UModSys@@QBEXABU23456@@Z 100042b8 f i umodsys_lib_libui:umodsys.mod.ui.SDL_GL.obj
 0001:000032fc       ?crebind@STextureGL@SDL_GL@ui@modules@UModSys@@QAEX_N@Z 100042fc f i umodsys_lib_libui:umodsys.mod.ui.SDL_GL.obj
 0001:00003329       ?root_get_interface_info@RKeyboardController@SDL_GL@ui@modules@UModSys@@UBEABUSUniquePointerInfo@core@5@XZ 10004329 f i umodsys_lib_libui:umodsys.mod.ui.SDL_GL.obj
 0001:0000332f       ?root_get_interface_type@RKeyboardController@SDL_GL@ui@modules@UModSys@@UBEPBUSUniquePointerInfo@core@5@XZ 1000432f f i umodsys_lib_libui:umodsys.mod.ui.SDL_GL.obj
 0001:00003335       ?root_get_other_interface@RKeyboardController@SDL_GL@ui@modules@UModSys@@UAEPAUIRoot@core@5@PBUSUniquePointerInfo@75@@Z 10004335 f i umodsys_lib_libui:umodsys.mod.ui.SDL_GL.obj
 0001:00003335       ?root_get_other_interface@RKeyboardController@SDL_GL@ui@modules@UModSys@@UBEPBUIRoot@core@5@PBUSUniquePointerInfo@75@@Z 10004335 f i umodsys_lib_libui:umodsys.mod.ui.SDL_GL.obj
 0001:00003356       ?root_is_interface_supported@RKeyboardController@SDL_GL@ui@modules@UModSys@@UBE_NPBUSUniquePointerInfo@core@5@@Z 10004356 f i umodsys_lib_libui:umodsys.mod.ui.SDL_GL.obj
 0001:0000337d       ?root_get_interface_info@RMouseController@SDL_GL@ui@modules@UModSys@@UBEABUSUniquePointerInfo@core@5@XZ 1000437d f i umodsys_lib_libui:umodsys.mod.ui.SDL_GL.obj
 0001:00003383       ?root_get_interface_type@RMouseController@SDL_GL@ui@modules@UModSys@@UBEPBUSUniquePointerInfo@core@5@XZ 10004383 f i umodsys_lib_libui:umodsys.mod.ui.SDL_GL.obj
 0001:00003389       ?root_get_other_interface@RMouseController@SDL_GL@ui@modules@UModSys@@UBEPBUIRoot@core@5@PBUSUniquePointerInfo@75@@Z 10004389 f i umodsys_lib_libui:umodsys.mod.ui.SDL_GL.obj
 0001:00003389       ?root_get_other_interface@RMouseController@SDL_GL@ui@modules@UModSys@@UAEPAUIRoot@core@5@PBUSUniquePointerInfo@75@@Z 10004389 f i umodsys_lib_libui:umodsys.mod.ui.SDL_GL.obj
 0001:000033aa       ?root_is_interface_supported@RMouseController@SDL_GL@ui@modules@UModSys@@UBE_NPBUSUniquePointerInfo@core@5@@Z 100043aa f i umodsys_lib_libui:umodsys.mod.ui.SDL_GL.obj
 0001:000033d1       ?_root_is_interface_supported@RTerminal@SDL_GL@ui@modules@UModSys@@SA_NPBUSUniquePointerInfo@core@5@@Z 100043d1 f i umodsys_lib_libui:umodsys.mod.ui.SDL_GL.obj
 0001:000033f1       ?root_get_interface_info@RTerminal@SDL_GL@ui@modules@UModSys@@UBEABUSUniquePointerInfo@core@5@XZ 100043f1 f i umodsys_lib_libui:umodsys.mod.ui.SDL_GL.obj
 0001:000033f7       ?root_get_interface_type@RTerminal@SDL_GL@ui@modules@UModSys@@UBEPBUSUniquePointerInfo@core@5@XZ 100043f7 f i umodsys_lib_libui:umodsys.mod.ui.SDL_GL.obj
 0001:000033fd       ?root_get_other_interface@RTerminal@SDL_GL@ui@modules@UModSys@@UAEPAUIRoot@core@5@PBUSUniquePointerInfo@75@@Z 100043fd f i umodsys_lib_libui:umodsys.mod.ui.SDL_GL.obj
 0001:000033fd       ?root_get_other_interface@RTerminal@SDL_GL@ui@modules@UModSys@@UBEPBUIRoot@core@5@PBUSUniquePointerInfo@75@@Z 100043fd f i umodsys_lib_libui:umodsys.mod.ui.SDL_GL.obj
 0001:0000341e       ?root_is_interface_supported@RTerminal@SDL_GL@ui@modules@UModSys@@UBE_NPBUSUniquePointerInfo@core@5@@Z 1000441e f i umodsys_lib_libui:umodsys.mod.ui.SDL_GL.obj
 0001:0000342a       ?suicide@RBinArchiveFrameClient_ZIP@zlib@media@modules@UModSys@@UAEXXZ 1000442a f i umodsys_lib_libmedia:umodsys.mod.media.zlib.obj
 0001:0000342a       ?suicide@RImage_Memory@stdlib@lib2d@modules@UModSys@@UAEXXZ 1000442a f i umodsys_lib_lib2d:umodsys.mod.2d.stdlib.obj
 0001:0000342a       ?suicide@RImageFactory_Memory@stdlib@lib2d@modules@UModSys@@UAEXXZ 1000442a f i umodsys_lib_lib2d:umodsys.mod.2d.stdlib.obj
 0001:0000342a       ?suicide@RTerminal@SDL_GL@ui@modules@UModSys@@UAEXXZ 1000442a f i umodsys_lib_libui:umodsys.mod.ui.SDL_GL.obj
 0001:0000342a       ?suicide@RSerializeReader@serialize_json@media@modules@UModSys@@UAEXXZ 1000442a f i umodsys_lib_libmedia:umodsys.mod.media.serialize_json.obj
 0001:0000342a       ?suicide@RMultiImage@stdlib@lib2d@modules@UModSys@@UAEXXZ 1000442a f i umodsys_lib_lib2d:umodsys.mod.2d.stdlib.obj
 0001:0000342a       ?suicide@RTerminal@SDL_core@ui@modules@UModSys@@UAEXXZ 1000442a f i umodsys_lib_libui:umodsys.mod.ui.SDL_core.obj
 0001:00003467       ?root_get_interface_info@RMultiImage2D_SDL_ttf@SDL_GL@ui@modules@UModSys@@UBEABUSUniquePointerInfo@core@5@XZ 10004467 f i umodsys_lib_libui:umodsys.mod.ui.SDL_GL.obj
 0001:0000346d       ?root_get_interface_type@RMultiImage2D_SDL_ttf@SDL_GL@ui@modules@UModSys@@UBEPBUSUniquePointerInfo@core@5@XZ 1000446d f i umodsys_lib_libui:umodsys.mod.ui.SDL_GL.obj
 0001:00003473       ?root_get_other_interface@RMultiImage2D_SDL_ttf@SDL_GL@ui@modules@UModSys@@UBEPBUIRoot@core@5@PBUSUniquePointerInfo@75@@Z 10004473 f i umodsys_lib_libui:umodsys.mod.ui.SDL_GL.obj
 0001:00003473       ?root_get_other_interface@RMultiImage2D_SDL_ttf@SDL_GL@ui@modules@UModSys@@UAEPAUIRoot@core@5@PBUSUniquePointerInfo@75@@Z 10004473 f i umodsys_lib_libui:umodsys.mod.ui.SDL_GL.obj
 0001:00003494       ?root_is_interface_supported@RMultiImage2D_SDL_ttf@SDL_GL@ui@modules@UModSys@@UBE_NPBUSUniquePointerInfo@core@5@@Z 10004494 f i umodsys_lib_libui:umodsys.mod.ui.SDL_GL.obj
 0001:000034bb       ??1Glyph@RMultiImage2D_SDL_ttf@SDL_GL@ui@modules@UModSys@@QAE@XZ 100044bb f i umodsys_lib_libui:umodsys.mod.ui.SDL_GL.obj
 0001:000034f3       ?get_max_layer_size@RMultiImage2D_SDL_ttf@SDL_GL@ui@modules@UModSys@@UBE?AU?$TVector2@H@math3d@5@XZ 100044f3 f i umodsys_lib_libui:umodsys.mod.ui.SDL_GL.obj
 0001:000034f3       ?get_max_cell_size@RMultiImage2D_SDL_ttf@SDL_core@ui@modules@UModSys@@UBE?AU?$TVector2@H@math3d@5@XZ 100044f3 f i umodsys_lib_libui:umodsys.mod.ui.SDL_core.obj
 0001:000034f3       ?get_max_layer_size@RMultiImage2D_SDL_ttf@SDL_core@ui@modules@UModSys@@UBE?AU?$TVector2@H@math3d@5@XZ 100044f3 f i umodsys_lib_libui:umodsys.mod.ui.SDL_core.obj
 0001:000034f3       ?get_max_cell_size@RMultiImage2D_SDL_ttf@SDL_GL@ui@modules@UModSys@@UBE?AU?$TVector2@H@math3d@5@XZ 100044f3 f i umodsys_lib_libui:umodsys.mod.ui.SDL_GL.obj
 0001:000034f3       ?get_fixed_cell_size@RMultiImage2D_SDL_ttf@SDL_core@ui@modules@UModSys@@UBE?AU?$TVector2@H@math3d@5@XZ 100044f3 f i umodsys_lib_libui:umodsys.mod.ui.SDL_core.obj
 0001:000034f3       ?get_fixed_cell_size@RMultiImage2D_SDL_ttf@SDL_GL@ui@modules@UModSys@@UBE?AU?$TVector2@H@math3d@5@XZ 100044f3 f i umodsys_lib_libui:umodsys.mod.ui.SDL_GL.obj
 0001:000034f3       ?image_get_maxsize@RImageFactory_Memory@stdlib@lib2d@modules@UModSys@@UBE?AU?$TVector2@H@math3d@5@XZ 100044f3 f i umodsys_lib_lib2d:umodsys.mod.2d.stdlib.obj
 0001:00003501       ?output_attach_3d@RCollector@frames@ui@modules@UModSys@@UAE_NPAUIRenderDriver@lib3d@5@H@Z 10004501 f i umodsys_lib_libui:umodsys.mod.ui.frames.obj
 0001:00003501       ?set_hint@RMultiImage@stdlib@lib2d@modules@UModSys@@UAE_NPBD0@Z 10004501 f i umodsys_lib_lib2d:umodsys.mod.2d.stdlib.obj
 0001:00003501       ?get_cell@RMultiImage2D_SDL_ttf@SDL_GL@ui@modules@UModSys@@UBE_NIAAUSImageCellInfo@lib2d@5@@Z 10004501 f i umodsys_lib_libui:umodsys.mod.ui.SDL_GL.obj
 0001:00003501       ?setup_fixed_cell@RMultiImage2D_SDL_ttf@SDL_core@ui@modules@UModSys@@UAE_NHH@Z 10004501 f i umodsys_lib_libui:umodsys.mod.ui.SDL_core.obj
 0001:00003501       ?mouse_setposition@RMouseController@SDL_core@ui@modules@UModSys@@UAE_NHH@Z 10004501 f i umodsys_lib_libui:umodsys.mod.ui.SDL_core.obj
 0001:00003501       ?set_repeater@RFrame_Common@frames@ui@modules@UModSys@@UAE_NHH@Z 10004501 f i umodsys_lib_libui:umodsys.mod.ui.frames.obj
 0001:00003501       ?setup_setlight@RRenderDriver3D@SDL_GL@ui@modules@UModSys@@UAE_NH_N@Z 10004501 f i umodsys_lib_libui:umodsys.mod.ui.SDL_GL.obj
 0001:00003501       ?setup_fixed_cell@RMultiImage2D_SDL_ttf@SDL_GL@ui@modules@UModSys@@UAE_NHH@Z 10004501 f i umodsys_lib_libui:umodsys.mod.ui.SDL_GL.obj
 0001:00003501       ?map_2d_to_3d@RRenderDriver3D@SDL_GL@ui@modules@UModSys@@UAE_NAAU?$TVector3@N@math3d@5@ABU?$TVector2@H@75@@Z 10004501 f i umodsys_lib_libui:umodsys.mod.ui.SDL_GL.obj
 0001:00003501       ?key_setrepeat@RKeyboardController@SDL_GL@ui@modules@UModSys@@UAE_NMM@Z 10004501 f i umodsys_lib_libui:umodsys.mod.ui.SDL_GL.obj
 0001:00003501       ?filter_load@RMediaFilter@images_std@media@modules@UModSys@@UAE_NABUSInfo@IBinObjFilter@libmedia@5@AAU?$TRefObject@UIRefObject@core@UModSys@@U?$TRefObjectFunc@UIRefObject@core@UModSys@@@tl@3@@tl@5@@Z 10004501 f i umodsys_lib_libmedia:umodsys.mod.media.images_std.obj
 0001:00003501       ?map_3d_to_2d@RRenderDriver3D@SDL_GL@ui@modules@UModSys@@UAE_NAAU?$TVector2@H@math3d@5@ABU?$TVector3@N@75@@Z 10004501 f i umodsys_lib_libui:umodsys.mod.ui.SDL_GL.obj
 0001:00003501       ?set_parameters@RRenderDriver2D@SDL_core@ui@modules@UModSys@@UAE_NPBDABUSParameters@core@5@@Z 10004501 f i umodsys_lib_libui:umodsys.mod.ui.SDL_core.obj
 0001:00003501       ?mouse_setposition@RMouseController@SDL_GL@ui@modules@UModSys@@UAE_NHH@Z 10004501 f i umodsys_lib_libui:umodsys.mod.ui.SDL_GL.obj
 0001:00003501       ?key_setrepeat@RKeyboardController@SDL_core@ui@modules@UModSys@@UAE_NMM@Z 10004501 f i umodsys_lib_libui:umodsys.mod.ui.SDL_core.obj
 0001:00003501       ?set_hint@RMultiImage2D_SDL_ttf@SDL_GL@ui@modules@UModSys@@UAE_NPBD0@Z 10004501 f i umodsys_lib_libui:umodsys.mod.ui.SDL_GL.obj
 0001:00003501       ?get_cell@RMultiImage2D_SDL_ttf@SDL_core@ui@modules@UModSys@@UBE_NIAAUSImageCellInfo@lib2d@5@@Z 10004501 f i umodsys_lib_libui:umodsys.mod.ui.SDL_core.obj
 0001:00003501       ?map_3d_to_2d@RRenderDriver3D@SDL_GL@ui@modules@UModSys@@UAE_NAAU?$TVector2@H@math3d@5@ABU?$TVector2@M@75@@Z 10004501 f i umodsys_lib_libui:umodsys.mod.ui.SDL_GL.obj
 0001:00003501       ?set_hint@RMultiImage2D_SDL_ttf@SDL_core@ui@modules@UModSys@@UAE_NPBD0@Z 10004501 f i umodsys_lib_libui:umodsys.mod.ui.SDL_core.obj
 0001:00003501       ?set_parameters@RRenderDriver3D@SDL_GL@ui@modules@UModSys@@UAE_NPBDABUSParameters@core@5@@Z 10004501 f i umodsys_lib_libui:umodsys.mod.ui.SDL_GL.obj
 0001:00003506       ?root_get_interface_info@RRenderDriver3D@SDL_GL@ui@modules@UModSys@@UBEABUSUniquePointerInfo@core@5@XZ 10004506 f i umodsys_lib_libui:umodsys.mod.ui.SDL_GL.obj
 0001:0000350c       ?root_get_interface_type@RRenderDriver3D@SDL_GL@ui@modules@UModSys@@UBEPBUSUniquePointerInfo@core@5@XZ 1000450c f i umodsys_lib_libui:umodsys.mod.ui.SDL_GL.obj
 0001:00003512       ?root_get_other_interface@RRenderDriver3D@SDL_GL@ui@modules@UModSys@@UBEPBUIRoot@core@5@PBUSUniquePointerInfo@75@@Z 10004512 f i umodsys_lib_libui:umodsys.mod.ui.SDL_GL.obj
 0001:00003512       ?root_get_other_interface@RRenderDriver3D@SDL_GL@ui@modules@UModSys@@UAEPAUIRoot@core@5@PBUSUniquePointerInfo@75@@Z 10004512 f i umodsys_lib_libui:umodsys.mod.ui.SDL_GL.obj
 0001:0000353b       ?root_is_interface_supported@RRenderDriver3D@SDL_GL@ui@modules@UModSys@@UBE_NPBUSUniquePointerInfo@core@5@@Z 1000453b f i umodsys_lib_libui:umodsys.mod.ui.SDL_GL.obj
 0001:0000356a       ?is_phmv@RRenderDriver3D@SDL_GL@ui@modules@UModSys@@QAE_NW4ePhaseMode@2345@@Z 1000456a f i umodsys_lib_libui:umodsys.mod.ui.SDL_GL.obj
 0001:000035a5       ?root_get_interface_info@RTerminalX@SDL_GL@ui@modules@UModSys@@UBEABUSUniquePointerInfo@core@5@XZ 100045a5 f i umodsys_lib_libui:umodsys.mod.ui.SDL_GL.obj
 0001:000035ab       ?root_get_interface_type@RTerminalX@SDL_GL@ui@modules@UModSys@@UBEPBUSUniquePointerInfo@core@5@XZ 100045ab f i umodsys_lib_libui:umodsys.mod.ui.SDL_GL.obj
 0001:000035b1       ?root_get_other_interface@RTerminalX@SDL_GL@ui@modules@UModSys@@UAEPAUIRoot@core@5@PBUSUniquePointerInfo@75@@Z 100045b1 f i umodsys_lib_libui:umodsys.mod.ui.SDL_GL.obj
 0001:000035b1       ?root_get_other_interface@RTerminalX@SDL_GL@ui@modules@UModSys@@UBEPBUIRoot@core@5@PBUSUniquePointerInfo@75@@Z 100045b1 f i umodsys_lib_libui:umodsys.mod.ui.SDL_GL.obj
 0001:000035d2       ?root_is_interface_supported@RTerminalX@SDL_GL@ui@modules@UModSys@@UBE_NPBUSUniquePointerInfo@core@5@@Z 100045d2 f i umodsys_lib_libui:umodsys.mod.ui.SDL_GL.obj
 0001:000035f1       ?root_get_interface_info@RVertexArray@SDL_GL@ui@modules@UModSys@@UBEABUSUniquePointerInfo@core@5@XZ 100045f1 f i umodsys_lib_libui:umodsys.mod.ui.SDL_GL.obj
 0001:000035f7       ?root_get_interface_type@RVertexArray@SDL_GL@ui@modules@UModSys@@UBEPBUSUniquePointerInfo@core@5@XZ 100045f7 f i umodsys_lib_libui:umodsys.mod.ui.SDL_GL.obj
 0001:000035fd       ?root_get_other_interface@RVertexArray@SDL_GL@ui@modules@UModSys@@UAEPAUIRoot@core@5@PBUSUniquePointerInfo@75@@Z 100045fd f i umodsys_lib_libui:umodsys.mod.ui.SDL_GL.obj
 0001:000035fd       ?root_get_other_interface@RVertexArray@SDL_GL@ui@modules@UModSys@@UBEPBUIRoot@core@5@PBUSUniquePointerInfo@75@@Z 100045fd f i umodsys_lib_libui:umodsys.mod.ui.SDL_GL.obj
 0001:0000361e       ?root_is_interface_supported@RVertexArray@SDL_GL@ui@modules@UModSys@@UBE_NPBUSUniquePointerInfo@core@5@@Z 1000461e f i umodsys_lib_libui:umodsys.mod.ui.SDL_GL.obj
 0001:00003645       ?get_generated_names@RGenerator@SDL_GL@ui@modules@UModSys@@UBEHAAUSUniquePtrList@core@5@@Z 10004645 f i umodsys_lib_libui:umodsys.mod.ui.SDL_GL.obj
 0001:0000365e       ?get_generated_types@RGenerator@SDL_GL@ui@modules@UModSys@@UBEHAAUSUniquePtrList@core@5@PBUSUniquePointerInfo@75@@Z 1000465e f i umodsys_lib_libui:umodsys.mod.ui.SDL_GL.obj
 0001:0000369c       ?generate@RGenerator@SDL_GL@ui@modules@UModSys@@UAE_NAAU?$TRefObject@UIRefObject@core@UModSys@@U?$TRefObjectFunc@UIRefObject@core@UModSys@@@tl@3@@tl@5@PBUSUniquePointerInfo@core@5@ABUSParameters@95@@Z 1000469c f i umodsys_lib_libui:umodsys.mod.ui.SDL_GL.obj
 0001:000036bd       ?root_get_interface_info@RGenerator@SDL_GL@ui@modules@UModSys@@UBEABUSUniquePointerInfo@core@5@XZ 100046bd f i umodsys_lib_libui:umodsys.mod.ui.SDL_GL.obj
 0001:000036c3       ?root_get_interface_type@RGenerator@SDL_GL@ui@modules@UModSys@@UBEPBUSUniquePointerInfo@core@5@XZ 100046c3 f i umodsys_lib_libui:umodsys.mod.ui.SDL_GL.obj
 0001:000036c9       ?root_get_other_interface@RGenerator@SDL_GL@ui@modules@UModSys@@UBEPBUIRoot@core@5@PBUSUniquePointerInfo@75@@Z 100046c9 f i umodsys_lib_libui:umodsys.mod.ui.SDL_GL.obj
 0001:000036c9       ?root_get_other_interface@RGenerator@SDL_GL@ui@modules@UModSys@@UAEPAUIRoot@core@5@PBUSUniquePointerInfo@75@@Z 100046c9 f i umodsys_lib_libui:umodsys.mod.ui.SDL_GL.obj
 0001:000036e2       ?root_is_interface_supported@RGenerator@SDL_GL@ui@modules@UModSys@@UBE_NPBUSUniquePointerInfo@core@5@@Z 100046e2 f i umodsys_lib_libui:umodsys.mod.ui.SDL_GL.obj
 0001:00003701       ?ref_weak@RGenerator@images_std@media@modules@UModSys@@UBE_NAAUWeakPointer@IRefObject@core@5@@Z 10004701 f i umodsys_lib_libmedia:umodsys.mod.media.images_std.obj
 0001:00003701       ?ref_weak@RGenerator@stdlib@lib2d@modules@UModSys@@UBE_NAAUWeakPointer@IRefObject@core@5@@Z 10004701 f i umodsys_lib_lib2d:umodsys.mod.2d.stdlib.obj
 0001:00003701       ?ref_weak@RGenerator@SDL_GL@ui@modules@UModSys@@UBE_NAAUWeakPointer@IRefObject@core@5@@Z 10004701 f i umodsys_lib_libui:umodsys.mod.ui.SDL_GL.obj
 0001:00003701       ?ref_weak@RGenerator@serialize_json@media@modules@UModSys@@UBE_NAAUWeakPointer@IRefObject@core@5@@Z 10004701 f i umodsys_lib_libmedia:umodsys.mod.media.serialize_json.obj
 0001:00003701       ?ref_weak@RSerializeReader@serialize_json@media@modules@UModSys@@UBE_NAAUWeakPointer@IRefObject@core@5@@Z 10004701 f i umodsys_lib_libmedia:umodsys.mod.media.serialize_json.obj
 0001:00003701       ?ref_weak@RTerminal@SDL_GL@ui@modules@UModSys@@UBE_NAAUWeakPointer@IRefObject@core@5@@Z 10004701 f i umodsys_lib_libui:umodsys.mod.ui.SDL_GL.obj
 0001:00003701       ?ref_weak@RGenerator@frames@ui@modules@UModSys@@UBE_NAAUWeakPointer@IRefObject@core@5@@Z 10004701 f i umodsys_lib_libui:umodsys.mod.ui.frames.obj
 0001:00003701       ?ref_weak@RMultiImage2D_SDL_ttf@SDL_GL@ui@modules@UModSys@@UBE_NAAUWeakPointer@IRefObject@core@5@@Z 10004701 f i umodsys_lib_libui:umodsys.mod.ui.SDL_GL.obj
 0001:00003701       ?ref_weak@RImage_Memory@stdlib@lib2d@modules@UModSys@@UBE_NAAUWeakPointer@IRefObject@core@5@@Z 10004701 f i umodsys_lib_lib2d:umodsys.mod.2d.stdlib.obj
 0001:00003701       ?ref_weak@RMultiImage@stdlib@lib2d@modules@UModSys@@UBE_NAAUWeakPointer@IRefObject@core@5@@Z 10004701 f i umodsys_lib_lib2d:umodsys.mod.2d.stdlib.obj
 0001:00003701       ?ref_weak@RTerminal@SDL_core@ui@modules@UModSys@@UBE_NAAUWeakPointer@IRefObject@core@5@@Z 10004701 f i umodsys_lib_libui:umodsys.mod.ui.SDL_core.obj
 0001:00003701       ?ref_weak@RBinArchiveFrameClient_ZIP@zlib@media@modules@UModSys@@UBE_NAAUWeakPointer@IRefObject@core@5@@Z 10004701 f i umodsys_lib_libmedia:umodsys.mod.media.zlib.obj
 0001:00003701       ?ref_weak@RImageFactory_Memory@stdlib@lib2d@modules@UModSys@@UBE_NAAUWeakPointer@IRefObject@core@5@@Z 10004701 f i umodsys_lib_lib2d:umodsys.mod.2d.stdlib.obj
 0001:00003701       ?ref_weak@RMultiImage2D_SDL_ttf@SDL_core@ui@modules@UModSys@@UBE_NAAUWeakPointer@IRefObject@core@5@@Z 10004701 f i umodsys_lib_libui:umodsys.mod.ui.SDL_core.obj
 0001:00003701       ?ref_weak@RDialog@frames@ui@modules@UModSys@@UBE_NAAUWeakPointer@IRefObject@core@5@@Z 10004701 f i umodsys_lib_libui:umodsys.mod.ui.frames.obj
 0001:00003701       ?ref_weak@RGenerator@SDL_core@ui@modules@UModSys@@UBE_NAAUWeakPointer@IRefObject@core@5@@Z 10004701 f i umodsys_lib_libui:umodsys.mod.ui.SDL_core.obj
 0001:00003701       ?ref_weak@RVertexArray@SDL_GL@ui@modules@UModSys@@UBE_NAAUWeakPointer@IRefObject@core@5@@Z 10004701 f i umodsys_lib_libui:umodsys.mod.ui.SDL_GL.obj
 0001:00003701       ?ref_weak@RGenerator@test1@test@modules@UModSys@@UBE_NAAUWeakPointer@IRefObject@core@5@@Z 10004701 f i plugin_test1.obj
 0001:00003701       ?ref_weak@RGenerator@zlib@media@modules@UModSys@@UBE_NAAUWeakPointer@IRefObject@core@5@@Z 10004701 f i umodsys_lib_libmedia:umodsys.mod.media.zlib.obj
 0001:00003720       ?suicide@RGenerator@SDL_core@ui@modules@UModSys@@UAEXXZ 10004720 f i umodsys_lib_libui:umodsys.mod.ui.SDL_core.obj
 0001:00003720       ?suicide@RGenerator@SDL_GL@ui@modules@UModSys@@UAEXXZ 10004720 f i umodsys_lib_libui:umodsys.mod.ui.SDL_GL.obj
 0001:00003720       ?suicide@RGenerator@zlib@media@modules@UModSys@@UAEXXZ 10004720 f i umodsys_lib_libmedia:umodsys.mod.media.zlib.obj
 0001:00003720       ??3@YAXPAX0@Z              10004720 f i plugin_test1.obj
 0001:00003720       ?suicide@RGenerator@serialize_json@media@modules@UModSys@@UAEXXZ 10004720 f i umodsys_lib_libmedia:umodsys.mod.media.serialize_json.obj
 0001:00003720       ?suicide@RGenerator@frames@ui@modules@UModSys@@UAEXXZ 10004720 f i umodsys_lib_libui:umodsys.mod.ui.frames.obj
 0001:00003720       ?suicide@RGenerator@images_std@media@modules@UModSys@@UAEXXZ 10004720 f i umodsys_lib_libmedia:umodsys.mod.media.images_std.obj
 0001:00003720       ?suicide@RGenerator@test1@test@modules@UModSys@@UAEXXZ 10004720 f i plugin_test1.obj
 0001:00003720       ?suicide@RGenerator@stdlib@lib2d@modules@UModSys@@UAEXXZ 10004720 f i umodsys_lib_lib2d:umodsys.mod.2d.stdlib.obj
 0001:00003721       ?get_uid@RGenerator@SDL_GL@ui@modules@UModSys@@UBEPBUSUniquePointerInfo@core@5@XZ 10004721 f i umodsys_lib_libui:umodsys.mod.ui.SDL_GL.obj
 0001:00003727       ??_GRKeyboardController@SDL_GL@ui@modules@UModSys@@UAEPAXI@Z 10004727 f i umodsys_lib_libui:umodsys.mod.ui.SDL_GL.obj
 0001:00003727       ??_ERKeyboardController@SDL_GL@ui@modules@UModSys@@UAEPAXI@Z 10004727 f i  CIL library: CIL module
 0001:00003744       ??1RKeyboardController@SDL_GL@ui@modules@UModSys@@UAE@XZ 10004744 f   umodsys_lib_libui:umodsys.mod.ui.SDL_GL.obj
 0001:00003788       ?map_keyspecial@RKeyboardController@SDL_core@ui@modules@UModSys@@QAEFG@Z 10004788 f   umodsys_lib_libui:umodsys.mod.ui.SDL_core.obj
 0001:00003788       ?map_keyspecial@RKeyboardController@SDL_GL@ui@modules@UModSys@@QAEFG@Z 10004788 f   umodsys_lib_libui:umodsys.mod.ui.SDL_GL.obj
 0001:000037fb       ?key_link@RKeyboardController@SDL_core@ui@modules@UModSys@@UAE_NHPAUIRefObject@core@5@PAUIKeyboardClient@libui@5@@Z 100047fb f   umodsys_lib_libui:umodsys.mod.ui.SDL_core.obj
 0001:000037fb       ?key_link@RKeyboardController@SDL_GL@ui@modules@UModSys@@UAE_NHPAUIRefObject@core@5@PAUIKeyboardClient@libui@5@@Z 100047fb f   umodsys_lib_libui:umodsys.mod.ui.SDL_GL.obj
 0001:00003833       ?key_setvisible@RKeyboardController@SDL_GL@ui@modules@UModSys@@UAE_N_N@Z 10004833 f   umodsys_lib_libui:umodsys.mod.ui.SDL_GL.obj
 0001:00003833       ?key_setvisible@RKeyboardController@SDL_core@ui@modules@UModSys@@UAE_N_N@Z 10004833 f   umodsys_lib_libui:umodsys.mod.ui.SDL_core.obj
 0001:0000384b       ??_GRMouseController@SDL_GL@ui@modules@UModSys@@UAEPAXI@Z 1000484b f i umodsys_lib_libui:umodsys.mod.ui.SDL_GL.obj
 0001:0000384b       ??_ERMouseController@SDL_GL@ui@modules@UModSys@@UAEPAXI@Z 1000484b f i  CIL library: CIL module
 0001:00003868       ??1RMouseController@SDL_GL@ui@modules@UModSys@@UAE@XZ 10004868 f   umodsys_lib_libui:umodsys.mod.ui.SDL_GL.obj
 0001:000038ac       ?process@RMouseController@SDL_core@ui@modules@UModSys@@QAE_NAAUSDL_MouseMotionEvent@@@Z 100048ac f   umodsys_lib_libui:umodsys.mod.ui.SDL_core.obj
 0001:000038ac       ?process@RMouseController@SDL_GL@ui@modules@UModSys@@QAE_NAAUSDL_MouseMotionEvent@@@Z 100048ac f   umodsys_lib_libui:umodsys.mod.ui.SDL_GL.obj
 0001:00003993       ?process@RMouseController@SDL_GL@ui@modules@UModSys@@QAE_NAAUSDL_MouseButtonEvent@@@Z 10004993 f   umodsys_lib_libui:umodsys.mod.ui.SDL_GL.obj
 0001:00003993       ?process@RMouseController@SDL_core@ui@modules@UModSys@@QAE_NAAUSDL_MouseButtonEvent@@@Z 10004993 f   umodsys_lib_libui:umodsys.mod.ui.SDL_core.obj
 0001:00003a5a       ?process@RMouseController@SDL_GL@ui@modules@UModSys@@QAE_NAAUSDL_MouseWheelEvent@@@Z 10004a5a f   umodsys_lib_libui:umodsys.mod.ui.SDL_GL.obj
 0001:00003a5a       ?process@RMouseController@SDL_core@ui@modules@UModSys@@QAE_NAAUSDL_MouseWheelEvent@@@Z 10004a5a f   umodsys_lib_libui:umodsys.mod.ui.SDL_core.obj
 0001:00003afb       ?key_unlink@RKeyboardController@SDL_core@ui@modules@UModSys@@UAE_NH@Z 10004afb f   umodsys_lib_libui:umodsys.mod.ui.SDL_core.obj
 0001:00003afb       ?mouse_unlink@RMouseController@SDL_core@ui@modules@UModSys@@UAE_NH@Z 10004afb f   umodsys_lib_libui:umodsys.mod.ui.SDL_core.obj
 0001:00003afb       ?key_unlink@RKeyboardController@SDL_GL@ui@modules@UModSys@@UAE_NH@Z 10004afb f   umodsys_lib_libui:umodsys.mod.ui.SDL_GL.obj
 0001:00003afb       ?mouse_unlink@RMouseController@SDL_GL@ui@modules@UModSys@@UAE_NH@Z 10004afb f   umodsys_lib_libui:umodsys.mod.ui.SDL_GL.obj
 0001:00003b0a       ??0RTerminal@SDL_GL@ui@modules@UModSys@@QAE@PAUIModObject@base@4@@Z 10004b0a f   umodsys_lib_libui:umodsys.mod.ui.SDL_GL.obj
 0001:00003b94       ??_ERTerminal@SDL_GL@ui@modules@UModSys@@UAEPAXI@Z 10004b94 f i  CIL library: CIL module
 0001:00003b94       ??_GRTerminal@SDL_GL@ui@modules@UModSys@@UAEPAXI@Z 10004b94 f i umodsys_lib_libui:umodsys.mod.ui.SDL_GL.obj
 0001:00003bb1       ??1RTerminal@SDL_GL@ui@modules@UModSys@@UAE@XZ 10004bb1 f   umodsys_lib_libui:umodsys.mod.ui.SDL_GL.obj
 0001:00003c01       ?get_terminal_state@RTerminal@SDL_core@ui@modules@UModSys@@UAE_NW4eTerminalState@libui@5@@Z 10004c01 f   umodsys_lib_libui:umodsys.mod.ui.SDL_core.obj
 0001:00003c01       ?get_terminal_state@RTerminal@SDL_GL@ui@modules@UModSys@@UAE_NW4eTerminalState@libui@5@@Z 10004c01 f   umodsys_lib_libui:umodsys.mod.ui.SDL_GL.obj
 0001:00003c1a       ?get_clock@RTerminal@SDL_core@ui@modules@UModSys@@UAENXZ 10004c1a f   umodsys_lib_libui:umodsys.mod.ui.SDL_core.obj
 0001:00003c1a       ?get_clock@RTerminal@SDL_GL@ui@modules@UModSys@@UAENXZ 10004c1a f   umodsys_lib_libui:umodsys.mod.ui.SDL_GL.obj
 0001:00003c32       ?create_handler@RTerminal@SDL_GL@ui@modules@UModSys@@UAE_NPBUSUniquePointerInfo@core@5@AAU?$TRefObject@UIRefObject@core@UModSys@@U?$TRefObjectFunc@UIRefObject@core@UModSys@@@tl@3@@tl@5@PBDPBUSParameters@75@@Z 10004c32 f   umodsys_lib_libui:umodsys.mod.ui.SDL_GL.obj
 0001:00003c32       ?create_handler@RTerminal@SDL_core@ui@modules@UModSys@@UAE_NPBUSUniquePointerInfo@core@5@AAU?$TRefObject@UIRefObject@core@UModSys@@U?$TRefObjectFunc@UIRefObject@core@UModSys@@@tl@3@@tl@5@PBDPBUSParameters@75@@Z 10004c32 f   umodsys_lib_libui:umodsys.mod.ui.SDL_core.obj
 0001:00003c90       ??0RMultiImage2D_SDL_ttf@SDL_GL@ui@modules@UModSys@@QAE@PAURRenderDriver3D@1234@ABUSParameters@core@4@@Z 10004c90 f   umodsys_lib_libui:umodsys.mod.ui.SDL_GL.obj
 0001:00003cf8       ??_ERMultiImage2D_SDL_ttf@SDL_GL@ui@modules@UModSys@@UAEPAXI@Z 10004cf8 f i  CIL library: CIL module
 0001:00003cf8       ??_GRMultiImage2D_SDL_ttf@SDL_GL@ui@modules@UModSys@@UAEPAXI@Z 10004cf8 f i umodsys_lib_libui:umodsys.mod.ui.SDL_GL.obj
 0001:00003d53       ?open@RMultiImage2D_SDL_ttf@SDL_GL@ui@modules@UModSys@@QAE_NABUSParameters@core@5@@Z 10004d53 f   umodsys_lib_libui:umodsys.mod.ui.SDL_GL.obj
 0001:00003dde       ?generate_glyphs@RMultiImage2D_SDL_ttf@SDL_GL@ui@modules@UModSys@@QAE_NXZ 10004dde f   umodsys_lib_libui:umodsys.mod.ui.SDL_GL.obj
 0001:00003ecd       ?set_flags@SGLFuncs@SDL_GL@ui@modules@UModSys@@QBEXPBUTextureInfo@12345@ABUSRenderMapFlags@lib3d@5@@Z 10004ecd f i umodsys_lib_libui:umodsys.mod.ui.SDL_GL.obj
 0001:00003f83       ??1STextureGL@SDL_GL@ui@modules@UModSys@@QAE@XZ 10004f83 f   umodsys_lib_libui:umodsys.mod.ui.SDL_GL.obj
 0001:00003fcc       ?gen@STextureGL@SDL_GL@ui@modules@UModSys@@QAE_NXZ 10004fcc f   umodsys_lib_libui:umodsys.mod.ui.SDL_GL.obj
 0001:00004003       ?clear@STextureGL@SDL_GL@ui@modules@UModSys@@QAEXXZ 10005003 f   umodsys_lib_libui:umodsys.mod.ui.SDL_GL.obj
 0001:00004026       ?dorebind@STextureGL@SDL_GL@ui@modules@UModSys@@QAEX_N@Z 10005026 f   umodsys_lib_libui:umodsys.mod.ui.SDL_GL.obj
 0001:0000407c       ?alloc@STextureGL@SDL_GL@ui@modules@UModSys@@QAE_NXZ 1000507c f   umodsys_lib_libui:umodsys.mod.ui.SDL_GL.obj
 0001:000040cf       ?set_size@STextureGL@SDL_GL@ui@modules@UModSys@@QAEXHH@Z 100050cf f   umodsys_lib_libui:umodsys.mod.ui.SDL_GL.obj
 0001:00004194       ?reupload@STextureGL@SDL_GL@ui@modules@UModSys@@QAE_NXZ 10005194 f   umodsys_lib_libui:umodsys.mod.ui.SDL_GL.obj
 0001:00004202       ?upload@STextureGL@SDL_GL@ui@modules@UModSys@@QAE_NXZ 10005202 f   umodsys_lib_libui:umodsys.mod.ui.SDL_GL.obj
 0001:0000429c       ?set_reallocate@STextureGL@SDL_GL@ui@modules@UModSys@@QAE_NW4eImageType@lib2d@5@HHPBD@Z 1000529c f   umodsys_lib_libui:umodsys.mod.ui.SDL_GL.obj
 0001:000042fc       ?new_texture@RMultiImage2D_SDL_ttf@SDL_GL@ui@modules@UModSys@@SA_NAAUSTextureGL@2345@PAUSDL_Surface@@PAURRenderDriver3D@2345@@Z 100052fc f   umodsys_lib_libui:umodsys.mod.ui.SDL_GL.obj
 0001:00004388       ??0RRenderDriver3D@SDL_GL@ui@modules@UModSys@@QAE@PAURTerminalX@1234@@Z 10005388 f   umodsys_lib_libui:umodsys.mod.ui.SDL_GL.obj
 0001:0000445f       ??_ERRenderDriver3D@SDL_GL@ui@modules@UModSys@@UAEPAXI@Z 1000545f f i  CIL library: CIL module
 0001:0000445f       ??_GRRenderDriver3D@SDL_GL@ui@modules@UModSys@@UAEPAXI@Z 1000545f f i umodsys_lib_libui:umodsys.mod.ui.SDL_GL.obj
 0001:0000447c       ??1RRenderDriver3D@SDL_GL@ui@modules@UModSys@@UAE@XZ 1000547c f   umodsys_lib_libui:umodsys.mod.ui.SDL_GL.obj
 0001:000044eb       ?close@RRenderDriver3D@SDL_GL@ui@modules@UModSys@@QAEXXZ 100054eb f   umodsys_lib_libui:umodsys.mod.ui.SDL_GL.obj
 0001:0000450c       ?open@RRenderDriver3D@SDL_GL@ui@modules@UModSys@@QAE_NABUSParameters@core@5@@Z 1000550c f   umodsys_lib_libui:umodsys.mod.ui.SDL_GL.obj
 0001:000045fe       ?next_phm@RRenderDriver3D@SDL_GL@ui@modules@UModSys@@QAE_NW4ePhaseMode@2345@@Z 100055fe f   umodsys_lib_libui:umodsys.mod.ui.SDL_GL.obj
 0001:00004653       ?new_font@RRenderDriver3D@SDL_GL@ui@modules@UModSys@@UAE?AU?$TRefObject@UIMultiImage@lib2d@UModSys@@U?$TRefObjectFunc@UIMultiImage@lib2d@UModSys@@@tl@3@@tl@5@ABUSParameters@core@5@ABU?$TString@U?$TSCoreConst@D@su@tl@UModSys@@U?$TComparerBinaryHash@D@234@@75@@Z 10005653 f   umodsys_lib_libui:umodsys.mod.ui.SDL_GL.obj
 0001:0000478e       ?new_picture@RRenderDriver3D@SDL_GL@ui@modules@UModSys@@UAE?AU?$TRefObject@UIImage@lib2d@UModSys@@U?$TRefObjectFunc@UIImage@lib2d@UModSys@@@tl@3@@tl@5@ABUSParameters@core@5@ABU?$TString@U?$TSCoreConst@D@su@tl@UModSys@@U?$TComparerBinaryHash@D@234@@75@@Z 1000578e f   umodsys_lib_libui:umodsys.mod.ui.SDL_GL.obj
 0001:0000478e       ?new_picture@RRenderDriver2D@SDL_core@ui@modules@UModSys@@UAE?AU?$TRefObject@UIImage@lib2d@UModSys@@U?$TRefObjectFunc@UIImage@lib2d@UModSys@@@tl@3@@tl@5@ABUSParameters@core@5@ABU?$TString@U?$TSCoreConst@D@su@tl@UModSys@@U?$TComparerBinaryHash@D@234@@75@@Z 1000578e f   umodsys_lib_libui:umodsys.mod.ui.SDL_core.obj
 0001:000047a0       ?get_frame_values@RRenderDriver3D@SDL_GL@ui@modules@UModSys@@UBEPBUSParameters@core@5@XZ 100057a0 f   umodsys_lib_libui:umodsys.mod.ui.SDL_GL.obj
 0001:000047a7       ?setup_font@RRenderDriver3D@SDL_GL@ui@modules@UModSys@@UAE_NPAUIMultiImage@lib2d@5@PBU?$TVector2@M@math3d@5@@Z 100057a7 f   umodsys_lib_libui:umodsys.mod.ui.SDL_GL.obj
 0001:000047f9       ?setup_color@RRenderDriver3D@SDL_GL@ui@modules@UModSys@@UAEXABU?$TVector3@M@math3d@5@@Z 100057f9 f   umodsys_lib_libui:umodsys.mod.ui.SDL_GL.obj
 0001:00004820       ?setup_color@RRenderDriver3D@SDL_GL@ui@modules@UModSys@@UAEXABU?$TVector3@H@math3d@5@@Z 10005820 f   umodsys_lib_libui:umodsys.mod.ui.SDL_GL.obj
 0001:00004863       ?setup_coloralpha@RRenderDriver3D@SDL_GL@ui@modules@UModSys@@UAEXABU?$TVector4@M@math3d@5@H@Z 10005863 f   umodsys_lib_libui:umodsys.mod.ui.SDL_GL.obj
 0001:0000488b       ?setup_coloralpha@RRenderDriver3D@SDL_GL@ui@modules@UModSys@@UAEXABU?$TVector4@H@math3d@5@H@Z 1000588b f   umodsys_lib_libui:umodsys.mod.ui.SDL_GL.obj
 0001:000048e3       ?setup_blendcolor@RRenderDriver3D@SDL_GL@ui@modules@UModSys@@UAEXABUSBlendColor@lib2d@5@@Z 100058e3 f   umodsys_lib_libui:umodsys.mod.ui.SDL_GL.obj
 0001:0000493b       ?setup_blendcolor@RRenderDriver3D@SDL_GL@ui@modules@UModSys@@UAEXABUSBlendColorf@lib2d@5@@Z 1000593b f   umodsys_lib_libui:umodsys.mod.ui.SDL_GL.obj
 0001:0000497f       ?setup_alpha@RRenderDriver3D@SDL_GL@ui@modules@UModSys@@UAEXHH@Z 1000597f f   umodsys_lib_libui:umodsys.mod.ui.SDL_GL.obj
 0001:000049a6       ?setup_alpha@RRenderDriver3D@SDL_GL@ui@modules@UModSys@@UAEXMH@Z 100059a6 f   umodsys_lib_libui:umodsys.mod.ui.SDL_GL.obj
 0001:000049c7       ?render_text_advanced@RRenderDriver3D@SDL_GL@ui@modules@UModSys@@UAE_NAAUTextInfo@IRenderDriver@lib2d@5@PBHH@Z 100059c7 f   umodsys_lib_libui:umodsys.mod.ui.SDL_GL.obj
 0001:00004b85       ?render_box@RRenderDriver3D@SDL_GL@ui@modules@UModSys@@UAEXABU?$TVector2@H@math3d@5@0@Z 10005b85 f   umodsys_lib_libui:umodsys.mod.ui.SDL_GL.obj
 0001:00004be0       ?render_tri@RRenderDriver3D@SDL_GL@ui@modules@UModSys@@UAEXABU?$TVector2@H@math3d@5@00@Z 10005be0 f   umodsys_lib_libui:umodsys.mod.ui.SDL_GL.obj
 0001:00004c30       ?render_quad@RRenderDriver3D@SDL_GL@ui@modules@UModSys@@UAEXABU?$TVector2@H@math3d@5@000@Z 10005c30 f   umodsys_lib_libui:umodsys.mod.ui.SDL_GL.obj
 0001:00004c8f       ?render_box@RRenderDriver3D@SDL_GL@ui@modules@UModSys@@UAEXPAUIImage@lib2d@5@ABU?$TVector2@H@math3d@5@1ABU?$TVector2@M@95@2@Z 10005c8f f   umodsys_lib_libui:umodsys.mod.ui.SDL_GL.obj
 0001:00004c9c       ?render_line@RRenderDriver3D@SDL_GL@ui@modules@UModSys@@UAEXABU?$TVector2@H@math3d@5@0@Z 10005c9c f   umodsys_lib_libui:umodsys.mod.ui.SDL_GL.obj
 0001:00004cdd       ?render_rect@RRenderDriver3D@SDL_GL@ui@modules@UModSys@@UAEXABU?$TVector2@H@math3d@5@0@Z 10005cdd f   umodsys_lib_libui:umodsys.mod.ui.SDL_GL.obj
 0001:00004d6e       ?begin@RRenderDriver3D@SDL_GL@ui@modules@UModSys@@UAEXXZ 10005d6e f   umodsys_lib_libui:umodsys.mod.ui.SDL_GL.obj
 0001:00004e9b       ?end@RRenderDriver3D@SDL_GL@ui@modules@UModSys@@UAEXXZ 10005e9b f   umodsys_lib_libui:umodsys.mod.ui.SDL_GL.obj
 0001:00004ef3       ?Mode_2d_begin@RRenderDriver3D@SDL_GL@ui@modules@UModSys@@QAE_NXZ 10005ef3 f   umodsys_lib_libui:umodsys.mod.ui.SDL_GL.obj
 0001:00004fee       ?Mode_2d_end@RRenderDriver3D@SDL_GL@ui@modules@UModSys@@QAE_NXZ 10005fee f   umodsys_lib_libui:umodsys.mod.ui.SDL_GL.obj
 0001:00005019       ?register_tex@RRenderDriver3D@SDL_GL@ui@modules@UModSys@@UAE?AU?$TRefObject@UITexture@lib3d@UModSys@@U?$TRefObjectFunc@UITexture@lib3d@UModSys@@@tl@3@@tl@5@PAUILibrary@libmedia@5@ABU?$TString@U?$TSCoreConst@D@su@tl@UModSys@@U?$TComparerBinaryHash@D@234@@75@ABUSRenderMapFlags@lib3d@5@@Z 10006019 f   umodsys_lib_libui:umodsys.mod.ui.SDL_GL.obj
 0001:00005019       ?register_texcells@RRenderDriver3D@SDL_GL@ui@modules@UModSys@@UAE?AU?$TRefObject@UITextureCells@lib3d@UModSys@@U?$TRefObjectFunc@UITextureCells@lib3d@UModSys@@@tl@3@@tl@5@PAUILibrary@libmedia@5@ABU?$TString@U?$TSCoreConst@D@su@tl@UModSys@@U?$TComparerBinaryHash@D@234@@75@ABUSRenderMapFlags@lib3d@5@@Z 10006019 f   umodsys_lib_libui:umodsys.mod.ui.SDL_GL.obj
 0001:00005019       ?register_tex@RRenderDriver3D@SDL_GL@ui@modules@UModSys@@UAE?AU?$TRefObject@UITexture@lib3d@UModSys@@U?$TRefObjectFunc@UITexture@lib3d@UModSys@@@tl@3@@tl@5@ABU?$TVector2@H@math3d@5@ABUSRenderMapFlags@lib3d@5@W4eImageType@lib2d@5@@Z 10006019 f   umodsys_lib_libui:umodsys.mod.ui.SDL_GL.obj
 0001:00005019       ?data_writer@RBinArchiveFrameClient_ZIP@zlib@media@modules@UModSys@@UAE?AU?$TRefObject@UIStreamWriter@libmedia@UModSys@@U?$TRefObjectFunc@UIStreamWriter@libmedia@UModSys@@@tl@3@@tl@5@PAUIBinArchiveFrame@libmedia@5@ABU?$TString@U?$TSCoreConst@D@su@tl@UModSys@@U?$TComparerBinaryHash@D@234@@75@ABUSFlags@95@@Z 10006019 f   umodsys_lib_libmedia:umodsys.mod.media.zlib.obj
 0001:0000502b       ?create_array@RRenderDriver3D@SDL_GL@ui@modules@UModSys@@UAE?AU?$TRefObject@UIVertexArray@lib3d@UModSys@@U?$TRefObjectFunc@UIVertexArray@lib3d@UModSys@@@tl@3@@tl@5@HQBUSVertexElemInfo@lib3d@5@H@Z 1000602b f   umodsys_lib_libui:umodsys.mod.ui.SDL_GL.obj
 0001:0000510a       ?create_array@RRenderDriver3D@SDL_GL@ui@modules@UModSys@@UAE?AU?$TRefObject@UIVertexArray@lib3d@UModSys@@U?$TRefObjectFunc@UIVertexArray@lib3d@UModSys@@@tl@3@@tl@5@HQBUSVertexElemInfo@lib3d@5@HPBX@Z 1000610a f   umodsys_lib_libui:umodsys.mod.ui.SDL_GL.obj
 0001:0000511c       ?map_2d_to_3d@RRenderDriver3D@SDL_GL@ui@modules@UModSys@@UAE_NAAU?$TVector2@M@math3d@5@ABU?$TVector2@H@75@@Z 1000611c f   umodsys_lib_libui:umodsys.mod.ui.SDL_GL.obj
 0001:000051cc       ?camera_ortho@RRenderDriver3D@SDL_GL@ui@modules@UModSys@@UAE_NABU?$TVector3@N@math3d@5@0@Z 100061cc f   umodsys_lib_libui:umodsys.mod.ui.SDL_GL.obj
 0001:0000524a       ?camera_frustum@RRenderDriver3D@SDL_GL@ui@modules@UModSys@@UAE_NABU?$TVector3@N@math3d@5@0@Z 1000624a f   umodsys_lib_libui:umodsys.mod.ui.SDL_GL.obj
 0001:000052be       ?camera_frustum@RRenderDriver3D@SDL_GL@ui@modules@UModSys@@UAE_NABU?$TVector3@N@math3d@5@ABU?$TVector2@M@75@NN@Z 100062be f   umodsys_lib_libui:umodsys.mod.ui.SDL_GL.obj
 0001:000053d7       ?setup_addlight@RRenderDriver3D@SDL_GL@ui@modules@UModSys@@UAEHW4eLightType@lib3d@5@ABUSLight@75@ABU?$TMatrix44@N@math3d@5@@Z 100063d7 f   umodsys_lib_libui:umodsys.mod.ui.SDL_GL.obj
 0001:000053dd       ?setup_array@RRenderDriver3D@SDL_GL@ui@modules@UModSys@@UAE_NPAUIVertexArray@lib3d@5@HH@Z 100063dd f   umodsys_lib_libui:umodsys.mod.ui.SDL_GL.obj
 0001:00005454       ?key_reset@RKeyboardController@SDL_core@ui@modules@UModSys@@UAE_NXZ 10006454 f   umodsys_lib_libui:umodsys.mod.ui.SDL_core.obj
 0001:00005454       ?setup_array_none@RRenderDriver3D@SDL_GL@ui@modules@UModSys@@UAE_NXZ 10006454 f   umodsys_lib_libui:umodsys.mod.ui.SDL_GL.obj
 0001:00005454       ?mouse_reset@RMouseController@SDL_core@ui@modules@UModSys@@UAE_NXZ 10006454 f   umodsys_lib_libui:umodsys.mod.ui.SDL_core.obj
 0001:00005454       ?key_reset@RKeyboardController@SDL_GL@ui@modules@UModSys@@UAE_NXZ 10006454 f   umodsys_lib_libui:umodsys.mod.ui.SDL_GL.obj
 0001:00005454       ?mouse_reset@RMouseController@SDL_GL@ui@modules@UModSys@@UAE_NXZ 10006454 f   umodsys_lib_libui:umodsys.mod.ui.SDL_GL.obj
 0001:00005454       ?driver_is_reset@RRenderDriver3D@SDL_GL@ui@modules@UModSys@@UAE_NXZ 10006454 f   umodsys_lib_libui:umodsys.mod.ui.SDL_GL.obj
 0001:00005457       ?render_primitive@RRenderDriver3D@SDL_GL@ui@modules@UModSys@@UAE_NW4eRenderPrimitiveType@lib3d@5@HH@Z 10006457 f   umodsys_lib_libui:umodsys.mod.ui.SDL_GL.obj
 0001:000054cc       ?render_picture@RRenderDriver3D@SDL_GL@ui@modules@UModSys@@UAEXABUSPicture@lib3d@5@0M@Z 100064cc f   umodsys_lib_libui:umodsys.mod.ui.SDL_GL.obj
 0001:000054cf       ?h_glClientActiveTexture@SGLFuncs@SDL_GL@ui@modules@UModSys@@UBEXH@Z 100064cf f   umodsys_lib_libui:umodsys.mod.ui.SDL_GL.obj
 0001:000054cf       ?render_picture@RRenderDriver3D@SDL_GL@ui@modules@UModSys@@UAEXABUSPicture@lib3d@5@@Z 100064cf f   umodsys_lib_libui:umodsys.mod.ui.SDL_GL.obj
 0001:000054cf       ?setup_T@RRenderDriver3D@SDL_GL@ui@modules@UModSys@@UAEXABU?$TMatrix44@N@math3d@5@@Z 100064cf f   umodsys_lib_libui:umodsys.mod.ui.SDL_GL.obj
 0001:000054cf       ?render_particles@RRenderDriver3D@SDL_GL@ui@modules@UModSys@@UAEXPBUSObjectParticle@lib3d@5@@Z 100064cf f   umodsys_lib_libui:umodsys.mod.ui.SDL_GL.obj
 0001:000054d2       ?render_text_3d@RRenderDriver3D@SDL_GL@ui@modules@UModSys@@UAEXPBHH@Z 100064d2 f   umodsys_lib_libui:umodsys.mod.ui.SDL_GL.obj
 0001:000054d5       ?phase_start@RRenderDriver3D@SDL_GL@ui@modules@UModSys@@UAEXHH@Z 100064d5 f   umodsys_lib_libui:umodsys.mod.ui.SDL_GL.obj
 0001:0000558f       ?phase_2d@RRenderDriver3D@SDL_GL@ui@modules@UModSys@@UAEX_N@Z 1000658f f   umodsys_lib_libui:umodsys.mod.ui.SDL_GL.obj
 0001:000055c9       ?render_start@RRenderDriver3D@SDL_GL@ui@modules@UModSys@@UAEXXZ 100065c9 f   umodsys_lib_libui:umodsys.mod.ui.SDL_GL.obj
 0001:00005670       ?render_stop@RRenderDriver3D@SDL_GL@ui@modules@UModSys@@UAEXXZ 10006670 f   umodsys_lib_libui:umodsys.mod.ui.SDL_GL.obj
 0001:000056e8       ?setup_2d@RRenderDriver3D@SDL_GL@ui@modules@UModSys@@UAE_NPBU?$TVector2@H@math3d@5@0PBU?$TVector2@M@75@1@Z 100066e8 f   umodsys_lib_libui:umodsys.mod.ui.SDL_GL.obj
 0001:00005770       ??0RVertexArray@SDL_GL@ui@modules@UModSys@@QAE@PAURRenderDriver3D@1234@@Z 10006770 f   umodsys_lib_libui:umodsys.mod.ui.SDL_GL.obj
 0001:00005807       ??_ERVertexArray@SDL_GL@ui@modules@UModSys@@UAEPAXI@Z 10006807 f i  CIL library: CIL module
 0001:00005807       ??_GRVertexArray@SDL_GL@ui@modules@UModSys@@UAEPAXI@Z 10006807 f i umodsys_lib_libui:umodsys.mod.ui.SDL_GL.obj
 0001:00005856       ?Free@RVertexArray@SDL_GL@ui@modules@UModSys@@QAE_NXZ 10006856 f   umodsys_lib_libui:umodsys.mod.ui.SDL_GL.obj
 0001:000058ad       ?Alloc@RVertexArray@SDL_GL@ui@modules@UModSys@@QAE_NQBUSVertexElemInfo@lib3d@5@HH_N@Z 100068ad f   umodsys_lib_libui:umodsys.mod.ui.SDL_GL.obj
 0001:00005a4d       ?Alloc@RVertexArray@SDL_GL@ui@modules@UModSys@@QAE_NXZ 10006a4d f   umodsys_lib_libui:umodsys.mod.ui.SDL_GL.obj
 0001:00005a94       ?Use@RVertexArray@SDL_GL@ui@modules@UModSys@@QAE_NI@Z 10006a94 f   umodsys_lib_libui:umodsys.mod.ui.SDL_GL.obj
 0001:00005c44       ?is_valid@RVertexArray@SDL_GL@ui@modules@UModSys@@UBE_NXZ 10006c44 f   umodsys_lib_libui:umodsys.mod.ui.SDL_GL.obj
 0001:00005c4d       ?get_layer_count@RVertexArray@SDL_GL@ui@modules@UModSys@@UBEHXZ 10006c4d f   umodsys_lib_libui:umodsys.mod.ui.SDL_GL.obj
 0001:00005c51       ?get_layer_info@RVertexArray@SDL_GL@ui@modules@UModSys@@UBE?AUSVertexElemInfo@lib3d@5@H@Z 10006c51 f   umodsys_lib_libui:umodsys.mod.ui.SDL_GL.obj
 0001:00005c87       ?get_layer_vdata@RVertexArray@SDL_GL@ui@modules@UModSys@@UBE_NW4eVertexAType@lib3d@5@PAXHHH@Z 10006c87 f   umodsys_lib_libui:umodsys.mod.ui.SDL_GL.obj
 0001:00005c8c       ?set_layer_vdata@RVertexArray@SDL_GL@ui@modules@UModSys@@UAE_NW4eVertexAType@lib3d@5@PBXHHH@Z 10006c8c f   umodsys_lib_libui:umodsys.mod.ui.SDL_GL.obj
 0001:00005d52       ?check@SArrayFill@RVertexArray@SDL_GL@ui@modules@UModSys@@QAE_NAAUSVertexElemInfo@lib3d@6@@Z 10006d52 f   umodsys_lib_libui:umodsys.mod.ui.SDL_GL.obj
 0001:00005e95       ?check_single@SArrayFill@RVertexArray@SDL_GL@ui@modules@UModSys@@QAE_NABUSVertexElemInfo@lib3d@6@@Z 10006e95 f   umodsys_lib_libui:umodsys.mod.ui.SDL_GL.obj
 0001:00005f1c       ??0RTerminalX@SDL_GL@ui@modules@UModSys@@QAE@PAUIModObject@base@4@ABUSParameters@core@4@@Z 10006f1c f   umodsys_lib_libui:umodsys.mod.ui.SDL_GL.obj
 0001:00005f5c       ??_ERTerminalX@SDL_GL@ui@modules@UModSys@@UAEPAXI@Z 10006f5c f i  CIL library: CIL module
 0001:00005f5c       ??_GRTerminalX@SDL_GL@ui@modules@UModSys@@UAEPAXI@Z 10006f5c f i umodsys_lib_libui:umodsys.mod.ui.SDL_GL.obj
 0001:00005fa8       ?get_drv2d@RTerminalX@SDL_GL@ui@modules@UModSys@@UBEPAUIRenderDriver@lib2d@5@XZ 10006fa8 f   umodsys_lib_libui:umodsys.mod.ui.SDL_GL.obj
 0001:00005fa8       ?get_drv2d@RTerminalX@SDL_core@ui@modules@UModSys@@UBEPAUIRenderDriver@lib2d@5@XZ 10006fa8 f   umodsys_lib_libui:umodsys.mod.ui.SDL_core.obj
 0001:00005fa8       ?get_drv3d@RTerminalX@SDL_GL@ui@modules@UModSys@@UBEPAUIRenderDriver@lib3d@5@XZ 10006fa8 f   umodsys_lib_libui:umodsys.mod.ui.SDL_GL.obj
 0001:00005fac       ?open_drv2d@RTerminalX@SDL_GL@ui@modules@UModSys@@UAEPAUIRenderDriver@lib2d@5@PBUSParameters@core@5@@Z 10006fac f   umodsys_lib_libui:umodsys.mod.ui.SDL_GL.obj
 0001:00005fac       ?open_drv3d@RTerminalX@SDL_GL@ui@modules@UModSys@@UAEPAUIRenderDriver@lib3d@5@PBUSParameters@core@5@@Z 10006fac f   umodsys_lib_libui:umodsys.mod.ui.SDL_GL.obj
 0001:00005fc8       ?close_drvxd@RTerminalX@SDL_GL@ui@modules@UModSys@@UAE_NXZ 10006fc8 f   umodsys_lib_libui:umodsys.mod.ui.SDL_GL.obj
 0001:00005fd5       ?clear_min@SGLFuncs@SDL_GL@ui@modules@UModSys@@QAEXXZ 10006fd5 f   umodsys_lib_libui:umodsys.mod.ui.SDL_GL.obj
 0001:000093bd       ?load@SGLFuncs@SDL_GL@ui@modules@UModSys@@QAE_NXZ 1000a3bd f   umodsys_lib_libui:umodsys.mod.ui.SDL_GL.obj
 0001:00015f91       ?check_base@SGLFuncs@SDL_GL@ui@modules@UModSys@@QAE_NPBD@Z 10016f91 f   umodsys_lib_libui:umodsys.mod.ui.SDL_GL.obj
 0001:00016017       ??0SGLFuncsLegacy@SDL_GL@ui@modules@UModSys@@QAE@XZ 10017017 f   umodsys_lib_libui:umodsys.mod.ui.SDL_GL.obj
 0001:00016082       ?clear_min@SGLFuncsLegacy@SDL_GL@ui@modules@UModSys@@QAEXXZ 10017082 f   umodsys_lib_libui:umodsys.mod.ui.SDL_GL.obj
 0001:00016bb4       ?load@SGLFuncsLegacy@SDL_GL@ui@modules@UModSys@@QAE_N_N@Z 10017bb4 f   umodsys_lib_libui:umodsys.mod.ui.SDL_GL.obj
 0001:00019eec       ?image_hint_format@SGLFuncs@SDL_GL@ui@modules@UModSys@@SAHABU?$TString@U?$TSCoreConst@D@su@tl@UModSys@@U?$TComparerBinaryHash@D@234@@tl@5@H@Z 1001aeec f   umodsys_lib_libui:umodsys.mod.ui.SDL_GL.obj
 0001:0001a198       ?dumperror@SGLFuncs@SDL_GL@ui@modules@UModSys@@QBEXH@Z 1001b198 f   umodsys_lib_libui:umodsys.mod.ui.SDL_GL.obj
 0001:0001a200       ?h_DeleteTextures@SGLFuncs@SDL_GL@ui@modules@UModSys@@UBEXHPBI@Z 1001b200 f   umodsys_lib_libui:umodsys.mod.ui.SDL_GL.obj
 0001:0001a25e       ?h_glColor4fv@SGLFuncs@SDL_GL@ui@modules@UModSys@@UBEXQBM@Z 1001b25e f   umodsys_lib_libui:umodsys.mod.ui.SDL_GL.obj
 0001:0001a271       ?h_Rect@SGLFuncs@SDL_GL@ui@modules@UModSys@@UBEXHHHH@Z 1001b271 f   umodsys_lib_libui:umodsys.mod.ui.SDL_GL.obj
 0001:0001a274       ?do_open@RModuleReg@SDL_GL@ui@modules@UModSys@@UAE_NXZ 1001b274 f i umodsys_lib_libui:umodsys.mod.ui.SDL_GL.obj
 0001:0001a2c2       ?do_close@RModuleReg@SDL_GL@ui@modules@UModSys@@UAE_NXZ 1001b2c2 f i umodsys_lib_libui:umodsys.mod.ui.SDL_GL.obj
 0001:0001a2fd       ?get_module@RGenerator@SDL_GL@ui@modules@UModSys@@UBEPAUIModule@base@5@XZ 1001b2fd f   umodsys_lib_libui:umodsys.mod.ui.SDL_GL.obj
 0001:0001a303       ?mod_inc@RGenerator@SDL_GL@ui@modules@UModSys@@UBE_NXZ 1001b303 f   umodsys_lib_libui:umodsys.mod.ui.SDL_GL.obj
 0001:0001a30e       ?mod_dec@RGenerator@SDL_GL@ui@modules@UModSys@@UBE_NXZ 1001b30e f   umodsys_lib_libui:umodsys.mod.ui.SDL_GL.obj
 0001:0001a319       ?s_holder@RGenerator@SDL_GL@ui@modules@UModSys@@SAAAU?$TTypeStaticHolder@URGenerator@SDL_GL@ui@modules@UModSys@@@tl@5@XZ 1001b319 f   umodsys_lib_libui:umodsys.mod.ui.SDL_GL.obj
 0001:0001a34b       ?Remove@?$TScatterArray@U?$TRefObjectComposite@UIKeyboardClient@libui@UModSys@@UIRefObject@core@3@U?$TRefObjectFunc@UIRefObject@core@UModSys@@@tl@3@@tl@UModSys@@HU?$TScalarCompare@H@core@3@U?$TNodeDeleter0@U?$TScatterArrayNode@U?$TRefObjectComposite@UIKeyboardClient@libui@UModSys@@UIRefObject@core@3@U?$TRefObjectFunc@UIRefObject@core@UModSys@@@tl@3@@tl@UModSys@@H@tl@UModSys@@@23@@tl@UModSys@@QAE_NABH@Z 1001b34b f i umodsys_lib_libui:umodsys.mod.ui.SDL_GL.obj
 0001:0001a34b       ?Remove@?$TScatterArray@U?$TRefObjectCompositeExtra@UIMouseClient@libui@UModSys@@HUIRefObject@core@3@U?$TRefObjectFunc@UIRefObject@core@UModSys@@@tl@3@@tl@UModSys@@HU?$TScalarCompare@H@core@3@U?$TNodeDeleter0@U?$TScatterArrayNode@U?$TRefObjectCompositeExtra@UIMouseClient@libui@UModSys@@HUIRefObject@core@3@U?$TRefObjectFunc@UIRefObject@core@UModSys@@@tl@3@@tl@UModSys@@H@tl@UModSys@@@23@@tl@UModSys@@QAE_NABH@Z 1001b34b f i umodsys_lib_libui:umodsys.mod.ui.SDL_GL.obj
 0001:0001a3a7       ??1?$TScatterArray@UGlyph@RMultiImage2D_SDL_ttf@SDL_GL@ui@modules@UModSys@@HU?$TScalarCompare@H@core@6@U?$TNodeDeleter0@U?$TScatterArrayNode@UGlyph@RMultiImage2D_SDL_ttf@SDL_GL@ui@modules@UModSys@@H@tl@UModSys@@@tl@6@@tl@UModSys@@QAE@XZ 1001b3a7 f i umodsys_lib_libui:umodsys.mod.ui.SDL_GL.obj
 0001:0001a3bd       ??1?$TDynarrayDynamic@USLayInfo@RVertexArray@SDL_GL@ui@modules@UModSys@@U?$TAllocator@USIMemAlloc@core@UModSys@@USCountCalcExact@23@@tl@6@@tl@UModSys@@QAE@XZ 1001b3bd f i umodsys_lib_libui:umodsys.mod.ui.SDL_GL.obj
 0001:0001a3c2       ??F?$TTreeIterRB@$$CBU?$TScatterArrayNode@U?$TRefObjectComposite@UIKeyboardClient@libui@UModSys@@UIRefObject@core@3@U?$TRefObjectFunc@UIRefObject@core@UModSys@@@tl@3@@tl@UModSys@@H@tl@UModSys@@$$CBU?$TPair@HU?$TRefObjectComposite@UIKeyboardClient@libui@UModSys@@UIRefObject@core@3@U?$TRefObjectFunc@UIRefObject@core@UModSys@@@tl@3@@tl@UModSys@@@23@@tl@UModSys@@QAE?AU012@XZ 1001b3c2 f i umodsys_lib_libui:umodsys.mod.ui.SDL_GL.obj
 0001:0001a3c2       ??F?$TTreeIterRB@$$CBU?$TScatterArrayNode@U?$TRefObjectCompositeExtra@UIMouseClient@libui@UModSys@@HUIRefObject@core@3@U?$TRefObjectFunc@UIRefObject@core@UModSys@@@tl@3@@tl@UModSys@@H@tl@UModSys@@$$CBU?$TPair@HU?$TRefObjectCompositeExtra@UIMouseClient@libui@UModSys@@HUIRefObject@core@3@U?$TRefObjectFunc@UIRefObject@core@UModSys@@@tl@3@@tl@UModSys@@@23@@tl@UModSys@@QAE?AU012@XZ 1001b3c2 f i umodsys_lib_libui:umodsys.mod.ui.SDL_GL.obj
 0001:0001a3ec       ??1?$TDynarray@U?$TDynarrayHolderDynamic@USLayInfo@RVertexArray@SDL_GL@ui@modules@UModSys@@U?$TAllocator@USIMemAlloc@core@UModSys@@USCountCalcExact@23@@tl@6@@tl@UModSys@@@tl@UModSys@@QAE@XZ 1001b3ec f i umodsys_lib_libui:umodsys.mod.ui.SDL_GL.obj
 0001:0001a432       ?remove_node@?$TTreeHoldRB@U?$TScatterArrayNode@U?$TRefObjectComposite@UIKeyboardClient@libui@UModSys@@UIRefObject@core@3@U?$TRefObjectFunc@UIRefObject@core@UModSys@@@tl@3@@tl@UModSys@@H@tl@UModSys@@@tl@UModSys@@QAEXPAU?$TScatterArrayNode@U?$TRefObjectComposite@UIKeyboardClient@libui@UModSys@@UIRefObject@core@3@U?$TRefObjectFunc@UIRefObject@core@UModSys@@@tl@3@@tl@UModSys@@H@23@@Z 1001b432 f i umodsys_lib_libui:umodsys.mod.ui.SDL_GL.obj
 0001:0001a432       ?remove_node@?$TTreeHoldRB@U?$TScatterArrayNode@U?$TRefObjectCompositeExtra@UIMouseClient@libui@UModSys@@HUIRefObject@core@3@U?$TRefObjectFunc@UIRefObject@core@UModSys@@@tl@3@@tl@UModSys@@H@tl@UModSys@@@tl@UModSys@@QAEXPAU?$TScatterArrayNode@U?$TRefObjectCompositeExtra@UIMouseClient@libui@UModSys@@HUIRefObject@core@3@U?$TRefObjectFunc@UIRefObject@core@UModSys@@@tl@3@@tl@UModSys@@H@23@@Z 1001b432 f i umodsys_lib_libui:umodsys.mod.ui.SDL_GL.obj
 0001:0001a50f       ??1?$TPair@HU?$TRefObjectComposite@UIKeyboardClient@libui@UModSys@@UIRefObject@core@3@U?$TRefObjectFunc@UIRefObject@core@UModSys@@@tl@3@@tl@UModSys@@@tl@UModSys@@QAE@XZ 1001b50f f i umodsys_lib_libui:umodsys.mod.ui.SDL_GL.obj
 0001:0001a50f       ??1?$TPair@HU?$TRefObjectCompositeExtra@UIMouseClient@libui@UModSys@@HUIRefObject@core@3@U?$TRefObjectFunc@UIRefObject@core@UModSys@@@tl@3@@tl@UModSys@@@tl@UModSys@@QAE@XZ 1001b50f f i umodsys_lib_libui:umodsys.mod.ui.SDL_GL.obj
 0001:0001a519       ??1?$TRefObjectComposite@UIController@libui@UModSys@@UIRefObject@core@3@U?$TRefObjectFunc@UIRefObject@core@UModSys@@@tl@3@@tl@UModSys@@QAE@XZ 1001b519 f i umodsys_lib_libui:umodsys.mod.ui.frames.obj
 0001:0001a519       ??1?$TRefObjectCompositeExtra@UIMouseClient@libui@UModSys@@HUIRefObject@core@3@U?$TRefObjectFunc@UIRefObject@core@UModSys@@@tl@3@@tl@UModSys@@QAE@XZ 1001b519 f i umodsys_lib_libui:umodsys.mod.ui.SDL_GL.obj
 0001:0001a519       ??1?$TRefObjectComposite@UIKeyboardClient@libui@UModSys@@UIRefObject@core@3@U?$TRefObjectFunc@UIRefObject@core@UModSys@@@tl@3@@tl@UModSys@@QAE@XZ 1001b519 f i umodsys_lib_libui:umodsys.mod.ui.SDL_GL.obj
 0001:0001a55e       ?remove_color@?$TTreeHoldRB@U?$TScatterArrayNode@U?$TRefObjectCompositeExtra@UIMouseClient@libui@UModSys@@HUIRefObject@core@3@U?$TRefObjectFunc@UIRefObject@core@UModSys@@@tl@3@@tl@UModSys@@H@tl@UModSys@@@tl@UModSys@@IAEXPAU?$TScatterArrayNode@U?$TRefObjectCompositeExtra@UIMouseClient@libui@UModSys@@HUIRefObject@core@3@U?$TRefObjectFunc@UIRefObject@core@UModSys@@@tl@3@@tl@UModSys@@H@23@0@Z 1001b55e f i umodsys_lib_libui:umodsys.mod.ui.SDL_GL.obj
 0001:0001a55e       ?remove_color@?$TTreeHoldRB@U?$TScatterArrayNode@U?$TRefObjectComposite@UIKeyboardClient@libui@UModSys@@UIRefObject@core@3@U?$TRefObjectFunc@UIRefObject@core@UModSys@@@tl@3@@tl@UModSys@@H@tl@UModSys@@@tl@UModSys@@IAEXPAU?$TScatterArrayNode@U?$TRefObjectComposite@UIKeyboardClient@libui@UModSys@@UIRefObject@core@3@U?$TRefObjectFunc@UIRefObject@core@UModSys@@@tl@3@@tl@UModSys@@H@23@0@Z 1001b55e f i umodsys_lib_libui:umodsys.mod.ui.SDL_GL.obj
 0001:0001a660       ?ResizeRel@?$TDynarray@U?$TDynarrayHolderDynamic@USLayInfo@RVertexArray@SDL_GL@ui@modules@UModSys@@U?$TAllocator@USIMemAlloc@core@UModSys@@USCountCalcExact@23@@tl@6@@tl@UModSys@@@tl@UModSys@@QAE_NH@Z 1001b660 f i umodsys_lib_libui:umodsys.mod.ui.SDL_GL.obj
 0001:0001a6eb       ??$t_gen_param@URTerminalX@SDL_GL@ui@modules@UModSys@@URGenerator@2345@@IGenerator@base@UModSys@@IAE_NPAURGenerator@SDL_GL@ui@modules@2@AAU?$TRefObject@UIRefObject@core@UModSys@@U?$TRefObjectFunc@UIRefObject@core@UModSys@@@tl@3@@tl@2@PBUSUniquePointerInfo@core@2@ABUSParameters@core@2@@Z 1001b6eb f i umodsys_lib_libui:umodsys.mod.ui.SDL_GL.obj
 0001:0001a780       ??$ValidateConstruction@UIMultiImage@lib2d@UModSys@@URMultiImage2D_SDL_ttf@SDL_GL@ui@modules@3@@core@UModSys@@YA_NAAU?$TRefObject@UIMultiImage@lib2d@UModSys@@U?$TRefObjectFunc@UIMultiImage@lib2d@UModSys@@@tl@3@@tl@1@PAURMultiImage2D_SDL_ttf@SDL_GL@ui@modules@1@@Z 1001b780 f i umodsys_lib_libui:umodsys.mod.ui.SDL_GL.obj
 0001:0001a7d2       ??$genx_node@UCmp@?$TScatterArray@U?$TRefObjectComposite@UIKeyboardClient@libui@UModSys@@UIRefObject@core@3@U?$TRefObjectFunc@UIRefObject@core@UModSys@@@tl@3@@tl@UModSys@@HU?$TScalarCompare@H@core@3@U?$TNodeDeleter0@U?$TScatterArrayNode@U?$TRefObjectComposite@UIKeyboardClient@libui@UModSys@@UIRefObject@core@3@U?$TRefObjectFunc@UIRefObject@core@UModSys@@@tl@3@@tl@UModSys@@H@tl@UModSys@@@23@@tl@UModSys@@UGen0@234@@?$TTreeHoldRBD@U?$TScatterArrayNode@U?$TRefObjectComposite@UIKeyboardClient@libui@UModSys@@UIRefObject@core@3@U?$TRefObjectFunc@UIRefObject@core@UModSys@@@tl@3@@tl@UModSys@@H@tl@UModSys@@U?$TNodeDeleter0@U?$TScatterArrayNode@U?$TRefObjectComposite@UIKeyboardClient@libui@UModSys@@UIRefObject@core@3@U?$TRefObjectFunc@UIRefObject@core@UModSys@@@tl@3@@tl@UModSys@@H@tl@UModSys@@@23@@tl@UModSys@@QAEPAU?$TScatterArrayNode@U?$TRefObjectComposite@UIKeyboardClient@libui@UModSys@@UIRefObject@core@3@U?$TRefObjectFunc@UIRefObject@core@UModSys@@@tl@3@@tl@UModSys@@H@12@UCmp@?$TScatterArray@U?$TRefObjectComposite@UIKeyboardClient@libui@UModSys@@UIRefObject@core@3@U?$TRefObjectFunc@UIRefObject@core@UModSys@@@tl@3@@tl@UModSys@@HU?$TScalarCompare@H@core@3@U?$TNodeDeleter0@U?$TScatterArrayNode@U?$TRefObjectComposite@UIKeyboardClient@libui@UModSys@@UIRefObject@core@3@U?$TRefObjectFunc@UIRefObject@core@UModSys@@@tl@3@@tl@UModSys@@H@tl@UModSys@@@23@@12@ABUGen0@512@PAPAU312@2_N@Z 1001b7d2 f i umodsys_lib_libui:umodsys.mod.ui.SDL_GL.obj
 0001:0001a860       ??$genx_node@UCmp@?$TScatterArray@U?$TRefObjectCompositeExtra@UIMouseClient@libui@UModSys@@HUIRefObject@core@3@U?$TRefObjectFunc@UIRefObject@core@UModSys@@@tl@3@@tl@UModSys@@HU?$TScalarCompare@H@core@3@U?$TNodeDeleter0@U?$TScatterArrayNode@U?$TRefObjectCompositeExtra@UIMouseClient@libui@UModSys@@HUIRefObject@core@3@U?$TRefObjectFunc@UIRefObject@core@UModSys@@@tl@3@@tl@UModSys@@H@tl@UModSys@@@23@@tl@UModSys@@UGen0@234@@?$TTreeHoldRBD@U?$TScatterArrayNode@U?$TRefObjectCompositeExtra@UIMouseClient@libui@UModSys@@HUIRefObject@core@3@U?$TRefObjectFunc@UIRefObject@core@UModSys@@@tl@3@@tl@UModSys@@H@tl@UModSys@@U?$TNodeDeleter0@U?$TScatterArrayNode@U?$TRefObjectCompositeExtra@UIMouseClient@libui@UModSys@@HUIRefObject@core@3@U?$TRefObjectFunc@UIRefObject@core@UModSys@@@tl@3@@tl@UModSys@@H@tl@UModSys@@@23@@tl@UModSys@@QAEPAU?$TScatterArrayNode@U?$TRefObjectCompositeExtra@UIMouseClient@libui@UModSys@@HUIRefObject@core@3@U?$TRefObjectFunc@UIRefObject@core@UModSys@@@tl@3@@tl@UModSys@@H@12@UCmp@?$TScatterArray@U?$TRefObjectCompositeExtra@UIMouseClient@libui@UModSys@@HUIRefObject@core@3@U?$TRefObjectFunc@UIRefObject@core@UModSys@@@tl@3@@tl@UModSys@@HU?$TScalarCompare@H@core@3@U?$TNodeDeleter0@U?$TScatterArrayNode@U?$TRefObjectCompositeExtra@UIMouseClient@libui@UModSys@@HUIRefObject@core@3@U?$TRefObjectFunc@UIRefObject@core@UModSys@@@tl@3@@tl@UModSys@@H@tl@UModSys@@@23@@12@ABUGen0@512@PAPAU312@2_N@Z 1001b860 f i umodsys_lib_libui:umodsys.mod.ui.SDL_GL.obj
 0001:0001a8ee       ??$genx_node@UCmp@?$TScatterArray@UGlyph@RMultiImage2D_SDL_ttf@SDL_GL@ui@modules@UModSys@@HU?$TScalarCompare@H@core@6@U?$TNodeDeleter0@U?$TScatterArrayNode@UGlyph@RMultiImage2D_SDL_ttf@SDL_GL@ui@modules@UModSys@@H@tl@UModSys@@@tl@6@@tl@UModSys@@UGen0@234@@?$TTreeHoldRBD@U?$TScatterArrayNode@UGlyph@RMultiImage2D_SDL_ttf@SDL_GL@ui@modules@UModSys@@H@tl@UModSys@@U?$TNodeDeleter0@U?$TScatterArrayNode@UGlyph@RMultiImage2D_SDL_ttf@SDL_GL@ui@modules@UModSys@@H@tl@UModSys@@@23@@tl@UModSys@@QAEPAU?$TScatterArrayNode@UGlyph@RMultiImage2D_SDL_ttf@SDL_GL@ui@modules@UModSys@@H@12@UCmp@?$TScatterArray@UGlyph@RMultiImage2D_SDL_ttf@SDL_GL@ui@modules@UModSys@@HU?$TScalarCompare@H@core@6@U?$TNodeDeleter0@U?$TScatterArrayNode@UGlyph@RMultiImage2D_SDL_ttf@SDL_GL@ui@modules@UModSys@@H@tl@UModSys@@@tl@6@@12@ABUGen0@512@PAPAU312@2_N@Z 1001b8ee f i umodsys_lib_libui:umodsys.mod.ui.SDL_GL.obj
 0001:0001a97f       ??0?$TScatterArrayNode@U?$TRefObjectComposite@UIKeyboardClient@libui@UModSys@@UIRefObject@core@3@U?$TRefObjectFunc@UIRefObject@core@UModSys@@@tl@3@@tl@UModSys@@H@tl@UModSys@@QAE@ABH@Z 1001b97f f i umodsys_lib_libui:umodsys.mod.ui.SDL_GL.obj
 0001:0001a9ce       ??0?$TScatterArrayNode@U?$TRefObjectCompositeExtra@UIMouseClient@libui@UModSys@@HUIRefObject@core@3@U?$TRefObjectFunc@UIRefObject@core@UModSys@@@tl@3@@tl@UModSys@@H@tl@UModSys@@QAE@ABH@Z 1001b9ce f i umodsys_lib_libui:umodsys.mod.ui.SDL_GL.obj
 0001:0001aa24       ??0?$TScatterArrayNode@UGlyph@RMultiImage2D_SDL_ttf@SDL_GL@ui@modules@UModSys@@H@tl@UModSys@@QAE@ABH@Z 1001ba24 f i umodsys_lib_libui:umodsys.mod.ui.SDL_GL.obj
 0001:0001ab1e       ??1?$TPair@HUGlyph@RMultiImage2D_SDL_ttf@SDL_GL@ui@modules@UModSys@@@tl@UModSys@@QAE@XZ 1001bb1e f i umodsys_lib_libui:umodsys.mod.ui.SDL_GL.obj
 0001:0001ab28       ??0STextureGL@SDL_GL@ui@modules@UModSys@@QAE@ABU01234@@Z 1001bb28 f i umodsys_lib_libui:umodsys.mod.ui.SDL_GL.obj
 0001:0001abf9       ??$process_nodes_r@U?$TNodeDeleter0@U?$TScatterArrayNode@U?$TRefObjectComposite@UIKeyboardClient@libui@UModSys@@UIRefObject@core@3@U?$TRefObjectFunc@UIRefObject@core@UModSys@@@tl@3@@tl@UModSys@@H@tl@UModSys@@@tl@UModSys@@@?$TTreeHoldRB@U?$TScatterArrayNode@U?$TRefObjectComposite@UIKeyboardClient@libui@UModSys@@UIRefObject@core@3@U?$TRefObjectFunc@UIRefObject@core@UModSys@@@tl@3@@tl@UModSys@@H@tl@UModSys@@@tl@UModSys@@KAHPAU?$TScatterArrayNode@U?$TRefObjectComposite@UIKeyboardClient@libui@UModSys@@UIRefObject@core@3@U?$TRefObjectFunc@UIRefObject@core@UModSys@@@tl@3@@tl@UModSys@@H@12@ABU?$TNodeDeleter0@U?$TScatterArrayNode@U?$TRefObjectComposite@UIKeyboardClient@libui@UModSys@@UIRefObject@core@3@U?$TRefObjectFunc@UIRefObject@core@UModSys@@@tl@3@@tl@UModSys@@H@tl@UModSys@@@12@@Z 1001bbf9 f i umodsys_lib_libui:umodsys.mod.ui.SDL_GL.obj
 0001:0001abf9       ??$process_nodes_r@U?$TNodeDeleter0@U?$TScatterArrayNode@U?$TRefObjectCompositeExtra@UIMouseClient@libui@UModSys@@HUIRefObject@core@3@U?$TRefObjectFunc@UIRefObject@core@UModSys@@@tl@3@@tl@UModSys@@H@tl@UModSys@@@tl@UModSys@@@?$TTreeHoldRB@U?$TScatterArrayNode@U?$TRefObjectCompositeExtra@UIMouseClient@libui@UModSys@@HUIRefObject@core@3@U?$TRefObjectFunc@UIRefObject@core@UModSys@@@tl@3@@tl@UModSys@@H@tl@UModSys@@@tl@UModSys@@KAHPAU?$TScatterArrayNode@U?$TRefObjectCompositeExtra@UIMouseClient@libui@UModSys@@HUIRefObject@core@3@U?$TRefObjectFunc@UIRefObject@core@UModSys@@@tl@3@@tl@UModSys@@H@12@ABU?$TNodeDeleter0@U?$TScatterArrayNode@U?$TRefObjectCompositeExtra@UIMouseClient@libui@UModSys@@HUIRefObject@core@3@U?$TRefObjectFunc@UIRefObject@core@UModSys@@@tl@3@@tl@UModSys@@H@tl@UModSys@@@12@@Z 1001bbf9 f i umodsys_lib_libui:umodsys.mod.ui.SDL_GL.obj
 0001:0001ac43       ??$process_nodes_r@U?$TNodeDeleter0@U?$TScatterArrayNode@UGlyph@RMultiImage2D_SDL_ttf@SDL_GL@ui@modules@UModSys@@H@tl@UModSys@@@tl@UModSys@@@?$TTreeHoldRB@U?$TScatterArrayNode@UGlyph@RMultiImage2D_SDL_ttf@SDL_GL@ui@modules@UModSys@@H@tl@UModSys@@@tl@UModSys@@KAHPAU?$TScatterArrayNode@UGlyph@RMultiImage2D_SDL_ttf@SDL_GL@ui@modules@UModSys@@H@12@ABU?$TNodeDeleter0@U?$TScatterArrayNode@UGlyph@RMultiImage2D_SDL_ttf@SDL_GL@ui@modules@UModSys@@H@tl@UModSys@@@12@@Z 1001bc43 f i umodsys_lib_libui:umodsys.mod.ui.SDL_GL.obj
 0001:0001ac8d       ??1?$TRefObject@URMediaFilter@images_std@media@modules@UModSys@@U?$TRefObjectFunc@URMediaFilter@images_std@media@modules@UModSys@@@tl@5@@tl@UModSys@@QAE@XZ 1001bc8d f i umodsys_lib_libmedia:umodsys.mod.media.images_std.obj
 0001:0001ac8d       ??1?$TRefObject@UIRenderDriver@lib2d@UModSys@@U?$TRefObjectFunc@UIRenderDriver@lib2d@UModSys@@@tl@3@@tl@UModSys@@QAE@XZ 1001bc8d f i plugin_test1.obj
 0001:0001ac8d       ??1?$TRefObject@UIImageFactory@lib2d@UModSys@@U?$TRefObjectFunc@UIImageFactory@lib2d@UModSys@@@tl@3@@tl@UModSys@@QAE@XZ 1001bc8d f i plugin_test1.obj
 0001:0001ac8d       ??1?$TRefObject@UICollector@libui@UModSys@@U?$TRefObjectFunc@UICollector@libui@UModSys@@@tl@3@@tl@UModSys@@QAE@XZ 1001bc8d f i plugin_test1.obj
 0001:0001ac8d       ??1?$TRefObject@UIMouseController@libui@UModSys@@U?$TRefObjectFunc@UIMouseController@libui@UModSys@@@tl@3@@tl@UModSys@@QAE@XZ 1001bc8d f i plugin_test1.obj
 0001:0001ac8d       ??1?$TRefObject@UIImage@lib2d@UModSys@@U?$TRefObjectFunc@UIImage@lib2d@UModSys@@@tl@3@@tl@UModSys@@QAE@XZ 1001bc8d f i plugin_test1.obj
 0001:0001ac8d       ??1?$TRefObject@URSerializeWriter@serialize_json@media@modules@UModSys@@U?$TRefObjectFunc@URSerializeWriter@serialize_json@media@modules@UModSys@@@tl@5@@tl@UModSys@@QAE@XZ 1001bc8d f i umodsys_lib_libmedia:umodsys.mod.media.serialize_json.obj
 0001:0001ac8d       ??1?$TRefObject@UIStreamWriter@libmedia@UModSys@@U?$TRefObjectFunc@UIStreamWriter@libmedia@UModSys@@@tl@3@@tl@UModSys@@QAE@XZ 1001bc8d f i plugin_test1.obj
 0001:0001ac8d       ??1?$TRefObject@URRenderDriver3D@SDL_GL@ui@modules@UModSys@@U?$TRefObjectFunc@URRenderDriver3D@SDL_GL@ui@modules@UModSys@@@tl@5@@tl@UModSys@@QAE@XZ 1001bc8d f i umodsys_lib_libui:umodsys.mod.ui.SDL_GL.obj
 0001:0001ac8d       ??1?$TRefObject@URCollector@frames@ui@modules@UModSys@@U?$TRefObjectFunc@URCollector@frames@ui@modules@UModSys@@@tl@5@@tl@UModSys@@QAE@XZ 1001bc8d f i umodsys_lib_libui:umodsys.mod.ui.frames.obj
 0001:0001ac8d       ??1?$TRefObject@URMultiImage@stdlib@lib2d@modules@UModSys@@U?$TRefObjectFunc@URMultiImage@stdlib@lib2d@modules@UModSys@@@tl@5@@tl@UModSys@@QAE@XZ 1001bc8d f i umodsys_lib_lib2d:umodsys.mod.2d.stdlib.obj
 0001:0001ac8d       ??1?$TRefObject@URTerminalX@SDL_core@ui@modules@UModSys@@U?$TRefObjectFunc@URTerminalX@SDL_core@ui@modules@UModSys@@@tl@5@@tl@UModSys@@QAE@XZ 1001bc8d f i umodsys_lib_libui:umodsys.mod.ui.SDL_core.obj
 0001:0001ac8d       ??1?$TRefObject@UITerminal@libui@UModSys@@U?$TRefObjectFunc@UITerminal@libui@UModSys@@@tl@3@@tl@UModSys@@QAE@XZ 1001bc8d f i plugin_test1.obj
 0001:0001ac8d       ??1?$TRefObject@UIVertexArray@lib3d@UModSys@@U?$TRefObjectFunc@UIVertexArray@lib3d@UModSys@@@tl@3@@tl@UModSys@@QAE@XZ 1001bc8d f i plugin_test1.obj
 0001:0001ac8d       ??1?$TRefObject@URMultiImage2D_SDL_ttf@SDL_core@ui@modules@UModSys@@U?$TRefObjectFunc@URMultiImage2D_SDL_ttf@SDL_core@ui@modules@UModSys@@@tl@5@@tl@UModSys@@QAE@XZ 1001bc8d f i umodsys_lib_libui:umodsys.mod.ui.SDL_core.obj
 0001:0001ac8d       ??1?$TRefObject@URTerminalX@SDL_GL@ui@modules@UModSys@@U?$TRefObjectFunc@URTerminalX@SDL_GL@ui@modules@UModSys@@@tl@5@@tl@UModSys@@QAE@XZ 1001bc8d f i umodsys_lib_libui:umodsys.mod.ui.SDL_GL.obj
 0001:0001ac8d       ??1?$TRefObject@URRenderDriver2D@SDL_core@ui@modules@UModSys@@U?$TRefObjectFunc@URRenderDriver2D@SDL_core@ui@modules@UModSys@@@tl@5@@tl@UModSys@@QAE@XZ 1001bc8d f i umodsys_lib_libui:umodsys.mod.ui.SDL_core.obj
 0001:0001ac8d       ??1?$TRefObject@URDialog@frames@ui@modules@UModSys@@U?$TRefObjectFunc@URDialog@frames@ui@modules@UModSys@@@tl@5@@tl@UModSys@@QAE@XZ 1001bc8d f i umodsys_lib_libui:umodsys.mod.ui.frames.obj
 0001:0001ac8d       ??1?$TRefObject@URMultiImage2D_SDL_ttf@SDL_GL@ui@modules@UModSys@@U?$TRefObjectFunc@URMultiImage2D_SDL_ttf@SDL_GL@ui@modules@UModSys@@@tl@5@@tl@UModSys@@QAE@XZ 1001bc8d f i umodsys_lib_libui:umodsys.mod.ui.SDL_GL.obj
 0001:0001ac8d       ??1?$TRefObject@UIRefObject@core@UModSys@@U?$TRefObjectFunc@UIRefObject@core@UModSys@@@tl@3@@tl@UModSys@@QAE@XZ 1001bc8d f i plugin_test1.obj
 0001:0001ac8d       ??1?$TRefObject@UIRenderDriver@lib3d@UModSys@@U?$TRefObjectFunc@UIRenderDriver@lib3d@UModSys@@@tl@3@@tl@UModSys@@QAE@XZ 1001bc8d f i plugin_test1.obj
 0001:0001ac8d       ??1?$TRefObject@UIMultiImage@lib2d@UModSys@@U?$TRefObjectFunc@UIMultiImage@lib2d@UModSys@@@tl@3@@tl@UModSys@@QAE@XZ 1001bc8d f i plugin_test1.obj
 0001:0001ac8d       ??1?$TRefObject@URBinArchiveFrameClient_ZIP@zlib@media@modules@UModSys@@U?$TRefObjectFunc@URBinArchiveFrameClient_ZIP@zlib@media@modules@UModSys@@@tl@5@@tl@UModSys@@QAE@XZ 1001bc8d f i umodsys_lib_libmedia:umodsys.mod.media.zlib.obj
 0001:0001ac8d       ??1?$TRefObject@URSerializeReader@serialize_json@media@modules@UModSys@@U?$TRefObjectFunc@URSerializeReader@serialize_json@media@modules@UModSys@@@tl@5@@tl@UModSys@@QAE@XZ 1001bc8d f i umodsys_lib_libmedia:umodsys.mod.media.serialize_json.obj
 0001:0001ac8d       ??1?$TRefObject@URImage_Memory@stdlib@lib2d@modules@UModSys@@U?$TRefObjectFunc@URImage_Memory@stdlib@lib2d@modules@UModSys@@@tl@5@@tl@UModSys@@QAE@XZ 1001bc8d f i umodsys_lib_lib2d:umodsys.mod.2d.stdlib.obj
 0001:0001ac8d       ??1?$TRefObject@UIUtilities@libmedia@UModSys@@U?$TRefObjectFunc@UIUtilities@libmedia@UModSys@@@tl@3@@tl@UModSys@@QAE@XZ 1001bc8d f i plugin_test1.obj
 0001:0001ac8d       ??1?$TRefObject@UIFrame@libui@UModSys@@U?$TRefObjectFunc@UIFrame@libui@UModSys@@@tl@3@@tl@UModSys@@QAE@XZ 1001bc8d f i umodsys_lib_libui:umodsys.mod.ui.frames.obj
 0001:0001ac8d       ??1?$TRefObject@UIStreamReader@libmedia@UModSys@@U?$TRefObjectFunc@UIStreamReader@libmedia@UModSys@@@tl@3@@tl@UModSys@@QAE@XZ 1001bc8d f i plugin_test1.obj
 0001:0001ac8d       ??1?$TRefObject@URImageFactory_Memory@stdlib@lib2d@modules@UModSys@@U?$TRefObjectFunc@URImageFactory_Memory@stdlib@lib2d@modules@UModSys@@@tl@5@@tl@UModSys@@QAE@XZ 1001bc8d f i umodsys_lib_lib2d:umodsys.mod.2d.stdlib.obj
 0001:0001ac8d       ??1?$TRefObject@URVertexArray@SDL_GL@ui@modules@UModSys@@U?$TRefObjectFunc@URVertexArray@SDL_GL@ui@modules@UModSys@@@tl@5@@tl@UModSys@@QAE@XZ 1001bc8d f i umodsys_lib_libui:umodsys.mod.ui.SDL_GL.obj
 0001:0001ac8d       ??1?$TRefObject@URFrame_Common@frames@ui@modules@UModSys@@U?$TRefObjectFunc@URFrame_Common@frames@ui@modules@UModSys@@@tl@5@@tl@UModSys@@QAE@XZ 1001bc8d f i umodsys_lib_libui:umodsys.mod.ui.frames.obj
 0001:0001ac8d       ??1?$TRefObject@UIKeyboardController@libui@UModSys@@U?$TRefObjectFunc@UIKeyboardController@libui@UModSys@@@tl@3@@tl@UModSys@@QAE@XZ 1001bc8d f i plugin_test1.obj
 0001:0001ac9c       ?root_get_interface_info@RKeyboardController@SDL_core@ui@modules@UModSys@@UBEABUSUniquePointerInfo@core@5@XZ 1001bc9c f i umodsys_lib_libui:umodsys.mod.ui.SDL_core.obj
 0001:0001aca2       ?root_get_interface_type@RKeyboardController@SDL_core@ui@modules@UModSys@@UBEPBUSUniquePointerInfo@core@5@XZ 1001bca2 f i umodsys_lib_libui:umodsys.mod.ui.SDL_core.obj
 0001:0001aca8       ?root_get_other_interface@RKeyboardController@SDL_core@ui@modules@UModSys@@UBEPBUIRoot@core@5@PBUSUniquePointerInfo@75@@Z 1001bca8 f i umodsys_lib_libui:umodsys.mod.ui.SDL_core.obj
 0001:0001aca8       ?root_get_other_interface@RKeyboardController@SDL_core@ui@modules@UModSys@@UAEPAUIRoot@core@5@PBUSUniquePointerInfo@75@@Z 1001bca8 f i umodsys_lib_libui:umodsys.mod.ui.SDL_core.obj
 0001:0001acc9       ?root_is_interface_supported@RKeyboardController@SDL_core@ui@modules@UModSys@@UBE_NPBUSUniquePointerInfo@core@5@@Z 1001bcc9 f i umodsys_lib_libui:umodsys.mod.ui.SDL_core.obj
 0001:0001acf0       ?ref_add@RKeyboardController@SDL_core@ui@modules@UModSys@@UBEXXZ 1001bcf0 f i umodsys_lib_libui:umodsys.mod.ui.SDL_core.obj
 0001:0001acf0       ?ref_add@RKeyboardController@SDL_GL@ui@modules@UModSys@@UBEXXZ 1001bcf0 f i umodsys_lib_libui:umodsys.mod.ui.SDL_GL.obj
 0001:0001acf0       ?ref_add@RRenderDriver3D@SDL_GL@ui@modules@UModSys@@UBEXXZ 1001bcf0 f i umodsys_lib_libui:umodsys.mod.ui.SDL_GL.obj
 0001:0001acf0       ?ref_add@RRenderDriver2D@SDL_core@ui@modules@UModSys@@UBEXXZ 1001bcf0 f i umodsys_lib_libui:umodsys.mod.ui.SDL_core.obj
 0001:0001acf0       ?ref_add@RMouseController@SDL_GL@ui@modules@UModSys@@UBEXXZ 1001bcf0 f i umodsys_lib_libui:umodsys.mod.ui.SDL_GL.obj
 0001:0001acf0       ?ref_add@RMouseController@SDL_core@ui@modules@UModSys@@UBEXXZ 1001bcf0 f i umodsys_lib_libui:umodsys.mod.ui.SDL_core.obj
 0001:0001acf8       ?ref_weak@RRenderDriver3D@SDL_GL@ui@modules@UModSys@@UBE_NAAUWeakPointer@IRefObject@core@5@@Z 1001bcf8 f i umodsys_lib_libui:umodsys.mod.ui.SDL_GL.obj
 0001:0001acf8       ?ref_weak@RMouseController@SDL_GL@ui@modules@UModSys@@UBE_NAAUWeakPointer@IRefObject@core@5@@Z 1001bcf8 f i umodsys_lib_libui:umodsys.mod.ui.SDL_GL.obj
 0001:0001acf8       ?ref_weak@RKeyboardController@SDL_GL@ui@modules@UModSys@@UBE_NAAUWeakPointer@IRefObject@core@5@@Z 1001bcf8 f i umodsys_lib_libui:umodsys.mod.ui.SDL_GL.obj
 0001:0001acf8       ?ref_weak@RMouseController@SDL_core@ui@modules@UModSys@@UBE_NAAUWeakPointer@IRefObject@core@5@@Z 1001bcf8 f i umodsys_lib_libui:umodsys.mod.ui.SDL_core.obj
 0001:0001acf8       ?ref_weak@RRenderDriver2D@SDL_core@ui@modules@UModSys@@UBE_NAAUWeakPointer@IRefObject@core@5@@Z 1001bcf8 f i umodsys_lib_libui:umodsys.mod.ui.SDL_core.obj
 0001:0001acf8       ?ref_weak@RKeyboardController@SDL_core@ui@modules@UModSys@@UBE_NAAUWeakPointer@IRefObject@core@5@@Z 1001bcf8 f i umodsys_lib_libui:umodsys.mod.ui.SDL_core.obj
 0001:0001ad17       ?root_get_interface_info@RMouseController@SDL_core@ui@modules@UModSys@@UBEABUSUniquePointerInfo@core@5@XZ 1001bd17 f i umodsys_lib_libui:umodsys.mod.ui.SDL_core.obj
 0001:0001ad1d       ?root_get_interface_type@RMouseController@SDL_core@ui@modules@UModSys@@UBEPBUSUniquePointerInfo@core@5@XZ 1001bd1d f i umodsys_lib_libui:umodsys.mod.ui.SDL_core.obj
 0001:0001ad23       ?root_get_other_interface@RMouseController@SDL_core@ui@modules@UModSys@@UAEPAUIRoot@core@5@PBUSUniquePointerInfo@75@@Z 1001bd23 f i umodsys_lib_libui:umodsys.mod.ui.SDL_core.obj
 0001:0001ad23       ?root_get_other_interface@RMouseController@SDL_core@ui@modules@UModSys@@UBEPBUIRoot@core@5@PBUSUniquePointerInfo@75@@Z 1001bd23 f i umodsys_lib_libui:umodsys.mod.ui.SDL_core.obj
 0001:0001ad44       ?root_is_interface_supported@RMouseController@SDL_core@ui@modules@UModSys@@UBE_NPBUSUniquePointerInfo@core@5@@Z 1001bd44 f i umodsys_lib_libui:umodsys.mod.ui.SDL_core.obj
 0001:0001ad6b       ?_root_is_interface_supported@RTerminal@SDL_core@ui@modules@UModSys@@SA_NPBUSUniquePointerInfo@core@5@@Z 1001bd6b f i umodsys_lib_libui:umodsys.mod.ui.SDL_core.obj
 0001:0001ad8b       ?root_get_interface_info@RTerminal@SDL_core@ui@modules@UModSys@@UBEABUSUniquePointerInfo@core@5@XZ 1001bd8b f i umodsys_lib_libui:umodsys.mod.ui.SDL_core.obj
 0001:0001ad91       ?root_get_interface_type@RTerminal@SDL_core@ui@modules@UModSys@@UBEPBUSUniquePointerInfo@core@5@XZ 1001bd91 f i umodsys_lib_libui:umodsys.mod.ui.SDL_core.obj
 0001:0001ad97       ?root_get_other_interface@RTerminal@SDL_core@ui@modules@UModSys@@UBEPBUIRoot@core@5@PBUSUniquePointerInfo@75@@Z 1001bd97 f i umodsys_lib_libui:umodsys.mod.ui.SDL_core.obj
 0001:0001ad97       ?root_get_other_interface@RTerminal@SDL_core@ui@modules@UModSys@@UAEPAUIRoot@core@5@PBUSUniquePointerInfo@75@@Z 1001bd97 f i umodsys_lib_libui:umodsys.mod.ui.SDL_core.obj
 0001:0001adb8       ?root_is_interface_supported@RTerminal@SDL_core@ui@modules@UModSys@@UBE_NPBUSUniquePointerInfo@core@5@@Z 1001bdb8 f i umodsys_lib_libui:umodsys.mod.ui.SDL_core.obj
 0001:0001adc4       ?root_get_interface_info@RMultiImage2D_SDL_ttf@SDL_core@ui@modules@UModSys@@UBEABUSUniquePointerInfo@core@5@XZ 1001bdc4 f i umodsys_lib_libui:umodsys.mod.ui.SDL_core.obj
 0001:0001adca       ?root_get_interface_type@RMultiImage2D_SDL_ttf@SDL_core@ui@modules@UModSys@@UBEPBUSUniquePointerInfo@core@5@XZ 1001bdca f i umodsys_lib_libui:umodsys.mod.ui.SDL_core.obj
 0001:0001add0       ?root_get_other_interface@RMultiImage2D_SDL_ttf@SDL_core@ui@modules@UModSys@@UAEPAUIRoot@core@5@PBUSUniquePointerInfo@75@@Z 1001bdd0 f i umodsys_lib_libui:umodsys.mod.ui.SDL_core.obj
 0001:0001add0       ?root_get_other_interface@RMultiImage2D_SDL_ttf@SDL_core@ui@modules@UModSys@@UBEPBUIRoot@core@5@PBUSUniquePointerInfo@75@@Z 1001bdd0 f i umodsys_lib_libui:umodsys.mod.ui.SDL_core.obj
 0001:0001adf1       ?root_is_interface_supported@RMultiImage2D_SDL_ttf@SDL_core@ui@modules@UModSys@@UBE_NPBUSUniquePointerInfo@core@5@@Z 1001bdf1 f i umodsys_lib_libui:umodsys.mod.ui.SDL_core.obj
 0001:0001ae18       ?ref_links@RMultiImage@stdlib@lib2d@modules@UModSys@@UBEHXZ 1001be18 f i umodsys_lib_lib2d:umodsys.mod.2d.stdlib.obj
 0001:0001ae18       ?ref_links@RGenerator@stdlib@lib2d@modules@UModSys@@UBEHXZ 1001be18 f i umodsys_lib_lib2d:umodsys.mod.2d.stdlib.obj
 0001:0001ae18       ?ref_links@RSerializeReader@serialize_json@media@modules@UModSys@@UBEHXZ 1001be18 f i umodsys_lib_libmedia:umodsys.mod.media.serialize_json.obj
 0001:0001ae18       ?ref_links@RMultiImage2D_SDL_ttf@SDL_GL@ui@modules@UModSys@@UBEHXZ 1001be18 f i umodsys_lib_libui:umodsys.mod.ui.SDL_GL.obj
 0001:0001ae18       ?ref_links@RImage_Memory@stdlib@lib2d@modules@UModSys@@UBEHXZ 1001be18 f i umodsys_lib_lib2d:umodsys.mod.2d.stdlib.obj
 0001:0001ae18       ?ref_links@RGenerator@images_std@media@modules@UModSys@@UBEHXZ 1001be18 f i umodsys_lib_libmedia:umodsys.mod.media.images_std.obj
 0001:0001ae18       ?ref_links@RBinArchiveFrameClient_ZIP@zlib@media@modules@UModSys@@UBEHXZ 1001be18 f i umodsys_lib_libmedia:umodsys.mod.media.zlib.obj
 0001:0001ae18       ?ref_links@RDialog@frames@ui@modules@UModSys@@UBEHXZ 1001be18 f i umodsys_lib_libui:umodsys.mod.ui.frames.obj
 0001:0001ae18       ?ref_links@RGenerator@serialize_json@media@modules@UModSys@@UBEHXZ 1001be18 f i umodsys_lib_libmedia:umodsys.mod.media.serialize_json.obj
 0001:0001ae18       ?ref_links@RGenerator@test1@test@modules@UModSys@@UBEHXZ 1001be18 f i plugin_test1.obj
 0001:0001ae18       ?ref_links@RGenerator@SDL_GL@ui@modules@UModSys@@UBEHXZ 1001be18 f i umodsys_lib_libui:umodsys.mod.ui.SDL_GL.obj
 0001:0001ae18       ?ref_links@RGenerator@frames@ui@modules@UModSys@@UBEHXZ 1001be18 f i umodsys_lib_libui:umodsys.mod.ui.frames.obj
 0001:0001ae18       ?ref_links@RTerminal@SDL_core@ui@modules@UModSys@@UBEHXZ 1001be18 f i umodsys_lib_libui:umodsys.mod.ui.SDL_core.obj
 0001:0001ae18       ?ref_links@RImageFactory_Memory@stdlib@lib2d@modules@UModSys@@UBEHXZ 1001be18 f i umodsys_lib_lib2d:umodsys.mod.2d.stdlib.obj
 0001:0001ae18       ?ref_links@RTerminal@SDL_GL@ui@modules@UModSys@@UBEHXZ 1001be18 f i umodsys_lib_libui:umodsys.mod.ui.SDL_GL.obj
 0001:0001ae18       ?ref_links@RMultiImage2D_SDL_ttf@SDL_core@ui@modules@UModSys@@UBEHXZ 1001be18 f i umodsys_lib_libui:umodsys.mod.ui.SDL_core.obj
 0001:0001ae18       ?ref_links@RGenerator@SDL_core@ui@modules@UModSys@@UBEHXZ 1001be18 f i umodsys_lib_libui:umodsys.mod.ui.SDL_core.obj
 0001:0001ae18       ?ref_links@RVertexArray@SDL_GL@ui@modules@UModSys@@UBEHXZ 1001be18 f i umodsys_lib_libui:umodsys.mod.ui.SDL_GL.obj
 0001:0001ae18       ?ref_links@RGenerator@zlib@media@modules@UModSys@@UBEHXZ 1001be18 f i umodsys_lib_libmedia:umodsys.mod.media.zlib.obj
 0001:0001ae1c       ?suicide@RMultiImage2D_SDL_ttf@SDL_GL@ui@modules@UModSys@@UAEXXZ 1001be1c f i umodsys_lib_libui:umodsys.mod.ui.SDL_GL.obj
 0001:0001ae1c       ?suicide@RMultiImage2D_SDL_ttf@SDL_core@ui@modules@UModSys@@UAEXXZ 1001be1c f i umodsys_lib_libui:umodsys.mod.ui.SDL_core.obj
 0001:0001ae1c       ?suicide@RDialog@frames@ui@modules@UModSys@@UAEXXZ 1001be1c f i umodsys_lib_libui:umodsys.mod.ui.frames.obj
 0001:0001ae1c       ?suicide@RVertexArray@SDL_GL@ui@modules@UModSys@@UAEXXZ 1001be1c f i umodsys_lib_libui:umodsys.mod.ui.SDL_GL.obj
 0001:0001ae5c       ?get_cell@RMultiImage2D_SDL_ttf@SDL_core@ui@modules@UModSys@@UBE_NIAAU?$TVector2@H@math3d@5@PAU675@PAG@Z 1001be5c f i umodsys_lib_libui:umodsys.mod.ui.SDL_core.obj
 0001:0001ae5c       ?get_cell@RMultiImage2D_SDL_ttf@SDL_GL@ui@modules@UModSys@@UBE_NIAAU?$TVector2@H@math3d@5@PAU675@PAG@Z 1001be5c f i umodsys_lib_libui:umodsys.mod.ui.SDL_GL.obj
 0001:0001ae5c       ?setup_setlight@RRenderDriver3D@SDL_GL@ui@modules@UModSys@@UAE_NHW4eLightType@lib3d@5@ABUSLight@75@ABU?$TMatrix44@N@math3d@5@@Z 1001be5c f i umodsys_lib_libui:umodsys.mod.ui.SDL_GL.obj
 0001:0001ae61       ?setup_clearlights@RRenderDriver3D@SDL_GL@ui@modules@UModSys@@UAE_NW4eLightType@lib3d@5@_N1@Z 1001be61 f i umodsys_lib_libui:umodsys.mod.ui.SDL_GL.obj
 0001:0001ae61       ?key_setmodifier@RKeyboardController@SDL_core@ui@modules@UModSys@@UAE_NHHH@Z 1001be61 f i umodsys_lib_libui:umodsys.mod.ui.SDL_core.obj
 0001:0001ae61       ?setup_array@RRenderDriver3D@SDL_GL@ui@modules@UModSys@@UAE_NPAUIVertexArray@lib3d@5@W4eVertexClass@75@H@Z 1001be61 f i umodsys_lib_libui:umodsys.mod.ui.SDL_GL.obj
 0001:0001ae61       ?setup_variable_cell@RMultiImage2D_SDL_ttf@SDL_core@ui@modules@UModSys@@UAE_NPBUSImageCellInfo@lib2d@5@KK@Z 1001be61 f i umodsys_lib_libui:umodsys.mod.ui.SDL_core.obj
 0001:0001ae61       ?key_setmodifier@RKeyboardController@SDL_GL@ui@modules@UModSys@@UAE_NHHH@Z 1001be61 f i umodsys_lib_libui:umodsys.mod.ui.SDL_GL.obj
 0001:0001ae61       ?command_draw@RTest1_Shell@test1@test@modules@UModSys@@UAE_NABUSController@libui@5@PAUIRenderDriver@lib2d@5@ABU?$TBoundBox2@H@math3d@5@@Z 1001be61 f i plugin_test1.obj
 0001:0001ae61       ?setup_variable_cell@RMultiImage2D_SDL_ttf@SDL_GL@ui@modules@UModSys@@UAE_NPBUSImageCellInfo@lib2d@5@KK@Z 1001be61 f i umodsys_lib_libui:umodsys.mod.ui.SDL_GL.obj
 0001:0001ae66       ?root_get_interface_info@RRenderDriver2D@SDL_core@ui@modules@UModSys@@UBEABUSUniquePointerInfo@core@5@XZ 1001be66 f i umodsys_lib_libui:umodsys.mod.ui.SDL_core.obj
 0001:0001ae6c       ?root_get_interface_type@RRenderDriver2D@SDL_core@ui@modules@UModSys@@UBEPBUSUniquePointerInfo@core@5@XZ 1001be6c f i umodsys_lib_libui:umodsys.mod.ui.SDL_core.obj
 0001:0001ae72       ?root_get_other_interface@RRenderDriver2D@SDL_core@ui@modules@UModSys@@UBEPBUIRoot@core@5@PBUSUniquePointerInfo@75@@Z 1001be72 f i umodsys_lib_libui:umodsys.mod.ui.SDL_core.obj
 0001:0001ae72       ?root_get_other_interface@RRenderDriver2D@SDL_core@ui@modules@UModSys@@UAEPAUIRoot@core@5@PBUSUniquePointerInfo@75@@Z 1001be72 f i umodsys_lib_libui:umodsys.mod.ui.SDL_core.obj
 0001:0001ae93       ?root_is_interface_supported@RRenderDriver2D@SDL_core@ui@modules@UModSys@@UBE_NPBUSUniquePointerInfo@core@5@@Z 1001be93 f i umodsys_lib_libui:umodsys.mod.ui.SDL_core.obj
 0001:0001aeba       ?ref_remove@RKeyboardController@SDL_core@ui@modules@UModSys@@UBEXXZ 1001beba f i umodsys_lib_libui:umodsys.mod.ui.SDL_core.obj
 0001:0001aeba       ?ref_remove@RMouseController@SDL_GL@ui@modules@UModSys@@UBEXXZ 1001beba f i umodsys_lib_libui:umodsys.mod.ui.SDL_GL.obj
 0001:0001aeba       ?ref_remove@RRenderDriver3D@SDL_GL@ui@modules@UModSys@@UBEXXZ 1001beba f i umodsys_lib_libui:umodsys.mod.ui.SDL_GL.obj
 0001:0001aeba       ?ref_remove@RRenderDriver2D@SDL_core@ui@modules@UModSys@@UBEXXZ 1001beba f i umodsys_lib_libui:umodsys.mod.ui.SDL_core.obj
 0001:0001aeba       ?ref_remove@RKeyboardController@SDL_GL@ui@modules@UModSys@@UBEXXZ 1001beba f i umodsys_lib_libui:umodsys.mod.ui.SDL_GL.obj
 0001:0001aeba       ?ref_remove@RMouseController@SDL_core@ui@modules@UModSys@@UBEXXZ 1001beba f i umodsys_lib_libui:umodsys.mod.ui.SDL_core.obj
 0001:0001aec2       ?ref_links@RMouseController@SDL_GL@ui@modules@UModSys@@UBEHXZ 1001bec2 f i umodsys_lib_libui:umodsys.mod.ui.SDL_GL.obj
 0001:0001aec2       ?ref_links@RKeyboardController@SDL_core@ui@modules@UModSys@@UBEHXZ 1001bec2 f i umodsys_lib_libui:umodsys.mod.ui.SDL_core.obj
 0001:0001aec2       ?ref_links@RKeyboardController@SDL_GL@ui@modules@UModSys@@UBEHXZ 1001bec2 f i umodsys_lib_libui:umodsys.mod.ui.SDL_GL.obj
 0001:0001aec2       ?ref_links@RRenderDriver2D@SDL_core@ui@modules@UModSys@@UBEHXZ 1001bec2 f i umodsys_lib_libui:umodsys.mod.ui.SDL_core.obj
 0001:0001aec2       ?ref_links@RMouseController@SDL_core@ui@modules@UModSys@@UBEHXZ 1001bec2 f i umodsys_lib_libui:umodsys.mod.ui.SDL_core.obj
 0001:0001aec2       ?ref_links@RRenderDriver3D@SDL_GL@ui@modules@UModSys@@UBEHXZ 1001bec2 f i umodsys_lib_libui:umodsys.mod.ui.SDL_GL.obj
 0001:0001aeca       ?suicide@RRenderDriver2D@SDL_core@ui@modules@UModSys@@UAEXXZ 1001beca f i umodsys_lib_libui:umodsys.mod.ui.SDL_core.obj
 0001:0001aeca       ?suicide@RMouseController@SDL_core@ui@modules@UModSys@@UAEXXZ 1001beca f i umodsys_lib_libui:umodsys.mod.ui.SDL_core.obj
 0001:0001aeca       ?suicide@RKeyboardController@SDL_core@ui@modules@UModSys@@UAEXXZ 1001beca f i umodsys_lib_libui:umodsys.mod.ui.SDL_core.obj
 0001:0001aeca       ?suicide@RKeyboardController@SDL_GL@ui@modules@UModSys@@UAEXXZ 1001beca f i umodsys_lib_libui:umodsys.mod.ui.SDL_GL.obj
 0001:0001aeca       ?suicide@IRoot@core@UModSys@@UAEXXZ 1001beca f i umodsys_lib_core:umodsys.core.objects.obj
 0001:0001aeca       ?suicide@RRenderDriver3D@SDL_GL@ui@modules@UModSys@@UAEXXZ 1001beca f i umodsys_lib_libui:umodsys.mod.ui.SDL_GL.obj
 0001:0001aeca       ?suicide@RMouseController@SDL_GL@ui@modules@UModSys@@UAEXXZ 1001beca f i umodsys_lib_libui:umodsys.mod.ui.SDL_GL.obj
 0001:0001aed5       ?root_get_interface_info@RTerminalX@SDL_core@ui@modules@UModSys@@UBEABUSUniquePointerInfo@core@5@XZ 1001bed5 f i umodsys_lib_libui:umodsys.mod.ui.SDL_core.obj
 0001:0001aedb       ?root_get_interface_type@RTerminalX@SDL_core@ui@modules@UModSys@@UBEPBUSUniquePointerInfo@core@5@XZ 1001bedb f i umodsys_lib_libui:umodsys.mod.ui.SDL_core.obj
 0001:0001aee1       ?root_get_other_interface@RTerminalX@SDL_core@ui@modules@UModSys@@UAEPAUIRoot@core@5@PBUSUniquePointerInfo@75@@Z 1001bee1 f i umodsys_lib_libui:umodsys.mod.ui.SDL_core.obj
 0001:0001aee1       ?root_get_other_interface@RTerminalX@SDL_core@ui@modules@UModSys@@UBEPBUIRoot@core@5@PBUSUniquePointerInfo@75@@Z 1001bee1 f i umodsys_lib_libui:umodsys.mod.ui.SDL_core.obj
 0001:0001af02       ?root_is_interface_supported@RTerminalX@SDL_core@ui@modules@UModSys@@UBE_NPBUSUniquePointerInfo@core@5@@Z 1001bf02 f i umodsys_lib_libui:umodsys.mod.ui.SDL_core.obj
 0001:0001af21       ?get_generated_names@RGenerator@SDL_core@ui@modules@UModSys@@UBEHAAUSUniquePtrList@core@5@@Z 1001bf21 f i umodsys_lib_libui:umodsys.mod.ui.SDL_core.obj
 0001:0001af3a       ?get_generated_types@RGenerator@SDL_core@ui@modules@UModSys@@UBEHAAUSUniquePtrList@core@5@PBUSUniquePointerInfo@75@@Z 1001bf3a f i umodsys_lib_libui:umodsys.mod.ui.SDL_core.obj
 0001:0001af78       ?generate@RGenerator@SDL_core@ui@modules@UModSys@@UAE_NAAU?$TRefObject@UIRefObject@core@UModSys@@U?$TRefObjectFunc@UIRefObject@core@UModSys@@@tl@3@@tl@5@PBUSUniquePointerInfo@core@5@ABUSParameters@95@@Z 1001bf78 f i umodsys_lib_libui:umodsys.mod.ui.SDL_core.obj
 0001:0001af99       ?root_get_interface_info@RGenerator@SDL_core@ui@modules@UModSys@@UBEABUSUniquePointerInfo@core@5@XZ 1001bf99 f i umodsys_lib_libui:umodsys.mod.ui.SDL_core.obj
 0001:0001af9f       ?root_get_interface_type@RGenerator@SDL_core@ui@modules@UModSys@@UBEPBUSUniquePointerInfo@core@5@XZ 1001bf9f f i umodsys_lib_libui:umodsys.mod.ui.SDL_core.obj
 0001:0001afa5       ?root_get_other_interface@RGenerator@SDL_core@ui@modules@UModSys@@UBEPBUIRoot@core@5@PBUSUniquePointerInfo@75@@Z 1001bfa5 f i umodsys_lib_libui:umodsys.mod.ui.SDL_core.obj
 0001:0001afa5       ?root_get_other_interface@RGenerator@SDL_core@ui@modules@UModSys@@UAEPAUIRoot@core@5@PBUSUniquePointerInfo@75@@Z 1001bfa5 f i umodsys_lib_libui:umodsys.mod.ui.SDL_core.obj
 0001:0001afbe       ?root_is_interface_supported@RGenerator@SDL_core@ui@modules@UModSys@@UBE_NPBUSUniquePointerInfo@core@5@@Z 1001bfbe f i umodsys_lib_libui:umodsys.mod.ui.SDL_core.obj
 0001:0001afdd       ?get_uid@RGenerator@SDL_core@ui@modules@UModSys@@UBEPBUSUniquePointerInfo@core@5@XZ 1001bfdd f i umodsys_lib_libui:umodsys.mod.ui.SDL_core.obj
 0001:0001afe3       ??1SWindow@SDL_core@ui@modules@UModSys@@QAE@XZ 1001bfe3 f   umodsys_lib_libui:umodsys.mod.ui.SDL_core.obj
 0001:0001afe3       ??1SWindow@SDL_GL@ui@modules@UModSys@@QAE@XZ 1001bfe3 f   umodsys_lib_libui:umodsys.mod.ui.SDL_GL.obj
 0001:0001afe8       ?close@SWindow@SDL_core@ui@modules@UModSys@@QAEXXZ 1001bfe8 f   umodsys_lib_libui:umodsys.mod.ui.SDL_core.obj
 0001:0001afe8       ?close@SWindow@SDL_GL@ui@modules@UModSys@@QAEXXZ 1001bfe8 f   umodsys_lib_libui:umodsys.mod.ui.SDL_GL.obj
 0001:0001affb       ?open@SWindow@SDL_core@ui@modules@UModSys@@QAE_NABUSParameters@core@5@@Z 1001bffb f   umodsys_lib_libui:umodsys.mod.ui.SDL_core.obj
 0001:0001affb       ?open@SWindow@SDL_GL@ui@modules@UModSys@@QAE_NABUSParameters@core@5@@Z 1001bffb f   umodsys_lib_libui:umodsys.mod.ui.SDL_GL.obj
 0001:0001b081       ??0RMultiImage2D_SDL_ttf@SDL_core@ui@modules@UModSys@@QAE@PAURRenderDriver2D@1234@ABUSParameters@core@4@@Z 1001c081 f   umodsys_lib_libui:umodsys.mod.ui.SDL_core.obj
 0001:0001b0e7       ??_GRMultiImage2D_SDL_ttf@SDL_core@ui@modules@UModSys@@UAEPAXI@Z 1001c0e7 f i umodsys_lib_libui:umodsys.mod.ui.SDL_core.obj
 0001:0001b0e7       ??_ERMultiImage2D_SDL_ttf@SDL_core@ui@modules@UModSys@@UAEPAXI@Z 1001c0e7 f i  CIL library: CIL module
 0001:0001b142       ?close@RMultiImage2D_SDL_ttf@SDL_core@ui@modules@UModSys@@QAEXXZ 1001c142 f   umodsys_lib_libui:umodsys.mod.ui.SDL_core.obj
 0001:0001b142       ?close@RMultiImage2D_SDL_ttf@SDL_GL@ui@modules@UModSys@@QAEXXZ 1001c142 f   umodsys_lib_libui:umodsys.mod.ui.SDL_GL.obj
 0001:0001b155       ?open@RMultiImage2D_SDL_ttf@SDL_core@ui@modules@UModSys@@QAE_NABUSParameters@core@5@@Z 1001c155 f   umodsys_lib_libui:umodsys.mod.ui.SDL_core.obj
 0001:0001b1dd       ?generate_glyphs@RMultiImage2D_SDL_ttf@SDL_core@ui@modules@UModSys@@QAE_NXZ 1001c1dd f   umodsys_lib_libui:umodsys.mod.ui.SDL_core.obj
 0001:0001b377       ??0RRenderDriver2D@SDL_core@ui@modules@UModSys@@QAE@PAURTerminalX@1234@@Z 1001c377 f   umodsys_lib_libui:umodsys.mod.ui.SDL_core.obj
 0001:0001b41f       ??_GRRenderDriver2D@SDL_core@ui@modules@UModSys@@UAEPAXI@Z 1001c41f f i umodsys_lib_libui:umodsys.mod.ui.SDL_core.obj
 0001:0001b41f       ??_ERRenderDriver2D@SDL_core@ui@modules@UModSys@@UAEPAXI@Z 1001c41f f i  CIL library: CIL module
 0001:0001b43c       ??1RRenderDriver2D@SDL_core@ui@modules@UModSys@@UAE@XZ 1001c43c f   umodsys_lib_libui:umodsys.mod.ui.SDL_core.obj
 0001:0001b4ad       ?close@RRenderDriver2D@SDL_core@ui@modules@UModSys@@QAEXXZ 1001c4ad f   umodsys_lib_libui:umodsys.mod.ui.SDL_core.obj
 0001:0001b4cc       ?open@RRenderDriver2D@SDL_core@ui@modules@UModSys@@QAE_NABUSParameters@core@5@@Z 1001c4cc f   umodsys_lib_libui:umodsys.mod.ui.SDL_core.obj
 0001:0001b552       ?set_color@RRenderDriver2D@SDL_core@ui@modules@UModSys@@QAEXXZ 1001c552 f   umodsys_lib_libui:umodsys.mod.ui.SDL_core.obj
 0001:0001b5b5       ?new_font@RRenderDriver2D@SDL_core@ui@modules@UModSys@@UAE?AU?$TRefObject@UIMultiImage@lib2d@UModSys@@U?$TRefObjectFunc@UIMultiImage@lib2d@UModSys@@@tl@3@@tl@5@ABUSParameters@core@5@ABU?$TString@U?$TSCoreConst@D@su@tl@UModSys@@U?$TComparerBinaryHash@D@234@@75@@Z 1001c5b5 f   umodsys_lib_libui:umodsys.mod.ui.SDL_core.obj
 0001:0001b68b       ?begin@RRenderDriver2D@SDL_core@ui@modules@UModSys@@UAEXXZ 1001c68b f   umodsys_lib_libui:umodsys.mod.ui.SDL_core.obj
 0001:0001b6e8       ?end@RRenderDriver2D@SDL_core@ui@modules@UModSys@@UAEXXZ 1001c6e8 f   umodsys_lib_libui:umodsys.mod.ui.SDL_core.obj
 0001:0001b6f7       ?get_max_values@RRenderDriver2D@SDL_core@ui@modules@UModSys@@UBEPBUSParameters@core@5@XZ 1001c6f7 f   umodsys_lib_libui:umodsys.mod.ui.SDL_core.obj
 0001:0001b6f7       ?get_max_values@RRenderDriver3D@SDL_GL@ui@modules@UModSys@@UBEPBUSParameters@core@5@XZ 1001c6f7 f   umodsys_lib_libui:umodsys.mod.ui.SDL_GL.obj
 0001:0001b6fb       ?get_frame_values@RRenderDriver2D@SDL_core@ui@modules@UModSys@@UBEPBUSParameters@core@5@XZ 1001c6fb f   umodsys_lib_libui:umodsys.mod.ui.SDL_core.obj
 0001:0001b702       ?setup_font@RRenderDriver2D@SDL_core@ui@modules@UModSys@@UAE_NPAUIMultiImage@lib2d@5@PBU?$TVector2@M@math3d@5@@Z 1001c702 f   umodsys_lib_libui:umodsys.mod.ui.SDL_core.obj
 0001:0001b754       ?setup_color@RRenderDriver2D@SDL_core@ui@modules@UModSys@@UAEXABU?$TVector3@M@math3d@5@@Z 1001c754 f   umodsys_lib_libui:umodsys.mod.ui.SDL_core.obj
 0001:0001b77b       ?setup_color@RRenderDriver2D@SDL_core@ui@modules@UModSys@@UAEXABU?$TVector3@H@math3d@5@@Z 1001c77b f   umodsys_lib_libui:umodsys.mod.ui.SDL_core.obj
 0001:0001b7be       ?setup_coloralpha@RRenderDriver2D@SDL_core@ui@modules@UModSys@@UAEXABU?$TVector4@M@math3d@5@H@Z 1001c7be f   umodsys_lib_libui:umodsys.mod.ui.SDL_core.obj
 0001:0001b7e4       ?setup_coloralpha@RRenderDriver2D@SDL_core@ui@modules@UModSys@@UAEXABU?$TVector4@H@math3d@5@H@Z 1001c7e4 f   umodsys_lib_libui:umodsys.mod.ui.SDL_core.obj
 0001:0001b83c       ?setup_blendcolor@RRenderDriver2D@SDL_core@ui@modules@UModSys@@UAEXABUSBlendColor@lib2d@5@@Z 1001c83c f   umodsys_lib_libui:umodsys.mod.ui.SDL_core.obj
 0001:0001b894       ?setup_blendcolor@RRenderDriver2D@SDL_core@ui@modules@UModSys@@UAEXABUSBlendColorf@lib2d@5@@Z 1001c894 f   umodsys_lib_libui:umodsys.mod.ui.SDL_core.obj
 0001:0001b8d6       ?setup_alpha@RRenderDriver2D@SDL_core@ui@modules@UModSys@@UAEXHH@Z 1001c8d6 f   umodsys_lib_libui:umodsys.mod.ui.SDL_core.obj
 0001:0001b8fc       ?setup_alpha@RRenderDriver2D@SDL_core@ui@modules@UModSys@@UAEXMH@Z 1001c8fc f   umodsys_lib_libui:umodsys.mod.ui.SDL_core.obj
 0001:0001b91c       ?render_text_advanced@RRenderDriver2D@SDL_core@ui@modules@UModSys@@UAE_NAAUTextInfo@IRenderDriver@lib2d@5@PBHH@Z 1001c91c f   umodsys_lib_libui:umodsys.mod.ui.SDL_core.obj
 0001:0001bac0       ?render_box@RRenderDriver2D@SDL_core@ui@modules@UModSys@@UAEXABU?$TVector2@H@math3d@5@0@Z 1001cac0 f   umodsys_lib_libui:umodsys.mod.ui.SDL_core.obj
 0001:0001bb01       ?render_tri@RRenderDriver2D@SDL_core@ui@modules@UModSys@@UAEXABU?$TVector2@H@math3d@5@00@Z 1001cb01 f   umodsys_lib_libui:umodsys.mod.ui.SDL_core.obj
 0001:0001bb55       ?render_quad@RRenderDriver2D@SDL_core@ui@modules@UModSys@@UAEXABU?$TVector2@H@math3d@5@000@Z 1001cb55 f   umodsys_lib_libui:umodsys.mod.ui.SDL_core.obj
 0001:0001bbb7       ?render_box@RRenderDriver2D@SDL_core@ui@modules@UModSys@@UAEXPAUIImage@lib2d@5@ABU?$TVector2@H@math3d@5@1ABU?$TVector2@M@95@2@Z 1001cbb7 f   umodsys_lib_libui:umodsys.mod.ui.SDL_core.obj
 0001:0001bbba       ?render_line@RRenderDriver2D@SDL_core@ui@modules@UModSys@@UAEXABU?$TVector2@H@math3d@5@0@Z 1001cbba f   umodsys_lib_libui:umodsys.mod.ui.SDL_core.obj
 0001:0001bbdf       ?render_rect@RRenderDriver2D@SDL_core@ui@modules@UModSys@@UAEXABU?$TVector2@H@math3d@5@0@Z 1001cbdf f   umodsys_lib_libui:umodsys.mod.ui.SDL_core.obj
 0001:0001bc20       ??_ERMouseController@SDL_core@ui@modules@UModSys@@UAEPAXI@Z 1001cc20 f i  CIL library: CIL module
 0001:0001bc20       ??_GRMouseController@SDL_core@ui@modules@UModSys@@UAEPAXI@Z 1001cc20 f i umodsys_lib_libui:umodsys.mod.ui.SDL_core.obj
 0001:0001bc3d       ??1RMouseController@SDL_core@ui@modules@UModSys@@UAE@XZ 1001cc3d f   umodsys_lib_libui:umodsys.mod.ui.SDL_core.obj
 0001:0001bc81       ?mouse_link@RMouseController@SDL_GL@ui@modules@UModSys@@UAE_NHPAUIRefObject@core@5@PAUIMouseClient@libui@5@H@Z 1001cc81 f   umodsys_lib_libui:umodsys.mod.ui.SDL_GL.obj
 0001:0001bc81       ?mouse_link@RMouseController@SDL_core@ui@modules@UModSys@@UAE_NHPAUIRefObject@core@5@PAUIMouseClient@libui@5@H@Z 1001cc81 f   umodsys_lib_libui:umodsys.mod.ui.SDL_core.obj
 0001:0001bcc0       ??_ERKeyboardController@SDL_core@ui@modules@UModSys@@UAEPAXI@Z 1001ccc0 f i  CIL library: CIL module
 0001:0001bcc0       ??_GRKeyboardController@SDL_core@ui@modules@UModSys@@UAEPAXI@Z 1001ccc0 f i umodsys_lib_libui:umodsys.mod.ui.SDL_core.obj
 0001:0001bcdd       ??1RKeyboardController@SDL_core@ui@modules@UModSys@@UAE@XZ 1001ccdd f   umodsys_lib_libui:umodsys.mod.ui.SDL_core.obj
 0001:0001bd21       ?process@RKeyboardController@SDL_GL@ui@modules@UModSys@@QAE_NAAUSDL_KeyboardEvent@@@Z 1001cd21 f   umodsys_lib_libui:umodsys.mod.ui.SDL_GL.obj
 0001:0001bd21       ?process@RKeyboardController@SDL_core@ui@modules@UModSys@@QAE_NAAUSDL_KeyboardEvent@@@Z 1001cd21 f   umodsys_lib_libui:umodsys.mod.ui.SDL_core.obj
 0001:0001bdc0       ?process@RKeyboardController@SDL_GL@ui@modules@UModSys@@QAE_NAAUSDL_TextInputEvent@@@Z 1001cdc0 f   umodsys_lib_libui:umodsys.mod.ui.SDL_GL.obj
 0001:0001bdc0       ?process@RKeyboardController@SDL_core@ui@modules@UModSys@@QAE_NAAUSDL_TextInputEvent@@@Z 1001cdc0 f   umodsys_lib_libui:umodsys.mod.ui.SDL_core.obj
 0001:0001be65       ?map_keycode@RKeyboardController@SDL_core@ui@modules@UModSys@@QAE?AW4eKeyCode@libui@5@H@Z 1001ce65 f   umodsys_lib_libui:umodsys.mod.ui.SDL_core.obj
 0001:0001be65       ?map_keycode@RKeyboardController@SDL_GL@ui@modules@UModSys@@QAE?AW4eKeyCode@libui@5@H@Z 1001ce65 f   umodsys_lib_libui:umodsys.mod.ui.SDL_GL.obj
 0001:0001c2e0       ??0RTerminal@SDL_core@ui@modules@UModSys@@QAE@PAUIModObject@base@4@@Z 1001d2e0 f   umodsys_lib_libui:umodsys.mod.ui.SDL_core.obj
 0001:0001c36a       ??_GRTerminal@SDL_core@ui@modules@UModSys@@UAEPAXI@Z 1001d36a f i umodsys_lib_libui:umodsys.mod.ui.SDL_core.obj
 0001:0001c36a       ??_ERTerminal@SDL_core@ui@modules@UModSys@@UAEPAXI@Z 1001d36a f i  CIL library: CIL module
 0001:0001c387       ??1RTerminal@SDL_core@ui@modules@UModSys@@UAE@XZ 1001d387 f   umodsys_lib_libui:umodsys.mod.ui.SDL_core.obj
 0001:0001c3d7       ?poll_events@RTerminal@SDL_GL@ui@modules@UModSys@@UAE_NH@Z 1001d3d7 f   umodsys_lib_libui:umodsys.mod.ui.SDL_GL.obj
 0001:0001c3d7       ?poll_events@RTerminal@SDL_core@ui@modules@UModSys@@UAE_NH@Z 1001d3d7 f   umodsys_lib_libui:umodsys.mod.ui.SDL_core.obj
 0001:0001c4e4       ?set_terminal_state@RTerminal@SDL_GL@ui@modules@UModSys@@UAE_NW4eTerminalState@libui@5@_N@Z 1001d4e4 f   umodsys_lib_libui:umodsys.mod.ui.SDL_GL.obj
 0001:0001c4e4       ?set_terminal_state@RTerminal@SDL_core@ui@modules@UModSys@@UAE_NW4eTerminalState@libui@5@_N@Z 1001d4e4 f   umodsys_lib_libui:umodsys.mod.ui.SDL_core.obj
 0001:0001c52d       ?wait@RTerminal@SDL_GL@ui@modules@UModSys@@UAE_NM@Z 1001d52d f   umodsys_lib_libui:umodsys.mod.ui.SDL_GL.obj
 0001:0001c52d       ?wait@RTerminal@SDL_core@ui@modules@UModSys@@UAE_NM@Z 1001d52d f   umodsys_lib_libui:umodsys.mod.ui.SDL_core.obj
 0001:0001c548       ?get_count@RTerminal@SDL_GL@ui@modules@UModSys@@UBEIPBUSUniquePointerInfo@core@5@@Z 1001d548 f   umodsys_lib_libui:umodsys.mod.ui.SDL_GL.obj
 0001:0001c548       ?get_count@RTerminal@SDL_core@ui@modules@UModSys@@UBEIPBUSUniquePointerInfo@core@5@@Z 1001d548 f   umodsys_lib_libui:umodsys.mod.ui.SDL_core.obj
 0001:0001c58d       ?get_handler@RTerminal@SDL_core@ui@modules@UModSys@@UBEPAUIRefObject@core@5@PBUSUniquePointerInfo@75@I@Z 1001d58d f   umodsys_lib_libui:umodsys.mod.ui.SDL_core.obj
 0001:0001c58d       ?get_handler@RTerminal@SDL_GL@ui@modules@UModSys@@UBEPAUIRefObject@core@5@PBUSUniquePointerInfo@75@I@Z 1001d58d f   umodsys_lib_libui:umodsys.mod.ui.SDL_GL.obj
 0001:0001c5e8       ?get_handler@RTerminal@SDL_GL@ui@modules@UModSys@@UBEPAUIRefObject@core@5@PBUSUniquePointerInfo@75@PBD@Z 1001d5e8 f   umodsys_lib_libui:umodsys.mod.ui.SDL_GL.obj
 0001:0001c5e8       ?get_friend_handler@RTerminal@SDL_GL@ui@modules@UModSys@@UBEPAUIRefObject@core@5@PBUSUniquePointerInfo@75@PAU675@@Z 1001d5e8 f   umodsys_lib_libui:umodsys.mod.ui.SDL_GL.obj
 0001:0001c5e8       ?get_friend_handler@RTerminal@SDL_core@ui@modules@UModSys@@UBEPAUIRefObject@core@5@PBUSUniquePointerInfo@75@PAU675@@Z 1001d5e8 f   umodsys_lib_libui:umodsys.mod.ui.SDL_core.obj
 0001:0001c5e8       ?get_handler@RTerminal@SDL_core@ui@modules@UModSys@@UBEPAUIRefObject@core@5@PBUSUniquePointerInfo@75@PBD@Z 1001d5e8 f   umodsys_lib_libui:umodsys.mod.ui.SDL_core.obj
 0001:0001c5f1       ??_ERTerminalX@SDL_core@ui@modules@UModSys@@UAEPAXI@Z 1001d5f1 f i  CIL library: CIL module
 0001:0001c5f1       ??_GRTerminalX@SDL_core@ui@modules@UModSys@@UAEPAXI@Z 1001d5f1 f i umodsys_lib_libui:umodsys.mod.ui.SDL_core.obj
 0001:0001c63d       ?open_drv2d@RTerminalX@SDL_core@ui@modules@UModSys@@UAEPAUIRenderDriver@lib2d@5@PBUSParameters@core@5@@Z 1001d63d f   umodsys_lib_libui:umodsys.mod.ui.SDL_core.obj
 0001:0001c657       ?get_controller@RRenderDriver2D@SDL_core@ui@modules@UModSys@@UBEPAUIRefObject@core@5@PBUSUniquePointerInfo@75@@Z 1001d657 f   umodsys_lib_libui:umodsys.mod.ui.SDL_core.obj
 0001:0001c657       ?get_controller@RRenderDriver3D@SDL_GL@ui@modules@UModSys@@UBEPAUIRefObject@core@5@PBUSUniquePointerInfo@75@@Z 1001d657 f   umodsys_lib_libui:umodsys.mod.ui.SDL_GL.obj
 0001:0001c657       ?open_drv3d@RTerminalX@SDL_core@ui@modules@UModSys@@UAEPAUIRenderDriver@lib3d@5@PBUSParameters@core@5@@Z 1001d657 f   umodsys_lib_libui:umodsys.mod.ui.SDL_core.obj
 0001:0001c657       ?get_layer@RMultiImage2D_SDL_ttf@SDL_GL@ui@modules@UModSys@@UBEPAUIImage@lib2d@5@G@Z 1001d657 f   umodsys_lib_libui:umodsys.mod.ui.SDL_GL.obj
 0001:0001c657       ?get_hwcinfo@RImage_Memory@stdlib@lib2d@modules@UModSys@@UBEPBXPBUSUniquePointerInfo@core@5@@Z 1001d657 f   umodsys_lib_lib2d:umodsys.mod.2d.stdlib.obj
 0001:0001c657       ?get_layer@RMultiImage2D_SDL_ttf@SDL_core@ui@modules@UModSys@@UBEPAUIImage@lib2d@5@G@Z 1001d657 f   umodsys_lib_libui:umodsys.mod.ui.SDL_core.obj
 0001:0001c657       ?get_hwinfo@RImage_Memory@stdlib@lib2d@modules@UModSys@@UAEPAXPBUSUniquePointerInfo@core@5@@Z 1001d657 f   umodsys_lib_lib2d:umodsys.mod.2d.stdlib.obj
 0001:0001c65c       ?close_drvxd@RTerminalX@SDL_core@ui@modules@UModSys@@UAE_NXZ 1001d65c f   umodsys_lib_libui:umodsys.mod.ui.SDL_core.obj
 0001:0001c667       ?do_open@RModuleReg@SDL_core@ui@modules@UModSys@@UAE_NXZ 1001d667 f i umodsys_lib_libui:umodsys.mod.ui.SDL_core.obj
 0001:0001c6b5       ?do_close@RModuleReg@SDL_core@ui@modules@UModSys@@UAE_NXZ 1001d6b5 f i umodsys_lib_libui:umodsys.mod.ui.SDL_core.obj
 0001:0001c6f0       ?get_module@RGenerator@SDL_core@ui@modules@UModSys@@UBEPAUIModule@base@5@XZ 1001d6f0 f   umodsys_lib_libui:umodsys.mod.ui.SDL_core.obj
 0001:0001c6f6       ?mod_inc@RGenerator@SDL_core@ui@modules@UModSys@@UBE_NXZ 1001d6f6 f   umodsys_lib_libui:umodsys.mod.ui.SDL_core.obj
 0001:0001c701       ?mod_dec@RGenerator@SDL_core@ui@modules@UModSys@@UBE_NXZ 1001d701 f   umodsys_lib_libui:umodsys.mod.ui.SDL_core.obj
 0001:0001c70c       ?s_holder@RGenerator@SDL_core@ui@modules@UModSys@@SAAAU?$TTypeStaticHolder@URGenerator@SDL_core@ui@modules@UModSys@@@tl@5@XZ 1001d70c f   umodsys_lib_libui:umodsys.mod.ui.SDL_core.obj
 0001:0001c73e       ??1?$TScatterArray@UGlyph@RMultiImage2D_SDL_ttf@SDL_core@ui@modules@UModSys@@HU?$TScalarCompare@H@core@6@U?$TNodeDeleter0@U?$TScatterArrayNode@UGlyph@RMultiImage2D_SDL_ttf@SDL_core@ui@modules@UModSys@@H@tl@UModSys@@@tl@6@@tl@UModSys@@QAE@XZ 1001d73e f i umodsys_lib_libui:umodsys.mod.ui.SDL_core.obj
 0001:0001c754       ??0?$TParametersA@$0BAA@@core@UModSys@@QAE@XZ 1001d754 f i umodsys_lib_libui:umodsys.mod.ui.SDL_core.obj
 0001:0001c776       ??$t_gen_param@URTerminalX@SDL_core@ui@modules@UModSys@@URGenerator@2345@@IGenerator@base@UModSys@@IAE_NPAURGenerator@SDL_core@ui@modules@2@AAU?$TRefObject@UIRefObject@core@UModSys@@U?$TRefObjectFunc@UIRefObject@core@UModSys@@@tl@3@@tl@2@PBUSUniquePointerInfo@core@2@ABUSParameters@core@2@@Z 1001d776 f i umodsys_lib_libui:umodsys.mod.ui.SDL_core.obj
 0001:0001c81d       ??$process_nodes_r@U?$TNodeDeleter0@U?$TScatterArrayNode@UGlyph@RMultiImage2D_SDL_ttf@SDL_core@ui@modules@UModSys@@H@tl@UModSys@@@tl@UModSys@@@?$TTreeHoldRB@U?$TScatterArrayNode@UGlyph@RMultiImage2D_SDL_ttf@SDL_core@ui@modules@UModSys@@H@tl@UModSys@@@tl@UModSys@@KAHPAU?$TScatterArrayNode@UGlyph@RMultiImage2D_SDL_ttf@SDL_core@ui@modules@UModSys@@H@12@ABU?$TNodeDeleter0@U?$TScatterArrayNode@UGlyph@RMultiImage2D_SDL_ttf@SDL_core@ui@modules@UModSys@@H@tl@UModSys@@@12@@Z 1001d81d f i umodsys_lib_libui:umodsys.mod.ui.SDL_core.obj
 0001:0001c870       ??$slen@D@su@tl@UModSys@@YAIPBDI@Z 1001d870 f i umodsys_lib_libui:umodsys.mod.ui.frames.obj
 0001:0001c898       ?get@SParameters@core@UModSys@@QBE_NPBDAA_N@Z 1001d898 f i umodsys_lib_libui:umodsys.mod.ui.frames.obj
 0001:0001c8ca       ??1SController@libui@UModSys@@QAE@XZ 1001d8ca f i umodsys_lib_libui:umodsys.mod.ui.frames.obj
 0001:0001c8d4       ?db_get_i@SController@libui@UModSys@@QAEHQBD@Z 1001d8d4 f i umodsys_lib_libui:umodsys.mod.ui.frames.obj
 0001:0001c90c       ?update_size@libui@UModSys@@YA_NAAU?$TBoundBox2@H@math3d@2@ABUSFrameSize@12@ABU342@@Z 1001d90c f i umodsys_lib_libui:umodsys.mod.ui.frames.obj
 0001:0001c9e0       ?command@SController@libui@UModSys@@QAE_NHABUSFrameDataIn@23@@Z 1001d9e0 f i umodsys_lib_libui:umodsys.mod.ui.frames.obj
 0001:0001ca26       ?db_get@SController@libui@UModSys@@QAE_NQBDABUSFrameDataOut@23@@Z 1001da26 f i umodsys_lib_libui:umodsys.mod.ui.frames.obj
 0001:0001ca71       ?cast@ICollectorThemeTemplate@libui@UModSys@@KAXAAU?$TVector4@H@math3d@3@ABU?$TVector4@M@53@@Z 1001da71 f i umodsys_lib_libui:umodsys.mod.ui.frames.obj
 0001:0001cac2       ?get_property@ICollectorThemeTemplate@libui@UModSys@@UBE_NHHAAU?$TVector4@M@math3d@3@@Z 1001dac2 f i umodsys_lib_libui:umodsys.mod.ui.frames.obj
 0001:0001cb1f       ?get_property@ICollectorThemeTemplate@libui@UModSys@@UBE_NHHAAU?$TVector4@H@math3d@3@@Z 1001db1f f i umodsys_lib_libui:umodsys.mod.ui.frames.obj
 0001:0001cb7a       ?get_property@ICollectorThemeTemplate@libui@UModSys@@UBE_NHHAAU?$TVector2@M@math3d@3@@Z 1001db7a f i umodsys_lib_libui:umodsys.mod.ui.frames.obj
 0001:0001cbd9       ?get_property@ICollectorThemeTemplate@libui@UModSys@@UBE_NHHAAU?$TVector2@H@math3d@3@@Z 1001dbd9 f i umodsys_lib_libui:umodsys.mod.ui.frames.obj
 0001:0001cc48       ?get_property@ICollectorThemeTemplate@libui@UModSys@@UBE_NHHAAH@Z 1001dc48 f i umodsys_lib_libui:umodsys.mod.ui.frames.obj
 0001:0001cc63       ?set_property@ICollectorThemeTemplate@libui@UModSys@@UAE_NHHABU?$TVector4@M@math3d@3@@Z 1001dc63 f i umodsys_lib_libui:umodsys.mod.ui.frames.obj
 0001:0001cca9       ?set_property@ICollectorThemeTemplate@libui@UModSys@@UAE_NHHABU?$TVector4@H@math3d@3@@Z 1001dca9 f i umodsys_lib_libui:umodsys.mod.ui.frames.obj
 0001:0001cd1a       ?set_property@ICollectorThemeTemplate@libui@UModSys@@UAE_NHHABU?$TVector2@M@math3d@3@@Z 1001dd1a f i umodsys_lib_libui:umodsys.mod.ui.frames.obj
 0001:0001cd60       ?set_property@ICollectorThemeTemplate@libui@UModSys@@UAE_NHHABU?$TVector2@H@math3d@3@@Z 1001dd60 f i umodsys_lib_libui:umodsys.mod.ui.frames.obj
 0001:0001cdb4       ?set_property@ICollectorThemeTemplate@libui@UModSys@@UAE_NHHH@Z 1001ddb4 f i umodsys_lib_libui:umodsys.mod.ui.frames.obj
 0001:0001cdf2       ??1ICollectorThemeTemplate@libui@UModSys@@QAE@XZ 1001ddf2 f i umodsys_lib_libui:umodsys.mod.ui.frames.obj
 0001:0001ce69       ?get_max_int@IRenderDriver@lib2d@UModSys@@QAEHPBD@Z 1001de69 f i umodsys_lib_libui:umodsys.mod.ui.frames.obj
 0001:0001ce89       ?render_textbox@IRenderDriver@lib2d@UModSys@@QAE_NABU?$TVector2@H@math3d@3@0PBHHHABU?$TVector2@M@53@@Z 1001de89 f i umodsys_lib_libui:umodsys.mod.ui.frames.obj
 0001:0001cebd       ??0SDrawState@frames@ui@modules@UModSys@@QAE@ABU01234@ABU?$TBoundBox2@H@math3d@4@PAUIMultiImage@lib2d@4@@Z 1001debd f i umodsys_lib_libui:umodsys.mod.ui.frames.obj
 0001:0001ceea       ?get_group_index@RCollectorTheme@frames@ui@modules@UModSys@@UAEHPBD@Z 1001deea f   umodsys_lib_libui:umodsys.mod.ui.frames.obj
 0001:0001cf92       ?get_elem_index@RCollectorTheme@frames@ui@modules@UModSys@@UAEHPBD@Z 1001df92 f   umodsys_lib_libui:umodsys.mod.ui.frames.obj
 0001:0001d0d3       ??1RCollectorTheme@frames@ui@modules@UModSys@@QAE@XZ 1001e0d3 f   umodsys_lib_libui:umodsys.mod.ui.frames.obj
 0001:0001d0e0       ?set_controller@RFrame_Common@frames@ui@modules@UModSys@@UAE_NHPAUIController@libui@5@PAUIRefObject@core@5@@Z 1001e0e0 f i umodsys_lib_libui:umodsys.mod.ui.frames.obj
 0001:0001d115       ?get_controller@RFrame_Common@frames@ui@modules@UModSys@@UAEPAUIController@libui@5@XZ 1001e115 f i umodsys_lib_libui:umodsys.mod.ui.frames.obj
 0001:0001d119       ?get_controller_context@RFrame_Common@frames@ui@modules@UModSys@@UAEHXZ 1001e119 f i umodsys_lib_libui:umodsys.mod.ui.frames.obj
 0001:0001d11d       ?get_theme@RCollector@frames@ui@modules@UModSys@@UAEPAUICollectorTheme@libui@5@XZ 1001e11d f i umodsys_lib_libui:umodsys.mod.ui.frames.obj
 0001:0001d11d       ?get_box@RFrame_Common@frames@ui@modules@UModSys@@UAEABU?$TBoundBox2@H@math3d@5@XZ 1001e11d f i umodsys_lib_libui:umodsys.mod.ui.frames.obj
 0001:0001d121       ?get_framesize@RFrame_Common@frames@ui@modules@UModSys@@UAEABUSFrameSize@libui@5@XZ 1001e121 f i umodsys_lib_libui:umodsys.mod.ui.frames.obj
 0001:0001d125       ?set_framesize@RFrame_Common@frames@ui@modules@UModSys@@UAE_NABUSFrameSize@libui@5@@Z 1001e125 f i umodsys_lib_libui:umodsys.mod.ui.frames.obj
 0001:0001d140       ?get_insize@RFrame_Common@frames@ui@modules@UModSys@@UAE?AU?$TVector2@H@math3d@5@XZ 1001e140 f i umodsys_lib_libui:umodsys.mod.ui.frames.obj
 0001:0001d158       ?set_layer_count@RMultiImage2D_SDL_ttf@SDL_GL@ui@modules@UModSys@@UAE_NG@Z 1001e158 f i umodsys_lib_libui:umodsys.mod.ui.SDL_GL.obj
 0001:0001d158       ?mouse_setvisible@RMouseController@SDL_GL@ui@modules@UModSys@@UAE_N_N@Z 1001e158 f i umodsys_lib_libui:umodsys.mod.ui.SDL_GL.obj
 0001:0001d158       ?key_event@RFrame_Common@frames@ui@modules@UModSys@@MAE_NABUSKeyboardInputRaw@libui@5@@Z 1001e158 f i umodsys_lib_libui:umodsys.mod.ui.frames.obj
 0001:0001d158       ?key_event@RFrame_Common@frames@ui@modules@UModSys@@MAE_NABUSKeyboardInputText@libui@5@@Z 1001e158 f i umodsys_lib_libui:umodsys.mod.ui.frames.obj
 0001:0001d158       ?get_minsize@RCollector@frames@ui@modules@UModSys@@UAE_NAAU?$TVector2@H@math3d@5@@Z 1001e158 f i umodsys_lib_libui:umodsys.mod.ui.frames.obj
 0001:0001d158       ?get_maxbox@RCollector@frames@ui@modules@UModSys@@UAE_NAAU?$TBoundBox2@H@math3d@5@@Z 1001e158 f i umodsys_lib_libui:umodsys.mod.ui.frames.obj
 0001:0001d158       ?frame_remove@RCollector@frames@ui@modules@UModSys@@UAE_NPAUIFrame@libui@5@@Z 1001e158 f i umodsys_lib_libui:umodsys.mod.ui.frames.obj
 0001:0001d158       ?mouse_setvisible@RMouseController@SDL_core@ui@modules@UModSys@@UAE_N_N@Z 1001e158 f i umodsys_lib_libui:umodsys.mod.ui.SDL_core.obj
 0001:0001d158       ?arc_deinit@RBinArchiveFrameClient_ZIP@zlib@media@modules@UModSys@@UAE_NPAUIBinArchiveFrame@libmedia@5@@Z 1001e158 f i umodsys_lib_libmedia:umodsys.mod.media.zlib.obj
 0001:0001d158       ?set_insize@RFrame_Common@frames@ui@modules@UModSys@@UAE_NABU?$TVector2@H@math3d@5@@Z 1001e158 f i umodsys_lib_libui:umodsys.mod.ui.frames.obj
 0001:0001d158       ?mouse_event@RFrame_Common@frames@ui@modules@UModSys@@MAE_NPBUSMouseInput@libui@5@@Z 1001e158 f i umodsys_lib_libui:umodsys.mod.ui.frames.obj
 0001:0001d158       ?setup_material@RRenderDriver3D@SDL_GL@ui@modules@UModSys@@UAE_NPBUSMaterial@lib3d@5@@Z 1001e158 f i umodsys_lib_libui:umodsys.mod.ui.SDL_GL.obj
 0001:0001d158       ?setup_state@RRenderDriver3D@SDL_GL@ui@modules@UModSys@@UAE_NABUSRenderState@lib3d@5@@Z 1001e158 f i umodsys_lib_libui:umodsys.mod.ui.SDL_GL.obj
 0001:0001d158       ?set_layer_count@RMultiImage2D_SDL_ttf@SDL_core@ui@modules@UModSys@@UAE_NG@Z 1001e158 f i umodsys_lib_libui:umodsys.mod.ui.SDL_core.obj
 0001:0001d15d       ?get_theme@RFrame_Common@frames@ui@modules@UModSys@@UAEPAUICollectorTheme@libui@5@XZ 1001e15d f i umodsys_lib_libui:umodsys.mod.ui.frames.obj
 0001:0001d161       ?draw_post@RFrame_Common@frames@ui@modules@UModSys@@MAE_NABUSDrawState@2345@@Z 1001e161 f i umodsys_lib_libui:umodsys.mod.ui.frames.obj
 0001:0001d161       ?draw_pre@RFrame_Common@frames@ui@modules@UModSys@@MAE_NABUSDrawState@2345@@Z 1001e161 f i umodsys_lib_libui:umodsys.mod.ui.frames.obj
 0001:0001d166       ?button_cmd@RFrame_Common@frames@ui@modules@UModSys@@MAE_NPAUSButton@2345@HH@Z 1001e166 f i umodsys_lib_libui:umodsys.mod.ui.frames.obj
 0001:0001d166       ?button_draw@RFrame_Common@frames@ui@modules@UModSys@@MAE_NPAUSButton@2345@ABUSDrawState@2345@H@Z 1001e166 f i umodsys_lib_libui:umodsys.mod.ui.frames.obj
 0001:0001d16b       ?tclr@RFrame_Common@frames@ui@modules@UModSys@@IAE?AU?$TVector4@M@math3d@5@HH@Z 1001e16b f i umodsys_lib_libui:umodsys.mod.ui.frames.obj
 0001:0001d18e       ?tptr@RFrame_Common@frames@ui@modules@UModSys@@IAE?AU?$TVector2@M@math3d@5@HH@Z 1001e18e f i umodsys_lib_libui:umodsys.mod.ui.frames.obj
 0001:0001d1ac       ?_root_get_other_interface@RFrame_Common@frames@ui@modules@UModSys@@IAEPAUIRoot@core@5@PBUSUniquePointerInfo@75@@Z 1001e1ac f i umodsys_lib_libui:umodsys.mod.ui.frames.obj
 0001:0001d1ac       ?_root_get_other_interface@RFrame_Common@frames@ui@modules@UModSys@@IBEPBUIRoot@core@5@PBUSUniquePointerInfo@75@@Z 1001e1ac f i umodsys_lib_libui:umodsys.mod.ui.frames.obj
 0001:0001d1c8       ?_root_is_interface_supported@RFrame_Common@frames@ui@modules@UModSys@@SA_NPBUSUniquePointerInfo@core@5@@Z 1001e1c8 f i umodsys_lib_libui:umodsys.mod.ui.frames.obj
 0001:0001d1e8       ?set_flag@RFrame_Common@frames@ui@modules@UModSys@@UAE_NH_N@Z 1001e1e8 f   umodsys_lib_libui:umodsys.mod.ui.frames.obj
 0001:0001d25f       ?get_flag@RFrame_Common@frames@ui@modules@UModSys@@UAE_NH@Z 1001e25f f   umodsys_lib_libui:umodsys.mod.ui.frames.obj
 0001:0001d2a2       ?get_parent@RFrame_Common@frames@ui@modules@UModSys@@UAEPAUIFrame@libui@5@XZ 1001e2a2 f   umodsys_lib_libui:umodsys.mod.ui.frames.obj
 0001:0001d2a6       ?get_sub@RFrame_Common@frames@ui@modules@UModSys@@UAEPAUIFrame@libui@5@PAU675@H@Z 1001e2a6 f   umodsys_lib_libui:umodsys.mod.ui.frames.obj
 0001:0001d2ab       ?find_context@RFrame_Common@frames@ui@modules@UModSys@@UAEPAUIFrame@libui@5@HPAUIController@75@@Z 1001e2ab f   umodsys_lib_libui:umodsys.mod.ui.frames.obj
 0001:0001d300       ?configure@RFrame_Common@frames@ui@modules@UModSys@@UAE_NPBD0ABUSParameters@core@5@@Z 1001e300 f   umodsys_lib_libui:umodsys.mod.ui.frames.obj
 0001:0001d386       ?draw@RFrame_Common@frames@ui@modules@UModSys@@MAE_NABUSDrawState@2345@@Z 1001e386 f   umodsys_lib_libui:umodsys.mod.ui.frames.obj
 0001:0001d3f0       ?draw_focus@RFrame_Common@frames@ui@modules@UModSys@@MAE_NABUSDrawState@2345@@Z 1001e3f0 f   umodsys_lib_libui:umodsys.mod.ui.frames.obj
 0001:0001d451       ?update_size@RFrame_Common@frames@ui@modules@UModSys@@MAE_NABU?$TBoundBox2@H@math3d@5@@Z 1001e451 f   umodsys_lib_libui:umodsys.mod.ui.frames.obj
 0001:0001d478       ?set_fcp@RFrame_Common@frames@ui@modules@UModSys@@MAE_NABUSFrameCreateParameters@libui@5@PBUSParameters@core@5@@Z 1001e478 f   umodsys_lib_libui:umodsys.mod.ui.frames.obj
 0001:0001d4f3       ?is_enabled@RFrame_Common@frames@ui@modules@UModSys@@MAE_NXZ 1001e4f3 f   umodsys_lib_libui:umodsys.mod.ui.frames.obj
 0001:0001d521       ??0RFrame_Common@frames@ui@modules@UModSys@@QAE@PAURCollector@1234@PAU01234@@Z 1001e521 f   umodsys_lib_libui:umodsys.mod.ui.frames.obj
 0001:0001d5ec       ??_GRFrame_Common@frames@ui@modules@UModSys@@UAEPAXI@Z 1001e5ec f i umodsys_lib_libui:umodsys.mod.ui.frames.obj
 0001:0001d5ec       ??_ERFrame_Common@frames@ui@modules@UModSys@@UAEPAXI@Z 1001e5ec f i  CIL library: CIL module
 0001:0001d609       ??1RFrame_Common@frames@ui@modules@UModSys@@UAE@XZ 1001e609 f   umodsys_lib_libui:umodsys.mod.ui.frames.obj
 0001:0001d681       ?root_get_interface_info@RDialog@frames@ui@modules@UModSys@@UBEABUSUniquePointerInfo@core@5@XZ 1001e681 f i umodsys_lib_libui:umodsys.mod.ui.frames.obj
 0001:0001d687       ?root_get_interface_type@RDialog@frames@ui@modules@UModSys@@UBEPBUSUniquePointerInfo@core@5@XZ 1001e687 f i umodsys_lib_libui:umodsys.mod.ui.frames.obj
 0001:0001d68d       ?root_get_other_interface@RDialog@frames@ui@modules@UModSys@@UBEPBUIRoot@core@5@PBUSUniquePointerInfo@75@@Z 1001e68d f i umodsys_lib_libui:umodsys.mod.ui.frames.obj
 0001:0001d68d       ?root_get_other_interface@RDialog@frames@ui@modules@UModSys@@UAEPAUIRoot@core@5@PBUSUniquePointerInfo@75@@Z 1001e68d f i umodsys_lib_libui:umodsys.mod.ui.frames.obj
 0001:0001d6ae       ?root_is_interface_supported@RDialog@frames@ui@modules@UModSys@@UBE_NPBUSUniquePointerInfo@core@5@@Z 1001e6ae f i umodsys_lib_libui:umodsys.mod.ui.frames.obj
 0001:0001d6d5       ?get_root@RDialog@frames@ui@modules@UModSys@@UAEPAUIFrame@libui@5@XZ 1001e6d5 f   umodsys_lib_libui:umodsys.mod.ui.frames.obj
 0001:0001d6d9       ?get_array_count@RVertexArray@SDL_GL@ui@modules@UModSys@@UBEHXZ 1001e6d9 f   umodsys_lib_libui:umodsys.mod.ui.SDL_GL.obj
 0001:0001d6d9       ?get_focused@RDialog@frames@ui@modules@UModSys@@UAEPAUIFrame@libui@5@XZ 1001e6d9 f   umodsys_lib_libui:umodsys.mod.ui.frames.obj
 0001:0001d6dd       ?set_focused@RDialog@frames@ui@modules@UModSys@@UAE_NPAUIFrame@libui@5@@Z 1001e6dd f   umodsys_lib_libui:umodsys.mod.ui.frames.obj
 0001:0001d72e       ??0RDialog@frames@ui@modules@UModSys@@QAE@PAURCollector@1234@PAURFrame_Common@1234@@Z 1001e72e f   umodsys_lib_libui:umodsys.mod.ui.frames.obj
 0001:0001d795       ??_ERDialog@frames@ui@modules@UModSys@@UAEPAXI@Z 1001e795 f i  CIL library: CIL module
 0001:0001d795       ??_GRDialog@frames@ui@modules@UModSys@@UAEPAXI@Z 1001e795 f i umodsys_lib_libui:umodsys.mod.ui.frames.obj
 0001:0001d802       ?root_get_interface_info@RFrame_Frame@frames@ui@modules@UModSys@@UBEABUSUniquePointerInfo@core@5@XZ 1001e802 f i umodsys_lib_libui:umodsys.mod.ui.frames.obj
 0001:0001d808       ?root_get_interface_type@RFrame_Frame@frames@ui@modules@UModSys@@UBEPBUSUniquePointerInfo@core@5@XZ 1001e808 f i umodsys_lib_libui:umodsys.mod.ui.frames.obj
 0001:0001d80e       ?root_get_other_interface@RFrame_Frame@frames@ui@modules@UModSys@@UBEPBUIRoot@core@5@PBUSUniquePointerInfo@75@@Z 1001e80e f i umodsys_lib_libui:umodsys.mod.ui.frames.obj
 0001:0001d80e       ?root_get_other_interface@RFrame_Frame@frames@ui@modules@UModSys@@UAEPAUIRoot@core@5@PBUSUniquePointerInfo@75@@Z 1001e80e f i umodsys_lib_libui:umodsys.mod.ui.frames.obj
 0001:0001d827       ?root_is_interface_supported@RFrame_Frame@frames@ui@modules@UModSys@@UBE_NPBUSUniquePointerInfo@core@5@@Z 1001e827 f i umodsys_lib_libui:umodsys.mod.ui.frames.obj
 0001:0001d846       ?ref_add@RFrame_Frame@frames@ui@modules@UModSys@@UBEXXZ 1001e846 f i umodsys_lib_libui:umodsys.mod.ui.frames.obj
 0001:0001d846       ?ref_add@RFrame_Image@frames@ui@modules@UModSys@@UBEXXZ 1001e846 f i umodsys_lib_libui:umodsys.mod.ui.frames.obj
 0001:0001d846       ?ref_add@RFrame_Button@frames@ui@modules@UModSys@@UBEXXZ 1001e846 f i umodsys_lib_libui:umodsys.mod.ui.frames.obj
 0001:0001d84d       ?suicide@RFrame_Image@frames@ui@modules@UModSys@@UAEXXZ 1001e84d f i umodsys_lib_libui:umodsys.mod.ui.frames.obj
 0001:0001d84d       ?suicide@RFrame_Frame@frames@ui@modules@UModSys@@UAEXXZ 1001e84d f i umodsys_lib_libui:umodsys.mod.ui.frames.obj
 0001:0001d84d       ?suicide@RFrame_Button@frames@ui@modules@UModSys@@UAEXXZ 1001e84d f i umodsys_lib_libui:umodsys.mod.ui.frames.obj
 0001:0001d891       ?get_cids@RFrame_Frame@frames@ui@modules@UModSys@@UAE?AU?$TString@U?$TSCoreConst@D@su@tl@UModSys@@U?$TComparerBinaryHash@D@234@@tl@5@XZ 1001e891 f i umodsys_lib_libui:umodsys.mod.ui.frames.obj
 0001:0001d8a8       ?get_cidn@RFrame_Frame@frames@ui@modules@UModSys@@UAEHXZ 1001e8a8 f i umodsys_lib_libui:umodsys.mod.ui.frames.obj
 0001:0001d8ac       ?get_list@RFrame_Edit@frames@ui@modules@UModSys@@UAEPAUIFrameList@libui@5@XZ 1001e8ac f i umodsys_lib_libui:umodsys.mod.ui.frames.obj
 0001:0001d8ac       ?get_ctrldata@RFrame_Image@frames@ui@modules@UModSys@@UAEPAUIControllerData@libui@5@XZ 1001e8ac f i umodsys_lib_libui:umodsys.mod.ui.frames.obj
 0001:0001d8ac       ?get_list@RFrame_Image@frames@ui@modules@UModSys@@UAEPAUIFrameList@libui@5@XZ 1001e8ac f i umodsys_lib_libui:umodsys.mod.ui.frames.obj
 0001:0001d8ac       ?get_ctrldata@RFrame_Button@frames@ui@modules@UModSys@@UAEPAUIControllerData@libui@5@XZ 1001e8ac f i umodsys_lib_libui:umodsys.mod.ui.frames.obj
 0001:0001d8ac       ?get_ctrlcmd@RFrame_Image@frames@ui@modules@UModSys@@UAEPAUIControllerCommand@libui@5@XZ 1001e8ac f i umodsys_lib_libui:umodsys.mod.ui.frames.obj
 0001:0001d8ac       ?get_ctrldata@RFrame_List@frames@ui@modules@UModSys@@UAEPAUIControllerData@libui@5@XZ 1001e8ac f i umodsys_lib_libui:umodsys.mod.ui.frames.obj
 0001:0001d8ac       ?get_ctrldata@RFrame_Edit@frames@ui@modules@UModSys@@UAEPAUIControllerData@libui@5@XZ 1001e8ac f i umodsys_lib_libui:umodsys.mod.ui.frames.obj
 0001:0001d8ac       ?get_ctrlcmd@RFrame_Edit@frames@ui@modules@UModSys@@UAEPAUIControllerCommand@libui@5@XZ 1001e8ac f i umodsys_lib_libui:umodsys.mod.ui.frames.obj
 0001:0001d8ac       ?get_list@RFrame_Text@frames@ui@modules@UModSys@@UAEPAUIFrameList@libui@5@XZ 1001e8ac f i umodsys_lib_libui:umodsys.mod.ui.frames.obj
 0001:0001d8ac       ?get_cell_count@RMultiImage2D_SDL_ttf@SDL_GL@ui@modules@UModSys@@UBEIXZ 1001e8ac f i umodsys_lib_libui:umodsys.mod.ui.SDL_GL.obj
 0001:0001d8ac       ?get_cell_count@RMultiImage2D_SDL_ttf@SDL_core@ui@modules@UModSys@@UBEIXZ 1001e8ac f i umodsys_lib_libui:umodsys.mod.ui.SDL_core.obj
 0001:0001d8ac       ?get_ctrldata@RFrame_Text@frames@ui@modules@UModSys@@UAEPAUIControllerData@libui@5@XZ 1001e8ac f i umodsys_lib_libui:umodsys.mod.ui.frames.obj
 0001:0001d8ac       ?get_data@RFrame_Button@frames@ui@modules@UModSys@@UAEPAUIFrameData@libui@5@XZ 1001e8ac f i umodsys_lib_libui:umodsys.mod.ui.frames.obj
 0001:0001d8ac       ?get_ctrlcmd@RFrame_Button@frames@ui@modules@UModSys@@UAEPAUIControllerCommand@libui@5@XZ 1001e8ac f i umodsys_lib_libui:umodsys.mod.ui.frames.obj
 0001:0001d8ac       ?get_layer_count@RMultiImage2D_SDL_ttf@SDL_core@ui@modules@UModSys@@UBEGXZ 1001e8ac f i umodsys_lib_libui:umodsys.mod.ui.SDL_core.obj
 0001:0001d8ac       ?get_list@RFrame_Frame@frames@ui@modules@UModSys@@UAEPAUIFrameList@libui@5@XZ 1001e8ac f i umodsys_lib_libui:umodsys.mod.ui.frames.obj
 0001:0001d8ac       ?get_layer_count@RMultiImage2D_SDL_ttf@SDL_GL@ui@modules@UModSys@@UBEGXZ 1001e8ac f i umodsys_lib_libui:umodsys.mod.ui.SDL_GL.obj
 0001:0001d8ac       ?get_list@RFrame_Button@frames@ui@modules@UModSys@@UAEPAUIFrameList@libui@5@XZ 1001e8ac f i umodsys_lib_libui:umodsys.mod.ui.frames.obj
 0001:0001d8ac       ?get_data@RFrame_Image@frames@ui@modules@UModSys@@UAEPAUIFrameData@libui@5@XZ 1001e8ac f i umodsys_lib_libui:umodsys.mod.ui.frames.obj
 0001:0001d8ac       ?get_ctrlcmd@RFrame_Frame@frames@ui@modules@UModSys@@UAEPAUIControllerCommand@libui@5@XZ 1001e8ac f i umodsys_lib_libui:umodsys.mod.ui.frames.obj
 0001:0001d8ac       ?get_ctrlcmd@RFrame_Text@frames@ui@modules@UModSys@@UAEPAUIControllerCommand@libui@5@XZ 1001e8ac f i umodsys_lib_libui:umodsys.mod.ui.frames.obj
 0001:0001d8ac       ?get_drv3d@RTerminalX@SDL_core@ui@modules@UModSys@@UBEPAUIRenderDriver@lib3d@5@XZ 1001e8ac f i umodsys_lib_libui:umodsys.mod.ui.SDL_core.obj
 0001:0001d8ac       ?get_up_theme@RCollector@frames@ui@modules@UModSys@@UAEPAUICollectorTheme@libui@5@XZ 1001e8ac f i umodsys_lib_libui:umodsys.mod.ui.frames.obj
 0001:0001d8ac       ?get_ctrlcmd@RFrame_List@frames@ui@modules@UModSys@@UAEPAUIControllerCommand@libui@5@XZ 1001e8ac f i umodsys_lib_libui:umodsys.mod.ui.frames.obj
 0001:0001d8ac       ?get_data@RFrame_Frame@frames@ui@modules@UModSys@@UAEPAUIFrameData@libui@5@XZ 1001e8ac f i umodsys_lib_libui:umodsys.mod.ui.frames.obj
 0001:0001d8ac       ?get_ctrldata@RFrame_Frame@frames@ui@modules@UModSys@@UAEPAUIControllerData@libui@5@XZ 1001e8ac f i umodsys_lib_libui:umodsys.mod.ui.frames.obj
 0001:0001d8af       ?root_get_interface_info@RFrame_Image@frames@ui@modules@UModSys@@UBEABUSUniquePointerInfo@core@5@XZ 1001e8af f i umodsys_lib_libui:umodsys.mod.ui.frames.obj
 0001:0001d8b5       ?root_get_interface_type@RFrame_Image@frames@ui@modules@UModSys@@UBEPBUSUniquePointerInfo@core@5@XZ 1001e8b5 f i umodsys_lib_libui:umodsys.mod.ui.frames.obj
 0001:0001d8bb       ?root_get_other_interface@RFrame_Image@frames@ui@modules@UModSys@@UBEPBUIRoot@core@5@PBUSUniquePointerInfo@75@@Z 1001e8bb f i umodsys_lib_libui:umodsys.mod.ui.frames.obj
 0001:0001d8bb       ?root_get_other_interface@RFrame_Image@frames@ui@modules@UModSys@@UAEPAUIRoot@core@5@PBUSUniquePointerInfo@75@@Z 1001e8bb f i umodsys_lib_libui:umodsys.mod.ui.frames.obj
 0001:0001d8d4       ?root_is_interface_supported@RFrame_Image@frames@ui@modules@UModSys@@UBE_NPBUSUniquePointerInfo@core@5@@Z 1001e8d4 f i umodsys_lib_libui:umodsys.mod.ui.frames.obj
 0001:0001d8f3       ?ref_weak@RFrame_Button@frames@ui@modules@UModSys@@UBE_NAAUWeakPointer@IRefObject@core@5@@Z 1001e8f3 f i umodsys_lib_libui:umodsys.mod.ui.frames.obj
 0001:0001d8f3       ?ref_weak@RFrame_Image@frames@ui@modules@UModSys@@UBE_NAAUWeakPointer@IRefObject@core@5@@Z 1001e8f3 f i umodsys_lib_libui:umodsys.mod.ui.frames.obj
 0001:0001d8f3       ?ref_weak@RFrame_Frame@frames@ui@modules@UModSys@@UBE_NAAUWeakPointer@IRefObject@core@5@@Z 1001e8f3 f i umodsys_lib_libui:umodsys.mod.ui.frames.obj
 0001:0001d915       ?get_cids@RFrame_Image@frames@ui@modules@UModSys@@UAE?AU?$TString@U?$TSCoreConst@D@su@tl@UModSys@@U?$TComparerBinaryHash@D@234@@tl@5@XZ 1001e915 f i umodsys_lib_libui:umodsys.mod.ui.frames.obj
 0001:0001d92c       ?get_cidn@RFrame_Image@frames@ui@modules@UModSys@@UAEHXZ 1001e92c f i umodsys_lib_libui:umodsys.mod.ui.frames.obj
 0001:0001d930       ?root_get_interface_info@RFrame_Text@frames@ui@modules@UModSys@@UBEABUSUniquePointerInfo@core@5@XZ 1001e930 f i umodsys_lib_libui:umodsys.mod.ui.frames.obj
 0001:0001d936       ?root_get_interface_type@RFrame_Text@frames@ui@modules@UModSys@@UBEPBUSUniquePointerInfo@core@5@XZ 1001e936 f i umodsys_lib_libui:umodsys.mod.ui.frames.obj
 0001:0001d93c       ?root_get_other_interface@RFrame_Text@frames@ui@modules@UModSys@@UBEPBUIRoot@core@5@PBUSUniquePointerInfo@75@@Z 1001e93c f i umodsys_lib_libui:umodsys.mod.ui.frames.obj
 0001:0001d93c       ?root_get_other_interface@RFrame_Text@frames@ui@modules@UModSys@@UAEPAUIRoot@core@5@PBUSUniquePointerInfo@75@@Z 1001e93c f i umodsys_lib_libui:umodsys.mod.ui.frames.obj
 0001:0001d955       ?root_is_interface_supported@RFrame_Text@frames@ui@modules@UModSys@@UBE_NPBUSUniquePointerInfo@core@5@@Z 1001e955 f i umodsys_lib_libui:umodsys.mod.ui.frames.obj
 0001:0001d974       ?get_cidn@RFrame_Button@frames@ui@modules@UModSys@@UAEHXZ 1001e974 f i umodsys_lib_libui:umodsys.mod.ui.frames.obj
 0001:0001d974       ?get_cidn@RFrame_List@frames@ui@modules@UModSys@@UAEHXZ 1001e974 f i umodsys_lib_libui:umodsys.mod.ui.frames.obj
 0001:0001d974       ?get_cidn@RFrame_Text@frames@ui@modules@UModSys@@UAEHXZ 1001e974 f i umodsys_lib_libui:umodsys.mod.ui.frames.obj
 0001:0001d978       ??0RFrame_Frame@frames@ui@modules@UModSys@@QAE@PAURCollector@1234@PAURFrame_Common@1234@@Z 1001e978 f   umodsys_lib_libui:umodsys.mod.ui.frames.obj
 0001:0001d9d6       ??_GRFrame_Frame@frames@ui@modules@UModSys@@UAEPAXI@Z 1001e9d6 f i umodsys_lib_libui:umodsys.mod.ui.frames.obj
 0001:0001d9d6       ??_ERFrame_Frame@frames@ui@modules@UModSys@@UAEPAXI@Z 1001e9d6 f i  CIL library: CIL module
 0001:0001da00       ?draw_post@RFrame_Text@frames@ui@modules@UModSys@@MAE_NABUSDrawState@2345@@Z 1001ea00 f   umodsys_lib_libui:umodsys.mod.ui.frames.obj
 0001:0001db33       ?set_fcp@RFrame_Text@frames@ui@modules@UModSys@@MAE_NABUSFrameCreateParameters@libui@5@PBUSParameters@core@5@@Z 1001eb33 f   umodsys_lib_libui:umodsys.mod.ui.frames.obj
 0001:0001db77       ?set_value@RFrame_Text@frames@ui@modules@UModSys@@UAE_NHABUSFrameDataIn@libui@5@@Z 1001eb77 f   umodsys_lib_libui:umodsys.mod.ui.frames.obj
 0001:0001dbb9       ?get_value@RFrame_Text@frames@ui@modules@UModSys@@UAE_NHABUSFrameDataOut@libui@5@@Z 1001ebb9 f   umodsys_lib_libui:umodsys.mod.ui.frames.obj
 0001:0001dc14       ??0RFrame_Text@frames@ui@modules@UModSys@@QAE@PAURCollector@1234@PAURFrame_Common@1234@@Z 1001ec14 f   umodsys_lib_libui:umodsys.mod.ui.frames.obj
 0001:0001dc8f       ??_GRFrame_Text@frames@ui@modules@UModSys@@UAEPAXI@Z 1001ec8f f i umodsys_lib_libui:umodsys.mod.ui.frames.obj
 0001:0001dc8f       ??_ERFrame_Text@frames@ui@modules@UModSys@@UAEPAXI@Z 1001ec8f f i  CIL library: CIL module
 0001:0001dcf0       ?set_fcp@RFrame_Image@frames@ui@modules@UModSys@@MAE_NABUSFrameCreateParameters@libui@5@PBUSParameters@core@5@@Z 1001ecf0 f   umodsys_lib_libui:umodsys.mod.ui.frames.obj
 0001:0001dd4b       ?draw_pre@RFrame_Image@frames@ui@modules@UModSys@@MAE_NABUSDrawState@2345@@Z 1001ed4b f   umodsys_lib_libui:umodsys.mod.ui.frames.obj
 0001:0001de1b       ??0RFrame_Image@frames@ui@modules@UModSys@@QAE@PAURCollector@1234@PAURFrame_Common@1234@@Z 1001ee1b f   umodsys_lib_libui:umodsys.mod.ui.frames.obj
 0001:0001de87       ??_ERFrame_Image@frames@ui@modules@UModSys@@UAEPAXI@Z 1001ee87 f i  CIL library: CIL module
 0001:0001de87       ??_GRFrame_Image@frames@ui@modules@UModSys@@UAEPAXI@Z 1001ee87 f i umodsys_lib_libui:umodsys.mod.ui.frames.obj
 0001:0001dee7       ?root_get_interface_info@RFrame_Button@frames@ui@modules@UModSys@@UBEABUSUniquePointerInfo@core@5@XZ 1001eee7 f i umodsys_lib_libui:umodsys.mod.ui.frames.obj
 0001:0001deed       ?root_get_interface_type@RFrame_Button@frames@ui@modules@UModSys@@UBEPBUSUniquePointerInfo@core@5@XZ 1001eeed f i umodsys_lib_libui:umodsys.mod.ui.frames.obj
 0001:0001def3       ?root_get_other_interface@RFrame_Button@frames@ui@modules@UModSys@@UBEPBUIRoot@core@5@PBUSUniquePointerInfo@75@@Z 1001eef3 f i umodsys_lib_libui:umodsys.mod.ui.frames.obj
 0001:0001def3       ?root_get_other_interface@RFrame_Button@frames@ui@modules@UModSys@@UAEPAUIRoot@core@5@PBUSUniquePointerInfo@75@@Z 1001eef3 f i umodsys_lib_libui:umodsys.mod.ui.frames.obj
 0001:0001df0c       ?root_is_interface_supported@RFrame_Button@frames@ui@modules@UModSys@@UBE_NPBUSUniquePointerInfo@core@5@@Z 1001ef0c f i umodsys_lib_libui:umodsys.mod.ui.frames.obj
 0001:0001df2b       ?ref_remove@RFrame_Button@frames@ui@modules@UModSys@@UBEXXZ 1001ef2b f i umodsys_lib_libui:umodsys.mod.ui.frames.obj
 0001:0001df2b       ?ref_remove@RFrame_Image@frames@ui@modules@UModSys@@UBEXXZ 1001ef2b f i umodsys_lib_libui:umodsys.mod.ui.frames.obj
 0001:0001df2b       ?ref_remove@RFrame_Frame@frames@ui@modules@UModSys@@UBEXXZ 1001ef2b f i umodsys_lib_libui:umodsys.mod.ui.frames.obj
 0001:0001df39       ?ref_links@RFrame_Frame@frames@ui@modules@UModSys@@UBEHXZ 1001ef39 f i umodsys_lib_libui:umodsys.mod.ui.frames.obj
 0001:0001df39       ?ref_links@RFrame_Image@frames@ui@modules@UModSys@@UBEHXZ 1001ef39 f i umodsys_lib_libui:umodsys.mod.ui.frames.obj
 0001:0001df39       ?ref_links@RFrame_Button@frames@ui@modules@UModSys@@UBEHXZ 1001ef39 f i umodsys_lib_libui:umodsys.mod.ui.frames.obj
 0001:0001df40       ?get_cids@RFrame_List@frames@ui@modules@UModSys@@UAE?AU?$TString@U?$TSCoreConst@D@su@tl@UModSys@@U?$TComparerBinaryHash@D@234@@tl@5@XZ 1001ef40 f i umodsys_lib_libui:umodsys.mod.ui.frames.obj
 0001:0001df40       ?get_cids@RFrame_Text@frames@ui@modules@UModSys@@UAE?AU?$TString@U?$TSCoreConst@D@su@tl@UModSys@@U?$TComparerBinaryHash@D@234@@tl@5@XZ 1001ef40 f i umodsys_lib_libui:umodsys.mod.ui.frames.obj
 0001:0001df40       ?get_cids@RFrame_Button@frames@ui@modules@UModSys@@UAE?AU?$TString@U?$TSCoreConst@D@su@tl@UModSys@@U?$TComparerBinaryHash@D@234@@tl@5@XZ 1001ef40 f i umodsys_lib_libui:umodsys.mod.ui.frames.obj
 0001:0001df57       ?button_cmd@RFrame_Button@frames@ui@modules@UModSys@@MAE_NPAUSButton@2345@HH@Z 1001ef57 f   umodsys_lib_libui:umodsys.mod.ui.frames.obj
 0001:0001df8a       ?button_draw@RFrame_Button@frames@ui@modules@UModSys@@MAE_NPAUSButton@2345@ABUSDrawState@2345@H@Z 1001ef8a f   umodsys_lib_libui:umodsys.mod.ui.frames.obj
 0001:0001e020       ?key_event@RFrame_Button@frames@ui@modules@UModSys@@MAE_NABUSKeyboardInputRaw@libui@5@@Z 1001f020 f   umodsys_lib_libui:umodsys.mod.ui.frames.obj
 0001:0001e063       ?mouse_event@RFrame_Button@frames@ui@modules@UModSys@@MAE_NPBUSMouseInput@libui@5@@Z 1001f063 f   umodsys_lib_libui:umodsys.mod.ui.frames.obj
 0001:0001e07c       ?draw_post@RFrame_Button@frames@ui@modules@UModSys@@MAE_NABUSDrawState@2345@@Z 1001f07c f   umodsys_lib_libui:umodsys.mod.ui.frames.obj
 0001:0001e092       ?update_size@RFrame_Button@frames@ui@modules@UModSys@@MAE_NABU?$TBoundBox2@H@math3d@5@@Z 1001f092 f   umodsys_lib_libui:umodsys.mod.ui.frames.obj
 0001:0001e0ba       ?set_fcp@RFrame_Button@frames@ui@modules@UModSys@@MAE_NABUSFrameCreateParameters@libui@5@PBUSParameters@core@5@@Z 1001f0ba f   umodsys_lib_libui:umodsys.mod.ui.frames.obj
 0001:0001e0fe       ??0RFrame_Button@frames@ui@modules@UModSys@@QAE@PAURCollector@1234@PAURFrame_Common@1234@@Z 1001f0fe f   umodsys_lib_libui:umodsys.mod.ui.frames.obj
 0001:0001e1a5       ??_ERFrame_Button@frames@ui@modules@UModSys@@UAEPAXI@Z 1001f1a5 f i  CIL library: CIL module
 0001:0001e1a5       ??_GRFrame_Button@frames@ui@modules@UModSys@@UAEPAXI@Z 1001f1a5 f i umodsys_lib_libui:umodsys.mod.ui.frames.obj
 0001:0001e1fc       ?root_get_interface_info@RFrame_Edit@frames@ui@modules@UModSys@@UBEABUSUniquePointerInfo@core@5@XZ 1001f1fc f i umodsys_lib_libui:umodsys.mod.ui.frames.obj
 0001:0001e202       ?root_get_interface_type@RFrame_Edit@frames@ui@modules@UModSys@@UBEPBUSUniquePointerInfo@core@5@XZ 1001f202 f i umodsys_lib_libui:umodsys.mod.ui.frames.obj
 0001:0001e208       ?root_get_other_interface@RFrame_Edit@frames@ui@modules@UModSys@@UAEPAUIRoot@core@5@PBUSUniquePointerInfo@75@@Z 1001f208 f i umodsys_lib_libui:umodsys.mod.ui.frames.obj
 0001:0001e208       ?root_get_other_interface@RFrame_Edit@frames@ui@modules@UModSys@@UBEPBUIRoot@core@5@PBUSUniquePointerInfo@75@@Z 1001f208 f i umodsys_lib_libui:umodsys.mod.ui.frames.obj
 0001:0001e221       ?root_is_interface_supported@RFrame_Edit@frames@ui@modules@UModSys@@UBE_NPBUSUniquePointerInfo@core@5@@Z 1001f221 f i umodsys_lib_libui:umodsys.mod.ui.frames.obj
 0001:0001e240       ?ref_add@RFrame_Edit@frames@ui@modules@UModSys@@UBEXXZ 1001f240 f i umodsys_lib_libui:umodsys.mod.ui.frames.obj
 0001:0001e240       ?ref_add@RFrame_Text@frames@ui@modules@UModSys@@UBEXXZ 1001f240 f i umodsys_lib_libui:umodsys.mod.ui.frames.obj
 0001:0001e247       ?ref_remove@RFrame_Edit@frames@ui@modules@UModSys@@UBEXXZ 1001f247 f i umodsys_lib_libui:umodsys.mod.ui.frames.obj
 0001:0001e247       ?ref_remove@RFrame_Text@frames@ui@modules@UModSys@@UBEXXZ 1001f247 f i umodsys_lib_libui:umodsys.mod.ui.frames.obj
 0001:0001e255       ?ref_links@RFrame_Edit@frames@ui@modules@UModSys@@UBEHXZ 1001f255 f i umodsys_lib_libui:umodsys.mod.ui.frames.obj
 0001:0001e255       ?ref_links@RFrame_Text@frames@ui@modules@UModSys@@UBEHXZ 1001f255 f i umodsys_lib_libui:umodsys.mod.ui.frames.obj
 0001:0001e25c       ?ref_weak@RFrame_Edit@frames@ui@modules@UModSys@@UBE_NAAUWeakPointer@IRefObject@core@5@@Z 1001f25c f i umodsys_lib_libui:umodsys.mod.ui.frames.obj
 0001:0001e25c       ?ref_weak@RFrame_Text@frames@ui@modules@UModSys@@UBE_NAAUWeakPointer@IRefObject@core@5@@Z 1001f25c f i umodsys_lib_libui:umodsys.mod.ui.frames.obj
 0001:0001e27e       ?suicide@RFrame_Text@frames@ui@modules@UModSys@@UAEXXZ 1001f27e f i umodsys_lib_libui:umodsys.mod.ui.frames.obj
 0001:0001e27e       ?suicide@RFrame_Edit@frames@ui@modules@UModSys@@UAEXXZ 1001f27e f i umodsys_lib_libui:umodsys.mod.ui.frames.obj
 0001:0001e2c2       ?get_cids@RFrame_Edit@frames@ui@modules@UModSys@@UAE?AU?$TString@U?$TSCoreConst@D@su@tl@UModSys@@U?$TComparerBinaryHash@D@234@@tl@5@XZ 1001f2c2 f i umodsys_lib_libui:umodsys.mod.ui.frames.obj
 0001:0001e2d9       ?get_cidn@RFrame_Edit@frames@ui@modules@UModSys@@UAEHXZ 1001f2d9 f i umodsys_lib_libui:umodsys.mod.ui.frames.obj
 0001:0001e2df       ?key_event@RFrame_Edit@frames@ui@modules@UModSys@@MAE_NABUSKeyboardInputRaw@libui@5@@Z 1001f2df f   umodsys_lib_libui:umodsys.mod.ui.frames.obj
 0001:0001e377       ?key_event@RFrame_Edit@frames@ui@modules@UModSys@@MAE_NABUSKeyboardInputText@libui@5@@Z 1001f377 f   umodsys_lib_libui:umodsys.mod.ui.frames.obj
 0001:0001e39b       ?mouse_event@RFrame_Edit@frames@ui@modules@UModSys@@MAE_NPBUSMouseInput@libui@5@@Z 1001f39b f   umodsys_lib_libui:umodsys.mod.ui.frames.obj
 0001:0001e3ea       ?draw_post@RFrame_Edit@frames@ui@modules@UModSys@@MAE_NABUSDrawState@2345@@Z 1001f3ea f   umodsys_lib_libui:umodsys.mod.ui.frames.obj
 0001:0001e53b       ?set_fcp@RFrame_Edit@frames@ui@modules@UModSys@@MAE_NABUSFrameCreateParameters@libui@5@PBUSParameters@core@5@@Z 1001f53b f   umodsys_lib_libui:umodsys.mod.ui.frames.obj
 0001:0001e58e       ?set_value@RFrame_Edit@frames@ui@modules@UModSys@@UAE_NHABUSFrameDataIn@libui@5@@Z 1001f58e f   umodsys_lib_libui:umodsys.mod.ui.frames.obj
 0001:0001e5e0       ?get_value@RFrame_Edit@frames@ui@modules@UModSys@@UAE_NHABUSFrameDataOut@libui@5@@Z 1001f5e0 f   umodsys_lib_libui:umodsys.mod.ui.frames.obj
 0001:0001e661       ?update_last@RFrame_Edit@frames@ui@modules@UModSys@@IAE_NXZ 1001f661 f   umodsys_lib_libui:umodsys.mod.ui.frames.obj
 0001:0001e6f8       ?set_buf@RFrame_Edit@frames@ui@modules@UModSys@@IAE_NPBDH@Z 1001f6f8 f   umodsys_lib_libui:umodsys.mod.ui.frames.obj
 0001:0001e85f       ?sselect@RFrame_Edit@frames@ui@modules@UModSys@@IAE_NH@Z 1001f85f f   umodsys_lib_libui:umodsys.mod.ui.frames.obj
 0001:0001e874       ?sdelete@RFrame_Edit@frames@ui@modules@UModSys@@IAE_NHH@Z 1001f874 f   umodsys_lib_libui:umodsys.mod.ui.frames.obj
 0001:0001e8e4       ?sinsert@RFrame_Edit@frames@ui@modules@UModSys@@IAE_NHPBHH@Z 1001f8e4 f   umodsys_lib_libui:umodsys.mod.ui.frames.obj
 0001:0001e97c       ??0RFrame_Edit@frames@ui@modules@UModSys@@QAE@PAURCollector@1234@PAURFrame_Common@1234@@Z 1001f97c f   umodsys_lib_libui:umodsys.mod.ui.frames.obj
 0001:0001ea30       ??_ERFrame_Edit@frames@ui@modules@UModSys@@UAEPAXI@Z 1001fa30 f i  CIL library: CIL module
 0001:0001ea30       ??_GRFrame_Edit@frames@ui@modules@UModSys@@UAEPAXI@Z 1001fa30 f i umodsys_lib_libui:umodsys.mod.ui.frames.obj
 0001:0001eaa7       ??1?$TStringBuf@U?$TSCoreShared@USIMemAlloc@core@UModSys@@D@su@tl@UModSys@@U?$TComparerBinaryHash@D@234@@tl@UModSys@@QAE@XZ 1001faa7 f i umodsys_lib_libui:umodsys.mod.ui.frames.obj
 0001:0001eaac       ?root_get_interface_info@RFrame_List@frames@ui@modules@UModSys@@UBEABUSUniquePointerInfo@core@5@XZ 1001faac f i umodsys_lib_libui:umodsys.mod.ui.frames.obj
 0001:0001eab2       ?root_get_interface_type@RFrame_List@frames@ui@modules@UModSys@@UBEPBUSUniquePointerInfo@core@5@XZ 1001fab2 f i umodsys_lib_libui:umodsys.mod.ui.frames.obj
 0001:0001eab8       ?root_get_other_interface@RFrame_List@frames@ui@modules@UModSys@@UAEPAUIRoot@core@5@PBUSUniquePointerInfo@75@@Z 1001fab8 f i umodsys_lib_libui:umodsys.mod.ui.frames.obj
 0001:0001eab8       ?root_get_other_interface@RFrame_List@frames@ui@modules@UModSys@@UBEPBUIRoot@core@5@PBUSUniquePointerInfo@75@@Z 1001fab8 f i umodsys_lib_libui:umodsys.mod.ui.frames.obj
 0001:0001ead1       ?root_is_interface_supported@RFrame_List@frames@ui@modules@UModSys@@UBE_NPBUSUniquePointerInfo@core@5@@Z 1001fad1 f i umodsys_lib_libui:umodsys.mod.ui.frames.obj
 0001:0001eaf0       ?ref_add@RFrame_List@frames@ui@modules@UModSys@@UBEXXZ 1001faf0 f i umodsys_lib_libui:umodsys.mod.ui.frames.obj
 0001:0001eaf7       ?ref_remove@RFrame_List@frames@ui@modules@UModSys@@UBEXXZ 1001faf7 f i umodsys_lib_libui:umodsys.mod.ui.frames.obj
 0001:0001eb05       ?ref_links@RFrame_List@frames@ui@modules@UModSys@@UBEHXZ 1001fb05 f i umodsys_lib_libui:umodsys.mod.ui.frames.obj
 0001:0001eb0c       ?ref_weak@RFrame_List@frames@ui@modules@UModSys@@UBE_NAAUWeakPointer@IRefObject@core@5@@Z 1001fb0c f i umodsys_lib_libui:umodsys.mod.ui.frames.obj
 0001:0001eb2e       ?suicide@RFrame_List@frames@ui@modules@UModSys@@UAEXXZ 1001fb2e f i umodsys_lib_libui:umodsys.mod.ui.frames.obj
 0001:0001eb72       ?get_list@RFrame_List@frames@ui@modules@UModSys@@UAEPAUIFrameList@libui@5@XZ 1001fb72 f i umodsys_lib_libui:umodsys.mod.ui.frames.obj
 0001:0001eb72       ?get_data@RFrame_Text@frames@ui@modules@UModSys@@UAEPAUIFrameData@libui@5@XZ 1001fb72 f i umodsys_lib_libui:umodsys.mod.ui.frames.obj
 0001:0001eb72       ?get_data@RFrame_Edit@frames@ui@modules@UModSys@@UAEPAUIFrameData@libui@5@XZ 1001fb72 f i umodsys_lib_libui:umodsys.mod.ui.frames.obj
 0001:0001eb80       ?get_data@RFrame_List@frames@ui@modules@UModSys@@UAEPAUIFrameData@libui@5@XZ 1001fb80 f i umodsys_lib_libui:umodsys.mod.ui.frames.obj
 0001:0001eb8e       ?button_cmd@RFrame_List@frames@ui@modules@UModSys@@MAE_NPAUSButton@2345@HH@Z 1001fb8e f   umodsys_lib_libui:umodsys.mod.ui.frames.obj
 0001:0001ec53       ?button_draw@RFrame_List@frames@ui@modules@UModSys@@MAE_NPAUSButton@2345@ABUSDrawState@2345@H@Z 1001fc53 f   umodsys_lib_libui:umodsys.mod.ui.frames.obj
 0001:0001ecd3       ?key_event@RFrame_List@frames@ui@modules@UModSys@@MAE_NABUSKeyboardInputRaw@libui@5@@Z 1001fcd3 f   umodsys_lib_libui:umodsys.mod.ui.frames.obj
 0001:0001ed43       ?mouse_event@RFrame_List@frames@ui@modules@UModSys@@MAE_NPBUSMouseInput@libui@5@@Z 1001fd43 f   umodsys_lib_libui:umodsys.mod.ui.frames.obj
 0001:0001ee90       ?draw_post@RFrame_List@frames@ui@modules@UModSys@@MAE_NABUSDrawState@2345@@Z 1001fe90 f   umodsys_lib_libui:umodsys.mod.ui.frames.obj
 0001:0001f288       ?update_size@RFrame_List@frames@ui@modules@UModSys@@MAE_NABU?$TBoundBox2@H@math3d@5@@Z 10020288 f   umodsys_lib_libui:umodsys.mod.ui.frames.obj
 0001:0001f2d4       ?set_fcp@RFrame_List@frames@ui@modules@UModSys@@MAE_NABUSFrameCreateParameters@libui@5@PBUSParameters@core@5@@Z 100202d4 f   umodsys_lib_libui:umodsys.mod.ui.frames.obj
 0001:0001f3ab       ?controller_update@RFrame_List@frames@ui@modules@UModSys@@UAE_NXZ 100203ab f   umodsys_lib_libui:umodsys.mod.ui.frames.obj
 0001:0001f48a       ?set_lcount@RFrame_List@frames@ui@modules@UModSys@@UAE_NH@Z 1002048a f   umodsys_lib_libui:umodsys.mod.ui.frames.obj
 0001:0001f4c6       ?get_lcount@RFrame_List@frames@ui@modules@UModSys@@UAEHXZ 100204c6 f   umodsys_lib_libui:umodsys.mod.ui.frames.obj
 0001:0001f4d3       ?set_lvalue@RFrame_List@frames@ui@modules@UModSys@@UAE_NHHABUSFrameDataIn@libui@5@@Z 100204d3 f   umodsys_lib_libui:umodsys.mod.ui.frames.obj
 0001:0001f52e       ?get_lvalue@RFrame_List@frames@ui@modules@UModSys@@UAE_NHHABUSFrameDataOut@libui@5@@Z 1002052e f   umodsys_lib_libui:umodsys.mod.ui.frames.obj
 0001:0001f5a0       ?set_value@RFrame_List@frames@ui@modules@UModSys@@UAE_NHABUSFrameDataIn@libui@5@@Z 100205a0 f   umodsys_lib_libui:umodsys.mod.ui.frames.obj
 0001:0001f5ca       ?get_value@RFrame_List@frames@ui@modules@UModSys@@UAE_NHABUSFrameDataOut@libui@5@@Z 100205ca f   umodsys_lib_libui:umodsys.mod.ui.frames.obj
 0001:0001f5f4       ?sselect@RFrame_List@frames@ui@modules@UModSys@@IAE_NH@Z 100205f4 f   umodsys_lib_libui:umodsys.mod.ui.frames.obj
 0001:0001f63f       ??0RFrame_List@frames@ui@modules@UModSys@@QAE@PAURCollector@1234@PAURFrame_Common@1234@@Z 1002063f f   umodsys_lib_libui:umodsys.mod.ui.frames.obj
 0001:0001f79e       ??_GRFrame_List@frames@ui@modules@UModSys@@UAEPAXI@Z 1002079e f i umodsys_lib_libui:umodsys.mod.ui.frames.obj
 0001:0001f79e       ??_ERFrame_List@frames@ui@modules@UModSys@@UAEPAXI@Z 1002079e f i  CIL library: CIL module
 0001:0001f7e7       ?root_get_interface_info@RCollector@frames@ui@modules@UModSys@@UBEABUSUniquePointerInfo@core@5@XZ 100207e7 f i umodsys_lib_libui:umodsys.mod.ui.frames.obj
 0001:0001f7ed       ?root_get_interface_type@RCollector@frames@ui@modules@UModSys@@UBEPBUSUniquePointerInfo@core@5@XZ 100207ed f i umodsys_lib_libui:umodsys.mod.ui.frames.obj
 0001:0001f7f3       ?root_get_other_interface@RCollector@frames@ui@modules@UModSys@@UBEPBUIRoot@core@5@PBUSUniquePointerInfo@75@@Z 100207f3 f i umodsys_lib_libui:umodsys.mod.ui.frames.obj
 0001:0001f7f3       ?root_get_other_interface@RCollector@frames@ui@modules@UModSys@@UAEPAUIRoot@core@5@PBUSUniquePointerInfo@75@@Z 100207f3 f i umodsys_lib_libui:umodsys.mod.ui.frames.obj
 0001:0001f814       ?root_is_interface_supported@RCollector@frames@ui@modules@UModSys@@UBE_NPBUSUniquePointerInfo@core@5@@Z 10020814 f i umodsys_lib_libui:umodsys.mod.ui.frames.obj
 0001:0001f83b       ?ref_add@RCollector@frames@ui@modules@UModSys@@UBEXXZ 1002083b f i umodsys_lib_libui:umodsys.mod.ui.frames.obj
 0001:0001f83f       ?ref_remove@RCollector@frames@ui@modules@UModSys@@UBEXXZ 1002083f f i umodsys_lib_libui:umodsys.mod.ui.frames.obj
 0001:0001f84a       ?get_terminal@RRenderDriver3D@SDL_GL@ui@modules@UModSys@@UBEPAUITerminal@libui@5@XZ 1002084a f i umodsys_lib_libui:umodsys.mod.ui.SDL_GL.obj
 0001:0001f84a       ?get_terminal@RRenderDriver2D@SDL_core@ui@modules@UModSys@@UBEPAUITerminal@libui@5@XZ 1002084a f i umodsys_lib_libui:umodsys.mod.ui.SDL_core.obj
 0001:0001f84a       ?ref_links@RCollector@frames@ui@modules@UModSys@@UBEHXZ 1002084a f i umodsys_lib_libui:umodsys.mod.ui.frames.obj
 0001:0001f84e       ?ref_weak@RCollector@frames@ui@modules@UModSys@@UBE_NAAUWeakPointer@IRefObject@core@5@@Z 1002084e f i umodsys_lib_libui:umodsys.mod.ui.frames.obj
 0001:0001f86d       ?suicide@RCollector@frames@ui@modules@UModSys@@UAEXXZ 1002086d f i umodsys_lib_libui:umodsys.mod.ui.frames.obj
 0001:0001f8aa       ?broadcast@RCollector@frames@ui@modules@UModSys@@UAEHHABUSFrameDataIn@libui@5@H@Z 100208aa f i umodsys_lib_libui:umodsys.mod.ui.frames.obj
 0001:0001f8c5       ?frame_create_n@RCollector@frames@ui@modules@UModSys@@UAEPAUIFrame@libui@5@HABUSFrameCreateParameters@75@PBUSParameters@core@5@@Z 100208c5 f   umodsys_lib_libui:umodsys.mod.ui.frames.obj
 0001:0001fb23       ?frame_create_s@RCollector@frames@ui@modules@UModSys@@UAEPAUIFrame@libui@5@ABU?$TString@U?$TSCoreConst@D@su@tl@UModSys@@U?$TComparerBinaryHash@D@234@@tl@5@ABUSFrameCreateParameters@75@PBUSParameters@core@5@@Z 10020b23 f   umodsys_lib_libui:umodsys.mod.ui.frames.obj
 0001:0001fe00       ?output_process@RCollector@frames@ui@modules@UModSys@@UAE_NXZ 10020e00 f   umodsys_lib_libui:umodsys.mod.ui.frames.obj
 0001:0001fee1       ?output_attach_2d@RCollector@frames@ui@modules@UModSys@@UAE_NPAUIRenderDriver@lib2d@5@H@Z 10020ee1 f   umodsys_lib_libui:umodsys.mod.ui.frames.obj
 0001:0001fef6       ?input_process@RCollector@frames@ui@modules@UModSys@@UAE_NH@Z 10020ef6 f   umodsys_lib_libui:umodsys.mod.ui.frames.obj
 0001:0001ff0e       ?input_attach_m@RCollector@frames@ui@modules@UModSys@@UAE_NPAUIMouseController@libui@5@H@Z 10020f0e f   umodsys_lib_libui:umodsys.mod.ui.frames.obj
 0001:0001ff71       ?input_attach_k@RCollector@frames@ui@modules@UModSys@@UAE_NPAUIKeyboardController@libui@5@H@Z 10020f71 f   umodsys_lib_libui:umodsys.mod.ui.frames.obj
 0001:0001ffc5       ?shutdown@RCollector@frames@ui@modules@UModSys@@UAE_NXZ 10020fc5 f   umodsys_lib_libui:umodsys.mod.ui.frames.obj
 0001:0002003b       ?mouse_event@RCollector@frames@ui@modules@UModSys@@UAE_NABUSMouseInput@libui@5@@Z 1002103b f   umodsys_lib_libui:umodsys.mod.ui.frames.obj
 0001:0002009d       ?key_pressed@RCollector@frames@ui@modules@UModSys@@UAE_NABUSKeyboardInputRaw@libui@5@@Z 1002109d f   umodsys_lib_libui:umodsys.mod.ui.frames.obj
 0001:000200d8       ?key_text@RCollector@frames@ui@modules@UModSys@@UAE_NABUSKeyboardInputText@libui@5@@Z 100210d8 f   umodsys_lib_libui:umodsys.mod.ui.frames.obj
 0001:000200f9       ?insert@RCollector@frames@ui@modules@UModSys@@IAE_NPAURFrame_Common@2345@0@Z 100210f9 f   umodsys_lib_libui:umodsys.mod.ui.frames.obj
 0001:0002013f       ?evmouse@RCollector@frames@ui@modules@UModSys@@IAE_NABU?$TBoundBox2@H@math3d@5@ABU?$TDynarrayDynamic@U?$TRefObject@URFrame_Common@frames@ui@modules@UModSys@@U?$TRefObjectFunc@URFrame_Common@frames@ui@modules@UModSys@@@tl@5@@tl@UModSys@@U?$TAllocator@USIMemAlloc@core@UModSys@@USCountCalcPower2@23@@23@@tl@5@ABUSMouseInput@libui@5@PAURFrame_Common@2345@@Z 1002113f f   umodsys_lib_libui:umodsys.mod.ui.frames.obj
 0001:0002023d       ?evmouse@RCollector@frames@ui@modules@UModSys@@IAE_NABU?$TDynarrayDynamic@U?$TRefObject@URFrame_Common@frames@ui@modules@UModSys@@U?$TRefObjectFunc@URFrame_Common@frames@ui@modules@UModSys@@@tl@5@@tl@UModSys@@U?$TAllocator@USIMemAlloc@core@UModSys@@USCountCalcPower2@23@@23@@tl@5@@Z 1002123d f   umodsys_lib_libui:umodsys.mod.ui.frames.obj
 0001:000202a1       ?draw@RCollector@frames@ui@modules@UModSys@@IAE_NABUSDrawState@2345@ABU?$TDynarrayDynamic@U?$TRefObject@URFrame_Common@frames@ui@modules@UModSys@@U?$TRefObjectFunc@URFrame_Common@frames@ui@modules@UModSys@@@tl@5@@tl@UModSys@@U?$TAllocator@USIMemAlloc@core@UModSys@@USCountCalcPower2@23@@23@@tl@5@@Z 100212a1 f   umodsys_lib_libui:umodsys.mod.ui.frames.obj
 0001:00020302       ?broadcast@RCollector@frames@ui@modules@UModSys@@IAEHABU?$TDynarrayDynamic@U?$TRefObject@URFrame_Common@frames@ui@modules@UModSys@@U?$TRefObjectFunc@URFrame_Common@frames@ui@modules@UModSys@@@tl@5@@tl@UModSys@@U?$TAllocator@USIMemAlloc@core@UModSys@@USCountCalcPower2@23@@23@@tl@5@HABUSFrameDataIn@libui@5@H@Z 10021302 f   umodsys_lib_libui:umodsys.mod.ui.frames.obj
 0001:0002037d       ?update_size@RCollector@frames@ui@modules@UModSys@@IAE_NXZ 1002137d f   umodsys_lib_libui:umodsys.mod.ui.frames.obj
 0001:0002048c       ?update_size@RCollector@frames@ui@modules@UModSys@@IAE_NABU?$TBoundBox2@H@math3d@5@ABU?$TDynarrayDynamic@U?$TRefObject@URFrame_Common@frames@ui@modules@UModSys@@U?$TRefObjectFunc@URFrame_Common@frames@ui@modules@UModSys@@@tl@5@@tl@UModSys@@U?$TAllocator@USIMemAlloc@core@UModSys@@USCountCalcPower2@23@@23@@tl@5@_N@Z 1002148c f   umodsys_lib_libui:umodsys.mod.ui.frames.obj
 0001:000204fa       ?set_focused@RCollector@frames@ui@modules@UModSys@@IAE_NPAUIFrame@libui@5@@Z 100214fa f   umodsys_lib_libui:umodsys.mod.ui.frames.obj
 0001:00020548       ?get_focused@RCollector@frames@ui@modules@UModSys@@IAEPAURFrame_Common@2345@XZ 10021548 f   umodsys_lib_libui:umodsys.mod.ui.frames.obj
 0001:00020577       ?cont_first@RCollector@frames@ui@modules@UModSys@@IAEPAURFrame_Common@2345@PAU62345@@Z 10021577 f   umodsys_lib_libui:umodsys.mod.ui.frames.obj
 0001:0002059b       ?cont_last@RCollector@frames@ui@modules@UModSys@@IAEPAURFrame_Common@2345@PAU62345@@Z 1002159b f   umodsys_lib_libui:umodsys.mod.ui.frames.obj
 0001:000205cc       ?find_next_focused@RCollector@frames@ui@modules@UModSys@@IAEPAURFrame_Common@2345@PAU62345@0_N@Z 100215cc f   umodsys_lib_libui:umodsys.mod.ui.frames.obj
 0001:00020707       ?master_key_pressed@RCollector@frames@ui@modules@UModSys@@IAE_NABUSKeyboardInputRaw@libui@5@@Z 10021707 f   umodsys_lib_libui:umodsys.mod.ui.frames.obj
 0001:00020773       ??0RCollector@frames@ui@modules@UModSys@@QAE@PAUIModObject@base@4@ABUSParameters@core@4@@Z 10021773 f   umodsys_lib_libui:umodsys.mod.ui.frames.obj
 0001:00020bad       ??_ERCollector@frames@ui@modules@UModSys@@UAEPAXI@Z 10021bad f i  CIL library: CIL module
 0001:00020bad       ??_GRCollector@frames@ui@modules@UModSys@@UAEPAXI@Z 10021bad f i umodsys_lib_libui:umodsys.mod.ui.frames.obj
 0001:00020bca       ??1RCollector@frames@ui@modules@UModSys@@UAE@XZ 10021bca f   umodsys_lib_libui:umodsys.mod.ui.frames.obj
 0001:00020cb8       ?dialog_open@RCollector@frames@ui@modules@UModSys@@UAEPAUIDialog@libui@5@PAUIFrame@75@@Z 10021cb8 f   umodsys_lib_libui:umodsys.mod.ui.frames.obj
 0001:00020de8       ?dialog_get@RCollector@frames@ui@modules@UModSys@@UAEPAUIDialog@libui@5@XZ 10021de8 f   umodsys_lib_libui:umodsys.mod.ui.frames.obj
 0001:00020dfc       ?dialog_close@RCollector@frames@ui@modules@UModSys@@UAE_NXZ 10021dfc f   umodsys_lib_libui:umodsys.mod.ui.frames.obj
 0001:00020e97       ?dialog_close_all@RCollector@frames@ui@modules@UModSys@@UAE_NXZ 10021e97 f   umodsys_lib_libui:umodsys.mod.ui.frames.obj
 0001:00020f10       ?get_up_theme@RFrame_Common@frames@ui@modules@UModSys@@UAEPAUICollectorTheme@libui@5@XZ 10021f10 f i umodsys_lib_libui:umodsys.mod.ui.frames.obj
 0001:00020f22       ?get_collector@RFrame_Common@frames@ui@modules@UModSys@@UAEPAUICollector@libui@5@XZ 10021f22 f   umodsys_lib_libui:umodsys.mod.ui.frames.obj
 0001:00020f26       ?draw_sub@RFrame_Common@frames@ui@modules@UModSys@@MAE_NABUSDrawState@2345@@Z 10021f26 f   umodsys_lib_libui:umodsys.mod.ui.frames.obj
 0001:00020f36       ?set_focus@RFrame_Common@frames@ui@modules@UModSys@@MAE_N_N@Z 10021f36 f   umodsys_lib_libui:umodsys.mod.ui.frames.obj
 0001:00020fa7       ?cont_prev@RFrame_Common@frames@ui@modules@UModSys@@IAEPAU12345@PAU12345@@Z 10021fa7 f   umodsys_lib_libui:umodsys.mod.ui.frames.obj
 0001:0002101b       ?cont_next@RFrame_Common@frames@ui@modules@UModSys@@IAEPAU12345@PAU12345@@Z 1002201b f   umodsys_lib_libui:umodsys.mod.ui.frames.obj
 0001:00021090       ?close@RDialog@frames@ui@modules@UModSys@@UAE_NXZ 10022090 f   umodsys_lib_libui:umodsys.mod.ui.frames.obj
 0001:000210ac       ??0SButton@frames@ui@modules@UModSys@@QAE@PAURFrame_Common@1234@HABUSFrameSize@libui@4@@Z 100220ac f   umodsys_lib_libui:umodsys.mod.ui.frames.obj
 0001:000210e3       ?mouse@SButton@frames@ui@modules@UModSys@@QAE_NPBUSMouseInput@libui@5@@Z 100220e3 f   umodsys_lib_libui:umodsys.mod.ui.frames.obj
 0001:00021206       ?draw@SButton@frames@ui@modules@UModSys@@QAE_NABUSDrawState@2345@@Z 10022206 f   umodsys_lib_libui:umodsys.mod.ui.frames.obj
 0001:0002128b       ?draw_button@SButton@frames@ui@modules@UModSys@@QAE_NABUSDrawState@2345@HH@Z 1002228b f i umodsys_lib_libui:umodsys.mod.ui.frames.obj
 0001:000212da       ?draw_text@SButton@frames@ui@modules@UModSys@@QAE_NABUSDrawState@2345@ABU?$TString@U?$TSCoreConst@D@su@tl@UModSys@@U?$TComparerBinaryHash@D@234@@tl@5@HH@Z 100222da f i umodsys_lib_libui:umodsys.mod.ui.frames.obj
 0001:00021381       ?draw_arrow@SButton@frames@ui@modules@UModSys@@QAE_NABUSDrawState@2345@HHH@Z 10022381 f   umodsys_lib_libui:umodsys.mod.ui.frames.obj
 0001:0002143f       ?draw_progress@SButton@frames@ui@modules@UModSys@@QAE_NABUSDrawState@2345@MHHH@Z 1002243f f   umodsys_lib_libui:umodsys.mod.ui.frames.obj
 0001:000214e8       ?get_generated_names@RGenerator@frames@ui@modules@UModSys@@UBEHAAUSUniquePtrList@core@5@@Z 100224e8 f i umodsys_lib_libui:umodsys.mod.ui.frames.obj
 0001:00021501       ?get_generated_types@RGenerator@frames@ui@modules@UModSys@@UBEHAAUSUniquePtrList@core@5@PBUSUniquePointerInfo@75@@Z 10022501 f i umodsys_lib_libui:umodsys.mod.ui.frames.obj
 0001:00021533       ?generate@RGenerator@frames@ui@modules@UModSys@@UAE_NAAU?$TRefObject@UIRefObject@core@UModSys@@U?$TRefObjectFunc@UIRefObject@core@UModSys@@@tl@3@@tl@5@PBUSUniquePointerInfo@core@5@ABUSParameters@95@@Z 10022533 f i umodsys_lib_libui:umodsys.mod.ui.frames.obj
 0001:00021554       ?root_get_interface_info@RGenerator@frames@ui@modules@UModSys@@UBEABUSUniquePointerInfo@core@5@XZ 10022554 f i umodsys_lib_libui:umodsys.mod.ui.frames.obj
 0001:0002155a       ?root_get_interface_type@RGenerator@frames@ui@modules@UModSys@@UBEPBUSUniquePointerInfo@core@5@XZ 1002255a f i umodsys_lib_libui:umodsys.mod.ui.frames.obj
 0001:00021560       ?root_get_other_interface@RGenerator@frames@ui@modules@UModSys@@UAEPAUIRoot@core@5@PBUSUniquePointerInfo@75@@Z 10022560 f i umodsys_lib_libui:umodsys.mod.ui.frames.obj
 0001:00021560       ?root_get_other_interface@RGenerator@frames@ui@modules@UModSys@@UBEPBUIRoot@core@5@PBUSUniquePointerInfo@75@@Z 10022560 f i umodsys_lib_libui:umodsys.mod.ui.frames.obj
 0001:00021579       ?root_is_interface_supported@RGenerator@frames@ui@modules@UModSys@@UBE_NPBUSUniquePointerInfo@core@5@@Z 10022579 f i umodsys_lib_libui:umodsys.mod.ui.frames.obj
 0001:00021598       ?get_uid@RGenerator@frames@ui@modules@UModSys@@UBEPBUSUniquePointerInfo@core@5@XZ 10022598 f i umodsys_lib_libui:umodsys.mod.ui.frames.obj
 0001:0002159e       ?do_open@RModuleReg@frames@ui@modules@UModSys@@UAE_NXZ 1002259e f i umodsys_lib_libui:umodsys.mod.ui.frames.obj
 0001:000215ec       ?do_close@RModuleReg@frames@ui@modules@UModSys@@UAE_NXZ 100225ec f i umodsys_lib_libui:umodsys.mod.ui.frames.obj
 0001:00021627       ?get_module@RGenerator@frames@ui@modules@UModSys@@UBEPAUIModule@base@5@XZ 10022627 f   umodsys_lib_libui:umodsys.mod.ui.frames.obj
 0001:0002162d       ?mod_inc@RGenerator@frames@ui@modules@UModSys@@UBE_NXZ 1002262d f   umodsys_lib_libui:umodsys.mod.ui.frames.obj
 0001:00021638       ?mod_dec@RGenerator@frames@ui@modules@UModSys@@UBE_NXZ 10022638 f   umodsys_lib_libui:umodsys.mod.ui.frames.obj
 0001:00021643       ?s_holder@RGenerator@frames@ui@modules@UModSys@@SAAAU?$TTypeStaticHolder@URGenerator@frames@ui@modules@UModSys@@@tl@5@XZ 10022643 f   umodsys_lib_libui:umodsys.mod.ui.frames.obj
 0001:00021675       ??0?$TBoundBox2@H@math3d@UModSys@@QAE@ABU012@0@Z 10022675 f i umodsys_lib_libui:umodsys.mod.ui.frames.obj
 0001:000216b0       ??1?$TScatterArray@U?$TVector4@M@math3d@UModSys@@HU?$TScalarCompare@H@core@3@U?$TNodeDeleter0@U?$TScatterArrayNode@U?$TVector4@M@math3d@UModSys@@H@tl@UModSys@@@tl@3@@tl@UModSys@@QAE@XZ 100226b0 f i umodsys_lib_libui:umodsys.mod.ui.frames.obj
 0001:000216b0       ??1?$TScatterArray@U?$TVector2@M@math3d@UModSys@@HU?$TScalarCompare@H@core@3@U?$TNodeDeleter0@U?$TScatterArrayNode@U?$TVector2@M@math3d@UModSys@@H@tl@UModSys@@@tl@3@@tl@UModSys@@QAE@XZ 100226b0 f i umodsys_lib_libui:umodsys.mod.ui.frames.obj
 0001:000216c6       ??1?$TDynarrayDynamic@U?$TRefObject@URFrame_Common@frames@ui@modules@UModSys@@U?$TRefObjectFunc@URFrame_Common@frames@ui@modules@UModSys@@@tl@5@@tl@UModSys@@U?$TAllocator@USIMemAlloc@core@UModSys@@USCountCalcPower2@23@@23@@tl@UModSys@@QAE@XZ 100226c6 f i umodsys_lib_libui:umodsys.mod.ui.frames.obj
 0001:000216c6       ??1?$TDynarrayDynamic@U?$TRefObject@URDialog@frames@ui@modules@UModSys@@U?$TRefObjectFunc@URDialog@frames@ui@modules@UModSys@@@tl@5@@tl@UModSys@@U?$TAllocator@USIMemAlloc@core@UModSys@@USCountCalcPower2@23@@23@@tl@UModSys@@QAE@XZ 100226c6 f i umodsys_lib_libui:umodsys.mod.ui.frames.obj
 0001:000216cb       ??1?$TDynarray@U?$TDynarrayHolderDynamic@UListItem@RFrame_List@frames@ui@modules@UModSys@@U?$TAllocator@USIMemAlloc@core@UModSys@@USCountCalcPower2@23@@tl@6@@tl@UModSys@@@tl@UModSys@@QAE@XZ 100226cb f i umodsys_lib_libui:umodsys.mod.ui.frames.obj
 0001:00021710       ??1?$TDynarray@U?$TDynarrayHolderDynamic@U?$TRefObject@URDialog@frames@ui@modules@UModSys@@U?$TRefObjectFunc@URDialog@frames@ui@modules@UModSys@@@tl@5@@tl@UModSys@@U?$TAllocator@USIMemAlloc@core@UModSys@@USCountCalcPower2@23@@23@@tl@UModSys@@@tl@UModSys@@QAE@XZ 10022710 f i umodsys_lib_libui:umodsys.mod.ui.frames.obj
 0001:00021710       ??1?$TDynarray@U?$TDynarrayHolderDynamic@U?$TRefObject@URFrame_Common@frames@ui@modules@UModSys@@U?$TRefObjectFunc@URFrame_Common@frames@ui@modules@UModSys@@@tl@5@@tl@UModSys@@U?$TAllocator@USIMemAlloc@core@UModSys@@USCountCalcPower2@23@@23@@tl@UModSys@@@tl@UModSys@@QAE@XZ 10022710 f i umodsys_lib_libui:umodsys.mod.ui.frames.obj
 0001:00021756       ??$t_get@U?$TScatterArray@HHU?$TScalarCompare@H@core@UModSys@@U?$TNodeDeleter0@U?$TScatterArrayNode@HH@tl@UModSys@@@tl@3@@tl@UModSys@@H@ICollectorThemeTemplate@libui@UModSys@@IBE_NABU?$TScatterArray@HHU?$TScalarCompare@H@core@UModSys@@U?$TNodeDeleter0@U?$TScatterArrayNode@HH@tl@UModSys@@@tl@3@@tl@2@HHAAH@Z 10022756 f i umodsys_lib_libui:umodsys.mod.ui.frames.obj
 0001:000217d7       ??$?4U?$TSCoreShared@USIMemAlloc@core@UModSys@@D@su@tl@UModSys@@U?$TComparerBinaryHash@D@123@@?$TString@U?$TSCoreConst@D@su@tl@UModSys@@U?$TComparerBinaryHash@D@234@@tl@UModSys@@QAEXABU?$TString@U?$TSCoreShared@USIMemAlloc@core@UModSys@@D@su@tl@UModSys@@U?$TComparerBinaryHash@D@234@@12@@Z 100227d7 f i umodsys_lib_libui:umodsys.mod.ui.frames.obj
 0001:000217f1       ??$?4U?$TSCoreConst@D@su@tl@UModSys@@U?$TComparerBinaryHash@D@123@@?$TString@U?$TSCoreShared@USIMemAlloc@core@UModSys@@D@su@tl@UModSys@@U?$TComparerBinaryHash@D@234@@tl@UModSys@@QAEXABU?$TString@U?$TSCoreConst@D@su@tl@UModSys@@U?$TComparerBinaryHash@D@234@@12@@Z 100227f1 f i umodsys_lib_libui:umodsys.mod.ui.frames.obj
 0001:00021816       ?ResizeRel@?$TDynarray@U?$TDynarrayHolderDynamic@UListItem@RFrame_List@frames@ui@modules@UModSys@@U?$TAllocator@USIMemAlloc@core@UModSys@@USCountCalcPower2@23@@tl@6@@tl@UModSys@@@tl@UModSys@@QAE_NH@Z 10022816 f i umodsys_lib_libui:umodsys.mod.ui.frames.obj
 0001:000218a1       ?ResizeRel@?$TDynarray@U?$TDynarrayHolderDynamic@U?$TRefObject@URFrame_Common@frames@ui@modules@UModSys@@U?$TRefObjectFunc@URFrame_Common@frames@ui@modules@UModSys@@@tl@5@@tl@UModSys@@U?$TAllocator@USIMemAlloc@core@UModSys@@USCountCalcPower2@23@@23@@tl@UModSys@@@tl@UModSys@@QAE_NH@Z 100228a1 f i umodsys_lib_libui:umodsys.mod.ui.frames.obj
 0001:000218a1       ?ResizeRel@?$TDynarray@U?$TDynarrayHolderDynamic@U?$TRefObject@URDialog@frames@ui@modules@UModSys@@U?$TRefObjectFunc@URDialog@frames@ui@modules@UModSys@@@tl@5@@tl@UModSys@@U?$TAllocator@USIMemAlloc@core@UModSys@@USCountCalcPower2@23@@23@@tl@UModSys@@@tl@UModSys@@QAE_NH@Z 100228a1 f i umodsys_lib_libui:umodsys.mod.ui.frames.obj
 0001:00021919       ??$t_gen_param@URCollector@frames@ui@modules@UModSys@@URGenerator@2345@@IGenerator@base@UModSys@@IAE_NPAURGenerator@frames@ui@modules@2@AAU?$TRefObject@UIRefObject@core@UModSys@@U?$TRefObjectFunc@UIRefObject@core@UModSys@@@tl@3@@tl@2@PBUSUniquePointerInfo@core@2@ABUSParameters@core@2@@Z 10022919 f i umodsys_lib_libui:umodsys.mod.ui.frames.obj
 0001:000219c4       ??R?$TScatterArray@U?$TVector2@M@math3d@UModSys@@HU?$TScalarCompare@H@core@3@U?$TNodeDeleter0@U?$TScatterArrayNode@U?$TVector2@M@math3d@UModSys@@H@tl@UModSys@@@tl@3@@tl@UModSys@@QBEPAU?$TVector2@M@math3d@2@ABH@Z 100229c4 f i umodsys_lib_libui:umodsys.mod.ui.frames.obj
 0001:000219c4       ??R?$TScatterArray@U?$TVector4@M@math3d@UModSys@@HU?$TScalarCompare@H@core@3@U?$TNodeDeleter0@U?$TScatterArrayNode@U?$TVector4@M@math3d@UModSys@@H@tl@UModSys@@@tl@3@@tl@UModSys@@QBEPAU?$TVector4@M@math3d@2@ABH@Z 100229c4 f i umodsys_lib_libui:umodsys.mod.ui.frames.obj
 0001:00021a01       ?ReLink@?$TDynarray@U?$TDynarrayHolderDynamic@UListItem@RFrame_List@frames@ui@modules@UModSys@@U?$TAllocator@USIMemAlloc@core@UModSys@@USCountCalcPower2@23@@tl@6@@tl@UModSys@@@tl@UModSys@@IAE_NI@Z 10022a01 f i umodsys_lib_libui:umodsys.mod.ui.frames.obj
 0001:00021a43       ?ReLink@?$TDynarray@U?$TDynarrayHolderDynamic@U?$TRefObject@UIImage@lib2d@UModSys@@U?$TRefObjectFunc@UIImage@lib2d@UModSys@@@tl@3@@tl@UModSys@@U?$TAllocator@USIMemAlloc@core@UModSys@@USCountCalcPower2@23@@23@@tl@UModSys@@@tl@UModSys@@IAE_NI@Z 10022a43 f i umodsys_lib_lib2d:umodsys.mod.2d.stdlib.obj
 0001:00021a43       ?ReLink@?$TDynarray@U?$TDynarrayHolderDynamic@U?$TRefObject@URDialog@frames@ui@modules@UModSys@@U?$TRefObjectFunc@URDialog@frames@ui@modules@UModSys@@@tl@5@@tl@UModSys@@U?$TAllocator@USIMemAlloc@core@UModSys@@USCountCalcPower2@23@@23@@tl@UModSys@@@tl@UModSys@@IAE_NI@Z 10022a43 f i umodsys_lib_libui:umodsys.mod.ui.frames.obj
 0001:00021a43       ?ReLink@?$TDynarray@U?$TDynarrayHolderDynamic@U?$TRefObject@URFrame_Common@frames@ui@modules@UModSys@@U?$TRefObjectFunc@URFrame_Common@frames@ui@modules@UModSys@@@tl@5@@tl@UModSys@@U?$TAllocator@USIMemAlloc@core@UModSys@@USCountCalcPower2@23@@23@@tl@UModSys@@@tl@UModSys@@IAE_NI@Z 10022a43 f i umodsys_lib_libui:umodsys.mod.ui.frames.obj
 0001:00021a85       ??$process_nodes_r@U?$TNodeDeleter0@U?$TScatterArrayNode@HH@tl@UModSys@@@tl@UModSys@@@?$TTreeHoldRB@U?$TScatterArrayNode@HH@tl@UModSys@@@tl@UModSys@@KAHPAU?$TScatterArrayNode@HH@12@ABU?$TNodeDeleter0@U?$TScatterArrayNode@HH@tl@UModSys@@@12@@Z 10022a85 f i umodsys_lib_libui:umodsys.mod.ui.frames.obj
 0001:00021a85       ??$process_nodes_r@U?$TNodeDeleter0@U?$TScatterArrayNode@U?$TVector4@M@math3d@UModSys@@H@tl@UModSys@@@tl@UModSys@@@?$TTreeHoldRB@U?$TScatterArrayNode@U?$TVector4@M@math3d@UModSys@@H@tl@UModSys@@@tl@UModSys@@KAHPAU?$TScatterArrayNode@U?$TVector4@M@math3d@UModSys@@H@12@ABU?$TNodeDeleter0@U?$TScatterArrayNode@U?$TVector4@M@math3d@UModSys@@H@tl@UModSys@@@12@@Z 10022a85 f i umodsys_lib_libui:umodsys.mod.ui.frames.obj
 0001:00021a85       ??$process_nodes_r@U?$TNodeDeleter0@U?$TScatterArrayNode@U?$TVector2@M@math3d@UModSys@@H@tl@UModSys@@@tl@UModSys@@@?$TTreeHoldRB@U?$TScatterArrayNode@U?$TVector2@M@math3d@UModSys@@H@tl@UModSys@@@tl@UModSys@@KAHPAU?$TScatterArrayNode@U?$TVector2@M@math3d@UModSys@@H@12@ABU?$TNodeDeleter0@U?$TScatterArrayNode@U?$TVector2@M@math3d@UModSys@@H@tl@UModSys@@@12@@Z 10022a85 f i umodsys_lib_libui:umodsys.mod.ui.frames.obj
 0001:00021ac6       ??$genx_node@UCmp@?$TScatterArray@U?$TVector4@M@math3d@UModSys@@HU?$TScalarCompare@H@core@3@U?$TNodeDeleter0@U?$TScatterArrayNode@U?$TVector4@M@math3d@UModSys@@H@tl@UModSys@@@tl@3@@tl@UModSys@@UGen0@234@@?$TTreeHoldRBD@U?$TScatterArrayNode@U?$TVector4@M@math3d@UModSys@@H@tl@UModSys@@U?$TNodeDeleter0@U?$TScatterArrayNode@U?$TVector4@M@math3d@UModSys@@H@tl@UModSys@@@23@@tl@UModSys@@QAEPAU?$TScatterArrayNode@U?$TVector4@M@math3d@UModSys@@H@12@UCmp@?$TScatterArray@U?$TVector4@M@math3d@UModSys@@HU?$TScalarCompare@H@core@3@U?$TNodeDeleter0@U?$TScatterArrayNode@U?$TVector4@M@math3d@UModSys@@H@tl@UModSys@@@tl@3@@12@ABUGen0@512@PAPAU312@2_N@Z 10022ac6 f i umodsys_lib_libui:umodsys.mod.ui.frames.obj
 0001:00021b61       ??$genx_node@UCmp@?$TScatterArray@U?$TVector2@M@math3d@UModSys@@HU?$TScalarCompare@H@core@3@U?$TNodeDeleter0@U?$TScatterArrayNode@U?$TVector2@M@math3d@UModSys@@H@tl@UModSys@@@tl@3@@tl@UModSys@@UGen0@234@@?$TTreeHoldRBD@U?$TScatterArrayNode@U?$TVector2@M@math3d@UModSys@@H@tl@UModSys@@U?$TNodeDeleter0@U?$TScatterArrayNode@U?$TVector2@M@math3d@UModSys@@H@tl@UModSys@@@23@@tl@UModSys@@QAEPAU?$TScatterArrayNode@U?$TVector2@M@math3d@UModSys@@H@12@UCmp@?$TScatterArray@U?$TVector2@M@math3d@UModSys@@HU?$TScalarCompare@H@core@3@U?$TNodeDeleter0@U?$TScatterArrayNode@U?$TVector2@M@math3d@UModSys@@H@tl@UModSys@@@tl@3@@12@ABUGen0@512@PAPAU312@2_N@Z 10022b61 f i umodsys_lib_libui:umodsys.mod.ui.frames.obj
 0001:00021bfe       ??$genx_node@UCmp@?$TScatterArray@HHU?$TScalarCompare@H@core@UModSys@@U?$TNodeDeleter0@U?$TScatterArrayNode@HH@tl@UModSys@@@tl@3@@tl@UModSys@@UGen0@234@@?$TTreeHoldRBD@U?$TScatterArrayNode@HH@tl@UModSys@@U?$TNodeDeleter0@U?$TScatterArrayNode@HH@tl@UModSys@@@23@@tl@UModSys@@QAEPAU?$TScatterArrayNode@HH@12@UCmp@?$TScatterArray@HHU?$TScalarCompare@H@core@UModSys@@U?$TNodeDeleter0@U?$TScatterArrayNode@HH@tl@UModSys@@@tl@3@@12@ABUGen0@512@PAPAU312@2_N@Z 10022bfe f i umodsys_lib_libui:umodsys.mod.ui.frames.obj
 0001:00021c91       ?sub_insert_node@?$TTreeHoldRB@U?$TScatterArrayNode@UGlyph@RMultiImage2D_SDL_ttf@SDL_GL@ui@modules@UModSys@@H@tl@UModSys@@@tl@UModSys@@QAEXPAU?$TScatterArrayNode@UGlyph@RMultiImage2D_SDL_ttf@SDL_GL@ui@modules@UModSys@@H@23@0H@Z 10022c91 f i umodsys_lib_libui:umodsys.mod.ui.SDL_GL.obj
 0001:00021c91       ?sub_insert_node@?$TTreeHoldRB@U?$TScatterArrayNode@U?$TRefObjectCompositeExtra@UIMouseClient@libui@UModSys@@HUIRefObject@core@3@U?$TRefObjectFunc@UIRefObject@core@UModSys@@@tl@3@@tl@UModSys@@H@tl@UModSys@@@tl@UModSys@@QAEXPAU?$TScatterArrayNode@U?$TRefObjectCompositeExtra@UIMouseClient@libui@UModSys@@HUIRefObject@core@3@U?$TRefObjectFunc@UIRefObject@core@UModSys@@@tl@3@@tl@UModSys@@H@23@0H@Z 10022c91 f i umodsys_lib_libui:umodsys.mod.ui.SDL_GL.obj
 0001:00021c91       ?sub_insert_node@?$TTreeHoldRB@U?$TScatterArrayNode@UGlyph@RMultiImage2D_SDL_ttf@SDL_core@ui@modules@UModSys@@H@tl@UModSys@@@tl@UModSys@@QAEXPAU?$TScatterArrayNode@UGlyph@RMultiImage2D_SDL_ttf@SDL_core@ui@modules@UModSys@@H@23@0H@Z 10022c91 f i umodsys_lib_libui:umodsys.mod.ui.SDL_core.obj
 0001:00021c91       ?sub_insert_node@?$TTreeHoldRB@U?$TScatterArrayNode@U?$TVector2@M@math3d@UModSys@@H@tl@UModSys@@@tl@UModSys@@QAEXPAU?$TScatterArrayNode@U?$TVector2@M@math3d@UModSys@@H@23@0H@Z 10022c91 f i umodsys_lib_libui:umodsys.mod.ui.frames.obj
 0001:00021c91       ?sub_insert_node@?$TTreeHoldRB@U?$TScatterArrayNode@U?$TVector4@M@math3d@UModSys@@H@tl@UModSys@@@tl@UModSys@@QAEXPAU?$TScatterArrayNode@U?$TVector4@M@math3d@UModSys@@H@23@0H@Z 10022c91 f i umodsys_lib_libui:umodsys.mod.ui.frames.obj
 0001:00021c91       ?sub_insert_node@?$TTreeHoldRB@U?$TScatterArrayNode@U?$TRefObjectComposite@UIKeyboardClient@libui@UModSys@@UIRefObject@core@3@U?$TRefObjectFunc@UIRefObject@core@UModSys@@@tl@3@@tl@UModSys@@H@tl@UModSys@@@tl@UModSys@@QAEXPAU?$TScatterArrayNode@U?$TRefObjectComposite@UIKeyboardClient@libui@UModSys@@UIRefObject@core@3@U?$TRefObjectFunc@UIRefObject@core@UModSys@@@tl@3@@tl@UModSys@@H@23@0H@Z 10022c91 f i umodsys_lib_libui:umodsys.mod.ui.SDL_GL.obj
 0001:00021c91       ?sub_insert_node@?$TTreeHoldRB@U?$TScatterArrayNode@HH@tl@UModSys@@@tl@UModSys@@QAEXPAU?$TScatterArrayNode@HH@23@0H@Z 10022c91 f i umodsys_lib_libui:umodsys.mod.ui.frames.obj
 0001:00021cdf       ?insert_color@?$TTreeHoldRB@U?$TScatterArrayNode@HH@tl@UModSys@@@tl@UModSys@@IAEXPAU?$TScatterArrayNode@HH@23@@Z 10022cdf f i umodsys_lib_libui:umodsys.mod.ui.frames.obj
 0001:00021cdf       ?insert_color@?$TTreeHoldRB@U?$TScatterArrayNode@U?$TRefObjectCompositeExtra@UIMouseClient@libui@UModSys@@HUIRefObject@core@3@U?$TRefObjectFunc@UIRefObject@core@UModSys@@@tl@3@@tl@UModSys@@H@tl@UModSys@@@tl@UModSys@@IAEXPAU?$TScatterArrayNode@U?$TRefObjectCompositeExtra@UIMouseClient@libui@UModSys@@HUIRefObject@core@3@U?$TRefObjectFunc@UIRefObject@core@UModSys@@@tl@3@@tl@UModSys@@H@23@@Z 10022cdf f i umodsys_lib_libui:umodsys.mod.ui.SDL_GL.obj
 0001:00021cdf       ?insert_color@?$TTreeHoldRB@U?$TScatterArrayNode@U?$TVector2@M@math3d@UModSys@@H@tl@UModSys@@@tl@UModSys@@IAEXPAU?$TScatterArrayNode@U?$TVector2@M@math3d@UModSys@@H@23@@Z 10022cdf f i umodsys_lib_libui:umodsys.mod.ui.frames.obj
 0001:00021cdf       ?insert_color@?$TTreeHoldRB@U?$TScatterArrayNode@UGlyph@RMultiImage2D_SDL_ttf@SDL_core@ui@modules@UModSys@@H@tl@UModSys@@@tl@UModSys@@IAEXPAU?$TScatterArrayNode@UGlyph@RMultiImage2D_SDL_ttf@SDL_core@ui@modules@UModSys@@H@23@@Z 10022cdf f i umodsys_lib_libui:umodsys.mod.ui.SDL_core.obj
 0001:00021cdf       ?insert_color@?$TTreeHoldRB@U?$TScatterArrayNode@U?$TVector4@M@math3d@UModSys@@H@tl@UModSys@@@tl@UModSys@@IAEXPAU?$TScatterArrayNode@U?$TVector4@M@math3d@UModSys@@H@23@@Z 10022cdf f i umodsys_lib_libui:umodsys.mod.ui.frames.obj
 0001:00021cdf       ?insert_color@?$TTreeHoldRB@U?$TScatterArrayNode@UGlyph@RMultiImage2D_SDL_ttf@SDL_GL@ui@modules@UModSys@@H@tl@UModSys@@@tl@UModSys@@IAEXPAU?$TScatterArrayNode@UGlyph@RMultiImage2D_SDL_ttf@SDL_GL@ui@modules@UModSys@@H@23@@Z 10022cdf f i umodsys_lib_libui:umodsys.mod.ui.SDL_GL.obj
 0001:00021cdf       ?insert_color@?$TTreeHoldRB@U?$TScatterArrayNode@U?$TRefObjectComposite@UIKeyboardClient@libui@UModSys@@UIRefObject@core@3@U?$TRefObjectFunc@UIRefObject@core@UModSys@@@tl@3@@tl@UModSys@@H@tl@UModSys@@@tl@UModSys@@IAEXPAU?$TScatterArrayNode@U?$TRefObjectComposite@UIKeyboardClient@libui@UModSys@@UIRefObject@core@3@U?$TRefObjectFunc@UIRefObject@core@UModSys@@@tl@3@@tl@UModSys@@H@23@@Z 10022cdf f i umodsys_lib_libui:umodsys.mod.ui.SDL_GL.obj
 0001:00021d8d       ?rotate_left@?$TTreeHoldRB@U?$TScatterArrayNode@U?$TRefObjectComposite@UIKeyboardClient@libui@UModSys@@UIRefObject@core@3@U?$TRefObjectFunc@UIRefObject@core@UModSys@@@tl@3@@tl@UModSys@@H@tl@UModSys@@@tl@UModSys@@IAEXPAU?$TScatterArrayNode@U?$TRefObjectComposite@UIKeyboardClient@libui@UModSys@@UIRefObject@core@3@U?$TRefObjectFunc@UIRefObject@core@UModSys@@@tl@3@@tl@UModSys@@H@23@@Z 10022d8d f i umodsys_lib_libui:umodsys.mod.ui.SDL_GL.obj
 0001:00021d8d       ?rotate_left@?$TTreeHoldRB@U?$TScatterArrayNode@U?$TRefObjectCompositeExtra@UIMouseClient@libui@UModSys@@HUIRefObject@core@3@U?$TRefObjectFunc@UIRefObject@core@UModSys@@@tl@3@@tl@UModSys@@H@tl@UModSys@@@tl@UModSys@@IAEXPAU?$TScatterArrayNode@U?$TRefObjectCompositeExtra@UIMouseClient@libui@UModSys@@HUIRefObject@core@3@U?$TRefObjectFunc@UIRefObject@core@UModSys@@@tl@3@@tl@UModSys@@H@23@@Z 10022d8d f i umodsys_lib_libui:umodsys.mod.ui.SDL_GL.obj
 0001:00021d8d       ?rotate_left@?$TTreeHoldRB@U?$TScatterArrayNode@HH@tl@UModSys@@@tl@UModSys@@IAEXPAU?$TScatterArrayNode@HH@23@@Z 10022d8d f i umodsys_lib_libui:umodsys.mod.ui.frames.obj
 0001:00021d8d       ?rotate_left@?$TTreeHoldRB@U?$TScatterArrayNode@UGlyph@RMultiImage2D_SDL_ttf@SDL_GL@ui@modules@UModSys@@H@tl@UModSys@@@tl@UModSys@@IAEXPAU?$TScatterArrayNode@UGlyph@RMultiImage2D_SDL_ttf@SDL_GL@ui@modules@UModSys@@H@23@@Z 10022d8d f i umodsys_lib_libui:umodsys.mod.ui.SDL_GL.obj
 0001:00021d8d       ?rotate_left@?$TTreeHoldRB@U?$TScatterArrayNode@U?$TVector4@M@math3d@UModSys@@H@tl@UModSys@@@tl@UModSys@@IAEXPAU?$TScatterArrayNode@U?$TVector4@M@math3d@UModSys@@H@23@@Z 10022d8d f i umodsys_lib_libui:umodsys.mod.ui.frames.obj
 0001:00021d8d       ?rotate_left@?$TTreeHoldRB@U?$TScatterArrayNode@UGlyph@RMultiImage2D_SDL_ttf@SDL_core@ui@modules@UModSys@@H@tl@UModSys@@@tl@UModSys@@IAEXPAU?$TScatterArrayNode@UGlyph@RMultiImage2D_SDL_ttf@SDL_core@ui@modules@UModSys@@H@23@@Z 10022d8d f i umodsys_lib_libui:umodsys.mod.ui.SDL_core.obj
 0001:00021d8d       ?rotate_left@?$TTreeHoldRB@U?$TScatterArrayNode@U?$TVector2@M@math3d@UModSys@@H@tl@UModSys@@@tl@UModSys@@IAEXPAU?$TScatterArrayNode@U?$TVector2@M@math3d@UModSys@@H@23@@Z 10022d8d f i umodsys_lib_libui:umodsys.mod.ui.frames.obj
 0001:00021dcc       ?rotate_right@?$TTreeHoldRB@U?$TScatterArrayNode@HH@tl@UModSys@@@tl@UModSys@@IAEXPAU?$TScatterArrayNode@HH@23@@Z 10022dcc f i umodsys_lib_libui:umodsys.mod.ui.frames.obj
 0001:00021dcc       ?rotate_right@?$TTreeHoldRB@U?$TScatterArrayNode@U?$TVector2@M@math3d@UModSys@@H@tl@UModSys@@@tl@UModSys@@IAEXPAU?$TScatterArrayNode@U?$TVector2@M@math3d@UModSys@@H@23@@Z 10022dcc f i umodsys_lib_libui:umodsys.mod.ui.frames.obj
 0001:00021dcc       ?rotate_right@?$TTreeHoldRB@U?$TScatterArrayNode@UGlyph@RMultiImage2D_SDL_ttf@SDL_core@ui@modules@UModSys@@H@tl@UModSys@@@tl@UModSys@@IAEXPAU?$TScatterArrayNode@UGlyph@RMultiImage2D_SDL_ttf@SDL_core@ui@modules@UModSys@@H@23@@Z 10022dcc f i umodsys_lib_libui:umodsys.mod.ui.SDL_core.obj
 0001:00021dcc       ?rotate_right@?$TTreeHoldRB@U?$TScatterArrayNode@U?$TRefObjectCompositeExtra@UIMouseClient@libui@UModSys@@HUIRefObject@core@3@U?$TRefObjectFunc@UIRefObject@core@UModSys@@@tl@3@@tl@UModSys@@H@tl@UModSys@@@tl@UModSys@@IAEXPAU?$TScatterArrayNode@U?$TRefObjectCompositeExtra@UIMouseClient@libui@UModSys@@HUIRefObject@core@3@U?$TRefObjectFunc@UIRefObject@core@UModSys@@@tl@3@@tl@UModSys@@H@23@@Z 10022dcc f i umodsys_lib_libui:umodsys.mod.ui.SDL_GL.obj
 0001:00021dcc       ?rotate_right@?$TTreeHoldRB@U?$TScatterArrayNode@UGlyph@RMultiImage2D_SDL_ttf@SDL_GL@ui@modules@UModSys@@H@tl@UModSys@@@tl@UModSys@@IAEXPAU?$TScatterArrayNode@UGlyph@RMultiImage2D_SDL_ttf@SDL_GL@ui@modules@UModSys@@H@23@@Z 10022dcc f i umodsys_lib_libui:umodsys.mod.ui.SDL_GL.obj
 0001:00021dcc       ?rotate_right@?$TTreeHoldRB@U?$TScatterArrayNode@U?$TRefObjectComposite@UIKeyboardClient@libui@UModSys@@UIRefObject@core@3@U?$TRefObjectFunc@UIRefObject@core@UModSys@@@tl@3@@tl@UModSys@@H@tl@UModSys@@@tl@UModSys@@IAEXPAU?$TScatterArrayNode@U?$TRefObjectComposite@UIKeyboardClient@libui@UModSys@@UIRefObject@core@3@U?$TRefObjectFunc@UIRefObject@core@UModSys@@@tl@3@@tl@UModSys@@H@23@@Z 10022dcc f i umodsys_lib_libui:umodsys.mod.ui.SDL_GL.obj
 0001:00021dcc       ?rotate_right@?$TTreeHoldRB@U?$TScatterArrayNode@U?$TVector4@M@math3d@UModSys@@H@tl@UModSys@@@tl@UModSys@@IAEXPAU?$TScatterArrayNode@U?$TVector4@M@math3d@UModSys@@H@23@@Z 10022dcc f i umodsys_lib_libui:umodsys.mod.ui.frames.obj
 0001:00021e0b       ??0SParameters@core@UModSys@@QAE@H@Z 10022e0b f i umodsys_lib_libmedia:umodsys.mod.media.images_std.obj
 0001:00021e36       ?is_extension_nocase@libmedia@UModSys@@YA_NABU?$TString@U?$TSCoreConst@D@su@tl@UModSys@@U?$TComparerBinaryHash@D@234@@tl@2@0@Z 10022e36 f i umodsys_lib_libmedia:umodsys.mod.media.images_std.obj
 0001:00021e95       ?root_get_interface_info@RMediaFilter@images_std@media@modules@UModSys@@UBEABUSUniquePointerInfo@core@5@XZ 10022e95 f i umodsys_lib_libmedia:umodsys.mod.media.images_std.obj
 0001:00021e9b       ?root_get_interface_type@RMediaFilter@images_std@media@modules@UModSys@@UBEPBUSUniquePointerInfo@core@5@XZ 10022e9b f i umodsys_lib_libmedia:umodsys.mod.media.images_std.obj
 0001:00021ea1       ?root_get_other_interface@RMediaFilter@images_std@media@modules@UModSys@@UAEPAUIRoot@core@5@PBUSUniquePointerInfo@75@@Z 10022ea1 f i umodsys_lib_libmedia:umodsys.mod.media.images_std.obj
 0001:00021ea1       ?root_get_other_interface@RMediaFilter@images_std@media@modules@UModSys@@UBEPBUIRoot@core@5@PBUSUniquePointerInfo@75@@Z 10022ea1 f i umodsys_lib_libmedia:umodsys.mod.media.images_std.obj
 0001:00021eca       ?root_is_interface_supported@RMediaFilter@images_std@media@modules@UModSys@@UBE_NPBUSUniquePointerInfo@core@5@@Z 10022eca f i umodsys_lib_libmedia:umodsys.mod.media.images_std.obj
 0001:00021ee9       ?ref_add@RMediaFilter@images_std@media@modules@UModSys@@UBEXXZ 10022ee9 f i umodsys_lib_libmedia:umodsys.mod.media.images_std.obj
 0001:00021eed       ?ref_remove@RMediaFilter@images_std@media@modules@UModSys@@UBEXXZ 10022eed f i umodsys_lib_libmedia:umodsys.mod.media.images_std.obj
 0001:00021ef8       ?ref_links@RMediaFilter@images_std@media@modules@UModSys@@UBEHXZ 10022ef8 f i umodsys_lib_libmedia:umodsys.mod.media.images_std.obj
 0001:00021efc       ?ref_weak@RMediaFilter@images_std@media@modules@UModSys@@UBE_NAAUWeakPointer@IRefObject@core@5@@Z 10022efc f i umodsys_lib_libmedia:umodsys.mod.media.images_std.obj
 0001:00021f1b       ?suicide@RMediaFilter@images_std@media@modules@UModSys@@UAEXXZ 10022f1b f i umodsys_lib_libmedia:umodsys.mod.media.images_std.obj
 0001:00021f58       ?get_flag@RMediaFilter@images_std@media@modules@UModSys@@UBE?AW4eStates@?$TFlags4State@USMediaFlagUid@libmedia@UModSys@@I@tl@5@H@Z 10022f58 f i umodsys_lib_libmedia:umodsys.mod.media.images_std.obj
 0001:00021f6b       ?get_flags_auto@RMediaFilter@images_std@media@modules@UModSys@@UBE?AU?$TFlags4State@USMediaFlagUid@libmedia@UModSys@@I@tl@5@XZ 10022f6b f i umodsys_lib_libmedia:umodsys.mod.media.images_std.obj
 0001:00021f7a       ?set_flag@RMediaFilter@images_std@media@modules@UModSys@@UAE?AW4eStates@?$TFlags4State@USMediaFlagUid@libmedia@UModSys@@I@tl@5@HW46785@@Z 10022f7a f i umodsys_lib_libmedia:umodsys.mod.media.images_std.obj
 0001:00021fa7       ??0RMediaFilter@images_std@media@modules@UModSys@@QAE@PAUIModObject@base@4@ABUSParameters@core@4@@Z 10022fa7 f i umodsys_lib_libmedia:umodsys.mod.media.images_std.obj
 0001:00022019       ??_GRMediaFilter@images_std@media@modules@UModSys@@UAEPAXI@Z 10023019 f i umodsys_lib_libmedia:umodsys.mod.media.images_std.obj
 0001:00022019       ??_ERMediaFilter@images_std@media@modules@UModSys@@UAEPAXI@Z 10023019 f i  CIL library: CIL module
 0001:00022088       ?filter_load@RMediaFilter@images_std@media@modules@UModSys@@UAE_NABUSInfo@IBinObjFilter@libmedia@5@PAUIRefObject@core@5@@Z 10023088 f   umodsys_lib_libmedia:umodsys.mod.media.images_std.obj
 0001:00022251       ?filter_save@RMediaFilter@images_std@media@modules@UModSys@@UAE_NAAUSInfo@IBinObjFilter@libmedia@5@PBUIRefObject@core@5@@Z 10023251 f   umodsys_lib_libmedia:umodsys.mod.media.images_std.obj
 0001:000223e3       ?controller_update@RFrame_Common@frames@ui@modules@UModSys@@UAE_NXZ 100233e3 f   umodsys_lib_libui:umodsys.mod.ui.frames.obj
 0001:000223fb       ?loader_jpeg@RMediaFilter@images_std@media@modules@UModSys@@QAE_NPAUIImage@lib2d@5@ABUSInfo@IBinObjFilter@libmedia@5@ABUSParameters@core@5@HPBD_N@Z 100233fb f   umodsys_lib_libmedia:umodsys.mod.media.images_std.obj
 0001:00022678       ?png_err@RMediaFilter@images_std@media@modules@UModSys@@KAXPAUpng_struct_def@@PBD@Z 10023678 f   umodsys_lib_libmedia:umodsys.mod.media.images_std.obj
 0001:0002269a       ?png_read@RMediaFilter@images_std@media@modules@UModSys@@KAXPAUpng_struct_def@@PAEI@Z 1002369a f   umodsys_lib_libmedia:umodsys.mod.media.images_std.obj
 0001:000226d6       ?png_write@RMediaFilter@images_std@media@modules@UModSys@@KAXPAUpng_struct_def@@PAEI@Z 100236d6 f   umodsys_lib_libmedia:umodsys.mod.media.images_std.obj
 0001:00022712       ?loader_png@RMediaFilter@images_std@media@modules@UModSys@@QAE_NPAUIImage@lib2d@5@ABUSInfo@IBinObjFilter@libmedia@5@ABUSParameters@core@5@HPBD_N@Z 10023712 f   umodsys_lib_libmedia:umodsys.mod.media.images_std.obj
 0001:000229bc       ?saver_png@RMediaFilter@images_std@media@modules@UModSys@@QAE_NPBUIImage@lib2d@5@AAUSInfo@IBinObjFilter@libmedia@5@ABUSParameters@core@5@PBD_N@Z 100239bc f   umodsys_lib_libmedia:umodsys.mod.media.images_std.obj
 0001:00022c71       ?get_generated_names@RGenerator@images_std@media@modules@UModSys@@UBEHAAUSUniquePtrList@core@5@@Z 10023c71 f i umodsys_lib_libmedia:umodsys.mod.media.images_std.obj
 0001:00022c8a       ?get_generated_types@RGenerator@images_std@media@modules@UModSys@@UBEHAAUSUniquePtrList@core@5@PBUSUniquePointerInfo@75@@Z 10023c8a f i umodsys_lib_libmedia:umodsys.mod.media.images_std.obj
 0001:00022cc8       ?generate@RGenerator@images_std@media@modules@UModSys@@UAE_NAAU?$TRefObject@UIRefObject@core@UModSys@@U?$TRefObjectFunc@UIRefObject@core@UModSys@@@tl@3@@tl@5@PBUSUniquePointerInfo@core@5@ABUSParameters@95@@Z 10023cc8 f i umodsys_lib_libmedia:umodsys.mod.media.images_std.obj
 0001:00022ce9       ?root_get_interface_info@RGenerator@images_std@media@modules@UModSys@@UBEABUSUniquePointerInfo@core@5@XZ 10023ce9 f i umodsys_lib_libmedia:umodsys.mod.media.images_std.obj
 0001:00022cef       ?root_get_interface_type@RGenerator@images_std@media@modules@UModSys@@UBEPBUSUniquePointerInfo@core@5@XZ 10023cef f i umodsys_lib_libmedia:umodsys.mod.media.images_std.obj
 0001:00022cf5       ?root_get_interface_types@RFrame_Frame@frames@ui@modules@UModSys@@UBEIAAUSUniquePtrList@core@5@@Z 10023cf5 f i umodsys_lib_libui:umodsys.mod.ui.frames.obj
 0001:00022cf5       ?root_get_interface_types@RCollector@frames@ui@modules@UModSys@@UBEIAAUSUniquePtrList@core@5@@Z 10023cf5 f i umodsys_lib_libui:umodsys.mod.ui.frames.obj
 0001:00022cf5       ?root_get_interface_types@RRenderDriver2D@SDL_core@ui@modules@UModSys@@UBEIAAUSUniquePtrList@core@5@@Z 10023cf5 f i umodsys_lib_libui:umodsys.mod.ui.SDL_core.obj
 0001:00022cf5       ?root_get_interface_types@RFrame_Image@frames@ui@modules@UModSys@@UBEIAAUSUniquePtrList@core@5@@Z 10023cf5 f i umodsys_lib_libui:umodsys.mod.ui.frames.obj
 0001:00022cf5       ?root_get_interface_types@RGenerator@serialize_json@media@modules@UModSys@@UBEIAAUSUniquePtrList@core@5@@Z 10023cf5 f i umodsys_lib_libmedia:umodsys.mod.media.serialize_json.obj
 0001:00022cf5       ?root_get_interface_types@RMultiImage2D_SDL_ttf@SDL_GL@ui@modules@UModSys@@UBEIAAUSUniquePtrList@core@5@@Z 10023cf5 f i umodsys_lib_libui:umodsys.mod.ui.SDL_GL.obj
 0001:00022cf5       ?root_get_interface_types@RVertexArray@SDL_GL@ui@modules@UModSys@@UBEIAAUSUniquePtrList@core@5@@Z 10023cf5 f i umodsys_lib_libui:umodsys.mod.ui.SDL_GL.obj
 0001:00022cf5       ?root_get_interface_types@RMouseController@SDL_GL@ui@modules@UModSys@@UBEIAAUSUniquePtrList@core@5@@Z 10023cf5 f i umodsys_lib_libui:umodsys.mod.ui.SDL_GL.obj
 0001:00022cf5       ?root_get_interface_types@RKeyboardController@SDL_GL@ui@modules@UModSys@@UBEIAAUSUniquePtrList@core@5@@Z 10023cf5 f i umodsys_lib_libui:umodsys.mod.ui.SDL_GL.obj
 0001:00022cf5       ?root_get_interface_types@RGenerator@zlib@media@modules@UModSys@@UBEIAAUSUniquePtrList@core@5@@Z 10023cf5 f i umodsys_lib_libmedia:umodsys.mod.media.zlib.obj
 0001:00022cf5       ?root_get_interface_types@RSerializeReader@serialize_json@media@modules@UModSys@@UBEIAAUSUniquePtrList@core@5@@Z 10023cf5 f i umodsys_lib_libmedia:umodsys.mod.media.serialize_json.obj
 0001:00022cf5       ?root_get_interface_types@RDialog@frames@ui@modules@UModSys@@UBEIAAUSUniquePtrList@core@5@@Z 10023cf5 f i umodsys_lib_libui:umodsys.mod.ui.frames.obj
 0001:00022cf5       ?root_get_interface_types@RMultiImage2D_SDL_ttf@SDL_core@ui@modules@UModSys@@UBEIAAUSUniquePtrList@core@5@@Z 10023cf5 f i umodsys_lib_libui:umodsys.mod.ui.SDL_core.obj
 0001:00022cf5       ?root_get_interface_types@RFrame_Text@frames@ui@modules@UModSys@@UBEIAAUSUniquePtrList@core@5@@Z 10023cf5 f i umodsys_lib_libui:umodsys.mod.ui.frames.obj
 0001:00022cf5       ?root_get_interface_types@RGenerator@stdlib@lib2d@modules@UModSys@@UBEIAAUSUniquePtrList@core@5@@Z 10023cf5 f i umodsys_lib_lib2d:umodsys.mod.2d.stdlib.obj
 0001:00022cf5       ?root_get_interface_types@RGenerator@SDL_GL@ui@modules@UModSys@@UBEIAAUSUniquePtrList@core@5@@Z 10023cf5 f i umodsys_lib_libui:umodsys.mod.ui.SDL_GL.obj
 0001:00022cf5       ?root_get_interface_types@RGenerator@SDL_core@ui@modules@UModSys@@UBEIAAUSUniquePtrList@core@5@@Z 10023cf5 f i umodsys_lib_libui:umodsys.mod.ui.SDL_core.obj
 0001:00022cf5       ?root_get_interface_types@RImage_Memory@stdlib@lib2d@modules@UModSys@@UBEIAAUSUniquePtrList@core@5@@Z 10023cf5 f i umodsys_lib_lib2d:umodsys.mod.2d.stdlib.obj
 0001:00022cf5       ?root_get_interface_types@RMouseController@SDL_core@ui@modules@UModSys@@UBEIAAUSUniquePtrList@core@5@@Z 10023cf5 f i umodsys_lib_libui:umodsys.mod.ui.SDL_core.obj
 0001:00022cf5       ?root_get_interface_types@RKeyboardController@SDL_core@ui@modules@UModSys@@UBEIAAUSUniquePtrList@core@5@@Z 10023cf5 f i umodsys_lib_libui:umodsys.mod.ui.SDL_core.obj
 0001:00022cf5       ?root_get_interface_types@RMultiImage@stdlib@lib2d@modules@UModSys@@UBEIAAUSUniquePtrList@core@5@@Z 10023cf5 f i umodsys_lib_lib2d:umodsys.mod.2d.stdlib.obj
 0001:00022cf5       ?root_get_interface_types@RTerminal@SDL_core@ui@modules@UModSys@@UBEIAAUSUniquePtrList@core@5@@Z 10023cf5 f i umodsys_lib_libui:umodsys.mod.ui.SDL_core.obj
 0001:00022cf5       ?root_get_interface_types@RTerminalX@SDL_GL@ui@modules@UModSys@@UBEIAAUSUniquePtrList@core@5@@Z 10023cf5 f i umodsys_lib_libui:umodsys.mod.ui.SDL_GL.obj
 0001:00022cf5       ?root_get_interface_types@RImageFactory_Memory@stdlib@lib2d@modules@UModSys@@UBEIAAUSUniquePtrList@core@5@@Z 10023cf5 f i umodsys_lib_lib2d:umodsys.mod.2d.stdlib.obj
 0001:00022cf5       ?root_get_interface_types@RTerminalX@SDL_core@ui@modules@UModSys@@UBEIAAUSUniquePtrList@core@5@@Z 10023cf5 f i umodsys_lib_libui:umodsys.mod.ui.SDL_core.obj
 0001:00022cf5       ?root_get_interface_types@RFrame_Button@frames@ui@modules@UModSys@@UBEIAAUSUniquePtrList@core@5@@Z 10023cf5 f i umodsys_lib_libui:umodsys.mod.ui.frames.obj
 0001:00022cf5       ?root_get_interface_types@RMediaFilter@images_std@media@modules@UModSys@@UBEIAAUSUniquePtrList@core@5@@Z 10023cf5 f i umodsys_lib_libmedia:umodsys.mod.media.images_std.obj
 0001:00022cf5       ?root_get_interface_types@RFrame_Edit@frames@ui@modules@UModSys@@UBEIAAUSUniquePtrList@core@5@@Z 10023cf5 f i umodsys_lib_libui:umodsys.mod.ui.frames.obj
 0001:00022cf5       ?root_get_interface_types@RTerminal@SDL_GL@ui@modules@UModSys@@UBEIAAUSUniquePtrList@core@5@@Z 10023cf5 f i umodsys_lib_libui:umodsys.mod.ui.SDL_GL.obj
 0001:00022cf5       ?root_get_interface_types@RGenerator@images_std@media@modules@UModSys@@UBEIAAUSUniquePtrList@core@5@@Z 10023cf5 f i umodsys_lib_libmedia:umodsys.mod.media.images_std.obj
 0001:00022cf5       ?root_get_interface_types@RGenerator@frames@ui@modules@UModSys@@UBEIAAUSUniquePtrList@core@5@@Z 10023cf5 f i umodsys_lib_libui:umodsys.mod.ui.frames.obj
 0001:00022cf5       ?root_get_interface_types@RBinArchiveFrameClient_ZIP@zlib@media@modules@UModSys@@UBEIAAUSUniquePtrList@core@5@@Z 10023cf5 f i umodsys_lib_libmedia:umodsys.mod.media.zlib.obj
 0001:00022cf5       ?root_get_interface_types@RGenerator@test1@test@modules@UModSys@@UBEIAAUSUniquePtrList@core@5@@Z 10023cf5 f i plugin_test1.obj
 0001:00022cf5       ?root_get_interface_types@RTest1_Shell@test1@test@modules@UModSys@@UBEIAAUSUniquePtrList@core@5@@Z 10023cf5 f i plugin_test1.obj
 0001:00022cf5       ?root_get_interface_types@RRenderDriver3D@SDL_GL@ui@modules@UModSys@@UBEIAAUSUniquePtrList@core@5@@Z 10023cf5 f i umodsys_lib_libui:umodsys.mod.ui.SDL_GL.obj
 0001:00022cf5       ?root_get_interface_types@RSerializeWriter@serialize_json@media@modules@UModSys@@UBEIAAUSUniquePtrList@core@5@@Z 10023cf5 f i umodsys_lib_libmedia:umodsys.mod.media.serialize_json.obj
 0001:00022cf5       ?root_get_interface_types@RFrame_List@frames@ui@modules@UModSys@@UBEIAAUSUniquePtrList@core@5@@Z 10023cf5 f i umodsys_lib_libui:umodsys.mod.ui.frames.obj
 0001:00022cfa       ?root_get_other_interface@RGenerator@images_std@media@modules@UModSys@@UBEPBUIRoot@core@5@PBUSUniquePointerInfo@75@@Z 10023cfa f i umodsys_lib_libmedia:umodsys.mod.media.images_std.obj
 0001:00022cfa       ?root_get_other_interface@RGenerator@images_std@media@modules@UModSys@@UAEPAUIRoot@core@5@PBUSUniquePointerInfo@75@@Z 10023cfa f i umodsys_lib_libmedia:umodsys.mod.media.images_std.obj
 0001:00022d13       ?root_is_interface_supported@RGenerator@images_std@media@modules@UModSys@@UBE_NPBUSUniquePointerInfo@core@5@@Z 10023d13 f i umodsys_lib_libmedia:umodsys.mod.media.images_std.obj
 0001:00022d32       ?get_uid@RGenerator@images_std@media@modules@UModSys@@UBEPBUSUniquePointerInfo@core@5@XZ 10023d32 f i umodsys_lib_libmedia:umodsys.mod.media.images_std.obj
 0001:00022d38       ?do_open@RModuleReg@images_std@media@modules@UModSys@@UAE_NXZ 10023d38 f i umodsys_lib_libmedia:umodsys.mod.media.images_std.obj
 0001:00022d86       ?do_close@RModuleReg@images_std@media@modules@UModSys@@UAE_NXZ 10023d86 f i umodsys_lib_libmedia:umodsys.mod.media.images_std.obj
 0001:00022dc1       ?get_module@RGenerator@images_std@media@modules@UModSys@@UBEPAUIModule@base@5@XZ 10023dc1 f   umodsys_lib_libmedia:umodsys.mod.media.images_std.obj
 0001:00022dc7       ?mod_inc@RGenerator@images_std@media@modules@UModSys@@UBE_NXZ 10023dc7 f   umodsys_lib_libmedia:umodsys.mod.media.images_std.obj
 0001:00022dd2       ?mod_dec@RGenerator@images_std@media@modules@UModSys@@UBE_NXZ 10023dd2 f   umodsys_lib_libmedia:umodsys.mod.media.images_std.obj
 0001:00022ddd       ?s_holder@RGenerator@images_std@media@modules@UModSys@@SAAAU?$TTypeStaticHolder@URGenerator@images_std@media@modules@UModSys@@@tl@5@XZ 10023ddd f   umodsys_lib_libmedia:umodsys.mod.media.images_std.obj
 0001:00022e0f       ??$t_gen_param@URMediaFilter@images_std@media@modules@UModSys@@URGenerator@2345@@IGenerator@base@UModSys@@IAE_NPAURGenerator@images_std@media@modules@2@AAU?$TRefObject@UIRefObject@core@UModSys@@U?$TRefObjectFunc@UIRefObject@core@UModSys@@@tl@3@@tl@2@PBUSUniquePointerInfo@core@2@ABUSParameters@core@2@@Z 10023e0f f i umodsys_lib_libmedia:umodsys.mod.media.images_std.obj
 0001:00022ea1       ?init_escapes@serialize_json@media@modules@UModSys@@YAXXZ 10023ea1 f i umodsys_lib_libmedia:umodsys.mod.media.serialize_json.obj
 0001:00022f75       ?root_get_interface_info@RSerializeReader@serialize_json@media@modules@UModSys@@UBEABUSUniquePointerInfo@core@5@XZ 10023f75 f i umodsys_lib_libmedia:umodsys.mod.media.serialize_json.obj
 0001:00022f7b       ?root_get_interface_type@RSerializeReader@serialize_json@media@modules@UModSys@@UBEPBUSUniquePointerInfo@core@5@XZ 10023f7b f i umodsys_lib_libmedia:umodsys.mod.media.serialize_json.obj
 0001:00022f81       ?root_get_other_interface@RSerializeReader@serialize_json@media@modules@UModSys@@UAEPAUIRoot@core@5@PBUSUniquePointerInfo@75@@Z 10023f81 f i umodsys_lib_libmedia:umodsys.mod.media.serialize_json.obj
 0001:00022f81       ?root_get_other_interface@RSerializeReader@serialize_json@media@modules@UModSys@@UBEPBUIRoot@core@5@PBUSUniquePointerInfo@75@@Z 10023f81 f i umodsys_lib_libmedia:umodsys.mod.media.serialize_json.obj
 0001:00022fa2       ?root_is_interface_supported@RSerializeReader@serialize_json@media@modules@UModSys@@UBE_NPBUSUniquePointerInfo@core@5@@Z 10023fa2 f i umodsys_lib_libmedia:umodsys.mod.media.serialize_json.obj
 0001:00022fc9       ?reader_lasterror@RSerializeReader@serialize_json@media@modules@UModSys@@UBEPBDXZ 10023fc9 f i umodsys_lib_libmedia:umodsys.mod.media.serialize_json.obj
 0001:00022fd0       ?reader_parse@RSerializeReader@serialize_json@media@modules@UModSys@@UAE_NPAUISerializeParser@libmedia@5@@Z 10023fd0 f i umodsys_lib_libmedia:umodsys.mod.media.serialize_json.obj
 0001:0002350a       ?uni@RSerializeReader@serialize_json@media@modules@UModSys@@IAE_NHAAH@Z 1002450a f i umodsys_lib_libmedia:umodsys.mod.media.serialize_json.obj
 0001:00023577       ?emit@RSerializeReader@serialize_json@media@modules@UModSys@@IAE_NPAUISerializeParser@libmedia@5@PAUNode@12345@_N@Z 10024577 f i umodsys_lib_libmedia:umodsys.mod.media.serialize_json.obj
 0001:00023770       ??0RSerializeReader@serialize_json@media@modules@UModSys@@QAE@PAUIModObject@base@4@ABUSParameters@core@4@@Z 10024770 f i umodsys_lib_libmedia:umodsys.mod.media.serialize_json.obj
 0001:0002385a       ??_GRSerializeReader@serialize_json@media@modules@UModSys@@UAEPAXI@Z 1002485a f i umodsys_lib_libmedia:umodsys.mod.media.serialize_json.obj
 0001:0002385a       ??_ERSerializeReader@serialize_json@media@modules@UModSys@@UAEPAXI@Z 1002485a f i  CIL library: CIL module
 0001:000238b6       ?root_get_interface_info@RSerializeWriter@serialize_json@media@modules@UModSys@@UBEABUSUniquePointerInfo@core@5@XZ 100248b6 f i umodsys_lib_libmedia:umodsys.mod.media.serialize_json.obj
 0001:000238bc       ?root_get_interface_type@RSerializeWriter@serialize_json@media@modules@UModSys@@UBEPBUSUniquePointerInfo@core@5@XZ 100248bc f i umodsys_lib_libmedia:umodsys.mod.media.serialize_json.obj
 0001:000238c2       ?root_get_other_interface@RSerializeWriter@serialize_json@media@modules@UModSys@@UBEPBUIRoot@core@5@PBUSUniquePointerInfo@75@@Z 100248c2 f i umodsys_lib_libmedia:umodsys.mod.media.serialize_json.obj
 0001:000238c2       ?root_get_other_interface@RSerializeWriter@serialize_json@media@modules@UModSys@@UAEPAUIRoot@core@5@PBUSUniquePointerInfo@75@@Z 100248c2 f i umodsys_lib_libmedia:umodsys.mod.media.serialize_json.obj
 0001:000238e3       ?root_is_interface_supported@RSerializeWriter@serialize_json@media@modules@UModSys@@UBE_NPBUSUniquePointerInfo@core@5@@Z 100248e3 f i umodsys_lib_libmedia:umodsys.mod.media.serialize_json.obj
 0001:0002390a       ?ref_add@RSerializeWriter@serialize_json@media@modules@UModSys@@UBEXXZ 1002490a f i umodsys_lib_libmedia:umodsys.mod.media.serialize_json.obj
 0001:0002390e       ?ref_remove@RSerializeWriter@serialize_json@media@modules@UModSys@@UBEXXZ 1002490e f i umodsys_lib_libmedia:umodsys.mod.media.serialize_json.obj
 0001:00023919       ?ref_links@RSerializeWriter@serialize_json@media@modules@UModSys@@UBEHXZ 10024919 f i umodsys_lib_libmedia:umodsys.mod.media.serialize_json.obj
 0001:0002391d       ?ref_weak@RSerializeWriter@serialize_json@media@modules@UModSys@@UBE_NAAUWeakPointer@IRefObject@core@5@@Z 1002491d f i umodsys_lib_libmedia:umodsys.mod.media.serialize_json.obj
 0001:0002393c       ?suicide@RSerializeWriter@serialize_json@media@modules@UModSys@@UAEXXZ 1002493c f i umodsys_lib_libmedia:umodsys.mod.media.serialize_json.obj
 0001:00023979       ?writer_lasterror@RSerializeWriter@serialize_json@media@modules@UModSys@@UBEPBDXZ 10024979 f i umodsys_lib_libmedia:umodsys.mod.media.serialize_json.obj
 0001:00023980       ?put_value@RSerializeWriter@serialize_json@media@modules@UModSys@@UAE_NABU?$TString@U?$TSCoreConst@D@su@tl@UModSys@@U?$TComparerBinaryHash@D@234@@tl@5@ABUSSerializeValue@libmedia@5@H@Z 10024980 f i umodsys_lib_libmedia:umodsys.mod.media.serialize_json.obj
 0001:00023bd5       ?put_key@RSerializeWriter@serialize_json@media@modules@UModSys@@UAE_NABU?$TString@U?$TSCoreConst@D@su@tl@UModSys@@U?$TComparerBinaryHash@D@234@@tl@5@ABUSSerializeValue@libmedia@5@H@Z 10024bd5 f i umodsys_lib_libmedia:umodsys.mod.media.serialize_json.obj
 0001:00023c2f       ?put_begin@RSerializeWriter@serialize_json@media@modules@UModSys@@UAE_NABU?$TString@U?$TSCoreConst@D@su@tl@UModSys@@U?$TComparerBinaryHash@D@234@@tl@5@W4eType@SSerializeValue@libmedia@5@H@Z 10024c2f f i umodsys_lib_libmedia:umodsys.mod.media.serialize_json.obj
 0001:00023cd3       ?put_end@RSerializeWriter@serialize_json@media@modules@UModSys@@UAE_NXZ 10024cd3 f i umodsys_lib_libmedia:umodsys.mod.media.serialize_json.obj
 0001:00023d48       ?top@RSerializeWriter@serialize_json@media@modules@UModSys@@IAEPAUNode@12345@XZ 10024d48 f i umodsys_lib_libmedia:umodsys.mod.media.serialize_json.obj
 0001:00023d60       ?begin_elem@RSerializeWriter@serialize_json@media@modules@UModSys@@IAE_NH_N@Z 10024d60 f i umodsys_lib_libmedia:umodsys.mod.media.serialize_json.obj
 0001:00023dd6       ?write_s@RSerializeWriter@serialize_json@media@modules@UModSys@@IAE_NABUStr@SSerializeValue@libmedia@5@@Z 10024dd6 f i umodsys_lib_libmedia:umodsys.mod.media.serialize_json.obj
 0001:00023e58       ?skip@RSerializeWriter@serialize_json@media@modules@UModSys@@IAE_NH@Z 10024e58 f i umodsys_lib_libmedia:umodsys.mod.media.serialize_json.obj
 0001:00023ea0       ?delim@RSerializeWriter@serialize_json@media@modules@UModSys@@IAE_NAAUNode@12345@H@Z 10024ea0 f i umodsys_lib_libmedia:umodsys.mod.media.serialize_json.obj
 0001:00023ed4       ?writef@RSerializeWriter@serialize_json@media@modules@UModSys@@IAA_NPBDZZ 10024ed4 f i umodsys_lib_libmedia:umodsys.mod.media.serialize_json.obj
 0001:00023f1d       ??0RSerializeWriter@serialize_json@media@modules@UModSys@@QAE@PAUIModObject@base@4@ABUSParameters@core@4@@Z 10024f1d f i umodsys_lib_libmedia:umodsys.mod.media.serialize_json.obj
 0001:00024002       ??1RSerializeWriter@serialize_json@media@modules@UModSys@@UAE@XZ 10025002 f i umodsys_lib_libmedia:umodsys.mod.media.serialize_json.obj
 0001:00024086       ??_GRSerializeWriter@serialize_json@media@modules@UModSys@@UAEPAXI@Z 10025086 f i umodsys_lib_libmedia:umodsys.mod.media.serialize_json.obj
 0001:00024086       ??_ERSerializeWriter@serialize_json@media@modules@UModSys@@UAEPAXI@Z 10025086 f i  CIL library: CIL module
 0001:000240a3       ?get_generated_names@RGenerator@serialize_json@media@modules@UModSys@@UBEHAAUSUniquePtrList@core@5@@Z 100250a3 f i umodsys_lib_libmedia:umodsys.mod.media.serialize_json.obj
 0001:000240c7       ?get_generated_types@RGenerator@serialize_json@media@modules@UModSys@@UBEHAAUSUniquePtrList@core@5@PBUSUniquePointerInfo@75@@Z 100250c7 f i umodsys_lib_libmedia:umodsys.mod.media.serialize_json.obj
 0001:00024116       ?generate@RGenerator@serialize_json@media@modules@UModSys@@UAE_NAAU?$TRefObject@UIRefObject@core@UModSys@@U?$TRefObjectFunc@UIRefObject@core@UModSys@@@tl@3@@tl@5@PBUSUniquePointerInfo@core@5@ABUSParameters@95@@Z 10025116 f i umodsys_lib_libmedia:umodsys.mod.media.serialize_json.obj
 0001:0002416a       ?root_get_interface_info@RGenerator@serialize_json@media@modules@UModSys@@UBEABUSUniquePointerInfo@core@5@XZ 1002516a f i umodsys_lib_libmedia:umodsys.mod.media.serialize_json.obj
 0001:00024170       ?root_get_interface_type@RGenerator@serialize_json@media@modules@UModSys@@UBEPBUSUniquePointerInfo@core@5@XZ 10025170 f i umodsys_lib_libmedia:umodsys.mod.media.serialize_json.obj
 0001:00024176       ?root_get_other_interface@RGenerator@serialize_json@media@modules@UModSys@@UAEPAUIRoot@core@5@PBUSUniquePointerInfo@75@@Z 10025176 f i umodsys_lib_libmedia:umodsys.mod.media.serialize_json.obj
 0001:00024176       ?root_get_other_interface@RGenerator@serialize_json@media@modules@UModSys@@UBEPBUIRoot@core@5@PBUSUniquePointerInfo@75@@Z 10025176 f i umodsys_lib_libmedia:umodsys.mod.media.serialize_json.obj
 0001:0002418f       ?root_is_interface_supported@RGenerator@serialize_json@media@modules@UModSys@@UBE_NPBUSUniquePointerInfo@core@5@@Z 1002518f f i umodsys_lib_libmedia:umodsys.mod.media.serialize_json.obj
 0001:000241ae       ?get_uid@RGenerator@serialize_json@media@modules@UModSys@@UBEPBUSUniquePointerInfo@core@5@XZ 100251ae f i umodsys_lib_libmedia:umodsys.mod.media.serialize_json.obj
 0001:000241b4       ?do_open@RModuleReg@serialize_json@media@modules@UModSys@@UAE_NXZ 100251b4 f i umodsys_lib_libmedia:umodsys.mod.media.serialize_json.obj
 0001:00024202       ?do_close@RModuleReg@serialize_json@media@modules@UModSys@@UAE_NXZ 10025202 f i umodsys_lib_libmedia:umodsys.mod.media.serialize_json.obj
 0001:0002423d       ?get_module@RGenerator@serialize_json@media@modules@UModSys@@UBEPAUIModule@base@5@XZ 1002523d f   umodsys_lib_libmedia:umodsys.mod.media.serialize_json.obj
 0001:00024243       ?mod_inc@RGenerator@serialize_json@media@modules@UModSys@@UBE_NXZ 10025243 f   umodsys_lib_libmedia:umodsys.mod.media.serialize_json.obj
 0001:0002424e       ?mod_dec@RGenerator@serialize_json@media@modules@UModSys@@UBE_NXZ 1002524e f   umodsys_lib_libmedia:umodsys.mod.media.serialize_json.obj
 0001:00024259       ?s_holder@RGenerator@serialize_json@media@modules@UModSys@@SAAAU?$TTypeStaticHolder@URGenerator@serialize_json@media@modules@UModSys@@@tl@5@XZ 10025259 f   umodsys_lib_libmedia:umodsys.mod.media.serialize_json.obj
 0001:0002428b       ??1?$TTextStreamReaderBuf@D$0BAAA@@libmedia@UModSys@@QAE@XZ 1002528b f i umodsys_lib_libmedia:umodsys.mod.media.serialize_json.obj
 0001:0002429c       ??1?$TDynarrayDynamic@DU?$TAllocator@USIMemAlloc@core@UModSys@@USCountCalcPower2@23@@tl@UModSys@@@tl@UModSys@@QAE@XZ 1002529c f i umodsys_lib_libmedia:umodsys.mod.media.serialize_json.obj
 0001:000242a1       ??1?$TDynarrayDynamic@UNode@RSerializeReader@serialize_json@media@modules@UModSys@@U?$TAllocator@USIMemAlloc@core@UModSys@@USCountCalcPower2@23@@tl@6@@tl@UModSys@@QAE@XZ 100252a1 f i umodsys_lib_libmedia:umodsys.mod.media.serialize_json.obj
 0001:000242a6       ??1?$TDynarrayDynamic@UNode@RSerializeWriter@serialize_json@media@modules@UModSys@@U?$TAllocator@USIMemAlloc@core@UModSys@@USCountCalcPower2@23@@tl@6@@tl@UModSys@@QAE@XZ 100252a6 f i umodsys_lib_libmedia:umodsys.mod.media.serialize_json.obj
 0001:000242ab       ??1?$TTextStreamWriterBuf@D$0BAAA@@libmedia@UModSys@@QAE@XZ 100252ab f i umodsys_lib_libmedia:umodsys.mod.media.serialize_json.obj
 0001:000242b0       ?check@?$TTextStreamReader@D@libmedia@UModSys@@IAE_NI@Z 100252b0 f i umodsys_lib_libmedia:umodsys.mod.media.serialize_json.obj
 0001:00024352       ??1?$TDynarray@U?$TDynarrayHolderDynamic@DU?$TAllocator@USIMemAlloc@core@UModSys@@USCountCalcPower2@23@@tl@UModSys@@@tl@UModSys@@@tl@UModSys@@QAE@XZ 10025352 f i umodsys_lib_libmedia:umodsys.mod.media.serialize_json.obj
 0001:00024396       ??1?$TDynarray@U?$TDynarrayHolderDynamic@UNode@RSerializeReader@serialize_json@media@modules@UModSys@@U?$TAllocator@USIMemAlloc@core@UModSys@@USCountCalcPower2@23@@tl@6@@tl@UModSys@@@tl@UModSys@@QAE@XZ 10025396 f i umodsys_lib_libmedia:umodsys.mod.media.serialize_json.obj
 0001:000243dd       ??1?$TDynarray@U?$TDynarrayHolderDynamic@UNode@RSerializeWriter@serialize_json@media@modules@UModSys@@U?$TAllocator@USIMemAlloc@core@UModSys@@USCountCalcPower2@23@@tl@6@@tl@UModSys@@@tl@UModSys@@QAE@XZ 100253dd f i umodsys_lib_libmedia:umodsys.mod.media.serialize_json.obj
 0001:00024424       ??1?$TTextStreamWriter@D@libmedia@UModSys@@QAE@XZ 10025424 f i umodsys_lib_libmedia:umodsys.mod.media.serialize_json.obj
 0001:0002445e       ?put_chars@?$TTextStreamWriter@D@libmedia@UModSys@@QAE_NPBDI@Z 1002545e f i umodsys_lib_libmedia:umodsys.mod.media.serialize_json.obj
 0001:000244ce       ?put_buffer@?$TTextStreamWriter@D@libmedia@UModSys@@QAE_NXZ 100254ce f i umodsys_lib_libmedia:umodsys.mod.media.serialize_json.obj
 0001:000244ed       ?Push@?$TDynarray@U?$TDynarrayHolderDynamic@DU?$TAllocator@USIMemAlloc@core@UModSys@@USCountCalcPower2@23@@tl@UModSys@@@tl@UModSys@@@tl@UModSys@@QAE_NABD@Z 100254ed f i umodsys_lib_libmedia:umodsys.mod.media.serialize_json.obj
 0001:0002451a       ?ResizeRel@?$TDynarray@U?$TDynarrayHolderDynamic@DU?$TAllocator@USIMemAlloc@core@UModSys@@USCountCalcPower2@23@@tl@UModSys@@@tl@UModSys@@@tl@UModSys@@QAE_NH@Z 1002551a f i umodsys_lib_libmedia:umodsys.mod.media.serialize_json.obj
 0001:00024550       ?Push@?$TDynarray@U?$TDynarrayHolderDynamic@UNode@RSerializeReader@serialize_json@media@modules@UModSys@@U?$TAllocator@USIMemAlloc@core@UModSys@@USCountCalcPower2@23@@tl@6@@tl@UModSys@@@tl@UModSys@@QAE_NABUNode@RSerializeReader@serialize_json@media@modules@3@@Z 10025550 f i umodsys_lib_libmedia:umodsys.mod.media.serialize_json.obj
 0001:00024586       ?ResizeRel@?$TDynarray@U?$TDynarrayHolderDynamic@UNode@RSerializeReader@serialize_json@media@modules@UModSys@@U?$TAllocator@USIMemAlloc@core@UModSys@@USCountCalcPower2@23@@tl@6@@tl@UModSys@@@tl@UModSys@@QAE_NH@Z 10025586 f i umodsys_lib_libmedia:umodsys.mod.media.serialize_json.obj
 0001:000245d3       ?ResizeRel@?$TDynarray@U?$TDynarrayHolderDynamic@UNode@RSerializeWriter@serialize_json@media@modules@UModSys@@U?$TAllocator@USIMemAlloc@core@UModSys@@USCountCalcPower2@23@@tl@6@@tl@UModSys@@@tl@UModSys@@QAE_NH@Z 100255d3 f i umodsys_lib_libmedia:umodsys.mod.media.serialize_json.obj
 0001:0002462d       ??$t_gen_param@URSerializeReader@serialize_json@media@modules@UModSys@@URGenerator@2345@@IGenerator@base@UModSys@@IAE_NPAURGenerator@serialize_json@media@modules@2@AAU?$TRefObject@UIRefObject@core@UModSys@@U?$TRefObjectFunc@UIRefObject@core@UModSys@@@tl@3@@tl@2@PBUSUniquePointerInfo@core@2@ABUSParameters@core@2@@Z 1002562d f i umodsys_lib_libmedia:umodsys.mod.media.serialize_json.obj
 0001:000246d8       ??$t_gen_param@URSerializeWriter@serialize_json@media@modules@UModSys@@URGenerator@2345@@IGenerator@base@UModSys@@IAE_NPAURGenerator@serialize_json@media@modules@2@AAU?$TRefObject@UIRefObject@core@UModSys@@U?$TRefObjectFunc@UIRefObject@core@UModSys@@@tl@3@@tl@2@PBUSUniquePointerInfo@core@2@ABUSParameters@core@2@@Z 100256d8 f i umodsys_lib_libmedia:umodsys.mod.media.serialize_json.obj
 0001:00024783       ?ReLink@?$TDynarray@U?$TDynarrayHolderDynamic@DU?$TAllocator@USIMemAlloc@core@UModSys@@USCountCalcPower2@23@@tl@UModSys@@@tl@UModSys@@@tl@UModSys@@IAE_NI@Z 10025783 f i umodsys_lib_libmedia:umodsys.mod.media.serialize_json.obj
 0001:000247be       ?ReLink@?$TDynarray@U?$TDynarrayHolderDynamic@UNode@RSerializeReader@serialize_json@media@modules@UModSys@@U?$TAllocator@USIMemAlloc@core@UModSys@@USCountCalcPower2@23@@tl@6@@tl@UModSys@@@tl@UModSys@@IAE_NI@Z 100257be f i umodsys_lib_libmedia:umodsys.mod.media.serialize_json.obj
 0001:00024800       ?ReLink@?$TDynarray@U?$TDynarrayHolderDynamic@UNode@RSerializeWriter@serialize_json@media@modules@UModSys@@U?$TAllocator@USIMemAlloc@core@UModSys@@USCountCalcPower2@23@@tl@6@@tl@UModSys@@@tl@UModSys@@IAE_NI@Z 10025800 f i umodsys_lib_libmedia:umodsys.mod.media.serialize_json.obj
 0001:00024800       ?ReLink@?$TDynarray@U?$TDynarrayHolderDynamic@USImageCellInfo@lib2d@UModSys@@U?$TAllocator@USIMemAlloc@core@UModSys@@USCountCalcPower2@23@@tl@3@@tl@UModSys@@@tl@UModSys@@IAE_NI@Z 10025800 f i umodsys_lib_lib2d:umodsys.mod.2d.stdlib.obj
 0001:00024842       ??1SBuffer@libmedia@UModSys@@QAE@XZ 10025842 f i umodsys_lib_libmedia:umodsys.mod.media.zlib.obj
 0001:0002489a       ?get@Holder@fileFilePrefix@zlib@media@modules@UModSys@@QAEXXZ 1002589a f i umodsys_lib_libmedia:umodsys.mod.media.zlib.obj
 0001:000248ea       ?set@Holder@fileFilePrefix@zlib@media@modules@UModSys@@QAEXXZ 100258ea f i umodsys_lib_libmedia:umodsys.mod.media.zlib.obj
 0001:0002493a       ?root_get_interface_info@RBinArchiveFrameClient_ZIP@zlib@media@modules@UModSys@@UBEABUSUniquePointerInfo@core@5@XZ 1002593a f i umodsys_lib_libmedia:umodsys.mod.media.zlib.obj
 0001:00024940       ?root_get_interface_type@RBinArchiveFrameClient_ZIP@zlib@media@modules@UModSys@@UBEPBUSUniquePointerInfo@core@5@XZ 10025940 f i umodsys_lib_libmedia:umodsys.mod.media.zlib.obj
 0001:00024946       ?root_get_other_interface@RBinArchiveFrameClient_ZIP@zlib@media@modules@UModSys@@UAEPAUIRoot@core@5@PBUSUniquePointerInfo@75@@Z 10025946 f i umodsys_lib_libmedia:umodsys.mod.media.zlib.obj
 0001:00024946       ?root_get_other_interface@RBinArchiveFrameClient_ZIP@zlib@media@modules@UModSys@@UBEPBUIRoot@core@5@PBUSUniquePointerInfo@75@@Z 10025946 f i umodsys_lib_libmedia:umodsys.mod.media.zlib.obj
 0001:00024967       ?root_is_interface_supported@RBinArchiveFrameClient_ZIP@zlib@media@modules@UModSys@@UBE_NPBUSUniquePointerInfo@core@5@@Z 10025967 f i umodsys_lib_libmedia:umodsys.mod.media.zlib.obj
 0001:0002498e       ??0RBinArchiveFrameClient_ZIP@zlib@media@modules@UModSys@@QAE@PAUIModObject@base@4@ABUSParameters@core@4@@Z 1002598e f i umodsys_lib_libmedia:umodsys.mod.media.zlib.obj
 0001:000249d6       ?get_generated_names@RGenerator@zlib@media@modules@UModSys@@UBEHAAUSUniquePtrList@core@5@@Z 100259d6 f i umodsys_lib_libmedia:umodsys.mod.media.zlib.obj
 0001:000249ef       ?get_generated_types@RGenerator@zlib@media@modules@UModSys@@UBEHAAUSUniquePtrList@core@5@PBUSUniquePointerInfo@75@@Z 100259ef f i umodsys_lib_libmedia:umodsys.mod.media.zlib.obj
 0001:00024a21       ?generate@RGenerator@zlib@media@modules@UModSys@@UAE_NAAU?$TRefObject@UIRefObject@core@UModSys@@U?$TRefObjectFunc@UIRefObject@core@UModSys@@@tl@3@@tl@5@PBUSUniquePointerInfo@core@5@ABUSParameters@95@@Z 10025a21 f i umodsys_lib_libmedia:umodsys.mod.media.zlib.obj
 0001:00024a42       ?root_get_interface_info@RGenerator@zlib@media@modules@UModSys@@UBEABUSUniquePointerInfo@core@5@XZ 10025a42 f i umodsys_lib_libmedia:umodsys.mod.media.zlib.obj
 0001:00024a48       ?root_get_interface_type@RGenerator@zlib@media@modules@UModSys@@UBEPBUSUniquePointerInfo@core@5@XZ 10025a48 f i umodsys_lib_libmedia:umodsys.mod.media.zlib.obj
 0001:00024a4e       ?root_get_other_interface@RGenerator@zlib@media@modules@UModSys@@UAEPAUIRoot@core@5@PBUSUniquePointerInfo@75@@Z 10025a4e f i umodsys_lib_libmedia:umodsys.mod.media.zlib.obj
 0001:00024a4e       ?root_get_other_interface@RGenerator@zlib@media@modules@UModSys@@UBEPBUIRoot@core@5@PBUSUniquePointerInfo@75@@Z 10025a4e f i umodsys_lib_libmedia:umodsys.mod.media.zlib.obj
 0001:00024a67       ?root_is_interface_supported@RGenerator@zlib@media@modules@UModSys@@UBE_NPBUSUniquePointerInfo@core@5@@Z 10025a67 f i umodsys_lib_libmedia:umodsys.mod.media.zlib.obj
 0001:00024a86       ?get_uid@RGenerator@zlib@media@modules@UModSys@@UBEPBUSUniquePointerInfo@core@5@XZ 10025a86 f i umodsys_lib_libmedia:umodsys.mod.media.zlib.obj
 0001:00024a8c       ?data_load@RBinArchiveFrameClient_ZIP@zlib@media@modules@UModSys@@UAE_NPAUIBinArchiveFrame@libmedia@5@AAUSCMemShared@core@5@PAUNameNode@675@ABUSFlags@75@@Z 10025a8c f   umodsys_lib_libmedia:umodsys.mod.media.zlib.obj
 0001:00024e0d       ?data_save@RBinArchiveFrameClient_ZIP@zlib@media@modules@UModSys@@UAE_NPAUIBinArchiveFrame@libmedia@5@ABUSCMem@core@5@ABU?$TString@U?$TSCoreConst@D@su@tl@UModSys@@U?$TComparerBinaryHash@D@234@@tl@5@ABUSFlags@75@@Z 10025e0d f   umodsys_lib_libmedia:umodsys.mod.media.zlib.obj
 0001:000250f5       ?data_reader@RBinArchiveFrameClient_ZIP@zlib@media@modules@UModSys@@UAE?AU?$TRefObject@UIStreamReader@libmedia@UModSys@@U?$TRefObjectFunc@UIStreamReader@libmedia@UModSys@@@tl@3@@tl@5@PAUIBinArchiveFrame@libmedia@5@PAUNameNode@895@ABUSFlags@95@@Z 100260f5 f   umodsys_lib_libmedia:umodsys.mod.media.zlib.obj
 0001:0002526e       ?node_info@RBinArchiveFrameClient_ZIP@zlib@media@modules@UModSys@@UAE_NPAUIBinArchiveFrame@libmedia@5@AAUSFileInfo@75@PAUNameNode@675@@Z 1002626e f   umodsys_lib_libmedia:umodsys.mod.media.zlib.obj
 0001:00025287       ?arc_init@RBinArchiveFrameClient_ZIP@zlib@media@modules@UModSys@@UAE_NPAUIBinArchiveFrame@libmedia@5@PBUSParameters@core@5@@Z 10026287 f   umodsys_lib_libmedia:umodsys.mod.media.zlib.obj
 0001:000252d2       ?filer_pre_scan@RBinArchiveFrameClient_ZIP@zlib@media@modules@UModSys@@UAE_NPAUIBinArchiveFrame@libmedia@5@AAIPBUSParameters@core@5@@Z 100262d2 f   umodsys_lib_libmedia:umodsys.mod.media.zlib.obj
 0001:00025509       ?filer_scan@RBinArchiveFrameClient_ZIP@zlib@media@modules@UModSys@@UAE_NPAUIBinArchiveFrame@libmedia@5@AAUSMem@core@5@PBUSParameters@95@@Z 10026509 f   umodsys_lib_libmedia:umodsys.mod.media.zlib.obj
 0001:000256e3       ?filew_init@RBinArchiveFrameClient_ZIP@zlib@media@modules@UModSys@@UAE_NPAUIBinArchiveFrame@libmedia@5@PBUSParameters@core@5@@Z 100266e3 f   umodsys_lib_libmedia:umodsys.mod.media.zlib.obj
 0001:000256fb       ?filew_copy_data@RBinArchiveFrameClient_ZIP@zlib@media@modules@UModSys@@UAE_NPAUIBinArchiveFrame@libmedia@5@PAUNameNode@675@@Z 100266fb f   umodsys_lib_libmedia:umodsys.mod.media.zlib.obj
 0001:000257e9       ?filew_writedir_start@RBinArchiveFrameClient_ZIP@zlib@media@modules@UModSys@@UAE_NPAUIBinArchiveFrame@libmedia@5@@Z 100267e9 f   umodsys_lib_libmedia:umodsys.mod.media.zlib.obj
 0001:00025807       ?filew_writedir_entry@RBinArchiveFrameClient_ZIP@zlib@media@modules@UModSys@@UAE_NPAUIBinArchiveFrame@libmedia@5@PAUNameNode@675@@Z 10026807 f   umodsys_lib_libmedia:umodsys.mod.media.zlib.obj
 0001:0002595f       ?filew_writedir_end@RBinArchiveFrameClient_ZIP@zlib@media@modules@UModSys@@UAE_NPAUIBinArchiveFrame@libmedia@5@@Z 1002695f f   umodsys_lib_libmedia:umodsys.mod.media.zlib.obj
 0001:000259ff       ?do_open@RModuleReg@zlib@media@modules@UModSys@@UAE_NXZ 100269ff f i umodsys_lib_libmedia:umodsys.mod.media.zlib.obj
 0001:00025a4d       ?do_close@RModuleReg@zlib@media@modules@UModSys@@UAE_NXZ 10026a4d f i umodsys_lib_libmedia:umodsys.mod.media.zlib.obj
 0001:00025a88       ?get_module@RGenerator@zlib@media@modules@UModSys@@UBEPAUIModule@base@5@XZ 10026a88 f   umodsys_lib_libmedia:umodsys.mod.media.zlib.obj
 0001:00025a8e       ?mod_inc@RGenerator@zlib@media@modules@UModSys@@UBE_NXZ 10026a8e f   umodsys_lib_libmedia:umodsys.mod.media.zlib.obj
 0001:00025a99       ?mod_dec@RGenerator@zlib@media@modules@UModSys@@UBE_NXZ 10026a99 f   umodsys_lib_libmedia:umodsys.mod.media.zlib.obj
 0001:00025aa4       ?s_holder@RGenerator@zlib@media@modules@UModSys@@SAAAU?$TTypeStaticHolder@URGenerator@zlib@media@modules@UModSys@@@tl@5@XZ 10026aa4 f   umodsys_lib_libmedia:umodsys.mod.media.zlib.obj
 0001:00025ad6       ??$t_gen_param@URBinArchiveFrameClient_ZIP@zlib@media@modules@UModSys@@URGenerator@2345@@IGenerator@base@UModSys@@IAE_NPAURGenerator@zlib@media@modules@2@AAU?$TRefObject@UIRefObject@core@UModSys@@U?$TRefObjectFunc@UIRefObject@core@UModSys@@@tl@3@@tl@2@PBUSUniquePointerInfo@core@2@ABUSParameters@core@2@@Z 10026ad6 f i umodsys_lib_libmedia:umodsys.mod.media.zlib.obj
 0001:00025b7b       ?Link@SModuleContext@base@UModSys@@QAEXPAUISystem@23@PAUIMemAlloc@core@3@@Z 10026b7b f   umodsys_lib_base:umodsys.base.modulecontext.obj
 0001:00025bc7       ?put@SDebug@base@UModSys@@QBA_NEW4eConsoleLevels@23@PBDZZ 10026bc7 f   umodsys_lib_base:umodsys.base.debug.obj
 0001:00025bed       ??0SModuleRegChain@base@UModSys@@QAE@AAUIModuleReg@12@@Z 10026bed f   umodsys_lib_base:umodsys.base.moduleregchain.obj
 0001:00025c1c       ??1SModuleRegChain@base@UModSys@@QAE@XZ 10026c1c f   umodsys_lib_base:umodsys.base.moduleregchain.obj
 0001:00025c1c       ??1SUniquePointer@core@UModSys@@QAE@XZ 10026c1c f   umodsys_lib_core:umodsys.core.uniqueptr.obj
 0001:00025c3a       ?s_get@SModuleRegChain@base@UModSys@@SAPAUIModuleReg@23@I@Z 10026c3a f   umodsys_lib_base:umodsys.base.moduleregchain.obj
 0001:00025c5e       ?mlr_count@RModuleLibraryReg_Chain@base@UModSys@@UBEIXZ 10026c5e f   umodsys_lib_base:umodsys.base.moduleregchain.obj
 0001:00025c71       ?mlr_get@RModuleLibraryReg_Chain@base@UModSys@@UBEPAUIModuleReg@23@I@Z 10026c71 f   umodsys_lib_base:umodsys.base.moduleregchain.obj
 0001:00025c7e       ?mlr_open@RModuleLibraryReg_Chain@base@UModSys@@UAE_NPAUISystem@23@PAUIMemAlloc@core@3@@Z 10026c7e f   umodsys_lib_base:umodsys.base.moduleregchain.obj
 0001:00025cdb       ?mlr_close@RModuleLibraryReg_Chain@base@UModSys@@UAE_NXZ 10026cdb f   umodsys_lib_base:umodsys.base.moduleregchain.obj
 0001:00025d38       ?mlr_isopen@RModuleLibraryReg_Chain@base@UModSys@@UBE_NXZ 10026d38 f   umodsys_lib_base:umodsys.base.moduleregchain.obj
 0001:00025d44       ??_ERModuleLibraryReg_Chain@base@UModSys@@UAEPAXI@Z 10026d44 f i  CIL library: CIL module
 0001:00025d44       ??_EIModuleLibraryReg@base@UModSys@@UAEPAXI@Z 10026d44 f i  CIL library: CIL module
 0001:00025d44       ??_GRModuleLibraryReg_Chain@base@UModSys@@UAEPAXI@Z 10026d44 f i umodsys_lib_base:umodsys.base.moduleregchain.obj
 0001:00025d44       ??_GIModuleLibraryReg@base@UModSys@@UAEPAXI@Z 10026d44 f i umodsys_lib_base:umodsys.base.modulereg.obj
 0001:00025d61       _UModSys_Plugin_Entry2@0   10026d61 f   umodsys_lib_base:umodsys.so_main.win32.obj
 0001:00025d67       ??0IModuleReg@base@UModSys@@QAE@PBDGG0K_JPAUSDebug@12@@Z 10026d67 f   umodsys_lib_base:umodsys.base.modulereg.obj
 0001:00025dc7       ?mr_getdebug@IModuleReg@base@UModSys@@UBEPAUSDebug@23@XZ 10026dc7 f   umodsys_lib_base:umodsys.base.modulereg.obj
 0001:00025dcb       ?mr_isopen@IModuleReg@base@UModSys@@UBE_NXZ 10026dcb f   umodsys_lib_base:umodsys.base.modulereg.obj
 0001:00025dd4       ?mr_open@IModuleReg@base@UModSys@@UAE_NXZ 10026dd4 f   umodsys_lib_base:umodsys.base.modulereg.obj
 0001:00025e1f       ?mr_close@IModuleReg@base@UModSys@@UAE_NXZ 10026e1f f   umodsys_lib_base:umodsys.base.modulereg.obj
 0001:00025e4a       ?utf_32to8@su@tl@UModSys@@YAIPADIH@Z 10026e4a f   umodsys_lib_core:umodsys.tl.utf8.obj
 0001:00025f0c       ?utf_32to8@su@tl@UModSys@@YAIPADIPBHI_N@Z 10026f0c f   umodsys_lib_core:umodsys.tl.utf8.obj
 0001:00025f40       ?utf_32to8_len@su@tl@UModSys@@YAIPBHI@Z 10026f40 f   umodsys_lib_core:umodsys.tl.utf8.obj
 0001:00025fac       ?utf_8to32@su@tl@UModSys@@YA_NAAHAAPBDAAI@Z 10026fac f   umodsys_lib_core:umodsys.tl.utf8.obj
 0001:0002606b       ?utf_8to32@su@tl@UModSys@@YAIPAHIPBDI_N@Z 1002706b f   umodsys_lib_core:umodsys.tl.utf8.obj
 0001:000260a5       ??0SUniquePointer@core@UModSys@@QAE@PBD0H@Z 100270a5 f   umodsys_lib_core:umodsys.core.uniqueptr.obj
 0001:000260e8       ??3IRoot@core@UModSys@@SAXPAX@Z 100270e8 f   umodsys_lib_core:umodsys.core.objects.obj
 0001:00026101       ?Find@?$TSet@U?$TArray@PBUSUniquePointerInfo@core@UModSys@@@tl@UModSys@@U?$TScalarCompare@PBUSUniquePointerInfo@core@UModSys@@@core@3@@tl@UModSys@@QBEPBQBUSUniquePointerInfo@core@3@ABQBU453@@Z 10027101 f i umodsys_lib_core:umodsys.core.uniqueptrlist.obj
 0001:00026188       ?utf_nocase32@su@tl@UModSys@@YAHH@Z 10027188 f   umodsys_lib_core:umodsys.tl.utfcase.obj
 0001:00028704       ?utf8_cmp_nocase_bin@su@tl@UModSys@@YAHPBD0II@Z 10029704 f   umodsys_lib_core:umodsys.tl.utfcase.obj
 0001:00028786       __onexit                   10029786 f   MSVCRT:atonexit.obj
 0001:0002882b       _atexit                    1002982b f   MSVCRT:atonexit.obj
 0001:00028842       __purecall                 10029842 f   MSVCRT:MSVCR90.dll
 0001:00028848       ??3@YAXPAX@Z               10029848 f   MSVCRT:MSVCR90.dll
 0001:0002884e       ??_Etype_info@@UAEPAXI@Z   1002984e f i MSVCRT:ti_inst.obj
 0001:000288e9       __CRT_INIT@12              100298e9 f   MSVCRT:crtdll.obj
 0001:00028c25       __DllMainCRTStartup@12     10029c25 f   MSVCRT:crtdll.obj
 0001:00028c48       ??2@YAPAXI@Z               10029c48 f   MSVCRT:MSVCR90.dll
 0001:00028c4e       __unlock                   10029c4e f   MSVCRT:MSVCR90.dll
 0001:00028c54       ___dllonexit               10029c54 f   MSVCRT:MSVCR90.dll
 0001:00028c5a       __lock                     10029c5a f   MSVCRT:MSVCR90.dll
 0001:00028c60       __SEH_prolog4              10029c60 f   MSVCRT:sehprolg4.obj
 0001:00028ca5       __SEH_epilog4              10029ca5 f   MSVCRT:sehprolg4.obj
 0001:00028cb9       __except_handler4          10029cb9 f   MSVCRT:chandler4gs.obj
 0001:00028cde       ?__ArrayUnwind@@YGXPAXIHP6EX0@Z@Z 10029cde f   MSVCRT:ehvecdtr.obj
 0001:00028d3c       ??_M@YGXPAXIHP6EX0@Z@Z     10029d3c f   MSVCRT:ehvecdtr.obj
 0001:00028d9f       ___clean_type_info_names   10029d9f f   MSVCRT:tncleanup.obj
 0001:00028dab       __RTC_Initialize           10029dab f   MSVCRT:_initsect_.obj
 0001:00028dd1       __RTC_Terminate            10029dd1 f   MSVCRT:_initsect_.obj
 0001:00028e00       __ValidateImageBase        10029e00 f   MSVCRT:pesect.obj
 0001:00028e40       __FindPESection            10029e40 f   MSVCRT:pesect.obj
 0001:00028e90       __IsNonwritableInCurrentImage 10029e90 f   MSVCRT:pesect.obj
 0001:00028f4e       __initterm                 10029f4e f   MSVCRT:MSVCR90.dll
 0001:00028f54       __initterm_e               10029f54 f   MSVCRT:MSVCR90.dll
 0001:00028f5a       __amsg_exit                10029f5a f   MSVCRT:MSVCR90.dll
 0001:00028f60       ___CppXcptFilter           10029f60 f   MSVCRT:MSVCR90.dll
 0001:00028f66       _DllMain@12                10029f66 f   MSVCRT:dllmain.obj
 0001:00028f8a       ___security_init_cookie    10029f8a f   MSVCRT:gs_support.obj
 0001:00029020       @__security_check_cookie@4 1002a020 f   MSVCRT:secchk.obj
 0001:00029030       __except_handler4_common   1002a030 f   MSVCRT:MSVCR90.dll
 0001:00029036       ?terminate@@YAXXZ          1002a036 f   MSVCRT:MSVCR90.dll
 0001:0002903c       ?_type_info_dtor_internal_method@type_info@@QAEXXZ 1002a03c f   MSVCRT:MSVCR90.dll
 0001:0002903c       ??1type_info@@UAE@XZ       1002a03c f   MSVCRT:MSVCR90.dll
 0001:00029042       ___clean_type_info_names_internal 1002a042 f   MSVCRT:MSVCR90.dll
 0001:00029048       ___report_gsfailure        1002a048 f   MSVCRT:gs_report.obj
 0001:0002914e       __crt_debugger_hook        1002a14e f   MSVCRT:MSVCR90.dll
 0001:00029154       _crc32                     1002a154 f   lib_zlib:lib_zlib.dll
 0001:0002915a       _deflateEnd                1002a15a f   lib_zlib:lib_zlib.dll
 0001:00029160       _inflateInit2_             1002a160 f   lib_zlib:lib_zlib.dll
 0001:00029166       _inflate                   1002a166 f   lib_zlib:lib_zlib.dll
 0001:0002916c       _inflateEnd                1002a16c f   lib_zlib:lib_zlib.dll
 0001:00029172       _deflate                   1002a172 f   lib_zlib:lib_zlib.dll
 0001:00029178       _deflateInit2_             1002a178 f   lib_zlib:lib_zlib.dll
 0001:0002917e       _png_get_IHDR              1002a17e f   lib_libpng:lib_libpng.dll
 0001:00029184       _png_write_info            1002a184 f   lib_libpng:lib_libpng.dll
 0001:0002918a       _png_destroy_write_struct  1002a18a f   lib_libpng:lib_libpng.dll
 0001:00029190       _png_set_write_fn          1002a190 f   lib_libpng:lib_libpng.dll
 0001:00029196       _png_read_info             1002a196 f   lib_libpng:lib_libpng.dll
 0001:0002919c       _png_sig_cmp               1002a19c f   lib_libpng:lib_libpng.dll
 0001:000291a2       _png_write_rows            1002a1a2 f   lib_libpng:lib_libpng.dll
 0001:000291a8       _png_create_read_struct    1002a1a8 f   lib_libpng:lib_libpng.dll
 0001:000291ae       _png_write_end             1002a1ae f   lib_libpng:lib_libpng.dll
 0001:000291b4       _png_get_io_ptr            1002a1b4 f   lib_libpng:lib_libpng.dll
 0001:000291ba       _png_create_info_struct    1002a1ba f   lib_libpng:lib_libpng.dll
 0001:000291c0       _png_set_read_fn           1002a1c0 f   lib_libpng:lib_libpng.dll
 0001:000291c6       _png_read_update_info      1002a1c6 f   lib_libpng:lib_libpng.dll
 0001:000291cc       _png_set_sig_bytes         1002a1cc f   lib_libpng:lib_libpng.dll
 0001:000291d2       _png_set_longjmp_fn        1002a1d2 f   lib_libpng:lib_libpng.dll
 0001:000291d8       _png_create_write_struct   1002a1d8 f   lib_libpng:lib_libpng.dll
 0001:000291de       _png_read_row              1002a1de f   lib_libpng:lib_libpng.dll
 0001:000291e4       _png_error                 1002a1e4 f   lib_libpng:lib_libpng.dll
 0001:000291ea       _png_set_IHDR              1002a1ea f   lib_libpng:lib_libpng.dll
 0001:000291f0       _png_destroy_read_struct   1002a1f0 f   lib_libpng:lib_libpng.dll
 0001:000291f6       _SDL_StopTextInput         1002a1f6 f   lib_SDL2:lib_SDL2.dll
 0001:000291fc       _SDL_GL_ExtensionSupported 1002a1fc f   lib_SDL2:lib_SDL2.dll
 0001:00029202       _SDL_Init                  1002a202 f   lib_SDL2:lib_SDL2.dll
 0001:00029208       _SDL_DestroyWindow         1002a208 f   lib_SDL2:lib_SDL2.dll
 0001:0002920e       _TTF_GlyphMetrics          1002a20e f   lib_SDL2:lib_SDL2.dll
 0001:00029214       _SDL_GL_DeleteContext      1002a214 f   lib_SDL2:lib_SDL2.dll
 0001:0002921a       _SDL_GL_SwapWindow         1002a21a f   lib_SDL2:lib_SDL2.dll
 0001:00029220       _SDL_CreateWindow          1002a220 f   lib_SDL2:lib_SDL2.dll
 0001:00029226       _SDL_GL_MakeCurrent        1002a226 f   lib_SDL2:lib_SDL2.dll
 0001:0002922c       _SDL_GL_CreateContext      1002a22c f   lib_SDL2:lib_SDL2.dll
 0001:00029232       _TTF_OpenFont              1002a232 f   lib_SDL2:lib_SDL2.dll
 0001:00029238       _TTF_CloseFont             1002a238 f   lib_SDL2:lib_SDL2.dll
 0001:0002923e       _TTF_Init                  1002a23e f   lib_SDL2:lib_SDL2.dll
 0001:00029244       _SDL_PumpEvents            1002a244 f   lib_SDL2:lib_SDL2.dll
 0001:0002924a       _TTF_RenderGlyph_Shaded    1002a24a f   lib_SDL2:lib_SDL2.dll
 0001:00029250       _SDL_Delay                 1002a250 f   lib_SDL2:lib_SDL2.dll
 0001:00029256       _SDL_GL_GetProcAddress     1002a256 f   lib_SDL2:lib_SDL2.dll
 0001:0002925c       _SDL_StartTextInput        1002a25c f   lib_SDL2:lib_SDL2.dll
 0001:00029262       _SDL_PeepEvents            1002a262 f   lib_SDL2:lib_SDL2.dll
 0001:00029268       _SDL_GetTicks              1002a268 f   lib_SDL2:lib_SDL2.dll
 0001:0002926e       _SDL_GL_SetAttribute       1002a26e f   lib_SDL2:lib_SDL2.dll
 0001:00029274       _TTF_Quit                  1002a274 f   lib_SDL2:lib_SDL2.dll
 0001:0002927a       _SDL_Quit                  1002a27a f   lib_SDL2:lib_SDL2.dll
 0001:00029280       _SDL_FreeSurface           1002a280 f   lib_SDL2:lib_SDL2.dll
 0001:00029286       _SDL_RenderDrawLine        1002a286 f   lib_SDL2:lib_SDL2.dll
 0001:0002928c       _SDL_RenderDrawLines       1002a28c f   lib_SDL2:lib_SDL2.dll
 0001:00029292       _SDL_RenderCopy            1002a292 f   lib_SDL2:lib_SDL2.dll
 0001:00029298       _SDL_DestroyRenderer       1002a298 f   lib_SDL2:lib_SDL2.dll
 0001:0002929e       _SDL_DestroyTexture        1002a29e f   lib_SDL2:lib_SDL2.dll
 0001:000292a4       _SDL_CreateTextureFromSurface 1002a2a4 f   lib_SDL2:lib_SDL2.dll
 0001:000292aa       _SDL_RenderPresent         1002a2aa f   lib_SDL2:lib_SDL2.dll
 0001:000292b0       _SDL_SetRenderDrawBlendMode 1002a2b0 f   lib_SDL2:lib_SDL2.dll
 0001:000292b6       _SDL_SetRenderDrawColor    1002a2b6 f   lib_SDL2:lib_SDL2.dll
 0001:000292bc       _SDL_RenderClear           1002a2bc f   lib_SDL2:lib_SDL2.dll
 0001:000292c2       _SDL_CreateRenderer        1002a2c2 f   lib_SDL2:lib_SDL2.dll
 0001:000292c8       _SDL_SetTextureColorMod    1002a2c8 f   lib_SDL2:lib_SDL2.dll
 0001:000292ce       _SDL_RenderFillRect        1002a2ce f   lib_SDL2:lib_SDL2.dll
 0001:000292d4       _SDL_RenderDrawRect        1002a2d4 f   lib_SDL2:lib_SDL2.dll
 0001:000292da       _memcpy                    1002a2da f   MSVCRT:MSVCR90.dll
 0001:000292e0       ___CxxFrameHandler3        1002a2e0 f   MSVCRT:MSVCR90.dll
 0001:000292e8       __EH_prolog                1002a2e8 f   MSVCRT:ehprolog.obj
 0001:00029310       __ftol2_sse                1002a310 f   MSVCRT:ftol2.obj
 0001:00029319       __ftol2_pentium4           1002a319 f   MSVCRT:ftol2.obj
 0001:0002932c       __ftol2_sse_excpt          1002a32c f   MSVCRT:ftol2.obj
 0001:00029346       __ftol2                    1002a346 f   MSVCRT:ftol2.obj
 0001:000293bc       __CItan                    1002a3bc f   MSVCRT:MSVCR90.dll
 0001:000293d0       __alloca_probe_16          1002a3d0 f   MSVCRT:alloca16.obj
 0001:000293e6       __alloca_probe_8           1002a3e6     MSVCRT:alloca16.obj
 0001:000293fc       __setjmp3                  1002a3fc f   MSVCRT:MSVCR90.dll
 0001:00029402       ___CxxLongjmpUnwind@4      1002a402 f   MSVCRT:MSVCR90.dll
 0001:00029410       __alloca_probe             1002a410     MSVCRT:chkstk.obj
 0001:00029410       __chkstk                   1002a410 f   MSVCRT:chkstk.obj
 0001:0002943c       _memset                    1002a43c f   MSVCRT:MSVCR90.dll
 0001:00029492       __get_sse2_info            1002a492 f   MSVCRT:cpu_disp.obj
 0001:000294f4       ___sse2_available_init     1002a4f4 f   MSVCRT:cpu_disp.obj
 0002:00000000       __imp__InterlockedExchange@8 1002d000     kernel32:KERNEL32.dll
 0002:00000004       __imp__InterlockedCompareExchange@12 1002d004     kernel32:KERNEL32.dll
 0002:00000008       __imp__DisableThreadLibraryCalls@4 1002d008     kernel32:KERNEL32.dll
 0002:0000000c       __imp__QueryPerformanceCounter@4 1002d00c     kernel32:KERNEL32.dll
 0002:00000010       __imp__GetTickCount@0      1002d010     kernel32:KERNEL32.dll
 0002:00000014       __imp__GetCurrentThreadId@0 1002d014     kernel32:KERNEL32.dll
 0002:00000018       __imp__GetCurrentProcessId@0 1002d018     kernel32:KERNEL32.dll
 0002:0000001c       __imp__GetSystemTimeAsFileTime@4 1002d01c     kernel32:KERNEL32.dll
 0002:00000020       __imp__TerminateProcess@8  1002d020     kernel32:KERNEL32.dll
 0002:00000024       __imp__GetCurrentProcess@0 1002d024     kernel32:KERNEL32.dll
 0002:00000028       __imp__UnhandledExceptionFilter@4 1002d028     kernel32:KERNEL32.dll
 0002:0000002c       __imp__SetUnhandledExceptionFilter@4 1002d02c     kernel32:KERNEL32.dll
 0002:00000030       __imp__IsDebuggerPresent@0 1002d030     kernel32:KERNEL32.dll
 0002:00000034       __imp__Sleep@4             1002d034     kernel32:KERNEL32.dll
 0002:00000038       \177KERNEL32_NULL_THUNK_DATA 1002d038     kernel32:KERNEL32.dll
 0002:0000003c       __imp____dllonexit         1002d03c     MSVCRT:MSVCR90.dll
 0002:00000040       __imp___encode_pointer     1002d040     MSVCRT:MSVCR90.dll
 0002:00000044       __imp___lock               1002d044     MSVCRT:MSVCR90.dll
 0002:00000048       __imp___onexit             1002d048     MSVCRT:MSVCR90.dll
 0002:0000004c       __imp___decode_pointer     1002d04c     MSVCRT:MSVCR90.dll
 0002:00000050       __imp___malloc_crt         1002d050     MSVCRT:MSVCR90.dll
 0002:00000054       __imp__free                1002d054     MSVCRT:MSVCR90.dll
 0002:00000058       __imp___encoded_null       1002d058     MSVCRT:MSVCR90.dll
 0002:0000005c       __imp___initterm           1002d05c     MSVCRT:MSVCR90.dll
 0002:00000060       __imp___initterm_e         1002d060     MSVCRT:MSVCR90.dll
 0002:00000064       __imp___amsg_exit          1002d064     MSVCRT:MSVCR90.dll
 0002:00000068       __imp___adjust_fdiv        1002d068     MSVCRT:MSVCR90.dll
 0002:0000006c       __imp___unlock             1002d06c     MSVCRT:MSVCR90.dll
 0002:00000070       __imp___vsnprintf          1002d070     MSVCRT:MSVCR90.dll
 0002:00000070       __imp__vsnprintf           1002d070     MSVCRT:MSVCR90.dll
 0002:00000074       __imp___except_handler4_common 1002d074     MSVCRT:MSVCR90.dll
 0002:00000078       __imp_?terminate@@YAXXZ    1002d078     MSVCRT:MSVCR90.dll
 0002:0000007c       __imp_?_type_info_dtor_internal_method@type_info@@QAEXXZ 1002d07c     MSVCRT:MSVCR90.dll
 0002:00000080       __imp____clean_type_info_names_internal 1002d080     MSVCRT:MSVCR90.dll
 0002:00000084       __imp___crt_debugger_hook  1002d084     MSVCRT:MSVCR90.dll
 0002:00000088       __imp____CxxLongjmpUnwind@4 1002d088     MSVCRT:MSVCR90.dll
 0002:0000008c       __imp___setjmp3            1002d08c     MSVCRT:MSVCR90.dll
 0002:00000090       __imp___CItan              1002d090     MSVCRT:MSVCR90.dll
 0002:00000094       __imp____CxxFrameHandler3  1002d094     MSVCRT:MSVCR90.dll
 0002:00000098       __imp__memcpy              1002d098     MSVCRT:MSVCR90.dll
 0002:0000009c       __imp__strncpy             1002d09c     MSVCRT:MSVCR90.dll
 0002:000000a0       __imp__strtol              1002d0a0     MSVCRT:MSVCR90.dll
 0002:000000a4       __imp___snprintf           1002d0a4     MSVCRT:MSVCR90.dll
 0002:000000a8       __imp__strtod              1002d0a8     MSVCRT:MSVCR90.dll
 0002:000000ac       __imp__longjmp             1002d0ac     MSVCRT:MSVCR90.dll
 0002:000000b0       __imp__memchr              1002d0b0     MSVCRT:MSVCR90.dll
 0002:000000b4       __imp__strstr              1002d0b4     MSVCRT:MSVCR90.dll
 0002:000000b8       __imp__memmove             1002d0b8     MSVCRT:MSVCR90.dll
 0002:000000bc       __imp_??2@YAPAXI@Z         1002d0bc     MSVCRT:MSVCR90.dll
 0002:000000c0       __imp__sscanf              1002d0c0     MSVCRT:MSVCR90.dll
 0002:000000c4       __imp_??3@YAXPAX@Z         1002d0c4     MSVCRT:MSVCR90.dll
 0002:000000c8       __imp___purecall           1002d0c8     MSVCRT:MSVCR90.dll
 0002:000000cc       __imp__strncmp             1002d0cc     MSVCRT:MSVCR90.dll
 0002:000000d0       __imp____CppXcptFilter     1002d0d0     MSVCRT:MSVCR90.dll
 0002:000000d4       __imp__sprintf             1002d0d4     MSVCRT:MSVCR90.dll
 0002:000000d8       __imp__memset              1002d0d8     MSVCRT:MSVCR90.dll
 0002:000000dc       \177MSVCR90_NULL_THUNK_DATA 1002d0dc     MSVCRT:MSVCR90.dll
 0002:000000e0       __imp__TTF_Quit            1002d0e0     lib_SDL2:lib_SDL2.dll
 0002:000000e4       __imp__SDL_RenderDrawRect  1002d0e4     lib_SDL2:lib_SDL2.dll
 0002:000000e8       __imp__SDL_RenderFillRect  1002d0e8     lib_SDL2:lib_SDL2.dll
 0002:000000ec       __imp__SDL_SetTextureColorMod 1002d0ec     lib_SDL2:lib_SDL2.dll
 0002:000000f0       __imp__SDL_CreateRenderer  1002d0f0     lib_SDL2:lib_SDL2.dll
 0002:000000f4       __imp__SDL_RenderClear     1002d0f4     lib_SDL2:lib_SDL2.dll
 0002:000000f8       __imp__SDL_SetRenderDrawColor 1002d0f8     lib_SDL2:lib_SDL2.dll
 0002:000000fc       __imp__SDL_CreateTextureFromSurface 1002d0fc     lib_SDL2:lib_SDL2.dll
 0002:00000100       __imp__SDL_DestroyTexture  1002d100     lib_SDL2:lib_SDL2.dll
 0002:00000104       __imp__SDL_DestroyRenderer 1002d104     lib_SDL2:lib_SDL2.dll
 0002:00000108       __imp__SDL_SetRenderDrawBlendMode 1002d108     lib_SDL2:lib_SDL2.dll
 0002:0000010c       __imp__SDL_RenderCopy      1002d10c     lib_SDL2:lib_SDL2.dll
 0002:00000110       __imp__SDL_RenderDrawLines 1002d110     lib_SDL2:lib_SDL2.dll
 0002:00000114       __imp__SDL_RenderDrawLine  1002d114     lib_SDL2:lib_SDL2.dll
 0002:00000118       __imp__SDL_FreeSurface     1002d118     lib_SDL2:lib_SDL2.dll
 0002:0000011c       __imp__SDL_Quit            1002d11c     lib_SDL2:lib_SDL2.dll
 0002:00000120       __imp__SDL_GL_SetAttribute 1002d120     lib_SDL2:lib_SDL2.dll
 0002:00000124       __imp__SDL_StopTextInput   1002d124     lib_SDL2:lib_SDL2.dll
 0002:00000128       __imp__SDL_GL_ExtensionSupported 1002d128     lib_SDL2:lib_SDL2.dll
 0002:0000012c       __imp__SDL_Init            1002d12c     lib_SDL2:lib_SDL2.dll
 0002:00000130       __imp__SDL_DestroyWindow   1002d130     lib_SDL2:lib_SDL2.dll
 0002:00000134       __imp__TTF_GlyphMetrics    1002d134     lib_SDL2:lib_SDL2.dll
 0002:00000138       __imp__SDL_GL_DeleteContext 1002d138     lib_SDL2:lib_SDL2.dll
 0002:0000013c       __imp__SDL_GL_SwapWindow   1002d13c     lib_SDL2:lib_SDL2.dll
 0002:00000140       __imp__SDL_CreateWindow    1002d140     lib_SDL2:lib_SDL2.dll
 0002:00000144       __imp__SDL_GL_MakeCurrent  1002d144     lib_SDL2:lib_SDL2.dll
 0002:00000148       __imp__SDL_GL_CreateContext 1002d148     lib_SDL2:lib_SDL2.dll
 0002:0000014c       __imp__TTF_OpenFont        1002d14c     lib_SDL2:lib_SDL2.dll
 0002:00000150       __imp__TTF_CloseFont       1002d150     lib_SDL2:lib_SDL2.dll
 0002:00000154       __imp__TTF_Init            1002d154     lib_SDL2:lib_SDL2.dll
 0002:00000158       __imp__SDL_PumpEvents      1002d158     lib_SDL2:lib_SDL2.dll
 0002:0000015c       __imp__TTF_RenderGlyph_Shaded 1002d15c     lib_SDL2:lib_SDL2.dll
 0002:00000160       __imp__SDL_Delay           1002d160     lib_SDL2:lib_SDL2.dll
 0002:00000164       __imp__SDL_GL_GetProcAddress 1002d164     lib_SDL2:lib_SDL2.dll
 0002:00000168       __imp__SDL_StartTextInput  1002d168     lib_SDL2:lib_SDL2.dll
 0002:0000016c       __imp__SDL_PeepEvents      1002d16c     lib_SDL2:lib_SDL2.dll
 0002:00000170       __imp__SDL_GetTicks        1002d170     lib_SDL2:lib_SDL2.dll
 0002:00000174       __imp__SDL_RenderPresent   1002d174     lib_SDL2:lib_SDL2.dll
 0002:00000178       \177lib_SDL2_NULL_THUNK_DATA 1002d178     lib_SDL2:lib_SDL2.dll
 0002:0000017c       __imp__jpeg_destroy_decompress 1002d17c     lib_jpeglib:lib_jpeglib.dll
 0002:00000180       __imp__jpeg_std_error      1002d180     lib_jpeglib:lib_jpeglib.dll
 0002:00000184       __imp__jpeg_read_scanlines 1002d184     lib_jpeglib:lib_jpeglib.dll
 0002:00000188       __imp__jpeg_finish_decompress 1002d188     lib_jpeglib:lib_jpeglib.dll
 0002:0000018c       __imp__jpeg_read_header    1002d18c     lib_jpeglib:lib_jpeglib.dll
 0002:00000190       __imp__jpeg_resync_to_restart 1002d190     lib_jpeglib:lib_jpeglib.dll
 0002:00000194       __imp__jpeg_CreateDecompress 1002d194     lib_jpeglib:lib_jpeglib.dll
 0002:00000198       __imp__jpeg_start_decompress 1002d198     lib_jpeglib:lib_jpeglib.dll
 0002:0000019c       __imp__jpeg_destroy        1002d19c     lib_jpeglib:lib_jpeglib.dll
 0002:000001a0       \177lib_jpeglib_NULL_THUNK_DATA 1002d1a0     lib_jpeglib:lib_jpeglib.dll
 0002:000001a4       __imp__png_read_update_info 1002d1a4     lib_libpng:lib_libpng.dll
 0002:000001a8       __imp__png_destroy_read_struct 1002d1a8     lib_libpng:lib_libpng.dll
 0002:000001ac       __imp__png_set_IHDR        1002d1ac     lib_libpng:lib_libpng.dll
 0002:000001b0       __imp__png_error           1002d1b0     lib_libpng:lib_libpng.dll
 0002:000001b4       __imp__png_read_row        1002d1b4     lib_libpng:lib_libpng.dll
 0002:000001b8       __imp__png_create_write_struct 1002d1b8     lib_libpng:lib_libpng.dll
 0002:000001bc       __imp__png_set_longjmp_fn  1002d1bc     lib_libpng:lib_libpng.dll
 0002:000001c0       __imp__png_set_read_fn     1002d1c0     lib_libpng:lib_libpng.dll
 0002:000001c4       __imp__png_create_info_struct 1002d1c4     lib_libpng:lib_libpng.dll
 0002:000001c8       __imp__png_get_io_ptr      1002d1c8     lib_libpng:lib_libpng.dll
 0002:000001cc       __imp__png_write_end       1002d1cc     lib_libpng:lib_libpng.dll
 0002:000001d0       __imp__png_create_read_struct 1002d1d0     lib_libpng:lib_libpng.dll
 0002:000001d4       __imp__png_write_rows      1002d1d4     lib_libpng:lib_libpng.dll
 0002:000001d8       __imp__png_sig_cmp         1002d1d8     lib_libpng:lib_libpng.dll
 0002:000001dc       __imp__png_read_info       1002d1dc     lib_libpng:lib_libpng.dll
 0002:000001e0       __imp__png_set_write_fn    1002d1e0     lib_libpng:lib_libpng.dll
 0002:000001e4       __imp__png_destroy_write_struct 1002d1e4     lib_libpng:lib_libpng.dll
 0002:000001e8       __imp__png_write_info      1002d1e8     lib_libpng:lib_libpng.dll
 0002:000001ec       __imp__png_get_IHDR        1002d1ec     lib_libpng:lib_libpng.dll
 0002:000001f0       __imp__png_set_sig_bytes   1002d1f0     lib_libpng:lib_libpng.dll
 0002:000001f4       \177lib_libpng_NULL_THUNK_DATA 1002d1f4     lib_libpng:lib_libpng.dll
 0002:000001f8       __imp__deflateInit2_       1002d1f8     lib_zlib:lib_zlib.dll
 0002:000001fc       __imp__deflate             1002d1fc     lib_zlib:lib_zlib.dll
 0002:00000200       __imp__inflateEnd          1002d200     lib_zlib:lib_zlib.dll
 0002:00000204       __imp__inflate             1002d204     lib_zlib:lib_zlib.dll
 0002:00000208       __imp__inflateInit2_       1002d208     lib_zlib:lib_zlib.dll
 0002:0000020c       __imp__deflateEnd          1002d20c     lib_zlib:lib_zlib.dll
 0002:00000210       __imp__crc32               1002d210     lib_zlib:lib_zlib.dll
 0002:00000214       \177lib_zlib_NULL_THUNK_DATA 1002d214     lib_zlib:lib_zlib.dll
 0002:00000218       ___xc_a                    1002d218     MSVCRT:cinitexe.obj
 0002:000011dc       ___xc_z                    1002e1dc     MSVCRT:cinitexe.obj
 0002:000011e0       ___xi_a                    1002e1e0     MSVCRT:cinitexe.obj
 0002:000011ec       ___xi_z                    1002e1ec     MSVCRT:cinitexe.obj
 0002:000011f4       ??_7type_info@@6B@         1002e1f4     MSVCRT:ti_inst.obj
 0002:000011f8       __pRawDllMain              1002e1f8     MSVCRT:crtdll.obj
 0002:000011f8       __pDefaultRawDllMain       1002e1f8     MSVCRT:crtdll.obj
 0002:00001204       ??_C@_0P@GHFPNOJB@bad?5allocation?$AA@ 1002e204     plugin_test1.obj
 0002:00001214       ??_C@_0BF@OCNNAADO@UModSys?3?3core?3?3IRoot?$AA@ 1002e214     plugin_test1.obj
 0002:0000122c       ??_C@_0BK@EMIJFOPA@UModSys?3?3core?3?3IRefObject?$AA@ 1002e22c     plugin_test1.obj
 0002:00001248       ??_C@_0BL@IOMMHELF@UModSys?3?3core?3?3IParameters?$AA@ 1002e248     plugin_test1.obj
 0002:00001264       ??_C@_0BI@IKAOEFAP@UModSys?3?3base?3?3IConsole?$AA@ 1002e264     plugin_test1.obj
 0002:0000127c       ??_C@_0BH@LKDEEPPM@UModSys?3?3base?3?3IModule?$AA@ 1002e27c     plugin_test1.obj
 0002:00001294       ??_C@_0BO@PHJOHFCB@UModSys?3?3base?3?3IModuleLibrary?$AA@ 1002e294     plugin_test1.obj
 0002:000012b4       ??_C@_0BK@FDPIOPHG@UModSys?3?3base?3?3IModObject?$AA@ 1002e2b4     plugin_test1.obj
 0002:000012d0       ??_C@_0BK@OIBKNCKJ@UModSys?3?3base?3?3IGenerator?$AA@ 1002e2d0     plugin_test1.obj
 0002:000012ec       ??_C@_0BG@PJBGCMEC@UModSys?3?3base?3?3IShell?$AA@ 1002e2ec     plugin_test1.obj
 0002:00001304       ??_C@_0BH@PFCONEJJ@UModSys?3?3base?3?3ISystem?$AA@ 1002e304     plugin_test1.obj
 0002:0000131c       ??_C@_0CB@CLGNFEGF@UModSys?3?3libmedia?3?3IStreamReader@ 1002e31c     plugin_test1.obj
 0002:00001340       ??_C@_0CB@HOPFFLP@UModSys?3?3libmedia?3?3IStreamWriter@ 1002e340     plugin_test1.obj
 0002:00001364       ??_C@_0BO@INLIIEII@UModSys?3?3libmedia?3?3IUtilities?$AA@ 1002e364     plugin_test1.obj
 0002:00001384       ??_C@_0BO@BMLODIDG@UModSys?3?3libmedia?3?3ILibObject?$AA@ 1002e384     plugin_test1.obj
 0002:000013a4       ??_C@_0BP@KCJMEDNO@UModSys?3?3libmedia?3?3IBinArchive?$AA@ 1002e3a4     plugin_test1.obj
 0002:000013c4       ??_C@_0CB@FDEKNMGJ@UModSys?3?3libmedia?3?3IBinObjFilter@ 1002e3c4     plugin_test1.obj
 0002:000013e8       ??_C@_0BM@DPCMOAPM@UModSys?3?3libmedia?3?3ILibrary?$AA@ 1002e3e8     plugin_test1.obj
 0002:00001404       ??_C@_0CD@ELIFEGE@UModSys?3?3libmedia?3?3ILibraryBinTr@ 1002e404     plugin_test1.obj
 0002:00001428       ??_C@_0CE@EGHBJBAJ@UModSys?3?3libmedia?3?3ILibraryBinCa@ 1002e428     plugin_test1.obj
 0002:0000144c       ??_C@_0CF@LBIGBLOK@UModSys?3?3libmedia?3?3ILibraryObjFi@ 1002e44c     plugin_test1.obj
 0002:00001474       ??_C@_0CE@BOBLEOBL@UModSys?3?3libmedia?3?3ILibraryObjCa@ 1002e474     plugin_test1.obj
 0002:00001498       ??_C@_0CD@LJFEJKGF@UModSys?3?3libmedia?3?3ILibraryLayer@ 1002e498     plugin_test1.obj
 0002:000014bc       ??_C@_0CE@FGFAKEDN@UModSys?3?3libmedia?3?3IBinArchiveFr@ 1002e4bc     plugin_test1.obj
 0002:000014e0       ??_C@_0CN@GBHCKFMF@UModSys?3?3libmedia?3?3IBinArchiveFr@ 1002e4e0     plugin_test1.obj
 0002:00001510       ??_C@_0CE@GJOHFLIN@UModSys?3?3libmedia?3?3ISerializeRea@ 1002e510     plugin_test1.obj
 0002:00001534       ??_C@_0CE@EFGFFKFH@UModSys?3?3libmedia?3?3ISerializeWri@ 1002e534     plugin_test1.obj
 0002:00001558       ?utf_bytesFromUTF8@su@tl@UModSys@@3QBEB 1002e558     umodsys_lib_core:umodsys.tl.utf8.obj
 0002:00001658       ?utf_firstByteMark@su@tl@UModSys@@3QBEB 1002e658     umodsys_lib_core:umodsys.tl.utf8.obj
 0002:00001660       ?utf_offsetsFromUTF8@su@tl@UModSys@@3QBHB 1002e660     umodsys_lib_core:umodsys.tl.utf8.obj
 0002:00001730       ??_C@_0BL@NMJBPMOF@UModSys?3?3base?3?3IConsoleExt?$AA@ 1002e730     plugin_test1.obj
 0002:0000174c       ??_C@_0BO@CGANABBB@UModSys?3?3base?3?3IConsoleHelper?$AA@ 1002e74c     plugin_test1.obj
 0002:0000176c       ??_C@_0CF@NIEDAAFG@UModSys?3?3base?3?3IConsoleHelperHis@ 1002e76c     plugin_test1.obj
 0002:00001794       ??_C@_0CD@FCDJONHN@UModSys?3?3base?3?3IConsoleHelperInp@ 1002e794     plugin_test1.obj
 0002:000017b8       ??_C@_0CE@KMOIHDDJ@UModSys?3?3base?3?3IConsoleHelperOut@ 1002e7b8     plugin_test1.obj
 0002:000017dc       ??_C@_0CH@NMEMKECD@UModSys?3?3base?3?3IConsoleHelperOut@ 1002e7dc     plugin_test1.obj
 0002:00001804       ??_C@_0CE@DIFILHID@UModSys?3?3libui?3?3IKeyboardControl@ 1002e804     plugin_test1.obj
 0002:00001828       ??_C@_0CB@MBIJAGJE@UModSys?3?3libui?3?3IMouseController@ 1002e828     plugin_test1.obj
 0002:0000184c       ??_C@_0CE@HLKJKPC@UModSys?3?3libui?3?3IJoystickControl@ 1002e84c     plugin_test1.obj
 0002:00001870       ??_C@_0BK@GJJNKGGD@UModSys?3?3libui?3?3ITerminal?$AA@ 1002e870     plugin_test1.obj
 0002:0000188c       ??_C@_0CK@HENOKNKH@UModSys?3?3libui?3?3IConsoleHelperIn@ 1002e88c     plugin_test1.obj
 0002:000018b8       ??_C@_0BL@LMBCJDKM@UModSys?3?3libui?3?3ICollector?$AA@ 1002e8b8     plugin_test1.obj
 0002:000018d4       ??_C@_0CB@FBNPBBJO@UModSys?3?3libui?3?3IAsyncController@ 1002e8d4     plugin_test1.obj
 0002:000018f8       ??_C@_0CA@OAEFPLGI@UModSys?3?3libui?3?3IAsyncCollector?$AA@ 1002e8f8     plugin_test1.obj
 0002:00001918       ??_C@_0BH@IHOOLPEB@UModSys?3?3libui?3?3IFrame?$AA@ 1002e918     plugin_test1.obj
 0002:00001930       ??_C@_0BI@GAEFGDBL@UModSys?3?3libui?3?3IDialog?$AA@ 1002e930     plugin_test1.obj
 0002:00001948       ??_C@_0BH@JDBCAPMN@UModSys?3?3lib2d?3?3IImage?$AA@ 1002e948     plugin_test1.obj
 0002:00001960       ??_C@_0BO@GDIFOICC@UModSys?3?3lib2d?3?3IImageFactory?$AA@ 1002e960     plugin_test1.obj
 0002:00001980       ??_C@_0BM@NDCOKBPH@UModSys?3?3lib2d?3?3IMultiImage?$AA@ 1002e980     plugin_test1.obj
 0002:0000199c       ??_C@_0BO@FFPMHFPK@UModSys?3?3lib2d?3?3IRenderDriver?$AA@ 1002e99c     plugin_test1.obj
 0002:000019bc       ??_C@_0BI@HOGCFOFI@UModSys?3?3lib3d?3?3IObject?$AA@ 1002e9bc     plugin_test1.obj
 0002:000019d4       ??_C@_0BO@OMKEMMOP@UModSys?3?3lib3d?3?3IRenderObject?$AA@ 1002e9d4     plugin_test1.obj
 0002:000019f4       ??_C@_0BM@HHHFONDD@UModSys?3?3lib3d?3?3INodeObject?$AA@ 1002e9f4     plugin_test1.obj
 0002:00001a10       ??_C@_0BP@ODBFJMEP@UModSys?3?3lib3d?3?3ISharedLibrary?$AA@ 1002ea10     plugin_test1.obj
 0002:00001a30       ??_C@_0BK@GPNGDGIH@UModSys?3?3lib3d?3?3IRenderer?$AA@ 1002ea30     plugin_test1.obj
 0002:00001a4c       ??_C@_0BJ@PLFDFONK@UModSys?3?3lib3d?3?3ITexture?$AA@ 1002ea4c     plugin_test1.obj
 0002:00001a68       ??_C@_0BO@JNBEGHMD@UModSys?3?3lib3d?3?3ITextureCells?$AA@ 1002ea68     plugin_test1.obj
 0002:00001a88       ??_C@_0BN@NOBBOAEH@UModSys?3?3lib3d?3?3IVertexArray?$AA@ 1002ea88     plugin_test1.obj
 0002:00001aa8       ??_C@_0BO@LKKOMDBL@UModSys?3?3lib3d?3?3IRenderDriver?$AA@ 1002eaa8     plugin_test1.obj
 0002:00001ac8       ??_C@_0CG@DNABKNDD@UModSys?3?3modules?3?3test?3?3test1?3?3I@ 1002eac8     plugin_test1.obj
 0002:00001af0       ??_C@_0CG@FINIGFAH@UModSys?3?3modules?3?3test?3?3test1?3?3R@ 1002eaf0     plugin_test1.obj
 0002:00001b18       ??_C@_0CN@EFAOPDDB@UModSys?3?3modules?3?3test?3?3test1?3?3R@ 1002eb18     plugin_test1.obj
 0002:00001b48       ??_C@_0CM@LNHNHIJB@UModSys?3?3modules?3?3test?3?3test1?3?3R@ 1002eb48     plugin_test1.obj
 0002:00001b74       ??_C@_0BC@NIGGCDMG@RTest1_Shell?$CI?$CJ?5?$HL?6?$AA@ 1002eb74     plugin_test1.obj
 0002:00001b88       ??_C@_0DK@JIEMIEKA@UModSys?3?3modules?3?3test?3?3test1?3?3R@ 1002eb88     plugin_test1.obj
 0002:00001bc4       ??_C@_0CK@OICDGBDJ@?4?4?2?4?4?2?4?4?2src?2plugin?2test?2plugin_@ 1002ebc4     plugin_test1.obj
 0002:00001bf0       ??_C@_0BF@BMCPNMPN@?$HN?5?1?1?5RTest1_Shell?$CI?$CJ?6?$AA@ 1002ebf0     plugin_test1.obj
 0002:00001c08       ??_C@_0DL@OIAHAJF@UModSys?3?3modules?3?3test?3?3test1?3?3R@ 1002ec08     plugin_test1.obj
 0002:00001c44       ??_C@_0BB@MLDFLEML@?$HORTest1_Shell?$CI?$CJ?6?$AA@ 1002ec44     plugin_test1.obj
 0002:00001c58       ??_C@_0BJ@CCPCJEPP@RTest1_Shell?3?3connect?$CI?$CJ?6?$AA@ 1002ec58     plugin_test1.obj
 0002:00001c74       ??_C@_0BM@KBDBHLN@RTest1_Shell?3?3disconnect?$CI?$CJ?6?$AA@ 1002ec74     plugin_test1.obj
 0002:00001c90       ??_C@_0BI@PGLACHLJ@RTest1_Shell?3?3tick?$CI?$CFg?$CJ?6?$AA@ 1002ec90     plugin_test1.obj
 0002:00001ca8       ??_C@_0BM@JFIEEBE@RTest1_Shell?3?3command?$CI?$CD?$CFd?$CJ?6?$AA@ 1002eca8     plugin_test1.obj
 0002:00001cc4       ??_C@_00CNPNBAHC@?$AA@     1002ecc4     plugin_test1.obj
 0002:00001cc8       ??_C@_07OJGHGMNE@factory?$AA@ 1002ecc8     plugin_test1.obj
 0002:00001cd0       ??_C@_08BABJIOEM@filename?$AA@ 1002ecd0     plugin_test1.obj
 0002:00001cdc       ??_C@_06DJAMKFID@stream?$AA@ 1002ecdc     plugin_test1.obj
 0002:00001ce4       ??_C@_0O@IMJFODOA@lib2d?3?3IImage?$AA@ 1002ece4     plugin_test1.obj
 0002:00001cf4       ??_C@_0L@DIAMDLBM@ICollector?$AA@ 1002ecf4     plugin_test1.obj
 0002:00001d00       ??_C@_09MJHEMIHA@ITerminal?$AA@ 1002ed00     plugin_test1.obj
 0002:00001d0c       ??_C@_0BH@GMHJDKHE@?$FLKEY?4KEY?5?$CFd?0?$CFd?0?$CFd?0?$CFd?$FN?6?$AA@ 1002ed0c     plugin_test1.obj
 0002:00001d24       ??_C@_0P@DPHFCOMI@?$FLKEY?4TEXT?5?$CFs?$FN?6?$AA@ 1002ed24     plugin_test1.obj
 0002:00001d34       ??_C@_0CO@KGBDJAHA@?$FLMOUSE?5?$CFx?5B?$CFx?3?$CFd?5A?$CI?$CFd?0?$CFd?$CJ?5R?$CI?$CFd?0?$CF@ 1002ed34     plugin_test1.obj
 0002:00001d64       ??_C@_0BJ@OKPGIKIP@?$FLCOMMAND?5?$CFd?$EA?$CFp?5C?$CFd?5D?$CFd?$FN?6?$AA@ 1002ed64     plugin_test1.obj
 0002:00001d80       ??_C@_05IOMEMJEC@count?$AA@ 1002ed80     plugin_test1.obj
 0002:00001d88       ??_C@_02LBJNIHKO@dy?$AA@   1002ed88     plugin_test1.obj
 0002:00001d8c       ??_C@_04CIMGMMMG@text?$AA@ 1002ed8c     plugin_test1.obj
 0002:00001d94       ??_C@_08GCGILLNN@Item?5?$CD?$CFd?$AA@ 1002ed94     plugin_test1.obj
 0002:00001da0       ??_C@_0L@DPNPMJNC@Neocyr?4ttf?$AA@ 1002eda0     plugin_test1.obj
 0002:00001dac       ??_C@_09HPINFNJC@max_glyph?$AA@ 1002edac     plugin_test1.obj
 0002:00001db8       ??_C@_0BF@OHNOFNLO@?5?5error?5create?5font?6?$AA@ 1002edb8     plugin_test1.obj
 0002:00001dd0       ??_C@_0BK@EIEBINCJ@?5?5created?5font?3?5?$CFs?5?$DN?$DO?5?$CFp?6?$AA@ 1002edd0     plugin_test1.obj
 0002:00001dec       ??_C@_0CE@KNEEOFOA@?5?5error?5create?5IKeyboardControll@ 1002edec     plugin_test1.obj
 0002:00001e10       ??_C@_0CJ@OEBBFEFK@?5?5created?5IKeyboardController?3?5?$CF@ 1002ee10     plugin_test1.obj
 0002:00001e3c       ??_C@_0CB@NHAHJFLI@?5?5error?5create?5IMouseController?6@ 1002ee3c     plugin_test1.obj
 0002:00001e60       ??_C@_0CG@IKOBAIJ@?5?5created?5IMouseController?3?5?$CFs?5?$DN@ 1002ee60     plugin_test1.obj
 0002:00001e88       ??_C@_07BANDPJOM@caption?$AA@ 1002ee88     plugin_test1.obj
 0002:00001e90       ??_C@_0CE@HACAKFFL@?5?5not?5created?5lib2d?3?3IRenderDriv@ 1002ee90     plugin_test1.obj
 0002:00001eb4       ??_C@_0CK@INONFMOM@?5?5created?5lib2d?3?3IRenderDriver?3?5@ 1002eeb4     plugin_test1.obj
 0002:00001ee0       ??_C@_06NCODBMHO@driver?$AA@ 1002eee0     plugin_test1.obj
 0002:00001ee8       ??_C@_04EFPADHIC@font?$AA@ 1002eee8     plugin_test1.obj
 0002:00001ef0       ??_C@_0N@IGLHPLGK@?$CK?3?3frames?3?3?$CK?$AA@ 1002eef0     plugin_test1.obj
 0002:00001f00       ??_C@_05MIJNFGED@frame?$AA@ 1002ef00     plugin_test1.obj
 0002:00001f08       ??_C@_07OJKFJLLK@Caption?$AA@ 1002ef08     plugin_test1.obj
 0002:00001f10       ??_C@_08LLDNMFDF@Button?51?$AA@ 1002ef10     plugin_test1.obj
 0002:00001f1c       ??_C@_06HFKPFKMP@button?$AA@ 1002ef1c     plugin_test1.obj
 0002:00001f24       ??_C@_08JABAJGPG@Button?52?$AA@ 1002ef24     plugin_test1.obj
 0002:00001f30       ??_C@_08IJALKHLH@Button?53?$AA@ 1002ef30     plugin_test1.obj
 0002:00001f3c       ??_C@_05MFEJDJP@value?$AA@ 1002ef3c     plugin_test1.obj
 0002:00001f44       ??_C@_07GFFCACEC@max_len?$AA@ 1002ef44     plugin_test1.obj
 0002:00001f4c       ??_C@_04NABONMNG@edit?$AA@ 1002ef4c     plugin_test1.obj
 0002:00001f54       ??_C@_07PDLNCNLP@user_db?$AA@ 1002ef54     plugin_test1.obj
 0002:00001f5c       ??_C@_04DONFEANM@list?$AA@ 1002ef5c     plugin_test1.obj
 0002:00001f64       ??_C@_0N@GBNMEDNI@?$CK?3?3SDL_GL?3?3?$CK?$AA@ 1002ef64     plugin_test1.obj
 0002:00001f74       ??_C@_07EPLPNHLN@Test?5?$CD1?$AA@ 1002ef74     plugin_test1.obj
 0002:00001f7c       ??_C@_0CK@DEJPICLK@UModSys?3?3modules?3?3test?3?3test1?3?3R@ 1002ef7c     plugin_test1.obj
 0002:00001fa8       ??_C@_0BJ@NOFIIAEK@U_MOD?3?3RGenerator?3unique?$AA@ 1002efa8     plugin_test1.obj
 0002:00001fc4       ??_C@_0BA@NMEBLMNE@Test?51?5?9?5module?$AA@ 1002efc4     plugin_test1.obj
 0002:00001fd4       ??_C@_0N@FOCLJAHI@tests?3?3test1?$AA@ 1002efd4     plugin_test1.obj
 0002:00001fe4       ??_C@_0BE@HJEBHPIG@RModuleReg?3?3open?$CI?$CJ?6?$AA@ 1002efe4     plugin_test1.obj
 0002:00001ff8       ??_C@_0BF@KIBBFLP@RModuleReg?3?3close?$CI?$CJ?6?$AA@ 1002eff8     plugin_test1.obj
 0002:00002010       ??_C@_09JGNMLHG@modobject?$AA@ 1002f010     plugin_test1.obj
 0002:0000201c       ??_C@_08FCBDOIAH@typeinfo?$AA@ 1002f01c     plugin_test1.obj
 0002:00002028       ??_C@_0BI@HCJDLBPI@?5?5fail?5generate?5?$CFs?$CI?$CFs?$CJ?6?$AA@ 1002f028     plugin_test1.obj
 0002:00002040       ??_C@_0BE@IGLAGOMC@?5?5fail?5find?5?$CFs?$CI?$CFs?$CJ?6?$AA@ 1002f040     plugin_test1.obj
 0002:00002054       ??_C@_0BK@IGGNHCDJ@?5?5generated?5?$CFs?$CI?$CFs?$CJ?5?$DN?$DO?5?$CFp?6?$AA@ 1002f054     plugin_test1.obj
 0002:00002074       ??_7IRoot@core@UModSys@@6B@ 1002f074     plugin_test1.obj
 0002:00002098       ??_7ISetter@SFlags@libmedia@UModSys@@6B@ 1002f098     plugin_test1.obj
 0002:000020a8       ??_7IKeyboardClient@libui@UModSys@@6B@ 1002f0a8     plugin_test1.obj
 0002:000020b4       ??_7IMouseClient@libui@UModSys@@6B@ 1002f0b4     plugin_test1.obj
 0002:000020bc       ??_7IControllerData@libui@UModSys@@6B@ 1002f0bc     plugin_test1.obj
 0002:000020c8       ??_7IController@libui@UModSys@@6BIControllerCommand@12@@ 1002f0c8     plugin_test1.obj
 0002:000020d4       ??_7IController@libui@UModSys@@6BIControllerData@12@@ 1002f0d4     plugin_test1.obj
 0002:000020e4       ??_7RTest1_Shell@test1@test@modules@UModSys@@6BIShell@base@4@@ 1002f0e4     plugin_test1.obj
 0002:00002128       ??_7RTest1_Shell@test1@test@modules@UModSys@@6BIKeyboardClient@libui@4@@ 1002f128     plugin_test1.obj
 0002:00002134       ??_7RTest1_Shell@test1@test@modules@UModSys@@6BIMouseClient@libui@4@@ 1002f134     plugin_test1.obj
 0002:0000213c       ??_7RTest1_Shell@test1@test@modules@UModSys@@6BIControllerCommand@libui@4@@ 1002f13c     plugin_test1.obj
 0002:00002148       ??_7RTest1_Shell@test1@test@modules@UModSys@@6BIControllerData@libui@4@@ 1002f148     plugin_test1.obj
 0002:00002154       ??_7RGenerator@test1@test@modules@UModSys@@6B@ 1002f154     plugin_test1.obj
 0002:000021a4       ??_7RModuleReg@test1@test@modules@UModSys@@6B@ 1002f1a4     plugin_test1.obj
 0002:000021c0       ??_C@_0CP@CHDLGDD@UModSys?3?3modules?3?3lib2d?3?3stdlib?3@ 1002f1c0     umodsys_lib_lib2d:umodsys.mod.2d.stdlib.obj
 0002:000021f0       ??_C@_0DG@PPDKDFEE@UModSys?3?3modules?3?3lib2d?3?3stdlib?3@ 1002f1f0     umodsys_lib_lib2d:umodsys.mod.2d.stdlib.obj
 0002:00002228       ??_C@_0CN@LGOPIGAH@UModSys?3?3modules?3?3lib2d?3?3stdlib?3@ 1002f228     umodsys_lib_lib2d:umodsys.mod.2d.stdlib.obj
 0002:00002258       ??_C@_0CM@EIHKIMB@UModSys?3?3modules?3?3lib2d?3?3stdlib?3@ 1002f258     umodsys_lib_lib2d:umodsys.mod.2d.stdlib.obj
 0002:00002284       ??_C@_0O@ICMHAMOO@lib2d?3?3stdlib?$AA@ 1002f284     umodsys_lib_lib2d:umodsys.mod.2d.stdlib.obj
 0002:0000229c       ??_7RGenerator@stdlib@lib2d@modules@UModSys@@6B@ 1002f29c     umodsys_lib_lib2d:umodsys.mod.2d.stdlib.obj
 0002:000022ec       ??_7RImage_Memory@stdlib@lib2d@modules@UModSys@@6B@ 1002f2ec     umodsys_lib_lib2d:umodsys.mod.2d.stdlib.obj
 0002:0000233c       ??_7RImageFactory_Memory@stdlib@lib2d@modules@UModSys@@6B@ 1002f33c     umodsys_lib_lib2d:umodsys.mod.2d.stdlib.obj
 0002:0000237c       ??_7RMultiImage@stdlib@lib2d@modules@UModSys@@6B@ 1002f37c     umodsys_lib_lib2d:umodsys.mod.2d.stdlib.obj
 0002:000023e0       ??_7RModuleReg@stdlib@lib2d@modules@UModSys@@6B@ 1002f3e0     umodsys_lib_lib2d:umodsys.mod.2d.stdlib.obj
 0002:000023fc       ??_C@_07NBCGADJA@Unknown?$AA@ 1002f3fc     umodsys_lib_libui:umodsys.mod.ui.SDL_GL.obj
 0002:00002404       ??_C@_04HMPDNAFK@Draw?$AA@ 1002f404     umodsys_lib_libui:umodsys.mod.ui.SDL_GL.obj
 0002:0000240c       ??_C@_02LDEEJNBC@2D?$AA@   1002f40c     umodsys_lib_libui:umodsys.mod.ui.SDL_GL.obj
 0002:00002410       ??_C@_02LCIGPHCF@3D?$AA@   1002f410     umodsys_lib_libui:umodsys.mod.ui.SDL_GL.obj
 0002:00002414       ??_C@_03DBKJMAGF@End?$AA@  1002f414     umodsys_lib_libui:umodsys.mod.ui.SDL_GL.obj
 0002:00002418       ??_C@_05EHPGHEDK@Begin?$AA@ 1002f418     umodsys_lib_libui:umodsys.mod.ui.SDL_GL.obj
 0002:00002420       ??_C@_05NAOIJFC@Error?$AA@ 1002f420     umodsys_lib_libui:umodsys.mod.ui.SDL_GL.obj
 0002:00002428       ??_C@_04OHJIHAFH@None?$AA@ 1002f428     umodsys_lib_libui:umodsys.mod.ui.SDL_GL.obj
 0002:00002430       ??_C@_0DC@EKNFHMCM@UModSys?3?3modules?3?3ui?3?3SDL_GL?3?3RK@ 1002f430     umodsys_lib_libui:umodsys.mod.ui.SDL_GL.obj
 0002:00002464       ??_C@_0CP@COIDJLOH@UModSys?3?3modules?3?3ui?3?3SDL_GL?3?3RM@ 1002f464     umodsys_lib_libui:umodsys.mod.ui.SDL_GL.obj
 0002:00002494       ??_C@_0CI@JIGCCNFP@UModSys?3?3modules?3?3ui?3?3SDL_GL?3?3RT@ 1002f494     umodsys_lib_libui:umodsys.mod.ui.SDL_GL.obj
 0002:000024bc       ??_C@_0DE@FLBPCDKD@UModSys?3?3modules?3?3ui?3?3SDL_GL?3?3RM@ 1002f4bc     umodsys_lib_libui:umodsys.mod.ui.SDL_GL.obj
 0002:000024f0       ??_C@_0CO@EABOMHEJ@UModSys?3?3modules?3?3ui?3?3SDL_GL?3?3RR@ 1002f4f0     umodsys_lib_libui:umodsys.mod.ui.SDL_GL.obj
 0002:00002520       ??_C@_0CJ@IJCOPJBE@UModSys?3?3modules?3?3ui?3?3SDL_GL?3?3RT@ 1002f520     umodsys_lib_libui:umodsys.mod.ui.SDL_GL.obj
 0002:0000254c       ??_C@_0CL@PFCNMCOK@UModSys?3?3modules?3?3ui?3?3SDL_GL?3?3RV@ 1002f54c     umodsys_lib_libui:umodsys.mod.ui.SDL_GL.obj
 0002:00002578       ??_C@_0CJ@LMOHBJKJ@UModSys?3?3modules?3?3ui?3?3SDL_GL?3?3RG@ 1002f578     umodsys_lib_libui:umodsys.mod.ui.SDL_GL.obj
 0002:000025a4       ??_C@_04MGOIFCEG@SDL2?$AA@ 1002f5a4     umodsys_lib_libui:umodsys.mod.ui.SDL_GL.obj
 0002:000025ac       ??_C@_01FJMABOPO@x?$AA@    1002f5ac     umodsys_lib_libui:umodsys.mod.ui.SDL_GL.obj
 0002:000025b0       ??_C@_01EANLCPLP@y?$AA@    1002f5b0     umodsys_lib_libui:umodsys.mod.ui.SDL_GL.obj
 0002:000025b4       ??_C@_02KIIGLGOP@dx?$AA@   1002f5b4     umodsys_lib_libui:umodsys.mod.ui.SDL_GL.obj
 0002:000025b8       ??_C@_04IAGNFIBA@size?$AA@ 1002f5b8     umodsys_lib_libui:umodsys.mod.ui.SDL_GL.obj
 0002:000025c0       ??_C@_07CMIMECFO@xoffset?$AA@ 1002f5c0     umodsys_lib_libui:umodsys.mod.ui.SDL_GL.obj
 0002:000025c8       ??_C@_07OACGECMA@yoffset?$AA@ 1002f5c8     umodsys_lib_libui:umodsys.mod.ui.SDL_GL.obj
 0002:000025d0       ??_C@_05IGKADHGO@width?$AA@ 1002f5d0     umodsys_lib_libui:umodsys.mod.ui.SDL_GL.obj
 0002:000025d8       ??_C@_06LNLHEAAG@height?$AA@ 1002f5d8     umodsys_lib_libui:umodsys.mod.ui.SDL_GL.obj
 0002:000025e0       ??_C@_0CI@PICFILMJ@R3D?3?3?5can?8t?5go?5phase?5from?5?$FL?$CFs?$FN?5t@ 1002f5e0     umodsys_lib_libui:umodsys.mod.ui.SDL_GL.obj
 0002:00002608       ??_C@_0CK@CDAHJFJI@R3D?3?3?5can?8t?5use?5phase?5?$FL?$CFs?$FN?0?5requ@ 1002f608     umodsys_lib_libui:umodsys.mod.ui.SDL_GL.obj
 0002:00002634       ??_C@_04MDCOKCOB@?4ttf?$AA@ 1002f634     umodsys_lib_libui:umodsys.mod.ui.SDL_GL.obj
 0002:0000263c       ??_C@_0P@EFLGECIK@GL_VERSION_1_0?$AA@ 1002f63c     umodsys_lib_libui:umodsys.mod.ui.SDL_GL.obj
 0002:0000264c       ??_C@_0M@PFBKOKOH@glBlendFunc?$AA@ 1002f64c     umodsys_lib_libui:umodsys.mod.ui.SDL_GL.obj
 0002:00002658       ??_C@_0BC@HIGLIOCP@Error?5link?5?8?$CFs?8?4?6?$AA@ 1002f658     umodsys_lib_libui:umodsys.mod.ui.SDL_GL.obj
 0002:0000266c       ??_C@_07IBAPPAHJ@glClear?$AA@ 1002f66c     umodsys_lib_libui:umodsys.mod.ui.SDL_GL.obj
 0002:00002674       ??_C@_0N@OGLMDNKC@glClearColor?$AA@ 1002f674     umodsys_lib_libui:umodsys.mod.ui.SDL_GL.obj
 0002:00002684       ??_C@_0N@LJIELNG@glClearDepth?$AA@ 1002f684     umodsys_lib_libui:umodsys.mod.ui.SDL_GL.obj
 0002:00002694       ??_C@_0P@KBLPBBFP@glClearStencil?$AA@ 1002f694     umodsys_lib_libui:umodsys.mod.ui.SDL_GL.obj
 0002:000026a4       ??_C@_0M@DLGOAHPH@glColorMask?$AA@ 1002f6a4     umodsys_lib_libui:umodsys.mod.ui.SDL_GL.obj
 0002:000026b0       ??_C@_0L@BAPBLHME@glCullFace?$AA@ 1002f6b0     umodsys_lib_libui:umodsys.mod.ui.SDL_GL.obj
 0002:000026bc       ??_C@_0M@NEJABAEP@glDepthFunc?$AA@ 1002f6bc     umodsys_lib_libui:umodsys.mod.ui.SDL_GL.obj
 0002:000026c8       ??_C@_0M@KABMFLLN@glDepthMask?$AA@ 1002f6c8     umodsys_lib_libui:umodsys.mod.ui.SDL_GL.obj
 0002:000026d4       ??_C@_0N@PEBDIKOA@glDepthRange?$AA@ 1002f6d4     umodsys_lib_libui:umodsys.mod.ui.SDL_GL.obj
 0002:000026e4       ??_C@_09MHGMIMKN@glDisable?$AA@ 1002f6e4     umodsys_lib_libui:umodsys.mod.ui.SDL_GL.obj
 0002:000026f0       ??_C@_0N@EKCLGPL@glDrawBuffer?$AA@ 1002f6f0     umodsys_lib_libui:umodsys.mod.ui.SDL_GL.obj
 0002:00002700       ??_C@_08OOEHEKOP@glEnable?$AA@ 1002f700     umodsys_lib_libui:umodsys.mod.ui.SDL_GL.obj
 0002:0000270c       ??_C@_08DFCPOKBK@glFinish?$AA@ 1002f70c     umodsys_lib_libui:umodsys.mod.ui.SDL_GL.obj
 0002:00002718       ??_C@_07COFELLJA@glFlush?$AA@ 1002f718     umodsys_lib_libui:umodsys.mod.ui.SDL_GL.obj
 0002:00002720       ??_C@_0M@ILBMDJDA@glFrontFace?$AA@ 1002f720     umodsys_lib_libui:umodsys.mod.ui.SDL_GL.obj
 0002:0000272c       ??_C@_0O@NLMELLCJ@glGetBooleanv?$AA@ 1002f72c     umodsys_lib_libui:umodsys.mod.ui.SDL_GL.obj
 0002:0000273c       ??_C@_0N@OFBMMCDH@glGetDoublev?$AA@ 1002f73c     umodsys_lib_libui:umodsys.mod.ui.SDL_GL.obj
 0002:0000274c       ??_C@_0L@FPKAMKHB@glGetError?$AA@ 1002f74c     umodsys_lib_libui:umodsys.mod.ui.SDL_GL.obj
 0002:00002758       ??_C@_0M@CKCOBONE@glGetFloatv?$AA@ 1002f758     umodsys_lib_libui:umodsys.mod.ui.SDL_GL.obj
 0002:00002764       ??_C@_0O@DHHDCCLF@glGetIntegerv?$AA@ 1002f764     umodsys_lib_libui:umodsys.mod.ui.SDL_GL.obj
 0002:00002774       ??_C@_0M@OPOBFDCB@glGetString?$AA@ 1002f774     umodsys_lib_libui:umodsys.mod.ui.SDL_GL.obj
 0002:00002780       ??_C@_0O@DOIIJLAD@glGetTexImage?$AA@ 1002f780     umodsys_lib_libui:umodsys.mod.ui.SDL_GL.obj
 0002:00002790       ??_C@_0BJ@GAMLGIFF@glGetTexLevelParameterfv?$AA@ 1002f790     umodsys_lib_libui:umodsys.mod.ui.SDL_GL.obj
 0002:000027ac       ??_C@_0BJ@GLJHCPGI@glGetTexLevelParameteriv?$AA@ 1002f7ac     umodsys_lib_libui:umodsys.mod.ui.SDL_GL.obj
 0002:000027c8       ??_C@_0BE@DNHBPKMC@glGetTexParameterfv?$AA@ 1002f7c8     umodsys_lib_libui:umodsys.mod.ui.SDL_GL.obj
 0002:000027dc       ??_C@_0BE@DGCNLNPP@glGetTexParameteriv?$AA@ 1002f7dc     umodsys_lib_libui:umodsys.mod.ui.SDL_GL.obj
 0002:000027f0       ??_C@_06HEADGMBC@glHint?$AA@ 1002f7f0     umodsys_lib_libui:umodsys.mod.ui.SDL_GL.obj
 0002:000027f8       ??_C@_0M@INHMIHKC@glIsEnabled?$AA@ 1002f7f8     umodsys_lib_libui:umodsys.mod.ui.SDL_GL.obj
 0002:00002804       ??_C@_0M@CFLGNFPG@glLineWidth?$AA@ 1002f804     umodsys_lib_libui:umodsys.mod.ui.SDL_GL.obj
 0002:00002810       ??_C@_09GKGMNAKG@glLogicOp?$AA@ 1002f810     umodsys_lib_libui:umodsys.mod.ui.SDL_GL.obj
 0002:0000281c       ??_C@_0O@BFLAHHCK@glPixelStoref?$AA@ 1002f81c     umodsys_lib_libui:umodsys.mod.ui.SDL_GL.obj
 0002:0000282c       ??_C@_0O@JCCIGLOF@glPixelStorei?$AA@ 1002f82c     umodsys_lib_libui:umodsys.mod.ui.SDL_GL.obj
 0002:0000283c       ??_C@_0M@EEAPMMNM@glPointSize?$AA@ 1002f83c     umodsys_lib_libui:umodsys.mod.ui.SDL_GL.obj
 0002:00002848       ??_C@_0O@DKMNBFMB@glPolygonMode?$AA@ 1002f848     umodsys_lib_libui:umodsys.mod.ui.SDL_GL.obj
 0002:00002858       ??_C@_0N@HFKHBECK@glReadBuffer?$AA@ 1002f858     umodsys_lib_libui:umodsys.mod.ui.SDL_GL.obj
 0002:00002868       ??_C@_0N@CKFNNHOO@glReadPixels?$AA@ 1002f868     umodsys_lib_libui:umodsys.mod.ui.SDL_GL.obj
 0002:00002878       ??_C@_09ECGPAEPL@glScissor?$AA@ 1002f878     umodsys_lib_libui:umodsys.mod.ui.SDL_GL.obj
 0002:00002884       ??_C@_0O@ENNLLOLN@glStencilFunc?$AA@ 1002f884     umodsys_lib_libui:umodsys.mod.ui.SDL_GL.obj
 0002:00002894       ??_C@_0O@DJFHPFEP@glStencilMask?$AA@ 1002f894     umodsys_lib_libui:umodsys.mod.ui.SDL_GL.obj
 0002:000028a4       ??_C@_0M@BILBNGF@glStencilOp?$AA@ 1002f8a4     umodsys_lib_libui:umodsys.mod.ui.SDL_GL.obj
 0002:000028b0       ??_C@_0N@JDMMMFHL@glTexImage1D?$AA@ 1002f8b0     umodsys_lib_libui:umodsys.mod.ui.SDL_GL.obj
 0002:000028c0       ??_C@_0N@JBIKHLCC@glTexImage2D?$AA@ 1002f8c0     umodsys_lib_libui:umodsys.mod.ui.SDL_GL.obj
 0002:000028d0       ??_C@_0BA@INKFIMGP@glTexParameterf?$AA@ 1002f8d0     umodsys_lib_libui:umodsys.mod.ui.SDL_GL.obj
 0002:000028e0       ??_C@_0BB@KEOFAHDF@glTexParameterfv?$AA@ 1002f8e0     umodsys_lib_libui:umodsys.mod.ui.SDL_GL.obj
 0002:000028f4       ??_C@_0BA@KDNJAKA@glTexParameteri?$AA@ 1002f8f4     umodsys_lib_libui:umodsys.mod.ui.SDL_GL.obj
 0002:00002904       ??_C@_0BB@KPLJEAAI@glTexParameteriv?$AA@ 1002f904     umodsys_lib_libui:umodsys.mod.ui.SDL_GL.obj
 0002:00002918       ??_C@_0L@KBLIPDFH@glViewport?$AA@ 1002f918     umodsys_lib_libui:umodsys.mod.ui.SDL_GL.obj
 0002:00002924       ??_C@_0P@FMKNHDML@GL_VERSION_1_1?$AA@ 1002f924     umodsys_lib_libui:umodsys.mod.ui.SDL_GL.obj
 0002:00002934       ??_C@_0O@JKKCIBGC@glBindTexture?$AA@ 1002f934     umodsys_lib_libui:umodsys.mod.ui.SDL_GL.obj
 0002:00002944       ??_C@_0BB@MEEDBHPL@glCopyTexImage1D?$AA@ 1002f944     umodsys_lib_libui:umodsys.mod.ui.SDL_GL.obj
 0002:00002958       ??_C@_0BB@MGAFKJKC@glCopyTexImage2D?$AA@ 1002f958     umodsys_lib_libui:umodsys.mod.ui.SDL_GL.obj
 0002:0000296c       ??_C@_0BE@PKNCAIGI@glCopyTexSubImage1D?$AA@ 1002f96c     umodsys_lib_libui:umodsys.mod.ui.SDL_GL.obj
 0002:00002980       ??_C@_0BE@PIJELGDB@glCopyTexSubImage2D?$AA@ 1002f980     umodsys_lib_libui:umodsys.mod.ui.SDL_GL.obj
 0002:00002994       ??_C@_0BB@KMPLFJIC@glDeleteTextures?$AA@ 1002f994     umodsys_lib_libui:umodsys.mod.ui.SDL_GL.obj
 0002:000029a8       ??_C@_0N@CMNPPOHA@glDrawArrays?$AA@ 1002f9a8     umodsys_lib_libui:umodsys.mod.ui.SDL_GL.obj
 0002:000029b8       ??_C@_0P@MENFIFGE@glDrawElements?$AA@ 1002f9b8     umodsys_lib_libui:umodsys.mod.ui.SDL_GL.obj
 0002:000029c8       ??_C@_0O@LLMANLNK@glGenTextures?$AA@ 1002f9c8     umodsys_lib_libui:umodsys.mod.ui.SDL_GL.obj
 0002:000029d8       ??_C@_0M@NJHAEPDN@glIsTexture?$AA@ 1002f9d8     umodsys_lib_libui:umodsys.mod.ui.SDL_GL.obj
 0002:000029e4       ??_C@_0BA@FFBJGNC@glPolygonOffset?$AA@ 1002f9e4     umodsys_lib_libui:umodsys.mod.ui.SDL_GL.obj
 0002:000029f4       ??_C@_0BA@NFOOCKJD@glTexSubImage1D?$AA@ 1002f9f4     umodsys_lib_libui:umodsys.mod.ui.SDL_GL.obj
 0002:00002a04       ??_C@_0BA@NHKIJEMK@glTexSubImage2D?$AA@ 1002fa04     umodsys_lib_libui:umodsys.mod.ui.SDL_GL.obj
 0002:00002a14       ??_C@_0P@HHIACAAI@GL_VERSION_1_2?$AA@ 1002fa14     umodsys_lib_libui:umodsys.mod.ui.SDL_GL.obj
 0002:00002a24       ??_C@_0BE@PJFGNMAG@glCopyTexSubImage3D?$AA@ 1002fa24     umodsys_lib_libui:umodsys.mod.ui.SDL_GL.obj
 0002:00002a38       ??_C@_0BE@IHNAGJGJ@glDrawRangeElements?$AA@ 1002fa38     umodsys_lib_libui:umodsys.mod.ui.SDL_GL.obj
 0002:00002a4c       ??_C@_0N@JAEIBBBF@glTexImage3D?$AA@ 1002fa4c     umodsys_lib_libui:umodsys.mod.ui.SDL_GL.obj
 0002:00002a5c       ??_C@_0BA@NGGKPOPN@glTexSubImage3D?$AA@ 1002fa5c     umodsys_lib_libui:umodsys.mod.ui.SDL_GL.obj
 0002:00002a6c       ??_C@_0P@GOJLBBEJ@GL_VERSION_1_3?$AA@ 1002fa6c     umodsys_lib_libui:umodsys.mod.ui.SDL_GL.obj
 0002:00002a7c       ??_C@_0BA@KOBBIKOF@glActiveTexture?$AA@ 1002fa7c     umodsys_lib_libui:umodsys.mod.ui.SDL_GL.obj
 0002:00002a8c       ??_C@_0BH@GFPJBEAB@glCompressedTexImage1D?$AA@ 1002fa8c     umodsys_lib_libui:umodsys.mod.ui.SDL_GL.obj
 0002:00002aa4       ??_C@_0BH@GHLPKKFI@glCompressedTexImage2D?$AA@ 1002faa4     umodsys_lib_libui:umodsys.mod.ui.SDL_GL.obj
 0002:00002abc       ??_C@_0BH@GGHNMAGP@glCompressedTexImage3D?$AA@ 1002fabc     umodsys_lib_libui:umodsys.mod.ui.SDL_GL.obj
 0002:00002ad4       ??_C@_0BK@ECBIPHJO@glCompressedTexSubImage1D?$AA@ 1002fad4     umodsys_lib_libui:umodsys.mod.ui.SDL_GL.obj
 0002:00002af0       ??_C@_0BK@EAFOEJMH@glCompressedTexSubImage2D?$AA@ 1002faf0     umodsys_lib_libui:umodsys.mod.ui.SDL_GL.obj
 0002:00002b0c       ??_C@_0BK@EBJMCDPA@glCompressedTexSubImage3D?$AA@ 1002fb0c     umodsys_lib_libui:umodsys.mod.ui.SDL_GL.obj
 0002:00002b28       ??_C@_0BI@MPANLPPL@glGetCompressedTexImage?$AA@ 1002fb28     umodsys_lib_libui:umodsys.mod.ui.SDL_GL.obj
 0002:00002b40       ??_C@_0BB@BJGIPMOA@glSampleCoverage?$AA@ 1002fb40     umodsys_lib_libui:umodsys.mod.ui.SDL_GL.obj
 0002:00002b54       ??_C@_0P@CBNKIHIO@GL_VERSION_1_4?$AA@ 1002fb54     umodsys_lib_libui:umodsys.mod.ui.SDL_GL.obj
 0002:00002b64       ??_C@_0N@PKBMFJDK@glBlendColor?$AA@ 1002fb64     umodsys_lib_libui:umodsys.mod.ui.SDL_GL.obj
 0002:00002b74       ??_C@_0BA@PFHILPAN@glBlendEquation?$AA@ 1002fb74     umodsys_lib_libui:umodsys.mod.ui.SDL_GL.obj
 0002:00002b84       ??_C@_0BE@LLLCIIOO@glBlendFuncSeparate?$AA@ 1002fb84     umodsys_lib_libui:umodsys.mod.ui.SDL_GL.obj
 0002:00002b98       ??_C@_0BC@IBABPJFA@glMultiDrawArrays?$AA@ 1002fb98     umodsys_lib_libui:umodsys.mod.ui.SDL_GL.obj
 0002:00002bac       ??_C@_0BE@MPDFJJLL@glMultiDrawElements?$AA@ 1002fbac     umodsys_lib_libui:umodsys.mod.ui.SDL_GL.obj
 0002:00002bc0       ??_C@_0BC@FGOOEDO@glPointParameterf?$AA@ 1002fbc0     umodsys_lib_libui:umodsys.mod.ui.SDL_GL.obj
 0002:00002bd4       ??_C@_0BD@LIABKNDP@glPointParameterfv?$AA@ 1002fbd4     umodsys_lib_libui:umodsys.mod.ui.SDL_GL.obj
 0002:00002be8       ??_C@_0BC@ICPGPIPB@glPointParameteri?$AA@ 1002fbe8     umodsys_lib_libui:umodsys.mod.ui.SDL_GL.obj
 0002:00002bfc       ??_C@_0BD@LDFNOKAC@glPointParameteriv?$AA@ 1002fbfc     umodsys_lib_libui:umodsys.mod.ui.SDL_GL.obj
 0002:00002c10       ??_C@_0P@DIMBLGMP@GL_VERSION_1_5?$AA@ 1002fc10     umodsys_lib_libui:umodsys.mod.ui.SDL_GL.obj
 0002:00002c20       ??_C@_0N@GIAGIGPA@glBeginQuery?$AA@ 1002fc20     umodsys_lib_libui:umodsys.mod.ui.SDL_GL.obj
 0002:00002c30       ??_C@_0N@BONEPPLO@glBindBuffer?$AA@ 1002fc30     umodsys_lib_libui:umodsys.mod.ui.SDL_GL.obj
 0002:00002c40       ??_C@_0N@JHHJMABP@glBufferData?$AA@ 1002fc40     umodsys_lib_libui:umodsys.mod.ui.SDL_GL.obj
 0002:00002c50       ??_C@_0BA@GAJMDBBN@glBufferSubData?$AA@ 1002fc50     umodsys_lib_libui:umodsys.mod.ui.SDL_GL.obj
 0002:00002c60       ??_C@_0BA@DMNLADIO@glDeleteBuffers?$AA@ 1002fc60     umodsys_lib_libui:umodsys.mod.ui.SDL_GL.obj
 0002:00002c70       ??_C@_0BA@IOKEHMOH@glDeleteQueries?$AA@ 1002fc70     umodsys_lib_libui:umodsys.mod.ui.SDL_GL.obj
 0002:00002c80       ??_C@_0L@FLEBHIDM@glEndQuery?$AA@ 1002fc80     umodsys_lib_libui:umodsys.mod.ui.SDL_GL.obj
 0002:00002c8c       ??_C@_0N@LAOHBIBA@glGenBuffers?$AA@ 1002fc8c     umodsys_lib_libui:umodsys.mod.ui.SDL_GL.obj
 0002:00002c9c       ??_C@_0N@CJIGHHJ@glGenQueries?$AA@ 1002fc9c     umodsys_lib_libui:umodsys.mod.ui.SDL_GL.obj
 0002:00002cac       ??_C@_0BH@BMIEIFJP@glGetBufferParameteriv?$AA@ 1002fcac     umodsys_lib_libui:umodsys.mod.ui.SDL_GL.obj
 0002:00002cc4       ??_C@_0BE@KNJEIFMC@glGetBufferPointerv?$AA@ 1002fcc4     umodsys_lib_libui:umodsys.mod.ui.SDL_GL.obj
 0002:00002cd8       ??_C@_0BD@PNDAHMBO@glGetBufferSubData?$AA@ 1002fcd8     umodsys_lib_libui:umodsys.mod.ui.SDL_GL.obj
 0002:00002cec       ??_C@_0BD@KMBBCJID@glGetQueryObjectiv?$AA@ 1002fcec     umodsys_lib_libui:umodsys.mod.ui.SDL_GL.obj
 0002:00002d00       ??_C@_0BE@MNBBKJ@glGetQueryObjectuiv?$AA@ 1002fd00     umodsys_lib_libui:umodsys.mod.ui.SDL_GL.obj
 0002:00002d14       ??_C@_0N@BPACPFCI@glGetQueryiv?$AA@ 1002fd14     umodsys_lib_libui:umodsys.mod.ui.SDL_GL.obj
 0002:00002d24       ??_C@_0L@KFPDMKNG@glIsBuffer?$AA@ 1002fd24     umodsys_lib_libui:umodsys.mod.ui.SDL_GL.obj
 0002:00002d30       ??_C@_09CNNLCEBN@glIsQuery?$AA@ 1002fd30     umodsys_lib_libui:umodsys.mod.ui.SDL_GL.obj
 0002:00002d3c       ??_C@_0M@NNHDPACA@glMapBuffer?$AA@ 1002fd3c     umodsys_lib_libui:umodsys.mod.ui.SDL_GL.obj
 0002:00002d48       ??_C@_0O@OFGHBLEO@glUnmapBuffer?$AA@ 1002fd48     umodsys_lib_libui:umodsys.mod.ui.SDL_GL.obj
 0002:00002d58       ??_C@_0P@FHADONGE@GL_VERSION_2_0?$AA@ 1002fd58     umodsys_lib_libui:umodsys.mod.ui.SDL_GL.obj
 0002:00002d68       ??_C@_0P@LDMLEABL@glAttachShader?$AA@ 1002fd68     umodsys_lib_libui:umodsys.mod.ui.SDL_GL.obj
 0002:00002d78       ??_C@_0BF@MHKEFIHM@glBindAttribLocation?$AA@ 1002fd78     umodsys_lib_libui:umodsys.mod.ui.SDL_GL.obj
 0002:00002d90       ??_C@_0BI@JNHDNJAG@glBlendEquationSeparate?$AA@ 1002fd90     umodsys_lib_libui:umodsys.mod.ui.SDL_GL.obj
 0002:00002da8       ??_C@_0BA@DGIEGONF@glCompileShader?$AA@ 1002fda8     umodsys_lib_libui:umodsys.mod.ui.SDL_GL.obj
 0002:00002db8       ??_C@_0BA@FLKLHNKP@glCreateProgram?$AA@ 1002fdb8     umodsys_lib_libui:umodsys.mod.ui.SDL_GL.obj
 0002:00002dc8       ??_C@_0P@HGHBNC@glCreateShader?$AA@ 1002fdc8     umodsys_lib_libui:umodsys.mod.ui.SDL_GL.obj
 0002:00002dd8       ??_C@_0BA@NKGCDOPO@glDeleteProgram?$AA@ 1002fdd8     umodsys_lib_libui:umodsys.mod.ui.SDL_GL.obj
 0002:00002de8       ??_C@_0P@HHCDONAG@glDeleteShader?$AA@ 1002fde8     umodsys_lib_libui:umodsys.mod.ui.SDL_GL.obj
 0002:00002df8       ??_C@_0P@DJFJFCJL@glDetachShader?$AA@ 1002fdf8     umodsys_lib_libui:umodsys.mod.ui.SDL_GL.obj
 0002:00002e08       ??_C@_0BL@NKHLOFFF@glDisableVertexAttribArray?$AA@ 1002fe08     umodsys_lib_libui:umodsys.mod.ui.SDL_GL.obj
 0002:00002e24       ??_C@_0O@COHJKDBH@glDrawBuffers?$AA@ 1002fe24     umodsys_lib_libui:umodsys.mod.ui.SDL_GL.obj
 0002:00002e34       ??_C@_0BK@EHBAHNHE@glEnableVertexAttribArray?$AA@ 1002fe34     umodsys_lib_libui:umodsys.mod.ui.SDL_GL.obj
 0002:00002e50       ??_C@_0BC@MBALAOHF@glGetActiveAttrib?$AA@ 1002fe50     umodsys_lib_libui:umodsys.mod.ui.SDL_GL.obj
 0002:00002e64       ??_C@_0BD@NIMHLLKN@glGetActiveUniform?$AA@ 1002fe64     umodsys_lib_libui:umodsys.mod.ui.SDL_GL.obj
 0002:00002e78       ??_C@_0BF@GHMDGFEM@glGetAttachedShaders?$AA@ 1002fe78     umodsys_lib_libui:umodsys.mod.ui.SDL_GL.obj
 0002:00002e90       ??_C@_0BE@BEPGJDMM@glGetAttribLocation?$AA@ 1002fe90     umodsys_lib_libui:umodsys.mod.ui.SDL_GL.obj
 0002:00002ea4       ??_C@_0BE@DHGHAJFL@glGetProgramInfoLog?$AA@ 1002fea4     umodsys_lib_libui:umodsys.mod.ui.SDL_GL.obj
 0002:00002eb8       ??_C@_0P@FMMDFLCO@glGetProgramiv?$AA@ 1002feb8     umodsys_lib_libui:umodsys.mod.ui.SDL_GL.obj
 0002:00002ec8       ??_C@_0BD@GIABBCMO@glGetShaderInfoLog?$AA@ 1002fec8     umodsys_lib_libui:umodsys.mod.ui.SDL_GL.obj
 0002:00002edc       ??_C@_0BC@ELEIFJEL@glGetShaderSource?$AA@ 1002fedc     umodsys_lib_libui:umodsys.mod.ui.SDL_GL.obj
 0002:00002ef0       ??_C@_0O@JBDFPDMG@glGetShaderiv?$AA@ 1002fef0     umodsys_lib_libui:umodsys.mod.ui.SDL_GL.obj
 0002:00002f00       ??_C@_0BF@KIOPGICP@glGetUniformLocation?$AA@ 1002ff00     umodsys_lib_libui:umodsys.mod.ui.SDL_GL.obj
 0002:00002f18       ??_C@_0P@DFCJIBG@glGetUniformfv?$AA@ 1002ff18     umodsys_lib_libui:umodsys.mod.ui.SDL_GL.obj
 0002:00002f28       ??_C@_0P@IAONPCL@glGetUniformiv?$AA@ 1002ff28     umodsys_lib_libui:umodsys.mod.ui.SDL_GL.obj
 0002:00002f38       ??_C@_0BK@DOJMENLD@glGetVertexAttribPointerv?$AA@ 1002ff38     umodsys_lib_libui:umodsys.mod.ui.SDL_GL.obj
 0002:00002f54       ??_C@_0BE@HDPMJMIN@glGetVertexAttribdv?$AA@ 1002ff54     umodsys_lib_libui:umodsys.mod.ui.SDL_GL.obj
 0002:00002f68       ??_C@_0BE@HAHIEIOD@glGetVertexAttribfv?$AA@ 1002ff68     umodsys_lib_libui:umodsys.mod.ui.SDL_GL.obj
 0002:00002f7c       ??_C@_0BE@HLCEAPNO@glGetVertexAttribiv?$AA@ 1002ff7c     umodsys_lib_libui:umodsys.mod.ui.SDL_GL.obj
 0002:00002f90       ??_C@_0M@INLOJDGO@glIsProgram?$AA@ 1002ff90     umodsys_lib_libui:umodsys.mod.ui.SDL_GL.obj
 0002:00002f9c       ??_C@_0L@MDDLFIHC@glIsShader?$AA@ 1002ff9c     umodsys_lib_libui:umodsys.mod.ui.SDL_GL.obj
 0002:00002fa8       ??_C@_0O@PIOEEBPO@glLinkProgram?$AA@ 1002ffa8     umodsys_lib_libui:umodsys.mod.ui.SDL_GL.obj
 0002:00002fb8       ??_C@_0P@DFHCPFMO@glShaderSource?$AA@ 1002ffb8     umodsys_lib_libui:umodsys.mod.ui.SDL_GL.obj
 0002:00002fc8       ??_C@_0BG@FCMNCEIA@glStencilFuncSeparate?$AA@ 1002ffc8     umodsys_lib_libui:umodsys.mod.ui.SDL_GL.obj
 0002:00002fe0       ??_C@_0BG@MMKPIEJI@glStencilMaskSeparate?$AA@ 1002ffe0     umodsys_lib_libui:umodsys.mod.ui.SDL_GL.obj
 0002:00002ff8       ??_C@_0BE@GAPLDNGF@glStencilOpSeparate?$AA@ 1002fff8     umodsys_lib_libui:umodsys.mod.ui.SDL_GL.obj
 0002:0000300c       ??_C@_0M@MLICAPOF@glUniform1f?$AA@ 1003000c     umodsys_lib_libui:umodsys.mod.ui.SDL_GL.obj
 0002:00003018       ??_C@_0N@KJMOEKII@glUniform1fv?$AA@ 10030018     umodsys_lib_libui:umodsys.mod.ui.SDL_GL.obj
 0002:00003028       ??_C@_0M@EMBKBDCK@glUniform1i?$AA@ 10030028     umodsys_lib_libui:umodsys.mod.ui.SDL_GL.obj
 0002:00003034       ??_C@_0N@KCJCANLF@glUniform1iv?$AA@ 10030034     umodsys_lib_libui:umodsys.mod.ui.SDL_GL.obj
 0002:00003044       ??_C@_0M@MJMELBLM@glUniform2f?$AA@ 10030044     umodsys_lib_libui:umodsys.mod.ui.SDL_GL.obj
 0002:00003050       ??_C@_0N@LLHLOFGG@glUniform2fv?$AA@ 10030050     umodsys_lib_libui:umodsys.mod.ui.SDL_GL.obj
 0002:00003060       ??_C@_0M@EOFMKNHD@glUniform2i?$AA@ 10030060     umodsys_lib_libui:umodsys.mod.ui.SDL_GL.obj
 0002:0000306c       ??_C@_0N@LACHKCFL@glUniform2iv?$AA@ 1003006c     umodsys_lib_libui:umodsys.mod.ui.SDL_GL.obj
 0002:0000307c       ??_C@_0M@MIAGNLIL@glUniform3f?$AA@ 1003007c     umodsys_lib_libui:umodsys.mod.ui.SDL_GL.obj
 0002:00003088       ??_C@_0N@DMHICAD@glUniform3fv?$AA@ 10030088     umodsys_lib_libui:umodsys.mod.ui.SDL_GL.obj
 0002:00003098       ??_C@_0M@EPJOMHEE@glUniform3i?$AA@ 10030098     umodsys_lib_libui:umodsys.mod.ui.SDL_GL.obj
 0002:000030a4       ??_C@_0N@IJLMFDO@glUniform3iv?$AA@ 100300a4     umodsys_lib_libui:umodsys.mod.ui.SDL_GL.obj
 0002:000030b4       ??_C@_0M@MNEJMNAO@glUniform4f?$AA@ 100300b4     umodsys_lib_libui:umodsys.mod.ui.SDL_GL.obj
 0002:000030c0       ??_C@_0N@JOBALKLK@glUniform4fv?$AA@ 100300c0     umodsys_lib_libui:umodsys.mod.ui.SDL_GL.obj
 0002:000030d0       ??_C@_0M@EKNBNBMB@glUniform4i?$AA@ 100300d0     umodsys_lib_libui:umodsys.mod.ui.SDL_GL.obj
 0002:000030dc       ??_C@_0N@JFEMPNIH@glUniform4iv?$AA@ 100300dc     umodsys_lib_libui:umodsys.mod.ui.SDL_GL.obj
 0002:000030ec       ??_C@_0BD@JIBJELHD@glUniformMatrix2fv?$AA@ 100300ec     umodsys_lib_libui:umodsys.mod.ui.SDL_GL.obj
 0002:00003100       ??_C@_0BD@CAKFCMBG@glUniformMatrix3fv?$AA@ 10030100     umodsys_lib_libui:umodsys.mod.ui.SDL_GL.obj
 0002:00003114       ??_C@_0BD@LNHCBEKP@glUniformMatrix4fv?$AA@ 10030114     umodsys_lib_libui:umodsys.mod.ui.SDL_GL.obj
 0002:00003128       ??_C@_0N@ICBDHBI@glUseProgram?$AA@ 10030128     umodsys_lib_libui:umodsys.mod.ui.SDL_GL.obj
 0002:00003138       ??_C@_0BC@MAPGDLJK@glValidateProgram?$AA@ 10030138     umodsys_lib_libui:umodsys.mod.ui.SDL_GL.obj
 0002:0000314c       ??_C@_0BB@PIOLPNPC@glVertexAttrib1d?$AA@ 1003014c     umodsys_lib_libui:umodsys.mod.ui.SDL_GL.obj
 0002:00003160       ??_C@_0BC@CKCOKGLN@glVertexAttrib1dv?$AA@ 10030160     umodsys_lib_libui:umodsys.mod.ui.SDL_GL.obj
 0002:00003174       ??_C@_0BB@MKNNJPHA@glVertexAttrib1f?$AA@ 10030174     umodsys_lib_libui:umodsys.mod.ui.SDL_GL.obj
 0002:00003188       ??_C@_0BC@CJKKHCND@glVertexAttrib1fv?$AA@ 10030188     umodsys_lib_libui:umodsys.mod.ui.SDL_GL.obj
 0002:0000319c       ??_C@_0BB@PNGIHJGE@glVertexAttrib1s?$AA@ 1003019c     umodsys_lib_libui:umodsys.mod.ui.SDL_GL.obj
 0002:000031b0       ??_C@_0BC@DDEHBDEI@glVertexAttrib1sv?$AA@ 100301b0     umodsys_lib_libui:umodsys.mod.ui.SDL_GL.obj
 0002:000031c4       ??_C@_0BB@PKKNEDKL@glVertexAttrib2d?$AA@ 100301c4     umodsys_lib_libui:umodsys.mod.ui.SDL_GL.obj
 0002:000031d8       ??_C@_0BC@DIJLAJFD@glVertexAttrib2dv?$AA@ 100301d8     umodsys_lib_libui:umodsys.mod.ui.SDL_GL.obj
 0002:000031ec       ??_C@_0BB@MIJLCBCJ@glVertexAttrib2f?$AA@ 100301ec     umodsys_lib_libui:umodsys.mod.ui.SDL_GL.obj
 0002:00003200       ??_C@_0BC@DLBPNNDN@glVertexAttrib2fv?$AA@ 10030200     umodsys_lib_libui:umodsys.mod.ui.SDL_GL.obj
 0002:00003214       ??_C@_0BB@PPCOMHDN@glVertexAttrib2s?$AA@ 10030214     umodsys_lib_libui:umodsys.mod.ui.SDL_GL.obj
 0002:00003228       ??_C@_0BC@CBPCLMKG@glVertexAttrib2sv?$AA@ 10030228     umodsys_lib_libui:umodsys.mod.ui.SDL_GL.obj
 0002:0000323c       ??_C@_0BB@PLGPCJJM@glVertexAttrib3d?$AA@ 1003023c     umodsys_lib_libui:umodsys.mod.ui.SDL_GL.obj
 0002:00003250       ??_C@_0BC@IACHGODG@glVertexAttrib3dv?$AA@ 10030250     umodsys_lib_libui:umodsys.mod.ui.SDL_GL.obj
 0002:00003264       ??_C@_0BB@MJFJELBO@glVertexAttrib3f?$AA@ 10030264     umodsys_lib_libui:umodsys.mod.ui.SDL_GL.obj
 0002:00003278       ??_C@_0BC@IDKDLKFI@glVertexAttrib3fv?$AA@ 10030278     umodsys_lib_libui:umodsys.mod.ui.SDL_GL.obj
 0002:0000328c       ??_C@_0BB@POOMKNAK@glVertexAttrib3s?$AA@ 1003028c     umodsys_lib_libui:umodsys.mod.ui.SDL_GL.obj
 0002:000032a0       ??_C@_0BC@JJEONLMD@glVertexAttrib3sv?$AA@ 100302a0     umodsys_lib_libui:umodsys.mod.ui.SDL_GL.obj
 0002:000032b4       ??_C@_0BD@NANPPEGB@glVertexAttrib4Nbv?$AA@ 100302b4     umodsys_lib_libui:umodsys.mod.ui.SDL_GL.obj
 0002:000032c8       ??_C@_0BD@NMIKBLIA@glVertexAttrib4Niv?$AA@ 100302c8     umodsys_lib_libui:umodsys.mod.ui.SDL_GL.obj
 0002:000032dc       ??_C@_0BD@MNDLDNCG@glVertexAttrib4Nsv?$AA@ 100302dc     umodsys_lib_libui:umodsys.mod.ui.SDL_GL.obj
 0002:000032f0       ??_C@_0BD@OHBIJGMB@glVertexAttrib4Nub?$AA@ 100302f0     umodsys_lib_libui:umodsys.mod.ui.SDL_GL.obj
 0002:00003304       ??_C@_0BE@JFOBDEMA@glVertexAttrib4Nubv?$AA@ 10030304     umodsys_lib_libui:umodsys.mod.ui.SDL_GL.obj
 0002:00003318       ??_C@_0BE@JJLENLCB@glVertexAttrib4Nuiv?$AA@ 10030318     umodsys_lib_libui:umodsys.mod.ui.SDL_GL.obj
 0002:0000332c       ??_C@_0BE@IIAFPNIH@glVertexAttrib4Nusv?$AA@ 1003032c     umodsys_lib_libui:umodsys.mod.ui.SDL_GL.obj
 0002:00003340       ??_C@_0BC@BJHNCKDN@glVertexAttrib4bv?$AA@ 10030340     umodsys_lib_libui:umodsys.mod.ui.SDL_GL.obj
 0002:00003354       ??_C@_0BB@POCADPBJ@glVertexAttrib4d?$AA@ 10030354     umodsys_lib_libui:umodsys.mod.ui.SDL_GL.obj
 0002:00003368       ??_C@_0BC@BNPAFGIP@glVertexAttrib4dv?$AA@ 10030368     umodsys_lib_libui:umodsys.mod.ui.SDL_GL.obj
 0002:0000337c       ??_C@_0BB@MMBGFNJL@glVertexAttrib4f?$AA@ 1003037c     umodsys_lib_libui:umodsys.mod.ui.SDL_GL.obj
 0002:00003390       ??_C@_0BC@BOHEICOB@glVertexAttrib4fv?$AA@ 10030390     umodsys_lib_libui:umodsys.mod.ui.SDL_GL.obj
 0002:000033a4       ??_C@_0BC@BFCIMFNM@glVertexAttrib4iv?$AA@ 100303a4     umodsys_lib_libui:umodsys.mod.ui.SDL_GL.obj
 0002:000033b8       ??_C@_0BB@PLKDLLIP@glVertexAttrib4s?$AA@ 100303b8     umodsys_lib_libui:umodsys.mod.ui.SDL_GL.obj
 0002:000033cc       ??_C@_0BC@EJJODHK@glVertexAttrib4sv?$AA@ 100303cc     umodsys_lib_libui:umodsys.mod.ui.SDL_GL.obj
 0002:000033e0       ??_C@_0BD@PHPFILMB@glVertexAttrib4ubv?$AA@ 100303e0     umodsys_lib_libui:umodsys.mod.ui.SDL_GL.obj
 0002:000033f4       ??_C@_0BD@PLKAGECA@glVertexAttrib4uiv?$AA@ 100303f4     umodsys_lib_libui:umodsys.mod.ui.SDL_GL.obj
 0002:00003408       ??_C@_0BD@OKBBECIG@glVertexAttrib4usv?$AA@ 10030408     umodsys_lib_libui:umodsys.mod.ui.SDL_GL.obj
 0002:0000341c       ??_C@_0BG@JPNNNPKG@glVertexAttribPointer?$AA@ 1003041c     umodsys_lib_libui:umodsys.mod.ui.SDL_GL.obj
 0002:00003434       ??_C@_0P@EOBINMCF@GL_VERSION_2_1?$AA@ 10030434     umodsys_lib_libui:umodsys.mod.ui.SDL_GL.obj
 0002:00003444       ??_C@_0BF@KDDJMCDK@glUniformMatrix2x3fv?$AA@ 10030444     umodsys_lib_libui:umodsys.mod.ui.SDL_GL.obj
 0002:0000345c       ??_C@_0BF@DOOOPKID@glUniformMatrix2x4fv?$AA@ 1003045c     umodsys_lib_libui:umodsys.mod.ui.SDL_GL.obj
 0002:00003474       ??_C@_0BF@NANJHGPK@glUniformMatrix3x2fv?$AA@ 10030474     umodsys_lib_libui:umodsys.mod.ui.SDL_GL.obj
 0002:0000348c       ??_C@_0BF@PFLCCJCG@glUniformMatrix3x4fv?$AA@ 1003048c     umodsys_lib_libui:umodsys.mod.ui.SDL_GL.obj
 0002:000034a4       ??_C@_0BF@MNNMEGEC@glUniformMatrix4x2fv?$AA@ 100304a4     umodsys_lib_libui:umodsys.mod.ui.SDL_GL.obj
 0002:000034bc       ??_C@_0BF@HFGACBCH@glUniformMatrix4x3fv?$AA@ 100304bc     umodsys_lib_libui:umodsys.mod.ui.SDL_GL.obj
 0002:000034d4       ??_C@_0P@OPLPIKAB@GL_VERSION_3_0?$AA@ 100304d4     umodsys_lib_libui:umodsys.mod.ui.SDL_GL.obj
 0002:000034e4       ??_C@_0BJ@EHEPIEPF@glBeginConditionalRender?$AA@ 100304e4     umodsys_lib_libui:umodsys.mod.ui.SDL_GL.obj
 0002:00003500       ??_C@_0BJ@FHJKOECC@glBeginTransformFeedback?$AA@ 10030500     umodsys_lib_libui:umodsys.mod.ui.SDL_GL.obj
 0002:0000351c       ??_C@_0BB@LDPKOCJI@glBindBufferBase?$AA@ 1003051c     umodsys_lib_libui:umodsys.mod.ui.SDL_GL.obj
 0002:00003530       ??_C@_0BC@EEMMCHMB@glBindBufferRange?$AA@ 10030530     umodsys_lib_libui:umodsys.mod.ui.SDL_GL.obj
 0002:00003544       ??_C@_0BH@DLJLAGBA@glBindFragDataLocation?$AA@ 10030544     umodsys_lib_libui:umodsys.mod.ui.SDL_GL.obj
 0002:0000355c       ??_C@_0BC@CJMIBNO@glBindFramebuffer?$AA@ 1003055c     umodsys_lib_libui:umodsys.mod.ui.SDL_GL.obj
 0002:00003570       ??_C@_0BD@EPOPJGFA@glBindRenderbuffer?$AA@ 10030570     umodsys_lib_libui:umodsys.mod.ui.SDL_GL.obj
 0002:00003584       ??_C@_0BC@LHBAHFAN@glBindVertexArray?$AA@ 10030584     umodsys_lib_libui:umodsys.mod.ui.SDL_GL.obj
 0002:00003598       ??_C@_0BC@OANBDDEP@glBlitFramebuffer?$AA@ 10030598     umodsys_lib_libui:umodsys.mod.ui.SDL_GL.obj
 0002:000035ac       ??_C@_0BJ@GIOLHEAD@glCheckFramebufferStatus?$AA@ 100305ac     umodsys_lib_libui:umodsys.mod.ui.SDL_GL.obj
 0002:000035c8       ??_C@_0N@HLGAGIMI@glClampColor?$AA@ 100305c8     umodsys_lib_libui:umodsys.mod.ui.SDL_GL.obj
 0002:000035d8       ??_C@_0BA@OACPENCO@glClearBufferfi?$AA@ 100305d8     umodsys_lib_libui:umodsys.mod.ui.SDL_GL.obj
 0002:000035e8       ??_C@_0BA@CNHFEDLA@glClearBufferfv?$AA@ 100305e8     umodsys_lib_libui:umodsys.mod.ui.SDL_GL.obj
 0002:000035f8       ??_C@_0BA@CGCJAEIN@glClearBufferiv?$AA@ 100305f8     umodsys_lib_libui:umodsys.mod.ui.SDL_GL.obj
 0002:00003608       ??_C@_0BB@OHPPAEID@glClearBufferuiv?$AA@ 10030608     umodsys_lib_libui:umodsys.mod.ui.SDL_GL.obj
 0002:0000361c       ??_C@_0N@JHNNNJFG@glColorMaski?$AA@ 1003061c     umodsys_lib_libui:umodsys.mod.ui.SDL_GL.obj
 0002:0000362c       ??_C@_0BF@DJNJENP@glDeleteFramebuffers?$AA@ 1003062c     umodsys_lib_libui:umodsys.mod.ui.SDL_GL.obj
 0002:00003644       ??_C@_0BG@KKOKEJDE@glDeleteRenderbuffers?$AA@ 10030644     umodsys_lib_libui:umodsys.mod.ui.SDL_GL.obj
 0002:0000365c       ??_C@_0BF@BMPCJLEF@glDeleteVertexArrays?$AA@ 1003065c     umodsys_lib_libui:umodsys.mod.ui.SDL_GL.obj
 0002:00003674       ??_C@_0L@BMJPGDDH@glDisablei?$AA@ 10030674     umodsys_lib_libui:umodsys.mod.ui.SDL_GL.obj
 0002:00003680       ??_C@_09IEGEGIEN@glEnablei?$AA@ 10030680     umodsys_lib_libui:umodsys.mod.ui.SDL_GL.obj
 0002:0000368c       ??_C@_0BH@KCIOLNMA@glEndConditionalRender?$AA@ 1003068c     umodsys_lib_libui:umodsys.mod.ui.SDL_GL.obj
 0002:000036a4       ??_C@_0BH@LCFLNNBH@glEndTransformFeedback?$AA@ 100306a4     umodsys_lib_libui:umodsys.mod.ui.SDL_GL.obj
 0002:000036bc       ??_C@_0BJ@NCDMGHKF@glFlushMappedBufferRange?$AA@ 100306bc     umodsys_lib_libui:umodsys.mod.ui.SDL_GL.obj
 0002:000036d8       ??_C@_0BK@OJDINAOA@glFramebufferRenderbuffer?$AA@ 100306d8     umodsys_lib_libui:umodsys.mod.ui.SDL_GL.obj
 0002:000036f4       ??_C@_0BH@JAMDNNBM@glFramebufferTexture1D?$AA@ 100306f4     umodsys_lib_libui:umodsys.mod.ui.SDL_GL.obj
 0002:0000370c       ??_C@_0BH@JCIFGDEF@glFramebufferTexture2D?$AA@ 1003070c     umodsys_lib_libui:umodsys.mod.ui.SDL_GL.obj
 0002:00003724       ??_C@_0BH@JDEHAJHC@glFramebufferTexture3D?$AA@ 10030724     umodsys_lib_libui:umodsys.mod.ui.SDL_GL.obj
 0002:0000373c       ??_C@_0BK@NIHIDBBO@glFramebufferTextureLayer?$AA@ 1003073c     umodsys_lib_libui:umodsys.mod.ui.SDL_GL.obj
 0002:00003758       ??_C@_0BC@FAPEBGID@glGenFramebuffers?$AA@ 10030758     umodsys_lib_libui:umodsys.mod.ui.SDL_GL.obj
 0002:0000376c       ??_C@_0BD@MIGEDNGJ@glGenRenderbuffers?$AA@ 1003076c     umodsys_lib_libui:umodsys.mod.ui.SDL_GL.obj
 0002:00003780       ??_C@_0BC@EPJLBJBJ@glGenVertexArrays?$AA@ 10030780     umodsys_lib_libui:umodsys.mod.ui.SDL_GL.obj
 0002:00003794       ??_C@_0BB@BHNIMGDM@glGenerateMipmap?$AA@ 10030794     umodsys_lib_libui:umodsys.mod.ui.SDL_GL.obj
 0002:000037a8       ??_C@_0BA@OAKNOBP@glGetBooleani_v?$AA@ 100307a8     umodsys_lib_libui:umodsys.mod.ui.SDL_GL.obj
 0002:000037b8       ??_C@_0BG@NDOIGAMC@glGetFragDataLocation?$AA@ 100307b8     umodsys_lib_libui:umodsys.mod.ui.SDL_GL.obj
 0002:000037d0       ??_C@_0CG@KLDGJEON@glGetFramebufferAttachmentParame@ 100307d0     umodsys_lib_libui:umodsys.mod.ui.SDL_GL.obj
 0002:000037f8       ??_C@_0BA@FKCNNMFO@glGetIntegeri_v?$AA@ 100307f8     umodsys_lib_libui:umodsys.mod.ui.SDL_GL.obj
 0002:00003808       ??_C@_0BN@FGKAECKO@glGetRenderbufferParameteriv?$AA@ 10030808     umodsys_lib_libui:umodsys.mod.ui.SDL_GL.obj
 0002:00003828       ??_C@_0N@PILJCBOD@glGetStringi?$AA@ 10030828     umodsys_lib_libui:umodsys.mod.ui.SDL_GL.obj
 0002:00003838       ??_C@_0BF@ODBJFHDD@glGetTexParameterIiv?$AA@ 10030838     umodsys_lib_libui:umodsys.mod.ui.SDL_GL.obj
 0002:00003850       ??_C@_0BG@MLODKKFL@glGetTexParameterIuiv?$AA@ 10030850     umodsys_lib_libui:umodsys.mod.ui.SDL_GL.obj
 0002:00003868       ??_C@_0BO@ODFLPNG@glGetTransformFeedbackVarying?$AA@ 10030868     umodsys_lib_libui:umodsys.mod.ui.SDL_GL.obj
 0002:00003888       ??_C@_0BA@NIGECFIF@glGetUniformuiv?$AA@ 10030888     umodsys_lib_libui:umodsys.mod.ui.SDL_GL.obj
 0002:00003898       ??_C@_0BF@KPDNEONP@glGetVertexAttribIiv?$AA@ 10030898     umodsys_lib_libui:umodsys.mod.ui.SDL_GL.obj
 0002:000038b0       ??_C@_0BG@GCBDCABB@glGetVertexAttribIuiv?$AA@ 100308b0     umodsys_lib_libui:umodsys.mod.ui.SDL_GL.obj
 0002:000038c8       ??_C@_0N@IMGKGOKN@glIsEnabledi?$AA@ 100308c8     umodsys_lib_libui:umodsys.mod.ui.SDL_GL.obj
 0002:000038d8       ??_C@_0BA@FGBIJCNH@glIsFramebuffer?$AA@ 100308d8     umodsys_lib_libui:umodsys.mod.ui.SDL_GL.obj
 0002:000038e8       ??_C@_0BB@DGGHKKOH@glIsRenderbuffer?$AA@ 100308e8     umodsys_lib_libui:umodsys.mod.ui.SDL_GL.obj
 0002:000038fc       ??_C@_0BA@ODJEGGAE@glIsVertexArray?$AA@ 100308fc     umodsys_lib_libui:umodsys.mod.ui.SDL_GL.obj
 0002:0000390c       ??_C@_0BB@EOHJGBIO@glMapBufferRange?$AA@ 1003090c     umodsys_lib_libui:umodsys.mod.ui.SDL_GL.obj
 0002:00003920       ??_C@_0BG@EOIILGMJ@glRenderbufferStorage?$AA@ 10030920     umodsys_lib_libui:umodsys.mod.ui.SDL_GL.obj
 0002:00003938       ??_C@_0CB@HNONLGJE@glRenderbufferStorageMultisample@ 10030938     umodsys_lib_libui:umodsys.mod.ui.SDL_GL.obj
 0002:0000395c       ??_C@_0BC@MAFJKEHB@glTexParameterIiv?$AA@ 1003095c     umodsys_lib_libui:umodsys.mod.ui.SDL_GL.obj
 0002:00003970       ??_C@_0BD@FDBCMKBE@glTexParameterIuiv?$AA@ 10030970     umodsys_lib_libui:umodsys.mod.ui.SDL_GL.obj
 0002:00003984       ??_C@_0BM@IJFAKBEF@glTransformFeedbackVaryings?$AA@ 10030984     umodsys_lib_libui:umodsys.mod.ui.SDL_GL.obj
 0002:000039a0       ??_C@_0N@HKPEFJDP@glUniform1ui?$AA@ 100309a0     umodsys_lib_libui:umodsys.mod.ui.SDL_GL.obj
 0002:000039b0       ??_C@_0O@MPHJAHBE@glUniform1uiv?$AA@ 100309b0     umodsys_lib_libui:umodsys.mod.ui.SDL_GL.obj
 0002:000039c0       ??_C@_0N@GIEBPGNB@glUniform2ui?$AA@ 100309c0     umodsys_lib_libui:umodsys.mod.ui.SDL_GL.obj
 0002:000039d0       ??_C@_0O@IINJHNME@glUniform2uiv?$AA@ 100309d0     umodsys_lib_libui:umodsys.mod.ui.SDL_GL.obj
 0002:000039e0       ??_C@_0N@NAPNJBLE@glUniform3ui?$AA@ 100309e0     umodsys_lib_libui:umodsys.mod.ui.SDL_GL.obj
 0002:000039f0       ??_C@_0O@LFLJFEHE@glUniform3uiv?$AA@ 100309f0     umodsys_lib_libui:umodsys.mod.ui.SDL_GL.obj
 0002:00003a00       ??_C@_0N@ENCKKJAN@glUniform4ui?$AA@ 10030a00     umodsys_lib_libui:umodsys.mod.ui.SDL_GL.obj
 0002:00003a10       ??_C@_0O@HJJIIGE@glUniform4uiv?$AA@ 10030a10     umodsys_lib_libui:umodsys.mod.ui.SDL_GL.obj
 0002:00003a20       ??_C@_0BC@CDIIMMAL@glVertexAttribI1i?$AA@ 10030a20     umodsys_lib_libui:umodsys.mod.ui.SDL_GL.obj
 0002:00003a34       ??_C@_0BD@OOJEIPDE@glVertexAttribI1iv?$AA@ 10030a34     umodsys_lib_libui:umodsys.mod.ui.SDL_GL.obj
 0002:00003a48       ??_C@_0BD@DGPCNLLO@glVertexAttribI1ui?$AA@ 10030a48     umodsys_lib_libui:umodsys.mod.ui.SDL_GL.obj
 0002:00003a5c       ??_C@_0BE@FFIKLCCA@glVertexAttribI1uiv?$AA@ 10030a5c     umodsys_lib_libui:umodsys.mod.ui.SDL_GL.obj
 0002:00003a70       ??_C@_0BC@CBMOHCFC@glVertexAttribI2i?$AA@ 10030a70     umodsys_lib_libui:umodsys.mod.ui.SDL_GL.obj
 0002:00003a84       ??_C@_0BD@PMCBCANK@glVertexAttribI2iv?$AA@ 10030a84     umodsys_lib_libui:umodsys.mod.ui.SDL_GL.obj
 0002:00003a98       ??_C@_0BD@CEEHHEFA@glVertexAttribI2ui?$AA@ 10030a98     umodsys_lib_libui:umodsys.mod.ui.SDL_GL.obj
 0002:00003aac       ??_C@_0BE@BCCKMIPA@glVertexAttribI2uiv?$AA@ 10030aac     umodsys_lib_libui:umodsys.mod.ui.SDL_GL.obj
 0002:00003ac0       ??_C@_0BC@CAAMBIGF@glVertexAttribI3i?$AA@ 10030ac0     umodsys_lib_libui:umodsys.mod.ui.SDL_GL.obj
 0002:00003ad4       ??_C@_0BD@EEJNEHLP@glVertexAttribI3iv?$AA@ 10030ad4     umodsys_lib_libui:umodsys.mod.ui.SDL_GL.obj
 0002:00003ae8       ??_C@_0BD@JMPLBDDF@glVertexAttribI3ui?$AA@ 10030ae8     umodsys_lib_libui:umodsys.mod.ui.SDL_GL.obj
 0002:00003afc       ??_C@_0BE@CPEKOBEA@glVertexAttribI3uiv?$AA@ 10030afc     umodsys_lib_libui:umodsys.mod.ui.SDL_GL.obj
 0002:00003b10       ??_C@_0BD@NFBPJAOH@glVertexAttribI4bv?$AA@ 10030b10     umodsys_lib_libui:umodsys.mod.ui.SDL_GL.obj
 0002:00003b24       ??_C@_0BC@CFEDAOOA@glVertexAttribI4i?$AA@ 10030b24     umodsys_lib_libui:umodsys.mod.ui.SDL_GL.obj
 0002:00003b38       ??_C@_0BD@NJEKHPAG@glVertexAttribI4iv?$AA@ 10030b38     umodsys_lib_libui:umodsys.mod.ui.SDL_GL.obj
 0002:00003b4c       ??_C@_0BD@MIPLFJKA@glVertexAttribI4sv?$AA@ 10030b4c     umodsys_lib_libui:umodsys.mod.ui.SDL_GL.obj
 0002:00003b60       ??_C@_0BE@JBDPNCLB@glVertexAttribI4ubv?$AA@ 10030b60     umodsys_lib_libui:umodsys.mod.ui.SDL_GL.obj
 0002:00003b74       ??_C@_0BD@BCMCLIM@glVertexAttribI4ui?$AA@ 10030b74     umodsys_lib_libui:umodsys.mod.ui.SDL_GL.obj
 0002:00003b88       ??_C@_0BE@JNGKDNFA@glVertexAttribI4uiv?$AA@ 10030b88     umodsys_lib_libui:umodsys.mod.ui.SDL_GL.obj
 0002:00003b9c       ??_C@_0BE@IMNLBLPG@glVertexAttribI4usv?$AA@ 10030b9c     umodsys_lib_libui:umodsys.mod.ui.SDL_GL.obj
 0002:00003bb0       ??_C@_0BH@NLOEHKCD@glVertexAttribIPointer?$AA@ 10030bb0     umodsys_lib_libui:umodsys.mod.ui.SDL_GL.obj
 0002:00003bc8       ??_C@_0P@PGKELLEA@GL_VERSION_3_1?$AA@ 10030bc8     umodsys_lib_libui:umodsys.mod.ui.SDL_GL.obj
 0002:00003bd8       ??_C@_0BE@EPKABDOG@glCopyBufferSubData?$AA@ 10030bd8     umodsys_lib_libui:umodsys.mod.ui.SDL_GL.obj
 0002:00003bec       ??_C@_0BG@HIOFINAN@glDrawArraysInstanced?$AA@ 10030bec     umodsys_lib_libui:umodsys.mod.ui.SDL_GL.obj
 0002:00003c04       ??_C@_0BI@CGJENFBH@glDrawElementsInstanced?$AA@ 10030c04     umodsys_lib_libui:umodsys.mod.ui.SDL_GL.obj
 0002:00003c1c       ??_C@_0BM@KEMCJPAJ@glGetActiveUniformBlockName?$AA@ 10030c1c     umodsys_lib_libui:umodsys.mod.ui.SDL_GL.obj
 0002:00003c38       ??_C@_0BK@DMHOPJGL@glGetActiveUniformBlockiv?$AA@ 10030c38     umodsys_lib_libui:umodsys.mod.ui.SDL_GL.obj
 0002:00003c54       ??_C@_0BH@EGGFHKJJ@glGetActiveUniformName?$AA@ 10030c54     umodsys_lib_libui:umodsys.mod.ui.SDL_GL.obj
 0002:00003c6c       ??_C@_0BG@JEHIMPCG@glGetActiveUniformsiv?$AA@ 10030c6c     umodsys_lib_libui:umodsys.mod.ui.SDL_GL.obj
 0002:00003c84       ??_C@_0BH@CBDIMHHE@glGetUniformBlockIndex?$AA@ 10030c84     umodsys_lib_libui:umodsys.mod.ui.SDL_GL.obj
 0002:00003c9c       ??_C@_0BE@MDPMIDEE@glGetUniformIndices?$AA@ 10030c9c     umodsys_lib_libui:umodsys.mod.ui.SDL_GL.obj
 0002:00003cb0       ??_C@_0BI@LJDLNGAF@glPrimitiveRestartIndex?$AA@ 10030cb0     umodsys_lib_libui:umodsys.mod.ui.SDL_GL.obj
 0002:00003cc8       ??_C@_0M@IIMBBALL@glTexBuffer?$AA@ 10030cc8     umodsys_lib_libui:umodsys.mod.ui.SDL_GL.obj
 0002:00003cd4       ??_C@_0BG@BOLEKKCP@glUniformBlockBinding?$AA@ 10030cd4     umodsys_lib_libui:umodsys.mod.ui.SDL_GL.obj
 0002:00003cec       ??_C@_0P@NNIJOIID@GL_VERSION_3_2?$AA@ 10030cec     umodsys_lib_libui:umodsys.mod.ui.SDL_GL.obj
 0002:00003cfc       ??_C@_0BB@KDMPGJAC@glClientWaitSync?$AA@ 10030cfc     umodsys_lib_libui:umodsys.mod.ui.SDL_GL.obj
 0002:00003d10       ??_C@_0N@PIFDNDFG@glDeleteSync?$AA@ 10030d10     umodsys_lib_libui:umodsys.mod.ui.SDL_GL.obj
 0002:00003d20       ??_C@_0BJ@LFMMIAHA@glDrawElementsBaseVertex?$AA@ 10030d20     umodsys_lib_libui:umodsys.mod.ui.SDL_GL.obj
 0002:00003d3c       ??_C@_0CC@KLOIIKNA@glDrawElementsInstancedBaseVerte@ 10030d3c     umodsys_lib_libui:umodsys.mod.ui.SDL_GL.obj
 0002:00003d60       ??_C@_0BO@KBDDBILP@glDrawRangeElementsBaseVertex?$AA@ 10030d60     umodsys_lib_libui:umodsys.mod.ui.SDL_GL.obj
 0002:00003d80       ??_C@_0M@EFGFPFLP@glFenceSync?$AA@ 10030d80     umodsys_lib_libui:umodsys.mod.ui.SDL_GL.obj
 0002:00003d8c       ??_C@_0BF@ENLMLILA@glFramebufferTexture?$AA@ 10030d8c     umodsys_lib_libui:umodsys.mod.ui.SDL_GL.obj
 0002:00003da4       ??_C@_0BJ@KKBIDGPP@glGetBufferParameteri64v?$AA@ 10030da4     umodsys_lib_libui:umodsys.mod.ui.SDL_GL.obj
 0002:00003dc0       ??_C@_0BC@KOJILIEC@glGetInteger64i_v?$AA@ 10030dc0     umodsys_lib_libui:umodsys.mod.ui.SDL_GL.obj
 0002:00003dd4       ??_C@_0BA@INMBOHGL@glGetInteger64v?$AA@ 10030dd4     umodsys_lib_libui:umodsys.mod.ui.SDL_GL.obj
 0002:00003de4       ??_C@_0BD@DHLIMGN@glGetMultisamplefv?$AA@ 10030de4     umodsys_lib_libui:umodsys.mod.ui.SDL_GL.obj
 0002:00003df8       ??_C@_0M@MPEEOPIN@glGetSynciv?$AA@ 10030df8     umodsys_lib_libui:umodsys.mod.ui.SDL_GL.obj
 0002:00003e04       ??_C@_08JPIIHJEO@glIsSync?$AA@ 10030e04     umodsys_lib_libui:umodsys.mod.ui.SDL_GL.obj
 0002:00003e10       ??_C@_0BO@NAPFJEEK@glMultiDrawElementsBaseVertex?$AA@ 10030e10     umodsys_lib_libui:umodsys.mod.ui.SDL_GL.obj
 0002:00003e30       ??_C@_0BC@ECOAPEBI@glProvokingVertex?$AA@ 10030e30     umodsys_lib_libui:umodsys.mod.ui.SDL_GL.obj
 0002:00003e44       ??_C@_0O@JNHBCHMB@glSampleMaski?$AA@ 10030e44     umodsys_lib_libui:umodsys.mod.ui.SDL_GL.obj
 0002:00003e54       ??_C@_0BI@FHDFLFA@glTexImage2DMultisample?$AA@ 10030e54     umodsys_lib_libui:umodsys.mod.ui.SDL_GL.obj
 0002:00003e6c       ??_C@_0BI@JIHMLKCG@glTexImage3DMultisample?$AA@ 10030e6c     umodsys_lib_libui:umodsys.mod.ui.SDL_GL.obj
 0002:00003e84       ??_C@_0L@MHLOGHGO@glWaitSync?$AA@ 10030e84     umodsys_lib_libui:umodsys.mod.ui.SDL_GL.obj
 0002:00003e90       ??_C@_0P@MEJCNJMC@GL_VERSION_3_3?$AA@ 10030e90     umodsys_lib_libui:umodsys.mod.ui.SDL_GL.obj
 0002:00003ea0       ??_C@_0BO@POJBGCGG@glBindFragDataLocationIndexed?$AA@ 10030ea0     umodsys_lib_libui:umodsys.mod.ui.SDL_GL.obj
 0002:00003ec0       ??_C@_0O@PDEILAPG@glBindSampler?$AA@ 10030ec0     umodsys_lib_libui:umodsys.mod.ui.SDL_GL.obj
 0002:00003ed0       ??_C@_0M@PEKBINNN@glColorP3ui?$AA@ 10030ed0     umodsys_lib_libui:umodsys.mod.ui.SDL_GL.obj
 0002:00003edc       ??_C@_0N@IBPDNBJE@glColorP3uiv?$AA@ 10030edc     umodsys_lib_libui:umodsys.mod.ui.SDL_GL.obj
 0002:00003eec       ??_C@_0M@GJHGLFGE@glColorP4ui?$AA@ 10030eec     umodsys_lib_libui:umodsys.mod.ui.SDL_GL.obj
 0002:00003ef8       ??_C@_0N@DDNDANIE@glColorP4uiv?$AA@ 10030ef8     umodsys_lib_libui:umodsys.mod.ui.SDL_GL.obj
 0002:00003f08       ??_C@_0BB@FLPAOEOO@glDeleteSamplers?$AA@ 10030f08     umodsys_lib_libui:umodsys.mod.ui.SDL_GL.obj
 0002:00003f1c       ??_C@_0O@EMMLGGLG@glGenSamplers?$AA@ 10030f1c     umodsys_lib_libui:umodsys.mod.ui.SDL_GL.obj
 0002:00003f2c       ??_C@_0BD@COCJFEOH@glGetFragDataIndex?$AA@ 10030f2c     umodsys_lib_libui:umodsys.mod.ui.SDL_GL.obj
 0002:00003f40       ??_C@_0BF@JDAPDEPE@glGetQueryObjecti64v?$AA@ 10030f40     umodsys_lib_libui:umodsys.mod.ui.SDL_GL.obj
 0002:00003f58       ??_C@_0BG@NEGGOMJO@glGetQueryObjectui64v?$AA@ 10030f58     umodsys_lib_libui:umodsys.mod.ui.SDL_GL.obj
 0002:00003f70       ??_C@_0BJ@KOMJDLDN@glGetSamplerParameterIiv?$AA@ 10030f70     umodsys_lib_libui:umodsys.mod.ui.SDL_GL.obj
 0002:00003f8c       ??_C@_0BK@CMBGFHDA@glGetSamplerParameterIuiv?$AA@ 10030f8c     umodsys_lib_libui:umodsys.mod.ui.SDL_GL.obj
 0002:00003fa8       ??_C@_0BI@FPHMKMKC@glGetSamplerParameterfv?$AA@ 10030fa8     umodsys_lib_libui:umodsys.mod.ui.SDL_GL.obj
 0002:00003fc0       ??_C@_0BI@FECAOLJP@glGetSamplerParameteriv?$AA@ 10030fc0     umodsys_lib_libui:umodsys.mod.ui.SDL_GL.obj
 0002:00003fd8       ??_C@_0M@LAJKHOKJ@glIsSampler?$AA@ 10030fd8     umodsys_lib_libui:umodsys.mod.ui.SDL_GL.obj
 0002:00003fe4       ??_C@_0BE@OAHHKHKG@glMultiTexCoordP1ui?$AA@ 10030fe4     umodsys_lib_libui:umodsys.mod.ui.SDL_GL.obj
 0002:00003ff8       ??_C@_0BF@EGDAKPAK@glMultiTexCoordP1uiv?$AA@ 10030ff8     umodsys_lib_libui:umodsys.mod.ui.SDL_GL.obj
 0002:00004010       ??_C@_0BE@PCMCAIEI@glMultiTexCoordP2ui?$AA@ 10031010     umodsys_lib_libui:umodsys.mod.ui.SDL_GL.obj
 0002:00004024       ??_C@_0BF@BJANFNK@glMultiTexCoordP2uiv?$AA@ 10031024     umodsys_lib_libui:umodsys.mod.ui.SDL_GL.obj
 0002:0000403c       ??_C@_0BE@EKHOGPCN@glMultiTexCoordP3ui?$AA@ 1003103c     umodsys_lib_libui:umodsys.mod.ui.SDL_GL.obj
 0002:00004050       ??_C@_0BF@DMPAPMGK@glMultiTexCoordP3uiv?$AA@ 10031050     umodsys_lib_libui:umodsys.mod.ui.SDL_GL.obj
 0002:00004068       ??_C@_0BE@NHKJFHJE@glMultiTexCoordP4ui?$AA@ 10031068     umodsys_lib_libui:umodsys.mod.ui.SDL_GL.obj
 0002:0000407c       ??_C@_0BF@IONACAHK@glMultiTexCoordP4uiv?$AA@ 1003107c     umodsys_lib_libui:umodsys.mod.ui.SDL_GL.obj
 0002:00004094       ??_C@_0N@PBEFBNHO@glNormalP3ui?$AA@ 10031094     umodsys_lib_libui:umodsys.mod.ui.SDL_GL.obj
 0002:000040a4       ??_C@_0O@MOCJMHFG@glNormalP3uiv?$AA@ 100310a4     umodsys_lib_libui:umodsys.mod.ui.SDL_GL.obj
 0002:000040b4       ??_C@_0P@KALICDIM@glQueryCounter?$AA@ 100310b4     umodsys_lib_libui:umodsys.mod.ui.SDL_GL.obj
 0002:000040c4       ??_C@_0BG@HKEIFIHF@glSamplerParameterIiv?$AA@ 100310c4     umodsys_lib_libui:umodsys.mod.ui.SDL_GL.obj
 0002:000040dc       ??_C@_0BH@FEMFBPPB@glSamplerParameterIuiv?$AA@ 100310dc     umodsys_lib_libui:umodsys.mod.ui.SDL_GL.obj
 0002:000040f4       ??_C@_0BE@CGLJNDFB@glSamplerParameterf?$AA@ 100310f4     umodsys_lib_libui:umodsys.mod.ui.SDL_GL.obj
 0002:00004108       ??_C@_0BF@GFCPAGMB@glSamplerParameterfv?$AA@ 10031108     umodsys_lib_libui:umodsys.mod.ui.SDL_GL.obj
 0002:00004120       ??_C@_0BE@KBCBMPJO@glSamplerParameteri?$AA@ 10031120     umodsys_lib_libui:umodsys.mod.ui.SDL_GL.obj
 0002:00004134       ??_C@_0BF@GOHDEBPM@glSamplerParameteriv?$AA@ 10031134     umodsys_lib_libui:umodsys.mod.ui.SDL_GL.obj
 0002:0000414c       ??_C@_0BF@PDDGBPKP@glSecondaryColorP3ui?$AA@ 1003114c     umodsys_lib_libui:umodsys.mod.ui.SDL_GL.obj
 0002:00004164       ??_C@_0BG@DPPPFGBG@glSecondaryColorP3uiv?$AA@ 10031164     umodsys_lib_libui:umodsys.mod.ui.SDL_GL.obj
 0002:0000417c       ??_C@_0P@OLJHLLHJ@glTexCoordP1ui?$AA@ 1003117c     umodsys_lib_libui:umodsys.mod.ui.SDL_GL.obj
 0002:0000418c       ??_C@_0BA@FAFHIAFD@glTexCoordP1uiv?$AA@ 1003118c     umodsys_lib_libui:umodsys.mod.ui.SDL_GL.obj
 0002:0000419c       ??_C@_0P@PJCCBEJH@glTexCoordP2ui?$AA@ 1003119c     umodsys_lib_libui:umodsys.mod.ui.SDL_GL.obj
 0002:000041ac       ??_C@_0BA@BHPHPKID@glTexCoordP2uiv?$AA@ 100311ac     umodsys_lib_libui:umodsys.mod.ui.SDL_GL.obj
 0002:000041bc       ??_C@_0P@EBJOHDPC@glTexCoordP3ui?$AA@ 100311bc     umodsys_lib_libui:umodsys.mod.ui.SDL_GL.obj
 0002:000041cc       ??_C@_0BA@CKJHNDDD@glTexCoordP3uiv?$AA@ 100311cc     umodsys_lib_libui:umodsys.mod.ui.SDL_GL.obj
 0002:000041dc       ??_C@_0P@NMEJELEL@glTexCoordP4ui?$AA@ 100311dc     umodsys_lib_libui:umodsys.mod.ui.SDL_GL.obj
 0002:000041ec       ??_C@_0BA@JILHAPCD@glTexCoordP4uiv?$AA@ 100311ec     umodsys_lib_libui:umodsys.mod.ui.SDL_GL.obj
 0002:000041fc       ??_C@_0BG@NEBMAEHM@glVertexAttribDivisor?$AA@ 100311fc     umodsys_lib_libui:umodsys.mod.ui.SDL_GL.obj
 0002:00004214       ??_C@_0BD@FLACCOEN@glVertexAttribP1ui?$AA@ 10031214     umodsys_lib_libui:umodsys.mod.ui.SDL_GL.obj
 0002:00004228       ??_C@_0BE@HBFDOBHD@glVertexAttribP1uiv?$AA@ 10031228     umodsys_lib_libui:umodsys.mod.ui.SDL_GL.obj
 0002:0000423c       ??_C@_0BD@EJLHIBKD@glVertexAttribP2ui?$AA@ 1003123c     umodsys_lib_libui:umodsys.mod.ui.SDL_GL.obj
 0002:00004250       ??_C@_0BE@DGPDJLKD@glVertexAttribP2uiv?$AA@ 10031250     umodsys_lib_libui:umodsys.mod.ui.SDL_GL.obj
 0002:00004264       ??_C@_0BD@PBALOGMG@glVertexAttribP3ui?$AA@ 10031264     umodsys_lib_libui:umodsys.mod.ui.SDL_GL.obj
 0002:00004278       ??_C@_0BE@LJDLCBD@glVertexAttribP3uiv?$AA@ 10031278     umodsys_lib_libui:umodsys.mod.ui.SDL_GL.obj
 0002:0000428c       ??_C@_0BD@GMNMNOHP@glVertexAttribP4ui?$AA@ 1003128c     umodsys_lib_libui:umodsys.mod.ui.SDL_GL.obj
 0002:000042a0       ??_C@_0BE@LJLDGOAD@glVertexAttribP4uiv?$AA@ 100312a0     umodsys_lib_libui:umodsys.mod.ui.SDL_GL.obj
 0002:000042b4       ??_C@_0N@EFBCIBMC@glVertexP2ui?$AA@ 100312b4     umodsys_lib_libui:umodsys.mod.ui.SDL_GL.obj
 0002:000042c4       ??_C@_0O@MEKGPGN@glVertexP2uiv?$AA@ 100312c4     umodsys_lib_libui:umodsys.mod.ui.SDL_GL.obj
 0002:000042d4       ??_C@_0N@PNKOOGKH@glVertexP3ui?$AA@ 100312d4     umodsys_lib_libui:umodsys.mod.ui.SDL_GL.obj
 0002:000042e4       ??_C@_0O@DBCKEGNN@glVertexP3uiv?$AA@ 100312e4     umodsys_lib_libui:umodsys.mod.ui.SDL_GL.obj
 0002:000042f4       ??_C@_0N@GAHJNOBO@glVertexP4ui?$AA@ 100312f4     umodsys_lib_libui:umodsys.mod.ui.SDL_GL.obj
 0002:00004304       ??_C@_0O@IDAKJKMN@glVertexP4uiv?$AA@ 10031304     umodsys_lib_libui:umodsys.mod.ui.SDL_GL.obj
 0002:00004314       ??_C@_0P@HCGILCLI@GL_VERSION_4_0?$AA@ 10031314     umodsys_lib_libui:umodsys.mod.ui.SDL_GL.obj
 0002:00004324       ??_C@_0BE@BDKPJDEE@glBeginQueryIndexed?$AA@ 10031324     umodsys_lib_libui:umodsys.mod.ui.SDL_GL.obj
 0002:00004338       ??_C@_0BI@BPJKLMIG@glBindTransformFeedback?$AA@ 10031338     umodsys_lib_libui:umodsys.mod.ui.SDL_GL.obj
 0002:00004350       ??_C@_0BJ@FNMBAGAC@glBlendEquationSeparatei?$AA@ 10031350     umodsys_lib_libui:umodsys.mod.ui.SDL_GL.obj
 0002:0000436c       ??_C@_0BB@MKHLNEOM@glBlendEquationi?$AA@ 1003136c     umodsys_lib_libui:umodsys.mod.ui.SDL_GL.obj
 0002:00004380       ??_C@_0BF@PDDGKNBJ@glBlendFuncSeparatei?$AA@ 10031380     umodsys_lib_libui:umodsys.mod.ui.SDL_GL.obj
 0002:00004398       ??_C@_0N@IKKELNNP@glBlendFunci?$AA@ 10031398     umodsys_lib_libui:umodsys.mod.ui.SDL_GL.obj
 0002:000043a8       ??_C@_0BL@DIGEBFBK@glDeleteTransformFeedbacks?$AA@ 100313a8     umodsys_lib_libui:umodsys.mod.ui.SDL_GL.obj
 0002:000043c4       ??_C@_0BF@BGDCPAEP@glDrawArraysIndirect?$AA@ 100313c4     umodsys_lib_libui:umodsys.mod.ui.SDL_GL.obj
 0002:000043dc       ??_C@_0BH@LJJDOEDH@glDrawElementsIndirect?$AA@ 100313dc     umodsys_lib_libui:umodsys.mod.ui.SDL_GL.obj
 0002:000043f4       ??_C@_0BI@LEOILCPN@glDrawTransformFeedback?$AA@ 100313f4     umodsys_lib_libui:umodsys.mod.ui.SDL_GL.obj
 0002:0000440c       ??_C@_0BO@IGLFNCDG@glDrawTransformFeedbackStream?$AA@ 1003140c     umodsys_lib_libui:umodsys.mod.ui.SDL_GL.obj
 0002:0000442c       ??_C@_0BC@DPMHMNME@glEndQueryIndexed?$AA@ 1003142c     umodsys_lib_libui:umodsys.mod.ui.SDL_GL.obj
 0002:00004440       ??_C@_0BI@KANKBGAE@glGenTransformFeedbacks?$AA@ 10031440     umodsys_lib_libui:umodsys.mod.ui.SDL_GL.obj
 0002:00004458       ??_C@_0BK@JPHEACLL@glGetActiveSubroutineName?$AA@ 10031458     umodsys_lib_libui:umodsys.mod.ui.SDL_GL.obj
 0002:00004474       ??_C@_0CB@KCFFPCGJ@glGetActiveSubroutineUniformName@ 10031474     umodsys_lib_libui:umodsys.mod.ui.SDL_GL.obj
 0002:00004498       ??_C@_0BP@FAPFAJFP@glGetActiveSubroutineUniformiv?$AA@ 10031498     umodsys_lib_libui:umodsys.mod.ui.SDL_GL.obj
 0002:000044b8       ??_C@_0BE@LOKJCDFH@glGetProgramStageiv?$AA@ 100314b8     umodsys_lib_libui:umodsys.mod.ui.SDL_GL.obj
 0002:000044cc       ??_C@_0BE@CCFJPMFI@glGetQueryIndexediv?$AA@ 100314cc     umodsys_lib_libui:umodsys.mod.ui.SDL_GL.obj
 0002:000044e0       ??_C@_0BF@ONDIGCJG@glGetSubroutineIndex?$AA@ 100314e0     umodsys_lib_libui:umodsys.mod.ui.SDL_GL.obj
 0002:000044f8       ??_C@_0BP@IBIPLDOA@glGetSubroutineUniformLocation?$AA@ 100314f8     umodsys_lib_libui:umodsys.mod.ui.SDL_GL.obj
 0002:00004518       ??_C@_0BK@BLMOFAGJ@glGetUniformSubroutineuiv?$AA@ 10031518     umodsys_lib_libui:umodsys.mod.ui.SDL_GL.obj
 0002:00004534       ??_C@_0P@NGEMHI@glGetUniformdv?$AA@ 10031534     umodsys_lib_libui:umodsys.mod.ui.SDL_GL.obj
 0002:00004544       ??_C@_0BG@BGFLKHBM@glIsTransformFeedback?$AA@ 10031544     umodsys_lib_libui:umodsys.mod.ui.SDL_GL.obj
 0002:0000455c       ??_C@_0BD@EDGCEBP@glMinSampleShading?$AA@ 1003155c     umodsys_lib_libui:umodsys.mod.ui.SDL_GL.obj
 0002:00004570       ??_C@_0BD@LJKINJKN@glPatchParameterfv?$AA@ 10031570     umodsys_lib_libui:umodsys.mod.ui.SDL_GL.obj
 0002:00004584       ??_C@_0BC@PAPDGMLA@glPatchParameteri?$AA@ 10031584     umodsys_lib_libui:umodsys.mod.ui.SDL_GL.obj
 0002:00004598       ??_C@_0BJ@FFNLKBCB@glPauseTransformFeedback?$AA@ 10031598     umodsys_lib_libui:umodsys.mod.ui.SDL_GL.obj
 0002:000045b4       ??_C@_0BK@JMHONFHF@glResumeTransformFeedback?$AA@ 100315b4     umodsys_lib_libui:umodsys.mod.ui.SDL_GL.obj
 0002:000045d0       ??_C@_0M@PJLEGNGH@glUniform1d?$AA@ 100315d0     umodsys_lib_libui:umodsys.mod.ui.SDL_GL.obj
 0002:000045dc       ??_C@_0N@KKEKJOOG@glUniform1dv?$AA@ 100315dc     umodsys_lib_libui:umodsys.mod.ui.SDL_GL.obj
 0002:000045ec       ??_C@_0M@PLPCNDDO@glUniform2d?$AA@ 100315ec     umodsys_lib_libui:umodsys.mod.ui.SDL_GL.obj
 0002:000045f8       ??_C@_0N@LIPPDBAI@glUniform2dv?$AA@ 100315f8     umodsys_lib_libui:umodsys.mod.ui.SDL_GL.obj
 0002:00004608       ??_C@_0M@PKDALJAJ@glUniform3d?$AA@ 10031608     umodsys_lib_libui:umodsys.mod.ui.SDL_GL.obj
 0002:00004614       ??_C@_0N@EDFGGN@glUniform3dv?$AA@ 10031614     umodsys_lib_libui:umodsys.mod.ui.SDL_GL.obj
 0002:00004624       ??_C@_0M@PPHPKPIM@glUniform4d?$AA@ 10031624     umodsys_lib_libui:umodsys.mod.ui.SDL_GL.obj
 0002:00004630       ??_C@_0N@JNJEGONE@glUniform4dv?$AA@ 10031630     umodsys_lib_libui:umodsys.mod.ui.SDL_GL.obj
 0002:00004640       ??_C@_0BD@JLJNJPBN@glUniformMatrix2dv?$AA@ 10031640     umodsys_lib_libui:umodsys.mod.ui.SDL_GL.obj
 0002:00004654       ??_C@_0BF@KALNBGFE@glUniformMatrix2x3dv?$AA@ 10031654     umodsys_lib_libui:umodsys.mod.ui.SDL_GL.obj
 0002:0000466c       ??_C@_0BF@DNGKCOON@glUniformMatrix2x4dv?$AA@ 1003166c     umodsys_lib_libui:umodsys.mod.ui.SDL_GL.obj
 0002:00004684       ??_C@_0BD@CDCBPIHI@glUniformMatrix3dv?$AA@ 10031684     umodsys_lib_libui:umodsys.mod.ui.SDL_GL.obj
 0002:00004698       ??_C@_0BF@NDFNKCJE@glUniformMatrix3x2dv?$AA@ 10031698     umodsys_lib_libui:umodsys.mod.ui.SDL_GL.obj
 0002:000046b0       ??_C@_0BF@PGDGPNEI@glUniformMatrix3x4dv?$AA@ 100316b0     umodsys_lib_libui:umodsys.mod.ui.SDL_GL.obj
 0002:000046c8       ??_C@_0BD@LOPGMAMB@glUniformMatrix4dv?$AA@ 100316c8     umodsys_lib_libui:umodsys.mod.ui.SDL_GL.obj
 0002:000046dc       ??_C@_0BF@MOFIJCCM@glUniformMatrix4x2dv?$AA@ 100316dc     umodsys_lib_libui:umodsys.mod.ui.SDL_GL.obj
 0002:000046f4       ??_C@_0BF@HGOEPFEJ@glUniformMatrix4x3dv?$AA@ 100316f4     umodsys_lib_libui:umodsys.mod.ui.SDL_GL.obj
 0002:0000470c       ??_C@_0BI@CDPOBBHI@glUniformSubroutinesuiv?$AA@ 1003170c     umodsys_lib_libui:umodsys.mod.ui.SDL_GL.obj
 0002:00004724       ??_C@_0BF@LBGBLLJA@GL_ARB_base_instance?$AA@ 10031724     umodsys_lib_libui:umodsys.mod.ui.SDL_GL.obj
 0002:0000473c       ??_C@_0CC@FBJBJHCN@glDrawArraysInstancedBaseInstanc@ 1003173c     umodsys_lib_libui:umodsys.mod.ui.SDL_GL.obj
 0002:00004760       ??_C@_0CE@NGNINKJD@glDrawElementsInstancedBaseInsta@ 10031760     umodsys_lib_libui:umodsys.mod.ui.SDL_GL.obj
 0002:00004784       ??_C@_0CO@GCMNEAOA@glDrawElementsInstancedBaseVerte@ 10031784     umodsys_lib_libui:umodsys.mod.ui.SDL_GL.obj
 0002:000047b4       ??_C@_0BI@FNELAAPJ@GL_ARB_bindless_texture?$AA@ 100317b4     umodsys_lib_libui:umodsys.mod.ui.SDL_GL.obj
 0002:000047cc       ??_C@_0BE@JHMEHOCI@glGetImageHandleARB?$AA@ 100317cc     umodsys_lib_libui:umodsys.mod.ui.SDL_GL.obj
 0002:000047e0       ??_C@_0BG@LFGIGKAH@glGetTextureHandleARB?$AA@ 100317e0     umodsys_lib_libui:umodsys.mod.ui.SDL_GL.obj
 0002:000047f8       ??_C@_0BN@DEFEDMH@glGetTextureSamplerHandleARB?$AA@ 100317f8     umodsys_lib_libui:umodsys.mod.ui.SDL_GL.obj
 0002:00004818       ??_C@_0BL@HBJNADOI@glGetVertexAttribLui64vARB?$AA@ 10031818     umodsys_lib_libui:umodsys.mod.ui.SDL_GL.obj
 0002:00004834       ??_C@_0BL@IFBPNOMI@glIsImageHandleResidentARB?$AA@ 10031834     umodsys_lib_libui:umodsys.mod.ui.SDL_GL.obj
 0002:00004850       ??_C@_0BN@JLGBAMKI@glIsTextureHandleResidentARB?$AA@ 10031850     umodsys_lib_libui:umodsys.mod.ui.SDL_GL.obj
 0002:00004870       ??_C@_0CA@BFHEDIKK@glMakeImageHandleNonResidentARB?$AA@ 10031870     umodsys_lib_libui:umodsys.mod.ui.SDL_GL.obj
 0002:00004890       ??_C@_0BN@ECHDHELL@glMakeImageHandleResidentARB?$AA@ 10031890     umodsys_lib_libui:umodsys.mod.ui.SDL_GL.obj
 0002:000048b0       ??_C@_0CC@EGJJLHFP@glMakeTextureHandleNonResidentAR@ 100318b0     umodsys_lib_libui:umodsys.mod.ui.SDL_GL.obj
 0002:000048d4       ??_C@_0BP@KJHAKLAH@glMakeTextureHandleResidentARB?$AA@ 100318d4     umodsys_lib_libui:umodsys.mod.ui.SDL_GL.obj
 0002:000048f4       ??_C@_0BO@PELKNEEA@glProgramUniformHandleui64ARB?$AA@ 100318f4     umodsys_lib_libui:umodsys.mod.ui.SDL_GL.obj
 0002:00004914       ??_C@_0BP@PJOMOJFE@glProgramUniformHandleui64vARB?$AA@ 10031914     umodsys_lib_libui:umodsys.mod.ui.SDL_GL.obj
 0002:00004934       ??_C@_0BH@PPMOJDBB@glUniformHandleui64ARB?$AA@ 10031934     umodsys_lib_libui:umodsys.mod.ui.SDL_GL.obj
 0002:0000494c       ??_C@_0BI@OFILPMHB@glUniformHandleui64vARB?$AA@ 1003194c     umodsys_lib_libui:umodsys.mod.ui.SDL_GL.obj
 0002:00004964       ??_C@_0BI@IPIKGHJF@glVertexAttribL1ui64ARB?$AA@ 10031964     umodsys_lib_libui:umodsys.mod.ui.SDL_GL.obj
 0002:0000497c       ??_C@_0BJ@PCOPPLM@glVertexAttribL1ui64vARB?$AA@ 1003197c     umodsys_lib_libui:umodsys.mod.ui.SDL_GL.obj
 0002:00004998       ??_C@_0BG@FDMKKDFD@GL_ARB_buffer_storage?$AA@ 10031998     umodsys_lib_libui:umodsys.mod.ui.SDL_GL.obj
 0002:000049b0       ??_C@_0BA@COBILMHM@glBufferStorage?$AA@ 100319b0     umodsys_lib_libui:umodsys.mod.ui.SDL_GL.obj
 0002:000049c0       ??_C@_0BA@FEEMKBCF@GL_ARB_cl_event?$AA@ 100319c0     umodsys_lib_libui:umodsys.mod.ui.SDL_GL.obj
 0002:000049d0       ??_C@_0BL@FGCKKDPG@glCreateSyncFromCLeventARB?$AA@ 100319d0     umodsys_lib_libui:umodsys.mod.ui.SDL_GL.obj
 0002:000049ec       ??_C@_0BL@DOOAPCEA@GL_ARB_clear_buffer_object?$AA@ 100319ec     umodsys_lib_libui:umodsys.mod.ui.SDL_GL.obj
 0002:00004a08       ??_C@_0BC@FCMBBKMP@glClearBufferData?$AA@ 10031a08     umodsys_lib_libui:umodsys.mod.ui.SDL_GL.obj
 0002:00004a1c       ??_C@_0BF@FDHIBCMD@glClearBufferSubData?$AA@ 10031a1c     umodsys_lib_libui:umodsys.mod.ui.SDL_GL.obj
 0002:00004a34       ??_C@_0BF@HDHNHFHJ@GL_ARB_clear_texture?$AA@ 10031a34     umodsys_lib_libui:umodsys.mod.ui.SDL_GL.obj
 0002:00004a4c       ??_C@_0BA@FNPOIBAF@glClearTexImage?$AA@ 10031a4c     umodsys_lib_libui:umodsys.mod.ui.SDL_GL.obj
 0002:00004a5c       ??_C@_0BD@CFALBON@glClearTexSubImage?$AA@ 10031a5c     umodsys_lib_libui:umodsys.mod.ui.SDL_GL.obj
 0002:00004a70       ??_C@_0BK@NPDELCAH@GL_ARB_color_buffer_float?$AA@ 10031a70     umodsys_lib_libui:umodsys.mod.ui.SDL_GL.obj
 0002:00004a8c       ??_C@_0BA@PBPFKPHF@glClampColorARB?$AA@ 10031a8c     umodsys_lib_libui:umodsys.mod.ui.SDL_GL.obj
 0002:00004a9c       ??_C@_0BG@CCENKDIE@GL_ARB_compute_shader?$AA@ 10031a9c     umodsys_lib_libui:umodsys.mod.ui.SDL_GL.obj
 0002:00004ab4       ??_C@_0BC@DKKFFIGC@glDispatchCompute?$AA@ 10031ab4     umodsys_lib_libui:umodsys.mod.ui.SDL_GL.obj
 0002:00004ac8       ??_C@_0BK@EJMOGMMI@glDispatchComputeIndirect?$AA@ 10031ac8     umodsys_lib_libui:umodsys.mod.ui.SDL_GL.obj
 0002:00004ae4       ??_C@_0CD@DFOMJNFO@GL_ARB_compute_variable_group_si@ 10031ae4     umodsys_lib_libui:umodsys.mod.ui.SDL_GL.obj
 0002:00004b08       ??_C@_0BO@GJCJOBMI@glDispatchComputeGroupSizeARB?$AA@ 10031b08     umodsys_lib_libui:umodsys.mod.ui.SDL_GL.obj
 0002:00004b28       ??_C@_0BC@IMNLOGMO@GL_ARB_copy_image?$AA@ 10031b28     umodsys_lib_libui:umodsys.mod.ui.SDL_GL.obj
 0002:00004b3c       ??_C@_0BD@BNCHOBBL@glCopyImageSubData?$AA@ 10031b3c     umodsys_lib_libui:umodsys.mod.ui.SDL_GL.obj
 0002:00004b50       ??_C@_0BE@PIDMLBFI@GL_ARB_draw_buffers?$AA@ 10031b50     umodsys_lib_libui:umodsys.mod.ui.SDL_GL.obj
 0002:00004b64       ??_C@_0BB@DLEFHLGI@glDrawBuffersARB?$AA@ 10031b64     umodsys_lib_libui:umodsys.mod.ui.SDL_GL.obj
 0002:00004b78       ??_C@_0BK@EPBDCMLE@GL_ARB_draw_buffers_blend?$AA@ 10031b78     umodsys_lib_libui:umodsys.mod.ui.SDL_GL.obj
 0002:00004b94       ??_C@_0BM@DHGCGJJC@glBlendEquationSeparateiARB?$AA@ 10031b94     umodsys_lib_libui:umodsys.mod.ui.SDL_GL.obj
 0002:00004bb0       ??_C@_0BE@MKEGJKA@glBlendEquationiARB?$AA@ 10031bb0     umodsys_lib_libui:umodsys.mod.ui.SDL_GL.obj
 0002:00004bc4       ??_C@_0BI@EJDLCHDA@glBlendFuncSeparateiARB?$AA@ 10031bc4     umodsys_lib_libui:umodsys.mod.ui.SDL_GL.obj
 0002:00004bdc       ??_C@_0BA@IINKCNIC@glBlendFunciARB?$AA@ 10031bdc     umodsys_lib_libui:umodsys.mod.ui.SDL_GL.obj
 0002:00004bec       ??_C@_0BG@PNHOPBOL@GL_ARB_draw_instanced?$AA@ 10031bec     umodsys_lib_libui:umodsys.mod.ui.SDL_GL.obj
 0002:00004c04       ??_C@_0BJ@NIEKILNL@glDrawArraysInstancedARB?$AA@ 10031c04     umodsys_lib_libui:umodsys.mod.ui.SDL_GL.obj
 0002:00004c20       ??_C@_0BL@JMJLDLNF@glDrawElementsInstancedARB?$AA@ 10031c20     umodsys_lib_libui:umodsys.mod.ui.SDL_GL.obj
 0002:00004c3c       ??_C@_0CC@CGMKCMOO@GL_ARB_framebuffer_no_attachment@ 10031c3c     umodsys_lib_libui:umodsys.mod.ui.SDL_GL.obj
 0002:00004c60       ??_C@_0BI@MLACHGDK@glFramebufferParameteri?$AA@ 10031c60     umodsys_lib_libui:umodsys.mod.ui.SDL_GL.obj
 0002:00004c78       ??_C@_0BM@BFEEFCMK@glGetFramebufferParameteriv?$AA@ 10031c78     umodsys_lib_libui:umodsys.mod.ui.SDL_GL.obj
 0002:00004c94       ??_C@_0BI@DHMGIOF@GL_ARB_geometry_shader4?$AA@ 10031c94     umodsys_lib_libui:umodsys.mod.ui.SDL_GL.obj
 0002:00004cac       ??_C@_0BI@KFEKMNEL@glFramebufferTextureARB?$AA@ 10031cac     umodsys_lib_libui:umodsys.mod.ui.SDL_GL.obj
 0002:00004cc4       ??_C@_0BM@PJPLFKLO@glFramebufferTextureFaceARB?$AA@ 10031cc4     umodsys_lib_libui:umodsys.mod.ui.SDL_GL.obj
 0002:00004ce0       ??_C@_0BN@OEJIBP@glFramebufferTextureLayerARB?$AA@ 10031ce0     umodsys_lib_libui:umodsys.mod.ui.SDL_GL.obj
 0002:00004d00       ??_C@_0BH@GELPODLK@glProgramParameteriARB?$AA@ 10031d00     umodsys_lib_libui:umodsys.mod.ui.SDL_GL.obj
 0002:00004d18       ??_C@_0BK@HNPMALLK@GL_ARB_get_program_binary?$AA@ 10031d18     umodsys_lib_libui:umodsys.mod.ui.SDL_GL.obj
 0002:00004d34       ??_C@_0BD@JBCEHKON@glGetProgramBinary?$AA@ 10031d34     umodsys_lib_libui:umodsys.mod.ui.SDL_GL.obj
 0002:00004d48       ??_C@_0BA@MIIDHOO@glProgramBinary?$AA@ 10031d48     umodsys_lib_libui:umodsys.mod.ui.SDL_GL.obj
 0002:00004d58       ??_C@_0BE@EELDBEME@glProgramParameteri?$AA@ 10031d58     umodsys_lib_libui:umodsys.mod.ui.SDL_GL.obj
 0002:00004d6c       ??_C@_0P@GDHEIIHD@GL_ARB_imaging?$AA@ 10031d6c     umodsys_lib_libui:umodsys.mod.ui.SDL_GL.obj
 0002:00004d7c       ??_C@_0BA@JAMHNPHF@glColorSubTable?$AA@ 10031d7c     umodsys_lib_libui:umodsys.mod.ui.SDL_GL.obj
 0002:00004d8c       ??_C@_0N@PCFLODHG@glColorTable?$AA@ 10031d8c     umodsys_lib_libui:umodsys.mod.ui.SDL_GL.obj
 0002:00004d9c       ??_C@_0BI@DEIGFBNP@glColorTableParameterfv?$AA@ 10031d9c     umodsys_lib_libui:umodsys.mod.ui.SDL_GL.obj
 0002:00004db4       ??_C@_0BI@DPNKBGOC@glColorTableParameteriv?$AA@ 10031db4     umodsys_lib_libui:umodsys.mod.ui.SDL_GL.obj
 0002:00004dcc       ??_C@_0BG@CJBBBGMA@glConvolutionFilter1D?$AA@ 10031dcc     umodsys_lib_libui:umodsys.mod.ui.SDL_GL.obj
 0002:00004de4       ??_C@_0BG@CLFHKIJJ@glConvolutionFilter2D?$AA@ 10031de4     umodsys_lib_libui:umodsys.mod.ui.SDL_GL.obj
 0002:00004dfc       ??_C@_0BI@PLJALAOH@glConvolutionParameterf?$AA@ 10031dfc     umodsys_lib_libui:umodsys.mod.ui.SDL_GL.obj
 0002:00004e14       ??_C@_0BJ@EHPADJBL@glConvolutionParameterfv?$AA@ 10031e14     umodsys_lib_libui:umodsys.mod.ui.SDL_GL.obj
 0002:00004e30       ??_C@_0BI@HMAIKMCI@glConvolutionParameteri?$AA@ 10031e30     umodsys_lib_libui:umodsys.mod.ui.SDL_GL.obj
 0002:00004e48       ??_C@_0BJ@EMKMHOCG@glConvolutionParameteriv?$AA@ 10031e48     umodsys_lib_libui:umodsys.mod.ui.SDL_GL.obj
 0002:00004e64       ??_C@_0BE@LPPLPNIO@glCopyColorSubTable?$AA@ 10031e64     umodsys_lib_libui:umodsys.mod.ui.SDL_GL.obj
 0002:00004e78       ??_C@_0BB@KFNEDBPG@glCopyColorTable?$AA@ 10031e78     umodsys_lib_libui:umodsys.mod.ui.SDL_GL.obj
 0002:00004e8c       ??_C@_0BK@GEKJMFLK@glCopyConvolutionFilter1D?$AA@ 10031e8c     umodsys_lib_libui:umodsys.mod.ui.SDL_GL.obj
 0002:00004ea8       ??_C@_0BK@GGOPHLOD@glCopyConvolutionFilter2D?$AA@ 10031ea8     umodsys_lib_libui:umodsys.mod.ui.SDL_GL.obj
 0002:00004ec4       ??_C@_0BA@JMNLAECM@glGetColorTable?$AA@ 10031ec4     umodsys_lib_libui:umodsys.mod.ui.SDL_GL.obj
 0002:00004ed4       ??_C@_0BL@NIJNHALB@glGetColorTableParameterfv?$AA@ 10031ed4     umodsys_lib_libui:umodsys.mod.ui.SDL_GL.obj
 0002:00004ef0       ??_C@_0BL@NDMBDHIM@glGetColorTableParameteriv?$AA@ 10031ef0     umodsys_lib_libui:umodsys.mod.ui.SDL_GL.obj
 0002:00004f0c       ??_C@_0BH@LPCMFECN@glGetConvolutionFilter?$AA@ 10031f0c     umodsys_lib_libui:umodsys.mod.ui.SDL_GL.obj
 0002:00004f24       ??_C@_0BM@ONBGGOGF@glGetConvolutionParameterfv?$AA@ 10031f24     umodsys_lib_libui:umodsys.mod.ui.SDL_GL.obj
 0002:00004f40       ??_C@_0BM@OGEKCJFI@glGetConvolutionParameteriv?$AA@ 10031f40     umodsys_lib_libui:umodsys.mod.ui.SDL_GL.obj
 0002:00004f5c       ??_C@_0P@KEFKNNKH@glGetHistogram?$AA@ 10031f5c     umodsys_lib_libui:umodsys.mod.ui.SDL_GL.obj
 0002:00004f6c       ??_C@_0BK@IFPDKCN@glGetHistogramParameterfv?$AA@ 10031f6c     umodsys_lib_libui:umodsys.mod.ui.SDL_GL.obj
 0002:00004f88       ??_C@_0BK@DADHNBA@glGetHistogramParameteriv?$AA@ 10031f88     umodsys_lib_libui:umodsys.mod.ui.SDL_GL.obj
 0002:00004fa4       ??_C@_0M@ILDMABIA@glGetMinmax?$AA@ 10031fa4     umodsys_lib_libui:umodsys.mod.ui.SDL_GL.obj
 0002:00004fb0       ??_C@_0BH@ONPKEHGK@glGetMinmaxParameterfv?$AA@ 10031fb0     umodsys_lib_libui:umodsys.mod.ui.SDL_GL.obj
 0002:00004fc8       ??_C@_0BH@OGKGAAFH@glGetMinmaxParameteriv?$AA@ 10031fc8     umodsys_lib_libui:umodsys.mod.ui.SDL_GL.obj
 0002:00004fe0       ??_C@_0BF@LPFBPGKD@glGetSeparableFilter?$AA@ 10031fe0     umodsys_lib_libui:umodsys.mod.ui.SDL_GL.obj
 0002:00004ff8       ??_C@_0M@EPLLGADA@glHistogram?$AA@ 10031ff8     umodsys_lib_libui:umodsys.mod.ui.SDL_GL.obj
 0002:00005004       ??_C@_08ONCKEMPI@glMinmax?$AA@ 10032004     umodsys_lib_libui:umodsys.mod.ui.SDL_GL.obj
 0002:00005010       ??_C@_0BB@OBMEDNFE@glResetHistogram?$AA@ 10032010     umodsys_lib_libui:umodsys.mod.ui.SDL_GL.obj
 0002:00005024       ??_C@_0O@MKNEKFLH@glResetMinmax?$AA@ 10032024     umodsys_lib_libui:umodsys.mod.ui.SDL_GL.obj
 0002:00005034       ??_C@_0BE@IEPFBBMM@glSeparableFilter2D?$AA@ 10032034     umodsys_lib_libui:umodsys.mod.ui.SDL_GL.obj
 0002:00005048       ??_C@_0BL@KOLCPNBO@GL_ARB_indirect_parameters?$AA@ 10032048     umodsys_lib_libui:umodsys.mod.ui.SDL_GL.obj
 0002:00005064       ??_C@_0CC@GFMDJHGF@glMultiDrawArraysIndirectCountAR@ 10032064     umodsys_lib_libui:umodsys.mod.ui.SDL_GL.obj
 0002:00005088       ??_C@_0CE@ONILMPPM@glMultiDrawElementsIndirectCount@ 10032088     umodsys_lib_libui:umodsys.mod.ui.SDL_GL.obj
 0002:000050ac       ??_C@_0BI@GEEEIEIJ@GL_ARB_instanced_arrays?$AA@ 100320ac     umodsys_lib_libui:umodsys.mod.ui.SDL_GL.obj
 0002:000050c4       ??_C@_0BJ@KDFJOAKK@glVertexAttribDivisorARB?$AA@ 100320c4     umodsys_lib_libui:umodsys.mod.ui.SDL_GL.obj
 0002:000050e0       ??_C@_0BM@CAEGIJIO@GL_ARB_internalformat_query?$AA@ 100320e0     umodsys_lib_libui:umodsys.mod.ui.SDL_GL.obj
 0002:000050fc       ??_C@_0BG@BAOCDJPF@glGetInternalformativ?$AA@ 100320fc     umodsys_lib_libui:umodsys.mod.ui.SDL_GL.obj
 0002:00005114       ??_C@_0BN@OHFALMNP@GL_ARB_internalformat_query2?$AA@ 10032114     umodsys_lib_libui:umodsys.mod.ui.SDL_GL.obj
 0002:00005134       ??_C@_0BI@PHNNEGBD@glGetInternalformati64v?$AA@ 10032134     umodsys_lib_libui:umodsys.mod.ui.SDL_GL.obj
 0002:0000514c       ??_C@_0BK@HKMBDNBJ@GL_ARB_invalidate_subdata?$AA@ 1003214c     umodsys_lib_libui:umodsys.mod.ui.SDL_GL.obj
 0002:00005168       ??_C@_0BH@OGIFIBHA@glInvalidateBufferData?$AA@ 10032168     umodsys_lib_libui:umodsys.mod.ui.SDL_GL.obj
 0002:00005180       ??_C@_0BK@HOHOHNAC@glInvalidateBufferSubData?$AA@ 10032180     umodsys_lib_libui:umodsys.mod.ui.SDL_GL.obj
 0002:0000519c       ??_C@_0BI@OAJPOHIP@glInvalidateFramebuffer?$AA@ 1003219c     umodsys_lib_libui:umodsys.mod.ui.SDL_GL.obj
 0002:000051b4       ??_C@_0BL@IHGLAPPE@glInvalidateSubFramebuffer?$AA@ 100321b4     umodsys_lib_libui:umodsys.mod.ui.SDL_GL.obj
 0002:000051d0       ??_C@_0BF@KHIECPKG@glInvalidateTexImage?$AA@ 100321d0     umodsys_lib_libui:umodsys.mod.ui.SDL_GL.obj
 0002:000051e8       ??_C@_0BI@FJDKFLGL@glInvalidateTexSubImage?$AA@ 100321e8     umodsys_lib_libui:umodsys.mod.ui.SDL_GL.obj
 0002:00005200       ??_C@_0BG@CILLCDJH@GL_ARB_matrix_palette?$AA@ 10032200     umodsys_lib_libui:umodsys.mod.ui.SDL_GL.obj
 0002:00005218       ??_C@_0BK@HJCEONII@glCurrentPaletteMatrixARB?$AA@ 10032218     umodsys_lib_libui:umodsys.mod.ui.SDL_GL.obj
 0002:00005234       ??_C@_0BI@LOCLKDCL@glMatrixIndexPointerARB?$AA@ 10032234     umodsys_lib_libui:umodsys.mod.ui.SDL_GL.obj
 0002:0000524c       ??_C@_0BE@HCLPKGGK@glMatrixIndexubvARB?$AA@ 1003224c     umodsys_lib_libui:umodsys.mod.ui.SDL_GL.obj
 0002:00005260       ??_C@_0BE@BIHIFGKJ@glMatrixIndexuivARB?$AA@ 10032260     umodsys_lib_libui:umodsys.mod.ui.SDL_GL.obj
 0002:00005274       ??_C@_0BE@LKDFHHFE@glMatrixIndexusvARB?$AA@ 10032274     umodsys_lib_libui:umodsys.mod.ui.SDL_GL.obj
 0002:00005288       ??_C@_0BC@HHGOLJHF@GL_ARB_multi_bind?$AA@ 10032288     umodsys_lib_libui:umodsys.mod.ui.SDL_GL.obj
 0002:0000529c       ??_C@_0BC@ENBBLPHM@glBindBuffersBase?$AA@ 1003229c     umodsys_lib_libui:umodsys.mod.ui.SDL_GL.obj
 0002:000052b0       ??_C@_0BD@ODFFOKPN@glBindBuffersRange?$AA@ 100322b0     umodsys_lib_libui:umodsys.mod.ui.SDL_GL.obj
 0002:000052c4       ??_C@_0BE@NAMJLOCK@glBindImageTextures?$AA@ 100322c4     umodsys_lib_libui:umodsys.mod.ui.SDL_GL.obj
 0002:000052d8       ??_C@_0P@FADPDFKM@glBindSamplers?$AA@ 100322d8     umodsys_lib_libui:umodsys.mod.ui.SDL_GL.obj
 0002:000052e8       ??_C@_0P@KHDEIIMA@glBindTextures?$AA@ 100322e8     umodsys_lib_libui:umodsys.mod.ui.SDL_GL.obj
 0002:000052f8       ??_C@_0BE@LNCGJHDC@glBindVertexBuffers?$AA@ 100322f8     umodsys_lib_libui:umodsys.mod.ui.SDL_GL.obj
 0002:0000530c       ??_C@_0BL@PDDLDNGB@GL_ARB_multi_draw_indirect?$AA@ 1003230c     umodsys_lib_libui:umodsys.mod.ui.SDL_GL.obj
 0002:00005328       ??_C@_0BK@IKGAIKOP@glMultiDrawArraysIndirect?$AA@ 10032328     umodsys_lib_libui:umodsys.mod.ui.SDL_GL.obj
 0002:00005344       ??_C@_0BM@KHEEFMKO@glMultiDrawElementsIndirect?$AA@ 10032344     umodsys_lib_libui:umodsys.mod.ui.SDL_GL.obj
 0002:00005360       ??_C@_0BD@PNEOICHK@GL_ARB_multisample?$AA@ 10032360     umodsys_lib_libui:umodsys.mod.ui.SDL_GL.obj
 0002:00005374       ??_C@_0BE@NMFNHPGD@glSampleCoverageARB?$AA@ 10032374     umodsys_lib_libui:umodsys.mod.ui.SDL_GL.obj
 0002:00005388       ??_C@_0BE@MEMOPMEA@GL_ARB_multitexture?$AA@ 10032388     umodsys_lib_libui:umodsys.mod.ui.SDL_GL.obj
 0002:0000539c       ??_C@_0BD@IKCKKKNH@glActiveTextureARB?$AA@ 1003239c     umodsys_lib_libui:umodsys.mod.ui.SDL_GL.obj
 0002:000053b0       ??_C@_0BJ@PBJNGLJH@glClientActiveTextureARB?$AA@ 100323b0     umodsys_lib_libui:umodsys.mod.ui.SDL_GL.obj
 0002:000053cc       ??_C@_0BF@JJDGKFDO@glMultiTexCoord1dARB?$AA@ 100323cc     umodsys_lib_libui:umodsys.mod.ui.SDL_GL.obj
 0002:000053e4       ??_C@_0BG@EODMDJBO@glMultiTexCoord1dvARB?$AA@ 100323e4     umodsys_lib_libui:umodsys.mod.ui.SDL_GL.obj
 0002:000053fc       ??_C@_0BF@ODPGPGFO@glMultiTexCoord1fARB?$AA@ 100323fc     umodsys_lib_libui:umodsys.mod.ui.SDL_GL.obj
 0002:00005414       ??_C@_0BG@DPEJIBF@glMultiTexCoord1fvARB?$AA@ 10032414     umodsys_lib_libui:umodsys.mod.ui.SDL_GL.obj
 0002:0000542c       ??_C@_0BF@GBKGGBIP@glMultiTexCoord1iARB?$AA@ 1003242c     umodsys_lib_libui:umodsys.mod.ui.SDL_GL.obj
 0002:00005444       ??_C@_0BG@PCKCCKMA@glMultiTexCoord1ivARB?$AA@ 10032444     umodsys_lib_libui:umodsys.mod.ui.SDL_GL.obj
 0002:0000545c       ??_C@_0BF@ELPGOOKM@glMultiTexCoord1sARB?$AA@ 1003245c     umodsys_lib_libui:umodsys.mod.ui.SDL_GL.obj
 0002:00005474       ??_C@_0BG@FAOPALDN@glMultiTexCoord1svARB?$AA@ 10032474     umodsys_lib_libui:umodsys.mod.ui.SDL_GL.obj
 0002:0000548c       ??_C@_0BF@BPKCNHJA@glMultiTexCoord2dARB?$AA@ 1003248c     umodsys_lib_libui:umodsys.mod.ui.SDL_GL.obj
 0002:000054a4       ??_C@_0BG@HPNECDID@glMultiTexCoord2dvARB?$AA@ 100324a4     umodsys_lib_libui:umodsys.mod.ui.SDL_GL.obj
 0002:000054bc       ??_C@_0BF@GFGCIEPA@glMultiTexCoord2fARB?$AA@ 100324bc     umodsys_lib_libui:umodsys.mod.ui.SDL_GL.obj
 0002:000054d4       ??_C@_0BG@DCBMICII@glMultiTexCoord2fvARB?$AA@ 100324d4     umodsys_lib_libui:umodsys.mod.ui.SDL_GL.obj
 0002:000054ec       ??_C@_0BF@OHDCBDCB@glMultiTexCoord2iARB?$AA@ 100324ec     umodsys_lib_libui:umodsys.mod.ui.SDL_GL.obj
 0002:00005504       ??_C@_0BG@MDEKDAFN@glMultiTexCoord2ivARB?$AA@ 10032504     umodsys_lib_libui:umodsys.mod.ui.SDL_GL.obj
 0002:0000551c       ??_C@_0BF@MNGCJMAC@glMultiTexCoord2sARB?$AA@ 1003251c     umodsys_lib_libui:umodsys.mod.ui.SDL_GL.obj
 0002:00005534       ??_C@_0BG@GBAHBBKA@glMultiTexCoord2svARB?$AA@ 10032534     umodsys_lib_libui:umodsys.mod.ui.SDL_GL.obj
 0002:0000554c       ??_C@_0BF@NEPOAEDF@glMultiTexCoord3dARB?$AA@ 1003254c     umodsys_lib_libui:umodsys.mod.ui.SDL_GL.obj
 0002:00005564       ??_C@_0BG@NJKDCIDH@glMultiTexCoord3dvARB?$AA@ 10032564     umodsys_lib_libui:umodsys.mod.ui.SDL_GL.obj
 0002:0000557c       ??_C@_0BF@KODOFHFF@glMultiTexCoord3fARB?$AA@ 1003257c     umodsys_lib_libui:umodsys.mod.ui.SDL_GL.obj
 0002:00005594       ??_C@_0BG@JEGLIJDM@glMultiTexCoord3fvARB?$AA@ 10032594     umodsys_lib_libui:umodsys.mod.ui.SDL_GL.obj
 0002:000055ac       ??_C@_0BF@CMGOMAIE@glMultiTexCoord3iARB?$AA@ 100325ac     umodsys_lib_libui:umodsys.mod.ui.SDL_GL.obj
 0002:000055c4       ??_C@_0BG@GFDNDLOJ@glMultiTexCoord3ivARB?$AA@ 100325c4     umodsys_lib_libui:umodsys.mod.ui.SDL_GL.obj
 0002:000055dc       ??_C@_0BF@GDOEPKH@glMultiTexCoord3sARB?$AA@ 100325dc     umodsys_lib_libui:umodsys.mod.ui.SDL_GL.obj
 0002:000055f4       ??_C@_0BG@MHHABKBE@glMultiTexCoord3svARB?$AA@ 100325f4     umodsys_lib_libui:umodsys.mod.ui.SDL_GL.obj
 0002:0000560c       ??_C@_0BF@MJPLDEIN@glMultiTexCoord4dARB?$AA@ 1003260c     umodsys_lib_libui:umodsys.mod.ui.SDL_GL.obj
 0002:00005624       ??_C@_0BG@BMAEBGLJ@glMultiTexCoord4dvARB?$AA@ 10032624     umodsys_lib_libui:umodsys.mod.ui.SDL_GL.obj
 0002:0000563c       ??_C@_0BF@LDDLGHON@glMultiTexCoord4fARB?$AA@ 1003263c     umodsys_lib_libui:umodsys.mod.ui.SDL_GL.obj
 0002:00005654       ??_C@_0BG@FBMMLHLC@glMultiTexCoord4fvARB?$AA@ 10032654     umodsys_lib_libui:umodsys.mod.ui.SDL_GL.obj
 0002:0000566c       ??_C@_0BF@DBGLPADM@glMultiTexCoord4iARB?$AA@ 1003266c     umodsys_lib_libui:umodsys.mod.ui.SDL_GL.obj
 0002:00005684       ??_C@_0BG@KAJKAFGH@glMultiTexCoord4ivARB?$AA@ 10032684     umodsys_lib_libui:umodsys.mod.ui.SDL_GL.obj
 0002:0000569c       ??_C@_0BF@BLDLHPBP@glMultiTexCoord4sARB?$AA@ 1003269c     umodsys_lib_libui:umodsys.mod.ui.SDL_GL.obj
 0002:000056b4       ??_C@_0BG@CNHCEJK@glMultiTexCoord4svARB?$AA@ 100326b4     umodsys_lib_libui:umodsys.mod.ui.SDL_GL.obj
 0002:000056cc       ??_C@_0BH@NKOBMOPI@GL_ARB_occlusion_query?$AA@ 100326cc     umodsys_lib_libui:umodsys.mod.ui.SDL_GL.obj
 0002:000056e4       ??_C@_0BA@LPKBABEB@glBeginQueryARB?$AA@ 100326e4     umodsys_lib_libui:umodsys.mod.ui.SDL_GL.obj
 0002:000056f4       ??_C@_0BD@HAEDHPKB@glDeleteQueriesARB?$AA@ 100326f4     umodsys_lib_libui:umodsys.mod.ui.SDL_GL.obj
 0002:00005708       ??_C@_0O@EFJDHGFG@glEndQueryARB?$AA@ 10032708     umodsys_lib_libui:umodsys.mod.ui.SDL_GL.obj
 0002:00005718       ??_C@_0BA@BJHFNMK@glGenQueriesARB?$AA@ 10032718     umodsys_lib_libui:umodsys.mod.ui.SDL_GL.obj
 0002:00005728       ??_C@_0BG@EDFKPCGN@glGetQueryObjectivARB?$AA@ 10032728     umodsys_lib_libui:umodsys.mod.ui.SDL_GL.obj
 0002:00005740       ??_C@_0BH@OOHKBDPD@glGetQueryObjectuivARB?$AA@ 10032740     umodsys_lib_libui:umodsys.mod.ui.SDL_GL.obj
 0002:00005758       ??_C@_0BA@DPEEILJC@glGetQueryivARB?$AA@ 10032758     umodsys_lib_libui:umodsys.mod.ui.SDL_GL.obj
 0002:00005768       ??_C@_0N@HKMIDCPF@glIsQueryARB?$AA@ 10032768     umodsys_lib_libui:umodsys.mod.ui.SDL_GL.obj
 0002:00005778       ??_C@_0BI@KJOBMOPB@GL_ARB_point_parameters?$AA@ 10032778     umodsys_lib_libui:umodsys.mod.ui.SDL_GL.obj
 0002:00005790       ??_C@_0BF@DADCFKCJ@glPointParameterfARB?$AA@ 10032790     umodsys_lib_libui:umodsys.mod.ui.SDL_GL.obj
 0002:000057a8       ??_C@_0BG@MNEGLICG@glPointParameterfvARB?$AA@ 100327a8     umodsys_lib_libui:umodsys.mod.ui.SDL_GL.obj
 0002:000057c0       ??_C@_0BP@DBPLPPLA@GL_ARB_program_interface_query?$AA@ 100327c0     umodsys_lib_libui:umodsys.mod.ui.SDL_GL.obj
 0002:000057e0       ??_C@_0BI@ICGPDPK@glGetProgramInterfaceiv?$AA@ 100327e0     umodsys_lib_libui:umodsys.mod.ui.SDL_GL.obj
 0002:000057f8       ??_C@_0BK@DBDCONKB@glGetProgramResourceIndex?$AA@ 100327f8     umodsys_lib_libui:umodsys.mod.ui.SDL_GL.obj
 0002:00005814       ??_C@_0BN@BIJNENLC@glGetProgramResourceLocation?$AA@ 10032814     umodsys_lib_libui:umodsys.mod.ui.SDL_GL.obj
 0002:00005834       ??_C@_0CC@GHECGAIH@glGetProgramResourceLocationInde@ 10032834     umodsys_lib_libui:umodsys.mod.ui.SDL_GL.obj
 0002:00005858       ??_C@_0BJ@OHCPEAGJ@glGetProgramResourceName?$AA@ 10032858     umodsys_lib_libui:umodsys.mod.ui.SDL_GL.obj
 0002:00005874       ??_C@_0BH@LEDFEPHI@glGetProgramResourceiv?$AA@ 10032874     umodsys_lib_libui:umodsys.mod.ui.SDL_GL.obj
 0002:0000588c       ??_C@_0BC@EOBKJDCM@GL_ARB_robustness?$AA@ 1003288c     umodsys_lib_libui:umodsys.mod.ui.SDL_GL.obj
 0002:000058a0       ??_C@_0BM@HDJJPNDL@glGetGraphicsResetStatusARB?$AA@ 100328a0     umodsys_lib_libui:umodsys.mod.ui.SDL_GL.obj
 0002:000058bc       ??_C@_0BE@EKKDCCDE@glGetnColorTableARB?$AA@ 100328bc     umodsys_lib_libui:umodsys.mod.ui.SDL_GL.obj
 0002:000058d0       ??_C@_0BM@IEIHGHHI@glGetnCompressedTexImageARB?$AA@ 100328d0     umodsys_lib_libui:umodsys.mod.ui.SDL_GL.obj
 0002:000058ec       ??_C@_0BL@KGPCMOFG@glGetnConvolutionFilterARB?$AA@ 100328ec     umodsys_lib_libui:umodsys.mod.ui.SDL_GL.obj
 0002:00005908       ??_C@_0BD@MOBMBOGN@glGetnHistogramARB?$AA@ 10032908     umodsys_lib_libui:umodsys.mod.ui.SDL_GL.obj
 0002:0000591c       ??_C@_0P@BCDNBFMA@glGetnMapdvARB?$AA@ 1003291c     umodsys_lib_libui:umodsys.mod.ui.SDL_GL.obj
 0002:0000592c       ??_C@_0P@FPPFLEML@glGetnMapfvARB?$AA@ 1003292c     umodsys_lib_libui:umodsys.mod.ui.SDL_GL.obj
 0002:0000593c       ??_C@_0P@KOKDAGBO@glGetnMapivARB?$AA@ 1003293c     umodsys_lib_libui:umodsys.mod.ui.SDL_GL.obj
 0002:0000594c       ??_C@_0BA@PCCAKFCF@glGetnMinmaxARB?$AA@ 1003294c     umodsys_lib_libui:umodsys.mod.ui.SDL_GL.obj
 0002:0000595c       ??_C@_0BE@FCLKGMPL@glGetnPixelMapfvARB?$AA@ 1003295c     umodsys_lib_libui:umodsys.mod.ui.SDL_GL.obj
 0002:00005970       ??_C@_0BF@BEPLFPF@glGetnPixelMapuivARB?$AA@ 10032970     umodsys_lib_libui:umodsys.mod.ui.SDL_GL.obj
 0002:00005988       ??_C@_0BF@KDACJEAI@glGetnPixelMapusvARB?$AA@ 10032988     umodsys_lib_libui:umodsys.mod.ui.SDL_GL.obj
 0002:000059a0       ??_C@_0BI@ENGMEGBP@glGetnPolygonStippleARB?$AA@ 100329a0     umodsys_lib_libui:umodsys.mod.ui.SDL_GL.obj
 0002:000059b8       ??_C@_0BJ@LPLOODMD@glGetnSeparableFilterARB?$AA@ 100329b8     umodsys_lib_libui:umodsys.mod.ui.SDL_GL.obj
 0002:000059d4       ??_C@_0BC@PIJGCEFC@glGetnTexImageARB?$AA@ 100329d4     umodsys_lib_libui:umodsys.mod.ui.SDL_GL.obj
 0002:000059e8       ??_C@_0BD@MEJNBIJE@glGetnUniformdvARB?$AA@ 100329e8     umodsys_lib_libui:umodsys.mod.ui.SDL_GL.obj
 0002:000059fc       ??_C@_0BD@IJFFLJJP@glGetnUniformfvARB?$AA@ 100329fc     umodsys_lib_libui:umodsys.mod.ui.SDL_GL.obj
 0002:00005a10       ??_C@_0BD@HIADALEK@glGetnUniformivARB?$AA@ 10032a10     umodsys_lib_libui:umodsys.mod.ui.SDL_GL.obj
 0002:00005a24       ??_C@_0BE@ELELPPGB@glGetnUniformuivARB?$AA@ 10032a24     umodsys_lib_libui:umodsys.mod.ui.SDL_GL.obj
 0002:00005a38       ??_C@_0BB@IPICMDNC@glReadnPixelsARB?$AA@ 10032a38     umodsys_lib_libui:umodsys.mod.ui.SDL_GL.obj
 0002:00005a4c       ??_C@_0BG@OGBJIDCC@GL_ARB_sample_shading?$AA@ 10032a4c     umodsys_lib_libui:umodsys.mod.ui.SDL_GL.obj
 0002:00005a64       ??_C@_0BG@KHPHHIHH@glMinSampleShadingARB?$AA@ 10032a64     umodsys_lib_libui:umodsys.mod.ui.SDL_GL.obj
 0002:00005a7c       ??_C@_0BP@CCMMHIFB@GL_ARB_separate_shader_objects?$AA@ 10032a7c     umodsys_lib_libui:umodsys.mod.ui.SDL_GL.obj
 0002:00005a9c       ??_C@_0BG@IAIOGMEB@glActiveShaderProgram?$AA@ 10032a9c     umodsys_lib_libui:umodsys.mod.ui.SDL_GL.obj
 0002:00005ab4       ??_C@_0BG@GLPOKNCG@glBindProgramPipeline?$AA@ 10032ab4     umodsys_lib_libui:umodsys.mod.ui.SDL_GL.obj
 0002:00005acc       ??_C@_0BH@BOJGDFJN@glCreateShaderProgramv?$AA@ 10032acc     umodsys_lib_libui:umodsys.mod.ui.SDL_GL.obj
 0002:00005ae4       ??_C@_0BJ@CHBGABHE@glDeleteProgramPipelines?$AA@ 10032ae4     umodsys_lib_libui:umodsys.mod.ui.SDL_GL.obj
 0002:00005b00       ??_C@_0BG@CCBKOCA@glGenProgramPipelines?$AA@ 10032b00     umodsys_lib_libui:umodsys.mod.ui.SDL_GL.obj
 0002:00005b18       ??_C@_0BM@BFFCFFFG@glGetProgramPipelineInfoLog?$AA@ 10032b18     umodsys_lib_libui:umodsys.mod.ui.SDL_GL.obj
 0002:00005b34       ??_C@_0BH@DNOPNJMO@glGetProgramPipelineiv?$AA@ 10032b34     umodsys_lib_libui:umodsys.mod.ui.SDL_GL.obj
 0002:00005b4c       ??_C@_0BE@DLHPDHCH@glIsProgramPipeline?$AA@ 10032b4c     umodsys_lib_libui:umodsys.mod.ui.SDL_GL.obj
 0002:00005b60       ??_C@_0BD@JLIFLIMB@glProgramUniform1d?$AA@ 10032b60     umodsys_lib_libui:umodsys.mod.ui.SDL_GL.obj
 0002:00005b74       ??_C@_0BE@JFJNKJOO@glProgramUniform1dv?$AA@ 10032b74     umodsys_lib_libui:umodsys.mod.ui.SDL_GL.obj
 0002:00005b88       ??_C@_0BD@KJLDNKED@glProgramUniform1f?$AA@ 10032b88     umodsys_lib_libui:umodsys.mod.ui.SDL_GL.obj
 0002:00005b9c       ??_C@_0BE@JGBJHNIA@glProgramUniform1fv?$AA@ 10032b9c     umodsys_lib_libui:umodsys.mod.ui.SDL_GL.obj
 0002:00005bb0       ??_C@_0BD@COCLMGIM@glProgramUniform1i?$AA@ 10032bb0     umodsys_lib_libui:umodsys.mod.ui.SDL_GL.obj
 0002:00005bc4       ??_C@_0BE@JNEFDKLN@glProgramUniform1iv?$AA@ 10032bc4     umodsys_lib_libui:umodsys.mod.ui.SDL_GL.obj
 0002:00005bd8       ??_C@_0BE@EFCDGODH@glProgramUniform1ui?$AA@ 10032bd8     umodsys_lib_libui:umodsys.mod.ui.SDL_GL.obj
 0002:00005bec       ??_C@_0BF@MBJNFIBB@glProgramUniform1uiv?$AA@ 10032bec     umodsys_lib_libui:umodsys.mod.ui.SDL_GL.obj
 0002:00005c04       ??_C@_0BD@JJMDAGJI@glProgramUniform2d?$AA@ 10032c04     umodsys_lib_libui:umodsys.mod.ui.SDL_GL.obj
 0002:00005c18       ??_C@_0BE@IHCIAGAA@glProgramUniform2dv?$AA@ 10032c18     umodsys_lib_libui:umodsys.mod.ui.SDL_GL.obj
 0002:00005c2c       ??_C@_0BD@KLPFGEBK@glProgramUniform2f?$AA@ 10032c2c     umodsys_lib_libui:umodsys.mod.ui.SDL_GL.obj
 0002:00005c40       ??_C@_0BE@IEKMNCGO@glProgramUniform2fv?$AA@ 10032c40     umodsys_lib_libui:umodsys.mod.ui.SDL_GL.obj
 0002:00005c54       ??_C@_0BD@CMGNHINF@glProgramUniform2i?$AA@ 10032c54     umodsys_lib_libui:umodsys.mod.ui.SDL_GL.obj
 0002:00005c68       ??_C@_0BE@IPPAJFFD@glProgramUniform2iv?$AA@ 10032c68     umodsys_lib_libui:umodsys.mod.ui.SDL_GL.obj
 0002:00005c7c       ??_C@_0BE@FHJGMBNJ@glProgramUniform2ui?$AA@ 10032c7c     umodsys_lib_libui:umodsys.mod.ui.SDL_GL.obj
 0002:00005c90       ??_C@_0BF@IGDNCCMB@glProgramUniform2uiv?$AA@ 10032c90     umodsys_lib_libui:umodsys.mod.ui.SDL_GL.obj
 0002:00005ca8       ??_C@_0BD@JIABGMKP@glProgramUniform3d?$AA@ 10032ca8     umodsys_lib_libui:umodsys.mod.ui.SDL_GL.obj
 0002:00005cbc       ??_C@_0BE@DPJEGBGF@glProgramUniform3dv?$AA@ 10032cbc     umodsys_lib_libui:umodsys.mod.ui.SDL_GL.obj
 0002:00005cd0       ??_C@_0BD@KKDHAOCN@glProgramUniform3f?$AA@ 10032cd0     umodsys_lib_libui:umodsys.mod.ui.SDL_GL.obj
 0002:00005ce4       ??_C@_0BE@DMBALFAL@glProgramUniform3fv?$AA@ 10032ce4     umodsys_lib_libui:umodsys.mod.ui.SDL_GL.obj
 0002:00005cf8       ??_C@_0BD@CNKPBCOC@glProgramUniform3i?$AA@ 10032cf8     umodsys_lib_libui:umodsys.mod.ui.SDL_GL.obj
 0002:00005d0c       ??_C@_0BE@DHEMPCDG@glProgramUniform3iv?$AA@ 10032d0c     umodsys_lib_libui:umodsys.mod.ui.SDL_GL.obj
 0002:00005d20       ??_C@_0BE@OPCKKGLM@glProgramUniform3ui?$AA@ 10032d20     umodsys_lib_libui:umodsys.mod.ui.SDL_GL.obj
 0002:00005d34       ??_C@_0BF@LLFNALHB@glProgramUniform3uiv?$AA@ 10032d34     umodsys_lib_libui:umodsys.mod.ui.SDL_GL.obj
 0002:00005d4c       ??_C@_0BD@JNEOHKCK@glProgramUniform4d?$AA@ 10032d4c     umodsys_lib_libui:umodsys.mod.ui.SDL_GL.obj
 0002:00005d60       ??_C@_0BE@KCEDFJNM@glProgramUniform4dv?$AA@ 10032d60     umodsys_lib_libui:umodsys.mod.ui.SDL_GL.obj
 0002:00005d74       ??_C@_0BD@KPHIBIKI@glProgramUniform4f?$AA@ 10032d74     umodsys_lib_libui:umodsys.mod.ui.SDL_GL.obj
 0002:00005d88       ??_C@_0BE@KBMHINLC@glProgramUniform4fv?$AA@ 10032d88     umodsys_lib_libui:umodsys.mod.ui.SDL_GL.obj
 0002:00005d9c       ??_C@_0BD@CIOAAEGH@glProgramUniform4i?$AA@ 10032d9c     umodsys_lib_libui:umodsys.mod.ui.SDL_GL.obj
 0002:00005db0       ??_C@_0BE@KKJLMKIP@glProgramUniform4iv?$AA@ 10032db0     umodsys_lib_libui:umodsys.mod.ui.SDL_GL.obj
 0002:00005dc4       ??_C@_0BE@HCPNJOAF@glProgramUniform4ui?$AA@ 10032dc4     umodsys_lib_libui:umodsys.mod.ui.SDL_GL.obj
 0002:00005dd8       ??_C@_0BF@JHNNHGB@glProgramUniform4uiv?$AA@ 10032dd8     umodsys_lib_libui:umodsys.mod.ui.SDL_GL.obj
 0002:00005df0       ??_C@_0BK@PAHLFKGL@glProgramUniformMatrix2dv?$AA@ 10032df0     umodsys_lib_libui:umodsys.mod.ui.SDL_GL.obj
 0002:00005e0c       ??_C@_0BK@PDPPIOAF@glProgramUniformMatrix2fv?$AA@ 10032e0c     umodsys_lib_libui:umodsys.mod.ui.SDL_GL.obj
 0002:00005e28       ??_C@_0BM@DCNGJFPN@glProgramUniformMatrix2x3dv?$AA@ 10032e28     umodsys_lib_libui:umodsys.mod.ui.SDL_GL.obj
 0002:00005e44       ??_C@_0BM@DBFCEBJD@glProgramUniformMatrix2x3fv?$AA@ 10032e44     umodsys_lib_libui:umodsys.mod.ui.SDL_GL.obj
 0002:00005e60       ??_C@_0BM@KPABKNEE@glProgramUniformMatrix2x4dv?$AA@ 10032e60     umodsys_lib_libui:umodsys.mod.ui.SDL_GL.obj
 0002:00005e7c       ??_C@_0BM@KMIFHJCK@glProgramUniformMatrix2x4fv?$AA@ 10032e7c     umodsys_lib_libui:umodsys.mod.ui.SDL_GL.obj
 0002:00005e98       ??_C@_0BK@EIMHDNAO@glProgramUniformMatrix3dv?$AA@ 10032e98     umodsys_lib_libui:umodsys.mod.ui.SDL_GL.obj
 0002:00005eb4       ??_C@_0BK@ELEDOJGA@glProgramUniformMatrix3fv?$AA@ 10032eb4     umodsys_lib_libui:umodsys.mod.ui.SDL_GL.obj
 0002:00005ed0       ??_C@_0BM@EBDGCBDN@glProgramUniformMatrix3x2dv?$AA@ 10032ed0     umodsys_lib_libui:umodsys.mod.ui.SDL_GL.obj
 0002:00005eec       ??_C@_0BM@ECLCPFFD@glProgramUniformMatrix3x2fv?$AA@ 10032eec     umodsys_lib_libui:umodsys.mod.ui.SDL_GL.obj
 0002:00005f08       ??_C@_0BM@GEFNHOOB@glProgramUniformMatrix3x4dv?$AA@ 10032f08     umodsys_lib_libui:umodsys.mod.ui.SDL_GL.obj
 0002:00005f24       ??_C@_0BM@GHNJKKIP@glProgramUniformMatrix3x4fv?$AA@ 10032f24     umodsys_lib_libui:umodsys.mod.ui.SDL_GL.obj
 0002:00005f40       ??_C@_0BK@NFBAAFLH@glProgramUniformMatrix4dv?$AA@ 10032f40     umodsys_lib_libui:umodsys.mod.ui.SDL_GL.obj
 0002:00005f5c       ??_C@_0BK@NGJENBNJ@glProgramUniformMatrix4fv?$AA@ 10032f5c     umodsys_lib_libui:umodsys.mod.ui.SDL_GL.obj
 0002:00005f78       ??_C@_0BM@FMDDBBIF@glProgramUniformMatrix4x2dv?$AA@ 10032f78     umodsys_lib_libui:umodsys.mod.ui.SDL_GL.obj
 0002:00005f94       ??_C@_0BM@FPLHMFOL@glProgramUniformMatrix4x2fv?$AA@ 10032f94     umodsys_lib_libui:umodsys.mod.ui.SDL_GL.obj
 0002:00005fb0       ??_C@_0BM@OEIPHGOA@glProgramUniformMatrix4x3dv?$AA@ 10032fb0     umodsys_lib_libui:umodsys.mod.ui.SDL_GL.obj
 0002:00005fcc       ??_C@_0BM@OHALKCIO@glProgramUniformMatrix4x3fv?$AA@ 10032fcc     umodsys_lib_libui:umodsys.mod.ui.SDL_GL.obj
 0002:00005fe8       ??_C@_0BD@CADKHDMH@glUseProgramStages?$AA@ 10032fe8     umodsys_lib_libui:umodsys.mod.ui.SDL_GL.obj
 0002:00005ffc       ??_C@_0BK@HHHCKEGH@glValidateProgramPipeline?$AA@ 10032ffc     umodsys_lib_libui:umodsys.mod.ui.SDL_GL.obj
 0002:00006018       ??_C@_0BO@IIINIEKI@GL_ARB_shader_atomic_counters?$AA@ 10033018     umodsys_lib_libui:umodsys.mod.ui.SDL_GL.obj
 0002:00006038       ??_C@_0CB@CEHFMJFN@glGetActiveAtomicCounterBufferiv@ 10033038     umodsys_lib_libui:umodsys.mod.ui.SDL_GL.obj
 0002:0000605c       ??_C@_0BP@JHNJKEFP@GL_ARB_shader_image_load_store?$AA@ 1003305c     umodsys_lib_libui:umodsys.mod.ui.SDL_GL.obj
 0002:0000607c       ??_C@_0BD@GAKEPNGD@glBindImageTexture?$AA@ 1003307c     umodsys_lib_libui:umodsys.mod.ui.SDL_GL.obj
 0002:00006090       ??_C@_0BA@HIHPNLBJ@glMemoryBarrier?$AA@ 10033090     umodsys_lib_libui:umodsys.mod.ui.SDL_GL.obj
 0002:000060a0       ??_C@_0BG@OLLFAEMA@GL_ARB_shader_objects?$AA@ 100330a0     umodsys_lib_libui:umodsys.mod.ui.SDL_GL.obj
 0002:000060b8       ??_C@_0BC@GINLBKLJ@glAttachObjectARB?$AA@ 100330b8     umodsys_lib_libui:umodsys.mod.ui.SDL_GL.obj
 0002:000060cc       ??_C@_0BD@BEDGBOPM@glCompileShaderARB?$AA@ 100330cc     umodsys_lib_libui:umodsys.mod.ui.SDL_GL.obj
 0002:000060e0       ??_C@_0BJ@KGMBEPBI@glCreateProgramObjectARB?$AA@ 100330e0     umodsys_lib_libui:umodsys.mod.ui.SDL_GL.obj
 0002:000060fc       ??_C@_0BI@FMNPOEGE@glCreateShaderObjectARB?$AA@ 100330fc     umodsys_lib_libui:umodsys.mod.ui.SDL_GL.obj
 0002:00006114       ??_C@_0BC@MJFNICLA@glDeleteObjectARB?$AA@ 10033114     umodsys_lib_libui:umodsys.mod.ui.SDL_GL.obj
 0002:00006128       ??_C@_0BC@OPBLIDAI@glDetachObjectARB?$AA@ 10033128     umodsys_lib_libui:umodsys.mod.ui.SDL_GL.obj
 0002:0000613c       ??_C@_0BG@FNEOAGIK@glGetActiveUniformARB?$AA@ 1003313c     umodsys_lib_libui:umodsys.mod.ui.SDL_GL.obj
 0002:00006154       ??_C@_0BI@KFAABOIL@glGetAttachedObjectsARB?$AA@ 10033154     umodsys_lib_libui:umodsys.mod.ui.SDL_GL.obj
 0002:0000616c       ??_C@_0P@LFBJNCKO@glGetHandleARB?$AA@ 1003316c     umodsys_lib_libui:umodsys.mod.ui.SDL_GL.obj
 0002:0000617c       ??_C@_0BA@FLIOBLOG@glGetInfoLogARB?$AA@ 1003317c     umodsys_lib_libui:umodsys.mod.ui.SDL_GL.obj
 0002:0000618c       ??_C@_0BK@HCFOBODO@glGetObjectParameterfvARB?$AA@ 1003318c     umodsys_lib_libui:umodsys.mod.ui.SDL_GL.obj
 0002:000061a8       ??_C@_0BK@IDAIKMOL@glGetObjectParameterivARB?$AA@ 100331a8     umodsys_lib_libui:umodsys.mod.ui.SDL_GL.obj
 0002:000061c4       ??_C@_0BF@OBGOKFNE@glGetShaderSourceARB?$AA@ 100331c4     umodsys_lib_libui:umodsys.mod.ui.SDL_GL.obj
 0002:000061dc       ??_C@_0BI@CAFPPHDC@glGetUniformLocationARB?$AA@ 100331dc     umodsys_lib_libui:umodsys.mod.ui.SDL_GL.obj
 0002:000061f4       ??_C@_0BC@KKIJAHAK@glGetUniformfvARB?$AA@ 100331f4     umodsys_lib_libui:umodsys.mod.ui.SDL_GL.obj
 0002:00006208       ??_C@_0BC@FLNPLFNP@glGetUniformivARB?$AA@ 10033208     umodsys_lib_libui:umodsys.mod.ui.SDL_GL.obj
 0002:0000621c       ??_C@_0BB@HPIAOOAG@glLinkProgramARB?$AA@ 1003321c     umodsys_lib_libui:umodsys.mod.ui.SDL_GL.obj
 0002:00006230       ??_C@_0BC@MCCOFGJG@glShaderSourceARB?$AA@ 10033230     umodsys_lib_libui:umodsys.mod.ui.SDL_GL.obj
 0002:00006244       ??_C@_0P@KFNIAEEC@glUniform1fARB?$AA@ 10033244     umodsys_lib_libui:umodsys.mod.ui.SDL_GL.obj
 0002:00006254       ??_C@_0BA@BHLDOKKI@glUniform1fvARB?$AA@ 10033254     umodsys_lib_libui:umodsys.mod.ui.SDL_GL.obj
 0002:00006264       ??_C@_0P@CHIIJDJD@glUniform1iARB?$AA@ 10033264     umodsys_lib_libui:umodsys.mod.ui.SDL_GL.obj
 0002:00006274       ??_C@_0BA@OGOFFIHN@glUniform1ivARB?$AA@ 10033274     umodsys_lib_libui:umodsys.mod.ui.SDL_GL.obj
 0002:00006284       ??_C@_0P@CDEMHGOM@glUniform2fARB?$AA@ 10033284     umodsys_lib_libui:umodsys.mod.ui.SDL_GL.obj
 0002:00006294       ??_C@_0BA@CGFLPADF@glUniform2fvARB?$AA@ 10033294     umodsys_lib_libui:umodsys.mod.ui.SDL_GL.obj
 0002:000062a4       ??_C@_0P@KBBMOBDN@glUniform2iARB?$AA@ 100332a4     umodsys_lib_libui:umodsys.mod.ui.SDL_GL.obj
 0002:000062b4       ??_C@_0BA@NHANECOA@glUniform2ivARB?$AA@ 100332b4     umodsys_lib_libui:umodsys.mod.ui.SDL_GL.obj
 0002:000062c4       ??_C@_0P@OIBAKFEJ@glUniform3fARB?$AA@ 100332c4     umodsys_lib_libui:umodsys.mod.ui.SDL_GL.obj
 0002:000062d4       ??_C@_0BA@IACMPLIB@glUniform3fvARB?$AA@ 100332d4     umodsys_lib_libui:umodsys.mod.ui.SDL_GL.obj
 0002:000062e4       ??_C@_0P@GKEADCJI@glUniform3iARB?$AA@ 100332e4     umodsys_lib_libui:umodsys.mod.ui.SDL_GL.obj
 0002:000062f4       ??_C@_0BA@HBHKEJFE@glUniform3ivARB?$AA@ 100332f4     umodsys_lib_libui:umodsys.mod.ui.SDL_GL.obj
 0002:00006304       ??_C@_0P@PFBFJFPB@glUniform4fARB?$AA@ 10033304     umodsys_lib_libui:umodsys.mod.ui.SDL_GL.obj
 0002:00006314       ??_C@_0BA@EFILMFAP@glUniform4fvARB?$AA@ 10033314     umodsys_lib_libui:umodsys.mod.ui.SDL_GL.obj
 0002:00006324       ??_C@_0P@HHEFACCA@glUniform4iARB?$AA@ 10033324     umodsys_lib_libui:umodsys.mod.ui.SDL_GL.obj
 0002:00006334       ??_C@_0BA@LENNHHNK@glUniform4ivARB?$AA@ 10033334     umodsys_lib_libui:umodsys.mod.ui.SDL_GL.obj
 0002:00006344       ??_C@_0BG@KPIOAAJO@glUniformMatrix2fvARB?$AA@ 10033344     umodsys_lib_libui:umodsys.mod.ui.SDL_GL.obj
 0002:0000635c       ??_C@_0BG@JPJALCK@glUniformMatrix3fvARB?$AA@ 1003335c     umodsys_lib_libui:umodsys.mod.ui.SDL_GL.obj
 0002:00006374       ??_C@_0BG@MMFODFKE@glUniformMatrix4fvARB?$AA@ 10033374     umodsys_lib_libui:umodsys.mod.ui.SDL_GL.obj
 0002:0000638c       ??_C@_0BG@JEOFPDIM@glUseProgramObjectARB?$AA@ 1003338c     umodsys_lib_libui:umodsys.mod.ui.SDL_GL.obj
 0002:000063a4       ??_C@_0BF@BGDHGNPG@glValidateProgramARB?$AA@ 100333a4     umodsys_lib_libui:umodsys.mod.ui.SDL_GL.obj
 0002:000063bc       ??_C@_0CE@HBCJMOIO@GL_ARB_shader_storage_buffer_obj@ 100333bc     umodsys_lib_libui:umodsys.mod.ui.SDL_GL.obj
 0002:000063e0       ??_C@_0BM@GDDCNIBO@glShaderStorageBlockBinding?$AA@ 100333e0     umodsys_lib_libui:umodsys.mod.ui.SDL_GL.obj
 0002:000063fc       ??_C@_0CA@DOHJAPBD@GL_ARB_shading_language_include?$AA@ 100333fc     umodsys_lib_libui:umodsys.mod.ui.SDL_GL.obj
 0002:0000641c       ??_C@_0BK@EDOCLMLD@glCompileShaderIncludeARB?$AA@ 1003341c     umodsys_lib_libui:umodsys.mod.ui.SDL_GL.obj
 0002:00006438       ??_C@_0BH@NCMBPFNK@glDeleteNamedStringARB?$AA@ 10033438     umodsys_lib_libui:umodsys.mod.ui.SDL_GL.obj
 0002:00006450       ??_C@_0BE@NFONNCFF@glGetNamedStringARB?$AA@ 10033450     umodsys_lib_libui:umodsys.mod.ui.SDL_GL.obj
 0002:00006464       ??_C@_0BG@MPGNLJCM@glGetNamedStringivARB?$AA@ 10033464     umodsys_lib_libui:umodsys.mod.ui.SDL_GL.obj
 0002:0000647c       ??_C@_0BD@ICFECEJF@glIsNamedStringARB?$AA@ 1003347c     umodsys_lib_libui:umodsys.mod.ui.SDL_GL.obj
 0002:00006490       ??_C@_0BB@EMHJCPKC@glNamedStringARB?$AA@ 10033490     umodsys_lib_libui:umodsys.mod.ui.SDL_GL.obj
 0002:000064a4       ??_C@_0BG@EEMFDFOI@GL_ARB_sparse_texture?$AA@ 100334a4     umodsys_lib_libui:umodsys.mod.ui.SDL_GL.obj
 0002:000064bc       ??_C@_0BH@MNMDGLPG@glTexPageCommitmentARB?$AA@ 100334bc     umodsys_lib_libui:umodsys.mod.ui.SDL_GL.obj
 0002:000064d4       ??_C@_0BN@IPJPHCKH@GL_ARB_texture_buffer_object?$AA@ 100334d4     umodsys_lib_libui:umodsys.mod.ui.SDL_GL.obj
 0002:000064f4       ??_C@_0P@OBHFBJAP@glTexBufferARB?$AA@ 100334f4     umodsys_lib_libui:umodsys.mod.ui.SDL_GL.obj
 0002:00006504       ??_C@_0BM@IPNAGCND@GL_ARB_texture_buffer_range?$AA@ 10033504     umodsys_lib_libui:umodsys.mod.ui.SDL_GL.obj
 0002:00006520       ??_C@_0BB@DPMGLFNI@glTexBufferRange?$AA@ 10033520     umodsys_lib_libui:umodsys.mod.ui.SDL_GL.obj
 0002:00006534       ??_C@_0BL@PEFPCGDJ@GL_ARB_texture_compression?$AA@ 10033534     umodsys_lib_libui:umodsys.mod.ui.SDL_GL.obj
 0002:00006550       ??_C@_0BK@GFNCBPLO@glCompressedTexImage1DARB?$AA@ 10033550     umodsys_lib_libui:umodsys.mod.ui.SDL_GL.obj
 0002:0000656c       ??_C@_0BK@ODEGGNBA@glCompressedTexImage2DARB?$AA@ 1003356c     umodsys_lib_libui:umodsys.mod.ui.SDL_GL.obj
 0002:00006588       ??_C@_0BK@CIBKLOLF@glCompressedTexImage3DARB?$AA@ 10033588     umodsys_lib_libui:umodsys.mod.ui.SDL_GL.obj
 0002:000065a4       ??_C@_0BN@DBMDJCJF@glCompressedTexSubImage1DARB?$AA@ 100335a4     umodsys_lib_libui:umodsys.mod.ui.SDL_GL.obj
 0002:000065c4       ??_C@_0BN@LHFHOADL@glCompressedTexSubImage2DARB?$AA@ 100335c4     umodsys_lib_libui:umodsys.mod.ui.SDL_GL.obj
 0002:000065e4       ??_C@_0BN@HMALDDJO@glCompressedTexSubImage3DARB?$AA@ 100335e4     umodsys_lib_libui:umodsys.mod.ui.SDL_GL.obj
 0002:00006604       ??_C@_0BL@CKKCLKDF@glGetCompressedTexImageARB?$AA@ 10033604     umodsys_lib_libui:umodsys.mod.ui.SDL_GL.obj
 0002:00006620       ??_C@_0BH@KEOKNPHF@GL_ARB_texture_storage?$AA@ 10033620     umodsys_lib_libui:umodsys.mod.ui.SDL_GL.obj
 0002:00006638       ??_C@_0P@LCLGPEBO@glTexStorage1D?$AA@ 10033638     umodsys_lib_libui:umodsys.mod.ui.SDL_GL.obj
 0002:00006648       ??_C@_0P@LAPAEKEH@glTexStorage2D?$AA@ 10033648     umodsys_lib_libui:umodsys.mod.ui.SDL_GL.obj
 0002:00006658       ??_C@_0P@LBDCCAHA@glTexStorage3D?$AA@ 10033658     umodsys_lib_libui:umodsys.mod.ui.SDL_GL.obj
 0002:00006668       ??_C@_0CD@EKHGLAOK@GL_ARB_texture_storage_multisamp@ 10033668     umodsys_lib_libui:umodsys.mod.ui.SDL_GL.obj
 0002:0000668c       ??_C@_0BK@PDJAKDKP@glTexStorage2DMultisample?$AA@ 1003368c     umodsys_lib_libui:umodsys.mod.ui.SDL_GL.obj
 0002:000066a8       ??_C@_0BK@GOJPECNJ@glTexStorage3DMultisample?$AA@ 100336a8     umodsys_lib_libui:umodsys.mod.ui.SDL_GL.obj
 0002:000066c4       ??_C@_0BE@HCMLPJMK@GL_ARB_texture_view?$AA@ 100336c4     umodsys_lib_libui:umodsys.mod.ui.SDL_GL.obj
 0002:000066d8       ??_C@_0O@BNFDGIMP@glTextureView?$AA@ 100336d8     umodsys_lib_libui:umodsys.mod.ui.SDL_GL.obj
 0002:000066e8       ??_C@_0CE@HBNDFFCP@GL_ARB_transform_feedback_instan@ 100336e8     umodsys_lib_libui:umodsys.mod.ui.SDL_GL.obj
 0002:0000670c       ??_C@_0CB@NDMLCEF@glDrawTransformFeedbackInstanced@ 1003370c     umodsys_lib_libui:umodsys.mod.ui.SDL_GL.obj
 0002:00006730       ??_C@_0CH@OMPFKBLK@glDrawTransformFeedbackStreamIns@ 10033730     umodsys_lib_libui:umodsys.mod.ui.SDL_GL.obj
 0002:00006758       ??_C@_0BI@OLAKMOK@GL_ARB_transpose_matrix?$AA@ 10033758     umodsys_lib_libui:umodsys.mod.ui.SDL_GL.obj
 0002:00006770       ??_C@_0BK@JMMPDFPI@glLoadTransposeMatrixdARB?$AA@ 10033770     umodsys_lib_libui:umodsys.mod.ui.SDL_GL.obj
 0002:0000678c       ??_C@_0BK@OGAPGGJI@glLoadTransposeMatrixfARB?$AA@ 1003378c     umodsys_lib_libui:umodsys.mod.ui.SDL_GL.obj
 0002:000067a8       ??_C@_0BK@EIJJIFHA@glMultTransposeMatrixdARB?$AA@ 100337a8     umodsys_lib_libui:umodsys.mod.ui.SDL_GL.obj
 0002:000067c4       ??_C@_0BK@DCFJNGBA@glMultTransposeMatrixfARB?$AA@ 100337c4     umodsys_lib_libui:umodsys.mod.ui.SDL_GL.obj
 0002:000067e0       ??_C@_0BL@KMJMBFGI@GL_ARB_vertex_attrib_64bit?$AA@ 100337e0     umodsys_lib_libui:umodsys.mod.ui.SDL_GL.obj
 0002:000067fc       ??_C@_0BF@JADLCNLO@glGetVertexAttribLdv?$AA@ 100337fc     umodsys_lib_libui:umodsys.mod.ui.SDL_GL.obj
 0002:00006814       ??_C@_0BC@KBPIECHE@glVertexAttribL1d?$AA@ 10033814     umodsys_lib_libui:umodsys.mod.ui.SDL_GL.obj
 0002:00006828       ??_C@_0BD@COKMJDBH@glVertexAttribL1dv?$AA@ 10033828     umodsys_lib_libui:umodsys.mod.ui.SDL_GL.obj
 0002:0000683c       ??_C@_0BC@KDLOPMCN@glVertexAttribL2d?$AA@ 1003383c     umodsys_lib_libui:umodsys.mod.ui.SDL_GL.obj
 0002:00006850       ??_C@_0BD@DMBJDMPJ@glVertexAttribL2dv?$AA@ 10033850     umodsys_lib_libui:umodsys.mod.ui.SDL_GL.obj
 0002:00006864       ??_C@_0BC@KCHMJGBK@glVertexAttribL3d?$AA@ 10033864     umodsys_lib_libui:umodsys.mod.ui.SDL_GL.obj
 0002:00006878       ??_C@_0BD@IEKFFLJM@glVertexAttribL3dv?$AA@ 10033878     umodsys_lib_libui:umodsys.mod.ui.SDL_GL.obj
 0002:0000688c       ??_C@_0BC@KHDDIAJP@glVertexAttribL4d?$AA@ 1003388c     umodsys_lib_libui:umodsys.mod.ui.SDL_GL.obj
 0002:000068a0       ??_C@_0BD@BJHCGDCF@glVertexAttribL4dv?$AA@ 100338a0     umodsys_lib_libui:umodsys.mod.ui.SDL_GL.obj
 0002:000068b4       ??_C@_0BH@JBHDDPGM@glVertexAttribLPointer?$AA@ 100338b4     umodsys_lib_libui:umodsys.mod.ui.SDL_GL.obj
 0002:000068cc       ??_C@_0BN@BGEDEMFB@GL_ARB_vertex_attrib_binding?$AA@ 100338cc     umodsys_lib_libui:umodsys.mod.ui.SDL_GL.obj
 0002:000068ec       ??_C@_0BD@FCGJAOHG@glBindVertexBuffer?$AA@ 100338ec     umodsys_lib_libui:umodsys.mod.ui.SDL_GL.obj
 0002:00006900       ??_C@_0BG@MLFHCGE@glVertexAttribBinding?$AA@ 10033900     umodsys_lib_libui:umodsys.mod.ui.SDL_GL.obj
 0002:00006918       ??_C@_0BF@JEIPPBFE@glVertexAttribFormat?$AA@ 10033918     umodsys_lib_libui:umodsys.mod.ui.SDL_GL.obj
 0002:00006930       ??_C@_0BG@KJAHAHDI@glVertexAttribIFormat?$AA@ 10033930     umodsys_lib_libui:umodsys.mod.ui.SDL_GL.obj
 0002:00006948       ??_C@_0BG@OBOHAJFM@glVertexAttribLFormat?$AA@ 10033948     umodsys_lib_libui:umodsys.mod.ui.SDL_GL.obj
 0002:00006960       ??_C@_0BH@GNGCLGOI@glVertexBindingDivisor?$AA@ 10033960     umodsys_lib_libui:umodsys.mod.ui.SDL_GL.obj
 0002:00006978       ??_C@_0BE@HEPDDKDL@GL_ARB_vertex_blend?$AA@ 10033978     umodsys_lib_libui:umodsys.mod.ui.SDL_GL.obj
 0002:0000698c       ??_C@_0BB@BINNIMAP@glVertexBlendARB?$AA@ 1003398c     umodsys_lib_libui:umodsys.mod.ui.SDL_GL.obj
 0002:000069a0       ??_C@_0BD@FICKLEOD@glWeightPointerARB?$AA@ 100339a0     umodsys_lib_libui:umodsys.mod.ui.SDL_GL.obj
 0002:000069b4       ??_C@_0O@IJNFJGFD@glWeightbvARB?$AA@ 100339b4     umodsys_lib_libui:umodsys.mod.ui.SDL_GL.obj
 0002:000069c4       ??_C@_0O@FPIMHFEO@glWeightdvARB?$AA@ 100339c4     umodsys_lib_libui:umodsys.mod.ui.SDL_GL.obj
 0002:000069d4       ??_C@_0O@BCEENEEF@glWeightfvARB?$AA@ 100339d4     umodsys_lib_libui:umodsys.mod.ui.SDL_GL.obj
 0002:000069e4       ??_C@_0O@ODBCGGJA@glWeightivARB?$AA@ 100339e4     umodsys_lib_libui:umodsys.mod.ui.SDL_GL.obj
 0002:000069f4       ??_C@_0O@EBFPEHGN@glWeightsvARB?$AA@ 100339f4     umodsys_lib_libui:umodsys.mod.ui.SDL_GL.obj
 0002:00006a04       ??_C@_0P@EHBBCFAF@glWeightubvARB?$AA@ 10033a04     umodsys_lib_libui:umodsys.mod.ui.SDL_GL.obj
 0002:00006a14       ??_C@_0P@CNNGNFMG@glWeightuivARB?$AA@ 10033a14     umodsys_lib_libui:umodsys.mod.ui.SDL_GL.obj
 0002:00006a24       ??_C@_0P@IPJLPEDL@glWeightusvARB?$AA@ 10033a24     umodsys_lib_libui:umodsys.mod.ui.SDL_GL.obj
 0002:00006a34       ??_C@_0BM@OOMEFFAE@GL_ARB_vertex_buffer_object?$AA@ 10033a34     umodsys_lib_libui:umodsys.mod.ui.SDL_GL.obj
 0002:00006a50       ??_C@_0BA@FDIFNALK@glBindBufferARB?$AA@ 10033a50     umodsys_lib_libui:umodsys.mod.ui.SDL_GL.obj
 0002:00006a60       ??_C@_0BA@HLIGBCAN@glBufferDataARB?$AA@ 10033a60     umodsys_lib_libui:umodsys.mod.ui.SDL_GL.obj
 0002:00006a70       ??_C@_0BD@KFMFAAJP@glBufferSubDataARB?$AA@ 10033a70     umodsys_lib_libui:umodsys.mod.ui.SDL_GL.obj
 0002:00006a84       ??_C@_0BD@FPFIIGCI@glDeleteBuffersARB?$AA@ 10033a84     umodsys_lib_libui:umodsys.mod.ui.SDL_GL.obj
 0002:00006a98       ??_C@_0BA@COIMKEED@glGenBuffersARB?$AA@ 10033a98     umodsys_lib_libui:umodsys.mod.ui.SDL_GL.obj
 0002:00006aa8       ??_C@_0BK@NELBDMOH@glGetBufferParameterivARB?$AA@ 10033aa8     umodsys_lib_libui:umodsys.mod.ui.SDL_GL.obj
 0002:00006ac4       ??_C@_0BH@KNGCJBNB@glGetBufferPointervARB?$AA@ 10033ac4     umodsys_lib_libui:umodsys.mod.ui.SDL_GL.obj
 0002:00006adc       ??_C@_0BG@DNDEGANA@glGetBufferSubDataARB?$AA@ 10033adc     umodsys_lib_libui:umodsys.mod.ui.SDL_GL.obj
 0002:00006af4       ??_C@_0O@BCHKDNEE@glIsBufferARB?$AA@ 10033af4     umodsys_lib_libui:umodsys.mod.ui.SDL_GL.obj
 0002:00006b04       ??_C@_0P@GLCCGPAH@glMapBufferARB?$AA@ 10033b04     umodsys_lib_libui:umodsys.mod.ui.SDL_GL.obj
 0002:00006b14       ??_C@_0BB@IODLHHEP@glUnmapBufferARB?$AA@ 10033b14     umodsys_lib_libui:umodsys.mod.ui.SDL_GL.obj
 0002:00006b28       ??_C@_0BG@LDHOGOBF@GL_ARB_vertex_program?$AA@ 10033b28     umodsys_lib_libui:umodsys.mod.ui.SDL_GL.obj
 0002:00006b40       ??_C@_0BB@OAGHGJAC@glBindProgramARB?$AA@ 10033b40     umodsys_lib_libui:umodsys.mod.ui.SDL_GL.obj
 0002:00006b54       ??_C@_0BE@EJCMOJPP@glDeleteProgramsARB?$AA@ 10033b54     umodsys_lib_libui:umodsys.mod.ui.SDL_GL.obj
 0002:00006b68       ??_C@_0BO@HGKLJN@glDisableVertexAttribArrayARB?$AA@ 10033b68     umodsys_lib_libui:umodsys.mod.ui.SDL_GL.obj
 0002:00006b88       ??_C@_0BN@FKABDPBF@glEnableVertexAttribArrayARB?$AA@ 10033b88     umodsys_lib_libui:umodsys.mod.ui.SDL_GL.obj
 0002:00006ba8       ??_C@_0BB@JDDNIFAN@glGenProgramsARB?$AA@ 10033ba8     umodsys_lib_libui:umodsys.mod.ui.SDL_GL.obj
 0002:00006bbc       ??_C@_0BO@NHNBOOKI@glGetProgramEnvParameterdvARB?$AA@ 10033bbc     umodsys_lib_libui:umodsys.mod.ui.SDL_GL.obj
 0002:00006bdc       ??_C@_0BO@JKBJEPKD@glGetProgramEnvParameterfvARB?$AA@ 10033bdc     umodsys_lib_libui:umodsys.mod.ui.SDL_GL.obj
 0002:00006bfc       ??_C@_0CA@IBOBFJKB@glGetProgramLocalParameterdvARB?$AA@ 10033bfc     umodsys_lib_libui:umodsys.mod.ui.SDL_GL.obj
 0002:00006c1c       ??_C@_0CA@MMCJPIKK@glGetProgramLocalParameterfvARB?$AA@ 10033c1c     umodsys_lib_libui:umodsys.mod.ui.SDL_GL.obj
 0002:00006c3c       ??_C@_0BG@OAOKBADO@glGetProgramStringARB?$AA@ 10033c3c     umodsys_lib_libui:umodsys.mod.ui.SDL_GL.obj
 0002:00006c54       ??_C@_0BC@OHCOJECC@glGetProgramivARB?$AA@ 10033c54     umodsys_lib_libui:umodsys.mod.ui.SDL_GL.obj
 0002:00006c68       ??_C@_0BN@PFKJEGFB@glGetVertexAttribPointervARB?$AA@ 10033c68     umodsys_lib_libui:umodsys.mod.ui.SDL_GL.obj
 0002:00006c88       ??_C@_0BH@OMNBLIA@glGetVertexAttribdvARB?$AA@ 10033c88     umodsys_lib_libui:umodsys.mod.ui.SDL_GL.obj
 0002:00006ca0       ??_C@_0BH@EDAFLKIL@glGetVertexAttribfvARB?$AA@ 10033ca0     umodsys_lib_libui:umodsys.mod.ui.SDL_GL.obj
 0002:00006cb8       ??_C@_0BH@LCFDAIFO@glGetVertexAttribivARB?$AA@ 10033cb8     umodsys_lib_libui:umodsys.mod.ui.SDL_GL.obj
 0002:00006cd0       ??_C@_0P@LKCDEJPE@glIsProgramARB?$AA@ 10033cd0     umodsys_lib_libui:umodsys.mod.ui.SDL_GL.obj
 0002:00006ce0       ??_C@_0BL@IFMMBIHE@glProgramEnvParameter4dARB?$AA@ 10033ce0     umodsys_lib_libui:umodsys.mod.ui.SDL_GL.obj
 0002:00006cfc       ??_C@_0BM@NICJGLCN@glProgramEnvParameter4dvARB?$AA@ 10033cfc     umodsys_lib_libui:umodsys.mod.ui.SDL_GL.obj
 0002:00006d18       ??_C@_0BL@PPAMELBE@glProgramEnvParameter4fARB?$AA@ 10033d18     umodsys_lib_libui:umodsys.mod.ui.SDL_GL.obj
 0002:00006d34       ??_C@_0BM@JFOBMKCG@glProgramEnvParameter4fvARB?$AA@ 10033d34     umodsys_lib_libui:umodsys.mod.ui.SDL_GL.obj
 0002:00006d50       ??_C@_0BN@ELHLGELC@glProgramLocalParameter4dARB?$AA@ 10033d50     umodsys_lib_libui:umodsys.mod.ui.SDL_GL.obj
 0002:00006d70       ??_C@_0BO@KKOALLNE@glProgramLocalParameter4dvARB?$AA@ 10033d70     umodsys_lib_libui:umodsys.mod.ui.SDL_GL.obj
 0002:00006d90       ??_C@_0BN@DBLLDHNC@glProgramLocalParameter4fARB?$AA@ 10033d90     umodsys_lib_libui:umodsys.mod.ui.SDL_GL.obj
 0002:00006db0       ??_C@_0BO@OHCIBKNP@glProgramLocalParameter4fvARB?$AA@ 10033db0     umodsys_lib_libui:umodsys.mod.ui.SDL_GL.obj
 0002:00006dd0       ??_C@_0BD@HIBLHAHB@glProgramStringARB?$AA@ 10033dd0     umodsys_lib_libui:umodsys.mod.ui.SDL_GL.obj
 0002:00006de4       ??_C@_0BE@KOFFOLEH@glVertexAttrib1dARB?$AA@ 10033de4     umodsys_lib_libui:umodsys.mod.ui.SDL_GL.obj
 0002:00006df8       ??_C@_0BF@GHNCJDMI@glVertexAttrib1dvARB?$AA@ 10033df8     umodsys_lib_libui:umodsys.mod.ui.SDL_GL.obj
 0002:00006e10       ??_C@_0BE@NEJFLICH@glVertexAttrib1fARB?$AA@ 10033e10     umodsys_lib_libui:umodsys.mod.ui.SDL_GL.obj
 0002:00006e24       ??_C@_0BF@CKBKDCMD@glVertexAttrib1fvARB?$AA@ 10033e24     umodsys_lib_libui:umodsys.mod.ui.SDL_GL.obj
 0002:00006e3c       ??_C@_0BE@HMJFKANF@glVertexAttrib1sARB?$AA@ 10033e3c     umodsys_lib_libui:umodsys.mod.ui.SDL_GL.obj
 0002:00006e50       ??_C@_0BF@HJABKBOL@glVertexAttrib1svARB?$AA@ 10033e50     umodsys_lib_libui:umodsys.mod.ui.SDL_GL.obj
 0002:00006e68       ??_C@_0BE@CIMBJJOJ@glVertexAttrib2dARB?$AA@ 10033e68     umodsys_lib_libui:umodsys.mod.ui.SDL_GL.obj
 0002:00006e7c       ??_C@_0BF@FGDKIJFF@glVertexAttrib2dvARB?$AA@ 10033e7c     umodsys_lib_libui:umodsys.mod.ui.SDL_GL.obj
 0002:00006e94       ??_C@_0BE@FCABMKIJ@glVertexAttrib2fARB?$AA@ 10033e94     umodsys_lib_libui:umodsys.mod.ui.SDL_GL.obj
 0002:00006ea8       ??_C@_0BF@BLPCCIFO@glVertexAttrib2fvARB?$AA@ 10033ea8     umodsys_lib_libui:umodsys.mod.ui.SDL_GL.obj
 0002:00006ec0       ??_C@_0BE@PKABNCHL@glVertexAttrib2sARB?$AA@ 10033ec0     umodsys_lib_libui:umodsys.mod.ui.SDL_GL.obj
 0002:00006ed4       ??_C@_0BF@EIOJLLHG@glVertexAttrib2svARB?$AA@ 10033ed4     umodsys_lib_libui:umodsys.mod.ui.SDL_GL.obj
 0002:00006eec       ??_C@_0BE@ODJNEKEM@glVertexAttrib3dARB?$AA@ 10033eec     umodsys_lib_libui:umodsys.mod.ui.SDL_GL.obj
 0002:00006f00       ??_C@_0BF@PAENICOB@glVertexAttrib3dvARB?$AA@ 10033f00     umodsys_lib_libui:umodsys.mod.ui.SDL_GL.obj
 0002:00006f18       ??_C@_0BE@JJFNBJCM@glVertexAttrib3fARB?$AA@ 10033f18     umodsys_lib_libui:umodsys.mod.ui.SDL_GL.obj
 0002:00006f2c       ??_C@_0BF@LNIFCDOK@glVertexAttrib3fvARB?$AA@ 10033f2c     umodsys_lib_libui:umodsys.mod.ui.SDL_GL.obj
 0002:00006f44       ??_C@_0BE@DBFNABNO@glVertexAttrib3sARB?$AA@ 10033f44     umodsys_lib_libui:umodsys.mod.ui.SDL_GL.obj
 0002:00006f58       ??_C@_0BF@OOJOLAMC@glVertexAttrib3svARB?$AA@ 10033f58     umodsys_lib_libui:umodsys.mod.ui.SDL_GL.obj
 0002:00006f70       ??_C@_0BG@KBHGKCDK@glVertexAttrib4NbvARB?$AA@ 10033f70     umodsys_lib_libui:umodsys.mod.ui.SDL_GL.obj
 0002:00006f88       ??_C@_0BG@MLLBFCPJ@glVertexAttrib4NivARB?$AA@ 10033f88     umodsys_lib_libui:umodsys.mod.ui.SDL_GL.obj
 0002:00006fa0       ??_C@_0BG@GJPMHDAE@glVertexAttrib4NsvARB?$AA@ 10033fa0     umodsys_lib_libui:umodsys.mod.ui.SDL_GL.obj
 0002:00006fb8       ??_C@_0BG@CKMFKBFL@glVertexAttrib4NubARB?$AA@ 10033fb8     umodsys_lib_libui:umodsys.mod.ui.SDL_GL.obj
 0002:00006fd0       ??_C@_0BH@HDFHFPMN@glVertexAttrib4NubvARB?$AA@ 10033fd0     umodsys_lib_libui:umodsys.mod.ui.SDL_GL.obj
 0002:00006fe8       ??_C@_0BH@BJJAKPAO@glVertexAttrib4NuivARB?$AA@ 10033fe8     umodsys_lib_libui:umodsys.mod.ui.SDL_GL.obj
 0002:00007000       ??_C@_0BH@LLNNIOPD@glVertexAttrib4NusvARB?$AA@ 10034000     umodsys_lib_libui:umodsys.mod.ui.SDL_GL.obj
 0002:00007018       ??_C@_0BF@ODLDFPHC@glVertexAttrib4bvARB?$AA@ 10034018     umodsys_lib_libui:umodsys.mod.ui.SDL_GL.obj
 0002:00007030       ??_C@_0BE@POJIHKPE@glVertexAttrib4dARB?$AA@ 10034030     umodsys_lib_libui:umodsys.mod.ui.SDL_GL.obj
 0002:00007044       ??_C@_0BF@DFOKLMGP@glVertexAttrib4dvARB?$AA@ 10034044     umodsys_lib_libui:umodsys.mod.ui.SDL_GL.obj
 0002:0000705c       ??_C@_0BE@IEFICJJE@glVertexAttrib4fARB?$AA@ 1003405c     umodsys_lib_libui:umodsys.mod.ui.SDL_GL.obj
 0002:00007070       ??_C@_0BF@HICCBNGE@glVertexAttrib4fvARB?$AA@ 10034070     umodsys_lib_libui:umodsys.mod.ui.SDL_GL.obj
 0002:00007088       ??_C@_0BF@IJHEKPLB@glVertexAttrib4ivARB?$AA@ 10034088     umodsys_lib_libui:umodsys.mod.ui.SDL_GL.obj
 0002:000070a0       ??_C@_0BE@CMFIDBGG@glVertexAttrib4sARB?$AA@ 100340a0     umodsys_lib_libui:umodsys.mod.ui.SDL_GL.obj
 0002:000070b4       ??_C@_0BF@CLDJIOEM@glVertexAttrib4svARB?$AA@ 100340b4     umodsys_lib_libui:umodsys.mod.ui.SDL_GL.obj
 0002:000070cc       ??_C@_0BG@LBCFDJC@glVertexAttrib4ubvARB?$AA@ 100340cc     umodsys_lib_libui:umodsys.mod.ui.SDL_GL.obj
 0002:000070e4       ??_C@_0BG@GBNFKDFB@glVertexAttrib4uivARB?$AA@ 100340e4     umodsys_lib_libui:umodsys.mod.ui.SDL_GL.obj
 0002:000070fc       ??_C@_0BG@MDJIICKM@glVertexAttrib4usvARB?$AA@ 100340fc     umodsys_lib_libui:umodsys.mod.ui.SDL_GL.obj
 0002:00007114       ??_C@_0BJ@KNOILOPF@glVertexAttribPointerARB?$AA@ 10034114     umodsys_lib_libui:umodsys.mod.ui.SDL_GL.obj
 0002:00007130       ??_C@_0BF@GNLBPIJF@GL_ARB_vertex_shader?$AA@ 10034130     umodsys_lib_libui:umodsys.mod.ui.SDL_GL.obj
 0002:00007148       ??_C@_0BI@HAONMJFP@glBindAttribLocationARB?$AA@ 10034148     umodsys_lib_libui:umodsys.mod.ui.SDL_GL.obj
 0002:00007160       ??_C@_0BF@NFLELGHN@glGetActiveAttribARB?$AA@ 10034160     umodsys_lib_libui:umodsys.mod.ui.SDL_GL.obj
 0002:00007178       ??_C@_0BH@BINIAJMB@glGetAttribLocationARB?$AA@ 10034178     umodsys_lib_libui:umodsys.mod.ui.SDL_GL.obj
 0002:00007190       ??_C@_0BG@NIIIOCNH@GL_ARB_viewport_array?$AA@ 10034190     umodsys_lib_libui:umodsys.mod.ui.SDL_GL.obj
 0002:000071a8       ??_C@_0BD@JLCIOMKN@glDepthRangeArrayv?$AA@ 100341a8     umodsys_lib_libui:umodsys.mod.ui.SDL_GL.obj
 0002:000071bc       ??_C@_0BE@FMCFIJBP@glDepthRangeIndexed?$AA@ 100341bc     umodsys_lib_libui:umodsys.mod.ui.SDL_GL.obj
 0002:000071d0       ??_C@_0P@PDJCBGIA@glGetDoublei_v?$AA@ 100341d0     umodsys_lib_libui:umodsys.mod.ui.SDL_GL.obj
 0002:000071e0       ??_C@_0O@JKEOHGC@glGetFloati_v?$AA@ 100341e0     umodsys_lib_libui:umodsys.mod.ui.SDL_GL.obj
 0002:000071f0       ??_C@_0BA@BMNFINIA@glScissorArrayv?$AA@ 100341f0     umodsys_lib_libui:umodsys.mod.ui.SDL_GL.obj
 0002:00007200       ??_C@_0BB@BJHNCIAL@glScissorIndexed?$AA@ 10034200     umodsys_lib_libui:umodsys.mod.ui.SDL_GL.obj
 0002:00007214       ??_C@_0BC@OOKOHKNA@glScissorIndexedv?$AA@ 10034214     umodsys_lib_libui:umodsys.mod.ui.SDL_GL.obj
 0002:00007228       ??_C@_0BB@JIDIDPIB@glViewportArrayv?$AA@ 10034228     umodsys_lib_libui:umodsys.mod.ui.SDL_GL.obj
 0002:0000723c       ??_C@_0BD@JIBIAPIN@glViewportIndexedf?$AA@ 1003423c     umodsys_lib_libui:umodsys.mod.ui.SDL_GL.obj
 0002:00007250       ??_C@_0BE@OKPEDJOC@glViewportIndexedfv?$AA@ 10034250     umodsys_lib_libui:umodsys.mod.ui.SDL_GL.obj
 0002:00007264       ??_C@_0BC@KMCGGFBD@GL_ARB_window_pos?$AA@ 10034264     umodsys_lib_libui:umodsys.mod.ui.SDL_GL.obj
 0002:00007278       ??_C@_0BB@MJCJDLHC@glWindowPos2dARB?$AA@ 10034278     umodsys_lib_libui:umodsys.mod.ui.SDL_GL.obj
 0002:0000728c       ??_C@_0BC@DBAGCLDL@glWindowPos2dvARB?$AA@ 1003428c     umodsys_lib_libui:umodsys.mod.ui.SDL_GL.obj
 0002:000072a0       ??_C@_0BB@LDOJGIBC@glWindowPos2fARB?$AA@ 100342a0     umodsys_lib_libui:umodsys.mod.ui.SDL_GL.obj
 0002:000072b4       ??_C@_0BC@HMMOIKDA@glWindowPos2fvARB?$AA@ 100342b4     umodsys_lib_libui:umodsys.mod.ui.SDL_GL.obj
 0002:000072c8       ??_C@_0BB@DBLJPPMD@glWindowPos2iARB?$AA@ 100342c8     umodsys_lib_libui:umodsys.mod.ui.SDL_GL.obj
 0002:000072dc       ??_C@_0BC@INJIDIOF@glWindowPos2ivARB?$AA@ 100342dc     umodsys_lib_libui:umodsys.mod.ui.SDL_GL.obj
 0002:000072f0       ??_C@_0BB@BLOJHAOA@glWindowPos2sARB?$AA@ 100342f0     umodsys_lib_libui:umodsys.mod.ui.SDL_GL.obj
 0002:00007304       ??_C@_0BC@CPNFBJBI@glWindowPos2svARB?$AA@ 10034304     umodsys_lib_libui:umodsys.mod.ui.SDL_GL.obj
 0002:00007318       ??_C@_0BB@CHFOINH@glWindowPos3dARB?$AA@ 10034318     umodsys_lib_libui:umodsys.mod.ui.SDL_GL.obj
 0002:0000732c       ??_C@_0BC@JHHBCAIP@glWindowPos3dvARB?$AA@ 1003432c     umodsys_lib_libui:umodsys.mod.ui.SDL_GL.obj
 0002:00007340       ??_C@_0BB@HILFLLLH@glWindowPos3fARB?$AA@ 10034340     umodsys_lib_libui:umodsys.mod.ui.SDL_GL.obj
 0002:00007354       ??_C@_0BC@NKLJIBIE@glWindowPos3fvARB?$AA@ 10034354     umodsys_lib_libui:umodsys.mod.ui.SDL_GL.obj
 0002:00007368       ??_C@_0BB@PKOFCMGG@glWindowPos3iARB?$AA@ 10034368     umodsys_lib_libui:umodsys.mod.ui.SDL_GL.obj
 0002:0000737c       ??_C@_0BC@CLOPDDFB@glWindowPos3ivARB?$AA@ 1003437c     umodsys_lib_libui:umodsys.mod.ui.SDL_GL.obj
 0002:00007390       ??_C@_0BB@NALFKDEF@glWindowPos3sARB?$AA@ 10034390     umodsys_lib_libui:umodsys.mod.ui.SDL_GL.obj
 0002:000073a4       ??_C@_0BC@IJKCBCKM@glWindowPos3svARB?$AA@ 100343a4     umodsys_lib_libui:umodsys.mod.ui.SDL_GL.obj
 0002:000073b8       ??_C@_0BI@FJEJKAHN@GL_EXT_bindable_uniform?$AA@ 100343b8     umodsys_lib_libui:umodsys.mod.ui.SDL_GL.obj
 0002:000073d0       ??_C@_0BK@JHNNOGKB@glGetUniformBufferSizeEXT?$AA@ 100343d0     umodsys_lib_libui:umodsys.mod.ui.SDL_GL.obj
 0002:000073ec       ??_C@_0BG@DFAIJAMP@glGetUniformOffsetEXT?$AA@ 100343ec     umodsys_lib_libui:umodsys.mod.ui.SDL_GL.obj
 0002:00007404       ??_C@_0BD@HHOMEDEN@glUniformBufferEXT?$AA@ 10034404     umodsys_lib_libui:umodsys.mod.ui.SDL_GL.obj
 0002:00007418       ??_C@_0BD@LMOCEJB@GL_EXT_blend_color?$AA@ 10034418     umodsys_lib_libui:umodsys.mod.ui.SDL_GL.obj
 0002:0000742c       ??_C@_0BA@EGDGJFLJ@glBlendColorEXT?$AA@ 1003442c     umodsys_lib_libui:umodsys.mod.ui.SDL_GL.obj
 0002:0000743c       ??_C@_0BP@PPPKEOIM@GL_EXT_blend_equation_separate?$AA@ 1003443c     umodsys_lib_libui:umodsys.mod.ui.SDL_GL.obj
 0002:0000745c       ??_C@_0BL@INMJGNKI@glBlendEquationSeparateEXT?$AA@ 1003445c     umodsys_lib_libui:umodsys.mod.ui.SDL_GL.obj
 0002:00007478       ??_C@_0BL@OHIMOMCA@GL_EXT_blend_func_separate?$AA@ 10034478     umodsys_lib_libui:umodsys.mod.ui.SDL_GL.obj
 0002:00007494       ??_C@_0BH@GFPLHCKF@glBlendFuncSeparateEXT?$AA@ 10034494     umodsys_lib_libui:umodsys.mod.ui.SDL_GL.obj
 0002:000074ac       ??_C@_0BE@CICKIAIK@GL_EXT_blend_minmax?$AA@ 100344ac     umodsys_lib_libui:umodsys.mod.ui.SDL_GL.obj
 0002:000074c0       ??_C@_0BD@CFOJJHII@glBlendEquationEXT?$AA@ 100344c0     umodsys_lib_libui:umodsys.mod.ui.SDL_GL.obj
 0002:000074d4       ??_C@_0BG@HJLBPDAK@GL_EXT_color_subtable?$AA@ 100344d4     umodsys_lib_libui:umodsys.mod.ui.SDL_GL.obj
 0002:000074ec       ??_C@_0BD@EBCIGLLP@glColorSubTableEXT?$AA@ 100344ec     umodsys_lib_libui:umodsys.mod.ui.SDL_GL.obj
 0002:00007500       ??_C@_0BH@HAGEMNAG@glCopyColorSubTableEXT?$AA@ 10034500     umodsys_lib_libui:umodsys.mod.ui.SDL_GL.obj
 0002:00007518       ??_C@_0BN@LBNKGIPJ@GL_EXT_compiled_vertex_array?$AA@ 10034518     umodsys_lib_libui:umodsys.mod.ui.SDL_GL.obj
 0002:00007538       ??_C@_0BA@FALFDEFM@glLockArraysEXT?$AA@ 10034538     umodsys_lib_libui:umodsys.mod.ui.SDL_GL.obj
 0002:00007548       ??_C@_0BC@CIFHOEOG@glUnlockArraysEXT?$AA@ 10034548     umodsys_lib_libui:umodsys.mod.ui.SDL_GL.obj
 0002:0000755c       ??_C@_0BD@DBIGFMIC@GL_EXT_convolution?$AA@ 1003455c     umodsys_lib_libui:umodsys.mod.ui.SDL_GL.obj
 0002:00007570       ??_C@_0BJ@PHDFEMBL@glConvolutionFilter1DEXT?$AA@ 10034570     umodsys_lib_libui:umodsys.mod.ui.SDL_GL.obj
 0002:0000758c       ??_C@_0BJ@HBKBDOLF@glConvolutionFilter2DEXT?$AA@ 1003458c     umodsys_lib_libui:umodsys.mod.ui.SDL_GL.obj
 0002:000075a8       ??_C@_0BL@KINFLEHF@glConvolutionParameterfEXT?$AA@ 100345a8     umodsys_lib_libui:umodsys.mod.ui.SDL_GL.obj
 0002:000075c4       ??_C@_0BM@LDPIHMCH@glConvolutionParameterfvEXT?$AA@ 100345c4     umodsys_lib_libui:umodsys.mod.ui.SDL_GL.obj
 0002:000075e0       ??_C@_0BL@CKIFCDKE@glConvolutionParameteriEXT?$AA@ 100345e0     umodsys_lib_libui:umodsys.mod.ui.SDL_GL.obj
 0002:000075fc       ??_C@_0BM@ECKOMOPC@glConvolutionParameterivEXT?$AA@ 100345fc     umodsys_lib_libui:umodsys.mod.ui.SDL_GL.obj
 0002:00007618       ??_C@_0BN@MBPMAMLC@glCopyConvolutionFilter1DEXT?$AA@ 10034618     umodsys_lib_libui:umodsys.mod.ui.SDL_GL.obj
 0002:00007638       ??_C@_0BN@EHGIHOBM@glCopyConvolutionFilter2DEXT?$AA@ 10034638     umodsys_lib_libui:umodsys.mod.ui.SDL_GL.obj
 0002:00007658       ??_C@_0BK@MMCIGOOI@glGetConvolutionFilterEXT?$AA@ 10034658     umodsys_lib_libui:umodsys.mod.ui.SDL_GL.obj
 0002:00007674       ??_C@_0BP@FBAELFAJ@glGetConvolutionParameterfvEXT?$AA@ 10034674     umodsys_lib_libui:umodsys.mod.ui.SDL_GL.obj
 0002:00007694       ??_C@_0BP@KAFCAHNM@glGetConvolutionParameterivEXT?$AA@ 10034694     umodsys_lib_libui:umodsys.mod.ui.SDL_GL.obj
 0002:000076b4       ??_C@_0BI@JFAGILII@glGetSeparableFilterEXT?$AA@ 100346b4     umodsys_lib_libui:umodsys.mod.ui.SDL_GL.obj
 0002:000076cc       ??_C@_0BH@BGAJAFHE@glSeparableFilter2DEXT?$AA@ 100346cc     umodsys_lib_libui:umodsys.mod.ui.SDL_GL.obj
 0002:000076e4       ??_C@_0BI@LOIOLJBM@GL_EXT_coordinate_frame?$AA@ 100346e4     umodsys_lib_libui:umodsys.mod.ui.SDL_GL.obj
 0002:000076fc       ??_C@_0BA@IFKALIMG@glBinormal3bEXT?$AA@ 100346fc     umodsys_lib_libui:umodsys.mod.ui.SDL_GL.obj
 0002:0000770c       ??_C@_0BB@OBLNOLBN@glBinormal3bvEXT?$AA@ 1003470c     umodsys_lib_libui:umodsys.mod.ui.SDL_GL.obj
 0002:00007720       ??_C@_0BA@KOAENGG@glBinormal3dEXT?$AA@ 10034720     umodsys_lib_libui:umodsys.mod.ui.SDL_GL.obj
 0002:00007730       ??_C@_0BB@DHOEAIAA@glBinormal3dvEXT?$AA@ 10034730     umodsys_lib_libui:umodsys.mod.ui.SDL_GL.obj
 0002:00007744       ??_C@_0BA@HACABOAG@glBinormal3fEXT?$AA@ 10034744     umodsys_lib_libui:umodsys.mod.ui.SDL_GL.obj
 0002:00007754       ??_C@_0BB@HKCMKJAL@glBinormal3fvEXT?$AA@ 10034754     umodsys_lib_libui:umodsys.mod.ui.SDL_GL.obj
 0002:00007768       ??_C@_0BA@PCHAIJNH@glBinormal3iEXT?$AA@ 10034768     umodsys_lib_libui:umodsys.mod.ui.SDL_GL.obj
 0002:00007778       ??_C@_0BB@ILHKBLNO@glBinormal3ivEXT?$AA@ 10034778     umodsys_lib_libui:umodsys.mod.ui.SDL_GL.obj
 0002:0000778c       ??_C@_0BA@NICAAGPE@glBinormal3sEXT?$AA@ 1003478c     umodsys_lib_libui:umodsys.mod.ui.SDL_GL.obj
 0002:0000779c       ??_C@_0BB@CJDHDKCD@glBinormal3svEXT?$AA@ 1003479c     umodsys_lib_libui:umodsys.mod.ui.SDL_GL.obj
 0002:000077b0       ??_C@_0BF@DOJEEBCJ@glBinormalPointerEXT?$AA@ 100347b0     umodsys_lib_libui:umodsys.mod.ui.SDL_GL.obj
 0002:000077c8       ??_C@_0P@KGHKOLHB@glTangent3bEXT?$AA@ 100347c8     umodsys_lib_libui:umodsys.mod.ui.SDL_GL.obj
 0002:000077d8       ??_C@_0BA@LEJLBHGB@glTangent3bvEXT?$AA@ 100347d8     umodsys_lib_libui:umodsys.mod.ui.SDL_GL.obj
 0002:000077e8       ??_C@_0P@CJDKBONB@glTangent3dEXT?$AA@ 100347e8     umodsys_lib_libui:umodsys.mod.ui.SDL_GL.obj
 0002:000077f8       ??_C@_0BA@GCMCPEHM@glTangent3dvEXT?$AA@ 100347f8     umodsys_lib_libui:umodsys.mod.ui.SDL_GL.obj
 0002:00007808       ??_C@_0P@FDPKENLB@glTangent3fEXT?$AA@ 10034808     umodsys_lib_libui:umodsys.mod.ui.SDL_GL.obj
 0002:00007818       ??_C@_0BA@CPAKFFHH@glTangent3fvEXT?$AA@ 10034818     umodsys_lib_libui:umodsys.mod.ui.SDL_GL.obj
 0002:00007828       ??_C@_0P@NBKKNKGA@glTangent3iEXT?$AA@ 10034828     umodsys_lib_libui:umodsys.mod.ui.SDL_GL.obj
 0002:00007838       ??_C@_0BA@NOFMOHKC@glTangent3ivEXT?$AA@ 10034838     umodsys_lib_libui:umodsys.mod.ui.SDL_GL.obj
 0002:00007848       ??_C@_0P@PLPKFFED@glTangent3sEXT?$AA@ 10034848     umodsys_lib_libui:umodsys.mod.ui.SDL_GL.obj
 0002:00007858       ??_C@_0BA@HMBBMGFP@glTangent3svEXT?$AA@ 10034858     umodsys_lib_libui:umodsys.mod.ui.SDL_GL.obj
 0002:00007868       ??_C@_0BE@HLHMPCOG@glTangentPointerEXT?$AA@ 10034868     umodsys_lib_libui:umodsys.mod.ui.SDL_GL.obj
 0002:0000787c       ??_C@_0BE@DFBNEHNH@GL_EXT_copy_texture?$AA@ 1003487c     umodsys_lib_libui:umodsys.mod.ui.SDL_GL.obj
 0002:00007890       ??_C@_0BE@EDHFEHBO@glCopyTexImage1DEXT?$AA@ 10034890     umodsys_lib_libui:umodsys.mod.ui.SDL_GL.obj
 0002:000078a4       ??_C@_0BE@MFOBDFLA@glCopyTexImage2DEXT?$AA@ 100348a4     umodsys_lib_libui:umodsys.mod.ui.SDL_GL.obj
 0002:000078b8       ??_C@_0BH@PGHCOMMF@glCopyTexSubImage1DEXT?$AA@ 100348b8     umodsys_lib_libui:umodsys.mod.ui.SDL_GL.obj
 0002:000078d0       ??_C@_0BH@HAOGJOGL@glCopyTexSubImage2DEXT?$AA@ 100348d0     umodsys_lib_libui:umodsys.mod.ui.SDL_GL.obj
 0002:000078e8       ??_C@_0BH@LLLKENMO@glCopyTexSubImage3DEXT?$AA@ 100348e8     umodsys_lib_libui:umodsys.mod.ui.SDL_GL.obj
 0002:00007900       ??_C@_0BD@DJENAAJK@GL_EXT_cull_vertex?$AA@ 10034900     umodsys_lib_libui:umodsys.mod.ui.SDL_GL.obj
 0002:00007914       ??_C@_0BF@BCDJHKHD@glCullParameterdvEXT?$AA@ 10034914     umodsys_lib_libui:umodsys.mod.ui.SDL_GL.obj
 0002:0000792c       ??_C@_0BF@FPPBNLHI@glCullParameterfvEXT?$AA@ 1003492c     umodsys_lib_libui:umodsys.mod.ui.SDL_GL.obj
 0002:00007944       ??_C@_0BJ@FCDHADKB@GL_EXT_depth_bounds_test?$AA@ 10034944     umodsys_lib_libui:umodsys.mod.ui.SDL_GL.obj
 0002:00007960       ??_C@_0BB@NPFLJMMA@glDepthBoundsEXT?$AA@ 10034960     umodsys_lib_libui:umodsys.mod.ui.SDL_GL.obj
 0002:00007974       ??_C@_0BL@KMPCDGGG@GL_EXT_direct_state_access?$AA@ 10034974     umodsys_lib_libui:umodsys.mod.ui.SDL_GL.obj
 0002:00007990       ??_C@_0BG@MOGNCKMO@glBindMultiTextureEXT?$AA@ 10034990     umodsys_lib_libui:umodsys.mod.ui.SDL_GL.obj
 0002:000079a8       ??_C@_0CB@BPNGHABA@glCheckNamedFramebufferStatusEXT@ 100349a8     umodsys_lib_libui:umodsys.mod.ui.SDL_GL.obj
 0002:000079cc       ??_C@_0BK@JIPEFNFB@glClearNamedBufferDataEXT?$AA@ 100349cc     umodsys_lib_libui:umodsys.mod.ui.SDL_GL.obj
 0002:000079e8       ??_C@_0BN@CNJAFGHD@glClearNamedBufferSubDataEXT?$AA@ 100349e8     umodsys_lib_libui:umodsys.mod.ui.SDL_GL.obj
 0002:00007a08       ??_C@_0BJ@CALICIHF@glClientAttribDefaultEXT?$AA@ 10034a08     umodsys_lib_libui:umodsys.mod.ui.SDL_GL.obj
 0002:00007a24       ??_C@_0BP@NJMJPMPG@glCompressedMultiTexImage1DEXT?$AA@ 10034a24     umodsys_lib_libui:umodsys.mod.ui.SDL_GL.obj
 0002:00007a44       ??_C@_0BP@FPFNIOFI@glCompressedMultiTexImage2DEXT?$AA@ 10034a44     umodsys_lib_libui:umodsys.mod.ui.SDL_GL.obj
 0002:00007a64       ??_C@_0BP@JEABFNPN@glCompressedMultiTexImage3DEXT?$AA@ 10034a64     umodsys_lib_libui:umodsys.mod.ui.SDL_GL.obj
 0002:00007a84       ??_C@_0CC@JEGFOFJD@glCompressedMultiTexSubImage1DEX@ 10034a84     umodsys_lib_libui:umodsys.mod.ui.SDL_GL.obj
 0002:00007aa8       ??_C@_0CC@BCPBJHDN@glCompressedMultiTexSubImage2DEX@ 10034aa8     umodsys_lib_libui:umodsys.mod.ui.SDL_GL.obj
 0002:00007acc       ??_C@_0CC@NJKNEEJI@glCompressedMultiTexSubImage3DEX@ 10034acc     umodsys_lib_libui:umodsys.mod.ui.SDL_GL.obj
 0002:00007af0       ??_C@_0BO@GBNHMICE@glCompressedTextureImage1DEXT?$AA@ 10034af0     umodsys_lib_libui:umodsys.mod.ui.SDL_GL.obj
 0002:00007b10       ??_C@_0BO@OHEDLKIK@glCompressedTextureImage2DEXT?$AA@ 10034b10     umodsys_lib_libui:umodsys.mod.ui.SDL_GL.obj
 0002:00007b30       ??_C@_0BO@CMBPGJCP@glCompressedTextureImage3DEXT?$AA@ 10034b30     umodsys_lib_libui:umodsys.mod.ui.SDL_GL.obj
 0002:00007b50       ??_C@_0CB@FLENMKOB@glCompressedTextureSubImage1DEXT@ 10034b50     umodsys_lib_libui:umodsys.mod.ui.SDL_GL.obj
 0002:00007b74       ??_C@_0CB@NNNJLIEP@glCompressedTextureSubImage2DEXT@ 10034b74     umodsys_lib_libui:umodsys.mod.ui.SDL_GL.obj
 0002:00007b98       ??_C@_0CB@BGIFGLOK@glCompressedTextureSubImage3DEXT@ 10034b98     umodsys_lib_libui:umodsys.mod.ui.SDL_GL.obj
 0002:00007bbc       ??_C@_0BJ@HAJMGINM@glCopyMultiTexImage1DEXT?$AA@ 10034bbc     umodsys_lib_libui:umodsys.mod.ui.SDL_GL.obj
 0002:00007bd8       ??_C@_0BJ@PGAIBKHC@glCopyMultiTexImage2DEXT?$AA@ 10034bd8     umodsys_lib_libui:umodsys.mod.ui.SDL_GL.obj
 0002:00007bf4       ??_C@_0BM@KPJDMMGJ@glCopyMultiTexSubImage1DEXT?$AA@ 10034bf4     umodsys_lib_libui:umodsys.mod.ui.SDL_GL.obj
 0002:00007c10       ??_C@_0BM@CJAHLOMH@glCopyMultiTexSubImage2DEXT?$AA@ 10034c10     umodsys_lib_libui:umodsys.mod.ui.SDL_GL.obj
 0002:00007c2c       ??_C@_0BM@OCFLGNGC@glCopyMultiTexSubImage3DEXT?$AA@ 10034c2c     umodsys_lib_libui:umodsys.mod.ui.SDL_GL.obj
 0002:00007c48       ??_C@_0BI@IIONLBMI@glCopyTextureImage1DEXT?$AA@ 10034c48     umodsys_lib_libui:umodsys.mod.ui.SDL_GL.obj
 0002:00007c60       ??_C@_0BI@OHJMDGG@glCopyTextureImage2DEXT?$AA@ 10034c60     umodsys_lib_libui:umodsys.mod.ui.SDL_GL.obj
 0002:00007c78       ??_C@_0BL@MDEEPIMB@glCopyTextureSubImage1DEXT?$AA@ 10034c78     umodsys_lib_libui:umodsys.mod.ui.SDL_GL.obj
 0002:00007c94       ??_C@_0BL@EFNAIKGP@glCopyTextureSubImage2DEXT?$AA@ 10034c94     umodsys_lib_libui:umodsys.mod.ui.SDL_GL.obj
 0002:00007cb0       ??_C@_0BL@IOIMFJMK@glCopyTextureSubImage3DEXT?$AA@ 10034cb0     umodsys_lib_libui:umodsys.mod.ui.SDL_GL.obj
 0002:00007ccc       ??_C@_0BP@LBNONMPF@glDisableClientStateIndexedEXT?$AA@ 10034ccc     umodsys_lib_libui:umodsys.mod.ui.SDL_GL.obj
 0002:00007cec       ??_C@_0BJ@LKKOIGJN@glDisableClientStateiEXT?$AA@ 10034cec     umodsys_lib_libui:umodsys.mod.ui.SDL_GL.obj
 0002:00007d08       ??_C@_0BE@FCCIJFGK@glDisableIndexedEXT?$AA@ 10034d08     umodsys_lib_libui:umodsys.mod.ui.SDL_GL.obj
 0002:00007d1c       ??_C@_0BO@OOIMHDFA@glDisableVertexArrayAttribEXT?$AA@ 10034d1c     umodsys_lib_libui:umodsys.mod.ui.SDL_GL.obj
 0002:00007d3c       ??_C@_0BI@IAKAGPJM@glDisableVertexArrayEXT?$AA@ 10034d3c     umodsys_lib_libui:umodsys.mod.ui.SDL_GL.obj
 0002:00007d54       ??_C@_0BO@FCOHKAHD@glEnableClientStateIndexedEXT?$AA@ 10034d54     umodsys_lib_libui:umodsys.mod.ui.SDL_GL.obj
 0002:00007d74       ??_C@_0BI@DDPEAKOL@glEnableClientStateiEXT?$AA@ 10034d74     umodsys_lib_libui:umodsys.mod.ui.SDL_GL.obj
 0002:00007d8c       ??_C@_0BD@PNIDDKHK@glEnableIndexedEXT?$AA@ 10034d8c     umodsys_lib_libui:umodsys.mod.ui.SDL_GL.obj
 0002:00007da0       ??_C@_0BN@LEPLOHNI@glEnableVertexArrayAttribEXT?$AA@ 10034da0     umodsys_lib_libui:umodsys.mod.ui.SDL_GL.obj
 0002:00007dc0       ??_C@_0BH@JAHPJAF@glEnableVertexArrayEXT?$AA@ 10034dc0     umodsys_lib_libui:umodsys.mod.ui.SDL_GL.obj
 0002:00007dd8       ??_C@_0CB@EIJKJEMO@glFlushMappedNamedBufferRangeEXT@ 10034dd8     umodsys_lib_libui:umodsys.mod.ui.SDL_GL.obj
 0002:00007dfc       ??_C@_0BL@PBDAHKDG@glFramebufferDrawBufferEXT?$AA@ 10034dfc     umodsys_lib_libui:umodsys.mod.ui.SDL_GL.obj
 0002:00007e18       ??_C@_0BM@JEJEAGLD@glFramebufferDrawBuffersEXT?$AA@ 10034e18     umodsys_lib_libui:umodsys.mod.ui.SDL_GL.obj
 0002:00007e34       ??_C@_0BL@JBCAAPKE@glFramebufferReadBufferEXT?$AA@ 10034e34     umodsys_lib_libui:umodsys.mod.ui.SDL_GL.obj
 0002:00007e50       ??_C@_0BM@DMNPALLC@glGenerateMultiTexMipmapEXT?$AA@ 10034e50     umodsys_lib_libui:umodsys.mod.ui.SDL_GL.obj
 0002:00007e6c       ??_C@_0BL@FGEAAKMK@glGenerateTextureMipmapEXT?$AA@ 10034e6c     umodsys_lib_libui:umodsys.mod.ui.SDL_GL.obj
 0002:00007e88       ??_C@_0BI@NHMIOCJB@glGetBooleanIndexedvEXT?$AA@ 10034e88     umodsys_lib_libui:umodsys.mod.ui.SDL_GL.obj
 0002:00007ea0       ??_C@_0CA@GHJFOBII@glGetCompressedMultiTexImageEXT?$AA@ 10034ea0     umodsys_lib_libui:umodsys.mod.ui.SDL_GL.obj
 0002:00007ec0       ??_C@_0BP@HEIAJKMC@glGetCompressedTextureImageEXT?$AA@ 10034ec0     umodsys_lib_libui:umodsys.mod.ui.SDL_GL.obj
 0002:00007ee0       ??_C@_0BH@JPALJFOC@glGetDoubleIndexedvEXT?$AA@ 10034ee0     umodsys_lib_libui:umodsys.mod.ui.SDL_GL.obj
 0002:00007ef8       ??_C@_0BC@PDBOBDJL@glGetDoublei_vEXT?$AA@ 10034ef8     umodsys_lib_libui:umodsys.mod.ui.SDL_GL.obj
 0002:00007f0c       ??_C@_0BG@EMFACKNP@glGetFloatIndexedvEXT?$AA@ 10034f0c     umodsys_lib_libui:umodsys.mod.ui.SDL_GL.obj
 0002:00007f24       ??_C@_0BB@JLGFFCMK@glGetFloati_vEXT?$AA@ 10034f24     umodsys_lib_libui:umodsys.mod.ui.SDL_GL.obj
 0002:00007f38       ??_C@_0BP@HFLGOGIL@glGetFramebufferParameterivEXT?$AA@ 10034f38     umodsys_lib_libui:umodsys.mod.ui.SDL_GL.obj
 0002:00007f58       ??_C@_0BI@HCFKGNEO@glGetIntegerIndexedvEXT?$AA@ 10034f58     umodsys_lib_libui:umodsys.mod.ui.SDL_GL.obj
 0002:00007f70       ??_C@_0BG@GNBOGHDO@glGetMultiTexEnvfvEXT?$AA@ 10034f70     umodsys_lib_libui:umodsys.mod.ui.SDL_GL.obj
 0002:00007f88       ??_C@_0BG@JMEINFOL@glGetMultiTexEnvivEXT?$AA@ 10034f88     umodsys_lib_libui:umodsys.mod.ui.SDL_GL.obj
 0002:00007fa0       ??_C@_0BG@HHLCAEM@glGetMultiTexGendvEXT?$AA@ 10034fa0     umodsys_lib_libui:umodsys.mod.ui.SDL_GL.obj
 0002:00007fb8       ??_C@_0BG@EKLDIBEH@glGetMultiTexGenfvEXT?$AA@ 10034fb8     umodsys_lib_libui:umodsys.mod.ui.SDL_GL.obj
 0002:00007fd0       ??_C@_0BG@LLOFDDJC@glGetMultiTexGenivEXT?$AA@ 10034fd0     umodsys_lib_libui:umodsys.mod.ui.SDL_GL.obj
 0002:00007fe8       ??_C@_0BG@ELMAAPHO@glGetMultiTexImageEXT?$AA@ 10034fe8     umodsys_lib_libui:umodsys.mod.ui.SDL_GL.obj
 0002:00008000       ??_C@_0CB@PNDHILHL@glGetMultiTexLevelParameterfvEXT@ 10035000     umodsys_lib_libui:umodsys.mod.ui.SDL_GL.obj
 0002:00008024       ??_C@_0CB@MGBDJKO@glGetMultiTexLevelParameterivEXT@ 10035024     umodsys_lib_libui:umodsys.mod.ui.SDL_GL.obj
 0002:00008048       ??_C@_0BN@LGBIBNIB@glGetMultiTexParameterIivEXT?$AA@ 10035048     umodsys_lib_libui:umodsys.mod.ui.SDL_GL.obj
 0002:00008068       ??_C@_0BO@FLMIMBHP@glGetMultiTexParameterIuivEXT?$AA@ 10035068     umodsys_lib_libui:umodsys.mod.ui.SDL_GL.obj
 0002:00008088       ??_C@_0BM@FMKJLGAC@glGetMultiTexParameterfvEXT?$AA@ 10035088     umodsys_lib_libui:umodsys.mod.ui.SDL_GL.obj
 0002:000080a4       ??_C@_0BM@KNPPAENH@glGetMultiTexParameterivEXT?$AA@ 100350a4     umodsys_lib_libui:umodsys.mod.ui.SDL_GL.obj
 0002:000080c0       ??_C@_0BP@HGDHPKNF@glGetNamedBufferParameterivEXT?$AA@ 100350c0     umodsys_lib_libui:umodsys.mod.ui.SDL_GL.obj
 0002:000080e0       ??_C@_0BM@IKINKGOC@glGetNamedBufferPointervEXT?$AA@ 100350e0     umodsys_lib_libui:umodsys.mod.ui.SDL_GL.obj
 0002:000080fc       ??_C@_0BL@EHBNKLPA@glGetNamedBufferSubDataEXT?$AA@ 100350fc     umodsys_lib_libui:umodsys.mod.ui.SDL_GL.obj
 0002:00008118       ??_C@_0CO@OKPMKDDI@glGetNamedFramebufferAttachmentP@ 10035118     umodsys_lib_libui:umodsys.mod.ui.SDL_GL.obj
 0002:00008148       ??_C@_0CE@EMNKOBNO@glGetNamedFramebufferParameteriv@ 10035148     umodsys_lib_libui:umodsys.mod.ui.SDL_GL.obj
 0002:0000816c       ??_C@_0CG@LFLLCKKN@glGetNamedProgramLocalParameterI@ 1003516c     umodsys_lib_libui:umodsys.mod.ui.SDL_GL.obj
 0002:00008194       ??_C@_0CH@GJBDAOKL@glGetNamedProgramLocalParameterI@ 10035194     umodsys_lib_libui:umodsys.mod.ui.SDL_GL.obj
 0002:000081bc       ??_C@_0CF@ELEDHIL@glGetNamedProgramLocalParameterd@ 100351bc     umodsys_lib_libui:umodsys.mod.ui.SDL_GL.obj
 0002:000081e4       ??_C@_0CF@EJHMJGIA@glGetNamedProgramLocalParameterf@ 100351e4     umodsys_lib_libui:umodsys.mod.ui.SDL_GL.obj
 0002:0000820c       ??_C@_0BL@JKMDNLBO@glGetNamedProgramStringEXT?$AA@ 1003520c     umodsys_lib_libui:umodsys.mod.ui.SDL_GL.obj
 0002:00008228       ??_C@_0BH@IALGOIPC@glGetNamedProgramivEXT?$AA@ 10035228     umodsys_lib_libui:umodsys.mod.ui.SDL_GL.obj
 0002:00008240       ??_C@_0CF@MMPFHIHI@glGetNamedRenderbufferParameteri@ 10035240     umodsys_lib_libui:umodsys.mod.ui.SDL_GL.obj
 0002:00008268       ??_C@_0BI@FKCCJJJM@glGetPointerIndexedvEXT?$AA@ 10035268     umodsys_lib_libui:umodsys.mod.ui.SDL_GL.obj
 0002:00008280       ??_C@_0BD@HGLPNBMF@glGetPointeri_vEXT?$AA@ 10035280     umodsys_lib_libui:umodsys.mod.ui.SDL_GL.obj
 0002:00008294       ??_C@_0BF@PIPAOHHM@glGetTextureImageEXT?$AA@ 10035294     umodsys_lib_libui:umodsys.mod.ui.SDL_GL.obj
 0002:000082ac       ??_C@_0CA@PHCGGOKJ@glGetTextureLevelParameterfvEXT?$AA@ 100352ac     umodsys_lib_libui:umodsys.mod.ui.SDL_GL.obj
 0002:000082cc       ??_C@_0CA@GHANMHM@glGetTextureLevelParameterivEXT?$AA@ 100352cc     umodsys_lib_libui:umodsys.mod.ui.SDL_GL.obj
 0002:000082ec       ??_C@_0BM@HFHGMMLF@glGetTextureParameterIivEXT?$AA@ 100352ec     umodsys_lib_libui:umodsys.mod.ui.SDL_GL.obj
 0002:00008308       ??_C@_0BN@HKLPFLBL@glGetTextureParameterIuivEXT?$AA@ 10035308     umodsys_lib_libui:umodsys.mod.ui.SDL_GL.obj
 0002:00008328       ??_C@_0BL@DOPGCDPP@glGetTextureParameterfvEXT?$AA@ 10035328     umodsys_lib_libui:umodsys.mod.ui.SDL_GL.obj
 0002:00008344       ??_C@_0BL@MPKAJBCK@glGetTextureParameterivEXT?$AA@ 10035344     umodsys_lib_libui:umodsys.mod.ui.SDL_GL.obj
 0002:00008360       ??_C@_0BO@FDAMMDFD@glGetVertexArrayIntegeri_vEXT?$AA@ 10035360     umodsys_lib_libui:umodsys.mod.ui.SDL_GL.obj
 0002:00008380       ??_C@_0BM@FJKMMCPD@glGetVertexArrayIntegervEXT?$AA@ 10035380     umodsys_lib_libui:umodsys.mod.ui.SDL_GL.obj
 0002:0000839c       ??_C@_0BO@DLHBIIEH@glGetVertexArrayPointeri_vEXT?$AA@ 1003539c     umodsys_lib_libui:umodsys.mod.ui.SDL_GL.obj
 0002:000083bc       ??_C@_0BM@KLKCGIBD@glGetVertexArrayPointervEXT?$AA@ 100353bc     umodsys_lib_libui:umodsys.mod.ui.SDL_GL.obj
 0002:000083d8       ??_C@_0BG@LNLGELCG@glIsEnabledIndexedEXT?$AA@ 100353d8     umodsys_lib_libui:umodsys.mod.ui.SDL_GL.obj
 0002:000083f0       ??_C@_0BE@ONFFICFI@glMapNamedBufferEXT?$AA@ 100353f0     umodsys_lib_libui:umodsys.mod.ui.SDL_GL.obj
 0002:00008404       ??_C@_0BJ@MEDFIODK@glMapNamedBufferRangeEXT?$AA@ 10035404     umodsys_lib_libui:umodsys.mod.ui.SDL_GL.obj
 0002:00008420       ??_C@_0BD@GNNFKBNH@glMatrixFrustumEXT?$AA@ 10035420     umodsys_lib_libui:umodsys.mod.ui.SDL_GL.obj
 0002:00008434       ??_C@_0BI@IKIFDKFM@glMatrixLoadIdentityEXT?$AA@ 10035434     umodsys_lib_libui:umodsys.mod.ui.SDL_GL.obj
 0002:0000844c       ??_C@_0BK@EGBAFFFD@glMatrixLoadTransposedEXT?$AA@ 1003544c     umodsys_lib_libui:umodsys.mod.ui.SDL_GL.obj
 0002:00008468       ??_C@_0BK@DMNAAGDD@glMatrixLoadTransposefEXT?$AA@ 10035468     umodsys_lib_libui:umodsys.mod.ui.SDL_GL.obj
 0002:00008484       ??_C@_0BB@FDNBKOAN@glMatrixLoaddEXT?$AA@ 10035484     umodsys_lib_libui:umodsys.mod.ui.SDL_GL.obj
 0002:00008498       ??_C@_0BB@CJBBPNGN@glMatrixLoadfEXT?$AA@ 10035498     umodsys_lib_libui:umodsys.mod.ui.SDL_GL.obj
 0002:000084ac       ??_C@_0BK@MBBHHIIA@glMatrixMultTransposedEXT?$AA@ 100354ac     umodsys_lib_libui:umodsys.mod.ui.SDL_GL.obj
 0002:000084c8       ??_C@_0BK@LLNHCLOA@glMatrixMultTransposefEXT?$AA@ 100354c8     umodsys_lib_libui:umodsys.mod.ui.SDL_GL.obj
 0002:000084e4       ??_C@_0BB@MLNAPEPG@glMatrixMultdEXT?$AA@ 100354e4     umodsys_lib_libui:umodsys.mod.ui.SDL_GL.obj
 0002:000084f8       ??_C@_0BB@LBBAKHJG@glMatrixMultfEXT?$AA@ 100354f8     umodsys_lib_libui:umodsys.mod.ui.SDL_GL.obj
 0002:0000850c       ??_C@_0BB@LIBGPEDB@glMatrixOrthoEXT?$AA@ 1003550c     umodsys_lib_libui:umodsys.mod.ui.SDL_GL.obj
 0002:00008520       ??_C@_0P@BOEIELPJ@glMatrixPopEXT?$AA@ 10035520     umodsys_lib_libui:umodsys.mod.ui.SDL_GL.obj
 0002:00008530       ??_C@_0BA@MNKKLGBO@glMatrixPushEXT?$AA@ 10035530     umodsys_lib_libui:umodsys.mod.ui.SDL_GL.obj
 0002:00008540       ??_C@_0BD@IGIJFODJ@glMatrixRotatedEXT?$AA@ 10035540     umodsys_lib_libui:umodsys.mod.ui.SDL_GL.obj
 0002:00008554       ??_C@_0BD@PMEJANFJ@glMatrixRotatefEXT?$AA@ 10035554     umodsys_lib_libui:umodsys.mod.ui.SDL_GL.obj
 0002:00008568       ??_C@_0BC@DPNPPBGC@glMatrixScaledEXT?$AA@ 10035568     umodsys_lib_libui:umodsys.mod.ui.SDL_GL.obj
 0002:0000857c       ??_C@_0BC@EFBPKCAC@glMatrixScalefEXT?$AA@ 1003557c     umodsys_lib_libui:umodsys.mod.ui.SDL_GL.obj
 0002:00008590       ??_C@_0BG@JGLAJIPN@glMatrixTranslatedEXT?$AA@ 10035590     umodsys_lib_libui:umodsys.mod.ui.SDL_GL.obj
 0002:000085a8       ??_C@_0BG@OMHAMLJN@glMatrixTranslatefEXT?$AA@ 100355a8     umodsys_lib_libui:umodsys.mod.ui.SDL_GL.obj
 0002:000085c0       ??_C@_0BE@HEPIKCIG@glMultiTexBufferEXT?$AA@ 100355c0     umodsys_lib_libui:umodsys.mod.ui.SDL_GL.obj
 0002:000085d4       ??_C@_0BK@GGBKGBFO@glMultiTexCoordPointerEXT?$AA@ 100355d4     umodsys_lib_libui:umodsys.mod.ui.SDL_GL.obj
 0002:000085f0       ??_C@_0BC@NGBAJLNK@glMultiTexEnvfEXT?$AA@ 100355f0     umodsys_lib_libui:umodsys.mod.ui.SDL_GL.obj
 0002:00008604       ??_C@_0BD@PFOPAHHB@glMultiTexEnvfvEXT?$AA@ 10035604     umodsys_lib_libui:umodsys.mod.ui.SDL_GL.obj
 0002:00008618       ??_C@_0BC@FEEAAMAL@glMultiTexEnviEXT?$AA@ 10035618     umodsys_lib_libui:umodsys.mod.ui.SDL_GL.obj
 0002:0000862c       ??_C@_0BD@ELJLFKE@glMultiTexEnvivEXT?$AA@ 1003562c     umodsys_lib_libui:umodsys.mod.ui.SDL_GL.obj
 0002:00008640       ??_C@_0BC@DHHBLML@glMultiTexGendEXT?$AA@ 10035640     umodsys_lib_libui:umodsys.mod.ui.SDL_GL.obj
 0002:00008654       ??_C@_0BD@JPIKEAAD@glMultiTexGendvEXT?$AA@ 10035654     umodsys_lib_libui:umodsys.mod.ui.SDL_GL.obj
 0002:00008668       ??_C@_0BC@HJLHEIKL@glMultiTexGenfEXT?$AA@ 10035668     umodsys_lib_libui:umodsys.mod.ui.SDL_GL.obj
 0002:0000867c       ??_C@_0BD@NCECOBAI@glMultiTexGenfvEXT?$AA@ 1003567c     umodsys_lib_libui:umodsys.mod.ui.SDL_GL.obj
 0002:00008690       ??_C@_0BC@PLOHNPHK@glMultiTexGeniEXT?$AA@ 10035690     umodsys_lib_libui:umodsys.mod.ui.SDL_GL.obj
 0002:000086a4       ??_C@_0BD@CDBEFDNN@glMultiTexGenivEXT?$AA@ 100356a4     umodsys_lib_libui:umodsys.mod.ui.SDL_GL.obj
 0002:000086b8       ??_C@_0BF@HKCOEKLM@glMultiTexImage1DEXT?$AA@ 100356b8     umodsys_lib_libui:umodsys.mod.ui.SDL_GL.obj
 0002:000086d0       ??_C@_0BF@PMLKDIBC@glMultiTexImage2DEXT?$AA@ 100356d0     umodsys_lib_libui:umodsys.mod.ui.SDL_GL.obj
 0002:000086e8       ??_C@_0BF@DHOGOLLH@glMultiTexImage3DEXT?$AA@ 100356e8     umodsys_lib_libui:umodsys.mod.ui.SDL_GL.obj
 0002:00008700       ??_C@_0BK@BAPKHON@glMultiTexParameterIivEXT?$AA@ 10035700     umodsys_lib_libui:umodsys.mod.ui.SDL_GL.obj
 0002:0000871c       ??_C@_0BL@BPHLPLLG@glMultiTexParameterIuivEXT?$AA@ 1003571c     umodsys_lib_libui:umodsys.mod.ui.SDL_GL.obj
 0002:00008738       ??_C@_0BI@MABEJKFI@glMultiTexParameterfEXT?$AA@ 10035738     umodsys_lib_libui:umodsys.mod.ui.SDL_GL.obj
 0002:00008750       ??_C@_0BJ@PGEPOBHM@glMultiTexParameterfvEXT?$AA@ 10035750     umodsys_lib_libui:umodsys.mod.ui.SDL_GL.obj
 0002:0000876c       ??_C@_0BI@ECEEANIJ@glMultiTexParameteriEXT?$AA@ 1003576c     umodsys_lib_libui:umodsys.mod.ui.SDL_GL.obj
 0002:00008784       ??_C@_0BJ@HBJFDKJ@glMultiTexParameterivEXT?$AA@ 10035784     umodsys_lib_libui:umodsys.mod.ui.SDL_GL.obj
 0002:000087a0       ??_C@_0BK@BJEMPNMI@glMultiTexRenderbufferEXT?$AA@ 100357a0     umodsys_lib_libui:umodsys.mod.ui.SDL_GL.obj
 0002:000087bc       ??_C@_0BI@GFJJJDMD@glMultiTexSubImage1DEXT?$AA@ 100357bc     umodsys_lib_libui:umodsys.mod.ui.SDL_GL.obj
 0002:000087d4       ??_C@_0BI@ODANOBGN@glMultiTexSubImage2DEXT?$AA@ 100357d4     umodsys_lib_libui:umodsys.mod.ui.SDL_GL.obj
 0002:000087ec       ??_C@_0BI@CIFBDCMI@glMultiTexSubImage3DEXT?$AA@ 100357ec     umodsys_lib_libui:umodsys.mod.ui.SDL_GL.obj
 0002:00008804       ??_C@_0BF@EGDGIBPF@glNamedBufferDataEXT?$AA@ 10035804     umodsys_lib_libui:umodsys.mod.ui.SDL_GL.obj
 0002:0000881c       ??_C@_0BI@IGOLIKPI@glNamedBufferStorageEXT?$AA@ 1003581c     umodsys_lib_libui:umodsys.mod.ui.SDL_GL.obj
 0002:00008834       ??_C@_0BI@KLAGIKJO@glNamedBufferSubDataEXT?$AA@ 10035834     umodsys_lib_libui:umodsys.mod.ui.SDL_GL.obj
 0002:0000884c       ??_C@_0BM@KMCAOBPL@glNamedCopyBufferSubDataEXT?$AA@ 1003584c     umodsys_lib_libui:umodsys.mod.ui.SDL_GL.obj
 0002:00008868       ??_C@_0CA@KNLMGFIL@glNamedFramebufferParameteriEXT?$AA@ 10035868     umodsys_lib_libui:umodsys.mod.ui.SDL_GL.obj
 0002:00008888       ??_C@_0CC@GIBDJJNI@glNamedFramebufferRenderbufferEX@ 10035888     umodsys_lib_libui:umodsys.mod.ui.SDL_GL.obj
 0002:000088ac       ??_C@_0BP@BMGCDMAJ@glNamedFramebufferTexture1DEXT?$AA@ 100358ac     umodsys_lib_libui:umodsys.mod.ui.SDL_GL.obj
 0002:000088cc       ??_C@_0BP@JKPGEOKH@glNamedFramebufferTexture2DEXT?$AA@ 100358cc     umodsys_lib_libui:umodsys.mod.ui.SDL_GL.obj
 0002:000088ec       ??_C@_0BP@FBKKJNAC@glNamedFramebufferTexture3DEXT?$AA@ 100358ec     umodsys_lib_libui:umodsys.mod.ui.SDL_GL.obj
 0002:0000890c       ??_C@_0BN@EBOLPEFF@glNamedFramebufferTextureEXT?$AA@ 1003590c     umodsys_lib_libui:umodsys.mod.ui.SDL_GL.obj
 0002:0000892c       ??_C@_0CB@BJCEBIKA@glNamedFramebufferTextureFaceEXT@ 1003592c     umodsys_lib_libui:umodsys.mod.ui.SDL_GL.obj
 0002:00008950       ??_C@_0CC@OGPAEEAO@glNamedFramebufferTextureLayerEX@ 10035950     umodsys_lib_libui:umodsys.mod.ui.SDL_GL.obj
 0002:00008974       ??_C@_0CC@KNGPLIKD@glNamedProgramLocalParameter4dEX@ 10035974     umodsys_lib_libui:umodsys.mod.ui.SDL_GL.obj
 0002:00008998       ??_C@_0CD@NMENLBMK@glNamedProgramLocalParameter4dvE@ 10035998     umodsys_lib_libui:umodsys.mod.ui.SDL_GL.obj
 0002:000089bc       ??_C@_0CC@NHKPOLMD@glNamedProgramLocalParameter4fEX@ 100359bc     umodsys_lib_libui:umodsys.mod.ui.SDL_GL.obj
 0002:000089e0       ??_C@_0CD@JBIFBAMB@glNamedProgramLocalParameter4fvE@ 100359e0     umodsys_lib_libui:umodsys.mod.ui.SDL_GL.obj
 0002:00008a04       ??_C@_0CD@LPMMAIIF@glNamedProgramLocalParameterI4iE@ 10035a04     umodsys_lib_libui:umodsys.mod.ui.SDL_GL.obj
 0002:00008a28       ??_C@_0CE@OFCJHIH@glNamedProgramLocalParameterI4iv@ 10035a28     umodsys_lib_libui:umodsys.mod.ui.SDL_GL.obj
 0002:00008a4c       ??_C@_0CE@JIPGFFDE@glNamedProgramLocalParameterI4ui@ 10035a4c     umodsys_lib_libui:umodsys.mod.ui.SDL_GL.obj
 0002:00008a70       ??_C@_0CF@LCBDCOMA@glNamedProgramLocalParameterI4ui@ 10035a70     umodsys_lib_libui:umodsys.mod.ui.SDL_GL.obj
 0002:00008a98       ??_C@_0CE@OLAJGKOH@glNamedProgramLocalParameters4fv@ 10035a98     umodsys_lib_libui:umodsys.mod.ui.SDL_GL.obj
 0002:00008abc       ??_C@_0CF@NMCFJOAA@glNamedProgramLocalParametersI4i@ 10035abc     umodsys_lib_libui:umodsys.mod.ui.SDL_GL.obj
 0002:00008ae4       ??_C@_0CG@MBBNEPEK@glNamedProgramLocalParametersI4u@ 10035ae4     umodsys_lib_libui:umodsys.mod.ui.SDL_GL.obj
 0002:00008b0c       ??_C@_0BI@HGNIPKHA@glNamedProgramStringEXT?$AA@ 10035b0c     umodsys_lib_libui:umodsys.mod.ui.SDL_GL.obj
 0002:00008b24       ??_C@_0BO@KHENOFMG@glNamedRenderbufferStorageEXT?$AA@ 10035b24     umodsys_lib_libui:umodsys.mod.ui.SDL_GL.obj
 0002:00008b44       ??_C@_0DB@DNHIJAC@glNamedRenderbufferStorageMultis@ 10035b44     umodsys_lib_libui:umodsys.mod.ui.SDL_GL.obj
 0002:00008b78       ??_C@_0CJ@DMIMHEMF@glNamedRenderbufferStorageMultis@ 10035b78     umodsys_lib_libui:umodsys.mod.ui.SDL_GL.obj
 0002:00008ba4       ??_C@_0BG@DBBBOAKE@glProgramUniform1dEXT?$AA@ 10035ba4     umodsys_lib_libui:umodsys.mod.ui.SDL_GL.obj
 0002:00008bbc       ??_C@_0BH@ECLFFKDB@glProgramUniform1dvEXT?$AA@ 10035bbc     umodsys_lib_libui:umodsys.mod.ui.SDL_GL.obj
 0002:00008bd4       ??_C@_0BG@ELNBLDME@glProgramUniform1fEXT?$AA@ 10035bd4     umodsys_lib_libui:umodsys.mod.ui.SDL_GL.obj
 0002:00008bec       ??_C@_0BH@PHNPLDK@glProgramUniform1fvEXT?$AA@ 10035bec     umodsys_lib_libui:umodsys.mod.ui.SDL_GL.obj
 0002:00008c04       ??_C@_0BG@MJIBCEBF@glProgramUniform1iEXT?$AA@ 10035c04     umodsys_lib_libui:umodsys.mod.ui.SDL_GL.obj
 0002:00008c1c       ??_C@_0BH@POCLEJOP@glProgramUniform1ivEXT?$AA@ 10035c1c     umodsys_lib_libui:umodsys.mod.ui.SDL_GL.obj
 0002:00008c34       ??_C@_0BH@GIIPILFM@glProgramUniform1uiEXT?$AA@ 10035c34     umodsys_lib_libui:umodsys.mod.ui.SDL_GL.obj
 0002:00008c4c       ??_C@_0BI@PBIKLOHE@glProgramUniform1uivEXT?$AA@ 10035c4c     umodsys_lib_libui:umodsys.mod.ui.SDL_GL.obj
 0002:00008c64       ??_C@_0BG@LHIFJCAK@glProgramUniform2dEXT?$AA@ 10035c64     umodsys_lib_libui:umodsys.mod.ui.SDL_GL.obj
 0002:00008c7c       ??_C@_0BH@HDFNEAKM@glProgramUniform2dvEXT?$AA@ 10035c7c     umodsys_lib_libui:umodsys.mod.ui.SDL_GL.obj
 0002:00008c94       ??_C@_0BG@MNEFMBGK@glProgramUniform2fEXT?$AA@ 10035c94     umodsys_lib_libui:umodsys.mod.ui.SDL_GL.obj
 0002:00008cac       ??_C@_0BH@DOJFOBKH@glProgramUniform2fvEXT?$AA@ 10035cac     umodsys_lib_libui:umodsys.mod.ui.SDL_GL.obj
 0002:00008cc4       ??_C@_0BG@EPBFFGLL@glProgramUniform2iEXT?$AA@ 10035cc4     umodsys_lib_libui:umodsys.mod.ui.SDL_GL.obj
 0002:00008cdc       ??_C@_0BH@MPMDFDHC@glProgramUniform2ivEXT?$AA@ 10035cdc     umodsys_lib_libui:umodsys.mod.ui.SDL_GL.obj
 0002:00008cf4       ??_C@_0BH@FJGHJBMB@glProgramUniform2uiEXT?$AA@ 10035cf4     umodsys_lib_libui:umodsys.mod.ui.SDL_GL.obj
 0002:00008d0c       ??_C@_0BI@HPAFLJJH@glProgramUniform2uivEXT?$AA@ 10035d0c     umodsys_lib_libui:umodsys.mod.ui.SDL_GL.obj
 0002:00008d24       ??_C@_0BG@HMNJEBKP@glProgramUniform3dEXT?$AA@ 10035d24     umodsys_lib_libui:umodsys.mod.ui.SDL_GL.obj
 0002:00008d3c       ??_C@_0BH@NFCKELBI@glProgramUniform3dvEXT?$AA@ 10035d3c     umodsys_lib_libui:umodsys.mod.ui.SDL_GL.obj
 0002:00008d54       ??_C@_0BG@GBJBCMP@glProgramUniform3fEXT?$AA@ 10035d54     umodsys_lib_libui:umodsys.mod.ui.SDL_GL.obj
 0002:00008d6c       ??_C@_0BH@JIOCOKBD@glProgramUniform3fvEXT?$AA@ 10035d6c     umodsys_lib_libui:umodsys.mod.ui.SDL_GL.obj
 0002:00008d84       ??_C@_0BG@IEEJIFBO@glProgramUniform3iEXT?$AA@ 10035d84     umodsys_lib_libui:umodsys.mod.ui.SDL_GL.obj
 0002:00008d9c       ??_C@_0BH@GJLEFIMG@glProgramUniform3ivEXT?$AA@ 10035d9c     umodsys_lib_libui:umodsys.mod.ui.SDL_GL.obj
 0002:00008db4       ??_C@_0BH@PPBAJKHF@glProgramUniform3uiEXT?$AA@ 10035db4     umodsys_lib_libui:umodsys.mod.ui.SDL_GL.obj
 0002:00008dcc       ??_C@_0BI@LDKPLJAJ@glProgramUniform3uivEXT?$AA@ 10035dcc     umodsys_lib_libui:umodsys.mod.ui.SDL_GL.obj
 0002:00008de4       ??_C@_0BG@GBNMHBBH@glProgramUniform4dEXT?$AA@ 10035de4     umodsys_lib_libui:umodsys.mod.ui.SDL_GL.obj
 0002:00008dfc       ??_C@_0BH@BAINHFJG@glProgramUniform4dvEXT?$AA@ 10035dfc     umodsys_lib_libui:umodsys.mod.ui.SDL_GL.obj
 0002:00008e14       ??_C@_0BG@BLBMCCHH@glProgramUniform4fEXT?$AA@ 10035e14     umodsys_lib_libui:umodsys.mod.ui.SDL_GL.obj
 0002:00008e2c       ??_C@_0BH@FNEFNEJN@glProgramUniform4fvEXT?$AA@ 10035e2c     umodsys_lib_libui:umodsys.mod.ui.SDL_GL.obj
 0002:00008e44       ??_C@_0BG@JJEMLFKG@glProgramUniform4iEXT?$AA@ 10035e44     umodsys_lib_libui:umodsys.mod.ui.SDL_GL.obj
 0002:00008e5c       ??_C@_0BH@KMBDGGEI@glProgramUniform4ivEXT?$AA@ 10035e5c     umodsys_lib_libui:umodsys.mod.ui.SDL_GL.obj
 0002:00008e74       ??_C@_0BH@DKLHKEPL@glProgramUniform4uiEXT?$AA@ 10035e74     umodsys_lib_libui:umodsys.mod.ui.SDL_GL.obj
 0002:00008e8c       ??_C@_0BI@LJGKLABA@glProgramUniform4uivEXT?$AA@ 10035e8c     umodsys_lib_libui:umodsys.mod.ui.SDL_GL.obj
 0002:00008ea4       ??_C@_0BN@NDLDHGAM@glProgramUniformMatrix2dvEXT?$AA@ 10035ea4     umodsys_lib_libui:umodsys.mod.ui.SDL_GL.obj
 0002:00008ec4       ??_C@_0BN@JOHLNHAH@glProgramUniformMatrix2fvEXT?$AA@ 10035ec4     umodsys_lib_libui:umodsys.mod.ui.SDL_GL.obj
 0002:00008ee4       ??_C@_0BP@MOCIKGFI@glProgramUniformMatrix2x3dvEXT?$AA@ 10035ee4     umodsys_lib_libui:umodsys.mod.ui.SDL_GL.obj
 0002:00008f04       ??_C@_0BP@IDOAAHFD@glProgramUniformMatrix2x3fvEXT?$AA@ 10035f04     umodsys_lib_libui:umodsys.mod.ui.SDL_GL.obj
 0002:00008f24       ??_C@_0BP@LIPJING@glProgramUniformMatrix2x4dvEXT?$AA@ 10035f24     umodsys_lib_libui:umodsys.mod.ui.SDL_GL.obj
 0002:00008f44       ??_C@_0BP@EGEHDJNN@glProgramUniformMatrix2x4fvEXT?$AA@ 10035f44     umodsys_lib_libui:umodsys.mod.ui.SDL_GL.obj
 0002:00008f64       ??_C@_0BN@HFMEHNLI@glProgramUniformMatrix3dvEXT?$AA@ 10035f64     umodsys_lib_libui:umodsys.mod.ui.SDL_GL.obj
 0002:00008f84       ??_C@_0BN@DIAMNMLD@glProgramUniformMatrix3fvEXT?$AA@ 10035f84     umodsys_lib_libui:umodsys.mod.ui.SDL_GL.obj
 0002:00008fa4       ??_C@_0BP@HPCELJKP@glProgramUniformMatrix3x2dvEXT?$AA@ 10035fa4     umodsys_lib_libui:umodsys.mod.ui.SDL_GL.obj
 0002:00008fc4       ??_C@_0BP@DCOMBIKE@glProgramUniformMatrix3x2fvEXT?$AA@ 10035fc4     umodsys_lib_libui:umodsys.mod.ui.SDL_GL.obj
 0002:00008fe4       ??_C@_0BP@BMPEIMJF@glProgramUniformMatrix3x4dvEXT?$AA@ 10035fe4     umodsys_lib_libui:umodsys.mod.ui.SDL_GL.obj
 0002:00009004       ??_C@_0BP@FBDMCNJO@glProgramUniformMatrix3x4fvEXT?$AA@ 10036004     umodsys_lib_libui:umodsys.mod.ui.SDL_GL.obj
 0002:00009024       ??_C@_0BN@LAGDEDDG@glProgramUniformMatrix4dvEXT?$AA@ 10036024     umodsys_lib_libui:umodsys.mod.ui.SDL_GL.obj
 0002:00009044       ??_C@_0BN@PNKLOCDN@glProgramUniformMatrix4fvEXT?$AA@ 10036044     umodsys_lib_libui:umodsys.mod.ui.SDL_GL.obj
 0002:00009064       ??_C@_0BP@BLEFNEGG@glProgramUniformMatrix4x2dvEXT?$AA@ 10036064     umodsys_lib_libui:umodsys.mod.ui.SDL_GL.obj
 0002:00009084       ??_C@_0BP@FGINHFGN@glProgramUniformMatrix4x2fvEXT?$AA@ 10036084     umodsys_lib_libui:umodsys.mod.ui.SDL_GL.obj
 0002:000090a4       ??_C@_0BP@LNDCNPNC@glProgramUniformMatrix4x3dvEXT?$AA@ 100360a4     umodsys_lib_libui:umodsys.mod.ui.SDL_GL.obj
 0002:000090c4       ??_C@_0BP@PAPKHONJ@glProgramUniformMatrix4x3fvEXT?$AA@ 100360c4     umodsys_lib_libui:umodsys.mod.ui.SDL_GL.obj
 0002:000090e4       ??_C@_0BN@NKADHPKI@glPushClientAttribDefaultEXT?$AA@ 100360e4     umodsys_lib_libui:umodsys.mod.ui.SDL_GL.obj
 0002:00009104       ??_C@_0BD@OEEPDOGM@glTextureBufferEXT?$AA@ 10036104     umodsys_lib_libui:umodsys.mod.ui.SDL_GL.obj
 0002:00009118       ??_C@_0BI@HEDPMLB@glTextureBufferRangeEXT?$AA@ 10036118     umodsys_lib_libui:umodsys.mod.ui.SDL_GL.obj
 0002:00009130       ??_C@_0BE@DKGBPGEG@glTextureImage1DEXT?$AA@ 10036130     umodsys_lib_libui:umodsys.mod.ui.SDL_GL.obj
 0002:00009144       ??_C@_0BE@LMPFIEOI@glTextureImage2DEXT?$AA@ 10036144     umodsys_lib_libui:umodsys.mod.ui.SDL_GL.obj
 0002:00009158       ??_C@_0BE@HHKJFHEN@glTextureImage3DEXT?$AA@ 10036158     umodsys_lib_libui:umodsys.mod.ui.SDL_GL.obj
 0002:0000916c       ??_C@_0BL@KBMIFFAF@glTexturePageCommitmentEXT?$AA@ 1003616c     umodsys_lib_libui:umodsys.mod.ui.SDL_GL.obj
 0002:00009188       ??_C@_0BJ@NPJAJLML@glTextureParameterIivEXT?$AA@ 10036188     umodsys_lib_libui:umodsys.mod.ui.SDL_GL.obj
 0002:000091a4       ??_C@_0BK@MNKIOBHH@glTextureParameterIuivEXT?$AA@ 100361a4     umodsys_lib_libui:umodsys.mod.ui.SDL_GL.obj
 0002:000091c0       ??_C@_0BH@NGFENBKL@glTextureParameterfEXT?$AA@ 100361c0     umodsys_lib_libui:umodsys.mod.ui.SDL_GL.obj
 0002:000091d8       ??_C@_0BI@NCONACJB@glTextureParameterfvEXT?$AA@ 100361d8     umodsys_lib_libui:umodsys.mod.ui.SDL_GL.obj
 0002:000091f0       ??_C@_0BH@FEAEEGHK@glTextureParameteriEXT?$AA@ 100361f0     umodsys_lib_libui:umodsys.mod.ui.SDL_GL.obj
 0002:00009208       ??_C@_0BI@CDLLLAEE@glTextureParameterivEXT?$AA@ 10036208     umodsys_lib_libui:umodsys.mod.ui.SDL_GL.obj
 0002:00009220       ??_C@_0BJ@MHNDMBOO@glTextureRenderbufferEXT?$AA@ 10036220     umodsys_lib_libui:umodsys.mod.ui.SDL_GL.obj
 0002:0000923c       ??_C@_0BG@LIPEIIGD@glTextureStorage1DEXT?$AA@ 1003623c     umodsys_lib_libui:umodsys.mod.ui.SDL_GL.obj
 0002:00009254       ??_C@_0BG@DOGAPKMN@glTextureStorage2DEXT?$AA@ 10036254     umodsys_lib_libui:umodsys.mod.ui.SDL_GL.obj
 0002:0000926c       ??_C@_0CB@IKHJODMK@glTextureStorage2DMultisampleEXT@ 1003626c     umodsys_lib_libui:umodsys.mod.ui.SDL_GL.obj
 0002:00009290       ??_C@_0BG@PFDMCJGI@glTextureStorage3DEXT?$AA@ 10036290     umodsys_lib_libui:umodsys.mod.ui.SDL_GL.obj
 0002:000092a8       ??_C@_0CB@NNPCIIJ@glTextureStorage3DMultisampleEXT@ 100362a8     umodsys_lib_libui:umodsys.mod.ui.SDL_GL.obj
 0002:000092cc       ??_C@_0BH@HDNJNIDA@glTextureSubImage1DEXT?$AA@ 100362cc     umodsys_lib_libui:umodsys.mod.ui.SDL_GL.obj
 0002:000092e4       ??_C@_0BH@PFENKKJO@glTextureSubImage2DEXT?$AA@ 100362e4     umodsys_lib_libui:umodsys.mod.ui.SDL_GL.obj
 0002:000092fc       ??_C@_0BH@DOBBHJDL@glTextureSubImage3DEXT?$AA@ 100362fc     umodsys_lib_libui:umodsys.mod.ui.SDL_GL.obj
 0002:00009314       ??_C@_0BG@CAIFHBPG@glUnmapNamedBufferEXT?$AA@ 10036314     umodsys_lib_libui:umodsys.mod.ui.SDL_GL.obj
 0002:0000932c       ??_C@_0CB@BDCLHICB@glVertexArrayBindVertexBufferEXT@ 1003632c     umodsys_lib_libui:umodsys.mod.ui.SDL_GL.obj
 0002:00009350       ??_C@_0BM@CFIMGCMJ@glVertexArrayColorOffsetEXT?$AA@ 10036350     umodsys_lib_libui:umodsys.mod.ui.SDL_GL.obj
 0002:0000936c       ??_C@_0BP@HFLJMDEG@glVertexArrayEdgeFlagOffsetEXT?$AA@ 1003636c     umodsys_lib_libui:umodsys.mod.ui.SDL_GL.obj
 0002:0000938c       ??_C@_0BP@LMBGFCAJ@glVertexArrayFogCoordOffsetEXT?$AA@ 1003638c     umodsys_lib_libui:umodsys.mod.ui.SDL_GL.obj
 0002:000093ac       ??_C@_0BM@INBHJNCB@glVertexArrayIndexOffsetEXT?$AA@ 100363ac     umodsys_lib_libui:umodsys.mod.ui.SDL_GL.obj
 0002:000093c8       ??_C@_0CE@JHDLNPEP@glVertexArrayMultiTexCoordOffset@ 100363c8     umodsys_lib_libui:umodsys.mod.ui.SDL_GL.obj
 0002:000093ec       ??_C@_0BN@OADCKOIN@glVertexArrayNormalOffsetEXT?$AA@ 100363ec     umodsys_lib_libui:umodsys.mod.ui.SDL_GL.obj
 0002:0000940c       ??_C@_0CF@GIDHOCLP@glVertexArraySecondaryColorOffse@ 1003640c     umodsys_lib_libui:umodsys.mod.ui.SDL_GL.obj
 0002:00009434       ??_C@_0BP@MNIAODGP@glVertexArrayTexCoordOffsetEXT?$AA@ 10036434     umodsys_lib_libui:umodsys.mod.ui.SDL_GL.obj
 0002:00009454       ??_C@_0CE@PLJLPNAP@glVertexArrayVertexAttribBinding@ 10036454     umodsys_lib_libui:umodsys.mod.ui.SDL_GL.obj
 0002:00009478       ??_C@_0CE@DPMBMKCD@glVertexArrayVertexAttribDivisor@ 10036478     umodsys_lib_libui:umodsys.mod.ui.SDL_GL.obj
 0002:0000949c       ??_C@_0CD@JDLJFCCB@glVertexArrayVertexAttribFormatE@ 1003649c     umodsys_lib_libui:umodsys.mod.ui.SDL_GL.obj
 0002:000094c0       ??_C@_0CE@OJBKHFGN@glVertexArrayVertexAttribIFormat@ 100364c0     umodsys_lib_libui:umodsys.mod.ui.SDL_GL.obj
 0002:000094e4       ??_C@_0CE@ONCNHCKI@glVertexArrayVertexAttribIOffset@ 100364e4     umodsys_lib_libui:umodsys.mod.ui.SDL_GL.obj
 0002:00009508       ??_C@_0CE@JIENNJCP@glVertexArrayVertexAttribLFormat@ 10036508     umodsys_lib_libui:umodsys.mod.ui.SDL_GL.obj
 0002:0000952c       ??_C@_0CE@JMHKNOOK@glVertexArrayVertexAttribLOffset@ 1003652c     umodsys_lib_libui:umodsys.mod.ui.SDL_GL.obj
 0002:00009550       ??_C@_0CD@JHIOFFOE@glVertexArrayVertexAttribOffsetE@ 10036550     umodsys_lib_libui:umodsys.mod.ui.SDL_GL.obj
 0002:00009574       ??_C@_0CF@LAAOPNKA@glVertexArrayVertexBindingDiviso@ 10036574     umodsys_lib_libui:umodsys.mod.ui.SDL_GL.obj
 0002:0000959c       ??_C@_0BN@DMLCFCEO@glVertexArrayVertexOffsetEXT?$AA@ 1003659c     umodsys_lib_libui:umodsys.mod.ui.SDL_GL.obj
 0002:000095bc       ??_C@_0BL@KADAIOH@GL_EXT_discard_framebuffer?$AA@ 100365bc     umodsys_lib_libui:umodsys.mod.ui.SDL_GL.obj
 0002:000095d8       ??_C@_0BI@PNJOCEBL@glDiscardFramebufferEXT?$AA@ 100365d8     umodsys_lib_libui:umodsys.mod.ui.SDL_GL.obj
 0002:000095f0       ??_C@_0BM@NLOGFGPN@GL_EXT_disjoint_timer_query?$AA@ 100365f0     umodsys_lib_libui:umodsys.mod.ui.SDL_GL.obj
 0002:0000960c       ??_C@_0BA@CBMMKGBH@glBeginQueryEXT?$AA@ 1003660c     umodsys_lib_libui:umodsys.mod.ui.SDL_GL.obj
 0002:0000961c       ??_C@_0BD@OOCONIPH@glDeleteQueriesEXT?$AA@ 1003661c     umodsys_lib_libui:umodsys.mod.ui.SDL_GL.obj
 0002:00009630       ??_C@_0O@NLPONBAA@glEndQueryEXT?$AA@ 10036630     umodsys_lib_libui:umodsys.mod.ui.SDL_GL.obj
 0002:00009640       ??_C@_0BA@JPPKPKJM@glGenQueriesEXT?$AA@ 10036640     umodsys_lib_libui:umodsys.mod.ui.SDL_GL.obj
 0002:00009650       ??_C@_0BI@IJOKHKKO@glGetQueryObjecti64vEXT?$AA@ 10036650     umodsys_lib_libui:umodsys.mod.ui.SDL_GL.obj
 0002:00009668       ??_C@_0BG@NNDHFFDL@glGetQueryObjectivEXT?$AA@ 10036668     umodsys_lib_libui:umodsys.mod.ui.SDL_GL.obj
 0002:00009680       ??_C@_0BJ@LBCFKCPE@glGetQueryObjectui64vEXT?$AA@ 10036680     umodsys_lib_libui:umodsys.mod.ui.SDL_GL.obj
 0002:0000969c       ??_C@_0BH@HABHLEKF@glGetQueryObjectuivEXT?$AA@ 1003669c     umodsys_lib_libui:umodsys.mod.ui.SDL_GL.obj
 0002:000096b4       ??_C@_0BA@KBCJCMME@glGetQueryivEXT?$AA@ 100366b4     umodsys_lib_libui:umodsys.mod.ui.SDL_GL.obj
 0002:000096c4       ??_C@_0N@OEKFJFKD@glIsQueryEXT?$AA@ 100366c4     umodsys_lib_libui:umodsys.mod.ui.SDL_GL.obj
 0002:000096d4       ??_C@_0BC@IDIOOBMM@glQueryCounterEXT?$AA@ 100366d4     umodsys_lib_libui:umodsys.mod.ui.SDL_GL.obj
 0002:000096e8       ??_C@_0BE@BJBPGHAG@GL_EXT_draw_buffers?$AA@ 100366e8     umodsys_lib_libui:umodsys.mod.ui.SDL_GL.obj
 0002:000096fc       ??_C@_0BB@KFCINMDO@glDrawBuffersEXT?$AA@ 100366fc     umodsys_lib_libui:umodsys.mod.ui.SDL_GL.obj
 0002:00009710       ??_C@_0BF@EAKOOCD@GL_EXT_draw_buffers2?$AA@ 10036710     umodsys_lib_libui:umodsys.mod.ui.SDL_GL.obj
 0002:00009728       ??_C@_0BG@PJOFEKKJ@glColorMaskIndexedEXT?$AA@ 10036728     umodsys_lib_libui:umodsys.mod.ui.SDL_GL.obj
 0002:00009740       ??_C@_0BL@BBECEKLJ@GL_EXT_draw_range_elements?$AA@ 10036740     umodsys_lib_libui:umodsys.mod.ui.SDL_GL.obj
 0002:0000975c       ??_C@_0BH@GFFILNEF@glDrawRangeElementsEXT?$AA@ 1003675c     umodsys_lib_libui:umodsys.mod.ui.SDL_GL.obj
 0002:00009774       ??_C@_0BB@KKBCECGP@GL_EXT_fog_coord?$AA@ 10036774     umodsys_lib_libui:umodsys.mod.ui.SDL_GL.obj
 0002:00009788       ??_C@_0BF@FOOIEJCC@glFogCoordPointerEXT?$AA@ 10036788     umodsys_lib_libui:umodsys.mod.ui.SDL_GL.obj
 0002:000097a0       ??_C@_0P@CHEMEAE@glFogCoorddEXT?$AA@ 100367a0     umodsys_lib_libui:umodsys.mod.ui.SDL_GL.obj
 0002:000097b0       ??_C@_0BA@JEFAJMPN@glFogCoorddvEXT?$AA@ 100367b0     umodsys_lib_libui:umodsys.mod.ui.SDL_GL.obj
 0002:000097c0       ??_C@_0P@HILEJHGE@glFogCoordfEXT?$AA@ 100367c0     umodsys_lib_libui:umodsys.mod.ui.SDL_GL.obj
 0002:000097d0       ??_C@_0BA@NJJIDNPG@glFogCoordfvEXT?$AA@ 100367d0     umodsys_lib_libui:umodsys.mod.ui.SDL_GL.obj
 0002:000097e0       ??_C@_0BI@HCGEDMJI@GL_EXT_framebuffer_blit?$AA@ 100367e0     umodsys_lib_libui:umodsys.mod.ui.SDL_GL.obj
 0002:000097f8       ??_C@_0BF@GOMLACDI@glBlitFramebufferEXT?$AA@ 100367f8     umodsys_lib_libui:umodsys.mod.ui.SDL_GL.obj
 0002:00009810       ??_C@_0BK@GDONINOA@GL_EXT_framebuffer_object?$AA@ 10036810     umodsys_lib_libui:umodsys.mod.ui.SDL_GL.obj
 0002:0000982c       ??_C@_0BF@EMIECBAK@glBindFramebufferEXT?$AA@ 1003682c     umodsys_lib_libui:umodsys.mod.ui.SDL_GL.obj
 0002:00009844       ??_C@_0BG@GLKALDNN@glBindRenderbufferEXT?$AA@ 10036844     umodsys_lib_libui:umodsys.mod.ui.SDL_GL.obj
 0002:0000985c       ??_C@_0BM@GOHPHGGE@glCheckFramebufferStatusEXT?$AA@ 1003685c     umodsys_lib_libui:umodsys.mod.ui.SDL_GL.obj
 0002:00009878       ??_C@_0BI@NPEJNLO@glDeleteFramebuffersEXT?$AA@ 10036878     umodsys_lib_libui:umodsys.mod.ui.SDL_GL.obj
 0002:00009890       ??_C@_0BJ@FCLEPNJL@glDeleteRenderbuffersEXT?$AA@ 10036890     umodsys_lib_libui:umodsys.mod.ui.SDL_GL.obj
 0002:000098ac       ??_C@_0BN@BAGKOCJP@glFramebufferRenderbufferEXT?$AA@ 100368ac     umodsys_lib_libui:umodsys.mod.ui.SDL_GL.obj
 0002:000098cc       ??_C@_0BK@DDHFDNIL@glFramebufferTexture1DEXT?$AA@ 100368cc     umodsys_lib_libui:umodsys.mod.ui.SDL_GL.obj
 0002:000098e8       ??_C@_0BK@LFOBEPCF@glFramebufferTexture2DEXT?$AA@ 100368e8     umodsys_lib_libui:umodsys.mod.ui.SDL_GL.obj
 0002:00009904       ??_C@_0BK@HOLNJMIA@glFramebufferTexture3DEXT?$AA@ 10036904     umodsys_lib_libui:umodsys.mod.ui.SDL_GL.obj
 0002:00009920       ??_C@_0BF@FFIJGJAM@glGenFramebuffersEXT?$AA@ 10036920     umodsys_lib_libui:umodsys.mod.ui.SDL_GL.obj
 0002:00009938       ??_C@_0BG@HHIDFCMP@glGenRenderbuffersEXT?$AA@ 10036938     umodsys_lib_libui:umodsys.mod.ui.SDL_GL.obj
 0002:00009950       ??_C@_0BE@CIGLHJJK@glGenerateMipmapEXT?$AA@ 10036950     umodsys_lib_libui:umodsys.mod.ui.SDL_GL.obj
 0002:00009964       ??_C@_0CJ@GLBPNGII@glGetFramebufferAttachmentParame@ 10036964     umodsys_lib_libui:umodsys.mod.ui.SDL_GL.obj
 0002:00009990       ??_C@_0CA@NHMNLBAE@glGetRenderbufferParameterivEXT?$AA@ 10036990     umodsys_lib_libui:umodsys.mod.ui.SDL_GL.obj
 0002:000099b0       ??_C@_0BD@MIGPBMHK@glIsFramebufferEXT?$AA@ 100369b0     umodsys_lib_libui:umodsys.mod.ui.SDL_GL.obj
 0002:000099c4       ??_C@_0BE@DLCBCJNM@glIsRenderbufferEXT?$AA@ 100369c4     umodsys_lib_libui:umodsys.mod.ui.SDL_GL.obj
 0002:000099d8       ??_C@_0BJ@NPDAOAPK@glRenderbufferStorageEXT?$AA@ 100369d8     umodsys_lib_libui:umodsys.mod.ui.SDL_GL.obj
 0002:000099f4       ??_C@_0BO@JOJLOPAH@GL_EXT_gpu_program_parameters?$AA@ 100369f4     umodsys_lib_libui:umodsys.mod.ui.SDL_GL.obj
 0002:00009a14       ??_C@_0BN@FHPFOAIA@glProgramEnvParameters4fvEXT?$AA@ 10036a14     umodsys_lib_libui:umodsys.mod.ui.SDL_GL.obj
 0002:00009a34       ??_C@_0BP@JDOGGDOI@glProgramLocalParameters4fvEXT?$AA@ 10036a34     umodsys_lib_libui:umodsys.mod.ui.SDL_GL.obj
 0002:00009a54       ??_C@_0BD@MHBCPECK@GL_EXT_gpu_shader4?$AA@ 10036a54     umodsys_lib_libui:umodsys.mod.ui.SDL_GL.obj
 0002:00009a68       ??_C@_0BK@DNBDABFG@glBindFragDataLocationEXT?$AA@ 10036a68     umodsys_lib_libui:umodsys.mod.ui.SDL_GL.obj
 0002:00009a84       ??_C@_0BJ@EJLFAMEH@glGetFragDataLocationEXT?$AA@ 10036a84     umodsys_lib_libui:umodsys.mod.ui.SDL_GL.obj
 0002:00009aa0       ??_C@_0BD@FFGAODEC@glGetUniformuivEXT?$AA@ 10036aa0     umodsys_lib_libui:umodsys.mod.ui.SDL_GL.obj
 0002:00009ab4       ??_C@_0BA@OOCMDNJI@glUniform1uiEXT?$AA@ 10036ab4     umodsys_lib_libui:umodsys.mod.ui.SDL_GL.obj
 0002:00009ac4       ??_C@_0BB@GNAFBLGL@glUniform1uivEXT?$AA@ 10036ac4     umodsys_lib_libui:umodsys.mod.ui.SDL_GL.obj
 0002:00009ad8       ??_C@_0BA@NPMECHAF@glUniform2uiEXT?$AA@ 10036ad8     umodsys_lib_libui:umodsys.mod.ui.SDL_GL.obj
 0002:00009ae8       ??_C@_0BB@ODIKBMII@glUniform2uivEXT?$AA@ 10036ae8     umodsys_lib_libui:umodsys.mod.ui.SDL_GL.obj
 0002:00009afc       ??_C@_0BA@HJLDCMLB@glUniform3uiEXT?$AA@ 10036afc     umodsys_lib_libui:umodsys.mod.ui.SDL_GL.obj
 0002:00009b0c       ??_C@_0BB@CPCABMBG@glUniform3uivEXT?$AA@ 10036b0c     umodsys_lib_libui:umodsys.mod.ui.SDL_GL.obj
 0002:00009b20       ??_C@_0BA@LMBEBCDP@glUniform4uiEXT?$AA@ 10036b20     umodsys_lib_libui:umodsys.mod.ui.SDL_GL.obj
 0002:00009b30       ??_C@_0BB@CFOFBFAP@glUniform4uivEXT?$AA@ 10036b30     umodsys_lib_libui:umodsys.mod.ui.SDL_GL.obj
 0002:00009b44       ??_C@_0BB@NIOJPLHJ@GL_EXT_histogram?$AA@ 10036b44     umodsys_lib_libui:umodsys.mod.ui.SDL_GL.obj
 0002:00009b58       ??_C@_0BC@HDKNAHKO@glGetHistogramEXT?$AA@ 10036b58     umodsys_lib_libui:umodsys.mod.ui.SDL_GL.obj
 0002:00009b6c       ??_C@_0BN@POFKAIPA@glGetHistogramParameterfvEXT?$AA@ 10036b6c     umodsys_lib_libui:umodsys.mod.ui.SDL_GL.obj
 0002:00009b8c       ??_C@_0BN@PAMLKCF@glGetHistogramParameterivEXT?$AA@ 10036b8c     umodsys_lib_libui:umodsys.mod.ui.SDL_GL.obj
 0002:00009bac       ??_C@_0P@MHPDBJJK@glGetMinmaxEXT?$AA@ 10036bac     umodsys_lib_libui:umodsys.mod.ui.SDL_GL.obj
 0002:00009bbc       ??_C@_0BK@LHKCMDIM@glGetMinmaxParameterfvEXT?$AA@ 10036bbc     umodsys_lib_libui:umodsys.mod.ui.SDL_GL.obj
 0002:00009bd8       ??_C@_0BK@EGPEHBFJ@glGetMinmaxParameterivEXT?$AA@ 10036bd8     umodsys_lib_libui:umodsys.mod.ui.SDL_GL.obj
 0002:00009bf4       ??_C@_0P@NJHKLCL@glHistogramEXT?$AA@ 10036bf4     umodsys_lib_libui:umodsys.mod.ui.SDL_GL.obj
 0002:00009c04       ??_C@_0M@CMBCKEAN@glMinmaxEXT?$AA@ 10036c04     umodsys_lib_libui:umodsys.mod.ui.SDL_GL.obj
 0002:00009c10       ??_C@_0BE@INOGIHMN@glResetHistogramEXT?$AA@ 10036c10     umodsys_lib_libui:umodsys.mod.ui.SDL_GL.obj
 0002:00009c24       ??_C@_0BB@ICGNPJGJ@glResetMinmaxEXT?$AA@ 10036c24     umodsys_lib_libui:umodsys.mod.ui.SDL_GL.obj
 0002:00009c38       ??_C@_0BC@DODOKKOA@GL_EXT_index_func?$AA@ 10036c38     umodsys_lib_libui:umodsys.mod.ui.SDL_GL.obj
 0002:00009c4c       ??_C@_0P@JNIENPPF@glIndexFuncEXT?$AA@ 10036c4c     umodsys_lib_libui:umodsys.mod.ui.SDL_GL.obj
 0002:00009c5c       ??_C@_0BG@KIAGJAFD@GL_EXT_index_material?$AA@ 10036c5c     umodsys_lib_libui:umodsys.mod.ui.SDL_GL.obj
 0002:00009c74       ??_C@_0BD@FDMMOKEF@glIndexMaterialEXT?$AA@ 10036c74     umodsys_lib_libui:umodsys.mod.ui.SDL_GL.obj
 0002:00009c88       ??_C@_0BI@KPDGBABF@GL_EXT_instanced_arrays?$AA@ 10036c88     umodsys_lib_libui:umodsys.mod.ui.SDL_GL.obj
 0002:00009ca0       ??_C@_0BJ@EGCHCMIN@glDrawArraysInstancedEXT?$AA@ 10036ca0     umodsys_lib_libui:umodsys.mod.ui.SDL_GL.obj
 0002:00009cbc       ??_C@_0BL@CPGJMID@glDrawElementsInstancedEXT?$AA@ 10036cbc     umodsys_lib_libui:umodsys.mod.ui.SDL_GL.obj
 0002:00009cd8       ??_C@_0BJ@DNDEEHPM@glVertexAttribDivisorEXT?$AA@ 10036cd8     umodsys_lib_libui:umodsys.mod.ui.SDL_GL.obj
 0002:00009cf4       ??_C@_0BF@COJMPNOE@GL_EXT_light_texture?$AA@ 10036cf4     umodsys_lib_libui:umodsys.mod.ui.SDL_GL.obj
 0002:00009d0c       ??_C@_0BC@BMGBGAIC@glApplyTextureEXT?$AA@ 10036d0c     umodsys_lib_libui:umodsys.mod.ui.SDL_GL.obj
 0002:00009d20       ??_C@_0BC@NKGLGGFG@glTextureLightEXT?$AA@ 10036d20     umodsys_lib_libui:umodsys.mod.ui.SDL_GL.obj
 0002:00009d34       ??_C@_0BF@PBKCOGKF@glTextureMaterialEXT?$AA@ 10036d34     umodsys_lib_libui:umodsys.mod.ui.SDL_GL.obj
 0002:00009d4c       ??_C@_0BI@GDICDALD@GL_EXT_map_buffer_range?$AA@ 10036d4c     umodsys_lib_libui:umodsys.mod.ui.SDL_GL.obj
 0002:00009d64       ??_C@_0BM@MKNCFBOJ@glFlushMappedBufferRangeEXT?$AA@ 10036d64     umodsys_lib_libui:umodsys.mod.ui.SDL_GL.obj
 0002:00009d80       ??_C@_0BE@KOCGOKON@glMapBufferRangeEXT?$AA@ 10036d80     umodsys_lib_libui:umodsys.mod.ui.SDL_GL.obj
 0002:00009d94       ??_C@_0BJ@BEDGNCEH@GL_EXT_multi_draw_arrays?$AA@ 10036d94     umodsys_lib_libui:umodsys.mod.ui.SDL_GL.obj
 0002:00009db0       ??_C@_0BF@MOHHALAE@glMultiDrawArraysEXT?$AA@ 10036db0     umodsys_lib_libui:umodsys.mod.ui.SDL_GL.obj
 0002:00009dc8       ??_C@_0BH@CPIJKLBJ@glMultiDrawElementsEXT?$AA@ 10036dc8     umodsys_lib_libui:umodsys.mod.ui.SDL_GL.obj
 0002:00009de0       ??_C@_0BD@NAAAMEDB@GL_EXT_multisample?$AA@ 10036de0     umodsys_lib_libui:umodsys.mod.ui.SDL_GL.obj
 0002:00009df4       ??_C@_0BA@CBHHDJML@glSampleMaskEXT?$AA@ 10036df4     umodsys_lib_libui:umodsys.mod.ui.SDL_GL.obj
 0002:00009e04       ??_C@_0BD@GLCOCHJL@glSamplePatternEXT?$AA@ 10036e04     umodsys_lib_libui:umodsys.mod.ui.SDL_GL.obj
 0002:00009e18       ??_C@_0CG@NJOILHFI@GL_EXT_multisampled_render_to_te@ 10036e18     umodsys_lib_libui:umodsys.mod.ui.SDL_GL.obj
 0002:00009e40       ??_C@_0CF@CPGMNF@glFramebufferTexture2DMultisampl@ 10036e40     umodsys_lib_libui:umodsys.mod.ui.SDL_GL.obj
 0002:00009e68       ??_C@_0CE@IGIMMIPN@glRenderbufferStorageMultisample@ 10036e68     umodsys_lib_libui:umodsys.mod.ui.SDL_GL.obj
 0002:00009e8c       ??_C@_0BO@CFPPKLNC@GL_EXT_multiview_draw_buffers?$AA@ 10036e8c     umodsys_lib_libui:umodsys.mod.ui.SDL_GL.obj
 0002:00009eac       ??_C@_0BI@DENHBPGD@glDrawBuffersIndexedEXT?$AA@ 10036eac     umodsys_lib_libui:umodsys.mod.ui.SDL_GL.obj
 0002:00009ec4       ??_C@_0BD@BOMCJKNB@glGetIntegeri_vEXT?$AA@ 10036ec4     umodsys_lib_libui:umodsys.mod.ui.SDL_GL.obj
 0002:00009ed8       ??_C@_0BH@LHJKGCNM@glReadBufferIndexedEXT?$AA@ 10036ed8     umodsys_lib_libui:umodsys.mod.ui.SDL_GL.obj
 0002:00009ef0       ??_C@_0BI@OJEGBCEK@GL_EXT_paletted_texture?$AA@ 10036ef0     umodsys_lib_libui:umodsys.mod.ui.SDL_GL.obj
 0002:00009f08       ??_C@_0BA@MJCEHDBE@glColorTableEXT?$AA@ 10036f08     umodsys_lib_libui:umodsys.mod.ui.SDL_GL.obj
 0002:00009f18       ??_C@_0BD@FEIIDOBH@glGetColorTableEXT?$AA@ 10036f18     umodsys_lib_libui:umodsys.mod.ui.SDL_GL.obj
 0002:00009f2c       ??_C@_0BO@HFKPENKH@glGetColorTableParameterfvEXT?$AA@ 10036f2c     umodsys_lib_libui:umodsys.mod.ui.SDL_GL.obj
 0002:00009f4c       ??_C@_0BO@IEPJPPHC@glGetColorTableParameterivEXT?$AA@ 10036f4c     umodsys_lib_libui:umodsys.mod.ui.SDL_GL.obj
 0002:00009f6c       ??_C@_0BH@GFMFFLC@GL_EXT_pixel_transform?$AA@ 10036f6c     umodsys_lib_libui:umodsys.mod.ui.SDL_GL.obj
 0002:00009f84       ??_C@_0CC@PADIMNCH@glGetPixelTransformParameterfvEX@ 10036f84     umodsys_lib_libui:umodsys.mod.ui.SDL_GL.obj
 0002:00009fa8       ??_C@_0CC@BGOHPPC@glGetPixelTransformParameterivEX@ 10036fa8     umodsys_lib_libui:umodsys.mod.ui.SDL_GL.obj
 0002:00009fcc       ??_C@_0BO@OIDCEPNJ@glPixelTransformParameterfEXT?$AA@ 10036fcc     umodsys_lib_libui:umodsys.mod.ui.SDL_GL.obj
 0002:00009fec       ??_C@_0BP@GMNIHEBP@glPixelTransformParameterfvEXT?$AA@ 10036fec     umodsys_lib_libui:umodsys.mod.ui.SDL_GL.obj
 0002:0000a00c       ??_C@_0BO@GKGCNIAI@glPixelTransformParameteriEXT?$AA@ 1003700c     umodsys_lib_libui:umodsys.mod.ui.SDL_GL.obj
 0002:0000a02c       ??_C@_0BP@JNIOMGMK@glPixelTransformParameterivEXT?$AA@ 1003702c     umodsys_lib_libui:umodsys.mod.ui.SDL_GL.obj
 0002:0000a04c       ??_C@_0BI@GCJDFKGN@GL_EXT_point_parameters?$AA@ 1003704c     umodsys_lib_libui:umodsys.mod.ui.SDL_GL.obj
 0002:0000a064       ??_C@_0BF@KOFPPNHP@glPointParameterfEXT?$AA@ 10037064     umodsys_lib_libui:umodsys.mod.ui.SDL_GL.obj
 0002:0000a07c       ??_C@_0BG@FDCLBPHA@glPointParameterfvEXT?$AA@ 1003707c     umodsys_lib_libui:umodsys.mod.ui.SDL_GL.obj
 0002:0000a094       ??_C@_0BG@GEKEEJAM@GL_EXT_polygon_offset?$AA@ 10037094     umodsys_lib_libui:umodsys.mod.ui.SDL_GL.obj
 0002:0000a0ac       ??_C@_0BD@KFMIOCPC@glPolygonOffsetEXT?$AA@ 100370ac     umodsys_lib_libui:umodsys.mod.ui.SDL_GL.obj
 0002:0000a0c0       ??_C@_0BI@BEAPECOC@GL_EXT_provoking_vertex?$AA@ 100370c0     umodsys_lib_libui:umodsys.mod.ui.SDL_GL.obj
 0002:0000a0d8       ??_C@_0BF@NCFNHLBM@glProvokingVertexEXT?$AA@ 100370d8     umodsys_lib_libui:umodsys.mod.ui.SDL_GL.obj
 0002:0000a0f0       ??_C@_0BC@CLDFFND@GL_EXT_robustness?$AA@ 100370f0     umodsys_lib_libui:umodsys.mod.ui.SDL_GL.obj
 0002:0000a104       ??_C@_0BM@ONPEFKGN@glGetGraphicsResetStatusEXT?$AA@ 10037104     umodsys_lib_libui:umodsys.mod.ui.SDL_GL.obj
 0002:0000a120       ??_C@_0BD@BHDIBOMJ@glGetnUniformfvEXT?$AA@ 10037120     umodsys_lib_libui:umodsys.mod.ui.SDL_GL.obj
 0002:0000a134       ??_C@_0BD@OGGOKMBM@glGetnUniformivEXT?$AA@ 10037134     umodsys_lib_libui:umodsys.mod.ui.SDL_GL.obj
 0002:0000a148       ??_C@_0BB@BBOPGEIE@glReadnPixelsEXT?$AA@ 10037148     umodsys_lib_libui:umodsys.mod.ui.SDL_GL.obj
 0002:0000a15c       ??_C@_0BH@DLNOEEKJ@GL_EXT_secondary_color?$AA@ 1003715c     umodsys_lib_libui:umodsys.mod.ui.SDL_GL.obj
 0002:0000a174       ??_C@_0BG@MGNMPMLP@glSecondaryColor3bEXT?$AA@ 10037174     umodsys_lib_libui:umodsys.mod.ui.SDL_GL.obj
 0002:0000a18c       ??_C@_0BH@MICHFOMB@glSecondaryColor3bvEXT?$AA@ 1003718c     umodsys_lib_libui:umodsys.mod.ui.SDL_GL.obj
 0002:0000a1a4       ??_C@_0BG@EJJMAJBP@glSecondaryColor3dEXT?$AA@ 100371a4     umodsys_lib_libui:umodsys.mod.ui.SDL_GL.obj
 0002:0000a1bc       ??_C@_0BH@BOHOLNNM@glSecondaryColor3dvEXT?$AA@ 100371bc     umodsys_lib_libui:umodsys.mod.ui.SDL_GL.obj
 0002:0000a1d4       ??_C@_0BG@DDFMFKHP@glSecondaryColor3fEXT?$AA@ 100371d4     umodsys_lib_libui:umodsys.mod.ui.SDL_GL.obj
 0002:0000a1ec       ??_C@_0BH@FDLGBMNH@glSecondaryColor3fvEXT?$AA@ 100371ec     umodsys_lib_libui:umodsys.mod.ui.SDL_GL.obj
 0002:0000a204       ??_C@_0BG@LBAMMNKO@glSecondaryColor3iEXT?$AA@ 10037204     umodsys_lib_libui:umodsys.mod.ui.SDL_GL.obj
 0002:0000a21c       ??_C@_0BH@KCOAKOAC@glSecondaryColor3ivEXT?$AA@ 1003721c     umodsys_lib_libui:umodsys.mod.ui.SDL_GL.obj
 0002:0000a234       ??_C@_0BG@JLFMECIN@glSecondaryColor3sEXT?$AA@ 10037234     umodsys_lib_libui:umodsys.mod.ui.SDL_GL.obj
 0002:0000a24c       ??_C@_0BH@KNIPPP@glSecondaryColor3svEXT?$AA@ 1003724c     umodsys_lib_libui:umodsys.mod.ui.SDL_GL.obj
 0002:0000a264       ??_C@_0BH@EDJEFNKA@glSecondaryColor3ubEXT?$AA@ 10037264     umodsys_lib_libui:umodsys.mod.ui.SDL_GL.obj
 0002:0000a27c       ??_C@_0BI@EFKKBLJF@glSecondaryColor3ubvEXT?$AA@ 1003727c     umodsys_lib_libui:umodsys.mod.ui.SDL_GL.obj
 0002:0000a294       ??_C@_0BH@DEEEGMLB@glSecondaryColor3uiEXT?$AA@ 10037294     umodsys_lib_libui:umodsys.mod.ui.SDL_GL.obj
 0002:0000a2ac       ??_C@_0BI@CPGNOLFG@glSecondaryColor3uivEXT?$AA@ 100372ac     umodsys_lib_libui:umodsys.mod.ui.SDL_GL.obj
 0002:0000a2c4       ??_C@_0BH@BOBEODJC@glSecondaryColor3usEXT?$AA@ 100372c4     umodsys_lib_libui:umodsys.mod.ui.SDL_GL.obj
 0002:0000a2dc       ??_C@_0BI@INCAMKKL@glSecondaryColor3usvEXT?$AA@ 100372dc     umodsys_lib_libui:umodsys.mod.ui.SDL_GL.obj
 0002:0000a2f4       ??_C@_0BL@FIJPIBAP@glSecondaryColorPointerEXT?$AA@ 100372f4     umodsys_lib_libui:umodsys.mod.ui.SDL_GL.obj
 0002:0000a310       ??_C@_0BP@KOANOKOE@GL_EXT_separate_shader_objects?$AA@ 10037310     umodsys_lib_libui:umodsys.mod.ui.SDL_GL.obj
 0002:0000a330       ??_C@_0BD@CLOMPIJI@glActiveProgramEXT?$AA@ 10037330     umodsys_lib_libui:umodsys.mod.ui.SDL_GL.obj
 0002:0000a344       ??_C@_0BJ@KCKCCCKM@glActiveShaderProgramEXT?$AA@ 10037344     umodsys_lib_libui:umodsys.mod.ui.SDL_GL.obj
 0002:0000a360       ??_C@_0BJ@GNNOGINB@glBindProgramPipelineEXT?$AA@ 10037360     umodsys_lib_libui:umodsys.mod.ui.SDL_GL.obj
 0002:0000a37c       ??_C@_0BJ@MMLKJOPF@glCreateShaderProgramEXT?$AA@ 1003737c     umodsys_lib_libui:umodsys.mod.ui.SDL_GL.obj
 0002:0000a398       ??_C@_0BK@FOCEJACN@glCreateShaderProgramvEXT?$AA@ 10037398     umodsys_lib_libui:umodsys.mod.ui.SDL_GL.obj
 0002:0000a3b4       ??_C@_0BM@KOIFALOM@glDeleteProgramPipelinesEXT?$AA@ 100373b4     umodsys_lib_libui:umodsys.mod.ui.SDL_GL.obj
 0002:0000a3d0       ??_C@_0BJ@FEBCIIIM@glGenProgramPipelinesEXT?$AA@ 100373d0     umodsys_lib_libui:umodsys.mod.ui.SDL_GL.obj
 0002:0000a3ec       ??_C@_0BP@DKCKIEIJ@glGetProgramPipelineInfoLogEXT?$AA@ 100373ec     umodsys_lib_libui:umodsys.mod.ui.SDL_GL.obj
 0002:0000a40c       ??_C@_0BK@OLMMHFJP@glGetProgramPipelineivEXT?$AA@ 1003740c     umodsys_lib_libui:umodsys.mod.ui.SDL_GL.obj
 0002:0000a428       ??_C@_0BH@HNANNDJA@glIsProgramPipelineEXT?$AA@ 10037428     umodsys_lib_libui:umodsys.mod.ui.SDL_GL.obj
 0002:0000a440       ??_C@_0BH@PKNCEEOM@glProgramParameteriEXT?$AA@ 10037440     umodsys_lib_libui:umodsys.mod.ui.SDL_GL.obj
 0002:0000a458       ??_C@_0BG@EGEMDMDF@glUseProgramStagesEXT?$AA@ 10037458     umodsys_lib_libui:umodsys.mod.ui.SDL_GL.obj
 0002:0000a470       ??_C@_0BG@POJOCCGB@glUseShaderProgramEXT?$AA@ 10037470     umodsys_lib_libui:umodsys.mod.ui.SDL_GL.obj
 0002:0000a488       ??_C@_0BN@CJEKPLHI@glValidateProgramPipelineEXT?$AA@ 10037488     umodsys_lib_libui:umodsys.mod.ui.SDL_GL.obj
 0002:0000a4a8       ??_C@_0BP@BLBIDGOK@GL_EXT_shader_image_load_store?$AA@ 100374a8     umodsys_lib_libui:umodsys.mod.ui.SDL_GL.obj
 0002:0000a4c8       ??_C@_0BG@CKIKMCEP@glBindImageTextureEXT?$AA@ 100374c8     umodsys_lib_libui:umodsys.mod.ui.SDL_GL.obj
 0002:0000a4e0       ??_C@_0BD@KBDDKHKJ@glMemoryBarrierEXT?$AA@ 100374e0     umodsys_lib_libui:umodsys.mod.ui.SDL_GL.obj
 0002:0000a4f4       ??_C@_0BJ@DIMHMNPE@GL_EXT_stencil_clear_tag?$AA@ 100374f4     umodsys_lib_libui:umodsys.mod.ui.SDL_GL.obj
 0002:0000a510       ??_C@_0BF@KMNAKPFO@glStencilClearTagEXT?$AA@ 10037510     umodsys_lib_libui:umodsys.mod.ui.SDL_GL.obj
 0002:0000a528       ??_C@_0BI@CPMDBHLG@GL_EXT_stencil_two_side?$AA@ 10037528     umodsys_lib_libui:umodsys.mod.ui.SDL_GL.obj
 0002:0000a540       ??_C@_0BH@FDKCPLFK@glActiveStencilFaceEXT?$AA@ 10037540     umodsys_lib_libui:umodsys.mod.ui.SDL_GL.obj
 0002:0000a558       ??_C@_0BC@CLMEPFHP@GL_EXT_subtexture?$AA@ 10037558     umodsys_lib_libui:umodsys.mod.ui.SDL_GL.obj
 0002:0000a56c       ??_C@_0BD@MHDOEKHM@glTexSubImage1DEXT?$AA@ 1003756c     umodsys_lib_libui:umodsys.mod.ui.SDL_GL.obj
 0002:0000a580       ??_C@_0BD@EBKKDINC@glTexSubImage2DEXT?$AA@ 10037580     umodsys_lib_libui:umodsys.mod.ui.SDL_GL.obj
 0002:0000a594       ??_C@_0BB@LCNIEGEB@GL_EXT_texture3D?$AA@ 10037594     umodsys_lib_libui:umodsys.mod.ui.SDL_GL.obj
 0002:0000a5a8       ??_C@_0BA@CBIBMEOO@glTexImage3DEXT?$AA@ 100375a8     umodsys_lib_libui:umodsys.mod.ui.SDL_GL.obj
 0002:0000a5b8       ??_C@_0BD@IKPGOLHH@glTexSubImage3DEXT?$AA@ 100375b8     umodsys_lib_libui:umodsys.mod.ui.SDL_GL.obj
 0002:0000a5cc       ??_C@_0BN@NGDAHMPO@GL_EXT_texture_buffer_object?$AA@ 100375cc     umodsys_lib_libui:umodsys.mod.ui.SDL_GL.obj
 0002:0000a5ec       ??_C@_0P@HPBILOFJ@glTexBufferEXT?$AA@ 100375ec     umodsys_lib_libui:umodsys.mod.ui.SDL_GL.obj
 0002:0000a5fc       ??_C@_0BH@BKFJHEI@GL_EXT_texture_integer?$AA@ 100375fc     umodsys_lib_libui:umodsys.mod.ui.SDL_GL.obj
 0002:0000a614       ??_C@_0BC@GAABLOFL@glClearColorIiEXT?$AA@ 10037614     umodsys_lib_libui:umodsys.mod.ui.SDL_GL.obj
 0002:0000a628       ??_C@_0BD@PJECGHFB@glClearColorIuiEXT?$AA@ 10037628     umodsys_lib_libui:umodsys.mod.ui.SDL_GL.obj
 0002:0000a63c       ??_C@_0BI@KHAOHHCO@glGetTexParameterIivEXT?$AA@ 1003763c     umodsys_lib_libui:umodsys.mod.ui.SDL_GL.obj
 0002:0000a654       ??_C@_0BJ@BNLAGJGM@glGetTexParameterIuivEXT?$AA@ 10037654     umodsys_lib_libui:umodsys.mod.ui.SDL_GL.obj
 0002:0000a670       ??_C@_0BF@JNFNNNEN@glTexParameterIivEXT?$AA@ 10037670     umodsys_lib_libui:umodsys.mod.ui.SDL_GL.obj
 0002:0000a688       ??_C@_0BG@MJDBAKCE@glTexParameterIuivEXT?$AA@ 10037688     umodsys_lib_libui:umodsys.mod.ui.SDL_GL.obj
 0002:0000a6a0       ??_C@_0BG@FPPPAJDP@GL_EXT_texture_object?$AA@ 100376a0     umodsys_lib_libui:umodsys.mod.ui.SDL_GL.obj
 0002:0000a6b8       ??_C@_0BJ@LJBONNCK@glAreTexturesResidentEXT?$AA@ 100376b8     umodsys_lib_libui:umodsys.mod.ui.SDL_GL.obj
 0002:0000a6d4       ??_C@_0BB@EBKBDLEN@glBindTextureEXT?$AA@ 100376d4     umodsys_lib_libui:umodsys.mod.ui.SDL_GL.obj
 0002:0000a6e8       ??_C@_0BE@LDBFENJM@glDeleteTexturesEXT?$AA@ 100376e8     umodsys_lib_libui:umodsys.mod.ui.SDL_GL.obj
 0002:0000a6fc       ??_C@_0BB@GJAECBGO@glGenTexturesEXT?$AA@ 100376fc     umodsys_lib_libui:umodsys.mod.ui.SDL_GL.obj
 0002:0000a710       ??_C@_0P@BLOFBLLL@glIsTextureEXT?$AA@ 10037710     umodsys_lib_libui:umodsys.mod.ui.SDL_GL.obj
 0002:0000a720       ??_C@_0BI@BHBMGKCN@glPrioritizeTexturesEXT?$AA@ 10037720     umodsys_lib_libui:umodsys.mod.ui.SDL_GL.obj
 0002:0000a738       ??_C@_0BO@MGIKHAJP@GL_EXT_texture_perturb_normal?$AA@ 10037738     umodsys_lib_libui:umodsys.mod.ui.SDL_GL.obj
 0002:0000a758       ??_C@_0BD@HJCKBGND@glTextureNormalEXT?$AA@ 10037758     umodsys_lib_libui:umodsys.mod.ui.SDL_GL.obj
 0002:0000a76c       ??_C@_0BH@LHMNMPMF@GL_EXT_texture_storage?$AA@ 1003776c     umodsys_lib_libui:umodsys.mod.ui.SDL_GL.obj
 0002:0000a784       ??_C@_0BC@FENIPDJP@glTexStorage1DEXT?$AA@ 10037784     umodsys_lib_libui:umodsys.mod.ui.SDL_GL.obj
 0002:0000a798       ??_C@_0BC@NCEMIBDB@glTexStorage2DEXT?$AA@ 10037798     umodsys_lib_libui:umodsys.mod.ui.SDL_GL.obj
 0002:0000a7ac       ??_C@_0BC@BJBAFCJE@glTexStorage3DEXT?$AA@ 100377ac     umodsys_lib_libui:umodsys.mod.ui.SDL_GL.obj
 0002:0000a7c0       ??_C@_0BK@GKBBHBBG@GL_EXT_transform_feedback?$AA@ 100377c0     umodsys_lib_libui:umodsys.mod.ui.SDL_GL.obj
 0002:0000a7dc       ??_C@_0BM@BLDJBDM@glBeginTransformFeedbackEXT?$AA@ 100377dc     umodsys_lib_libui:umodsys.mod.ui.SDL_GL.obj
 0002:0000a7f8       ??_C@_0BE@NCJCCMMA@glBindBufferBaseEXT?$AA@ 100377f8     umodsys_lib_libui:umodsys.mod.ui.SDL_GL.obj
 0002:0000a80c       ??_C@_0BG@PKIAJGM@glBindBufferOffsetEXT?$AA@ 1003780c     umodsys_lib_libui:umodsys.mod.ui.SDL_GL.obj
 0002:0000a824       ??_C@_0BF@MIMIIPJK@glBindBufferRangeEXT?$AA@ 10037824     umodsys_lib_libui:umodsys.mod.ui.SDL_GL.obj
 0002:0000a83c       ??_C@_0BK@MBPEMJDO@glEndTransformFeedbackEXT?$AA@ 1003783c     umodsys_lib_libui:umodsys.mod.ui.SDL_GL.obj
 0002:0000a858       ??_C@_0CB@KMFIHAIP@glGetTransformFeedbackVaryingEXT@ 10037858     umodsys_lib_libui:umodsys.mod.ui.SDL_GL.obj
 0002:0000a87c       ??_C@_0BP@LKJENMKJ@glTransformFeedbackVaryingsEXT?$AA@ 1003787c     umodsys_lib_libui:umodsys.mod.ui.SDL_GL.obj
 0002:0000a89c       ??_C@_0BE@PFGKPDCP@GL_EXT_vertex_array?$AA@ 1003789c     umodsys_lib_libui:umodsys.mod.ui.SDL_GL.obj
 0002:0000a8b0       ??_C@_0BC@PBPJCKDL@glArrayElementEXT?$AA@ 100378b0     umodsys_lib_libui:umodsys.mod.ui.SDL_GL.obj
 0002:0000a8c4       ??_C@_0BC@JAGLJGCN@glColorPointerEXT?$AA@ 100378c4     umodsys_lib_libui:umodsys.mod.ui.SDL_GL.obj
 0002:0000a8d8       ??_C@_0BA@NIBACEFN@glDrawArraysEXT?$AA@ 100378d8     umodsys_lib_libui:umodsys.mod.ui.SDL_GL.obj
 0002:0000a8e8       ??_C@_0BF@LIECLKLC@glEdgeFlagPointerEXT?$AA@ 100378e8     umodsys_lib_libui:umodsys.mod.ui.SDL_GL.obj
 0002:0000a900       ??_C@_0BB@EPJHLPNN@glGetPointervEXT?$AA@ 10037900     umodsys_lib_libui:umodsys.mod.ui.SDL_GL.obj
 0002:0000a914       ??_C@_0BC@DOBCGHJI@glIndexPointerEXT?$AA@ 10037914     umodsys_lib_libui:umodsys.mod.ui.SDL_GL.obj
 0002:0000a928       ??_C@_0BD@IBDDMGPJ@glNormalPointerEXT?$AA@ 10037928     umodsys_lib_libui:umodsys.mod.ui.SDL_GL.obj
 0002:0000a93c       ??_C@_0BF@PKEIBLPO@glTexCoordPointerEXT?$AA@ 1003793c     umodsys_lib_libui:umodsys.mod.ui.SDL_GL.obj
 0002:0000a954       ??_C@_0BD@IDICNFAP@glVertexPointerEXT?$AA@ 10037954     umodsys_lib_libui:umodsys.mod.ui.SDL_GL.obj
 0002:0000a968       ??_C@_0BL@PDLDALDJ@GL_EXT_vertex_attrib_64bit?$AA@ 10037968     umodsys_lib_libui:umodsys.mod.ui.SDL_GL.obj
 0002:0000a984       ??_C@_0BI@EOFDCPBG@glGetVertexAttribLdvEXT?$AA@ 10037984     umodsys_lib_libui:umodsys.mod.ui.SDL_GL.obj
 0002:0000a99c       ??_C@_0BF@DCGDNIND@glVertexAttribL1dEXT?$AA@ 1003799c     umodsys_lib_libui:umodsys.mod.ui.SDL_GL.obj
 0002:0000a9b4       ??_C@_0BG@IMNHMMJG@glVertexAttribL1dvEXT?$AA@ 100379b4     umodsys_lib_libui:umodsys.mod.ui.SDL_GL.obj
 0002:0000a9cc       ??_C@_0BF@LEPHKKHN@glVertexAttribL2dEXT?$AA@ 100379cc     umodsys_lib_libui:umodsys.mod.ui.SDL_GL.obj
 0002:0000a9e4       ??_C@_0BG@LNDPNGAL@glVertexAttribL2dvEXT?$AA@ 100379e4     umodsys_lib_libui:umodsys.mod.ui.SDL_GL.obj
 0002:0000a9fc       ??_C@_0BF@HPKLHJNI@glVertexAttribL3dEXT?$AA@ 100379fc     umodsys_lib_libui:umodsys.mod.ui.SDL_GL.obj
 0002:0000aa14       ??_C@_0BG@BLEINNLP@glVertexAttribL3dvEXT?$AA@ 10037a14     umodsys_lib_libui:umodsys.mod.ui.SDL_GL.obj
 0002:0000aa2c       ??_C@_0BF@GCKOEJGA@glVertexAttribL4dEXT?$AA@ 10037a2c     umodsys_lib_libui:umodsys.mod.ui.SDL_GL.obj
 0002:0000aa44       ??_C@_0BG@NOOPODDB@glVertexAttribL4dvEXT?$AA@ 10037a44     umodsys_lib_libui:umodsys.mod.ui.SDL_GL.obj
 0002:0000aa5c       ??_C@_0BK@MAKNHHDI@glVertexAttribLPointerEXT?$AA@ 10037a5c     umodsys_lib_libui:umodsys.mod.ui.SDL_GL.obj
 0002:0000aa78       ??_C@_0BF@OBIDKHLA@GL_EXT_vertex_shader?$AA@ 10037a78     umodsys_lib_libui:umodsys.mod.ui.SDL_GL.obj
 0002:0000aa90       ??_C@_0BH@DBHOHHOM@glBeginVertexShaderEXT?$AA@ 10037a90     umodsys_lib_libui:umodsys.mod.ui.SDL_GL.obj
 0002:0000aaa8       ??_C@_0BI@PBIFACEG@glBindLightParameterEXT?$AA@ 10037aa8     umodsys_lib_libui:umodsys.mod.ui.SDL_GL.obj
 0002:0000aac0       ??_C@_0BL@PJABJA@glBindMaterialParameterEXT?$AA@ 10037ac0     umodsys_lib_libui:umodsys.mod.ui.SDL_GL.obj
 0002:0000aadc       ??_C@_0BD@GMIEHABM@glBindParameterEXT?$AA@ 10037adc     umodsys_lib_libui:umodsys.mod.ui.SDL_GL.obj
 0002:0000aaf0       ??_C@_0BJ@HCMLCIKI@glBindTexGenParameterEXT?$AA@ 10037af0     umodsys_lib_libui:umodsys.mod.ui.SDL_GL.obj
 0002:0000ab0c       ??_C@_0BO@GMKMPNFP@glBindTextureUnitParameterEXT?$AA@ 10037b0c     umodsys_lib_libui:umodsys.mod.ui.SDL_GL.obj
 0002:0000ab2c       ??_C@_0BG@OCJKPIFF@glBindVertexShaderEXT?$AA@ 10037b2c     umodsys_lib_libui:umodsys.mod.ui.SDL_GL.obj
 0002:0000ab44       ??_C@_0BI@FECIKLIE@glDeleteVertexShaderEXT?$AA@ 10037b44     umodsys_lib_libui:umodsys.mod.ui.SDL_GL.obj
 0002:0000ab5c       ??_C@_0BP@IBHJIACF@glDisableVariantClientStateEXT?$AA@ 10037b5c     umodsys_lib_libui:umodsys.mod.ui.SDL_GL.obj
 0002:0000ab7c       ??_C@_0BO@GCEAPMKD@glEnableVariantClientStateEXT?$AA@ 10037b7c     umodsys_lib_libui:umodsys.mod.ui.SDL_GL.obj
 0002:0000ab9c       ??_C@_0BF@LHBKPFPA@glEndVertexShaderEXT?$AA@ 10037b9c     umodsys_lib_libui:umodsys.mod.ui.SDL_GL.obj
 0002:0000abb4       ??_C@_0BG@IIKDNCFK@glExtractComponentEXT?$AA@ 10037bb4     umodsys_lib_libui:umodsys.mod.ui.SDL_GL.obj
 0002:0000abcc       ??_C@_0BA@FOBGFEBC@glGenSymbolsEXT?$AA@ 10037bcc     umodsys_lib_libui:umodsys.mod.ui.SDL_GL.obj
 0002:0000abdc       ??_C@_0BG@JEGJGDJG@glGenVertexShadersEXT?$AA@ 10037bdc     umodsys_lib_libui:umodsys.mod.ui.SDL_GL.obj
 0002:0000abf4       ??_C@_0BK@EADAIGJC@glGetInvariantBooleanvEXT?$AA@ 10037bf4     umodsys_lib_libui:umodsys.mod.ui.SDL_GL.obj
 0002:0000ac10       ??_C@_0BI@GAJGBOMH@glGetInvariantFloatvEXT?$AA@ 10037c10     umodsys_lib_libui:umodsys.mod.ui.SDL_GL.obj
 0002:0000ac28       ??_C@_0BK@EBLPNAJG@glGetInvariantIntegervEXT?$AA@ 10037c28     umodsys_lib_libui:umodsys.mod.ui.SDL_GL.obj
 0002:0000ac44       ??_C@_0BO@KMEGCJCE@glGetLocalConstantBooleanvEXT?$AA@ 10037c44     umodsys_lib_libui:umodsys.mod.ui.SDL_GL.obj
 0002:0000ac64       ??_C@_0BM@OHCLJGJK@glGetLocalConstantFloatvEXT?$AA@ 10037c64     umodsys_lib_libui:umodsys.mod.ui.SDL_GL.obj
 0002:0000ac80       ??_C@_0BO@KNMJHPCA@glGetLocalConstantIntegervEXT?$AA@ 10037c80     umodsys_lib_libui:umodsys.mod.ui.SDL_GL.obj
 0002:0000aca0       ??_C@_0BI@EPPMCFAN@glGetVariantBooleanvEXT?$AA@ 10037ca0     umodsys_lib_libui:umodsys.mod.ui.SDL_GL.obj
 0002:0000acb8       ??_C@_0BG@DGEKMCHD@glGetVariantFloatvEXT?$AA@ 10037cb8     umodsys_lib_libui:umodsys.mod.ui.SDL_GL.obj
 0002:0000acd0       ??_C@_0BI@EOHDHDAJ@glGetVariantIntegervEXT?$AA@ 10037cd0     umodsys_lib_libui:umodsys.mod.ui.SDL_GL.obj
 0002:0000ace8       ??_C@_0BI@LMHNNJOJ@glGetVariantPointervEXT?$AA@ 10037ce8     umodsys_lib_libui:umodsys.mod.ui.SDL_GL.obj
 0002:0000ad00       ??_C@_0BF@IKCGIIKN@glInsertComponentEXT?$AA@ 10037d00     umodsys_lib_libui:umodsys.mod.ui.SDL_GL.obj
 0002:0000ad18       ??_C@_0BG@CLPIJBFD@glIsVariantEnabledEXT?$AA@ 10037d18     umodsys_lib_libui:umodsys.mod.ui.SDL_GL.obj
 0002:0000ad30       ??_C@_0BC@NKPANFDC@glSetInvariantEXT?$AA@ 10037d30     umodsys_lib_libui:umodsys.mod.ui.SDL_GL.obj
 0002:0000ad44       ??_C@_0BG@MJJEAAJC@glSetLocalConstantEXT?$AA@ 10037d44     umodsys_lib_libui:umodsys.mod.ui.SDL_GL.obj
 0002:0000ad5c       ??_C@_0P@EJGAIAGI@glShaderOp1EXT?$AA@ 10037d5c     umodsys_lib_libui:umodsys.mod.ui.SDL_GL.obj
 0002:0000ad6c       ??_C@_0P@OMAPKLI@glShaderOp2EXT?$AA@ 10037d6c     umodsys_lib_libui:umodsys.mod.ui.SDL_GL.obj
 0002:0000ad7c       ??_C@_0P@DDKANDAI@glShaderOp3EXT?$AA@ 10037d7c     umodsys_lib_libui:umodsys.mod.ui.SDL_GL.obj
 0002:0000ad8c       ??_C@_0N@OAIECMLP@glSwizzleEXT?$AA@ 10037d8c     umodsys_lib_libui:umodsys.mod.ui.SDL_GL.obj
 0002:0000ad9c       ??_C@_0BE@MLHCODFN@glVariantPointerEXT?$AA@ 10037d9c     umodsys_lib_libui:umodsys.mod.ui.SDL_GL.obj
 0002:0000adb0       ??_C@_0P@HDFNIDJJ@glVariantbvEXT?$AA@ 10037db0     umodsys_lib_libui:umodsys.mod.ui.SDL_GL.obj
 0002:0000adc0       ??_C@_0P@KFAEGAIE@glVariantdvEXT?$AA@ 10037dc0     umodsys_lib_libui:umodsys.mod.ui.SDL_GL.obj
 0002:0000add0       ??_C@_0P@OIMMMBIP@glVariantfvEXT?$AA@ 10037dd0     umodsys_lib_libui:umodsys.mod.ui.SDL_GL.obj
 0002:0000ade0       ??_C@_0P@BJJKHDFK@glVariantivEXT?$AA@ 10037de0     umodsys_lib_libui:umodsys.mod.ui.SDL_GL.obj
 0002:0000adf0       ??_C@_0P@LLNHFCKH@glVariantsvEXT?$AA@ 10037df0     umodsys_lib_libui:umodsys.mod.ui.SDL_GL.obj
 0002:0000ae00       ??_C@_0BA@CAKBLIIO@glVariantubvEXT?$AA@ 10037e00     umodsys_lib_libui:umodsys.mod.ui.SDL_GL.obj
 0002:0000ae10       ??_C@_0BA@EKGGEIEN@glVariantuivEXT?$AA@ 10037e10     umodsys_lib_libui:umodsys.mod.ui.SDL_GL.obj
 0002:0000ae20       ??_C@_0BA@OICLGJLA@glVariantusvEXT?$AA@ 10037e20     umodsys_lib_libui:umodsys.mod.ui.SDL_GL.obj
 0002:0000ae30       ??_C@_0P@MFMDCJBK@glWriteMaskEXT?$AA@ 10037e30     umodsys_lib_libui:umodsys.mod.ui.SDL_GL.obj
 0002:0000ae40       ??_C@_0BI@FHAFAFPN@GL_EXT_vertex_weighting?$AA@ 10037e40     umodsys_lib_libui:umodsys.mod.ui.SDL_GL.obj
 0002:0000ae58       ??_C@_0BJ@KPGBLGAC@glVertexWeightPointerEXT?$AA@ 10037e58     umodsys_lib_libui:umodsys.mod.ui.SDL_GL.obj
 0002:0000ae74       ??_C@_0BD@FPEAFNKI@glVertexWeightfEXT?$AA@ 10037e74     umodsys_lib_libui:umodsys.mod.ui.SDL_GL.obj
 0002:0000ae88       ??_C@_0BE@ELGNEHKH@glVertexWeightfvEXT?$AA@ 10037e88     umodsys_lib_libui:umodsys.mod.ui.SDL_GL.obj
 0002:0000ae9c       ??_C@_0BH@KPBHOHAF@GL_EXT_x11_sync_object?$AA@ 10037e9c     umodsys_lib_libui:umodsys.mod.ui.SDL_GL.obj
 0002:0000aeb4       ??_C@_0BA@JABFPGIF@glImportSyncEXT?$AA@ 10037eb4     umodsys_lib_libui:umodsys.mod.ui.SDL_GL.obj
 0002:0000aec4       ??_C@_0CN@NOMCOKIC@Loaded?5?$CFd?1?$CFd?5functions?5from?5?$CFd?1?$CF@ 10037ec4     umodsys_lib_libui:umodsys.mod.ui.SDL_GL.obj
 0002:0000aef4       ??_C@_0BB@ELFKBBCM@GL_VERSION_?$CFd_?$CFd?$AA@ 10037ef4     umodsys_lib_libui:umodsys.mod.ui.SDL_GL.obj
 0002:0000af08       ??_C@_05KBEOJPB@?$CFd?4?$CFd?$AA@ 10037f08     umodsys_lib_libui:umodsys.mod.ui.SDL_GL.obj
 0002:0000af10       ??_C@_07LNIJJMEN@glAccum?$AA@ 10037f10     umodsys_lib_libui:umodsys.mod.ui.SDL_GL.obj
 0002:0000af18       ??_C@_0M@BJGLMKCC@glAlphaFunc?$AA@ 10037f18     umodsys_lib_libui:umodsys.mod.ui.SDL_GL.obj
 0002:0000af24       ??_C@_07FCOIFMD@glBegin?$AA@ 10037f24     umodsys_lib_libui:umodsys.mod.ui.SDL_GL.obj
 0002:0000af2c       ??_C@_08PJOLDJDK@glBitmap?$AA@ 10037f2c     umodsys_lib_libui:umodsys.mod.ui.SDL_GL.obj
 0002:0000af38       ??_C@_0L@CIPLDIDL@glCallList?$AA@ 10037f38     umodsys_lib_libui:umodsys.mod.ui.SDL_GL.obj
 0002:0000af44       ??_C@_0M@LFDBDICJ@glCallLists?$AA@ 10037f44     umodsys_lib_libui:umodsys.mod.ui.SDL_GL.obj
 0002:0000af50       ??_C@_0N@OKAMEJMG@glClearAccum?$AA@ 10037f50     umodsys_lib_libui:umodsys.mod.ui.SDL_GL.obj
 0002:0000af60       ??_C@_0N@EIILHCMH@glClearIndex?$AA@ 10037f60     umodsys_lib_libui:umodsys.mod.ui.SDL_GL.obj
 0002:0000af70       ??_C@_0M@OHCNGGFF@glClipPlane?$AA@ 10037f70     umodsys_lib_libui:umodsys.mod.ui.SDL_GL.obj
 0002:0000af7c       ??_C@_09JLHBBGHE@glColor3b?$AA@ 10037f7c     umodsys_lib_libui:umodsys.mod.ui.SDL_GL.obj
 0002:0000af88       ??_C@_0L@COJGBKED@glColor3bv?$AA@ 10037f88     umodsys_lib_libui:umodsys.mod.ui.SDL_GL.obj
 0002:0000af94       ??_C@_09MNCLLBPC@glColor3d?$AA@ 10037f94     umodsys_lib_libui:umodsys.mod.ui.SDL_GL.obj
 0002:0000afa0       ??_C@_0L@CKBLGGPB@glColor3dv?$AA@ 10037fa0     umodsys_lib_libui:umodsys.mod.ui.SDL_GL.obj
 0002:0000afac       ??_C@_09PPBNNDHA@glColor3f?$AA@ 10037fac     umodsys_lib_libui:umodsys.mod.ui.SDL_GL.obj
 0002:0000afb8       ??_C@_0L@CJJPLCJP@glColor3fv?$AA@ 10037fb8     umodsys_lib_libui:umodsys.mod.ui.SDL_GL.obj
 0002:0000afc4       ??_C@_09HIIFMPLP@glColor3i?$AA@ 10037fc4     umodsys_lib_libui:umodsys.mod.ui.SDL_GL.obj
 0002:0000afd0       ??_C@_0L@CCMDPFKC@glColor3iv?$AA@ 10037fd0     umodsys_lib_libui:umodsys.mod.ui.SDL_GL.obj
 0002:0000afdc       ??_C@_09MIKIDFGE@glColor3s?$AA@ 10037fdc     umodsys_lib_libui:umodsys.mod.ui.SDL_GL.obj
 0002:0000afe8       ??_C@_0L@DDHCNDAE@glColor3sv?$AA@ 10037fe8     umodsys_lib_libui:umodsys.mod.ui.SDL_GL.obj
 0002:0000aff4       ??_C@_0L@BJFBHIOD@glColor3ub?$AA@ 10037ff4     umodsys_lib_libui:umodsys.mod.ui.SDL_GL.obj
 0002:0000b000       ??_C@_0M@EAHPDMMK@glColor3ubv?$AA@ 10038000     umodsys_lib_libui:umodsys.mod.ui.SDL_GL.obj
 0002:0000b00c       ??_C@_0L@PKKFKBCI@glColor3ui?$AA@ 1003800c     umodsys_lib_libui:umodsys.mod.ui.SDL_GL.obj
 0002:0000b018       ??_C@_0M@EMCKNDCL@glColor3uiv?$AA@ 10038018     umodsys_lib_libui:umodsys.mod.ui.SDL_GL.obj
 0002:0000b024       ??_C@_0L@EKIIFLPD@glColor3us?$AA@ 10038024     umodsys_lib_libui:umodsys.mod.ui.SDL_GL.obj
 0002:0000b030       ??_C@_0M@FNJLPFIN@glColor3usv?$AA@ 10038030     umodsys_lib_libui:umodsys.mod.ui.SDL_GL.obj
 0002:0000b03c       ??_C@_09JODOAAPB@glColor4b?$AA@ 1003803c     umodsys_lib_libui:umodsys.mod.ui.SDL_GL.obj
 0002:0000b048       ??_C@_0L@LDEBCCPK@glColor4bv?$AA@ 10038048     umodsys_lib_libui:umodsys.mod.ui.SDL_GL.obj
 0002:0000b054       ??_C@_09MIGEKHHH@glColor4d?$AA@ 10038054     umodsys_lib_libui:umodsys.mod.ui.SDL_GL.obj
 0002:0000b060       ??_C@_0L@LHMMFOEI@glColor4dv?$AA@ 10038060     umodsys_lib_libui:umodsys.mod.ui.SDL_GL.obj
 0002:0000b06c       ??_C@_09PKFCMFPF@glColor4f?$AA@ 1003806c     umodsys_lib_libui:umodsys.mod.ui.SDL_GL.obj
 0002:0000b078       ??_C@_0L@LEEIIKCG@glColor4fv?$AA@ 10038078     umodsys_lib_libui:umodsys.mod.ui.SDL_GL.obj
 0002:0000b084       ??_C@_09HNMKNJDK@glColor4i?$AA@ 10038084     umodsys_lib_libui:umodsys.mod.ui.SDL_GL.obj
 0002:0000b090       ??_C@_0L@LPBEMNBL@glColor4iv?$AA@ 10038090     umodsys_lib_libui:umodsys.mod.ui.SDL_GL.obj
 0002:0000b09c       ??_C@_09MNOHCDOB@glColor4s?$AA@ 1003809c     umodsys_lib_libui:umodsys.mod.ui.SDL_GL.obj
 0002:0000b0a8       ??_C@_0L@KOKFOLLN@glColor4sv?$AA@ 100380a8     umodsys_lib_libui:umodsys.mod.ui.SDL_GL.obj
 0002:0000b0b4       ??_C@_0L@IEIGEAFK@glColor4ub?$AA@ 100380b4     umodsys_lib_libui:umodsys.mod.ui.SDL_GL.obj
 0002:0000b0c0       ??_C@_0M@PCFPOANK@glColor4ubv?$AA@ 100380c0     umodsys_lib_libui:umodsys.mod.ui.SDL_GL.obj
 0002:0000b0cc       ??_C@_0L@GHHCJJJB@glColor4ui?$AA@ 100380cc     umodsys_lib_libui:umodsys.mod.ui.SDL_GL.obj
 0002:0000b0d8       ??_C@_0M@POAKAPDL@glColor4uiv?$AA@ 100380d8     umodsys_lib_libui:umodsys.mod.ui.SDL_GL.obj
 0002:0000b0e4       ??_C@_0L@NHFPGDEK@glColor4us?$AA@ 100380e4     umodsys_lib_libui:umodsys.mod.ui.SDL_GL.obj
 0002:0000b0f0       ??_C@_0M@OPLLCJJN@glColor4usv?$AA@ 100380f0     umodsys_lib_libui:umodsys.mod.ui.SDL_GL.obj
 0002:0000b0fc       ??_C@_0BA@OOEHEGPC@glColorMaterial?$AA@ 100380fc     umodsys_lib_libui:umodsys.mod.ui.SDL_GL.obj
 0002:0000b10c       ??_C@_0N@OACCOOE@glCopyPixels?$AA@ 1003810c     umodsys_lib_libui:umodsys.mod.ui.SDL_GL.obj
 0002:0000b11c       ??_C@_0O@KPJIJAFM@glDeleteLists?$AA@ 1003811c     umodsys_lib_libui:umodsys.mod.ui.SDL_GL.obj
 0002:0000b12c       ??_C@_0N@FLFIHFDP@glDrawPixels?$AA@ 1003812c     umodsys_lib_libui:umodsys.mod.ui.SDL_GL.obj
 0002:0000b13c       ??_C@_0L@DFCKJEPI@glEdgeFlag?$AA@ 1003813c     umodsys_lib_libui:umodsys.mod.ui.SDL_GL.obj
 0002:0000b148       ??_C@_0M@MKDGIOMK@glEdgeFlagv?$AA@ 10038148     umodsys_lib_libui:umodsys.mod.ui.SDL_GL.obj
 0002:0000b154       ??_C@_05OIBMBLHE@glEnd?$AA@ 10038154     umodsys_lib_libui:umodsys.mod.ui.SDL_GL.obj
 0002:0000b15c       ??_C@_09HKEBCLHH@glEndList?$AA@ 1003815c     umodsys_lib_libui:umodsys.mod.ui.SDL_GL.obj
 0002:0000b168       ??_C@_0O@FJBIDDKI@glEvalCoord1d?$AA@ 10038168     umodsys_lib_libui:umodsys.mod.ui.SDL_GL.obj
 0002:0000b178       ??_C@_0P@KBDBONJJ@glEvalCoord1dv?$AA@ 10038178     umodsys_lib_libui:umodsys.mod.ui.SDL_GL.obj
 0002:0000b188       ??_C@_0O@GLCOFBCK@glEvalCoord1f?$AA@ 10038188     umodsys_lib_libui:umodsys.mod.ui.SDL_GL.obj
 0002:0000b198       ??_C@_0P@KCLFDJPH@glEvalCoord1fv?$AA@ 10038198     umodsys_lib_libui:umodsys.mod.ui.SDL_GL.obj
 0002:0000b1a8       ??_C@_0O@FLFOINPB@glEvalCoord2d?$AA@ 100381a8     umodsys_lib_libui:umodsys.mod.ui.SDL_GL.obj
 0002:0000b1b8       ??_C@_0P@LDIEECHH@glEvalCoord2dv?$AA@ 100381b8     umodsys_lib_libui:umodsys.mod.ui.SDL_GL.obj
 0002:0000b1c8       ??_C@_0O@GJGIOPHD@glEvalCoord2f?$AA@ 100381c8     umodsys_lib_libui:umodsys.mod.ui.SDL_GL.obj
 0002:0000b1d8       ??_C@_0P@LAAAJGBJ@glEvalCoord2fv?$AA@ 100381d8     umodsys_lib_libui:umodsys.mod.ui.SDL_GL.obj
 0002:0000b1e8       ??_C@_0M@DCFEDLDA@glEvalMesh1?$AA@ 100381e8     umodsys_lib_libui:umodsys.mod.ui.SDL_GL.obj
 0002:0000b1f4       ??_C@_0M@BJHJGIPD@glEvalMesh2?$AA@ 100381f4     umodsys_lib_libui:umodsys.mod.ui.SDL_GL.obj
 0002:0000b200       ??_C@_0N@DOEOCCJJ@glEvalPoint1?$AA@ 10038200     umodsys_lib_libui:umodsys.mod.ui.SDL_GL.obj
 0002:0000b210       ??_C@_0N@BFGDHBFK@glEvalPoint2?$AA@ 10038210     umodsys_lib_libui:umodsys.mod.ui.SDL_GL.obj
 0002:0000b220       ??_C@_0BB@COFAIKCN@glFeedbackBuffer?$AA@ 10038220     umodsys_lib_libui:umodsys.mod.ui.SDL_GL.obj
 0002:0000b234       ??_C@_06JJHNMGPD@glFogf?$AA@ 10038234     umodsys_lib_libui:umodsys.mod.ui.SDL_GL.obj
 0002:0000b23c       ??_C@_07FNEIAABA@glFogfv?$AA@ 1003823c     umodsys_lib_libui:umodsys.mod.ui.SDL_GL.obj
 0002:0000b244       ??_C@_06BOOFNKDM@glFogi?$AA@ 10038244     umodsys_lib_libui:umodsys.mod.ui.SDL_GL.obj
 0002:0000b24c       ??_C@_07FGBEEHCN@glFogiv?$AA@ 1003824c     umodsys_lib_libui:umodsys.mod.ui.SDL_GL.obj
 0002:0000b254       ??_C@_09ICLFHOKP@glFrustum?$AA@ 10038254     umodsys_lib_libui:umodsys.mod.ui.SDL_GL.obj
 0002:0000b260       ??_C@_0L@BNOFOEBP@glGenLists?$AA@ 10038260     umodsys_lib_libui:umodsys.mod.ui.SDL_GL.obj
 0002:0000b26c       ??_C@_0P@MMMNLMC@glGetClipPlane?$AA@ 1003826c     umodsys_lib_libui:umodsys.mod.ui.SDL_GL.obj
 0002:0000b27c       ??_C@_0N@MGGMJGKA@glGetLightfv?$AA@ 1003827c     umodsys_lib_libui:umodsys.mod.ui.SDL_GL.obj
 0002:0000b28c       ??_C@_0N@MNDANBJN@glGetLightiv?$AA@ 1003828c     umodsys_lib_libui:umodsys.mod.ui.SDL_GL.obj
 0002:0000b29c       ??_C@_0L@FGIDEHCA@glGetMapdv?$AA@ 1003829c     umodsys_lib_libui:umodsys.mod.ui.SDL_GL.obj
 0002:0000b2a8       ??_C@_0L@FFAHJDEO@glGetMapfv?$AA@ 100382a8     umodsys_lib_libui:umodsys.mod.ui.SDL_GL.obj
 0002:0000b2b4       ??_C@_0L@FOFLNEHD@glGetMapiv?$AA@ 100382b4     umodsys_lib_libui:umodsys.mod.ui.SDL_GL.obj
 0002:0000b2c0       ??_C@_0BA@GCPPEEDM@glGetMaterialfv?$AA@ 100382c0     umodsys_lib_libui:umodsys.mod.ui.SDL_GL.obj
 0002:0000b2d0       ??_C@_0BA@GJKDADAB@glGetMaterialiv?$AA@ 100382d0     umodsys_lib_libui:umodsys.mod.ui.SDL_GL.obj
 0002:0000b2e0       ??_C@_0BA@EDGNDGIE@glGetPixelMapfv?$AA@ 100382e0     umodsys_lib_libui:umodsys.mod.ui.SDL_GL.obj
 0002:0000b2f0       ??_C@_0BB@MGCFOIED@glGetPixelMapuiv?$AA@ 100382f0     umodsys_lib_libui:umodsys.mod.ui.SDL_GL.obj
 0002:0000b304       ??_C@_0BB@NHJEMOOF@glGetPixelMapusv?$AA@ 10038304     umodsys_lib_libui:umodsys.mod.ui.SDL_GL.obj
 0002:0000b318       ??_C@_0BE@PBJHLEJI@glGetPolygonStipple?$AA@ 10038318     umodsys_lib_libui:umodsys.mod.ui.SDL_GL.obj
 0002:0000b32c       ??_C@_0O@KDAJGFCL@glGetTexEnvfv?$AA@ 1003832c     umodsys_lib_libui:umodsys.mod.ui.SDL_GL.obj
 0002:0000b33c       ??_C@_0O@KIFFCCBG@glGetTexEnviv?$AA@ 1003833c     umodsys_lib_libui:umodsys.mod.ui.SDL_GL.obj
 0002:0000b34c       ??_C@_0O@PDIFOCP@glGetTexGendv?$AA@ 1003834c     umodsys_lib_libui:umodsys.mod.ui.SDL_GL.obj
 0002:0000b35c       ??_C@_0O@MLMIKEB@glGetTexGenfv?$AA@ 1003835c     umodsys_lib_libui:umodsys.mod.ui.SDL_GL.obj
 0002:0000b36c       ??_C@_0O@HOAMNHM@glGetTexGeniv?$AA@ 1003836c     umodsys_lib_libui:umodsys.mod.ui.SDL_GL.obj
 0002:0000b37c       ??_C@_0M@ONDJOEOA@glIndexMask?$AA@ 1003837c     umodsys_lib_libui:umodsys.mod.ui.SDL_GL.obj
 0002:0000b388       ??_C@_08HOOEKNLP@glIndexd?$AA@ 10038388     umodsys_lib_libui:umodsys.mod.ui.SDL_GL.obj
 0002:0000b394       ??_C@_09CCMFJEMA@glIndexdv?$AA@ 10038394     umodsys_lib_libui:umodsys.mod.ui.SDL_GL.obj
 0002:0000b3a0       ??_C@_08EMNCMPDN@glIndexf?$AA@ 100383a0     umodsys_lib_libui:umodsys.mod.ui.SDL_GL.obj
 0002:0000b3ac       ??_C@_09CBEBEAKO@glIndexfv?$AA@ 100383ac     umodsys_lib_libui:umodsys.mod.ui.SDL_GL.obj
 0002:0000b3b8       ??_C@_08MLEKNDPC@glIndexi?$AA@ 100383b8     umodsys_lib_libui:umodsys.mod.ui.SDL_GL.obj
 0002:0000b3c4       ??_C@_09CKBNAHJD@glIndexiv?$AA@ 100383c4     umodsys_lib_libui:umodsys.mod.ui.SDL_GL.obj
 0002:0000b3d0       ??_C@_08HLGHCJCJ@glIndexs?$AA@ 100383d0     umodsys_lib_libui:umodsys.mod.ui.SDL_GL.obj
 0002:0000b3dc       ??_C@_09DLKMCBDF@glIndexsv?$AA@ 100383dc     umodsys_lib_libui:umodsys.mod.ui.SDL_GL.obj
 0002:0000b3e8       ??_C@_0M@LBOBLINN@glInitNames?$AA@ 100383e8     umodsys_lib_libui:umodsys.mod.ui.SDL_GL.obj
 0002:0000b3f4       ??_C@_08DMFMJKDH@glIsList?$AA@ 100383f4     umodsys_lib_libui:umodsys.mod.ui.SDL_GL.obj
 0002:0000b400       ??_C@_0O@HPCJLAII@glLightModelf?$AA@ 10038400     umodsys_lib_libui:umodsys.mod.ui.SDL_GL.obj
 0002:0000b410       ??_C@_0P@JKHJPMNC@glLightModelfv?$AA@ 10038410     umodsys_lib_libui:umodsys.mod.ui.SDL_GL.obj
 0002:0000b420       ??_C@_0O@PILBKMEH@glLightModeli?$AA@ 10038420     umodsys_lib_libui:umodsys.mod.ui.SDL_GL.obj
 0002:0000b430       ??_C@_0P@JBCFLLOP@glLightModeliv?$AA@ 10038430     umodsys_lib_libui:umodsys.mod.ui.SDL_GL.obj
 0002:0000b440       ??_C@_08LPDPILEL@glLightf?$AA@ 10038440     umodsys_lib_libui:umodsys.mod.ui.SDL_GL.obj
 0002:0000b44c       ??_C@_09JINEHJOD@glLightfv?$AA@ 1003844c     umodsys_lib_libui:umodsys.mod.ui.SDL_GL.obj
 0002:0000b458       ??_C@_08DIKHJHIE@glLighti?$AA@ 10038458     umodsys_lib_libui:umodsys.mod.ui.SDL_GL.obj
 0002:0000b464       ??_C@_09JDIIDONO@glLightiv?$AA@ 10038464     umodsys_lib_libui:umodsys.mod.ui.SDL_GL.obj
 0002:0000b470       ??_C@_0O@LDOINBOK@glLineStipple?$AA@ 10038470     umodsys_lib_libui:umodsys.mod.ui.SDL_GL.obj
 0002:0000b480       ??_C@_0L@HDOJDFBA@glListBase?$AA@ 10038480     umodsys_lib_libui:umodsys.mod.ui.SDL_GL.obj
