 umodsysc

 Timestamp is 527a093b (Wed Nov 06 12:17:47 2013)

 Preferred load address is 00400000

 Start         Length     Name                   Class
 0001:00000000 00009880H .text                   CODE
 0001:00009880 000003f7H .text$x                 CODE
 0001:00009c77 0000060bH .text$yc                CODE
 0001:0000a282 00000259H .text$yd                CODE
 0002:00000000 00000154H .idata$5                DATA
 0002:00000154 00000004H .CRT$XCA                DATA
 0002:00000158 00000004H .CRT$XCAA               DATA
 0002:0000015c 000001e8H .CRT$XCU                DATA
 0002:00000344 00000004H .CRT$XCZ                DATA
 0002:00000348 00000004H .CRT$XIA                DATA
 0002:0000034c 00000004H .CRT$XIAA               DATA
 0002:00000350 00000004H .CRT$XIY                DATA
 0002:00000354 00000004H .CRT$XIZ                DATA
 0002:00000358 00001768H .rdata                  DATA
 0002:00001ac0 0000114cH .rdata$r                DATA
 0002:00002c10 0000009cH .rdata$sxdata           DATA
 0002:00002cac 00000004H .rtc$IAA                DATA
 0002:00002cb0 00000004H .rtc$IZZ                DATA
 0002:00002cb4 00000004H .rtc$TAA                DATA
 0002:00002cb8 00000004H .rtc$TZZ                DATA
 0002:00002cc0 000008b0H .xdata$x                DATA
 0002:00003570 00000028H .idata$2                DATA
 0002:00003598 00000014H .idata$3                DATA
 0002:000035ac 00000154H .idata$4                DATA
 0002:00003700 00000554H .idata$6                DATA
 0002:00003c60 00000058H .edata                  DATA
 0003:00000000 00000bd0H .data                   DATA
 0003:00000bd0 00002904H .bss                    DATA

  Address         Publics by Value              Rva+Base       Lib:Object

 0000:00000000       __except_list              00000000     <absolute>
 0000:00000027       ___safe_se_handler_count   00000027     <absolute>
 0000:00009876       __fltused                  00009876     <absolute>
 0000:00009876       __ldused                   00009876     <absolute>
 0000:00000000       ___ImageBase               00400000     <linker-defined>
 0001:00000000       _main                      00401000 f   umodsys.c_main.obj
 0001:0000018a       ??0?$TString@U?$TSCoreConst@D@su@tl@UModSys@@U?$TComparerBinaryHash@D@234@@tl@UModSys@@QAE@PBD@Z 0040118a f i umodsys.c_main.obj
 0001:000001a4       ?set@?$TString@U?$TSCoreConst@D@su@tl@UModSys@@U?$TComparerBinaryHash@D@234@@tl@UModSys@@QAEXPBD@Z 004011a4 f i umodsys.c_main.obj
 0001:000001cd       ?update@?$TComparerBinaryHash@D@su@tl@UModSys@@QAEXPBDI@Z 004011cd f i umodsys.c_main.obj
 0001:000001f9       ??1SCMemShared@core@UModSys@@QAE@XZ 004011f9 f i umodsys_lib_libmedia:umodsys.mod.media.std.obj
 0001:000001f9       ??1SInfo@IBinObjFilter@libmedia@UModSys@@QAE@XZ 004011f9 f i umodsys_lib_libmedia:umodsys.mod.media.std.obj
 0001:000001f9       ??1SMemShared@core@UModSys@@QAE@XZ 004011f9 f i umodsys_lib_libmedia:umodsys.mod.media.std.obj
 0001:00000205       ??6SUniquePtrList@core@UModSys@@QAEAAU012@PBUSUniquePointerInfo@12@@Z 00401205 f i umodsys_lib_libmedia:umodsys.mod.media.std.obj
 0001:00000221       ??2IRoot@core@UModSys@@SAPAXIABUSIMemAlloc@12@@Z 00401221 f i umodsys_lib_libmedia:umodsys.mod.media.std.obj
 0001:00000243       ??3IRoot@core@UModSys@@SAXPAXABUSIMemAlloc@12@@Z 00401243 f i umodsys_lib_libmedia:umodsys.mod.media.std.obj
 0001:0000025c       ?_root_get_other_interface@IRefObject@core@UModSys@@IAEPAUIRoot@23@PBUSUniquePointerInfo@23@@Z 0040125c f i umodsys_lib_libmedia:umodsys.mod.media.std.obj
 0001:0000025c       ?_root_get_other_interface@IRefObject@core@UModSys@@IBEPBUIRoot@23@PBUSUniquePointerInfo@23@@Z 0040125c f i umodsys_lib_libmedia:umodsys.mod.media.std.obj
 0001:0000027d       ?_root_get_interface_types@IRefObject@core@UModSys@@SAIAAUSUniquePtrList@23@@Z 0040127d f i umodsys_lib_libmedia:umodsys.mod.media.std.obj
 0001:0000029d       ?_root_is_interface_supported@IRefObject@core@UModSys@@SA_NPBUSUniquePointerInfo@23@@Z 0040129d f i umodsys_lib_libmedia:umodsys.mod.media.std.obj
 0001:000002b4       ??$seq@D@su@tl@UModSys@@YA_NPBD0I@Z 004012b4 f i umodsys_lib_libmedia:umodsys.mod.media.std.obj
 0001:000002cf       ?_root_is_interface_supported@IGenerator@base@UModSys@@SA_NPBUSUniquePointerInfo@core@3@@Z 004012cf f i umodsys_lib_libmedia:umodsys.mod.media.std.obj
 0001:000002ef       ?get_flag@RResolverChain@SFlagsChain@libmedia@UModSys@@UBE?AW4eStates@?$TFlags4State@USMediaFlagUid@libmedia@UModSys@@I@tl@4@H@Z 004012ef f i umodsys_lib_libmedia:umodsys.mod.media.std.obj
 0001:00000315       ?_root_get_interface_types@ILibrary@libmedia@UModSys@@SAIAAUSUniquePtrList@core@3@@Z 00401315 f i umodsys_lib_libmedia:umodsys.mod.media.std.obj
 0001:0000032f       ?_root_is_interface_supported@ILibrary@libmedia@UModSys@@SA_NPBUSUniquePointerInfo@core@3@@Z 0040132f f i umodsys_lib_libmedia:umodsys.mod.media.std.obj
 0001:00000347       ??1SLayer@ILibraryLayered@libmedia@UModSys@@QAE@XZ 00401347 f i umodsys_lib_libmedia:umodsys.mod.media.std.obj
 0001:00000347       ??1SPoint@ILibraryBinTree@libmedia@UModSys@@QAE@XZ 00401347 f i umodsys_lib_libmedia:umodsys.mod.media.std.obj
 0001:00000358       ?root_get_interface_info@RLibraryBinCache@std@media@modules@UModSys@@UBEABUSUniquePointerInfo@core@5@XZ 00401358 f i umodsys_lib_libmedia:umodsys.mod.media.std.obj
 0001:0000035e       ?root_get_interface_type@RLibraryBinCache@std@media@modules@UModSys@@UBEPBUSUniquePointerInfo@core@5@XZ 0040135e f i umodsys_lib_libmedia:umodsys.mod.media.std.obj
 0001:00000364       ?root_get_other_interface@RLibraryBinCache@std@media@modules@UModSys@@UBEPBUIRoot@core@5@PBUSUniquePointerInfo@75@@Z 00401364 f i umodsys_lib_libmedia:umodsys.mod.media.std.obj
 0001:00000364       ?root_get_other_interface@RLibraryBinCache@std@media@modules@UModSys@@UAEPAUIRoot@core@5@PBUSUniquePointerInfo@75@@Z 00401364 f i umodsys_lib_libmedia:umodsys.mod.media.std.obj
 0001:0000038d       ?root_is_interface_supported@RLibraryBinCache@std@media@modules@UModSys@@UBE_NPBUSUniquePointerInfo@core@5@@Z 0040138d f i umodsys_lib_libmedia:umodsys.mod.media.std.obj
 0001:000003b4       ??0RLibraryBinCache@std@media@modules@UModSys@@QAE@PAUIModObject@base@4@ABUSParameters@core@4@U?$TFlags4State@USMediaFlagUid@libmedia@UModSys@@I@tl@4@@Z 004013b4 f i umodsys_lib_libmedia:umodsys.mod.media.std.obj
 0001:00000411       ?get_flags_auto@RLibraryBinCache@std@media@modules@UModSys@@UBE?AU?$TFlags4State@USMediaFlagUid@libmedia@UModSys@@I@tl@5@XZ 00401411 f i umodsys_lib_libmedia:umodsys.mod.media.std.obj
 0001:00000420       ?bin_load@RLibraryBinCache@std@media@modules@UModSys@@UAE_NABU?$TString@U?$TSCoreConst@D@su@tl@UModSys@@U?$TComparerBinaryHash@D@234@@tl@5@AAUSCMemShared@core@5@ABUSFlags@libmedia@5@@Z 00401420 f i umodsys_lib_libmedia:umodsys.mod.media.std.obj
 0001:00000477       ?obj_cget@RLibraryObjCache@std@media@modules@UModSys@@UAE_NABU?$TString@U?$TSCoreConst@D@su@tl@UModSys@@U?$TComparerBinaryHash@D@234@@tl@5@AAU?$TRefObject@UIRefObject@core@UModSys@@U?$TRefObjectFunc@UIRefObject@core@UModSys@@@tl@3@@75@_N@Z 00401477 f i umodsys_lib_libmedia:umodsys.mod.media.std.obj
 0001:00000477       ?bin_get@RLibraryBinCache@std@media@modules@UModSys@@UAE_NABU?$TString@U?$TSCoreConst@D@su@tl@UModSys@@U?$TComparerBinaryHash@D@234@@tl@5@AAUSCMemShared@core@5@_N@Z 00401477 f i umodsys_lib_libmedia:umodsys.mod.media.std.obj
 0001:000004a3       ?bin_put@RLibraryBinCache@std@media@modules@UModSys@@UAE_NABU?$TString@U?$TSCoreConst@D@su@tl@UModSys@@U?$TComparerBinaryHash@D@234@@tl@5@PBUSCMemShared@core@5@@Z 004014a3 f i umodsys_lib_libmedia:umodsys.mod.media.std.obj
 0001:000004b9       ?bin_info@RLibraryObjFilter@std@media@modules@UModSys@@UAE_NABU?$TString@U?$TSCoreConst@D@su@tl@UModSys@@U?$TComparerBinaryHash@D@234@@tl@5@AAUSFileInfo@libmedia@5@ABUSFlags@95@@Z 004014b9 f i umodsys_lib_libmedia:umodsys.mod.media.std.obj
 0001:000004b9       ?bin_get@RLibraryBinTree@std@media@modules@UModSys@@UAE_NABU?$TString@U?$TSCoreConst@D@su@tl@UModSys@@U?$TComparerBinaryHash@D@234@@tl@5@AAUSCMemShared@core@5@_N@Z 004014b9 f i umodsys_lib_libmedia:umodsys.mod.media.std.obj
 0001:000004b9       ?bin_info@RLibraryBinCache@std@media@modules@UModSys@@UAE_NABU?$TString@U?$TSCoreConst@D@su@tl@UModSys@@U?$TComparerBinaryHash@D@234@@tl@5@AAU?$TIStackSocket@USFileInfo@libmedia@UModSys@@@75@ABUSFlags@libmedia@5@@Z 004014b9 f i umodsys_lib_libmedia:umodsys.mod.media.std.obj
 0001:000004b9       ?bin_info@RLibraryBinTree@std@media@modules@UModSys@@UAE_NABU?$TString@U?$TSCoreConst@D@su@tl@UModSys@@U?$TComparerBinaryHash@D@234@@tl@5@AAU?$TIStackSocket@USFileInfo@libmedia@UModSys@@@75@ABUSFlags@libmedia@5@@Z 004014b9 f i umodsys_lib_libmedia:umodsys.mod.media.std.obj
 0001:000004b9       ?bin_save@RLibraryBinCache@std@media@modules@UModSys@@UAE_NABU?$TString@U?$TSCoreConst@D@su@tl@UModSys@@U?$TComparerBinaryHash@D@234@@tl@5@ABUSCMem@core@5@ABUSFlags@libmedia@5@@Z 004014b9 f i umodsys_lib_libmedia:umodsys.mod.media.std.obj
 0001:000004b9       ?bin_info@RLibraryBinTree@std@media@modules@UModSys@@UAE_NABU?$TString@U?$TSCoreConst@D@su@tl@UModSys@@U?$TComparerBinaryHash@D@234@@tl@5@AAUSFileInfo@libmedia@5@ABUSFlags@95@@Z 004014b9 f i umodsys_lib_libmedia:umodsys.mod.media.std.obj
 0001:000004b9       ?bin_load@RLibraryObjCache@std@media@modules@UModSys@@UAE_NABU?$TString@U?$TSCoreConst@D@su@tl@UModSys@@U?$TComparerBinaryHash@D@234@@tl@5@AAUSCMemShared@core@5@ABUSFlags@libmedia@5@@Z 004014b9 f i umodsys_lib_libmedia:umodsys.mod.media.std.obj
 0001:000004b9       ?vget_c@RConsole_std@rsystem@base@UModSys@@UAE_NPAHPBDPAD@Z 004014b9 f i umodsys_lib_basesys:umodsys.basesys.rconsole_std.obj
 0001:000004b9       ?bin_info@RLibraryObjCache@std@media@modules@UModSys@@UAE_NABU?$TString@U?$TSCoreConst@D@su@tl@UModSys@@U?$TComparerBinaryHash@D@234@@tl@5@AAUSFileInfo@libmedia@5@ABUSFlags@95@@Z 004014b9 f i umodsys_lib_libmedia:umodsys.mod.media.std.obj
 0001:000004b9       ?obj_load@RLibraryObjCache@std@media@modules@UModSys@@UAE_NABU?$TString@U?$TSCoreConst@D@su@tl@UModSys@@U?$TComparerBinaryHash@D@234@@tl@5@PAUIRefObject@core@5@ABUSObjOptions@ILibrary@libmedia@5@@Z 004014b9 f i umodsys_lib_libmedia:umodsys.mod.media.std.obj
 0001:000004b9       ?bin_load@RLibraryObjFilter@std@media@modules@UModSys@@UAE_NABU?$TString@U?$TSCoreConst@D@su@tl@UModSys@@U?$TComparerBinaryHash@D@234@@tl@5@AAUSCMemShared@core@5@ABUSFlags@libmedia@5@@Z 004014b9 f i umodsys_lib_libmedia:umodsys.mod.media.std.obj
 0001:000004b9       ?obj_save@RLibraryBinTree@std@media@modules@UModSys@@UAE_NABU?$TString@U?$TSCoreConst@D@su@tl@UModSys@@U?$TComparerBinaryHash@D@234@@tl@5@PBUIRefObject@core@5@ABUSObjOptions@ILibrary@libmedia@5@@Z 004014b9 f i umodsys_lib_libmedia:umodsys.mod.media.std.obj
 0001:000004b9       ?bin_save@RLibraryObjFilter@std@media@modules@UModSys@@UAE_NABU?$TString@U?$TSCoreConst@D@su@tl@UModSys@@U?$TComparerBinaryHash@D@234@@tl@5@ABUSCMem@core@5@ABUSFlags@libmedia@5@@Z 004014b9 f i umodsys_lib_libmedia:umodsys.mod.media.std.obj
 0001:000004b9       ?obj_get@RLibraryObjFilter@std@media@modules@UModSys@@UAE_NABU?$TString@U?$TSCoreConst@D@su@tl@UModSys@@U?$TComparerBinaryHash@D@234@@tl@5@AAU?$TRefObject@UIRefObject@core@UModSys@@U?$TRefObjectFunc@UIRefObject@core@UModSys@@@tl@3@@75@ABUSObjOptions@ILibrary@libmedia@5@@Z 004014b9 f i umodsys_lib_libmedia:umodsys.mod.media.std.obj
 0001:000004b9       ?obj_save@RLibraryObjFilter@std@media@modules@UModSys@@UAE_NABU?$TString@U?$TSCoreConst@D@su@tl@UModSys@@U?$TComparerBinaryHash@D@234@@tl@5@PBUIRefObject@core@5@ABUSObjOptions@ILibrary@libmedia@5@@Z 004014b9 f i umodsys_lib_libmedia:umodsys.mod.media.std.obj
 0001:000004b9       ?obj_cget@RLibraryBinCache@std@media@modules@UModSys@@UAE_NABU?$TString@U?$TSCoreConst@D@su@tl@UModSys@@U?$TComparerBinaryHash@D@234@@tl@5@AAU?$TRefObject@UIRefObject@core@UModSys@@U?$TRefObjectFunc@UIRefObject@core@UModSys@@@tl@3@@75@_N@Z 004014b9 f i umodsys_lib_libmedia:umodsys.mod.media.std.obj
 0001:000004b9       ?obj_load@RLibraryBinTree@std@media@modules@UModSys@@UAE_NABU?$TString@U?$TSCoreConst@D@su@tl@UModSys@@U?$TComparerBinaryHash@D@234@@tl@5@PAUIRefObject@core@5@ABUSObjOptions@ILibrary@libmedia@5@@Z 004014b9 f i umodsys_lib_libmedia:umodsys.mod.media.std.obj
 0001:000004b9       ?obj_get@RLibraryBinTree@std@media@modules@UModSys@@UAE_NABU?$TString@U?$TSCoreConst@D@su@tl@UModSys@@U?$TComparerBinaryHash@D@234@@tl@5@AAU?$TRefObject@UIRefObject@core@UModSys@@U?$TRefObjectFunc@UIRefObject@core@UModSys@@@tl@3@@75@ABUSObjOptions@ILibrary@libmedia@5@@Z 004014b9 f i umodsys_lib_libmedia:umodsys.mod.media.std.obj
 0001:000004b9       ?obj_save@RLibraryObjCache@std@media@modules@UModSys@@UAE_NABU?$TString@U?$TSCoreConst@D@su@tl@UModSys@@U?$TComparerBinaryHash@D@234@@tl@5@PBUIRefObject@core@5@ABUSObjOptions@ILibrary@libmedia@5@@Z 004014b9 f i umodsys_lib_libmedia:umodsys.mod.media.std.obj
 0001:000004b9       ?obj_get@RLibraryBinCache@std@media@modules@UModSys@@UAE_NABU?$TString@U?$TSCoreConst@D@su@tl@UModSys@@U?$TComparerBinaryHash@D@234@@tl@5@AAU?$TRefObject@UIRefObject@core@UModSys@@U?$TRefObjectFunc@UIRefObject@core@UModSys@@@tl@3@@75@ABUSObjOptions@ILibrary@libmedia@5@@Z 004014b9 f i umodsys_lib_libmedia:umodsys.mod.media.std.obj
 0001:000004b9       ?obj_cget@RLibraryObjFilter@std@media@modules@UModSys@@UAE_NABU?$TString@U?$TSCoreConst@D@su@tl@UModSys@@U?$TComparerBinaryHash@D@234@@tl@5@AAU?$TRefObject@UIRefObject@core@UModSys@@U?$TRefObjectFunc@UIRefObject@core@UModSys@@@tl@3@@75@_N@Z 004014b9 f i umodsys_lib_libmedia:umodsys.mod.media.std.obj
 0001:000004b9       ?bin_info@RLibraryBinCache@std@media@modules@UModSys@@UAE_NABU?$TString@U?$TSCoreConst@D@su@tl@UModSys@@U?$TComparerBinaryHash@D@234@@tl@5@AAUSFileInfo@libmedia@5@ABUSFlags@95@@Z 004014b9 f i umodsys_lib_libmedia:umodsys.mod.media.std.obj
 0001:000004b9       ?obj_save@RLibraryBinCache@std@media@modules@UModSys@@UAE_NABU?$TString@U?$TSCoreConst@D@su@tl@UModSys@@U?$TComparerBinaryHash@D@234@@tl@5@PBUIRefObject@core@5@ABUSObjOptions@ILibrary@libmedia@5@@Z 004014b9 f i umodsys_lib_libmedia:umodsys.mod.media.std.obj
 0001:000004b9       ?obj_cget@RLibraryBinTree@std@media@modules@UModSys@@UAE_NABU?$TString@U?$TSCoreConst@D@su@tl@UModSys@@U?$TComparerBinaryHash@D@234@@tl@5@AAU?$TRefObject@UIRefObject@core@UModSys@@U?$TRefObjectFunc@UIRefObject@core@UModSys@@@tl@3@@75@_N@Z 004014b9 f i umodsys_lib_libmedia:umodsys.mod.media.std.obj
 0001:000004b9       ?bin_save@RLibraryObjCache@std@media@modules@UModSys@@UAE_NABU?$TString@U?$TSCoreConst@D@su@tl@UModSys@@U?$TComparerBinaryHash@D@234@@tl@5@ABUSCMem@core@5@ABUSFlags@libmedia@5@@Z 004014b9 f i umodsys_lib_libmedia:umodsys.mod.media.std.obj
 0001:000004b9       ?bin_get@RLibraryObjFilter@std@media@modules@UModSys@@UAE_NABU?$TString@U?$TSCoreConst@D@su@tl@UModSys@@U?$TComparerBinaryHash@D@234@@tl@5@AAUSCMemShared@core@5@_N@Z 004014b9 f i umodsys_lib_libmedia:umodsys.mod.media.std.obj
 0001:000004b9       ?bin_get@RLibraryObjCache@std@media@modules@UModSys@@UAE_NABU?$TString@U?$TSCoreConst@D@su@tl@UModSys@@U?$TComparerBinaryHash@D@234@@tl@5@AAUSCMemShared@core@5@_N@Z 004014b9 f i umodsys_lib_libmedia:umodsys.mod.media.std.obj
 0001:000004b9       ?bin_info@RLibraryObjFilter@std@media@modules@UModSys@@UAE_NABU?$TString@U?$TSCoreConst@D@su@tl@UModSys@@U?$TComparerBinaryHash@D@234@@tl@5@AAU?$TIStackSocket@USFileInfo@libmedia@UModSys@@@75@ABUSFlags@libmedia@5@@Z 004014b9 f i umodsys_lib_libmedia:umodsys.mod.media.std.obj
 0001:000004b9       ?obj_load@RLibraryBinCache@std@media@modules@UModSys@@UAE_NABU?$TString@U?$TSCoreConst@D@su@tl@UModSys@@U?$TComparerBinaryHash@D@234@@tl@5@PAUIRefObject@core@5@ABUSObjOptions@ILibrary@libmedia@5@@Z 004014b9 f i umodsys_lib_libmedia:umodsys.mod.media.std.obj
 0001:000004b9       ?obj_load@RLibraryObjFilter@std@media@modules@UModSys@@UAE_NABU?$TString@U?$TSCoreConst@D@su@tl@UModSys@@U?$TComparerBinaryHash@D@234@@tl@5@PAUIRefObject@core@5@ABUSObjOptions@ILibrary@libmedia@5@@Z 004014b9 f i umodsys_lib_libmedia:umodsys.mod.media.std.obj
 0001:000004b9       ?bin_info@RLibraryObjCache@std@media@modules@UModSys@@UAE_NABU?$TString@U?$TSCoreConst@D@su@tl@UModSys@@U?$TComparerBinaryHash@D@234@@tl@5@AAU?$TIStackSocket@USFileInfo@libmedia@UModSys@@@75@ABUSFlags@libmedia@5@@Z 004014b9 f i umodsys_lib_libmedia:umodsys.mod.media.std.obj
 0001:000004be       ?bincache_get@RLibraryBinCache@std@media@modules@UModSys@@UBE_NABU?$TString@U?$TSCoreConst@D@su@tl@UModSys@@U?$TComparerBinaryHash@D@234@@tl@5@PAUSCMemShared@core@5@PA_N@Z 004014be f i umodsys_lib_libmedia:umodsys.mod.media.std.obj
 0001:00000529       ?bincache_add@RLibraryBinCache@std@media@modules@UModSys@@UAE_NABU?$TString@U?$TSCoreConst@D@su@tl@UModSys@@U?$TComparerBinaryHash@D@234@@tl@5@@Z 00401529 f i umodsys_lib_libmedia:umodsys.mod.media.std.obj
 0001:00000557       ?bincache_add@RLibraryBinCache@std@media@modules@UModSys@@UAE_NABU?$TString@U?$TSCoreConst@D@su@tl@UModSys@@U?$TComparerBinaryHash@D@234@@tl@5@ABUSCMemShared@core@5@@Z 00401557 f i umodsys_lib_libmedia:umodsys.mod.media.std.obj
 0001:00000569       ?bincache_remove@RLibraryBinCache@std@media@modules@UModSys@@UAE_NABU?$TString@U?$TSCoreConst@D@su@tl@UModSys@@U?$TComparerBinaryHash@D@234@@tl@5@@Z 00401569 f i umodsys_lib_libmedia:umodsys.mod.media.std.obj
 0001:000005a0       ?bincache_clear@RLibraryBinCache@std@media@modules@UModSys@@UAE_NXZ 004015a0 f i umodsys_lib_libmedia:umodsys.mod.media.std.obj
 0001:000005be       ?bincache_add@RLibraryBinCache@std@media@modules@UModSys@@QAE_NABU?$TString@U?$TSCoreConst@D@su@tl@UModSys@@U?$TComparerBinaryHash@D@234@@tl@5@ABUSCMemShared@core@5@_N@Z 004015be f i umodsys_lib_libmedia:umodsys.mod.media.std.obj
 0001:0000067c       ??_GRLibraryBinCache@std@media@modules@UModSys@@UAEPAXI@Z 0040167c f i umodsys_lib_libmedia:umodsys.mod.media.std.obj
 0001:0000067c       ??_ERLibraryBinCache@std@media@modules@UModSys@@UAEPAXI@Z 0040167c f i  CIL library: CIL module
 0001:000006d9       ??_ERParameters@rsystem@base@UModSys@@UAEPAXI@Z 004016d9 f i  CIL library: CIL module
 0001:000006d9       ??_ERGenerator@std@media@modules@UModSys@@UAEPAXI@Z 004016d9 f i  CIL library: CIL module
 0001:000006d9       ??_ERGenerator@stdio@media@modules@UModSys@@UAEPAXI@Z 004016d9 f i  CIL library: CIL module
 0001:000006d9       ??_GIRoot@core@UModSys@@UAEPAXI@Z 004016d9 f i umodsys_lib_libmedia:umodsys.mod.media.std.obj
 0001:000006d9       ??_GRGenerator@stdio@media@modules@UModSys@@UAEPAXI@Z 004016d9 f i umodsys_lib_libmedia:umodsys.mod.media.stdio.obj
 0001:000006d9       ??_GRParameters@rsystem@base@UModSys@@UAEPAXI@Z 004016d9 f i umodsys_lib_basesys:umodsys.basesys.rparameters.obj
 0001:000006d9       ??_GRGenerator@std@media@modules@UModSys@@UAEPAXI@Z 004016d9 f i umodsys_lib_libmedia:umodsys.mod.media.std.obj
 0001:000006d9       ??_EIRoot@core@UModSys@@UAEPAXI@Z 004016d9 f i  CIL library: CIL module
 0001:000006f6       ?root_get_interface_info@RLibraryBinTree@std@media@modules@UModSys@@UBEABUSUniquePointerInfo@core@5@XZ 004016f6 f i umodsys_lib_libmedia:umodsys.mod.media.std.obj
 0001:000006fc       ?root_get_interface_type@RLibraryBinTree@std@media@modules@UModSys@@UBEPBUSUniquePointerInfo@core@5@XZ 004016fc f i umodsys_lib_libmedia:umodsys.mod.media.std.obj
 0001:00000702       ?root_get_other_interface@RLibraryBinTree@std@media@modules@UModSys@@UAEPAUIRoot@core@5@PBUSUniquePointerInfo@75@@Z 00401702 f i umodsys_lib_libmedia:umodsys.mod.media.std.obj
 0001:00000702       ?root_get_other_interface@RLibraryBinTree@std@media@modules@UModSys@@UBEPBUIRoot@core@5@PBUSUniquePointerInfo@75@@Z 00401702 f i umodsys_lib_libmedia:umodsys.mod.media.std.obj
 0001:0000072b       ?root_is_interface_supported@RLibraryBinTree@std@media@modules@UModSys@@UBE_NPBUSUniquePointerInfo@core@5@@Z 0040172b f i umodsys_lib_libmedia:umodsys.mod.media.std.obj
 0001:00000752       ?ref_add@RLibraryLayered@std@media@modules@UModSys@@UBEXXZ 00401752 f i umodsys_lib_libmedia:umodsys.mod.media.std.obj
 0001:00000752       ?ref_add@RLibraryBinTree@std@media@modules@UModSys@@UBEXXZ 00401752 f i umodsys_lib_libmedia:umodsys.mod.media.std.obj
 0001:00000752       ?ref_add@RLibraryObjFilter@std@media@modules@UModSys@@UBEXXZ 00401752 f i umodsys_lib_libmedia:umodsys.mod.media.std.obj
 0001:00000752       ?ref_add@RDataArchiver_OsDir@stdio@media@modules@UModSys@@UBEXXZ 00401752 f i umodsys_lib_libmedia:umodsys.mod.media.stdio.obj
 0001:00000752       ?ref_add@RLibraryBinCache@std@media@modules@UModSys@@UBEXXZ 00401752 f i umodsys_lib_libmedia:umodsys.mod.media.std.obj
 0001:00000752       ?ref_add@RLibraryObjCache@std@media@modules@UModSys@@UBEXXZ 00401752 f i umodsys_lib_libmedia:umodsys.mod.media.std.obj
 0001:00000756       ??0RLibraryBinTree@std@media@modules@UModSys@@QAE@PAUIModObject@base@4@ABUSParameters@core@4@U?$TFlags4State@USMediaFlagUid@libmedia@UModSys@@I@tl@4@@Z 00401756 f i umodsys_lib_libmedia:umodsys.mod.media.std.obj
 0001:000007b3       ?get_flag@RLibraryBinCache@std@media@modules@UModSys@@UBE?AW4eStates@?$TFlags4State@USMediaFlagUid@libmedia@UModSys@@I@tl@5@H@Z 004017b3 f i umodsys_lib_libmedia:umodsys.mod.media.std.obj
 0001:000007b3       ?get_flag@RLibraryBinTree@std@media@modules@UModSys@@UBE?AW4eStates@?$TFlags4State@USMediaFlagUid@libmedia@UModSys@@I@tl@5@H@Z 004017b3 f i umodsys_lib_libmedia:umodsys.mod.media.std.obj
 0001:000007b3       ?get_flag@RLibraryObjCache@std@media@modules@UModSys@@UBE?AW4eStates@?$TFlags4State@USMediaFlagUid@libmedia@UModSys@@I@tl@5@H@Z 004017b3 f i umodsys_lib_libmedia:umodsys.mod.media.std.obj
 0001:000007b3       ?get_flag@RLibraryObjFilter@std@media@modules@UModSys@@UBE?AW4eStates@?$TFlags4State@USMediaFlagUid@libmedia@UModSys@@I@tl@5@H@Z 004017b3 f i umodsys_lib_libmedia:umodsys.mod.media.std.obj
 0001:000007c6       ?get_flags_auto@RLibraryBinTree@std@media@modules@UModSys@@UBE?AU?$TFlags4State@USMediaFlagUid@libmedia@UModSys@@I@tl@5@XZ 004017c6 f i umodsys_lib_libmedia:umodsys.mod.media.std.obj
 0001:000007d5       ?set_flag@RLibraryBinCache@std@media@modules@UModSys@@UAE?AW4eStates@?$TFlags4State@USMediaFlagUid@libmedia@UModSys@@I@tl@5@HW46785@@Z 004017d5 f i umodsys_lib_libmedia:umodsys.mod.media.std.obj
 0001:000007d5       ?set_flag@RLibraryObjCache@std@media@modules@UModSys@@UAE?AW4eStates@?$TFlags4State@USMediaFlagUid@libmedia@UModSys@@I@tl@5@HW46785@@Z 004017d5 f i umodsys_lib_libmedia:umodsys.mod.media.std.obj
 0001:000007d5       ?set_flag@RLibraryBinTree@std@media@modules@UModSys@@UAE?AW4eStates@?$TFlags4State@USMediaFlagUid@libmedia@UModSys@@I@tl@5@HW46785@@Z 004017d5 f i umodsys_lib_libmedia:umodsys.mod.media.std.obj
 0001:000007d5       ?set_flag@RLibraryObjFilter@std@media@modules@UModSys@@UAE?AW4eStates@?$TFlags4State@USMediaFlagUid@libmedia@UModSys@@I@tl@5@HW46785@@Z 004017d5 f i umodsys_lib_libmedia:umodsys.mod.media.std.obj
 0001:00000802       ?bin_reader@RLibraryBinTree@std@media@modules@UModSys@@UAE?AU?$TRefObject@UIStreamReader@libmedia@UModSys@@U?$TRefObjectFunc@UIStreamReader@libmedia@UModSys@@@tl@3@@tl@5@ABU?$TString@U?$TSCoreConst@D@su@tl@UModSys@@U?$TComparerBinaryHash@D@234@@75@ABUSFlags@libmedia@5@@Z 00401802 f i umodsys_lib_libmedia:umodsys.mod.media.std.obj
 0001:000008f3       ?bin_writer@RLibraryBinTree@std@media@modules@UModSys@@UAE?AU?$TRefObject@UIStreamWriter@libmedia@UModSys@@U?$TRefObjectFunc@UIStreamWriter@libmedia@UModSys@@@tl@3@@tl@5@ABU?$TString@U?$TSCoreConst@D@su@tl@UModSys@@U?$TComparerBinaryHash@D@234@@75@ABUSFlags@libmedia@5@@Z 004018f3 f i umodsys_lib_libmedia:umodsys.mod.media.std.obj
 0001:000009e4       ?bin_load@RLibraryBinTree@std@media@modules@UModSys@@UAE_NABU?$TString@U?$TSCoreConst@D@su@tl@UModSys@@U?$TComparerBinaryHash@D@234@@tl@5@AAUSCMemShared@core@5@ABUSFlags@libmedia@5@@Z 004019e4 f i umodsys_lib_libmedia:umodsys.mod.media.std.obj
 0001:00000a94       ?bin_save@RLibraryBinTree@std@media@modules@UModSys@@UAE_NABU?$TString@U?$TSCoreConst@D@su@tl@UModSys@@U?$TComparerBinaryHash@D@234@@tl@5@ABUSCMem@core@5@ABUSFlags@libmedia@5@@Z 00401a94 f i umodsys_lib_libmedia:umodsys.mod.media.std.obj
 0001:00000b3a       ?mount_get@RLibraryBinTree@std@media@modules@UModSys@@UBE?AUSPoint@ILibraryBinTree@libmedia@5@ABUSId@785@@Z 00401b3a f i umodsys_lib_libmedia:umodsys.mod.media.std.obj
 0001:00000b89       ?mount_add@RLibraryBinTree@std@media@modules@UModSys@@UAE_NABUSId@ILibraryBinTree@libmedia@5@ABUSPoint@785@@Z 00401b89 f i umodsys_lib_libmedia:umodsys.mod.media.std.obj
 0001:00000c61       ?mount_remove@RLibraryBinTree@std@media@modules@UModSys@@UAE_NABUSId@ILibraryBinTree@libmedia@5@@Z 00401c61 f i umodsys_lib_libmedia:umodsys.mod.media.std.obj
 0001:00000c98       ?mount_clear@RLibraryBinTree@std@media@modules@UModSys@@UAE_NXZ 00401c98 f i umodsys_lib_libmedia:umodsys.mod.media.std.obj
 0001:00000cb6       ??_ERLibraryBinTree@std@media@modules@UModSys@@UAEPAXI@Z 00401cb6 f i  CIL library: CIL module
 0001:00000cb6       ??_GRLibraryBinTree@std@media@modules@UModSys@@UAEPAXI@Z 00401cb6 f i umodsys_lib_libmedia:umodsys.mod.media.std.obj
 0001:00000d13       ?root_get_interface_info@RLibraryLayered@std@media@modules@UModSys@@UBEABUSUniquePointerInfo@core@5@XZ 00401d13 f i umodsys_lib_libmedia:umodsys.mod.media.std.obj
 0001:00000d19       ?root_get_interface_type@RLibraryLayered@std@media@modules@UModSys@@UBEPBUSUniquePointerInfo@core@5@XZ 00401d19 f i umodsys_lib_libmedia:umodsys.mod.media.std.obj
 0001:00000d1f       ?root_get_other_interface@RLibraryLayered@std@media@modules@UModSys@@UAEPAUIRoot@core@5@PBUSUniquePointerInfo@75@@Z 00401d1f f i umodsys_lib_libmedia:umodsys.mod.media.std.obj
 0001:00000d1f       ?root_get_other_interface@RLibraryLayered@std@media@modules@UModSys@@UBEPBUIRoot@core@5@PBUSUniquePointerInfo@75@@Z 00401d1f f i umodsys_lib_libmedia:umodsys.mod.media.std.obj
 0001:00000d48       ?root_is_interface_supported@RLibraryLayered@std@media@modules@UModSys@@UBE_NPBUSUniquePointerInfo@core@5@@Z 00401d48 f i umodsys_lib_libmedia:umodsys.mod.media.std.obj
 0001:00000d6f       ?ref_links@RDataArchiver_OsDir@stdio@media@modules@UModSys@@UBEHXZ 00401d6f f i umodsys_lib_libmedia:umodsys.mod.media.stdio.obj
 0001:00000d6f       ?ref_links@RLibraryBinTree@std@media@modules@UModSys@@UBEHXZ 00401d6f f i umodsys_lib_libmedia:umodsys.mod.media.std.obj
 0001:00000d6f       ?ref_links@RLibraryBinCache@std@media@modules@UModSys@@UBEHXZ 00401d6f f i umodsys_lib_libmedia:umodsys.mod.media.std.obj
 0001:00000d6f       ?ref_links@RLibraryObjFilter@std@media@modules@UModSys@@UBEHXZ 00401d6f f i umodsys_lib_libmedia:umodsys.mod.media.std.obj
 0001:00000d6f       ?ref_links@RLibraryObjCache@std@media@modules@UModSys@@UBEHXZ 00401d6f f i umodsys_lib_libmedia:umodsys.mod.media.std.obj
 0001:00000d6f       ?ref_links@RLibraryLayered@std@media@modules@UModSys@@UBEHXZ 00401d6f f i umodsys_lib_libmedia:umodsys.mod.media.std.obj
 0001:00000d73       ??4SLayerX@RLibraryLayered@std@media@modules@UModSys@@QAEXABUSLayer@ILibraryLayered@libmedia@5@@Z 00401d73 f i umodsys_lib_libmedia:umodsys.mod.media.std.obj
 0001:00000dd3       ??0RLibraryLayered@std@media@modules@UModSys@@QAE@PAUIModObject@base@4@ABUSParameters@core@4@U?$TFlags4State@USMediaFlagUid@libmedia@UModSys@@I@tl@4@@Z 00401dd3 f i umodsys_lib_libmedia:umodsys.mod.media.std.obj
 0001:00000e41       ?get_flag@RLibraryLayered@std@media@modules@UModSys@@UBE?AW4eStates@?$TFlags4State@USMediaFlagUid@libmedia@UModSys@@I@tl@5@H@Z 00401e41 f i umodsys_lib_libmedia:umodsys.mod.media.std.obj
 0001:00000e54       ?get_flags_auto@RLibraryLayered@std@media@modules@UModSys@@UBE?AU?$TFlags4State@USMediaFlagUid@libmedia@UModSys@@I@tl@5@XZ 00401e54 f i umodsys_lib_libmedia:umodsys.mod.media.std.obj
 0001:00000e63       ?set_flag@RLibraryLayered@std@media@modules@UModSys@@UAE?AW4eStates@?$TFlags4State@USMediaFlagUid@libmedia@UModSys@@I@tl@5@HW46785@@Z 00401e63 f i umodsys_lib_libmedia:umodsys.mod.media.std.obj
 0001:00000e90       ?bin_reader@RLibraryLayered@std@media@modules@UModSys@@UAE?AU?$TRefObject@UIStreamReader@libmedia@UModSys@@U?$TRefObjectFunc@UIStreamReader@libmedia@UModSys@@@tl@3@@tl@5@ABU?$TString@U?$TSCoreConst@D@su@tl@UModSys@@U?$TComparerBinaryHash@D@234@@75@ABUSFlags@libmedia@5@@Z 00401e90 f i umodsys_lib_libmedia:umodsys.mod.media.std.obj
 0001:00000f41       ?bin_writer@RLibraryLayered@std@media@modules@UModSys@@UAE?AU?$TRefObject@UIStreamWriter@libmedia@UModSys@@U?$TRefObjectFunc@UIStreamWriter@libmedia@UModSys@@@tl@3@@tl@5@ABU?$TString@U?$TSCoreConst@D@su@tl@UModSys@@U?$TComparerBinaryHash@D@234@@75@ABUSFlags@libmedia@5@@Z 00401f41 f i umodsys_lib_libmedia:umodsys.mod.media.std.obj
 0001:00000ff2       ?bin_load@RLibraryLayered@std@media@modules@UModSys@@UAE_NABU?$TString@U?$TSCoreConst@D@su@tl@UModSys@@U?$TComparerBinaryHash@D@234@@tl@5@AAUSCMemShared@core@5@ABUSFlags@libmedia@5@@Z 00401ff2 f i umodsys_lib_libmedia:umodsys.mod.media.std.obj
 0001:000010fd       ?bin_save@RLibraryLayered@std@media@modules@UModSys@@UAE_NABU?$TString@U?$TSCoreConst@D@su@tl@UModSys@@U?$TComparerBinaryHash@D@234@@tl@5@ABUSCMem@core@5@ABUSFlags@libmedia@5@@Z 004020fd f i umodsys_lib_libmedia:umodsys.mod.media.std.obj
 0001:0000121c       ?bin_info@RLibraryLayered@std@media@modules@UModSys@@UAE_NABU?$TString@U?$TSCoreConst@D@su@tl@UModSys@@U?$TComparerBinaryHash@D@234@@tl@5@AAUSFileInfo@libmedia@5@ABUSFlags@95@@Z 0040221c f i umodsys_lib_libmedia:umodsys.mod.media.std.obj
 0001:0000128c       ?bin_info@RLibraryLayered@std@media@modules@UModSys@@UAE_NABU?$TString@U?$TSCoreConst@D@su@tl@UModSys@@U?$TComparerBinaryHash@D@234@@tl@5@AAU?$TIStackSocket@USFileInfo@libmedia@UModSys@@@75@ABUSFlags@libmedia@5@@Z 0040228c f i umodsys_lib_libmedia:umodsys.mod.media.std.obj
 0001:00001302       ?bin_get@RLibraryLayered@std@media@modules@UModSys@@UAE_NABU?$TString@U?$TSCoreConst@D@su@tl@UModSys@@U?$TComparerBinaryHash@D@234@@tl@5@AAUSCMemShared@core@5@_N@Z 00402302 f i umodsys_lib_libmedia:umodsys.mod.media.std.obj
 0001:00001344       ?bin_put@RLibraryLayered@std@media@modules@UModSys@@UAE_NABU?$TString@U?$TSCoreConst@D@su@tl@UModSys@@U?$TComparerBinaryHash@D@234@@tl@5@PBUSCMemShared@core@5@@Z 00402344 f i umodsys_lib_libmedia:umodsys.mod.media.std.obj
 0001:00001382       ?obj_fget@RLibraryLayered@std@media@modules@UModSys@@UAE_NABUSInfo@IBinObjFilter@libmedia@5@AAU?$TRefObject@UIRefObject@core@UModSys@@U?$TRefObjectFunc@UIRefObject@core@UModSys@@@tl@3@@tl@5@@Z 00402382 f i umodsys_lib_libmedia:umodsys.mod.media.std.obj
 0001:000013c0       ?obj_fload@RLibraryLayered@std@media@modules@UModSys@@UAE_NABUSInfo@IBinObjFilter@libmedia@5@PAUIRefObject@core@5@@Z 004023c0 f i umodsys_lib_libmedia:umodsys.mod.media.std.obj
 0001:000013fe       ?obj_fsave@RLibraryLayered@std@media@modules@UModSys@@UAE_NAAUSInfo@IBinObjFilter@libmedia@5@PBUIRefObject@core@5@@Z 004023fe f i umodsys_lib_libmedia:umodsys.mod.media.std.obj
 0001:0000143c       ?obj_cget@RLibraryLayered@std@media@modules@UModSys@@UAE_NABU?$TString@U?$TSCoreConst@D@su@tl@UModSys@@U?$TComparerBinaryHash@D@234@@tl@5@AAU?$TRefObject@UIRefObject@core@UModSys@@U?$TRefObjectFunc@UIRefObject@core@UModSys@@@tl@3@@75@_N@Z 0040243c f i umodsys_lib_libmedia:umodsys.mod.media.std.obj
 0001:0000147e       ?obj_cput@RLibraryLayered@std@media@modules@UModSys@@UAE_NABU?$TString@U?$TSCoreConst@D@su@tl@UModSys@@U?$TComparerBinaryHash@D@234@@tl@5@PAUIRefObject@core@5@@Z 0040247e f i umodsys_lib_libmedia:umodsys.mod.media.std.obj
 0001:000014bc       ?obj_get@RLibraryLayered@std@media@modules@UModSys@@UAE_NABU?$TString@U?$TSCoreConst@D@su@tl@UModSys@@U?$TComparerBinaryHash@D@234@@tl@5@AAU?$TRefObject@UIRefObject@core@UModSys@@U?$TRefObjectFunc@UIRefObject@core@UModSys@@@tl@3@@75@ABUSObjOptions@ILibrary@libmedia@5@@Z 004024bc f i umodsys_lib_libmedia:umodsys.mod.media.std.obj
 0001:0000164a       ?obj_load@RLibraryLayered@std@media@modules@UModSys@@UAE_NABU?$TString@U?$TSCoreConst@D@su@tl@UModSys@@U?$TComparerBinaryHash@D@234@@tl@5@PAUIRefObject@core@5@ABUSObjOptions@ILibrary@libmedia@5@@Z 0040264a f i umodsys_lib_libmedia:umodsys.mod.media.std.obj
 0001:0000174b       ?obj_save@RLibraryLayered@std@media@modules@UModSys@@UAE_NABU?$TString@U?$TSCoreConst@D@su@tl@UModSys@@U?$TComparerBinaryHash@D@234@@tl@5@PBUIRefObject@core@5@ABUSObjOptions@ILibrary@libmedia@5@@Z 0040274b f i umodsys_lib_libmedia:umodsys.mod.media.std.obj
 0001:00001871       ?layer_count@RLibraryLayered@std@media@modules@UModSys@@UBEIABUSLayer@ILibraryLayered@libmedia@5@@Z 00402871 f i umodsys_lib_libmedia:umodsys.mod.media.std.obj
 0001:00001877       ?layer_get@RLibraryLayered@std@media@modules@UModSys@@UBE?AUSLayer@ILibraryLayered@libmedia@5@I@Z 00402877 f i umodsys_lib_libmedia:umodsys.mod.media.std.obj
 0001:0000189a       ?layer_find@RLibraryLayered@std@media@modules@UModSys@@UBEIABU?$TString@U?$TSCoreConst@D@su@tl@UModSys@@U?$TComparerBinaryHash@D@234@@tl@5@I@Z 0040289a f i umodsys_lib_libmedia:umodsys.mod.media.std.obj
 0001:000018e2       ?layer_insert@RLibraryLayered@std@media@modules@UModSys@@UAE_NABUSLayer@ILibraryLayered@libmedia@5@I@Z 004028e2 f i umodsys_lib_libmedia:umodsys.mod.media.std.obj
 0001:0000195a       ?layer_remove@RLibraryLayered@std@media@modules@UModSys@@UAE_NI@Z 0040295a f i umodsys_lib_libmedia:umodsys.mod.media.std.obj
 0001:000019a4       ?layer_clear@RLibraryLayered@std@media@modules@UModSys@@UAE_NXZ 004029a4 f i umodsys_lib_libmedia:umodsys.mod.media.std.obj
 0001:000019ae       ??_ERLibraryLayered@std@media@modules@UModSys@@UAEPAXI@Z 004029ae f i  CIL library: CIL module
 0001:000019ae       ??_GRLibraryLayered@std@media@modules@UModSys@@UAEPAXI@Z 004029ae f i umodsys_lib_libmedia:umodsys.mod.media.std.obj
 0001:000019e2       ??0SLayer@ILibraryLayered@libmedia@UModSys@@QAE@ABU0123@@Z 004029e2 f i umodsys_lib_libmedia:umodsys.mod.media.std.obj
 0001:00001a0e       ?root_get_interface_info@RLibraryObjCache@std@media@modules@UModSys@@UBEABUSUniquePointerInfo@core@5@XZ 00402a0e f i umodsys_lib_libmedia:umodsys.mod.media.std.obj
 0001:00001a14       ?root_get_interface_type@RLibraryObjCache@std@media@modules@UModSys@@UBEPBUSUniquePointerInfo@core@5@XZ 00402a14 f i umodsys_lib_libmedia:umodsys.mod.media.std.obj
 0001:00001a1a       ?root_get_other_interface@RLibraryObjCache@std@media@modules@UModSys@@UBEPBUIRoot@core@5@PBUSUniquePointerInfo@75@@Z 00402a1a f i umodsys_lib_libmedia:umodsys.mod.media.std.obj
 0001:00001a1a       ?root_get_other_interface@RLibraryObjCache@std@media@modules@UModSys@@UAEPAUIRoot@core@5@PBUSUniquePointerInfo@75@@Z 00402a1a f i umodsys_lib_libmedia:umodsys.mod.media.std.obj
 0001:00001a43       ?root_is_interface_supported@RLibraryObjCache@std@media@modules@UModSys@@UBE_NPBUSUniquePointerInfo@core@5@@Z 00402a43 f i umodsys_lib_libmedia:umodsys.mod.media.std.obj
 0001:00001a6a       ?ref_weak@RLibraryBinCache@std@media@modules@UModSys@@UBE_NAAUWeakPointer@IRefObject@core@5@@Z 00402a6a f i umodsys_lib_libmedia:umodsys.mod.media.std.obj
 0001:00001a6a       ?ref_weak@RLibraryBinTree@std@media@modules@UModSys@@UBE_NAAUWeakPointer@IRefObject@core@5@@Z 00402a6a f i umodsys_lib_libmedia:umodsys.mod.media.std.obj
 0001:00001a6a       ?ref_weak@RLibraryLayered@std@media@modules@UModSys@@UBE_NAAUWeakPointer@IRefObject@core@5@@Z 00402a6a f i umodsys_lib_libmedia:umodsys.mod.media.std.obj
 0001:00001a6a       ?ref_weak@RLibraryObjCache@std@media@modules@UModSys@@UBE_NAAUWeakPointer@IRefObject@core@5@@Z 00402a6a f i umodsys_lib_libmedia:umodsys.mod.media.std.obj
 0001:00001a6a       ?ref_weak@RDataArchiver_OsDir@stdio@media@modules@UModSys@@UBE_NAAUWeakPointer@IRefObject@core@5@@Z 00402a6a f i umodsys_lib_libmedia:umodsys.mod.media.stdio.obj
 0001:00001a6a       ?ref_weak@RLibraryObjFilter@std@media@modules@UModSys@@UBE_NAAUWeakPointer@IRefObject@core@5@@Z 00402a6a f i umodsys_lib_libmedia:umodsys.mod.media.std.obj
 0001:00001a89       ??0RLibraryObjCache@std@media@modules@UModSys@@QAE@PAUIModObject@base@4@ABUSParameters@core@4@U?$TFlags4State@USMediaFlagUid@libmedia@UModSys@@I@tl@4@@Z 00402a89 f i umodsys_lib_libmedia:umodsys.mod.media.std.obj
 0001:00001ae6       ?get_flags_auto@RLibraryObjCache@std@media@modules@UModSys@@UBE?AU?$TFlags4State@USMediaFlagUid@libmedia@UModSys@@I@tl@5@XZ 00402ae6 f i umodsys_lib_libmedia:umodsys.mod.media.std.obj
 0001:00001af5       ?bin_writer@RLibraryObjCache@std@media@modules@UModSys@@UAE?AU?$TRefObject@UIStreamWriter@libmedia@UModSys@@U?$TRefObjectFunc@UIStreamWriter@libmedia@UModSys@@@tl@3@@tl@5@ABU?$TString@U?$TSCoreConst@D@su@tl@UModSys@@U?$TComparerBinaryHash@D@234@@75@ABUSFlags@libmedia@5@@Z 00402af5 f i umodsys_lib_libmedia:umodsys.mod.media.std.obj
 0001:00001af5       ?bin_reader@RLibraryObjCache@std@media@modules@UModSys@@UAE?AU?$TRefObject@UIStreamReader@libmedia@UModSys@@U?$TRefObjectFunc@UIStreamReader@libmedia@UModSys@@@tl@3@@tl@5@ABU?$TString@U?$TSCoreConst@D@su@tl@UModSys@@U?$TComparerBinaryHash@D@234@@75@ABUSFlags@libmedia@5@@Z 00402af5 f i umodsys_lib_libmedia:umodsys.mod.media.std.obj
 0001:00001af5       ?bin_writer@RLibraryObjFilter@std@media@modules@UModSys@@UAE?AU?$TRefObject@UIStreamWriter@libmedia@UModSys@@U?$TRefObjectFunc@UIStreamWriter@libmedia@UModSys@@@tl@3@@tl@5@ABU?$TString@U?$TSCoreConst@D@su@tl@UModSys@@U?$TComparerBinaryHash@D@234@@75@ABUSFlags@libmedia@5@@Z 00402af5 f i umodsys_lib_libmedia:umodsys.mod.media.std.obj
 0001:00001af5       ?bin_reader@RLibraryBinCache@std@media@modules@UModSys@@UAE?AU?$TRefObject@UIStreamReader@libmedia@UModSys@@U?$TRefObjectFunc@UIStreamReader@libmedia@UModSys@@@tl@3@@tl@5@ABU?$TString@U?$TSCoreConst@D@su@tl@UModSys@@U?$TComparerBinaryHash@D@234@@75@ABUSFlags@libmedia@5@@Z 00402af5 f i umodsys_lib_libmedia:umodsys.mod.media.std.obj
 0001:00001af5       ?bin_reader@RLibraryObjFilter@std@media@modules@UModSys@@UAE?AU?$TRefObject@UIStreamReader@libmedia@UModSys@@U?$TRefObjectFunc@UIStreamReader@libmedia@UModSys@@@tl@3@@tl@5@ABU?$TString@U?$TSCoreConst@D@su@tl@UModSys@@U?$TComparerBinaryHash@D@234@@75@ABUSFlags@libmedia@5@@Z 00402af5 f i umodsys_lib_libmedia:umodsys.mod.media.std.obj
 0001:00001af5       ?bin_writer@RLibraryBinCache@std@media@modules@UModSys@@UAE?AU?$TRefObject@UIStreamWriter@libmedia@UModSys@@U?$TRefObjectFunc@UIStreamWriter@libmedia@UModSys@@@tl@3@@tl@5@ABU?$TString@U?$TSCoreConst@D@su@tl@UModSys@@U?$TComparerBinaryHash@D@234@@75@ABUSFlags@libmedia@5@@Z 00402af5 f i umodsys_lib_libmedia:umodsys.mod.media.std.obj
 0001:00001b07       ?obj_fload@RLibraryBinTree@std@media@modules@UModSys@@UAE_NABUSInfo@IBinObjFilter@libmedia@5@PAUIRefObject@core@5@@Z 00402b07 f i umodsys_lib_libmedia:umodsys.mod.media.std.obj
 0001:00001b07       ?obj_cput@RLibraryBinTree@std@media@modules@UModSys@@UAE_NABU?$TString@U?$TSCoreConst@D@su@tl@UModSys@@U?$TComparerBinaryHash@D@234@@tl@5@PAUIRefObject@core@5@@Z 00402b07 f i umodsys_lib_libmedia:umodsys.mod.media.std.obj
 0001:00001b07       ?obj_fget@RLibraryBinTree@std@media@modules@UModSys@@UAE_NABUSInfo@IBinObjFilter@libmedia@5@AAU?$TRefObject@UIRefObject@core@UModSys@@U?$TRefObjectFunc@UIRefObject@core@UModSys@@@tl@3@@tl@5@@Z 00402b07 f i umodsys_lib_libmedia:umodsys.mod.media.std.obj
 0001:00001b07       ?obj_fsave@RLibraryBinCache@std@media@modules@UModSys@@UAE_NAAUSInfo@IBinObjFilter@libmedia@5@PBUIRefObject@core@5@@Z 00402b07 f i umodsys_lib_libmedia:umodsys.mod.media.std.obj
 0001:00001b07       ?obj_cput@RLibraryObjFilter@std@media@modules@UModSys@@UAE_NABU?$TString@U?$TSCoreConst@D@su@tl@UModSys@@U?$TComparerBinaryHash@D@234@@tl@5@PAUIRefObject@core@5@@Z 00402b07 f i umodsys_lib_libmedia:umodsys.mod.media.std.obj
 0001:00001b07       ?obj_fsave@RLibraryObjCache@std@media@modules@UModSys@@UAE_NAAUSInfo@IBinObjFilter@libmedia@5@PBUIRefObject@core@5@@Z 00402b07 f i umodsys_lib_libmedia:umodsys.mod.media.std.obj
 0001:00001b07       ?obj_cput@RLibraryBinCache@std@media@modules@UModSys@@UAE_NABU?$TString@U?$TSCoreConst@D@su@tl@UModSys@@U?$TComparerBinaryHash@D@234@@tl@5@PAUIRefObject@core@5@@Z 00402b07 f i umodsys_lib_libmedia:umodsys.mod.media.std.obj
 0001:00001b07       ?obj_fload@RLibraryObjCache@std@media@modules@UModSys@@UAE_NABUSInfo@IBinObjFilter@libmedia@5@PAUIRefObject@core@5@@Z 00402b07 f i umodsys_lib_libmedia:umodsys.mod.media.std.obj
 0001:00001b07       ?bin_put@RLibraryObjFilter@std@media@modules@UModSys@@UAE_NABU?$TString@U?$TSCoreConst@D@su@tl@UModSys@@U?$TComparerBinaryHash@D@234@@tl@5@PBUSCMemShared@core@5@@Z 00402b07 f i umodsys_lib_libmedia:umodsys.mod.media.std.obj
 0001:00001b07       ?obj_fget@RLibraryBinCache@std@media@modules@UModSys@@UAE_NABUSInfo@IBinObjFilter@libmedia@5@AAU?$TRefObject@UIRefObject@core@UModSys@@U?$TRefObjectFunc@UIRefObject@core@UModSys@@@tl@3@@tl@5@@Z 00402b07 f i umodsys_lib_libmedia:umodsys.mod.media.std.obj
 0001:00001b07       ?obj_fload@RLibraryBinCache@std@media@modules@UModSys@@UAE_NABUSInfo@IBinObjFilter@libmedia@5@PAUIRefObject@core@5@@Z 00402b07 f i umodsys_lib_libmedia:umodsys.mod.media.std.obj
 0001:00001b07       ?bin_put@RLibraryObjCache@std@media@modules@UModSys@@UAE_NABU?$TString@U?$TSCoreConst@D@su@tl@UModSys@@U?$TComparerBinaryHash@D@234@@tl@5@PBUSCMemShared@core@5@@Z 00402b07 f i umodsys_lib_libmedia:umodsys.mod.media.std.obj
 0001:00001b07       ?bin_put@RLibraryBinTree@std@media@modules@UModSys@@UAE_NABU?$TString@U?$TSCoreConst@D@su@tl@UModSys@@U?$TComparerBinaryHash@D@234@@tl@5@PBUSCMemShared@core@5@@Z 00402b07 f i umodsys_lib_libmedia:umodsys.mod.media.std.obj
 0001:00001b07       ?obj_fget@RLibraryObjCache@std@media@modules@UModSys@@UAE_NABUSInfo@IBinObjFilter@libmedia@5@AAU?$TRefObject@UIRefObject@core@UModSys@@U?$TRefObjectFunc@UIRefObject@core@UModSys@@@tl@3@@tl@5@@Z 00402b07 f i umodsys_lib_libmedia:umodsys.mod.media.std.obj
 0001:00001b07       ?obj_fsave@RLibraryBinTree@std@media@modules@UModSys@@UAE_NAAUSInfo@IBinObjFilter@libmedia@5@PBUIRefObject@core@5@@Z 00402b07 f i umodsys_lib_libmedia:umodsys.mod.media.std.obj
 0001:00001b0c       ?obj_cput@RLibraryObjCache@std@media@modules@UModSys@@UAE_NABU?$TString@U?$TSCoreConst@D@su@tl@UModSys@@U?$TComparerBinaryHash@D@234@@tl@5@PAUIRefObject@core@5@@Z 00402b0c f i umodsys_lib_libmedia:umodsys.mod.media.std.obj
 0001:00001b11       ?obj_get@RLibraryObjCache@std@media@modules@UModSys@@UAE_NABU?$TString@U?$TSCoreConst@D@su@tl@UModSys@@U?$TComparerBinaryHash@D@234@@tl@5@AAU?$TRefObject@UIRefObject@core@UModSys@@U?$TRefObjectFunc@UIRefObject@core@UModSys@@@tl@3@@75@ABUSObjOptions@ILibrary@libmedia@5@@Z 00402b11 f i umodsys_lib_libmedia:umodsys.mod.media.std.obj
 0001:00001b97       ?objcache_get@RLibraryObjCache@std@media@modules@UModSys@@UBE_NABU?$TString@U?$TSCoreConst@D@su@tl@UModSys@@U?$TComparerBinaryHash@D@234@@tl@5@PAU?$TRefObject@UIRefObject@core@UModSys@@U?$TRefObjectFunc@UIRefObject@core@UModSys@@@tl@3@@75@PA_N@Z 00402b97 f i umodsys_lib_libmedia:umodsys.mod.media.std.obj
 0001:00001c03       ?objcache_add@RLibraryObjCache@std@media@modules@UModSys@@UAE_NABU?$TString@U?$TSCoreConst@D@su@tl@UModSys@@U?$TComparerBinaryHash@D@234@@tl@5@PAUIRefObject@core@5@@Z 00402c03 f i umodsys_lib_libmedia:umodsys.mod.media.std.obj
 0001:00001caf       ?objcache_remove@RLibraryObjCache@std@media@modules@UModSys@@UAE_NABU?$TString@U?$TSCoreConst@D@su@tl@UModSys@@U?$TComparerBinaryHash@D@234@@tl@5@@Z 00402caf f i umodsys_lib_libmedia:umodsys.mod.media.std.obj
 0001:00001ce6       ?objcache_clear@RLibraryObjCache@std@media@modules@UModSys@@UAE_NXZ 00402ce6 f i umodsys_lib_libmedia:umodsys.mod.media.std.obj
 0001:00001d04       ??_GRLibraryObjCache@std@media@modules@UModSys@@UAEPAXI@Z 00402d04 f i umodsys_lib_libmedia:umodsys.mod.media.std.obj
 0001:00001d04       ??_ERLibraryObjCache@std@media@modules@UModSys@@UAEPAXI@Z 00402d04 f i  CIL library: CIL module
 0001:00001d61       ?root_get_interface_info@RLibraryObjFilter@std@media@modules@UModSys@@UBEABUSUniquePointerInfo@core@5@XZ 00402d61 f i umodsys_lib_libmedia:umodsys.mod.media.std.obj
 0001:00001d67       ?root_get_interface_type@RLibraryObjFilter@std@media@modules@UModSys@@UBEPBUSUniquePointerInfo@core@5@XZ 00402d67 f i umodsys_lib_libmedia:umodsys.mod.media.std.obj
 0001:00001d6d       ?root_get_other_interface@RLibraryObjFilter@std@media@modules@UModSys@@UAEPAUIRoot@core@5@PBUSUniquePointerInfo@75@@Z 00402d6d f i umodsys_lib_libmedia:umodsys.mod.media.std.obj
 0001:00001d6d       ?root_get_other_interface@RLibraryObjFilter@std@media@modules@UModSys@@UBEPBUIRoot@core@5@PBUSUniquePointerInfo@75@@Z 00402d6d f i umodsys_lib_libmedia:umodsys.mod.media.std.obj
 0001:00001d96       ?root_is_interface_supported@RLibraryObjFilter@std@media@modules@UModSys@@UBE_NPBUSUniquePointerInfo@core@5@@Z 00402d96 f i umodsys_lib_libmedia:umodsys.mod.media.std.obj
 0001:00001dbd       ?ref_remove@RLibraryBinCache@std@media@modules@UModSys@@UBEXXZ 00402dbd f i umodsys_lib_libmedia:umodsys.mod.media.std.obj
 0001:00001dbd       ?ref_remove@RLibraryLayered@std@media@modules@UModSys@@UBEXXZ 00402dbd f i umodsys_lib_libmedia:umodsys.mod.media.std.obj
 0001:00001dbd       ?ref_remove@RLibraryObjCache@std@media@modules@UModSys@@UBEXXZ 00402dbd f i umodsys_lib_libmedia:umodsys.mod.media.std.obj
 0001:00001dbd       ?ref_remove@RLibraryObjFilter@std@media@modules@UModSys@@UBEXXZ 00402dbd f i umodsys_lib_libmedia:umodsys.mod.media.std.obj
 0001:00001dbd       ?ref_remove@RLibraryBinTree@std@media@modules@UModSys@@UBEXXZ 00402dbd f i umodsys_lib_libmedia:umodsys.mod.media.std.obj
 0001:00001dbd       ?ref_remove@RDataArchiver_OsDir@stdio@media@modules@UModSys@@UBEXXZ 00402dbd f i umodsys_lib_libmedia:umodsys.mod.media.stdio.obj
 0001:00001dc8       ?suicide@RLibraryObjCache@std@media@modules@UModSys@@UAEXXZ 00402dc8 f i umodsys_lib_libmedia:umodsys.mod.media.std.obj
 0001:00001dc8       ?suicide@RDataArchiver_OsDir@stdio@media@modules@UModSys@@UAEXXZ 00402dc8 f i umodsys_lib_libmedia:umodsys.mod.media.stdio.obj
 0001:00001dc8       ?suicide@RLibraryBinTree@std@media@modules@UModSys@@UAEXXZ 00402dc8 f i umodsys_lib_libmedia:umodsys.mod.media.std.obj
 0001:00001dc8       ?suicide@RLibraryLayered@std@media@modules@UModSys@@UAEXXZ 00402dc8 f i umodsys_lib_libmedia:umodsys.mod.media.std.obj
 0001:00001dc8       ?suicide@RLibraryBinCache@std@media@modules@UModSys@@UAEXXZ 00402dc8 f i umodsys_lib_libmedia:umodsys.mod.media.std.obj
 0001:00001dc8       ?suicide@RLibraryObjFilter@std@media@modules@UModSys@@UAEXXZ 00402dc8 f i umodsys_lib_libmedia:umodsys.mod.media.std.obj
 0001:00001e0f       ??0RLibraryObjFilter@std@media@modules@UModSys@@QAE@PAUIModObject@base@4@ABUSParameters@core@4@U?$TFlags4State@USMediaFlagUid@libmedia@UModSys@@I@tl@4@@Z 00402e0f f i umodsys_lib_libmedia:umodsys.mod.media.std.obj
 0001:00001e6c       ?get_flags_auto@RLibraryObjFilter@std@media@modules@UModSys@@UBE?AU?$TFlags4State@USMediaFlagUid@libmedia@UModSys@@I@tl@5@XZ 00402e6c f i umodsys_lib_libmedia:umodsys.mod.media.std.obj
 0001:00001e7b       ?obj_fget@RLibraryObjFilter@std@media@modules@UModSys@@UAE_NABUSInfo@IBinObjFilter@libmedia@5@AAU?$TRefObject@UIRefObject@core@UModSys@@U?$TRefObjectFunc@UIRefObject@core@UModSys@@@tl@3@@tl@5@@Z 00402e7b f i umodsys_lib_libmedia:umodsys.mod.media.std.obj
 0001:00001e83       ?obj_fload@RLibraryObjFilter@std@media@modules@UModSys@@UAE_NABUSInfo@IBinObjFilter@libmedia@5@PAUIRefObject@core@5@@Z 00402e83 f i umodsys_lib_libmedia:umodsys.mod.media.std.obj
 0001:00001e88       ?obj_fsave@RLibraryObjFilter@std@media@modules@UModSys@@UAE_NAAUSInfo@IBinObjFilter@libmedia@5@PBUIRefObject@core@5@@Z 00402e88 f i umodsys_lib_libmedia:umodsys.mod.media.std.obj
 0001:00001e90       ?filters_add@RLibraryObjFilter@std@media@modules@UModSys@@UAE_NU?$TRefObject@UIBinObjFilter@libmedia@UModSys@@U?$TRefObjectFunc@UIBinObjFilter@libmedia@UModSys@@@tl@3@@tl@5@PBUSParameters@core@5@H@Z 00402e90 f i umodsys_lib_libmedia:umodsys.mod.media.std.obj
 0001:00001f2c       ?filters_remove@RLibraryObjFilter@std@media@modules@UModSys@@UAE_NPAUIBinObjFilter@libmedia@5@H@Z 00402f2c f i umodsys_lib_libmedia:umodsys.mod.media.std.obj
 0001:00001f7c       ?filters_clear@RLibraryObjFilter@std@media@modules@UModSys@@UAE_NXZ 00402f7c f i umodsys_lib_libmedia:umodsys.mod.media.std.obj
 0001:00001f9a       ?filters_load@RLibraryObjFilter@std@media@modules@UModSys@@UAE_NABUSInfo@IBinObjFilter@libmedia@5@AAU?$TRefObject@UIRefObject@core@UModSys@@U?$TRefObjectFunc@UIRefObject@core@UModSys@@@tl@3@@tl@5@@Z 00402f9a f i umodsys_lib_libmedia:umodsys.mod.media.std.obj
 0001:00001ff7       ?filters_load@RLibraryObjFilter@std@media@modules@UModSys@@UAE_NABUSInfo@IBinObjFilter@libmedia@5@PAUIRefObject@core@5@@Z 00402ff7 f i umodsys_lib_libmedia:umodsys.mod.media.std.obj
 0001:00002054       ?filters_save@RLibraryObjFilter@std@media@modules@UModSys@@UAE_NAAUSInfo@IBinObjFilter@libmedia@5@PBUIRefObject@core@5@@Z 00403054 f i umodsys_lib_libmedia:umodsys.mod.media.std.obj
 0001:000020b1       ??_GRLibraryObjFilter@std@media@modules@UModSys@@UAEPAXI@Z 004030b1 f i umodsys_lib_libmedia:umodsys.mod.media.std.obj
 0001:000020b1       ??_ERLibraryObjFilter@std@media@modules@UModSys@@UAEPAXI@Z 004030b1 f i  CIL library: CIL module
 0001:0000210e       ?get_generated_names@RGenerator@std@media@modules@UModSys@@UBEHAAUSUniquePtrList@core@5@@Z 0040310e f i umodsys_lib_libmedia:umodsys.mod.media.std.obj
 0001:00002156       ?get_generated_types@RGenerator@std@media@modules@UModSys@@UBEHAAUSUniquePtrList@core@5@PBUSUniquePointerInfo@75@@Z 00403156 f i umodsys_lib_libmedia:umodsys.mod.media.std.obj
 0001:000021fa       ?generate@RGenerator@std@media@modules@UModSys@@UAE_NAAU?$TRefObject@UIRefObject@core@UModSys@@U?$TRefObjectFunc@UIRefObject@core@UModSys@@@tl@3@@tl@5@PBUSUniquePointerInfo@core@5@ABUSParameters@95@@Z 004031fa f i umodsys_lib_libmedia:umodsys.mod.media.std.obj
 0001:0000229d       ?root_get_interface_info@RGenerator@std@media@modules@UModSys@@UBEABUSUniquePointerInfo@core@5@XZ 0040329d f i umodsys_lib_libmedia:umodsys.mod.media.std.obj
 0001:000022a3       ?root_get_interface_type@RGenerator@std@media@modules@UModSys@@UBEPBUSUniquePointerInfo@core@5@XZ 004032a3 f i umodsys_lib_libmedia:umodsys.mod.media.std.obj
 0001:000022a9       ?root_get_other_interface@RGenerator@std@media@modules@UModSys@@UAEPAUIRoot@core@5@PBUSUniquePointerInfo@75@@Z 004032a9 f i umodsys_lib_libmedia:umodsys.mod.media.std.obj
 0001:000022a9       ?root_get_other_interface@RGenerator@std@media@modules@UModSys@@UBEPBUIRoot@core@5@PBUSUniquePointerInfo@75@@Z 004032a9 f i umodsys_lib_libmedia:umodsys.mod.media.std.obj
 0001:000022d2       ?root_is_interface_supported@RGenerator@std@media@modules@UModSys@@UBE_NPBUSUniquePointerInfo@core@5@@Z 004032d2 f i umodsys_lib_libmedia:umodsys.mod.media.std.obj
 0001:000022f1       ?ref_links@RGenerator@std@media@modules@UModSys@@UBEHXZ 004032f1 f i umodsys_lib_libmedia:umodsys.mod.media.std.obj
 0001:000022f1       ?ref_links@RStreamWriter_FILE@stdio@media@modules@UModSys@@UBEHXZ 004032f1 f i umodsys_lib_libmedia:umodsys.mod.media.stdio.obj
 0001:000022f1       ?get_system@IModuleLibraryUni@rsystem@base@UModSys@@UBEPAUISystem@34@XZ 004032f1 f i umodsys_lib_basesys:umodsys.basesys.rmodulelib.obj
 0001:000022f1       ?ref_links@RGenerator@stdio@media@modules@UModSys@@UBEHXZ 004032f1 f i umodsys_lib_libmedia:umodsys.mod.media.stdio.obj
 0001:000022f1       ?ref_links@RStreamReader_FILE@stdio@media@modules@UModSys@@UBEHXZ 004032f1 f i umodsys_lib_libmedia:umodsys.mod.media.stdio.obj
 0001:000022f5       ?ref_add@RConsole_std@rsystem@base@UModSys@@UBEXXZ 004032f5 f i umodsys_lib_basesys:umodsys.basesys.rconsole_std.obj
 0001:000022f5       ?ref_remove@RConsole_std@rsystem@base@UModSys@@UBEXXZ 004032f5 f i umodsys_lib_basesys:umodsys.basesys.rconsole_std.obj
 0001:000022f5       ?suicide@RGenerator@std@media@modules@UModSys@@UAEXXZ 004032f5 f i umodsys_lib_libmedia:umodsys.mod.media.std.obj
 0001:000022f5       ??3@YAXPAX0@Z              004032f5 f i umodsys_lib_libmedia:umodsys.mod.media.std.obj
 0001:000022f5       ?suicide@RGenerator@stdio@media@modules@UModSys@@UAEXXZ 004032f5 f i umodsys_lib_libmedia:umodsys.mod.media.stdio.obj
 0001:000022f6       ?get_uid@RGenerator@std@media@modules@UModSys@@UBEPBUSUniquePointerInfo@core@5@XZ 004032f6 f i umodsys_lib_libmedia:umodsys.mod.media.std.obj
 0001:000022fc       ?do_open@RModuleReg@std@media@modules@UModSys@@UAE_NXZ 004032fc f i umodsys_lib_libmedia:umodsys.mod.media.std.obj
 0001:0000234a       ?do_close@RModuleReg@std@media@modules@UModSys@@UAE_NXZ 0040334a f i umodsys_lib_libmedia:umodsys.mod.media.std.obj
 0001:00002385       ?get_module@RGenerator@std@media@modules@UModSys@@UBEPAUIModule@base@5@XZ 00403385 f   umodsys_lib_libmedia:umodsys.mod.media.std.obj
 0001:0000238b       ?mod_inc@RGenerator@std@media@modules@UModSys@@UBE_NXZ 0040338b f   umodsys_lib_libmedia:umodsys.mod.media.std.obj
 0001:00002396       ?mod_dec@RGenerator@std@media@modules@UModSys@@UBE_NXZ 00403396 f   umodsys_lib_libmedia:umodsys.mod.media.std.obj
 0001:000023a1       ?s_holder@RGenerator@std@media@modules@UModSys@@SAAAU?$TTypeStaticHolder@URGenerator@std@media@modules@UModSys@@@tl@5@XZ 004033a1 f   umodsys_lib_libmedia:umodsys.mod.media.std.obj
 0001:000023d3       ??0?$TString@U?$TSCoreShared@USIMemAlloc@core@UModSys@@D@su@tl@UModSys@@U?$TComparerBinaryHash@D@234@@tl@UModSys@@QAE@ABU?$TSCoreConst@D@su@12@@Z 004033d3 f i umodsys_lib_libmedia:umodsys.mod.media.std.obj
 0001:00002413       ??4?$TString@U?$TSCoreShared@USIMemAlloc@core@UModSys@@D@su@tl@UModSys@@U?$TComparerBinaryHash@D@234@@tl@UModSys@@QAEABU012@ABU012@@Z 00403413 f i umodsys_lib_libmedia:umodsys.mod.media.std.obj
 0001:00002434       ??1?$TSCoreShared@USIMemAlloc@core@UModSys@@D@su@tl@UModSys@@QAE@XZ 00403434 f i umodsys_lib_libmedia:umodsys.mod.media.std.obj
 0001:00002434       ??1?$TString@U?$TSCoreShared@USIMemAlloc@core@UModSys@@D@su@tl@UModSys@@U?$TComparerBinaryHash@D@234@@tl@UModSys@@QAE@XZ 00403434 f i umodsys_lib_libmedia:umodsys.mod.media.std.obj
 0001:00002439       ??4?$TRefObject@UIRefObject@core@UModSys@@U?$TRefObjectFunc@UIRefObject@core@UModSys@@@tl@3@@tl@UModSys@@QAEABU012@PAUIRefObject@core@2@@Z 00403439 f i umodsys_lib_libmedia:umodsys.mod.media.std.obj
 0001:00002454       ??R?$TScatterArray@USFilter@RLibraryObjFilter@std@media@modules@UModSys@@USId@23456@U723456@U?$TNodeDeleter0@U?$TScatterArrayNode@USFilter@RLibraryObjFilter@std@media@modules@UModSys@@USId@23456@@tl@UModSys@@@tl@6@@tl@UModSys@@QAEPAUSFilter@RLibraryObjFilter@std@media@modules@2@ABUSId@45672@PAUVoid@core@2@@Z 00403454 f i umodsys_lib_libmedia:umodsys.mod.media.std.obj
 0001:000024b7       ??E?$TTreeIterRB@$$CBU?$TScatterArrayNode@USFilter@RLibraryObjFilter@std@media@modules@UModSys@@USId@23456@@tl@UModSys@@$$CBU?$TPair@USId@RLibraryObjFilter@std@media@modules@UModSys@@USFilter@23456@@23@@tl@UModSys@@QAE?AU012@XZ 004034b7 f i umodsys_lib_libmedia:umodsys.mod.media.std.obj
 0001:000024b7       ??E?$TTreeIterRB@$$CBU?$TScatterArrayNode@USMountInfo@RLibraryBinTree@std@media@modules@UModSys@@USId@ILibraryBinTree@libmedia@6@@tl@UModSys@@$$CBU?$TPair@USId@ILibraryBinTree@libmedia@UModSys@@USMountInfo@RLibraryBinTree@std@media@modules@4@@23@@tl@UModSys@@QAE?AU012@XZ 004034b7 f i umodsys_lib_libmedia:umodsys.mod.media.std.obj
 0001:000024e1       ??1?$TDynarray@U?$TDynarrayHolderDynamic@USLayerX@RLibraryLayered@std@media@modules@UModSys@@U?$TAllocator@USIMemAlloc@core@UModSys@@USCountCalcPower2@23@@tl@6@@tl@UModSys@@@tl@UModSys@@QAE@XZ 004034e1 f i umodsys_lib_libmedia:umodsys.mod.media.std.obj
 0001:00002521       ?Resize@?$TDynarray@U?$TDynarrayHolderDynamic@USLayerX@RLibraryLayered@std@media@modules@UModSys@@U?$TAllocator@USIMemAlloc@core@UModSys@@USCountCalcPower2@23@@tl@6@@tl@UModSys@@@tl@UModSys@@QAE_NI@Z 00403521 f i umodsys_lib_libmedia:umodsys.mod.media.std.obj
 0001:00002589       ?set@?$TSCoreShared@USIMemAlloc@core@UModSys@@D@su@tl@UModSys@@QAEXPBD@Z 00403589 f i umodsys_lib_libmedia:umodsys.mod.media.std.obj
 0001:000025b8       ?remove_node@?$TTreeHoldRB@U?$TScatterArrayNode@USCacheElem@RLibraryBinCache@std@media@modules@UModSys@@U?$TString@U?$TSCoreConst@D@su@tl@UModSys@@U?$TComparerBinaryHash@D@234@@tl@6@@tl@UModSys@@@tl@UModSys@@QAEXPAU?$TScatterArrayNode@USCacheElem@RLibraryBinCache@std@media@modules@UModSys@@U?$TString@U?$TSCoreConst@D@su@tl@UModSys@@U?$TComparerBinaryHash@D@234@@tl@6@@23@@Z 004035b8 f i umodsys_lib_libmedia:umodsys.mod.media.std.obj
 0001:000025b8       ?remove_node@?$TTreeHoldRB@U?$TScatterArrayNode@USCacheElem@RLibraryObjCache@std@media@modules@UModSys@@U?$TString@U?$TSCoreConst@D@su@tl@UModSys@@U?$TComparerBinaryHash@D@234@@tl@6@@tl@UModSys@@@tl@UModSys@@QAEXPAU?$TScatterArrayNode@USCacheElem@RLibraryObjCache@std@media@modules@UModSys@@U?$TString@U?$TSCoreConst@D@su@tl@UModSys@@U?$TComparerBinaryHash@D@234@@tl@6@@23@@Z 004035b8 f i umodsys_lib_libmedia:umodsys.mod.media.std.obj
 0001:000025b8       ?remove_node@?$TTreeHoldRB@U?$TScatterArrayNode@USMountInfo@RLibraryBinTree@std@media@modules@UModSys@@USId@ILibraryBinTree@libmedia@6@@tl@UModSys@@@tl@UModSys@@QAEXPAU?$TScatterArrayNode@USMountInfo@RLibraryBinTree@std@media@modules@UModSys@@USId@ILibraryBinTree@libmedia@6@@23@@Z 004035b8 f i umodsys_lib_libmedia:umodsys.mod.media.std.obj
 0001:000025b8       ?remove_node@?$TTreeHoldRB@U?$TScatterArrayNode@USFilter@RLibraryObjFilter@std@media@modules@UModSys@@USId@23456@@tl@UModSys@@@tl@UModSys@@QAEXPAU?$TScatterArrayNode@USFilter@RLibraryObjFilter@std@media@modules@UModSys@@USId@23456@@23@@Z 004035b8 f i umodsys_lib_libmedia:umodsys.mod.media.std.obj
 0001:00002695       ?set@?$TSCoreShared@USIMemAlloc@core@UModSys@@D@su@tl@UModSys@@QAEXPBDI@Z 00403695 f i umodsys_lib_libmedia:umodsys.mod.media.std.obj
 0001:000026f2       ??1?$TPair@U?$TString@U?$TSCoreConst@D@su@tl@UModSys@@U?$TComparerBinaryHash@D@234@@tl@UModSys@@USCacheElem@RLibraryBinCache@std@media@modules@3@@tl@UModSys@@QAE@XZ 004036f2 f i umodsys_lib_libmedia:umodsys.mod.media.std.obj
 0001:000026fc       ??1?$TPair@USId@ILibraryBinTree@libmedia@UModSys@@USMountInfo@RLibraryBinTree@std@media@modules@4@@tl@UModSys@@QAE@XZ 004036fc f i umodsys_lib_libmedia:umodsys.mod.media.std.obj
 0001:00002706       ??1?$TPair@U?$TString@U?$TSCoreConst@D@su@tl@UModSys@@U?$TComparerBinaryHash@D@234@@tl@UModSys@@USCacheElem@RLibraryObjCache@std@media@modules@3@@tl@UModSys@@QAE@XZ 00403706 f i umodsys_lib_libmedia:umodsys.mod.media.std.obj
 0001:00002710       ??1?$TPair@USId@RLibraryObjFilter@std@media@modules@UModSys@@USFilter@23456@@tl@UModSys@@QAE@XZ 00403710 f i umodsys_lib_libmedia:umodsys.mod.media.std.obj
 0001:00002721       ??1SCacheElem@RLibraryBinCache@std@media@modules@UModSys@@QAE@XZ 00403721 f i umodsys_lib_libmedia:umodsys.mod.media.std.obj
 0001:00002757       ??1SMountInfo@RLibraryBinTree@std@media@modules@UModSys@@QAE@XZ 00403757 f i umodsys_lib_libmedia:umodsys.mod.media.std.obj
 0001:00002796       ??1SCacheElem@RLibraryObjCache@std@media@modules@UModSys@@QAE@XZ 00403796 f i umodsys_lib_libmedia:umodsys.mod.media.std.obj
 0001:000027d0       ??$?8U?$TSCoreConst@D@su@tl@UModSys@@U?$TComparerBinaryHash@D@123@@?$TString@U?$TSCoreConst@D@su@tl@UModSys@@U?$TComparerBinaryHash@D@234@@tl@UModSys@@QBE_NABU012@@Z 004037d0 f i umodsys_lib_libmedia:umodsys.mod.media.std.obj
 0001:0000280b       ?info_release@?$TSCoreShared@USIMemAlloc@core@UModSys@@D@su@tl@UModSys@@QAEXXZ 0040380b f i umodsys_lib_libmedia:umodsys.mod.media.std.obj
 0001:0000283b       ??$compare@U?$TSCoreConst@D@su@tl@UModSys@@@?$TString@U?$TSCoreConst@D@su@tl@UModSys@@U?$TComparerBinaryHash@D@234@@tl@UModSys@@QBEHABU012@@Z 0040383b f i umodsys_lib_libmedia:umodsys.mod.media.std.obj
 0001:00002896       ??$yes@U?$TFlags4StateShift@USMediaFlagUid@libmedia@UModSys@@I$00@tl@UModSys@@@SFlags@libmedia@UModSys@@QBE_NPBUIResolverAuto@012@@Z 00403896 f i umodsys_lib_libmedia:umodsys.mod.media.std.obj
 0001:000028e7       ??$yes@U?$TFlags4StateShift@USMediaFlagUid@libmedia@UModSys@@I$02@tl@UModSys@@@SFlags@libmedia@UModSys@@QBE_NPBUIResolverAuto@012@@Z 004038e7 f i umodsys_lib_libmedia:umodsys.mod.media.std.obj
 0001:00002938       ?remove_color@?$TTreeHoldRB@U?$TScatterArrayNode@USMountInfo@RLibraryBinTree@std@media@modules@UModSys@@USId@ILibraryBinTree@libmedia@6@@tl@UModSys@@@tl@UModSys@@IAEXPAU?$TScatterArrayNode@USMountInfo@RLibraryBinTree@std@media@modules@UModSys@@USId@ILibraryBinTree@libmedia@6@@23@0@Z 00403938 f i umodsys_lib_libmedia:umodsys.mod.media.std.obj
 0001:00002938       ?remove_color@?$TTreeHoldRB@U?$TScatterArrayNode@USFilter@RLibraryObjFilter@std@media@modules@UModSys@@USId@23456@@tl@UModSys@@@tl@UModSys@@IAEXPAU?$TScatterArrayNode@USFilter@RLibraryObjFilter@std@media@modules@UModSys@@USId@23456@@23@0@Z 00403938 f i umodsys_lib_libmedia:umodsys.mod.media.std.obj
 0001:00002938       ?remove_color@?$TTreeHoldRB@U?$TScatterArrayNode@USCacheElem@RLibraryObjCache@std@media@modules@UModSys@@U?$TString@U?$TSCoreConst@D@su@tl@UModSys@@U?$TComparerBinaryHash@D@234@@tl@6@@tl@UModSys@@@tl@UModSys@@IAEXPAU?$TScatterArrayNode@USCacheElem@RLibraryObjCache@std@media@modules@UModSys@@U?$TString@U?$TSCoreConst@D@su@tl@UModSys@@U?$TComparerBinaryHash@D@234@@tl@6@@23@0@Z 00403938 f i umodsys_lib_libmedia:umodsys.mod.media.std.obj
 0001:00002938       ?remove_color@?$TTreeHoldRB@U?$TScatterArrayNode@USCacheElem@RLibraryBinCache@std@media@modules@UModSys@@U?$TString@U?$TSCoreConst@D@su@tl@UModSys@@U?$TComparerBinaryHash@D@234@@tl@6@@tl@UModSys@@@tl@UModSys@@IAEXPAU?$TScatterArrayNode@USCacheElem@RLibraryBinCache@std@media@modules@UModSys@@U?$TString@U?$TSCoreConst@D@su@tl@UModSys@@U?$TComparerBinaryHash@D@234@@tl@6@@23@0@Z 00403938 f i umodsys_lib_libmedia:umodsys.mod.media.std.obj
 0001:00002a3a       ??$yes@U?$TFlags4StateShift@USMediaFlagUid@libmedia@UModSys@@I$03@tl@UModSys@@@SFlags@libmedia@UModSys@@QBE_NPBUIResolverAuto@012@@Z 00403a3a f i umodsys_lib_libmedia:umodsys.mod.media.std.obj
 0001:00002a8b       ??$yes@U?$TFlags4StateShift@USMediaFlagUid@libmedia@UModSys@@I$01@tl@UModSys@@@SFlags@libmedia@UModSys@@QBE_NPBUIResolverAuto@012@@Z 00403a8b f i umodsys_lib_libmedia:umodsys.mod.media.std.obj
 0001:00002adc       ??$yes@U?$TFlags4StateShift@USMediaFlagUid@libmedia@UModSys@@I$05@tl@UModSys@@@SFlags@libmedia@UModSys@@QBE_NPBUIResolverAuto@012@@Z 00403adc f i umodsys_lib_libmedia:umodsys.mod.media.std.obj
 0001:00002b2d       ??$yes@U?$TFlags4StateShift@USMediaFlagUid@libmedia@UModSys@@I$07@tl@UModSys@@@SFlags@libmedia@UModSys@@QBE_NPBUIResolverAuto@012@@Z 00403b2d f i umodsys_lib_libmedia:umodsys.mod.media.std.obj
 0001:00002b7c       ??$yes@U?$TFlags4StateShift@USMediaFlagUid@libmedia@UModSys@@I$06@tl@UModSys@@@SFlags@libmedia@UModSys@@QBE_NPBUIResolverAuto@012@@Z 00403b7c f i umodsys_lib_libmedia:umodsys.mod.media.std.obj
 0001:00002bcd       ??$yes@U?$TFlags4StateShift@USMediaFlagUid@libmedia@UModSys@@I$08@tl@UModSys@@@SFlags@libmedia@UModSys@@QBE_NPBUIResolverAuto@012@@Z 00403bcd f i umodsys_lib_libmedia:umodsys.mod.media.std.obj
 0001:00002c1e       ??$t_gen_param@URLibraryBinCache@std@media@modules@UModSys@@URGenerator@2345@@IGenerator@base@UModSys@@IAE_NPAURGenerator@std@media@modules@2@AAU?$TRefObject@UIRefObject@core@UModSys@@U?$TRefObjectFunc@UIRefObject@core@UModSys@@@tl@3@@tl@2@PBUSUniquePointerInfo@core@2@ABUSParameters@core@2@@Z 00403c1e f i umodsys_lib_libmedia:umodsys.mod.media.std.obj
 0001:00002c9b       ??$t_gen_param@URLibraryBinTree@std@media@modules@UModSys@@URGenerator@2345@@IGenerator@base@UModSys@@IAE_NPAURGenerator@std@media@modules@2@AAU?$TRefObject@UIRefObject@core@UModSys@@U?$TRefObjectFunc@UIRefObject@core@UModSys@@@tl@3@@tl@2@PBUSUniquePointerInfo@core@2@ABUSParameters@core@2@@Z 00403c9b f i umodsys_lib_libmedia:umodsys.mod.media.std.obj
 0001:00002d18       ??$t_gen_param@URLibraryLayered@std@media@modules@UModSys@@URGenerator@2345@@IGenerator@base@UModSys@@IAE_NPAURGenerator@std@media@modules@2@AAU?$TRefObject@UIRefObject@core@UModSys@@U?$TRefObjectFunc@UIRefObject@core@UModSys@@@tl@3@@tl@2@PBUSUniquePointerInfo@core@2@ABUSParameters@core@2@@Z 00403d18 f i umodsys_lib_libmedia:umodsys.mod.media.std.obj
 0001:00002d95       ??$t_gen_param@URLibraryObjFilter@std@media@modules@UModSys@@URGenerator@2345@@IGenerator@base@UModSys@@IAE_NPAURGenerator@std@media@modules@2@AAU?$TRefObject@UIRefObject@core@UModSys@@U?$TRefObjectFunc@UIRefObject@core@UModSys@@@tl@3@@tl@2@PBUSUniquePointerInfo@core@2@ABUSParameters@core@2@@Z 00403d95 f i umodsys_lib_libmedia:umodsys.mod.media.std.obj
 0001:00002e12       ??$t_gen_param@URLibraryObjCache@std@media@modules@UModSys@@URGenerator@2345@@IGenerator@base@UModSys@@IAE_NPAURGenerator@std@media@modules@2@AAU?$TRefObject@UIRefObject@core@UModSys@@U?$TRefObjectFunc@UIRefObject@core@UModSys@@@tl@3@@tl@2@PBUSUniquePointerInfo@core@2@ABUSParameters@core@2@@Z 00403e12 f i umodsys_lib_libmedia:umodsys.mod.media.std.obj
 0001:00002e8f       ??$genx_node@UCmp@?$TScatterArray@USCacheElem@RLibraryBinCache@std@media@modules@UModSys@@U?$TString@U?$TSCoreConst@D@su@tl@UModSys@@U?$TComparerBinaryHash@D@234@@tl@6@U?$TObjectCompare@U?$TString@U?$TSCoreConst@D@su@tl@UModSys@@U?$TComparerBinaryHash@D@234@@tl@UModSys@@@core@6@U?$TNodeDeleter0@U?$TScatterArrayNode@USCacheElem@RLibraryBinCache@std@media@modules@UModSys@@U?$TString@U?$TSCoreConst@D@su@tl@UModSys@@U?$TComparerBinaryHash@D@234@@tl@6@@tl@UModSys@@@86@@tl@UModSys@@UGen0@234@@?$TTreeHoldRBD@U?$TScatterArrayNode@USCacheElem@RLibraryBinCache@std@media@modules@UModSys@@U?$TString@U?$TSCoreConst@D@su@tl@UModSys@@U?$TComparerBinaryHash@D@234@@tl@6@@tl@UModSys@@U?$TNodeDeleter0@U?$TScatterArrayNode@USCacheElem@RLibraryBinCache@std@media@modules@UModSys@@U?$TString@U?$TSCoreConst@D@su@tl@UModSys@@U?$TComparerBinaryHash@D@234@@tl@6@@tl@UModSys@@@23@@tl@UModSys@@QAEPAU?$TScatterArrayNode@USCacheElem@RLibraryBinCache@std@media@modules@UModSys@@U?$TString@U?$TSCoreConst@D@su@tl@UModSys@@U?$TComparerBinaryHash@D@234@@tl@6@@12@UCmp@?$TScatterArray@USCacheElem@RLibraryBinCache@std@media@modules@UModSys@@U?$TString@U?$TSCoreConst@D@su@tl@UModSys@@U?$TComparerBinaryHash@D@234@@tl@6@U?$TObjectCompare@U?$TString@U?$TSCoreConst@D@su@tl@UModSys@@U?$TComparerBinaryHash@D@234@@tl@UModSys@@@core@6@U?$TNodeDeleter0@U?$TScatterArrayNode@USCacheElem@RLibraryBinCache@std@media@modules@UModSys@@U?$TString@U?$TSCoreConst@D@su@tl@UModSys@@U?$TComparerBinaryHash@D@234@@tl@6@@tl@UModSys@@@86@@12@ABUGen0@512@PAPAU312@2_N@Z 00403e8f f i umodsys_lib_libmedia:umodsys.mod.media.std.obj
 0001:00002f0e       ??$find_node_u@UCmp@?$TScatterArray@USCacheElem@RLibraryBinCache@std@media@modules@UModSys@@U?$TString@U?$TSCoreConst@D@su@tl@UModSys@@U?$TComparerBinaryHash@D@234@@tl@6@U?$TObjectCompare@U?$TString@U?$TSCoreConst@D@su@tl@UModSys@@U?$TComparerBinaryHash@D@234@@tl@UModSys@@@core@6@U?$TNodeDeleter0@U?$TScatterArrayNode@USCacheElem@RLibraryBinCache@std@media@modules@UModSys@@U?$TString@U?$TSCoreConst@D@su@tl@UModSys@@U?$TComparerBinaryHash@D@234@@tl@6@@tl@UModSys@@@86@@tl@UModSys@@@?$TTreeHoldRB@U?$TScatterArrayNode@USCacheElem@RLibraryBinCache@std@media@modules@UModSys@@U?$TString@U?$TSCoreConst@D@su@tl@UModSys@@U?$TComparerBinaryHash@D@234@@tl@6@@tl@UModSys@@@tl@UModSys@@QBEPAU?$TScatterArrayNode@USCacheElem@RLibraryBinCache@std@media@modules@UModSys@@U?$TString@U?$TSCoreConst@D@su@tl@UModSys@@U?$TComparerBinaryHash@D@234@@tl@6@@12@UCmp@?$TScatterArray@USCacheElem@RLibraryBinCache@std@media@modules@UModSys@@U?$TString@U?$TSCoreConst@D@su@tl@UModSys@@U?$TComparerBinaryHash@D@234@@tl@6@U?$TObjectCompare@U?$TString@U?$TSCoreConst@D@su@tl@UModSys@@U?$TComparerBinaryHash@D@234@@tl@UModSys@@@core@6@U?$TNodeDeleter0@U?$TScatterArrayNode@USCacheElem@RLibraryBinCache@std@media@modules@UModSys@@U?$TString@U?$TSCoreConst@D@su@tl@UModSys@@U?$TComparerBinaryHash@D@234@@tl@6@@tl@UModSys@@@86@@12@@Z 00403f0e f i umodsys_lib_libmedia:umodsys.mod.media.std.obj
 0001:00002f0e       ??$find_node_u@UCmp@?$TScatterArray@USCacheElem@RLibraryObjCache@std@media@modules@UModSys@@U?$TString@U?$TSCoreConst@D@su@tl@UModSys@@U?$TComparerBinaryHash@D@234@@tl@6@U?$TObjectCompare@U?$TString@U?$TSCoreConst@D@su@tl@UModSys@@U?$TComparerBinaryHash@D@234@@tl@UModSys@@@core@6@U?$TNodeDeleter0@U?$TScatterArrayNode@USCacheElem@RLibraryObjCache@std@media@modules@UModSys@@U?$TString@U?$TSCoreConst@D@su@tl@UModSys@@U?$TComparerBinaryHash@D@234@@tl@6@@tl@UModSys@@@86@@tl@UModSys@@@?$TTreeHoldRB@U?$TScatterArrayNode@USCacheElem@RLibraryObjCache@std@media@modules@UModSys@@U?$TString@U?$TSCoreConst@D@su@tl@UModSys@@U?$TComparerBinaryHash@D@234@@tl@6@@tl@UModSys@@@tl@UModSys@@QBEPAU?$TScatterArrayNode@USCacheElem@RLibraryObjCache@std@media@modules@UModSys@@U?$TString@U?$TSCoreConst@D@su@tl@UModSys@@U?$TComparerBinaryHash@D@234@@tl@6@@12@UCmp@?$TScatterArray@USCacheElem@RLibraryObjCache@std@media@modules@UModSys@@U?$TString@U?$TSCoreConst@D@su@tl@UModSys@@U?$TComparerBinaryHash@D@234@@tl@6@U?$TObjectCompare@U?$TString@U?$TSCoreConst@D@su@tl@UModSys@@U?$TComparerBinaryHash@D@234@@tl@UModSys@@@core@6@U?$TNodeDeleter0@U?$TScatterArrayNode@USCacheElem@RLibraryObjCache@std@media@modules@UModSys@@U?$TString@U?$TSCoreConst@D@su@tl@UModSys@@U?$TComparerBinaryHash@D@234@@tl@6@@tl@UModSys@@@86@@12@@Z 00403f0e f i umodsys_lib_libmedia:umodsys.mod.media.std.obj
 0001:00002f3b       ??$genx_node@UCmp@?$TScatterArray@USMountInfo@RLibraryBinTree@std@media@modules@UModSys@@USId@ILibraryBinTree@libmedia@6@U7896@U?$TNodeDeleter0@U?$TScatterArrayNode@USMountInfo@RLibraryBinTree@std@media@modules@UModSys@@USId@ILibraryBinTree@libmedia@6@@tl@UModSys@@@tl@6@@tl@UModSys@@UGen0@234@@?$TTreeHoldRBD@U?$TScatterArrayNode@USMountInfo@RLibraryBinTree@std@media@modules@UModSys@@USId@ILibraryBinTree@libmedia@6@@tl@UModSys@@U?$TNodeDeleter0@U?$TScatterArrayNode@USMountInfo@RLibraryBinTree@std@media@modules@UModSys@@USId@ILibraryBinTree@libmedia@6@@tl@UModSys@@@23@@tl@UModSys@@QAEPAU?$TScatterArrayNode@USMountInfo@RLibraryBinTree@std@media@modules@UModSys@@USId@ILibraryBinTree@libmedia@6@@12@UCmp@?$TScatterArray@USMountInfo@RLibraryBinTree@std@media@modules@UModSys@@USId@ILibraryBinTree@libmedia@6@U7896@U?$TNodeDeleter0@U?$TScatterArrayNode@USMountInfo@RLibraryBinTree@std@media@modules@UModSys@@USId@ILibraryBinTree@libmedia@6@@tl@UModSys@@@tl@6@@12@ABUGen0@512@PAPAU312@2_N@Z 00403f3b f i umodsys_lib_libmedia:umodsys.mod.media.std.obj
 0001:00002fb9       ??$find_node_u@UCmp@?$TScatterArray@USMountInfo@RLibraryBinTree@std@media@modules@UModSys@@USId@ILibraryBinTree@libmedia@6@U7896@U?$TNodeDeleter0@U?$TScatterArrayNode@USMountInfo@RLibraryBinTree@std@media@modules@UModSys@@USId@ILibraryBinTree@libmedia@6@@tl@UModSys@@@tl@6@@tl@UModSys@@@?$TTreeHoldRB@U?$TScatterArrayNode@USMountInfo@RLibraryBinTree@std@media@modules@UModSys@@USId@ILibraryBinTree@libmedia@6@@tl@UModSys@@@tl@UModSys@@QBEPAU?$TScatterArrayNode@USMountInfo@RLibraryBinTree@std@media@modules@UModSys@@USId@ILibraryBinTree@libmedia@6@@12@UCmp@?$TScatterArray@USMountInfo@RLibraryBinTree@std@media@modules@UModSys@@USId@ILibraryBinTree@libmedia@6@U7896@U?$TNodeDeleter0@U?$TScatterArrayNode@USMountInfo@RLibraryBinTree@std@media@modules@UModSys@@USId@ILibraryBinTree@libmedia@6@@tl@UModSys@@@tl@6@@12@@Z 00403fb9 f i umodsys_lib_libmedia:umodsys.mod.media.std.obj
 0001:00002fe5       ??$genx_node@UCmp@?$TScatterArray@USCacheElem@RLibraryObjCache@std@media@modules@UModSys@@U?$TString@U?$TSCoreConst@D@su@tl@UModSys@@U?$TComparerBinaryHash@D@234@@tl@6@U?$TObjectCompare@U?$TString@U?$TSCoreConst@D@su@tl@UModSys@@U?$TComparerBinaryHash@D@234@@tl@UModSys@@@core@6@U?$TNodeDeleter0@U?$TScatterArrayNode@USCacheElem@RLibraryObjCache@std@media@modules@UModSys@@U?$TString@U?$TSCoreConst@D@su@tl@UModSys@@U?$TComparerBinaryHash@D@234@@tl@6@@tl@UModSys@@@86@@tl@UModSys@@UGen0@234@@?$TTreeHoldRBD@U?$TScatterArrayNode@USCacheElem@RLibraryObjCache@std@media@modules@UModSys@@U?$TString@U?$TSCoreConst@D@su@tl@UModSys@@U?$TComparerBinaryHash@D@234@@tl@6@@tl@UModSys@@U?$TNodeDeleter0@U?$TScatterArrayNode@USCacheElem@RLibraryObjCache@std@media@modules@UModSys@@U?$TString@U?$TSCoreConst@D@su@tl@UModSys@@U?$TComparerBinaryHash@D@234@@tl@6@@tl@UModSys@@@23@@tl@UModSys@@QAEPAU?$TScatterArrayNode@USCacheElem@RLibraryObjCache@std@media@modules@UModSys@@U?$TString@U?$TSCoreConst@D@su@tl@UModSys@@U?$TComparerBinaryHash@D@234@@tl@6@@12@UCmp@?$TScatterArray@USCacheElem@RLibraryObjCache@std@media@modules@UModSys@@U?$TString@U?$TSCoreConst@D@su@tl@UModSys@@U?$TComparerBinaryHash@D@234@@tl@6@U?$TObjectCompare@U?$TString@U?$TSCoreConst@D@su@tl@UModSys@@U?$TComparerBinaryHash@D@234@@tl@UModSys@@@core@6@U?$TNodeDeleter0@U?$TScatterArrayNode@USCacheElem@RLibraryObjCache@std@media@modules@UModSys@@U?$TString@U?$TSCoreConst@D@su@tl@UModSys@@U?$TComparerBinaryHash@D@234@@tl@6@@tl@UModSys@@@86@@12@ABUGen0@512@PAPAU312@2_N@Z 00403fe5 f i umodsys_lib_libmedia:umodsys.mod.media.std.obj
 0001:00003064       ??$find_node_u@UCmp@?$TScatterArray@USFilter@RLibraryObjFilter@std@media@modules@UModSys@@USId@23456@U723456@U?$TNodeDeleter0@U?$TScatterArrayNode@USFilter@RLibraryObjFilter@std@media@modules@UModSys@@USId@23456@@tl@UModSys@@@tl@6@@tl@UModSys@@@?$TTreeHoldRB@U?$TScatterArrayNode@USFilter@RLibraryObjFilter@std@media@modules@UModSys@@USId@23456@@tl@UModSys@@@tl@UModSys@@QBEPAU?$TScatterArrayNode@USFilter@RLibraryObjFilter@std@media@modules@UModSys@@USId@23456@@12@UCmp@?$TScatterArray@USFilter@RLibraryObjFilter@std@media@modules@UModSys@@USId@23456@U723456@U?$TNodeDeleter0@U?$TScatterArrayNode@USFilter@RLibraryObjFilter@std@media@modules@UModSys@@USId@23456@@tl@UModSys@@@tl@6@@12@@Z 00404064 f i umodsys_lib_libmedia:umodsys.mod.media.std.obj
 0001:00003090       ?rotate_left@?$TTreeHoldRB@U?$TQuantArrayNode@USSourceContext@core@UModSys@@$0BAA@@tl@UModSys@@@tl@UModSys@@IAEXPAU?$TQuantArrayNode@USSourceContext@core@UModSys@@$0BAA@@23@@Z 00404090 f i umodsys_lib_basesys:umodsys.basesys.rsystem.obj
 0001:00003090       ?rotate_left@?$TTreeHoldRB@U?$TScatterArrayNode@USMountInfo@RLibraryBinTree@std@media@modules@UModSys@@USId@ILibraryBinTree@libmedia@6@@tl@UModSys@@@tl@UModSys@@IAEXPAU?$TScatterArrayNode@USMountInfo@RLibraryBinTree@std@media@modules@UModSys@@USId@ILibraryBinTree@libmedia@6@@23@@Z 00404090 f i umodsys_lib_libmedia:umodsys.mod.media.std.obj
 0001:00003090       ?rotate_left@?$TTreeHoldRB@U?$TScatterArrayNode@USFilter@RLibraryObjFilter@std@media@modules@UModSys@@USId@23456@@tl@UModSys@@@tl@UModSys@@IAEXPAU?$TScatterArrayNode@USFilter@RLibraryObjFilter@std@media@modules@UModSys@@USId@23456@@23@@Z 00404090 f i umodsys_lib_libmedia:umodsys.mod.media.std.obj
 0001:00003090       ?rotate_left@?$TTreeHoldRB@U?$TScatterArrayNode@USCacheElem@RLibraryObjCache@std@media@modules@UModSys@@U?$TString@U?$TSCoreConst@D@su@tl@UModSys@@U?$TComparerBinaryHash@D@234@@tl@6@@tl@UModSys@@@tl@UModSys@@IAEXPAU?$TScatterArrayNode@USCacheElem@RLibraryObjCache@std@media@modules@UModSys@@U?$TString@U?$TSCoreConst@D@su@tl@UModSys@@U?$TComparerBinaryHash@D@234@@tl@6@@23@@Z 00404090 f i umodsys_lib_libmedia:umodsys.mod.media.std.obj
 0001:00003090       ?rotate_left@?$TTreeHoldRB@U?$TScatterArrayNode@USCacheElem@RLibraryBinCache@std@media@modules@UModSys@@U?$TString@U?$TSCoreConst@D@su@tl@UModSys@@U?$TComparerBinaryHash@D@234@@tl@6@@tl@UModSys@@@tl@UModSys@@IAEXPAU?$TScatterArrayNode@USCacheElem@RLibraryBinCache@std@media@modules@UModSys@@U?$TString@U?$TSCoreConst@D@su@tl@UModSys@@U?$TComparerBinaryHash@D@234@@tl@6@@23@@Z 00404090 f i umodsys_lib_libmedia:umodsys.mod.media.std.obj
 0001:00003090       ?rotate_left@?$TTreeHoldRB@U?$TQuantArrayNode@USUniquePointerInfo@core@UModSys@@$0BAA@@tl@UModSys@@@tl@UModSys@@IAEXPAU?$TQuantArrayNode@USUniquePointerInfo@core@UModSys@@$0BAA@@23@@Z 00404090 f i umodsys_lib_basesys:umodsys.basesys.rsystem.obj
 0001:000030cf       ?ReLink@?$TDynarray@U?$TDynarrayHolderDynamic@USLayerX@RLibraryLayered@std@media@modules@UModSys@@U?$TAllocator@USIMemAlloc@core@UModSys@@USCountCalcPower2@23@@tl@6@@tl@UModSys@@@tl@UModSys@@IAE_NI@Z 004040cf f i umodsys_lib_libmedia:umodsys.mod.media.std.obj
 0001:00003111       ?rotate_right@?$TTreeHoldRB@U?$TQuantArrayNode@USSourceContext@core@UModSys@@$0BAA@@tl@UModSys@@@tl@UModSys@@IAEXPAU?$TQuantArrayNode@USSourceContext@core@UModSys@@$0BAA@@23@@Z 00404111 f i umodsys_lib_basesys:umodsys.basesys.rsystem.obj
 0001:00003111       ?rotate_right@?$TTreeHoldRB@U?$TQuantArrayNode@USUniquePointerInfo@core@UModSys@@$0BAA@@tl@UModSys@@@tl@UModSys@@IAEXPAU?$TQuantArrayNode@USUniquePointerInfo@core@UModSys@@$0BAA@@23@@Z 00404111 f i umodsys_lib_basesys:umodsys.basesys.rsystem.obj
 0001:00003111       ?rotate_right@?$TTreeHoldRB@U?$TScatterArrayNode@USCacheElem@RLibraryObjCache@std@media@modules@UModSys@@U?$TString@U?$TSCoreConst@D@su@tl@UModSys@@U?$TComparerBinaryHash@D@234@@tl@6@@tl@UModSys@@@tl@UModSys@@IAEXPAU?$TScatterArrayNode@USCacheElem@RLibraryObjCache@std@media@modules@UModSys@@U?$TString@U?$TSCoreConst@D@su@tl@UModSys@@U?$TComparerBinaryHash@D@234@@tl@6@@23@@Z 00404111 f i umodsys_lib_libmedia:umodsys.mod.media.std.obj
 0001:00003111       ?rotate_right@?$TTreeHoldRB@U?$TScatterArrayNode@USCacheElem@RLibraryBinCache@std@media@modules@UModSys@@U?$TString@U?$TSCoreConst@D@su@tl@UModSys@@U?$TComparerBinaryHash@D@234@@tl@6@@tl@UModSys@@@tl@UModSys@@IAEXPAU?$TScatterArrayNode@USCacheElem@RLibraryBinCache@std@media@modules@UModSys@@U?$TString@U?$TSCoreConst@D@su@tl@UModSys@@U?$TComparerBinaryHash@D@234@@tl@6@@23@@Z 00404111 f i umodsys_lib_libmedia:umodsys.mod.media.std.obj
 0001:00003111       ?rotate_right@?$TTreeHoldRB@U?$TScatterArrayNode@USMountInfo@RLibraryBinTree@std@media@modules@UModSys@@USId@ILibraryBinTree@libmedia@6@@tl@UModSys@@@tl@UModSys@@IAEXPAU?$TScatterArrayNode@USMountInfo@RLibraryBinTree@std@media@modules@UModSys@@USId@ILibraryBinTree@libmedia@6@@23@@Z 00404111 f i umodsys_lib_libmedia:umodsys.mod.media.std.obj
 0001:00003111       ?rotate_right@?$TTreeHoldRB@U?$TScatterArrayNode@USFilter@RLibraryObjFilter@std@media@modules@UModSys@@USId@23456@@tl@UModSys@@@tl@UModSys@@IAEXPAU?$TScatterArrayNode@USFilter@RLibraryObjFilter@std@media@modules@UModSys@@USId@23456@@23@@Z 00404111 f i umodsys_lib_libmedia:umodsys.mod.media.std.obj
 0001:00003150       ?sub_insert_node@?$TTreeHoldRB@U?$TScatterArrayNode@USMountInfo@RLibraryBinTree@std@media@modules@UModSys@@USId@ILibraryBinTree@libmedia@6@@tl@UModSys@@@tl@UModSys@@QAEXPAU?$TScatterArrayNode@USMountInfo@RLibraryBinTree@std@media@modules@UModSys@@USId@ILibraryBinTree@libmedia@6@@23@0H@Z 00404150 f i umodsys_lib_libmedia:umodsys.mod.media.std.obj
 0001:00003150       ?sub_insert_node@?$TTreeHoldRB@U?$TScatterArrayNode@USCacheElem@RLibraryBinCache@std@media@modules@UModSys@@U?$TString@U?$TSCoreConst@D@su@tl@UModSys@@U?$TComparerBinaryHash@D@234@@tl@6@@tl@UModSys@@@tl@UModSys@@QAEXPAU?$TScatterArrayNode@USCacheElem@RLibraryBinCache@std@media@modules@UModSys@@U?$TString@U?$TSCoreConst@D@su@tl@UModSys@@U?$TComparerBinaryHash@D@234@@tl@6@@23@0H@Z 00404150 f i umodsys_lib_libmedia:umodsys.mod.media.std.obj
 0001:00003150       ?sub_insert_node@?$TTreeHoldRB@U?$TScatterArrayNode@USFilter@RLibraryObjFilter@std@media@modules@UModSys@@USId@23456@@tl@UModSys@@@tl@UModSys@@QAEXPAU?$TScatterArrayNode@USFilter@RLibraryObjFilter@std@media@modules@UModSys@@USId@23456@@23@0H@Z 00404150 f i umodsys_lib_libmedia:umodsys.mod.media.std.obj
 0001:00003150       ?sub_insert_node@?$TTreeHoldRB@U?$TScatterArrayNode@USCacheElem@RLibraryObjCache@std@media@modules@UModSys@@U?$TString@U?$TSCoreConst@D@su@tl@UModSys@@U?$TComparerBinaryHash@D@234@@tl@6@@tl@UModSys@@@tl@UModSys@@QAEXPAU?$TScatterArrayNode@USCacheElem@RLibraryObjCache@std@media@modules@UModSys@@U?$TString@U?$TSCoreConst@D@su@tl@UModSys@@U?$TComparerBinaryHash@D@234@@tl@6@@23@0H@Z 00404150 f i umodsys_lib_libmedia:umodsys.mod.media.std.obj
 0001:0000319e       ??RCmp@?$TScatterArray@USMountInfo@RLibraryBinTree@std@media@modules@UModSys@@USId@ILibraryBinTree@libmedia@6@U7896@U?$TNodeDeleter0@U?$TScatterArrayNode@USMountInfo@RLibraryBinTree@std@media@modules@UModSys@@USId@ILibraryBinTree@libmedia@6@@tl@UModSys@@@tl@6@@tl@UModSys@@QBEHPBU?$TScatterArrayNode@USMountInfo@RLibraryBinTree@std@media@modules@UModSys@@USId@ILibraryBinTree@libmedia@6@@23@@Z 0040419e f i umodsys_lib_libmedia:umodsys.mod.media.std.obj
 0001:000031cb       ??RCmp@?$TScatterArray@USFilter@RLibraryObjFilter@std@media@modules@UModSys@@USId@23456@U723456@U?$TNodeDeleter0@U?$TScatterArrayNode@USFilter@RLibraryObjFilter@std@media@modules@UModSys@@USId@23456@@tl@UModSys@@@tl@6@@tl@UModSys@@QBEHPBU?$TScatterArrayNode@USFilter@RLibraryObjFilter@std@media@modules@UModSys@@USId@23456@@23@@Z 004041cb f i umodsys_lib_libmedia:umodsys.mod.media.std.obj
 0001:00003203       ??RGen0@?$TScatterArray@USFilter@RLibraryObjFilter@std@media@modules@UModSys@@USId@23456@U723456@U?$TNodeDeleter0@U?$TScatterArrayNode@USFilter@RLibraryObjFilter@std@media@modules@UModSys@@USId@23456@@tl@UModSys@@@tl@6@@tl@UModSys@@QBEPAU?$TScatterArrayNode@USFilter@RLibraryObjFilter@std@media@modules@UModSys@@USId@23456@@23@ABUCmp@123@ABU?$TTreeHoldRBD@U?$TScatterArrayNode@USFilter@RLibraryObjFilter@std@media@modules@UModSys@@USId@23456@@tl@UModSys@@U?$TNodeDeleter0@U?$TScatterArrayNode@USFilter@RLibraryObjFilter@std@media@modules@UModSys@@USId@23456@@tl@UModSys@@@23@@23@@Z 00404203 f i umodsys_lib_libmedia:umodsys.mod.media.std.obj
 0001:00003251       ??1?$TRefObject@UIModObject@base@UModSys@@U?$TModObjectFunc@UIModObject@base@UModSys@@@tl@3@@tl@UModSys@@QAE@XZ 00404251 f i umodsys_lib_libmedia:umodsys.mod.media.std.obj
 0001:00003267       ?amoveright@?$TTypeConstructor@USLayerX@RLibraryLayered@std@media@modules@UModSys@@@tl@UModSys@@SAXPAUSLayerX@RLibraryLayered@std@media@modules@3@III@Z 00404267 f i umodsys_lib_libmedia:umodsys.mod.media.std.obj
 0001:000032c4       ?amoveleft@?$TTypeConstructor@USLayerX@RLibraryLayered@std@media@modules@UModSys@@@tl@UModSys@@SAXPAUSLayerX@RLibraryLayered@std@media@modules@3@III@Z 004042c4 f i umodsys_lib_libmedia:umodsys.mod.media.std.obj
 0001:00003323       ??0SLayerX@RLibraryLayered@std@media@modules@UModSys@@QAE@ABU012345@@Z 00404323 f i umodsys_lib_libmedia:umodsys.mod.media.std.obj
 0001:0000335c       ??_GSLayerX@RLibraryLayered@std@media@modules@UModSys@@QAEPAXI@Z 0040435c f i umodsys_lib_libmedia:umodsys.mod.media.std.obj
 0001:0000339d       ??0?$TString@U?$TSCoreShared@USIMemAlloc@core@UModSys@@D@su@tl@UModSys@@U?$TComparerBinaryHash@D@234@@tl@UModSys@@QAE@ABU012@@Z 0040439d f i umodsys_lib_libmedia:umodsys.mod.media.std.obj
 0001:000033cc       ??0?$TScatterArrayNode@USCacheElem@RLibraryBinCache@std@media@modules@UModSys@@U?$TString@U?$TSCoreConst@D@su@tl@UModSys@@U?$TComparerBinaryHash@D@234@@tl@6@@tl@UModSys@@QAE@ABU?$TString@U?$TSCoreConst@D@su@tl@UModSys@@U?$TComparerBinaryHash@D@234@@12@@Z 004043cc f i umodsys_lib_libmedia:umodsys.mod.media.std.obj
 0001:0000345c       ??0?$TScatterArrayNode@USMountInfo@RLibraryBinTree@std@media@modules@UModSys@@USId@ILibraryBinTree@libmedia@6@@tl@UModSys@@QAE@ABUSId@ILibraryBinTree@libmedia@2@@Z 0040445c f i umodsys_lib_libmedia:umodsys.mod.media.std.obj
 0001:000034ef       ??0?$TScatterArrayNode@USCacheElem@RLibraryObjCache@std@media@modules@UModSys@@U?$TString@U?$TSCoreConst@D@su@tl@UModSys@@U?$TComparerBinaryHash@D@234@@tl@6@@tl@UModSys@@QAE@ABU?$TString@U?$TSCoreConst@D@su@tl@UModSys@@U?$TComparerBinaryHash@D@234@@12@@Z 004044ef f i umodsys_lib_libmedia:umodsys.mod.media.std.obj
 0001:0000358a       ?aconstruct@?$TTypeConstructor@USLayerX@RLibraryLayered@std@media@modules@UModSys@@@tl@UModSys@@SAXPAUSLayerX@RLibraryLayered@std@media@modules@3@I@Z 0040458a f i umodsys_lib_libmedia:umodsys.mod.media.std.obj
 0001:00003604       ?s_init@?$TModObjectFunc@UIModObject@base@UModSys@@@tl@UModSys@@SAXAAPAUIModObject@base@3@PAU453@@Z 00404604 f i umodsys_lib_libmedia:umodsys.mod.media.std.obj
 0001:0000361d       ?insert_color@?$TTreeHoldRB@U?$TScatterArrayNode@USFilter@RLibraryObjFilter@std@media@modules@UModSys@@USId@23456@@tl@UModSys@@@tl@UModSys@@IAEXPAU?$TScatterArrayNode@USFilter@RLibraryObjFilter@std@media@modules@UModSys@@USId@23456@@23@@Z 0040461d f i umodsys_lib_libmedia:umodsys.mod.media.std.obj
 0001:0000361d       ?insert_color@?$TTreeHoldRB@U?$TQuantArrayNode@USUniquePointerInfo@core@UModSys@@$0BAA@@tl@UModSys@@@tl@UModSys@@IAEXPAU?$TQuantArrayNode@USUniquePointerInfo@core@UModSys@@$0BAA@@23@@Z 0040461d f i umodsys_lib_basesys:umodsys.basesys.rsystem.obj
 0001:0000361d       ?insert_color@?$TTreeHoldRB@U?$TScatterArrayNode@USMountInfo@RLibraryBinTree@std@media@modules@UModSys@@USId@ILibraryBinTree@libmedia@6@@tl@UModSys@@@tl@UModSys@@IAEXPAU?$TScatterArrayNode@USMountInfo@RLibraryBinTree@std@media@modules@UModSys@@USId@ILibraryBinTree@libmedia@6@@23@@Z 0040461d f i umodsys_lib_libmedia:umodsys.mod.media.std.obj
 0001:0000361d       ?insert_color@?$TTreeHoldRB@U?$TScatterArrayNode@USCacheElem@RLibraryBinCache@std@media@modules@UModSys@@U?$TString@U?$TSCoreConst@D@su@tl@UModSys@@U?$TComparerBinaryHash@D@234@@tl@6@@tl@UModSys@@@tl@UModSys@@IAEXPAU?$TScatterArrayNode@USCacheElem@RLibraryBinCache@std@media@modules@UModSys@@U?$TString@U?$TSCoreConst@D@su@tl@UModSys@@U?$TComparerBinaryHash@D@234@@tl@6@@23@@Z 0040461d f i umodsys_lib_libmedia:umodsys.mod.media.std.obj
 0001:0000361d       ?insert_color@?$TTreeHoldRB@U?$TScatterArrayNode@USCacheElem@RLibraryObjCache@std@media@modules@UModSys@@U?$TString@U?$TSCoreConst@D@su@tl@UModSys@@U?$TComparerBinaryHash@D@234@@tl@6@@tl@UModSys@@@tl@UModSys@@IAEXPAU?$TScatterArrayNode@USCacheElem@RLibraryObjCache@std@media@modules@UModSys@@U?$TString@U?$TSCoreConst@D@su@tl@UModSys@@U?$TComparerBinaryHash@D@234@@tl@6@@23@@Z 0040461d f i umodsys_lib_libmedia:umodsys.mod.media.std.obj
 0001:0000361d       ?insert_color@?$TTreeHoldRB@U?$TQuantArrayNode@USSourceContext@core@UModSys@@$0BAA@@tl@UModSys@@@tl@UModSys@@IAEXPAU?$TQuantArrayNode@USSourceContext@core@UModSys@@$0BAA@@23@@Z 0040461d f i umodsys_lib_basesys:umodsys.basesys.rsystem.obj
 0001:000036cb       ??$process_nodes_r@U?$TNodeDeleter0@U?$TScatterArrayNode@USCacheElem@RLibraryBinCache@std@media@modules@UModSys@@U?$TString@U?$TSCoreConst@D@su@tl@UModSys@@U?$TComparerBinaryHash@D@234@@tl@6@@tl@UModSys@@@tl@UModSys@@@?$TTreeHoldRB@U?$TScatterArrayNode@USCacheElem@RLibraryBinCache@std@media@modules@UModSys@@U?$TString@U?$TSCoreConst@D@su@tl@UModSys@@U?$TComparerBinaryHash@D@234@@tl@6@@tl@UModSys@@@tl@UModSys@@KAHPAU?$TScatterArrayNode@USCacheElem@RLibraryBinCache@std@media@modules@UModSys@@U?$TString@U?$TSCoreConst@D@su@tl@UModSys@@U?$TComparerBinaryHash@D@234@@tl@6@@12@ABU?$TNodeDeleter0@U?$TScatterArrayNode@USCacheElem@RLibraryBinCache@std@media@modules@UModSys@@U?$TString@U?$TSCoreConst@D@su@tl@UModSys@@U?$TComparerBinaryHash@D@234@@tl@6@@tl@UModSys@@@12@@Z 004046cb f i umodsys_lib_libmedia:umodsys.mod.media.std.obj
 0001:00003715       ??$process_nodes_r@U?$TNodeDeleter0@U?$TScatterArrayNode@USMountInfo@RLibraryBinTree@std@media@modules@UModSys@@USId@ILibraryBinTree@libmedia@6@@tl@UModSys@@@tl@UModSys@@@?$TTreeHoldRB@U?$TScatterArrayNode@USMountInfo@RLibraryBinTree@std@media@modules@UModSys@@USId@ILibraryBinTree@libmedia@6@@tl@UModSys@@@tl@UModSys@@KAHPAU?$TScatterArrayNode@USMountInfo@RLibraryBinTree@std@media@modules@UModSys@@USId@ILibraryBinTree@libmedia@6@@12@ABU?$TNodeDeleter0@U?$TScatterArrayNode@USMountInfo@RLibraryBinTree@std@media@modules@UModSys@@USId@ILibraryBinTree@libmedia@6@@tl@UModSys@@@12@@Z 00404715 f i umodsys_lib_libmedia:umodsys.mod.media.std.obj
 0001:0000375f       ??$process_nodes_r@U?$TNodeDeleter0@U?$TScatterArrayNode@USCacheElem@RLibraryObjCache@std@media@modules@UModSys@@U?$TString@U?$TSCoreConst@D@su@tl@UModSys@@U?$TComparerBinaryHash@D@234@@tl@6@@tl@UModSys@@@tl@UModSys@@@?$TTreeHoldRB@U?$TScatterArrayNode@USCacheElem@RLibraryObjCache@std@media@modules@UModSys@@U?$TString@U?$TSCoreConst@D@su@tl@UModSys@@U?$TComparerBinaryHash@D@234@@tl@6@@tl@UModSys@@@tl@UModSys@@KAHPAU?$TScatterArrayNode@USCacheElem@RLibraryObjCache@std@media@modules@UModSys@@U?$TString@U?$TSCoreConst@D@su@tl@UModSys@@U?$TComparerBinaryHash@D@234@@tl@6@@12@ABU?$TNodeDeleter0@U?$TScatterArrayNode@USCacheElem@RLibraryObjCache@std@media@modules@UModSys@@U?$TString@U?$TSCoreConst@D@su@tl@UModSys@@U?$TComparerBinaryHash@D@234@@tl@6@@tl@UModSys@@@12@@Z 0040475f f i umodsys_lib_libmedia:umodsys.mod.media.std.obj
 0001:000037a9       ??$process_nodes_r@U?$TNodeDeleter0@U?$TScatterArrayNode@USFilter@RLibraryObjFilter@std@media@modules@UModSys@@USId@23456@@tl@UModSys@@@tl@UModSys@@@?$TTreeHoldRB@U?$TScatterArrayNode@USFilter@RLibraryObjFilter@std@media@modules@UModSys@@USId@23456@@tl@UModSys@@@tl@UModSys@@KAHPAU?$TScatterArrayNode@USFilter@RLibraryObjFilter@std@media@modules@UModSys@@USId@23456@@12@ABU?$TNodeDeleter0@U?$TScatterArrayNode@USFilter@RLibraryObjFilter@std@media@modules@UModSys@@USId@23456@@tl@UModSys@@@12@@Z 004047a9 f i umodsys_lib_libmedia:umodsys.mod.media.std.obj
 0001:000037fa       ??1?$TRefObject@URModuleLibrarySO@rsystem@base@UModSys@@U?$TRefObjectFunc@URModuleLibrarySO@rsystem@base@UModSys@@@tl@4@@tl@UModSys@@QAE@XZ 004047fa f i umodsys_lib_basesys:umodsys.basesys.rmoduleloader.obj
 0001:000037fa       ??1?$TRefObject@URLibraryObjCache@std@media@modules@UModSys@@U?$TRefObjectFunc@URLibraryObjCache@std@media@modules@UModSys@@@tl@5@@tl@UModSys@@QAE@XZ 004047fa f i umodsys_lib_libmedia:umodsys.mod.media.std.obj
 0001:000037fa       ??1?$TRefObject@URStreamReader_FILE@stdio@media@modules@UModSys@@U?$TRefObjectFunc@URStreamReader_FILE@stdio@media@modules@UModSys@@@tl@5@@tl@UModSys@@QAE@XZ 004047fa f i umodsys_lib_libmedia:umodsys.mod.media.stdio.obj
 0001:000037fa       ??1?$TRefObject@UIShell@base@UModSys@@U?$TRefObjectFunc@UIShell@base@UModSys@@@tl@3@@tl@UModSys@@QAE@XZ 004047fa f i umodsys_lib_basesys:umodsys.basesys.rsystem_tests.obj
 0001:000037fa       ??1?$TRefObject@UIStreamReader@libmedia@UModSys@@U?$TRefObjectFunc@UIStreamReader@libmedia@UModSys@@@tl@3@@tl@UModSys@@QAE@XZ 004047fa f i umodsys_lib_libmedia:umodsys.mod.media.std.obj
 0001:000037fa       ??1SFilter@RLibraryObjFilter@std@media@modules@UModSys@@QAE@XZ 004047fa f i umodsys_lib_libmedia:umodsys.mod.media.std.obj
 0001:000037fa       ??1?$TRefObject@URParameters@rsystem@base@UModSys@@U?$TRefObjectFunc@URParameters@rsystem@base@UModSys@@@tl@4@@tl@UModSys@@QAE@XZ 004047fa f i umodsys_lib_basesys:umodsys.basesys.rsystem_main.obj
 0001:000037fa       ??1?$TRefObject@UIStreamWriter@libmedia@UModSys@@U?$TRefObjectFunc@UIStreamWriter@libmedia@UModSys@@@tl@3@@tl@UModSys@@QAE@XZ 004047fa f i umodsys_lib_libmedia:umodsys.mod.media.std.obj
 0001:000037fa       ??1?$TRefObject@URLibraryObjFilter@std@media@modules@UModSys@@U?$TRefObjectFunc@URLibraryObjFilter@std@media@modules@UModSys@@@tl@5@@tl@UModSys@@QAE@XZ 004047fa f i umodsys_lib_libmedia:umodsys.mod.media.std.obj
 0001:000037fa       ??1?$TRefObject@UIModuleLibraryUni@rsystem@base@UModSys@@U?$TRefObjectFunc@UIModuleLibraryUni@rsystem@base@UModSys@@@tl@4@@tl@UModSys@@QAE@XZ 004047fa f i umodsys_lib_basesys:umodsys.basesys.rmodule.obj
 0001:000037fa       ??1?$TRefObject@URDataArchiver_OsDir@stdio@media@modules@UModSys@@U?$TRefObjectFunc@URDataArchiver_OsDir@stdio@media@modules@UModSys@@@tl@5@@tl@UModSys@@QAE@XZ 004047fa f i umodsys_lib_libmedia:umodsys.mod.media.stdio.obj
 0001:000037fa       ??1?$TRefObject@UIBinObjFilter@libmedia@UModSys@@U?$TRefObjectFunc@UIBinObjFilter@libmedia@UModSys@@@tl@3@@tl@UModSys@@QAE@XZ 004047fa f i umodsys_lib_libmedia:umodsys.mod.media.std.obj
 0001:000037fa       ??1?$TRefObject@URLibraryBinTree@std@media@modules@UModSys@@U?$TRefObjectFunc@URLibraryBinTree@std@media@modules@UModSys@@@tl@5@@tl@UModSys@@QAE@XZ 004047fa f i umodsys_lib_libmedia:umodsys.mod.media.std.obj
 0001:000037fa       ??1?$TRefObject@URLibraryBinCache@std@media@modules@UModSys@@U?$TRefObjectFunc@URLibraryBinCache@std@media@modules@UModSys@@@tl@5@@tl@UModSys@@QAE@XZ 004047fa f i umodsys_lib_libmedia:umodsys.mod.media.std.obj
 0001:000037fa       ??1?$TRefObject@UIRefObject@core@UModSys@@U?$TRefObjectFunc@UIRefObject@core@UModSys@@@tl@3@@tl@UModSys@@QAE@XZ 004047fa f i umodsys_lib_libmedia:umodsys.mod.media.std.obj
 0001:000037fa       ??1?$TRefObject@URLibraryLayered@std@media@modules@UModSys@@U?$TRefObjectFunc@URLibraryLayered@std@media@modules@UModSys@@@tl@5@@tl@UModSys@@QAE@XZ 004047fa f i umodsys_lib_libmedia:umodsys.mod.media.std.obj
 0001:000037fa       ??1?$TRefObject@URStreamWriter_FILE@stdio@media@modules@UModSys@@U?$TRefObjectFunc@URStreamWriter_FILE@stdio@media@modules@UModSys@@@tl@5@@tl@UModSys@@QAE@XZ 004047fa f i umodsys_lib_libmedia:umodsys.mod.media.stdio.obj
 0001:00003809       ?archive_load_data@libmedia@UModSys@@YA_NAAUIBinArchive@12@ABU?$TString@U?$TSCoreConst@D@su@tl@UModSys@@U?$TComparerBinaryHash@D@234@@tl@2@AAUSCMemShared@core@2@ABUSFlags@12@@Z 00404809 f i umodsys_lib_libmedia:umodsys.mod.media.stdio.obj
 0001:0000391f       ?file_get_size@stdio@media@modules@UModSys@@YA_JPAU_iobuf@@@Z 0040491f f i umodsys_lib_libmedia:umodsys.mod.media.stdio.obj
 0001:0000396a       ?root_get_interface_info@RStreamReader_FILE@stdio@media@modules@UModSys@@UBEABUSUniquePointerInfo@core@5@XZ 0040496a f i umodsys_lib_libmedia:umodsys.mod.media.stdio.obj
 0001:00003970       ?root_get_interface_type@RStreamReader_FILE@stdio@media@modules@UModSys@@UBEPBUSUniquePointerInfo@core@5@XZ 00404970 f i umodsys_lib_libmedia:umodsys.mod.media.stdio.obj
 0001:00003976       ?root_get_interface_types@RModuleLibrarySO@rsystem@base@UModSys@@UBEIAAUSUniquePtrList@core@4@@Z 00404976 f i umodsys_lib_basesys:umodsys.basesys.rmodulelibso.obj
 0001:00003976       ?root_get_interface_types@RLibraryObjCache@std@media@modules@UModSys@@UBEIAAUSUniquePtrList@core@5@@Z 00404976 f i umodsys_lib_libmedia:umodsys.mod.media.std.obj
 0001:00003976       ?root_get_interface_types@RModuleLibraryThis@rsystem@base@UModSys@@UBEIAAUSUniquePtrList@core@4@@Z 00404976 f i umodsys_lib_basesys:umodsys.basesys.rmodulelibthis.obj
 0001:00003976       ?root_get_interface_types@RGenerator@std@media@modules@UModSys@@UBEIAAUSUniquePtrList@core@5@@Z 00404976 f i umodsys_lib_libmedia:umodsys.mod.media.std.obj
 0001:00003976       ?root_get_interface_types@RConsole_std@rsystem@base@UModSys@@UBEIAAUSUniquePtrList@core@4@@Z 00404976 f i umodsys_lib_basesys:umodsys.basesys.rconsole_std.obj
 0001:00003976       ?root_get_interface_types@RLibraryBinTree@std@media@modules@UModSys@@UBEIAAUSUniquePtrList@core@5@@Z 00404976 f i umodsys_lib_libmedia:umodsys.mod.media.std.obj
 0001:00003976       ?root_get_interface_types@RLibraryBinCache@std@media@modules@UModSys@@UBEIAAUSUniquePtrList@core@5@@Z 00404976 f i umodsys_lib_libmedia:umodsys.mod.media.std.obj
 0001:00003976       ?root_get_interface_types@RDataArchiver_OsDir@stdio@media@modules@UModSys@@UBEIAAUSUniquePtrList@core@5@@Z 00404976 f i umodsys_lib_libmedia:umodsys.mod.media.stdio.obj
 0001:00003976       ?root_get_interface_types@RParameters@rsystem@base@UModSys@@UBEIAAUSUniquePtrList@core@4@@Z 00404976 f i umodsys_lib_basesys:umodsys.basesys.rparameters.obj
 0001:00003976       ?root_get_interface_types@RGenerator@stdio@media@modules@UModSys@@UBEIAAUSUniquePtrList@core@5@@Z 00404976 f i umodsys_lib_libmedia:umodsys.mod.media.stdio.obj
 0001:00003976       ?root_get_interface_types@RLibraryLayered@std@media@modules@UModSys@@UBEIAAUSUniquePtrList@core@5@@Z 00404976 f i umodsys_lib_libmedia:umodsys.mod.media.std.obj
 0001:00003976       ?root_get_interface_types@RSystem@rsystem@base@UModSys@@UBEIAAUSUniquePtrList@core@4@@Z 00404976 f i umodsys_lib_basesys:umodsys.basesys.rsystem_main.obj
 0001:00003976       ?root_get_interface_types@RLibraryObjFilter@std@media@modules@UModSys@@UBEIAAUSUniquePtrList@core@5@@Z 00404976 f i umodsys_lib_libmedia:umodsys.mod.media.std.obj
 0001:00003976       ?root_get_interface_types@RStreamWriter_FILE@stdio@media@modules@UModSys@@UBEIAAUSUniquePtrList@core@5@@Z 00404976 f i umodsys_lib_libmedia:umodsys.mod.media.stdio.obj
 0001:00003976       ?root_get_interface_types@RModule@rsystem@base@UModSys@@UBEIAAUSUniquePtrList@core@4@@Z 00404976 f i umodsys_lib_basesys:umodsys.basesys.rmodule.obj
 0001:00003976       ?root_get_interface_types@RStreamReader_FILE@stdio@media@modules@UModSys@@UBEIAAUSUniquePtrList@core@5@@Z 00404976 f i umodsys_lib_libmedia:umodsys.mod.media.stdio.obj
 0001:0000397b       ?root_get_other_interface@RStreamReader_FILE@stdio@media@modules@UModSys@@UAEPAUIRoot@core@5@PBUSUniquePointerInfo@75@@Z 0040497b f i umodsys_lib_libmedia:umodsys.mod.media.stdio.obj
 0001:0000397b       ?root_get_other_interface@RStreamReader_FILE@stdio@media@modules@UModSys@@UBEPBUIRoot@core@5@PBUSUniquePointerInfo@75@@Z 0040497b f i umodsys_lib_libmedia:umodsys.mod.media.stdio.obj
 0001:0000399c       ?root_is_interface_supported@RStreamReader_FILE@stdio@media@modules@UModSys@@UBE_NPBUSUniquePointerInfo@core@5@@Z 0040499c f i umodsys_lib_libmedia:umodsys.mod.media.stdio.obj
 0001:000039c3       ?ref_remove@RStreamReader_FILE@stdio@media@modules@UModSys@@UBEXXZ 004049c3 f i umodsys_lib_libmedia:umodsys.mod.media.stdio.obj
 0001:000039c3       ?ref_remove@RGenerator@stdio@media@modules@UModSys@@UBEXXZ 004049c3 f i umodsys_lib_libmedia:umodsys.mod.media.stdio.obj
 0001:000039c3       ?ref_remove@RStreamWriter_FILE@stdio@media@modules@UModSys@@UBEXXZ 004049c3 f i umodsys_lib_libmedia:umodsys.mod.media.stdio.obj
 0001:000039c3       ?ref_remove@RGenerator@std@media@modules@UModSys@@UBEXXZ 004049c3 f i umodsys_lib_libmedia:umodsys.mod.media.std.obj
 0001:000039ce       ?suicide@RStreamWriter_FILE@stdio@media@modules@UModSys@@UAEXXZ 004049ce f i umodsys_lib_libmedia:umodsys.mod.media.stdio.obj
 0001:000039ce       ?suicide@RStreamReader_FILE@stdio@media@modules@UModSys@@UAEXXZ 004049ce f i umodsys_lib_libmedia:umodsys.mod.media.stdio.obj
 0001:00003a15       ??0RStreamReader_FILE@stdio@media@modules@UModSys@@QAE@PAUIModObject@base@4@ABUSParameters@core@4@@Z 00404a15 f i umodsys_lib_libmedia:umodsys.mod.media.stdio.obj
 0001:00003a90       ??0RStreamReader_FILE@stdio@media@modules@UModSys@@QAE@PAUIModObject@base@4@PBD@Z 00404a90 f i umodsys_lib_libmedia:umodsys.mod.media.stdio.obj
 0001:00003ae7       ?open@RStreamReader_FILE@stdio@media@modules@UModSys@@QAEXPBD@Z 00404ae7 f i umodsys_lib_libmedia:umodsys.mod.media.stdio.obj
 0001:00003b0b       ?reader_seek@RStreamReader_FILE@stdio@media@modules@UModSys@@UAE_N_J@Z 00404b0b f i umodsys_lib_libmedia:umodsys.mod.media.stdio.obj
 0001:00003b2e       ?reader_seekend@RStreamReader_FILE@stdio@media@modules@UModSys@@UAE_N_J@Z 00404b2e f i umodsys_lib_libmedia:umodsys.mod.media.stdio.obj
 0001:00003b54       ?reader_seekdelta@RStreamReader_FILE@stdio@media@modules@UModSys@@UAE_N_J@Z 00404b54 f i umodsys_lib_libmedia:umodsys.mod.media.stdio.obj
 0001:00003b77       ?reader_pos@RStreamReader_FILE@stdio@media@modules@UModSys@@UAE_JXZ 00404b77 f i umodsys_lib_libmedia:umodsys.mod.media.stdio.obj
 0001:00003b8c       ?reader_size@RStreamReader_FILE@stdio@media@modules@UModSys@@UAE_JXZ 00404b8c f i umodsys_lib_libmedia:umodsys.mod.media.stdio.obj
 0001:00003b93       ?reader_read@RStreamReader_FILE@stdio@media@modules@UModSys@@UAE_NPAXI@Z 00404b93 f i umodsys_lib_libmedia:umodsys.mod.media.stdio.obj
 0001:00003bf0       ?reader_close@RStreamReader_FILE@stdio@media@modules@UModSys@@UAEXXZ 00404bf0 f i umodsys_lib_libmedia:umodsys.mod.media.stdio.obj
 0001:00003c08       ??_ERStreamReader_FILE@stdio@media@modules@UModSys@@UAEPAXI@Z 00404c08 f i  CIL library: CIL module
 0001:00003c08       ??_GRStreamReader_FILE@stdio@media@modules@UModSys@@UAEPAXI@Z 00404c08 f i umodsys_lib_libmedia:umodsys.mod.media.stdio.obj
 0001:00003c30       ??1IBinArchive@libmedia@UModSys@@UAE@XZ 00404c30 f i umodsys_lib_libmedia:umodsys.mod.media.stdio.obj
 0001:00003c30       ??1IStreamReader@libmedia@UModSys@@UAE@XZ 00404c30 f i umodsys_lib_libmedia:umodsys.mod.media.stdio.obj
 0001:00003c30       ??1IStreamWriter@libmedia@UModSys@@UAE@XZ 00404c30 f i umodsys_lib_libmedia:umodsys.mod.media.stdio.obj
 0001:00003c30       ??1ILibraryBinCache@libmedia@UModSys@@UAE@XZ 00404c30 f i umodsys_lib_libmedia:umodsys.mod.media.std.obj
 0001:00003c30       ??1ILibraryBinTree@libmedia@UModSys@@UAE@XZ 00404c30 f i umodsys_lib_libmedia:umodsys.mod.media.std.obj
 0001:00003c30       ??1ILibraryObjCache@libmedia@UModSys@@UAE@XZ 00404c30 f i umodsys_lib_libmedia:umodsys.mod.media.std.obj
 0001:00003c30       ??1ILibraryObjFilter@libmedia@UModSys@@UAE@XZ 00404c30 f i umodsys_lib_libmedia:umodsys.mod.media.std.obj
 0001:00003c30       ??1ILibraryLayered@libmedia@UModSys@@UAE@XZ 00404c30 f i umodsys_lib_libmedia:umodsys.mod.media.std.obj
 0001:00003c30       ??1IModule@base@UModSys@@UAE@XZ 00404c30 f i umodsys_lib_base:umodsys.base.module.obj
 0001:00003c30       ??1ISystem@base@UModSys@@UAE@XZ 00404c30 f i umodsys_lib_base:umodsys.base.system.obj
 0001:00003c37       ?root_get_interface_info@RStreamWriter_FILE@stdio@media@modules@UModSys@@UBEABUSUniquePointerInfo@core@5@XZ 00404c37 f i umodsys_lib_libmedia:umodsys.mod.media.stdio.obj
 0001:00003c3d       ?root_get_interface_type@RStreamWriter_FILE@stdio@media@modules@UModSys@@UBEPBUSUniquePointerInfo@core@5@XZ 00404c3d f i umodsys_lib_libmedia:umodsys.mod.media.stdio.obj
 0001:00003c43       ?root_get_other_interface@RStreamWriter_FILE@stdio@media@modules@UModSys@@UBEPBUIRoot@core@5@PBUSUniquePointerInfo@75@@Z 00404c43 f i umodsys_lib_libmedia:umodsys.mod.media.stdio.obj
 0001:00003c43       ?root_get_other_interface@RStreamWriter_FILE@stdio@media@modules@UModSys@@UAEPAUIRoot@core@5@PBUSUniquePointerInfo@75@@Z 00404c43 f i umodsys_lib_libmedia:umodsys.mod.media.stdio.obj
 0001:00003c64       ?root_is_interface_supported@RStreamWriter_FILE@stdio@media@modules@UModSys@@UBE_NPBUSUniquePointerInfo@core@5@@Z 00404c64 f i umodsys_lib_libmedia:umodsys.mod.media.stdio.obj
 0001:00003c8b       ??0RStreamWriter_FILE@stdio@media@modules@UModSys@@QAE@PAUIModObject@base@4@ABUSParameters@core@4@@Z 00404c8b f i umodsys_lib_libmedia:umodsys.mod.media.stdio.obj
 0001:00003d37       ??0RStreamWriter_FILE@stdio@media@modules@UModSys@@QAE@PAUIModObject@base@4@PBD_N@Z 00404d37 f i umodsys_lib_libmedia:umodsys.mod.media.stdio.obj
 0001:00003d98       ?open@RStreamWriter_FILE@stdio@media@modules@UModSys@@QAEXPBD_N@Z 00404d98 f i umodsys_lib_libmedia:umodsys.mod.media.stdio.obj
 0001:00003dde       ?writer_seek@RStreamWriter_FILE@stdio@media@modules@UModSys@@UAE_N_J@Z 00404dde f i umodsys_lib_libmedia:umodsys.mod.media.stdio.obj
 0001:00003e01       ?writer_seekend@RStreamWriter_FILE@stdio@media@modules@UModSys@@UAE_N_J@Z 00404e01 f i umodsys_lib_libmedia:umodsys.mod.media.stdio.obj
 0001:00003e27       ?writer_seekdelta@RStreamWriter_FILE@stdio@media@modules@UModSys@@UAE_N_J@Z 00404e27 f i umodsys_lib_libmedia:umodsys.mod.media.stdio.obj
 0001:00003e4a       ?writer_setsize@RStreamWriter_FILE@stdio@media@modules@UModSys@@UAE_N_J@Z 00404e4a f i umodsys_lib_libmedia:umodsys.mod.media.stdio.obj
 0001:00003e90       ?writer_pos@RStreamWriter_FILE@stdio@media@modules@UModSys@@UAE_JXZ 00404e90 f i umodsys_lib_libmedia:umodsys.mod.media.stdio.obj
 0001:00003ea5       ?writer_size@RStreamWriter_FILE@stdio@media@modules@UModSys@@UAE_JXZ 00404ea5 f i umodsys_lib_libmedia:umodsys.mod.media.stdio.obj
 0001:00003eca       ?writer_write@RStreamWriter_FILE@stdio@media@modules@UModSys@@UAE_NPBXI@Z 00404eca f i umodsys_lib_libmedia:umodsys.mod.media.stdio.obj
 0001:00003f27       ?writer_copy@RStreamWriter_FILE@stdio@media@modules@UModSys@@UAE_NPAUIStreamReader@libmedia@5@_J@Z 00404f27 f i umodsys_lib_libmedia:umodsys.mod.media.stdio.obj
 0001:00003fab       ?writer_copy@RStreamWriter_FILE@stdio@media@modules@UModSys@@UAE_NPAUIStreamReader@libmedia@5@_J1@Z 00404fab f i umodsys_lib_libmedia:umodsys.mod.media.stdio.obj
 0001:00003fe2       ?writer_close@RStreamWriter_FILE@stdio@media@modules@UModSys@@UAEXXZ 00404fe2 f i umodsys_lib_libmedia:umodsys.mod.media.stdio.obj
 0001:0000400f       ?writer_abort@RStreamWriter_FILE@stdio@media@modules@UModSys@@UAEXXZ 0040500f f i umodsys_lib_libmedia:umodsys.mod.media.stdio.obj
 0001:0000403c       ??_ERStreamWriter_FILE@stdio@media@modules@UModSys@@UAEPAXI@Z 0040503c f i  CIL library: CIL module
 0001:0000403c       ??_GRStreamWriter_FILE@stdio@media@modules@UModSys@@UAEPAXI@Z 0040503c f i umodsys_lib_libmedia:umodsys.mod.media.stdio.obj
 0001:00004080       ?root_get_interface_info@RDataArchiver_OsDir@stdio@media@modules@UModSys@@UBEABUSUniquePointerInfo@core@5@XZ 00405080 f i umodsys_lib_libmedia:umodsys.mod.media.stdio.obj
 0001:00004086       ?root_get_interface_type@RDataArchiver_OsDir@stdio@media@modules@UModSys@@UBEPBUSUniquePointerInfo@core@5@XZ 00405086 f i umodsys_lib_libmedia:umodsys.mod.media.stdio.obj
 0001:0000408c       ?root_get_other_interface@RDataArchiver_OsDir@stdio@media@modules@UModSys@@UAEPAUIRoot@core@5@PBUSUniquePointerInfo@75@@Z 0040508c f i umodsys_lib_libmedia:umodsys.mod.media.stdio.obj
 0001:0000408c       ?root_get_other_interface@RDataArchiver_OsDir@stdio@media@modules@UModSys@@UBEPBUIRoot@core@5@PBUSUniquePointerInfo@75@@Z 0040508c f i umodsys_lib_libmedia:umodsys.mod.media.stdio.obj
 0001:000040ad       ?root_is_interface_supported@RDataArchiver_OsDir@stdio@media@modules@UModSys@@UBE_NPBUSUniquePointerInfo@core@5@@Z 004050ad f i umodsys_lib_libmedia:umodsys.mod.media.stdio.obj
 0001:000040d4       ??0RDataArchiver_OsDir@stdio@media@modules@UModSys@@QAE@PAUIModObject@base@4@ABUSParameters@core@4@U?$TFlags4State@USMediaFlagUid@libmedia@UModSys@@I@tl@4@@Z 004050d4 f i umodsys_lib_libmedia:umodsys.mod.media.stdio.obj
 0001:0000414c       ?open@RDataArchiver_OsDir@stdio@media@modules@UModSys@@QAEXABUSParameters@core@5@@Z 0040514c f i umodsys_lib_libmedia:umodsys.mod.media.stdio.obj
 0001:0000422e       ?get_flag@RDataArchiver_OsDir@stdio@media@modules@UModSys@@UBE?AW4eStates@?$TFlags4State@USMediaFlagUid@libmedia@UModSys@@I@tl@5@H@Z 0040522e f i umodsys_lib_libmedia:umodsys.mod.media.stdio.obj
 0001:00004241       ?get_flags_auto@RDataArchiver_OsDir@stdio@media@modules@UModSys@@UBE?AU?$TFlags4State@USMediaFlagUid@libmedia@UModSys@@I@tl@5@XZ 00405241 f i umodsys_lib_libmedia:umodsys.mod.media.stdio.obj
 0001:00004250       ?set_flag@RDataArchiver_OsDir@stdio@media@modules@UModSys@@UAE?AW4eStates@?$TFlags4State@USMediaFlagUid@libmedia@UModSys@@I@tl@5@HW46785@@Z 00405250 f i umodsys_lib_libmedia:umodsys.mod.media.stdio.obj
 0001:0000427d       ?data_load@RDataArchiver_OsDir@stdio@media@modules@UModSys@@UAE_NABU?$TString@U?$TSCoreConst@D@su@tl@UModSys@@U?$TComparerBinaryHash@D@234@@tl@5@AAUSCMemShared@core@5@ABUSFlags@libmedia@5@@Z 0040527d f i umodsys_lib_libmedia:umodsys.mod.media.stdio.obj
 0001:000042b3       ?data_save@RDataArchiver_OsDir@stdio@media@modules@UModSys@@UAE_NABU?$TString@U?$TSCoreConst@D@su@tl@UModSys@@U?$TComparerBinaryHash@D@234@@tl@5@ABUSCMem@core@5@ABUSFlags@libmedia@5@@Z 004052b3 f i umodsys_lib_libmedia:umodsys.mod.media.stdio.obj
 0001:00004329       ?data_reader@RDataArchiver_OsDir@stdio@media@modules@UModSys@@UAE?AU?$TRefObject@UIStreamReader@libmedia@UModSys@@U?$TRefObjectFunc@UIStreamReader@libmedia@UModSys@@@tl@3@@tl@5@ABU?$TString@U?$TSCoreConst@D@su@tl@UModSys@@U?$TComparerBinaryHash@D@234@@75@ABUSFlags@libmedia@5@@Z 00405329 f i umodsys_lib_libmedia:umodsys.mod.media.stdio.obj
 0001:0000442e       ?data_writer@RDataArchiver_OsDir@stdio@media@modules@UModSys@@UAE?AU?$TRefObject@UIStreamWriter@libmedia@UModSys@@U?$TRefObjectFunc@UIStreamWriter@libmedia@UModSys@@@tl@3@@tl@5@ABU?$TString@U?$TSCoreConst@D@su@tl@UModSys@@U?$TComparerBinaryHash@D@234@@75@ABUSFlags@libmedia@5@@Z 0040542e f i umodsys_lib_libmedia:umodsys.mod.media.stdio.obj
 0001:00004553       ?data_list@RDataArchiver_OsDir@stdio@media@modules@UModSys@@UAE_NABU?$TString@U?$TSCoreConst@D@su@tl@UModSys@@U?$TComparerBinaryHash@D@234@@tl@5@AAU?$TIStackSocket@USFileInfo@libmedia@UModSys@@@75@ABUSFlags@libmedia@5@@Z 00405553 f i umodsys_lib_libmedia:umodsys.mod.media.stdio.obj
 0001:0000459b       ?get_permissions@RDataArchiver_OsDir@stdio@media@modules@UModSys@@UAEHXZ 0040559b f i umodsys_lib_libmedia:umodsys.mod.media.stdio.obj
 0001:0000459f       ??_GRDataArchiver_OsDir@stdio@media@modules@UModSys@@UAEPAXI@Z 0040559f f i umodsys_lib_libmedia:umodsys.mod.media.stdio.obj
 0001:0000459f       ??_ERDataArchiver_OsDir@stdio@media@modules@UModSys@@UAEPAXI@Z 0040559f f i  CIL library: CIL module
 0001:000045ef       ?get_generated_names@RGenerator@stdio@media@modules@UModSys@@UBEHAAUSUniquePtrList@core@5@@Z 004055ef f i umodsys_lib_libmedia:umodsys.mod.media.stdio.obj
 0001:0000461f       ?get_generated_types@RGenerator@stdio@media@modules@UModSys@@UBEHAAUSUniquePtrList@core@5@PBUSUniquePointerInfo@75@@Z 0040561f f i umodsys_lib_libmedia:umodsys.mod.media.stdio.obj
 0001:0000468d       ?generate@RGenerator@stdio@media@modules@UModSys@@UAE_NAAU?$TRefObject@UIRefObject@core@UModSys@@U?$TRefObjectFunc@UIRefObject@core@UModSys@@@tl@3@@tl@5@PBUSUniquePointerInfo@core@5@ABUSParameters@95@@Z 0040568d f i umodsys_lib_libmedia:umodsys.mod.media.stdio.obj
 0001:000046f5       ?root_get_interface_info@RGenerator@stdio@media@modules@UModSys@@UBEABUSUniquePointerInfo@core@5@XZ 004056f5 f i umodsys_lib_libmedia:umodsys.mod.media.stdio.obj
 0001:000046fb       ?root_get_interface_type@RGenerator@stdio@media@modules@UModSys@@UBEPBUSUniquePointerInfo@core@5@XZ 004056fb f i umodsys_lib_libmedia:umodsys.mod.media.stdio.obj
 0001:00004701       ?root_get_other_interface@RGenerator@stdio@media@modules@UModSys@@UBEPBUIRoot@core@5@PBUSUniquePointerInfo@75@@Z 00405701 f i umodsys_lib_libmedia:umodsys.mod.media.stdio.obj
 0001:00004701       ?root_get_other_interface@RGenerator@stdio@media@modules@UModSys@@UAEPAUIRoot@core@5@PBUSUniquePointerInfo@75@@Z 00405701 f i umodsys_lib_libmedia:umodsys.mod.media.stdio.obj
 0001:0000472a       ?root_is_interface_supported@RGenerator@stdio@media@modules@UModSys@@UBE_NPBUSUniquePointerInfo@core@5@@Z 0040572a f i umodsys_lib_libmedia:umodsys.mod.media.stdio.obj
 0001:00004749       ?ref_add@RGenerator@stdio@media@modules@UModSys@@UBEXXZ 00405749 f i umodsys_lib_libmedia:umodsys.mod.media.stdio.obj
 0001:00004749       ?ref_add@RStreamReader_FILE@stdio@media@modules@UModSys@@UBEXXZ 00405749 f i umodsys_lib_libmedia:umodsys.mod.media.stdio.obj
 0001:00004749       ?ref_add@RGenerator@std@media@modules@UModSys@@UBEXXZ 00405749 f i umodsys_lib_libmedia:umodsys.mod.media.std.obj
 0001:00004749       ?ref_add@RStreamWriter_FILE@stdio@media@modules@UModSys@@UBEXXZ 00405749 f i umodsys_lib_libmedia:umodsys.mod.media.stdio.obj
 0001:0000474d       ?ref_weak@RStreamWriter_FILE@stdio@media@modules@UModSys@@UBE_NAAUWeakPointer@IRefObject@core@5@@Z 0040574d f i umodsys_lib_libmedia:umodsys.mod.media.stdio.obj
 0001:0000474d       ?ref_weak@RGenerator@stdio@media@modules@UModSys@@UBE_NAAUWeakPointer@IRefObject@core@5@@Z 0040574d f i umodsys_lib_libmedia:umodsys.mod.media.stdio.obj
 0001:0000474d       ?ref_weak@RGenerator@std@media@modules@UModSys@@UBE_NAAUWeakPointer@IRefObject@core@5@@Z 0040574d f i umodsys_lib_libmedia:umodsys.mod.media.std.obj
 0001:0000474d       ?ref_weak@RStreamReader_FILE@stdio@media@modules@UModSys@@UBE_NAAUWeakPointer@IRefObject@core@5@@Z 0040574d f i umodsys_lib_libmedia:umodsys.mod.media.stdio.obj
 0001:0000476c       ?get_uid@RGenerator@stdio@media@modules@UModSys@@UBEPBUSUniquePointerInfo@core@5@XZ 0040576c f i umodsys_lib_libmedia:umodsys.mod.media.stdio.obj
 0001:00004772       ?do_open@RModuleReg@stdio@media@modules@UModSys@@UAE_NXZ 00405772 f i umodsys_lib_libmedia:umodsys.mod.media.stdio.obj
 0001:000047c0       ?do_close@RModuleReg@stdio@media@modules@UModSys@@UAE_NXZ 004057c0 f i umodsys_lib_libmedia:umodsys.mod.media.stdio.obj
 0001:000047fb       ?get_module@RGenerator@stdio@media@modules@UModSys@@UBEPAUIModule@base@5@XZ 004057fb f   umodsys_lib_libmedia:umodsys.mod.media.stdio.obj
 0001:00004801       ?mod_inc@RGenerator@stdio@media@modules@UModSys@@UBE_NXZ 00405801 f   umodsys_lib_libmedia:umodsys.mod.media.stdio.obj
 0001:0000480c       ?mod_dec@RGenerator@stdio@media@modules@UModSys@@UBE_NXZ 0040580c f   umodsys_lib_libmedia:umodsys.mod.media.stdio.obj
 0001:00004817       ?s_holder@RGenerator@stdio@media@modules@UModSys@@SAAAU?$TTypeStaticHolder@URGenerator@stdio@media@modules@UModSys@@@tl@5@XZ 00405817 f   umodsys_lib_libmedia:umodsys.mod.media.stdio.obj
 0001:00004849       ??$ValidateConstruction@UIStreamReader@libmedia@UModSys@@URStreamReader_FILE@stdio@media@modules@3@@core@UModSys@@YA_NAAU?$TRefObject@UIStreamReader@libmedia@UModSys@@U?$TRefObjectFunc@UIStreamReader@libmedia@UModSys@@@tl@3@@tl@1@PAURStreamReader_FILE@stdio@media@modules@1@@Z 00405849 f i umodsys_lib_libmedia:umodsys.mod.media.stdio.obj
 0001:000048a3       ??$yes@U?$TFlags4StateShift@USMediaFlagUid@libmedia@UModSys@@I$09@tl@UModSys@@@SFlags@libmedia@UModSys@@QBE_NPBUIResolverAuto@012@@Z 004058a3 f i umodsys_lib_libmedia:umodsys.mod.media.stdio.obj
 0001:000048f4       ??$ValidateConstruction@UIStreamWriter@libmedia@UModSys@@URStreamWriter_FILE@stdio@media@modules@3@@core@UModSys@@YA_NAAU?$TRefObject@UIStreamWriter@libmedia@UModSys@@U?$TRefObjectFunc@UIStreamWriter@libmedia@UModSys@@@tl@3@@tl@1@PAURStreamWriter_FILE@stdio@media@modules@1@@Z 004058f4 f i umodsys_lib_libmedia:umodsys.mod.media.stdio.obj
 0001:0000494e       ??$t_gen_param@URStreamReader_FILE@stdio@media@modules@UModSys@@URGenerator@2345@@IGenerator@base@UModSys@@IAE_NPAURGenerator@stdio@media@modules@2@AAU?$TRefObject@UIRefObject@core@UModSys@@U?$TRefObjectFunc@UIRefObject@core@UModSys@@@tl@3@@tl@2@PBUSUniquePointerInfo@core@2@ABUSParameters@core@2@@Z 0040594e f i umodsys_lib_libmedia:umodsys.mod.media.stdio.obj
 0001:000049d9       ??$t_gen_param@URStreamWriter_FILE@stdio@media@modules@UModSys@@URGenerator@2345@@IGenerator@base@UModSys@@IAE_NPAURGenerator@stdio@media@modules@2@AAU?$TRefObject@UIRefObject@core@UModSys@@U?$TRefObjectFunc@UIRefObject@core@UModSys@@@tl@3@@tl@2@PBUSUniquePointerInfo@core@2@ABUSParameters@core@2@@Z 004059d9 f i umodsys_lib_libmedia:umodsys.mod.media.stdio.obj
 0001:00004a64       ??$t_gen_param@URDataArchiver_OsDir@stdio@media@modules@UModSys@@URGenerator@2345@@IGenerator@base@UModSys@@IAE_NPAURGenerator@stdio@media@modules@2@AAU?$TRefObject@UIRefObject@core@UModSys@@U?$TRefObjectFunc@UIRefObject@core@UModSys@@@tl@3@@tl@2@PBUSUniquePointerInfo@core@2@ABUSParameters@core@2@@Z 00405a64 f i umodsys_lib_libmedia:umodsys.mod.media.stdio.obj
 0001:00004ae4       ??0SVFileName@libmedia@UModSys@@QAE@ABU?$TString@U?$TSCoreConst@D@su@tl@UModSys@@U?$TComparerBinaryHash@D@234@@tl@2@0_N@Z 00405ae4 f   umodsys_lib_libmedia:umodsys.lib.media.common.obj
 0001:00004b3f       ?init@SVFileName@libmedia@UModSys@@QAEXPBDH_N@Z 00405b3f f   umodsys_lib_libmedia:umodsys.lib.media.common.obj
 0001:00004bfa       ??$safe_snprintf@D@syshlp@core@UModSys@@YAIPADIPBDZZ 00405bfa f i umodsys_lib_libmedia:umodsys.lib.media.common.obj
 0001:00004c18       ?root_get_interface_info@RConsole_std@rsystem@base@UModSys@@UBEABUSUniquePointerInfo@core@4@XZ 00405c18 f i umodsys_lib_basesys:umodsys.basesys.rconsole_std.obj
 0001:00004c1e       ?root_get_interface_type@RConsole_std@rsystem@base@UModSys@@UBEPBUSUniquePointerInfo@core@4@XZ 00405c1e f i umodsys_lib_basesys:umodsys.basesys.rconsole_std.obj
 0001:00004c24       ?root_get_other_interface@RConsole_std@rsystem@base@UModSys@@UAEPAUIRoot@core@4@PBUSUniquePointerInfo@64@@Z 00405c24 f i umodsys_lib_basesys:umodsys.basesys.rconsole_std.obj
 0001:00004c24       ?root_get_other_interface@RConsole_std@rsystem@base@UModSys@@UBEPBUIRoot@core@4@PBUSUniquePointerInfo@64@@Z 00405c24 f i umodsys_lib_basesys:umodsys.basesys.rconsole_std.obj
 0001:00004c45       ?root_is_interface_supported@RConsole_std@rsystem@base@UModSys@@UBE_NPBUSUniquePointerInfo@core@4@@Z 00405c45 f i umodsys_lib_basesys:umodsys.basesys.rconsole_std.obj
 0001:00004c6c       ?vput@RConsole_std@rsystem@base@UModSys@@UAE_NHPBDPAD@Z 00405c6c f   umodsys_lib_basesys:umodsys.basesys.rconsole_std.obj
 0001:00004cb4       ?put@RConsole_std@rsystem@base@UModSys@@UAA_NHPBDZZ 00405cb4 f   umodsys_lib_basesys:umodsys.basesys.rconsole_std.obj
 0001:00004cfb       ?get_s@RConsole_std@rsystem@base@UModSys@@UAA_NPADIPBDZZ 00405cfb f   umodsys_lib_basesys:umodsys.basesys.rconsole_std.obj
 0001:00004cfb       ?get_c@RConsole_std@rsystem@base@UModSys@@UAA_NPAHPBDZZ 00405cfb f   umodsys_lib_basesys:umodsys.basesys.rconsole_std.obj
 0001:00004cfe       ?vget_s@RConsole_std@rsystem@base@UModSys@@UAE_NPADIPBD0@Z 00405cfe f   umodsys_lib_basesys:umodsys.basesys.rconsole_std.obj
 0001:00004d03       ?reflect@RConsole_std@rsystem@base@UModSys@@QAE_NPBD@Z 00405d03 f   umodsys_lib_basesys:umodsys.basesys.rconsole_std.obj
 0001:00004d43       ??_GRConsole_std@rsystem@base@UModSys@@UAEPAXI@Z 00405d43 f i umodsys_lib_basesys:umodsys.basesys.rconsole_std.obj
 0001:00004d43       ??_ERConsole_std@rsystem@base@UModSys@@UAEPAXI@Z 00405d43 f i  CIL library: CIL module
 0001:00004d6d       ??0EExceptionBase@core@UModSys@@QAE@PBUSSourceContext@12@HPBD@Z 00405d6d f i umodsys_lib_basesys:umodsys.basesys.rsystem_main.obj
 0001:00004d98       ?decode_error@EExceptionBase@core@UModSys@@UBEHPADI@Z 00405d98 f i umodsys_lib_basesys:umodsys.basesys.rsystem_main.obj
 0001:00004dc1       ?decode_error@EFatal@core@UModSys@@UBEHPADI@Z 00405dc1 f i umodsys_lib_basesys:umodsys.basesys.rsystem_main.obj
 0001:00004dea       ??1EWarning@core@UModSys@@UAE@XZ 00405dea f i umodsys_lib_basesys:umodsys.basesys.rsystem_main.obj
 0001:00004dea       ??1EFatal@core@UModSys@@UAE@XZ 00405dea f i umodsys_lib_basesys:umodsys.basesys.rsystem_main.obj
 0001:00004df1       ?decode_error@EWarning@core@UModSys@@UBEHPADI@Z 00405df1 f i umodsys_lib_basesys:umodsys.basesys.rsystem_main.obj
 0001:00004e1a       ??_GEFatal@core@UModSys@@UAEPAXI@Z 00405e1a f i umodsys_lib_basesys:umodsys.basesys.rsystem_main.obj
 0001:00004e1a       ??_GEExceptionBase@core@UModSys@@UAEPAXI@Z 00405e1a f i umodsys_lib_basesys:umodsys.basesys.rsystem_main.obj
 0001:00004e1a       ??_EEFatal@core@UModSys@@UAEPAXI@Z 00405e1a f i  CIL library: CIL module
 0001:00004e1a       ??_GEWarning@core@UModSys@@UAEPAXI@Z 00405e1a f i umodsys_lib_basesys:umodsys.basesys.rsystem_main.obj
 0001:00004e1a       ??_EEWarning@core@UModSys@@UAEPAXI@Z 00405e1a f i  CIL library: CIL module
 0001:00004e1a       ??_EEExceptionBase@core@UModSys@@UAEPAXI@Z 00405e1a f i  CIL library: CIL module
 0001:00004e37       ?root_get_interface_info@RSystem@rsystem@base@UModSys@@UBEABUSUniquePointerInfo@core@4@XZ 00405e37 f i umodsys_lib_basesys:umodsys.basesys.rsystem_main.obj
 0001:00004e3d       ?root_get_interface_type@RSystem@rsystem@base@UModSys@@UBEPBUSUniquePointerInfo@core@4@XZ 00405e3d f i umodsys_lib_basesys:umodsys.basesys.rsystem_main.obj
 0001:00004e43       ?root_get_other_interface@RSystem@rsystem@base@UModSys@@UBEPBUIRoot@core@4@PBUSUniquePointerInfo@64@@Z 00405e43 f i umodsys_lib_basesys:umodsys.basesys.rsystem_main.obj
 0001:00004e43       ?root_get_other_interface@RSystem@rsystem@base@UModSys@@UAEPAUIRoot@core@4@PBUSUniquePointerInfo@64@@Z 00405e43 f i umodsys_lib_basesys:umodsys.basesys.rsystem_main.obj
 0001:00004e64       ?root_is_interface_supported@RSystem@rsystem@base@UModSys@@UBE_NPBUSUniquePointerInfo@core@4@@Z 00405e64 f i umodsys_lib_basesys:umodsys.basesys.rsystem_main.obj
 0001:00004e8a       ?init@RSystem@rsystem@base@UModSys@@QAE_NXZ 00405e8a f   umodsys_lib_basesys:umodsys.basesys.rsystem_main.obj
 0001:00004f7f       ?deinit@RSystem@rsystem@base@UModSys@@QAE_NXZ 00405f7f f   umodsys_lib_basesys:umodsys.basesys.rsystem_main.obj
 0001:00005039       ?set_console@RSystem@rsystem@base@UModSys@@QAEXPAUIConsole@34@@Z 00406039 f   umodsys_lib_basesys:umodsys.basesys.rsystem_main.obj
 0001:00005060       ??0RSystem@rsystem@base@UModSys@@QAE@XZ 00406060 f   umodsys_lib_basesys:umodsys.basesys.rsystem_main.obj
 0001:000051a1       ??_GRSystem@rsystem@base@UModSys@@UAEPAXI@Z 004061a1 f i umodsys_lib_basesys:umodsys.basesys.rsystem_main.obj
 0001:000051a1       ??_ERSystem@rsystem@base@UModSys@@UAEPAXI@Z 004061a1 f i  CIL library: CIL module
 0001:000051be       ??1RSystem@rsystem@base@UModSys@@UAE@XZ 004061be f   umodsys_lib_basesys:umodsys.basesys.rsystem_main.obj
 0001:00005257       ?dbg_put@rsystem@base@UModSys@@YAXW4eRSystemDebugLevels@123@PBDZZ 00406257 f   umodsys_lib_basesys:umodsys.basesys.rsystem_main.obj
 0001:00005283       ?err_put@rsystem@base@UModSys@@YAXW4eRSystemDebugLevels@123@PBDZZ 00406283 f   umodsys_lib_basesys:umodsys.basesys.rsystem_main.obj
 0001:000052af       ??1?$TStaticStringPool@DU?$TComparerBinaryHash@D@su@tl@UModSys@@USMemAlloc_Malloc@core@4@@tl@UModSys@@QAE@XZ 004062af f i umodsys_lib_basesys:umodsys.basesys.rsystem_main.obj
 0001:000052b4       ??1?$TQuantArrayUnique@USSourceContext@core@UModSys@@$0BAA@USMemAlloc_Malloc@23@@tl@UModSys@@QAE@XZ 004062b4 f i umodsys_lib_basesys:umodsys.basesys.rsystem_main.obj
 0001:000052b4       ??1?$TQuantArrayUnique@USUniquePointerInfo@core@UModSys@@$0BAA@USMemAlloc_Malloc@23@@tl@UModSys@@QAE@XZ 004062b4 f i umodsys_lib_basesys:umodsys.basesys.rsystem_main.obj
 0001:000052ea       ??1?$TTreeHoldRBD@U?$TQuantArrayNode@USUniquePointerInfo@core@UModSys@@$0BAA@@tl@UModSys@@U?$TNodeDeleter@U?$TQuantArrayNode@USUniquePointerInfo@core@UModSys@@$0BAA@@tl@UModSys@@USMemAlloc_Malloc@core@3@@23@@tl@UModSys@@QAE@XZ 004062ea f i umodsys_lib_basesys:umodsys.basesys.rsystem_main.obj
 0001:000052ea       ??1?$TTreeHoldRBD@U?$TQuantArrayNode@USSourceContext@core@UModSys@@$0BAA@@tl@UModSys@@U?$TNodeDeleter@U?$TQuantArrayNode@USSourceContext@core@UModSys@@$0BAA@@tl@UModSys@@USMemAlloc_Malloc@core@3@@23@@tl@UModSys@@QAE@XZ 004062ea f i umodsys_lib_basesys:umodsys.basesys.rsystem_main.obj
 0001:00005300       ?mem_alloc@?$TRMemAlloc_CC@U?$TMemAllocHeader@USMagic@mem_headers@rsystem@base@UModSys@@U?$TPool@X@2345@USDebug@2345@UVoid@core@5@U895@@rsystem@base@UModSys@@USMemAlloc_Malloc@core@4@@rsystem@base@UModSys@@UAEPAXIPBUSSourceContext@core@4@@Z 00406300 f i umodsys_lib_basesys:umodsys.basesys.rsystem_main.obj
 0001:0000535a       ?mem_realloc@?$TRMemAlloc_CC@U?$TMemAllocHeader@USMagic@mem_headers@rsystem@base@UModSys@@U?$TPool@X@2345@USDebug@2345@UVoid@core@5@U895@@rsystem@base@UModSys@@USMemAlloc_Malloc@core@4@@rsystem@base@UModSys@@UAEPAXPAXIPBUSSourceContext@core@4@@Z 0040635a f i umodsys_lib_basesys:umodsys.basesys.rsystem_main.obj
 0001:000054dd       ?mem_free@?$TRMemAlloc_CC@U?$TMemAllocHeader@USMagic@mem_headers@rsystem@base@UModSys@@U?$TPool@X@2345@USDebug@2345@UVoid@core@5@U895@@rsystem@base@UModSys@@USMemAlloc_Malloc@core@4@@rsystem@base@UModSys@@UAEXPAXPBUSSourceContext@core@4@@Z 004064dd f i umodsys_lib_basesys:umodsys.basesys.rsystem_main.obj
 0001:00005577       ?free@?$TStaticStringPool@DU?$TComparerBinaryHash@D@su@tl@UModSys@@USMemAlloc_Malloc@core@4@@tl@UModSys@@QAEXXZ 00406577 f i umodsys_lib_basesys:umodsys.basesys.rsystem_main.obj
 0001:000055b2       ??$valid@U?$TRMemAlloc_CC@U?$TMemAllocHeader@USMagic@mem_headers@rsystem@base@UModSys@@U?$TPool@X@2345@USDebug@2345@UVoid@core@5@U895@@rsystem@base@UModSys@@USMemAlloc_Malloc@core@4@@rsystem@base@UModSys@@@?$TMemAllocHeader@USMagic@mem_headers@rsystem@base@UModSys@@U?$TPool@X@2345@USDebug@2345@UVoid@core@5@U895@@rsystem@base@UModSys@@QBE_NPBU?$TRMemAlloc_CC@U?$TMemAllocHeader@USMagic@mem_headers@rsystem@base@UModSys@@U?$TPool@X@2345@USDebug@2345@UVoid@core@5@U895@@rsystem@base@UModSys@@USMemAlloc_Malloc@core@4@@123@@Z 004065b2 f i umodsys_lib_basesys:umodsys.basesys.rsystem_main.obj
 0001:000055d9       ??$process@UEFatal@core@UModSys@@@IExceptionHandler@core@UModSys@@QAEXABUEFatal@12@@Z 004065d9 f i umodsys_lib_basesys:umodsys.basesys.rsystem_main.obj
 0001:0000560b       ??$process_nodes_r@U?$TNodeDeleter@U?$TQuantArrayNode@USUniquePointerInfo@core@UModSys@@$0BAA@@tl@UModSys@@USMemAlloc_Malloc@core@3@@tl@UModSys@@@?$TTreeHoldRB@U?$TQuantArrayNode@USUniquePointerInfo@core@UModSys@@$0BAA@@tl@UModSys@@@tl@UModSys@@KAHPAU?$TQuantArrayNode@USUniquePointerInfo@core@UModSys@@$0BAA@@12@ABU?$TNodeDeleter@U?$TQuantArrayNode@USUniquePointerInfo@core@UModSys@@$0BAA@@tl@UModSys@@USMemAlloc_Malloc@core@3@@12@@Z 0040660b f i umodsys_lib_basesys:umodsys.basesys.rsystem_main.obj
 0001:0000560b       ??$process_nodes_r@U?$TNodeDeleter@U?$TQuantArrayNode@USSourceContext@core@UModSys@@$0BAA@@tl@UModSys@@USMemAlloc_Malloc@core@3@@tl@UModSys@@@?$TTreeHoldRB@U?$TQuantArrayNode@USSourceContext@core@UModSys@@$0BAA@@tl@UModSys@@@tl@UModSys@@KAHPAU?$TQuantArrayNode@USSourceContext@core@UModSys@@$0BAA@@12@ABU?$TNodeDeleter@U?$TQuantArrayNode@USSourceContext@core@UModSys@@$0BAA@@tl@UModSys@@USMemAlloc_Malloc@core@3@@12@@Z 0040660b f i umodsys_lib_basesys:umodsys.basesys.rsystem_main.obj
 0001:0000564d       ??0EFatal@core@UModSys@@QAE@ABU012@@Z 0040664d f i umodsys_lib_basesys:umodsys.basesys.rsystem_main.obj
 0001:00005665       ??0EExceptionBase@core@UModSys@@QAE@ABU012@@Z 00406665 f i umodsys_lib_basesys:umodsys.basesys.rsystem_main.obj
 0001:0000568d       ??0EWarning@core@UModSys@@QAE@ABU012@@Z 0040668d f i umodsys_lib_basesys:umodsys.basesys.rsystem_main.obj
 0001:000056a5       ?exec_test_shells@RSystem@rsystem@base@UModSys@@QAE_NXZ 004066a5 f   umodsys_lib_basesys:umodsys.basesys.rsystem_tests.obj
 0001:0000581b       ??1?$TParametersA@$0EAA@@core@UModSys@@QAE@XZ 0040681b f i umodsys_lib_basesys:umodsys.basesys.rsystem_tests.obj
 0001:00005828       ??$t_moduledb_generate@UIShell@base@UModSys@@@IModuleLoader@base@UModSys@@QAE_NAAU?$TRefObject@UIShell@base@UModSys@@U?$TRefObjectFunc@UIShell@base@UModSys@@@tl@3@@tl@2@PBUSUniquePointerInfo@core@2@ABUSParameters@62@@Z 00406828 f i umodsys_lib_basesys:umodsys.basesys.rsystem_tests.obj
 0001:000058ba       ?eq@SModuleInfo@base@UModSys@@QBE_NABU?$TString@U?$TSCoreConst@D@su@tl@UModSys@@U?$TComparerBinaryHash@D@234@@tl@3@ABUSVersion@core@3@@Z 004068ba f i umodsys_lib_basesys:umodsys.basesys.rmoduleloader.obj
 0001:000058df       ?moduledb_findobjname@RModuleLoader@rsystem@base@UModSys@@UAEIPBUSUniquePointerInfo@core@4@QAPBU564@IPBD@Z 004068df f   umodsys_lib_basesys:umodsys.basesys.rmoduleloader.obj
 0001:0000594c       ?moduledb_generate@RModuleLoader@rsystem@base@UModSys@@UAE_NAAU?$TRefObject@UIRefObject@core@UModSys@@U?$TRefObjectFunc@UIRefObject@core@UModSys@@@tl@3@@tl@4@PBUSUniquePointerInfo@core@4@ABUSParameters@84@@Z 0040694c f   umodsys_lib_basesys:umodsys.basesys.rmoduleloader.obj
 0001:000059a1       ?moduledb_lib_count@RModuleLoader@rsystem@base@UModSys@@UAEIXZ 004069a1 f   umodsys_lib_basesys:umodsys.basesys.rmoduleloader.obj
 0001:000059a6       ?moduledb_lib_get@RModuleLoader@rsystem@base@UModSys@@UBEPAUIModuleLibrary@34@I@Z 004069a6 f   umodsys_lib_basesys:umodsys.basesys.rmoduleloader.obj
 0001:000059c6       ?moduledb_module_count@RModuleLoader@rsystem@base@UModSys@@UAEIXZ 004069c6 f   umodsys_lib_basesys:umodsys.basesys.rmoduleloader.obj
 0001:000059e8       ?moduledb_module_get@RModuleLoader@rsystem@base@UModSys@@UBEPAUIModule@34@I@Z 004069e8 f   umodsys_lib_basesys:umodsys.basesys.rmoduleloader.obj
 0001:00005a36       ?moduledb_find@RModuleLoader@rsystem@base@UModSys@@UBEPAUIModule@34@ABU?$TString@U?$TSCoreConst@D@su@tl@UModSys@@U?$TComparerBinaryHash@D@234@@tl@4@ABUSVersion@core@4@@Z 00406a36 f   umodsys_lib_basesys:umodsys.basesys.rmoduleloader.obj
 0001:00005aed       ?moduledb_clear@RModuleLoader@rsystem@base@UModSys@@UAEXXZ 00406aed f   umodsys_lib_basesys:umodsys.basesys.rmoduleloader.obj
 0001:00005b3c       ?moduledb_cleanup@RModuleLoader@rsystem@base@UModSys@@UAEIXZ 00406b3c f   umodsys_lib_basesys:umodsys.basesys.rmoduleloader.obj
 0001:00005c3e       ?moduledb_load@RModuleLoader@rsystem@base@UModSys@@UAE_NABU?$TString@U?$TSCoreConst@D@su@tl@UModSys@@U?$TComparerBinaryHash@D@234@@tl@4@@Z 00406c3e f   umodsys_lib_basesys:umodsys.basesys.rmoduleloader.obj
 0001:00005c3e       ?moduledb_lib_drop@RModuleLoader@rsystem@base@UModSys@@UAE_NPAUIModuleLibrary@34@@Z 00406c3e f   umodsys_lib_basesys:umodsys.basesys.rmoduleloader.obj
 0001:00005c3e       ?ref_weak@RConsole_std@rsystem@base@UModSys@@UBE_NAAUWeakPointer@IRefObject@core@4@@Z 00406c3e f   umodsys_lib_basesys:umodsys.basesys.rconsole_std.obj
 0001:00005c43       ?moduledb_save@RModuleLoader@rsystem@base@UModSys@@UAE_NABU?$TString@U?$TSCoreConst@D@su@tl@UModSys@@U?$TComparerBinaryHash@D@234@@tl@4@@Z 00406c43 f   umodsys_lib_basesys:umodsys.basesys.rmoduleloader.obj
 0001:00005cc3       ?moduledb_scan@RModuleLoader@rsystem@base@UModSys@@UAEIABU?$TString@U?$TSCoreConst@D@su@tl@UModSys@@U?$TComparerBinaryHash@D@234@@tl@4@_N@Z 00406cc3 f   umodsys_lib_basesys:umodsys.basesys.rmoduleloader.obj
 0001:00005d51       ?moduledb_get_string@RModuleLoader@rsystem@base@UModSys@@UAEABU?$TString@U?$TSCoreConst@D@su@tl@UModSys@@U?$TComparerBinaryHash@D@234@@tl@4@ABU564@@Z 00406d51 f   umodsys_lib_basesys:umodsys.basesys.rmoduleloader.obj
 0001:00005d63       ??_GRModuleLoader@rsystem@base@UModSys@@UAEPAXI@Z 00406d63 f i umodsys_lib_basesys:umodsys.basesys.rmoduleloader.obj
 0001:00005d63       ??_ERModuleLoader@rsystem@base@UModSys@@UAEPAXI@Z 00406d63 f i  CIL library: CIL module
 0001:00005d80       ??_GIModuleLoader@base@UModSys@@UAEPAXI@Z 00406d80 f i umodsys_lib_basesys:umodsys.basesys.rmoduleloader.obj
 0001:00005d80       ??_EIModuleLoader@base@UModSys@@UAEPAXI@Z 00406d80 f i  CIL library: CIL module
 0001:00005d9d       ??1RModuleLoader@rsystem@base@UModSys@@UAE@XZ 00406d9d f   umodsys_lib_basesys:umodsys.basesys.rmoduleloader.obj
 0001:00005e03       ?append@?$TStaticStringPool@DU?$TComparerBinaryHash@D@su@tl@UModSys@@USMemAlloc_Malloc@core@4@@tl@UModSys@@QAEPBU?$TString@U?$TSCoreConst@D@su@tl@UModSys@@U?$TComparerBinaryHash@D@234@@23@PBD@Z 00406e03 f i umodsys_lib_basesys:umodsys.basesys.rmoduleloader.obj
 0001:00005e33       ??1?$TDynarrayDynamic@U?$TRefObject@URModuleLibrarySO@rsystem@base@UModSys@@U?$TRefObjectFunc@URModuleLibrarySO@rsystem@base@UModSys@@@tl@4@@tl@UModSys@@U?$TAllocator@USMemAlloc_Malloc@core@UModSys@@USCountCalcPower2@23@@23@@tl@UModSys@@QAE@XZ 00406e33 f i umodsys_lib_basesys:umodsys.basesys.rmoduleloader.obj
 0001:00005e51       ?Free@?$TDynarray@U?$TDynarrayHolderDynamic@U?$TRefObject@URModuleLibrarySO@rsystem@base@UModSys@@U?$TRefObjectFunc@URModuleLibrarySO@rsystem@base@UModSys@@@tl@4@@tl@UModSys@@U?$TAllocator@USMemAlloc_Malloc@core@UModSys@@USCountCalcPower2@23@@23@@tl@UModSys@@@tl@UModSys@@QAE_NXZ 00406e51 f i umodsys_lib_basesys:umodsys.basesys.rmoduleloader.obj
 0001:00005e79       ?Resize@?$TDynarray@U?$TDynarrayHolderDynamic@U?$TRefObject@URModuleLibrarySO@rsystem@base@UModSys@@U?$TRefObjectFunc@URModuleLibrarySO@rsystem@base@UModSys@@@tl@4@@tl@UModSys@@U?$TAllocator@USMemAlloc_Malloc@core@UModSys@@USCountCalcPower2@23@@23@@tl@UModSys@@@tl@UModSys@@QAE_NI@Z 00406e79 f i umodsys_lib_basesys:umodsys.basesys.rmoduleloader.obj
 0001:00005ed3       ?append@?$TStaticStringPool@DU?$TComparerBinaryHash@D@su@tl@UModSys@@USMemAlloc_Malloc@core@4@@tl@UModSys@@QAEPBU?$TString@U?$TSCoreConst@D@su@tl@UModSys@@U?$TComparerBinaryHash@D@234@@23@PBDI@Z 00406ed3 f i umodsys_lib_basesys:umodsys.basesys.rmoduleloader.obj
 0001:00005ff2       ?ReLink@?$TDynarray@U?$TDynarrayHolderDynamic@U?$TRefObject@URModule@rsystem@base@UModSys@@U?$TRefObjectFunc@URModule@rsystem@base@UModSys@@@tl@4@@tl@UModSys@@U?$TAllocator@USMemAlloc_Malloc@core@UModSys@@USCountCalcPower2@23@@23@@tl@UModSys@@@tl@UModSys@@IAE_NI@Z 00406ff2 f i umodsys_lib_basesys:umodsys.basesys.rmodulelib.obj
 0001:00005ff2       ?ReLink@?$TDynarray@U?$TDynarrayHolderDynamic@U?$TRefObject@URModuleLibrarySO@rsystem@base@UModSys@@U?$TRefObjectFunc@URModuleLibrarySO@rsystem@base@UModSys@@@tl@4@@tl@UModSys@@U?$TAllocator@USMemAlloc_Malloc@core@UModSys@@USCountCalcPower2@23@@23@@tl@UModSys@@@tl@UModSys@@IAE_NI@Z 00406ff2 f i umodsys_lib_basesys:umodsys.basesys.rmoduleloader.obj
 0001:0000602e       ?items_destruct@?$TDynarray@U?$TDynarrayHolderDynamic@U?$TRefObject@URModuleLibrarySO@rsystem@base@UModSys@@U?$TRefObjectFunc@URModuleLibrarySO@rsystem@base@UModSys@@@tl@4@@tl@UModSys@@U?$TAllocator@USMemAlloc_Malloc@core@UModSys@@USCountCalcPower2@23@@23@@tl@UModSys@@@tl@UModSys@@IAEXII@Z 0040702e f i umodsys_lib_basesys:umodsys.basesys.rmoduleloader.obj
 0001:00006059       ?append@CharChunk@?$TStaticStringPool@DU?$TComparerBinaryHash@D@su@tl@UModSys@@USMemAlloc_Malloc@core@4@@tl@UModSys@@QAEPADPBDI@Z 00407059 f i umodsys_lib_basesys:umodsys.basesys.rmoduleloader.obj
 0001:00006082       ?append@StringChunk@?$TStaticStringPool@DU?$TComparerBinaryHash@D@su@tl@UModSys@@USMemAlloc_Malloc@core@4@@tl@UModSys@@QAEPAU?$TString@U?$TSCoreConst@D@su@tl@UModSys@@U?$TComparerBinaryHash@D@234@@34@PBD@Z 00407082 f i umodsys_lib_basesys:umodsys.basesys.rmoduleloader.obj
 0001:000060a5       ?find_s@?$TStaticStringPool@DU?$TComparerBinaryHash@D@su@tl@UModSys@@USMemAlloc_Malloc@core@4@@tl@UModSys@@QBEPBU?$TString@U?$TSCoreConst@D@su@tl@UModSys@@U?$TComparerBinaryHash@D@234@@23@ABU423@@Z 004070a5 f i umodsys_lib_basesys:umodsys.basesys.rmoduleloader.obj
 0001:000060f9       ?_root_is_interface_supported@IModuleLibraryUni@rsystem@base@UModSys@@SA_NPBUSUniquePointerInfo@core@4@@Z 004070f9 f i umodsys_lib_basesys:umodsys.basesys.rmodulelibthis.obj
 0001:00006119       ?root_get_interface_info@RModuleLibraryThis@rsystem@base@UModSys@@UBEABUSUniquePointerInfo@core@4@XZ 00407119 f i umodsys_lib_basesys:umodsys.basesys.rmodulelibthis.obj
 0001:0000611f       ?root_get_interface_type@RModuleLibraryThis@rsystem@base@UModSys@@UBEPBUSUniquePointerInfo@core@4@XZ 0040711f f i umodsys_lib_basesys:umodsys.basesys.rmodulelibthis.obj
 0001:00006125       ?root_get_other_interface@RModuleLibraryThis@rsystem@base@UModSys@@UAEPAUIRoot@core@4@PBUSUniquePointerInfo@64@@Z 00407125 f i umodsys_lib_basesys:umodsys.basesys.rmodulelibthis.obj
 0001:00006125       ?root_get_other_interface@RModuleLibraryThis@rsystem@base@UModSys@@UBEPBUIRoot@core@4@PBUSUniquePointerInfo@64@@Z 00407125 f i umodsys_lib_basesys:umodsys.basesys.rmodulelibthis.obj
 0001:0000614e       ?root_is_interface_supported@RModuleLibraryThis@rsystem@base@UModSys@@UBE_NPBUSUniquePointerInfo@core@4@@Z 0040714e f i umodsys_lib_basesys:umodsys.basesys.rmodulelibthis.obj
 0001:0000616d       ?ref_add@RModuleLibraryThis@rsystem@base@UModSys@@UBEXXZ 0040716d f i umodsys_lib_basesys:umodsys.basesys.rmodulelibthis.obj
 0001:00006171       ?ref_remove@RModuleLibraryThis@rsystem@base@UModSys@@UBEXXZ 00407171 f i umodsys_lib_basesys:umodsys.basesys.rmodulelibthis.obj
 0001:0000617c       ?ref_links@RModuleLibraryThis@rsystem@base@UModSys@@UBEHXZ 0040717c f i umodsys_lib_basesys:umodsys.basesys.rmodulelibthis.obj
 0001:00006180       ?ref_weak@RModuleLibraryThis@rsystem@base@UModSys@@UBE_NAAUWeakPointer@IRefObject@core@4@@Z 00407180 f i umodsys_lib_basesys:umodsys.basesys.rmodulelibthis.obj
 0001:0000619f       ?suicide@IRoot@core@UModSys@@UAEXXZ 0040719f f i umodsys_lib_core:umodsys.core.objects.obj
 0001:0000619f       ?suicide@RParameters@rsystem@base@UModSys@@UAEXXZ 0040719f f i umodsys_lib_basesys:umodsys.basesys.rparameters.obj
 0001:0000619f       ?suicide@RModuleLibraryThis@rsystem@base@UModSys@@UAEXXZ 0040719f f i umodsys_lib_basesys:umodsys.basesys.rmodulelibthis.obj
 0001:0000619f       ?suicide@RModuleLibrarySO@rsystem@base@UModSys@@UAEXXZ 0040719f f i umodsys_lib_basesys:umodsys.basesys.rmodulelibso.obj
 0001:000061aa       ?uni_load@RModuleLibraryThis@rsystem@base@UModSys@@UAE_NXZ 004071aa f   umodsys_lib_basesys:umodsys.basesys.rmodulelibthis.obj
 0001:000061b4       ?uni_close@RModuleLibraryThis@rsystem@base@UModSys@@UAE_NXZ 004071b4 f   umodsys_lib_basesys:umodsys.basesys.rmodulelibthis.obj
 0001:000061b4       ?uni_open@RModuleLibraryThis@rsystem@base@UModSys@@UAE_NXZ 004071b4 f   umodsys_lib_basesys:umodsys.basesys.rmodulelibthis.obj
 0001:000061b4       ?uni_unload@RModuleLibraryThis@rsystem@base@UModSys@@UAE_NXZ 004071b4 f   umodsys_lib_basesys:umodsys.basesys.rmodulelibthis.obj
 0001:000061b7       ??_ERModuleLibraryThis@rsystem@base@UModSys@@UAEPAXI@Z 004071b7 f i  CIL library: CIL module
 0001:000061b7       ??_GRModuleLibraryThis@rsystem@base@UModSys@@UAEPAXI@Z 004071b7 f i umodsys_lib_basesys:umodsys.basesys.rmodulelibthis.obj
 0001:000061fe       ?get_sys_libname@IModuleLibraryUni@rsystem@base@UModSys@@UBE?AU?$TString@U?$TSCoreConst@D@su@tl@UModSys@@U?$TComparerBinaryHash@D@234@@tl@4@XZ 004071fe f   umodsys_lib_basesys:umodsys.basesys.rmodulelib.obj
 0001:00006216       ?get_privmem@IModuleLibraryUni@rsystem@base@UModSys@@UBEPAUIMemAlloc@core@4@XZ 00407216 f   umodsys_lib_basesys:umodsys.basesys.rmodulelib.obj
 0001:0000621a       ?get_module_count@IModuleLibraryUni@rsystem@base@UModSys@@UBEIXZ 0040721a f   umodsys_lib_basesys:umodsys.basesys.rmodulelib.obj
 0001:0000621e       ?get_module@IModuleLibraryUni@rsystem@base@UModSys@@UBEPAUIModule@34@I@Z 0040721e f   umodsys_lib_basesys:umodsys.basesys.rmodulelib.obj
 0001:00006234       ?lib_loaded@IModuleLibraryUni@rsystem@base@UModSys@@UBE_NXZ 00407234 f   umodsys_lib_basesys:umodsys.basesys.rmodulelib.obj
 0001:0000623d       ?lib_load@IModuleLibraryUni@rsystem@base@UModSys@@UAE_NXZ 0040723d f   umodsys_lib_basesys:umodsys.basesys.rmodulelib.obj
 0001:0000625a       ?lib_unload@IModuleLibraryUni@rsystem@base@UModSys@@UAE_NXZ 0040725a f   umodsys_lib_basesys:umodsys.basesys.rmodulelib.obj
 0001:0000626e       ?lib_free@IModuleLibraryUni@rsystem@base@UModSys@@UAE_NXZ 0040726e f   umodsys_lib_basesys:umodsys.basesys.rmodulelib.obj
 0001:00006287       ?lib_findobjname@IModuleLibraryUni@rsystem@base@UModSys@@UAEIPBUSUniquePointerInfo@core@4@QAPBU564@IPBD@Z 00407287 f   umodsys_lib_basesys:umodsys.basesys.rmodulelib.obj
 0001:000062e0       ?lib_generate@IModuleLibraryUni@rsystem@base@UModSys@@UAE_NAAU?$TRefObject@UIRefObject@core@UModSys@@U?$TRefObjectFunc@UIRefObject@core@UModSys@@@tl@3@@tl@4@PBUSUniquePointerInfo@core@4@ABUSParameters@84@@Z 004072e0 f   umodsys_lib_basesys:umodsys.basesys.rmodulelib.obj
 0001:0000631b       ?cleanup@IModuleLibraryUni@rsystem@base@UModSys@@QAEIXZ 0040731b f   umodsys_lib_basesys:umodsys.basesys.rmodulelib.obj
 0001:00006347       ?load0@IModuleLibraryUni@rsystem@base@UModSys@@QAE_NXZ 00407347 f   umodsys_lib_basesys:umodsys.basesys.rmodulelib.obj
 0001:0000638c       ?link@IModuleLibraryUni@rsystem@base@UModSys@@QAE_NXZ 0040738c f   umodsys_lib_basesys:umodsys.basesys.rmodulelib.obj
 0001:0000650e       ?unlink@IModuleLibraryUni@rsystem@base@UModSys@@QAE_NXZ 0040750e f   umodsys_lib_basesys:umodsys.basesys.rmodulelib.obj
 0001:00006541       ?scan@IModuleLibraryUni@rsystem@base@UModSys@@QAE_NXZ 00407541 f   umodsys_lib_basesys:umodsys.basesys.rmodulelib.obj
 0001:0000658d       ?save_db@IModuleLibraryUni@rsystem@base@UModSys@@QAE_NPAU_iobuf@@@Z 0040758d f   umodsys_lib_basesys:umodsys.basesys.rmodulelib.obj
 0001:000065ef       ??0IModuleLibraryUni@rsystem@base@UModSys@@QAE@PAUISystem@23@PAUIModuleLibraryReg@23@@Z 004075ef f   umodsys_lib_basesys:umodsys.basesys.rmodulelib.obj
 0001:00006633       ??_EIModuleLibraryUni@rsystem@base@UModSys@@UAEPAXI@Z 00407633 f i  CIL library: CIL module
 0001:00006633       ??_GIModuleLibraryUni@rsystem@base@UModSys@@UAEPAXI@Z 00407633 f i umodsys_lib_basesys:umodsys.basesys.rmodulelib.obj
 0001:0000664f       ??1IModuleLibraryUni@rsystem@base@UModSys@@UAE@XZ 0040764f f   umodsys_lib_basesys:umodsys.basesys.rmodulelib.obj
 0001:00006675       ??1?$TDynarray@U?$TDynarrayHolderDynamic@U?$TRefObject@URModule@rsystem@base@UModSys@@U?$TRefObjectFunc@URModule@rsystem@base@UModSys@@@tl@4@@tl@UModSys@@U?$TAllocator@USMemAlloc_Malloc@core@UModSys@@USCountCalcPower2@23@@23@@tl@UModSys@@@tl@UModSys@@QAE@XZ 00407675 f i umodsys_lib_basesys:umodsys.basesys.rmodulelib.obj
 0001:000066ad       ?ResizeRel@?$TDynarray@U?$TDynarrayHolderDynamic@U?$TRefObject@URModule@rsystem@base@UModSys@@U?$TRefObjectFunc@URModule@rsystem@base@UModSys@@@tl@4@@tl@UModSys@@U?$TAllocator@USMemAlloc_Malloc@core@UModSys@@USCountCalcPower2@23@@23@@tl@UModSys@@@tl@UModSys@@QAE_NH@Z 004076ad f i umodsys_lib_basesys:umodsys.basesys.rmodulelib.obj
 0001:0000672d       ?info_release@?$TSCoreShared@USMemAlloc_Malloc@core@UModSys@@D@su@tl@UModSys@@QAEXXZ 0040772d f i umodsys_lib_basesys:umodsys.basesys.rmodulelib.obj
 0001:00006757       ?check_leaks@?$TRMemAlloc_CC@U?$TMemAllocHeader@USMagic@mem_headers@rsystem@base@UModSys@@U?$TPool@X@2345@USDebug@2345@UVoid@core@5@U895@@rsystem@base@UModSys@@USMemAlloc_Malloc@core@4@@rsystem@base@UModSys@@QAEI_NPAUIExceptionHandler@core@4@@Z 00407757 f i umodsys_lib_basesys:umodsys.basesys.rmodulelib.obj
 0001:000067c7       ?scalar_compare@core@UModSys@@YAHABUSUniquePointerInfo@12@0@Z 004077c7 f i umodsys_lib_basesys:umodsys.basesys.rsystem.obj
 0001:0000680a       ?upi_add@RSystem@rsystem@base@UModSys@@UAEPBUSUniquePointerInfo@core@4@PBU564@@Z 0040780a f   umodsys_lib_basesys:umodsys.basesys.rsystem.obj
 0001:00006891       ?upi_remove@RSystem@rsystem@base@UModSys@@UAEHPBUSUniquePointerInfo@core@4@@Z 00407891 f   umodsys_lib_basesys:umodsys.basesys.rsystem.obj
 0001:00006897       ?persist_ctx@RSystem@rsystem@base@UModSys@@UAEPBUSSourceContext@core@4@PBU564@@Z 00407897 f   umodsys_lib_basesys:umodsys.basesys.rsystem.obj
 0001:0000691e       ?get_params@RSystem@rsystem@base@UModSys@@UAEPAUIParameters@core@4@XZ 0040791e f   umodsys_lib_basesys:umodsys.basesys.rsystem.obj
 0001:00006922       ?get_console@RSystem@rsystem@base@UModSys@@UAEPAUIConsole@34@XZ 00407922 f   umodsys_lib_basesys:umodsys.basesys.rsystem.obj
 0001:00006922       ?ref_links@RParameters@rsystem@base@UModSys@@UBEHXZ 00407922 f   umodsys_lib_basesys:umodsys.basesys.rparameters.obj
 0001:00006926       ?get_sysmem@RSystem@rsystem@base@UModSys@@UAEPAUIMemAlloc@core@4@XZ 00407926 f   umodsys_lib_basesys:umodsys.basesys.rsystem.obj
 0001:0000692d       ?get_sharemem@RSystem@rsystem@base@UModSys@@UAEPAUIMemAlloc@core@4@XZ 0040792d f   umodsys_lib_basesys:umodsys.basesys.rsystem.obj
 0001:00006934       ?get_modloader@RSystem@rsystem@base@UModSys@@UAEPAUIModuleLoader@34@XZ 00407934 f   umodsys_lib_basesys:umodsys.basesys.rsystem.obj
 0001:00006938       ?get_upr@RSystem@rsystem@base@UModSys@@UAEPAUIUniquePointerResolver@core@4@XZ 00407938 f   umodsys_lib_basesys:umodsys.basesys.rsystem.obj
 0001:00006943       ?get_sca@RSystem@rsystem@base@UModSys@@UAEPAUISourceContextAdapter@core@4@XZ 00407943 f   umodsys_lib_basesys:umodsys.basesys.rsystem.obj
 0001:0000694e       ?find@?$TQuantArrayUnique@USUniquePointerInfo@core@UModSys@@$0BAA@USMemAlloc_Malloc@23@@tl@UModSys@@QAEPBUSUniquePointerInfo@core@3@ABU453@@Z 0040794e f i umodsys_lib_basesys:umodsys.basesys.rsystem.obj
 0001:000069ac       ?add@?$TQuantArrayUnique@USUniquePointerInfo@core@UModSys@@$0BAA@USMemAlloc_Malloc@23@@tl@UModSys@@QAEPAUSUniquePointerInfo@core@3@ABU453@@Z 004079ac f i umodsys_lib_basesys:umodsys.basesys.rsystem.obj
 0001:000069ac       ?add@?$TQuantArrayUnique@USSourceContext@core@UModSys@@$0BAA@USMemAlloc_Malloc@23@@tl@UModSys@@QAEPAUSSourceContext@core@3@ABU453@@Z 004079ac f i umodsys_lib_basesys:umodsys.basesys.rsystem.obj
 0001:00006abc       ?find@?$TQuantArrayUnique@USSourceContext@core@UModSys@@$0BAA@USMemAlloc_Malloc@23@@tl@UModSys@@QAEPBUSSourceContext@core@3@ABU453@@Z 00407abc f i umodsys_lib_basesys:umodsys.basesys.rsystem.obj
 0001:00006b5b       ?next_node@?$TTreeHoldRB@U?$TQuantArrayNode@USSourceContext@core@UModSys@@$0BAA@@tl@UModSys@@@tl@UModSys@@SAPAU?$TQuantArrayNode@USSourceContext@core@UModSys@@$0BAA@@23@PAU423@@Z 00407b5b f i umodsys_lib_basesys:umodsys.basesys.rsystem.obj
 0001:00006b5b       ?next_node@?$TTreeHoldRB@U?$TQuantArrayNode@USUniquePointerInfo@core@UModSys@@$0BAA@@tl@UModSys@@@tl@UModSys@@SAPAU?$TQuantArrayNode@USUniquePointerInfo@core@UModSys@@$0BAA@@23@PAU423@@Z 00407b5b f i umodsys_lib_basesys:umodsys.basesys.rsystem_main.obj
 0001:00006b80       ?root_get_interface_info@RParameters@rsystem@base@UModSys@@UBEABUSUniquePointerInfo@core@4@XZ 00407b80 f i umodsys_lib_basesys:umodsys.basesys.rparameters.obj
 0001:00006b86       ?root_get_interface_type@RParameters@rsystem@base@UModSys@@UBEPBUSUniquePointerInfo@core@4@XZ 00407b86 f i umodsys_lib_basesys:umodsys.basesys.rparameters.obj
 0001:00006b8c       ?root_get_other_interface@RParameters@rsystem@base@UModSys@@UBEPBUIRoot@core@4@PBUSUniquePointerInfo@64@@Z 00407b8c f i umodsys_lib_basesys:umodsys.basesys.rparameters.obj
 0001:00006b8c       ?root_get_other_interface@RParameters@rsystem@base@UModSys@@UAEPAUIRoot@core@4@PBUSUniquePointerInfo@64@@Z 00407b8c f i umodsys_lib_basesys:umodsys.basesys.rparameters.obj
 0001:00006bad       ?root_is_interface_supported@RParameters@rsystem@base@UModSys@@UBE_NPBUSUniquePointerInfo@core@4@@Z 00407bad f i umodsys_lib_basesys:umodsys.basesys.rparameters.obj
 0001:00006bd4       ?ref_add@RParameters@rsystem@base@UModSys@@UBEXXZ 00407bd4 f i umodsys_lib_basesys:umodsys.basesys.rparameters.obj
 0001:00006bd8       ?ref_remove@RParameters@rsystem@base@UModSys@@UBEXXZ 00407bd8 f i umodsys_lib_basesys:umodsys.basesys.rparameters.obj
 0001:00006be3       ?ref_weak@RParameters@rsystem@base@UModSys@@UBE_NAAUWeakPointer@IRefObject@core@4@@Z 00407be3 f i umodsys_lib_basesys:umodsys.basesys.rparameters.obj
 0001:00006c02       ?find_elem@RParameters@rsystem@base@UModSys@@IAEPBUElem@1234@PBXHHHPBD@Z 00407c02 f   umodsys_lib_basesys:umodsys.basesys.rparameters.obj
 0001:00006c7b       ?estimate_size@RParameters@rsystem@base@UModSys@@IAEHAAUElem@1234@HPBDHH@Z 00407c7b f   umodsys_lib_basesys:umodsys.basesys.rparameters.obj
 0001:00006ce0       ?free_elems@RParameters@rsystem@base@UModSys@@IAEXPAXH@Z 00407ce0 f   umodsys_lib_basesys:umodsys.basesys.rparameters.obj
 0001:00006d38       ?alloc_elems@RParameters@rsystem@base@UModSys@@IAEXPAXH@Z 00407d38 f   umodsys_lib_basesys:umodsys.basesys.rparameters.obj
 0001:00006d89       ?add_last@RParameters@rsystem@base@UModSys@@IAE_NPAUSParametersData@core@4@PBDPBXH@Z 00407d89 f   umodsys_lib_basesys:umodsys.basesys.rparameters.obj
 0001:00006f51       ?p_deinit@RParameters@rsystem@base@UModSys@@UAEXPAUSParametersData@core@4@@Z 00407f51 f   umodsys_lib_basesys:umodsys.basesys.rparameters.obj
 0001:00006fa6       ?p_init@RParameters@rsystem@base@UModSys@@UAEXPAUSParametersData@core@4@H@Z 00407fa6 f   umodsys_lib_basesys:umodsys.basesys.rparameters.obj
 0001:00006fea       ?p_init@RParameters@rsystem@base@UModSys@@UAEXPAUSParametersData@core@4@ABU564@@Z 00407fea f   umodsys_lib_basesys:umodsys.basesys.rparameters.obj
 0001:00007071       ?p_copy@RParameters@rsystem@base@UModSys@@UAEXPAUSParametersData@core@4@ABU564@@Z 00408071 f   umodsys_lib_basesys:umodsys.basesys.rparameters.obj
 0001:00007163       ?p_init_s@RParameters@rsystem@base@UModSys@@UAEXPAUSParametersData@core@4@PAXH@Z 00408163 f   umodsys_lib_basesys:umodsys.basesys.rparameters.obj
 0001:0000718d       ?p_init_s@RParameters@rsystem@base@UModSys@@UAEXPAUSParametersData@core@4@ABU564@PAXH@Z 0040818d f   umodsys_lib_basesys:umodsys.basesys.rparameters.obj
 0001:000071f6       ?next@RParameters@rsystem@base@UModSys@@UAE_NPBUSParametersData@core@4@AAPBD@Z 004081f6 f   umodsys_lib_basesys:umodsys.basesys.rparameters.obj
 0001:00007299       ?next@RParameters@rsystem@base@UModSys@@UAE_NPBUSParametersData@core@4@AAU?$TString@U?$TSCoreConst@D@su@tl@UModSys@@U?$TComparerBinaryHash@D@234@@tl@4@@Z 00408299 f   umodsys_lib_basesys:umodsys.basesys.rparameters.obj
 0001:0000733a       ?add@RParameters@rsystem@base@UModSys@@UAE_NPAUSParametersData@core@4@PBD1@Z 0040833a f   umodsys_lib_basesys:umodsys.basesys.rparameters.obj
 0001:00007350       ?add@RParameters@rsystem@base@UModSys@@UAE_NPAUSParametersData@core@4@PBDH@Z 00408350 f   umodsys_lib_basesys:umodsys.basesys.rparameters.obj
 0001:00007367       ?add@RParameters@rsystem@base@UModSys@@UAE_NPAUSParametersData@core@4@PBDABN@Z 00408367 f   umodsys_lib_basesys:umodsys.basesys.rparameters.obj
 0001:0000737d       ?add@RParameters@rsystem@base@UModSys@@UAE_NPAUSParametersData@core@4@PBDPAUIRefObject@64@@Z 0040837d f   umodsys_lib_basesys:umodsys.basesys.rparameters.obj
 0001:00007394       ?get@RParameters@rsystem@base@UModSys@@UAE_NPBUSParametersData@core@4@PBDAAPBD@Z 00408394 f   umodsys_lib_basesys:umodsys.basesys.rparameters.obj
 0001:000073e8       ?get@RParameters@rsystem@base@UModSys@@UAE_NPBUSParametersData@core@4@PBDAAH@Z 004083e8 f   umodsys_lib_basesys:umodsys.basesys.rparameters.obj
 0001:0000743c       ?get@RParameters@rsystem@base@UModSys@@UAE_NPBUSParametersData@core@4@PBDAAN@Z 0040843c f   umodsys_lib_basesys:umodsys.basesys.rparameters.obj
 0001:00007490       ?get@RParameters@rsystem@base@UModSys@@UAE_NPBUSParametersData@core@4@PBDAAPAUIRefObject@64@@Z 00408490 f   umodsys_lib_basesys:umodsys.basesys.rparameters.obj
 0001:000074e4       ??$shash@D@su@tl@UModSys@@YAHPBD@Z 004084e4 f i umodsys_lib_basesys:umodsys.basesys.rparameters.obj
 0001:00007500       ??$t_alloc@UIMemAlloc@core@UModSys@@@SMemChunk@core@UModSys@@QAE_NAAUIMemAlloc@12@IPBUSSourceContext@12@@Z 00408500 f i umodsys_lib_basesys:umodsys.basesys.rparameters.obj
 0001:000075c1       ?pfd_load@RModuleLibrarySO@rsystem@base@UModSys@@SAPAUIModuleLibraryReg@34@PAUPFD_Data@1234@ABU?$TString@U?$TSCoreConst@D@su@tl@UModSys@@U?$TComparerBinaryHash@D@234@@tl@4@@Z 004085c1 f   umodsys_lib_basesys:umodsys.basesys.rmodule.win32.obj
 0001:0000767b       ?pfd_unload@RModuleLibrarySO@rsystem@base@UModSys@@SA_NPAUPFD_Data@1234@@Z 0040867b f   umodsys_lib_basesys:umodsys.basesys.rmodule.win32.obj
 0001:000078d4       ??0?$U16String@$0BAAA@@syshlp@core@UModSys@@QAE@PBD@Z 004088d4 f i umodsys_lib_basesys:umodsys.basesys.rmodule.win32.obj
 0001:00007905       ?root_get_interface_info@RModule@rsystem@base@UModSys@@UBEABUSUniquePointerInfo@core@4@XZ 00408905 f i umodsys_lib_basesys:umodsys.basesys.rmodule.obj
 0001:0000790b       ?root_get_interface_type@RModule@rsystem@base@UModSys@@UBEPBUSUniquePointerInfo@core@4@XZ 0040890b f i umodsys_lib_basesys:umodsys.basesys.rmodule.obj
 0001:00007911       ?root_get_other_interface@RModule@rsystem@base@UModSys@@UBEPBUIRoot@core@4@PBUSUniquePointerInfo@64@@Z 00408911 f i umodsys_lib_basesys:umodsys.basesys.rmodule.obj
 0001:00007911       ?root_get_other_interface@RModule@rsystem@base@UModSys@@UAEPAUIRoot@core@4@PBUSUniquePointerInfo@64@@Z 00408911 f i umodsys_lib_basesys:umodsys.basesys.rmodule.obj
 0001:00007932       ?root_is_interface_supported@RModule@rsystem@base@UModSys@@UBE_NPBUSUniquePointerInfo@core@4@@Z 00408932 f i umodsys_lib_basesys:umodsys.basesys.rmodule.obj
 0001:00007959       ?ref_add@RModule@rsystem@base@UModSys@@UBEXXZ 00408959 f i umodsys_lib_basesys:umodsys.basesys.rmodule.obj
 0001:0000795d       ?ref_remove@RModule@rsystem@base@UModSys@@UBEXXZ 0040895d f i umodsys_lib_basesys:umodsys.basesys.rmodule.obj
 0001:00007968       ?ref_links@RModule@rsystem@base@UModSys@@UBEHXZ 00408968 f i umodsys_lib_basesys:umodsys.basesys.rmodule.obj
 0001:0000796c       ?ref_weak@RModule@rsystem@base@UModSys@@UBE_NAAUWeakPointer@IRefObject@core@4@@Z 0040896c f i umodsys_lib_basesys:umodsys.basesys.rmodule.obj
 0001:0000798b       ?suicide@RModule@rsystem@base@UModSys@@UAEXXZ 0040898b f i umodsys_lib_basesys:umodsys.basesys.rmodule.obj
 0001:000079cb       ?get_library@RModule@rsystem@base@UModSys@@UBEPAUIModuleLibrary@34@XZ 004089cb f   umodsys_lib_basesys:umodsys.basesys.rmodule.obj
 0001:000079cf       ?get_info@RModule@rsystem@base@UModSys@@UBEABUSModuleInfo@34@XZ 004089cf f   umodsys_lib_basesys:umodsys.basesys.rmodule.obj
 0001:000079d3       ?is_open@RModule@rsystem@base@UModSys@@UBE_NXZ 004089d3 f   umodsys_lib_basesys:umodsys.basesys.rmodule.obj
 0001:000079ec       ?open@RModule@rsystem@base@UModSys@@UAE_NXZ 004089ec f   umodsys_lib_basesys:umodsys.basesys.rmodule.obj
 0001:00007a3c       ?close@RModule@rsystem@base@UModSys@@UAE_NXZ 00408a3c f   umodsys_lib_basesys:umodsys.basesys.rmodule.obj
 0001:00007a79       ?reg@RModule@rsystem@base@UModSys@@UAE_NPAUIModObject@34@_N@Z 00408a79 f   umodsys_lib_basesys:umodsys.basesys.rmodule.obj
 0001:00007aa3       ?reg@RModule@rsystem@base@UModSys@@UAE_NPAUIGenerator@34@_N@Z 00408aa3 f   umodsys_lib_basesys:umodsys.basesys.rmodule.obj
 0001:00007ae5       ?mod_findobjname@RModule@rsystem@base@UModSys@@UAEIPBUSUniquePointerInfo@core@4@QAPBU564@IPBD@Z 00408ae5 f   umodsys_lib_basesys:umodsys.basesys.rmodule.obj
 0001:00007bd7       ?mod_generate@RModule@rsystem@base@UModSys@@UAE_NAAU?$TRefObject@UIRefObject@core@UModSys@@U?$TRefObjectFunc@UIRefObject@core@UModSys@@@tl@3@@tl@4@PBUSUniquePointerInfo@core@4@ABUSParameters@84@@Z 00408bd7 f   umodsys_lib_basesys:umodsys.basesys.rmodule.obj
 0001:00007cc9       ?reg_generator@RModule@rsystem@base@UModSys@@QAE_NPAUModuleObjInfo@1234@PAUIGenerator@34@@Z 00408cc9 f   umodsys_lib_basesys:umodsys.basesys.rmodule.obj
 0001:00007e2d       ?reg_obj@RModule@rsystem@base@UModSys@@QAEPAUModuleObjInfo@1234@PAUIModObject@34@@Z 00408e2d f   umodsys_lib_basesys:umodsys.basesys.rmodule.obj
 0001:00007f21       ?unreg_obj@RModule@rsystem@base@UModSys@@QAE_NPAUIModObject@34@@Z 00408f21 f   umodsys_lib_basesys:umodsys.basesys.rmodule.obj
 0001:00007fb3       ?alloc_minfo@RModule@rsystem@base@UModSys@@QAE_NABUSModuleInfo@34@@Z 00408fb3 f   umodsys_lib_basesys:umodsys.basesys.rmodule.obj
 0001:00008026       ?save_db@RModule@rsystem@base@UModSys@@QAE_NPAU_iobuf@@@Z 00409026 f   umodsys_lib_basesys:umodsys.basesys.rmodule.obj
 0001:000081a7       ??0RModule@rsystem@base@UModSys@@QAE@PAUIModuleLibraryUni@123@PAUIModuleReg@23@@Z 004091a7 f   umodsys_lib_basesys:umodsys.basesys.rmodule.obj
 0001:00008251       ??_GRModule@rsystem@base@UModSys@@UAEPAXI@Z 00409251 f i umodsys_lib_basesys:umodsys.basesys.rmodule.obj
 0001:00008251       ??_ERModule@rsystem@base@UModSys@@UAEPAXI@Z 00409251 f i  CIL library: CIL module
 0001:0000829b       ??1?$TDynarrayDynamic@UModuleObjInfo@RModule@rsystem@base@UModSys@@U?$TAllocator@USMemAlloc_Malloc@core@UModSys@@USCountCalcPower2@23@@tl@5@@tl@UModSys@@QAE@XZ 0040929b f i umodsys_lib_basesys:umodsys.basesys.rmodule.obj
 0001:000082a0       ??1?$TDynarrayDynamic@UGeneratedObjInfo@RModule@rsystem@base@UModSys@@U?$TAllocator@USMemAlloc_Malloc@core@UModSys@@USCountCalcPower2@23@@tl@5@@tl@UModSys@@QAE@XZ 004092a0 f i umodsys_lib_basesys:umodsys.basesys.rmodule.obj
 0001:000082a5       ??1?$TDynarrayDynamic@PBUSUniquePointerInfo@core@UModSys@@U?$TAllocator@USMemAlloc_Malloc@core@UModSys@@USCountCalcPower2@23@@tl@3@@tl@UModSys@@QAE@XZ 004092a5 f i umodsys_lib_basesys:umodsys.basesys.rmodule.obj
 0001:000082aa       ??1?$TDynarray@U?$TDynarrayHolderDynamic@UModuleObjInfo@RModule@rsystem@base@UModSys@@U?$TAllocator@USMemAlloc_Malloc@core@UModSys@@USCountCalcPower2@23@@tl@5@@tl@UModSys@@@tl@UModSys@@QAE@XZ 004092aa f i umodsys_lib_basesys:umodsys.basesys.rmodule.obj
 0001:000082e8       ??1?$TDynarray@U?$TDynarrayHolderDynamic@UGeneratedObjInfo@RModule@rsystem@base@UModSys@@U?$TAllocator@USMemAlloc_Malloc@core@UModSys@@USCountCalcPower2@23@@tl@5@@tl@UModSys@@@tl@UModSys@@QAE@XZ 004092e8 f i umodsys_lib_basesys:umodsys.basesys.rmodule.obj
 0001:00008323       ??1?$TDynarray@U?$TDynarrayHolderDynamic@PBUSUniquePointerInfo@core@UModSys@@U?$TAllocator@USMemAlloc_Malloc@core@UModSys@@USCountCalcPower2@23@@tl@3@@tl@UModSys@@@tl@UModSys@@QAE@XZ 00409323 f i umodsys_lib_basesys:umodsys.basesys.rmodule.obj
 0001:0000835e       ?ResizeRel@?$TDynarray@U?$TDynarrayHolderDynamic@UModuleObjInfo@RModule@rsystem@base@UModSys@@U?$TAllocator@USMemAlloc_Malloc@core@UModSys@@USCountCalcPower2@23@@tl@5@@tl@UModSys@@@tl@UModSys@@QAE_NH@Z 0040935e f i umodsys_lib_basesys:umodsys.basesys.rmodule.obj
 0001:000083e0       ?ResizeRel@?$TDynarray@U?$TDynarrayHolderDynamic@UGeneratedObjInfo@RModule@rsystem@base@UModSys@@U?$TAllocator@USMemAlloc_Malloc@core@UModSys@@USCountCalcPower2@23@@tl@5@@tl@UModSys@@@tl@UModSys@@QAE_NH@Z 004093e0 f i umodsys_lib_basesys:umodsys.basesys.rmodule.obj
 0001:00008463       ?ResizeRel@?$TDynarray@U?$TDynarrayHolderDynamic@PBUSUniquePointerInfo@core@UModSys@@U?$TAllocator@USMemAlloc_Malloc@core@UModSys@@USCountCalcPower2@23@@tl@3@@tl@UModSys@@@tl@UModSys@@QAE_NH@Z 00409463 f i umodsys_lib_basesys:umodsys.basesys.rmodule.obj
 0001:000084c0       ??$wildcmp@D@su@tl@UModSys@@YA_NPBD0@Z 004094c0 f i umodsys_lib_basesys:umodsys.basesys.rmodule.obj
 0001:00008538       ?root_get_interface_info@RModuleLibrarySO@rsystem@base@UModSys@@UBEABUSUniquePointerInfo@core@4@XZ 00409538 f i umodsys_lib_basesys:umodsys.basesys.rmodulelibso.obj
 0001:0000853e       ?root_get_interface_type@RModuleLibrarySO@rsystem@base@UModSys@@UBEPBUSUniquePointerInfo@core@4@XZ 0040953e f i umodsys_lib_basesys:umodsys.basesys.rmodulelibso.obj
 0001:00008544       ?root_get_other_interface@RModuleLibrarySO@rsystem@base@UModSys@@UAEPAUIRoot@core@4@PBUSUniquePointerInfo@64@@Z 00409544 f i umodsys_lib_basesys:umodsys.basesys.rmodulelibso.obj
 0001:00008544       ?root_get_other_interface@RModuleLibrarySO@rsystem@base@UModSys@@UBEPBUIRoot@core@4@PBUSUniquePointerInfo@64@@Z 00409544 f i umodsys_lib_basesys:umodsys.basesys.rmodulelibso.obj
 0001:0000856d       ?root_is_interface_supported@RModuleLibrarySO@rsystem@base@UModSys@@UBE_NPBUSUniquePointerInfo@core@4@@Z 0040956d f i umodsys_lib_basesys:umodsys.basesys.rmodulelibso.obj
 0001:0000858c       ?ref_add@RModuleLibrarySO@rsystem@base@UModSys@@UBEXXZ 0040958c f i umodsys_lib_basesys:umodsys.basesys.rmodulelibso.obj
 0001:00008593       ?ref_remove@RModuleLibrarySO@rsystem@base@UModSys@@UBEXXZ 00409593 f i umodsys_lib_basesys:umodsys.basesys.rmodulelibso.obj
 0001:000085a1       ?ref_links@RModuleLibrarySO@rsystem@base@UModSys@@UBEHXZ 004095a1 f i umodsys_lib_basesys:umodsys.basesys.rmodulelibso.obj
 0001:000085a8       ?ref_weak@RModuleLibrarySO@rsystem@base@UModSys@@UBE_NAAUWeakPointer@IRefObject@core@4@@Z 004095a8 f i umodsys_lib_basesys:umodsys.basesys.rmodulelibso.obj
 0001:000085ca       ?uni_load@RModuleLibrarySO@rsystem@base@UModSys@@UAE_NXZ 004095ca f   umodsys_lib_basesys:umodsys.basesys.rmodulelibso.obj
 0001:000085fe       ?uni_unload@RModuleLibrarySO@rsystem@base@UModSys@@UAE_NXZ 004095fe f   umodsys_lib_basesys:umodsys.basesys.rmodulelibso.obj
 0001:00008609       ?uni_open@RModuleLibrarySO@rsystem@base@UModSys@@UAE_NXZ 00409609 f   umodsys_lib_basesys:umodsys.basesys.rmodulelibso.obj
 0001:0000862b       ?uni_close@RModuleLibrarySO@rsystem@base@UModSys@@UAE_NXZ 0040962b f   umodsys_lib_basesys:umodsys.basesys.rmodulelibso.obj
 0001:0000863b       ?s_add@RModuleLibrarySO@rsystem@base@UModSys@@SA_NPAUISystem@34@AAU?$TDynarrayDynamic@U?$TRefObject@URModuleLibrarySO@rsystem@base@UModSys@@U?$TRefObjectFunc@URModuleLibrarySO@rsystem@base@UModSys@@@tl@4@@tl@UModSys@@U?$TAllocator@USMemAlloc_Malloc@core@UModSys@@USCountCalcPower2@23@@23@@tl@4@PBD@Z 0040963b f   umodsys_lib_basesys:umodsys.basesys.rmodulelibso.obj
 0001:000087c7       ??_GRModuleLibrarySO@rsystem@base@UModSys@@UAEPAXI@Z 004097c7 f i umodsys_lib_basesys:umodsys.basesys.rmodulelibso.obj
 0001:000087c7       ??_ERModuleLibrarySO@rsystem@base@UModSys@@UAEPAXI@Z 004097c7 f i  CIL library: CIL module
 0001:00008816       ?set@?$TString@U?$TSCoreShared@USMemAlloc_Malloc@core@UModSys@@D@su@tl@UModSys@@U?$TComparerBinaryHash@D@234@@tl@UModSys@@QAEXPBD@Z 00409816 f i umodsys_lib_basesys:umodsys.basesys.rmodulelibso.obj
 0001:0000888d       ?Link@SModuleContext@base@UModSys@@QAEXPAUISystem@23@PAUIMemAlloc@core@3@@Z 0040988d f   umodsys_lib_base:umodsys.base.modulecontext.obj
 0001:000088d9       ?unlink@SMemorySharedData@core@UModSys@@QAEXPBUSSourceContext@23@@Z 004098d9 f   umodsys_lib_base:umodsys.base.modulecontext.obj
 0001:000088e9       ?new_data@SMemorySharedData@core@UModSys@@SAPAU123@PAUIMemAlloc@23@IPBUSSourceContext@23@@Z 004098e9 f   umodsys_lib_base:umodsys.base.modulecontext.obj
 0001:00008904       ??0SModuleRegChain@base@UModSys@@QAE@AAUIModuleReg@12@@Z 00409904 f   umodsys_lib_base:umodsys.base.moduleregchain.obj
 0001:00008933       ??1SModuleRegChain@base@UModSys@@QAE@XZ 00409933 f   umodsys_lib_base:umodsys.base.moduleregchain.obj
 0001:00008933       ??1SUniquePointer@core@UModSys@@QAE@XZ 00409933 f   umodsys_lib_core:umodsys.core.uniqueptr.obj
 0001:00008951       ?s_get@SModuleRegChain@base@UModSys@@SAPAUIModuleReg@23@I@Z 00409951 f   umodsys_lib_base:umodsys.base.moduleregchain.obj
 0001:00008975       ?mlr_count@RModuleLibraryReg_Chain@base@UModSys@@UBEIXZ 00409975 f   umodsys_lib_base:umodsys.base.moduleregchain.obj
 0001:00008988       ?mlr_get@RModuleLibraryReg_Chain@base@UModSys@@UBEPAUIModuleReg@23@I@Z 00409988 f   umodsys_lib_base:umodsys.base.moduleregchain.obj
 0001:00008995       ?mlr_open@RModuleLibraryReg_Chain@base@UModSys@@UAE_NPAUISystem@23@PAUIMemAlloc@core@3@@Z 00409995 f   umodsys_lib_base:umodsys.base.moduleregchain.obj
 0001:000089bd       ?mlr_close@RModuleLibraryReg_Chain@base@UModSys@@UAE_NXZ 004099bd f   umodsys_lib_base:umodsys.base.moduleregchain.obj
 0001:000089ef       ?mlr_isopen@RModuleLibraryReg_Chain@base@UModSys@@UBE_NXZ 004099ef f   umodsys_lib_base:umodsys.base.moduleregchain.obj
 0001:000089fb       _UModSys_Plugin_Entry2@0   004099fb f   umodsys_lib_base:umodsys.so_main.win32.obj
 0001:00008a01       ??_ERModuleReg@stdio@media@modules@UModSys@@UAEPAXI@Z 00409a01 f i  CIL library: CIL module
 0001:00008a01       ??_ERModuleReg@std@media@modules@UModSys@@UAEPAXI@Z 00409a01 f i  CIL library: CIL module
 0001:00008a01       ??_GIModuleReg@base@UModSys@@UAEPAXI@Z 00409a01 f i umodsys_lib_base:umodsys.base.modulereg.obj
 0001:00008a01       ??_GRModuleReg@std@media@modules@UModSys@@UAEPAXI@Z 00409a01 f i umodsys_lib_libmedia:umodsys.mod.media.std.obj
 0001:00008a01       ??_GRModuleReg@stdio@media@modules@UModSys@@UAEPAXI@Z 00409a01 f i umodsys_lib_libmedia:umodsys.mod.media.stdio.obj
 0001:00008a01       ??_EIModuleReg@base@UModSys@@UAEPAXI@Z 00409a01 f i  CIL library: CIL module
 0001:00008a1e       ??0IModuleReg@base@UModSys@@QAE@PBDHH0@Z 00409a1e f   umodsys_lib_base:umodsys.base.modulereg.obj
 0001:00008a5a       ?mr_isopen@IModuleReg@base@UModSys@@UBE_NXZ 00409a5a f   umodsys_lib_base:umodsys.base.modulereg.obj
 0001:00008a63       ?mr_open@IModuleReg@base@UModSys@@UAE_NXZ 00409a63 f   umodsys_lib_base:umodsys.base.modulereg.obj
 0001:00008a7e       ?mr_close@IModuleReg@base@UModSys@@UAE_NXZ 00409a7e f   umodsys_lib_base:umodsys.base.modulereg.obj
 0001:00008a8b       ??_ERModuleLibraryReg_Chain@base@UModSys@@UAEPAXI@Z 00409a8b f i  CIL library: CIL module
 0001:00008a8b       ??_GRModuleLibraryReg_Chain@base@UModSys@@UAEPAXI@Z 00409a8b f i umodsys_lib_base:umodsys.base.moduleregchain.obj
 0001:00008a8b       ??_EIModuleLibraryReg@base@UModSys@@UAEPAXI@Z 00409a8b f i  CIL library: CIL module
 0001:00008a8b       ??_GIModuleLibraryReg@base@UModSys@@UAEPAXI@Z 00409a8b f i umodsys_lib_base:umodsys.base.modulereg.obj
 0001:00008aa8       ??1IModuleLoader@base@UModSys@@UAE@XZ 00409aa8 f   umodsys_lib_base:umodsys.base.moduleloader.obj
 0001:00008aaf       ??0SUniquePointer@core@UModSys@@QAE@PBD0H@Z 00409aaf f   umodsys_lib_core:umodsys.core.uniqueptr.obj
 0001:00008af2       ?s_resolve@SUniquePointer@core@UModSys@@SAXPAUIUniquePointerResolver@23@@Z 00409af2 f   umodsys_lib_core:umodsys.core.uniqueptr.obj
 0001:00008b2f       ?s_unresolve@SUniquePointer@core@UModSys@@SAXPAUIUniquePointerResolver@23@@Z 00409b2f f   umodsys_lib_core:umodsys.core.uniqueptr.obj
 0001:00008b5a       ?u_fopen@syshlp@core@UModSys@@YAPAU_iobuf@@PBD0@Z 00409b5a f   umodsys_lib_core:umodsys.core.syshlp_files.win32.obj
 0001:00008bc8       ?u_fopentemp@syshlp@core@UModSys@@YAPAU_iobuf@@AAPADPBD@Z 00409bc8 f   umodsys_lib_core:umodsys.core.syshlp_files.win32.obj
 0001:00008c52       ?u_fendtemp@syshlp@core@UModSys@@YA_NAAPAU_iobuf@@AAPAD_N@Z 00409c52 f   umodsys_lib_core:umodsys.core.syshlp_files.win32.obj
 0001:00008ce9       ??3IRoot@core@UModSys@@SAXPAX@Z 00409ce9 f   umodsys_lib_core:umodsys.core.objects.obj
 0001:00008d02       ?Set@?$TSet@U?$TArray@PBUSUniquePointerInfo@core@UModSys@@@tl@UModSys@@U?$TScalarCompare@PBUSUniquePointerInfo@core@UModSys@@@core@3@@tl@UModSys@@QAE_NABQBUSUniquePointerInfo@core@3@@Z 00409d02 f i umodsys_lib_core:umodsys.core.uniqueptrlist.obj
 0001:00008d72       ?gracial_cpy@syshlp@core@UModSys@@YA_NPADHQAPBDH@Z 00409d72 f   umodsys_lib_core:umodsys.core.syshlp_chars.win32.obj
 0001:00008df5       ?gracial_cpy@syshlp@core@UModSys@@YA_NPA_WHQAPB_WH@Z 00409df5 f   umodsys_lib_core:umodsys.core.syshlp_chars.win32.obj
 0001:00008e85       ?path_uni_os@syshlp@core@UModSys@@YAXPA_W@Z 00409e85 f   umodsys_lib_core:umodsys.core.syshlp_chars.win32.obj
 0001:00008e9c       ?gracial_convert@syshlp@core@UModSys@@YA_NPA_WHPBDH@Z 00409e9c f   umodsys_lib_core:umodsys.core.syshlp_charcode.win32.obj
 0001:00008ec9       ?gracial_convert@syshlp@core@UModSys@@YA_NPADHPB_WH@Z 00409ec9 f   umodsys_lib_core:umodsys.core.syshlp_charcode.win32.obj
 0001:00008ef9       __onexit                   00409ef9 f   MSVCRT:atonexit.obj
 0001:00008f9e       _atexit                    00409f9e f   MSVCRT:atonexit.obj
 0001:00009257       _mainCRTStartup            0040a257 f   MSVCRT:crtexe.obj
 0001:00009262       __purecall                 0040a262 f   MSVCRT:MSVCR90.dll
 0001:00009268       ??3@YAXPAX@Z               0040a268 f   MSVCRT:MSVCR90.dll
 0001:0000926e       ??_Etype_info@@UAEPAXI@Z   0040a26e f i MSVCRT:ti_inst.obj
 0001:000092ba       ??2@YAPAXI@Z               0040a2ba f   MSVCRT:MSVCR90.dll
 0001:000092c0       __unlock                   0040a2c0 f   MSVCRT:MSVCR90.dll
 0001:000092c6       ___dllonexit               0040a2c6 f   MSVCRT:MSVCR90.dll
 0001:000092cc       __lock                     0040a2cc f   MSVCRT:MSVCR90.dll
 0001:000092d4       __SEH_prolog4              0040a2d4 f   MSVCRT:sehprolg4.obj
 0001:00009319       __SEH_epilog4              0040a319 f   MSVCRT:sehprolg4.obj
 0001:0000932d       __except_handler4          0040a32d f   MSVCRT:chandler4gs.obj
 0001:00009352       ?__CxxUnhandledExceptionFilter@@YGJPAU_EXCEPTION_POINTERS@@@Z 0040a352 f   MSVCRT:unhandld.obj
 0001:00009394       ___CxxSetUnhandledExceptionFilter 0040a394 f   MSVCRT:unhandld.obj
 0001:000093a2       __amsg_exit                0040a3a2 f   MSVCRT:MSVCR90.dll
 0001:000093a8       __RTC_Initialize           0040a3a8 f   MSVCRT:_initsect_.obj
 0001:000093ce       __RTC_Terminate            0040a3ce f   MSVCRT:_initsect_.obj
 0001:000093f4       __XcptFilter               0040a3f4 f   MSVCRT:MSVCR90.dll
 0001:00009400       __ValidateImageBase        0040a400 f   MSVCRT:pesect.obj
 0001:00009440       __FindPESection            0040a440 f   MSVCRT:pesect.obj
 0001:00009490       __IsNonwritableInCurrentImage 0040a490 f   MSVCRT:pesect.obj
 0001:0000954e       __initterm                 0040a54e f   MSVCRT:MSVCR90.dll
 0001:00009554       __initterm_e               0040a554 f   MSVCRT:MSVCR90.dll
 0001:0000955a       __setdefaultprecision      0040a55a f   MSVCRT:fp8.obj
 0001:00009585       ?get_syslib@RSystem@rsystem@base@UModSys@@UAEPAUIModuleLibrary@34@XZ 0040a585 f   umodsys_lib_basesys:umodsys.basesys.rsystem.obj
 0001:00009585       __matherr                  0040a585 f   MSVCRT:merr.obj
 0001:00009585       __setargv                  0040a585 f   MSVCRT:dllargv.obj
 0001:00009585       ?ref_links@RConsole_std@rsystem@base@UModSys@@UBEHXZ 0040a585 f   umodsys_lib_basesys:umodsys.basesys.rconsole_std.obj
 0001:00009588       ___security_init_cookie    0040a588 f   MSVCRT:gs_support.obj
 0001:0000961e       ?__ArrayUnwind@@YGXPAXIHP6EX0@Z@Z 0040a61e f   MSVCRT:ehvecdtr.obj
 0001:0000967c       ??_M@YGXPAXIHP6EX0@Z@Z     0040a67c f   MSVCRT:ehvecdtr.obj
 0001:000096df       @__security_check_cookie@4 0040a6df f   MSVCRT:secchk.obj
 0001:000096ee       __except_handler4_common   0040a6ee f   MSVCRT:MSVCR90.dll
 0001:000096f4       ?terminate@@YAXXZ          0040a6f4 f   MSVCRT:MSVCR90.dll
 0001:000096fa       __invoke_watson            0040a6fa f   MSVCRT:MSVCR90.dll
 0001:00009700       __controlfp_s              0040a700 f   MSVCRT:MSVCR90.dll
 0001:00009706       ??1type_info@@UAE@XZ       0040a706 f   MSVCRT:MSVCR90.dll
 0001:00009706       ?_type_info_dtor_internal_method@type_info@@QAEXXZ 0040a706 f   MSVCRT:MSVCR90.dll
 0001:0000970c       ___report_gsfailure        0040a70c f   MSVCRT:gs_report.obj
 0001:00009812       __crt_debugger_hook        0040a812 f   MSVCRT:MSVCR90.dll
 0001:00009818       _memcpy                    0040a818 f   MSVCRT:MSVCR90.dll
 0001:00009820       __alloca_probe             0040a820     MSVCRT:chkstk.obj
 0001:00009820       __chkstk                   0040a820 f   MSVCRT:chkstk.obj
 0001:0000984c       ___CxxFrameHandler3        0040a84c f   MSVCRT:MSVCR90.dll
 0001:00009854       __EH_prolog                0040a854 f   MSVCRT:ehprolog.obj
 0001:00009874       __CxxThrowException@8      0040a874 f   MSVCRT:MSVCR90.dll
 0002:00000000       __imp__UnhandledExceptionFilter@4 0040c000     kernel32:KERNEL32.dll
 0002:00000004       __imp__GetCurrentProcess@0 0040c004     kernel32:KERNEL32.dll
 0002:00000008       __imp__TerminateProcess@8  0040c008     kernel32:KERNEL32.dll
 0002:0000000c       __imp__GetSystemTimeAsFileTime@4 0040c00c     kernel32:KERNEL32.dll
 0002:00000010       __imp__GetCurrentProcessId@0 0040c010     kernel32:KERNEL32.dll
 0002:00000014       __imp__GetCurrentThreadId@0 0040c014     kernel32:KERNEL32.dll
 0002:00000018       __imp__GetTickCount@0      0040c018     kernel32:KERNEL32.dll
 0002:0000001c       __imp__QueryPerformanceCounter@4 0040c01c     kernel32:KERNEL32.dll
 0002:00000020       __imp__SetUnhandledExceptionFilter@4 0040c020     kernel32:KERNEL32.dll
 0002:00000024       __imp__InterlockedCompareExchange@12 0040c024     kernel32:KERNEL32.dll
 0002:00000028       __imp__Sleep@4             0040c028     kernel32:KERNEL32.dll
 0002:0000002c       __imp__InterlockedExchange@8 0040c02c     kernel32:KERNEL32.dll
 0002:00000030       __imp__MultiByteToWideChar@24 0040c030     kernel32:KERNEL32.dll
 0002:00000034       __imp__WideCharToMultiByte@32 0040c034     kernel32:KERNEL32.dll
 0002:00000038       __imp__SetConsoleOutputCP@4 0040c038     kernel32:KERNEL32.dll
 0002:0000003c       __imp__GetLastError@0      0040c03c     kernel32:KERNEL32.dll
 0002:00000040       __imp__GetConsoleOutputCP@0 0040c040     kernel32:KERNEL32.dll
 0002:00000044       __imp__FindNextFileW@8     0040c044     kernel32:KERNEL32.dll
 0002:00000048       __imp__FindClose@4         0040c048     kernel32:KERNEL32.dll
 0002:0000004c       __imp__GetProcAddress@8    0040c04c     kernel32:KERNEL32.dll
 0002:00000050       __imp__GetModuleFileNameW@12 0040c050     kernel32:KERNEL32.dll
 0002:00000054       __imp__GetModuleHandleW@4  0040c054     kernel32:KERNEL32.dll
 0002:00000058       __imp__LoadLibraryExW@12   0040c058     kernel32:KERNEL32.dll
 0002:0000005c       __imp__FreeLibrary@4       0040c05c     kernel32:KERNEL32.dll
 0002:00000060       __imp__SetErrorMode@4      0040c060     kernel32:KERNEL32.dll
 0002:00000064       __imp__FindFirstFileW@8    0040c064     kernel32:KERNEL32.dll
 0002:00000068       __imp__GetFullPathNameW@16 0040c068     kernel32:KERNEL32.dll
 0002:0000006c       __imp__IsDebuggerPresent@0 0040c06c     kernel32:KERNEL32.dll
 0002:00000070       \177KERNEL32_NULL_THUNK_DATA 0040c070     kernel32:KERNEL32.dll
 0002:00000074       __imp___lock               0040c074     MSVCRT:MSVCR90.dll
 0002:00000078       __imp___onexit             0040c078     MSVCRT:MSVCR90.dll
 0002:0000007c       __imp___decode_pointer     0040c07c     MSVCRT:MSVCR90.dll
 0002:00000080       __imp___amsg_exit          0040c080     MSVCRT:MSVCR90.dll
 0002:00000084       __imp____getmainargs       0040c084     MSVCRT:MSVCR90.dll
 0002:00000088       __imp___cexit              0040c088     MSVCRT:MSVCR90.dll
 0002:0000008c       __imp___exit               0040c08c     MSVCRT:MSVCR90.dll
 0002:00000090       __imp___XcptFilter         0040c090     MSVCRT:MSVCR90.dll
 0002:00000094       __imp__exit                0040c094     MSVCRT:MSVCR90.dll
 0002:00000098       __imp____initenv           0040c098     MSVCRT:MSVCR90.dll
 0002:0000009c       __imp___initterm           0040c09c     MSVCRT:MSVCR90.dll
 0002:000000a0       __imp___initterm_e         0040c0a0     MSVCRT:MSVCR90.dll
 0002:000000a4       __imp___encode_pointer     0040c0a4     MSVCRT:MSVCR90.dll
 0002:000000a8       __imp____setusermatherr    0040c0a8     MSVCRT:MSVCR90.dll
 0002:000000ac       __imp___adjust_fdiv        0040c0ac     MSVCRT:MSVCR90.dll
 0002:000000b0       __imp____p__commode        0040c0b0     MSVCRT:MSVCR90.dll
 0002:000000b4       __imp____p__fmode          0040c0b4     MSVCRT:MSVCR90.dll
 0002:000000b8       __imp____set_app_type      0040c0b8     MSVCRT:MSVCR90.dll
 0002:000000bc       __imp___except_handler4_common 0040c0bc     MSVCRT:MSVCR90.dll
 0002:000000c0       __imp_?terminate@@YAXXZ    0040c0c0     MSVCRT:MSVCR90.dll
 0002:000000c4       __imp___invoke_watson      0040c0c4     MSVCRT:MSVCR90.dll
 0002:000000c8       __imp___controlfp_s        0040c0c8     MSVCRT:MSVCR90.dll
 0002:000000cc       __imp_?_type_info_dtor_internal_method@type_info@@QAEXXZ 0040c0cc     MSVCRT:MSVCR90.dll
 0002:000000d0       __imp___crt_debugger_hook  0040c0d0     MSVCRT:MSVCR90.dll
 0002:000000d4       __imp____dllonexit         0040c0d4     MSVCRT:MSVCR90.dll
 0002:000000d8       __imp___unlock             0040c0d8     MSVCRT:MSVCR90.dll
 0002:000000dc       __imp___vsnprintf          0040c0dc     MSVCRT:MSVCR90.dll
 0002:000000e0       __imp__remove              0040c0e0     MSVCRT:MSVCR90.dll
 0002:000000e4       __imp___wfopen             0040c0e4     MSVCRT:MSVCR90.dll
 0002:000000e8       __imp__rename              0040c0e8     MSVCRT:MSVCR90.dll
 0002:000000ec       __imp__realloc             0040c0ec     MSVCRT:MSVCR90.dll
 0002:000000f0       __imp__fprintf             0040c0f0     MSVCRT:MSVCR90.dll
 0002:000000f4       __imp__strncpy             0040c0f4     MSVCRT:MSVCR90.dll
 0002:000000f8       __imp___snprintf           0040c0f8     MSVCRT:MSVCR90.dll
 0002:000000fc       __imp__malloc              0040c0fc     MSVCRT:MSVCR90.dll
 0002:00000100       __imp__free                0040c100     MSVCRT:MSVCR90.dll
 0002:00000104       __imp__vfprintf            0040c104     MSVCRT:MSVCR90.dll
 0002:00000108       __imp____iob_func          0040c108     MSVCRT:MSVCR90.dll
 0002:0000010c       __imp__strstr              0040c10c     MSVCRT:MSVCR90.dll
 0002:00000110       __imp__fclose              0040c110     MSVCRT:MSVCR90.dll
 0002:00000114       __imp__fseek               0040c114     MSVCRT:MSVCR90.dll
 0002:00000118       __imp__ftell               0040c118     MSVCRT:MSVCR90.dll
 0002:0000011c       __imp__fwrite              0040c11c     MSVCRT:MSVCR90.dll
 0002:00000120       __imp___fileno             0040c120     MSVCRT:MSVCR90.dll
 0002:00000124       __imp__fread               0040c124     MSVCRT:MSVCR90.dll
 0002:00000128       __imp___chsize             0040c128     MSVCRT:MSVCR90.dll
 0002:0000012c       __imp__fflush              0040c12c     MSVCRT:MSVCR90.dll
 0002:00000130       __imp_??2@YAPAXI@Z         0040c130     MSVCRT:MSVCR90.dll
 0002:00000134       __imp_??3@YAXPAX@Z         0040c134     MSVCRT:MSVCR90.dll
 0002:00000138       __imp___purecall           0040c138     MSVCRT:MSVCR90.dll
 0002:0000013c       __imp___configthreadlocale 0040c13c     MSVCRT:MSVCR90.dll
 0002:00000140       __imp__strncmp             0040c140     MSVCRT:MSVCR90.dll
 0002:00000144       __imp__memcpy              0040c144     MSVCRT:MSVCR90.dll
 0002:00000148       __imp____CxxFrameHandler3  0040c148     MSVCRT:MSVCR90.dll
 0002:0000014c       __imp___CxxThrowException@8 0040c14c     MSVCRT:MSVCR90.dll
 0002:00000150       \177MSVCR90_NULL_THUNK_DATA 0040c150     MSVCRT:MSVCR90.dll
 0002:00000154       ___xc_a                    0040c154     MSVCRT:cinitexe.obj
 0002:00000344       ___xc_z                    0040c344     MSVCRT:cinitexe.obj
 0002:00000348       ___xi_a                    0040c348     MSVCRT:cinitexe.obj
 0002:00000354       ___xi_z                    0040c354     MSVCRT:cinitexe.obj
 0002:0000035c       ??_7type_info@@6B@         0040c35c     MSVCRT:ti_inst.obj
 0002:00000368       ??_C@_0P@GHFPNOJB@bad?5allocation?$AA@ 0040c368     umodsys.c_main.obj
 0002:00000378       ??_C@_0BF@OCNNAADO@UModSys?3?3core?3?3IRoot?$AA@ 0040c378     umodsys.c_main.obj
 0002:00000390       ??_C@_0BK@EMIJFOPA@UModSys?3?3core?3?3IRefObject?$AA@ 0040c390     umodsys.c_main.obj
 0002:000003ac       ??_C@_0BL@IOMMHELF@UModSys?3?3core?3?3IParameters?$AA@ 0040c3ac     umodsys.c_main.obj
 0002:000003c8       ??_C@_0BH@LKDEEPPM@UModSys?3?3base?3?3IModule?$AA@ 0040c3c8     umodsys.c_main.obj
 0002:000003e0       ??_C@_0BO@PHJOHFCB@UModSys?3?3base?3?3IModuleLibrary?$AA@ 0040c3e0     umodsys.c_main.obj
 0002:00000400       ??_C@_0BK@FDPIOPHG@UModSys?3?3base?3?3IModObject?$AA@ 0040c400     umodsys.c_main.obj
 0002:0000041c       ??_C@_0BK@OIBKNCKJ@UModSys?3?3base?3?3IGenerator?$AA@ 0040c41c     umodsys.c_main.obj
 0002:00000438       ??_C@_0BG@PJBGCMEC@UModSys?3?3base?3?3IShell?$AA@ 0040c438     umodsys.c_main.obj
 0002:00000450       ??_C@_0BI@IKAOEFAP@UModSys?3?3base?3?3IConsole?$AA@ 0040c450     umodsys.c_main.obj
 0002:00000468       ??_C@_0BH@PFCONEJJ@UModSys?3?3base?3?3ISystem?$AA@ 0040c468     umodsys.c_main.obj
 0002:00000480       ??_C@_0CA@MDFMKLLN@UModSys?3?3base?3?3rsystem?3?3RModule?$AA@ 0040c480     umodsys.c_main.obj
 0002:000004a0       ??_C@_0CK@MJPNGLHN@UModSys?3?3base?3?3rsystem?3?3IModuleL@ 0040c4a0     umodsys.c_main.obj
 0002:000004cc       ??_C@_0CJ@OPOMMGLJ@UModSys?3?3base?3?3rsystem?3?3RModuleL@ 0040c4cc     umodsys.c_main.obj
 0002:000004f8       ??_C@_0CL@ILNBAMJF@UModSys?3?3base?3?3rsystem?3?3RModuleL@ 0040c4f8     umodsys.c_main.obj
 0002:00000524       ??_C@_0CE@IHGMMEEA@UModSys?3?3base?3?3rsystem?3?3RParamet@ 0040c524     umodsys.c_main.obj
 0002:00000548       ??_C@_0CA@IMEGDANI@UModSys?3?3base?3?3rsystem?3?3RSystem?$AA@ 0040c548     umodsys.c_main.obj
 0002:00000568       ??_C@_0CF@KIMLNODL@UModSys?3?3base?3?3rsystem?3?3RConsole@ 0040c568     umodsys.c_main.obj
 0002:00000590       ??_C@_0M@DCEPEPFJ@umodsys?4log?$AA@ 0040c590     umodsys.c_main.obj
 0002:0000059c       ??_C@_00CNPNBAHC@?$AA@     0040c59c     umodsys.c_main.obj
 0002:000005a0       ??_C@_01NBENCBCI@?$CK?$AA@ 0040c5a0     umodsys.c_main.obj
 0002:000005a4       ??_C@_0BC@JABDEAFI@moduledb?4conf?9hdb?$AA@ 0040c5a4     umodsys.c_main.obj
 0002:000005b8       ??_C@_08FCBDOIAH@typeinfo?$AA@ 0040c5b8     umodsys.c_main.obj
 0002:000005c4       ??_C@_0CB@CLGNFEGF@UModSys?3?3libmedia?3?3IStreamReader@ 0040c5c4     umodsys_lib_libmedia:umodsys.mod.media.std.obj
 0002:000005e8       ??_C@_0CB@HOPFFLP@UModSys?3?3libmedia?3?3IStreamWriter@ 0040c5e8     umodsys_lib_libmedia:umodsys.mod.media.std.obj
 0002:0000060c       ??_C@_0BP@KCJMEDNO@UModSys?3?3libmedia?3?3IBinArchive?$AA@ 0040c60c     umodsys_lib_libmedia:umodsys.mod.media.std.obj
 0002:0000062c       ??_C@_0CB@FDEKNMGJ@UModSys?3?3libmedia?3?3IBinObjFilter@ 0040c62c     umodsys_lib_libmedia:umodsys.mod.media.std.obj
 0002:00000650       ??_C@_0BM@DPCMOAPM@UModSys?3?3libmedia?3?3ILibrary?$AA@ 0040c650     umodsys_lib_libmedia:umodsys.mod.media.std.obj
 0002:0000066c       ??_C@_0CD@ELIFEGE@UModSys?3?3libmedia?3?3ILibraryBinTr@ 0040c66c     umodsys_lib_libmedia:umodsys.mod.media.std.obj
 0002:00000690       ??_C@_0CE@EGHBJBAJ@UModSys?3?3libmedia?3?3ILibraryBinCa@ 0040c690     umodsys_lib_libmedia:umodsys.mod.media.std.obj
 0002:000006b4       ??_C@_0CF@LBIGBLOK@UModSys?3?3libmedia?3?3ILibraryObjFi@ 0040c6b4     umodsys_lib_libmedia:umodsys.mod.media.std.obj
 0002:000006dc       ??_C@_0CE@BOBLEOBL@UModSys?3?3libmedia?3?3ILibraryObjCa@ 0040c6dc     umodsys_lib_libmedia:umodsys.mod.media.std.obj
 0002:00000700       ??_C@_0CD@LJFEJKGF@UModSys?3?3libmedia?3?3ILibraryLayer@ 0040c700     umodsys_lib_libmedia:umodsys.mod.media.std.obj
 0002:00000724       ??_C@_0CP@GECHMLGM@UModSys?3?3modules?3?3media?3?3std?3?3RL@ 0040c724     umodsys_lib_libmedia:umodsys.mod.media.std.obj
 0002:00000754       ??_C@_0CO@FAPEIINC@UModSys?3?3modules?3?3media?3?3std?3?3RL@ 0040c754     umodsys_lib_libmedia:umodsys.mod.media.std.obj
 0002:00000784       ??_C@_0CO@ONBIEGND@UModSys?3?3modules?3?3media?3?3std?3?3RL@ 0040c784     umodsys_lib_libmedia:umodsys.mod.media.std.obj
 0002:000007b4       ??_C@_0CP@DMENBEHO@UModSys?3?3modules?3?3media?3?3std?3?3RL@ 0040c7b4     umodsys_lib_libmedia:umodsys.mod.media.std.obj
 0002:000007e4       ??_C@_0DA@IMHMNIGH@UModSys?3?3modules?3?3media?3?3std?3?3RL@ 0040c7e4     umodsys_lib_libmedia:umodsys.mod.media.std.obj
 0002:00000814       ??_C@_0CJ@IPNOMNDB@UModSys?3?3modules?3?3media?3?3std?3?3RG@ 0040c814     umodsys_lib_libmedia:umodsys.mod.media.std.obj
 0002:00000840       ??_C@_0DC@HNPCLNGC@UMODSYS_MODULE_NAME?$CImedia?0std?$CJ?3?3@ 0040c840     umodsys_lib_libmedia:umodsys.mod.media.std.obj
 0002:00000874       ??_C@_0L@LOIPJDMA@media?3?3std?$AA@ 0040c874     umodsys_lib_libmedia:umodsys.mod.media.std.obj
 0002:00000880       ??_C@_09JGNMLHG@modobject?$AA@ 0040c880     umodsys_lib_libmedia:umodsys.mod.media.std.obj
 0002:00000890       ??_7IRoot@core@UModSys@@6B@ 0040c890     umodsys_lib_libmedia:umodsys.mod.media.std.obj
 0002:000008b4       ??_7ISetter@SFlags@libmedia@UModSys@@6B@ 0040c8b4     umodsys_lib_libmedia:umodsys.mod.media.std.obj
 0002:000008c4       ??_7RResolverChain@SFlagsChain@libmedia@UModSys@@6B@ 0040c8c4     umodsys_lib_libmedia:umodsys.mod.media.std.obj
 0002:000008cc       ??_7RGenerator@std@media@modules@UModSys@@6B@ 0040c8cc     umodsys_lib_libmedia:umodsys.mod.media.std.obj
 0002:0000091c       ??_7RLibraryBinCache@std@media@modules@UModSys@@6BIRefObject@core@4@@ 0040c91c     umodsys_lib_libmedia:umodsys.mod.media.std.obj
 0002:000009a4       ??_7RLibraryBinCache@std@media@modules@UModSys@@6BISetter@SFlags@libmedia@4@@ 0040c9a4     umodsys_lib_libmedia:umodsys.mod.media.std.obj
 0002:000009b4       ??_7RLibraryBinTree@std@media@modules@UModSys@@6BIRefObject@core@4@@ 0040c9b4     umodsys_lib_libmedia:umodsys.mod.media.std.obj
 0002:00000a38       ??_7RLibraryBinTree@std@media@modules@UModSys@@6BISetter@SFlags@libmedia@4@@ 0040ca38     umodsys_lib_libmedia:umodsys.mod.media.std.obj
 0002:00000a4c       ??_7RLibraryLayered@std@media@modules@UModSys@@6BIRefObject@core@4@@ 0040ca4c     umodsys_lib_libmedia:umodsys.mod.media.std.obj
 0002:00000ad8       ??_7RLibraryLayered@std@media@modules@UModSys@@6BISetter@SFlags@libmedia@4@@ 0040cad8     umodsys_lib_libmedia:umodsys.mod.media.std.obj
 0002:00000aec       ??_7RLibraryObjCache@std@media@modules@UModSys@@6BIRefObject@core@4@@ 0040caec     umodsys_lib_libmedia:umodsys.mod.media.std.obj
 0002:00000b70       ??_7RLibraryObjCache@std@media@modules@UModSys@@6BISetter@SFlags@libmedia@4@@ 0040cb70     umodsys_lib_libmedia:umodsys.mod.media.std.obj
 0002:00000b84       ??_7RLibraryObjFilter@std@media@modules@UModSys@@6BIRefObject@core@4@@ 0040cb84     umodsys_lib_libmedia:umodsys.mod.media.std.obj
 0002:00000c10       ??_7RLibraryObjFilter@std@media@modules@UModSys@@6BISetter@SFlags@libmedia@4@@ 0040cc10     umodsys_lib_libmedia:umodsys.mod.media.std.obj
 0002:00000c20       ??_7RModuleReg@std@media@modules@UModSys@@6B@ 0040cc20     umodsys_lib_libmedia:umodsys.mod.media.std.obj
 0002:00000c38       ??_C@_0DD@HMDIDEEB@UModSys?3?3modules?3?3media?3?3stdio?3?3@ 0040cc38     umodsys_lib_libmedia:umodsys.mod.media.stdio.obj
 0002:00000c6c       ??_C@_08BABJIOEM@filename?$AA@ 0040cc6c     umodsys_lib_libmedia:umodsys.mod.media.stdio.obj
 0002:00000c78       ??_C@_02JDPG@rb?$AA@       0040cc78     umodsys_lib_libmedia:umodsys.mod.media.stdio.obj
 0002:00000c7c       ??_C@_0DD@NMEBJAJM@UModSys?3?3modules?3?3media?3?3stdio?3?3@ 0040cc7c     umodsys_lib_libmedia:umodsys.mod.media.stdio.obj
 0002:00000cb0       ??_C@_04FAOFCKOL@safe?$AA@ 0040ccb0     umodsys_lib_libmedia:umodsys.mod.media.stdio.obj
 0002:00000cb8       ??_C@_02GMLFBBN@wb?$AA@    0040ccb8     umodsys_lib_libmedia:umodsys.mod.media.stdio.obj
 0002:00000cbc       ??_C@_0DE@KBMIHBCD@UModSys?3?3modules?3?3media?3?3stdio?3?3@ 0040ccbc     umodsys_lib_libmedia:umodsys.mod.media.stdio.obj
 0002:00000cf0       ??_C@_01LFCBOECM@?4?$AA@   0040ccf0     umodsys_lib_libmedia:umodsys.mod.media.stdio.obj
 0002:00000cf4       ??_C@_04LNEJFJGI@path?$AA@ 0040ccf4     umodsys_lib_libmedia:umodsys.mod.media.stdio.obj
 0002:00000cfc       ??_C@_08PEIJGPHF@pathname?$AA@ 0040ccfc     umodsys_lib_libmedia:umodsys.mod.media.stdio.obj
 0002:00000d08       ??_C@_0M@PANNIBHH@permissions?$AA@ 0040cd08     umodsys_lib_libmedia:umodsys.mod.media.stdio.obj
 0002:00000d14       ??_C@_0P@DDBOOPIK@?$HL?$HLos?5load?5?$CFs?$HN?$HN?$AA@ 0040cd14     umodsys_lib_libmedia:umodsys.mod.media.stdio.obj
 0002:00000d24       ??_C@_0CL@IOBDHHMI@UModSys?3?3modules?3?3media?3?3stdio?3?3@ 0040cd24     umodsys_lib_libmedia:umodsys.mod.media.stdio.obj
 0002:00000d50       ??_C@_0DE@OOLAIIHN@UMODSYS_MODULE_NAME?$CImedia?0stdio?$CJ@ 0040cd50     umodsys_lib_libmedia:umodsys.mod.media.stdio.obj
 0002:00000d84       ??_C@_0N@HJPCMPI@media?3?3stdio?$AA@ 0040cd84     umodsys_lib_libmedia:umodsys.mod.media.stdio.obj
 0002:00000d9c       ??_7RGenerator@stdio@media@modules@UModSys@@6B@ 0040cd9c     umodsys_lib_libmedia:umodsys.mod.media.stdio.obj
 0002:00000dec       ??_7RStreamReader_FILE@stdio@media@modules@UModSys@@6B@ 0040cdec     umodsys_lib_libmedia:umodsys.mod.media.stdio.obj
 0002:00000e3c       ??_7RStreamWriter_FILE@stdio@media@modules@UModSys@@6B@ 0040ce3c     umodsys_lib_libmedia:umodsys.mod.media.stdio.obj
 0002:00000e9c       ??_7RDataArchiver_OsDir@stdio@media@modules@UModSys@@6BIRefObject@core@4@@ 0040ce9c     umodsys_lib_libmedia:umodsys.mod.media.stdio.obj
 0002:00000ee8       ??_7RDataArchiver_OsDir@stdio@media@modules@UModSys@@6BISetter@SFlags@libmedia@4@@ 0040cee8     umodsys_lib_libmedia:umodsys.mod.media.stdio.obj
 0002:00000ef8       ??_7RModuleReg@stdio@media@modules@UModSys@@6B@ 0040cef8     umodsys_lib_libmedia:umodsys.mod.media.stdio.obj
 0002:00000f10       ??_C@_04HDOCAJNK@?$CFs?$CFs?$AA@ 0040cf10     umodsys_lib_libmedia:umodsys.lib.media.common.obj
 0002:00000f18       ??_C@_02CBLDBPFN@?1?1?$AA@ 0040cf18     umodsys_lib_libmedia:umodsys.lib.media.common.obj
 0002:00000f1c       ??_C@_02BKFDOEMK@wt?$AA@   0040cf1c     umodsys_lib_basesys:umodsys.basesys.rconsole_std.obj
 0002:00000f24       ??_7RConsole_std@rsystem@base@UModSys@@6B@ 0040cf24     umodsys_lib_basesys:umodsys.basesys.rconsole_std.obj
 0002:00000f6c       ??_C@_04HIBGFPH@NULL?$AA@  0040cf6c     umodsys_lib_basesys:umodsys.basesys.rsystem_main.obj
 0002:00000f74       ??_C@_0L@FPKIMPHA@?$CD?$CF08x?5?$CC?$CFs?$CC?$AA@ 0040cf74     umodsys_lib_basesys:umodsys.basesys.rsystem_main.obj
 0002:00000f80       ??_C@_0BC@HBJCAHHB@EFatal?5?$CD?$CF08x?5?$CC?$CFs?$CC?$AA@ 0040cf80     umodsys_lib_basesys:umodsys.basesys.rsystem_main.obj
 0002:00000f94       ??_C@_0BE@IIJFBNID@EWarning?5?$CD?$CF08x?5?$CC?$CFs?$CC?$AA@ 0040cf94     umodsys_lib_basesys:umodsys.basesys.rsystem_main.obj
 0002:00000fa8       ??_C@_0BB@KFMJENMO@RSystem?3?3init?$CI?$CJ?6?$AA@ 0040cfa8     umodsys_lib_basesys:umodsys.basesys.rsystem_main.obj
 0002:00000fbc       ??_C@_0BI@FKDCNCM@RSystem?3?3exec_args?$CI?$CFd?$CJ?6?$AA@ 0040cfbc     umodsys_lib_basesys:umodsys.basesys.rsystem_main.obj
 0002:00000fd4       ??_C@_0BG@NFAKDFBG@RSystem?3?3exec_main?$CI?$CJ?6?$AA@ 0040cfd4     umodsys_lib_basesys:umodsys.basesys.rsystem_main.obj
 0002:00000fec       ??_C@_0BD@CKNOJECK@RSystem?3?3deinit?$CI?$CJ?6?$AA@ 0040cfec     umodsys_lib_basesys:umodsys.basesys.rsystem_main.obj
 0002:00001004       ??_7EExceptionBase@core@UModSys@@6B@ 0040d004     umodsys_lib_basesys:umodsys.basesys.rsystem_main.obj
 0002:00001010       ??_7EFatal@core@UModSys@@6B@ 0040d010     umodsys_lib_basesys:umodsys.basesys.rsystem_main.obj
 0002:0000101c       ??_7EWarning@core@UModSys@@6B@ 0040d01c     umodsys_lib_basesys:umodsys.basesys.rsystem_main.obj
 0002:00001028       ??_7?$TRMemAlloc_CC@U?$TMemAllocHeader@USMagic@mem_headers@rsystem@base@UModSys@@U?$TPool@X@2345@USDebug@2345@UVoid@core@5@U895@@rsystem@base@UModSys@@USMemAlloc_Malloc@core@4@@rsystem@base@UModSys@@6B@ 0040d028     umodsys_lib_basesys:umodsys.basesys.rsystem_main.obj
 0002:0000103c       ??_7RSystem@rsystem@base@UModSys@@6BISystem@23@@ 0040d03c     umodsys_lib_basesys:umodsys.basesys.rsystem_main.obj
 0002:00001080       ??_7RSystem@rsystem@base@UModSys@@6BIUniquePointerResolver@core@3@@ 0040d080     umodsys_lib_basesys:umodsys.basesys.rsystem_main.obj
 0002:0000108c       ??_7RSystem@rsystem@base@UModSys@@6BISourceContextAdapter@core@3@@ 0040d08c     umodsys_lib_basesys:umodsys.basesys.rsystem_main.obj
 0002:00001090       ??_C@_0BC@NNHIIPO@shells?5found?3?5?$CFd?6?$AA@ 0040d090     umodsys_lib_basesys:umodsys.basesys.rsystem_tests.obj
 0002:000010a4       ??_C@_0BA@EBBPOIJG@?5?5shell?3?5?$CFp?5?$CFs?6?$AA@ 0040d0a4     umodsys_lib_basesys:umodsys.basesys.rsystem_tests.obj
 0002:000010b4       ??_C@_0BF@JPMHOAKE@?5?5?5?5shell?5gen?5error?6?$AA@ 0040d0b4     umodsys_lib_basesys:umodsys.basesys.rsystem_tests.obj
 0002:000010cc       ??_C@_0BL@NANLGMEE@?5?5?5?5shell?5generated?5as?5?$CFp?6?$AA@ 0040d0cc     umodsys_lib_basesys:umodsys.basesys.rsystem_tests.obj
 0002:000010e8       ??_C@_0BD@NFNPGOAG@?1shells?5found?3?5?$CFd?6?$AA@ 0040d0e8     umodsys_lib_basesys:umodsys.basesys.rsystem_tests.obj
 0002:000010fc       ??_C@_0CJ@BMAKALAG@?$CK?$CK?$CK?$CK?$CK?$CK?$CK?$CK?$CK?$CK?$CK?$CK?$CK?$CK?$CK?$CK?$CK?$CK?$CK?$CK?$CK?$CK?$CK?$CK?$CK?$CK?$CK?$CK?$CK?$CK?$CK?5@ 0040d0fc     umodsys_lib_basesys:umodsys.basesys.rsystem_tests.obj
 0002:00001128       ??_C@_0IM@GKLDAEGO@sizeof?$CIDRMemAlloc?$CJ?$DN?$CFu?5sizeof?$CIDRM@ 0040d128     umodsys_lib_basesys:umodsys.basesys.rsystem_tests.obj
 0002:000011b4       ??_C@_0CJ@HFHNFOAC@?$CK?$CK?$CK?$CK?$CK?$CK?$CK?$CK?$CK?$CK?$CK?$CK?$CK?$CK?$CK?$CK?$CK?$CK?$CK?$CK?$CK?$CK?$CK?$CK?$CK?$CK?$CK?$CK?$CK?$CK?$CK?5@ 0040d1b4     umodsys_lib_basesys:umodsys.basesys.rsystem_tests.obj
 0002:000011e0       ??_C@_0DG@DMGFJEPO@RModuleLoader?3?3moduledb_cleanup?$CI@ 0040d1e0     umodsys_lib_basesys:umodsys.basesys.rmoduleloader.obj
 0002:00001218       ??_C@_0BN@BDEAMLC@?$CD?5LIST?5OF?5LIBRARY?5MODULES?3?6?6?$AA@ 0040d218     umodsys_lib_basesys:umodsys.basesys.rmoduleloader.obj
 0002:00001238       ??_C@_0BF@PLOHEFDA@?5?$HL?5mod_list?$DN?$CFd?3?$FL?$FN?5?$HN?6?$AA@ 0040d238     umodsys_lib_basesys:umodsys.basesys.rmoduleloader.obj
 0002:00001254       ??_7IModuleLoader@base@UModSys@@6B@ 0040d254     umodsys_lib_basesys:umodsys.basesys.rmoduleloader.obj
 0002:00001294       ??_7RModuleLoader@rsystem@base@UModSys@@6B@ 0040d294     umodsys_lib_basesys:umodsys.basesys.rmoduleloader.obj
 0002:000012d4       ??_7RModuleLibraryThis@rsystem@base@UModSys@@6B@ 0040d2d4     umodsys_lib_basesys:umodsys.basesys.rmodulelibthis.obj
 0002:00001340       ??_C@_0CN@ONDMHEFN@IModuleLibraryUni?$CI?$CFp?$CJ?3?3link?$CI?$CJ?5?9?9@ 0040d340     umodsys_lib_basesys:umodsys.basesys.rmodulelib.obj
 0002:00001370       ??_C@_0BA@LBGMEMKJ@LIBRARY?5?$CC?$CFs?$CC?5?$HL?6?$AA@ 0040d370     umodsys_lib_basesys:umodsys.basesys.rmodulelib.obj
 0002:00001380       ??_C@_0BH@CLNAAMEM@?$HN?5?$CD?5END?5LIBRARY?5?$CC?$CFs?$CC?6?6?$AA@ 0040d380     umodsys_lib_basesys:umodsys.basesys.rmodulelib.obj
 0002:00001398       ??_C@_0BI@OEALOBHC@NULL?5detected?5after?5?$CFp?6?$AA@ 0040d398     umodsys_lib_basesys:umodsys.basesys.rmodulelib.obj
 0002:000013b0       ??_C@_0CH@LDLHHCGC@leak?5detected?5?$CFp?5size?5?$CFu?5at?5?$CFs?$CI?$CF@ 0040d3b0     umodsys_lib_basesys:umodsys.basesys.rmodulelib.obj
 0002:000013d8       ??_C@_0BK@NDLOCOMD@leak?5detected?5?$CFp?5size?5?$CFu?6?$AA@ 0040d3d8     umodsys_lib_basesys:umodsys.basesys.rmodulelib.obj
 0002:000013fc       ??_7IModuleLibraryUni@rsystem@base@UModSys@@6B@ 0040d3fc     umodsys_lib_basesys:umodsys.basesys.rmodulelib.obj
 0002:0000146c       ??_7RParameters@rsystem@base@UModSys@@6B@ 0040d46c     umodsys_lib_basesys:umodsys.basesys.rparameters.obj
 0002:000014dc       ??_C@_0BJ@IHGOMCFA@_UModSys_Plugin_Entry2?$EA0?$AA@ 0040d4dc     umodsys_lib_basesys:umodsys.basesys.rmodule.win32.obj
 0002:000014f8       ??_C@_0CI@IABKIJLA@?5?5?5?5?5?5?5?5?5?5load?5so?$CI?$CC?$CFs?$CC?$CJ?5?$HL?$CFp?0?5?$CFp?$HN@ 0040d4f8     umodsys_lib_basesys:umodsys.basesys.rmodule.win32.obj
 0002:00001520       ??_C@_0BP@EBMDLOGD@?5?5?5?5?5?5?5?5?5?5unload?5so?$CI?$HL?$CFp?0?5?$CFp?$HN?$CJ?6?$AA@ 0040d520     umodsys_lib_basesys:umodsys.basesys.rmodule.win32.obj
 0002:00001540       ??_C@_0BD@FBMHCLKB@scan?5so?3?5?$CC?$CFs?$CFs?$CFs?$CC?6?$AA@ 0040d540     umodsys_lib_basesys:umodsys.basesys.rmodule.win32.obj
 0002:00001554       ??_C@_0BC@GMLCPHOK@?1scan?5so?3?5?$CC?$CFs?$CFs?$CC?6?$AA@ 0040d554     umodsys_lib_basesys:umodsys.basesys.rmodule.win32.obj
 0002:00001568       ??_C@_02CAHBHFGK@?4?1?$AA@ 0040d568     umodsys_lib_basesys:umodsys.basesys.rmodule.win32.obj
 0002:0000156c       ??_C@_04HLONOPDM@?4dll?$AA@ 0040d56c     umodsys_lib_basesys:umodsys.basesys.rmodule.win32.obj
 0002:00001574       ??_C@_0BF@KDHHIHAN@RModule?$CI?$CFp?$CJ?3?3open?$CI?$CJ?6?$AA@ 0040d574     umodsys_lib_basesys:umodsys.basesys.rmodule.obj
 0002:0000158c       ??_C@_0BG@HADBHJOP@RModule?$CI?$CFp?$CJ?3?3close?$CI?$CJ?6?$AA@ 0040d58c     umodsys_lib_basesys:umodsys.basesys.rmodule.obj
 0002:000015a4       ??_C@_0BK@FNONNOFM@RModule?$CI?$CFp?$CJ?3?3?5pre?9loaded?6?$AA@ 0040d5a4     umodsys_lib_basesys:umodsys.basesys.rmodule.obj
 0002:000015c0       ??_C@_0CE@HBBEEAED@RModule?$CI?$CFp?$CJ?3?3generate?$CI?$CJ?5?$HL?5gen?$DN?$CFp@ 0040d5c0     umodsys_lib_basesys:umodsys.basesys.rmodule.obj
 0002:000015e4       ??_C@_0DL@FHDKGKAD@RModule?$CI?$CFp?$CJ?3?3reg_generator?$CI?$CFs?5?$CFp@ 0040d5e4     umodsys_lib_basesys:umodsys.basesys.rmodule.obj
 0002:00001620       ??_C@_0DL@ECFHLNEB@RModule?$CI?$CFp?$CJ?3?3reg_generator?$CI?$CFs?5?$CFp@ 0040d620     umodsys_lib_basesys:umodsys.basesys.rmodule.obj
 0002:0000165c       ??_C@_0DI@EBNLDEPD@RModule?$CI?$CFp?$CJ?3?3reg_obj?$CI?$CFs?5?$CFp?$CJ?5?9?9?5?$HL@ 0040d65c     umodsys_lib_basesys:umodsys.basesys.rmodule.obj
 0002:00001698       ??_C@_0GC@IAELDHPB@RModule?$CI?$CFp?$CJ?3?3reg_obj?$CI?$CFs?5?$CFp?$CJ?5?9?9?5i@ 0040d698     umodsys_lib_basesys:umodsys.basesys.rmodule.obj
 0002:000016fc       ??_C@_0CM@JCLMIGEB@RModule?$CI?$CFp?$CJ?3?3reg_obj?$CI?$CFs?5?$CFp?$CJ?5?9?9?5a@ 0040d6fc     umodsys_lib_basesys:umodsys.basesys.rmodule.obj
 0002:00001728       ??_C@_0DK@NJCECDIC@RModule?$CI?$CFp?$CJ?3?3unreg_obj?$CI?$CFs?5?$CFp?$CJ?5?9?9@ 0040d728     umodsys_lib_basesys:umodsys.basesys.rmodule.obj
 0002:00001768       ??_C@_0GE@MGLAJHFG@RModule?$CI?$CFp?$CJ?3?3unreg_obj?$CI?$CFs?5?$CFp?$CJ?5?9?9@ 0040d768     umodsys_lib_basesys:umodsys.basesys.rmodule.obj
 0002:000017cc       ??_C@_0CO@DAMPCAGA@RModule?3?3alloc_minfo?$CI?$HL?$CC?$CFs?$CC?0?5?$CC?$CFs?$CC@ 0040d7cc     umodsys_lib_basesys:umodsys.basesys.rmodule.obj
 0002:000017fc       ??_C@_0BG@HANHHGHE@?5?5MODULE?5?$CFs?$CI?$CFd?0?$CFd?$CJ?5?$HL?6?$AA@ 0040d7fc     umodsys_lib_basesys:umodsys.basesys.rmodule.obj
 0002:00001814       ??_C@_0CI@FMDENPAM@RModule?$CI?$CFp?$CJ?3?3save_db?$CI?4?4?4?$CJ?5?9?9?5?$HL?5?$CF@ 0040d814     umodsys_lib_basesys:umodsys.basesys.rmodule.obj
 0002:0000183c       ??_C@_0BN@CFNKPKCH@?5?5?5?5MODOBJECT?5?$CFs?$CI?$CFd?$CJ?5?$CFs?$CI?$CFd?$CJ?6?$AA@ 0040d83c     umodsys_lib_basesys:umodsys.basesys.rmodule.obj
 0002:0000185c       ??_C@_0BP@BJFGMFNK@?5?5?5?5GENERATOR?5?$CFs?$CI?$CFd?$CJ?5?$CFs?$CI?$CFd?$CJ?5?$HL?6?$AA@ 0040d85c     umodsys_lib_basesys:umodsys.basesys.rmodule.obj
 0002:0000187c       ??_C@_0BK@DNNMLLHP@?5?5?5?5?5?5REFOBJECT?5?$CFs?$CI?$CFd?$CJ?5?$HL?6?$AA@ 0040d87c     umodsys_lib_basesys:umodsys.basesys.rmodule.obj
 0002:00001898       ??_C@_0BF@CJPCFEEB@?5?5?5?5?5?5?5?5TYPE?5?$CFs?$CI?$CFd?$CJ?6?$AA@ 0040d898     umodsys_lib_basesys:umodsys.basesys.rmodule.obj
 0002:000018b0       ??_C@_0BM@PFPEFHDC@?5?5?5?5?5?5?$HN?5?$CD?5REFOBJECT?5?$CFs?$CI?$CFd?$CJ?6?$AA@ 0040d8b0     umodsys_lib_basesys:umodsys.basesys.rmodule.obj
 0002:000018cc       ??_C@_0CB@PCDHJLII@?5?5?5?5?$HN?5?$CD?5GENERATOR?5?$CFs?$CI?$CFd?$CJ?5?$CFs?$CI?$CFd?$CJ?6@ 0040d8cc     umodsys_lib_basesys:umodsys.basesys.rmodule.obj
 0002:000018f0       ??_C@_0BI@OGBPJMLO@?5?5?$HN?5?$CD?5MODULE?5?$CFs?$CI?$CFd?0?$CFd?$CJ?6?$AA@ 0040d8f0     umodsys_lib_basesys:umodsys.basesys.rmodule.obj
 0002:0000190c       ??_7RModule@rsystem@base@UModSys@@6B@ 0040d90c     umodsys_lib_basesys:umodsys.basesys.rmodule.obj
 0002:00001960       ??_C@_0M@KEHKBKEH@?5?5so?3?5?$CC?$CFs?$CC?6?$AA@ 0040d960     umodsys_lib_basesys:umodsys.basesys.rmodulelibso.obj
 0002:0000196c       ??_C@_0BF@IKAEAMGP@?5?5?5?5so?5loaded?3?5?$CC?$CFs?$CC?6?$AA@ 0040d96c     umodsys_lib_basesys:umodsys.basesys.rmodulelibso.obj
 0002:00001984       ??_C@_0O@MCPOKEFF@?5?5?5?5so?5added?6?$AA@ 0040d984     umodsys_lib_basesys:umodsys.basesys.rmodulelibso.obj
 0002:00001994       ??_C@_0BE@BFONLBBI@?5?5?5?5so?5dup?5with?5?$CFd?6?$AA@ 0040d994     umodsys_lib_basesys:umodsys.basesys.rmodulelibso.obj
 0002:000019ac       ??_7RModuleLibrarySO@rsystem@base@UModSys@@6B@ 0040d9ac     umodsys_lib_basesys:umodsys.basesys.rmodulelibso.obj
 0002:00001a1c       ??_7RModuleLibraryReg_Chain@base@UModSys@@6B@ 0040da1c     umodsys_lib_base:umodsys.base.moduleregchain.obj
 0002:00001a38       ??_7IModuleReg@base@UModSys@@6B@ 0040da38     umodsys_lib_base:umodsys.base.modulereg.obj
 0002:00001a54       ??_7IModuleLibraryReg@base@UModSys@@6B@ 0040da54     umodsys_lib_base:umodsys.base.modulereg.obj
 0002:00001a6c       ??_C@_04MMEBIPMJ@?4tmp?$AA@ 0040da6c     umodsys_lib_core:umodsys.core.syshlp_files.win32.obj
 0002:00001a78       __load_config_used         0040da78     MSVCRT:loadcfg.obj
 0002:00001ac0       ??_R4type_info@@6B@        0040dac0     MSVCRT:ti_inst.obj
 0002:00001ad4       ??_R3type_info@@8          0040dad4     MSVCRT:ti_inst.obj
 0002:00001ae4       ??_R2type_info@@8          0040dae4     MSVCRT:ti_inst.obj
 0002:00001aec       ??_R1A@?0A@EA@type_info@@8 0040daec     MSVCRT:ti_inst.obj
 0002:00001b08       ??_R4RModuleReg@std@media@modules@UModSys@@6B@ 0040db08     umodsys_lib_libmedia:umodsys.mod.media.std.obj
 0002:00001b1c       ??_R3RModuleReg@std@media@modules@UModSys@@8 0040db1c     umodsys_lib_libmedia:umodsys.mod.media.std.obj
 0002:00001b2c       ??_R2RModuleReg@std@media@modules@UModSys@@8 0040db2c     umodsys_lib_libmedia:umodsys.mod.media.std.obj
 0002:00001b38       ??_R1A@?0A@EA@IModuleReg@base@UModSys@@8 0040db38     umodsys_lib_libmedia:umodsys.mod.media.std.obj
 0002:00001b54       ??_R3IModuleReg@base@UModSys@@8 0040db54     umodsys_lib_libmedia:umodsys.mod.media.std.obj
 0002:00001b64       ??_R2IModuleReg@base@UModSys@@8 0040db64     umodsys_lib_libmedia:umodsys.mod.media.std.obj
 0002:00001b6c       ??_R1A@?0A@EA@RModuleReg@std@media@modules@UModSys@@8 0040db6c     umodsys_lib_libmedia:umodsys.mod.media.std.obj
 0002:00001b88       ??_R4RLibraryObjFilter@std@media@modules@UModSys@@6BISetter@SFlags@libmedia@4@@ 0040db88     umodsys_lib_libmedia:umodsys.mod.media.std.obj
 0002:00001b9c       ??_R4RLibraryObjFilter@std@media@modules@UModSys@@6BIRefObject@core@4@@ 0040db9c     umodsys_lib_libmedia:umodsys.mod.media.std.obj
 0002:00001bb0       ??_R3RLibraryObjFilter@std@media@modules@UModSys@@8 0040dbb0     umodsys_lib_libmedia:umodsys.mod.media.std.obj
 0002:00001bc0       ??_R2RLibraryObjFilter@std@media@modules@UModSys@@8 0040dbc0     umodsys_lib_libmedia:umodsys.mod.media.std.obj
 0002:00001be4       ??_R1A@?0A@EA@RLibraryObjFilter@std@media@modules@UModSys@@8 0040dbe4     umodsys_lib_libmedia:umodsys.mod.media.std.obj
 0002:00001c00       ??_R4RLibraryObjCache@std@media@modules@UModSys@@6BISetter@SFlags@libmedia@4@@ 0040dc00     umodsys_lib_libmedia:umodsys.mod.media.std.obj
 0002:00001c14       ??_R4RLibraryObjCache@std@media@modules@UModSys@@6BIRefObject@core@4@@ 0040dc14     umodsys_lib_libmedia:umodsys.mod.media.std.obj
 0002:00001c28       ??_R3RLibraryObjCache@std@media@modules@UModSys@@8 0040dc28     umodsys_lib_libmedia:umodsys.mod.media.std.obj
 0002:00001c38       ??_R2RLibraryObjCache@std@media@modules@UModSys@@8 0040dc38     umodsys_lib_libmedia:umodsys.mod.media.std.obj
 0002:00001c5c       ??_R1A@?0A@EA@RLibraryObjCache@std@media@modules@UModSys@@8 0040dc5c     umodsys_lib_libmedia:umodsys.mod.media.std.obj
 0002:00001c78       ??_R4RLibraryLayered@std@media@modules@UModSys@@6BISetter@SFlags@libmedia@4@@ 0040dc78     umodsys_lib_libmedia:umodsys.mod.media.std.obj
 0002:00001c8c       ??_R4RLibraryLayered@std@media@modules@UModSys@@6BIRefObject@core@4@@ 0040dc8c     umodsys_lib_libmedia:umodsys.mod.media.std.obj
 0002:00001ca0       ??_R3RLibraryLayered@std@media@modules@UModSys@@8 0040dca0     umodsys_lib_libmedia:umodsys.mod.media.std.obj
 0002:00001cb0       ??_R2RLibraryLayered@std@media@modules@UModSys@@8 0040dcb0     umodsys_lib_libmedia:umodsys.mod.media.std.obj
 0002:00001cd4       ??_R1A@?0A@EA@RLibraryLayered@std@media@modules@UModSys@@8 0040dcd4     umodsys_lib_libmedia:umodsys.mod.media.std.obj
 0002:00001cf0       ??_R4RLibraryBinTree@std@media@modules@UModSys@@6BISetter@SFlags@libmedia@4@@ 0040dcf0     umodsys_lib_libmedia:umodsys.mod.media.std.obj
 0002:00001d04       ??_R4RLibraryBinTree@std@media@modules@UModSys@@6BIRefObject@core@4@@ 0040dd04     umodsys_lib_libmedia:umodsys.mod.media.std.obj
 0002:00001d18       ??_R3RLibraryBinTree@std@media@modules@UModSys@@8 0040dd18     umodsys_lib_libmedia:umodsys.mod.media.std.obj
 0002:00001d28       ??_R2RLibraryBinTree@std@media@modules@UModSys@@8 0040dd28     umodsys_lib_libmedia:umodsys.mod.media.std.obj
 0002:00001d4c       ??_R1A@?0A@EA@RLibraryBinTree@std@media@modules@UModSys@@8 0040dd4c     umodsys_lib_libmedia:umodsys.mod.media.std.obj
 0002:00001d68       ??_R4RLibraryBinCache@std@media@modules@UModSys@@6BISetter@SFlags@libmedia@4@@ 0040dd68     umodsys_lib_libmedia:umodsys.mod.media.std.obj
 0002:00001d7c       ??_R4RLibraryBinCache@std@media@modules@UModSys@@6BIRefObject@core@4@@ 0040dd7c     umodsys_lib_libmedia:umodsys.mod.media.std.obj
 0002:00001d90       ??_R3RLibraryBinCache@std@media@modules@UModSys@@8 0040dd90     umodsys_lib_libmedia:umodsys.mod.media.std.obj
 0002:00001da0       ??_R2RLibraryBinCache@std@media@modules@UModSys@@8 0040dda0     umodsys_lib_libmedia:umodsys.mod.media.std.obj
 0002:00001dc4       ??_R1A@?0A@EA@RLibraryBinCache@std@media@modules@UModSys@@8 0040ddc4     umodsys_lib_libmedia:umodsys.mod.media.std.obj
 0002:00001de0       ??_R4RGenerator@std@media@modules@UModSys@@6B@ 0040dde0     umodsys_lib_libmedia:umodsys.mod.media.std.obj
 0002:00001df4       ??_R3RGenerator@std@media@modules@UModSys@@8 0040ddf4     umodsys_lib_libmedia:umodsys.mod.media.std.obj
 0002:00001e04       ??_R2RGenerator@std@media@modules@UModSys@@8 0040de04     umodsys_lib_libmedia:umodsys.mod.media.std.obj
 0002:00001e1c       ??_R1A@?0A@EA@RGenerator@std@media@modules@UModSys@@8 0040de1c     umodsys_lib_libmedia:umodsys.mod.media.std.obj
 0002:00001e38       ??_R4RResolverChain@SFlagsChain@libmedia@UModSys@@6B@ 0040de38     umodsys_lib_libmedia:umodsys.mod.media.std.obj
 0002:00001e4c       ??_R3RResolverChain@SFlagsChain@libmedia@UModSys@@8 0040de4c     umodsys_lib_libmedia:umodsys.mod.media.std.obj
 0002:00001e5c       ??_R2RResolverChain@SFlagsChain@libmedia@UModSys@@8 0040de5c     umodsys_lib_libmedia:umodsys.mod.media.std.obj
 0002:00001e68       ??_R1A@?0A@EA@RResolverChain@SFlagsChain@libmedia@UModSys@@8 0040de68     umodsys_lib_libmedia:umodsys.mod.media.std.obj
 0002:00001e84       ??_R4ISetter@SFlags@libmedia@UModSys@@6B@ 0040de84     umodsys_lib_libmedia:umodsys.mod.media.std.obj
 0002:00001e98       ??_R3ILibraryLayered@libmedia@UModSys@@8 0040de98     umodsys_lib_libmedia:umodsys.mod.media.std.obj
 0002:00001ea8       ??_R2ILibraryLayered@libmedia@UModSys@@8 0040dea8     umodsys_lib_libmedia:umodsys.mod.media.std.obj
 0002:00001ec8       ??_R1A@?0A@EA@ILibraryLayered@libmedia@UModSys@@8 0040dec8     umodsys_lib_libmedia:umodsys.mod.media.std.obj
 0002:00001ee4       ??_R3ILibraryObjCache@libmedia@UModSys@@8 0040dee4     umodsys_lib_libmedia:umodsys.mod.media.std.obj
 0002:00001ef4       ??_R2ILibraryObjCache@libmedia@UModSys@@8 0040def4     umodsys_lib_libmedia:umodsys.mod.media.std.obj
 0002:00001f14       ??_R1A@?0A@EA@ILibraryObjCache@libmedia@UModSys@@8 0040df14     umodsys_lib_libmedia:umodsys.mod.media.std.obj
 0002:00001f30       ??_R3ILibraryObjFilter@libmedia@UModSys@@8 0040df30     umodsys_lib_libmedia:umodsys.mod.media.std.obj
 0002:00001f40       ??_R2ILibraryObjFilter@libmedia@UModSys@@8 0040df40     umodsys_lib_libmedia:umodsys.mod.media.std.obj
 0002:00001f60       ??_R1A@?0A@EA@ILibraryObjFilter@libmedia@UModSys@@8 0040df60     umodsys_lib_libmedia:umodsys.mod.media.std.obj
 0002:00001f7c       ??_R3ILibraryBinCache@libmedia@UModSys@@8 0040df7c     umodsys_lib_libmedia:umodsys.mod.media.std.obj
 0002:00001f8c       ??_R2ILibraryBinCache@libmedia@UModSys@@8 0040df8c     umodsys_lib_libmedia:umodsys.mod.media.std.obj
 0002:00001fac       ??_R1A@?0A@EA@ILibraryBinCache@libmedia@UModSys@@8 0040dfac     umodsys_lib_libmedia:umodsys.mod.media.std.obj
 0002:00001fc8       ??_R3ILibraryBinTree@libmedia@UModSys@@8 0040dfc8     umodsys_lib_libmedia:umodsys.mod.media.std.obj
 0002:00001fd8       ??_R2ILibraryBinTree@libmedia@UModSys@@8 0040dfd8     umodsys_lib_libmedia:umodsys.mod.media.std.obj
 0002:00001ff8       ??_R1A@?0A@EA@ILibraryBinTree@libmedia@UModSys@@8 0040dff8     umodsys_lib_libmedia:umodsys.mod.media.std.obj
 0002:00002014       ??_R3ILibrary@libmedia@UModSys@@8 0040e014     umodsys_lib_libmedia:umodsys.mod.media.std.obj
 0002:00002024       ??_R2ILibrary@libmedia@UModSys@@8 0040e024     umodsys_lib_libmedia:umodsys.mod.media.std.obj
 0002:00002040       ??_R13?0A@EA@IResolver@SFlags@libmedia@UModSys@@8 0040e040     umodsys_lib_libmedia:umodsys.mod.media.std.obj
 0002:0000205c       ??_R13?0A@EA@IResolverAuto@SFlags@libmedia@UModSys@@8 0040e05c     umodsys_lib_libmedia:umodsys.mod.media.std.obj
 0002:00002078       ??_R13?0A@EA@ISetter@SFlags@libmedia@UModSys@@8 0040e078     umodsys_lib_libmedia:umodsys.mod.media.std.obj
 0002:00002094       ??_R3ISetter@SFlags@libmedia@UModSys@@8 0040e094     umodsys_lib_libmedia:umodsys.mod.media.std.obj
 0002:000020a4       ??_R2ISetter@SFlags@libmedia@UModSys@@8 0040e0a4     umodsys_lib_libmedia:umodsys.mod.media.std.obj
 0002:000020b4       ??_R1A@?0A@EA@IResolverAuto@SFlags@libmedia@UModSys@@8 0040e0b4     umodsys_lib_libmedia:umodsys.mod.media.std.obj
 0002:000020d0       ??_R3IResolverAuto@SFlags@libmedia@UModSys@@8 0040e0d0     umodsys_lib_libmedia:umodsys.mod.media.std.obj
 0002:000020e0       ??_R2IResolverAuto@SFlags@libmedia@UModSys@@8 0040e0e0     umodsys_lib_libmedia:umodsys.mod.media.std.obj
 0002:000020ec       ??_R1A@?0A@EA@IResolver@SFlags@libmedia@UModSys@@8 0040e0ec     umodsys_lib_libmedia:umodsys.mod.media.std.obj
 0002:00002108       ??_R3IResolver@SFlags@libmedia@UModSys@@8 0040e108     umodsys_lib_libmedia:umodsys.mod.media.std.obj
 0002:00002118       ??_R2IResolver@SFlags@libmedia@UModSys@@8 0040e118     umodsys_lib_libmedia:umodsys.mod.media.std.obj
 0002:00002120       ??_R1A@?0A@EA@ISetter@SFlags@libmedia@UModSys@@8 0040e120     umodsys_lib_libmedia:umodsys.mod.media.std.obj
 0002:0000213c       ??_R1A@?0A@EA@ILibrary@libmedia@UModSys@@8 0040e13c     umodsys_lib_libmedia:umodsys.mod.media.std.obj
 0002:00002158       ??_R3IGenerator@base@UModSys@@8 0040e158     umodsys_lib_libmedia:umodsys.mod.media.std.obj
 0002:00002168       ??_R2IGenerator@base@UModSys@@8 0040e168     umodsys_lib_libmedia:umodsys.mod.media.std.obj
 0002:0000217c       ??_R1A@?0A@EA@IGenerator@base@UModSys@@8 0040e17c     umodsys_lib_libmedia:umodsys.mod.media.std.obj
 0002:00002198       ??_R3IModObject@base@UModSys@@8 0040e198     umodsys_lib_libmedia:umodsys.mod.media.std.obj
 0002:000021a8       ??_R2IModObject@base@UModSys@@8 0040e1a8     umodsys_lib_libmedia:umodsys.mod.media.std.obj
 0002:000021b8       ??_R1A@?0A@EA@IModObject@base@UModSys@@8 0040e1b8     umodsys_lib_libmedia:umodsys.mod.media.std.obj
 0002:000021d4       ??_R3IRefObject@core@UModSys@@8 0040e1d4     umodsys_lib_libmedia:umodsys.mod.media.std.obj
 0002:000021e4       ??_R2IRefObject@core@UModSys@@8 0040e1e4     umodsys_lib_libmedia:umodsys.mod.media.std.obj
 0002:000021f0       ??_R1A@?0A@EA@IRefObject@core@UModSys@@8 0040e1f0     umodsys_lib_libmedia:umodsys.mod.media.std.obj
 0002:0000220c       ??_R4IRoot@core@UModSys@@6B@ 0040e20c     umodsys_lib_libmedia:umodsys.mod.media.std.obj
 0002:00002220       ??_R3IRoot@core@UModSys@@8 0040e220     umodsys_lib_libmedia:umodsys.mod.media.std.obj
 0002:00002230       ??_R2IRoot@core@UModSys@@8 0040e230     umodsys_lib_libmedia:umodsys.mod.media.std.obj
 0002:00002238       ??_R1A@?0A@EA@IRoot@core@UModSys@@8 0040e238     umodsys_lib_libmedia:umodsys.mod.media.std.obj
 0002:00002254       ??_R4RModuleReg@stdio@media@modules@UModSys@@6B@ 0040e254     umodsys_lib_libmedia:umodsys.mod.media.stdio.obj
 0002:00002268       ??_R3RModuleReg@stdio@media@modules@UModSys@@8 0040e268     umodsys_lib_libmedia:umodsys.mod.media.stdio.obj
 0002:00002278       ??_R2RModuleReg@stdio@media@modules@UModSys@@8 0040e278     umodsys_lib_libmedia:umodsys.mod.media.stdio.obj
 0002:00002284       ??_R1A@?0A@EA@RModuleReg@stdio@media@modules@UModSys@@8 0040e284     umodsys_lib_libmedia:umodsys.mod.media.stdio.obj
 0002:000022a0       ??_R4RDataArchiver_OsDir@stdio@media@modules@UModSys@@6BISetter@SFlags@libmedia@4@@ 0040e2a0     umodsys_lib_libmedia:umodsys.mod.media.stdio.obj
 0002:000022b4       ??_R4RDataArchiver_OsDir@stdio@media@modules@UModSys@@6BIRefObject@core@4@@ 0040e2b4     umodsys_lib_libmedia:umodsys.mod.media.stdio.obj
 0002:000022c8       ??_R3RDataArchiver_OsDir@stdio@media@modules@UModSys@@8 0040e2c8     umodsys_lib_libmedia:umodsys.mod.media.stdio.obj
 0002:000022d8       ??_R2RDataArchiver_OsDir@stdio@media@modules@UModSys@@8 0040e2d8     umodsys_lib_libmedia:umodsys.mod.media.stdio.obj
 0002:000022f8       ??_R1A@?0A@EA@RDataArchiver_OsDir@stdio@media@modules@UModSys@@8 0040e2f8     umodsys_lib_libmedia:umodsys.mod.media.stdio.obj
 0002:00002314       ??_R4RStreamWriter_FILE@stdio@media@modules@UModSys@@6B@ 0040e314     umodsys_lib_libmedia:umodsys.mod.media.stdio.obj
 0002:00002328       ??_R3RStreamWriter_FILE@stdio@media@modules@UModSys@@8 0040e328     umodsys_lib_libmedia:umodsys.mod.media.stdio.obj
 0002:00002338       ??_R2RStreamWriter_FILE@stdio@media@modules@UModSys@@8 0040e338     umodsys_lib_libmedia:umodsys.mod.media.stdio.obj
 0002:0000234c       ??_R1A@?0A@EA@RStreamWriter_FILE@stdio@media@modules@UModSys@@8 0040e34c     umodsys_lib_libmedia:umodsys.mod.media.stdio.obj
 0002:00002368       ??_R4RStreamReader_FILE@stdio@media@modules@UModSys@@6B@ 0040e368     umodsys_lib_libmedia:umodsys.mod.media.stdio.obj
 0002:0000237c       ??_R3RStreamReader_FILE@stdio@media@modules@UModSys@@8 0040e37c     umodsys_lib_libmedia:umodsys.mod.media.stdio.obj
 0002:0000238c       ??_R2RStreamReader_FILE@stdio@media@modules@UModSys@@8 0040e38c     umodsys_lib_libmedia:umodsys.mod.media.stdio.obj
 0002:000023a0       ??_R1A@?0A@EA@RStreamReader_FILE@stdio@media@modules@UModSys@@8 0040e3a0     umodsys_lib_libmedia:umodsys.mod.media.stdio.obj
 0002:000023bc       ??_R4RGenerator@stdio@media@modules@UModSys@@6B@ 0040e3bc     umodsys_lib_libmedia:umodsys.mod.media.stdio.obj
 0002:000023d0       ??_R3RGenerator@stdio@media@modules@UModSys@@8 0040e3d0     umodsys_lib_libmedia:umodsys.mod.media.stdio.obj
 0002:000023e0       ??_R2RGenerator@stdio@media@modules@UModSys@@8 0040e3e0     umodsys_lib_libmedia:umodsys.mod.media.stdio.obj
 0002:000023f8       ??_R1A@?0A@EA@RGenerator@stdio@media@modules@UModSys@@8 0040e3f8     umodsys_lib_libmedia:umodsys.mod.media.stdio.obj
 0002:00002414       ??_R3IBinArchive@libmedia@UModSys@@8 0040e414     umodsys_lib_libmedia:umodsys.mod.media.stdio.obj
 0002:00002424       ??_R2IBinArchive@libmedia@UModSys@@8 0040e424     umodsys_lib_libmedia:umodsys.mod.media.stdio.obj
 0002:00002440       ??_R1A@?0A@EA@IBinArchive@libmedia@UModSys@@8 0040e440     umodsys_lib_libmedia:umodsys.mod.media.stdio.obj
 0002:0000245c       ??_R3IStreamWriter@libmedia@UModSys@@8 0040e45c     umodsys_lib_libmedia:umodsys.mod.media.stdio.obj
 0002:0000246c       ??_R2IStreamWriter@libmedia@UModSys@@8 0040e46c     umodsys_lib_libmedia:umodsys.mod.media.stdio.obj
 0002:0000247c       ??_R1A@?0A@EA@IStreamWriter@libmedia@UModSys@@8 0040e47c     umodsys_lib_libmedia:umodsys.mod.media.stdio.obj
 0002:00002498       ??_R3IStreamReader@libmedia@UModSys@@8 0040e498     umodsys_lib_libmedia:umodsys.mod.media.stdio.obj
 0002:000024a8       ??_R2IStreamReader@libmedia@UModSys@@8 0040e4a8     umodsys_lib_libmedia:umodsys.mod.media.stdio.obj
 0002:000024b8       ??_R1A@?0A@EA@IStreamReader@libmedia@UModSys@@8 0040e4b8     umodsys_lib_libmedia:umodsys.mod.media.stdio.obj
 0002:000024d4       ??_R4RConsole_std@rsystem@base@UModSys@@6B@ 0040e4d4     umodsys_lib_basesys:umodsys.basesys.rconsole_std.obj
 0002:000024e8       ??_R3RConsole_std@rsystem@base@UModSys@@8 0040e4e8     umodsys_lib_basesys:umodsys.basesys.rconsole_std.obj
 0002:000024f8       ??_R2RConsole_std@rsystem@base@UModSys@@8 0040e4f8     umodsys_lib_basesys:umodsys.basesys.rconsole_std.obj
 0002:0000250c       ??_R1A@?0A@EA@RConsole_std@rsystem@base@UModSys@@8 0040e50c     umodsys_lib_basesys:umodsys.basesys.rconsole_std.obj
 0002:00002528       ??_R3IConsole@base@UModSys@@8 0040e528     umodsys_lib_basesys:umodsys.basesys.rconsole_std.obj
 0002:00002538       ??_R2IConsole@base@UModSys@@8 0040e538     umodsys_lib_basesys:umodsys.basesys.rconsole_std.obj
 0002:00002548       ??_R1A@?0A@EA@IConsole@base@UModSys@@8 0040e548     umodsys_lib_basesys:umodsys.basesys.rconsole_std.obj
 0002:00002564       ??_R4RSystem@rsystem@base@UModSys@@6BISourceContextAdapter@core@3@@ 0040e564     umodsys_lib_basesys:umodsys.basesys.rsystem_main.obj
 0002:00002578       ??_R4RSystem@rsystem@base@UModSys@@6BIUniquePointerResolver@core@3@@ 0040e578     umodsys_lib_basesys:umodsys.basesys.rsystem_main.obj
 0002:0000258c       ??_R4RSystem@rsystem@base@UModSys@@6BISystem@23@@ 0040e58c     umodsys_lib_basesys:umodsys.basesys.rsystem_main.obj
 0002:000025a0       ??_R3RSystem@rsystem@base@UModSys@@8 0040e5a0     umodsys_lib_basesys:umodsys.basesys.rsystem_main.obj
 0002:000025b0       ??_R2RSystem@rsystem@base@UModSys@@8 0040e5b0     umodsys_lib_basesys:umodsys.basesys.rsystem_main.obj
 0002:000025c8       ??_R17?0A@EA@ISourceContextAdapter@core@UModSys@@8 0040e5c8     umodsys_lib_basesys:umodsys.basesys.rsystem_main.obj
 0002:000025e4       ??_R13?0A@EA@IUniquePointerResolver@core@UModSys@@8 0040e5e4     umodsys_lib_basesys:umodsys.basesys.rsystem_main.obj
 0002:00002600       ??_R1A@?0A@EA@RSystem@rsystem@base@UModSys@@8 0040e600     umodsys_lib_basesys:umodsys.basesys.rsystem_main.obj
 0002:0000261c       ??_R4?$TRMemAlloc_CC@U?$TMemAllocHeader@USMagic@mem_headers@rsystem@base@UModSys@@U?$TPool@X@2345@USDebug@2345@UVoid@core@5@U895@@rsystem@base@UModSys@@USMemAlloc_Malloc@core@4@@rsystem@base@UModSys@@6B@ 0040e61c     umodsys_lib_basesys:umodsys.basesys.rsystem_main.obj
 0002:00002630       ??_R3?$TRMemAlloc_CC@U?$TMemAllocHeader@USMagic@mem_headers@rsystem@base@UModSys@@U?$TPool@X@2345@USDebug@2345@UVoid@core@5@U895@@rsystem@base@UModSys@@USMemAlloc_Malloc@core@4@@rsystem@base@UModSys@@8 0040e630     umodsys_lib_basesys:umodsys.basesys.rsystem_main.obj
 0002:00002640       ??_R2?$TRMemAlloc_CC@U?$TMemAllocHeader@USMagic@mem_headers@rsystem@base@UModSys@@U?$TPool@X@2345@USDebug@2345@UVoid@core@5@U895@@rsystem@base@UModSys@@USMemAlloc_Malloc@core@4@@rsystem@base@UModSys@@8 0040e640     umodsys_lib_basesys:umodsys.basesys.rsystem_main.obj
 0002:00002650       ??_R13?0A@EA@SMemAlloc_Malloc@core@UModSys@@8 0040e650     umodsys_lib_basesys:umodsys.basesys.rsystem_main.obj
 0002:0000266c       ??_R3SMemAlloc_Malloc@core@UModSys@@8 0040e66c     umodsys_lib_basesys:umodsys.basesys.rsystem_main.obj
 0002:0000267c       ??_R2SMemAlloc_Malloc@core@UModSys@@8 0040e67c     umodsys_lib_basesys:umodsys.basesys.rsystem_main.obj
 0002:00002684       ??_R1A@?0A@EA@SMemAlloc_Malloc@core@UModSys@@8 0040e684     umodsys_lib_basesys:umodsys.basesys.rsystem_main.obj
 0002:000026a0       ??_R1A@?0A@EA@?$TRMemAlloc_CC@U?$TMemAllocHeader@USMagic@mem_headers@rsystem@base@UModSys@@U?$TPool@X@2345@USDebug@2345@UVoid@core@5@U895@@rsystem@base@UModSys@@USMemAlloc_Malloc@core@4@@rsystem@base@UModSys@@8 0040e6a0     umodsys_lib_basesys:umodsys.basesys.rsystem_main.obj
 0002:000026bc       ??_R3IUniquePointerResolver@core@UModSys@@8 0040e6bc     umodsys_lib_basesys:umodsys.basesys.rsystem_main.obj
 0002:000026cc       ??_R2IUniquePointerResolver@core@UModSys@@8 0040e6cc     umodsys_lib_basesys:umodsys.basesys.rsystem_main.obj
 0002:000026d4       ??_R1A@?0A@EA@IUniquePointerResolver@core@UModSys@@8 0040e6d4     umodsys_lib_basesys:umodsys.basesys.rsystem_main.obj
 0002:000026f0       ??_R3ISourceContextAdapter@core@UModSys@@8 0040e6f0     umodsys_lib_basesys:umodsys.basesys.rsystem_main.obj
 0002:00002700       ??_R2ISourceContextAdapter@core@UModSys@@8 0040e700     umodsys_lib_basesys:umodsys.basesys.rsystem_main.obj
 0002:00002708       ??_R1A@?0A@EA@ISourceContextAdapter@core@UModSys@@8 0040e708     umodsys_lib_basesys:umodsys.basesys.rsystem_main.obj
 0002:00002724       ??_R3ISystem@base@UModSys@@8 0040e724     umodsys_lib_basesys:umodsys.basesys.rsystem_main.obj
 0002:00002734       ??_R2ISystem@base@UModSys@@8 0040e734     umodsys_lib_basesys:umodsys.basesys.rsystem_main.obj
 0002:00002740       ??_R1A@?0A@EA@ISystem@base@UModSys@@8 0040e740     umodsys_lib_basesys:umodsys.basesys.rsystem_main.obj
 0002:0000275c       ??_R3IMemAlloc@core@UModSys@@8 0040e75c     umodsys_lib_basesys:umodsys.basesys.rsystem_main.obj
 0002:0000276c       ??_R2IMemAlloc@core@UModSys@@8 0040e76c     umodsys_lib_basesys:umodsys.basesys.rsystem_main.obj
 0002:00002774       ??_R1A@?0A@EA@IMemAlloc@core@UModSys@@8 0040e774     umodsys_lib_basesys:umodsys.basesys.rsystem_main.obj
 0002:00002790       ??_R4EWarning@core@UModSys@@6B@ 0040e790     umodsys_lib_basesys:umodsys.basesys.rsystem_main.obj
 0002:000027a4       ??_R3EWarning@core@UModSys@@8 0040e7a4     umodsys_lib_basesys:umodsys.basesys.rsystem_main.obj
 0002:000027b4       ??_R2EWarning@core@UModSys@@8 0040e7b4     umodsys_lib_basesys:umodsys.basesys.rsystem_main.obj
 0002:000027c0       ??_R1A@?0A@EA@EWarning@core@UModSys@@8 0040e7c0     umodsys_lib_basesys:umodsys.basesys.rsystem_main.obj
 0002:000027dc       ??_R4EFatal@core@UModSys@@6B@ 0040e7dc     umodsys_lib_basesys:umodsys.basesys.rsystem_main.obj
 0002:000027f0       ??_R3EFatal@core@UModSys@@8 0040e7f0     umodsys_lib_basesys:umodsys.basesys.rsystem_main.obj
 0002:00002800       ??_R2EFatal@core@UModSys@@8 0040e800     umodsys_lib_basesys:umodsys.basesys.rsystem_main.obj
 0002:0000280c       ??_R1A@?0A@EA@EFatal@core@UModSys@@8 0040e80c     umodsys_lib_basesys:umodsys.basesys.rsystem_main.obj
 0002:00002828       ??_R4EExceptionBase@core@UModSys@@6B@ 0040e828     umodsys_lib_basesys:umodsys.basesys.rsystem_main.obj
 0002:0000283c       ??_R3EExceptionBase@core@UModSys@@8 0040e83c     umodsys_lib_basesys:umodsys.basesys.rsystem_main.obj
 0002:0000284c       ??_R2EExceptionBase@core@UModSys@@8 0040e84c     umodsys_lib_basesys:umodsys.basesys.rsystem_main.obj
 0002:00002854       ??_R1A@?0A@EA@EExceptionBase@core@UModSys@@8 0040e854     umodsys_lib_basesys:umodsys.basesys.rsystem_main.obj
 0002:00002870       ??_R4RModuleLoader@rsystem@base@UModSys@@6B@ 0040e870     umodsys_lib_basesys:umodsys.basesys.rmoduleloader.obj
 0002:00002884       ??_R3RModuleLoader@rsystem@base@UModSys@@8 0040e884     umodsys_lib_basesys:umodsys.basesys.rmoduleloader.obj
 0002:00002894       ??_R2RModuleLoader@rsystem@base@UModSys@@8 0040e894     umodsys_lib_basesys:umodsys.basesys.rmoduleloader.obj
 0002:000028a0       ??_R1A@?0A@EA@RModuleLoader@rsystem@base@UModSys@@8 0040e8a0     umodsys_lib_basesys:umodsys.basesys.rmoduleloader.obj
 0002:000028bc       ??_R4IModuleLoader@base@UModSys@@6B@ 0040e8bc     umodsys_lib_basesys:umodsys.basesys.rmoduleloader.obj
 0002:000028d0       ??_R3IModuleLoader@base@UModSys@@8 0040e8d0     umodsys_lib_basesys:umodsys.basesys.rmoduleloader.obj
 0002:000028e0       ??_R2IModuleLoader@base@UModSys@@8 0040e8e0     umodsys_lib_basesys:umodsys.basesys.rmoduleloader.obj
 0002:000028e8       ??_R1A@?0A@EA@IModuleLoader@base@UModSys@@8 0040e8e8     umodsys_lib_basesys:umodsys.basesys.rmoduleloader.obj
 0002:00002904       ??_R4RModuleLibraryThis@rsystem@base@UModSys@@6B@ 0040e904     umodsys_lib_basesys:umodsys.basesys.rmodulelibthis.obj
 0002:00002918       ??_R3RModuleLibraryThis@rsystem@base@UModSys@@8 0040e918     umodsys_lib_basesys:umodsys.basesys.rmodulelibthis.obj
 0002:00002928       ??_R2RModuleLibraryThis@rsystem@base@UModSys@@8 0040e928     umodsys_lib_basesys:umodsys.basesys.rmodulelibthis.obj
 0002:00002940       ??_R1A@?0A@EA@IModuleLibraryUni@rsystem@base@UModSys@@8 0040e940     umodsys_lib_basesys:umodsys.basesys.rmodulelibthis.obj
 0002:0000295c       ??_R3IModuleLibraryUni@rsystem@base@UModSys@@8 0040e95c     umodsys_lib_basesys:umodsys.basesys.rmodulelibthis.obj
 0002:0000296c       ??_R2IModuleLibraryUni@rsystem@base@UModSys@@8 0040e96c     umodsys_lib_basesys:umodsys.basesys.rmodulelibthis.obj
 0002:00002980       ??_R1A@?0A@EA@IModuleLibrary@base@UModSys@@8 0040e980     umodsys_lib_basesys:umodsys.basesys.rmodulelibthis.obj
 0002:0000299c       ??_R3IModuleLibrary@base@UModSys@@8 0040e99c     umodsys_lib_basesys:umodsys.basesys.rmodulelibthis.obj
 0002:000029ac       ??_R2IModuleLibrary@base@UModSys@@8 0040e9ac     umodsys_lib_basesys:umodsys.basesys.rmodulelibthis.obj
 0002:000029bc       ??_R1A@?0A@EA@RModuleLibraryThis@rsystem@base@UModSys@@8 0040e9bc     umodsys_lib_basesys:umodsys.basesys.rmodulelibthis.obj
 0002:000029d8       ??_R4IModuleLibraryUni@rsystem@base@UModSys@@6B@ 0040e9d8     umodsys_lib_basesys:umodsys.basesys.rmodulelib.obj
 0002:000029ec       ??_R4RParameters@rsystem@base@UModSys@@6B@ 0040e9ec     umodsys_lib_basesys:umodsys.basesys.rparameters.obj
 0002:00002a00       ??_R3RParameters@rsystem@base@UModSys@@8 0040ea00     umodsys_lib_basesys:umodsys.basesys.rparameters.obj
 0002:00002a10       ??_R2RParameters@rsystem@base@UModSys@@8 0040ea10     umodsys_lib_basesys:umodsys.basesys.rparameters.obj
 0002:00002a24       ??_R1A@?0A@EA@RParameters@rsystem@base@UModSys@@8 0040ea24     umodsys_lib_basesys:umodsys.basesys.rparameters.obj
 0002:00002a40       ??_R3IParameters@core@UModSys@@8 0040ea40     umodsys_lib_basesys:umodsys.basesys.rparameters.obj
 0002:00002a50       ??_R2IParameters@core@UModSys@@8 0040ea50     umodsys_lib_basesys:umodsys.basesys.rparameters.obj
 0002:00002a60       ??_R1A@?0A@EA@IParameters@core@UModSys@@8 0040ea60     umodsys_lib_basesys:umodsys.basesys.rparameters.obj
 0002:00002a7c       ??_R4RModule@rsystem@base@UModSys@@6B@ 0040ea7c     umodsys_lib_basesys:umodsys.basesys.rmodule.obj
 0002:00002a90       ??_R3RModule@rsystem@base@UModSys@@8 0040ea90     umodsys_lib_basesys:umodsys.basesys.rmodule.obj
 0002:00002aa0       ??_R2RModule@rsystem@base@UModSys@@8 0040eaa0     umodsys_lib_basesys:umodsys.basesys.rmodule.obj
 0002:00002ab4       ??_R1A@?0A@EA@RModule@rsystem@base@UModSys@@8 0040eab4     umodsys_lib_basesys:umodsys.basesys.rmodule.obj
 0002:00002ad0       ??_R3IModule@base@UModSys@@8 0040ead0     umodsys_lib_basesys:umodsys.basesys.rmodule.obj
 0002:00002ae0       ??_R2IModule@base@UModSys@@8 0040eae0     umodsys_lib_basesys:umodsys.basesys.rmodule.obj
 0002:00002af0       ??_R1A@?0A@EA@IModule@base@UModSys@@8 0040eaf0     umodsys_lib_basesys:umodsys.basesys.rmodule.obj
 0002:00002b0c       ??_R4RModuleLibrarySO@rsystem@base@UModSys@@6B@ 0040eb0c     umodsys_lib_basesys:umodsys.basesys.rmodulelibso.obj
 0002:00002b20       ??_R3RModuleLibrarySO@rsystem@base@UModSys@@8 0040eb20     umodsys_lib_basesys:umodsys.basesys.rmodulelibso.obj
 0002:00002b30       ??_R2RModuleLibrarySO@rsystem@base@UModSys@@8 0040eb30     umodsys_lib_basesys:umodsys.basesys.rmodulelibso.obj
 0002:00002b48       ??_R1A@?0A@EA@RModuleLibrarySO@rsystem@base@UModSys@@8 0040eb48     umodsys_lib_basesys:umodsys.basesys.rmodulelibso.obj
 0002:00002b64       ??_R4RModuleLibraryReg_Chain@base@UModSys@@6B@ 0040eb64     umodsys_lib_base:umodsys.base.moduleregchain.obj
 0002:00002b78       ??_R3RModuleLibraryReg_Chain@base@UModSys@@8 0040eb78     umodsys_lib_base:umodsys.base.moduleregchain.obj
 0002:00002b88       ??_R2RModuleLibraryReg_Chain@base@UModSys@@8 0040eb88     umodsys_lib_base:umodsys.base.moduleregchain.obj
 0002:00002b94       ??_R1A@?0A@EA@IModuleLibraryReg@base@UModSys@@8 0040eb94     umodsys_lib_base:umodsys.base.moduleregchain.obj
 0002:00002bb0       ??_R3IModuleLibraryReg@base@UModSys@@8 0040ebb0     umodsys_lib_base:umodsys.base.moduleregchain.obj
 0002:00002bc0       ??_R2IModuleLibraryReg@base@UModSys@@8 0040ebc0     umodsys_lib_base:umodsys.base.moduleregchain.obj
 0002:00002bc8       ??_R1A@?0A@EA@RModuleLibraryReg_Chain@base@UModSys@@8 0040ebc8     umodsys_lib_base:umodsys.base.moduleregchain.obj
 0002:00002be4       ??_R4IModuleLibraryReg@base@UModSys@@6B@ 0040ebe4     umodsys_lib_base:umodsys.base.modulereg.obj
 0002:00002bf8       ??_R4IModuleReg@base@UModSys@@6B@ 0040ebf8     umodsys_lib_base:umodsys.base.modulereg.obj
 0002:00002c10       ___safe_se_handler_table   0040ec10     <linker-defined>
 0002:00002cac       ___rtc_iaa                 0040ecac     MSVCRT:_initsect_.obj
 0002:00002cb0       ___rtc_izz                 0040ecb0     MSVCRT:_initsect_.obj
 0002:00002cb4       ___rtc_taa                 0040ecb4     MSVCRT:_initsect_.obj
 0002:00002cb8       ___rtc_tzz                 0040ecb8     MSVCRT:_initsect_.obj
 0002:00002d5c       __CT??_R0?AUEFatal@core@UModSys@@@8??0EFatal@core@UModSys@@QAE@ABU012@@Z24 0040ed5c     umodsys_lib_basesys:umodsys.basesys.rsystem_main.obj
 0002:00002d78       __CT??_R0?AUEExceptionBase@core@UModSys@@@8??0EExceptionBase@core@UModSys@@QAE@ABU012@@Z24 0040ed78     umodsys_lib_basesys:umodsys.basesys.rsystem_main.obj
 0002:00002d94       __CTA2?AUEFatal@core@UModSys@@ 0040ed94     umodsys_lib_basesys:umodsys.basesys.rsystem_main.obj
 0002:00002da0       __TI2?AUEFatal@core@UModSys@@ 0040eda0     umodsys_lib_basesys:umodsys.basesys.rsystem_main.obj
 0002:00002db0       __CT??_R0?AUEWarning@core@UModSys@@@8??0EWarning@core@UModSys@@QAE@ABU012@@Z24 0040edb0     umodsys_lib_basesys:umodsys.basesys.rsystem_main.obj
 0002:00002dcc       __CTA2?AUEWarning@core@UModSys@@ 0040edcc     umodsys_lib_basesys:umodsys.basesys.rsystem_main.obj
 0002:00002dd8       __TI2?AUEWarning@core@UModSys@@ 0040edd8     umodsys_lib_basesys:umodsys.basesys.rsystem_main.obj
 0002:00003570       __IMPORT_DESCRIPTOR_MSVCR90 0040f570     MSVCRT:MSVCR90.dll
 0002:00003584       __IMPORT_DESCRIPTOR_KERNEL32 0040f584     kernel32:KERNEL32.dll
 0002:00003598       __NULL_IMPORT_DESCRIPTOR   0040f598     MSVCRT:MSVCR90.dll
 0003:00000000       ??_R0?AVtype_info@@@8      00410000     MSVCRT:ti_inst.obj
 0003:00000018       ___native_dllmain_reason   00410018     MSVCRT:natstart.obj
 0003:0000001c       ___native_vcclrit_reason   0041001c     MSVCRT:natstart.obj
 0003:00000020       ___globallocalestatus      00410020     MSVCRT:xthdloc.obj
 0003:00000024       ___defaultmatherr          00410024     MSVCRT:merr.obj
 0003:00000028       ___security_cookie         00410028     MSVCRT:gs_cookie.obj
 0003:0000002c       ___security_cookie_complement 0041002c     MSVCRT:gs_cookie.obj
 0003:0000006c       ?so_entry_enabled_flag@base@UModSys@@3HA 0041006c     umodsys_lib_base:umodsys.so_main.win32.obj
 0003:000000b4       ?auto_flags@RLibraryLayered@std@media@modules@UModSys@@2U?$TFlags4State@USMediaFlagUid@libmedia@UModSys@@I@tl@5@A 004100b4     umodsys_lib_libmedia:umodsys.mod.media.std.obj
 0003:000000b8       ?auto_flags@RDataArchiver_OsDir@stdio@media@modules@UModSys@@2U?$TFlags4State@USMediaFlagUid@libmedia@UModSys@@I@tl@5@A 004100b8     umodsys_lib_libmedia:umodsys.mod.media.stdio.obj
 0003:000000bc       ?s_console@RConsole_std@rsystem@base@UModSys@@2U1234@A 004100bc     umodsys_lib_basesys:umodsys.basesys.rconsole_std.obj
 0003:000000c4       ?rsys_dbg@rsystem@base@UModSys@@3USDebug@23@A 004100c4     umodsys_lib_basesys:umodsys.basesys.rsystem_main.obj
 0003:000000cc       ?s_library@RModuleLibraryReg_Chain@base@UModSys@@2U123@A 004100cc     umodsys_lib_base:umodsys.base.moduleregchain.obj
 0003:000000d0       ??_R0?AUIModuleReg@base@UModSys@@@8 004100d0     umodsys_lib_libmedia:umodsys.mod.media.std.obj
 0003:000000f8       ??_R0?AURModuleReg@std@media@modules@UModSys@@@8 004100f8     umodsys_lib_libmedia:umodsys.mod.media.std.obj
 0003:0000012c       ??_R0?AURLibraryObjFilter@std@media@modules@UModSys@@@8 0041012c     umodsys_lib_libmedia:umodsys.mod.media.std.obj
 0003:00000168       ??_R0?AURLibraryObjCache@std@media@modules@UModSys@@@8 00410168     umodsys_lib_libmedia:umodsys.mod.media.std.obj
 0003:000001a4       ??_R0?AURLibraryLayered@std@media@modules@UModSys@@@8 004101a4     umodsys_lib_libmedia:umodsys.mod.media.std.obj
 0003:000001dc       ??_R0?AURLibraryBinTree@std@media@modules@UModSys@@@8 004101dc     umodsys_lib_libmedia:umodsys.mod.media.std.obj
 0003:00000214       ??_R0?AURLibraryBinCache@std@media@modules@UModSys@@@8 00410214     umodsys_lib_libmedia:umodsys.mod.media.std.obj
 0003:00000250       ??_R0?AURGenerator@std@media@modules@UModSys@@@8 00410250     umodsys_lib_libmedia:umodsys.mod.media.std.obj
 0003:00000284       ??_R0?AURResolverChain@SFlagsChain@libmedia@UModSys@@@8 00410284     umodsys_lib_libmedia:umodsys.mod.media.std.obj
 0003:000002c0       ??_R0?AUILibraryLayered@libmedia@UModSys@@@8 004102c0     umodsys_lib_libmedia:umodsys.mod.media.std.obj
 0003:000002f0       ??_R0?AUILibraryObjCache@libmedia@UModSys@@@8 004102f0     umodsys_lib_libmedia:umodsys.mod.media.std.obj
 0003:00000320       ??_R0?AUILibraryObjFilter@libmedia@UModSys@@@8 00410320     umodsys_lib_libmedia:umodsys.mod.media.std.obj
 0003:00000354       ??_R0?AUILibraryBinCache@libmedia@UModSys@@@8 00410354     umodsys_lib_libmedia:umodsys.mod.media.std.obj
 0003:00000384       ??_R0?AUILibraryBinTree@libmedia@UModSys@@@8 00410384     umodsys_lib_libmedia:umodsys.mod.media.std.obj
 0003:000003b4       ??_R0?AUIResolver@SFlags@libmedia@UModSys@@@8 004103b4     umodsys_lib_libmedia:umodsys.mod.media.std.obj
 0003:000003e4       ??_R0?AUIResolverAuto@SFlags@libmedia@UModSys@@@8 004103e4     umodsys_lib_libmedia:umodsys.mod.media.std.obj
 0003:00000418       ??_R0?AUISetter@SFlags@libmedia@UModSys@@@8 00410418     umodsys_lib_libmedia:umodsys.mod.media.std.obj
 0003:00000448       ??_R0?AUILibrary@libmedia@UModSys@@@8 00410448     umodsys_lib_libmedia:umodsys.mod.media.std.obj
 0003:00000470       ??_R0?AUIGenerator@base@UModSys@@@8 00410470     umodsys_lib_libmedia:umodsys.mod.media.std.obj
 0003:00000498       ??_R0?AUIModObject@base@UModSys@@@8 00410498     umodsys_lib_libmedia:umodsys.mod.media.std.obj
 0003:000004c0       ??_R0?AUIRefObject@core@UModSys@@@8 004104c0     umodsys_lib_libmedia:umodsys.mod.media.std.obj
 0003:000004e8       ??_R0?AUIRoot@core@UModSys@@@8 004104e8     umodsys_lib_libmedia:umodsys.mod.media.std.obj
 0003:0000050c       ?s_null@?1??get_null@?$TSCoreShared@USIMemAlloc@core@UModSys@@D@su@tl@UModSys@@SAPAU?$TSharedStringInfo@D@345@XZ@4U6345@A 0041050c     umodsys_lib_libmedia:umodsys.mod.media.std.obj
 0003:0000051c       ??_R0?AURModuleReg@stdio@media@modules@UModSys@@@8 0041051c     umodsys_lib_libmedia:umodsys.mod.media.stdio.obj
 0003:00000554       ??_R0?AURDataArchiver_OsDir@stdio@media@modules@UModSys@@@8 00410554     umodsys_lib_libmedia:umodsys.mod.media.stdio.obj
 0003:00000594       ??_R0?AURStreamWriter_FILE@stdio@media@modules@UModSys@@@8 00410594     umodsys_lib_libmedia:umodsys.mod.media.stdio.obj
 0003:000005d4       ??_R0?AURStreamReader_FILE@stdio@media@modules@UModSys@@@8 004105d4     umodsys_lib_libmedia:umodsys.mod.media.stdio.obj
 0003:00000614       ??_R0?AURGenerator@stdio@media@modules@UModSys@@@8 00410614     umodsys_lib_libmedia:umodsys.mod.media.stdio.obj
 0003:0000064c       ??_R0?AUIBinArchive@libmedia@UModSys@@@8 0041064c     umodsys_lib_libmedia:umodsys.mod.media.stdio.obj
 0003:00000678       ??_R0?AUIStreamWriter@libmedia@UModSys@@@8 00410678     umodsys_lib_libmedia:umodsys.mod.media.stdio.obj
 0003:000006a8       ??_R0?AUIStreamReader@libmedia@UModSys@@@8 004106a8     umodsys_lib_libmedia:umodsys.mod.media.stdio.obj
 0003:000006d8       ??_R0?AURConsole_std@rsystem@base@UModSys@@@8 004106d8     umodsys_lib_basesys:umodsys.basesys.rconsole_std.obj
 0003:00000708       ??_R0?AUIConsole@base@UModSys@@@8 00410708     umodsys_lib_basesys:umodsys.basesys.rconsole_std.obj
 0003:0000072c       ??_R0?AURSystem@rsystem@base@UModSys@@@8 0041072c     umodsys_lib_basesys:umodsys.basesys.rsystem_main.obj
 0003:00000758       ??_R0?AUSMemAlloc_Malloc@core@UModSys@@@8 00410758     umodsys_lib_basesys:umodsys.basesys.rsystem_main.obj
 0003:00000788       ??_R0?AU?$TRMemAlloc_CC@U?$TMemAllocHeader@USMagic@mem_headers@rsystem@base@UModSys@@U?$TPool@X@2345@USDebug@2345@UVoid@core@5@U895@@rsystem@base@UModSys@@USMemAlloc_Malloc@core@4@@rsystem@base@UModSys@@@8 00410788     umodsys_lib_basesys:umodsys.basesys.rsystem_main.obj
 0003:00000858       ??_R0?AUIUniquePointerResolver@core@UModSys@@@8 00410858     umodsys_lib_basesys:umodsys.basesys.rsystem_main.obj
 0003:0000088c       ??_R0?AUISourceContextAdapter@core@UModSys@@@8 0041088c     umodsys_lib_basesys:umodsys.basesys.rsystem_main.obj
 0003:000008c0       ??_R0?AUISystem@base@UModSys@@@8 004108c0     umodsys_lib_basesys:umodsys.basesys.rsystem_main.obj
 0003:000008e4       ??_R0?AUIMemAlloc@core@UModSys@@@8 004108e4     umodsys_lib_basesys:umodsys.basesys.rsystem_main.obj
 0003:0000090c       ??_R0?AUEFatal@core@UModSys@@@8 0041090c     umodsys_lib_basesys:umodsys.basesys.rsystem_main.obj
 0003:00000930       ??_R0?AUEExceptionBase@core@UModSys@@@8 00410930     umodsys_lib_basesys:umodsys.basesys.rsystem_main.obj
 0003:0000095c       ??_R0?AUEWarning@core@UModSys@@@8 0041095c     umodsys_lib_basesys:umodsys.basesys.rsystem_main.obj
 0003:00000980       ??_R0?AURModuleLoader@rsystem@base@UModSys@@@8 00410980     umodsys_lib_basesys:umodsys.basesys.rmoduleloader.obj
 0003:000009b4       ??_R0?AUIModuleLoader@base@UModSys@@@8 004109b4     umodsys_lib_basesys:umodsys.basesys.rmoduleloader.obj
 0003:000009e0       ??_R0?AUIModuleLibrary@base@UModSys@@@8 004109e0     umodsys_lib_basesys:umodsys.basesys.rmodulelibthis.obj
 0003:00000a0c       ??_R0?AUIModuleLibraryUni@rsystem@base@UModSys@@@8 00410a0c     umodsys_lib_basesys:umodsys.basesys.rmodulelibthis.obj
 0003:00000a44       ??_R0?AURModuleLibraryThis@rsystem@base@UModSys@@@8 00410a44     umodsys_lib_basesys:umodsys.basesys.rmodulelibthis.obj
 0003:00000a7c       ?s_null@?1??get_null@?$TSCoreShared@USMemAlloc_Malloc@core@UModSys@@D@su@tl@UModSys@@SAPAU?$TSharedStringInfo@D@345@XZ@4U6345@A 00410a7c     umodsys_lib_basesys:umodsys.basesys.rmodulelib.obj
 0003:00000a8c       ??_R0?AURParameters@rsystem@base@UModSys@@@8 00410a8c     umodsys_lib_basesys:umodsys.basesys.rparameters.obj
 0003:00000abc       ??_R0?AUIParameters@core@UModSys@@@8 00410abc     umodsys_lib_basesys:umodsys.basesys.rparameters.obj
 0003:00000ae4       ??_R0?AURModule@rsystem@base@UModSys@@@8 00410ae4     umodsys_lib_basesys:umodsys.basesys.rmodule.obj
 0003:00000b10       ??_R0?AUIModule@base@UModSys@@@8 00410b10     umodsys_lib_basesys:umodsys.basesys.rmodule.obj
 0003:00000b34       ??_R0?AURModuleLibrarySO@rsystem@base@UModSys@@@8 00410b34     umodsys_lib_basesys:umodsys.basesys.rmodulelibso.obj
 0003:00000b68       ??_R0?AUIModuleLibraryReg@base@UModSys@@@8 00410b68     umodsys_lib_base:umodsys.base.moduleregchain.obj
 0003:00000b98       ??_R0?AURModuleLibraryReg_Chain@base@UModSys@@@8 00410b98     umodsys_lib_base:umodsys.base.moduleregchain.obj
 0003:00000bf0       __forceCRTManifestRTM      00410bf0     MSVCRT:crtmanifestrtm.obj
 0003:00000bf4       __dowildcard               00410bf4     MSVCRT:wildcard.obj
 0003:00000bf8       __newmode                  00410bf8     MSVCRT:_newmode.obj
 0003:00000bfc       __commode                  00410bfc     MSVCRT:xncommod.obj
 0003:00000c00       __fmode                    00410c00     MSVCRT:xtxtmode.obj
 0003:00000f30       ?fmodule@std@media@modules@UModSys@@3DA 00410f30     umodsys_lib_libmedia:umodsys.mod.media.std.obj
 0003:00000f31       ?fmodule@stdio@media@modules@UModSys@@3DA 00410f31     umodsys_lib_libmedia:umodsys.mod.media.stdio.obj
 0003:00000f38       ?s_uid@RGenerator@std@media@modules@UModSys@@2USUniquePointer@core@5@A 00410f38     umodsys_lib_libmedia:umodsys.mod.media.std.obj
 0003:00000f50       ?auto_flags@RLibraryObjCache@std@media@modules@UModSys@@2U?$TFlags4State@USMediaFlagUid@libmedia@UModSys@@I@tl@5@A 00410f50     umodsys_lib_libmedia:umodsys.mod.media.std.obj
 0003:00000f54       ?auto_flags@RLibraryBinCache@std@media@modules@UModSys@@2U?$TFlags4State@USMediaFlagUid@libmedia@UModSys@@I@tl@5@A 00410f54     umodsys_lib_libmedia:umodsys.mod.media.std.obj
 0003:00000f58       ?s_modreg_chain@RModuleReg@std@media@modules@UModSys@@2USModuleRegChain@base@5@A 00410f58     umodsys_lib_libmedia:umodsys.mod.media.std.obj
 0003:00000f64       ?s_modreg@RModuleReg@std@media@modules@UModSys@@2U12345@A 00410f64     umodsys_lib_libmedia:umodsys.mod.media.std.obj
 0003:00000f8c       ?auto_flags@RLibraryObjFilter@std@media@modules@UModSys@@2U?$TFlags4State@USMediaFlagUid@libmedia@UModSys@@I@tl@5@A 00410f8c     umodsys_lib_libmedia:umodsys.mod.media.std.obj
 0003:00000f90       ?auto_flags@RLibraryBinTree@std@media@modules@UModSys@@2U?$TFlags4State@USMediaFlagUid@libmedia@UModSys@@I@tl@5@A 00410f90     umodsys_lib_libmedia:umodsys.mod.media.std.obj
 0003:00000f94       ?s_modreg_chain@RModuleReg@stdio@media@modules@UModSys@@2USModuleRegChain@base@5@A 00410f94     umodsys_lib_libmedia:umodsys.mod.media.stdio.obj
 0003:00000fa0       ?s_modreg@RModuleReg@stdio@media@modules@UModSys@@2U12345@A 00410fa0     umodsys_lib_libmedia:umodsys.mod.media.stdio.obj
 0003:00000fc8       ?s_uid@RGenerator@stdio@media@modules@UModSys@@2USUniquePointer@core@5@A 00410fc8     umodsys_lib_libmedia:umodsys.mod.media.stdio.obj
 0003:00000fe0       ?s_sys@RSystem@rsystem@base@UModSys@@2U1234@A 00410fe0     umodsys_lib_basesys:umodsys.basesys.rsystem_main.obj
 0003:000030bc       ?M@UModSys@@3USModuleContext@base@1@A 004130bc     umodsys_lib_base:umodsys.base.modulecontext.obj
 0003:000030d0       ?root@SModuleRegChain@base@UModSys@@2U123@A 004130d0     umodsys_lib_base:umodsys.base.moduleregchain.obj
 0003:000030dc       ?root@SUniquePointer@core@UModSys@@2U123@A 004130dc     umodsys_lib_core:umodsys.core.uniqueptr.obj
 0003:000030f4       ?rv@?1??get_default@SMemAlloc_Malloc@core@UModSys@@SAABU234@XZ@4U234@A 004130f4     umodsys_lib_basesys:umodsys.basesys.rsystem_main.obj
 0003:00003138       ?s_id@?$TObjectUniqueID@URConsole_std@rsystem@base@UModSys@@@tl@UModSys@@2USUniquePointer@core@3@A 00413138     umodsys.c_main.obj
 0003:00003150       ?s_id@?$TObjectUniqueID@URModuleLibrarySO@rsystem@base@UModSys@@@tl@UModSys@@2USUniquePointer@core@3@A 00413150     umodsys.c_main.obj
 0003:00003168       ?s_id@?$TObjectUniqueID@UIRefObject@core@UModSys@@@tl@UModSys@@2USUniquePointer@core@3@A 00413168     umodsys.c_main.obj
 0003:00003180       ?s_id@?$TObjectUniqueID@UIRoot@core@UModSys@@@tl@UModSys@@2USUniquePointer@core@3@A 00413180     umodsys.c_main.obj
 0003:00003198       ?s_id@?$TObjectUniqueID@URParameters@rsystem@base@UModSys@@@tl@UModSys@@2USUniquePointer@core@3@A 00413198     umodsys.c_main.obj
 0003:000031b0       ?s_id@?$TObjectUniqueID@UIModule@base@UModSys@@@tl@UModSys@@2USUniquePointer@core@3@A 004131b0     umodsys.c_main.obj
 0003:000031c8       ?s_id@?$TObjectUniqueID@UIGenerator@base@UModSys@@@tl@UModSys@@2USUniquePointer@core@3@A 004131c8     umodsys.c_main.obj
 0003:000031e0       ?s_id@?$TObjectUniqueID@URModuleLibraryThis@rsystem@base@UModSys@@@tl@UModSys@@2USUniquePointer@core@3@A 004131e0     umodsys.c_main.obj
 0003:000031f8       ?s_id@?$TObjectUniqueID@UIModuleLibrary@base@UModSys@@@tl@UModSys@@2USUniquePointer@core@3@A 004131f8     umodsys.c_main.obj
 0003:00003210       ?s_null@?$TStaticStringPool@DU?$TComparerBinaryHash@D@su@tl@UModSys@@USMemAlloc_Malloc@core@4@@tl@UModSys@@2U?$TString@U?$TSCoreConst@D@su@tl@UModSys@@U?$TComparerBinaryHash@D@234@@23@A 00413210     umodsys.c_main.obj
 0003:0000321c       ?s_id@?$TObjectUniqueID@UIParameters@core@UModSys@@@tl@UModSys@@2USUniquePointer@core@3@A 0041321c     umodsys.c_main.obj
 0003:00003234       ?s_id@?$TObjectUniqueID@UISystem@base@UModSys@@@tl@UModSys@@2USUniquePointer@core@3@A 00413234     umodsys.c_main.obj
 0003:0000324c       ?s_id@?$TObjectUniqueID@URModule@rsystem@base@UModSys@@@tl@UModSys@@2USUniquePointer@core@3@A 0041324c     umodsys.c_main.obj
 0003:00003264       ?s_id@?$TObjectUniqueID@UIModObject@base@UModSys@@@tl@UModSys@@2USUniquePointer@core@3@A 00413264     umodsys.c_main.obj
 0003:0000327c       ?s_id@?$TObjectUniqueID@UIModuleLibraryUni@rsystem@base@UModSys@@@tl@UModSys@@2USUniquePointer@core@3@A 0041327c     umodsys.c_main.obj
 0003:00003294       ?s_id@?$TObjectUniqueID@URSystem@rsystem@base@UModSys@@@tl@UModSys@@2USUniquePointer@core@3@A 00413294     umodsys.c_main.obj
 0003:000032ac       ?s_id@?$TObjectUniqueID@UIShell@base@UModSys@@@tl@UModSys@@2USUniquePointer@core@3@A 004132ac     umodsys.c_main.obj
 0003:000032c4       ?s_id@?$TObjectUniqueID@UIConsole@base@UModSys@@@tl@UModSys@@2USUniquePointer@core@3@A 004132c4     umodsys.c_main.obj
 0003:000032dc       ?s_id@?$TObjectUniqueID@URLibraryBinTree@std@media@modules@UModSys@@@tl@UModSys@@2USUniquePointer@core@3@A 004132dc     umodsys_lib_libmedia:umodsys.mod.media.std.obj
 0003:000032f4       ?s_id@?$TObjectUniqueID@URLibraryLayered@std@media@modules@UModSys@@@tl@UModSys@@2USUniquePointer@core@3@A 004132f4     umodsys_lib_libmedia:umodsys.mod.media.std.obj
 0003:0000330c       ?s_id@?$TObjectUniqueID@UILibraryLayered@libmedia@UModSys@@@tl@UModSys@@2USUniquePointer@core@3@A 0041330c     umodsys_lib_libmedia:umodsys.mod.media.std.obj
 0003:00003324       ?s_id@?$TObjectUniqueID@UILibrary@libmedia@UModSys@@@tl@UModSys@@2USUniquePointer@core@3@A 00413324     umodsys_lib_libmedia:umodsys.mod.media.std.obj
 0003:0000333c       ?s_id@?$TObjectUniqueID@UIBinArchive@libmedia@UModSys@@@tl@UModSys@@2USUniquePointer@core@3@A 0041333c     umodsys_lib_libmedia:umodsys.mod.media.std.obj
 0003:00003354       ?s_id@?$TObjectUniqueID@UILibraryObjCache@libmedia@UModSys@@@tl@UModSys@@2USUniquePointer@core@3@A 00413354     umodsys_lib_libmedia:umodsys.mod.media.std.obj
 0003:0000336c       ?s_id@?$TObjectUniqueID@UIStreamWriter@libmedia@UModSys@@@tl@UModSys@@2USUniquePointer@core@3@A 0041336c     umodsys_lib_libmedia:umodsys.mod.media.std.obj
 0003:00003384       ?s_id@?$TObjectUniqueID@URGenerator@std@media@modules@UModSys@@@tl@UModSys@@2USUniquePointer@core@3@A 00413384     umodsys_lib_libmedia:umodsys.mod.media.std.obj
 0003:0000339c       ?s_id@?$TObjectUniqueID@UIBinObjFilter@libmedia@UModSys@@@tl@UModSys@@2USUniquePointer@core@3@A 0041339c     umodsys_lib_libmedia:umodsys.mod.media.std.obj
 0003:000033b4       ?s_id@?$TObjectUniqueID@UILibraryBinCache@libmedia@UModSys@@@tl@UModSys@@2USUniquePointer@core@3@A 004133b4     umodsys_lib_libmedia:umodsys.mod.media.std.obj
 0003:000033cc       ?s_id@?$TObjectUniqueID@UILibraryBinTree@libmedia@UModSys@@@tl@UModSys@@2USUniquePointer@core@3@A 004133cc     umodsys_lib_libmedia:umodsys.mod.media.std.obj
 0003:000033e4       ?s_id@?$TObjectUniqueID@URLibraryObjCache@std@media@modules@UModSys@@@tl@UModSys@@2USUniquePointer@core@3@A 004133e4     umodsys_lib_libmedia:umodsys.mod.media.std.obj
 0003:000033fc       ?s_id@?$TObjectUniqueID@URLibraryBinCache@std@media@modules@UModSys@@@tl@UModSys@@2USUniquePointer@core@3@A 004133fc     umodsys_lib_libmedia:umodsys.mod.media.std.obj
 0003:00003414       ?s_id@?$TObjectUniqueID@UILibraryObjFilter@libmedia@UModSys@@@tl@UModSys@@2USUniquePointer@core@3@A 00413414     umodsys_lib_libmedia:umodsys.mod.media.std.obj
 0003:0000342c       ?s_id@?$TObjectUniqueID@UIStreamReader@libmedia@UModSys@@@tl@UModSys@@2USUniquePointer@core@3@A 0041342c     umodsys_lib_libmedia:umodsys.mod.media.std.obj
 0003:00003444       ?s_id@?$TObjectUniqueID@URLibraryObjFilter@std@media@modules@UModSys@@@tl@UModSys@@2USUniquePointer@core@3@A 00413444     umodsys_lib_libmedia:umodsys.mod.media.std.obj
 0003:0000345c       ?s_id@?$TObjectUniqueID@URStreamWriter_FILE@stdio@media@modules@UModSys@@@tl@UModSys@@2USUniquePointer@core@3@A 0041345c     umodsys_lib_libmedia:umodsys.mod.media.stdio.obj
 0003:00003474       ?s_id@?$TObjectUniqueID@URDataArchiver_OsDir@stdio@media@modules@UModSys@@@tl@UModSys@@2USUniquePointer@core@3@A 00413474     umodsys_lib_libmedia:umodsys.mod.media.stdio.obj
 0003:0000348c       ?s_id@?$TObjectUniqueID@URGenerator@stdio@media@modules@UModSys@@@tl@UModSys@@2USUniquePointer@core@3@A 0041348c     umodsys_lib_libmedia:umodsys.mod.media.stdio.obj
 0003:000034a4       ?s_id@?$TObjectUniqueID@URStreamReader_FILE@stdio@media@modules@UModSys@@@tl@UModSys@@2USUniquePointer@core@3@A 004134a4     umodsys_lib_libmedia:umodsys.mod.media.stdio.obj
 0003:000034bc       __adjust_fdiv              004134bc     <common>
 0003:000034c0       ___native_startup_state    004134c0     <common>
 0003:000034c4       ___native_startup_lock     004134c4     <common>
 0003:000034c8       ___dyn_tls_init_callback   004134c8     <common>
 0003:000034cc       ___onexitend               004134cc     <common>
 0003:000034d0       ___onexitbegin             004134d0     <common>

 entry point at        0001:00009257

 Static symbols

 0001:00007539       ?s_pwd_init@@YAXXZ         00408539 f    CIL library: CIL module
 0001:000076a6       ?s_pfd_scan@@YAIPAUISystem@base@UModSys@@AAU?$TDynarrayDynamic@U?$TRefObject@URModuleLibrarySO@rsystem@base@UModSys@@U?$TRefObjectFunc@URModuleLibrarySO@rsystem@base@UModSys@@@tl@4@@tl@UModSys@@U?$TAllocator@USMemAlloc_Malloc@core@UModSys@@USCountCalcPower2@23@@23@@tl@3@PBD22@Z 004086a6 f    CIL library: CIL module
 0001:0000788f       ?s_pfd_scan@@YAIPAUISystem@base@UModSys@@AAU?$TDynarrayDynamic@U?$TRefObject@URModuleLibrarySO@rsystem@base@UModSys@@U?$TRefObjectFunc@URModuleLibrarySO@rsystem@base@UModSys@@@tl@4@@tl@UModSys@@U?$TAllocator@USMemAlloc_Malloc@core@UModSys@@USCountCalcPower2@23@@23@@tl@3@PBD2@Z 0040888f f    CIL library: CIL module
 0001:00008fb5       _pre_cpp_init              00409fb5 f   MSVCRT:crtexe.obj
 0001:00009000       ___tmainCRTStartup         0040a000 f   MSVCRT:crtexe.obj
 0001:00009176       _pre_c_init                0040a176 f   MSVCRT:crtexe.obj
 0001:00009880       __unwindfunclet$?suicide@RModule@rsystem@base@UModSys@@UAEXXZ$0 0040a880 f    CIL library: CIL module
 0001:00009880       __unwindfunclet$??$ValidateConstruction@UIStreamWriter@libmedia@UModSys@@URStreamWriter_FILE@stdio@media@modules@3@@core@UModSys@@YA_NAAU?$TRefObject@UIStreamWriter@libmedia@UModSys@@U?$TRefObjectFunc@UIStreamWriter@libmedia@UModSys@@@tl@3@@tl@1@PAURStreamWriter_FILE@stdio@media@modules@1@@Z$0 0040a880 f    CIL library: CIL module
 0001:00009880       __unwindfunclet$??$t_moduledb_generate@UIShell@base@UModSys@@@IModuleLoader@base@UModSys@@QAE_NAAU?$TRefObject@UIShell@base@UModSys@@U?$TRefObjectFunc@UIShell@base@UModSys@@@tl@3@@tl@2@PBUSUniquePointerInfo@core@2@ABUSParameters@62@@Z$0 0040a880 f    CIL library: CIL module
 0001:00009880       __unwindfunclet$??$ValidateConstruction@UIStreamReader@libmedia@UModSys@@URStreamReader_FILE@stdio@media@modules@3@@core@UModSys@@YA_NAAU?$TRefObject@UIStreamReader@libmedia@UModSys@@U?$TRefObjectFunc@UIStreamReader@libmedia@UModSys@@@tl@3@@tl@1@PAURStreamReader_FILE@stdio@media@modules@1@@Z$0 0040a880 f    CIL library: CIL module
 0001:00009888       __ehhandler$?suicide@RModule@rsystem@base@UModSys@@UAEXXZ 0040a888 f    CIL library: CIL module
 0001:00009888       __ehhandler$??$ValidateConstruction@UIStreamWriter@libmedia@UModSys@@URStreamWriter_FILE@stdio@media@modules@3@@core@UModSys@@YA_NAAU?$TRefObject@UIStreamWriter@libmedia@UModSys@@U?$TRefObjectFunc@UIStreamWriter@libmedia@UModSys@@@tl@3@@tl@1@PAURStreamWriter_FILE@stdio@media@modules@1@@Z 0040a888 f    CIL library: CIL module
 0001:00009888       __ehhandler$??$t_moduledb_generate@UIShell@base@UModSys@@@IModuleLoader@base@UModSys@@QAE_NAAU?$TRefObject@UIShell@base@UModSys@@U?$TRefObjectFunc@UIShell@base@UModSys@@@tl@3@@tl@2@PBUSUniquePointerInfo@core@2@ABUSParameters@62@@Z 0040a888 f    CIL library: CIL module
 0001:00009888       __ehhandler$??$ValidateConstruction@UIStreamReader@libmedia@UModSys@@URStreamReader_FILE@stdio@media@modules@3@@core@UModSys@@YA_NAAU?$TRefObject@UIStreamReader@libmedia@UModSys@@U?$TRefObjectFunc@UIStreamReader@libmedia@UModSys@@@tl@3@@tl@1@PAURStreamReader_FILE@stdio@media@modules@1@@Z 0040a888 f    CIL library: CIL module
 0001:00009892       __unwindfunclet$??1?$TQuantArrayUnique@USSourceContext@core@UModSys@@$0BAA@USMemAlloc_Malloc@23@@tl@UModSys@@QAE@XZ$0 0040a892 f    CIL library: CIL module
 0001:00009892       __unwindfunclet$??1?$TQuantArrayUnique@USUniquePointerInfo@core@UModSys@@$0BAA@USMemAlloc_Malloc@23@@tl@UModSys@@QAE@XZ$0 0040a892 f    CIL library: CIL module
 0001:0000989a       __ehhandler$??1?$TQuantArrayUnique@USUniquePointerInfo@core@UModSys@@$0BAA@USMemAlloc_Malloc@23@@tl@UModSys@@QAE@XZ 0040a89a f    CIL library: CIL module
 0001:0000989a       __ehhandler$??1?$TQuantArrayUnique@USSourceContext@core@UModSys@@$0BAA@USMemAlloc_Malloc@23@@tl@UModSys@@QAE@XZ 0040a89a f    CIL library: CIL module
 0001:000098a4       __unwindfunclet$??0RStreamReader_FILE@stdio@media@modules@UModSys@@QAE@PAUIModObject@base@4@ABUSParameters@core@4@@Z$0 0040a8a4 f    CIL library: CIL module
 0001:000098a4       __unwindfunclet$??0RLibraryObjCache@std@media@modules@UModSys@@QAE@PAUIModObject@base@4@ABUSParameters@core@4@U?$TFlags4State@USMediaFlagUid@libmedia@UModSys@@I@tl@4@@Z$0 0040a8a4 f    CIL library: CIL module
 0001:000098a4       __unwindfunclet$??0RLibraryLayered@std@media@modules@UModSys@@QAE@PAUIModObject@base@4@ABUSParameters@core@4@U?$TFlags4State@USMediaFlagUid@libmedia@UModSys@@I@tl@4@@Z$0 0040a8a4 f    CIL library: CIL module
 0001:000098a4       __unwindfunclet$??0RLibraryBinTree@std@media@modules@UModSys@@QAE@PAUIModObject@base@4@ABUSParameters@core@4@U?$TFlags4State@USMediaFlagUid@libmedia@UModSys@@I@tl@4@@Z$0 0040a8a4 f    CIL library: CIL module
 0001:000098a4       __unwindfunclet$??0RStreamReader_FILE@stdio@media@modules@UModSys@@QAE@PAUIModObject@base@4@PBD@Z$0 0040a8a4 f    CIL library: CIL module
 0001:000098a4       __unwindfunclet$??0RLibraryBinCache@std@media@modules@UModSys@@QAE@PAUIModObject@base@4@ABUSParameters@core@4@U?$TFlags4State@USMediaFlagUid@libmedia@UModSys@@I@tl@4@@Z$0 0040a8a4 f    CIL library: CIL module
 0001:000098a4       __unwindfunclet$??0RStreamWriter_FILE@stdio@media@modules@UModSys@@QAE@PAUIModObject@base@4@ABUSParameters@core@4@@Z$0 0040a8a4 f    CIL library: CIL module
 0001:000098a4       __unwindfunclet$??0RLibraryObjFilter@std@media@modules@UModSys@@QAE@PAUIModObject@base@4@ABUSParameters@core@4@U?$TFlags4State@USMediaFlagUid@libmedia@UModSys@@I@tl@4@@Z$0 0040a8a4 f    CIL library: CIL module
 0001:000098a4       __unwindfunclet$??0RStreamWriter_FILE@stdio@media@modules@UModSys@@QAE@PAUIModObject@base@4@PBD_N@Z$0 0040a8a4 f    CIL library: CIL module
 0001:000098ac       __ehhandler$??0RStreamWriter_FILE@stdio@media@modules@UModSys@@QAE@PAUIModObject@base@4@ABUSParameters@core@4@@Z 0040a8ac f    CIL library: CIL module
 0001:000098ac       __ehhandler$??0RLibraryBinCache@std@media@modules@UModSys@@QAE@PAUIModObject@base@4@ABUSParameters@core@4@U?$TFlags4State@USMediaFlagUid@libmedia@UModSys@@I@tl@4@@Z 0040a8ac f    CIL library: CIL module
 0001:000098ac       __ehhandler$??0RLibraryBinTree@std@media@modules@UModSys@@QAE@PAUIModObject@base@4@ABUSParameters@core@4@U?$TFlags4State@USMediaFlagUid@libmedia@UModSys@@I@tl@4@@Z 0040a8ac f    CIL library: CIL module
 0001:000098ac       __ehhandler$??0RLibraryObjCache@std@media@modules@UModSys@@QAE@PAUIModObject@base@4@ABUSParameters@core@4@U?$TFlags4State@USMediaFlagUid@libmedia@UModSys@@I@tl@4@@Z 0040a8ac f    CIL library: CIL module
 0001:000098ac       __ehhandler$??0RLibraryLayered@std@media@modules@UModSys@@QAE@PAUIModObject@base@4@ABUSParameters@core@4@U?$TFlags4State@USMediaFlagUid@libmedia@UModSys@@I@tl@4@@Z 0040a8ac f    CIL library: CIL module
 0001:000098ac       __ehhandler$??0RStreamWriter_FILE@stdio@media@modules@UModSys@@QAE@PAUIModObject@base@4@PBD_N@Z 0040a8ac f    CIL library: CIL module
 0001:000098ac       __ehhandler$??0RLibraryObjFilter@std@media@modules@UModSys@@QAE@PAUIModObject@base@4@ABUSParameters@core@4@U?$TFlags4State@USMediaFlagUid@libmedia@UModSys@@I@tl@4@@Z 0040a8ac f    CIL library: CIL module
 0001:000098ac       __ehhandler$??0RStreamReader_FILE@stdio@media@modules@UModSys@@QAE@PAUIModObject@base@4@PBD@Z 0040a8ac f    CIL library: CIL module
 0001:000098ac       __ehhandler$??0RStreamReader_FILE@stdio@media@modules@UModSys@@QAE@PAUIModObject@base@4@ABUSParameters@core@4@@Z 0040a8ac f    CIL library: CIL module
 0001:000098b6       __unwindfunclet$?suicide@RStreamWriter_FILE@stdio@media@modules@UModSys@@UAEXXZ$0 0040a8b6 f    CIL library: CIL module
 0001:000098b6       __unwindfunclet$?suicide@RLibraryBinCache@std@media@modules@UModSys@@UAEXXZ$0 0040a8b6 f    CIL library: CIL module
 0001:000098b6       __unwindfunclet$?suicide@RLibraryLayered@std@media@modules@UModSys@@UAEXXZ$0 0040a8b6 f    CIL library: CIL module
 0001:000098b6       __unwindfunclet$?suicide@RDataArchiver_OsDir@stdio@media@modules@UModSys@@UAEXXZ$0 0040a8b6 f    CIL library: CIL module
 0001:000098b6       __unwindfunclet$?suicide@RLibraryBinTree@std@media@modules@UModSys@@UAEXXZ$0 0040a8b6 f    CIL library: CIL module
 0001:000098b6       __unwindfunclet$?suicide@RStreamReader_FILE@stdio@media@modules@UModSys@@UAEXXZ$0 0040a8b6 f    CIL library: CIL module
 0001:000098b6       __unwindfunclet$?suicide@RLibraryObjCache@std@media@modules@UModSys@@UAEXXZ$0 0040a8b6 f    CIL library: CIL module
 0001:000098b6       __unwindfunclet$?suicide@RLibraryObjFilter@std@media@modules@UModSys@@UAEXXZ$0 0040a8b6 f    CIL library: CIL module
 0001:000098be       __ehhandler$?suicide@RLibraryObjFilter@std@media@modules@UModSys@@UAEXXZ 0040a8be f    CIL library: CIL module
 0001:000098be       __ehhandler$?suicide@RStreamReader_FILE@stdio@media@modules@UModSys@@UAEXXZ 0040a8be f    CIL library: CIL module
 0001:000098be       __ehhandler$?suicide@RDataArchiver_OsDir@stdio@media@modules@UModSys@@UAEXXZ 0040a8be f    CIL library: CIL module
 0001:000098be       __ehhandler$?suicide@RLibraryBinTree@std@media@modules@UModSys@@UAEXXZ 0040a8be f    CIL library: CIL module
 0001:000098be       __ehhandler$?suicide@RLibraryLayered@std@media@modules@UModSys@@UAEXXZ 0040a8be f    CIL library: CIL module
 0001:000098be       __ehhandler$?suicide@RLibraryBinCache@std@media@modules@UModSys@@UAEXXZ 0040a8be f    CIL library: CIL module
 0001:000098be       __ehhandler$?suicide@RStreamWriter_FILE@stdio@media@modules@UModSys@@UAEXXZ 0040a8be f    CIL library: CIL module
 0001:000098be       __ehhandler$?suicide@RLibraryObjCache@std@media@modules@UModSys@@UAEXXZ 0040a8be f    CIL library: CIL module
 0001:000098c8       __unwindfunclet$??1RModuleLoader@rsystem@base@UModSys@@UAE@XZ$0 0040a8c8 f    CIL library: CIL module
 0001:000098d0       __unwindfunclet$??1RModuleLoader@rsystem@base@UModSys@@UAE@XZ$1 0040a8d0 f    CIL library: CIL module
 0001:000098db       __unwindfunclet$??1RModuleLoader@rsystem@base@UModSys@@UAE@XZ$2 0040a8db f    CIL library: CIL module
 0001:000098e6       __ehhandler$??1RModuleLoader@rsystem@base@UModSys@@UAE@XZ 0040a8e6 f    CIL library: CIL module
 0001:000098f0       __unwindfunclet$??1RSystem@rsystem@base@UModSys@@UAE@XZ$0 0040a8f0 f    CIL library: CIL module
 0001:000098f8       __unwindfunclet$??1RSystem@rsystem@base@UModSys@@UAE@XZ$1 0040a8f8 f    CIL library: CIL module
 0001:00009905       __unwindfunclet$??1RSystem@rsystem@base@UModSys@@UAE@XZ$2 0040a905 f    CIL library: CIL module
 0001:00009910       __unwindfunclet$??1RSystem@rsystem@base@UModSys@@UAE@XZ$3 0040a910 f    CIL library: CIL module
 0001:0000991b       __unwindfunclet$??1RSystem@rsystem@base@UModSys@@UAE@XZ$4 0040a91b f    CIL library: CIL module
 0001:00009928       __unwindfunclet$??1RSystem@rsystem@base@UModSys@@UAE@XZ$5 0040a928 f    CIL library: CIL module
 0001:00009933       __ehhandler$??1RSystem@rsystem@base@UModSys@@UAE@XZ 0040a933 f    CIL library: CIL module
 0001:0000993d       __unwindfunclet$?bin_writer@RLibraryLayered@std@media@modules@UModSys@@UAE?AU?$TRefObject@UIStreamWriter@libmedia@UModSys@@U?$TRefObjectFunc@UIStreamWriter@libmedia@UModSys@@@tl@3@@tl@5@ABU?$TString@U?$TSCoreConst@D@su@tl@UModSys@@U?$TComparerBinaryHash@D@234@@75@ABUSFlags@libmedia@5@@Z$0 0040a93d f    CIL library: CIL module
 0001:0000993d       __unwindfunclet$?data_save@RDataArchiver_OsDir@stdio@media@modules@UModSys@@UAE_NABU?$TString@U?$TSCoreConst@D@su@tl@UModSys@@U?$TComparerBinaryHash@D@234@@tl@5@ABUSCMem@core@5@ABUSFlags@libmedia@5@@Z$0 0040a93d f    CIL library: CIL module
 0001:0000993d       __unwindfunclet$?bin_reader@RLibraryLayered@std@media@modules@UModSys@@UAE?AU?$TRefObject@UIStreamReader@libmedia@UModSys@@U?$TRefObjectFunc@UIStreamReader@libmedia@UModSys@@@tl@3@@tl@5@ABU?$TString@U?$TSCoreConst@D@su@tl@UModSys@@U?$TComparerBinaryHash@D@234@@75@ABUSFlags@libmedia@5@@Z$0 0040a93d f    CIL library: CIL module
 0001:00009945       __ehhandler$?bin_reader@RLibraryLayered@std@media@modules@UModSys@@UAE?AU?$TRefObject@UIStreamReader@libmedia@UModSys@@U?$TRefObjectFunc@UIStreamReader@libmedia@UModSys@@@tl@3@@tl@5@ABU?$TString@U?$TSCoreConst@D@su@tl@UModSys@@U?$TComparerBinaryHash@D@234@@75@ABUSFlags@libmedia@5@@Z 0040a945 f    CIL library: CIL module
 0001:00009945       __ehhandler$?bin_writer@RLibraryLayered@std@media@modules@UModSys@@UAE?AU?$TRefObject@UIStreamWriter@libmedia@UModSys@@U?$TRefObjectFunc@UIStreamWriter@libmedia@UModSys@@@tl@3@@tl@5@ABU?$TString@U?$TSCoreConst@D@su@tl@UModSys@@U?$TComparerBinaryHash@D@234@@75@ABUSFlags@libmedia@5@@Z 0040a945 f    CIL library: CIL module
 0001:00009945       __ehhandler$?data_save@RDataArchiver_OsDir@stdio@media@modules@UModSys@@UAE_NABU?$TString@U?$TSCoreConst@D@su@tl@UModSys@@U?$TComparerBinaryHash@D@234@@tl@5@ABUSCMem@core@5@ABUSFlags@libmedia@5@@Z 0040a945 f    CIL library: CIL module
 0001:0000994f       __unwindfunclet$?archive_load_data@libmedia@UModSys@@YA_NAAUIBinArchive@12@ABU?$TString@U?$TSCoreConst@D@su@tl@UModSys@@U?$TComparerBinaryHash@D@234@@tl@2@AAUSCMemShared@core@2@ABUSFlags@12@@Z$0 0040a94f f    CIL library: CIL module
 0001:00009957       __unwindfunclet$?archive_load_data@libmedia@UModSys@@YA_NAAUIBinArchive@12@ABU?$TString@U?$TSCoreConst@D@su@tl@UModSys@@U?$TComparerBinaryHash@D@234@@tl@2@AAUSCMemShared@core@2@ABUSFlags@12@@Z$1 0040a957 f    CIL library: CIL module
 0001:0000995f       __ehhandler$?archive_load_data@libmedia@UModSys@@YA_NAAUIBinArchive@12@ABU?$TString@U?$TSCoreConst@D@su@tl@UModSys@@U?$TComparerBinaryHash@D@234@@tl@2@AAUSCMemShared@core@2@ABUSFlags@12@@Z 0040a95f f    CIL library: CIL module
 0001:00009969       __unwindfunclet$??RGen0@?$TScatterArray@USFilter@RLibraryObjFilter@std@media@modules@UModSys@@USId@23456@U723456@U?$TNodeDeleter0@U?$TScatterArrayNode@USFilter@RLibraryObjFilter@std@media@modules@UModSys@@USId@23456@@tl@UModSys@@@tl@6@@tl@UModSys@@QBEPAU?$TScatterArrayNode@USFilter@RLibraryObjFilter@std@media@modules@UModSys@@USId@23456@@23@ABUCmp@123@ABU?$TTreeHoldRBD@U?$TScatterArrayNode@USFilter@RLibraryObjFilter@std@media@modules@UModSys@@USId@23456@@tl@UModSys@@U?$TNodeDeleter0@U?$TScatterArrayNode@USFilter@RLibraryObjFilter@std@media@modules@UModSys@@USId@23456@@tl@UModSys@@@23@@23@@Z$0 0040a969 f    CIL library: CIL module
 0001:0000996e       __unwindfunclet$??RGen0@?$TScatterArray@USFilter@RLibraryObjFilter@std@media@modules@UModSys@@USId@23456@U723456@U?$TNodeDeleter0@U?$TScatterArrayNode@USFilter@RLibraryObjFilter@std@media@modules@UModSys@@USId@23456@@tl@UModSys@@@tl@6@@tl@UModSys@@QBEPAU?$TScatterArrayNode@USFilter@RLibraryObjFilter@std@media@modules@UModSys@@USId@23456@@23@ABUCmp@123@ABU?$TTreeHoldRBD@U?$TScatterArrayNode@USFilter@RLibraryObjFilter@std@media@modules@UModSys@@USId@23456@@tl@UModSys@@U?$TNodeDeleter0@U?$TScatterArrayNode@USFilter@RLibraryObjFilter@std@media@modules@UModSys@@USId@23456@@tl@UModSys@@@23@@23@@Z$1 0040a96e f    CIL library: CIL module
 0001:00009976       __unwindfunclet$??RGen0@?$TScatterArray@USFilter@RLibraryObjFilter@std@media@modules@UModSys@@USId@23456@U723456@U?$TNodeDeleter0@U?$TScatterArrayNode@USFilter@RLibraryObjFilter@std@media@modules@UModSys@@USId@23456@@tl@UModSys@@@tl@6@@tl@UModSys@@QBEPAU?$TScatterArrayNode@USFilter@RLibraryObjFilter@std@media@modules@UModSys@@USId@23456@@23@ABUCmp@123@ABU?$TTreeHoldRBD@U?$TScatterArrayNode@USFilter@RLibraryObjFilter@std@media@modules@UModSys@@USId@23456@@tl@UModSys@@U?$TNodeDeleter0@U?$TScatterArrayNode@USFilter@RLibraryObjFilter@std@media@modules@UModSys@@USId@23456@@tl@UModSys@@@23@@23@@Z$2 0040a976 f    CIL library: CIL module
 0001:00009981       __ehhandler$??RGen0@?$TScatterArray@USFilter@RLibraryObjFilter@std@media@modules@UModSys@@USId@23456@U723456@U?$TNodeDeleter0@U?$TScatterArrayNode@USFilter@RLibraryObjFilter@std@media@modules@UModSys@@USId@23456@@tl@UModSys@@@tl@6@@tl@UModSys@@QBEPAU?$TScatterArrayNode@USFilter@RLibraryObjFilter@std@media@modules@UModSys@@USId@23456@@23@ABUCmp@123@ABU?$TTreeHoldRBD@U?$TScatterArrayNode@USFilter@RLibraryObjFilter@std@media@modules@UModSys@@USId@23456@@tl@UModSys@@U?$TNodeDeleter0@U?$TScatterArrayNode@USFilter@RLibraryObjFilter@std@media@modules@UModSys@@USId@23456@@tl@UModSys@@@23@@23@@Z 0040a981 f    CIL library: CIL module
 0001:0000998b       __unwindfunclet$??0?$TString@U?$TSCoreShared@USIMemAlloc@core@UModSys@@D@su@tl@UModSys@@U?$TComparerBinaryHash@D@234@@tl@UModSys@@QAE@ABU?$TSCoreConst@D@su@12@@Z$0 0040a98b f    CIL library: CIL module
 0001:0000998b       __unwindfunclet$??1SCacheElem@RLibraryBinCache@std@media@modules@UModSys@@QAE@XZ$0 0040a98b f    CIL library: CIL module
 0001:0000998b       __unwindfunclet$??1SCacheElem@RLibraryObjCache@std@media@modules@UModSys@@QAE@XZ$0 0040a98b f    CIL library: CIL module
 0001:00009993       __ehhandler$??0?$TString@U?$TSCoreShared@USIMemAlloc@core@UModSys@@D@su@tl@UModSys@@U?$TComparerBinaryHash@D@234@@tl@UModSys@@QAE@ABU?$TSCoreConst@D@su@12@@Z 0040a993 f    CIL library: CIL module
 0001:00009993       __ehhandler$??1SCacheElem@RLibraryBinCache@std@media@modules@UModSys@@QAE@XZ 0040a993 f    CIL library: CIL module
 0001:00009993       __ehhandler$??1SCacheElem@RLibraryObjCache@std@media@modules@UModSys@@QAE@XZ 0040a993 f    CIL library: CIL module
 0001:0000999d       __unwindfunclet$?filters_add@RLibraryObjFilter@std@media@modules@UModSys@@UAE_NU?$TRefObject@UIBinObjFilter@libmedia@UModSys@@U?$TRefObjectFunc@UIBinObjFilter@libmedia@UModSys@@@tl@3@@tl@5@PBUSParameters@core@5@H@Z$0 0040a99d f    CIL library: CIL module
 0001:000099a5       __ehhandler$?filters_add@RLibraryObjFilter@std@media@modules@UModSys@@UAE_NU?$TRefObject@UIBinObjFilter@libmedia@UModSys@@U?$TRefObjectFunc@UIBinObjFilter@libmedia@UModSys@@@tl@3@@tl@5@PBUSParameters@core@5@H@Z 0040a9a5 f    CIL library: CIL module
 0001:000099af       __unwindfunclet$?bin_writer@RLibraryBinTree@std@media@modules@UModSys@@UAE?AU?$TRefObject@UIStreamWriter@libmedia@UModSys@@U?$TRefObjectFunc@UIStreamWriter@libmedia@UModSys@@@tl@3@@tl@5@ABU?$TString@U?$TSCoreConst@D@su@tl@UModSys@@U?$TComparerBinaryHash@D@234@@75@ABUSFlags@libmedia@5@@Z$0 0040a9af f    CIL library: CIL module
 0001:000099af       __unwindfunclet$?bin_reader@RLibraryBinTree@std@media@modules@UModSys@@UAE?AU?$TRefObject@UIStreamReader@libmedia@UModSys@@U?$TRefObjectFunc@UIStreamReader@libmedia@UModSys@@@tl@3@@tl@5@ABU?$TString@U?$TSCoreConst@D@su@tl@UModSys@@U?$TComparerBinaryHash@D@234@@75@ABUSFlags@libmedia@5@@Z$0 0040a9af f    CIL library: CIL module
 0001:000099b7       __ehhandler$?bin_reader@RLibraryBinTree@std@media@modules@UModSys@@UAE?AU?$TRefObject@UIStreamReader@libmedia@UModSys@@U?$TRefObjectFunc@UIStreamReader@libmedia@UModSys@@@tl@3@@tl@5@ABU?$TString@U?$TSCoreConst@D@su@tl@UModSys@@U?$TComparerBinaryHash@D@234@@75@ABUSFlags@libmedia@5@@Z 0040a9b7 f    CIL library: CIL module
 0001:000099b7       __ehhandler$?bin_writer@RLibraryBinTree@std@media@modules@UModSys@@UAE?AU?$TRefObject@UIStreamWriter@libmedia@UModSys@@U?$TRefObjectFunc@UIStreamWriter@libmedia@UModSys@@@tl@3@@tl@5@ABU?$TString@U?$TSCoreConst@D@su@tl@UModSys@@U?$TComparerBinaryHash@D@234@@75@ABUSFlags@libmedia@5@@Z 0040a9b7 f    CIL library: CIL module
 0001:000099c1       __unwindfunclet$??$t_gen_param@URStreamReader_FILE@stdio@media@modules@UModSys@@URGenerator@2345@@IGenerator@base@UModSys@@IAE_NPAURGenerator@stdio@media@modules@2@AAU?$TRefObject@UIRefObject@core@UModSys@@U?$TRefObjectFunc@UIRefObject@core@UModSys@@@tl@3@@tl@2@PBUSUniquePointerInfo@core@2@ABUSParameters@core@2@@Z$0 0040a9c1 f    CIL library: CIL module
 0001:000099c1       __unwindfunclet$??$t_gen_param@URStreamWriter_FILE@stdio@media@modules@UModSys@@URGenerator@2345@@IGenerator@base@UModSys@@IAE_NPAURGenerator@stdio@media@modules@2@AAU?$TRefObject@UIRefObject@core@UModSys@@U?$TRefObjectFunc@UIRefObject@core@UModSys@@@tl@3@@tl@2@PBUSUniquePointerInfo@core@2@ABUSParameters@core@2@@Z$0 0040a9c1 f    CIL library: CIL module
 0001:000099cc       __unwindfunclet$??$t_gen_param@URStreamWriter_FILE@stdio@media@modules@UModSys@@URGenerator@2345@@IGenerator@base@UModSys@@IAE_NPAURGenerator@stdio@media@modules@2@AAU?$TRefObject@UIRefObject@core@UModSys@@U?$TRefObjectFunc@UIRefObject@core@UModSys@@@tl@3@@tl@2@PBUSUniquePointerInfo@core@2@ABUSParameters@core@2@@Z$1 0040a9cc f    CIL library: CIL module
 0001:000099cc       __unwindfunclet$??$t_gen_param@URStreamReader_FILE@stdio@media@modules@UModSys@@URGenerator@2345@@IGenerator@base@UModSys@@IAE_NPAURGenerator@stdio@media@modules@2@AAU?$TRefObject@UIRefObject@core@UModSys@@U?$TRefObjectFunc@UIRefObject@core@UModSys@@@tl@3@@tl@2@PBUSUniquePointerInfo@core@2@ABUSParameters@core@2@@Z$1 0040a9cc f    CIL library: CIL module
 0001:000099d4       __ehhandler$??$t_gen_param@URStreamWriter_FILE@stdio@media@modules@UModSys@@URGenerator@2345@@IGenerator@base@UModSys@@IAE_NPAURGenerator@stdio@media@modules@2@AAU?$TRefObject@UIRefObject@core@UModSys@@U?$TRefObjectFunc@UIRefObject@core@UModSys@@@tl@3@@tl@2@PBUSUniquePointerInfo@core@2@ABUSParameters@core@2@@Z 0040a9d4 f    CIL library: CIL module
 0001:000099d4       __ehhandler$??$t_gen_param@URStreamReader_FILE@stdio@media@modules@UModSys@@URGenerator@2345@@IGenerator@base@UModSys@@IAE_NPAURGenerator@stdio@media@modules@2@AAU?$TRefObject@UIRefObject@core@UModSys@@U?$TRefObjectFunc@UIRefObject@core@UModSys@@@tl@3@@tl@2@PBUSUniquePointerInfo@core@2@ABUSParameters@core@2@@Z 0040a9d4 f    CIL library: CIL module
 0001:000099de       __unwindfunclet$??_GRLibraryObjFilter@std@media@modules@UModSys@@UAEPAXI@Z$0 0040a9de f    CIL library: CIL module
 0001:000099de       __unwindfunclet$??_GRLibraryBinCache@std@media@modules@UModSys@@UAEPAXI@Z$0 0040a9de f    CIL library: CIL module
 0001:000099de       __unwindfunclet$??_GRLibraryBinTree@std@media@modules@UModSys@@UAEPAXI@Z$0 0040a9de f    CIL library: CIL module
 0001:000099de       __unwindfunclet$??_GRDataArchiver_OsDir@stdio@media@modules@UModSys@@UAEPAXI@Z$0 0040a9de f    CIL library: CIL module
 0001:000099de       __unwindfunclet$??_GRStreamWriter_FILE@stdio@media@modules@UModSys@@UAEPAXI@Z$0 0040a9de f    CIL library: CIL module
 0001:000099de       __unwindfunclet$??_GRLibraryObjCache@std@media@modules@UModSys@@UAEPAXI@Z$0 0040a9de f    CIL library: CIL module
 0001:000099e6       __ehhandler$??_GRStreamWriter_FILE@stdio@media@modules@UModSys@@UAEPAXI@Z 0040a9e6 f    CIL library: CIL module
 0001:000099e6       __ehhandler$??_GRLibraryObjCache@std@media@modules@UModSys@@UAEPAXI@Z 0040a9e6 f    CIL library: CIL module
 0001:000099e6       __ehhandler$??_GRLibraryBinTree@std@media@modules@UModSys@@UAEPAXI@Z 0040a9e6 f    CIL library: CIL module
 0001:000099e6       __ehhandler$??_GRLibraryBinCache@std@media@modules@UModSys@@UAEPAXI@Z 0040a9e6 f    CIL library: CIL module
 0001:000099e6       __ehhandler$??_GRDataArchiver_OsDir@stdio@media@modules@UModSys@@UAEPAXI@Z 0040a9e6 f    CIL library: CIL module
 0001:000099e6       __ehhandler$??_GRLibraryObjFilter@std@media@modules@UModSys@@UAEPAXI@Z 0040a9e6 f    CIL library: CIL module
 0001:000099f0       __unwindfunclet$?data_writer@RDataArchiver_OsDir@stdio@media@modules@UModSys@@UAE?AU?$TRefObject@UIStreamWriter@libmedia@UModSys@@U?$TRefObjectFunc@UIStreamWriter@libmedia@UModSys@@@tl@3@@tl@5@ABU?$TString@U?$TSCoreConst@D@su@tl@UModSys@@U?$TComparerBinaryHash@D@234@@75@ABUSFlags@libmedia@5@@Z$1 0040a9f0 f    CIL library: CIL module
 0001:000099f8       __unwindfunclet$?data_writer@RDataArchiver_OsDir@stdio@media@modules@UModSys@@UAE?AU?$TRefObject@UIStreamWriter@libmedia@UModSys@@U?$TRefObjectFunc@UIStreamWriter@libmedia@UModSys@@@tl@3@@tl@5@ABU?$TString@U?$TSCoreConst@D@su@tl@UModSys@@U?$TComparerBinaryHash@D@234@@75@ABUSFlags@libmedia@5@@Z$2 0040a9f8 f    CIL library: CIL module
 0001:00009a03       __unwindfunclet$?data_writer@RDataArchiver_OsDir@stdio@media@modules@UModSys@@UAE?AU?$TRefObject@UIStreamWriter@libmedia@UModSys@@U?$TRefObjectFunc@UIStreamWriter@libmedia@UModSys@@@tl@3@@tl@5@ABU?$TString@U?$TSCoreConst@D@su@tl@UModSys@@U?$TComparerBinaryHash@D@234@@75@ABUSFlags@libmedia@5@@Z$0 0040aa03 f    CIL library: CIL module
 0001:00009a1c       __ehhandler$?data_writer@RDataArchiver_OsDir@stdio@media@modules@UModSys@@UAE?AU?$TRefObject@UIStreamWriter@libmedia@UModSys@@U?$TRefObjectFunc@UIStreamWriter@libmedia@UModSys@@@tl@3@@tl@5@ABU?$TString@U?$TSCoreConst@D@su@tl@UModSys@@U?$TComparerBinaryHash@D@234@@75@ABUSFlags@libmedia@5@@Z 0040aa1c f    CIL library: CIL module
 0001:00009a26       __unwindfunclet$?data_reader@RDataArchiver_OsDir@stdio@media@modules@UModSys@@UAE?AU?$TRefObject@UIStreamReader@libmedia@UModSys@@U?$TRefObjectFunc@UIStreamReader@libmedia@UModSys@@@tl@3@@tl@5@ABU?$TString@U?$TSCoreConst@D@su@tl@UModSys@@U?$TComparerBinaryHash@D@234@@75@ABUSFlags@libmedia@5@@Z$1 0040aa26 f    CIL library: CIL module
 0001:00009a2e       __unwindfunclet$?data_reader@RDataArchiver_OsDir@stdio@media@modules@UModSys@@UAE?AU?$TRefObject@UIStreamReader@libmedia@UModSys@@U?$TRefObjectFunc@UIStreamReader@libmedia@UModSys@@@tl@3@@tl@5@ABU?$TString@U?$TSCoreConst@D@su@tl@UModSys@@U?$TComparerBinaryHash@D@234@@75@ABUSFlags@libmedia@5@@Z$2 0040aa2e f    CIL library: CIL module
 0001:00009a39       __unwindfunclet$?data_reader@RDataArchiver_OsDir@stdio@media@modules@UModSys@@UAE?AU?$TRefObject@UIStreamReader@libmedia@UModSys@@U?$TRefObjectFunc@UIStreamReader@libmedia@UModSys@@@tl@3@@tl@5@ABU?$TString@U?$TSCoreConst@D@su@tl@UModSys@@U?$TComparerBinaryHash@D@234@@75@ABUSFlags@libmedia@5@@Z$0 0040aa39 f    CIL library: CIL module
 0001:00009a52       __ehhandler$?data_reader@RDataArchiver_OsDir@stdio@media@modules@UModSys@@UAE?AU?$TRefObject@UIStreamReader@libmedia@UModSys@@U?$TRefObjectFunc@UIStreamReader@libmedia@UModSys@@@tl@3@@tl@5@ABU?$TString@U?$TSCoreConst@D@su@tl@UModSys@@U?$TComparerBinaryHash@D@234@@75@ABUSFlags@libmedia@5@@Z 0040aa52 f    CIL library: CIL module
 0001:00009a5c       __unwindfunclet$??0RDataArchiver_OsDir@stdio@media@modules@UModSys@@QAE@PAUIModObject@base@4@ABUSParameters@core@4@U?$TFlags4State@USMediaFlagUid@libmedia@UModSys@@I@tl@4@@Z$0 0040aa5c f    CIL library: CIL module
 0001:00009a64       __unwindfunclet$??0RDataArchiver_OsDir@stdio@media@modules@UModSys@@QAE@PAUIModObject@base@4@ABUSParameters@core@4@U?$TFlags4State@USMediaFlagUid@libmedia@UModSys@@I@tl@4@@Z$1 0040aa64 f    CIL library: CIL module
 0001:00009a6f       __ehhandler$??0RDataArchiver_OsDir@stdio@media@modules@UModSys@@QAE@PAUIModObject@base@4@ABUSParameters@core@4@U?$TFlags4State@USMediaFlagUid@libmedia@UModSys@@I@tl@4@@Z 0040aa6f f    CIL library: CIL module
 0001:00009a79       __unwindfunclet$??1SMountInfo@RLibraryBinTree@std@media@modules@UModSys@@QAE@XZ$0 0040aa79 f    CIL library: CIL module
 0001:00009a79       __unwindfunclet$??0SLayerX@RLibraryLayered@std@media@modules@UModSys@@QAE@ABU012345@@Z$0 0040aa79 f    CIL library: CIL module
 0001:00009a79       __unwindfunclet$??_GSLayerX@RLibraryLayered@std@media@modules@UModSys@@QAEPAXI@Z$0 0040aa79 f    CIL library: CIL module
 0001:00009a81       __ehhandler$??_GSLayerX@RLibraryLayered@std@media@modules@UModSys@@QAEPAXI@Z 0040aa81 f    CIL library: CIL module
 0001:00009a81       __ehhandler$??0SLayerX@RLibraryLayered@std@media@modules@UModSys@@QAE@ABU012345@@Z 0040aa81 f    CIL library: CIL module
 0001:00009a81       __ehhandler$??1SMountInfo@RLibraryBinTree@std@media@modules@UModSys@@QAE@XZ 0040aa81 f    CIL library: CIL module
 0001:00009a8b       __unwindfunclet$?aconstruct@?$TTypeConstructor@USLayerX@RLibraryLayered@std@media@modules@UModSys@@@tl@UModSys@@SAXPAUSLayerX@RLibraryLayered@std@media@modules@3@I@Z$0 0040aa8b f    CIL library: CIL module
 0001:00009a8b       __unwindfunclet$??$genx_node@UCmp@?$TScatterArray@USCacheElem@RLibraryObjCache@std@media@modules@UModSys@@U?$TString@U?$TSCoreConst@D@su@tl@UModSys@@U?$TComparerBinaryHash@D@234@@tl@6@U?$TObjectCompare@U?$TString@U?$TSCoreConst@D@su@tl@UModSys@@U?$TComparerBinaryHash@D@234@@tl@UModSys@@@core@6@U?$TNodeDeleter0@U?$TScatterArrayNode@USCacheElem@RLibraryObjCache@std@media@modules@UModSys@@U?$TString@U?$TSCoreConst@D@su@tl@UModSys@@U?$TComparerBinaryHash@D@234@@tl@6@@tl@UModSys@@@86@@tl@UModSys@@UGen0@234@@?$TTreeHoldRBD@U?$TScatterArrayNode@USCacheElem@RLibraryObjCache@std@media@modules@UModSys@@U?$TString@U?$TSCoreConst@D@su@tl@UModSys@@U?$TComparerBinaryHash@D@234@@tl@6@@tl@UModSys@@U?$TNodeDeleter0@U?$TScatterArrayNode@USCacheElem@RLibraryObjCache@std@media@modules@UModSys@@U?$TString@U?$TSCoreConst@D@su@tl@UModSys@@U?$TComparerBinaryHash@D@234@@tl@6@@tl@UModSys@@@23@@tl@UModSys@@QAEPAU?$TScatterArrayNode@USCacheElem@RLibraryObjCache@std@media@modules@UModSys@@U?$TString@U?$TSCoreConst@D@su@tl@UModSys@@U?$TComparerBinaryHash@D@234@@tl@6@@12@UCmp@?$TScatterArray@USCacheElem@RLibraryObjCache@std@media@modules@UModSys@@U?$TString@U?$TSCoreConst@D@su@tl@UModSys@@U?$TComparerBinaryHash@D@234@@tl@6@U?$TObjectCompare@U?$TString@U?$TSCoreConst@D@su@tl@UModSys@@U?$TComparerBinaryHash@D@234@@tl@UModSys@@@core@6@U?$TNodeDeleter0@U?$TScatterArrayNode@USCacheElem@RLibraryObjCache@std@media@modules@UModSys@@U?$TString@U?$TSCoreConst@D@su@tl@UModSys@@U?$TComparerBinaryHash@D@234@@tl@6@@tl@UModSys@@@86@@12@ABUGen0@512@PAPAU312@2_N@Z$0 0040aa8b f    CIL library: CIL module
 0001:00009a8b       __unwindfunclet$??$genx_node@UCmp@?$TScatterArray@USCacheElem@RLibraryBinCache@std@media@modules@UModSys@@U?$TString@U?$TSCoreConst@D@su@tl@UModSys@@U?$TComparerBinaryHash@D@234@@tl@6@U?$TObjectCompare@U?$TString@U?$TSCoreConst@D@su@tl@UModSys@@U?$TComparerBinaryHash@D@234@@tl@UModSys@@@core@6@U?$TNodeDeleter0@U?$TScatterArrayNode@USCacheElem@RLibraryBinCache@std@media@modules@UModSys@@U?$TString@U?$TSCoreConst@D@su@tl@UModSys@@U?$TComparerBinaryHash@D@234@@tl@6@@tl@UModSys@@@86@@tl@UModSys@@UGen0@234@@?$TTreeHoldRBD@U?$TScatterArrayNode@USCacheElem@RLibraryBinCache@std@media@modules@UModSys@@U?$TString@U?$TSCoreConst@D@su@tl@UModSys@@U?$TComparerBinaryHash@D@234@@tl@6@@tl@UModSys@@U?$TNodeDeleter0@U?$TScatterArrayNode@USCacheElem@RLibraryBinCache@std@media@modules@UModSys@@U?$TString@U?$TSCoreConst@D@su@tl@UModSys@@U?$TComparerBinaryHash@D@234@@tl@6@@tl@UModSys@@@23@@tl@UModSys@@QAEPAU?$TScatterArrayNode@USCacheElem@RLibraryBinCache@std@media@modules@UModSys@@U?$TString@U?$TSCoreConst@D@su@tl@UModSys@@U?$TComparerBinaryHash@D@234@@tl@6@@12@UCmp@?$TScatterArray@USCacheElem@RLibraryBinCache@std@media@modules@UModSys@@U?$TString@U?$TSCoreConst@D@su@tl@UModSys@@U?$TComparerBinaryHash@D@234@@tl@6@U?$TObjectCompare@U?$TString@U?$TSCoreConst@D@su@tl@UModSys@@U?$TComparerBinaryHash@D@234@@tl@UModSys@@@core@6@U?$TNodeDeleter0@U?$TScatterArrayNode@USCacheElem@RLibraryBinCache@std@media@modules@UModSys@@U?$TString@U?$TSCoreConst@D@su@tl@UModSys@@U?$TComparerBinaryHash@D@234@@tl@6@@tl@UModSys@@@86@@12@ABUGen0@512@PAPAU312@2_N@Z$0 0040aa8b f    CIL library: CIL module
 0001:00009a8b       __unwindfunclet$?amoveright@?$TTypeConstructor@USLayerX@RLibraryLayered@std@media@modules@UModSys@@@tl@UModSys@@SAXPAUSLayerX@RLibraryLayered@std@media@modules@3@III@Z$0 0040aa8b f    CIL library: CIL module
 0001:00009a8b       __unwindfunclet$?amoveleft@?$TTypeConstructor@USLayerX@RLibraryLayered@std@media@modules@UModSys@@@tl@UModSys@@SAXPAUSLayerX@RLibraryLayered@std@media@modules@3@III@Z$0 0040aa8b f    CIL library: CIL module
 0001:00009a8b       __unwindfunclet$??$genx_node@UCmp@?$TScatterArray@USMountInfo@RLibraryBinTree@std@media@modules@UModSys@@USId@ILibraryBinTree@libmedia@6@U7896@U?$TNodeDeleter0@U?$TScatterArrayNode@USMountInfo@RLibraryBinTree@std@media@modules@UModSys@@USId@ILibraryBinTree@libmedia@6@@tl@UModSys@@@tl@6@@tl@UModSys@@UGen0@234@@?$TTreeHoldRBD@U?$TScatterArrayNode@USMountInfo@RLibraryBinTree@std@media@modules@UModSys@@USId@ILibraryBinTree@libmedia@6@@tl@UModSys@@U?$TNodeDeleter0@U?$TScatterArrayNode@USMountInfo@RLibraryBinTree@std@media@modules@UModSys@@USId@ILibraryBinTree@libmedia@6@@tl@UModSys@@@23@@tl@UModSys@@QAEPAU?$TScatterArrayNode@USMountInfo@RLibraryBinTree@std@media@modules@UModSys@@USId@ILibraryBinTree@libmedia@6@@12@UCmp@?$TScatterArray@USMountInfo@RLibraryBinTree@std@media@modules@UModSys@@USId@ILibraryBinTree@libmedia@6@U7896@U?$TNodeDeleter0@U?$TScatterArrayNode@USMountInfo@RLibraryBinTree@std@media@modules@UModSys@@USId@ILibraryBinTree@libmedia@6@@tl@UModSys@@@tl@6@@12@ABUGen0@512@PAPAU312@2_N@Z$0 0040aa8b f    CIL library: CIL module
 0001:00009a90       __ehhandler$?aconstruct@?$TTypeConstructor@USLayerX@RLibraryLayered@std@media@modules@UModSys@@@tl@UModSys@@SAXPAUSLayerX@RLibraryLayered@std@media@modules@3@I@Z 0040aa90 f    CIL library: CIL module
 0001:00009a90       __ehhandler$??$genx_node@UCmp@?$TScatterArray@USCacheElem@RLibraryBinCache@std@media@modules@UModSys@@U?$TString@U?$TSCoreConst@D@su@tl@UModSys@@U?$TComparerBinaryHash@D@234@@tl@6@U?$TObjectCompare@U?$TString@U?$TSCoreConst@D@su@tl@UModSys@@U?$TComparerBinaryHash@D@234@@tl@UModSys@@@core@6@U?$TNodeDeleter0@U?$TScatterArrayNode@USCacheElem@RLibraryBinCache@std@media@modules@UModSys@@U?$TString@U?$TSCoreConst@D@su@tl@UModSys@@U?$TComparerBinaryHash@D@234@@tl@6@@tl@UModSys@@@86@@tl@UModSys@@UGen0@234@@?$TTreeHoldRBD@U?$TScatterArrayNode@USCacheElem@RLibraryBinCache@std@media@modules@UModSys@@U?$TString@U?$TSCoreConst@D@su@tl@UModSys@@U?$TComparerBinaryHash@D@234@@tl@6@@tl@UModSys@@U?$TNodeDeleter0@U?$TScatterArrayNode@USCacheElem@RLibraryBinCache@std@media@modules@UModSys@@U?$TString@U?$TSCoreConst@D@su@tl@UModSys@@U?$TComparerBinaryHash@D@234@@tl@6@@tl@UModSys@@@23@@tl@UModSys@@QAEPAU?$TScatterArrayNode@USCacheElem@RLibraryBinCache@std@media@modules@UModSys@@U?$TString@U?$TSCoreConst@D@su@tl@UModSys@@U?$TComparerBinaryHash@D@234@@tl@6@@12@UCmp@?$TScatterArray@USCacheElem@RLibraryBinCache@std@media@modules@UModSys@@U?$TString@U?$TSCoreConst@D@su@tl@UModSys@@U?$TComparerBinaryHash@D@234@@tl@6@U?$TObjectCompare@U?$TString@U?$TSCoreConst@D@su@tl@UModSys@@U?$TComparerBinaryHash@D@234@@tl@UModSys@@@core@6@U?$TNodeDeleter0@U?$TScatterArrayNode@USCacheElem@RLibraryBinCache@std@media@modules@UModSys@@U?$TString@U?$TSCoreConst@D@su@tl@UModSys@@U?$TComparerBinaryHash@D@234@@tl@6@@tl@UModSys@@@86@@12@ABUGen0@512@PAPAU312@2_N@Z 0040aa90 f    CIL library: CIL module
 0001:00009a90       __ehhandler$??$genx_node@UCmp@?$TScatterArray@USCacheElem@RLibraryObjCache@std@media@modules@UModSys@@U?$TString@U?$TSCoreConst@D@su@tl@UModSys@@U?$TComparerBinaryHash@D@234@@tl@6@U?$TObjectCompare@U?$TString@U?$TSCoreConst@D@su@tl@UModSys@@U?$TComparerBinaryHash@D@234@@tl@UModSys@@@core@6@U?$TNodeDeleter0@U?$TScatterArrayNode@USCacheElem@RLibraryObjCache@std@media@modules@UModSys@@U?$TString@U?$TSCoreConst@D@su@tl@UModSys@@U?$TComparerBinaryHash@D@234@@tl@6@@tl@UModSys@@@86@@tl@UModSys@@UGen0@234@@?$TTreeHoldRBD@U?$TScatterArrayNode@USCacheElem@RLibraryObjCache@std@media@modules@UModSys@@U?$TString@U?$TSCoreConst@D@su@tl@UModSys@@U?$TComparerBinaryHash@D@234@@tl@6@@tl@UModSys@@U?$TNodeDeleter0@U?$TScatterArrayNode@USCacheElem@RLibraryObjCache@std@media@modules@UModSys@@U?$TString@U?$TSCoreConst@D@su@tl@UModSys@@U?$TComparerBinaryHash@D@234@@tl@6@@tl@UModSys@@@23@@tl@UModSys@@QAEPAU?$TScatterArrayNode@USCacheElem@RLibraryObjCache@std@media@modules@UModSys@@U?$TString@U?$TSCoreConst@D@su@tl@UModSys@@U?$TComparerBinaryHash@D@234@@tl@6@@12@UCmp@?$TScatterArray@USCacheElem@RLibraryObjCache@std@media@modules@UModSys@@U?$TString@U?$TSCoreConst@D@su@tl@UModSys@@U?$TComparerBinaryHash@D@234@@tl@6@U?$TObjectCompare@U?$TString@U?$TSCoreConst@D@su@tl@UModSys@@U?$TComparerBinaryHash@D@234@@tl@UModSys@@@core@6@U?$TNodeDeleter0@U?$TScatterArrayNode@USCacheElem@RLibraryObjCache@std@media@modules@UModSys@@U?$TString@U?$TSCoreConst@D@su@tl@UModSys@@U?$TComparerBinaryHash@D@234@@tl@6@@tl@UModSys@@@86@@12@ABUGen0@512@PAPAU312@2_N@Z 0040aa90 f    CIL library: CIL module
 0001:00009a90       __ehhandler$?amoveright@?$TTypeConstructor@USLayerX@RLibraryLayered@std@media@modules@UModSys@@@tl@UModSys@@SAXPAUSLayerX@RLibraryLayered@std@media@modules@3@III@Z 0040aa90 f    CIL library: CIL module
 0001:00009a90       __ehhandler$?amoveleft@?$TTypeConstructor@USLayerX@RLibraryLayered@std@media@modules@UModSys@@@tl@UModSys@@SAXPAUSLayerX@RLibraryLayered@std@media@modules@3@III@Z 0040aa90 f    CIL library: CIL module
 0001:00009a90       __ehhandler$??$genx_node@UCmp@?$TScatterArray@USMountInfo@RLibraryBinTree@std@media@modules@UModSys@@USId@ILibraryBinTree@libmedia@6@U7896@U?$TNodeDeleter0@U?$TScatterArrayNode@USMountInfo@RLibraryBinTree@std@media@modules@UModSys@@USId@ILibraryBinTree@libmedia@6@@tl@UModSys@@@tl@6@@tl@UModSys@@UGen0@234@@?$TTreeHoldRBD@U?$TScatterArrayNode@USMountInfo@RLibraryBinTree@std@media@modules@UModSys@@USId@ILibraryBinTree@libmedia@6@@tl@UModSys@@U?$TNodeDeleter0@U?$TScatterArrayNode@USMountInfo@RLibraryBinTree@std@media@modules@UModSys@@USId@ILibraryBinTree@libmedia@6@@tl@UModSys@@@23@@tl@UModSys@@QAEPAU?$TScatterArrayNode@USMountInfo@RLibraryBinTree@std@media@modules@UModSys@@USId@ILibraryBinTree@libmedia@6@@12@UCmp@?$TScatterArray@USMountInfo@RLibraryBinTree@std@media@modules@UModSys@@USId@ILibraryBinTree@libmedia@6@U7896@U?$TNodeDeleter0@U?$TScatterArrayNode@USMountInfo@RLibraryBinTree@std@media@modules@UModSys@@USId@ILibraryBinTree@libmedia@6@@tl@UModSys@@@tl@6@@12@ABUGen0@512@PAPAU312@2_N@Z 0040aa90 f    CIL library: CIL module
 0001:00009a9a       __unwindfunclet$?obj_save@RLibraryLayered@std@media@modules@UModSys@@UAE_NABU?$TString@U?$TSCoreConst@D@su@tl@UModSys@@U?$TComparerBinaryHash@D@234@@tl@5@PBUIRefObject@core@5@ABUSObjOptions@ILibrary@libmedia@5@@Z$0 0040aa9a f    CIL library: CIL module
 0001:00009aa2       __ehhandler$?obj_save@RLibraryLayered@std@media@modules@UModSys@@UAE_NABU?$TString@U?$TSCoreConst@D@su@tl@UModSys@@U?$TComparerBinaryHash@D@234@@tl@5@PBUIRefObject@core@5@ABUSObjOptions@ILibrary@libmedia@5@@Z 0040aaa2 f    CIL library: CIL module
 0001:00009aac       __unwindfunclet$?obj_load@RLibraryLayered@std@media@modules@UModSys@@UAE_NABU?$TString@U?$TSCoreConst@D@su@tl@UModSys@@U?$TComparerBinaryHash@D@234@@tl@5@PAUIRefObject@core@5@ABUSObjOptions@ILibrary@libmedia@5@@Z$0 0040aaac f    CIL library: CIL module
 0001:00009ab4       __ehhandler$?obj_load@RLibraryLayered@std@media@modules@UModSys@@UAE_NABU?$TString@U?$TSCoreConst@D@su@tl@UModSys@@U?$TComparerBinaryHash@D@234@@tl@5@PAUIRefObject@core@5@ABUSObjOptions@ILibrary@libmedia@5@@Z 0040aab4 f    CIL library: CIL module
 0001:00009abe       __unwindfunclet$?obj_get@RLibraryLayered@std@media@modules@UModSys@@UAE_NABU?$TString@U?$TSCoreConst@D@su@tl@UModSys@@U?$TComparerBinaryHash@D@234@@tl@5@AAU?$TRefObject@UIRefObject@core@UModSys@@U?$TRefObjectFunc@UIRefObject@core@UModSys@@@tl@3@@75@ABUSObjOptions@ILibrary@libmedia@5@@Z$0 0040aabe f    CIL library: CIL module
 0001:00009ac6       __ehhandler$?obj_get@RLibraryLayered@std@media@modules@UModSys@@UAE_NABU?$TString@U?$TSCoreConst@D@su@tl@UModSys@@U?$TComparerBinaryHash@D@234@@tl@5@AAU?$TRefObject@UIRefObject@core@UModSys@@U?$TRefObjectFunc@UIRefObject@core@UModSys@@@tl@3@@75@ABUSObjOptions@ILibrary@libmedia@5@@Z 0040aac6 f    CIL library: CIL module
 0001:00009ad0       __unwindfunclet$?bin_save@RLibraryLayered@std@media@modules@UModSys@@UAE_NABU?$TString@U?$TSCoreConst@D@su@tl@UModSys@@U?$TComparerBinaryHash@D@234@@tl@5@ABUSCMem@core@5@ABUSFlags@libmedia@5@@Z$1 0040aad0 f    CIL library: CIL module
 0001:00009ad8       __ehhandler$?bin_save@RLibraryLayered@std@media@modules@UModSys@@UAE_NABU?$TString@U?$TSCoreConst@D@su@tl@UModSys@@U?$TComparerBinaryHash@D@234@@tl@5@ABUSCMem@core@5@ABUSFlags@libmedia@5@@Z 0040aad8 f    CIL library: CIL module
 0001:00009ae2       __unwindfunclet$??_GRModuleLibrarySO@rsystem@base@UModSys@@UAEPAXI@Z$0 0040aae2 f    CIL library: CIL module
 0001:00009ae2       __unwindfunclet$??_GRModuleLibraryThis@rsystem@base@UModSys@@UAEPAXI@Z$0 0040aae2 f    CIL library: CIL module
 0001:00009aea       __ehhandler$??_GRModuleLibraryThis@rsystem@base@UModSys@@UAEPAXI@Z 0040aaea f    CIL library: CIL module
 0001:00009aea       __ehhandler$??_GRModuleLibrarySO@rsystem@base@UModSys@@UAEPAXI@Z 0040aaea f    CIL library: CIL module
 0001:00009af4       __unwindfunclet$??0RModule@rsystem@base@UModSys@@QAE@PAUIModuleLibraryUni@123@PAUIModuleReg@23@@Z$0 0040aaf4 f    CIL library: CIL module
 0001:00009afc       __unwindfunclet$??0RModule@rsystem@base@UModSys@@QAE@PAUIModuleLibraryUni@123@PAUIModuleReg@23@@Z$1 0040aafc f    CIL library: CIL module
 0001:00009b07       __unwindfunclet$??0RModule@rsystem@base@UModSys@@QAE@PAUIModuleLibraryUni@123@PAUIModuleReg@23@@Z$2 0040ab07 f    CIL library: CIL module
 0001:00009b12       __unwindfunclet$??0RModule@rsystem@base@UModSys@@QAE@PAUIModuleLibraryUni@123@PAUIModuleReg@23@@Z$3 0040ab12 f    CIL library: CIL module
 0001:00009b1d       __ehhandler$??0RModule@rsystem@base@UModSys@@QAE@PAUIModuleLibraryUni@123@PAUIModuleReg@23@@Z 0040ab1d f    CIL library: CIL module
 0001:00009b27       __unwindfunclet$?link@IModuleLibraryUni@rsystem@base@UModSys@@QAE_NXZ$0 0040ab27 f    CIL library: CIL module
 0001:00009b32       __ehhandler$?link@IModuleLibraryUni@rsystem@base@UModSys@@QAE_NXZ 0040ab32 f    CIL library: CIL module
 0001:00009b3c       __unwindfunclet$?exec_test_shells@RSystem@rsystem@base@UModSys@@QAE_NXZ$0 0040ab3c f    CIL library: CIL module
 0001:00009b47       __unwindfunclet$?exec_test_shells@RSystem@rsystem@base@UModSys@@QAE_NXZ$1 0040ab47 f    CIL library: CIL module
 0001:00009b52       __ehhandler$?exec_test_shells@RSystem@rsystem@base@UModSys@@QAE_NXZ 0040ab52 f    CIL library: CIL module
 0001:00009b5c       __unwindfunclet$??$t_gen_param@URDataArchiver_OsDir@stdio@media@modules@UModSys@@URGenerator@2345@@IGenerator@base@UModSys@@IAE_NPAURGenerator@stdio@media@modules@2@AAU?$TRefObject@UIRefObject@core@UModSys@@U?$TRefObjectFunc@UIRefObject@core@UModSys@@@tl@3@@tl@2@PBUSUniquePointerInfo@core@2@ABUSParameters@core@2@@Z$0 0040ab5c f    CIL library: CIL module
 0001:00009b67       __unwindfunclet$??$t_gen_param@URDataArchiver_OsDir@stdio@media@modules@UModSys@@URGenerator@2345@@IGenerator@base@UModSys@@IAE_NPAURGenerator@stdio@media@modules@2@AAU?$TRefObject@UIRefObject@core@UModSys@@U?$TRefObjectFunc@UIRefObject@core@UModSys@@@tl@3@@tl@2@PBUSUniquePointerInfo@core@2@ABUSParameters@core@2@@Z$1 0040ab67 f    CIL library: CIL module
 0001:00009b6f       __ehhandler$??$t_gen_param@URDataArchiver_OsDir@stdio@media@modules@UModSys@@URGenerator@2345@@IGenerator@base@UModSys@@IAE_NPAURGenerator@stdio@media@modules@2@AAU?$TRefObject@UIRefObject@core@UModSys@@U?$TRefObjectFunc@UIRefObject@core@UModSys@@@tl@3@@tl@2@PBUSUniquePointerInfo@core@2@ABUSParameters@core@2@@Z 0040ab6f f    CIL library: CIL module
 0001:00009b79       __unwindfunclet$??0?$TScatterArrayNode@USCacheElem@RLibraryObjCache@std@media@modules@UModSys@@U?$TString@U?$TSCoreConst@D@su@tl@UModSys@@U?$TComparerBinaryHash@D@234@@tl@6@@tl@UModSys@@QAE@ABU?$TString@U?$TSCoreConst@D@su@tl@UModSys@@U?$TComparerBinaryHash@D@234@@12@@Z$0 0040ab79 f    CIL library: CIL module
 0001:00009b83       __unwindfunclet$??0?$TScatterArrayNode@USCacheElem@RLibraryObjCache@std@media@modules@UModSys@@U?$TString@U?$TSCoreConst@D@su@tl@UModSys@@U?$TComparerBinaryHash@D@234@@tl@6@@tl@UModSys@@QAE@ABU?$TString@U?$TSCoreConst@D@su@tl@UModSys@@U?$TComparerBinaryHash@D@234@@12@@Z$3 0040ab83 f    CIL library: CIL module
 0001:00009b8b       __unwindfunclet$??0?$TScatterArrayNode@USCacheElem@RLibraryObjCache@std@media@modules@UModSys@@U?$TString@U?$TSCoreConst@D@su@tl@UModSys@@U?$TComparerBinaryHash@D@234@@tl@6@@tl@UModSys@@QAE@ABU?$TString@U?$TSCoreConst@D@su@tl@UModSys@@U?$TComparerBinaryHash@D@234@@12@@Z$1 0040ab8b f    CIL library: CIL module
 0001:00009b96       __ehhandler$??0?$TScatterArrayNode@USCacheElem@RLibraryObjCache@std@media@modules@UModSys@@U?$TString@U?$TSCoreConst@D@su@tl@UModSys@@U?$TComparerBinaryHash@D@234@@tl@6@@tl@UModSys@@QAE@ABU?$TString@U?$TSCoreConst@D@su@tl@UModSys@@U?$TComparerBinaryHash@D@234@@12@@Z 0040ab96 f    CIL library: CIL module
 0001:00009ba0       __unwindfunclet$??0?$TScatterArrayNode@USMountInfo@RLibraryBinTree@std@media@modules@UModSys@@USId@ILibraryBinTree@libmedia@6@@tl@UModSys@@QAE@ABUSId@ILibraryBinTree@libmedia@2@@Z$0 0040aba0 f    CIL library: CIL module
 0001:00009baa       __unwindfunclet$??0?$TScatterArrayNode@USMountInfo@RLibraryBinTree@std@media@modules@UModSys@@USId@ILibraryBinTree@libmedia@6@@tl@UModSys@@QAE@ABUSId@ILibraryBinTree@libmedia@2@@Z$6 0040abaa f    CIL library: CIL module
 0001:00009bb2       __unwindfunclet$??0?$TScatterArrayNode@USMountInfo@RLibraryBinTree@std@media@modules@UModSys@@USId@ILibraryBinTree@libmedia@6@@tl@UModSys@@QAE@ABUSId@ILibraryBinTree@libmedia@2@@Z$1 0040abb2 f    CIL library: CIL module
 0001:00009bbd       __ehhandler$??0?$TScatterArrayNode@USMountInfo@RLibraryBinTree@std@media@modules@UModSys@@USId@ILibraryBinTree@libmedia@6@@tl@UModSys@@QAE@ABUSId@ILibraryBinTree@libmedia@2@@Z 0040abbd f    CIL library: CIL module
 0001:00009bc7       __unwindfunclet$??0?$TScatterArrayNode@USCacheElem@RLibraryBinCache@std@media@modules@UModSys@@U?$TString@U?$TSCoreConst@D@su@tl@UModSys@@U?$TComparerBinaryHash@D@234@@tl@6@@tl@UModSys@@QAE@ABU?$TString@U?$TSCoreConst@D@su@tl@UModSys@@U?$TComparerBinaryHash@D@234@@12@@Z$0 0040abc7 f    CIL library: CIL module
 0001:00009bd1       __unwindfunclet$??0?$TScatterArrayNode@USCacheElem@RLibraryBinCache@std@media@modules@UModSys@@U?$TString@U?$TSCoreConst@D@su@tl@UModSys@@U?$TComparerBinaryHash@D@234@@tl@6@@tl@UModSys@@QAE@ABU?$TString@U?$TSCoreConst@D@su@tl@UModSys@@U?$TComparerBinaryHash@D@234@@12@@Z$1 0040abd1 f    CIL library: CIL module
 0001:00009bdc       __ehhandler$??0?$TScatterArrayNode@USCacheElem@RLibraryBinCache@std@media@modules@UModSys@@U?$TString@U?$TSCoreConst@D@su@tl@UModSys@@U?$TComparerBinaryHash@D@234@@tl@6@@tl@UModSys@@QAE@ABU?$TString@U?$TSCoreConst@D@su@tl@UModSys@@U?$TComparerBinaryHash@D@234@@12@@Z 0040abdc f    CIL library: CIL module
 0001:00009be6       __unwindfunclet$??$t_gen_param@URLibraryLayered@std@media@modules@UModSys@@URGenerator@2345@@IGenerator@base@UModSys@@IAE_NPAURGenerator@std@media@modules@2@AAU?$TRefObject@UIRefObject@core@UModSys@@U?$TRefObjectFunc@UIRefObject@core@UModSys@@@tl@3@@tl@2@PBUSUniquePointerInfo@core@2@ABUSParameters@core@2@@Z$0 0040abe6 f    CIL library: CIL module
 0001:00009be6       __unwindfunclet$??$t_gen_param@URLibraryBinCache@std@media@modules@UModSys@@URGenerator@2345@@IGenerator@base@UModSys@@IAE_NPAURGenerator@std@media@modules@2@AAU?$TRefObject@UIRefObject@core@UModSys@@U?$TRefObjectFunc@UIRefObject@core@UModSys@@@tl@3@@tl@2@PBUSUniquePointerInfo@core@2@ABUSParameters@core@2@@Z$0 0040abe6 f    CIL library: CIL module
 0001:00009be6       __unwindfunclet$??$t_gen_param@URLibraryObjFilter@std@media@modules@UModSys@@URGenerator@2345@@IGenerator@base@UModSys@@IAE_NPAURGenerator@std@media@modules@2@AAU?$TRefObject@UIRefObject@core@UModSys@@U?$TRefObjectFunc@UIRefObject@core@UModSys@@@tl@3@@tl@2@PBUSUniquePointerInfo@core@2@ABUSParameters@core@2@@Z$0 0040abe6 f    CIL library: CIL module
 0001:00009be6       __unwindfunclet$??$t_gen_param@URLibraryBinTree@std@media@modules@UModSys@@URGenerator@2345@@IGenerator@base@UModSys@@IAE_NPAURGenerator@std@media@modules@2@AAU?$TRefObject@UIRefObject@core@UModSys@@U?$TRefObjectFunc@UIRefObject@core@UModSys@@@tl@3@@tl@2@PBUSUniquePointerInfo@core@2@ABUSParameters@core@2@@Z$0 0040abe6 f    CIL library: CIL module
 0001:00009be6       __unwindfunclet$??$t_gen_param@URLibraryObjCache@std@media@modules@UModSys@@URGenerator@2345@@IGenerator@base@UModSys@@IAE_NPAURGenerator@std@media@modules@2@AAU?$TRefObject@UIRefObject@core@UModSys@@U?$TRefObjectFunc@UIRefObject@core@UModSys@@@tl@3@@tl@2@PBUSUniquePointerInfo@core@2@ABUSParameters@core@2@@Z$0 0040abe6 f    CIL library: CIL module
 0001:00009bf1       __unwindfunclet$??$t_gen_param@URLibraryBinTree@std@media@modules@UModSys@@URGenerator@2345@@IGenerator@base@UModSys@@IAE_NPAURGenerator@std@media@modules@2@AAU?$TRefObject@UIRefObject@core@UModSys@@U?$TRefObjectFunc@UIRefObject@core@UModSys@@@tl@3@@tl@2@PBUSUniquePointerInfo@core@2@ABUSParameters@core@2@@Z$1 0040abf1 f    CIL library: CIL module
 0001:00009bf1       __unwindfunclet$??$t_gen_param@URLibraryObjFilter@std@media@modules@UModSys@@URGenerator@2345@@IGenerator@base@UModSys@@IAE_NPAURGenerator@std@media@modules@2@AAU?$TRefObject@UIRefObject@core@UModSys@@U?$TRefObjectFunc@UIRefObject@core@UModSys@@@tl@3@@tl@2@PBUSUniquePointerInfo@core@2@ABUSParameters@core@2@@Z$1 0040abf1 f    CIL library: CIL module
 0001:00009bf1       __unwindfunclet$??$t_gen_param@URLibraryBinCache@std@media@modules@UModSys@@URGenerator@2345@@IGenerator@base@UModSys@@IAE_NPAURGenerator@std@media@modules@2@AAU?$TRefObject@UIRefObject@core@UModSys@@U?$TRefObjectFunc@UIRefObject@core@UModSys@@@tl@3@@tl@2@PBUSUniquePointerInfo@core@2@ABUSParameters@core@2@@Z$1 0040abf1 f    CIL library: CIL module
 0001:00009bf1       __unwindfunclet$??$t_gen_param@URLibraryObjCache@std@media@modules@UModSys@@URGenerator@2345@@IGenerator@base@UModSys@@IAE_NPAURGenerator@std@media@modules@2@AAU?$TRefObject@UIRefObject@core@UModSys@@U?$TRefObjectFunc@UIRefObject@core@UModSys@@@tl@3@@tl@2@PBUSUniquePointerInfo@core@2@ABUSParameters@core@2@@Z$1 0040abf1 f    CIL library: CIL module
 0001:00009bf1       __unwindfunclet$??$t_gen_param@URLibraryLayered@std@media@modules@UModSys@@URGenerator@2345@@IGenerator@base@UModSys@@IAE_NPAURGenerator@std@media@modules@2@AAU?$TRefObject@UIRefObject@core@UModSys@@U?$TRefObjectFunc@UIRefObject@core@UModSys@@@tl@3@@tl@2@PBUSUniquePointerInfo@core@2@ABUSParameters@core@2@@Z$1 0040abf1 f    CIL library: CIL module
 0001:00009bf9       __ehhandler$??$t_gen_param@URLibraryBinCache@std@media@modules@UModSys@@URGenerator@2345@@IGenerator@base@UModSys@@IAE_NPAURGenerator@std@media@modules@2@AAU?$TRefObject@UIRefObject@core@UModSys@@U?$TRefObjectFunc@UIRefObject@core@UModSys@@@tl@3@@tl@2@PBUSUniquePointerInfo@core@2@ABUSParameters@core@2@@Z 0040abf9 f    CIL library: CIL module
 0001:00009bf9       __ehhandler$??$t_gen_param@URLibraryObjFilter@std@media@modules@UModSys@@URGenerator@2345@@IGenerator@base@UModSys@@IAE_NPAURGenerator@std@media@modules@2@AAU?$TRefObject@UIRefObject@core@UModSys@@U?$TRefObjectFunc@UIRefObject@core@UModSys@@@tl@3@@tl@2@PBUSUniquePointerInfo@core@2@ABUSParameters@core@2@@Z 0040abf9 f    CIL library: CIL module
 0001:00009bf9       __ehhandler$??$t_gen_param@URLibraryBinTree@std@media@modules@UModSys@@URGenerator@2345@@IGenerator@base@UModSys@@IAE_NPAURGenerator@std@media@modules@2@AAU?$TRefObject@UIRefObject@core@UModSys@@U?$TRefObjectFunc@UIRefObject@core@UModSys@@@tl@3@@tl@2@PBUSUniquePointerInfo@core@2@ABUSParameters@core@2@@Z 0040abf9 f    CIL library: CIL module
 0001:00009bf9       __ehhandler$??$t_gen_param@URLibraryLayered@std@media@modules@UModSys@@URGenerator@2345@@IGenerator@base@UModSys@@IAE_NPAURGenerator@std@media@modules@2@AAU?$TRefObject@UIRefObject@core@UModSys@@U?$TRefObjectFunc@UIRefObject@core@UModSys@@@tl@3@@tl@2@PBUSUniquePointerInfo@core@2@ABUSParameters@core@2@@Z 0040abf9 f    CIL library: CIL module
 0001:00009bf9       __ehhandler$??$t_gen_param@URLibraryObjCache@std@media@modules@UModSys@@URGenerator@2345@@IGenerator@base@UModSys@@IAE_NPAURGenerator@std@media@modules@2@AAU?$TRefObject@UIRefObject@core@UModSys@@U?$TRefObjectFunc@UIRefObject@core@UModSys@@@tl@3@@tl@2@PBUSUniquePointerInfo@core@2@ABUSParameters@core@2@@Z 0040abf9 f    CIL library: CIL module
 0001:00009c03       __unwindfunclet$?objcache_add@RLibraryObjCache@std@media@modules@UModSys@@UAE_NABU?$TString@U?$TSCoreConst@D@su@tl@UModSys@@U?$TComparerBinaryHash@D@234@@tl@5@PAUIRefObject@core@5@@Z$0 0040ac03 f    CIL library: CIL module
 0001:00009c03       __unwindfunclet$?bincache_add@RLibraryBinCache@std@media@modules@UModSys@@QAE_NABU?$TString@U?$TSCoreConst@D@su@tl@UModSys@@U?$TComparerBinaryHash@D@234@@tl@5@ABUSCMemShared@core@5@_N@Z$0 0040ac03 f    CIL library: CIL module
 0001:00009c0b       __ehhandler$?objcache_add@RLibraryObjCache@std@media@modules@UModSys@@UAE_NABU?$TString@U?$TSCoreConst@D@su@tl@UModSys@@U?$TComparerBinaryHash@D@234@@tl@5@PAUIRefObject@core@5@@Z 0040ac0b f    CIL library: CIL module
 0001:00009c0b       __ehhandler$?bincache_add@RLibraryBinCache@std@media@modules@UModSys@@QAE_NABU?$TString@U?$TSCoreConst@D@su@tl@UModSys@@U?$TComparerBinaryHash@D@234@@tl@5@ABUSCMemShared@core@5@_N@Z 0040ac0b f    CIL library: CIL module
 0001:00009c15       __unwindfunclet$?mount_add@RLibraryBinTree@std@media@modules@UModSys@@UAE_NABUSId@ILibraryBinTree@libmedia@5@ABUSPoint@785@@Z$0 0040ac15 f    CIL library: CIL module
 0001:00009c1d       __ehhandler$?mount_add@RLibraryBinTree@std@media@modules@UModSys@@UAE_NABUSId@ILibraryBinTree@libmedia@5@ABUSPoint@785@@Z 0040ac1d f    CIL library: CIL module
 0001:00009c27       __unwindfunclet$?bincache_add@RLibraryBinCache@std@media@modules@UModSys@@UAE_NABU?$TString@U?$TSCoreConst@D@su@tl@UModSys@@U?$TComparerBinaryHash@D@234@@tl@5@@Z$0 0040ac27 f    CIL library: CIL module
 0001:00009c2f       __ehhandler$?bincache_add@RLibraryBinCache@std@media@modules@UModSys@@UAE_NABU?$TString@U?$TSCoreConst@D@su@tl@UModSys@@U?$TComparerBinaryHash@D@234@@tl@5@@Z 0040ac2f f    CIL library: CIL module
 0001:00009c39       __unwindfunclet$?mem_free@?$TRMemAlloc_CC@U?$TMemAllocHeader@USMagic@mem_headers@rsystem@base@UModSys@@U?$TPool@X@2345@USDebug@2345@UVoid@core@5@U895@@rsystem@base@UModSys@@USMemAlloc_Malloc@core@4@@rsystem@base@UModSys@@UAEXPAXPBUSSourceContext@core@4@@Z$0 0040ac39 f    CIL library: CIL module
 0001:00009c41       __ehhandler$?mem_free@?$TRMemAlloc_CC@U?$TMemAllocHeader@USMagic@mem_headers@rsystem@base@UModSys@@U?$TPool@X@2345@USDebug@2345@UVoid@core@5@U895@@rsystem@base@UModSys@@USMemAlloc_Malloc@core@4@@rsystem@base@UModSys@@UAEXPAXPBUSSourceContext@core@4@@Z 0040ac41 f    CIL library: CIL module
 0001:00009c4b       __unwindfunclet$?mem_realloc@?$TRMemAlloc_CC@U?$TMemAllocHeader@USMagic@mem_headers@rsystem@base@UModSys@@U?$TPool@X@2345@USDebug@2345@UVoid@core@5@U895@@rsystem@base@UModSys@@USMemAlloc_Malloc@core@4@@rsystem@base@UModSys@@UAEPAXPAXIPBUSSourceContext@core@4@@Z$0 0040ac4b f    CIL library: CIL module
 0001:00009c53       __unwindfunclet$?mem_realloc@?$TRMemAlloc_CC@U?$TMemAllocHeader@USMagic@mem_headers@rsystem@base@UModSys@@U?$TPool@X@2345@USDebug@2345@UVoid@core@5@U895@@rsystem@base@UModSys@@USMemAlloc_Malloc@core@4@@rsystem@base@UModSys@@UAEPAXPAXIPBUSSourceContext@core@4@@Z$1 0040ac53 f    CIL library: CIL module
 0001:00009c5b       __ehhandler$?mem_realloc@?$TRMemAlloc_CC@U?$TMemAllocHeader@USMagic@mem_headers@rsystem@base@UModSys@@U?$TPool@X@2345@USDebug@2345@UVoid@core@5@U895@@rsystem@base@UModSys@@USMemAlloc_Malloc@core@4@@rsystem@base@UModSys@@UAEPAXPAXIPBUSSourceContext@core@4@@Z 0040ac5b f    CIL library: CIL module
 0001:00009c65       __unwindfunclet$?s_add@RModuleLibrarySO@rsystem@base@UModSys@@SA_NPAUISystem@34@AAU?$TDynarrayDynamic@U?$TRefObject@URModuleLibrarySO@rsystem@base@UModSys@@U?$TRefObjectFunc@URModuleLibrarySO@rsystem@base@UModSys@@@tl@4@@tl@UModSys@@U?$TAllocator@USMemAlloc_Malloc@core@UModSys@@USCountCalcPower2@23@@23@@tl@4@PBD@Z$1 0040ac65 f    CIL library: CIL module
 0001:00009c6d       __ehhandler$?s_add@RModuleLibrarySO@rsystem@base@UModSys@@SA_NPAUISystem@34@AAU?$TDynarrayDynamic@U?$TRefObject@URModuleLibrarySO@rsystem@base@UModSys@@U?$TRefObjectFunc@URModuleLibrarySO@rsystem@base@UModSys@@@tl@4@@tl@UModSys@@U?$TAllocator@USMemAlloc_Malloc@core@UModSys@@USCountCalcPower2@23@@23@@tl@4@PBD@Z 0040ac6d f    CIL library: CIL module
 0001:00009c77       ??__E?s_id@?$TObjectUniqueID@UIRoot@core@UModSys@@@tl@UModSys@@2USUniquePointer@core@3@A@@YAXXZ 0040ac77 f    CIL library: CIL module
 0001:00009c99       ??__E?s_id@?$TObjectUniqueID@UIRefObject@core@UModSys@@@tl@UModSys@@2USUniquePointer@core@3@A@@YAXXZ 0040ac99 f    CIL library: CIL module
 0001:00009cbb       ??__E?s_id@?$TObjectUniqueID@UIParameters@core@UModSys@@@tl@UModSys@@2USUniquePointer@core@3@A@@YAXXZ 0040acbb f    CIL library: CIL module
 0001:00009cdd       ??__E?s_id@?$TObjectUniqueID@UIModule@base@UModSys@@@tl@UModSys@@2USUniquePointer@core@3@A@@YAXXZ 0040acdd f    CIL library: CIL module
 0001:00009cff       ??__E?s_id@?$TObjectUniqueID@UIModuleLibrary@base@UModSys@@@tl@UModSys@@2USUniquePointer@core@3@A@@YAXXZ 0040acff f    CIL library: CIL module
 0001:00009d21       ??__E?s_id@?$TObjectUniqueID@UIModObject@base@UModSys@@@tl@UModSys@@2USUniquePointer@core@3@A@@YAXXZ 0040ad21 f    CIL library: CIL module
 0001:00009d43       ??__E?s_id@?$TObjectUniqueID@UIGenerator@base@UModSys@@@tl@UModSys@@2USUniquePointer@core@3@A@@YAXXZ 0040ad43 f    CIL library: CIL module
 0001:00009d65       ??__E?s_id@?$TObjectUniqueID@UIShell@base@UModSys@@@tl@UModSys@@2USUniquePointer@core@3@A@@YAXXZ 0040ad65 f    CIL library: CIL module
 0001:00009d87       ??__E?s_id@?$TObjectUniqueID@UIConsole@base@UModSys@@@tl@UModSys@@2USUniquePointer@core@3@A@@YAXXZ 0040ad87 f    CIL library: CIL module
 0001:00009da9       ??__E?s_id@?$TObjectUniqueID@UISystem@base@UModSys@@@tl@UModSys@@2USUniquePointer@core@3@A@@YAXXZ 0040ada9 f    CIL library: CIL module
 0001:00009dcb       ??__E?s_id@?$TObjectUniqueID@URModule@rsystem@base@UModSys@@@tl@UModSys@@2USUniquePointer@core@3@A@@YAXXZ 0040adcb f    CIL library: CIL module
 0001:00009ded       ??__E?s_id@?$TObjectUniqueID@UIModuleLibraryUni@rsystem@base@UModSys@@@tl@UModSys@@2USUniquePointer@core@3@A@@YAXXZ 0040aded f    CIL library: CIL module
 0001:00009e0f       ??__E?s_id@?$TObjectUniqueID@URModuleLibrarySO@rsystem@base@UModSys@@@tl@UModSys@@2USUniquePointer@core@3@A@@YAXXZ 0040ae0f f    CIL library: CIL module
 0001:00009e31       ??__E?s_id@?$TObjectUniqueID@URModuleLibraryThis@rsystem@base@UModSys@@@tl@UModSys@@2USUniquePointer@core@3@A@@YAXXZ 0040ae31 f    CIL library: CIL module
 0001:00009e53       ??__E?s_id@?$TObjectUniqueID@URParameters@rsystem@base@UModSys@@@tl@UModSys@@2USUniquePointer@core@3@A@@YAXXZ 0040ae53 f    CIL library: CIL module
 0001:00009e75       ??__E?s_id@?$TObjectUniqueID@URSystem@rsystem@base@UModSys@@@tl@UModSys@@2USUniquePointer@core@3@A@@YAXXZ 0040ae75 f    CIL library: CIL module
 0001:00009e97       ??__E?s_id@?$TObjectUniqueID@URConsole_std@rsystem@base@UModSys@@@tl@UModSys@@2USUniquePointer@core@3@A@@YAXXZ 0040ae97 f    CIL library: CIL module
 0001:00009eb9       ??__E?s_modreg@RModuleReg@std@media@modules@UModSys@@2U12345@A@@YAXXZ 0040aeb9 f    CIL library: CIL module
 0001:00009ee0       ??__E?s_modreg_chain@RModuleReg@std@media@modules@UModSys@@2USModuleRegChain@base@5@A@@YAXXZ 0040aee0 f    CIL library: CIL module
 0001:00009efb       ??__E?s_uid@RGenerator@std@media@modules@UModSys@@2USUniquePointer@core@5@A@@YAXXZ 0040aefb f    CIL library: CIL module
 0001:00009f1d       ??__E?s_id@?$TObjectUniqueID@UIStreamReader@libmedia@UModSys@@@tl@UModSys@@2USUniquePointer@core@3@A@@YAXXZ 0040af1d f    CIL library: CIL module
 0001:00009f3f       ??__E?s_id@?$TObjectUniqueID@UIStreamWriter@libmedia@UModSys@@@tl@UModSys@@2USUniquePointer@core@3@A@@YAXXZ 0040af3f f    CIL library: CIL module
 0001:00009f61       ??__E?s_id@?$TObjectUniqueID@UIBinArchive@libmedia@UModSys@@@tl@UModSys@@2USUniquePointer@core@3@A@@YAXXZ 0040af61 f    CIL library: CIL module
 0001:00009f83       ??__E?s_id@?$TObjectUniqueID@UIBinObjFilter@libmedia@UModSys@@@tl@UModSys@@2USUniquePointer@core@3@A@@YAXXZ 0040af83 f    CIL library: CIL module
 0001:00009fa5       ??__E?s_id@?$TObjectUniqueID@UILibrary@libmedia@UModSys@@@tl@UModSys@@2USUniquePointer@core@3@A@@YAXXZ 0040afa5 f    CIL library: CIL module
 0001:00009fc7       ??__E?s_id@?$TObjectUniqueID@UILibraryBinTree@libmedia@UModSys@@@tl@UModSys@@2USUniquePointer@core@3@A@@YAXXZ 0040afc7 f    CIL library: CIL module
 0001:00009fe9       ??__E?s_id@?$TObjectUniqueID@UILibraryBinCache@libmedia@UModSys@@@tl@UModSys@@2USUniquePointer@core@3@A@@YAXXZ 0040afe9 f    CIL library: CIL module
 0001:0000a00b       ??__E?s_id@?$TObjectUniqueID@UILibraryObjFilter@libmedia@UModSys@@@tl@UModSys@@2USUniquePointer@core@3@A@@YAXXZ 0040b00b f    CIL library: CIL module
 0001:0000a02d       ??__E?s_id@?$TObjectUniqueID@UILibraryObjCache@libmedia@UModSys@@@tl@UModSys@@2USUniquePointer@core@3@A@@YAXXZ 0040b02d f    CIL library: CIL module
 0001:0000a04f       ??__E?s_id@?$TObjectUniqueID@UILibraryLayered@libmedia@UModSys@@@tl@UModSys@@2USUniquePointer@core@3@A@@YAXXZ 0040b04f f    CIL library: CIL module
 0001:0000a071       ??__E?s_id@?$TObjectUniqueID@URLibraryBinCache@std@media@modules@UModSys@@@tl@UModSys@@2USUniquePointer@core@3@A@@YAXXZ 0040b071 f    CIL library: CIL module
 0001:0000a093       ??__E?s_id@?$TObjectUniqueID@URLibraryBinTree@std@media@modules@UModSys@@@tl@UModSys@@2USUniquePointer@core@3@A@@YAXXZ 0040b093 f    CIL library: CIL module
 0001:0000a0b5       ??__E?s_id@?$TObjectUniqueID@URLibraryLayered@std@media@modules@UModSys@@@tl@UModSys@@2USUniquePointer@core@3@A@@YAXXZ 0040b0b5 f    CIL library: CIL module
 0001:0000a0d7       ??__E?s_id@?$TObjectUniqueID@URLibraryObjCache@std@media@modules@UModSys@@@tl@UModSys@@2USUniquePointer@core@3@A@@YAXXZ 0040b0d7 f    CIL library: CIL module
 0001:0000a0f9       ??__E?s_id@?$TObjectUniqueID@URLibraryObjFilter@std@media@modules@UModSys@@@tl@UModSys@@2USUniquePointer@core@3@A@@YAXXZ 0040b0f9 f    CIL library: CIL module
 0001:0000a11b       ??__E?s_id@?$TObjectUniqueID@URGenerator@std@media@modules@UModSys@@@tl@UModSys@@2USUniquePointer@core@3@A@@YAXXZ 0040b11b f    CIL library: CIL module
 0001:0000a13d       ??__E?s_modreg@RModuleReg@stdio@media@modules@UModSys@@2U12345@A@@YAXXZ 0040b13d f    CIL library: CIL module
 0001:0000a164       ??__E?s_modreg_chain@RModuleReg@stdio@media@modules@UModSys@@2USModuleRegChain@base@5@A@@YAXXZ 0040b164 f    CIL library: CIL module
 0001:0000a17f       ??__E?s_uid@RGenerator@stdio@media@modules@UModSys@@2USUniquePointer@core@5@A@@YAXXZ 0040b17f f    CIL library: CIL module
 0001:0000a1a1       ??__E?s_id@?$TObjectUniqueID@URStreamReader_FILE@stdio@media@modules@UModSys@@@tl@UModSys@@2USUniquePointer@core@3@A@@YAXXZ 0040b1a1 f    CIL library: CIL module
 0001:0000a1c3       ??__E?s_id@?$TObjectUniqueID@URStreamWriter_FILE@stdio@media@modules@UModSys@@@tl@UModSys@@2USUniquePointer@core@3@A@@YAXXZ 0040b1c3 f    CIL library: CIL module
 0001:0000a1e5       ??__E?s_id@?$TObjectUniqueID@URDataArchiver_OsDir@stdio@media@modules@UModSys@@@tl@UModSys@@2USUniquePointer@core@3@A@@YAXXZ 0040b1e5 f    CIL library: CIL module
 0001:0000a207       ??__E?s_id@?$TObjectUniqueID@URGenerator@stdio@media@modules@UModSys@@@tl@UModSys@@2USUniquePointer@core@3@A@@YAXXZ 0040b207 f    CIL library: CIL module
 0001:0000a229       ??__E?s_console@RConsole_std@rsystem@base@UModSys@@2U1234@A@@YAXXZ 0040b229 f    CIL library: CIL module
 0001:0000a235       ??__E?s_sys@RSystem@rsystem@base@UModSys@@2U1234@A@@YAXXZ 0040b235 f    CIL library: CIL module
 0001:0000a246       ??__Ersys_dbg@rsystem@base@UModSys@@YAXXZ 0040b246 f    CIL library: CIL module
 0001:0000a252       ??__EM@UModSys@@YAXXZ      0040b252 f    CIL library: CIL module
 0001:0000a25e       ??__E?root@SModuleRegChain@base@UModSys@@2U123@A@@YAXXZ 0040b25e f    CIL library: CIL module
 0001:0000a26a       ??__E?s_library@RModuleLibraryReg_Chain@base@UModSys@@2U123@A@@YAXXZ 0040b26a f    CIL library: CIL module
 0001:0000a276       ??__E?root@SUniquePointer@core@UModSys@@2U123@A@@YAXXZ 0040b276 f    CIL library: CIL module
 0001:0000a282       ??__F?s_id@?$TObjectUniqueID@URConsole_std@rsystem@base@UModSys@@@tl@UModSys@@2USUniquePointer@core@3@A@@YAXXZ 0040b282 f    CIL library: CIL module
 0001:0000a28c       ??__F?s_id@?$TObjectUniqueID@URSystem@rsystem@base@UModSys@@@tl@UModSys@@2USUniquePointer@core@3@A@@YAXXZ 0040b28c f    CIL library: CIL module
 0001:0000a296       ??__F?s_id@?$TObjectUniqueID@URParameters@rsystem@base@UModSys@@@tl@UModSys@@2USUniquePointer@core@3@A@@YAXXZ 0040b296 f    CIL library: CIL module
 0001:0000a2a0       ??__F?s_id@?$TObjectUniqueID@URModuleLibraryThis@rsystem@base@UModSys@@@tl@UModSys@@2USUniquePointer@core@3@A@@YAXXZ 0040b2a0 f    CIL library: CIL module
 0001:0000a2aa       ??__F?s_id@?$TObjectUniqueID@URModuleLibrarySO@rsystem@base@UModSys@@@tl@UModSys@@2USUniquePointer@core@3@A@@YAXXZ 0040b2aa f    CIL library: CIL module
 0001:0000a2b4       ??__F?s_id@?$TObjectUniqueID@UIModuleLibraryUni@rsystem@base@UModSys@@@tl@UModSys@@2USUniquePointer@core@3@A@@YAXXZ 0040b2b4 f    CIL library: CIL module
 0001:0000a2be       ??__F?s_id@?$TObjectUniqueID@URModule@rsystem@base@UModSys@@@tl@UModSys@@2USUniquePointer@core@3@A@@YAXXZ 0040b2be f    CIL library: CIL module
 0001:0000a2c8       ??__F?s_id@?$TObjectUniqueID@UISystem@base@UModSys@@@tl@UModSys@@2USUniquePointer@core@3@A@@YAXXZ 0040b2c8 f    CIL library: CIL module
 0001:0000a2d2       ??__F?s_id@?$TObjectUniqueID@UIConsole@base@UModSys@@@tl@UModSys@@2USUniquePointer@core@3@A@@YAXXZ 0040b2d2 f    CIL library: CIL module
 0001:0000a2dc       ??__F?s_id@?$TObjectUniqueID@UIShell@base@UModSys@@@tl@UModSys@@2USUniquePointer@core@3@A@@YAXXZ 0040b2dc f    CIL library: CIL module
 0001:0000a2e6       ??__F?s_id@?$TObjectUniqueID@UIGenerator@base@UModSys@@@tl@UModSys@@2USUniquePointer@core@3@A@@YAXXZ 0040b2e6 f    CIL library: CIL module
 0001:0000a2f0       ??__F?s_id@?$TObjectUniqueID@UIModObject@base@UModSys@@@tl@UModSys@@2USUniquePointer@core@3@A@@YAXXZ 0040b2f0 f    CIL library: CIL module
 0001:0000a2fa       ??__F?s_id@?$TObjectUniqueID@UIModuleLibrary@base@UModSys@@@tl@UModSys@@2USUniquePointer@core@3@A@@YAXXZ 0040b2fa f    CIL library: CIL module
 0001:0000a304       ??__F?s_id@?$TObjectUniqueID@UIModule@base@UModSys@@@tl@UModSys@@2USUniquePointer@core@3@A@@YAXXZ 0040b304 f    CIL library: CIL module
 0001:0000a30e       ??__F?s_id@?$TObjectUniqueID@UIParameters@core@UModSys@@@tl@UModSys@@2USUniquePointer@core@3@A@@YAXXZ 0040b30e f    CIL library: CIL module
 0001:0000a318       ??__F?s_id@?$TObjectUniqueID@UIRefObject@core@UModSys@@@tl@UModSys@@2USUniquePointer@core@3@A@@YAXXZ 0040b318 f    CIL library: CIL module
 0001:0000a322       ??__F?s_id@?$TObjectUniqueID@UIRoot@core@UModSys@@@tl@UModSys@@2USUniquePointer@core@3@A@@YAXXZ 0040b322 f    CIL library: CIL module
 0001:0000a32c       ??__F?s_modreg@RModuleReg@std@media@modules@UModSys@@2U12345@A@@YAXXZ 0040b32c f    CIL library: CIL module
 0001:0000a337       ??__F?s_modreg_chain@RModuleReg@std@media@modules@UModSys@@2USModuleRegChain@base@5@A@@YAXXZ 0040b337 f    CIL library: CIL module
 0001:0000a341       ??__F?s_uid@RGenerator@std@media@modules@UModSys@@2USUniquePointer@core@5@A@@YAXXZ 0040b341 f    CIL library: CIL module
 0001:0000a34b       ??__Fh@?1??s_holder@RGenerator@std@media@modules@UModSys@@SAAAU?$TTypeStaticHolder@URGenerator@std@media@modules@UModSys@@@tl@5@XZ@YAXXZ 0040b34b f    CIL library: CIL module
 0001:0000a368       ??__F?s_id@?$TObjectUniqueID@URGenerator@std@media@modules@UModSys@@@tl@UModSys@@2USUniquePointer@core@3@A@@YAXXZ 0040b368 f    CIL library: CIL module
 0001:0000a372       ??__F?s_id@?$TObjectUniqueID@URLibraryObjFilter@std@media@modules@UModSys@@@tl@UModSys@@2USUniquePointer@core@3@A@@YAXXZ 0040b372 f    CIL library: CIL module
 0001:0000a37c       ??__F?s_id@?$TObjectUniqueID@URLibraryObjCache@std@media@modules@UModSys@@@tl@UModSys@@2USUniquePointer@core@3@A@@YAXXZ 0040b37c f    CIL library: CIL module
 0001:0000a386       ??__F?s_id@?$TObjectUniqueID@URLibraryLayered@std@media@modules@UModSys@@@tl@UModSys@@2USUniquePointer@core@3@A@@YAXXZ 0040b386 f    CIL library: CIL module
 0001:0000a390       ??__F?s_id@?$TObjectUniqueID@URLibraryBinTree@std@media@modules@UModSys@@@tl@UModSys@@2USUniquePointer@core@3@A@@YAXXZ 0040b390 f    CIL library: CIL module
 0001:0000a39a       ??__F?s_id@?$TObjectUniqueID@URLibraryBinCache@std@media@modules@UModSys@@@tl@UModSys@@2USUniquePointer@core@3@A@@YAXXZ 0040b39a f    CIL library: CIL module
 0001:0000a3a4       ??__F?s_id@?$TObjectUniqueID@UILibraryLayered@libmedia@UModSys@@@tl@UModSys@@2USUniquePointer@core@3@A@@YAXXZ 0040b3a4 f    CIL library: CIL module
 0001:0000a3ae       ??__F?s_id@?$TObjectUniqueID@UILibraryObjCache@libmedia@UModSys@@@tl@UModSys@@2USUniquePointer@core@3@A@@YAXXZ 0040b3ae f    CIL library: CIL module
 0001:0000a3b8       ??__F?s_id@?$TObjectUniqueID@UILibraryObjFilter@libmedia@UModSys@@@tl@UModSys@@2USUniquePointer@core@3@A@@YAXXZ 0040b3b8 f    CIL library: CIL module
 0001:0000a3c2       ??__F?s_id@?$TObjectUniqueID@UILibraryBinCache@libmedia@UModSys@@@tl@UModSys@@2USUniquePointer@core@3@A@@YAXXZ 0040b3c2 f    CIL library: CIL module
 0001:0000a3cc       ??__F?s_id@?$TObjectUniqueID@UILibraryBinTree@libmedia@UModSys@@@tl@UModSys@@2USUniquePointer@core@3@A@@YAXXZ 0040b3cc f    CIL library: CIL module
 0001:0000a3d6       ??__F?s_id@?$TObjectUniqueID@UILibrary@libmedia@UModSys@@@tl@UModSys@@2USUniquePointer@core@3@A@@YAXXZ 0040b3d6 f    CIL library: CIL module
 0001:0000a3e0       ??__F?s_id@?$TObjectUniqueID@UIBinObjFilter@libmedia@UModSys@@@tl@UModSys@@2USUniquePointer@core@3@A@@YAXXZ 0040b3e0 f    CIL library: CIL module
 0001:0000a3ea       ??__F?s_id@?$TObjectUniqueID@UIBinArchive@libmedia@UModSys@@@tl@UModSys@@2USUniquePointer@core@3@A@@YAXXZ 0040b3ea f    CIL library: CIL module
 0001:0000a3f4       ??__F?s_id@?$TObjectUniqueID@UIStreamWriter@libmedia@UModSys@@@tl@UModSys@@2USUniquePointer@core@3@A@@YAXXZ 0040b3f4 f    CIL library: CIL module
 0001:0000a3fe       ??__F?s_id@?$TObjectUniqueID@UIStreamReader@libmedia@UModSys@@@tl@UModSys@@2USUniquePointer@core@3@A@@YAXXZ 0040b3fe f    CIL library: CIL module
 0001:0000a408       ??__F?s_modreg@RModuleReg@stdio@media@modules@UModSys@@2U12345@A@@YAXXZ 0040b408 f    CIL library: CIL module
 0001:0000a413       ??__F?s_modreg_chain@RModuleReg@stdio@media@modules@UModSys@@2USModuleRegChain@base@5@A@@YAXXZ 0040b413 f    CIL library: CIL module
 0001:0000a41d       ??__F?s_uid@RGenerator@stdio@media@modules@UModSys@@2USUniquePointer@core@5@A@@YAXXZ 0040b41d f    CIL library: CIL module
 0001:0000a427       ??__Fh@?1??s_holder@RGenerator@stdio@media@modules@UModSys@@SAAAU?$TTypeStaticHolder@URGenerator@stdio@media@modules@UModSys@@@tl@5@XZ@YAXXZ 0040b427 f    CIL library: CIL module
 0001:0000a444       ??__F?s_id@?$TObjectUniqueID@URGenerator@stdio@media@modules@UModSys@@@tl@UModSys@@2USUniquePointer@core@3@A@@YAXXZ 0040b444 f    CIL library: CIL module
 0001:0000a44e       ??__F?s_id@?$TObjectUniqueID@URDataArchiver_OsDir@stdio@media@modules@UModSys@@@tl@UModSys@@2USUniquePointer@core@3@A@@YAXXZ 0040b44e f    CIL library: CIL module
 0001:0000a458       ??__F?s_id@?$TObjectUniqueID@URStreamWriter_FILE@stdio@media@modules@UModSys@@@tl@UModSys@@2USUniquePointer@core@3@A@@YAXXZ 0040b458 f    CIL library: CIL module
 0001:0000a462       ??__F?s_id@?$TObjectUniqueID@URStreamReader_FILE@stdio@media@modules@UModSys@@@tl@UModSys@@2USUniquePointer@core@3@A@@YAXXZ 0040b462 f    CIL library: CIL module
 0001:0000a46c       ??__F?s_console@RConsole_std@rsystem@base@UModSys@@2U1234@A@@YAXXZ 0040b46c f    CIL library: CIL module
 0001:0000a499       ??__F?s_sys@RSystem@rsystem@base@UModSys@@2U1234@A@@YAXXZ 0040b499 f    CIL library: CIL module
 0001:0000a4a4       ??__Frsys_dbg@rsystem@base@UModSys@@YAXXZ 0040b4a4 f    CIL library: CIL module
 0001:0000a4bb       ??__FM@UModSys@@YAXXZ      0040b4bb f    CIL library: CIL module
 0001:0000a4bc       ??__F?root@SModuleRegChain@base@UModSys@@2U123@A@@YAXXZ 0040b4bc f    CIL library: CIL module
 0001:0000a4c6       ??__F?s_library@RModuleLibraryReg_Chain@base@UModSys@@2U123@A@@YAXXZ 0040b4c6 f    CIL library: CIL module
 0001:0000a4d1       ??__F?root@SUniquePointer@core@UModSys@@2U123@A@@YAXXZ 0040b4d1 f    CIL library: CIL module

 Exports

  ordinal    name

        1    _UModSys_Plugin_Entry2@0
