 umodsysc

 Timestamp is 53343f98 (Thu Mar 27 18:11:20 2014)

 Preferred load address is 00400000

 Start         Length     Name                   Class
 0001:00000000 0000dcc0H .text                   CODE
 0001:0000dcc0 00000508H .text$x                 CODE
 0001:0000e1c8 0000070eH .text$yc                CODE
 0001:0000e8d6 000002c3H .text$yd                CODE
 0002:00000000 0000015cH .idata$5                DATA
 0002:0000015c 00000004H .CRT$XCA                DATA
 0002:00000160 00000004H .CRT$XCAA               DATA
 0002:00000164 00000378H .CRT$XCU                DATA
 0002:000004dc 00000004H .CRT$XCZ                DATA
 0002:000004e0 00000004H .CRT$XIA                DATA
 0002:000004e4 00000004H .CRT$XIAA               DATA
 0002:000004e8 00000004H .CRT$XIY                DATA
 0002:000004ec 00000004H .CRT$XIZ                DATA
 0002:000004f0 00001a70H .rdata                  DATA
 0002:00001f60 00001324H .rdata$r                DATA
 0002:00003290 000000b8H .rdata$sxdata           DATA
 0002:00003348 00000004H .rtc$IAA                DATA
 0002:0000334c 00000004H .rtc$IZZ                DATA
 0002:00003350 00000004H .rtc$TAA                DATA
 0002:00003354 00000004H .rtc$TZZ                DATA
 0002:00003358 00000a44H .xdata$x                DATA
 0002:00003d9c 00000028H .idata$2                DATA
 0002:00003dc4 00000014H .idata$3                DATA
 0002:00003dd8 0000015cH .idata$4                DATA
 0002:00003f34 00000580H .idata$6                DATA
 0002:000044c0 00000058H .edata                  DATA
 0003:00000000 00000d60H .data                   DATA
 0003:00000d60 00002a00H .bss                    DATA

  Address         Publics by Value              Rva+Base       Lib:Object

 0000:00000000       __except_list              00000000     <absolute>
 0000:0000002e       ___safe_se_handler_count   0000002e     <absolute>
 0000:00009876       __ldused                   00009876     <absolute>
 0000:00009876       __fltused                  00009876     <absolute>
 0000:00000000       ___ImageBase               00400000     <linker-defined>
 0001:00000000       ??$slen@D@su@tl@UModSys@@YAIPBD@Z 00401000 f i umodsys.c_main.obj
 0001:00000019       _main                      00401019 f   umodsys.c_main.obj
 0001:000001c7       ??0?$TString@U?$TSCoreConst@D@su@tl@UModSys@@U?$TComparerBinaryHash@D@234@@tl@UModSys@@QAE@PBD@Z 004011c7 f i umodsys.c_main.obj
 0001:000001ec       ?update@?$TComparerBinaryHash@D@su@tl@UModSys@@QAEXPBDI@Z 004011ec f i umodsys.c_main.obj
 0001:00000223       ?link@SCMemShared@core@UModSys@@QAE_NPAUSMemorySharedData@23@PAUSSourceContext@23@@Z 00401223 f i umodsys_lib_libmedia:umodsys.mod.media.stdio.obj
 0001:00000223       ?link@SMemShared@core@UModSys@@QAE_NPAUSMemorySharedData@23@PAUSSourceContext@23@@Z 00401223 f i umodsys_lib_libmedia:umodsys.mod.media.stdio.obj
 0001:00000248       ??6SUniquePtrList@core@UModSys@@QAEAAU012@PBUSUniquePointerInfo@12@@Z 00401248 f i umodsys_lib_libmedia:umodsys.mod.media.stdio.obj
 0001:00000264       ??2IRoot@core@UModSys@@SAPAXIABUSIMemAlloc@12@@Z 00401264 f i umodsys_lib_libmedia:umodsys.mod.media.stdio.obj
 0001:00000286       ??3IRoot@core@UModSys@@SAXPAXABUSIMemAlloc@12@@Z 00401286 f i umodsys_lib_libmedia:umodsys.mod.media.stdio.obj
 0001:0000029f       ?_root_get_other_interface@IRefObject@core@UModSys@@IAEPAUIRoot@23@PBUSUniquePointerInfo@23@@Z 0040129f f i umodsys_lib_libmedia:umodsys.mod.media.stdio.obj
 0001:0000029f       ?_root_get_other_interface@IRefObject@core@UModSys@@IBEPBUIRoot@23@PBUSUniquePointerInfo@23@@Z 0040129f f i umodsys_lib_libmedia:umodsys.mod.media.stdio.obj
 0001:000002c0       ?_root_get_interface_types@IRefObject@core@UModSys@@SAIAAUSUniquePtrList@23@@Z 004012c0 f i umodsys_lib_libmedia:umodsys.mod.media.stdio.obj
 0001:000002e0       ?_root_is_interface_supported@IRefObject@core@UModSys@@SA_NPBUSUniquePointerInfo@23@@Z 004012e0 f i umodsys_lib_libmedia:umodsys.mod.media.stdio.obj
 0001:000002f7       ?get@SParameters@core@UModSys@@QBE_NPBDAA_N@Z 004012f7 f i umodsys_lib_libmedia:umodsys.mod.media.stdio.obj
 0001:00000329       ?_root_is_interface_supported@IGenerator@base@UModSys@@SA_NPBUSUniquePointerInfo@core@3@@Z 00401329 f i umodsys_lib_libmedia:umodsys.mod.media.stdio.obj
 0001:00000349       ?_root_get_interface_types@IBinArchive@libmedia@UModSys@@SAIAAUSUniquePtrList@core@3@@Z 00401349 f i umodsys_lib_libmedia:umodsys.mod.media.stdio.obj
 0001:0000036b       ?_root_is_interface_supported@IBinArchive@libmedia@UModSys@@SA_NPBUSUniquePointerInfo@core@3@@Z 0040136b f i umodsys_lib_libmedia:umodsys.mod.media.stdio.obj
 0001:0000038b       ?archive_load_data@libmedia@UModSys@@YA_NAAUIBinArchive@12@ABU?$TString@U?$TSCoreConst@D@su@tl@UModSys@@U?$TComparerBinaryHash@D@234@@tl@2@AAUSCMemShared@core@2@ABUSFlags@12@@Z 0040138b f i umodsys_lib_libmedia:umodsys.mod.media.stdio.obj
 0001:000004b6       ?file_get_size@stdio@media@modules@UModSys@@YA_JPAU_iobuf@@@Z 004014b6 f i umodsys_lib_libmedia:umodsys.mod.media.stdio.obj
 0001:00000501       ?root_get_interface_info@RStreamReader_FILE@stdio@media@modules@UModSys@@UBEABUSUniquePointerInfo@core@5@XZ 00401501 f i umodsys_lib_libmedia:umodsys.mod.media.stdio.obj
 0001:00000507       ?root_get_interface_type@RStreamReader_FILE@stdio@media@modules@UModSys@@UBEPBUSUniquePointerInfo@core@5@XZ 00401507 f i umodsys_lib_libmedia:umodsys.mod.media.stdio.obj
 0001:0000050d       ?root_get_other_interface@RStreamReader_FILE@stdio@media@modules@UModSys@@UAEPAUIRoot@core@5@PBUSUniquePointerInfo@75@@Z 0040150d f i umodsys_lib_libmedia:umodsys.mod.media.stdio.obj
 0001:0000050d       ?root_get_other_interface@RStreamReader_FILE@stdio@media@modules@UModSys@@UBEPBUIRoot@core@5@PBUSUniquePointerInfo@75@@Z 0040150d f i umodsys_lib_libmedia:umodsys.mod.media.stdio.obj
 0001:0000052e       ?root_is_interface_supported@RStreamReader_FILE@stdio@media@modules@UModSys@@UBE_NPBUSUniquePointerInfo@core@5@@Z 0040152e f i umodsys_lib_libmedia:umodsys.mod.media.stdio.obj
 0001:00000555       ?ref_weak@RStreamWriter_FILE@stdio@media@modules@UModSys@@UBE_NAAUWeakPointer@IRefObject@core@5@@Z 00401555 f i umodsys_lib_libmedia:umodsys.mod.media.stdio.obj
 0001:00000555       ?ref_weak@RUtilities@stdlib@media@modules@UModSys@@UBE_NAAUWeakPointer@IRefObject@core@5@@Z 00401555 f i umodsys_lib_libmedia:umodsys.mod.media.stdlib.obj
 0001:00000555       ?ref_weak@RGenerator@stdio@media@modules@UModSys@@UBE_NAAUWeakPointer@IRefObject@core@5@@Z 00401555 f i umodsys_lib_libmedia:umodsys.mod.media.stdio.obj
 0001:00000555       ?ref_weak@RStreamReader_FILE@stdio@media@modules@UModSys@@UBE_NAAUWeakPointer@IRefObject@core@5@@Z 00401555 f i umodsys_lib_libmedia:umodsys.mod.media.stdio.obj
 0001:00000555       ?ref_weak@RGenerator@stdlib@media@modules@UModSys@@UBE_NAAUWeakPointer@IRefObject@core@5@@Z 00401555 f i umodsys_lib_libmedia:umodsys.mod.media.stdlib.obj
 0001:00000574       ?suicide@RStreamReader_FILE@stdio@media@modules@UModSys@@UAEXXZ 00401574 f i umodsys_lib_libmedia:umodsys.mod.media.stdio.obj
 0001:00000574       ?suicide@RUtilities@stdlib@media@modules@UModSys@@UAEXXZ 00401574 f i umodsys_lib_libmedia:umodsys.mod.media.stdlib.obj
 0001:00000574       ?suicide@RStreamWriter_FILE@stdio@media@modules@UModSys@@UAEXXZ 00401574 f i umodsys_lib_libmedia:umodsys.mod.media.stdio.obj
 0001:000005b1       ??0RStreamReader_FILE@stdio@media@modules@UModSys@@QAE@PAUIModObject@base@4@ABUSParameters@core@4@@Z 004015b1 f i umodsys_lib_libmedia:umodsys.mod.media.stdio.obj
 0001:0000062c       ??0RStreamReader_FILE@stdio@media@modules@UModSys@@QAE@PAUIModObject@base@4@PBD@Z 0040162c f i umodsys_lib_libmedia:umodsys.mod.media.stdio.obj
 0001:00000683       ?open@RStreamReader_FILE@stdio@media@modules@UModSys@@QAEXPBD@Z 00401683 f i umodsys_lib_libmedia:umodsys.mod.media.stdio.obj
 0001:000006a7       ?reader_seek@RStreamReader_FILE@stdio@media@modules@UModSys@@UAE_N_J@Z 004016a7 f i umodsys_lib_libmedia:umodsys.mod.media.stdio.obj
 0001:000006ca       ?reader_seekend@RStreamReader_FILE@stdio@media@modules@UModSys@@UAE_N_J@Z 004016ca f i umodsys_lib_libmedia:umodsys.mod.media.stdio.obj
 0001:000006f0       ?reader_seekdelta@RStreamReader_FILE@stdio@media@modules@UModSys@@UAE_N_J@Z 004016f0 f i umodsys_lib_libmedia:umodsys.mod.media.stdio.obj
 0001:00000713       ?reader_pos@RStreamReader_FILE@stdio@media@modules@UModSys@@UAE_JXZ 00401713 f i umodsys_lib_libmedia:umodsys.mod.media.stdio.obj
 0001:00000728       ?reader_size@RStreamReader_FILE@stdio@media@modules@UModSys@@UAE_JXZ 00401728 f i umodsys_lib_libmedia:umodsys.mod.media.stdio.obj
 0001:0000072f       ?reader_read@RStreamReader_FILE@stdio@media@modules@UModSys@@UAE_NPAXI@Z 0040172f f i umodsys_lib_libmedia:umodsys.mod.media.stdio.obj
 0001:0000078c       ?reader_close@RStreamReader_FILE@stdio@media@modules@UModSys@@UAEXXZ 0040178c f i umodsys_lib_libmedia:umodsys.mod.media.stdio.obj
 0001:000007a4       ??_ERStreamReader_FILE@stdio@media@modules@UModSys@@UAEPAXI@Z 004017a4 f i  CIL library: CIL module
 0001:000007a4       ??_GRStreamReader_FILE@stdio@media@modules@UModSys@@UAEPAXI@Z 004017a4 f i umodsys_lib_libmedia:umodsys.mod.media.stdio.obj
 0001:000007cc       ?root_get_interface_info@RStreamWriter_FILE@stdio@media@modules@UModSys@@UBEABUSUniquePointerInfo@core@5@XZ 004017cc f i umodsys_lib_libmedia:umodsys.mod.media.stdio.obj
 0001:000007d2       ?root_get_interface_type@RStreamWriter_FILE@stdio@media@modules@UModSys@@UBEPBUSUniquePointerInfo@core@5@XZ 004017d2 f i umodsys_lib_libmedia:umodsys.mod.media.stdio.obj
 0001:000007d8       ?root_get_other_interface@RStreamWriter_FILE@stdio@media@modules@UModSys@@UAEPAUIRoot@core@5@PBUSUniquePointerInfo@75@@Z 004017d8 f i umodsys_lib_libmedia:umodsys.mod.media.stdio.obj
 0001:000007d8       ?root_get_other_interface@RStreamWriter_FILE@stdio@media@modules@UModSys@@UBEPBUIRoot@core@5@PBUSUniquePointerInfo@75@@Z 004017d8 f i umodsys_lib_libmedia:umodsys.mod.media.stdio.obj
 0001:000007f9       ?root_is_interface_supported@RStreamWriter_FILE@stdio@media@modules@UModSys@@UBE_NPBUSUniquePointerInfo@core@5@@Z 004017f9 f i umodsys_lib_libmedia:umodsys.mod.media.stdio.obj
 0001:00000820       ?ref_add@RStreamWriter_FILE@stdio@media@modules@UModSys@@UBEXXZ 00401820 f i umodsys_lib_libmedia:umodsys.mod.media.stdio.obj
 0001:00000820       ?ref_add@RGenerator@stdio@media@modules@UModSys@@UBEXXZ 00401820 f i umodsys_lib_libmedia:umodsys.mod.media.stdio.obj
 0001:00000820       ?ref_add@RGenerator@stdlib@media@modules@UModSys@@UBEXXZ 00401820 f i umodsys_lib_libmedia:umodsys.mod.media.stdlib.obj
 0001:00000820       ?ref_add@RStreamReader_FILE@stdio@media@modules@UModSys@@UBEXXZ 00401820 f i umodsys_lib_libmedia:umodsys.mod.media.stdio.obj
 0001:00000820       ?ref_add@RUtilities@stdlib@media@modules@UModSys@@UBEXXZ 00401820 f i umodsys_lib_libmedia:umodsys.mod.media.stdlib.obj
 0001:00000824       ??0RStreamWriter_FILE@stdio@media@modules@UModSys@@QAE@PAUIModObject@base@4@ABUSParameters@core@4@@Z 00401824 f i umodsys_lib_libmedia:umodsys.mod.media.stdio.obj
 0001:000008bd       ??0RStreamWriter_FILE@stdio@media@modules@UModSys@@QAE@PAUIModObject@base@4@PBD_N@Z 004018bd f i umodsys_lib_libmedia:umodsys.mod.media.stdio.obj
 0001:0000091e       ?open@RStreamWriter_FILE@stdio@media@modules@UModSys@@QAEXPBD_N@Z 0040191e f i umodsys_lib_libmedia:umodsys.mod.media.stdio.obj
 0001:00000964       ?writer_seek@RStreamWriter_FILE@stdio@media@modules@UModSys@@UAE_N_J@Z 00401964 f i umodsys_lib_libmedia:umodsys.mod.media.stdio.obj
 0001:00000987       ?writer_seekend@RStreamWriter_FILE@stdio@media@modules@UModSys@@UAE_N_J@Z 00401987 f i umodsys_lib_libmedia:umodsys.mod.media.stdio.obj
 0001:000009ad       ?writer_seekdelta@RStreamWriter_FILE@stdio@media@modules@UModSys@@UAE_N_J@Z 004019ad f i umodsys_lib_libmedia:umodsys.mod.media.stdio.obj
 0001:000009d0       ?writer_setsize@RStreamWriter_FILE@stdio@media@modules@UModSys@@UAE_N_J@Z 004019d0 f i umodsys_lib_libmedia:umodsys.mod.media.stdio.obj
 0001:00000a18       ?writer_pos@RStreamWriter_FILE@stdio@media@modules@UModSys@@UAE_JXZ 00401a18 f i umodsys_lib_libmedia:umodsys.mod.media.stdio.obj
 0001:00000a2d       ?writer_size@RStreamWriter_FILE@stdio@media@modules@UModSys@@UAE_JXZ 00401a2d f i umodsys_lib_libmedia:umodsys.mod.media.stdio.obj
 0001:00000a52       ?writer_write@RStreamWriter_FILE@stdio@media@modules@UModSys@@UAE_NPBXI@Z 00401a52 f i umodsys_lib_libmedia:umodsys.mod.media.stdio.obj
 0001:00000aaf       ?writer_copy@RStreamWriter_FILE@stdio@media@modules@UModSys@@UAE_NPAUIStreamReader@libmedia@5@_J@Z 00401aaf f i umodsys_lib_libmedia:umodsys.mod.media.stdio.obj
 0001:00000b33       ?writer_copy@RStreamWriter_FILE@stdio@media@modules@UModSys@@UAE_NPAUIStreamReader@libmedia@5@_J1@Z 00401b33 f i umodsys_lib_libmedia:umodsys.mod.media.stdio.obj
 0001:00000b6a       ?writer_close@RStreamWriter_FILE@stdio@media@modules@UModSys@@UAEXXZ 00401b6a f i umodsys_lib_libmedia:umodsys.mod.media.stdio.obj
 0001:00000b97       ?writer_abort@RStreamWriter_FILE@stdio@media@modules@UModSys@@UAEXXZ 00401b97 f i umodsys_lib_libmedia:umodsys.mod.media.stdio.obj
 0001:00000bc4       ??_ERStreamWriter_FILE@stdio@media@modules@UModSys@@UAEPAXI@Z 00401bc4 f i  CIL library: CIL module
 0001:00000bc4       ??_GRStreamWriter_FILE@stdio@media@modules@UModSys@@UAEPAXI@Z 00401bc4 f i umodsys_lib_libmedia:umodsys.mod.media.stdio.obj
 0001:00000c08       ?root_get_interface_info@RDataArchiver_OsDir@stdio@media@modules@UModSys@@UBEABUSUniquePointerInfo@core@5@XZ 00401c08 f i umodsys_lib_libmedia:umodsys.mod.media.stdio.obj
 0001:00000c0e       ?root_get_interface_type@RDataArchiver_OsDir@stdio@media@modules@UModSys@@UBEPBUSUniquePointerInfo@core@5@XZ 00401c0e f i umodsys_lib_libmedia:umodsys.mod.media.stdio.obj
 0001:00000c14       ?root_get_other_interface@RDataArchiver_OsDir@stdio@media@modules@UModSys@@UAEPAUIRoot@core@5@PBUSUniquePointerInfo@75@@Z 00401c14 f i umodsys_lib_libmedia:umodsys.mod.media.stdio.obj
 0001:00000c14       ?root_get_other_interface@RDataArchiver_OsDir@stdio@media@modules@UModSys@@UBEPBUIRoot@core@5@PBUSUniquePointerInfo@75@@Z 00401c14 f i umodsys_lib_libmedia:umodsys.mod.media.stdio.obj
 0001:00000c3d       ?root_is_interface_supported@RDataArchiver_OsDir@stdio@media@modules@UModSys@@UBE_NPBUSUniquePointerInfo@core@5@@Z 00401c3d f i umodsys_lib_libmedia:umodsys.mod.media.stdio.obj
 0001:00000c5c       ?ref_remove@RLibraryObjCache@stdlib@media@modules@UModSys@@UBEXXZ 00401c5c f i umodsys_lib_libmedia:umodsys.mod.media.stdlib.obj
 0001:00000c5c       ?ref_remove@RLibraryLayered@stdlib@media@modules@UModSys@@UBEXXZ 00401c5c f i umodsys_lib_libmedia:umodsys.mod.media.stdlib.obj
 0001:00000c5c       ?ref_remove@RParameters@rsystem@base@UModSys@@UBEXXZ 00401c5c f i umodsys_lib_basesys:umodsys.basesys.rparameters.obj
 0001:00000c5c       ?ref_remove@RLibraryObjFilter@stdlib@media@modules@UModSys@@UBEXXZ 00401c5c f i umodsys_lib_libmedia:umodsys.mod.media.stdlib.obj
 0001:00000c5c       ?ref_remove@RLibraryBinTree@stdlib@media@modules@UModSys@@UBEXXZ 00401c5c f i umodsys_lib_libmedia:umodsys.mod.media.stdlib.obj
 0001:00000c5c       ?ref_remove@RDataArchiver_OsDir@stdio@media@modules@UModSys@@UBEXXZ 00401c5c f i umodsys_lib_libmedia:umodsys.mod.media.stdio.obj
 0001:00000c5c       ?ref_remove@RLibraryBinCache@stdlib@media@modules@UModSys@@UBEXXZ 00401c5c f i umodsys_lib_libmedia:umodsys.mod.media.stdlib.obj
 0001:00000c67       ??0RDataArchiver_OsDir@stdio@media@modules@UModSys@@QAE@PAUIModObject@base@4@ABUSParameters@core@4@U?$TFlags4State@USMediaFlagUid@libmedia@UModSys@@I@tl@4@@Z 00401c67 f i umodsys_lib_libmedia:umodsys.mod.media.stdio.obj
 0001:00000cda       ?open@RDataArchiver_OsDir@stdio@media@modules@UModSys@@QAEXABUSParameters@core@5@@Z 00401cda f i umodsys_lib_libmedia:umodsys.mod.media.stdio.obj
 0001:00000db5       ?get_flag@RDataArchiver_OsDir@stdio@media@modules@UModSys@@UBE?AW4eStates@?$TFlags4State@USMediaFlagUid@libmedia@UModSys@@I@tl@5@H@Z 00401db5 f i umodsys_lib_libmedia:umodsys.mod.media.stdio.obj
 0001:00000dc8       ?get_flags_auto@RDataArchiver_OsDir@stdio@media@modules@UModSys@@UBE?AU?$TFlags4State@USMediaFlagUid@libmedia@UModSys@@I@tl@5@XZ 00401dc8 f i umodsys_lib_libmedia:umodsys.mod.media.stdio.obj
 0001:00000dd7       ?set_flag@RDataArchiver_OsDir@stdio@media@modules@UModSys@@UAE?AW4eStates@?$TFlags4State@USMediaFlagUid@libmedia@UModSys@@I@tl@5@HW46785@@Z 00401dd7 f i umodsys_lib_libmedia:umodsys.mod.media.stdio.obj
 0001:00000e04       ?data_load@RDataArchiver_OsDir@stdio@media@modules@UModSys@@UAE_NABU?$TString@U?$TSCoreConst@D@su@tl@UModSys@@U?$TComparerBinaryHash@D@234@@tl@5@AAUSCMemShared@core@5@ABUSFlags@libmedia@5@@Z 00401e04 f i umodsys_lib_libmedia:umodsys.mod.media.stdio.obj
 0001:00000e39       ?data_save@RDataArchiver_OsDir@stdio@media@modules@UModSys@@UAE_NABU?$TString@U?$TSCoreConst@D@su@tl@UModSys@@U?$TComparerBinaryHash@D@234@@tl@5@ABUSCMem@core@5@ABUSFlags@libmedia@5@@Z 00401e39 f i umodsys_lib_libmedia:umodsys.mod.media.stdio.obj
 0001:00000eaf       ?data_reader@RDataArchiver_OsDir@stdio@media@modules@UModSys@@UAE?AU?$TRefObject@UIStreamReader@libmedia@UModSys@@U?$TRefObjectFunc@UIStreamReader@libmedia@UModSys@@@tl@3@@tl@5@ABU?$TString@U?$TSCoreConst@D@su@tl@UModSys@@U?$TComparerBinaryHash@D@234@@75@ABUSFlags@libmedia@5@@Z 00401eaf f i umodsys_lib_libmedia:umodsys.mod.media.stdio.obj
 0001:00000fb6       ?data_writer@RDataArchiver_OsDir@stdio@media@modules@UModSys@@UAE?AU?$TRefObject@UIStreamWriter@libmedia@UModSys@@U?$TRefObjectFunc@UIStreamWriter@libmedia@UModSys@@@tl@3@@tl@5@ABU?$TString@U?$TSCoreConst@D@su@tl@UModSys@@U?$TComparerBinaryHash@D@234@@75@ABUSFlags@libmedia@5@@Z 00401fb6 f i umodsys_lib_libmedia:umodsys.mod.media.stdio.obj
 0001:000010d8       ?data_info@RDataArchiver_OsDir@stdio@media@modules@UModSys@@UAE_NABU?$TString@U?$TSCoreConst@D@su@tl@UModSys@@U?$TComparerBinaryHash@D@234@@tl@5@IAAUSFileInfo@libmedia@5@ABUSFlags@95@@Z 004020d8 f i umodsys_lib_libmedia:umodsys.mod.media.stdio.obj
 0001:000010d8       ?data_list@RDataArchiver_OsDir@stdio@media@modules@UModSys@@UAE_NABU?$TString@U?$TSCoreConst@D@su@tl@UModSys@@U?$TComparerBinaryHash@D@234@@tl@5@IAAU?$TIStackSocket@USFileInfo@libmedia@UModSys@@@75@ABUSFlags@libmedia@5@@Z 004020d8 f i umodsys_lib_libmedia:umodsys.mod.media.stdio.obj
 0001:00001121       ?get_permissions@RDataArchiver_OsDir@stdio@media@modules@UModSys@@UAEHXZ 00402121 f i umodsys_lib_libmedia:umodsys.mod.media.stdio.obj
 0001:00001125       ??_ERDataArchiver_OsDir@stdio@media@modules@UModSys@@UAEPAXI@Z 00402125 f i  CIL library: CIL module
 0001:00001125       ??_GRDataArchiver_OsDir@stdio@media@modules@UModSys@@UAEPAXI@Z 00402125 f i umodsys_lib_libmedia:umodsys.mod.media.stdio.obj
 0001:00001179       ??1ILibObject@libmedia@UModSys@@UAE@XZ 00402179 f i umodsys_lib_libmedia:umodsys.mod.media.stdio.obj
 0001:000011b0       ?get_generated_names@RGenerator@stdio@media@modules@UModSys@@UBEHAAUSUniquePtrList@core@5@@Z 004021b0 f i umodsys_lib_libmedia:umodsys.mod.media.stdio.obj
 0001:000011e0       ?get_generated_types@RGenerator@stdio@media@modules@UModSys@@UBEHAAUSUniquePtrList@core@5@PBUSUniquePointerInfo@75@@Z 004021e0 f i umodsys_lib_libmedia:umodsys.mod.media.stdio.obj
 0001:00001253       ?generate@RGenerator@stdio@media@modules@UModSys@@UAE_NAAU?$TRefObject@UIRefObject@core@UModSys@@U?$TRefObjectFunc@UIRefObject@core@UModSys@@@tl@3@@tl@5@PBUSUniquePointerInfo@core@5@ABUSParameters@95@@Z 00402253 f i umodsys_lib_libmedia:umodsys.mod.media.stdio.obj
 0001:000012ba       ?root_get_interface_info@RGenerator@stdio@media@modules@UModSys@@UBEABUSUniquePointerInfo@core@5@XZ 004022ba f i umodsys_lib_libmedia:umodsys.mod.media.stdio.obj
 0001:000012c0       ?root_get_interface_type@RGenerator@stdio@media@modules@UModSys@@UBEPBUSUniquePointerInfo@core@5@XZ 004022c0 f i umodsys_lib_libmedia:umodsys.mod.media.stdio.obj
 0001:000012c6       ?root_get_other_interface@RGenerator@stdio@media@modules@UModSys@@UAEPAUIRoot@core@5@PBUSUniquePointerInfo@75@@Z 004022c6 f i umodsys_lib_libmedia:umodsys.mod.media.stdio.obj
 0001:000012c6       ?root_get_other_interface@RGenerator@stdio@media@modules@UModSys@@UBEPBUIRoot@core@5@PBUSUniquePointerInfo@75@@Z 004022c6 f i umodsys_lib_libmedia:umodsys.mod.media.stdio.obj
 0001:000012ef       ?root_is_interface_supported@RGenerator@stdio@media@modules@UModSys@@UBE_NPBUSUniquePointerInfo@core@5@@Z 004022ef f i umodsys_lib_libmedia:umodsys.mod.media.stdio.obj
 0001:0000130e       ?ref_remove@RConsole_std@rsystem@base@UModSys@@UBEXXZ 0040230e f i umodsys_lib_basesys:umodsys.basesys.rconsole_std.obj
 0001:0000130e       ?ref_add@RConsole_std@rsystem@base@UModSys@@UBEXXZ 0040230e f i umodsys_lib_basesys:umodsys.basesys.rconsole_std.obj
 0001:0000130e       ??3@YAXPAX0@Z              0040230e f i umodsys_lib_libmedia:umodsys.mod.media.stdio.obj
 0001:0000130e       ?suicide@RGenerator@stdio@media@modules@UModSys@@UAEXXZ 0040230e f i umodsys_lib_libmedia:umodsys.mod.media.stdio.obj
 0001:0000130e       ?suicide@RGenerator@stdlib@media@modules@UModSys@@UAEXXZ 0040230e f i umodsys_lib_libmedia:umodsys.mod.media.stdlib.obj
 0001:0000130f       ?get_uid@RGenerator@stdio@media@modules@UModSys@@UBEPBUSUniquePointerInfo@core@5@XZ 0040230f f i umodsys_lib_libmedia:umodsys.mod.media.stdio.obj
 0001:00001315       ?do_open@RModuleReg@stdio@media@modules@UModSys@@UAE_NXZ 00402315 f i umodsys_lib_libmedia:umodsys.mod.media.stdio.obj
 0001:00001363       ?do_close@RModuleReg@stdio@media@modules@UModSys@@UAE_NXZ 00402363 f i umodsys_lib_libmedia:umodsys.mod.media.stdio.obj
 0001:0000139e       ?get_module@RGenerator@stdio@media@modules@UModSys@@UBEPAUIModule@base@5@XZ 0040239e f   umodsys_lib_libmedia:umodsys.mod.media.stdio.obj
 0001:000013a4       ?mod_inc@RGenerator@stdio@media@modules@UModSys@@UBE_NXZ 004023a4 f   umodsys_lib_libmedia:umodsys.mod.media.stdio.obj
 0001:000013af       ?mod_dec@RGenerator@stdio@media@modules@UModSys@@UBE_NXZ 004023af f   umodsys_lib_libmedia:umodsys.mod.media.stdio.obj
 0001:000013ba       ?s_holder@RGenerator@stdio@media@modules@UModSys@@SAAAU?$TTypeStaticHolder@URGenerator@stdio@media@modules@UModSys@@@tl@5@XZ 004023ba f   umodsys_lib_libmedia:umodsys.mod.media.stdio.obj
 0001:000013ec       ??0?$TString@U?$TSCoreShared@USIMemAlloc@core@UModSys@@D@su@tl@UModSys@@U?$TComparerBinaryHash@D@234@@tl@UModSys@@QAE@XZ 004023ec f i umodsys_lib_libmedia:umodsys.mod.media.stdio.obj
 0001:00001402       ??1?$TSCoreShared@USIMemAlloc@core@UModSys@@D@su@tl@UModSys@@QAE@XZ 00402402 f i umodsys_lib_libmedia:umodsys.mod.media.stdio.obj
 0001:00001402       ??1?$TString@U?$TSCoreShared@USIMemAlloc@core@UModSys@@D@su@tl@UModSys@@U?$TComparerBinaryHash@D@234@@tl@UModSys@@QAE@XZ 00402402 f i umodsys_lib_libmedia:umodsys.mod.media.stdio.obj
 0001:00001402       ??1?$TStringBuf@U?$TSCoreShared@USIMemAlloc@core@UModSys@@D@su@tl@UModSys@@U?$TComparerBinaryHash@D@234@@tl@UModSys@@QAE@XZ 00402402 f i umodsys_lib_libmedia:umodsys.mod.media.stdlib.obj
 0001:00001407       ??_ERGenerator@stdlib@media@modules@UModSys@@UAEPAXI@Z 00402407 f i  CIL library: CIL module
 0001:00001407       ??_GIRoot@core@UModSys@@UAEPAXI@Z 00402407 f i umodsys_lib_libmedia:umodsys.mod.media.stdio.obj
 0001:00001407       ??_EIRoot@core@UModSys@@UAEPAXI@Z 00402407 f i  CIL library: CIL module
 0001:00001407       ??_GRParameters@rsystem@base@UModSys@@UAEPAXI@Z 00402407 f i umodsys_lib_basesys:umodsys.basesys.rparameters.obj
 0001:00001407       ??_ERGenerator@stdio@media@modules@UModSys@@UAEPAXI@Z 00402407 f i  CIL library: CIL module
 0001:00001407       ??_ERParameters@rsystem@base@UModSys@@UAEPAXI@Z 00402407 f i  CIL library: CIL module
 0001:00001407       ??_GRGenerator@stdio@media@modules@UModSys@@UAEPAXI@Z 00402407 f i umodsys_lib_libmedia:umodsys.mod.media.stdio.obj
 0001:00001407       ??_GRGenerator@stdlib@media@modules@UModSys@@UAEPAXI@Z 00402407 f i umodsys_lib_libmedia:umodsys.mod.media.stdlib.obj
 0001:00001424       ?set@?$TSCoreShared@USIMemAlloc@core@UModSys@@D@su@tl@UModSys@@QAEXPBD@Z 00402424 f i umodsys_lib_libmedia:umodsys.mod.media.stdio.obj
 0001:00001449       ?info_release@?$TSCoreShared@USIMemAlloc@core@UModSys@@D@su@tl@UModSys@@QAEXXZ 00402449 f i umodsys_lib_libmedia:umodsys.mod.media.stdio.obj
 0001:00001482       ?info_new@?$TSCoreShared@USIMemAlloc@core@UModSys@@D@su@tl@UModSys@@QAE_NPBDI@Z 00402482 f i umodsys_lib_libmedia:umodsys.mod.media.stdio.obj
 0001:000014e6       ?get_null@?$TSCoreShared@USIMemAlloc@core@UModSys@@D@su@tl@UModSys@@SAPAU?$TSharedStringInfo@DUSIMemAlloc@core@UModSys@@@234@XZ 004024e6 f i umodsys_lib_libmedia:umodsys.mod.media.stdio.obj
 0001:0000151e       ??$ValidateConstruction@UIStreamReader@libmedia@UModSys@@URStreamReader_FILE@stdio@media@modules@3@@core@UModSys@@YA_NAAU?$TRefObject@UIStreamReader@libmedia@UModSys@@U?$TRefObjectFunc@UIStreamReader@libmedia@UModSys@@@tl@3@@tl@1@PAURStreamReader_FILE@stdio@media@modules@1@@Z 0040251e f i umodsys_lib_libmedia:umodsys.mod.media.stdio.obj
 0001:00001570       ??$yes@U?$TFlags4StateShift@USMediaFlagUid@libmedia@UModSys@@I$09@tl@UModSys@@@SFlags@libmedia@UModSys@@QBE_NPBUIResolverAuto@012@@Z 00402570 f i umodsys_lib_libmedia:umodsys.mod.media.stdio.obj
 0001:000015c1       ??$ValidateConstruction@UIStreamWriter@libmedia@UModSys@@URStreamWriter_FILE@stdio@media@modules@3@@core@UModSys@@YA_NAAU?$TRefObject@UIStreamWriter@libmedia@UModSys@@U?$TRefObjectFunc@UIStreamWriter@libmedia@UModSys@@@tl@3@@tl@1@PAURStreamWriter_FILE@stdio@media@modules@1@@Z 004025c1 f i umodsys_lib_libmedia:umodsys.mod.media.stdio.obj
 0001:0000161b       ??$t_gen_param@URStreamReader_FILE@stdio@media@modules@UModSys@@URGenerator@2345@@IGenerator@base@UModSys@@IAE_NPAURGenerator@stdio@media@modules@2@AAU?$TRefObject@UIRefObject@core@UModSys@@U?$TRefObjectFunc@UIRefObject@core@UModSys@@@tl@3@@tl@2@PBUSUniquePointerInfo@core@2@ABUSParameters@core@2@@Z 0040261b f i umodsys_lib_libmedia:umodsys.mod.media.stdio.obj
 0001:000016a6       ??$t_gen_param@URStreamWriter_FILE@stdio@media@modules@UModSys@@URGenerator@2345@@IGenerator@base@UModSys@@IAE_NPAURGenerator@stdio@media@modules@2@AAU?$TRefObject@UIRefObject@core@UModSys@@U?$TRefObjectFunc@UIRefObject@core@UModSys@@@tl@3@@tl@2@PBUSUniquePointerInfo@core@2@ABUSParameters@core@2@@Z 004026a6 f i umodsys_lib_libmedia:umodsys.mod.media.stdio.obj
 0001:00001731       ??$t_gen_param@URDataArchiver_OsDir@stdio@media@modules@UModSys@@URGenerator@2345@@IGenerator@base@UModSys@@IAE_NPAURGenerator@stdio@media@modules@2@AAU?$TRefObject@UIRefObject@core@UModSys@@U?$TRefObjectFunc@UIRefObject@core@UModSys@@@tl@3@@tl@2@PBUSUniquePointerInfo@core@2@ABUSParameters@core@2@@Z 00402731 f i umodsys_lib_libmedia:umodsys.mod.media.stdio.obj
 0001:000017ac       ??1?$TRefObject@UIModObject@base@UModSys@@U?$TModObjectFunc@UIModObject@base@UModSys@@@tl@3@@tl@UModSys@@QAE@XZ 004027ac f i umodsys_lib_libmedia:umodsys.mod.media.stdio.obj
 0001:000017c2       ?s_init@?$TModObjectFunc@UIModObject@base@UModSys@@@tl@UModSys@@SAXAAPAUIModObject@base@3@PAU453@@Z 004027c2 f i umodsys_lib_libmedia:umodsys.mod.media.stdio.obj
 0001:000017db       ?new_data@SMemorySharedData@core@UModSys@@SAPAU123@IPBUSSourceContext@23@@Z 004027db f i umodsys_lib_libmedia:umodsys.mod.media.stdlib.obj
 0001:000017ff       ??$seq@D@su@tl@UModSys@@YA_NPBD0I@Z 004027ff f i umodsys_lib_libmedia:umodsys.mod.media.stdlib.obj
 0001:0000181a       ??1SFileInfo@libmedia@UModSys@@QAE@XZ 0040281a f i umodsys_lib_libmedia:umodsys.mod.media.stdlib.obj
 0001:00001867       ?get_flag@RResolverChain@SFlagsChain@libmedia@UModSys@@UBE?AW4eStates@?$TFlags4State@USMediaFlagUid@libmedia@UModSys@@I@tl@4@H@Z 00402867 f i umodsys_lib_libmedia:umodsys.mod.media.stdlib.obj
 0001:0000188d       ?bin_reader@ILibrary@libmedia@UModSys@@QAE?AU?$TRefObject@UIStreamReader@libmedia@UModSys@@U?$TRefObjectFunc@UIStreamReader@libmedia@UModSys@@@tl@3@@tl@3@ABU?$TString@U?$TSCoreConst@D@su@tl@UModSys@@U?$TComparerBinaryHash@D@234@@53@ABU?$TFlags4State@USMediaFlagUid@libmedia@UModSys@@I@53@@Z 0040288d f i umodsys_lib_libmedia:umodsys.mod.media.stdlib.obj
 0001:000018bc       ?bin_writer@ILibrary@libmedia@UModSys@@QAE?AU?$TRefObject@UIStreamWriter@libmedia@UModSys@@U?$TRefObjectFunc@UIStreamWriter@libmedia@UModSys@@@tl@3@@tl@3@ABU?$TString@U?$TSCoreConst@D@su@tl@UModSys@@U?$TComparerBinaryHash@D@234@@53@ABU?$TFlags4State@USMediaFlagUid@libmedia@UModSys@@I@53@@Z 004028bc f i umodsys_lib_libmedia:umodsys.mod.media.stdlib.obj
 0001:000018eb       ?_root_get_other_interface@ILibrary@libmedia@UModSys@@IBEPBUIRoot@core@3@PBUSUniquePointerInfo@53@@Z 004028eb f i umodsys_lib_libmedia:umodsys.mod.media.stdlib.obj
 0001:000018eb       ?_root_get_other_interface@ILibrary@libmedia@UModSys@@IAEPAUIRoot@core@3@PBUSUniquePointerInfo@53@@Z 004028eb f i umodsys_lib_libmedia:umodsys.mod.media.stdlib.obj
 0001:00001907       ?_root_get_interface_types@ILibrary@libmedia@UModSys@@SAIAAUSUniquePtrList@core@3@@Z 00402907 f i umodsys_lib_libmedia:umodsys.mod.media.stdlib.obj
 0001:00001929       ?_root_is_interface_supported@ILibrary@libmedia@UModSys@@SA_NPBUSUniquePointerInfo@core@3@@Z 00402929 f i umodsys_lib_libmedia:umodsys.mod.media.stdlib.obj
 0001:00001949       ??1SLayer@ILibraryLayered@libmedia@UModSys@@QAE@XZ 00402949 f i umodsys_lib_libmedia:umodsys.mod.media.stdlib.obj
 0001:00001949       ??1SPoint@ILibraryBinTree@libmedia@UModSys@@QAE@XZ 00402949 f i umodsys_lib_libmedia:umodsys.mod.media.stdlib.obj
 0001:0000195a       ?setname@NameNode@IBinArchiveFrame@libmedia@UModSys@@QAEXPAXHABU?$TString@U?$TSCoreConst@D@su@tl@UModSys@@U?$TComparerBinaryHash@D@234@@tl@4@@Z 0040295a f i umodsys_lib_libmedia:umodsys.mod.media.stdlib.obj
 0001:000019a2       ?setname@NameNode@IBinArchiveFrame@libmedia@UModSys@@QAEXPAXHABU?$TString@U?$TSCoreConst@D@su@tl@UModSys@@U?$TComparerUtfNocaseHash@D@234@@tl@4@@Z 004029a2 f i umodsys_lib_libmedia:umodsys.mod.media.stdlib.obj
 0001:000019f2       ??RNameNodeCmpC@IBinArchiveFrame@libmedia@UModSys@@QBEHPBUNameNode@123@@Z 004029f2 f i umodsys_lib_libmedia:umodsys.mod.media.stdlib.obj
 0001:00001a1c       ??RNameNodeCmpUC@IBinArchiveFrame@libmedia@UModSys@@QBEHPBUNameNode@123@@Z 00402a1c f i umodsys_lib_libmedia:umodsys.mod.media.stdlib.obj
 0001:00001a77       ?root_get_interface_info@RUtilities@stdlib@media@modules@UModSys@@UBEABUSUniquePointerInfo@core@5@XZ 00402a77 f i umodsys_lib_libmedia:umodsys.mod.media.stdlib.obj
 0001:00001a7d       ?root_get_interface_type@RUtilities@stdlib@media@modules@UModSys@@UBEPBUSUniquePointerInfo@core@5@XZ 00402a7d f i umodsys_lib_libmedia:umodsys.mod.media.stdlib.obj
 0001:00001a83       ?root_get_other_interface@RUtilities@stdlib@media@modules@UModSys@@UBEPBUIRoot@core@5@PBUSUniquePointerInfo@75@@Z 00402a83 f i umodsys_lib_libmedia:umodsys.mod.media.stdlib.obj
 0001:00001a83       ?root_get_other_interface@RUtilities@stdlib@media@modules@UModSys@@UAEPAUIRoot@core@5@PBUSUniquePointerInfo@75@@Z 00402a83 f i umodsys_lib_libmedia:umodsys.mod.media.stdlib.obj
 0001:00001aa4       ?root_is_interface_supported@RUtilities@stdlib@media@modules@UModSys@@UBE_NPBUSUniquePointerInfo@core@5@@Z 00402aa4 f i umodsys_lib_libmedia:umodsys.mod.media.stdlib.obj
 0001:00001acb       ?ref_remove@RGenerator@stdio@media@modules@UModSys@@UBEXXZ 00402acb f i umodsys_lib_libmedia:umodsys.mod.media.stdio.obj
 0001:00001acb       ?ref_remove@RStreamReader_FILE@stdio@media@modules@UModSys@@UBEXXZ 00402acb f i umodsys_lib_libmedia:umodsys.mod.media.stdio.obj
 0001:00001acb       ?ref_remove@RUtilities@stdlib@media@modules@UModSys@@UBEXXZ 00402acb f i umodsys_lib_libmedia:umodsys.mod.media.stdlib.obj
 0001:00001acb       ?ref_remove@RGenerator@stdlib@media@modules@UModSys@@UBEXXZ 00402acb f i umodsys_lib_libmedia:umodsys.mod.media.stdlib.obj
 0001:00001acb       ?ref_remove@RStreamWriter_FILE@stdio@media@modules@UModSys@@UBEXXZ 00402acb f i umodsys_lib_libmedia:umodsys.mod.media.stdio.obj
 0001:00001ad6       ?root_get_interface_info@RBinArchiveFrame@stdlib@media@modules@UModSys@@UBEABUSUniquePointerInfo@core@5@XZ 00402ad6 f i umodsys_lib_libmedia:umodsys.mod.media.stdlib.obj
 0001:00001adc       ?root_get_interface_type@RBinArchiveFrame@stdlib@media@modules@UModSys@@UBEPBUSUniquePointerInfo@core@5@XZ 00402adc f i umodsys_lib_libmedia:umodsys.mod.media.stdlib.obj
 0001:00001ae2       ?root_get_other_interface@RBinArchiveFrame@stdlib@media@modules@UModSys@@UBEPBUIRoot@core@5@PBUSUniquePointerInfo@75@@Z 00402ae2 f i umodsys_lib_libmedia:umodsys.mod.media.stdlib.obj
 0001:00001ae2       ?root_get_other_interface@RBinArchiveFrame@stdlib@media@modules@UModSys@@UAEPAUIRoot@core@5@PBUSUniquePointerInfo@75@@Z 00402ae2 f i umodsys_lib_libmedia:umodsys.mod.media.stdlib.obj
 0001:00001b13       ?root_is_interface_supported@RBinArchiveFrame@stdlib@media@modules@UModSys@@UBE_NPBUSUniquePointerInfo@core@5@@Z 00402b13 f i umodsys_lib_libmedia:umodsys.mod.media.stdlib.obj
 0001:00001b3a       ?ref_add@RBinArchiveFrame@stdlib@media@modules@UModSys@@UBEXXZ 00402b3a f i umodsys_lib_libmedia:umodsys.mod.media.stdlib.obj
 0001:00001b3e       ?ref_remove@RBinArchiveFrame@stdlib@media@modules@UModSys@@UBEXXZ 00402b3e f i umodsys_lib_libmedia:umodsys.mod.media.stdlib.obj
 0001:00001b49       ?ref_links@RBinArchiveFrame@stdlib@media@modules@UModSys@@UBEHXZ 00402b49 f i umodsys_lib_libmedia:umodsys.mod.media.stdlib.obj
 0001:00001b4d       ?ref_weak@RBinArchiveFrame@stdlib@media@modules@UModSys@@UBE_NAAUWeakPointer@IRefObject@core@5@@Z 00402b4d f i umodsys_lib_libmedia:umodsys.mod.media.stdlib.obj
 0001:00001b6c       ?suicide@RBinArchiveFrame@stdlib@media@modules@UModSys@@UAEXXZ 00402b6c f i umodsys_lib_libmedia:umodsys.mod.media.stdlib.obj
 0001:00001ba9       ?root_get_interface_info@RLibraryBinTree@stdlib@media@modules@UModSys@@UBEABUSUniquePointerInfo@core@5@XZ 00402ba9 f i umodsys_lib_libmedia:umodsys.mod.media.stdlib.obj
 0001:00001baf       ?root_get_interface_type@RLibraryBinTree@stdlib@media@modules@UModSys@@UBEPBUSUniquePointerInfo@core@5@XZ 00402baf f i umodsys_lib_libmedia:umodsys.mod.media.stdlib.obj
 0001:00001bb5       ?root_get_other_interface@RLibraryBinTree@stdlib@media@modules@UModSys@@UBEPBUIRoot@core@5@PBUSUniquePointerInfo@75@@Z 00402bb5 f i umodsys_lib_libmedia:umodsys.mod.media.stdlib.obj
 0001:00001bb5       ?root_get_other_interface@RLibraryBinTree@stdlib@media@modules@UModSys@@UAEPAUIRoot@core@5@PBUSUniquePointerInfo@75@@Z 00402bb5 f i umodsys_lib_libmedia:umodsys.mod.media.stdlib.obj
 0001:00001bd6       ?root_is_interface_supported@RLibraryBinTree@stdlib@media@modules@UModSys@@UBE_NPBUSUniquePointerInfo@core@5@@Z 00402bd6 f i umodsys_lib_libmedia:umodsys.mod.media.stdlib.obj
 0001:00001bfd       ?suicide@RDataArchiver_OsDir@stdio@media@modules@UModSys@@UAEXXZ 00402bfd f i umodsys_lib_libmedia:umodsys.mod.media.stdio.obj
 0001:00001bfd       ?suicide@RLibraryBinCache@stdlib@media@modules@UModSys@@UAEXXZ 00402bfd f i umodsys_lib_libmedia:umodsys.mod.media.stdlib.obj
 0001:00001bfd       ?suicide@RLibraryBinTree@stdlib@media@modules@UModSys@@UAEXXZ 00402bfd f i umodsys_lib_libmedia:umodsys.mod.media.stdlib.obj
 0001:00001bfd       ?suicide@RLibraryObjCache@stdlib@media@modules@UModSys@@UAEXXZ 00402bfd f i umodsys_lib_libmedia:umodsys.mod.media.stdlib.obj
 0001:00001bfd       ?suicide@RLibraryObjFilter@stdlib@media@modules@UModSys@@UAEXXZ 00402bfd f i umodsys_lib_libmedia:umodsys.mod.media.stdlib.obj
 0001:00001bfd       ?suicide@RLibraryLayered@stdlib@media@modules@UModSys@@UAEXXZ 00402bfd f i umodsys_lib_libmedia:umodsys.mod.media.stdlib.obj
 0001:00001c3a       ?root_get_interface_info@RLibraryBinCache@stdlib@media@modules@UModSys@@UBEABUSUniquePointerInfo@core@5@XZ 00402c3a f i umodsys_lib_libmedia:umodsys.mod.media.stdlib.obj
 0001:00001c40       ?root_get_interface_type@RLibraryBinCache@stdlib@media@modules@UModSys@@UBEPBUSUniquePointerInfo@core@5@XZ 00402c40 f i umodsys_lib_libmedia:umodsys.mod.media.stdlib.obj
 0001:00001c46       ?root_get_other_interface@RLibraryBinCache@stdlib@media@modules@UModSys@@UBEPBUIRoot@core@5@PBUSUniquePointerInfo@75@@Z 00402c46 f i umodsys_lib_libmedia:umodsys.mod.media.stdlib.obj
 0001:00001c46       ?root_get_other_interface@RLibraryBinCache@stdlib@media@modules@UModSys@@UAEPAUIRoot@core@5@PBUSUniquePointerInfo@75@@Z 00402c46 f i umodsys_lib_libmedia:umodsys.mod.media.stdlib.obj
 0001:00001c67       ?root_is_interface_supported@RLibraryBinCache@stdlib@media@modules@UModSys@@UBE_NPBUSUniquePointerInfo@core@5@@Z 00402c67 f i umodsys_lib_libmedia:umodsys.mod.media.stdlib.obj
 0001:00001c8e       ?ref_add@RDataArchiver_OsDir@stdio@media@modules@UModSys@@UBEXXZ 00402c8e f i umodsys_lib_libmedia:umodsys.mod.media.stdio.obj
 0001:00001c8e       ?ref_add@RParameters@rsystem@base@UModSys@@UBEXXZ 00402c8e f i umodsys_lib_basesys:umodsys.basesys.rparameters.obj
 0001:00001c8e       ?ref_add@RLibraryObjFilter@stdlib@media@modules@UModSys@@UBEXXZ 00402c8e f i umodsys_lib_libmedia:umodsys.mod.media.stdlib.obj
 0001:00001c8e       ?ref_add@RLibraryObjCache@stdlib@media@modules@UModSys@@UBEXXZ 00402c8e f i umodsys_lib_libmedia:umodsys.mod.media.stdlib.obj
 0001:00001c8e       ?ref_add@RLibraryBinCache@stdlib@media@modules@UModSys@@UBEXXZ 00402c8e f i umodsys_lib_libmedia:umodsys.mod.media.stdlib.obj
 0001:00001c8e       ?ref_add@RLibraryBinTree@stdlib@media@modules@UModSys@@UBEXXZ 00402c8e f i umodsys_lib_libmedia:umodsys.mod.media.stdlib.obj
 0001:00001c8e       ?ref_add@RLibraryLayered@stdlib@media@modules@UModSys@@UBEXXZ 00402c8e f i umodsys_lib_libmedia:umodsys.mod.media.stdlib.obj
 0001:00001c92       ?root_get_interface_info@RLibraryLayered@stdlib@media@modules@UModSys@@UBEABUSUniquePointerInfo@core@5@XZ 00402c92 f i umodsys_lib_libmedia:umodsys.mod.media.stdlib.obj
 0001:00001c98       ?root_get_interface_type@RLibraryLayered@stdlib@media@modules@UModSys@@UBEPBUSUniquePointerInfo@core@5@XZ 00402c98 f i umodsys_lib_libmedia:umodsys.mod.media.stdlib.obj
 0001:00001c9e       ?root_get_other_interface@RLibraryLayered@stdlib@media@modules@UModSys@@UBEPBUIRoot@core@5@PBUSUniquePointerInfo@75@@Z 00402c9e f i umodsys_lib_libmedia:umodsys.mod.media.stdlib.obj
 0001:00001c9e       ?root_get_other_interface@RLibraryLayered@stdlib@media@modules@UModSys@@UAEPAUIRoot@core@5@PBUSUniquePointerInfo@75@@Z 00402c9e f i umodsys_lib_libmedia:umodsys.mod.media.stdlib.obj
 0001:00001cbf       ?root_is_interface_supported@RLibraryLayered@stdlib@media@modules@UModSys@@UBE_NPBUSUniquePointerInfo@core@5@@Z 00402cbf f i umodsys_lib_libmedia:umodsys.mod.media.stdlib.obj
 0001:00001ce6       ?ref_links@RLibraryBinTree@stdlib@media@modules@UModSys@@UBEHXZ 00402ce6 f i umodsys_lib_libmedia:umodsys.mod.media.stdlib.obj
 0001:00001ce6       ?ref_links@RLibraryBinCache@stdlib@media@modules@UModSys@@UBEHXZ 00402ce6 f i umodsys_lib_libmedia:umodsys.mod.media.stdlib.obj
 0001:00001ce6       ?ref_links@RLibraryObjFilter@stdlib@media@modules@UModSys@@UBEHXZ 00402ce6 f i umodsys_lib_libmedia:umodsys.mod.media.stdlib.obj
 0001:00001ce6       ?ref_links@RLibraryLayered@stdlib@media@modules@UModSys@@UBEHXZ 00402ce6 f i umodsys_lib_libmedia:umodsys.mod.media.stdlib.obj
 0001:00001ce6       ?ref_links@RParameters@rsystem@base@UModSys@@UBEHXZ 00402ce6 f i umodsys_lib_basesys:umodsys.basesys.rparameters.obj
 0001:00001ce6       ?get_console@RSystem@rsystem@base@UModSys@@UAEPAUIConsole@34@XZ 00402ce6 f i umodsys_lib_basesys:umodsys.basesys.rsystem.obj
 0001:00001ce6       ?ref_links@RLibraryObjCache@stdlib@media@modules@UModSys@@UBEHXZ 00402ce6 f i umodsys_lib_libmedia:umodsys.mod.media.stdlib.obj
 0001:00001ce6       ?ref_links@RDataArchiver_OsDir@stdio@media@modules@UModSys@@UBEHXZ 00402ce6 f i umodsys_lib_libmedia:umodsys.mod.media.stdio.obj
 0001:00001cea       ??4SLayerX@RLibraryLayered@stdlib@media@modules@UModSys@@QAEXABUSLayer@ILibraryLayered@libmedia@5@@Z 00402cea f i umodsys_lib_libmedia:umodsys.mod.media.stdlib.obj
 0001:00001d33       ?root_get_interface_info@RLibraryObjCache@stdlib@media@modules@UModSys@@UBEABUSUniquePointerInfo@core@5@XZ 00402d33 f i umodsys_lib_libmedia:umodsys.mod.media.stdlib.obj
 0001:00001d39       ?root_get_interface_type@RLibraryObjCache@stdlib@media@modules@UModSys@@UBEPBUSUniquePointerInfo@core@5@XZ 00402d39 f i umodsys_lib_libmedia:umodsys.mod.media.stdlib.obj
 0001:00001d3f       ?root_get_other_interface@RLibraryObjCache@stdlib@media@modules@UModSys@@UBEPBUIRoot@core@5@PBUSUniquePointerInfo@75@@Z 00402d3f f i umodsys_lib_libmedia:umodsys.mod.media.stdlib.obj
 0001:00001d3f       ?root_get_other_interface@RLibraryObjCache@stdlib@media@modules@UModSys@@UAEPAUIRoot@core@5@PBUSUniquePointerInfo@75@@Z 00402d3f f i umodsys_lib_libmedia:umodsys.mod.media.stdlib.obj
 0001:00001d60       ?root_is_interface_supported@RLibraryObjCache@stdlib@media@modules@UModSys@@UBE_NPBUSUniquePointerInfo@core@5@@Z 00402d60 f i umodsys_lib_libmedia:umodsys.mod.media.stdlib.obj
 0001:00001d87       ?root_get_interface_info@RLibraryObjFilter@stdlib@media@modules@UModSys@@UBEABUSUniquePointerInfo@core@5@XZ 00402d87 f i umodsys_lib_libmedia:umodsys.mod.media.stdlib.obj
 0001:00001d8d       ?root_get_interface_type@RLibraryObjFilter@stdlib@media@modules@UModSys@@UBEPBUSUniquePointerInfo@core@5@XZ 00402d8d f i umodsys_lib_libmedia:umodsys.mod.media.stdlib.obj
 0001:00001d93       ?root_get_other_interface@RLibraryObjFilter@stdlib@media@modules@UModSys@@UBEPBUIRoot@core@5@PBUSUniquePointerInfo@75@@Z 00402d93 f i umodsys_lib_libmedia:umodsys.mod.media.stdlib.obj
 0001:00001d93       ?root_get_other_interface@RLibraryObjFilter@stdlib@media@modules@UModSys@@UAEPAUIRoot@core@5@PBUSUniquePointerInfo@75@@Z 00402d93 f i umodsys_lib_libmedia:umodsys.mod.media.stdlib.obj
 0001:00001db4       ?root_is_interface_supported@RLibraryObjFilter@stdlib@media@modules@UModSys@@UBE_NPBUSUniquePointerInfo@core@5@@Z 00402db4 f i umodsys_lib_libmedia:umodsys.mod.media.stdlib.obj
 0001:00001ddb       ?get_generated_names@RGenerator@stdlib@media@modules@UModSys@@UBEHAAUSUniquePtrList@core@5@@Z 00402ddb f i umodsys_lib_libmedia:umodsys.mod.media.stdlib.obj
 0001:00001e3b       ?get_generated_types@RGenerator@stdlib@media@modules@UModSys@@UBEHAAUSUniquePtrList@core@5@PBUSUniquePointerInfo@75@@Z 00402e3b f i umodsys_lib_libmedia:umodsys.mod.media.stdlib.obj
 0001:00001f43       ?generate@RGenerator@stdlib@media@modules@UModSys@@UAE_NAAU?$TRefObject@UIRefObject@core@UModSys@@U?$TRefObjectFunc@UIRefObject@core@UModSys@@@tl@3@@tl@5@PBUSUniquePointerInfo@core@5@ABUSParameters@95@@Z 00402f43 f i umodsys_lib_libmedia:umodsys.mod.media.stdlib.obj
 0001:00002024       ?root_get_interface_info@RGenerator@stdlib@media@modules@UModSys@@UBEABUSUniquePointerInfo@core@5@XZ 00403024 f i umodsys_lib_libmedia:umodsys.mod.media.stdlib.obj
 0001:0000202a       ?root_get_interface_type@RGenerator@stdlib@media@modules@UModSys@@UBEPBUSUniquePointerInfo@core@5@XZ 0040302a f i umodsys_lib_libmedia:umodsys.mod.media.stdlib.obj
 0001:00002030       ?root_get_other_interface@RGenerator@stdlib@media@modules@UModSys@@UBEPBUIRoot@core@5@PBUSUniquePointerInfo@75@@Z 00403030 f i umodsys_lib_libmedia:umodsys.mod.media.stdlib.obj
 0001:00002030       ?root_get_other_interface@RGenerator@stdlib@media@modules@UModSys@@UAEPAUIRoot@core@5@PBUSUniquePointerInfo@75@@Z 00403030 f i umodsys_lib_libmedia:umodsys.mod.media.stdlib.obj
 0001:00002059       ?root_is_interface_supported@RGenerator@stdlib@media@modules@UModSys@@UBE_NPBUSUniquePointerInfo@core@5@@Z 00403059 f i umodsys_lib_libmedia:umodsys.mod.media.stdlib.obj
 0001:00002078       ?get_uid@RGenerator@stdlib@media@modules@UModSys@@UBEPBUSUniquePointerInfo@core@5@XZ 00403078 f i umodsys_lib_libmedia:umodsys.mod.media.stdlib.obj
 0001:0000207e       ?buffer_free@RUtilities@stdlib@media@modules@UModSys@@UAE_NAAUSBuffer@libmedia@5@PBUSSourceContext@core@5@@Z 0040307e f   umodsys_lib_libmedia:umodsys.mod.media.stdlib.obj
 0001:000020bf       ?buffer_alloc@RUtilities@stdlib@media@modules@UModSys@@UAE_NAAUSBuffer@libmedia@5@IPBUSSourceContext@core@5@@Z 004030bf f   umodsys_lib_libmedia:umodsys.mod.media.stdlib.obj
 0001:0000218a       ?sub_reader@RUtilities@stdlib@media@modules@UModSys@@UAE?AU?$TRefObject@UIStreamReader@libmedia@UModSys@@U?$TRefObjectFunc@UIStreamReader@libmedia@UModSys@@@tl@3@@tl@5@PAUIStreamReader@libmedia@5@_J1@Z 0040318a f   umodsys_lib_libmedia:umodsys.mod.media.stdlib.obj
 0001:0000218a       ?sub_writer@RUtilities@stdlib@media@modules@UModSys@@UAE?AU?$TRefObject@UIStreamWriter@libmedia@UModSys@@U?$TRefObjectFunc@UIStreamWriter@libmedia@UModSys@@@tl@3@@tl@5@PAUIStreamWriter@libmedia@5@_J1@Z 0040318a f   umodsys_lib_libmedia:umodsys.mod.media.stdlib.obj
 0001:0000219c       ?mem_reader@RUtilities@stdlib@media@modules@UModSys@@UAE?AU?$TRefObject@UIStreamReader@libmedia@UModSys@@U?$TRefObjectFunc@UIStreamReader@libmedia@UModSys@@@tl@3@@tl@5@ABUSCMemShared@core@5@@Z 0040319c f   umodsys_lib_libmedia:umodsys.mod.media.stdlib.obj
 0001:0000219c       ?mem_reader@RUtilities@stdlib@media@modules@UModSys@@UAE?AU?$TRefObject@UIStreamReader@libmedia@UModSys@@U?$TRefObjectFunc@UIStreamReader@libmedia@UModSys@@@tl@3@@tl@5@ABUSCMem@core@5@@Z 0040319c f   umodsys_lib_libmedia:umodsys.mod.media.stdlib.obj
 0001:000021ae       ?mem_writer@RUtilities@stdlib@media@modules@UModSys@@UAE?AU?$TRefObject@UIStreamWriter@libmedia@UModSys@@U?$TRefObjectFunc@UIStreamWriter@libmedia@UModSys@@@tl@3@@tl@5@PBUSMem@core@5@PAUIMemWriterCompleted@IUtilities@libmedia@5@PAUIRefObject@95@@Z 004031ae f   umodsys_lib_libmedia:umodsys.mod.media.stdlib.obj
 0001:000021c0       ??0RUtilities@stdlib@media@modules@UModSys@@QAE@PAUIModObject@base@4@ABUSParameters@core@4@@Z 004031c0 f   umodsys_lib_libmedia:umodsys.mod.media.stdlib.obj
 0001:0000221a       ??_GRUtilities@stdlib@media@modules@UModSys@@UAEPAXI@Z 0040321a f i umodsys_lib_libmedia:umodsys.mod.media.stdlib.obj
 0001:0000221a       ??_ERUtilities@stdlib@media@modules@UModSys@@UAEPAXI@Z 0040321a f i  CIL library: CIL module
 0001:00002247       ?get_flag@RBinArchiveFrame@stdlib@media@modules@UModSys@@UBE?AW4eStates@?$TFlags4State@USMediaFlagUid@libmedia@UModSys@@I@tl@5@H@Z 00403247 f   umodsys_lib_libmedia:umodsys.mod.media.stdlib.obj
 0001:0000225a       ?get_flags_auto@RBinArchiveFrame@stdlib@media@modules@UModSys@@UBE?AU?$TFlags4State@USMediaFlagUid@libmedia@UModSys@@I@tl@5@XZ 0040325a f   umodsys_lib_libmedia:umodsys.mod.media.stdlib.obj
 0001:00002269       ?set_flag@RBinArchiveFrame@stdlib@media@modules@UModSys@@UAE?AW4eStates@?$TFlags4State@USMediaFlagUid@libmedia@UModSys@@I@tl@5@HW46785@@Z 00403269 f   umodsys_lib_libmedia:umodsys.mod.media.stdlib.obj
 0001:00002296       ?data_reader@RBinArchiveFrame@stdlib@media@modules@UModSys@@UAE?AU?$TRefObject@UIStreamReader@libmedia@UModSys@@U?$TRefObjectFunc@UIStreamReader@libmedia@UModSys@@@tl@3@@tl@5@ABU?$TString@U?$TSCoreConst@D@su@tl@UModSys@@U?$TComparerBinaryHash@D@234@@75@ABUSFlags@libmedia@5@@Z 00403296 f   umodsys_lib_libmedia:umodsys.mod.media.stdlib.obj
 0001:00002327       ?data_writer@RBinArchiveFrame@stdlib@media@modules@UModSys@@UAE?AU?$TRefObject@UIStreamWriter@libmedia@UModSys@@U?$TRefObjectFunc@UIStreamWriter@libmedia@UModSys@@@tl@3@@tl@5@ABU?$TString@U?$TSCoreConst@D@su@tl@UModSys@@U?$TComparerBinaryHash@D@234@@75@ABUSFlags@libmedia@5@@Z 00403327 f   umodsys_lib_libmedia:umodsys.mod.media.stdlib.obj
 0001:0000235b       ?data_load@RBinArchiveFrame@stdlib@media@modules@UModSys@@UAE_NABU?$TString@U?$TSCoreConst@D@su@tl@UModSys@@U?$TComparerBinaryHash@D@234@@tl@5@AAUSCMemShared@core@5@ABUSFlags@libmedia@5@@Z 0040335b f   umodsys_lib_libmedia:umodsys.mod.media.stdlib.obj
 0001:0000238b       ?data_save@RBinArchiveFrame@stdlib@media@modules@UModSys@@UAE_NABU?$TString@U?$TSCoreConst@D@su@tl@UModSys@@U?$TComparerBinaryHash@D@234@@tl@5@ABUSCMem@core@5@ABUSFlags@libmedia@5@@Z 0040338b f   umodsys_lib_libmedia:umodsys.mod.media.stdlib.obj
 0001:000023b3       ?data_list@RBinArchiveFrame@stdlib@media@modules@UModSys@@UAE_NABU?$TString@U?$TSCoreConst@D@su@tl@UModSys@@U?$TComparerBinaryHash@D@234@@tl@5@IAAU?$TIStackSocket@USFileInfo@libmedia@UModSys@@@75@ABUSFlags@libmedia@5@@Z 004033b3 f   umodsys_lib_libmedia:umodsys.mod.media.stdlib.obj
 0001:000024fb       ?data_info@RBinArchiveFrame@stdlib@media@modules@UModSys@@UAE_NABU?$TString@U?$TSCoreConst@D@su@tl@UModSys@@U?$TComparerBinaryHash@D@234@@tl@5@IAAUSFileInfo@libmedia@5@ABUSFlags@95@@Z 004034fb f   umodsys_lib_libmedia:umodsys.mod.media.stdlib.obj
 0001:000025bb       ?get_permissions@RBinArchiveFrame@stdlib@media@modules@UModSys@@UAEHXZ 004035bb f   umodsys_lib_libmedia:umodsys.mod.media.stdlib.obj
 0001:000025c8       ?open@RBinArchiveFrame@stdlib@media@modules@UModSys@@UAE_NPAUIClient@IBinArchiveFrame@libmedia@5@PBUSParameters@core@5@@Z 004035c8 f   umodsys_lib_libmedia:umodsys.mod.media.stdlib.obj
 0001:00002872       ?close@RBinArchiveFrame@stdlib@media@modules@UModSys@@UAE_NXZ 00403872 f   umodsys_lib_libmedia:umodsys.mod.media.stdlib.obj
 0001:000028e9       ?add_node_r@RBinArchiveFrame@stdlib@media@modules@UModSys@@UAEPAUNameNode@IBinArchiveFrame@libmedia@5@ABU?$TString@U?$TSCoreConst@D@su@tl@UModSys@@U?$TComparerBinaryHash@D@234@@tl@5@IAAUSMem@core@5@@Z 004038e9 f   umodsys_lib_libmedia:umodsys.mod.media.stdlib.obj
 0001:0000296e       ?add_node_w@RBinArchiveFrame@stdlib@media@modules@UModSys@@UAEPAUNameNode@IBinArchiveFrame@libmedia@5@ABU?$TString@U?$TSCoreConst@D@su@tl@UModSys@@U?$TComparerBinaryHash@D@234@@tl@5@I@Z 0040396e f   umodsys_lib_libmedia:umodsys.mod.media.stdlib.obj
 0001:00002a0c       ?remove_node@RBinArchiveFrame@stdlib@media@modules@UModSys@@UAE_NPAUNameNode@IBinArchiveFrame@libmedia@5@@Z 00403a0c f   umodsys_lib_libmedia:umodsys.mod.media.stdlib.obj
 0001:00002a2d       ?find_node@RBinArchiveFrame@stdlib@media@modules@UModSys@@UAEPAUNameNode@IBinArchiveFrame@libmedia@5@ABU?$TString@U?$TSCoreConst@D@su@tl@UModSys@@U?$TComparerBinaryHash@D@234@@tl@5@@Z 00403a2d f   umodsys_lib_libmedia:umodsys.mod.media.stdlib.obj
 0001:00002ab1       ?node_size@RBinArchiveFrame@stdlib@media@modules@UModSys@@UAEIABU?$TString@U?$TSCoreConst@D@su@tl@UModSys@@U?$TComparerBinaryHash@D@234@@tl@5@H@Z 00403ab1 f   umodsys_lib_libmedia:umodsys.mod.media.stdlib.obj
 0001:00002ac6       ?kill_node@RBinArchiveFrame@stdlib@media@modules@UModSys@@SA_NPAUNameNode@IBinArchiveFrame@libmedia@5@@Z 00403ac6 f   umodsys_lib_libmedia:umodsys.mod.media.stdlib.obj
 0001:00002ae1       ?fill_info@RBinArchiveFrame@stdlib@media@modules@UModSys@@QAE_NAAUSFileInfo@libmedia@5@PAUNameNode@IBinArchiveFrame@75@ABU?$TString@U?$TSCoreConst@D@su@tl@UModSys@@U?$TComparerBinaryHash@D@234@@tl@5@I@Z 00403ae1 f   umodsys_lib_libmedia:umodsys.mod.media.stdlib.obj
 0001:00002c44       ?openr@RBinArchiveFrame@stdlib@media@modules@UModSys@@QAE_NPAUILibrary@libmedia@5@ABU?$TString@U?$TSCoreConst@D@su@tl@UModSys@@U?$TComparerBinaryHash@D@234@@tl@5@PBUSParameters@core@5@@Z 00403c44 f   umodsys_lib_libmedia:umodsys.mod.media.stdlib.obj
 0001:00002d1f       ?closew@RBinArchiveFrame@stdlib@media@modules@UModSys@@QAE_N_N@Z 00403d1f f   umodsys_lib_libmedia:umodsys.mod.media.stdlib.obj
 0001:00002ded       ??0RBinArchiveFrame@stdlib@media@modules@UModSys@@QAE@PAUIModObject@base@4@ABUSParameters@core@4@U?$TFlags4State@USMediaFlagUid@libmedia@UModSys@@I@tl@4@@Z 00403ded f   umodsys_lib_libmedia:umodsys.mod.media.stdlib.obj
 0001:00002ea1       ??_ERBinArchiveFrame@stdlib@media@modules@UModSys@@UAEPAXI@Z 00403ea1 f i  CIL library: CIL module
 0001:00002ea1       ??_GRBinArchiveFrame@stdlib@media@modules@UModSys@@UAEPAXI@Z 00403ea1 f i umodsys_lib_libmedia:umodsys.mod.media.stdlib.obj
 0001:00002ebe       ??1IBinArchiveFrame@libmedia@UModSys@@UAE@XZ 00403ebe f i umodsys_lib_libmedia:umodsys.mod.media.stdlib.obj
 0001:00002f24       ??1RBinArchiveFrame@stdlib@media@modules@UModSys@@UAE@XZ 00403f24 f   umodsys_lib_libmedia:umodsys.mod.media.stdlib.obj
 0001:00002fa7       ??0RLibraryBinTree@stdlib@media@modules@UModSys@@QAE@PAUIModObject@base@4@ABUSParameters@core@4@U?$TFlags4State@USMediaFlagUid@libmedia@UModSys@@I@tl@4@@Z 00403fa7 f   umodsys_lib_libmedia:umodsys.mod.media.stdlib.obj
 0001:00003007       ??_GRLibraryBinTree@stdlib@media@modules@UModSys@@UAEPAXI@Z 00404007 f i umodsys_lib_libmedia:umodsys.mod.media.stdlib.obj
 0001:00003007       ??_ERLibraryBinTree@stdlib@media@modules@UModSys@@UAEPAXI@Z 00404007 f i  CIL library: CIL module
 0001:00003068       ?get_flags_auto@RLibraryBinTree@stdlib@media@modules@UModSys@@UBE?AU?$TFlags4State@USMediaFlagUid@libmedia@UModSys@@I@tl@5@XZ 00404068 f   umodsys_lib_libmedia:umodsys.mod.media.stdlib.obj
 0001:00003077       ?bin_reader@RLibraryBinTree@stdlib@media@modules@UModSys@@UAE?AU?$TRefObject@UIStreamReader@libmedia@UModSys@@U?$TRefObjectFunc@UIStreamReader@libmedia@UModSys@@@tl@3@@tl@5@ABU?$TString@U?$TSCoreConst@D@su@tl@UModSys@@U?$TComparerBinaryHash@D@234@@75@ABUSFlags@libmedia@5@@Z 00404077 f   umodsys_lib_libmedia:umodsys.mod.media.stdlib.obj
 0001:00003166       ?bin_writer@RLibraryBinTree@stdlib@media@modules@UModSys@@UAE?AU?$TRefObject@UIStreamWriter@libmedia@UModSys@@U?$TRefObjectFunc@UIStreamWriter@libmedia@UModSys@@@tl@3@@tl@5@ABU?$TString@U?$TSCoreConst@D@su@tl@UModSys@@U?$TComparerBinaryHash@D@234@@75@ABUSFlags@libmedia@5@@Z 00404166 f   umodsys_lib_libmedia:umodsys.mod.media.stdlib.obj
 0001:00003255       ?bin_load@RLibraryBinTree@stdlib@media@modules@UModSys@@UAE_NABU?$TString@U?$TSCoreConst@D@su@tl@UModSys@@U?$TComparerBinaryHash@D@234@@tl@5@AAUSCMemShared@core@5@ABUSFlags@libmedia@5@@Z 00404255 f   umodsys_lib_libmedia:umodsys.mod.media.stdlib.obj
 0001:00003307       ?bin_save@RLibraryBinTree@stdlib@media@modules@UModSys@@UAE_NABU?$TString@U?$TSCoreConst@D@su@tl@UModSys@@U?$TComparerBinaryHash@D@234@@tl@5@ABUSCMem@core@5@ABUSFlags@libmedia@5@@Z 00404307 f   umodsys_lib_libmedia:umodsys.mod.media.stdlib.obj
 0001:000033ad       ?bin_info@RLibraryBinTree@stdlib@media@modules@UModSys@@UAE_NABU?$TString@U?$TSCoreConst@D@su@tl@UModSys@@U?$TComparerBinaryHash@D@234@@tl@5@AAUSFileInfo@libmedia@5@ABUSFlags@95@@Z 004043ad f   umodsys_lib_libmedia:umodsys.mod.media.stdlib.obj
 0001:00003445       ?bin_list@RLibraryBinTree@stdlib@media@modules@UModSys@@UAE_NABU?$TString@U?$TSCoreConst@D@su@tl@UModSys@@U?$TComparerBinaryHash@D@234@@tl@5@AAU?$TIStackSocket@USFileInfo@libmedia@UModSys@@@75@ABUSFlags@libmedia@5@@Z 00404445 f   umodsys_lib_libmedia:umodsys.mod.media.stdlib.obj
 0001:000034ea       ?mount_get@RLibraryBinTree@stdlib@media@modules@UModSys@@UBE?AUSPoint@ILibraryBinTree@libmedia@5@ABUSId@785@@Z 004044ea f   umodsys_lib_libmedia:umodsys.mod.media.stdlib.obj
 0001:00003539       ?mount_add@RLibraryBinTree@stdlib@media@modules@UModSys@@UAE_NABUSId@ILibraryBinTree@libmedia@5@ABUSPoint@785@@Z 00404539 f   umodsys_lib_libmedia:umodsys.mod.media.stdlib.obj
 0001:00003613       ?mount_remove@RLibraryBinTree@stdlib@media@modules@UModSys@@UAE_NABUSId@ILibraryBinTree@libmedia@5@@Z 00404613 f   umodsys_lib_libmedia:umodsys.mod.media.stdlib.obj
 0001:0000364a       ?mount_clear@RLibraryBinTree@stdlib@media@modules@UModSys@@UAE_NXZ 0040464a f   umodsys_lib_libmedia:umodsys.mod.media.stdlib.obj
 0001:00003668       ??0RLibraryBinCache@stdlib@media@modules@UModSys@@QAE@PAUIModObject@base@4@ABUSParameters@core@4@U?$TFlags4State@USMediaFlagUid@libmedia@UModSys@@I@tl@4@@Z 00404668 f   umodsys_lib_libmedia:umodsys.mod.media.stdlib.obj
 0001:000036c8       ??_ERLibraryBinCache@stdlib@media@modules@UModSys@@UAEPAXI@Z 004046c8 f i  CIL library: CIL module
 0001:000036c8       ??_GRLibraryBinCache@stdlib@media@modules@UModSys@@UAEPAXI@Z 004046c8 f i umodsys_lib_libmedia:umodsys.mod.media.stdlib.obj
 0001:00003729       ?get_flags_auto@RLibraryBinCache@stdlib@media@modules@UModSys@@UBE?AU?$TFlags4State@USMediaFlagUid@libmedia@UModSys@@I@tl@5@XZ 00404729 f   umodsys_lib_libmedia:umodsys.mod.media.stdlib.obj
 0001:00003738       ?bin_load@RLibraryBinCache@stdlib@media@modules@UModSys@@UAE_NABU?$TString@U?$TSCoreConst@D@su@tl@UModSys@@U?$TComparerBinaryHash@D@234@@tl@5@AAUSCMemShared@core@5@ABUSFlags@libmedia@5@@Z 00404738 f   umodsys_lib_libmedia:umodsys.mod.media.stdlib.obj
 0001:0000378f       ?bin_put@RLibraryBinCache@stdlib@media@modules@UModSys@@UAE_NABU?$TString@U?$TSCoreConst@D@su@tl@UModSys@@U?$TComparerBinaryHash@D@234@@tl@5@PBUSCMemShared@core@5@@Z 0040478f f   umodsys_lib_libmedia:umodsys.mod.media.stdlib.obj
 0001:000037a5       ?bincache_get@RLibraryBinCache@stdlib@media@modules@UModSys@@UBE_NABU?$TString@U?$TSCoreConst@D@su@tl@UModSys@@U?$TComparerBinaryHash@D@234@@tl@5@PAUSCMemShared@core@5@PA_N@Z 004047a5 f   umodsys_lib_libmedia:umodsys.mod.media.stdlib.obj
 0001:000037f7       ?bincache_add@RLibraryBinCache@stdlib@media@modules@UModSys@@UAE_NABU?$TString@U?$TSCoreConst@D@su@tl@UModSys@@U?$TComparerBinaryHash@D@234@@tl@5@@Z 004047f7 f   umodsys_lib_libmedia:umodsys.mod.media.stdlib.obj
 0001:0000383d       ?bincache_add@RLibraryBinCache@stdlib@media@modules@UModSys@@UAE_NABU?$TString@U?$TSCoreConst@D@su@tl@UModSys@@U?$TComparerBinaryHash@D@234@@tl@5@ABUSCMemShared@core@5@@Z 0040483d f   umodsys_lib_libmedia:umodsys.mod.media.stdlib.obj
 0001:0000384f       ?bincache_remove@RLibraryBinCache@stdlib@media@modules@UModSys@@UAE_NABU?$TString@U?$TSCoreConst@D@su@tl@UModSys@@U?$TComparerBinaryHash@D@234@@tl@5@@Z 0040484f f   umodsys_lib_libmedia:umodsys.mod.media.stdlib.obj
 0001:00003886       ?bincache_clear@RLibraryBinCache@stdlib@media@modules@UModSys@@UAE_NXZ 00404886 f   umodsys_lib_libmedia:umodsys.mod.media.stdlib.obj
 0001:000038a4       ?bincache_add@RLibraryBinCache@stdlib@media@modules@UModSys@@QAE_NABU?$TString@U?$TSCoreConst@D@su@tl@UModSys@@U?$TComparerBinaryHash@D@234@@tl@5@ABUSCMemShared@core@5@_N@Z 004048a4 f   umodsys_lib_libmedia:umodsys.mod.media.stdlib.obj
 0001:00003951       ??0RLibraryLayered@stdlib@media@modules@UModSys@@QAE@PAUIModObject@base@4@ABUSParameters@core@4@U?$TFlags4State@USMediaFlagUid@libmedia@UModSys@@I@tl@4@@Z 00404951 f   umodsys_lib_libmedia:umodsys.mod.media.stdlib.obj
 0001:000039c2       ??_GRLibraryLayered@stdlib@media@modules@UModSys@@UAEPAXI@Z 004049c2 f i umodsys_lib_libmedia:umodsys.mod.media.stdlib.obj
 0001:000039c2       ??_ERLibraryLayered@stdlib@media@modules@UModSys@@UAEPAXI@Z 004049c2 f i  CIL library: CIL module
 0001:000039f6       ??1ILibraryLayered@libmedia@UModSys@@UAE@XZ 004049f6 f i umodsys_lib_libmedia:umodsys.mod.media.stdlib.obj
 0001:000039f6       ??1ILibraryBinTree@libmedia@UModSys@@UAE@XZ 004049f6 f i umodsys_lib_libmedia:umodsys.mod.media.stdlib.obj
 0001:000039f6       ??1ILibraryObjFilter@libmedia@UModSys@@UAE@XZ 004049f6 f i umodsys_lib_libmedia:umodsys.mod.media.stdlib.obj
 0001:000039f6       ??1ILibraryBinCache@libmedia@UModSys@@UAE@XZ 004049f6 f i umodsys_lib_libmedia:umodsys.mod.media.stdlib.obj
 0001:000039f6       ??1IBinArchive@libmedia@UModSys@@UAE@XZ 004049f6 f i umodsys_lib_libmedia:umodsys.mod.media.stdio.obj
 0001:000039f6       ??1ILibraryObjCache@libmedia@UModSys@@UAE@XZ 004049f6 f i umodsys_lib_libmedia:umodsys.mod.media.stdlib.obj
 0001:000039fb       ?get_flag@RLibraryLayered@stdlib@media@modules@UModSys@@UBE?AW4eStates@?$TFlags4State@USMediaFlagUid@libmedia@UModSys@@I@tl@5@H@Z 004049fb f   umodsys_lib_libmedia:umodsys.mod.media.stdlib.obj
 0001:00003a0e       ?get_flags_auto@RLibraryLayered@stdlib@media@modules@UModSys@@UBE?AU?$TFlags4State@USMediaFlagUid@libmedia@UModSys@@I@tl@5@XZ 00404a0e f   umodsys_lib_libmedia:umodsys.mod.media.stdlib.obj
 0001:00003a1d       ?set_flag@RLibraryLayered@stdlib@media@modules@UModSys@@UAE?AW4eStates@?$TFlags4State@USMediaFlagUid@libmedia@UModSys@@I@tl@5@HW46785@@Z 00404a1d f   umodsys_lib_libmedia:umodsys.mod.media.stdlib.obj
 0001:00003a4a       ?bin_reader@RLibraryLayered@stdlib@media@modules@UModSys@@UAE?AU?$TRefObject@UIStreamReader@libmedia@UModSys@@U?$TRefObjectFunc@UIStreamReader@libmedia@UModSys@@@tl@3@@tl@5@ABU?$TString@U?$TSCoreConst@D@su@tl@UModSys@@U?$TComparerBinaryHash@D@234@@75@ABUSFlags@libmedia@5@@Z 00404a4a f   umodsys_lib_libmedia:umodsys.mod.media.stdlib.obj
 0001:00003afb       ?bin_writer@RLibraryLayered@stdlib@media@modules@UModSys@@UAE?AU?$TRefObject@UIStreamWriter@libmedia@UModSys@@U?$TRefObjectFunc@UIStreamWriter@libmedia@UModSys@@@tl@3@@tl@5@ABU?$TString@U?$TSCoreConst@D@su@tl@UModSys@@U?$TComparerBinaryHash@D@234@@75@ABUSFlags@libmedia@5@@Z 00404afb f   umodsys_lib_libmedia:umodsys.mod.media.stdlib.obj
 0001:00003bac       ?bin_load@RLibraryLayered@stdlib@media@modules@UModSys@@UAE_NABU?$TString@U?$TSCoreConst@D@su@tl@UModSys@@U?$TComparerBinaryHash@D@234@@tl@5@AAUSCMemShared@core@5@ABUSFlags@libmedia@5@@Z 00404bac f   umodsys_lib_libmedia:umodsys.mod.media.stdlib.obj
 0001:00003cb3       ?bin_save@RLibraryLayered@stdlib@media@modules@UModSys@@UAE_NABU?$TString@U?$TSCoreConst@D@su@tl@UModSys@@U?$TComparerBinaryHash@D@234@@tl@5@ABUSCMem@core@5@ABUSFlags@libmedia@5@@Z 00404cb3 f   umodsys_lib_libmedia:umodsys.mod.media.stdlib.obj
 0001:00003dd0       ?bin_info@RLibraryLayered@stdlib@media@modules@UModSys@@UAE_NABU?$TString@U?$TSCoreConst@D@su@tl@UModSys@@U?$TComparerBinaryHash@D@234@@tl@5@AAUSFileInfo@libmedia@5@ABUSFlags@95@@Z 00404dd0 f   umodsys_lib_libmedia:umodsys.mod.media.stdlib.obj
 0001:00003e40       ?bin_list@RLibraryLayered@stdlib@media@modules@UModSys@@UAE_NABU?$TString@U?$TSCoreConst@D@su@tl@UModSys@@U?$TComparerBinaryHash@D@234@@tl@5@AAU?$TIStackSocket@USFileInfo@libmedia@UModSys@@@75@ABUSFlags@libmedia@5@@Z 00404e40 f   umodsys_lib_libmedia:umodsys.mod.media.stdlib.obj
 0001:00003eb6       ?bin_get@RLibraryLayered@stdlib@media@modules@UModSys@@UAE_NABU?$TString@U?$TSCoreConst@D@su@tl@UModSys@@U?$TComparerBinaryHash@D@234@@tl@5@AAUSCMemShared@core@5@_N@Z 00404eb6 f   umodsys_lib_libmedia:umodsys.mod.media.stdlib.obj
 0001:00003ef8       ?bin_put@RLibraryLayered@stdlib@media@modules@UModSys@@UAE_NABU?$TString@U?$TSCoreConst@D@su@tl@UModSys@@U?$TComparerBinaryHash@D@234@@tl@5@PBUSCMemShared@core@5@@Z 00404ef8 f   umodsys_lib_libmedia:umodsys.mod.media.stdlib.obj
 0001:00003f36       ?obj_fget@RLibraryLayered@stdlib@media@modules@UModSys@@UAE_NABUSInfo@IBinObjFilter@libmedia@5@AAU?$TRefObject@UIRefObject@core@UModSys@@U?$TRefObjectFunc@UIRefObject@core@UModSys@@@tl@3@@tl@5@@Z 00404f36 f   umodsys_lib_libmedia:umodsys.mod.media.stdlib.obj
 0001:00003f74       ?obj_fload@RLibraryLayered@stdlib@media@modules@UModSys@@UAE_NABUSInfo@IBinObjFilter@libmedia@5@PAUIRefObject@core@5@@Z 00404f74 f   umodsys_lib_libmedia:umodsys.mod.media.stdlib.obj
 0001:00003fb2       ?obj_fsave@RLibraryLayered@stdlib@media@modules@UModSys@@UAE_NAAUSInfo@IBinObjFilter@libmedia@5@PBUIRefObject@core@5@@Z 00404fb2 f   umodsys_lib_libmedia:umodsys.mod.media.stdlib.obj
 0001:00003ff0       ?obj_cget@RLibraryLayered@stdlib@media@modules@UModSys@@UAE_NABU?$TString@U?$TSCoreConst@D@su@tl@UModSys@@U?$TComparerBinaryHash@D@234@@tl@5@AAU?$TRefObject@UIRefObject@core@UModSys@@U?$TRefObjectFunc@UIRefObject@core@UModSys@@@tl@3@@75@_N@Z 00404ff0 f   umodsys_lib_libmedia:umodsys.mod.media.stdlib.obj
 0001:00004032       ?obj_cput@RLibraryLayered@stdlib@media@modules@UModSys@@UAE_NABU?$TString@U?$TSCoreConst@D@su@tl@UModSys@@U?$TComparerBinaryHash@D@234@@tl@5@PAUIRefObject@core@5@@Z 00405032 f   umodsys_lib_libmedia:umodsys.mod.media.stdlib.obj
 0001:00004070       ?obj_get@RLibraryLayered@stdlib@media@modules@UModSys@@UAE_NABU?$TString@U?$TSCoreConst@D@su@tl@UModSys@@U?$TComparerBinaryHash@D@234@@tl@5@AAU?$TRefObject@UIRefObject@core@UModSys@@U?$TRefObjectFunc@UIRefObject@core@UModSys@@@tl@3@@75@ABUSObjOptions@ILibrary@libmedia@5@@Z 00405070 f   umodsys_lib_libmedia:umodsys.mod.media.stdlib.obj
 0001:00004210       ??1SInfo@IBinObjFilter@libmedia@UModSys@@QAE@XZ 00405210 f i umodsys_lib_libmedia:umodsys.mod.media.stdlib.obj
 0001:00004210       ??1SCMemShared@core@UModSys@@QAE@XZ 00405210 f i umodsys_lib_libmedia:umodsys.mod.media.stdlib.obj
 0001:00004210       ??1SMemShared@core@UModSys@@QAE@XZ 00405210 f i umodsys_lib_libmedia:umodsys.mod.media.stdio.obj
 0001:0000421a       ?obj_load@RLibraryLayered@stdlib@media@modules@UModSys@@UAE_NABU?$TString@U?$TSCoreConst@D@su@tl@UModSys@@U?$TComparerBinaryHash@D@234@@tl@5@PAUIRefObject@core@5@ABUSObjOptions@ILibrary@libmedia@5@@Z 0040521a f   umodsys_lib_libmedia:umodsys.mod.media.stdlib.obj
 0001:0000431b       ?obj_save@RLibraryLayered@stdlib@media@modules@UModSys@@UAE_NABU?$TString@U?$TSCoreConst@D@su@tl@UModSys@@U?$TComparerBinaryHash@D@234@@tl@5@PBUIRefObject@core@5@ABUSObjOptions@ILibrary@libmedia@5@@Z 0040531b f   umodsys_lib_libmedia:umodsys.mod.media.stdlib.obj
 0001:00004443       ?layer_count@RLibraryLayered@stdlib@media@modules@UModSys@@UBEIABUSLayer@ILibraryLayered@libmedia@5@@Z 00405443 f   umodsys_lib_libmedia:umodsys.mod.media.stdlib.obj
 0001:00004449       ?layer_get@RLibraryLayered@stdlib@media@modules@UModSys@@UBE?AUSLayer@ILibraryLayered@libmedia@5@I@Z 00405449 f   umodsys_lib_libmedia:umodsys.mod.media.stdlib.obj
 0001:0000446c       ??0SLayer@ILibraryLayered@libmedia@UModSys@@QAE@ABU0123@@Z 0040546c f i umodsys_lib_libmedia:umodsys.mod.media.stdlib.obj
 0001:00004498       ?layer_find@RLibraryLayered@stdlib@media@modules@UModSys@@UBEIABU?$TString@U?$TSCoreConst@D@su@tl@UModSys@@U?$TComparerBinaryHash@D@234@@tl@5@I@Z 00405498 f   umodsys_lib_libmedia:umodsys.mod.media.stdlib.obj
 0001:000044e0       ?layer_insert@RLibraryLayered@stdlib@media@modules@UModSys@@UAE_NABUSLayer@ILibraryLayered@libmedia@5@I@Z 004054e0 f   umodsys_lib_libmedia:umodsys.mod.media.stdlib.obj
 0001:00004553       ?layer_remove@RLibraryLayered@stdlib@media@modules@UModSys@@UAE_NI@Z 00405553 f   umodsys_lib_libmedia:umodsys.mod.media.stdlib.obj
 0001:0000459d       ?layer_clear@RLibraryLayered@stdlib@media@modules@UModSys@@UAE_NXZ 0040559d f   umodsys_lib_libmedia:umodsys.mod.media.stdlib.obj
 0001:000045a7       ??0RLibraryObjCache@stdlib@media@modules@UModSys@@QAE@PAUIModObject@base@4@ABUSParameters@core@4@U?$TFlags4State@USMediaFlagUid@libmedia@UModSys@@I@tl@4@@Z 004055a7 f   umodsys_lib_libmedia:umodsys.mod.media.stdlib.obj
 0001:00004607       ??_GRLibraryObjCache@stdlib@media@modules@UModSys@@UAEPAXI@Z 00405607 f i umodsys_lib_libmedia:umodsys.mod.media.stdlib.obj
 0001:00004607       ??_ERLibraryObjCache@stdlib@media@modules@UModSys@@UAEPAXI@Z 00405607 f i  CIL library: CIL module
 0001:00004668       ?get_flag@RLibraryObjCache@stdlib@media@modules@UModSys@@UBE?AW4eStates@?$TFlags4State@USMediaFlagUid@libmedia@UModSys@@I@tl@5@H@Z 00405668 f   umodsys_lib_libmedia:umodsys.mod.media.stdlib.obj
 0001:00004668       ?get_flag@RLibraryBinTree@stdlib@media@modules@UModSys@@UBE?AW4eStates@?$TFlags4State@USMediaFlagUid@libmedia@UModSys@@I@tl@5@H@Z 00405668 f   umodsys_lib_libmedia:umodsys.mod.media.stdlib.obj
 0001:00004668       ?get_flag@RLibraryObjFilter@stdlib@media@modules@UModSys@@UBE?AW4eStates@?$TFlags4State@USMediaFlagUid@libmedia@UModSys@@I@tl@5@H@Z 00405668 f   umodsys_lib_libmedia:umodsys.mod.media.stdlib.obj
 0001:00004668       ?get_flag@RLibraryBinCache@stdlib@media@modules@UModSys@@UBE?AW4eStates@?$TFlags4State@USMediaFlagUid@libmedia@UModSys@@I@tl@5@H@Z 00405668 f   umodsys_lib_libmedia:umodsys.mod.media.stdlib.obj
 0001:0000467b       ?get_flags_auto@RLibraryObjCache@stdlib@media@modules@UModSys@@UBE?AU?$TFlags4State@USMediaFlagUid@libmedia@UModSys@@I@tl@5@XZ 0040567b f   umodsys_lib_libmedia:umodsys.mod.media.stdlib.obj
 0001:0000468a       ?bin_get@RLibraryBinCache@stdlib@media@modules@UModSys@@UAE_NABU?$TString@U?$TSCoreConst@D@su@tl@UModSys@@U?$TComparerBinaryHash@D@234@@tl@5@AAUSCMemShared@core@5@_N@Z 0040568a f   umodsys_lib_libmedia:umodsys.mod.media.stdlib.obj
 0001:0000468a       ?obj_cget@RLibraryObjCache@stdlib@media@modules@UModSys@@UAE_NABU?$TString@U?$TSCoreConst@D@su@tl@UModSys@@U?$TComparerBinaryHash@D@234@@tl@5@AAU?$TRefObject@UIRefObject@core@UModSys@@U?$TRefObjectFunc@UIRefObject@core@UModSys@@@tl@3@@75@_N@Z 0040568a f   umodsys_lib_libmedia:umodsys.mod.media.stdlib.obj
 0001:000046b6       ?obj_cput@RLibraryObjCache@stdlib@media@modules@UModSys@@UAE_NABU?$TString@U?$TSCoreConst@D@su@tl@UModSys@@U?$TComparerBinaryHash@D@234@@tl@5@PAUIRefObject@core@5@@Z 004056b6 f   umodsys_lib_libmedia:umodsys.mod.media.stdlib.obj
 0001:000046bb       ?obj_get@RLibraryObjCache@stdlib@media@modules@UModSys@@UAE_NABU?$TString@U?$TSCoreConst@D@su@tl@UModSys@@U?$TComparerBinaryHash@D@234@@tl@5@AAU?$TRefObject@UIRefObject@core@UModSys@@U?$TRefObjectFunc@UIRefObject@core@UModSys@@@tl@3@@75@ABUSObjOptions@ILibrary@libmedia@5@@Z 004056bb f   umodsys_lib_libmedia:umodsys.mod.media.stdlib.obj
 0001:00004741       ?objcache_get@RLibraryObjCache@stdlib@media@modules@UModSys@@UBE_NABU?$TString@U?$TSCoreConst@D@su@tl@UModSys@@U?$TComparerBinaryHash@D@234@@tl@5@PAU?$TRefObject@UIRefObject@core@UModSys@@U?$TRefObjectFunc@UIRefObject@core@UModSys@@@tl@3@@75@PA_N@Z 00405741 f   umodsys_lib_libmedia:umodsys.mod.media.stdlib.obj
 0001:000047ad       ?objcache_add@RLibraryObjCache@stdlib@media@modules@UModSys@@UAE_NABU?$TString@U?$TSCoreConst@D@su@tl@UModSys@@U?$TComparerBinaryHash@D@234@@tl@5@PAUIRefObject@core@5@@Z 004057ad f   umodsys_lib_libmedia:umodsys.mod.media.stdlib.obj
 0001:00004858       ?objcache_remove@RLibraryObjCache@stdlib@media@modules@UModSys@@UAE_NABU?$TString@U?$TSCoreConst@D@su@tl@UModSys@@U?$TComparerBinaryHash@D@234@@tl@5@@Z 00405858 f   umodsys_lib_libmedia:umodsys.mod.media.stdlib.obj
 0001:0000488f       ?objcache_clear@RLibraryObjCache@stdlib@media@modules@UModSys@@UAE_NXZ 0040588f f   umodsys_lib_libmedia:umodsys.mod.media.stdlib.obj
 0001:000048ad       ??0RLibraryObjFilter@stdlib@media@modules@UModSys@@QAE@PAUIModObject@base@4@ABUSParameters@core@4@U?$TFlags4State@USMediaFlagUid@libmedia@UModSys@@I@tl@4@@Z 004058ad f   umodsys_lib_libmedia:umodsys.mod.media.stdlib.obj
 0001:0000490d       ??_ERLibraryObjFilter@stdlib@media@modules@UModSys@@UAEPAXI@Z 0040590d f i  CIL library: CIL module
 0001:0000490d       ??_GRLibraryObjFilter@stdlib@media@modules@UModSys@@UAEPAXI@Z 0040590d f i umodsys_lib_libmedia:umodsys.mod.media.stdlib.obj
 0001:0000496e       ?get_flags_auto@RLibraryObjFilter@stdlib@media@modules@UModSys@@UBE?AU?$TFlags4State@USMediaFlagUid@libmedia@UModSys@@I@tl@5@XZ 0040596e f   umodsys_lib_libmedia:umodsys.mod.media.stdlib.obj
 0001:0000497d       ?set_flag@RLibraryObjFilter@stdlib@media@modules@UModSys@@UAE?AW4eStates@?$TFlags4State@USMediaFlagUid@libmedia@UModSys@@I@tl@5@HW46785@@Z 0040597d f   umodsys_lib_libmedia:umodsys.mod.media.stdlib.obj
 0001:0000497d       ?set_flag@RLibraryBinTree@stdlib@media@modules@UModSys@@UAE?AW4eStates@?$TFlags4State@USMediaFlagUid@libmedia@UModSys@@I@tl@5@HW46785@@Z 0040597d f   umodsys_lib_libmedia:umodsys.mod.media.stdlib.obj
 0001:0000497d       ?set_flag@RLibraryBinCache@stdlib@media@modules@UModSys@@UAE?AW4eStates@?$TFlags4State@USMediaFlagUid@libmedia@UModSys@@I@tl@5@HW46785@@Z 0040597d f   umodsys_lib_libmedia:umodsys.mod.media.stdlib.obj
 0001:0000497d       ?set_flag@RLibraryObjCache@stdlib@media@modules@UModSys@@UAE?AW4eStates@?$TFlags4State@USMediaFlagUid@libmedia@UModSys@@I@tl@5@HW46785@@Z 0040597d f   umodsys_lib_libmedia:umodsys.mod.media.stdlib.obj
 0001:000049aa       ?obj_fget@RLibraryObjFilter@stdlib@media@modules@UModSys@@UAE_NABUSInfo@IBinObjFilter@libmedia@5@AAU?$TRefObject@UIRefObject@core@UModSys@@U?$TRefObjectFunc@UIRefObject@core@UModSys@@@tl@3@@tl@5@@Z 004059aa f   umodsys_lib_libmedia:umodsys.mod.media.stdlib.obj
 0001:000049b2       ?obj_fload@RLibraryObjFilter@stdlib@media@modules@UModSys@@UAE_NABUSInfo@IBinObjFilter@libmedia@5@PAUIRefObject@core@5@@Z 004059b2 f   umodsys_lib_libmedia:umodsys.mod.media.stdlib.obj
 0001:000049b7       ?obj_fsave@RLibraryObjFilter@stdlib@media@modules@UModSys@@UAE_NAAUSInfo@IBinObjFilter@libmedia@5@PBUIRefObject@core@5@@Z 004059b7 f   umodsys_lib_libmedia:umodsys.mod.media.stdlib.obj
 0001:000049bf       ?filters_add@RLibraryObjFilter@stdlib@media@modules@UModSys@@UAE_NU?$TRefObject@UIBinObjFilter@libmedia@UModSys@@U?$TRefObjectFunc@UIBinObjFilter@libmedia@UModSys@@@tl@3@@tl@5@PBUSParameters@core@5@H@Z 004059bf f   umodsys_lib_libmedia:umodsys.mod.media.stdlib.obj
 0001:00004a5b       ?filters_remove@RLibraryObjFilter@stdlib@media@modules@UModSys@@UAE_NPAUIBinObjFilter@libmedia@5@H@Z 00405a5b f   umodsys_lib_libmedia:umodsys.mod.media.stdlib.obj
 0001:00004aab       ?filters_clear@RLibraryObjFilter@stdlib@media@modules@UModSys@@UAE_NXZ 00405aab f   umodsys_lib_libmedia:umodsys.mod.media.stdlib.obj
 0001:00004ac9       ?filters_load@RLibraryObjFilter@stdlib@media@modules@UModSys@@UAE_NABUSInfo@IBinObjFilter@libmedia@5@AAU?$TRefObject@UIRefObject@core@UModSys@@U?$TRefObjectFunc@UIRefObject@core@UModSys@@@tl@3@@tl@5@@Z 00405ac9 f   umodsys_lib_libmedia:umodsys.mod.media.stdlib.obj
 0001:00004b26       ?filters_load@RLibraryObjFilter@stdlib@media@modules@UModSys@@UAE_NABUSInfo@IBinObjFilter@libmedia@5@PAUIRefObject@core@5@@Z 00405b26 f   umodsys_lib_libmedia:umodsys.mod.media.stdlib.obj
 0001:00004b83       ?filters_save@RLibraryObjFilter@stdlib@media@modules@UModSys@@UAE_NAAUSInfo@IBinObjFilter@libmedia@5@PBUIRefObject@core@5@@Z 00405b83 f   umodsys_lib_libmedia:umodsys.mod.media.stdlib.obj
 0001:00004be0       ?do_open@RModuleReg@stdlib@media@modules@UModSys@@UAE_NXZ 00405be0 f i umodsys_lib_libmedia:umodsys.mod.media.stdlib.obj
 0001:00004c2e       ?do_close@RModuleReg@stdlib@media@modules@UModSys@@UAE_NXZ 00405c2e f i umodsys_lib_libmedia:umodsys.mod.media.stdlib.obj
 0001:00004c69       ??_GRModuleReg@stdio@media@modules@UModSys@@UAEPAXI@Z 00405c69 f i umodsys_lib_libmedia:umodsys.mod.media.stdio.obj
 0001:00004c69       ??_GIModuleReg@base@UModSys@@UAEPAXI@Z 00405c69 f i umodsys_lib_base:umodsys.base.modulereg.obj
 0001:00004c69       ??_ERModuleReg@stdlib@media@modules@UModSys@@UAEPAXI@Z 00405c69 f i  CIL library: CIL module
 0001:00004c69       ??_GRModuleReg@stdlib@media@modules@UModSys@@UAEPAXI@Z 00405c69 f i umodsys_lib_libmedia:umodsys.mod.media.stdlib.obj
 0001:00004c69       ??_ERModuleReg@stdio@media@modules@UModSys@@UAEPAXI@Z 00405c69 f i  CIL library: CIL module
 0001:00004c69       ??_EIModuleReg@base@UModSys@@UAEPAXI@Z 00405c69 f i  CIL library: CIL module
 0001:00004c86       ?get_module@RGenerator@stdlib@media@modules@UModSys@@UBEPAUIModule@base@5@XZ 00405c86 f   umodsys_lib_libmedia:umodsys.mod.media.stdlib.obj
 0001:00004c8c       ?mod_inc@RGenerator@stdlib@media@modules@UModSys@@UBE_NXZ 00405c8c f   umodsys_lib_libmedia:umodsys.mod.media.stdlib.obj
 0001:00004c97       ?mod_dec@RGenerator@stdlib@media@modules@UModSys@@UBE_NXZ 00405c97 f   umodsys_lib_libmedia:umodsys.mod.media.stdlib.obj
 0001:00004ca2       ?s_holder@RGenerator@stdlib@media@modules@UModSys@@SAAAU?$TTypeStaticHolder@URGenerator@stdlib@media@modules@UModSys@@@tl@5@XZ 00405ca2 f   umodsys_lib_libmedia:umodsys.mod.media.stdlib.obj
 0001:00004cd4       ?cat@?$TSCoreBuffer@D@su@tl@UModSys@@QAE_NPBDI@Z 00405cd4 f i umodsys_lib_libmedia:umodsys.mod.media.stdlib.obj
 0001:00004d12       ??4?$TString@U?$TSCoreConst@D@su@tl@UModSys@@U?$TComparerBinaryHash@D@234@@tl@UModSys@@QAEABU012@PBD@Z 00405d12 f i umodsys_lib_libmedia:umodsys.mod.media.stdlib.obj
 0001:00004d2e       ??0?$TString@U?$TSCoreShared@USIMemAlloc@core@UModSys@@D@su@tl@UModSys@@U?$TComparerBinaryHash@D@234@@tl@UModSys@@QAE@ABU?$TSCoreConst@D@su@12@@Z 00405d2e f i umodsys_lib_libmedia:umodsys.mod.media.stdlib.obj
 0001:00004d6f       ??4?$TString@U?$TSCoreShared@USIMemAlloc@core@UModSys@@D@su@tl@UModSys@@U?$TComparerBinaryHash@D@234@@tl@UModSys@@QAEABU012@ABU012@@Z 00405d6f f i umodsys_lib_libmedia:umodsys.mod.media.stdlib.obj
 0001:00004d91       ?update@?$TString@U?$TSCoreConst@D@su@tl@UModSys@@U?$TComparerUtfNocaseHash@D@234@@tl@UModSys@@QAEXXZ 00405d91 f i umodsys_lib_libmedia:umodsys.mod.media.stdlib.obj
 0001:00004dd8       ?Resize@?$TDynarray@U?$TDynarrayHolderDynamic@EU?$TAllocator@USIMemAlloc@core@UModSys@@USCountCalcPower2@23@@tl@UModSys@@@tl@UModSys@@@tl@UModSys@@QAE_NI@Z 00405dd8 f i umodsys_lib_libmedia:umodsys.mod.media.stdlib.obj
 0001:00004e2a       ??1?$TTreeHoldRBD@UNameNode@IBinArchiveFrame@libmedia@UModSys@@U?$TNodeDeleter0@UNameNode@IBinArchiveFrame@libmedia@UModSys@@@tl@4@@tl@UModSys@@QAE@XZ 00405e2a f i umodsys_lib_libmedia:umodsys.mod.media.stdlib.obj
 0001:00004e40       ??R?$TScatterArray@USFilter@RLibraryObjFilter@stdlib@media@modules@UModSys@@USId@23456@U723456@U?$TNodeDeleter0@U?$TScatterArrayNode@USFilter@RLibraryObjFilter@stdlib@media@modules@UModSys@@USId@23456@@tl@UModSys@@@tl@6@@tl@UModSys@@QAEPAUSFilter@RLibraryObjFilter@stdlib@media@modules@2@ABUSId@45672@PAUVoid@core@2@@Z 00405e40 f i umodsys_lib_libmedia:umodsys.mod.media.stdlib.obj
 0001:00004ea3       ??E?$TTreeIterRB@$$CBU?$TScatterArrayNode@USMountInfo@RLibraryBinTree@stdlib@media@modules@UModSys@@USId@ILibraryBinTree@libmedia@6@@tl@UModSys@@$$CBU?$TPair@USId@ILibraryBinTree@libmedia@UModSys@@USMountInfo@RLibraryBinTree@stdlib@media@modules@4@@23@@tl@UModSys@@QAE?AU012@XZ 00405ea3 f i umodsys_lib_libmedia:umodsys.mod.media.stdlib.obj
 0001:00004ea3       ??E?$TTreeIterRB@$$CBU?$TScatterArrayNode@USFilter@RLibraryObjFilter@stdlib@media@modules@UModSys@@USId@23456@@tl@UModSys@@$$CBU?$TPair@USId@RLibraryObjFilter@stdlib@media@modules@UModSys@@USFilter@23456@@23@@tl@UModSys@@QAE?AU012@XZ 00405ea3 f i umodsys_lib_libmedia:umodsys.mod.media.stdlib.obj
 0001:00004ecd       ??1?$TDynarray@U?$TDynarrayHolderDynamic@EU?$TAllocator@USIMemAlloc@core@UModSys@@USCountCalcPower2@23@@tl@UModSys@@@tl@UModSys@@@tl@UModSys@@QAE@XZ 00405ecd f i umodsys_lib_libmedia:umodsys.mod.media.stdlib.obj
 0001:00004f0f       ??1?$TDynarray@U?$TDynarrayHolderDynamic@UBuffer@RUtilities@stdlib@media@modules@UModSys@@U?$TAllocator@USIMemAlloc@core@UModSys@@USCountCalcPower2@23@@tl@6@@tl@UModSys@@@tl@UModSys@@QAE@XZ 00405f0f f i umodsys_lib_libmedia:umodsys.mod.media.stdlib.obj
 0001:00004f55       ??1?$TDynarray@U?$TDynarrayHolderDynamic@USLayerX@RLibraryLayered@stdlib@media@modules@UModSys@@U?$TAllocator@USIMemAlloc@core@UModSys@@USCountCalcPower2@23@@tl@6@@tl@UModSys@@@tl@UModSys@@QAE@XZ 00405f55 f i umodsys_lib_libmedia:umodsys.mod.media.stdlib.obj
 0001:00004f95       ?Resize@?$TDynarray@U?$TDynarrayHolderDynamic@USLayerX@RLibraryLayered@stdlib@media@modules@UModSys@@U?$TAllocator@USIMemAlloc@core@UModSys@@USCountCalcPower2@23@@tl@6@@tl@UModSys@@@tl@UModSys@@QAE_NI@Z 00405f95 f i umodsys_lib_libmedia:umodsys.mod.media.stdlib.obj
 0001:00004ff7       ?remove_node@?$TTreeHoldRB@U?$TScatterArrayNode@USFilter@RLibraryObjFilter@stdlib@media@modules@UModSys@@USId@23456@@tl@UModSys@@@tl@UModSys@@QAEXPAU?$TScatterArrayNode@USFilter@RLibraryObjFilter@stdlib@media@modules@UModSys@@USId@23456@@23@@Z 00405ff7 f i umodsys_lib_libmedia:umodsys.mod.media.stdlib.obj
 0001:00004ff7       ?remove_node@?$TTreeHoldRB@U?$TScatterArrayNode@USCacheElem@RLibraryObjCache@stdlib@media@modules@UModSys@@U?$TString@U?$TSCoreConst@D@su@tl@UModSys@@U?$TComparerBinaryHash@D@234@@tl@6@@tl@UModSys@@@tl@UModSys@@QAEXPAU?$TScatterArrayNode@USCacheElem@RLibraryObjCache@stdlib@media@modules@UModSys@@U?$TString@U?$TSCoreConst@D@su@tl@UModSys@@U?$TComparerBinaryHash@D@234@@tl@6@@23@@Z 00405ff7 f i umodsys_lib_libmedia:umodsys.mod.media.stdlib.obj
 0001:00004ff7       ?remove_node@?$TTreeHoldRB@U?$TScatterArrayNode@USCacheElem@RLibraryBinCache@stdlib@media@modules@UModSys@@U?$TString@U?$TSCoreConst@D@su@tl@UModSys@@U?$TComparerBinaryHash@D@234@@tl@6@@tl@UModSys@@@tl@UModSys@@QAEXPAU?$TScatterArrayNode@USCacheElem@RLibraryBinCache@stdlib@media@modules@UModSys@@U?$TString@U?$TSCoreConst@D@su@tl@UModSys@@U?$TComparerBinaryHash@D@234@@tl@6@@23@@Z 00405ff7 f i umodsys_lib_libmedia:umodsys.mod.media.stdlib.obj
 0001:00004ff7       ?remove_node@?$TTreeHoldRB@U?$TScatterArrayNode@USMountInfo@RLibraryBinTree@stdlib@media@modules@UModSys@@USId@ILibraryBinTree@libmedia@6@@tl@UModSys@@@tl@UModSys@@QAEXPAU?$TScatterArrayNode@USMountInfo@RLibraryBinTree@stdlib@media@modules@UModSys@@USId@ILibraryBinTree@libmedia@6@@23@@Z 00405ff7 f i umodsys_lib_libmedia:umodsys.mod.media.stdlib.obj
 0001:00004ff7       ?remove_node@?$TTreeHoldRB@UNameNode@IBinArchiveFrame@libmedia@UModSys@@@tl@UModSys@@QAEXPAUNameNode@IBinArchiveFrame@libmedia@3@@Z 00405ff7 f i umodsys_lib_libmedia:umodsys.mod.media.stdlib.obj
 0001:000050d4       ??1?$TPair@USId@ILibraryBinTree@libmedia@UModSys@@USMountInfo@RLibraryBinTree@stdlib@media@modules@4@@tl@UModSys@@QAE@XZ 004060d4 f i umodsys_lib_libmedia:umodsys.mod.media.stdlib.obj
 0001:000050de       ??1?$TPair@U?$TString@U?$TSCoreConst@D@su@tl@UModSys@@U?$TComparerBinaryHash@D@234@@tl@UModSys@@USCacheElem@RLibraryBinCache@stdlib@media@modules@3@@tl@UModSys@@QAE@XZ 004060de f i umodsys_lib_libmedia:umodsys.mod.media.stdlib.obj
 0001:000050e8       ??1?$TPair@U?$TString@U?$TSCoreConst@D@su@tl@UModSys@@U?$TComparerBinaryHash@D@234@@tl@UModSys@@USCacheElem@RLibraryObjCache@stdlib@media@modules@3@@tl@UModSys@@QAE@XZ 004060e8 f i umodsys_lib_libmedia:umodsys.mod.media.stdlib.obj
 0001:000050f2       ??1?$TPair@USId@RLibraryObjFilter@stdlib@media@modules@UModSys@@USFilter@23456@@tl@UModSys@@QAE@XZ 004060f2 f i umodsys_lib_libmedia:umodsys.mod.media.stdlib.obj
 0001:00005103       ??1SMountInfo@RLibraryBinTree@stdlib@media@modules@UModSys@@QAE@XZ 00406103 f i umodsys_lib_libmedia:umodsys.mod.media.stdlib.obj
 0001:00005142       ??1SCacheElem@RLibraryBinCache@stdlib@media@modules@UModSys@@QAE@XZ 00406142 f i umodsys_lib_libmedia:umodsys.mod.media.stdlib.obj
 0001:0000517c       ??1SCacheElem@RLibraryObjCache@stdlib@media@modules@UModSys@@QAE@XZ 0040617c f i umodsys_lib_libmedia:umodsys.mod.media.stdlib.obj
 0001:000051b6       ??$?8U?$TSCoreConst@D@su@tl@UModSys@@U?$TComparerBinaryHash@D@123@@?$TString@U?$TSCoreConst@D@su@tl@UModSys@@U?$TComparerBinaryHash@D@234@@tl@UModSys@@QBE_NABU012@@Z 004061b6 f i umodsys_lib_libmedia:umodsys.mod.media.stdlib.obj
 0001:000051f1       ??$compare@U?$TSCoreConst@D@su@tl@UModSys@@@?$TString@U?$TSCoreConst@D@su@tl@UModSys@@U?$TComparerBinaryHash@D@234@@tl@UModSys@@QBEHABU012@@Z 004061f1 f i umodsys_lib_libmedia:umodsys.mod.media.stdlib.obj
 0001:0000521a       ?ResizeRel@?$TDynarray@U?$TDynarrayHolderDynamic@UBuffer@RUtilities@stdlib@media@modules@UModSys@@U?$TAllocator@USIMemAlloc@core@UModSys@@USCountCalcPower2@23@@tl@6@@tl@UModSys@@@tl@UModSys@@QAE_NH@Z 0040621a f i umodsys_lib_libmedia:umodsys.mod.media.stdlib.obj
 0001:0000529e       ??$new_node@U?$TString@U?$TSCoreConst@D@su@tl@UModSys@@U?$TComparerUtfNocaseHash@D@234@@tl@UModSys@@@RBinArchiveFrame@stdlib@media@modules@UModSys@@SAPAUNameNode@IBinArchiveFrame@libmedia@4@ABU?$TString@U?$TSCoreConst@D@su@tl@UModSys@@U?$TComparerUtfNocaseHash@D@234@@tl@4@HPAUSMem@core@4@@Z 0040629e f i umodsys_lib_libmedia:umodsys.mod.media.stdlib.obj
 0001:0000530b       ??$new_node@U?$TString@U?$TSCoreConst@D@su@tl@UModSys@@U?$TComparerBinaryHash@D@234@@tl@UModSys@@@RBinArchiveFrame@stdlib@media@modules@UModSys@@SAPAUNameNode@IBinArchiveFrame@libmedia@4@ABU?$TString@U?$TSCoreConst@D@su@tl@UModSys@@U?$TComparerBinaryHash@D@234@@tl@4@HPAUSMem@core@4@@Z 0040630b f i umodsys_lib_libmedia:umodsys.mod.media.stdlib.obj
 0001:00005378       ?remove_color@?$TTreeHoldRB@U?$TScatterArrayNode@USMountInfo@RLibraryBinTree@stdlib@media@modules@UModSys@@USId@ILibraryBinTree@libmedia@6@@tl@UModSys@@@tl@UModSys@@IAEXPAU?$TScatterArrayNode@USMountInfo@RLibraryBinTree@stdlib@media@modules@UModSys@@USId@ILibraryBinTree@libmedia@6@@23@0@Z 00406378 f i umodsys_lib_libmedia:umodsys.mod.media.stdlib.obj
 0001:00005378       ?remove_color@?$TTreeHoldRB@U?$TScatterArrayNode@USCacheElem@RLibraryBinCache@stdlib@media@modules@UModSys@@U?$TString@U?$TSCoreConst@D@su@tl@UModSys@@U?$TComparerBinaryHash@D@234@@tl@6@@tl@UModSys@@@tl@UModSys@@IAEXPAU?$TScatterArrayNode@USCacheElem@RLibraryBinCache@stdlib@media@modules@UModSys@@U?$TString@U?$TSCoreConst@D@su@tl@UModSys@@U?$TComparerBinaryHash@D@234@@tl@6@@23@0@Z 00406378 f i umodsys_lib_libmedia:umodsys.mod.media.stdlib.obj
 0001:00005378       ?remove_color@?$TTreeHoldRB@U?$TScatterArrayNode@USCacheElem@RLibraryObjCache@stdlib@media@modules@UModSys@@U?$TString@U?$TSCoreConst@D@su@tl@UModSys@@U?$TComparerBinaryHash@D@234@@tl@6@@tl@UModSys@@@tl@UModSys@@IAEXPAU?$TScatterArrayNode@USCacheElem@RLibraryObjCache@stdlib@media@modules@UModSys@@U?$TString@U?$TSCoreConst@D@su@tl@UModSys@@U?$TComparerBinaryHash@D@234@@tl@6@@23@0@Z 00406378 f i umodsys_lib_libmedia:umodsys.mod.media.stdlib.obj
 0001:00005378       ?remove_color@?$TTreeHoldRB@U?$TScatterArrayNode@USFilter@RLibraryObjFilter@stdlib@media@modules@UModSys@@USId@23456@@tl@UModSys@@@tl@UModSys@@IAEXPAU?$TScatterArrayNode@USFilter@RLibraryObjFilter@stdlib@media@modules@UModSys@@USId@23456@@23@0@Z 00406378 f i umodsys_lib_libmedia:umodsys.mod.media.stdlib.obj
 0001:00005378       ?remove_color@?$TTreeHoldRB@UNameNode@IBinArchiveFrame@libmedia@UModSys@@@tl@UModSys@@IAEXPAUNameNode@IBinArchiveFrame@libmedia@3@0@Z 00406378 f i umodsys_lib_libmedia:umodsys.mod.media.stdlib.obj
 0001:0000547a       ??$?4U?$TSCoreConst@D@su@tl@UModSys@@U?$TComparerBinaryHash@D@123@@?$TString@U?$TSCoreShared@USIMemAlloc@core@UModSys@@D@su@tl@UModSys@@U?$TComparerBinaryHash@D@234@@tl@UModSys@@QAEXABU?$TString@U?$TSCoreConst@D@su@tl@UModSys@@U?$TComparerBinaryHash@D@234@@12@@Z 0040647a f i umodsys_lib_libmedia:umodsys.mod.media.stdlib.obj
 0001:0000549f       ??$t_gen_param@URLibraryBinCache@stdlib@media@modules@UModSys@@URGenerator@2345@@IGenerator@base@UModSys@@IAE_NPAURGenerator@stdlib@media@modules@2@AAU?$TRefObject@UIRefObject@core@UModSys@@U?$TRefObjectFunc@UIRefObject@core@UModSys@@@tl@3@@tl@2@PBUSUniquePointerInfo@core@2@ABUSParameters@core@2@@Z 0040649f f i umodsys_lib_libmedia:umodsys.mod.media.stdlib.obj
 0001:0000551c       ??$t_gen_param@URLibraryBinTree@stdlib@media@modules@UModSys@@URGenerator@2345@@IGenerator@base@UModSys@@IAE_NPAURGenerator@stdlib@media@modules@2@AAU?$TRefObject@UIRefObject@core@UModSys@@U?$TRefObjectFunc@UIRefObject@core@UModSys@@@tl@3@@tl@2@PBUSUniquePointerInfo@core@2@ABUSParameters@core@2@@Z 0040651c f i umodsys_lib_libmedia:umodsys.mod.media.stdlib.obj
 0001:00005599       ??$t_gen_param@URLibraryLayered@stdlib@media@modules@UModSys@@URGenerator@2345@@IGenerator@base@UModSys@@IAE_NPAURGenerator@stdlib@media@modules@2@AAU?$TRefObject@UIRefObject@core@UModSys@@U?$TRefObjectFunc@UIRefObject@core@UModSys@@@tl@3@@tl@2@PBUSUniquePointerInfo@core@2@ABUSParameters@core@2@@Z 00406599 f i umodsys_lib_libmedia:umodsys.mod.media.stdlib.obj
 0001:00005616       ??$t_gen_param@URLibraryObjFilter@stdlib@media@modules@UModSys@@URGenerator@2345@@IGenerator@base@UModSys@@IAE_NPAURGenerator@stdlib@media@modules@2@AAU?$TRefObject@UIRefObject@core@UModSys@@U?$TRefObjectFunc@UIRefObject@core@UModSys@@@tl@3@@tl@2@PBUSUniquePointerInfo@core@2@ABUSParameters@core@2@@Z 00406616 f i umodsys_lib_libmedia:umodsys.mod.media.stdlib.obj
 0001:00005693       ??$t_gen_param@URLibraryObjCache@stdlib@media@modules@UModSys@@URGenerator@2345@@IGenerator@base@UModSys@@IAE_NPAURGenerator@stdlib@media@modules@2@AAU?$TRefObject@UIRefObject@core@UModSys@@U?$TRefObjectFunc@UIRefObject@core@UModSys@@@tl@3@@tl@2@PBUSUniquePointerInfo@core@2@ABUSParameters@core@2@@Z 00406693 f i umodsys_lib_libmedia:umodsys.mod.media.stdlib.obj
 0001:00005710       ??$t_gen_param@URBinArchiveFrame@stdlib@media@modules@UModSys@@URGenerator@2345@@IGenerator@base@UModSys@@IAE_NPAURGenerator@stdlib@media@modules@2@AAU?$TRefObject@UIRefObject@core@UModSys@@U?$TRefObjectFunc@UIRefObject@core@UModSys@@@tl@3@@tl@2@PBUSUniquePointerInfo@core@2@ABUSParameters@core@2@@Z 00406710 f i umodsys_lib_libmedia:umodsys.mod.media.stdlib.obj
 0001:000057a3       ??$t_gen_param@URUtilities@stdlib@media@modules@UModSys@@URGenerator@2345@@IGenerator@base@UModSys@@IAE_NPAURGenerator@stdlib@media@modules@2@AAU?$TRefObject@UIRefObject@core@UModSys@@U?$TRefObjectFunc@UIRefObject@core@UModSys@@@tl@3@@tl@2@PBUSUniquePointerInfo@core@2@ABUSParameters@core@2@@Z 004067a3 f i umodsys_lib_libmedia:umodsys.mod.media.stdlib.obj
 0001:0000581d       ??$wildcmp@D@su@tl@UModSys@@YA_NPBD0@Z 0040681d f i umodsys_lib_libmedia:umodsys.mod.media.stdlib.obj
 0001:00005895       ??$ref_get@UIClient@IBinArchiveFrame@libmedia@UModSys@@@SParameters@core@UModSys@@QBE_NPBDAAPAUIClient@IBinArchiveFrame@libmedia@2@@Z 00406895 f i umodsys_lib_libmedia:umodsys.mod.media.stdlib.obj
 0001:000058da       ??$ref_get@UILibrary@libmedia@UModSys@@U?$TRefObjectFunc@UILibrary@libmedia@UModSys@@@tl@3@@SParameters@core@UModSys@@QBE_NPBDAAU?$TRefObject@UILibrary@libmedia@UModSys@@U?$TRefObjectFunc@UILibrary@libmedia@UModSys@@@tl@3@@tl@2@@Z 004068da f i umodsys_lib_libmedia:umodsys.mod.media.stdlib.obj
 0001:00005932       ??$gen_node@UNameNodeCmpUC@IBinArchiveFrame@libmedia@UModSys@@UNN_Add@RBinArchiveFrame@stdlib@media@modules@4@@?$TTreeHoldRB@UNameNode@IBinArchiveFrame@libmedia@UModSys@@@tl@UModSys@@QAEPAUNameNode@IBinArchiveFrame@libmedia@2@UNameNodeCmpUC@452@ABUNN_Add@RBinArchiveFrame@stdlib@media@modules@2@PAPAU3452@2_N@Z 00406932 f i umodsys_lib_libmedia:umodsys.mod.media.stdlib.obj
 0001:000059b9       ??$gen_node@UNameNodeCmpC@IBinArchiveFrame@libmedia@UModSys@@UNN_Add@RBinArchiveFrame@stdlib@media@modules@4@@?$TTreeHoldRB@UNameNode@IBinArchiveFrame@libmedia@UModSys@@@tl@UModSys@@QAEPAUNameNode@IBinArchiveFrame@libmedia@2@UNameNodeCmpC@452@ABUNN_Add@RBinArchiveFrame@stdlib@media@modules@2@PAPAU3452@2_N@Z 004069b9 f i umodsys_lib_libmedia:umodsys.mod.media.stdlib.obj
 0001:00005a40       ??$yes@U?$TFlags4StateShift@USMediaFlagUid@libmedia@UModSys@@I$00@tl@UModSys@@@SFlags@libmedia@UModSys@@QBE_NPBUIResolverAuto@012@@Z 00406a40 f i umodsys_lib_libmedia:umodsys.mod.media.stdlib.obj
 0001:00005a91       ??$yes@U?$TFlags4StateShift@USMediaFlagUid@libmedia@UModSys@@I$02@tl@UModSys@@@SFlags@libmedia@UModSys@@QBE_NPBUIResolverAuto@012@@Z 00406a91 f i umodsys_lib_libmedia:umodsys.mod.media.stdlib.obj
 0001:00005ae2       ??$yes@U?$TFlags4StateShift@USMediaFlagUid@libmedia@UModSys@@I$03@tl@UModSys@@@SFlags@libmedia@UModSys@@QBE_NPBUIResolverAuto@012@@Z 00406ae2 f i umodsys_lib_libmedia:umodsys.mod.media.stdlib.obj
 0001:00005b33       ??$yes@U?$TFlags4StateShift@USMediaFlagUid@libmedia@UModSys@@I$01@tl@UModSys@@@SFlags@libmedia@UModSys@@QBE_NPBUIResolverAuto@012@@Z 00406b33 f i umodsys_lib_libmedia:umodsys.mod.media.stdlib.obj
 0001:00005b84       ??$yes@U?$TFlags4StateShift@USMediaFlagUid@libmedia@UModSys@@I$05@tl@UModSys@@@SFlags@libmedia@UModSys@@QBE_NPBUIResolverAuto@012@@Z 00406b84 f i umodsys_lib_libmedia:umodsys.mod.media.stdlib.obj
 0001:00005bd5       ??$yes@U?$TFlags4StateShift@USMediaFlagUid@libmedia@UModSys@@I$07@tl@UModSys@@@SFlags@libmedia@UModSys@@QBE_NPBUIResolverAuto@012@@Z 00406bd5 f i umodsys_lib_libmedia:umodsys.mod.media.stdlib.obj
 0001:00005c24       ??$yes@U?$TFlags4StateShift@USMediaFlagUid@libmedia@UModSys@@I$06@tl@UModSys@@@SFlags@libmedia@UModSys@@QBE_NPBUIResolverAuto@012@@Z 00406c24 f i umodsys_lib_libmedia:umodsys.mod.media.stdlib.obj
 0001:00005c75       ??$yes@U?$TFlags4StateShift@USMediaFlagUid@libmedia@UModSys@@I$08@tl@UModSys@@@SFlags@libmedia@UModSys@@QBE_NPBUIResolverAuto@012@@Z 00406c75 f i umodsys_lib_libmedia:umodsys.mod.media.stdlib.obj
 0001:00005cc6       ??$genx_node@UCmp@?$TScatterArray@USMountInfo@RLibraryBinTree@stdlib@media@modules@UModSys@@USId@ILibraryBinTree@libmedia@6@U7896@U?$TNodeDeleter0@U?$TScatterArrayNode@USMountInfo@RLibraryBinTree@stdlib@media@modules@UModSys@@USId@ILibraryBinTree@libmedia@6@@tl@UModSys@@@tl@6@@tl@UModSys@@UGen0@234@@?$TTreeHoldRBD@U?$TScatterArrayNode@USMountInfo@RLibraryBinTree@stdlib@media@modules@UModSys@@USId@ILibraryBinTree@libmedia@6@@tl@UModSys@@U?$TNodeDeleter0@U?$TScatterArrayNode@USMountInfo@RLibraryBinTree@stdlib@media@modules@UModSys@@USId@ILibraryBinTree@libmedia@6@@tl@UModSys@@@23@@tl@UModSys@@QAEPAU?$TScatterArrayNode@USMountInfo@RLibraryBinTree@stdlib@media@modules@UModSys@@USId@ILibraryBinTree@libmedia@6@@12@UCmp@?$TScatterArray@USMountInfo@RLibraryBinTree@stdlib@media@modules@UModSys@@USId@ILibraryBinTree@libmedia@6@U7896@U?$TNodeDeleter0@U?$TScatterArrayNode@USMountInfo@RLibraryBinTree@stdlib@media@modules@UModSys@@USId@ILibraryBinTree@libmedia@6@@tl@UModSys@@@tl@6@@12@ABUGen0@512@PAPAU312@2_N@Z 00406cc6 f i umodsys_lib_libmedia:umodsys.mod.media.stdlib.obj
 0001:00005d44       ??$find_node_u@UCmp@?$TScatterArray@USMountInfo@RLibraryBinTree@stdlib@media@modules@UModSys@@USId@ILibraryBinTree@libmedia@6@U7896@U?$TNodeDeleter0@U?$TScatterArrayNode@USMountInfo@RLibraryBinTree@stdlib@media@modules@UModSys@@USId@ILibraryBinTree@libmedia@6@@tl@UModSys@@@tl@6@@tl@UModSys@@@?$TTreeHoldRB@U?$TScatterArrayNode@USMountInfo@RLibraryBinTree@stdlib@media@modules@UModSys@@USId@ILibraryBinTree@libmedia@6@@tl@UModSys@@@tl@UModSys@@QBEPAU?$TScatterArrayNode@USMountInfo@RLibraryBinTree@stdlib@media@modules@UModSys@@USId@ILibraryBinTree@libmedia@6@@12@UCmp@?$TScatterArray@USMountInfo@RLibraryBinTree@stdlib@media@modules@UModSys@@USId@ILibraryBinTree@libmedia@6@U7896@U?$TNodeDeleter0@U?$TScatterArrayNode@USMountInfo@RLibraryBinTree@stdlib@media@modules@UModSys@@USId@ILibraryBinTree@libmedia@6@@tl@UModSys@@@tl@6@@12@@Z 00406d44 f i umodsys_lib_libmedia:umodsys.mod.media.stdlib.obj
 0001:00005d70       ??$genx_node@UCmp@?$TScatterArray@USCacheElem@RLibraryBinCache@stdlib@media@modules@UModSys@@U?$TString@U?$TSCoreConst@D@su@tl@UModSys@@U?$TComparerBinaryHash@D@234@@tl@6@U?$TObjectCompare@U?$TString@U?$TSCoreConst@D@su@tl@UModSys@@U?$TComparerBinaryHash@D@234@@tl@UModSys@@@core@6@U?$TNodeDeleter0@U?$TScatterArrayNode@USCacheElem@RLibraryBinCache@stdlib@media@modules@UModSys@@U?$TString@U?$TSCoreConst@D@su@tl@UModSys@@U?$TComparerBinaryHash@D@234@@tl@6@@tl@UModSys@@@86@@tl@UModSys@@UGen0@234@@?$TTreeHoldRBD@U?$TScatterArrayNode@USCacheElem@RLibraryBinCache@stdlib@media@modules@UModSys@@U?$TString@U?$TSCoreConst@D@su@tl@UModSys@@U?$TComparerBinaryHash@D@234@@tl@6@@tl@UModSys@@U?$TNodeDeleter0@U?$TScatterArrayNode@USCacheElem@RLibraryBinCache@stdlib@media@modules@UModSys@@U?$TString@U?$TSCoreConst@D@su@tl@UModSys@@U?$TComparerBinaryHash@D@234@@tl@6@@tl@UModSys@@@23@@tl@UModSys@@QAEPAU?$TScatterArrayNode@USCacheElem@RLibraryBinCache@stdlib@media@modules@UModSys@@U?$TString@U?$TSCoreConst@D@su@tl@UModSys@@U?$TComparerBinaryHash@D@234@@tl@6@@12@UCmp@?$TScatterArray@USCacheElem@RLibraryBinCache@stdlib@media@modules@UModSys@@U?$TString@U?$TSCoreConst@D@su@tl@UModSys@@U?$TComparerBinaryHash@D@234@@tl@6@U?$TObjectCompare@U?$TString@U?$TSCoreConst@D@su@tl@UModSys@@U?$TComparerBinaryHash@D@234@@tl@UModSys@@@core@6@U?$TNodeDeleter0@U?$TScatterArrayNode@USCacheElem@RLibraryBinCache@stdlib@media@modules@UModSys@@U?$TString@U?$TSCoreConst@D@su@tl@UModSys@@U?$TComparerBinaryHash@D@234@@tl@6@@tl@UModSys@@@86@@12@ABUGen0@512@PAPAU312@2_N@Z 00406d70 f i umodsys_lib_libmedia:umodsys.mod.media.stdlib.obj
 0001:00005def       ??$genx_node@UCmp@?$TScatterArray@USCacheElem@RLibraryObjCache@stdlib@media@modules@UModSys@@U?$TString@U?$TSCoreConst@D@su@tl@UModSys@@U?$TComparerBinaryHash@D@234@@tl@6@U?$TObjectCompare@U?$TString@U?$TSCoreConst@D@su@tl@UModSys@@U?$TComparerBinaryHash@D@234@@tl@UModSys@@@core@6@U?$TNodeDeleter0@U?$TScatterArrayNode@USCacheElem@RLibraryObjCache@stdlib@media@modules@UModSys@@U?$TString@U?$TSCoreConst@D@su@tl@UModSys@@U?$TComparerBinaryHash@D@234@@tl@6@@tl@UModSys@@@86@@tl@UModSys@@UGen0@234@@?$TTreeHoldRBD@U?$TScatterArrayNode@USCacheElem@RLibraryObjCache@stdlib@media@modules@UModSys@@U?$TString@U?$TSCoreConst@D@su@tl@UModSys@@U?$TComparerBinaryHash@D@234@@tl@6@@tl@UModSys@@U?$TNodeDeleter0@U?$TScatterArrayNode@USCacheElem@RLibraryObjCache@stdlib@media@modules@UModSys@@U?$TString@U?$TSCoreConst@D@su@tl@UModSys@@U?$TComparerBinaryHash@D@234@@tl@6@@tl@UModSys@@@23@@tl@UModSys@@QAEPAU?$TScatterArrayNode@USCacheElem@RLibraryObjCache@stdlib@media@modules@UModSys@@U?$TString@U?$TSCoreConst@D@su@tl@UModSys@@U?$TComparerBinaryHash@D@234@@tl@6@@12@UCmp@?$TScatterArray@USCacheElem@RLibraryObjCache@stdlib@media@modules@UModSys@@U?$TString@U?$TSCoreConst@D@su@tl@UModSys@@U?$TComparerBinaryHash@D@234@@tl@6@U?$TObjectCompare@U?$TString@U?$TSCoreConst@D@su@tl@UModSys@@U?$TComparerBinaryHash@D@234@@tl@UModSys@@@core@6@U?$TNodeDeleter0@U?$TScatterArrayNode@USCacheElem@RLibraryObjCache@stdlib@media@modules@UModSys@@U?$TString@U?$TSCoreConst@D@su@tl@UModSys@@U?$TComparerBinaryHash@D@234@@tl@6@@tl@UModSys@@@86@@12@ABUGen0@512@PAPAU312@2_N@Z 00406def f i umodsys_lib_libmedia:umodsys.mod.media.stdlib.obj
 0001:00005e6e       ??$find_node_u@UCmp@?$TScatterArray@USCacheElem@RLibraryObjCache@stdlib@media@modules@UModSys@@U?$TString@U?$TSCoreConst@D@su@tl@UModSys@@U?$TComparerBinaryHash@D@234@@tl@6@U?$TObjectCompare@U?$TString@U?$TSCoreConst@D@su@tl@UModSys@@U?$TComparerBinaryHash@D@234@@tl@UModSys@@@core@6@U?$TNodeDeleter0@U?$TScatterArrayNode@USCacheElem@RLibraryObjCache@stdlib@media@modules@UModSys@@U?$TString@U?$TSCoreConst@D@su@tl@UModSys@@U?$TComparerBinaryHash@D@234@@tl@6@@tl@UModSys@@@86@@tl@UModSys@@@?$TTreeHoldRB@U?$TScatterArrayNode@USCacheElem@RLibraryObjCache@stdlib@media@modules@UModSys@@U?$TString@U?$TSCoreConst@D@su@tl@UModSys@@U?$TComparerBinaryHash@D@234@@tl@6@@tl@UModSys@@@tl@UModSys@@QBEPAU?$TScatterArrayNode@USCacheElem@RLibraryObjCache@stdlib@media@modules@UModSys@@U?$TString@U?$TSCoreConst@D@su@tl@UModSys@@U?$TComparerBinaryHash@D@234@@tl@6@@12@UCmp@?$TScatterArray@USCacheElem@RLibraryObjCache@stdlib@media@modules@UModSys@@U?$TString@U?$TSCoreConst@D@su@tl@UModSys@@U?$TComparerBinaryHash@D@234@@tl@6@U?$TObjectCompare@U?$TString@U?$TSCoreConst@D@su@tl@UModSys@@U?$TComparerBinaryHash@D@234@@tl@UModSys@@@core@6@U?$TNodeDeleter0@U?$TScatterArrayNode@USCacheElem@RLibraryObjCache@stdlib@media@modules@UModSys@@U?$TString@U?$TSCoreConst@D@su@tl@UModSys@@U?$TComparerBinaryHash@D@234@@tl@6@@tl@UModSys@@@86@@12@@Z 00406e6e f i umodsys_lib_libmedia:umodsys.mod.media.stdlib.obj
 0001:00005e6e       ??$find_node_u@UCmp@?$TScatterArray@USCacheElem@RLibraryBinCache@stdlib@media@modules@UModSys@@U?$TString@U?$TSCoreConst@D@su@tl@UModSys@@U?$TComparerBinaryHash@D@234@@tl@6@U?$TObjectCompare@U?$TString@U?$TSCoreConst@D@su@tl@UModSys@@U?$TComparerBinaryHash@D@234@@tl@UModSys@@@core@6@U?$TNodeDeleter0@U?$TScatterArrayNode@USCacheElem@RLibraryBinCache@stdlib@media@modules@UModSys@@U?$TString@U?$TSCoreConst@D@su@tl@UModSys@@U?$TComparerBinaryHash@D@234@@tl@6@@tl@UModSys@@@86@@tl@UModSys@@@?$TTreeHoldRB@U?$TScatterArrayNode@USCacheElem@RLibraryBinCache@stdlib@media@modules@UModSys@@U?$TString@U?$TSCoreConst@D@su@tl@UModSys@@U?$TComparerBinaryHash@D@234@@tl@6@@tl@UModSys@@@tl@UModSys@@QBEPAU?$TScatterArrayNode@USCacheElem@RLibraryBinCache@stdlib@media@modules@UModSys@@U?$TString@U?$TSCoreConst@D@su@tl@UModSys@@U?$TComparerBinaryHash@D@234@@tl@6@@12@UCmp@?$TScatterArray@USCacheElem@RLibraryBinCache@stdlib@media@modules@UModSys@@U?$TString@U?$TSCoreConst@D@su@tl@UModSys@@U?$TComparerBinaryHash@D@234@@tl@6@U?$TObjectCompare@U?$TString@U?$TSCoreConst@D@su@tl@UModSys@@U?$TComparerBinaryHash@D@234@@tl@UModSys@@@core@6@U?$TNodeDeleter0@U?$TScatterArrayNode@USCacheElem@RLibraryBinCache@stdlib@media@modules@UModSys@@U?$TString@U?$TSCoreConst@D@su@tl@UModSys@@U?$TComparerBinaryHash@D@234@@tl@6@@tl@UModSys@@@86@@12@@Z 00406e6e f i umodsys_lib_libmedia:umodsys.mod.media.stdlib.obj
 0001:00005e9b       ??$find_node_u@UCmp@?$TScatterArray@USFilter@RLibraryObjFilter@stdlib@media@modules@UModSys@@USId@23456@U723456@U?$TNodeDeleter0@U?$TScatterArrayNode@USFilter@RLibraryObjFilter@stdlib@media@modules@UModSys@@USId@23456@@tl@UModSys@@@tl@6@@tl@UModSys@@@?$TTreeHoldRB@U?$TScatterArrayNode@USFilter@RLibraryObjFilter@stdlib@media@modules@UModSys@@USId@23456@@tl@UModSys@@@tl@UModSys@@QBEPAU?$TScatterArrayNode@USFilter@RLibraryObjFilter@stdlib@media@modules@UModSys@@USId@23456@@12@UCmp@?$TScatterArray@USFilter@RLibraryObjFilter@stdlib@media@modules@UModSys@@USId@23456@U723456@U?$TNodeDeleter0@U?$TScatterArrayNode@USFilter@RLibraryObjFilter@stdlib@media@modules@UModSys@@USId@23456@@tl@UModSys@@@tl@6@@12@@Z 00406e9b f i umodsys_lib_libmedia:umodsys.mod.media.stdlib.obj
 0001:00005ec7       ?cmp3@?$TComparerBinaryHash@D@su@tl@UModSys@@QBEHPBDI0IABUSComparerHash@234@@Z 00406ec7 f i umodsys_lib_libmedia:umodsys.mod.media.stdlib.obj
 0001:00005f0a       ?ReLink@?$TDynarray@U?$TDynarrayHolderDynamic@UBuffer@RUtilities@stdlib@media@modules@UModSys@@U?$TAllocator@USIMemAlloc@core@UModSys@@USCountCalcPower2@23@@tl@6@@tl@UModSys@@@tl@UModSys@@IAE_NI@Z 00406f0a f i umodsys_lib_libmedia:umodsys.mod.media.stdlib.obj
 0001:00005f4c       ?sub_insert_node@?$TTreeHoldRB@U?$TScatterArrayNode@USCacheElem@RLibraryBinCache@stdlib@media@modules@UModSys@@U?$TString@U?$TSCoreConst@D@su@tl@UModSys@@U?$TComparerBinaryHash@D@234@@tl@6@@tl@UModSys@@@tl@UModSys@@QAEXPAU?$TScatterArrayNode@USCacheElem@RLibraryBinCache@stdlib@media@modules@UModSys@@U?$TString@U?$TSCoreConst@D@su@tl@UModSys@@U?$TComparerBinaryHash@D@234@@tl@6@@23@0H@Z 00406f4c f i umodsys_lib_libmedia:umodsys.mod.media.stdlib.obj
 0001:00005f4c       ?sub_insert_node@?$TTreeHoldRB@UNameNode@IBinArchiveFrame@libmedia@UModSys@@@tl@UModSys@@QAEXPAUNameNode@IBinArchiveFrame@libmedia@3@0H@Z 00406f4c f i umodsys_lib_libmedia:umodsys.mod.media.stdlib.obj
 0001:00005f4c       ?sub_insert_node@?$TTreeHoldRB@U?$TScatterArrayNode@USMountInfo@RLibraryBinTree@stdlib@media@modules@UModSys@@USId@ILibraryBinTree@libmedia@6@@tl@UModSys@@@tl@UModSys@@QAEXPAU?$TScatterArrayNode@USMountInfo@RLibraryBinTree@stdlib@media@modules@UModSys@@USId@ILibraryBinTree@libmedia@6@@23@0H@Z 00406f4c f i umodsys_lib_libmedia:umodsys.mod.media.stdlib.obj
 0001:00005f4c       ?sub_insert_node@?$TTreeHoldRB@U?$TScatterArrayNode@USFilter@RLibraryObjFilter@stdlib@media@modules@UModSys@@USId@23456@@tl@UModSys@@@tl@UModSys@@QAEXPAU?$TScatterArrayNode@USFilter@RLibraryObjFilter@stdlib@media@modules@UModSys@@USId@23456@@23@0H@Z 00406f4c f i umodsys_lib_libmedia:umodsys.mod.media.stdlib.obj
 0001:00005f4c       ?sub_insert_node@?$TTreeHoldRB@U?$TScatterArrayNode@USCacheElem@RLibraryObjCache@stdlib@media@modules@UModSys@@U?$TString@U?$TSCoreConst@D@su@tl@UModSys@@U?$TComparerBinaryHash@D@234@@tl@6@@tl@UModSys@@@tl@UModSys@@QAEXPAU?$TScatterArrayNode@USCacheElem@RLibraryObjCache@stdlib@media@modules@UModSys@@U?$TString@U?$TSCoreConst@D@su@tl@UModSys@@U?$TComparerBinaryHash@D@234@@tl@6@@23@0H@Z 00406f4c f i umodsys_lib_libmedia:umodsys.mod.media.stdlib.obj
 0001:00005f9a       ?rotate_right@?$TTreeHoldRB@UNameNode@IBinArchiveFrame@libmedia@UModSys@@@tl@UModSys@@IAEXPAUNameNode@IBinArchiveFrame@libmedia@3@@Z 00406f9a f i umodsys_lib_libmedia:umodsys.mod.media.stdlib.obj
 0001:00005f9a       ?rotate_right@?$TTreeHoldRB@U?$TQuantArrayNode@USSourceContext@core@UModSys@@$0BAA@@tl@UModSys@@@tl@UModSys@@IAEXPAU?$TQuantArrayNode@USSourceContext@core@UModSys@@$0BAA@@23@@Z 00406f9a f i umodsys_lib_basesys:umodsys.basesys.rsystem.obj
 0001:00005f9a       ?rotate_right@?$TTreeHoldRB@U?$TScatterArrayNode@USMountInfo@RLibraryBinTree@stdlib@media@modules@UModSys@@USId@ILibraryBinTree@libmedia@6@@tl@UModSys@@@tl@UModSys@@IAEXPAU?$TScatterArrayNode@USMountInfo@RLibraryBinTree@stdlib@media@modules@UModSys@@USId@ILibraryBinTree@libmedia@6@@23@@Z 00406f9a f i umodsys_lib_libmedia:umodsys.mod.media.stdlib.obj
 0001:00005f9a       ?rotate_right@?$TTreeHoldRB@U?$TQuantArrayNode@USUniquePointerInfo@core@UModSys@@$0BAA@@tl@UModSys@@@tl@UModSys@@IAEXPAU?$TQuantArrayNode@USUniquePointerInfo@core@UModSys@@$0BAA@@23@@Z 00406f9a f i umodsys_lib_basesys:umodsys.basesys.rsystem.obj
 0001:00005f9a       ?rotate_right@?$TTreeHoldRB@U?$TScatterArrayNode@USCacheElem@RLibraryBinCache@stdlib@media@modules@UModSys@@U?$TString@U?$TSCoreConst@D@su@tl@UModSys@@U?$TComparerBinaryHash@D@234@@tl@6@@tl@UModSys@@@tl@UModSys@@IAEXPAU?$TScatterArrayNode@USCacheElem@RLibraryBinCache@stdlib@media@modules@UModSys@@U?$TString@U?$TSCoreConst@D@su@tl@UModSys@@U?$TComparerBinaryHash@D@234@@tl@6@@23@@Z 00406f9a f i umodsys_lib_libmedia:umodsys.mod.media.stdlib.obj
 0001:00005f9a       ?rotate_right@?$TTreeHoldRB@U?$TScatterArrayNode@USFilter@RLibraryObjFilter@stdlib@media@modules@UModSys@@USId@23456@@tl@UModSys@@@tl@UModSys@@IAEXPAU?$TScatterArrayNode@USFilter@RLibraryObjFilter@stdlib@media@modules@UModSys@@USId@23456@@23@@Z 00406f9a f i umodsys_lib_libmedia:umodsys.mod.media.stdlib.obj
 0001:00005f9a       ?rotate_right@?$TTreeHoldRB@U?$TScatterArrayNode@USCacheElem@RLibraryObjCache@stdlib@media@modules@UModSys@@U?$TString@U?$TSCoreConst@D@su@tl@UModSys@@U?$TComparerBinaryHash@D@234@@tl@6@@tl@UModSys@@@tl@UModSys@@IAEXPAU?$TScatterArrayNode@USCacheElem@RLibraryObjCache@stdlib@media@modules@UModSys@@U?$TString@U?$TSCoreConst@D@su@tl@UModSys@@U?$TComparerBinaryHash@D@234@@tl@6@@23@@Z 00406f9a f i umodsys_lib_libmedia:umodsys.mod.media.stdlib.obj
 0001:00005fd9       ?rotate_left@?$TTreeHoldRB@U?$TScatterArrayNode@USCacheElem@RLibraryBinCache@stdlib@media@modules@UModSys@@U?$TString@U?$TSCoreConst@D@su@tl@UModSys@@U?$TComparerBinaryHash@D@234@@tl@6@@tl@UModSys@@@tl@UModSys@@IAEXPAU?$TScatterArrayNode@USCacheElem@RLibraryBinCache@stdlib@media@modules@UModSys@@U?$TString@U?$TSCoreConst@D@su@tl@UModSys@@U?$TComparerBinaryHash@D@234@@tl@6@@23@@Z 00406fd9 f i umodsys_lib_libmedia:umodsys.mod.media.stdlib.obj
 0001:00005fd9       ?rotate_left@?$TTreeHoldRB@U?$TQuantArrayNode@USUniquePointerInfo@core@UModSys@@$0BAA@@tl@UModSys@@@tl@UModSys@@IAEXPAU?$TQuantArrayNode@USUniquePointerInfo@core@UModSys@@$0BAA@@23@@Z 00406fd9 f i umodsys_lib_basesys:umodsys.basesys.rsystem.obj
 0001:00005fd9       ?rotate_left@?$TTreeHoldRB@UNameNode@IBinArchiveFrame@libmedia@UModSys@@@tl@UModSys@@IAEXPAUNameNode@IBinArchiveFrame@libmedia@3@@Z 00406fd9 f i umodsys_lib_libmedia:umodsys.mod.media.stdlib.obj
 0001:00005fd9       ?rotate_left@?$TTreeHoldRB@U?$TQuantArrayNode@USSourceContext@core@UModSys@@$0BAA@@tl@UModSys@@@tl@UModSys@@IAEXPAU?$TQuantArrayNode@USSourceContext@core@UModSys@@$0BAA@@23@@Z 00406fd9 f i umodsys_lib_basesys:umodsys.basesys.rsystem.obj
 0001:00005fd9       ?rotate_left@?$TTreeHoldRB@U?$TScatterArrayNode@USCacheElem@RLibraryObjCache@stdlib@media@modules@UModSys@@U?$TString@U?$TSCoreConst@D@su@tl@UModSys@@U?$TComparerBinaryHash@D@234@@tl@6@@tl@UModSys@@@tl@UModSys@@IAEXPAU?$TScatterArrayNode@USCacheElem@RLibraryObjCache@stdlib@media@modules@UModSys@@U?$TString@U?$TSCoreConst@D@su@tl@UModSys@@U?$TComparerBinaryHash@D@234@@tl@6@@23@@Z 00406fd9 f i umodsys_lib_libmedia:umodsys.mod.media.stdlib.obj
 0001:00005fd9       ?rotate_left@?$TTreeHoldRB@U?$TScatterArrayNode@USMountInfo@RLibraryBinTree@stdlib@media@modules@UModSys@@USId@ILibraryBinTree@libmedia@6@@tl@UModSys@@@tl@UModSys@@IAEXPAU?$TScatterArrayNode@USMountInfo@RLibraryBinTree@stdlib@media@modules@UModSys@@USId@ILibraryBinTree@libmedia@6@@23@@Z 00406fd9 f i umodsys_lib_libmedia:umodsys.mod.media.stdlib.obj
 0001:00005fd9       ?rotate_left@?$TTreeHoldRB@U?$TScatterArrayNode@USFilter@RLibraryObjFilter@stdlib@media@modules@UModSys@@USId@23456@@tl@UModSys@@@tl@UModSys@@IAEXPAU?$TScatterArrayNode@USFilter@RLibraryObjFilter@stdlib@media@modules@UModSys@@USId@23456@@23@@Z 00406fd9 f i umodsys_lib_libmedia:umodsys.mod.media.stdlib.obj
 0001:00006018       ?ReLink@?$TDynarray@U?$TDynarrayHolderDynamic@USLayerX@RLibraryLayered@stdlib@media@modules@UModSys@@U?$TAllocator@USIMemAlloc@core@UModSys@@USCountCalcPower2@23@@tl@6@@tl@UModSys@@@tl@UModSys@@IAE_NI@Z 00407018 f i umodsys_lib_libmedia:umodsys.mod.media.stdlib.obj
 0001:0000605a       ?items_construct@?$TDynarray@U?$TDynarrayHolderDynamic@USLayerX@RLibraryLayered@stdlib@media@modules@UModSys@@U?$TAllocator@USIMemAlloc@core@UModSys@@USCountCalcPower2@23@@tl@6@@tl@UModSys@@@tl@UModSys@@IAEXII@Z 0040705a f i umodsys_lib_libmedia:umodsys.mod.media.stdlib.obj
 0001:000060b9       ??RCmp@?$TScatterArray@USMountInfo@RLibraryBinTree@stdlib@media@modules@UModSys@@USId@ILibraryBinTree@libmedia@6@U7896@U?$TNodeDeleter0@U?$TScatterArrayNode@USMountInfo@RLibraryBinTree@stdlib@media@modules@UModSys@@USId@ILibraryBinTree@libmedia@6@@tl@UModSys@@@tl@6@@tl@UModSys@@QBEHPBU?$TScatterArrayNode@USMountInfo@RLibraryBinTree@stdlib@media@modules@UModSys@@USId@ILibraryBinTree@libmedia@6@@23@@Z 004070b9 f i umodsys_lib_libmedia:umodsys.mod.media.stdlib.obj
 0001:000060e6       ??RCmp@?$TScatterArray@USFilter@RLibraryObjFilter@stdlib@media@modules@UModSys@@USId@23456@U723456@U?$TNodeDeleter0@U?$TScatterArrayNode@USFilter@RLibraryObjFilter@stdlib@media@modules@UModSys@@USId@23456@@tl@UModSys@@@tl@6@@tl@UModSys@@QBEHPBU?$TScatterArrayNode@USFilter@RLibraryObjFilter@stdlib@media@modules@UModSys@@USId@23456@@23@@Z 004070e6 f i umodsys_lib_libmedia:umodsys.mod.media.stdlib.obj
 0001:0000611e       ??RGen0@?$TScatterArray@USFilter@RLibraryObjFilter@stdlib@media@modules@UModSys@@USId@23456@U723456@U?$TNodeDeleter0@U?$TScatterArrayNode@USFilter@RLibraryObjFilter@stdlib@media@modules@UModSys@@USId@23456@@tl@UModSys@@@tl@6@@tl@UModSys@@QBEPAU?$TScatterArrayNode@USFilter@RLibraryObjFilter@stdlib@media@modules@UModSys@@USId@23456@@23@ABUCmp@123@ABU?$TTreeHoldRBD@U?$TScatterArrayNode@USFilter@RLibraryObjFilter@stdlib@media@modules@UModSys@@USId@23456@@tl@UModSys@@U?$TNodeDeleter0@U?$TScatterArrayNode@USFilter@RLibraryObjFilter@stdlib@media@modules@UModSys@@USId@23456@@tl@UModSys@@@23@@23@@Z 0040711e f i umodsys_lib_libmedia:umodsys.mod.media.stdlib.obj
 0001:0000616c       ?amoveright@?$TTypeConstructor@USLayerX@RLibraryLayered@stdlib@media@modules@UModSys@@@tl@UModSys@@SAXPAUSLayerX@RLibraryLayered@stdlib@media@modules@3@III@Z 0040716c f i umodsys_lib_libmedia:umodsys.mod.media.stdlib.obj
 0001:000061c9       ?amoveleft@?$TTypeConstructor@USLayerX@RLibraryLayered@stdlib@media@modules@UModSys@@@tl@UModSys@@SAXPAUSLayerX@RLibraryLayered@stdlib@media@modules@3@III@Z 004071c9 f i umodsys_lib_libmedia:umodsys.mod.media.stdlib.obj
 0001:00006228       ??0SLayerX@RLibraryLayered@stdlib@media@modules@UModSys@@QAE@ABU012345@@Z 00407228 f i umodsys_lib_libmedia:umodsys.mod.media.stdlib.obj
 0001:00006261       ??_GSLayerX@RLibraryLayered@stdlib@media@modules@UModSys@@QAEPAXI@Z 00407261 f i umodsys_lib_libmedia:umodsys.mod.media.stdlib.obj
 0001:000062a2       ??0?$TString@U?$TSCoreShared@USIMemAlloc@core@UModSys@@D@su@tl@UModSys@@U?$TComparerBinaryHash@D@234@@tl@UModSys@@QAE@ABU012@@Z 004072a2 f i umodsys_lib_libmedia:umodsys.mod.media.stdlib.obj
 0001:000062cf       ??0?$TScatterArrayNode@USMountInfo@RLibraryBinTree@stdlib@media@modules@UModSys@@USId@ILibraryBinTree@libmedia@6@@tl@UModSys@@QAE@ABUSId@ILibraryBinTree@libmedia@2@@Z 004072cf f i umodsys_lib_libmedia:umodsys.mod.media.stdlib.obj
 0001:00006369       ??0?$TScatterArrayNode@USCacheElem@RLibraryBinCache@stdlib@media@modules@UModSys@@U?$TString@U?$TSCoreConst@D@su@tl@UModSys@@U?$TComparerBinaryHash@D@234@@tl@6@@tl@UModSys@@QAE@ABU?$TString@U?$TSCoreConst@D@su@tl@UModSys@@U?$TComparerBinaryHash@D@234@@12@@Z 00407369 f i umodsys_lib_libmedia:umodsys.mod.media.stdlib.obj
 0001:00006403       ??0?$TScatterArrayNode@USCacheElem@RLibraryObjCache@stdlib@media@modules@UModSys@@U?$TString@U?$TSCoreConst@D@su@tl@UModSys@@U?$TComparerBinaryHash@D@234@@tl@6@@tl@UModSys@@QAE@ABU?$TString@U?$TSCoreConst@D@su@tl@UModSys@@U?$TComparerBinaryHash@D@234@@12@@Z 00407403 f i umodsys_lib_libmedia:umodsys.mod.media.stdlib.obj
 0001:0000649d       ?insert_color@?$TTreeHoldRB@U?$TScatterArrayNode@USFilter@RLibraryObjFilter@stdlib@media@modules@UModSys@@USId@23456@@tl@UModSys@@@tl@UModSys@@IAEXPAU?$TScatterArrayNode@USFilter@RLibraryObjFilter@stdlib@media@modules@UModSys@@USId@23456@@23@@Z 0040749d f i umodsys_lib_libmedia:umodsys.mod.media.stdlib.obj
 0001:0000649d       ?insert_color@?$TTreeHoldRB@U?$TScatterArrayNode@USCacheElem@RLibraryBinCache@stdlib@media@modules@UModSys@@U?$TString@U?$TSCoreConst@D@su@tl@UModSys@@U?$TComparerBinaryHash@D@234@@tl@6@@tl@UModSys@@@tl@UModSys@@IAEXPAU?$TScatterArrayNode@USCacheElem@RLibraryBinCache@stdlib@media@modules@UModSys@@U?$TString@U?$TSCoreConst@D@su@tl@UModSys@@U?$TComparerBinaryHash@D@234@@tl@6@@23@@Z 0040749d f i umodsys_lib_libmedia:umodsys.mod.media.stdlib.obj
 0001:0000649d       ?insert_color@?$TTreeHoldRB@U?$TScatterArrayNode@USCacheElem@RLibraryObjCache@stdlib@media@modules@UModSys@@U?$TString@U?$TSCoreConst@D@su@tl@UModSys@@U?$TComparerBinaryHash@D@234@@tl@6@@tl@UModSys@@@tl@UModSys@@IAEXPAU?$TScatterArrayNode@USCacheElem@RLibraryObjCache@stdlib@media@modules@UModSys@@U?$TString@U?$TSCoreConst@D@su@tl@UModSys@@U?$TComparerBinaryHash@D@234@@tl@6@@23@@Z 0040749d f i umodsys_lib_libmedia:umodsys.mod.media.stdlib.obj
 0001:0000649d       ?insert_color@?$TTreeHoldRB@UNameNode@IBinArchiveFrame@libmedia@UModSys@@@tl@UModSys@@IAEXPAUNameNode@IBinArchiveFrame@libmedia@3@@Z 0040749d f i umodsys_lib_libmedia:umodsys.mod.media.stdlib.obj
 0001:0000649d       ?insert_color@?$TTreeHoldRB@U?$TQuantArrayNode@USUniquePointerInfo@core@UModSys@@$0BAA@@tl@UModSys@@@tl@UModSys@@IAEXPAU?$TQuantArrayNode@USUniquePointerInfo@core@UModSys@@$0BAA@@23@@Z 0040749d f i umodsys_lib_basesys:umodsys.basesys.rsystem.obj
 0001:0000649d       ?insert_color@?$TTreeHoldRB@U?$TScatterArrayNode@USMountInfo@RLibraryBinTree@stdlib@media@modules@UModSys@@USId@ILibraryBinTree@libmedia@6@@tl@UModSys@@@tl@UModSys@@IAEXPAU?$TScatterArrayNode@USMountInfo@RLibraryBinTree@stdlib@media@modules@UModSys@@USId@ILibraryBinTree@libmedia@6@@23@@Z 0040749d f i umodsys_lib_libmedia:umodsys.mod.media.stdlib.obj
 0001:0000649d       ?insert_color@?$TTreeHoldRB@U?$TQuantArrayNode@USSourceContext@core@UModSys@@$0BAA@@tl@UModSys@@@tl@UModSys@@IAEXPAU?$TQuantArrayNode@USSourceContext@core@UModSys@@$0BAA@@23@@Z 0040749d f i umodsys_lib_basesys:umodsys.basesys.rsystem.obj
 0001:0000654b       ??$process_nodes_r@U?$TNodeDeleter0@UNameNode@IBinArchiveFrame@libmedia@UModSys@@@tl@UModSys@@@?$TTreeHoldRB@UNameNode@IBinArchiveFrame@libmedia@UModSys@@@tl@UModSys@@KAHPAUNameNode@IBinArchiveFrame@libmedia@2@ABU?$TNodeDeleter0@UNameNode@IBinArchiveFrame@libmedia@UModSys@@@12@@Z 0040754b f i umodsys_lib_libmedia:umodsys.mod.media.stdlib.obj
 0001:0000658c       ??$process_nodes_r@U?$TNodeDeleter0@U?$TScatterArrayNode@USMountInfo@RLibraryBinTree@stdlib@media@modules@UModSys@@USId@ILibraryBinTree@libmedia@6@@tl@UModSys@@@tl@UModSys@@@?$TTreeHoldRB@U?$TScatterArrayNode@USMountInfo@RLibraryBinTree@stdlib@media@modules@UModSys@@USId@ILibraryBinTree@libmedia@6@@tl@UModSys@@@tl@UModSys@@KAHPAU?$TScatterArrayNode@USMountInfo@RLibraryBinTree@stdlib@media@modules@UModSys@@USId@ILibraryBinTree@libmedia@6@@12@ABU?$TNodeDeleter0@U?$TScatterArrayNode@USMountInfo@RLibraryBinTree@stdlib@media@modules@UModSys@@USId@ILibraryBinTree@libmedia@6@@tl@UModSys@@@12@@Z 0040758c f i umodsys_lib_libmedia:umodsys.mod.media.stdlib.obj
 0001:000065d6       ??$process_nodes_r@U?$TNodeDeleter0@U?$TScatterArrayNode@USCacheElem@RLibraryBinCache@stdlib@media@modules@UModSys@@U?$TString@U?$TSCoreConst@D@su@tl@UModSys@@U?$TComparerBinaryHash@D@234@@tl@6@@tl@UModSys@@@tl@UModSys@@@?$TTreeHoldRB@U?$TScatterArrayNode@USCacheElem@RLibraryBinCache@stdlib@media@modules@UModSys@@U?$TString@U?$TSCoreConst@D@su@tl@UModSys@@U?$TComparerBinaryHash@D@234@@tl@6@@tl@UModSys@@@tl@UModSys@@KAHPAU?$TScatterArrayNode@USCacheElem@RLibraryBinCache@stdlib@media@modules@UModSys@@U?$TString@U?$TSCoreConst@D@su@tl@UModSys@@U?$TComparerBinaryHash@D@234@@tl@6@@12@ABU?$TNodeDeleter0@U?$TScatterArrayNode@USCacheElem@RLibraryBinCache@stdlib@media@modules@UModSys@@U?$TString@U?$TSCoreConst@D@su@tl@UModSys@@U?$TComparerBinaryHash@D@234@@tl@6@@tl@UModSys@@@12@@Z 004075d6 f i umodsys_lib_libmedia:umodsys.mod.media.stdlib.obj
 0001:00006620       ??$process_nodes_r@U?$TNodeDeleter0@U?$TScatterArrayNode@USCacheElem@RLibraryObjCache@stdlib@media@modules@UModSys@@U?$TString@U?$TSCoreConst@D@su@tl@UModSys@@U?$TComparerBinaryHash@D@234@@tl@6@@tl@UModSys@@@tl@UModSys@@@?$TTreeHoldRB@U?$TScatterArrayNode@USCacheElem@RLibraryObjCache@stdlib@media@modules@UModSys@@U?$TString@U?$TSCoreConst@D@su@tl@UModSys@@U?$TComparerBinaryHash@D@234@@tl@6@@tl@UModSys@@@tl@UModSys@@KAHPAU?$TScatterArrayNode@USCacheElem@RLibraryObjCache@stdlib@media@modules@UModSys@@U?$TString@U?$TSCoreConst@D@su@tl@UModSys@@U?$TComparerBinaryHash@D@234@@tl@6@@12@ABU?$TNodeDeleter0@U?$TScatterArrayNode@USCacheElem@RLibraryObjCache@stdlib@media@modules@UModSys@@U?$TString@U?$TSCoreConst@D@su@tl@UModSys@@U?$TComparerBinaryHash@D@234@@tl@6@@tl@UModSys@@@12@@Z 00407620 f i umodsys_lib_libmedia:umodsys.mod.media.stdlib.obj
 0001:0000666a       ??$process_nodes_r@U?$TNodeDeleter0@U?$TScatterArrayNode@USFilter@RLibraryObjFilter@stdlib@media@modules@UModSys@@USId@23456@@tl@UModSys@@@tl@UModSys@@@?$TTreeHoldRB@U?$TScatterArrayNode@USFilter@RLibraryObjFilter@stdlib@media@modules@UModSys@@USId@23456@@tl@UModSys@@@tl@UModSys@@KAHPAU?$TScatterArrayNode@USFilter@RLibraryObjFilter@stdlib@media@modules@UModSys@@USId@23456@@12@ABU?$TNodeDeleter0@U?$TScatterArrayNode@USFilter@RLibraryObjFilter@stdlib@media@modules@UModSys@@USId@23456@@tl@UModSys@@@12@@Z 0040766a f i umodsys_lib_libmedia:umodsys.mod.media.stdlib.obj
 0001:000066bb       ??1SFilter@RLibraryObjFilter@stdlib@media@modules@UModSys@@QAE@XZ 004076bb f i umodsys_lib_libmedia:umodsys.mod.media.stdlib.obj
 0001:000066bb       ??1?$TRefObject@UIShell@base@UModSys@@U?$TRefObjectFunc@UIShell@base@UModSys@@@tl@3@@tl@UModSys@@QAE@XZ 004076bb f i umodsys_lib_basesys:umodsys.basesys.rsystem_tests.obj
 0001:000066bb       ??1?$TRefObject@URLibraryObjCache@stdlib@media@modules@UModSys@@U?$TRefObjectFunc@URLibraryObjCache@stdlib@media@modules@UModSys@@@tl@5@@tl@UModSys@@QAE@XZ 004076bb f i umodsys_lib_libmedia:umodsys.mod.media.stdlib.obj
 0001:000066bb       ??1?$TRefObject@UIStreamReader@libmedia@UModSys@@U?$TRefObjectFunc@UIStreamReader@libmedia@UModSys@@@tl@3@@tl@UModSys@@QAE@XZ 004076bb f i umodsys_lib_libmedia:umodsys.mod.media.stdio.obj
 0001:000066bb       ??1?$TRefObject@URLibraryBinTree@stdlib@media@modules@UModSys@@U?$TRefObjectFunc@URLibraryBinTree@stdlib@media@modules@UModSys@@@tl@5@@tl@UModSys@@QAE@XZ 004076bb f i umodsys_lib_libmedia:umodsys.mod.media.stdlib.obj
 0001:000066bb       ??1?$TRefObject@UIRefObject@core@UModSys@@U?$TRefObjectFunc@UIRefObject@core@UModSys@@@tl@3@@tl@UModSys@@QAE@XZ 004076bb f i umodsys_lib_libmedia:umodsys.mod.media.stdlib.obj
 0001:000066bb       ??1?$TRefObject@UIBinObjFilter@libmedia@UModSys@@U?$TRefObjectFunc@UIBinObjFilter@libmedia@UModSys@@@tl@3@@tl@UModSys@@QAE@XZ 004076bb f i umodsys_lib_libmedia:umodsys.mod.media.stdlib.obj
 0001:000066bb       ??1?$TRefObject@UIModuleLibraryUni@rsystem@base@UModSys@@U?$TRefObjectFunc@UIModuleLibraryUni@rsystem@base@UModSys@@@tl@4@@tl@UModSys@@QAE@XZ 004076bb f i umodsys_lib_basesys:umodsys.basesys.rmodule.obj
 0001:000066bb       ??1?$TRefObject@URDataArchiver_OsDir@stdio@media@modules@UModSys@@U?$TRefObjectFunc@URDataArchiver_OsDir@stdio@media@modules@UModSys@@@tl@5@@tl@UModSys@@QAE@XZ 004076bb f i umodsys_lib_libmedia:umodsys.mod.media.stdio.obj
 0001:000066bb       ??1?$TRefObject@UIBinArchive@libmedia@UModSys@@U?$TRefObjectFunc@UIBinArchive@libmedia@UModSys@@@tl@3@@tl@UModSys@@QAE@XZ 004076bb f i umodsys_lib_libmedia:umodsys.mod.media.stdlib.obj
 0001:000066bb       ??1?$TRefObject@URBinArchiveFrame@stdlib@media@modules@UModSys@@U?$TRefObjectFunc@URBinArchiveFrame@stdlib@media@modules@UModSys@@@tl@5@@tl@UModSys@@QAE@XZ 004076bb f i umodsys_lib_libmedia:umodsys.mod.media.stdlib.obj
 0001:000066bb       ??1?$TRefObject@URStreamReader_FILE@stdio@media@modules@UModSys@@U?$TRefObjectFunc@URStreamReader_FILE@stdio@media@modules@UModSys@@@tl@5@@tl@UModSys@@QAE@XZ 004076bb f i umodsys_lib_libmedia:umodsys.mod.media.stdio.obj
 0001:000066bb       ??1?$TRefObject@URModuleLibrarySO@rsystem@base@UModSys@@U?$TRefObjectFunc@URModuleLibrarySO@rsystem@base@UModSys@@@tl@4@@tl@UModSys@@QAE@XZ 004076bb f i umodsys_lib_basesys:umodsys.basesys.rmoduleloader.obj
 0001:000066bb       ??1?$TRefObject@URUtilities@stdlib@media@modules@UModSys@@U?$TRefObjectFunc@URUtilities@stdlib@media@modules@UModSys@@@tl@5@@tl@UModSys@@QAE@XZ 004076bb f i umodsys_lib_libmedia:umodsys.mod.media.stdlib.obj
 0001:000066bb       ??1?$TRefObject@UIClient@IBinArchiveFrame@libmedia@UModSys@@U?$TRefObjectFunc@UIClient@IBinArchiveFrame@libmedia@UModSys@@@tl@4@@tl@UModSys@@QAE@XZ 004076bb f i umodsys_lib_libmedia:umodsys.mod.media.stdlib.obj
 0001:000066bb       ??1?$TRefObject@UIStreamWriter@libmedia@UModSys@@U?$TRefObjectFunc@UIStreamWriter@libmedia@UModSys@@@tl@3@@tl@UModSys@@QAE@XZ 004076bb f i umodsys_lib_libmedia:umodsys.mod.media.stdio.obj
 0001:000066bb       ??1?$TRefObject@URLibraryObjFilter@stdlib@media@modules@UModSys@@U?$TRefObjectFunc@URLibraryObjFilter@stdlib@media@modules@UModSys@@@tl@5@@tl@UModSys@@QAE@XZ 004076bb f i umodsys_lib_libmedia:umodsys.mod.media.stdlib.obj
 0001:000066bb       ??1?$TRefObject@URParameters@rsystem@base@UModSys@@U?$TRefObjectFunc@URParameters@rsystem@base@UModSys@@@tl@4@@tl@UModSys@@QAE@XZ 004076bb f i umodsys_lib_basesys:umodsys.basesys.rsystem_main.obj
 0001:000066bb       ??1?$TRefObject@URStreamWriter_FILE@stdio@media@modules@UModSys@@U?$TRefObjectFunc@URStreamWriter_FILE@stdio@media@modules@UModSys@@@tl@5@@tl@UModSys@@QAE@XZ 004076bb f i umodsys_lib_libmedia:umodsys.mod.media.stdio.obj
 0001:000066bb       ??1?$TRefObject@UILibrary@libmedia@UModSys@@U?$TRefObjectFunc@UILibrary@libmedia@UModSys@@@tl@3@@tl@UModSys@@QAE@XZ 004076bb f i umodsys_lib_libmedia:umodsys.mod.media.stdlib.obj
 0001:000066bb       ??1?$TRefObject@URLibraryBinCache@stdlib@media@modules@UModSys@@U?$TRefObjectFunc@URLibraryBinCache@stdlib@media@modules@UModSys@@@tl@5@@tl@UModSys@@QAE@XZ 004076bb f i umodsys_lib_libmedia:umodsys.mod.media.stdlib.obj
 0001:000066bb       ??1?$TRefObject@URLibraryLayered@stdlib@media@modules@UModSys@@U?$TRefObjectFunc@URLibraryLayered@stdlib@media@modules@UModSys@@@tl@5@@tl@UModSys@@QAE@XZ 004076bb f i umodsys_lib_libmedia:umodsys.mod.media.stdlib.obj
 0001:000066ca       ??0SVFileName@libmedia@UModSys@@QAE@ABU?$TString@U?$TSCoreConst@D@su@tl@UModSys@@U?$TComparerBinaryHash@D@234@@tl@2@0_N@Z 004076ca f   umodsys_lib_libmedia:umodsys.lib.media.common.obj
 0001:00006723       ?init@SVFileName@libmedia@UModSys@@QAEXPBDH_N@Z 00407723 f   umodsys_lib_libmedia:umodsys.lib.media.common.obj
 0001:000067de       ??$safe_snprintf@D@syshlp@core@UModSys@@YAIPADIPBDZZ 004077de f i umodsys_lib_libmedia:umodsys.lib.media.common.obj
 0001:000067fc       ?bin_reader@RLibraryBinCache@stdlib@media@modules@UModSys@@UAE?AU?$TRefObject@UIStreamReader@libmedia@UModSys@@U?$TRefObjectFunc@UIStreamReader@libmedia@UModSys@@@tl@3@@tl@5@ABU?$TString@U?$TSCoreConst@D@su@tl@UModSys@@U?$TComparerBinaryHash@D@234@@75@ABUSFlags@libmedia@5@@Z 004077fc f   umodsys_lib_libmedia:umodsys.mod.media.stdlib.obj
 0001:000067fc       ?bin_reader@ILibrary@libmedia@UModSys@@UAE?AU?$TRefObject@UIStreamReader@libmedia@UModSys@@U?$TRefObjectFunc@UIStreamReader@libmedia@UModSys@@@tl@3@@tl@3@ABU?$TString@U?$TSCoreConst@D@su@tl@UModSys@@U?$TComparerBinaryHash@D@234@@53@ABUSFlags@23@@Z 004077fc f   umodsys_lib_libmedia:umodsys.lib.media.library.obj
 0001:000067fc       ?bin_writer@RLibraryBinCache@stdlib@media@modules@UModSys@@UAE?AU?$TRefObject@UIStreamWriter@libmedia@UModSys@@U?$TRefObjectFunc@UIStreamWriter@libmedia@UModSys@@@tl@3@@tl@5@ABU?$TString@U?$TSCoreConst@D@su@tl@UModSys@@U?$TComparerBinaryHash@D@234@@75@ABUSFlags@libmedia@5@@Z 004077fc f   umodsys_lib_libmedia:umodsys.mod.media.stdlib.obj
 0001:000067fc       ?bin_writer@ILibrary@libmedia@UModSys@@UAE?AU?$TRefObject@UIStreamWriter@libmedia@UModSys@@U?$TRefObjectFunc@UIStreamWriter@libmedia@UModSys@@@tl@3@@tl@3@ABU?$TString@U?$TSCoreConst@D@su@tl@UModSys@@U?$TComparerBinaryHash@D@234@@53@ABUSFlags@23@@Z 004077fc f   umodsys_lib_libmedia:umodsys.lib.media.library.obj
 0001:0000680e       ?bin_put@ILibrary@libmedia@UModSys@@UAE_NABU?$TString@U?$TSCoreConst@D@su@tl@UModSys@@U?$TComparerBinaryHash@D@234@@tl@3@PBUSCMemShared@core@3@@Z 0040780e f   umodsys_lib_libmedia:umodsys.lib.media.library.obj
 0001:0000680e       ?obj_fload@ILibrary@libmedia@UModSys@@UAE_NABUSInfo@IBinObjFilter@23@PAUIRefObject@core@3@@Z 0040780e f   umodsys_lib_libmedia:umodsys.lib.media.library.obj
 0001:0000680e       ?obj_fget@ILibrary@libmedia@UModSys@@UAE_NABUSInfo@IBinObjFilter@23@AAU?$TRefObject@UIRefObject@core@UModSys@@U?$TRefObjectFunc@UIRefObject@core@UModSys@@@tl@3@@tl@3@@Z 0040780e f   umodsys_lib_libmedia:umodsys.lib.media.library.obj
 0001:0000680e       ?obj_cput@ILibrary@libmedia@UModSys@@UAE_NABU?$TString@U?$TSCoreConst@D@su@tl@UModSys@@U?$TComparerBinaryHash@D@234@@tl@3@PAUIRefObject@core@3@@Z 0040780e f   umodsys_lib_libmedia:umodsys.lib.media.library.obj
 0001:0000680e       ?obj_fsave@ILibrary@libmedia@UModSys@@UAE_NAAUSInfo@IBinObjFilter@23@PBUIRefObject@core@3@@Z 0040780e f   umodsys_lib_libmedia:umodsys.lib.media.library.obj
 0001:00006813       ?bin_save@ILibrary@libmedia@UModSys@@UAE_NABU?$TString@U?$TSCoreConst@D@su@tl@UModSys@@U?$TComparerBinaryHash@D@234@@tl@3@ABUSCMem@core@3@ABUSFlags@23@@Z 00407813 f   umodsys_lib_libmedia:umodsys.lib.media.library.obj
 0001:00006813       ?bin_info@ILibrary@libmedia@UModSys@@UAE_NABU?$TString@U?$TSCoreConst@D@su@tl@UModSys@@U?$TComparerBinaryHash@D@234@@tl@3@AAUSFileInfo@23@ABUSFlags@23@@Z 00407813 f   umodsys_lib_libmedia:umodsys.lib.media.library.obj
 0001:00006813       ?obj_get@ILibrary@libmedia@UModSys@@UAE_NABU?$TString@U?$TSCoreConst@D@su@tl@UModSys@@U?$TComparerBinaryHash@D@234@@tl@3@AAU?$TRefObject@UIRefObject@core@UModSys@@U?$TRefObjectFunc@UIRefObject@core@UModSys@@@tl@3@@53@ABUSObjOptions@123@@Z 00407813 f   umodsys_lib_libmedia:umodsys.lib.media.library.obj
 0001:00006813       ?obj_cget@ILibrary@libmedia@UModSys@@UAE_NABU?$TString@U?$TSCoreConst@D@su@tl@UModSys@@U?$TComparerBinaryHash@D@234@@tl@3@AAU?$TRefObject@UIRefObject@core@UModSys@@U?$TRefObjectFunc@UIRefObject@core@UModSys@@@tl@3@@53@_N@Z 00407813 f   umodsys_lib_libmedia:umodsys.lib.media.library.obj
 0001:00006813       ?obj_save@ILibrary@libmedia@UModSys@@UAE_NABU?$TString@U?$TSCoreConst@D@su@tl@UModSys@@U?$TComparerBinaryHash@D@234@@tl@3@PBUIRefObject@core@3@ABUSObjOptions@123@@Z 00407813 f   umodsys_lib_libmedia:umodsys.lib.media.library.obj
 0001:00006813       ?vget_c@RConsole_std@rsystem@base@UModSys@@UAE_NPAHPBDPAD@Z 00407813 f   umodsys_lib_basesys:umodsys.basesys.rconsole_std.obj
 0001:00006813       ?obj_load@ILibrary@libmedia@UModSys@@UAE_NABU?$TString@U?$TSCoreConst@D@su@tl@UModSys@@U?$TComparerBinaryHash@D@234@@tl@3@PAUIRefObject@core@3@ABUSObjOptions@123@@Z 00407813 f   umodsys_lib_libmedia:umodsys.lib.media.library.obj
 0001:00006813       ?bin_load@ILibrary@libmedia@UModSys@@UAE_NABU?$TString@U?$TSCoreConst@D@su@tl@UModSys@@U?$TComparerBinaryHash@D@234@@tl@3@AAUSCMemShared@core@3@ABUSFlags@23@@Z 00407813 f   umodsys_lib_libmedia:umodsys.lib.media.library.obj
 0001:00006813       ?bin_list@ILibrary@libmedia@UModSys@@UAE_NABU?$TString@U?$TSCoreConst@D@su@tl@UModSys@@U?$TComparerBinaryHash@D@234@@tl@3@AAU?$TIStackSocket@USFileInfo@libmedia@UModSys@@@53@ABUSFlags@23@@Z 00407813 f   umodsys_lib_libmedia:umodsys.lib.media.library.obj
 0001:00006813       ?bin_get@ILibrary@libmedia@UModSys@@UAE_NABU?$TString@U?$TSCoreConst@D@su@tl@UModSys@@U?$TComparerBinaryHash@D@234@@tl@3@AAUSCMemShared@core@3@_N@Z 00407813 f   umodsys_lib_libmedia:umodsys.lib.media.library.obj
 0001:00006818       ?root_get_interface_info@RConsole_std@rsystem@base@UModSys@@UBEABUSUniquePointerInfo@core@4@XZ 00407818 f i umodsys_lib_basesys:umodsys.basesys.rconsole_std.obj
 0001:0000681e       ?root_get_interface_type@RConsole_std@rsystem@base@UModSys@@UBEPBUSUniquePointerInfo@core@4@XZ 0040781e f i umodsys_lib_basesys:umodsys.basesys.rconsole_std.obj
 0001:00006824       ?root_get_other_interface@RConsole_std@rsystem@base@UModSys@@UAEPAUIRoot@core@4@PBUSUniquePointerInfo@64@@Z 00407824 f i umodsys_lib_basesys:umodsys.basesys.rconsole_std.obj
 0001:00006824       ?root_get_other_interface@RConsole_std@rsystem@base@UModSys@@UBEPBUIRoot@core@4@PBUSUniquePointerInfo@64@@Z 00407824 f i umodsys_lib_basesys:umodsys.basesys.rconsole_std.obj
 0001:00006845       ?root_is_interface_supported@RConsole_std@rsystem@base@UModSys@@UBE_NPBUSUniquePointerInfo@core@4@@Z 00407845 f i umodsys_lib_basesys:umodsys.basesys.rconsole_std.obj
 0001:0000686c       ?vput@RConsole_std@rsystem@base@UModSys@@UAE_NW4eConsoleLevels@34@PBDPAD@Z 0040786c f   umodsys_lib_basesys:umodsys.basesys.rconsole_std.obj
 0001:000068f8       ?put@RConsole_std@rsystem@base@UModSys@@UAA_NW4eConsoleLevels@34@PBDZZ 004078f8 f   umodsys_lib_basesys:umodsys.basesys.rconsole_std.obj
 0001:0000690f       ?get_s@RConsole_std@rsystem@base@UModSys@@UAA_NPADIPBDZZ 0040790f f   umodsys_lib_basesys:umodsys.basesys.rconsole_std.obj
 0001:0000690f       ?get_c@RConsole_std@rsystem@base@UModSys@@UAA_NPAHPBDZZ 0040790f f   umodsys_lib_basesys:umodsys.basesys.rconsole_std.obj
 0001:00006912       ?vget_s@RConsole_std@rsystem@base@UModSys@@UAE_NPADIPBD0@Z 00407912 f   umodsys_lib_basesys:umodsys.basesys.rconsole_std.obj
 0001:00006917       ?reflect@RConsole_std@rsystem@base@UModSys@@QAE_NPBD@Z 00407917 f   umodsys_lib_basesys:umodsys.basesys.rconsole_std.obj
 0001:00006957       ??_ERConsole_std@rsystem@base@UModSys@@UAEPAXI@Z 00407957 f i  CIL library: CIL module
 0001:00006957       ??_GRConsole_std@rsystem@base@UModSys@@UAEPAXI@Z 00407957 f i umodsys_lib_basesys:umodsys.basesys.rconsole_std.obj
 0001:00006981       ??0EExceptionBase@core@UModSys@@QAE@PBUSSourceContext@12@HPBD@Z 00407981 f i umodsys_lib_basesys:umodsys.basesys.rsystem_main.obj
 0001:000069ac       ?decode_error@EExceptionBase@core@UModSys@@UBEHPADI@Z 004079ac f i umodsys_lib_basesys:umodsys.basesys.rsystem_main.obj
 0001:000069d5       ?decode_error@EFatal@core@UModSys@@UBEHPADI@Z 004079d5 f i umodsys_lib_basesys:umodsys.basesys.rsystem_main.obj
 0001:000069fe       ??_GEFatal@core@UModSys@@UAEPAXI@Z 004079fe f i umodsys_lib_basesys:umodsys.basesys.rsystem_main.obj
 0001:000069fe       ??_EEWarning@core@UModSys@@UAEPAXI@Z 004079fe f i  CIL library: CIL module
 0001:000069fe       ??_GEWarning@core@UModSys@@UAEPAXI@Z 004079fe f i umodsys_lib_basesys:umodsys.basesys.rsystem_main.obj
 0001:000069fe       ??_GEExceptionBase@core@UModSys@@UAEPAXI@Z 004079fe f i umodsys_lib_basesys:umodsys.basesys.rsystem_main.obj
 0001:000069fe       ??_EEExceptionBase@core@UModSys@@UAEPAXI@Z 004079fe f i  CIL library: CIL module
 0001:000069fe       ??_EEFatal@core@UModSys@@UAEPAXI@Z 004079fe f i  CIL library: CIL module
 0001:00006a1b       ?decode_error@EWarning@core@UModSys@@UBEHPADI@Z 00407a1b f i umodsys_lib_basesys:umodsys.basesys.rsystem_main.obj
 0001:00006a44       ??1EFatal@core@UModSys@@UAE@XZ 00407a44 f i umodsys_lib_basesys:umodsys.basesys.rsystem_main.obj
 0001:00006a44       ??1EWarning@core@UModSys@@UAE@XZ 00407a44 f i umodsys_lib_basesys:umodsys.basesys.rsystem_main.obj
 0001:00006a4b       ?root_get_interface_info@RSystem@rsystem@base@UModSys@@UBEABUSUniquePointerInfo@core@4@XZ 00407a4b f i umodsys_lib_basesys:umodsys.basesys.rsystem_main.obj
 0001:00006a51       ?root_get_interface_type@RSystem@rsystem@base@UModSys@@UBEPBUSUniquePointerInfo@core@4@XZ 00407a51 f i umodsys_lib_basesys:umodsys.basesys.rsystem_main.obj
 0001:00006a57       ?root_get_other_interface@RSystem@rsystem@base@UModSys@@UAEPAUIRoot@core@4@PBUSUniquePointerInfo@64@@Z 00407a57 f i umodsys_lib_basesys:umodsys.basesys.rsystem_main.obj
 0001:00006a57       ?root_get_other_interface@RSystem@rsystem@base@UModSys@@UBEPBUIRoot@core@4@PBUSUniquePointerInfo@64@@Z 00407a57 f i umodsys_lib_basesys:umodsys.basesys.rsystem_main.obj
 0001:00006a78       ?root_is_interface_supported@RSystem@rsystem@base@UModSys@@UBE_NPBUSUniquePointerInfo@core@4@@Z 00407a78 f i umodsys_lib_basesys:umodsys.basesys.rsystem_main.obj
 0001:00006a9e       ?init@RSystem@rsystem@base@UModSys@@QAE_NXZ 00407a9e f   umodsys_lib_basesys:umodsys.basesys.rsystem_main.obj
 0001:00006b92       ?deinit@RSystem@rsystem@base@UModSys@@QAE_NXZ 00407b92 f   umodsys_lib_basesys:umodsys.basesys.rsystem_main.obj
 0001:00006c4c       ?set_console@RSystem@rsystem@base@UModSys@@QAEXPAUIConsole@34@@Z 00407c4c f   umodsys_lib_basesys:umodsys.basesys.rsystem_main.obj
 0001:00006c73       ??0RSystem@rsystem@base@UModSys@@QAE@XZ 00407c73 f   umodsys_lib_basesys:umodsys.basesys.rsystem_main.obj
 0001:00006db4       ??_ERSystem@rsystem@base@UModSys@@UAEPAXI@Z 00407db4 f i  CIL library: CIL module
 0001:00006db4       ??_GRSystem@rsystem@base@UModSys@@UAEPAXI@Z 00407db4 f i umodsys_lib_basesys:umodsys.basesys.rsystem_main.obj
 0001:00006dd1       ??1RSystem@rsystem@base@UModSys@@UAE@XZ 00407dd1 f   umodsys_lib_basesys:umodsys.basesys.rsystem_main.obj
 0001:00006e6a       ?dbg_put@rsystem@base@UModSys@@YAXW4eRSystemDebugLevels@123@PBDZZ 00407e6a f   umodsys_lib_basesys:umodsys.basesys.rsystem_main.obj
 0001:00006e96       ?err_put@rsystem@base@UModSys@@YAXW4eRSystemDebugLevels@123@PBDZZ 00407e96 f   umodsys_lib_basesys:umodsys.basesys.rsystem_main.obj
 0001:00006ec2       ??4?$TRefObject@UIRefObject@core@UModSys@@U?$TRefObjectFunc@UIRefObject@core@UModSys@@@tl@3@@tl@UModSys@@QAEABU012@PAUIRefObject@core@2@@Z 00407ec2 f i umodsys_lib_libmedia:umodsys.mod.media.stdio.obj
 0001:00006ec2       ??4?$TRefObject@UIStreamReader@libmedia@UModSys@@U?$TRefObjectFunc@UIStreamReader@libmedia@UModSys@@@tl@3@@tl@UModSys@@QAEABU012@PAUIStreamReader@libmedia@2@@Z 00407ec2 f i umodsys_lib_libmedia:umodsys.mod.media.stdio.obj
 0001:00006ec2       ??4?$TRefObject@UIConsole@base@UModSys@@U?$TRefObjectFunc@UIConsole@base@UModSys@@@tl@3@@tl@UModSys@@QAEABU012@PAUIConsole@base@2@@Z 00407ec2 f i umodsys_lib_basesys:umodsys.basesys.rsystem_main.obj
 0001:00006edd       ??1?$TStaticStringPool@DU?$TComparerBinaryHash@D@su@tl@UModSys@@USMemAlloc_Malloc@core@4@@tl@UModSys@@QAE@XZ 00407edd f i umodsys_lib_basesys:umodsys.basesys.rsystem_main.obj
 0001:00006ee2       ??1?$TQuantArrayUnique@USUniquePointerInfo@core@UModSys@@$0BAA@USMemAlloc_Malloc@23@@tl@UModSys@@QAE@XZ 00407ee2 f i umodsys_lib_basesys:umodsys.basesys.rsystem_main.obj
 0001:00006ee2       ??1?$TQuantArrayUnique@USSourceContext@core@UModSys@@$0BAA@USMemAlloc_Malloc@23@@tl@UModSys@@QAE@XZ 00407ee2 f i umodsys_lib_basesys:umodsys.basesys.rsystem_main.obj
 0001:00006f18       ??1?$TTreeHoldRBD@U?$TQuantArrayNode@USSourceContext@core@UModSys@@$0BAA@@tl@UModSys@@U?$TNodeDeleter@U?$TQuantArrayNode@USSourceContext@core@UModSys@@$0BAA@@tl@UModSys@@USMemAlloc_Malloc@core@3@@23@@tl@UModSys@@QAE@XZ 00407f18 f i umodsys_lib_basesys:umodsys.basesys.rsystem_main.obj
 0001:00006f18       ??1?$TTreeHoldRBD@U?$TQuantArrayNode@USUniquePointerInfo@core@UModSys@@$0BAA@@tl@UModSys@@U?$TNodeDeleter@U?$TQuantArrayNode@USUniquePointerInfo@core@UModSys@@$0BAA@@tl@UModSys@@USMemAlloc_Malloc@core@3@@23@@tl@UModSys@@QAE@XZ 00407f18 f i umodsys_lib_basesys:umodsys.basesys.rsystem_main.obj
 0001:00006f2e       ?mem_alloc@?$TRMemAlloc_CC@U?$TMemAllocHeader@USMagic@mem_headers@rsystem@base@UModSys@@U?$TPool@X@2345@USDebug@2345@UVoid@core@5@U895@@rsystem@base@UModSys@@USMemAlloc_Malloc@core@4@@rsystem@base@UModSys@@UAEPAXIPBUSSourceContext@core@4@@Z 00407f2e f i umodsys_lib_basesys:umodsys.basesys.rsystem_main.obj
 0001:00006f89       ?mem_realloc@?$TRMemAlloc_CC@U?$TMemAllocHeader@USMagic@mem_headers@rsystem@base@UModSys@@U?$TPool@X@2345@USDebug@2345@UVoid@core@5@U895@@rsystem@base@UModSys@@USMemAlloc_Malloc@core@4@@rsystem@base@UModSys@@UAEPAXPAXIPBUSSourceContext@core@4@@Z 00407f89 f i umodsys_lib_basesys:umodsys.basesys.rsystem_main.obj
 0001:0000710c       ?mem_free@?$TRMemAlloc_CC@U?$TMemAllocHeader@USMagic@mem_headers@rsystem@base@UModSys@@U?$TPool@X@2345@USDebug@2345@UVoid@core@5@U895@@rsystem@base@UModSys@@USMemAlloc_Malloc@core@4@@rsystem@base@UModSys@@UAEXPAXPBUSSourceContext@core@4@@Z 0040810c f i umodsys_lib_basesys:umodsys.basesys.rsystem_main.obj
 0001:000071a6       ?free@?$TStaticStringPool@DU?$TComparerBinaryHash@D@su@tl@UModSys@@USMemAlloc_Malloc@core@4@@tl@UModSys@@QAEXXZ 004081a6 f i umodsys_lib_basesys:umodsys.basesys.rsystem_main.obj
 0001:000071e1       ??$valid@U?$TRMemAlloc_CC@U?$TMemAllocHeader@USMagic@mem_headers@rsystem@base@UModSys@@U?$TPool@X@2345@USDebug@2345@UVoid@core@5@U895@@rsystem@base@UModSys@@USMemAlloc_Malloc@core@4@@rsystem@base@UModSys@@@?$TMemAllocHeader@USMagic@mem_headers@rsystem@base@UModSys@@U?$TPool@X@2345@USDebug@2345@UVoid@core@5@U895@@rsystem@base@UModSys@@QBE_NPBU?$TRMemAlloc_CC@U?$TMemAllocHeader@USMagic@mem_headers@rsystem@base@UModSys@@U?$TPool@X@2345@USDebug@2345@UVoid@core@5@U895@@rsystem@base@UModSys@@USMemAlloc_Malloc@core@4@@123@@Z 004081e1 f i umodsys_lib_basesys:umodsys.basesys.rsystem_main.obj
 0001:00007208       ??$process@UEFatal@core@UModSys@@@IExceptionHandler@core@UModSys@@QAEXABUEFatal@12@@Z 00408208 f i umodsys_lib_basesys:umodsys.basesys.rsystem_main.obj
 0001:0000723a       ??$process_nodes_r@U?$TNodeDeleter@U?$TQuantArrayNode@USSourceContext@core@UModSys@@$0BAA@@tl@UModSys@@USMemAlloc_Malloc@core@3@@tl@UModSys@@@?$TTreeHoldRB@U?$TQuantArrayNode@USSourceContext@core@UModSys@@$0BAA@@tl@UModSys@@@tl@UModSys@@KAHPAU?$TQuantArrayNode@USSourceContext@core@UModSys@@$0BAA@@12@ABU?$TNodeDeleter@U?$TQuantArrayNode@USSourceContext@core@UModSys@@$0BAA@@tl@UModSys@@USMemAlloc_Malloc@core@3@@12@@Z 0040823a f i umodsys_lib_basesys:umodsys.basesys.rsystem_main.obj
 0001:0000723a       ??$process_nodes_r@U?$TNodeDeleter@U?$TQuantArrayNode@USUniquePointerInfo@core@UModSys@@$0BAA@@tl@UModSys@@USMemAlloc_Malloc@core@3@@tl@UModSys@@@?$TTreeHoldRB@U?$TQuantArrayNode@USUniquePointerInfo@core@UModSys@@$0BAA@@tl@UModSys@@@tl@UModSys@@KAHPAU?$TQuantArrayNode@USUniquePointerInfo@core@UModSys@@$0BAA@@12@ABU?$TNodeDeleter@U?$TQuantArrayNode@USUniquePointerInfo@core@UModSys@@$0BAA@@tl@UModSys@@USMemAlloc_Malloc@core@3@@12@@Z 0040823a f i umodsys_lib_basesys:umodsys.basesys.rsystem_main.obj
 0001:0000727c       ??0EFatal@core@UModSys@@QAE@ABU012@@Z 0040827c f i umodsys_lib_basesys:umodsys.basesys.rsystem_main.obj
 0001:00007294       ??0EExceptionBase@core@UModSys@@QAE@ABU012@@Z 00408294 f i umodsys_lib_basesys:umodsys.basesys.rsystem_main.obj
 0001:000072bc       ??0EWarning@core@UModSys@@QAE@ABU012@@Z 004082bc f i umodsys_lib_basesys:umodsys.basesys.rsystem_main.obj
 0001:000072d4       ?exec_test_shells@RSystem@rsystem@base@UModSys@@QAE_NXZ 004082d4 f   umodsys_lib_basesys:umodsys.basesys.rsystem_tests.obj
 0001:0000744a       ??1?$TParametersA@$0EAA@@core@UModSys@@QAE@XZ 0040844a f i umodsys_lib_basesys:umodsys.basesys.rsystem_tests.obj
 0001:00007457       ??$t_moduledb_generate@UIShell@base@UModSys@@@IModuleLoader@base@UModSys@@QAE_NAAU?$TRefObject@UIShell@base@UModSys@@U?$TRefObjectFunc@UIShell@base@UModSys@@@tl@3@@tl@2@PBUSUniquePointerInfo@core@2@ABUSParameters@62@@Z 00408457 f i umodsys_lib_basesys:umodsys.basesys.rsystem_tests.obj
 0001:000074e9       ?eq@SModuleInfo@base@UModSys@@QBE_NABU?$TString@U?$TSCoreConst@D@su@tl@UModSys@@U?$TComparerBinaryHash@D@234@@tl@3@ABUSVersion@core@3@@Z 004084e9 f i umodsys_lib_basesys:umodsys.basesys.rmoduleloader.obj
 0001:0000750e       ?moduledb_findobjname@RModuleLoader@rsystem@base@UModSys@@UAEIPBUSUniquePointerInfo@core@4@QAPBU564@IPBD@Z 0040850e f   umodsys_lib_basesys:umodsys.basesys.rmoduleloader.obj
 0001:0000757b       ?moduledb_generate@RModuleLoader@rsystem@base@UModSys@@UAE_NAAU?$TRefObject@UIRefObject@core@UModSys@@U?$TRefObjectFunc@UIRefObject@core@UModSys@@@tl@3@@tl@4@PBUSUniquePointerInfo@core@4@ABUSParameters@84@@Z 0040857b f   umodsys_lib_basesys:umodsys.basesys.rmoduleloader.obj
 0001:000075d0       ?moduledb_lib_count@RModuleLoader@rsystem@base@UModSys@@UAEIXZ 004085d0 f   umodsys_lib_basesys:umodsys.basesys.rmoduleloader.obj
 0001:000075d5       ?moduledb_lib_get@RModuleLoader@rsystem@base@UModSys@@UBEPAUIModuleLibrary@34@I@Z 004085d5 f   umodsys_lib_basesys:umodsys.basesys.rmoduleloader.obj
 0001:000075f5       ?moduledb_lib_drop@RModuleLoader@rsystem@base@UModSys@@UAE_NPAUIModuleLibrary@34@@Z 004085f5 f   umodsys_lib_basesys:umodsys.basesys.rmoduleloader.obj
 0001:000075f5       ?moduledb_load@RModuleLoader@rsystem@base@UModSys@@UAE_NABU?$TString@U?$TSCoreConst@D@su@tl@UModSys@@U?$TComparerBinaryHash@D@234@@tl@4@@Z 004085f5 f   umodsys_lib_basesys:umodsys.basesys.rmoduleloader.obj
 0001:000075f5       ?ref_weak@RConsole_std@rsystem@base@UModSys@@UBE_NAAUWeakPointer@IRefObject@core@4@@Z 004085f5 f   umodsys_lib_basesys:umodsys.basesys.rconsole_std.obj
 0001:000075fa       ?moduledb_module_count@RModuleLoader@rsystem@base@UModSys@@UAEIXZ 004085fa f   umodsys_lib_basesys:umodsys.basesys.rmoduleloader.obj
 0001:0000761c       ?moduledb_module_get@RModuleLoader@rsystem@base@UModSys@@UBEPAUIModule@34@I@Z 0040861c f   umodsys_lib_basesys:umodsys.basesys.rmoduleloader.obj
 0001:0000766a       ?moduledb_find@RModuleLoader@rsystem@base@UModSys@@UBEPAUIModule@34@ABU?$TString@U?$TSCoreConst@D@su@tl@UModSys@@U?$TComparerBinaryHash@D@234@@tl@4@ABUSVersion@core@4@@Z 0040866a f   umodsys_lib_basesys:umodsys.basesys.rmoduleloader.obj
 0001:00007721       ?moduledb_clear@RModuleLoader@rsystem@base@UModSys@@UAEXXZ 00408721 f   umodsys_lib_basesys:umodsys.basesys.rmoduleloader.obj
 0001:00007770       ?moduledb_cleanup@RModuleLoader@rsystem@base@UModSys@@UAEIXZ 00408770 f   umodsys_lib_basesys:umodsys.basesys.rmoduleloader.obj
 0001:00007872       ?moduledb_save@RModuleLoader@rsystem@base@UModSys@@UAE_NABU?$TString@U?$TSCoreConst@D@su@tl@UModSys@@U?$TComparerBinaryHash@D@234@@tl@4@@Z 00408872 f   umodsys_lib_basesys:umodsys.basesys.rmoduleloader.obj
 0001:000078f2       ?moduledb_scan@RModuleLoader@rsystem@base@UModSys@@UAEIABU?$TString@U?$TSCoreConst@D@su@tl@UModSys@@U?$TComparerBinaryHash@D@234@@tl@4@_N@Z 004088f2 f   umodsys_lib_basesys:umodsys.basesys.rmoduleloader.obj
 0001:00007980       ?moduledb_get_string@RModuleLoader@rsystem@base@UModSys@@UAEABU?$TString@U?$TSCoreConst@D@su@tl@UModSys@@U?$TComparerBinaryHash@D@234@@tl@4@ABU564@@Z 00408980 f   umodsys_lib_basesys:umodsys.basesys.rmoduleloader.obj
 0001:00007993       ??_GRModuleLoader@rsystem@base@UModSys@@UAEPAXI@Z 00408993 f i umodsys_lib_basesys:umodsys.basesys.rmoduleloader.obj
 0001:00007993       ??_ERModuleLoader@rsystem@base@UModSys@@UAEPAXI@Z 00408993 f i  CIL library: CIL module
 0001:000079b0       ??_GIModuleLoader@base@UModSys@@UAEPAXI@Z 004089b0 f i umodsys_lib_basesys:umodsys.basesys.rmoduleloader.obj
 0001:000079b0       ??_EIModuleLoader@base@UModSys@@UAEPAXI@Z 004089b0 f i  CIL library: CIL module
 0001:000079cd       ??1RModuleLoader@rsystem@base@UModSys@@UAE@XZ 004089cd f   umodsys_lib_basesys:umodsys.basesys.rmoduleloader.obj
 0001:00007a33       ?append@?$TStaticStringPool@DU?$TComparerBinaryHash@D@su@tl@UModSys@@USMemAlloc_Malloc@core@4@@tl@UModSys@@QAEPBU?$TString@U?$TSCoreConst@D@su@tl@UModSys@@U?$TComparerBinaryHash@D@234@@23@PBD@Z 00408a33 f i umodsys_lib_basesys:umodsys.basesys.rmoduleloader.obj
 0001:00007a50       ??1?$TDynarrayDynamic@U?$TRefObject@URModuleLibrarySO@rsystem@base@UModSys@@U?$TRefObjectFunc@URModuleLibrarySO@rsystem@base@UModSys@@@tl@4@@tl@UModSys@@U?$TAllocator@USMemAlloc_Malloc@core@UModSys@@USCountCalcPower2@23@@23@@tl@UModSys@@QAE@XZ 00408a50 f i umodsys_lib_basesys:umodsys.basesys.rmoduleloader.obj
 0001:00007a6e       ?Free@?$TDynarray@U?$TDynarrayHolderDynamic@U?$TRefObject@URModuleLibrarySO@rsystem@base@UModSys@@U?$TRefObjectFunc@URModuleLibrarySO@rsystem@base@UModSys@@@tl@4@@tl@UModSys@@U?$TAllocator@USMemAlloc_Malloc@core@UModSys@@USCountCalcPower2@23@@23@@tl@UModSys@@@tl@UModSys@@QAE_NXZ 00408a6e f i umodsys_lib_basesys:umodsys.basesys.rmoduleloader.obj
 0001:00007a96       ?Resize@?$TDynarray@U?$TDynarrayHolderDynamic@U?$TRefObject@URModuleLibrarySO@rsystem@base@UModSys@@U?$TRefObjectFunc@URModuleLibrarySO@rsystem@base@UModSys@@@tl@4@@tl@UModSys@@U?$TAllocator@USMemAlloc_Malloc@core@UModSys@@USCountCalcPower2@23@@23@@tl@UModSys@@@tl@UModSys@@QAE_NI@Z 00408a96 f i umodsys_lib_basesys:umodsys.basesys.rmoduleloader.obj
 0001:00007af0       ?append@?$TStaticStringPool@DU?$TComparerBinaryHash@D@su@tl@UModSys@@USMemAlloc_Malloc@core@4@@tl@UModSys@@QAEPBU?$TString@U?$TSCoreConst@D@su@tl@UModSys@@U?$TComparerBinaryHash@D@234@@23@PBDI@Z 00408af0 f i umodsys_lib_basesys:umodsys.basesys.rmoduleloader.obj
 0001:00007c22       ?ReLink@?$TDynarray@U?$TDynarrayHolderDynamic@U?$TRefObject@URModuleLibrarySO@rsystem@base@UModSys@@U?$TRefObjectFunc@URModuleLibrarySO@rsystem@base@UModSys@@@tl@4@@tl@UModSys@@U?$TAllocator@USMemAlloc_Malloc@core@UModSys@@USCountCalcPower2@23@@23@@tl@UModSys@@@tl@UModSys@@IAE_NI@Z 00408c22 f i umodsys_lib_basesys:umodsys.basesys.rmoduleloader.obj
 0001:00007c22       ?ReLink@?$TDynarray@U?$TDynarrayHolderDynamic@U?$TRefObject@URModule@rsystem@base@UModSys@@U?$TRefObjectFunc@URModule@rsystem@base@UModSys@@@tl@4@@tl@UModSys@@U?$TAllocator@USMemAlloc_Malloc@core@UModSys@@USCountCalcPower2@23@@23@@tl@UModSys@@@tl@UModSys@@IAE_NI@Z 00408c22 f i umodsys_lib_basesys:umodsys.basesys.rmodulelib.obj
 0001:00007c5e       ?items_destruct@?$TDynarray@U?$TDynarrayHolderDynamic@U?$TRefObject@URModuleLibrarySO@rsystem@base@UModSys@@U?$TRefObjectFunc@URModuleLibrarySO@rsystem@base@UModSys@@@tl@4@@tl@UModSys@@U?$TAllocator@USMemAlloc_Malloc@core@UModSys@@USCountCalcPower2@23@@23@@tl@UModSys@@@tl@UModSys@@IAEXII@Z 00408c5e f i umodsys_lib_basesys:umodsys.basesys.rmoduleloader.obj
 0001:00007c89       ?append@CharChunk@?$TStaticStringPool@DU?$TComparerBinaryHash@D@su@tl@UModSys@@USMemAlloc_Malloc@core@4@@tl@UModSys@@QAEPADPBDI@Z 00408c89 f i umodsys_lib_basesys:umodsys.basesys.rmoduleloader.obj
 0001:00007cb2       ?find_s@?$TStaticStringPool@DU?$TComparerBinaryHash@D@su@tl@UModSys@@USMemAlloc_Malloc@core@4@@tl@UModSys@@QBEPBU?$TString@U?$TSCoreConst@D@su@tl@UModSys@@U?$TComparerBinaryHash@D@234@@23@ABU423@@Z 00408cb2 f i umodsys_lib_basesys:umodsys.basesys.rmoduleloader.obj
 0001:00007d06       ?_root_is_interface_supported@IModuleLibraryUni@rsystem@base@UModSys@@SA_NPBUSUniquePointerInfo@core@4@@Z 00408d06 f i umodsys_lib_basesys:umodsys.basesys.rmodulelibthis.obj
 0001:00007d26       ?root_get_interface_info@RModuleLibraryThis@rsystem@base@UModSys@@UBEABUSUniquePointerInfo@core@4@XZ 00408d26 f i umodsys_lib_basesys:umodsys.basesys.rmodulelibthis.obj
 0001:00007d2c       ?root_get_interface_type@RModuleLibraryThis@rsystem@base@UModSys@@UBEPBUSUniquePointerInfo@core@4@XZ 00408d2c f i umodsys_lib_basesys:umodsys.basesys.rmodulelibthis.obj
 0001:00007d32       ?root_get_other_interface@RModuleLibraryThis@rsystem@base@UModSys@@UAEPAUIRoot@core@4@PBUSUniquePointerInfo@64@@Z 00408d32 f i umodsys_lib_basesys:umodsys.basesys.rmodulelibthis.obj
 0001:00007d32       ?root_get_other_interface@RModuleLibraryThis@rsystem@base@UModSys@@UBEPBUIRoot@core@4@PBUSUniquePointerInfo@64@@Z 00408d32 f i umodsys_lib_basesys:umodsys.basesys.rmodulelibthis.obj
 0001:00007d5b       ?root_is_interface_supported@RModuleLibraryThis@rsystem@base@UModSys@@UBE_NPBUSUniquePointerInfo@core@4@@Z 00408d5b f i umodsys_lib_basesys:umodsys.basesys.rmodulelibthis.obj
 0001:00007d7a       ?ref_add@RModuleLibraryThis@rsystem@base@UModSys@@UBEXXZ 00408d7a f i umodsys_lib_basesys:umodsys.basesys.rmodulelibthis.obj
 0001:00007d7e       ?ref_remove@RModuleLibraryThis@rsystem@base@UModSys@@UBEXXZ 00408d7e f i umodsys_lib_basesys:umodsys.basesys.rmodulelibthis.obj
 0001:00007d89       ?ref_links@RModuleLibraryThis@rsystem@base@UModSys@@UBEHXZ 00408d89 f i umodsys_lib_basesys:umodsys.basesys.rmodulelibthis.obj
 0001:00007d8d       ?ref_weak@RModuleLibraryThis@rsystem@base@UModSys@@UBE_NAAUWeakPointer@IRefObject@core@4@@Z 00408d8d f i umodsys_lib_basesys:umodsys.basesys.rmodulelibthis.obj
 0001:00007dac       ?uni_load@RModuleLibraryThis@rsystem@base@UModSys@@UAE_NXZ 00408dac f   umodsys_lib_basesys:umodsys.basesys.rmodulelibthis.obj
 0001:00007db6       ?uni_unload@RModuleLibraryThis@rsystem@base@UModSys@@UAE_NXZ 00408db6 f   umodsys_lib_basesys:umodsys.basesys.rmodulelibthis.obj
 0001:00007db6       ?uni_open@RModuleLibraryThis@rsystem@base@UModSys@@UAE_NXZ 00408db6 f   umodsys_lib_basesys:umodsys.basesys.rmodulelibthis.obj
 0001:00007db6       ?uni_close@RModuleLibraryThis@rsystem@base@UModSys@@UAE_NXZ 00408db6 f   umodsys_lib_basesys:umodsys.basesys.rmodulelibthis.obj
 0001:00007db9       ??_GRModuleLibraryThis@rsystem@base@UModSys@@UAEPAXI@Z 00408db9 f i umodsys_lib_basesys:umodsys.basesys.rmodulelibthis.obj
 0001:00007db9       ??_ERModuleLibraryThis@rsystem@base@UModSys@@UAEPAXI@Z 00408db9 f i  CIL library: CIL module
 0001:00007e00       ?get_sys_libname@IModuleLibraryUni@rsystem@base@UModSys@@UBE?AU?$TString@U?$TSCoreConst@D@su@tl@UModSys@@U?$TComparerBinaryHash@D@234@@tl@4@XZ 00408e00 f   umodsys_lib_basesys:umodsys.basesys.rmodulelib.obj
 0001:00007e18       ?get_privmem@IModuleLibraryUni@rsystem@base@UModSys@@UBEPAUIMemAlloc@core@4@XZ 00408e18 f   umodsys_lib_basesys:umodsys.basesys.rmodulelib.obj
 0001:00007e1c       ?ref_links@RStreamWriter_FILE@stdio@media@modules@UModSys@@UBEHXZ 00408e1c f   umodsys_lib_libmedia:umodsys.mod.media.stdio.obj
 0001:00007e1c       ?ref_links@RStreamReader_FILE@stdio@media@modules@UModSys@@UBEHXZ 00408e1c f   umodsys_lib_libmedia:umodsys.mod.media.stdio.obj
 0001:00007e1c       ?ref_links@RGenerator@stdio@media@modules@UModSys@@UBEHXZ 00408e1c f   umodsys_lib_libmedia:umodsys.mod.media.stdio.obj
 0001:00007e1c       ?ref_links@RUtilities@stdlib@media@modules@UModSys@@UBEHXZ 00408e1c f   umodsys_lib_libmedia:umodsys.mod.media.stdlib.obj
 0001:00007e1c       ?get_system@IModuleLibraryUni@rsystem@base@UModSys@@UBEPAUISystem@34@XZ 00408e1c f   umodsys_lib_basesys:umodsys.basesys.rmodulelib.obj
 0001:00007e1c       ?ref_links@RGenerator@stdlib@media@modules@UModSys@@UBEHXZ 00408e1c f   umodsys_lib_libmedia:umodsys.mod.media.stdlib.obj
 0001:00007e20       ?get_module_count@IModuleLibraryUni@rsystem@base@UModSys@@UBEIXZ 00408e20 f   umodsys_lib_basesys:umodsys.basesys.rmodulelib.obj
 0001:00007e24       ?get_module@IModuleLibraryUni@rsystem@base@UModSys@@UBEPAUIModule@34@I@Z 00408e24 f   umodsys_lib_basesys:umodsys.basesys.rmodulelib.obj
 0001:00007e3a       ?lib_loaded@IModuleLibraryUni@rsystem@base@UModSys@@UBE_NXZ 00408e3a f   umodsys_lib_basesys:umodsys.basesys.rmodulelib.obj
 0001:00007e43       ?lib_load@IModuleLibraryUni@rsystem@base@UModSys@@UAE_NXZ 00408e43 f   umodsys_lib_basesys:umodsys.basesys.rmodulelib.obj
 0001:00007e60       ?lib_unload@IModuleLibraryUni@rsystem@base@UModSys@@UAE_NXZ 00408e60 f   umodsys_lib_basesys:umodsys.basesys.rmodulelib.obj
 0001:00007e74       ?lib_free@IModuleLibraryUni@rsystem@base@UModSys@@UAE_NXZ 00408e74 f   umodsys_lib_basesys:umodsys.basesys.rmodulelib.obj
 0001:00007e8d       ?lib_findobjname@IModuleLibraryUni@rsystem@base@UModSys@@UAEIPBUSUniquePointerInfo@core@4@QAPBU564@IPBD@Z 00408e8d f   umodsys_lib_basesys:umodsys.basesys.rmodulelib.obj
 0001:00007ee6       ?lib_generate@IModuleLibraryUni@rsystem@base@UModSys@@UAE_NAAU?$TRefObject@UIRefObject@core@UModSys@@U?$TRefObjectFunc@UIRefObject@core@UModSys@@@tl@3@@tl@4@PBUSUniquePointerInfo@core@4@ABUSParameters@84@@Z 00408ee6 f   umodsys_lib_basesys:umodsys.basesys.rmodulelib.obj
 0001:00007f21       ?cleanup@IModuleLibraryUni@rsystem@base@UModSys@@QAEIXZ 00408f21 f   umodsys_lib_basesys:umodsys.basesys.rmodulelib.obj
 0001:00007f4d       ?load0@IModuleLibraryUni@rsystem@base@UModSys@@QAE_NXZ 00408f4d f   umodsys_lib_basesys:umodsys.basesys.rmodulelib.obj
 0001:00007f92       ?link@IModuleLibraryUni@rsystem@base@UModSys@@QAE_NXZ 00408f92 f   umodsys_lib_basesys:umodsys.basesys.rmodulelib.obj
 0001:00008114       ?unlink@IModuleLibraryUni@rsystem@base@UModSys@@QAE_NXZ 00409114 f   umodsys_lib_basesys:umodsys.basesys.rmodulelib.obj
 0001:00008147       ?scan@IModuleLibraryUni@rsystem@base@UModSys@@QAE_NXZ 00409147 f   umodsys_lib_basesys:umodsys.basesys.rmodulelib.obj
 0001:00008193       ?save_db@IModuleLibraryUni@rsystem@base@UModSys@@QAE_NPAU_iobuf@@@Z 00409193 f   umodsys_lib_basesys:umodsys.basesys.rmodulelib.obj
 0001:000081f5       ??0IModuleLibraryUni@rsystem@base@UModSys@@QAE@PAUISystem@23@PAUIModuleLibraryReg@23@@Z 004091f5 f   umodsys_lib_basesys:umodsys.basesys.rmodulelib.obj
 0001:00008244       ??_GIModuleLibraryUni@rsystem@base@UModSys@@UAEPAXI@Z 00409244 f i umodsys_lib_basesys:umodsys.basesys.rmodulelib.obj
 0001:00008244       ??_EIModuleLibraryUni@rsystem@base@UModSys@@UAEPAXI@Z 00409244 f i  CIL library: CIL module
 0001:00008260       ??1IModuleLibraryUni@rsystem@base@UModSys@@UAE@XZ 00409260 f   umodsys_lib_basesys:umodsys.basesys.rmodulelib.obj
 0001:00008286       ??1?$TDynarray@U?$TDynarrayHolderDynamic@U?$TRefObject@URModule@rsystem@base@UModSys@@U?$TRefObjectFunc@URModule@rsystem@base@UModSys@@@tl@4@@tl@UModSys@@U?$TAllocator@USMemAlloc_Malloc@core@UModSys@@USCountCalcPower2@23@@23@@tl@UModSys@@@tl@UModSys@@QAE@XZ 00409286 f i umodsys_lib_basesys:umodsys.basesys.rmodulelib.obj
 0001:000082be       ?ResizeRel@?$TDynarray@U?$TDynarrayHolderDynamic@U?$TRefObject@URModule@rsystem@base@UModSys@@U?$TRefObjectFunc@URModule@rsystem@base@UModSys@@@tl@4@@tl@UModSys@@U?$TAllocator@USMemAlloc_Malloc@core@UModSys@@USCountCalcPower2@23@@23@@tl@UModSys@@@tl@UModSys@@QAE_NH@Z 004092be f i umodsys_lib_basesys:umodsys.basesys.rmodulelib.obj
 0001:0000833e       ?info_release@?$TSCoreShared@USMemAlloc_Malloc@core@UModSys@@D@su@tl@UModSys@@QAEXXZ 0040933e f i umodsys_lib_basesys:umodsys.basesys.rmodulelib.obj
 0001:0000836f       ?get_null@?$TSCoreShared@USMemAlloc_Malloc@core@UModSys@@D@su@tl@UModSys@@SAPAU?$TSharedStringInfo@DUSMemAlloc_Malloc@core@UModSys@@@234@XZ 0040936f f i umodsys_lib_basesys:umodsys.basesys.rmodulelib.obj
 0001:0000839d       ?check_leaks@?$TRMemAlloc_CC@U?$TMemAllocHeader@USMagic@mem_headers@rsystem@base@UModSys@@U?$TPool@X@2345@USDebug@2345@UVoid@core@5@U895@@rsystem@base@UModSys@@USMemAlloc_Malloc@core@4@@rsystem@base@UModSys@@QAEI_NPAUIExceptionHandler@core@4@@Z 0040939d f i umodsys_lib_basesys:umodsys.basesys.rmodulelib.obj
 0001:0000840d       ?scalar_compare@core@UModSys@@YAHABUSUniquePointerInfo@12@0@Z 0040940d f i umodsys_lib_basesys:umodsys.basesys.rsystem.obj
 0001:00008450       ?upi_add@RSystem@rsystem@base@UModSys@@UAEPBUSUniquePointerInfo@core@4@PBU564@@Z 00409450 f   umodsys_lib_basesys:umodsys.basesys.rsystem.obj
 0001:000084f8       ?upi_remove@RSystem@rsystem@base@UModSys@@UAEHPBUSUniquePointerInfo@core@4@@Z 004094f8 f   umodsys_lib_basesys:umodsys.basesys.rsystem.obj
 0001:000084fe       ?persist_ctx@RSystem@rsystem@base@UModSys@@UAEPBUSSourceContext@core@4@PBU564@@Z 004094fe f   umodsys_lib_basesys:umodsys.basesys.rsystem.obj
 0001:00008588       ?get_params@RSystem@rsystem@base@UModSys@@UAEPAUIParameters@core@4@XZ 00409588 f   umodsys_lib_basesys:umodsys.basesys.rsystem.obj
 0001:0000858c       ?get_sysmem@RSystem@rsystem@base@UModSys@@UAEPAUIMemAlloc@core@4@XZ 0040958c f   umodsys_lib_basesys:umodsys.basesys.rsystem.obj
 0001:00008593       ?get_sharemem@RSystem@rsystem@base@UModSys@@UAEPAUIMemAlloc@core@4@XZ 00409593 f   umodsys_lib_basesys:umodsys.basesys.rsystem.obj
 0001:0000859a       ?get_modloader@RSystem@rsystem@base@UModSys@@UAEPAUIModuleLoader@34@XZ 0040959a f   umodsys_lib_basesys:umodsys.basesys.rsystem.obj
 0001:0000859e       ?get_upr@RSystem@rsystem@base@UModSys@@UAEPAUIUniquePointerResolver@core@4@XZ 0040959e f   umodsys_lib_basesys:umodsys.basesys.rsystem.obj
 0001:000085a9       ?get_sca@RSystem@rsystem@base@UModSys@@UAEPAUISourceContextAdapter@core@4@XZ 004095a9 f   umodsys_lib_basesys:umodsys.basesys.rsystem.obj
 0001:000085b4       ?find@?$TQuantArrayUnique@USUniquePointerInfo@core@UModSys@@$0BAA@USMemAlloc_Malloc@23@@tl@UModSys@@QAEPBUSUniquePointerInfo@core@3@ABU453@@Z 004095b4 f i umodsys_lib_basesys:umodsys.basesys.rsystem.obj
 0001:00008612       ?add@?$TQuantArrayUnique@USUniquePointerInfo@core@UModSys@@$0BAA@USMemAlloc_Malloc@23@@tl@UModSys@@QAEPAUSUniquePointerInfo@core@3@ABU453@@Z 00409612 f i umodsys_lib_basesys:umodsys.basesys.rsystem.obj
 0001:00008612       ?add@?$TQuantArrayUnique@USSourceContext@core@UModSys@@$0BAA@USMemAlloc_Malloc@23@@tl@UModSys@@QAEPAUSSourceContext@core@3@ABU453@@Z 00409612 f i umodsys_lib_basesys:umodsys.basesys.rsystem.obj
 0001:00008722       ?find@?$TQuantArrayUnique@USSourceContext@core@UModSys@@$0BAA@USMemAlloc_Malloc@23@@tl@UModSys@@QAEPBUSSourceContext@core@3@ABU453@@Z 00409722 f i umodsys_lib_basesys:umodsys.basesys.rsystem.obj
 0001:000087c1       ?next_node@?$TTreeHoldRB@UNameNode@IBinArchiveFrame@libmedia@UModSys@@@tl@UModSys@@SAPAUNameNode@IBinArchiveFrame@libmedia@3@PAU4563@@Z 004097c1 f i umodsys_lib_libmedia:umodsys.mod.media.stdlib.obj
 0001:000087c1       ?next_node@?$TTreeHoldRB@U?$TQuantArrayNode@USSourceContext@core@UModSys@@$0BAA@@tl@UModSys@@@tl@UModSys@@SAPAU?$TQuantArrayNode@USSourceContext@core@UModSys@@$0BAA@@23@PAU423@@Z 004097c1 f i umodsys_lib_basesys:umodsys.basesys.rsystem.obj
 0001:000087c1       ?next_node@?$TTreeHoldRB@U?$TQuantArrayNode@USUniquePointerInfo@core@UModSys@@$0BAA@@tl@UModSys@@@tl@UModSys@@SAPAU?$TQuantArrayNode@USUniquePointerInfo@core@UModSys@@$0BAA@@23@PAU423@@Z 004097c1 f i umodsys_lib_basesys:umodsys.basesys.rsystem_main.obj
 0001:000087e6       ?root_get_interface_info@RParameters@rsystem@base@UModSys@@UBEABUSUniquePointerInfo@core@4@XZ 004097e6 f i umodsys_lib_basesys:umodsys.basesys.rparameters.obj
 0001:000087ec       ?root_get_interface_type@RParameters@rsystem@base@UModSys@@UBEPBUSUniquePointerInfo@core@4@XZ 004097ec f i umodsys_lib_basesys:umodsys.basesys.rparameters.obj
 0001:000087f2       ?root_get_other_interface@RParameters@rsystem@base@UModSys@@UAEPAUIRoot@core@4@PBUSUniquePointerInfo@64@@Z 004097f2 f i umodsys_lib_basesys:umodsys.basesys.rparameters.obj
 0001:000087f2       ?root_get_other_interface@RParameters@rsystem@base@UModSys@@UBEPBUIRoot@core@4@PBUSUniquePointerInfo@64@@Z 004097f2 f i umodsys_lib_basesys:umodsys.basesys.rparameters.obj
 0001:00008813       ?root_is_interface_supported@RParameters@rsystem@base@UModSys@@UBE_NPBUSUniquePointerInfo@core@4@@Z 00409813 f i umodsys_lib_basesys:umodsys.basesys.rparameters.obj
 0001:0000883a       ?ref_weak@RLibraryObjCache@stdlib@media@modules@UModSys@@UBE_NAAUWeakPointer@IRefObject@core@5@@Z 0040983a f i umodsys_lib_libmedia:umodsys.mod.media.stdlib.obj
 0001:0000883a       ?ref_weak@RLibraryBinTree@stdlib@media@modules@UModSys@@UBE_NAAUWeakPointer@IRefObject@core@5@@Z 0040983a f i umodsys_lib_libmedia:umodsys.mod.media.stdlib.obj
 0001:0000883a       ?ref_weak@RParameters@rsystem@base@UModSys@@UBE_NAAUWeakPointer@IRefObject@core@4@@Z 0040983a f i umodsys_lib_basesys:umodsys.basesys.rparameters.obj
 0001:0000883a       ?ref_weak@RLibraryBinCache@stdlib@media@modules@UModSys@@UBE_NAAUWeakPointer@IRefObject@core@5@@Z 0040983a f i umodsys_lib_libmedia:umodsys.mod.media.stdlib.obj
 0001:0000883a       ?ref_weak@RLibraryObjFilter@stdlib@media@modules@UModSys@@UBE_NAAUWeakPointer@IRefObject@core@5@@Z 0040983a f i umodsys_lib_libmedia:umodsys.mod.media.stdlib.obj
 0001:0000883a       ?ref_weak@RDataArchiver_OsDir@stdio@media@modules@UModSys@@UBE_NAAUWeakPointer@IRefObject@core@5@@Z 0040983a f i umodsys_lib_libmedia:umodsys.mod.media.stdio.obj
 0001:0000883a       ?ref_weak@RLibraryLayered@stdlib@media@modules@UModSys@@UBE_NAAUWeakPointer@IRefObject@core@5@@Z 0040983a f i umodsys_lib_libmedia:umodsys.mod.media.stdlib.obj
 0001:00008859       ?find_elem@RParameters@rsystem@base@UModSys@@IAEPBUElem@1234@PBXHHHPBD@Z 00409859 f   umodsys_lib_basesys:umodsys.basesys.rparameters.obj
 0001:000088d2       ?estimate_size@RParameters@rsystem@base@UModSys@@IAEHAAUElem@1234@HPBDHH@Z 004098d2 f   umodsys_lib_basesys:umodsys.basesys.rparameters.obj
 0001:00008937       ?free_elems@RParameters@rsystem@base@UModSys@@IAEXPAXH@Z 00409937 f   umodsys_lib_basesys:umodsys.basesys.rparameters.obj
 0001:0000898f       ?alloc_elems@RParameters@rsystem@base@UModSys@@IAEXPAXH@Z 0040998f f   umodsys_lib_basesys:umodsys.basesys.rparameters.obj
 0001:000089e0       ?add_last@RParameters@rsystem@base@UModSys@@IAE_NPAUSParametersData@core@4@PBDPBXIH@Z 004099e0 f   umodsys_lib_basesys:umodsys.basesys.rparameters.obj
 0001:00008ba0       ?p_deinit@RParameters@rsystem@base@UModSys@@UAEXPAUSParametersData@core@4@@Z 00409ba0 f   umodsys_lib_basesys:umodsys.basesys.rparameters.obj
 0001:00008bf5       ?p_init@RParameters@rsystem@base@UModSys@@UAEXPAUSParametersData@core@4@H@Z 00409bf5 f   umodsys_lib_basesys:umodsys.basesys.rparameters.obj
 0001:00008c39       ?p_init@RParameters@rsystem@base@UModSys@@UAEXPAUSParametersData@core@4@ABU564@@Z 00409c39 f   umodsys_lib_basesys:umodsys.basesys.rparameters.obj
 0001:00008cc0       ?p_copy@RParameters@rsystem@base@UModSys@@UAEXPAUSParametersData@core@4@ABU564@@Z 00409cc0 f   umodsys_lib_basesys:umodsys.basesys.rparameters.obj
 0001:00008db2       ?p_init_s@RParameters@rsystem@base@UModSys@@UAEXPAUSParametersData@core@4@PAXH@Z 00409db2 f   umodsys_lib_basesys:umodsys.basesys.rparameters.obj
 0001:00008ddc       ?p_init_s@RParameters@rsystem@base@UModSys@@UAEXPAUSParametersData@core@4@ABU564@PAXH@Z 00409ddc f   umodsys_lib_basesys:umodsys.basesys.rparameters.obj
 0001:00008e45       ?next@RParameters@rsystem@base@UModSys@@UAE_NPBUSParametersData@core@4@AAPBD@Z 00409e45 f   umodsys_lib_basesys:umodsys.basesys.rparameters.obj
 0001:00008ee8       ?next@RParameters@rsystem@base@UModSys@@UAE_NPBUSParametersData@core@4@AAU?$TString@U?$TSCoreConst@D@su@tl@UModSys@@U?$TComparerBinaryHash@D@234@@tl@4@@Z 00409ee8 f   umodsys_lib_basesys:umodsys.basesys.rparameters.obj
 0001:00008f89       ?add@RParameters@rsystem@base@UModSys@@UAE_NPAUSParametersData@core@4@PBD1@Z 00409f89 f   umodsys_lib_basesys:umodsys.basesys.rparameters.obj
 0001:00008fb0       ?add@RParameters@rsystem@base@UModSys@@UAE_NPAUSParametersData@core@4@PBDABU?$TString@U?$TSCoreConst@D@su@tl@UModSys@@U?$TComparerBinaryHash@D@234@@tl@4@@Z 00409fb0 f   umodsys_lib_basesys:umodsys.basesys.rparameters.obj
 0001:00008fcd       ?add@RParameters@rsystem@base@UModSys@@UAE_NPAUSParametersData@core@4@PBDH@Z 00409fcd f   umodsys_lib_basesys:umodsys.basesys.rparameters.obj
 0001:00008fe6       ?add@RParameters@rsystem@base@UModSys@@UAE_NPAUSParametersData@core@4@PBDABN@Z 00409fe6 f   umodsys_lib_basesys:umodsys.basesys.rparameters.obj
 0001:00008ffe       ?add@RParameters@rsystem@base@UModSys@@UAE_NPAUSParametersData@core@4@PBDPAUIRefObject@64@@Z 00409ffe f   umodsys_lib_basesys:umodsys.basesys.rparameters.obj
 0001:00009017       ?get@RParameters@rsystem@base@UModSys@@UAE_NPBUSParametersData@core@4@PBDAAPBD@Z 0040a017 f   umodsys_lib_basesys:umodsys.basesys.rparameters.obj
 0001:0000906b       ?get@RParameters@rsystem@base@UModSys@@UAE_NPBUSParametersData@core@4@PBDAAU?$TString@U?$TSCoreConst@D@su@tl@UModSys@@U?$TComparerBinaryHash@D@234@@tl@4@@Z 0040a06b f   umodsys_lib_basesys:umodsys.basesys.rparameters.obj
 0001:000090c4       ?get@RParameters@rsystem@base@UModSys@@UAE_NPBUSParametersData@core@4@PBDAAH@Z 0040a0c4 f   umodsys_lib_basesys:umodsys.basesys.rparameters.obj
 0001:00009118       ?get@RParameters@rsystem@base@UModSys@@UAE_NPBUSParametersData@core@4@PBDAAN@Z 0040a118 f   umodsys_lib_basesys:umodsys.basesys.rparameters.obj
 0001:0000916c       ?get@RParameters@rsystem@base@UModSys@@UAE_NPBUSParametersData@core@4@PBDAAPAUIRefObject@64@@Z 0040a16c f   umodsys_lib_basesys:umodsys.basesys.rparameters.obj
 0001:000091c0       ??$shash@D@su@tl@UModSys@@YAIPBD@Z 0040a1c0 f i umodsys_lib_basesys:umodsys.basesys.rparameters.obj
 0001:000091e7       ??$t_alloc@UIMemAlloc@core@UModSys@@@SMemChunk@core@UModSys@@QAE_NAAUIMemAlloc@12@IPBUSSourceContext@12@@Z 0040a1e7 f i umodsys_lib_basesys:umodsys.basesys.rparameters.obj
 0001:000092a8       ?pfd_load@RModuleLibrarySO@rsystem@base@UModSys@@SAPAUIModuleLibraryReg@34@PAUPFD_Data@1234@ABU?$TString@U?$TSCoreConst@D@su@tl@UModSys@@U?$TComparerBinaryHash@D@234@@tl@4@@Z 0040a2a8 f   umodsys_lib_basesys:umodsys.basesys.rmodule.win32.obj
 0001:00009362       ?pfd_unload@RModuleLibrarySO@rsystem@base@UModSys@@SA_NPAUPFD_Data@1234@@Z 0040a362 f   umodsys_lib_basesys:umodsys.basesys.rmodule.win32.obj
 0001:000095bb       ??0?$U16String@$0BAAA@@syshlp@core@UModSys@@QAE@PBD@Z 0040a5bb f i umodsys_lib_basesys:umodsys.basesys.rmodule.win32.obj
 0001:000095ec       ?root_get_interface_info@RModule@rsystem@base@UModSys@@UBEABUSUniquePointerInfo@core@4@XZ 0040a5ec f i umodsys_lib_basesys:umodsys.basesys.rmodule.obj
 0001:000095f2       ?root_get_interface_type@RModule@rsystem@base@UModSys@@UBEPBUSUniquePointerInfo@core@4@XZ 0040a5f2 f i umodsys_lib_basesys:umodsys.basesys.rmodule.obj
 0001:000095f8       ?root_get_other_interface@RModule@rsystem@base@UModSys@@UBEPBUIRoot@core@4@PBUSUniquePointerInfo@64@@Z 0040a5f8 f i umodsys_lib_basesys:umodsys.basesys.rmodule.obj
 0001:000095f8       ?root_get_other_interface@RModule@rsystem@base@UModSys@@UAEPAUIRoot@core@4@PBUSUniquePointerInfo@64@@Z 0040a5f8 f i umodsys_lib_basesys:umodsys.basesys.rmodule.obj
 0001:00009619       ?root_is_interface_supported@RModule@rsystem@base@UModSys@@UBE_NPBUSUniquePointerInfo@core@4@@Z 0040a619 f i umodsys_lib_basesys:umodsys.basesys.rmodule.obj
 0001:00009640       ?ref_add@RModule@rsystem@base@UModSys@@UBEXXZ 0040a640 f i umodsys_lib_basesys:umodsys.basesys.rmodule.obj
 0001:00009644       ?ref_remove@RModule@rsystem@base@UModSys@@UBEXXZ 0040a644 f i umodsys_lib_basesys:umodsys.basesys.rmodule.obj
 0001:0000964f       ?ref_links@RModule@rsystem@base@UModSys@@UBEHXZ 0040a64f f i umodsys_lib_basesys:umodsys.basesys.rmodule.obj
 0001:00009653       ?ref_weak@RModule@rsystem@base@UModSys@@UBE_NAAUWeakPointer@IRefObject@core@4@@Z 0040a653 f i umodsys_lib_basesys:umodsys.basesys.rmodule.obj
 0001:00009672       ?suicide@RModule@rsystem@base@UModSys@@UAEXXZ 0040a672 f i umodsys_lib_basesys:umodsys.basesys.rmodule.obj
 0001:000096b2       ?get_library@RModule@rsystem@base@UModSys@@UBEPAUIModuleLibrary@34@XZ 0040a6b2 f   umodsys_lib_basesys:umodsys.basesys.rmodule.obj
 0001:000096b6       ?get_info@RModule@rsystem@base@UModSys@@UBEABUSModuleInfo@34@XZ 0040a6b6 f   umodsys_lib_basesys:umodsys.basesys.rmodule.obj
 0001:000096ba       ?getdebug@RModule@rsystem@base@UModSys@@UBEPAUSDebug@34@XZ 0040a6ba f   umodsys_lib_basesys:umodsys.basesys.rmodule.obj
 0001:000096ca       ?is_open@RModule@rsystem@base@UModSys@@UBE_NXZ 0040a6ca f   umodsys_lib_basesys:umodsys.basesys.rmodule.obj
 0001:000096e3       ?open@RModule@rsystem@base@UModSys@@UAE_NXZ 0040a6e3 f   umodsys_lib_basesys:umodsys.basesys.rmodule.obj
 0001:00009733       ?close@RModule@rsystem@base@UModSys@@UAE_NXZ 0040a733 f   umodsys_lib_basesys:umodsys.basesys.rmodule.obj
 0001:00009770       ?reg@RModule@rsystem@base@UModSys@@UAE_NPAUIModObject@34@_N@Z 0040a770 f   umodsys_lib_basesys:umodsys.basesys.rmodule.obj
 0001:0000979a       ?reg@RModule@rsystem@base@UModSys@@UAE_NPAUIGenerator@34@_N@Z 0040a79a f   umodsys_lib_basesys:umodsys.basesys.rmodule.obj
 0001:000097dc       ?mod_findobjname@RModule@rsystem@base@UModSys@@UAEIPBUSUniquePointerInfo@core@4@QAPBU564@IPBD@Z 0040a7dc f   umodsys_lib_basesys:umodsys.basesys.rmodule.obj
 0001:000098ce       ?mod_generate@RModule@rsystem@base@UModSys@@UAE_NAAU?$TRefObject@UIRefObject@core@UModSys@@U?$TRefObjectFunc@UIRefObject@core@UModSys@@@tl@3@@tl@4@PBUSUniquePointerInfo@core@4@ABUSParameters@84@@Z 0040a8ce f   umodsys_lib_basesys:umodsys.basesys.rmodule.obj
 0001:000099c0       ?reg_generator@RModule@rsystem@base@UModSys@@QAE_NPAUModuleObjInfo@1234@PAUIGenerator@34@@Z 0040a9c0 f   umodsys_lib_basesys:umodsys.basesys.rmodule.obj
 0001:00009b24       ?reg_obj@RModule@rsystem@base@UModSys@@QAEPAUModuleObjInfo@1234@PAUIModObject@34@@Z 0040ab24 f   umodsys_lib_basesys:umodsys.basesys.rmodule.obj
 0001:00009c18       ?unreg_obj@RModule@rsystem@base@UModSys@@QAE_NPAUIModObject@34@@Z 0040ac18 f   umodsys_lib_basesys:umodsys.basesys.rmodule.obj
 0001:00009caa       ?alloc_minfo@RModule@rsystem@base@UModSys@@QAE_NABUSModuleInfo@34@@Z 0040acaa f   umodsys_lib_basesys:umodsys.basesys.rmodule.obj
 0001:00009d1d       ?save_db@RModule@rsystem@base@UModSys@@QAE_NPAU_iobuf@@@Z 0040ad1d f   umodsys_lib_basesys:umodsys.basesys.rmodule.obj
 0001:00009e9e       ??0RModule@rsystem@base@UModSys@@QAE@PAUIModuleLibraryUni@123@PAUIModuleReg@23@@Z 0040ae9e f   umodsys_lib_basesys:umodsys.basesys.rmodule.obj
 0001:00009f48       ??_ERModule@rsystem@base@UModSys@@UAEPAXI@Z 0040af48 f i  CIL library: CIL module
 0001:00009f48       ??_GRModule@rsystem@base@UModSys@@UAEPAXI@Z 0040af48 f i umodsys_lib_basesys:umodsys.basesys.rmodule.obj
 0001:00009f92       ??1?$TDynarrayDynamic@UModuleObjInfo@RModule@rsystem@base@UModSys@@U?$TAllocator@USMemAlloc_Malloc@core@UModSys@@USCountCalcPower2@23@@tl@5@@tl@UModSys@@QAE@XZ 0040af92 f i umodsys_lib_basesys:umodsys.basesys.rmodule.obj
 0001:00009f97       ??1?$TDynarrayDynamic@UGeneratedObjInfo@RModule@rsystem@base@UModSys@@U?$TAllocator@USMemAlloc_Malloc@core@UModSys@@USCountCalcPower2@23@@tl@5@@tl@UModSys@@QAE@XZ 0040af97 f i umodsys_lib_basesys:umodsys.basesys.rmodule.obj
 0001:00009f9c       ??1?$TDynarrayDynamic@PBUSUniquePointerInfo@core@UModSys@@U?$TAllocator@USMemAlloc_Malloc@core@UModSys@@USCountCalcPower2@23@@tl@3@@tl@UModSys@@QAE@XZ 0040af9c f i umodsys_lib_basesys:umodsys.basesys.rmodule.obj
 0001:00009fa1       ??1?$TDynarray@U?$TDynarrayHolderDynamic@UModuleObjInfo@RModule@rsystem@base@UModSys@@U?$TAllocator@USMemAlloc_Malloc@core@UModSys@@USCountCalcPower2@23@@tl@5@@tl@UModSys@@@tl@UModSys@@QAE@XZ 0040afa1 f i umodsys_lib_basesys:umodsys.basesys.rmodule.obj
 0001:00009fdf       ??1?$TDynarray@U?$TDynarrayHolderDynamic@UGeneratedObjInfo@RModule@rsystem@base@UModSys@@U?$TAllocator@USMemAlloc_Malloc@core@UModSys@@USCountCalcPower2@23@@tl@5@@tl@UModSys@@@tl@UModSys@@QAE@XZ 0040afdf f i umodsys_lib_basesys:umodsys.basesys.rmodule.obj
 0001:0000a01a       ??1?$TDynarray@U?$TDynarrayHolderDynamic@PBUSUniquePointerInfo@core@UModSys@@U?$TAllocator@USMemAlloc_Malloc@core@UModSys@@USCountCalcPower2@23@@tl@3@@tl@UModSys@@@tl@UModSys@@QAE@XZ 0040b01a f i umodsys_lib_basesys:umodsys.basesys.rmodule.obj
 0001:0000a055       ?ResizeRel@?$TDynarray@U?$TDynarrayHolderDynamic@UModuleObjInfo@RModule@rsystem@base@UModSys@@U?$TAllocator@USMemAlloc_Malloc@core@UModSys@@USCountCalcPower2@23@@tl@5@@tl@UModSys@@@tl@UModSys@@QAE_NH@Z 0040b055 f i umodsys_lib_basesys:umodsys.basesys.rmodule.obj
 0001:0000a0d7       ?ResizeRel@?$TDynarray@U?$TDynarrayHolderDynamic@UGeneratedObjInfo@RModule@rsystem@base@UModSys@@U?$TAllocator@USMemAlloc_Malloc@core@UModSys@@USCountCalcPower2@23@@tl@5@@tl@UModSys@@@tl@UModSys@@QAE_NH@Z 0040b0d7 f i umodsys_lib_basesys:umodsys.basesys.rmodule.obj
 0001:0000a15a       ?ResizeRel@?$TDynarray@U?$TDynarrayHolderDynamic@PBUSUniquePointerInfo@core@UModSys@@U?$TAllocator@USMemAlloc_Malloc@core@UModSys@@USCountCalcPower2@23@@tl@3@@tl@UModSys@@@tl@UModSys@@QAE_NH@Z 0040b15a f i umodsys_lib_basesys:umodsys.basesys.rmodule.obj
 0001:0000a1b7       ?root_get_interface_info@RModuleLibrarySO@rsystem@base@UModSys@@UBEABUSUniquePointerInfo@core@4@XZ 0040b1b7 f i umodsys_lib_basesys:umodsys.basesys.rmodulelibso.obj
 0001:0000a1bd       ?root_get_interface_type@RModuleLibrarySO@rsystem@base@UModSys@@UBEPBUSUniquePointerInfo@core@4@XZ 0040b1bd f i umodsys_lib_basesys:umodsys.basesys.rmodulelibso.obj
 0001:0000a1c3       ?root_get_interface_types@RLibraryObjFilter@stdlib@media@modules@UModSys@@UBEIAAUSUniquePtrList@core@5@@Z 0040b1c3 f i umodsys_lib_libmedia:umodsys.mod.media.stdlib.obj
 0001:0000a1c3       ?root_get_interface_types@RBinArchiveFrame@stdlib@media@modules@UModSys@@UBEIAAUSUniquePtrList@core@5@@Z 0040b1c3 f i umodsys_lib_libmedia:umodsys.mod.media.stdlib.obj
 0001:0000a1c3       ?root_get_interface_types@RLibraryBinCache@stdlib@media@modules@UModSys@@UBEIAAUSUniquePtrList@core@5@@Z 0040b1c3 f i umodsys_lib_libmedia:umodsys.mod.media.stdlib.obj
 0001:0000a1c3       ?root_get_interface_types@RModuleLibrarySO@rsystem@base@UModSys@@UBEIAAUSUniquePtrList@core@4@@Z 0040b1c3 f i umodsys_lib_basesys:umodsys.basesys.rmodulelibso.obj
 0001:0000a1c3       ?root_get_interface_types@RModuleLibraryThis@rsystem@base@UModSys@@UBEIAAUSUniquePtrList@core@4@@Z 0040b1c3 f i umodsys_lib_basesys:umodsys.basesys.rmodulelibthis.obj
 0001:0000a1c3       ?root_get_interface_types@RParameters@rsystem@base@UModSys@@UBEIAAUSUniquePtrList@core@4@@Z 0040b1c3 f i umodsys_lib_basesys:umodsys.basesys.rparameters.obj
 0001:0000a1c3       ?root_get_interface_types@RDataArchiver_OsDir@stdio@media@modules@UModSys@@UBEIAAUSUniquePtrList@core@5@@Z 0040b1c3 f i umodsys_lib_libmedia:umodsys.mod.media.stdio.obj
 0001:0000a1c3       ?root_get_interface_types@RLibraryObjCache@stdlib@media@modules@UModSys@@UBEIAAUSUniquePtrList@core@5@@Z 0040b1c3 f i umodsys_lib_libmedia:umodsys.mod.media.stdlib.obj
 0001:0000a1c3       ?root_get_interface_types@RConsole_std@rsystem@base@UModSys@@UBEIAAUSUniquePtrList@core@4@@Z 0040b1c3 f i umodsys_lib_basesys:umodsys.basesys.rconsole_std.obj
 0001:0000a1c3       ?root_get_interface_types@RSystem@rsystem@base@UModSys@@UBEIAAUSUniquePtrList@core@4@@Z 0040b1c3 f i umodsys_lib_basesys:umodsys.basesys.rsystem_main.obj
 0001:0000a1c3       ?root_get_interface_types@RStreamWriter_FILE@stdio@media@modules@UModSys@@UBEIAAUSUniquePtrList@core@5@@Z 0040b1c3 f i umodsys_lib_libmedia:umodsys.mod.media.stdio.obj
 0001:0000a1c3       ?root_get_interface_types@RModule@rsystem@base@UModSys@@UBEIAAUSUniquePtrList@core@4@@Z 0040b1c3 f i umodsys_lib_basesys:umodsys.basesys.rmodule.obj
 0001:0000a1c3       ?root_get_interface_types@RUtilities@stdlib@media@modules@UModSys@@UBEIAAUSUniquePtrList@core@5@@Z 0040b1c3 f i umodsys_lib_libmedia:umodsys.mod.media.stdlib.obj
 0001:0000a1c3       ?root_get_interface_types@RStreamReader_FILE@stdio@media@modules@UModSys@@UBEIAAUSUniquePtrList@core@5@@Z 0040b1c3 f i umodsys_lib_libmedia:umodsys.mod.media.stdio.obj
 0001:0000a1c3       ?root_get_interface_types@RLibraryLayered@stdlib@media@modules@UModSys@@UBEIAAUSUniquePtrList@core@5@@Z 0040b1c3 f i umodsys_lib_libmedia:umodsys.mod.media.stdlib.obj
 0001:0000a1c3       ?root_get_interface_types@RLibraryBinTree@stdlib@media@modules@UModSys@@UBEIAAUSUniquePtrList@core@5@@Z 0040b1c3 f i umodsys_lib_libmedia:umodsys.mod.media.stdlib.obj
 0001:0000a1c3       ?root_get_interface_types@RGenerator@stdlib@media@modules@UModSys@@UBEIAAUSUniquePtrList@core@5@@Z 0040b1c3 f i umodsys_lib_libmedia:umodsys.mod.media.stdlib.obj
 0001:0000a1c3       ?root_get_interface_types@RGenerator@stdio@media@modules@UModSys@@UBEIAAUSUniquePtrList@core@5@@Z 0040b1c3 f i umodsys_lib_libmedia:umodsys.mod.media.stdio.obj
 0001:0000a1c8       ?root_get_other_interface@RModuleLibrarySO@rsystem@base@UModSys@@UAEPAUIRoot@core@4@PBUSUniquePointerInfo@64@@Z 0040b1c8 f i umodsys_lib_basesys:umodsys.basesys.rmodulelibso.obj
 0001:0000a1c8       ?root_get_other_interface@RModuleLibrarySO@rsystem@base@UModSys@@UBEPBUIRoot@core@4@PBUSUniquePointerInfo@64@@Z 0040b1c8 f i umodsys_lib_basesys:umodsys.basesys.rmodulelibso.obj
 0001:0000a1f1       ?root_is_interface_supported@RModuleLibrarySO@rsystem@base@UModSys@@UBE_NPBUSUniquePointerInfo@core@4@@Z 0040b1f1 f i umodsys_lib_basesys:umodsys.basesys.rmodulelibso.obj
 0001:0000a210       ?ref_add@RModuleLibrarySO@rsystem@base@UModSys@@UBEXXZ 0040b210 f i umodsys_lib_basesys:umodsys.basesys.rmodulelibso.obj
 0001:0000a217       ?ref_remove@RModuleLibrarySO@rsystem@base@UModSys@@UBEXXZ 0040b217 f i umodsys_lib_basesys:umodsys.basesys.rmodulelibso.obj
 0001:0000a225       ?ref_links@RModuleLibrarySO@rsystem@base@UModSys@@UBEHXZ 0040b225 f i umodsys_lib_basesys:umodsys.basesys.rmodulelibso.obj
 0001:0000a22c       ?ref_weak@RModuleLibrarySO@rsystem@base@UModSys@@UBE_NAAUWeakPointer@IRefObject@core@4@@Z 0040b22c f i umodsys_lib_basesys:umodsys.basesys.rmodulelibso.obj
 0001:0000a24e       ?suicide@RParameters@rsystem@base@UModSys@@UAEXXZ 0040b24e f i umodsys_lib_basesys:umodsys.basesys.rparameters.obj
 0001:0000a24e       ?suicide@IRoot@core@UModSys@@UAEXXZ 0040b24e f i umodsys_lib_core:umodsys.core.objects.obj
 0001:0000a24e       ?suicide@RModuleLibraryThis@rsystem@base@UModSys@@UAEXXZ 0040b24e f i umodsys_lib_basesys:umodsys.basesys.rmodulelibthis.obj
 0001:0000a24e       ?suicide@RModuleLibrarySO@rsystem@base@UModSys@@UAEXXZ 0040b24e f i umodsys_lib_basesys:umodsys.basesys.rmodulelibso.obj
 0001:0000a259       ?uni_load@RModuleLibrarySO@rsystem@base@UModSys@@UAE_NXZ 0040b259 f   umodsys_lib_basesys:umodsys.basesys.rmodulelibso.obj
 0001:0000a28d       ?uni_unload@RModuleLibrarySO@rsystem@base@UModSys@@UAE_NXZ 0040b28d f   umodsys_lib_basesys:umodsys.basesys.rmodulelibso.obj
 0001:0000a298       ?uni_open@RModuleLibrarySO@rsystem@base@UModSys@@UAE_NXZ 0040b298 f   umodsys_lib_basesys:umodsys.basesys.rmodulelibso.obj
 0001:0000a2ba       ?uni_close@RModuleLibrarySO@rsystem@base@UModSys@@UAE_NXZ 0040b2ba f   umodsys_lib_basesys:umodsys.basesys.rmodulelibso.obj
 0001:0000a2ca       ?s_add@RModuleLibrarySO@rsystem@base@UModSys@@SA_NPAUISystem@34@AAU?$TDynarrayDynamic@U?$TRefObject@URModuleLibrarySO@rsystem@base@UModSys@@U?$TRefObjectFunc@URModuleLibrarySO@rsystem@base@UModSys@@@tl@4@@tl@UModSys@@U?$TAllocator@USMemAlloc_Malloc@core@UModSys@@USCountCalcPower2@23@@23@@tl@4@PBD@Z 0040b2ca f   umodsys_lib_basesys:umodsys.basesys.rmodulelibso.obj
 0001:0000a44c       ??_GRModuleLibrarySO@rsystem@base@UModSys@@UAEPAXI@Z 0040b44c f i umodsys_lib_basesys:umodsys.basesys.rmodulelibso.obj
 0001:0000a44c       ??_ERModuleLibrarySO@rsystem@base@UModSys@@UAEPAXI@Z 0040b44c f i  CIL library: CIL module
 0001:0000a49b       ?set@?$TString@U?$TSCoreShared@USMemAlloc_Malloc@core@UModSys@@D@su@tl@UModSys@@U?$TComparerBinaryHash@D@234@@tl@UModSys@@QAEXPBD@Z 0040b49b f i umodsys_lib_basesys:umodsys.basesys.rmodulelibso.obj
 0001:0000a50d       ?Link@SModuleContext@base@UModSys@@QAEXPAUISystem@23@PAUIMemAlloc@core@3@@Z 0040b50d f   umodsys_lib_base:umodsys.base.modulecontext.obj
 0001:0000a559       ?put@SDebug@base@UModSys@@QBA_NEW4eConsoleLevels@23@PBDZZ 0040b559 f   umodsys_lib_base:umodsys.base.debug.obj
 0001:0000a57f       ??0SModuleRegChain@base@UModSys@@QAE@AAUIModuleReg@12@@Z 0040b57f f   umodsys_lib_base:umodsys.base.moduleregchain.obj
 0001:0000a5ae       ?s_get@SModuleRegChain@base@UModSys@@SAPAUIModuleReg@23@I@Z 0040b5ae f   umodsys_lib_base:umodsys.base.moduleregchain.obj
 0001:0000a5d2       ?mlr_count@RModuleLibraryReg_Chain@base@UModSys@@UBEIXZ 0040b5d2 f   umodsys_lib_base:umodsys.base.moduleregchain.obj
 0001:0000a5e5       ?mlr_get@RModuleLibraryReg_Chain@base@UModSys@@UBEPAUIModuleReg@23@I@Z 0040b5e5 f   umodsys_lib_base:umodsys.base.moduleregchain.obj
 0001:0000a5f2       ?mlr_open@RModuleLibraryReg_Chain@base@UModSys@@UAE_NPAUISystem@23@PAUIMemAlloc@core@3@@Z 0040b5f2 f   umodsys_lib_base:umodsys.base.moduleregchain.obj
 0001:0000a61a       ?mlr_close@RModuleLibraryReg_Chain@base@UModSys@@UAE_NXZ 0040b61a f   umodsys_lib_base:umodsys.base.moduleregchain.obj
 0001:0000a64c       ?mlr_isopen@RModuleLibraryReg_Chain@base@UModSys@@UBE_NXZ 0040b64c f   umodsys_lib_base:umodsys.base.moduleregchain.obj
 0001:0000a658       _UModSys_Plugin_Entry2@0   0040b658 f   umodsys_lib_base:umodsys.so_main.win32.obj
 0001:0000a65e       ??0IModuleReg@base@UModSys@@QAE@PBDGG0K_JPAUSDebug@12@@Z 0040b65e f   umodsys_lib_base:umodsys.base.modulereg.obj
 0001:0000a6bf       ?mr_getdebug@IModuleReg@base@UModSys@@UBEPAUSDebug@23@XZ 0040b6bf f   umodsys_lib_base:umodsys.base.modulereg.obj
 0001:0000a6c3       ?mr_isopen@IModuleReg@base@UModSys@@UBE_NXZ 0040b6c3 f   umodsys_lib_base:umodsys.base.modulereg.obj
 0001:0000a6cc       ?mr_open@IModuleReg@base@UModSys@@UAE_NXZ 0040b6cc f   umodsys_lib_base:umodsys.base.modulereg.obj
 0001:0000a704       ?mr_close@IModuleReg@base@UModSys@@UAE_NXZ 0040b704 f   umodsys_lib_base:umodsys.base.modulereg.obj
 0001:0000a72f       ??_ERModuleLibraryReg_Chain@base@UModSys@@UAEPAXI@Z 0040b72f f i  CIL library: CIL module
 0001:0000a72f       ??_GRModuleLibraryReg_Chain@base@UModSys@@UAEPAXI@Z 0040b72f f i umodsys_lib_base:umodsys.base.moduleregchain.obj
 0001:0000a72f       ??_EIModuleLibraryReg@base@UModSys@@UAEPAXI@Z 0040b72f f i  CIL library: CIL module
 0001:0000a72f       ??_GIModuleLibraryReg@base@UModSys@@UAEPAXI@Z 0040b72f f i umodsys_lib_base:umodsys.base.modulereg.obj
 0001:0000a74c       ??1ISystem@base@UModSys@@UAE@XZ 0040b74c f   umodsys_lib_base:umodsys.base.system.obj
 0001:0000a74c       ??1IRefObject@core@UModSys@@UAE@XZ 0040b74c f   umodsys_lib_core:umodsys.core.objects.obj
 0001:0000a74c       ??1IStreamWriter@libmedia@UModSys@@UAE@XZ 0040b74c f   umodsys_lib_libmedia:umodsys.mod.media.stdio.obj
 0001:0000a74c       ??1IUtilities@libmedia@UModSys@@UAE@XZ 0040b74c f   umodsys_lib_libmedia:umodsys.mod.media.stdlib.obj
 0001:0000a74c       ??1IModule@base@UModSys@@UAE@XZ 0040b74c f   umodsys_lib_base:umodsys.base.module.obj
 0001:0000a74c       ??1IStreamReader@libmedia@UModSys@@UAE@XZ 0040b74c f   umodsys_lib_libmedia:umodsys.mod.media.stdio.obj
 0001:0000a753       ??1IModuleLoader@base@UModSys@@UAE@XZ 0040b753 f   umodsys_lib_base:umodsys.base.moduleloader.obj
 0001:0000a75a       ??0SUniquePointer@core@UModSys@@QAE@PBD0H@Z 0040b75a f   umodsys_lib_core:umodsys.core.uniqueptr.obj
 0001:0000a79d       ??1SModuleRegChain@base@UModSys@@QAE@XZ 0040b79d f   umodsys_lib_base:umodsys.base.moduleregchain.obj
 0001:0000a79d       ??1SUniquePointer@core@UModSys@@QAE@XZ 0040b79d f   umodsys_lib_core:umodsys.core.uniqueptr.obj
 0001:0000a7bb       ?s_resolve@SUniquePointer@core@UModSys@@SAXPAUIUniquePointerResolver@23@@Z 0040b7bb f   umodsys_lib_core:umodsys.core.uniqueptr.obj
 0001:0000a7f8       ?s_unresolve@SUniquePointer@core@UModSys@@SAXPAUIUniquePointerResolver@23@@Z 0040b7f8 f   umodsys_lib_core:umodsys.core.uniqueptr.obj
 0001:0000a823       ?con_setcolor@syshlp@core@UModSys@@YAXPAU_iobuf@@PBE@Z 0040b823 f   umodsys_lib_core:umodsys.core.syshlp_files.win32.obj
 0001:0000a8de       ?u_fopen@syshlp@core@UModSys@@YAPAU_iobuf@@PBD0@Z 0040b8de f   umodsys_lib_core:umodsys.core.syshlp_files.win32.obj
 0001:0000a94c       ?u_fopentemp@syshlp@core@UModSys@@YAPAU_iobuf@@AAPADPBD@Z 0040b94c f   umodsys_lib_core:umodsys.core.syshlp_files.win32.obj
 0001:0000a9d6       ?u_fendtemp@syshlp@core@UModSys@@YA_NAAPAU_iobuf@@AAPAD_N@Z 0040b9d6 f   umodsys_lib_core:umodsys.core.syshlp_files.win32.obj
 0001:0000aa6d       ??3IRoot@core@UModSys@@SAXPAX@Z 0040ba6d f   umodsys_lib_core:umodsys.core.objects.obj
 0001:0000aa86       ?Set@?$TSet@U?$TArray@PBUSUniquePointerInfo@core@UModSys@@@tl@UModSys@@U?$TScalarCompare@PBUSUniquePointerInfo@core@UModSys@@@core@3@@tl@UModSys@@QAE_NABQBUSUniquePointerInfo@core@3@@Z 0040ba86 f i umodsys_lib_core:umodsys.core.uniqueptrlist.obj
 0001:0000aaf8       ?utf_nocase32@su@tl@UModSys@@YAHH@Z 0040baf8 f   umodsys_lib_core:umodsys.tl.utfcase.obj
 0001:0000d074       ?utf8_cmp_nocase_bin@su@tl@UModSys@@YAHPBD0II@Z 0040e074 f   umodsys_lib_core:umodsys.tl.utfcase.obj
 0001:0000d0f6       ?gracial_cpy@syshlp@core@UModSys@@YA_NPADHQAPBDH@Z 0040e0f6 f   umodsys_lib_core:umodsys.core.syshlp_chars.win32.obj
 0001:0000d179       ?gracial_cpy@syshlp@core@UModSys@@YA_NPA_WHQAPB_WH@Z 0040e179 f   umodsys_lib_core:umodsys.core.syshlp_chars.win32.obj
 0001:0000d209       ?path_uni_os@syshlp@core@UModSys@@YAXPA_W@Z 0040e209 f   umodsys_lib_core:umodsys.core.syshlp_chars.win32.obj
 0001:0000d220       ?gracial_convert@syshlp@core@UModSys@@YA_NPA_WHPBDH@Z 0040e220 f   umodsys_lib_core:umodsys.core.syshlp_charcode.win32.obj
 0001:0000d24d       ?gracial_convert@syshlp@core@UModSys@@YA_NPADHPB_WH@Z 0040e24d f   umodsys_lib_core:umodsys.core.syshlp_charcode.win32.obj
 0001:0000d27d       ?utf_8to32@su@tl@UModSys@@YA_NAAHAAPBDAAI@Z 0040e27d f   umodsys_lib_core:umodsys.tl.utf8.obj
 0001:0000d33c       __onexit                   0040e33c f   MSVCRT:atonexit.obj
 0001:0000d3e1       _atexit                    0040e3e1 f   MSVCRT:atonexit.obj
 0001:0000d69a       _mainCRTStartup            0040e69a f   MSVCRT:crtexe.obj
 0001:0000d6a4       __purecall                 0040e6a4 f   MSVCRT:MSVCR90.dll
 0001:0000d6aa       ??3@YAXPAX@Z               0040e6aa f   MSVCRT:MSVCR90.dll
 0001:0000d6b0       ??_Etype_info@@UAEPAXI@Z   0040e6b0 f i MSVCRT:ti_inst.obj
 0001:0000d6fc       ??2@YAPAXI@Z               0040e6fc f   MSVCRT:MSVCR90.dll
 0001:0000d702       __unlock                   0040e702 f   MSVCRT:MSVCR90.dll
 0001:0000d708       ___dllonexit               0040e708 f   MSVCRT:MSVCR90.dll
 0001:0000d70e       __lock                     0040e70e f   MSVCRT:MSVCR90.dll
 0001:0000d714       __SEH_prolog4              0040e714 f   MSVCRT:sehprolg4.obj
 0001:0000d759       __SEH_epilog4              0040e759 f   MSVCRT:sehprolg4.obj
 0001:0000d76d       __except_handler4          0040e76d f   MSVCRT:chandler4gs.obj
 0001:0000d792       ?__CxxUnhandledExceptionFilter@@YGJPAU_EXCEPTION_POINTERS@@@Z 0040e792 f   MSVCRT:unhandld.obj
 0001:0000d7d4       ___CxxSetUnhandledExceptionFilter 0040e7d4 f   MSVCRT:unhandld.obj
 0001:0000d7e2       __amsg_exit                0040e7e2 f   MSVCRT:MSVCR90.dll
 0001:0000d7e8       __RTC_Initialize           0040e7e8 f   MSVCRT:_initsect_.obj
 0001:0000d80e       __RTC_Terminate            0040e80e f   MSVCRT:_initsect_.obj
 0001:0000d834       __XcptFilter               0040e834 f   MSVCRT:MSVCR90.dll
 0001:0000d840       __ValidateImageBase        0040e840 f   MSVCRT:pesect.obj
 0001:0000d880       __FindPESection            0040e880 f   MSVCRT:pesect.obj
 0001:0000d8d0       __IsNonwritableInCurrentImage 0040e8d0 f   MSVCRT:pesect.obj
 0001:0000d98e       __initterm                 0040e98e f   MSVCRT:MSVCR90.dll
 0001:0000d994       __initterm_e               0040e994 f   MSVCRT:MSVCR90.dll
 0001:0000d99a       __setdefaultprecision      0040e99a f   MSVCRT:fp8.obj
 0001:0000d9c5       ?get_syslib@RSystem@rsystem@base@UModSys@@UAEPAUIModuleLibrary@34@XZ 0040e9c5 f   umodsys_lib_basesys:umodsys.basesys.rsystem.obj
 0001:0000d9c5       __matherr                  0040e9c5 f   MSVCRT:merr.obj
 0001:0000d9c5       __setargv                  0040e9c5 f   MSVCRT:dllargv.obj
 0001:0000d9c5       ?ref_links@RConsole_std@rsystem@base@UModSys@@UBEHXZ 0040e9c5 f   umodsys_lib_basesys:umodsys.basesys.rconsole_std.obj
 0001:0000d9c8       ___security_init_cookie    0040e9c8 f   MSVCRT:gs_support.obj
 0001:0000da5e       ?__ArrayUnwind@@YGXPAXIHP6EX0@Z@Z 0040ea5e f   MSVCRT:ehvecdtr.obj
 0001:0000dabc       ??_M@YGXPAXIHP6EX0@Z@Z     0040eabc f   MSVCRT:ehvecdtr.obj
 0001:0000db1f       @__security_check_cookie@4 0040eb1f f   MSVCRT:secchk.obj
 0001:0000db2e       __except_handler4_common   0040eb2e f   MSVCRT:MSVCR90.dll
 0001:0000db34       ?terminate@@YAXXZ          0040eb34 f   MSVCRT:MSVCR90.dll
 0001:0000db3a       __invoke_watson            0040eb3a f   MSVCRT:MSVCR90.dll
 0001:0000db40       __controlfp_s              0040eb40 f   MSVCRT:MSVCR90.dll
 0001:0000db46       ??1type_info@@UAE@XZ       0040eb46 f   MSVCRT:MSVCR90.dll
 0001:0000db46       ?_type_info_dtor_internal_method@type_info@@QAEXXZ 0040eb46 f   MSVCRT:MSVCR90.dll
 0001:0000db4c       ___report_gsfailure        0040eb4c f   MSVCRT:gs_report.obj
 0001:0000dc52       __crt_debugger_hook        0040ec52 f   MSVCRT:MSVCR90.dll
 0001:0000dc58       _memcpy                    0040ec58 f   MSVCRT:MSVCR90.dll
 0001:0000dc60       __alloca_probe             0040ec60     MSVCRT:chkstk.obj
 0001:0000dc60       __chkstk                   0040ec60 f   MSVCRT:chkstk.obj
 0001:0000dc8c       ___CxxFrameHandler3        0040ec8c f   MSVCRT:MSVCR90.dll
 0001:0000dc94       __EH_prolog                0040ec94 f   MSVCRT:ehprolog.obj
 0001:0000dcb4       __CxxThrowException@8      0040ecb4 f   MSVCRT:MSVCR90.dll
 0002:00000000       __imp__UnhandledExceptionFilter@4 00410000     kernel32:KERNEL32.dll
 0002:00000004       __imp__GetCurrentProcess@0 00410004     kernel32:KERNEL32.dll
 0002:00000008       __imp__TerminateProcess@8  00410008     kernel32:KERNEL32.dll
 0002:0000000c       __imp__GetSystemTimeAsFileTime@4 0041000c     kernel32:KERNEL32.dll
 0002:00000010       __imp__GetCurrentProcessId@0 00410010     kernel32:KERNEL32.dll
 0002:00000014       __imp__GetCurrentThreadId@0 00410014     kernel32:KERNEL32.dll
 0002:00000018       __imp__GetTickCount@0      00410018     kernel32:KERNEL32.dll
 0002:0000001c       __imp__QueryPerformanceCounter@4 0041001c     kernel32:KERNEL32.dll
 0002:00000020       __imp__SetUnhandledExceptionFilter@4 00410020     kernel32:KERNEL32.dll
 0002:00000024       __imp__InterlockedCompareExchange@12 00410024     kernel32:KERNEL32.dll
 0002:00000028       __imp__Sleep@4             00410028     kernel32:KERNEL32.dll
 0002:0000002c       __imp__InterlockedExchange@8 0041002c     kernel32:KERNEL32.dll
 0002:00000030       __imp__MultiByteToWideChar@24 00410030     kernel32:KERNEL32.dll
 0002:00000034       __imp__WideCharToMultiByte@32 00410034     kernel32:KERNEL32.dll
 0002:00000038       __imp__SetConsoleOutputCP@4 00410038     kernel32:KERNEL32.dll
 0002:0000003c       __imp__GetLastError@0      0041003c     kernel32:KERNEL32.dll
 0002:00000040       __imp__GetConsoleOutputCP@0 00410040     kernel32:KERNEL32.dll
 0002:00000044       __imp__SetConsoleTextAttribute@8 00410044     kernel32:KERNEL32.dll
 0002:00000048       __imp__FindNextFileW@8     00410048     kernel32:KERNEL32.dll
 0002:0000004c       __imp__FindClose@4         0041004c     kernel32:KERNEL32.dll
 0002:00000050       __imp__GetProcAddress@8    00410050     kernel32:KERNEL32.dll
 0002:00000054       __imp__GetModuleFileNameW@12 00410054     kernel32:KERNEL32.dll
 0002:00000058       __imp__GetModuleHandleW@4  00410058     kernel32:KERNEL32.dll
 0002:0000005c       __imp__LoadLibraryExW@12   0041005c     kernel32:KERNEL32.dll
 0002:00000060       __imp__FreeLibrary@4       00410060     kernel32:KERNEL32.dll
 0002:00000064       __imp__SetErrorMode@4      00410064     kernel32:KERNEL32.dll
 0002:00000068       __imp__FindFirstFileW@8    00410068     kernel32:KERNEL32.dll
 0002:0000006c       __imp__GetFullPathNameW@16 0041006c     kernel32:KERNEL32.dll
 0002:00000070       __imp__IsDebuggerPresent@0 00410070     kernel32:KERNEL32.dll
 0002:00000074       \177KERNEL32_NULL_THUNK_DATA 00410074     kernel32:KERNEL32.dll
 0002:00000078       __imp___lock               00410078     MSVCRT:MSVCR90.dll
 0002:0000007c       __imp___onexit             0041007c     MSVCRT:MSVCR90.dll
 0002:00000080       __imp___decode_pointer     00410080     MSVCRT:MSVCR90.dll
 0002:00000084       __imp___amsg_exit          00410084     MSVCRT:MSVCR90.dll
 0002:00000088       __imp____getmainargs       00410088     MSVCRT:MSVCR90.dll
 0002:0000008c       __imp___cexit              0041008c     MSVCRT:MSVCR90.dll
 0002:00000090       __imp___exit               00410090     MSVCRT:MSVCR90.dll
 0002:00000094       __imp___XcptFilter         00410094     MSVCRT:MSVCR90.dll
 0002:00000098       __imp__exit                00410098     MSVCRT:MSVCR90.dll
 0002:0000009c       __imp____initenv           0041009c     MSVCRT:MSVCR90.dll
 0002:000000a0       __imp___initterm           004100a0     MSVCRT:MSVCR90.dll
 0002:000000a4       __imp___initterm_e         004100a4     MSVCRT:MSVCR90.dll
 0002:000000a8       __imp___encode_pointer     004100a8     MSVCRT:MSVCR90.dll
 0002:000000ac       __imp____setusermatherr    004100ac     MSVCRT:MSVCR90.dll
 0002:000000b0       __imp___adjust_fdiv        004100b0     MSVCRT:MSVCR90.dll
 0002:000000b4       __imp____p__commode        004100b4     MSVCRT:MSVCR90.dll
 0002:000000b8       __imp____p__fmode          004100b8     MSVCRT:MSVCR90.dll
 0002:000000bc       __imp____set_app_type      004100bc     MSVCRT:MSVCR90.dll
 0002:000000c0       __imp___except_handler4_common 004100c0     MSVCRT:MSVCR90.dll
 0002:000000c4       __imp_?terminate@@YAXXZ    004100c4     MSVCRT:MSVCR90.dll
 0002:000000c8       __imp___invoke_watson      004100c8     MSVCRT:MSVCR90.dll
 0002:000000cc       __imp___controlfp_s        004100cc     MSVCRT:MSVCR90.dll
 0002:000000d0       __imp_?_type_info_dtor_internal_method@type_info@@QAEXXZ 004100d0     MSVCRT:MSVCR90.dll
 0002:000000d4       __imp___crt_debugger_hook  004100d4     MSVCRT:MSVCR90.dll
 0002:000000d8       __imp____dllonexit         004100d8     MSVCRT:MSVCR90.dll
 0002:000000dc       __imp___unlock             004100dc     MSVCRT:MSVCR90.dll
 0002:000000e0       __imp___vsnprintf          004100e0     MSVCRT:MSVCR90.dll
 0002:000000e4       __imp___get_osfhandle      004100e4     MSVCRT:MSVCR90.dll
 0002:000000e8       __imp___fileno             004100e8     MSVCRT:MSVCR90.dll
 0002:000000ec       __imp___chsize             004100ec     MSVCRT:MSVCR90.dll
 0002:000000f0       __imp__remove              004100f0     MSVCRT:MSVCR90.dll
 0002:000000f4       __imp___wfopen             004100f4     MSVCRT:MSVCR90.dll
 0002:000000f8       __imp__rename              004100f8     MSVCRT:MSVCR90.dll
 0002:000000fc       __imp__realloc             004100fc     MSVCRT:MSVCR90.dll
 0002:00000100       __imp__fprintf             00410100     MSVCRT:MSVCR90.dll
 0002:00000104       __imp__strncpy             00410104     MSVCRT:MSVCR90.dll
 0002:00000108       __imp___snprintf           00410108     MSVCRT:MSVCR90.dll
 0002:0000010c       __imp__malloc              0041010c     MSVCRT:MSVCR90.dll
 0002:00000110       __imp__free                00410110     MSVCRT:MSVCR90.dll
 0002:00000114       __imp__vfprintf            00410114     MSVCRT:MSVCR90.dll
 0002:00000118       __imp____iob_func          00410118     MSVCRT:MSVCR90.dll
 0002:0000011c       __imp__strstr              0041011c     MSVCRT:MSVCR90.dll
 0002:00000120       __imp_??2@YAPAXI@Z         00410120     MSVCRT:MSVCR90.dll
 0002:00000124       __imp__strncmp             00410124     MSVCRT:MSVCR90.dll
 0002:00000128       __imp__fclose              00410128     MSVCRT:MSVCR90.dll
 0002:0000012c       __imp__fseek               0041012c     MSVCRT:MSVCR90.dll
 0002:00000130       __imp__ftell               00410130     MSVCRT:MSVCR90.dll
 0002:00000134       __imp__fwrite              00410134     MSVCRT:MSVCR90.dll
 0002:00000138       __imp_??3@YAXPAX@Z         00410138     MSVCRT:MSVCR90.dll
 0002:0000013c       __imp___purecall           0041013c     MSVCRT:MSVCR90.dll
 0002:00000140       __imp__fread               00410140     MSVCRT:MSVCR90.dll
 0002:00000144       __imp___configthreadlocale 00410144     MSVCRT:MSVCR90.dll
 0002:00000148       __imp__fflush              00410148     MSVCRT:MSVCR90.dll
 0002:0000014c       __imp__memcpy              0041014c     MSVCRT:MSVCR90.dll
 0002:00000150       __imp____CxxFrameHandler3  00410150     MSVCRT:MSVCR90.dll
 0002:00000154       __imp___CxxThrowException@8 00410154     MSVCRT:MSVCR90.dll
 0002:00000158       \177MSVCR90_NULL_THUNK_DATA 00410158     MSVCRT:MSVCR90.dll
 0002:0000015c       ___xc_a                    0041015c     MSVCRT:cinitexe.obj
 0002:000004dc       ___xc_z                    004104dc     MSVCRT:cinitexe.obj
 0002:000004e0       ___xi_a                    004104e0     MSVCRT:cinitexe.obj
 0002:000004ec       ___xi_z                    004104ec     MSVCRT:cinitexe.obj
 0002:000004f4       ??_7type_info@@6B@         004104f4     MSVCRT:ti_inst.obj
 0002:00000500       ??_C@_0P@GHFPNOJB@bad?5allocation?$AA@ 00410500     umodsys.c_main.obj
 0002:00000510       ??_C@_0BF@OCNNAADO@UModSys?3?3core?3?3IRoot?$AA@ 00410510     umodsys.c_main.obj
 0002:00000528       ??_C@_0BK@EMIJFOPA@UModSys?3?3core?3?3IRefObject?$AA@ 00410528     umodsys.c_main.obj
 0002:00000544       ??_C@_0BL@IOMMHELF@UModSys?3?3core?3?3IParameters?$AA@ 00410544     umodsys.c_main.obj
 0002:00000560       ??_C@_0BI@IKAOEFAP@UModSys?3?3base?3?3IConsole?$AA@ 00410560     umodsys.c_main.obj
 0002:00000578       ??_C@_0BH@LKDEEPPM@UModSys?3?3base?3?3IModule?$AA@ 00410578     umodsys.c_main.obj
 0002:00000590       ??_C@_0BO@PHJOHFCB@UModSys?3?3base?3?3IModuleLibrary?$AA@ 00410590     umodsys.c_main.obj
 0002:000005b0       ??_C@_0BK@FDPIOPHG@UModSys?3?3base?3?3IModObject?$AA@ 004105b0     umodsys.c_main.obj
 0002:000005cc       ??_C@_0BK@OIBKNCKJ@UModSys?3?3base?3?3IGenerator?$AA@ 004105cc     umodsys.c_main.obj
 0002:000005e8       ??_C@_0BG@PJBGCMEC@UModSys?3?3base?3?3IShell?$AA@ 004105e8     umodsys.c_main.obj
 0002:00000600       ??_C@_0BH@PFCONEJJ@UModSys?3?3base?3?3ISystem?$AA@ 00410600     umodsys.c_main.obj
 0002:00000618       ??_C@_0CA@MDFMKLLN@UModSys?3?3base?3?3rsystem?3?3RModule?$AA@ 00410618     umodsys.c_main.obj
 0002:00000638       ??_C@_0CK@MJPNGLHN@UModSys?3?3base?3?3rsystem?3?3IModuleL@ 00410638     umodsys.c_main.obj
 0002:00000664       ??_C@_0CJ@OPOMMGLJ@UModSys?3?3base?3?3rsystem?3?3RModuleL@ 00410664     umodsys.c_main.obj
 0002:00000690       ??_C@_0CL@ILNBAMJF@UModSys?3?3base?3?3rsystem?3?3RModuleL@ 00410690     umodsys.c_main.obj
 0002:000006bc       ??_C@_0CE@IHGMMEEA@UModSys?3?3base?3?3rsystem?3?3RParamet@ 004106bc     umodsys.c_main.obj
 0002:000006e0       ??_C@_0CA@IMEGDANI@UModSys?3?3base?3?3rsystem?3?3RSystem?$AA@ 004106e0     umodsys.c_main.obj
 0002:00000700       ??_C@_0CF@KIMLNODL@UModSys?3?3base?3?3rsystem?3?3RConsole@ 00410700     umodsys.c_main.obj
 0002:00000728       ??_C@_0M@DCEPEPFJ@umodsys?4log?$AA@ 00410728     umodsys.c_main.obj
 0002:00000734       ??_C@_00CNPNBAHC@?$AA@     00410734     umodsys.c_main.obj
 0002:00000738       ??_C@_01NBENCBCI@?$CK?$AA@ 00410738     umodsys.c_main.obj
 0002:0000073c       ??_C@_0BC@JABDEAFI@moduledb?4conf?9hdb?$AA@ 0041073c     umodsys.c_main.obj
 0002:00000750       ??_C@_08FCBDOIAH@typeinfo?$AA@ 00410750     umodsys.c_main.obj
 0002:0000075c       ??_C@_0CB@CLGNFEGF@UModSys?3?3libmedia?3?3IStreamReader@ 0041075c     umodsys_lib_libmedia:umodsys.mod.media.stdio.obj
 0002:00000780       ??_C@_0CB@HOPFFLP@UModSys?3?3libmedia?3?3IStreamWriter@ 00410780     umodsys_lib_libmedia:umodsys.mod.media.stdio.obj
 0002:000007a4       ??_C@_0BO@INLIIEII@UModSys?3?3libmedia?3?3IUtilities?$AA@ 004107a4     umodsys_lib_libmedia:umodsys.mod.media.stdio.obj
 0002:000007c4       ??_C@_0BO@BMLODIDG@UModSys?3?3libmedia?3?3ILibObject?$AA@ 004107c4     umodsys_lib_libmedia:umodsys.mod.media.stdio.obj
 0002:000007e4       ??_C@_0BP@KCJMEDNO@UModSys?3?3libmedia?3?3IBinArchive?$AA@ 004107e4     umodsys_lib_libmedia:umodsys.mod.media.stdio.obj
 0002:00000804       ??_C@_0CB@FDEKNMGJ@UModSys?3?3libmedia?3?3IBinObjFilter@ 00410804     umodsys_lib_libmedia:umodsys.mod.media.stdio.obj
 0002:00000828       ??_C@_0BM@DPCMOAPM@UModSys?3?3libmedia?3?3ILibrary?$AA@ 00410828     umodsys_lib_libmedia:umodsys.mod.media.stdio.obj
 0002:00000844       ??_C@_0DD@HMDIDEEB@UModSys?3?3modules?3?3media?3?3stdio?3?3@ 00410844     umodsys_lib_libmedia:umodsys.mod.media.stdio.obj
 0002:00000878       ??_C@_08BABJIOEM@filename?$AA@ 00410878     umodsys_lib_libmedia:umodsys.mod.media.stdio.obj
 0002:00000884       ??_C@_02JDPG@rb?$AA@       00410884     umodsys_lib_libmedia:umodsys.mod.media.stdio.obj
 0002:00000888       ??_C@_0DD@NMEBJAJM@UModSys?3?3modules?3?3media?3?3stdio?3?3@ 00410888     umodsys_lib_libmedia:umodsys.mod.media.stdio.obj
 0002:000008bc       ??_C@_04FAOFCKOL@safe?$AA@ 004108bc     umodsys_lib_libmedia:umodsys.mod.media.stdio.obj
 0002:000008c4       ??_C@_02GMLFBBN@wb?$AA@    004108c4     umodsys_lib_libmedia:umodsys.mod.media.stdio.obj
 0002:000008c8       ??_C@_0DE@KBMIHBCD@UModSys?3?3modules?3?3media?3?3stdio?3?3@ 004108c8     umodsys_lib_libmedia:umodsys.mod.media.stdio.obj
 0002:000008fc       ??_C@_01LFCBOECM@?4?$AA@   004108fc     umodsys_lib_libmedia:umodsys.mod.media.stdio.obj
 0002:00000900       ??_C@_04LNEJFJGI@path?$AA@ 00410900     umodsys_lib_libmedia:umodsys.mod.media.stdio.obj
 0002:00000908       ??_C@_08PEIJGPHF@pathname?$AA@ 00410908     umodsys_lib_libmedia:umodsys.mod.media.stdio.obj
 0002:00000914       ??_C@_0M@PANNIBHH@permissions?$AA@ 00410914     umodsys_lib_libmedia:umodsys.mod.media.stdio.obj
 0002:00000920       ??_C@_0P@DDBOOPIK@?$HL?$HLos?5load?5?$CFs?$HN?$HN?$AA@ 00410920     umodsys_lib_libmedia:umodsys.mod.media.stdio.obj
 0002:00000930       ??_C@_0CL@IOBDHHMI@UModSys?3?3modules?3?3media?3?3stdio?3?3@ 00410930     umodsys_lib_libmedia:umodsys.mod.media.stdio.obj
 0002:0000095c       ??_C@_0BJ@NOFIIAEK@U_MOD?3?3RGenerator?3unique?$AA@ 0041095c     umodsys_lib_libmedia:umodsys.mod.media.stdio.obj
 0002:00000978       ??_C@_0N@HJPCMPI@media?3?3stdio?$AA@ 00410978     umodsys_lib_libmedia:umodsys.mod.media.stdio.obj
 0002:00000988       ??_C@_09JGNMLHG@modobject?$AA@ 00410988     umodsys_lib_libmedia:umodsys.mod.media.stdio.obj
 0002:00000998       ??_7IRoot@core@UModSys@@6B@ 00410998     umodsys_lib_libmedia:umodsys.mod.media.stdio.obj
 0002:000009bc       ??_7ISetter@SFlags@libmedia@UModSys@@6B@ 004109bc     umodsys_lib_libmedia:umodsys.mod.media.stdio.obj
 0002:000009cc       ??_7RGenerator@stdio@media@modules@UModSys@@6B@ 004109cc     umodsys_lib_libmedia:umodsys.mod.media.stdio.obj
 0002:00000a1c       ??_7RStreamReader_FILE@stdio@media@modules@UModSys@@6B@ 00410a1c     umodsys_lib_libmedia:umodsys.mod.media.stdio.obj
 0002:00000a6c       ??_7RStreamWriter_FILE@stdio@media@modules@UModSys@@6B@ 00410a6c     umodsys_lib_libmedia:umodsys.mod.media.stdio.obj
 0002:00000acc       ??_7RDataArchiver_OsDir@stdio@media@modules@UModSys@@6BIRefObject@core@4@@ 00410acc     umodsys_lib_libmedia:umodsys.mod.media.stdio.obj
 0002:00000b1c       ??_7RDataArchiver_OsDir@stdio@media@modules@UModSys@@6BISetter@SFlags@libmedia@4@@ 00410b1c     umodsys_lib_libmedia:umodsys.mod.media.stdio.obj
 0002:00000b2c       ??_7RModuleReg@stdio@media@modules@UModSys@@6B@ 00410b2c     umodsys_lib_libmedia:umodsys.mod.media.stdio.obj
 0002:00000b48       ??_C@_0CD@ELIFEGE@UModSys?3?3libmedia?3?3ILibraryBinTr@ 00410b48     umodsys_lib_libmedia:umodsys.mod.media.stdlib.obj
 0002:00000b6c       ??_C@_0CE@EGHBJBAJ@UModSys?3?3libmedia?3?3ILibraryBinCa@ 00410b6c     umodsys_lib_libmedia:umodsys.mod.media.stdlib.obj
 0002:00000b90       ??_C@_0CF@LBIGBLOK@UModSys?3?3libmedia?3?3ILibraryObjFi@ 00410b90     umodsys_lib_libmedia:umodsys.mod.media.stdlib.obj
 0002:00000bb8       ??_C@_0CE@BOBLEOBL@UModSys?3?3libmedia?3?3ILibraryObjCa@ 00410bb8     umodsys_lib_libmedia:umodsys.mod.media.stdlib.obj
 0002:00000bdc       ??_C@_0CD@LJFEJKGF@UModSys?3?3libmedia?3?3ILibraryLayer@ 00410bdc     umodsys_lib_libmedia:umodsys.mod.media.stdlib.obj
 0002:00000c00       ??_C@_0CE@FGFAKEDN@UModSys?3?3libmedia?3?3IBinArchiveFr@ 00410c00     umodsys_lib_libmedia:umodsys.mod.media.stdlib.obj
 0002:00000c24       ??_C@_0CN@GBHCKFMF@UModSys?3?3libmedia?3?3IBinArchiveFr@ 00410c24     umodsys_lib_libmedia:umodsys.mod.media.stdlib.obj
 0002:00000c54       ??_C@_0CM@MNCPANLP@UModSys?3?3modules?3?3media?3?3stdlib?3@ 00410c54     umodsys_lib_libmedia:umodsys.mod.media.stdlib.obj
 0002:00000c80       ??_C@_0DC@KDNEBFBG@UModSys?3?3modules?3?3media?3?3stdlib?3@ 00410c80     umodsys_lib_libmedia:umodsys.mod.media.stdlib.obj
 0002:00000cb4       ??_C@_0DB@IPMNCIDD@UModSys?3?3modules?3?3media?3?3stdlib?3@ 00410cb4     umodsys_lib_libmedia:umodsys.mod.media.stdlib.obj
 0002:00000ce8       ??_C@_0DC@LDPFCACC@UModSys?3?3modules?3?3media?3?3stdlib?3@ 00410ce8     umodsys_lib_libmedia:umodsys.mod.media.stdlib.obj
 0002:00000d1c       ??_C@_0DB@DCCBOGDC@UModSys?3?3modules?3?3media?3?3stdlib?3@ 00410d1c     umodsys_lib_libmedia:umodsys.mod.media.stdlib.obj
 0002:00000d50       ??_C@_0DC@OLJPPPDA@UModSys?3?3modules?3?3media?3?3stdlib?3@ 00410d50     umodsys_lib_libmedia:umodsys.mod.media.stdlib.obj
 0002:00000d84       ??_C@_0DD@BNMPGGBL@UModSys?3?3modules?3?3media?3?3stdlib?3@ 00410d84     umodsys_lib_libmedia:umodsys.mod.media.stdlib.obj
 0002:00000db8       ??_C@_0CM@LNHMJHON@UModSys?3?3modules?3?3media?3?3stdlib?3@ 00410db8     umodsys_lib_libmedia:umodsys.mod.media.stdlib.obj
 0002:00000de4       ??_C@_06DGDLPBAN@client?$AA@ 00410de4     umodsys_lib_libmedia:umodsys.mod.media.stdlib.obj
 0002:00000dec       ??_C@_07OPILGPEN@library?$AA@ 00410dec     umodsys_lib_libmedia:umodsys.mod.media.stdlib.obj
 0002:00000df4       ??_C@_05NGFEDHGN@write?$AA@ 00410df4     umodsys_lib_libmedia:umodsys.mod.media.stdlib.obj
 0002:00000dfc       ??_C@_0L@LOIPJDMA@media?3?3std?$AA@ 00410dfc     umodsys_lib_libmedia:umodsys.mod.media.stdlib.obj
 0002:00000e0c       ??_7RResolverChain@SFlagsChain@libmedia@UModSys@@6B@ 00410e0c     umodsys_lib_libmedia:umodsys.mod.media.stdlib.obj
 0002:00000e14       ??_7RGenerator@stdlib@media@modules@UModSys@@6B@ 00410e14     umodsys_lib_libmedia:umodsys.mod.media.stdlib.obj
 0002:00000e64       ??_7RUtilities@stdlib@media@modules@UModSys@@6B@ 00410e64     umodsys_lib_libmedia:umodsys.mod.media.stdlib.obj
 0002:00000eb4       ??_7RBinArchiveFrame@stdlib@media@modules@UModSys@@6BIRefObject@core@4@@ 00410eb4     umodsys_lib_libmedia:umodsys.mod.media.stdlib.obj
 0002:00000f20       ??_7RBinArchiveFrame@stdlib@media@modules@UModSys@@6BISetter@SFlags@libmedia@4@@ 00410f20     umodsys_lib_libmedia:umodsys.mod.media.stdlib.obj
 0002:00000f34       ??_7RLibraryBinTree@stdlib@media@modules@UModSys@@6BIRefObject@core@4@@ 00410f34     umodsys_lib_libmedia:umodsys.mod.media.stdlib.obj
 0002:00000fb8       ??_7RLibraryBinTree@stdlib@media@modules@UModSys@@6BISetter@SFlags@libmedia@4@@ 00410fb8     umodsys_lib_libmedia:umodsys.mod.media.stdlib.obj
 0002:00000fcc       ??_7RLibraryBinCache@stdlib@media@modules@UModSys@@6BIRefObject@core@4@@ 00410fcc     umodsys_lib_libmedia:umodsys.mod.media.stdlib.obj
 0002:00001054       ??_7RLibraryBinCache@stdlib@media@modules@UModSys@@6BISetter@SFlags@libmedia@4@@ 00411054     umodsys_lib_libmedia:umodsys.mod.media.stdlib.obj
 0002:00001064       ??_7RLibraryLayered@stdlib@media@modules@UModSys@@6BIRefObject@core@4@@ 00411064     umodsys_lib_libmedia:umodsys.mod.media.stdlib.obj
 0002:000010f0       ??_7RLibraryLayered@stdlib@media@modules@UModSys@@6BISetter@SFlags@libmedia@4@@ 004110f0     umodsys_lib_libmedia:umodsys.mod.media.stdlib.obj
 0002:00001104       ??_7RLibraryObjCache@stdlib@media@modules@UModSys@@6BIRefObject@core@4@@ 00411104     umodsys_lib_libmedia:umodsys.mod.media.stdlib.obj
 0002:00001188       ??_7RLibraryObjCache@stdlib@media@modules@UModSys@@6BISetter@SFlags@libmedia@4@@ 00411188     umodsys_lib_libmedia:umodsys.mod.media.stdlib.obj
 0002:0000119c       ??_7RLibraryObjFilter@stdlib@media@modules@UModSys@@6BIRefObject@core@4@@ 0041119c     umodsys_lib_libmedia:umodsys.mod.media.stdlib.obj
 0002:00001228       ??_7RLibraryObjFilter@stdlib@media@modules@UModSys@@6BISetter@SFlags@libmedia@4@@ 00411228     umodsys_lib_libmedia:umodsys.mod.media.stdlib.obj
 0002:00001238       ??_7RModuleReg@stdlib@media@modules@UModSys@@6B@ 00411238     umodsys_lib_libmedia:umodsys.mod.media.stdlib.obj
 0002:00001254       ??_C@_04HDOCAJNK@?$CFs?$CFs?$AA@ 00411254     umodsys_lib_libmedia:umodsys.lib.media.common.obj
 0002:0000125c       ??_C@_02CBLDBPFN@?1?1?$AA@ 0041125c     umodsys_lib_libmedia:umodsys.lib.media.common.obj
 0002:00001260       ??_C@_02BKFDOEMK@wt?$AA@   00411260     umodsys_lib_basesys:umodsys.basesys.rconsole_std.obj
 0002:0000126c       ??_7RConsole_std@rsystem@base@UModSys@@6B@ 0041126c     umodsys_lib_basesys:umodsys.basesys.rconsole_std.obj
 0002:000012b4       ??_C@_04HIBGFPH@NULL?$AA@  004112b4     umodsys_lib_basesys:umodsys.basesys.rsystem_main.obj
 0002:000012bc       ??_C@_0L@FPKIMPHA@?$CD?$CF08x?5?$CC?$CFs?$CC?$AA@ 004112bc     umodsys_lib_basesys:umodsys.basesys.rsystem_main.obj
 0002:000012c8       ??_C@_0BC@HBJCAHHB@EFatal?5?$CD?$CF08x?5?$CC?$CFs?$CC?$AA@ 004112c8     umodsys_lib_basesys:umodsys.basesys.rsystem_main.obj
 0002:000012dc       ??_C@_0BE@IIJFBNID@EWarning?5?$CD?$CF08x?5?$CC?$CFs?$CC?$AA@ 004112dc     umodsys_lib_basesys:umodsys.basesys.rsystem_main.obj
 0002:000012f0       ??_C@_0BB@KFMJENMO@RSystem?3?3init?$CI?$CJ?6?$AA@ 004112f0     umodsys_lib_basesys:umodsys.basesys.rsystem_main.obj
 0002:00001304       ??_C@_0BI@FKDCNCM@RSystem?3?3exec_args?$CI?$CFd?$CJ?6?$AA@ 00411304     umodsys_lib_basesys:umodsys.basesys.rsystem_main.obj
 0002:0000131c       ??_C@_0BG@NFAKDFBG@RSystem?3?3exec_main?$CI?$CJ?6?$AA@ 0041131c     umodsys_lib_basesys:umodsys.basesys.rsystem_main.obj
 0002:00001334       ??_C@_0BD@CKNOJECK@RSystem?3?3deinit?$CI?$CJ?6?$AA@ 00411334     umodsys_lib_basesys:umodsys.basesys.rsystem_main.obj
 0002:0000134c       ??_7EExceptionBase@core@UModSys@@6B@ 0041134c     umodsys_lib_basesys:umodsys.basesys.rsystem_main.obj
 0002:00001358       ??_7EFatal@core@UModSys@@6B@ 00411358     umodsys_lib_basesys:umodsys.basesys.rsystem_main.obj
 0002:00001364       ??_7EWarning@core@UModSys@@6B@ 00411364     umodsys_lib_basesys:umodsys.basesys.rsystem_main.obj
 0002:00001370       ??_7?$TRMemAlloc_CC@U?$TMemAllocHeader@USMagic@mem_headers@rsystem@base@UModSys@@U?$TPool@X@2345@USDebug@2345@UVoid@core@5@U895@@rsystem@base@UModSys@@USMemAlloc_Malloc@core@4@@rsystem@base@UModSys@@6B@ 00411370     umodsys_lib_basesys:umodsys.basesys.rsystem_main.obj
 0002:00001384       ??_7RSystem@rsystem@base@UModSys@@6BISystem@23@@ 00411384     umodsys_lib_basesys:umodsys.basesys.rsystem_main.obj
 0002:000013c8       ??_7RSystem@rsystem@base@UModSys@@6BIUniquePointerResolver@core@3@@ 004113c8     umodsys_lib_basesys:umodsys.basesys.rsystem_main.obj
 0002:000013d4       ??_7RSystem@rsystem@base@UModSys@@6BISourceContextAdapter@core@3@@ 004113d4     umodsys_lib_basesys:umodsys.basesys.rsystem_main.obj
 0002:000013d8       ??_C@_0BC@NNHIIPO@shells?5found?3?5?$CFd?6?$AA@ 004113d8     umodsys_lib_basesys:umodsys.basesys.rsystem_tests.obj
 0002:000013ec       ??_C@_0BA@EBBPOIJG@?5?5shell?3?5?$CFp?5?$CFs?6?$AA@ 004113ec     umodsys_lib_basesys:umodsys.basesys.rsystem_tests.obj
 0002:000013fc       ??_C@_0BF@JPMHOAKE@?5?5?5?5shell?5gen?5error?6?$AA@ 004113fc     umodsys_lib_basesys:umodsys.basesys.rsystem_tests.obj
 0002:00001414       ??_C@_0BL@NANLGMEE@?5?5?5?5shell?5generated?5as?5?$CFp?6?$AA@ 00411414     umodsys_lib_basesys:umodsys.basesys.rsystem_tests.obj
 0002:00001430       ??_C@_0BD@NFNPGOAG@?1shells?5found?3?5?$CFd?6?$AA@ 00411430     umodsys_lib_basesys:umodsys.basesys.rsystem_tests.obj
 0002:00001444       ??_C@_0CJ@BMAKALAG@?$CK?$CK?$CK?$CK?$CK?$CK?$CK?$CK?$CK?$CK?$CK?$CK?$CK?$CK?$CK?$CK?$CK?$CK?$CK?$CK?$CK?$CK?$CK?$CK?$CK?$CK?$CK?$CK?$CK?$CK?$CK?5@ 00411444     umodsys_lib_basesys:umodsys.basesys.rsystem_tests.obj
 0002:00001470       ??_C@_0IM@GKLDAEGO@sizeof?$CIDRMemAlloc?$CJ?$DN?$CFu?5sizeof?$CIDRM@ 00411470     umodsys_lib_basesys:umodsys.basesys.rsystem_tests.obj
 0002:000014fc       ??_C@_0CJ@HFHNFOAC@?$CK?$CK?$CK?$CK?$CK?$CK?$CK?$CK?$CK?$CK?$CK?$CK?$CK?$CK?$CK?$CK?$CK?$CK?$CK?$CK?$CK?$CK?$CK?$CK?$CK?$CK?$CK?$CK?$CK?$CK?$CK?5@ 004114fc     umodsys_lib_basesys:umodsys.basesys.rsystem_tests.obj
 0002:00001528       ??_C@_0DG@DMGFJEPO@RModuleLoader?3?3moduledb_cleanup?$CI@ 00411528     umodsys_lib_basesys:umodsys.basesys.rmoduleloader.obj
 0002:00001560       ??_C@_0BN@BDEAMLC@?$CD?5LIST?5OF?5LIBRARY?5MODULES?3?6?6?$AA@ 00411560     umodsys_lib_basesys:umodsys.basesys.rmoduleloader.obj
 0002:00001580       ??_C@_0BF@PLOHEFDA@?5?$HL?5mod_list?$DN?$CFd?3?$FL?$FN?5?$HN?6?$AA@ 00411580     umodsys_lib_basesys:umodsys.basesys.rmoduleloader.obj
 0002:0000159c       ??_7IModuleLoader@base@UModSys@@6B@ 0041159c     umodsys_lib_basesys:umodsys.basesys.rmoduleloader.obj
 0002:000015dc       ??_7RModuleLoader@rsystem@base@UModSys@@6B@ 004115dc     umodsys_lib_basesys:umodsys.basesys.rmoduleloader.obj
 0002:0000161c       ??_7RModuleLibraryThis@rsystem@base@UModSys@@6B@ 0041161c     umodsys_lib_basesys:umodsys.basesys.rmodulelibthis.obj
 0002:00001688       ??_C@_0CN@ONDMHEFN@IModuleLibraryUni?$CI?$CFp?$CJ?3?3link?$CI?$CJ?5?9?9@ 00411688     umodsys_lib_basesys:umodsys.basesys.rmodulelib.obj
 0002:000016b8       ??_C@_0BA@LBGMEMKJ@LIBRARY?5?$CC?$CFs?$CC?5?$HL?6?$AA@ 004116b8     umodsys_lib_basesys:umodsys.basesys.rmodulelib.obj
 0002:000016c8       ??_C@_0BH@CLNAAMEM@?$HN?5?$CD?5END?5LIBRARY?5?$CC?$CFs?$CC?6?6?$AA@ 004116c8     umodsys_lib_basesys:umodsys.basesys.rmodulelib.obj
 0002:000016e0       ??_C@_0BI@OEALOBHC@NULL?5detected?5after?5?$CFp?6?$AA@ 004116e0     umodsys_lib_basesys:umodsys.basesys.rmodulelib.obj
 0002:000016f8       ??_C@_0CH@LDLHHCGC@leak?5detected?5?$CFp?5size?5?$CFu?5at?5?$CFs?$CI?$CF@ 004116f8     umodsys_lib_basesys:umodsys.basesys.rmodulelib.obj
 0002:00001720       ??_C@_0BK@NDLOCOMD@leak?5detected?5?$CFp?5size?5?$CFu?6?$AA@ 00411720     umodsys_lib_basesys:umodsys.basesys.rmodulelib.obj
 0002:00001744       ??_7IModuleLibraryUni@rsystem@base@UModSys@@6B@ 00411744     umodsys_lib_basesys:umodsys.basesys.rmodulelib.obj
 0002:000017b0       ??_C@_0CI@BLONPINK@RSystem?3?3upi_add?$CI?$CFp?3?$HL?$CC?$CFs?$CC?0?$CC?$CFs?$CC?0?$CF@ 004117b0     umodsys_lib_basesys:umodsys.basesys.rsystem.obj
 0002:000017dc       ??_7RParameters@rsystem@base@UModSys@@6B@ 004117dc     umodsys_lib_basesys:umodsys.basesys.rparameters.obj
 0002:00001854       ??_C@_0BJ@IHGOMCFA@_UModSys_Plugin_Entry2?$EA0?$AA@ 00411854     umodsys_lib_basesys:umodsys.basesys.rmodule.win32.obj
 0002:00001870       ??_C@_0CI@IABKIJLA@?5?5?5?5?5?5?5?5?5?5load?5so?$CI?$CC?$CFs?$CC?$CJ?5?$HL?$CFp?0?5?$CFp?$HN@ 00411870     umodsys_lib_basesys:umodsys.basesys.rmodule.win32.obj
 0002:00001898       ??_C@_0BP@EBMDLOGD@?5?5?5?5?5?5?5?5?5?5unload?5so?$CI?$HL?$CFp?0?5?$CFp?$HN?$CJ?6?$AA@ 00411898     umodsys_lib_basesys:umodsys.basesys.rmodule.win32.obj
 0002:000018b8       ??_C@_0BD@FBMHCLKB@scan?5so?3?5?$CC?$CFs?$CFs?$CFs?$CC?6?$AA@ 004118b8     umodsys_lib_basesys:umodsys.basesys.rmodule.win32.obj
 0002:000018cc       ??_C@_0BC@GMLCPHOK@?1scan?5so?3?5?$CC?$CFs?$CFs?$CC?6?$AA@ 004118cc     umodsys_lib_basesys:umodsys.basesys.rmodule.win32.obj
 0002:000018e0       ??_C@_02CAHBHFGK@?4?1?$AA@ 004118e0     umodsys_lib_basesys:umodsys.basesys.rmodule.win32.obj
 0002:000018e4       ??_C@_04HLONOPDM@?4dll?$AA@ 004118e4     umodsys_lib_basesys:umodsys.basesys.rmodule.win32.obj
 0002:000018ec       ??_C@_0BF@KDHHIHAN@RModule?$CI?$CFp?$CJ?3?3open?$CI?$CJ?6?$AA@ 004118ec     umodsys_lib_basesys:umodsys.basesys.rmodule.obj
 0002:00001904       ??_C@_0BG@HADBHJOP@RModule?$CI?$CFp?$CJ?3?3close?$CI?$CJ?6?$AA@ 00411904     umodsys_lib_basesys:umodsys.basesys.rmodule.obj
 0002:0000191c       ??_C@_0BK@FNONNOFM@RModule?$CI?$CFp?$CJ?3?3?5pre?9loaded?6?$AA@ 0041191c     umodsys_lib_basesys:umodsys.basesys.rmodule.obj
 0002:00001938       ??_C@_0CE@HBBEEAED@RModule?$CI?$CFp?$CJ?3?3generate?$CI?$CJ?5?$HL?5gen?$DN?$CFp@ 00411938     umodsys_lib_basesys:umodsys.basesys.rmodule.obj
 0002:0000195c       ??_C@_0DL@FHDKGKAD@RModule?$CI?$CFp?$CJ?3?3reg_generator?$CI?$CFs?5?$CFp@ 0041195c     umodsys_lib_basesys:umodsys.basesys.rmodule.obj
 0002:00001998       ??_C@_0DL@ECFHLNEB@RModule?$CI?$CFp?$CJ?3?3reg_generator?$CI?$CFs?5?$CFp@ 00411998     umodsys_lib_basesys:umodsys.basesys.rmodule.obj
 0002:000019d4       ??_C@_0DI@EBNLDEPD@RModule?$CI?$CFp?$CJ?3?3reg_obj?$CI?$CFs?5?$CFp?$CJ?5?9?9?5?$HL@ 004119d4     umodsys_lib_basesys:umodsys.basesys.rmodule.obj
 0002:00001a10       ??_C@_0GC@IAELDHPB@RModule?$CI?$CFp?$CJ?3?3reg_obj?$CI?$CFs?5?$CFp?$CJ?5?9?9?5i@ 00411a10     umodsys_lib_basesys:umodsys.basesys.rmodule.obj
 0002:00001a74       ??_C@_0CM@JCLMIGEB@RModule?$CI?$CFp?$CJ?3?3reg_obj?$CI?$CFs?5?$CFp?$CJ?5?9?9?5a@ 00411a74     umodsys_lib_basesys:umodsys.basesys.rmodule.obj
 0002:00001aa0       ??_C@_0DK@NJCECDIC@RModule?$CI?$CFp?$CJ?3?3unreg_obj?$CI?$CFs?5?$CFp?$CJ?5?9?9@ 00411aa0     umodsys_lib_basesys:umodsys.basesys.rmodule.obj
 0002:00001ae0       ??_C@_0GE@MGLAJHFG@RModule?$CI?$CFp?$CJ?3?3unreg_obj?$CI?$CFs?5?$CFp?$CJ?5?9?9@ 00411ae0     umodsys_lib_basesys:umodsys.basesys.rmodule.obj
 0002:00001b44       ??_C@_0CO@DAMPCAGA@RModule?3?3alloc_minfo?$CI?$HL?$CC?$CFs?$CC?0?5?$CC?$CFs?$CC@ 00411b44     umodsys_lib_basesys:umodsys.basesys.rmodule.obj
 0002:00001b74       ??_C@_0BG@HANHHGHE@?5?5MODULE?5?$CFs?$CI?$CFd?0?$CFd?$CJ?5?$HL?6?$AA@ 00411b74     umodsys_lib_basesys:umodsys.basesys.rmodule.obj
 0002:00001b8c       ??_C@_0CI@FMDENPAM@RModule?$CI?$CFp?$CJ?3?3save_db?$CI?4?4?4?$CJ?5?9?9?5?$HL?5?$CF@ 00411b8c     umodsys_lib_basesys:umodsys.basesys.rmodule.obj
 0002:00001bb4       ??_C@_0BN@CFNKPKCH@?5?5?5?5MODOBJECT?5?$CFs?$CI?$CFd?$CJ?5?$CFs?$CI?$CFd?$CJ?6?$AA@ 00411bb4     umodsys_lib_basesys:umodsys.basesys.rmodule.obj
 0002:00001bd4       ??_C@_0BP@BJFGMFNK@?5?5?5?5GENERATOR?5?$CFs?$CI?$CFd?$CJ?5?$CFs?$CI?$CFd?$CJ?5?$HL?6?$AA@ 00411bd4     umodsys_lib_basesys:umodsys.basesys.rmodule.obj
 0002:00001bf4       ??_C@_0BK@DNNMLLHP@?5?5?5?5?5?5REFOBJECT?5?$CFs?$CI?$CFd?$CJ?5?$HL?6?$AA@ 00411bf4     umodsys_lib_basesys:umodsys.basesys.rmodule.obj
 0002:00001c10       ??_C@_0BF@CJPCFEEB@?5?5?5?5?5?5?5?5TYPE?5?$CFs?$CI?$CFd?$CJ?6?$AA@ 00411c10     umodsys_lib_basesys:umodsys.basesys.rmodule.obj
 0002:00001c28       ??_C@_0BM@PFPEFHDC@?5?5?5?5?5?5?$HN?5?$CD?5REFOBJECT?5?$CFs?$CI?$CFd?$CJ?6?$AA@ 00411c28     umodsys_lib_basesys:umodsys.basesys.rmodule.obj
 0002:00001c44       ??_C@_0CB@PCDHJLII@?5?5?5?5?$HN?5?$CD?5GENERATOR?5?$CFs?$CI?$CFd?$CJ?5?$CFs?$CI?$CFd?$CJ?6@ 00411c44     umodsys_lib_basesys:umodsys.basesys.rmodule.obj
 0002:00001c68       ??_C@_0BI@OGBPJMLO@?5?5?$HN?5?$CD?5MODULE?5?$CFs?$CI?$CFd?0?$CFd?$CJ?6?$AA@ 00411c68     umodsys_lib_basesys:umodsys.basesys.rmodule.obj
 0002:00001c84       ??_7RModule@rsystem@base@UModSys@@6B@ 00411c84     umodsys_lib_basesys:umodsys.basesys.rmodule.obj
 0002:00001cdc       ??_C@_0M@KEHKBKEH@?5?5so?3?5?$CC?$CFs?$CC?6?$AA@ 00411cdc     umodsys_lib_basesys:umodsys.basesys.rmodulelibso.obj
 0002:00001ce8       ??_C@_0BF@IKAEAMGP@?5?5?5?5so?5loaded?3?5?$CC?$CFs?$CC?6?$AA@ 00411ce8     umodsys_lib_basesys:umodsys.basesys.rmodulelibso.obj
 0002:00001d00       ??_C@_0O@MCPOKEFF@?5?5?5?5so?5added?6?$AA@ 00411d00     umodsys_lib_basesys:umodsys.basesys.rmodulelibso.obj
 0002:00001d10       ??_C@_0BE@BFONLBBI@?5?5?5?5so?5dup?5with?5?$CFd?6?$AA@ 00411d10     umodsys_lib_basesys:umodsys.basesys.rmodulelibso.obj
 0002:00001d2c       ??_7RModuleLibrarySO@rsystem@base@UModSys@@6B@ 00411d2c     umodsys_lib_basesys:umodsys.basesys.rmodulelibso.obj
 0002:00001d9c       ??_7RModuleLibraryReg_Chain@base@UModSys@@6B@ 00411d9c     umodsys_lib_base:umodsys.base.moduleregchain.obj
 0002:00001db8       ??_7IModuleReg@base@UModSys@@6B@ 00411db8     umodsys_lib_base:umodsys.base.modulereg.obj
 0002:00001dd8       ??_7IModuleLibraryReg@base@UModSys@@6B@ 00411dd8     umodsys_lib_base:umodsys.base.modulereg.obj
 0002:00001df0       ??_C@_04MMEBIPMJ@?4tmp?$AA@ 00411df0     umodsys_lib_core:umodsys.core.syshlp_files.win32.obj
 0002:00001df8       ?utf_bytesFromUTF8@su@tl@UModSys@@3QBEB 00411df8     umodsys_lib_core:umodsys.tl.utf8.obj
 0002:00001ef8       ?utf_firstByteMark@su@tl@UModSys@@3QBEB 00411ef8     umodsys_lib_core:umodsys.tl.utf8.obj
 0002:00001f00       ?utf_offsetsFromUTF8@su@tl@UModSys@@3QBHB 00411f00     umodsys_lib_core:umodsys.tl.utf8.obj
 0002:00001f18       __load_config_used         00411f18     MSVCRT:loadcfg.obj
 0002:00001f60       ??_R4type_info@@6B@        00411f60     MSVCRT:ti_inst.obj
 0002:00001f74       ??_R3type_info@@8          00411f74     MSVCRT:ti_inst.obj
 0002:00001f84       ??_R2type_info@@8          00411f84     MSVCRT:ti_inst.obj
 0002:00001f8c       ??_R1A@?0A@EA@type_info@@8 00411f8c     MSVCRT:ti_inst.obj
 0002:00001fa8       ??_R4RModuleReg@stdio@media@modules@UModSys@@6B@ 00411fa8     umodsys_lib_libmedia:umodsys.mod.media.stdio.obj
 0002:00001fbc       ??_R3RModuleReg@stdio@media@modules@UModSys@@8 00411fbc     umodsys_lib_libmedia:umodsys.mod.media.stdio.obj
 0002:00001fcc       ??_R2RModuleReg@stdio@media@modules@UModSys@@8 00411fcc     umodsys_lib_libmedia:umodsys.mod.media.stdio.obj
 0002:00001fd8       ??_R1A@?0A@EA@IModuleReg@base@UModSys@@8 00411fd8     umodsys_lib_libmedia:umodsys.mod.media.stdio.obj
 0002:00001ff4       ??_R3IModuleReg@base@UModSys@@8 00411ff4     umodsys_lib_libmedia:umodsys.mod.media.stdio.obj
 0002:00002004       ??_R2IModuleReg@base@UModSys@@8 00412004     umodsys_lib_libmedia:umodsys.mod.media.stdio.obj
 0002:0000200c       ??_R1A@?0A@EA@RModuleReg@stdio@media@modules@UModSys@@8 0041200c     umodsys_lib_libmedia:umodsys.mod.media.stdio.obj
 0002:00002028       ??_R4RDataArchiver_OsDir@stdio@media@modules@UModSys@@6BISetter@SFlags@libmedia@4@@ 00412028     umodsys_lib_libmedia:umodsys.mod.media.stdio.obj
 0002:0000203c       ??_R4RDataArchiver_OsDir@stdio@media@modules@UModSys@@6BIRefObject@core@4@@ 0041203c     umodsys_lib_libmedia:umodsys.mod.media.stdio.obj
 0002:00002050       ??_R3RDataArchiver_OsDir@stdio@media@modules@UModSys@@8 00412050     umodsys_lib_libmedia:umodsys.mod.media.stdio.obj
 0002:00002060       ??_R2RDataArchiver_OsDir@stdio@media@modules@UModSys@@8 00412060     umodsys_lib_libmedia:umodsys.mod.media.stdio.obj
 0002:00002084       ??_R1A@?0A@EA@RDataArchiver_OsDir@stdio@media@modules@UModSys@@8 00412084     umodsys_lib_libmedia:umodsys.mod.media.stdio.obj
 0002:000020a0       ??_R4RStreamWriter_FILE@stdio@media@modules@UModSys@@6B@ 004120a0     umodsys_lib_libmedia:umodsys.mod.media.stdio.obj
 0002:000020b4       ??_R3RStreamWriter_FILE@stdio@media@modules@UModSys@@8 004120b4     umodsys_lib_libmedia:umodsys.mod.media.stdio.obj
 0002:000020c4       ??_R2RStreamWriter_FILE@stdio@media@modules@UModSys@@8 004120c4     umodsys_lib_libmedia:umodsys.mod.media.stdio.obj
 0002:000020d8       ??_R1A@?0A@EA@RStreamWriter_FILE@stdio@media@modules@UModSys@@8 004120d8     umodsys_lib_libmedia:umodsys.mod.media.stdio.obj
 0002:000020f4       ??_R4RStreamReader_FILE@stdio@media@modules@UModSys@@6B@ 004120f4     umodsys_lib_libmedia:umodsys.mod.media.stdio.obj
 0002:00002108       ??_R3RStreamReader_FILE@stdio@media@modules@UModSys@@8 00412108     umodsys_lib_libmedia:umodsys.mod.media.stdio.obj
 0002:00002118       ??_R2RStreamReader_FILE@stdio@media@modules@UModSys@@8 00412118     umodsys_lib_libmedia:umodsys.mod.media.stdio.obj
 0002:0000212c       ??_R1A@?0A@EA@RStreamReader_FILE@stdio@media@modules@UModSys@@8 0041212c     umodsys_lib_libmedia:umodsys.mod.media.stdio.obj
 0002:00002148       ??_R4RGenerator@stdio@media@modules@UModSys@@6B@ 00412148     umodsys_lib_libmedia:umodsys.mod.media.stdio.obj
 0002:0000215c       ??_R3RGenerator@stdio@media@modules@UModSys@@8 0041215c     umodsys_lib_libmedia:umodsys.mod.media.stdio.obj
 0002:0000216c       ??_R2RGenerator@stdio@media@modules@UModSys@@8 0041216c     umodsys_lib_libmedia:umodsys.mod.media.stdio.obj
 0002:00002184       ??_R1A@?0A@EA@RGenerator@stdio@media@modules@UModSys@@8 00412184     umodsys_lib_libmedia:umodsys.mod.media.stdio.obj
 0002:000021a0       ??_R4ISetter@SFlags@libmedia@UModSys@@6B@ 004121a0     umodsys_lib_libmedia:umodsys.mod.media.stdio.obj
 0002:000021b4       ??_R3IBinArchive@libmedia@UModSys@@8 004121b4     umodsys_lib_libmedia:umodsys.mod.media.stdio.obj
 0002:000021c4       ??_R2IBinArchive@libmedia@UModSys@@8 004121c4     umodsys_lib_libmedia:umodsys.mod.media.stdio.obj
 0002:000021e4       ??_R1A@?0A@EA@IBinArchive@libmedia@UModSys@@8 004121e4     umodsys_lib_libmedia:umodsys.mod.media.stdio.obj
 0002:00002200       ??_R3ILibObject@libmedia@UModSys@@8 00412200     umodsys_lib_libmedia:umodsys.mod.media.stdio.obj
 0002:00002210       ??_R2ILibObject@libmedia@UModSys@@8 00412210     umodsys_lib_libmedia:umodsys.mod.media.stdio.obj
 0002:0000222c       ??_R13?0A@EA@IResolver@SFlags@libmedia@UModSys@@8 0041222c     umodsys_lib_libmedia:umodsys.mod.media.stdio.obj
 0002:00002248       ??_R13?0A@EA@IResolverAuto@SFlags@libmedia@UModSys@@8 00412248     umodsys_lib_libmedia:umodsys.mod.media.stdio.obj
 0002:00002264       ??_R13?0A@EA@ISetter@SFlags@libmedia@UModSys@@8 00412264     umodsys_lib_libmedia:umodsys.mod.media.stdio.obj
 0002:00002280       ??_R3ISetter@SFlags@libmedia@UModSys@@8 00412280     umodsys_lib_libmedia:umodsys.mod.media.stdio.obj
 0002:00002290       ??_R2ISetter@SFlags@libmedia@UModSys@@8 00412290     umodsys_lib_libmedia:umodsys.mod.media.stdio.obj
 0002:000022a0       ??_R1A@?0A@EA@IResolverAuto@SFlags@libmedia@UModSys@@8 004122a0     umodsys_lib_libmedia:umodsys.mod.media.stdio.obj
 0002:000022bc       ??_R3IResolverAuto@SFlags@libmedia@UModSys@@8 004122bc     umodsys_lib_libmedia:umodsys.mod.media.stdio.obj
 0002:000022cc       ??_R2IResolverAuto@SFlags@libmedia@UModSys@@8 004122cc     umodsys_lib_libmedia:umodsys.mod.media.stdio.obj
 0002:000022d8       ??_R1A@?0A@EA@IResolver@SFlags@libmedia@UModSys@@8 004122d8     umodsys_lib_libmedia:umodsys.mod.media.stdio.obj
 0002:000022f4       ??_R3IResolver@SFlags@libmedia@UModSys@@8 004122f4     umodsys_lib_libmedia:umodsys.mod.media.stdio.obj
 0002:00002304       ??_R2IResolver@SFlags@libmedia@UModSys@@8 00412304     umodsys_lib_libmedia:umodsys.mod.media.stdio.obj
 0002:0000230c       ??_R1A@?0A@EA@ISetter@SFlags@libmedia@UModSys@@8 0041230c     umodsys_lib_libmedia:umodsys.mod.media.stdio.obj
 0002:00002328       ??_R1A@?0A@EA@ILibObject@libmedia@UModSys@@8 00412328     umodsys_lib_libmedia:umodsys.mod.media.stdio.obj
 0002:00002344       ??_R3IStreamWriter@libmedia@UModSys@@8 00412344     umodsys_lib_libmedia:umodsys.mod.media.stdio.obj
 0002:00002354       ??_R2IStreamWriter@libmedia@UModSys@@8 00412354     umodsys_lib_libmedia:umodsys.mod.media.stdio.obj
 0002:00002364       ??_R1A@?0A@EA@IStreamWriter@libmedia@UModSys@@8 00412364     umodsys_lib_libmedia:umodsys.mod.media.stdio.obj
 0002:00002380       ??_R3IStreamReader@libmedia@UModSys@@8 00412380     umodsys_lib_libmedia:umodsys.mod.media.stdio.obj
 0002:00002390       ??_R2IStreamReader@libmedia@UModSys@@8 00412390     umodsys_lib_libmedia:umodsys.mod.media.stdio.obj
 0002:000023a0       ??_R1A@?0A@EA@IStreamReader@libmedia@UModSys@@8 004123a0     umodsys_lib_libmedia:umodsys.mod.media.stdio.obj
 0002:000023bc       ??_R3IGenerator@base@UModSys@@8 004123bc     umodsys_lib_libmedia:umodsys.mod.media.stdio.obj
 0002:000023cc       ??_R2IGenerator@base@UModSys@@8 004123cc     umodsys_lib_libmedia:umodsys.mod.media.stdio.obj
 0002:000023e0       ??_R1A@?0A@EA@IGenerator@base@UModSys@@8 004123e0     umodsys_lib_libmedia:umodsys.mod.media.stdio.obj
 0002:000023fc       ??_R3IModObject@base@UModSys@@8 004123fc     umodsys_lib_libmedia:umodsys.mod.media.stdio.obj
 0002:0000240c       ??_R2IModObject@base@UModSys@@8 0041240c     umodsys_lib_libmedia:umodsys.mod.media.stdio.obj
 0002:0000241c       ??_R1A@?0A@EA@IModObject@base@UModSys@@8 0041241c     umodsys_lib_libmedia:umodsys.mod.media.stdio.obj
 0002:00002438       ??_R3IRefObject@core@UModSys@@8 00412438     umodsys_lib_libmedia:umodsys.mod.media.stdio.obj
 0002:00002448       ??_R2IRefObject@core@UModSys@@8 00412448     umodsys_lib_libmedia:umodsys.mod.media.stdio.obj
 0002:00002454       ??_R1A@?0A@EA@IRefObject@core@UModSys@@8 00412454     umodsys_lib_libmedia:umodsys.mod.media.stdio.obj
 0002:00002470       ??_R4IRoot@core@UModSys@@6B@ 00412470     umodsys_lib_libmedia:umodsys.mod.media.stdio.obj
 0002:00002484       ??_R3IRoot@core@UModSys@@8 00412484     umodsys_lib_libmedia:umodsys.mod.media.stdio.obj
 0002:00002494       ??_R2IRoot@core@UModSys@@8 00412494     umodsys_lib_libmedia:umodsys.mod.media.stdio.obj
 0002:0000249c       ??_R1A@?0A@EA@IRoot@core@UModSys@@8 0041249c     umodsys_lib_libmedia:umodsys.mod.media.stdio.obj
 0002:000024b8       ??_R4RModuleReg@stdlib@media@modules@UModSys@@6B@ 004124b8     umodsys_lib_libmedia:umodsys.mod.media.stdlib.obj
 0002:000024cc       ??_R3RModuleReg@stdlib@media@modules@UModSys@@8 004124cc     umodsys_lib_libmedia:umodsys.mod.media.stdlib.obj
 0002:000024dc       ??_R2RModuleReg@stdlib@media@modules@UModSys@@8 004124dc     umodsys_lib_libmedia:umodsys.mod.media.stdlib.obj
 0002:000024e8       ??_R1A@?0A@EA@RModuleReg@stdlib@media@modules@UModSys@@8 004124e8     umodsys_lib_libmedia:umodsys.mod.media.stdlib.obj
 0002:00002504       ??_R4RLibraryObjFilter@stdlib@media@modules@UModSys@@6BISetter@SFlags@libmedia@4@@ 00412504     umodsys_lib_libmedia:umodsys.mod.media.stdlib.obj
 0002:00002518       ??_R4RLibraryObjFilter@stdlib@media@modules@UModSys@@6BIRefObject@core@4@@ 00412518     umodsys_lib_libmedia:umodsys.mod.media.stdlib.obj
 0002:0000252c       ??_R3RLibraryObjFilter@stdlib@media@modules@UModSys@@8 0041252c     umodsys_lib_libmedia:umodsys.mod.media.stdlib.obj
 0002:0000253c       ??_R2RLibraryObjFilter@stdlib@media@modules@UModSys@@8 0041253c     umodsys_lib_libmedia:umodsys.mod.media.stdlib.obj
 0002:00002564       ??_R1A@?0A@EA@RLibraryObjFilter@stdlib@media@modules@UModSys@@8 00412564     umodsys_lib_libmedia:umodsys.mod.media.stdlib.obj
 0002:00002580       ??_R4RLibraryObjCache@stdlib@media@modules@UModSys@@6BISetter@SFlags@libmedia@4@@ 00412580     umodsys_lib_libmedia:umodsys.mod.media.stdlib.obj
 0002:00002594       ??_R4RLibraryObjCache@stdlib@media@modules@UModSys@@6BIRefObject@core@4@@ 00412594     umodsys_lib_libmedia:umodsys.mod.media.stdlib.obj
 0002:000025a8       ??_R3RLibraryObjCache@stdlib@media@modules@UModSys@@8 004125a8     umodsys_lib_libmedia:umodsys.mod.media.stdlib.obj
 0002:000025b8       ??_R2RLibraryObjCache@stdlib@media@modules@UModSys@@8 004125b8     umodsys_lib_libmedia:umodsys.mod.media.stdlib.obj
 0002:000025e0       ??_R1A@?0A@EA@RLibraryObjCache@stdlib@media@modules@UModSys@@8 004125e0     umodsys_lib_libmedia:umodsys.mod.media.stdlib.obj
 0002:000025fc       ??_R4RLibraryLayered@stdlib@media@modules@UModSys@@6BISetter@SFlags@libmedia@4@@ 004125fc     umodsys_lib_libmedia:umodsys.mod.media.stdlib.obj
 0002:00002610       ??_R4RLibraryLayered@stdlib@media@modules@UModSys@@6BIRefObject@core@4@@ 00412610     umodsys_lib_libmedia:umodsys.mod.media.stdlib.obj
 0002:00002624       ??_R3RLibraryLayered@stdlib@media@modules@UModSys@@8 00412624     umodsys_lib_libmedia:umodsys.mod.media.stdlib.obj
 0002:00002634       ??_R2RLibraryLayered@stdlib@media@modules@UModSys@@8 00412634     umodsys_lib_libmedia:umodsys.mod.media.stdlib.obj
 0002:0000265c       ??_R1A@?0A@EA@RLibraryLayered@stdlib@media@modules@UModSys@@8 0041265c     umodsys_lib_libmedia:umodsys.mod.media.stdlib.obj
 0002:00002678       ??_R4RLibraryBinCache@stdlib@media@modules@UModSys@@6BISetter@SFlags@libmedia@4@@ 00412678     umodsys_lib_libmedia:umodsys.mod.media.stdlib.obj
 0002:0000268c       ??_R4RLibraryBinCache@stdlib@media@modules@UModSys@@6BIRefObject@core@4@@ 0041268c     umodsys_lib_libmedia:umodsys.mod.media.stdlib.obj
 0002:000026a0       ??_R3RLibraryBinCache@stdlib@media@modules@UModSys@@8 004126a0     umodsys_lib_libmedia:umodsys.mod.media.stdlib.obj
 0002:000026b0       ??_R2RLibraryBinCache@stdlib@media@modules@UModSys@@8 004126b0     umodsys_lib_libmedia:umodsys.mod.media.stdlib.obj
 0002:000026d8       ??_R1A@?0A@EA@RLibraryBinCache@stdlib@media@modules@UModSys@@8 004126d8     umodsys_lib_libmedia:umodsys.mod.media.stdlib.obj
 0002:000026f4       ??_R4RLibraryBinTree@stdlib@media@modules@UModSys@@6BISetter@SFlags@libmedia@4@@ 004126f4     umodsys_lib_libmedia:umodsys.mod.media.stdlib.obj
 0002:00002708       ??_R4RLibraryBinTree@stdlib@media@modules@UModSys@@6BIRefObject@core@4@@ 00412708     umodsys_lib_libmedia:umodsys.mod.media.stdlib.obj
 0002:0000271c       ??_R3RLibraryBinTree@stdlib@media@modules@UModSys@@8 0041271c     umodsys_lib_libmedia:umodsys.mod.media.stdlib.obj
 0002:0000272c       ??_R2RLibraryBinTree@stdlib@media@modules@UModSys@@8 0041272c     umodsys_lib_libmedia:umodsys.mod.media.stdlib.obj
 0002:00002754       ??_R1A@?0A@EA@RLibraryBinTree@stdlib@media@modules@UModSys@@8 00412754     umodsys_lib_libmedia:umodsys.mod.media.stdlib.obj
 0002:00002770       ??_R4RBinArchiveFrame@stdlib@media@modules@UModSys@@6BISetter@SFlags@libmedia@4@@ 00412770     umodsys_lib_libmedia:umodsys.mod.media.stdlib.obj
 0002:00002784       ??_R4RBinArchiveFrame@stdlib@media@modules@UModSys@@6BIRefObject@core@4@@ 00412784     umodsys_lib_libmedia:umodsys.mod.media.stdlib.obj
 0002:00002798       ??_R3RBinArchiveFrame@stdlib@media@modules@UModSys@@8 00412798     umodsys_lib_libmedia:umodsys.mod.media.stdlib.obj
 0002:000027a8       ??_R2RBinArchiveFrame@stdlib@media@modules@UModSys@@8 004127a8     umodsys_lib_libmedia:umodsys.mod.media.stdlib.obj
 0002:000027d0       ??_R1A@?0A@EA@RBinArchiveFrame@stdlib@media@modules@UModSys@@8 004127d0     umodsys_lib_libmedia:umodsys.mod.media.stdlib.obj
 0002:000027ec       ??_R4RUtilities@stdlib@media@modules@UModSys@@6B@ 004127ec     umodsys_lib_libmedia:umodsys.mod.media.stdlib.obj
 0002:00002800       ??_R3RUtilities@stdlib@media@modules@UModSys@@8 00412800     umodsys_lib_libmedia:umodsys.mod.media.stdlib.obj
 0002:00002810       ??_R2RUtilities@stdlib@media@modules@UModSys@@8 00412810     umodsys_lib_libmedia:umodsys.mod.media.stdlib.obj
 0002:00002824       ??_R1A@?0A@EA@RUtilities@stdlib@media@modules@UModSys@@8 00412824     umodsys_lib_libmedia:umodsys.mod.media.stdlib.obj
 0002:00002840       ??_R4RGenerator@stdlib@media@modules@UModSys@@6B@ 00412840     umodsys_lib_libmedia:umodsys.mod.media.stdlib.obj
 0002:00002854       ??_R3RGenerator@stdlib@media@modules@UModSys@@8 00412854     umodsys_lib_libmedia:umodsys.mod.media.stdlib.obj
 0002:00002864       ??_R2RGenerator@stdlib@media@modules@UModSys@@8 00412864     umodsys_lib_libmedia:umodsys.mod.media.stdlib.obj
 0002:0000287c       ??_R1A@?0A@EA@RGenerator@stdlib@media@modules@UModSys@@8 0041287c     umodsys_lib_libmedia:umodsys.mod.media.stdlib.obj
 0002:00002898       ??_R4RResolverChain@SFlagsChain@libmedia@UModSys@@6B@ 00412898     umodsys_lib_libmedia:umodsys.mod.media.stdlib.obj
 0002:000028ac       ??_R3RResolverChain@SFlagsChain@libmedia@UModSys@@8 004128ac     umodsys_lib_libmedia:umodsys.mod.media.stdlib.obj
 0002:000028bc       ??_R2RResolverChain@SFlagsChain@libmedia@UModSys@@8 004128bc     umodsys_lib_libmedia:umodsys.mod.media.stdlib.obj
 0002:000028c8       ??_R1A@?0A@EA@RResolverChain@SFlagsChain@libmedia@UModSys@@8 004128c8     umodsys_lib_libmedia:umodsys.mod.media.stdlib.obj
 0002:000028e4       ??_R3ILibraryLayered@libmedia@UModSys@@8 004128e4     umodsys_lib_libmedia:umodsys.mod.media.stdlib.obj
 0002:000028f4       ??_R2ILibraryLayered@libmedia@UModSys@@8 004128f4     umodsys_lib_libmedia:umodsys.mod.media.stdlib.obj
 0002:00002918       ??_R1A@?0A@EA@ILibraryLayered@libmedia@UModSys@@8 00412918     umodsys_lib_libmedia:umodsys.mod.media.stdlib.obj
 0002:00002934       ??_R3ILibraryObjCache@libmedia@UModSys@@8 00412934     umodsys_lib_libmedia:umodsys.mod.media.stdlib.obj
 0002:00002944       ??_R2ILibraryObjCache@libmedia@UModSys@@8 00412944     umodsys_lib_libmedia:umodsys.mod.media.stdlib.obj
 0002:00002968       ??_R1A@?0A@EA@ILibraryObjCache@libmedia@UModSys@@8 00412968     umodsys_lib_libmedia:umodsys.mod.media.stdlib.obj
 0002:00002984       ??_R3ILibraryObjFilter@libmedia@UModSys@@8 00412984     umodsys_lib_libmedia:umodsys.mod.media.stdlib.obj
 0002:00002994       ??_R2ILibraryObjFilter@libmedia@UModSys@@8 00412994     umodsys_lib_libmedia:umodsys.mod.media.stdlib.obj
 0002:000029b8       ??_R1A@?0A@EA@ILibraryObjFilter@libmedia@UModSys@@8 004129b8     umodsys_lib_libmedia:umodsys.mod.media.stdlib.obj
 0002:000029d4       ??_R3ILibraryBinCache@libmedia@UModSys@@8 004129d4     umodsys_lib_libmedia:umodsys.mod.media.stdlib.obj
 0002:000029e4       ??_R2ILibraryBinCache@libmedia@UModSys@@8 004129e4     umodsys_lib_libmedia:umodsys.mod.media.stdlib.obj
 0002:00002a08       ??_R1A@?0A@EA@ILibraryBinCache@libmedia@UModSys@@8 00412a08     umodsys_lib_libmedia:umodsys.mod.media.stdlib.obj
 0002:00002a24       ??_R3ILibraryBinTree@libmedia@UModSys@@8 00412a24     umodsys_lib_libmedia:umodsys.mod.media.stdlib.obj
 0002:00002a34       ??_R2ILibraryBinTree@libmedia@UModSys@@8 00412a34     umodsys_lib_libmedia:umodsys.mod.media.stdlib.obj
 0002:00002a58       ??_R1A@?0A@EA@ILibraryBinTree@libmedia@UModSys@@8 00412a58     umodsys_lib_libmedia:umodsys.mod.media.stdlib.obj
 0002:00002a74       ??_R3ILibrary@libmedia@UModSys@@8 00412a74     umodsys_lib_libmedia:umodsys.mod.media.stdlib.obj
 0002:00002a84       ??_R2ILibrary@libmedia@UModSys@@8 00412a84     umodsys_lib_libmedia:umodsys.mod.media.stdlib.obj
 0002:00002aa4       ??_R1A@?0A@EA@ILibrary@libmedia@UModSys@@8 00412aa4     umodsys_lib_libmedia:umodsys.mod.media.stdlib.obj
 0002:00002ac0       ??_R3IBinArchiveFrame@libmedia@UModSys@@8 00412ac0     umodsys_lib_libmedia:umodsys.mod.media.stdlib.obj
 0002:00002ad0       ??_R2IBinArchiveFrame@libmedia@UModSys@@8 00412ad0     umodsys_lib_libmedia:umodsys.mod.media.stdlib.obj
 0002:00002af4       ??_R1A@?0A@EA@IBinArchiveFrame@libmedia@UModSys@@8 00412af4     umodsys_lib_libmedia:umodsys.mod.media.stdlib.obj
 0002:00002b10       ??_R3IUtilities@libmedia@UModSys@@8 00412b10     umodsys_lib_libmedia:umodsys.mod.media.stdlib.obj
 0002:00002b20       ??_R2IUtilities@libmedia@UModSys@@8 00412b20     umodsys_lib_libmedia:umodsys.mod.media.stdlib.obj
 0002:00002b30       ??_R1A@?0A@EA@IUtilities@libmedia@UModSys@@8 00412b30     umodsys_lib_libmedia:umodsys.mod.media.stdlib.obj
 0002:00002b4c       ??_R4RConsole_std@rsystem@base@UModSys@@6B@ 00412b4c     umodsys_lib_basesys:umodsys.basesys.rconsole_std.obj
 0002:00002b60       ??_R3RConsole_std@rsystem@base@UModSys@@8 00412b60     umodsys_lib_basesys:umodsys.basesys.rconsole_std.obj
 0002:00002b70       ??_R2RConsole_std@rsystem@base@UModSys@@8 00412b70     umodsys_lib_basesys:umodsys.basesys.rconsole_std.obj
 0002:00002b84       ??_R1A@?0A@EA@RConsole_std@rsystem@base@UModSys@@8 00412b84     umodsys_lib_basesys:umodsys.basesys.rconsole_std.obj
 0002:00002ba0       ??_R3IConsole@base@UModSys@@8 00412ba0     umodsys_lib_basesys:umodsys.basesys.rconsole_std.obj
 0002:00002bb0       ??_R2IConsole@base@UModSys@@8 00412bb0     umodsys_lib_basesys:umodsys.basesys.rconsole_std.obj
 0002:00002bc0       ??_R1A@?0A@EA@IConsole@base@UModSys@@8 00412bc0     umodsys_lib_basesys:umodsys.basesys.rconsole_std.obj
 0002:00002bdc       ??_R4RSystem@rsystem@base@UModSys@@6BISourceContextAdapter@core@3@@ 00412bdc     umodsys_lib_basesys:umodsys.basesys.rsystem_main.obj
 0002:00002bf0       ??_R4RSystem@rsystem@base@UModSys@@6BIUniquePointerResolver@core@3@@ 00412bf0     umodsys_lib_basesys:umodsys.basesys.rsystem_main.obj
 0002:00002c04       ??_R4RSystem@rsystem@base@UModSys@@6BISystem@23@@ 00412c04     umodsys_lib_basesys:umodsys.basesys.rsystem_main.obj
 0002:00002c18       ??_R3RSystem@rsystem@base@UModSys@@8 00412c18     umodsys_lib_basesys:umodsys.basesys.rsystem_main.obj
 0002:00002c28       ??_R2RSystem@rsystem@base@UModSys@@8 00412c28     umodsys_lib_basesys:umodsys.basesys.rsystem_main.obj
 0002:00002c40       ??_R17?0A@EA@ISourceContextAdapter@core@UModSys@@8 00412c40     umodsys_lib_basesys:umodsys.basesys.rsystem_main.obj
 0002:00002c5c       ??_R13?0A@EA@IUniquePointerResolver@core@UModSys@@8 00412c5c     umodsys_lib_basesys:umodsys.basesys.rsystem_main.obj
 0002:00002c78       ??_R1A@?0A@EA@RSystem@rsystem@base@UModSys@@8 00412c78     umodsys_lib_basesys:umodsys.basesys.rsystem_main.obj
 0002:00002c94       ??_R4?$TRMemAlloc_CC@U?$TMemAllocHeader@USMagic@mem_headers@rsystem@base@UModSys@@U?$TPool@X@2345@USDebug@2345@UVoid@core@5@U895@@rsystem@base@UModSys@@USMemAlloc_Malloc@core@4@@rsystem@base@UModSys@@6B@ 00412c94     umodsys_lib_basesys:umodsys.basesys.rsystem_main.obj
 0002:00002ca8       ??_R3?$TRMemAlloc_CC@U?$TMemAllocHeader@USMagic@mem_headers@rsystem@base@UModSys@@U?$TPool@X@2345@USDebug@2345@UVoid@core@5@U895@@rsystem@base@UModSys@@USMemAlloc_Malloc@core@4@@rsystem@base@UModSys@@8 00412ca8     umodsys_lib_basesys:umodsys.basesys.rsystem_main.obj
 0002:00002cb8       ??_R2?$TRMemAlloc_CC@U?$TMemAllocHeader@USMagic@mem_headers@rsystem@base@UModSys@@U?$TPool@X@2345@USDebug@2345@UVoid@core@5@U895@@rsystem@base@UModSys@@USMemAlloc_Malloc@core@4@@rsystem@base@UModSys@@8 00412cb8     umodsys_lib_basesys:umodsys.basesys.rsystem_main.obj
 0002:00002cc8       ??_R13?0A@EA@SMemAlloc_Malloc@core@UModSys@@8 00412cc8     umodsys_lib_basesys:umodsys.basesys.rsystem_main.obj
 0002:00002ce4       ??_R3SMemAlloc_Malloc@core@UModSys@@8 00412ce4     umodsys_lib_basesys:umodsys.basesys.rsystem_main.obj
 0002:00002cf4       ??_R2SMemAlloc_Malloc@core@UModSys@@8 00412cf4     umodsys_lib_basesys:umodsys.basesys.rsystem_main.obj
 0002:00002cfc       ??_R1A@?0A@EA@SMemAlloc_Malloc@core@UModSys@@8 00412cfc     umodsys_lib_basesys:umodsys.basesys.rsystem_main.obj
 0002:00002d18       ??_R1A@?0A@EA@?$TRMemAlloc_CC@U?$TMemAllocHeader@USMagic@mem_headers@rsystem@base@UModSys@@U?$TPool@X@2345@USDebug@2345@UVoid@core@5@U895@@rsystem@base@UModSys@@USMemAlloc_Malloc@core@4@@rsystem@base@UModSys@@8 00412d18     umodsys_lib_basesys:umodsys.basesys.rsystem_main.obj
 0002:00002d34       ??_R3IUniquePointerResolver@core@UModSys@@8 00412d34     umodsys_lib_basesys:umodsys.basesys.rsystem_main.obj
 0002:00002d44       ??_R2IUniquePointerResolver@core@UModSys@@8 00412d44     umodsys_lib_basesys:umodsys.basesys.rsystem_main.obj
 0002:00002d4c       ??_R1A@?0A@EA@IUniquePointerResolver@core@UModSys@@8 00412d4c     umodsys_lib_basesys:umodsys.basesys.rsystem_main.obj
 0002:00002d68       ??_R3ISourceContextAdapter@core@UModSys@@8 00412d68     umodsys_lib_basesys:umodsys.basesys.rsystem_main.obj
 0002:00002d78       ??_R2ISourceContextAdapter@core@UModSys@@8 00412d78     umodsys_lib_basesys:umodsys.basesys.rsystem_main.obj
 0002:00002d80       ??_R1A@?0A@EA@ISourceContextAdapter@core@UModSys@@8 00412d80     umodsys_lib_basesys:umodsys.basesys.rsystem_main.obj
 0002:00002d9c       ??_R3ISystem@base@UModSys@@8 00412d9c     umodsys_lib_basesys:umodsys.basesys.rsystem_main.obj
 0002:00002dac       ??_R2ISystem@base@UModSys@@8 00412dac     umodsys_lib_basesys:umodsys.basesys.rsystem_main.obj
 0002:00002db8       ??_R1A@?0A@EA@ISystem@base@UModSys@@8 00412db8     umodsys_lib_basesys:umodsys.basesys.rsystem_main.obj
 0002:00002dd4       ??_R3IMemAlloc@core@UModSys@@8 00412dd4     umodsys_lib_basesys:umodsys.basesys.rsystem_main.obj
 0002:00002de4       ??_R2IMemAlloc@core@UModSys@@8 00412de4     umodsys_lib_basesys:umodsys.basesys.rsystem_main.obj
 0002:00002dec       ??_R1A@?0A@EA@IMemAlloc@core@UModSys@@8 00412dec     umodsys_lib_basesys:umodsys.basesys.rsystem_main.obj
 0002:00002e08       ??_R4EWarning@core@UModSys@@6B@ 00412e08     umodsys_lib_basesys:umodsys.basesys.rsystem_main.obj
 0002:00002e1c       ??_R3EWarning@core@UModSys@@8 00412e1c     umodsys_lib_basesys:umodsys.basesys.rsystem_main.obj
 0002:00002e2c       ??_R2EWarning@core@UModSys@@8 00412e2c     umodsys_lib_basesys:umodsys.basesys.rsystem_main.obj
 0002:00002e38       ??_R1A@?0A@EA@EWarning@core@UModSys@@8 00412e38     umodsys_lib_basesys:umodsys.basesys.rsystem_main.obj
 0002:00002e54       ??_R4EFatal@core@UModSys@@6B@ 00412e54     umodsys_lib_basesys:umodsys.basesys.rsystem_main.obj
 0002:00002e68       ??_R3EFatal@core@UModSys@@8 00412e68     umodsys_lib_basesys:umodsys.basesys.rsystem_main.obj
 0002:00002e78       ??_R2EFatal@core@UModSys@@8 00412e78     umodsys_lib_basesys:umodsys.basesys.rsystem_main.obj
 0002:00002e84       ??_R1A@?0A@EA@EFatal@core@UModSys@@8 00412e84     umodsys_lib_basesys:umodsys.basesys.rsystem_main.obj
 0002:00002ea0       ??_R4EExceptionBase@core@UModSys@@6B@ 00412ea0     umodsys_lib_basesys:umodsys.basesys.rsystem_main.obj
 0002:00002eb4       ??_R3EExceptionBase@core@UModSys@@8 00412eb4     umodsys_lib_basesys:umodsys.basesys.rsystem_main.obj
 0002:00002ec4       ??_R2EExceptionBase@core@UModSys@@8 00412ec4     umodsys_lib_basesys:umodsys.basesys.rsystem_main.obj
 0002:00002ecc       ??_R1A@?0A@EA@EExceptionBase@core@UModSys@@8 00412ecc     umodsys_lib_basesys:umodsys.basesys.rsystem_main.obj
 0002:00002ee8       ??_R4RModuleLoader@rsystem@base@UModSys@@6B@ 00412ee8     umodsys_lib_basesys:umodsys.basesys.rmoduleloader.obj
 0002:00002efc       ??_R3RModuleLoader@rsystem@base@UModSys@@8 00412efc     umodsys_lib_basesys:umodsys.basesys.rmoduleloader.obj
 0002:00002f0c       ??_R2RModuleLoader@rsystem@base@UModSys@@8 00412f0c     umodsys_lib_basesys:umodsys.basesys.rmoduleloader.obj
 0002:00002f18       ??_R1A@?0A@EA@RModuleLoader@rsystem@base@UModSys@@8 00412f18     umodsys_lib_basesys:umodsys.basesys.rmoduleloader.obj
 0002:00002f34       ??_R4IModuleLoader@base@UModSys@@6B@ 00412f34     umodsys_lib_basesys:umodsys.basesys.rmoduleloader.obj
 0002:00002f48       ??_R3IModuleLoader@base@UModSys@@8 00412f48     umodsys_lib_basesys:umodsys.basesys.rmoduleloader.obj
 0002:00002f58       ??_R2IModuleLoader@base@UModSys@@8 00412f58     umodsys_lib_basesys:umodsys.basesys.rmoduleloader.obj
 0002:00002f60       ??_R1A@?0A@EA@IModuleLoader@base@UModSys@@8 00412f60     umodsys_lib_basesys:umodsys.basesys.rmoduleloader.obj
 0002:00002f7c       ??_R4RModuleLibraryThis@rsystem@base@UModSys@@6B@ 00412f7c     umodsys_lib_basesys:umodsys.basesys.rmodulelibthis.obj
 0002:00002f90       ??_R3RModuleLibraryThis@rsystem@base@UModSys@@8 00412f90     umodsys_lib_basesys:umodsys.basesys.rmodulelibthis.obj
 0002:00002fa0       ??_R2RModuleLibraryThis@rsystem@base@UModSys@@8 00412fa0     umodsys_lib_basesys:umodsys.basesys.rmodulelibthis.obj
 0002:00002fb8       ??_R1A@?0A@EA@IModuleLibraryUni@rsystem@base@UModSys@@8 00412fb8     umodsys_lib_basesys:umodsys.basesys.rmodulelibthis.obj
 0002:00002fd4       ??_R3IModuleLibraryUni@rsystem@base@UModSys@@8 00412fd4     umodsys_lib_basesys:umodsys.basesys.rmodulelibthis.obj
 0002:00002fe4       ??_R2IModuleLibraryUni@rsystem@base@UModSys@@8 00412fe4     umodsys_lib_basesys:umodsys.basesys.rmodulelibthis.obj
 0002:00002ff8       ??_R1A@?0A@EA@IModuleLibrary@base@UModSys@@8 00412ff8     umodsys_lib_basesys:umodsys.basesys.rmodulelibthis.obj
 0002:00003014       ??_R3IModuleLibrary@base@UModSys@@8 00413014     umodsys_lib_basesys:umodsys.basesys.rmodulelibthis.obj
 0002:00003024       ??_R2IModuleLibrary@base@UModSys@@8 00413024     umodsys_lib_basesys:umodsys.basesys.rmodulelibthis.obj
 0002:00003034       ??_R1A@?0A@EA@RModuleLibraryThis@rsystem@base@UModSys@@8 00413034     umodsys_lib_basesys:umodsys.basesys.rmodulelibthis.obj
 0002:00003050       ??_R4IModuleLibraryUni@rsystem@base@UModSys@@6B@ 00413050     umodsys_lib_basesys:umodsys.basesys.rmodulelib.obj
 0002:00003064       ??_R4RParameters@rsystem@base@UModSys@@6B@ 00413064     umodsys_lib_basesys:umodsys.basesys.rparameters.obj
 0002:00003078       ??_R3RParameters@rsystem@base@UModSys@@8 00413078     umodsys_lib_basesys:umodsys.basesys.rparameters.obj
 0002:00003088       ??_R2RParameters@rsystem@base@UModSys@@8 00413088     umodsys_lib_basesys:umodsys.basesys.rparameters.obj
 0002:0000309c       ??_R1A@?0A@EA@RParameters@rsystem@base@UModSys@@8 0041309c     umodsys_lib_basesys:umodsys.basesys.rparameters.obj
 0002:000030b8       ??_R3IParameters@core@UModSys@@8 004130b8     umodsys_lib_basesys:umodsys.basesys.rparameters.obj
 0002:000030c8       ??_R2IParameters@core@UModSys@@8 004130c8     umodsys_lib_basesys:umodsys.basesys.rparameters.obj
 0002:000030d8       ??_R1A@?0A@EA@IParameters@core@UModSys@@8 004130d8     umodsys_lib_basesys:umodsys.basesys.rparameters.obj
 0002:000030f4       ??_R4RModule@rsystem@base@UModSys@@6B@ 004130f4     umodsys_lib_basesys:umodsys.basesys.rmodule.obj
 0002:00003108       ??_R3RModule@rsystem@base@UModSys@@8 00413108     umodsys_lib_basesys:umodsys.basesys.rmodule.obj
 0002:00003118       ??_R2RModule@rsystem@base@UModSys@@8 00413118     umodsys_lib_basesys:umodsys.basesys.rmodule.obj
 0002:0000312c       ??_R1A@?0A@EA@RModule@rsystem@base@UModSys@@8 0041312c     umodsys_lib_basesys:umodsys.basesys.rmodule.obj
 0002:00003148       ??_R3IModule@base@UModSys@@8 00413148     umodsys_lib_basesys:umodsys.basesys.rmodule.obj
 0002:00003158       ??_R2IModule@base@UModSys@@8 00413158     umodsys_lib_basesys:umodsys.basesys.rmodule.obj
 0002:00003168       ??_R1A@?0A@EA@IModule@base@UModSys@@8 00413168     umodsys_lib_basesys:umodsys.basesys.rmodule.obj
 0002:00003184       ??_R4RModuleLibrarySO@rsystem@base@UModSys@@6B@ 00413184     umodsys_lib_basesys:umodsys.basesys.rmodulelibso.obj
 0002:00003198       ??_R3RModuleLibrarySO@rsystem@base@UModSys@@8 00413198     umodsys_lib_basesys:umodsys.basesys.rmodulelibso.obj
 0002:000031a8       ??_R2RModuleLibrarySO@rsystem@base@UModSys@@8 004131a8     umodsys_lib_basesys:umodsys.basesys.rmodulelibso.obj
 0002:000031c0       ??_R1A@?0A@EA@RModuleLibrarySO@rsystem@base@UModSys@@8 004131c0     umodsys_lib_basesys:umodsys.basesys.rmodulelibso.obj
 0002:000031dc       ??_R4RModuleLibraryReg_Chain@base@UModSys@@6B@ 004131dc     umodsys_lib_base:umodsys.base.moduleregchain.obj
 0002:000031f0       ??_R3RModuleLibraryReg_Chain@base@UModSys@@8 004131f0     umodsys_lib_base:umodsys.base.moduleregchain.obj
 0002:00003200       ??_R2RModuleLibraryReg_Chain@base@UModSys@@8 00413200     umodsys_lib_base:umodsys.base.moduleregchain.obj
 0002:0000320c       ??_R1A@?0A@EA@IModuleLibraryReg@base@UModSys@@8 0041320c     umodsys_lib_base:umodsys.base.moduleregchain.obj
 0002:00003228       ??_R3IModuleLibraryReg@base@UModSys@@8 00413228     umodsys_lib_base:umodsys.base.moduleregchain.obj
 0002:00003238       ??_R2IModuleLibraryReg@base@UModSys@@8 00413238     umodsys_lib_base:umodsys.base.moduleregchain.obj
 0002:00003240       ??_R1A@?0A@EA@RModuleLibraryReg_Chain@base@UModSys@@8 00413240     umodsys_lib_base:umodsys.base.moduleregchain.obj
 0002:0000325c       ??_R4IModuleLibraryReg@base@UModSys@@6B@ 0041325c     umodsys_lib_base:umodsys.base.modulereg.obj
 0002:00003270       ??_R4IModuleReg@base@UModSys@@6B@ 00413270     umodsys_lib_base:umodsys.base.modulereg.obj
 0002:00003290       ___safe_se_handler_table   00413290     <linker-defined>
 0002:00003348       ___rtc_iaa                 00413348     MSVCRT:_initsect_.obj
 0002:0000334c       ___rtc_izz                 0041334c     MSVCRT:_initsect_.obj
 0002:00003350       ___rtc_taa                 00413350     MSVCRT:_initsect_.obj
 0002:00003354       ___rtc_tzz                 00413354     MSVCRT:_initsect_.obj
 0002:000033f4       __CT??_R0?AUEFatal@core@UModSys@@@8??0EFatal@core@UModSys@@QAE@ABU012@@Z24 004133f4     umodsys_lib_basesys:umodsys.basesys.rsystem_main.obj
 0002:00003410       __CT??_R0?AUEExceptionBase@core@UModSys@@@8??0EExceptionBase@core@UModSys@@QAE@ABU012@@Z24 00413410     umodsys_lib_basesys:umodsys.basesys.rsystem_main.obj
 0002:0000342c       __CTA2?AUEFatal@core@UModSys@@ 0041342c     umodsys_lib_basesys:umodsys.basesys.rsystem_main.obj
 0002:00003438       __TI2?AUEFatal@core@UModSys@@ 00413438     umodsys_lib_basesys:umodsys.basesys.rsystem_main.obj
 0002:00003448       __CT??_R0?AUEWarning@core@UModSys@@@8??0EWarning@core@UModSys@@QAE@ABU012@@Z24 00413448     umodsys_lib_basesys:umodsys.basesys.rsystem_main.obj
 0002:00003464       __CTA2?AUEWarning@core@UModSys@@ 00413464     umodsys_lib_basesys:umodsys.basesys.rsystem_main.obj
 0002:00003470       __TI2?AUEWarning@core@UModSys@@ 00413470     umodsys_lib_basesys:umodsys.basesys.rsystem_main.obj
 0002:00003d9c       __IMPORT_DESCRIPTOR_MSVCR90 00413d9c     MSVCRT:MSVCR90.dll
 0002:00003db0       __IMPORT_DESCRIPTOR_KERNEL32 00413db0     kernel32:KERNEL32.dll
 0002:00003dc4       __NULL_IMPORT_DESCRIPTOR   00413dc4     MSVCRT:MSVCR90.dll
 0003:00000000       ??_R0?AVtype_info@@@8      00415000     MSVCRT:ti_inst.obj
 0003:00000018       ___native_dllmain_reason   00415018     MSVCRT:natstart.obj
 0003:0000001c       ___native_vcclrit_reason   0041501c     MSVCRT:natstart.obj
 0003:00000020       ___globallocalestatus      00415020     MSVCRT:xthdloc.obj
 0003:00000024       ___defaultmatherr          00415024     MSVCRT:merr.obj
 0003:00000028       ___security_cookie         00415028     MSVCRT:gs_cookie.obj
 0003:0000002c       ___security_cookie_complement 0041502c     MSVCRT:gs_cookie.obj
 0003:00000070       ?so_entry_enabled_flag@base@UModSys@@3HA 00415070     umodsys_lib_base:umodsys.so_main.win32.obj
 0003:000000b0       ?s_colors@RConsole_std@rsystem@base@UModSys@@2PAY07EA 004150b0     umodsys_lib_basesys:umodsys.basesys.rconsole_std.obj
 0003:00000140       ?auto_flags@RDataArchiver_OsDir@stdio@media@modules@UModSys@@2U?$TFlags4State@USMediaFlagUid@libmedia@UModSys@@I@tl@5@A 00415140     umodsys_lib_libmedia:umodsys.mod.media.stdio.obj
 0003:00000144       ?s_dbg@stdio@media@modules@UModSys@@3USDebug@base@4@A 00415144     umodsys_lib_libmedia:umodsys.mod.media.stdio.obj
 0003:0000014c       ?s_dbg@stdlib@media@modules@UModSys@@3USDebug@base@4@A 0041514c     umodsys_lib_libmedia:umodsys.mod.media.stdlib.obj
 0003:00000154       ?auto_flags@RLibraryLayered@stdlib@media@modules@UModSys@@2U?$TFlags4State@USMediaFlagUid@libmedia@UModSys@@I@tl@5@A 00415154     umodsys_lib_libmedia:umodsys.mod.media.stdlib.obj
 0003:00000158       ?s_console@RConsole_std@rsystem@base@UModSys@@2U1234@A 00415158     umodsys_lib_basesys:umodsys.basesys.rconsole_std.obj
 0003:00000160       ?rsys_dbg@rsystem@base@UModSys@@3USDebug@23@A 00415160     umodsys_lib_basesys:umodsys.basesys.rsystem_main.obj
 0003:00000168       ?s_library@RModuleLibraryReg_Chain@base@UModSys@@2U123@A 00415168     umodsys_lib_base:umodsys.base.moduleregchain.obj
 0003:0000016c       ??_R0?AUIModuleReg@base@UModSys@@@8 0041516c     umodsys_lib_libmedia:umodsys.mod.media.stdio.obj
 0003:00000194       ??_R0?AURModuleReg@stdio@media@modules@UModSys@@@8 00415194     umodsys_lib_libmedia:umodsys.mod.media.stdio.obj
 0003:000001cc       ??_R0?AURDataArchiver_OsDir@stdio@media@modules@UModSys@@@8 004151cc     umodsys_lib_libmedia:umodsys.mod.media.stdio.obj
 0003:0000020c       ??_R0?AURStreamWriter_FILE@stdio@media@modules@UModSys@@@8 0041520c     umodsys_lib_libmedia:umodsys.mod.media.stdio.obj
 0003:0000024c       ??_R0?AURStreamReader_FILE@stdio@media@modules@UModSys@@@8 0041524c     umodsys_lib_libmedia:umodsys.mod.media.stdio.obj
 0003:0000028c       ??_R0?AURGenerator@stdio@media@modules@UModSys@@@8 0041528c     umodsys_lib_libmedia:umodsys.mod.media.stdio.obj
 0003:000002c4       ??_R0?AUIBinArchive@libmedia@UModSys@@@8 004152c4     umodsys_lib_libmedia:umodsys.mod.media.stdio.obj
 0003:000002f0       ??_R0?AUIResolver@SFlags@libmedia@UModSys@@@8 004152f0     umodsys_lib_libmedia:umodsys.mod.media.stdio.obj
 0003:00000320       ??_R0?AUIResolverAuto@SFlags@libmedia@UModSys@@@8 00415320     umodsys_lib_libmedia:umodsys.mod.media.stdio.obj
 0003:00000354       ??_R0?AUISetter@SFlags@libmedia@UModSys@@@8 00415354     umodsys_lib_libmedia:umodsys.mod.media.stdio.obj
 0003:00000384       ??_R0?AUILibObject@libmedia@UModSys@@@8 00415384     umodsys_lib_libmedia:umodsys.mod.media.stdio.obj
 0003:000003b0       ??_R0?AUIStreamWriter@libmedia@UModSys@@@8 004153b0     umodsys_lib_libmedia:umodsys.mod.media.stdio.obj
 0003:000003e0       ??_R0?AUIStreamReader@libmedia@UModSys@@@8 004153e0     umodsys_lib_libmedia:umodsys.mod.media.stdio.obj
 0003:00000410       ??_R0?AUIGenerator@base@UModSys@@@8 00415410     umodsys_lib_libmedia:umodsys.mod.media.stdio.obj
 0003:00000438       ??_R0?AUIModObject@base@UModSys@@@8 00415438     umodsys_lib_libmedia:umodsys.mod.media.stdio.obj
 0003:00000460       ??_R0?AUIRefObject@core@UModSys@@@8 00415460     umodsys_lib_libmedia:umodsys.mod.media.stdio.obj
 0003:00000488       ??_R0?AUIRoot@core@UModSys@@@8 00415488     umodsys_lib_libmedia:umodsys.mod.media.stdio.obj
 0003:000004ac       ??_R0?AURModuleReg@stdlib@media@modules@UModSys@@@8 004154ac     umodsys_lib_libmedia:umodsys.mod.media.stdlib.obj
 0003:000004e4       ??_R0?AURLibraryObjFilter@stdlib@media@modules@UModSys@@@8 004154e4     umodsys_lib_libmedia:umodsys.mod.media.stdlib.obj
 0003:00000524       ??_R0?AURLibraryObjCache@stdlib@media@modules@UModSys@@@8 00415524     umodsys_lib_libmedia:umodsys.mod.media.stdlib.obj
 0003:00000560       ??_R0?AURLibraryLayered@stdlib@media@modules@UModSys@@@8 00415560     umodsys_lib_libmedia:umodsys.mod.media.stdlib.obj
 0003:0000059c       ??_R0?AURLibraryBinCache@stdlib@media@modules@UModSys@@@8 0041559c     umodsys_lib_libmedia:umodsys.mod.media.stdlib.obj
 0003:000005d8       ??_R0?AURLibraryBinTree@stdlib@media@modules@UModSys@@@8 004155d8     umodsys_lib_libmedia:umodsys.mod.media.stdlib.obj
 0003:00000614       ??_R0?AURBinArchiveFrame@stdlib@media@modules@UModSys@@@8 00415614     umodsys_lib_libmedia:umodsys.mod.media.stdlib.obj
 0003:00000650       ??_R0?AURUtilities@stdlib@media@modules@UModSys@@@8 00415650     umodsys_lib_libmedia:umodsys.mod.media.stdlib.obj
 0003:00000688       ??_R0?AURGenerator@stdlib@media@modules@UModSys@@@8 00415688     umodsys_lib_libmedia:umodsys.mod.media.stdlib.obj
 0003:000006c0       ??_R0?AURResolverChain@SFlagsChain@libmedia@UModSys@@@8 004156c0     umodsys_lib_libmedia:umodsys.mod.media.stdlib.obj
 0003:000006fc       ??_R0?AUILibraryLayered@libmedia@UModSys@@@8 004156fc     umodsys_lib_libmedia:umodsys.mod.media.stdlib.obj
 0003:0000072c       ??_R0?AUILibraryObjCache@libmedia@UModSys@@@8 0041572c     umodsys_lib_libmedia:umodsys.mod.media.stdlib.obj
 0003:0000075c       ??_R0?AUILibraryObjFilter@libmedia@UModSys@@@8 0041575c     umodsys_lib_libmedia:umodsys.mod.media.stdlib.obj
 0003:00000790       ??_R0?AUILibraryBinCache@libmedia@UModSys@@@8 00415790     umodsys_lib_libmedia:umodsys.mod.media.stdlib.obj
 0003:000007c0       ??_R0?AUILibraryBinTree@libmedia@UModSys@@@8 004157c0     umodsys_lib_libmedia:umodsys.mod.media.stdlib.obj
 0003:000007f0       ??_R0?AUILibrary@libmedia@UModSys@@@8 004157f0     umodsys_lib_libmedia:umodsys.mod.media.stdlib.obj
 0003:00000818       ??_R0?AUIBinArchiveFrame@libmedia@UModSys@@@8 00415818     umodsys_lib_libmedia:umodsys.mod.media.stdlib.obj
 0003:00000848       ??_R0?AUIUtilities@libmedia@UModSys@@@8 00415848     umodsys_lib_libmedia:umodsys.mod.media.stdlib.obj
 0003:00000874       ??_R0?AURConsole_std@rsystem@base@UModSys@@@8 00415874     umodsys_lib_basesys:umodsys.basesys.rconsole_std.obj
 0003:000008a4       ??_R0?AUIConsole@base@UModSys@@@8 004158a4     umodsys_lib_basesys:umodsys.basesys.rconsole_std.obj
 0003:000008c8       ??_R0?AURSystem@rsystem@base@UModSys@@@8 004158c8     umodsys_lib_basesys:umodsys.basesys.rsystem_main.obj
 0003:000008f4       ??_R0?AUSMemAlloc_Malloc@core@UModSys@@@8 004158f4     umodsys_lib_basesys:umodsys.basesys.rsystem_main.obj
 0003:00000920       ??_R0?AU?$TRMemAlloc_CC@U?$TMemAllocHeader@USMagic@mem_headers@rsystem@base@UModSys@@U?$TPool@X@2345@USDebug@2345@UVoid@core@5@U895@@rsystem@base@UModSys@@USMemAlloc_Malloc@core@4@@rsystem@base@UModSys@@@8 00415920     umodsys_lib_basesys:umodsys.basesys.rsystem_main.obj
 0003:000009f0       ??_R0?AUIUniquePointerResolver@core@UModSys@@@8 004159f0     umodsys_lib_basesys:umodsys.basesys.rsystem_main.obj
 0003:00000a24       ??_R0?AUISourceContextAdapter@core@UModSys@@@8 00415a24     umodsys_lib_basesys:umodsys.basesys.rsystem_main.obj
 0003:00000a58       ??_R0?AUISystem@base@UModSys@@@8 00415a58     umodsys_lib_basesys:umodsys.basesys.rsystem_main.obj
 0003:00000a7c       ??_R0?AUIMemAlloc@core@UModSys@@@8 00415a7c     umodsys_lib_basesys:umodsys.basesys.rsystem_main.obj
 0003:00000aa4       ??_R0?AUEFatal@core@UModSys@@@8 00415aa4     umodsys_lib_basesys:umodsys.basesys.rsystem_main.obj
 0003:00000ac8       ??_R0?AUEExceptionBase@core@UModSys@@@8 00415ac8     umodsys_lib_basesys:umodsys.basesys.rsystem_main.obj
 0003:00000af4       ??_R0?AUEWarning@core@UModSys@@@8 00415af4     umodsys_lib_basesys:umodsys.basesys.rsystem_main.obj
 0003:00000b18       ??_R0?AURModuleLoader@rsystem@base@UModSys@@@8 00415b18     umodsys_lib_basesys:umodsys.basesys.rmoduleloader.obj
 0003:00000b4c       ??_R0?AUIModuleLoader@base@UModSys@@@8 00415b4c     umodsys_lib_basesys:umodsys.basesys.rmoduleloader.obj
 0003:00000b78       ??_R0?AUIModuleLibrary@base@UModSys@@@8 00415b78     umodsys_lib_basesys:umodsys.basesys.rmodulelibthis.obj
 0003:00000ba4       ??_R0?AUIModuleLibraryUni@rsystem@base@UModSys@@@8 00415ba4     umodsys_lib_basesys:umodsys.basesys.rmodulelibthis.obj
 0003:00000bdc       ??_R0?AURModuleLibraryThis@rsystem@base@UModSys@@@8 00415bdc     umodsys_lib_basesys:umodsys.basesys.rmodulelibthis.obj
 0003:00000c14       ??_R0?AURParameters@rsystem@base@UModSys@@@8 00415c14     umodsys_lib_basesys:umodsys.basesys.rparameters.obj
 0003:00000c44       ??_R0?AUIParameters@core@UModSys@@@8 00415c44     umodsys_lib_basesys:umodsys.basesys.rparameters.obj
 0003:00000c6c       ??_R0?AURModule@rsystem@base@UModSys@@@8 00415c6c     umodsys_lib_basesys:umodsys.basesys.rmodule.obj
 0003:00000c98       ??_R0?AUIModule@base@UModSys@@@8 00415c98     umodsys_lib_basesys:umodsys.basesys.rmodule.obj
 0003:00000cbc       ??_R0?AURModuleLibrarySO@rsystem@base@UModSys@@@8 00415cbc     umodsys_lib_basesys:umodsys.basesys.rmodulelibso.obj
 0003:00000cf0       ??_R0?AUIModuleLibraryReg@base@UModSys@@@8 00415cf0     umodsys_lib_base:umodsys.base.moduleregchain.obj
 0003:00000d20       ??_R0?AURModuleLibraryReg_Chain@base@UModSys@@@8 00415d20     umodsys_lib_base:umodsys.base.moduleregchain.obj
 0003:00000d80       __forceCRTManifestRTM      00415d80     MSVCRT:crtmanifestrtm.obj
 0003:00000d84       __dowildcard               00415d84     MSVCRT:wildcard.obj
 0003:00000d88       __newmode                  00415d88     MSVCRT:_newmode.obj
 0003:00000d8c       __commode                  00415d8c     MSVCRT:xncommod.obj
 0003:00000d90       __fmode                    00415d90     MSVCRT:xtxtmode.obj
 0003:000010bc       ?s_null@?1??get_null@?$TSCoreShared@USIMemAlloc@core@UModSys@@D@su@tl@UModSys@@SAPAU?$TSharedStringInfo@DUSIMemAlloc@core@UModSys@@@345@XZ@4U6345@A 004160bc     umodsys_lib_libmedia:umodsys.mod.media.stdio.obj
 0003:000010d0       ??_B?1??get_null@?$TSCoreShared@USIMemAlloc@core@UModSys@@D@su@tl@UModSys@@SAPAU?$TSharedStringInfo@DUSIMemAlloc@core@UModSys@@@234@XZ@51 004160d0     umodsys_lib_libmedia:umodsys.mod.media.stdio.obj
 0003:000010d8       ?fmodule@stdio@media@modules@UModSys@@3DA 004160d8     umodsys_lib_libmedia:umodsys.mod.media.stdio.obj
 0003:000010d9       ?fmodule@stdlib@media@modules@UModSys@@3DA 004160d9     umodsys_lib_libmedia:umodsys.mod.media.stdlib.obj
 0003:000010e0       ?null_time@core@UModSys@@3_JA 004160e0     umodsys_lib_core:umodsys.core.stdtypedefs.obj
 0003:000010ec       ?s_modreg_chain@RModuleReg@stdio@media@modules@UModSys@@2USModuleRegChain@base@5@A 004160ec     umodsys_lib_libmedia:umodsys.mod.media.stdio.obj
 0003:000010f8       ?s_modreg@RModuleReg@stdio@media@modules@UModSys@@2U12345@A 004160f8     umodsys_lib_libmedia:umodsys.mod.media.stdio.obj
 0003:00001138       ?s_uid@RGenerator@stdio@media@modules@UModSys@@2USUniquePointer@core@5@A 00416138     umodsys_lib_libmedia:umodsys.mod.media.stdio.obj
 0003:00001150       ?s_modreg@RModuleReg@stdlib@media@modules@UModSys@@2U12345@A 00416150     umodsys_lib_libmedia:umodsys.mod.media.stdlib.obj
 0003:00001190       ?s_uid@RGenerator@stdlib@media@modules@UModSys@@2USUniquePointer@core@5@A 00416190     umodsys_lib_libmedia:umodsys.mod.media.stdlib.obj
 0003:000011a8       ?auto_flags@RLibraryObjCache@stdlib@media@modules@UModSys@@2U?$TFlags4State@USMediaFlagUid@libmedia@UModSys@@I@tl@5@A 004161a8     umodsys_lib_libmedia:umodsys.mod.media.stdlib.obj
 0003:000011ac       ?auto_flags@RLibraryObjFilter@stdlib@media@modules@UModSys@@2U?$TFlags4State@USMediaFlagUid@libmedia@UModSys@@I@tl@5@A 004161ac     umodsys_lib_libmedia:umodsys.mod.media.stdlib.obj
 0003:000011b0       ?auto_flags@RBinArchiveFrame@stdlib@media@modules@UModSys@@2U?$TFlags4State@USMediaFlagUid@libmedia@UModSys@@I@tl@5@A 004161b0     umodsys_lib_libmedia:umodsys.mod.media.stdlib.obj
 0003:000011b4       ?auto_flags@RLibraryBinTree@stdlib@media@modules@UModSys@@2U?$TFlags4State@USMediaFlagUid@libmedia@UModSys@@I@tl@5@A 004161b4     umodsys_lib_libmedia:umodsys.mod.media.stdlib.obj
 0003:000011b8       ?s_modreg_chain@RModuleReg@stdlib@media@modules@UModSys@@2USModuleRegChain@base@5@A 004161b8     umodsys_lib_libmedia:umodsys.mod.media.stdlib.obj
 0003:000011c4       ?auto_flags@RLibraryBinCache@stdlib@media@modules@UModSys@@2U?$TFlags4State@USMediaFlagUid@libmedia@UModSys@@I@tl@5@A 004161c4     umodsys_lib_libmedia:umodsys.mod.media.stdlib.obj
 0003:000011c8       ?s_sys@RSystem@rsystem@base@UModSys@@2U1234@A 004161c8     umodsys_lib_basesys:umodsys.basesys.rsystem_main.obj
 0003:000032a4       ?M@UModSys@@3USModuleContext@base@1@A 004182a4     umodsys_lib_base:umodsys.base.modulecontext.obj
 0003:000032b8       ?root@SModuleRegChain@base@UModSys@@2U123@A 004182b8     umodsys_lib_base:umodsys.base.moduleregchain.obj
 0003:000032c4       ?root@SUniquePointer@core@UModSys@@2U123@A 004182c4     umodsys_lib_core:umodsys.core.uniqueptr.obj
 0003:000032dc       ?rv@?1??get_default@SMemAlloc_Malloc@core@UModSys@@SAABU234@XZ@4U234@A 004182dc     umodsys_lib_basesys:umodsys.basesys.rsystem_main.obj
 0003:000032e0       ??_B?1??get_null@?$TSCoreShared@USMemAlloc_Malloc@core@UModSys@@D@su@tl@UModSys@@SAPAU?$TSharedStringInfo@DUSMemAlloc_Malloc@core@UModSys@@@234@XZ@51 004182e0     umodsys_lib_basesys:umodsys.basesys.rmodulelib.obj
 0003:000032e4       ?s_null@?1??get_null@?$TSCoreShared@USMemAlloc_Malloc@core@UModSys@@D@su@tl@UModSys@@SAPAU?$TSharedStringInfo@DUSMemAlloc_Malloc@core@UModSys@@@345@XZ@4U6345@A 004182e4     umodsys_lib_basesys:umodsys.basesys.rmodulelib.obj
 0003:00003334       ?s_id@?$TObjectUniqueID@URConsole_std@rsystem@base@UModSys@@@tl@UModSys@@2USUniquePointer@core@3@A 00418334     umodsys.c_main.obj
 0003:0000334c       ?s_id@?$TObjectUniqueID@URModuleLibrarySO@rsystem@base@UModSys@@@tl@UModSys@@2USUniquePointer@core@3@A 0041834c     umodsys.c_main.obj
 0003:00003364       ?s_id@?$TObjectUniqueID@UIRefObject@core@UModSys@@@tl@UModSys@@2USUniquePointer@core@3@A 00418364     umodsys.c_main.obj
 0003:0000337c       ?s_id@?$TObjectUniqueID@UIRoot@core@UModSys@@@tl@UModSys@@2USUniquePointer@core@3@A 0041837c     umodsys.c_main.obj
 0003:00003394       ?s_id@?$TObjectUniqueID@URParameters@rsystem@base@UModSys@@@tl@UModSys@@2USUniquePointer@core@3@A 00418394     umodsys.c_main.obj
 0003:000033ac       ?s_id@?$TObjectUniqueID@UIModule@base@UModSys@@@tl@UModSys@@2USUniquePointer@core@3@A 004183ac     umodsys.c_main.obj
 0003:000033c4       ?s_id@?$TObjectUniqueID@UIGenerator@base@UModSys@@@tl@UModSys@@2USUniquePointer@core@3@A 004183c4     umodsys.c_main.obj
 0003:000033dc       ?s_id@?$TObjectUniqueID@URModuleLibraryThis@rsystem@base@UModSys@@@tl@UModSys@@2USUniquePointer@core@3@A 004183dc     umodsys.c_main.obj
 0003:000033f4       ?s_id@?$TObjectUniqueID@UIModuleLibrary@base@UModSys@@@tl@UModSys@@2USUniquePointer@core@3@A 004183f4     umodsys.c_main.obj
 0003:0000340c       ?s_null@?$TStaticStringPool@DU?$TComparerBinaryHash@D@su@tl@UModSys@@USMemAlloc_Malloc@core@4@@tl@UModSys@@2U?$TString@U?$TSCoreConst@D@su@tl@UModSys@@U?$TComparerBinaryHash@D@234@@23@A 0041840c     umodsys.c_main.obj
 0003:00003418       ?s_id@?$TObjectUniqueID@UIParameters@core@UModSys@@@tl@UModSys@@2USUniquePointer@core@3@A 00418418     umodsys.c_main.obj
 0003:00003430       ?s_id@?$TObjectUniqueID@UISystem@base@UModSys@@@tl@UModSys@@2USUniquePointer@core@3@A 00418430     umodsys.c_main.obj
 0003:00003448       ?s_id@?$TObjectUniqueID@URModule@rsystem@base@UModSys@@@tl@UModSys@@2USUniquePointer@core@3@A 00418448     umodsys.c_main.obj
 0003:00003460       ?s_id@?$TObjectUniqueID@UIModObject@base@UModSys@@@tl@UModSys@@2USUniquePointer@core@3@A 00418460     umodsys.c_main.obj
 0003:00003478       ?s_id@?$TObjectUniqueID@UIModuleLibraryUni@rsystem@base@UModSys@@@tl@UModSys@@2USUniquePointer@core@3@A 00418478     umodsys.c_main.obj
 0003:00003490       ?s_id@?$TObjectUniqueID@URSystem@rsystem@base@UModSys@@@tl@UModSys@@2USUniquePointer@core@3@A 00418490     umodsys.c_main.obj
 0003:000034a8       ?s_id@?$TObjectUniqueID@UIShell@base@UModSys@@@tl@UModSys@@2USUniquePointer@core@3@A 004184a8     umodsys.c_main.obj
 0003:000034c0       ?s_id@?$TObjectUniqueID@UIConsole@base@UModSys@@@tl@UModSys@@2USUniquePointer@core@3@A 004184c0     umodsys.c_main.obj
 0003:000034d8       ?s_id@?$TObjectUniqueID@UILibrary@libmedia@UModSys@@@tl@UModSys@@2USUniquePointer@core@3@A 004184d8     umodsys_lib_libmedia:umodsys.mod.media.stdio.obj
 0003:000034f0       ?s_id@?$TObjectUniqueID@UIBinArchive@libmedia@UModSys@@@tl@UModSys@@2USUniquePointer@core@3@A 004184f0     umodsys_lib_libmedia:umodsys.mod.media.stdio.obj
 0003:00003508       ?s_id@?$TObjectUniqueID@URStreamWriter_FILE@stdio@media@modules@UModSys@@@tl@UModSys@@2USUniquePointer@core@3@A 00418508     umodsys_lib_libmedia:umodsys.mod.media.stdio.obj
 0003:00003520       ?s_id@?$TObjectUniqueID@UIStreamWriter@libmedia@UModSys@@@tl@UModSys@@2USUniquePointer@core@3@A 00418520     umodsys_lib_libmedia:umodsys.mod.media.stdio.obj
 0003:00003538       ?s_id@?$TObjectUniqueID@UIBinObjFilter@libmedia@UModSys@@@tl@UModSys@@2USUniquePointer@core@3@A 00418538     umodsys_lib_libmedia:umodsys.mod.media.stdio.obj
 0003:00003550       ?s_id@?$TObjectUniqueID@URDataArchiver_OsDir@stdio@media@modules@UModSys@@@tl@UModSys@@2USUniquePointer@core@3@A 00418550     umodsys_lib_libmedia:umodsys.mod.media.stdio.obj
 0003:00003568       ?s_id@?$TObjectUniqueID@URGenerator@stdio@media@modules@UModSys@@@tl@UModSys@@2USUniquePointer@core@3@A 00418568     umodsys_lib_libmedia:umodsys.mod.media.stdio.obj
 0003:00003580       ?s_id@?$TObjectUniqueID@UIStreamReader@libmedia@UModSys@@@tl@UModSys@@2USUniquePointer@core@3@A 00418580     umodsys_lib_libmedia:umodsys.mod.media.stdio.obj
 0003:00003598       ?s_id@?$TObjectUniqueID@UILibObject@libmedia@UModSys@@@tl@UModSys@@2USUniquePointer@core@3@A 00418598     umodsys_lib_libmedia:umodsys.mod.media.stdio.obj
 0003:000035b0       ?s_id@?$TObjectUniqueID@UIUtilities@libmedia@UModSys@@@tl@UModSys@@2USUniquePointer@core@3@A 004185b0     umodsys_lib_libmedia:umodsys.mod.media.stdio.obj
 0003:000035c8       ?s_id@?$TObjectUniqueID@URStreamReader_FILE@stdio@media@modules@UModSys@@@tl@UModSys@@2USUniquePointer@core@3@A 004185c8     umodsys_lib_libmedia:umodsys.mod.media.stdio.obj
 0003:000035e0       ?s_id@?$TObjectUniqueID@URGenerator@stdlib@media@modules@UModSys@@@tl@UModSys@@2USUniquePointer@core@3@A 004185e0     umodsys_lib_libmedia:umodsys.mod.media.stdlib.obj
 0003:000035f8       ?s_id@?$TObjectUniqueID@URUtilities@stdlib@media@modules@UModSys@@@tl@UModSys@@2USUniquePointer@core@3@A 004185f8     umodsys_lib_libmedia:umodsys.mod.media.stdlib.obj
 0003:00003610       ?s_id@?$TObjectUniqueID@UILibraryLayered@libmedia@UModSys@@@tl@UModSys@@2USUniquePointer@core@3@A 00418610     umodsys_lib_libmedia:umodsys.mod.media.stdlib.obj
 0003:00003628       ?s_id@?$TObjectUniqueID@URLibraryObjFilter@stdlib@media@modules@UModSys@@@tl@UModSys@@2USUniquePointer@core@3@A 00418628     umodsys_lib_libmedia:umodsys.mod.media.stdlib.obj
 0003:00003640       ?s_id@?$TObjectUniqueID@UILibraryObjCache@libmedia@UModSys@@@tl@UModSys@@2USUniquePointer@core@3@A 00418640     umodsys_lib_libmedia:umodsys.mod.media.stdlib.obj
 0003:00003658       ?s_id@?$TObjectUniqueID@URLibraryBinCache@stdlib@media@modules@UModSys@@@tl@UModSys@@2USUniquePointer@core@3@A 00418658     umodsys_lib_libmedia:umodsys.mod.media.stdlib.obj
 0003:00003670       ?s_id@?$TObjectUniqueID@URLibraryObjCache@stdlib@media@modules@UModSys@@@tl@UModSys@@2USUniquePointer@core@3@A 00418670     umodsys_lib_libmedia:umodsys.mod.media.stdlib.obj
 0003:00003688       ?s_id@?$TObjectUniqueID@URLibraryLayered@stdlib@media@modules@UModSys@@@tl@UModSys@@2USUniquePointer@core@3@A 00418688     umodsys_lib_libmedia:umodsys.mod.media.stdlib.obj
 0003:000036a0       ?s_id@?$TObjectUniqueID@URBinArchiveFrame@stdlib@media@modules@UModSys@@@tl@UModSys@@2USUniquePointer@core@3@A 004186a0     umodsys_lib_libmedia:umodsys.mod.media.stdlib.obj
 0003:000036b8       ?s_id@?$TObjectUniqueID@UILibraryBinCache@libmedia@UModSys@@@tl@UModSys@@2USUniquePointer@core@3@A 004186b8     umodsys_lib_libmedia:umodsys.mod.media.stdlib.obj
 0003:000036d0       ?s_id@?$TObjectUniqueID@URLibraryBinTree@stdlib@media@modules@UModSys@@@tl@UModSys@@2USUniquePointer@core@3@A 004186d0     umodsys_lib_libmedia:umodsys.mod.media.stdlib.obj
 0003:000036e8       ?s_id@?$TObjectUniqueID@UILibraryBinTree@libmedia@UModSys@@@tl@UModSys@@2USUniquePointer@core@3@A 004186e8     umodsys_lib_libmedia:umodsys.mod.media.stdlib.obj
 0003:00003700       ?s_id@?$TObjectUniqueID@UILibraryObjFilter@libmedia@UModSys@@@tl@UModSys@@2USUniquePointer@core@3@A 00418700     umodsys_lib_libmedia:umodsys.mod.media.stdlib.obj
 0003:00003718       ?s_id@?$TObjectUniqueID@UIClient@IBinArchiveFrame@libmedia@UModSys@@@tl@UModSys@@2USUniquePointer@core@3@A 00418718     umodsys_lib_libmedia:umodsys.mod.media.stdlib.obj
 0003:00003730       ?s_id@?$TObjectUniqueID@UIBinArchiveFrame@libmedia@UModSys@@@tl@UModSys@@2USUniquePointer@core@3@A 00418730     umodsys_lib_libmedia:umodsys.mod.media.stdlib.obj
 0003:00003748       __adjust_fdiv              00418748     <common>
 0003:0000374c       ___native_startup_state    0041874c     <common>
 0003:00003750       ___native_startup_lock     00418750     <common>
 0003:00003754       ___dyn_tls_init_callback   00418754     <common>
 0003:00003758       ___onexitend               00418758     <common>
 0003:0000375c       ___onexitbegin             0041875c     <common>

 entry point at        0001:0000d69a

 Static symbols

 0001:00009220       ?s_pwd_init@@YAXXZ         0040a220 f    CIL library: CIL module
 0001:0000938d       ?s_pfd_scan@@YAIPAUISystem@base@UModSys@@AAU?$TDynarrayDynamic@U?$TRefObject@URModuleLibrarySO@rsystem@base@UModSys@@U?$TRefObjectFunc@URModuleLibrarySO@rsystem@base@UModSys@@@tl@4@@tl@UModSys@@U?$TAllocator@USMemAlloc_Malloc@core@UModSys@@USCountCalcPower2@23@@23@@tl@3@PBD22@Z 0040a38d f    CIL library: CIL module
 0001:00009576       ?s_pfd_scan@@YAIPAUISystem@base@UModSys@@AAU?$TDynarrayDynamic@U?$TRefObject@URModuleLibrarySO@rsystem@base@UModSys@@U?$TRefObjectFunc@URModuleLibrarySO@rsystem@base@UModSys@@@tl@4@@tl@UModSys@@U?$TAllocator@USMemAlloc_Malloc@core@UModSys@@USCountCalcPower2@23@@23@@tl@3@PBD2@Z 0040a576 f    CIL library: CIL module
 0001:0000d3f8       _pre_cpp_init              0040e3f8 f   MSVCRT:crtexe.obj
 0001:0000d443       ___tmainCRTStartup         0040e443 f   MSVCRT:crtexe.obj
 0001:0000d5b9       _pre_c_init                0040e5b9 f   MSVCRT:crtexe.obj
 0001:0000dcc0       __unwindfunclet$??$ValidateConstruction@UIStreamReader@libmedia@UModSys@@URStreamReader_FILE@stdio@media@modules@3@@core@UModSys@@YA_NAAU?$TRefObject@UIStreamReader@libmedia@UModSys@@U?$TRefObjectFunc@UIStreamReader@libmedia@UModSys@@@tl@3@@tl@1@PAURStreamReader_FILE@stdio@media@modules@1@@Z$0 0040ecc0 f    CIL library: CIL module
 0001:0000dcc0       __unwindfunclet$??$t_moduledb_generate@UIShell@base@UModSys@@@IModuleLoader@base@UModSys@@QAE_NAAU?$TRefObject@UIShell@base@UModSys@@U?$TRefObjectFunc@UIShell@base@UModSys@@@tl@3@@tl@2@PBUSUniquePointerInfo@core@2@ABUSParameters@62@@Z$0 0040ecc0 f    CIL library: CIL module
 0001:0000dcc0       __unwindfunclet$?suicide@RModule@rsystem@base@UModSys@@UAEXXZ$0 0040ecc0 f    CIL library: CIL module
 0001:0000dcc0       __unwindfunclet$??$ValidateConstruction@UIStreamWriter@libmedia@UModSys@@URStreamWriter_FILE@stdio@media@modules@3@@core@UModSys@@YA_NAAU?$TRefObject@UIStreamWriter@libmedia@UModSys@@U?$TRefObjectFunc@UIStreamWriter@libmedia@UModSys@@@tl@3@@tl@1@PAURStreamWriter_FILE@stdio@media@modules@1@@Z$0 0040ecc0 f    CIL library: CIL module
 0001:0000dcc8       __ehhandler$??$ValidateConstruction@UIStreamWriter@libmedia@UModSys@@URStreamWriter_FILE@stdio@media@modules@3@@core@UModSys@@YA_NAAU?$TRefObject@UIStreamWriter@libmedia@UModSys@@U?$TRefObjectFunc@UIStreamWriter@libmedia@UModSys@@@tl@3@@tl@1@PAURStreamWriter_FILE@stdio@media@modules@1@@Z 0040ecc8 f    CIL library: CIL module
 0001:0000dcc8       __ehhandler$??$t_moduledb_generate@UIShell@base@UModSys@@@IModuleLoader@base@UModSys@@QAE_NAAU?$TRefObject@UIShell@base@UModSys@@U?$TRefObjectFunc@UIShell@base@UModSys@@@tl@3@@tl@2@PBUSUniquePointerInfo@core@2@ABUSParameters@62@@Z 0040ecc8 f    CIL library: CIL module
 0001:0000dcc8       __ehhandler$?suicide@RModule@rsystem@base@UModSys@@UAEXXZ 0040ecc8 f    CIL library: CIL module
 0001:0000dcc8       __ehhandler$??$ValidateConstruction@UIStreamReader@libmedia@UModSys@@URStreamReader_FILE@stdio@media@modules@3@@core@UModSys@@YA_NAAU?$TRefObject@UIStreamReader@libmedia@UModSys@@U?$TRefObjectFunc@UIStreamReader@libmedia@UModSys@@@tl@3@@tl@1@PAURStreamReader_FILE@stdio@media@modules@1@@Z 0040ecc8 f    CIL library: CIL module
 0001:0000dcd2       __unwindfunclet$??1?$TQuantArrayUnique@USUniquePointerInfo@core@UModSys@@$0BAA@USMemAlloc_Malloc@23@@tl@UModSys@@QAE@XZ$0 0040ecd2 f    CIL library: CIL module
 0001:0000dcd2       __unwindfunclet$??1?$TQuantArrayUnique@USSourceContext@core@UModSys@@$0BAA@USMemAlloc_Malloc@23@@tl@UModSys@@QAE@XZ$0 0040ecd2 f    CIL library: CIL module
 0001:0000dcda       __ehhandler$??1?$TQuantArrayUnique@USUniquePointerInfo@core@UModSys@@$0BAA@USMemAlloc_Malloc@23@@tl@UModSys@@QAE@XZ 0040ecda f    CIL library: CIL module
 0001:0000dcda       __ehhandler$??1?$TQuantArrayUnique@USSourceContext@core@UModSys@@$0BAA@USMemAlloc_Malloc@23@@tl@UModSys@@QAE@XZ 0040ecda f    CIL library: CIL module
 0001:0000dce4       __unwindfunclet$?data_reader@RBinArchiveFrame@stdlib@media@modules@UModSys@@UAE?AU?$TRefObject@UIStreamReader@libmedia@UModSys@@U?$TRefObjectFunc@UIStreamReader@libmedia@UModSys@@@tl@3@@tl@5@ABU?$TString@U?$TSCoreConst@D@su@tl@UModSys@@U?$TComparerBinaryHash@D@234@@75@ABUSFlags@libmedia@5@@Z$0 0040ece4 f    CIL library: CIL module
 0001:0000dcfd       __unwindfunclet$?data_reader@RBinArchiveFrame@stdlib@media@modules@UModSys@@UAE?AU?$TRefObject@UIStreamReader@libmedia@UModSys@@U?$TRefObjectFunc@UIStreamReader@libmedia@UModSys@@@tl@3@@tl@5@ABU?$TString@U?$TSCoreConst@D@su@tl@UModSys@@U?$TComparerBinaryHash@D@234@@75@ABUSFlags@libmedia@5@@Z$1 0040ecfd f    CIL library: CIL module
 0001:0000dd16       __ehhandler$?data_reader@RBinArchiveFrame@stdlib@media@modules@UModSys@@UAE?AU?$TRefObject@UIStreamReader@libmedia@UModSys@@U?$TRefObjectFunc@UIStreamReader@libmedia@UModSys@@@tl@3@@tl@5@ABU?$TString@U?$TSCoreConst@D@su@tl@UModSys@@U?$TComparerBinaryHash@D@234@@75@ABUSFlags@libmedia@5@@Z 0040ed16 f    CIL library: CIL module
 0001:0000dd20       __unwindfunclet$?suicide@RUtilities@stdlib@media@modules@UModSys@@UAEXXZ$0 0040ed20 f    CIL library: CIL module
 0001:0000dd20       __unwindfunclet$?suicide@RStreamReader_FILE@stdio@media@modules@UModSys@@UAEXXZ$0 0040ed20 f    CIL library: CIL module
 0001:0000dd20       __unwindfunclet$?suicide@RBinArchiveFrame@stdlib@media@modules@UModSys@@UAEXXZ$0 0040ed20 f    CIL library: CIL module
 0001:0000dd20       __unwindfunclet$?suicide@RLibraryBinTree@stdlib@media@modules@UModSys@@UAEXXZ$0 0040ed20 f    CIL library: CIL module
 0001:0000dd20       __unwindfunclet$?suicide@RLibraryBinCache@stdlib@media@modules@UModSys@@UAEXXZ$0 0040ed20 f    CIL library: CIL module
 0001:0000dd20       __unwindfunclet$?suicide@RStreamWriter_FILE@stdio@media@modules@UModSys@@UAEXXZ$0 0040ed20 f    CIL library: CIL module
 0001:0000dd20       __unwindfunclet$?suicide@RLibraryLayered@stdlib@media@modules@UModSys@@UAEXXZ$0 0040ed20 f    CIL library: CIL module
 0001:0000dd20       __unwindfunclet$?suicide@RDataArchiver_OsDir@stdio@media@modules@UModSys@@UAEXXZ$0 0040ed20 f    CIL library: CIL module
 0001:0000dd20       __unwindfunclet$?suicide@RLibraryObjCache@stdlib@media@modules@UModSys@@UAEXXZ$0 0040ed20 f    CIL library: CIL module
 0001:0000dd20       __unwindfunclet$?suicide@RLibraryObjFilter@stdlib@media@modules@UModSys@@UAEXXZ$0 0040ed20 f    CIL library: CIL module
 0001:0000dd28       __ehhandler$?suicide@RLibraryObjFilter@stdlib@media@modules@UModSys@@UAEXXZ 0040ed28 f    CIL library: CIL module
 0001:0000dd28       __ehhandler$?suicide@RLibraryObjCache@stdlib@media@modules@UModSys@@UAEXXZ 0040ed28 f    CIL library: CIL module
 0001:0000dd28       __ehhandler$?suicide@RDataArchiver_OsDir@stdio@media@modules@UModSys@@UAEXXZ 0040ed28 f    CIL library: CIL module
 0001:0000dd28       __ehhandler$?suicide@RLibraryLayered@stdlib@media@modules@UModSys@@UAEXXZ 0040ed28 f    CIL library: CIL module
 0001:0000dd28       __ehhandler$?suicide@RStreamWriter_FILE@stdio@media@modules@UModSys@@UAEXXZ 0040ed28 f    CIL library: CIL module
 0001:0000dd28       __ehhandler$?suicide@RLibraryBinTree@stdlib@media@modules@UModSys@@UAEXXZ 0040ed28 f    CIL library: CIL module
 0001:0000dd28       __ehhandler$?suicide@RLibraryBinCache@stdlib@media@modules@UModSys@@UAEXXZ 0040ed28 f    CIL library: CIL module
 0001:0000dd28       __ehhandler$?suicide@RUtilities@stdlib@media@modules@UModSys@@UAEXXZ 0040ed28 f    CIL library: CIL module
 0001:0000dd28       __ehhandler$?suicide@RBinArchiveFrame@stdlib@media@modules@UModSys@@UAEXXZ 0040ed28 f    CIL library: CIL module
 0001:0000dd28       __ehhandler$?suicide@RStreamReader_FILE@stdio@media@modules@UModSys@@UAEXXZ 0040ed28 f    CIL library: CIL module
 0001:0000dd32       __unwindfunclet$??1RModuleLoader@rsystem@base@UModSys@@UAE@XZ$0 0040ed32 f    CIL library: CIL module
 0001:0000dd3a       __unwindfunclet$??1RModuleLoader@rsystem@base@UModSys@@UAE@XZ$1 0040ed3a f    CIL library: CIL module
 0001:0000dd45       __unwindfunclet$??1RModuleLoader@rsystem@base@UModSys@@UAE@XZ$2 0040ed45 f    CIL library: CIL module
 0001:0000dd50       __ehhandler$??1RModuleLoader@rsystem@base@UModSys@@UAE@XZ 0040ed50 f    CIL library: CIL module
 0001:0000dd5a       __unwindfunclet$??1RSystem@rsystem@base@UModSys@@UAE@XZ$0 0040ed5a f    CIL library: CIL module
 0001:0000dd62       __unwindfunclet$??1RSystem@rsystem@base@UModSys@@UAE@XZ$1 0040ed62 f    CIL library: CIL module
 0001:0000dd6f       __unwindfunclet$??1RSystem@rsystem@base@UModSys@@UAE@XZ$2 0040ed6f f    CIL library: CIL module
 0001:0000dd7a       __unwindfunclet$??1RSystem@rsystem@base@UModSys@@UAE@XZ$3 0040ed7a f    CIL library: CIL module
 0001:0000dd85       __unwindfunclet$??1RSystem@rsystem@base@UModSys@@UAE@XZ$4 0040ed85 f    CIL library: CIL module
 0001:0000dd92       __unwindfunclet$??1RSystem@rsystem@base@UModSys@@UAE@XZ$5 0040ed92 f    CIL library: CIL module
 0001:0000dd9d       __ehhandler$??1RSystem@rsystem@base@UModSys@@UAE@XZ 0040ed9d f    CIL library: CIL module
 0001:0000dda7       __unwindfunclet$??RGen0@?$TScatterArray@USFilter@RLibraryObjFilter@stdlib@media@modules@UModSys@@USId@23456@U723456@U?$TNodeDeleter0@U?$TScatterArrayNode@USFilter@RLibraryObjFilter@stdlib@media@modules@UModSys@@USId@23456@@tl@UModSys@@@tl@6@@tl@UModSys@@QBEPAU?$TScatterArrayNode@USFilter@RLibraryObjFilter@stdlib@media@modules@UModSys@@USId@23456@@23@ABUCmp@123@ABU?$TTreeHoldRBD@U?$TScatterArrayNode@USFilter@RLibraryObjFilter@stdlib@media@modules@UModSys@@USId@23456@@tl@UModSys@@U?$TNodeDeleter0@U?$TScatterArrayNode@USFilter@RLibraryObjFilter@stdlib@media@modules@UModSys@@USId@23456@@tl@UModSys@@@23@@23@@Z$0 0040eda7 f    CIL library: CIL module
 0001:0000ddac       __unwindfunclet$??RGen0@?$TScatterArray@USFilter@RLibraryObjFilter@stdlib@media@modules@UModSys@@USId@23456@U723456@U?$TNodeDeleter0@U?$TScatterArrayNode@USFilter@RLibraryObjFilter@stdlib@media@modules@UModSys@@USId@23456@@tl@UModSys@@@tl@6@@tl@UModSys@@QBEPAU?$TScatterArrayNode@USFilter@RLibraryObjFilter@stdlib@media@modules@UModSys@@USId@23456@@23@ABUCmp@123@ABU?$TTreeHoldRBD@U?$TScatterArrayNode@USFilter@RLibraryObjFilter@stdlib@media@modules@UModSys@@USId@23456@@tl@UModSys@@U?$TNodeDeleter0@U?$TScatterArrayNode@USFilter@RLibraryObjFilter@stdlib@media@modules@UModSys@@USId@23456@@tl@UModSys@@@23@@23@@Z$1 0040edac f    CIL library: CIL module
 0001:0000ddb4       __unwindfunclet$??RGen0@?$TScatterArray@USFilter@RLibraryObjFilter@stdlib@media@modules@UModSys@@USId@23456@U723456@U?$TNodeDeleter0@U?$TScatterArrayNode@USFilter@RLibraryObjFilter@stdlib@media@modules@UModSys@@USId@23456@@tl@UModSys@@@tl@6@@tl@UModSys@@QBEPAU?$TScatterArrayNode@USFilter@RLibraryObjFilter@stdlib@media@modules@UModSys@@USId@23456@@23@ABUCmp@123@ABU?$TTreeHoldRBD@U?$TScatterArrayNode@USFilter@RLibraryObjFilter@stdlib@media@modules@UModSys@@USId@23456@@tl@UModSys@@U?$TNodeDeleter0@U?$TScatterArrayNode@USFilter@RLibraryObjFilter@stdlib@media@modules@UModSys@@USId@23456@@tl@UModSys@@@23@@23@@Z$2 0040edb4 f    CIL library: CIL module
 0001:0000ddbf       __ehhandler$??RGen0@?$TScatterArray@USFilter@RLibraryObjFilter@stdlib@media@modules@UModSys@@USId@23456@U723456@U?$TNodeDeleter0@U?$TScatterArrayNode@USFilter@RLibraryObjFilter@stdlib@media@modules@UModSys@@USId@23456@@tl@UModSys@@@tl@6@@tl@UModSys@@QBEPAU?$TScatterArrayNode@USFilter@RLibraryObjFilter@stdlib@media@modules@UModSys@@USId@23456@@23@ABUCmp@123@ABU?$TTreeHoldRBD@U?$TScatterArrayNode@USFilter@RLibraryObjFilter@stdlib@media@modules@UModSys@@USId@23456@@tl@UModSys@@U?$TNodeDeleter0@U?$TScatterArrayNode@USFilter@RLibraryObjFilter@stdlib@media@modules@UModSys@@USId@23456@@tl@UModSys@@@23@@23@@Z 0040edbf f    CIL library: CIL module
 0001:0000ddc9       __unwindfunclet$?filters_add@RLibraryObjFilter@stdlib@media@modules@UModSys@@UAE_NU?$TRefObject@UIBinObjFilter@libmedia@UModSys@@U?$TRefObjectFunc@UIBinObjFilter@libmedia@UModSys@@@tl@3@@tl@5@PBUSParameters@core@5@H@Z$0 0040edc9 f    CIL library: CIL module
 0001:0000ddd1       __ehhandler$?filters_add@RLibraryObjFilter@stdlib@media@modules@UModSys@@UAE_NU?$TRefObject@UIBinObjFilter@libmedia@UModSys@@U?$TRefObjectFunc@UIBinObjFilter@libmedia@UModSys@@@tl@3@@tl@5@PBUSParameters@core@5@H@Z 0040edd1 f    CIL library: CIL module
 0001:0000dddb       __unwindfunclet$??1IBinArchiveFrame@libmedia@UModSys@@UAE@XZ$0 0040eddb f    CIL library: CIL module
 0001:0000dde4       __unwindfunclet$??1IBinArchiveFrame@libmedia@UModSys@@UAE@XZ$1 0040ede4 f    CIL library: CIL module
 0001:0000ddef       __unwindfunclet$??1IBinArchiveFrame@libmedia@UModSys@@UAE@XZ$2 0040edef f    CIL library: CIL module
 0001:0000ddfa       __ehhandler$??1IBinArchiveFrame@libmedia@UModSys@@UAE@XZ 0040edfa f    CIL library: CIL module
 0001:0000de04       __unwindfunclet$??0RBinArchiveFrame@stdlib@media@modules@UModSys@@QAE@PAUIModObject@base@4@ABUSParameters@core@4@U?$TFlags4State@USMediaFlagUid@libmedia@UModSys@@I@tl@4@@Z$0 0040ee04 f    CIL library: CIL module
 0001:0000de04       __unwindfunclet$??1RBinArchiveFrame@stdlib@media@modules@UModSys@@UAE@XZ$0 0040ee04 f    CIL library: CIL module
 0001:0000de0d       __unwindfunclet$??1RBinArchiveFrame@stdlib@media@modules@UModSys@@UAE@XZ$1 0040ee0d f    CIL library: CIL module
 0001:0000de0d       __unwindfunclet$??0RBinArchiveFrame@stdlib@media@modules@UModSys@@QAE@PAUIModObject@base@4@ABUSParameters@core@4@U?$TFlags4State@USMediaFlagUid@libmedia@UModSys@@I@tl@4@@Z$1 0040ee0d f    CIL library: CIL module
 0001:0000de18       __unwindfunclet$??0RBinArchiveFrame@stdlib@media@modules@UModSys@@QAE@PAUIModObject@base@4@ABUSParameters@core@4@U?$TFlags4State@USMediaFlagUid@libmedia@UModSys@@I@tl@4@@Z$2 0040ee18 f    CIL library: CIL module
 0001:0000de18       __unwindfunclet$??1RBinArchiveFrame@stdlib@media@modules@UModSys@@UAE@XZ$2 0040ee18 f    CIL library: CIL module
 0001:0000de23       __unwindfunclet$??1RBinArchiveFrame@stdlib@media@modules@UModSys@@UAE@XZ$3 0040ee23 f    CIL library: CIL module
 0001:0000de23       __unwindfunclet$??0RBinArchiveFrame@stdlib@media@modules@UModSys@@QAE@PAUIModObject@base@4@ABUSParameters@core@4@U?$TFlags4State@USMediaFlagUid@libmedia@UModSys@@I@tl@4@@Z$3 0040ee23 f    CIL library: CIL module
 0001:0000de2e       __ehhandler$??1RBinArchiveFrame@stdlib@media@modules@UModSys@@UAE@XZ 0040ee2e f    CIL library: CIL module
 0001:0000de2e       __ehhandler$??0RBinArchiveFrame@stdlib@media@modules@UModSys@@QAE@PAUIModObject@base@4@ABUSParameters@core@4@U?$TFlags4State@USMediaFlagUid@libmedia@UModSys@@I@tl@4@@Z 0040ee2e f    CIL library: CIL module
 0001:0000de38       __unwindfunclet$??0RStreamReader_FILE@stdio@media@modules@UModSys@@QAE@PAUIModObject@base@4@PBD@Z$0 0040ee38 f    CIL library: CIL module
 0001:0000de38       __unwindfunclet$??0RStreamReader_FILE@stdio@media@modules@UModSys@@QAE@PAUIModObject@base@4@ABUSParameters@core@4@@Z$0 0040ee38 f    CIL library: CIL module
 0001:0000de38       __unwindfunclet$??0RUtilities@stdlib@media@modules@UModSys@@QAE@PAUIModObject@base@4@ABUSParameters@core@4@@Z$0 0040ee38 f    CIL library: CIL module
 0001:0000de38       __unwindfunclet$??0RStreamWriter_FILE@stdio@media@modules@UModSys@@QAE@PAUIModObject@base@4@ABUSParameters@core@4@@Z$0 0040ee38 f    CIL library: CIL module
 0001:0000de38       __unwindfunclet$??0RStreamWriter_FILE@stdio@media@modules@UModSys@@QAE@PAUIModObject@base@4@PBD_N@Z$0 0040ee38 f    CIL library: CIL module
 0001:0000de38       __unwindfunclet$??1ILibObject@libmedia@UModSys@@UAE@XZ$0 0040ee38 f    CIL library: CIL module
 0001:0000de40       __ehhandler$??0RStreamReader_FILE@stdio@media@modules@UModSys@@QAE@PAUIModObject@base@4@ABUSParameters@core@4@@Z 0040ee40 f    CIL library: CIL module
 0001:0000de40       __ehhandler$??0RStreamWriter_FILE@stdio@media@modules@UModSys@@QAE@PAUIModObject@base@4@PBD_N@Z 0040ee40 f    CIL library: CIL module
 0001:0000de40       __ehhandler$??1ILibObject@libmedia@UModSys@@UAE@XZ 0040ee40 f    CIL library: CIL module
 0001:0000de40       __ehhandler$??0RStreamWriter_FILE@stdio@media@modules@UModSys@@QAE@PAUIModObject@base@4@ABUSParameters@core@4@@Z 0040ee40 f    CIL library: CIL module
 0001:0000de40       __ehhandler$??0RUtilities@stdlib@media@modules@UModSys@@QAE@PAUIModObject@base@4@ABUSParameters@core@4@@Z 0040ee40 f    CIL library: CIL module
 0001:0000de40       __ehhandler$??0RStreamReader_FILE@stdio@media@modules@UModSys@@QAE@PAUIModObject@base@4@PBD@Z 0040ee40 f    CIL library: CIL module
 0001:0000de4a       __unwindfunclet$?archive_load_data@libmedia@UModSys@@YA_NAAUIBinArchive@12@ABU?$TString@U?$TSCoreConst@D@su@tl@UModSys@@U?$TComparerBinaryHash@D@234@@tl@2@AAUSCMemShared@core@2@ABUSFlags@12@@Z$0 0040ee4a f    CIL library: CIL module
 0001:0000de52       __unwindfunclet$?archive_load_data@libmedia@UModSys@@YA_NAAUIBinArchive@12@ABU?$TString@U?$TSCoreConst@D@su@tl@UModSys@@U?$TComparerBinaryHash@D@234@@tl@2@AAUSCMemShared@core@2@ABUSFlags@12@@Z$1 0040ee52 f    CIL library: CIL module
 0001:0000de5a       __ehhandler$?archive_load_data@libmedia@UModSys@@YA_NAAUIBinArchive@12@ABU?$TString@U?$TSCoreConst@D@su@tl@UModSys@@U?$TComparerBinaryHash@D@234@@tl@2@AAUSCMemShared@core@2@ABUSFlags@12@@Z 0040ee5a f    CIL library: CIL module
 0001:0000de64       __unwindfunclet$??$t_gen_param@URBinArchiveFrame@stdlib@media@modules@UModSys@@URGenerator@2345@@IGenerator@base@UModSys@@IAE_NPAURGenerator@stdlib@media@modules@2@AAU?$TRefObject@UIRefObject@core@UModSys@@U?$TRefObjectFunc@UIRefObject@core@UModSys@@@tl@3@@tl@2@PBUSUniquePointerInfo@core@2@ABUSParameters@core@2@@Z$0 0040ee64 f    CIL library: CIL module
 0001:0000de6f       __unwindfunclet$??$t_gen_param@URBinArchiveFrame@stdlib@media@modules@UModSys@@URGenerator@2345@@IGenerator@base@UModSys@@IAE_NPAURGenerator@stdlib@media@modules@2@AAU?$TRefObject@UIRefObject@core@UModSys@@U?$TRefObjectFunc@UIRefObject@core@UModSys@@@tl@3@@tl@2@PBUSUniquePointerInfo@core@2@ABUSParameters@core@2@@Z$1 0040ee6f f    CIL library: CIL module
 0001:0000de77       __ehhandler$??$t_gen_param@URBinArchiveFrame@stdlib@media@modules@UModSys@@URGenerator@2345@@IGenerator@base@UModSys@@IAE_NPAURGenerator@stdlib@media@modules@2@AAU?$TRefObject@UIRefObject@core@UModSys@@U?$TRefObjectFunc@UIRefObject@core@UModSys@@@tl@3@@tl@2@PBUSUniquePointerInfo@core@2@ABUSParameters@core@2@@Z 0040ee77 f    CIL library: CIL module
 0001:0000de81       __unwindfunclet$??0?$TString@U?$TSCoreShared@USIMemAlloc@core@UModSys@@D@su@tl@UModSys@@U?$TComparerBinaryHash@D@234@@tl@UModSys@@QAE@ABU?$TSCoreConst@D@su@12@@Z$0 0040ee81 f    CIL library: CIL module
 0001:0000de81       __unwindfunclet$??1SCacheElem@RLibraryObjCache@stdlib@media@modules@UModSys@@QAE@XZ$0 0040ee81 f    CIL library: CIL module
 0001:0000de81       __unwindfunclet$??1SCacheElem@RLibraryBinCache@stdlib@media@modules@UModSys@@QAE@XZ$0 0040ee81 f    CIL library: CIL module
 0001:0000de89       __ehhandler$??1SCacheElem@RLibraryObjCache@stdlib@media@modules@UModSys@@QAE@XZ 0040ee89 f    CIL library: CIL module
 0001:0000de89       __ehhandler$??0?$TString@U?$TSCoreShared@USIMemAlloc@core@UModSys@@D@su@tl@UModSys@@U?$TComparerBinaryHash@D@234@@tl@UModSys@@QAE@ABU?$TSCoreConst@D@su@12@@Z 0040ee89 f    CIL library: CIL module
 0001:0000de89       __ehhandler$??1SCacheElem@RLibraryBinCache@stdlib@media@modules@UModSys@@QAE@XZ 0040ee89 f    CIL library: CIL module
 0001:0000de93       __unwindfunclet$??0RLibraryObjFilter@stdlib@media@modules@UModSys@@QAE@PAUIModObject@base@4@ABUSParameters@core@4@U?$TFlags4State@USMediaFlagUid@libmedia@UModSys@@I@tl@4@@Z$0 0040ee93 f    CIL library: CIL module
 0001:0000de93       __unwindfunclet$??0RLibraryBinCache@stdlib@media@modules@UModSys@@QAE@PAUIModObject@base@4@ABUSParameters@core@4@U?$TFlags4State@USMediaFlagUid@libmedia@UModSys@@I@tl@4@@Z$0 0040ee93 f    CIL library: CIL module
 0001:0000de93       __unwindfunclet$??0RLibraryObjCache@stdlib@media@modules@UModSys@@QAE@PAUIModObject@base@4@ABUSParameters@core@4@U?$TFlags4State@USMediaFlagUid@libmedia@UModSys@@I@tl@4@@Z$0 0040ee93 f    CIL library: CIL module
 0001:0000de93       __unwindfunclet$??0RLibraryBinTree@stdlib@media@modules@UModSys@@QAE@PAUIModObject@base@4@ABUSParameters@core@4@U?$TFlags4State@USMediaFlagUid@libmedia@UModSys@@I@tl@4@@Z$0 0040ee93 f    CIL library: CIL module
 0001:0000de93       __unwindfunclet$??0RLibraryLayered@stdlib@media@modules@UModSys@@QAE@PAUIModObject@base@4@ABUSParameters@core@4@U?$TFlags4State@USMediaFlagUid@libmedia@UModSys@@I@tl@4@@Z$0 0040ee93 f    CIL library: CIL module
 0001:0000de9c       __ehhandler$??0RLibraryLayered@stdlib@media@modules@UModSys@@QAE@PAUIModObject@base@4@ABUSParameters@core@4@U?$TFlags4State@USMediaFlagUid@libmedia@UModSys@@I@tl@4@@Z 0040ee9c f    CIL library: CIL module
 0001:0000de9c       __ehhandler$??0RLibraryBinTree@stdlib@media@modules@UModSys@@QAE@PAUIModObject@base@4@ABUSParameters@core@4@U?$TFlags4State@USMediaFlagUid@libmedia@UModSys@@I@tl@4@@Z 0040ee9c f    CIL library: CIL module
 0001:0000de9c       __ehhandler$??0RLibraryObjCache@stdlib@media@modules@UModSys@@QAE@PAUIModObject@base@4@ABUSParameters@core@4@U?$TFlags4State@USMediaFlagUid@libmedia@UModSys@@I@tl@4@@Z 0040ee9c f    CIL library: CIL module
 0001:0000de9c       __ehhandler$??0RLibraryObjFilter@stdlib@media@modules@UModSys@@QAE@PAUIModObject@base@4@ABUSParameters@core@4@U?$TFlags4State@USMediaFlagUid@libmedia@UModSys@@I@tl@4@@Z 0040ee9c f    CIL library: CIL module
 0001:0000de9c       __ehhandler$??0RLibraryBinCache@stdlib@media@modules@UModSys@@QAE@PAUIModObject@base@4@ABUSParameters@core@4@U?$TFlags4State@USMediaFlagUid@libmedia@UModSys@@I@tl@4@@Z 0040ee9c f    CIL library: CIL module
 0001:0000dea6       __unwindfunclet$?obj_get@RLibraryLayered@stdlib@media@modules@UModSys@@UAE_NABU?$TString@U?$TSCoreConst@D@su@tl@UModSys@@U?$TComparerBinaryHash@D@234@@tl@5@AAU?$TRefObject@UIRefObject@core@UModSys@@U?$TRefObjectFunc@UIRefObject@core@UModSys@@@tl@3@@75@ABUSObjOptions@ILibrary@libmedia@5@@Z$0 0040eea6 f    CIL library: CIL module
 0001:0000deae       __ehhandler$?obj_get@RLibraryLayered@stdlib@media@modules@UModSys@@UAE_NABU?$TString@U?$TSCoreConst@D@su@tl@UModSys@@U?$TComparerBinaryHash@D@234@@tl@5@AAU?$TRefObject@UIRefObject@core@UModSys@@U?$TRefObjectFunc@UIRefObject@core@UModSys@@@tl@3@@75@ABUSObjOptions@ILibrary@libmedia@5@@Z 0040eeae f    CIL library: CIL module
 0001:0000deb8       __unwindfunclet$?bin_save@RLibraryLayered@stdlib@media@modules@UModSys@@UAE_NABU?$TString@U?$TSCoreConst@D@su@tl@UModSys@@U?$TComparerBinaryHash@D@234@@tl@5@ABUSCMem@core@5@ABUSFlags@libmedia@5@@Z$0 0040eeb8 f    CIL library: CIL module
 0001:0000dec0       __unwindfunclet$?bin_save@RLibraryLayered@stdlib@media@modules@UModSys@@UAE_NABU?$TString@U?$TSCoreConst@D@su@tl@UModSys@@U?$TComparerBinaryHash@D@234@@tl@5@ABUSCMem@core@5@ABUSFlags@libmedia@5@@Z$1 0040eec0 f    CIL library: CIL module
 0001:0000dec8       __ehhandler$?bin_save@RLibraryLayered@stdlib@media@modules@UModSys@@UAE_NABU?$TString@U?$TSCoreConst@D@su@tl@UModSys@@U?$TComparerBinaryHash@D@234@@tl@5@ABUSCMem@core@5@ABUSFlags@libmedia@5@@Z 0040eec8 f    CIL library: CIL module
 0001:0000ded2       __unwindfunclet$?bin_writer@RLibraryLayered@stdlib@media@modules@UModSys@@UAE?AU?$TRefObject@UIStreamWriter@libmedia@UModSys@@U?$TRefObjectFunc@UIStreamWriter@libmedia@UModSys@@@tl@3@@tl@5@ABU?$TString@U?$TSCoreConst@D@su@tl@UModSys@@U?$TComparerBinaryHash@D@234@@75@ABUSFlags@libmedia@5@@Z$0 0040eed2 f    CIL library: CIL module
 0001:0000ded2       __unwindfunclet$?bin_reader@RLibraryLayered@stdlib@media@modules@UModSys@@UAE?AU?$TRefObject@UIStreamReader@libmedia@UModSys@@U?$TRefObjectFunc@UIStreamReader@libmedia@UModSys@@@tl@3@@tl@5@ABU?$TString@U?$TSCoreConst@D@su@tl@UModSys@@U?$TComparerBinaryHash@D@234@@75@ABUSFlags@libmedia@5@@Z$0 0040eed2 f    CIL library: CIL module
 0001:0000ded2       __unwindfunclet$?data_save@RDataArchiver_OsDir@stdio@media@modules@UModSys@@UAE_NABU?$TString@U?$TSCoreConst@D@su@tl@UModSys@@U?$TComparerBinaryHash@D@234@@tl@5@ABUSCMem@core@5@ABUSFlags@libmedia@5@@Z$0 0040eed2 f    CIL library: CIL module
 0001:0000deda       __ehhandler$?data_save@RDataArchiver_OsDir@stdio@media@modules@UModSys@@UAE_NABU?$TString@U?$TSCoreConst@D@su@tl@UModSys@@U?$TComparerBinaryHash@D@234@@tl@5@ABUSCMem@core@5@ABUSFlags@libmedia@5@@Z 0040eeda f    CIL library: CIL module
 0001:0000deda       __ehhandler$?bin_reader@RLibraryLayered@stdlib@media@modules@UModSys@@UAE?AU?$TRefObject@UIStreamReader@libmedia@UModSys@@U?$TRefObjectFunc@UIStreamReader@libmedia@UModSys@@@tl@3@@tl@5@ABU?$TString@U?$TSCoreConst@D@su@tl@UModSys@@U?$TComparerBinaryHash@D@234@@75@ABUSFlags@libmedia@5@@Z 0040eeda f    CIL library: CIL module
 0001:0000deda       __ehhandler$?bin_writer@RLibraryLayered@stdlib@media@modules@UModSys@@UAE?AU?$TRefObject@UIStreamWriter@libmedia@UModSys@@U?$TRefObjectFunc@UIStreamWriter@libmedia@UModSys@@@tl@3@@tl@5@ABU?$TString@U?$TSCoreConst@D@su@tl@UModSys@@U?$TComparerBinaryHash@D@234@@75@ABUSFlags@libmedia@5@@Z 0040eeda f    CIL library: CIL module
 0001:0000dee4       __unwindfunclet$?open@RBinArchiveFrame@stdlib@media@modules@UModSys@@UAE_NPAUIClient@IBinArchiveFrame@libmedia@5@PBUSParameters@core@5@@Z$0 0040eee4 f    CIL library: CIL module
 0001:0000deec       __unwindfunclet$?open@RBinArchiveFrame@stdlib@media@modules@UModSys@@UAE_NPAUIClient@IBinArchiveFrame@libmedia@5@PBUSParameters@core@5@@Z$1 0040eeec f    CIL library: CIL module
 0001:0000def4       __unwindfunclet$?open@RBinArchiveFrame@stdlib@media@modules@UModSys@@UAE_NPAUIClient@IBinArchiveFrame@libmedia@5@PBUSParameters@core@5@@Z$2 0040eef4 f    CIL library: CIL module
 0001:0000defc       __ehhandler$?open@RBinArchiveFrame@stdlib@media@modules@UModSys@@UAE_NPAUIClient@IBinArchiveFrame@libmedia@5@PBUSParameters@core@5@@Z 0040eefc f    CIL library: CIL module
 0001:0000df06       __unwindfunclet$??1SFileInfo@libmedia@UModSys@@QAE@XZ$0 0040ef06 f    CIL library: CIL module
 0001:0000df0e       __unwindfunclet$??1SFileInfo@libmedia@UModSys@@QAE@XZ$1 0040ef0e f    CIL library: CIL module
 0001:0000df19       __ehhandler$??1SFileInfo@libmedia@UModSys@@QAE@XZ 0040ef19 f    CIL library: CIL module
 0001:0000df23       __unwindfunclet$?data_writer@RDataArchiver_OsDir@stdio@media@modules@UModSys@@UAE?AU?$TRefObject@UIStreamWriter@libmedia@UModSys@@U?$TRefObjectFunc@UIStreamWriter@libmedia@UModSys@@@tl@3@@tl@5@ABU?$TString@U?$TSCoreConst@D@su@tl@UModSys@@U?$TComparerBinaryHash@D@234@@75@ABUSFlags@libmedia@5@@Z$1 0040ef23 f    CIL library: CIL module
 0001:0000df2b       __unwindfunclet$?data_writer@RDataArchiver_OsDir@stdio@media@modules@UModSys@@UAE?AU?$TRefObject@UIStreamWriter@libmedia@UModSys@@U?$TRefObjectFunc@UIStreamWriter@libmedia@UModSys@@@tl@3@@tl@5@ABU?$TString@U?$TSCoreConst@D@su@tl@UModSys@@U?$TComparerBinaryHash@D@234@@75@ABUSFlags@libmedia@5@@Z$2 0040ef2b f    CIL library: CIL module
 0001:0000df36       __unwindfunclet$?data_writer@RDataArchiver_OsDir@stdio@media@modules@UModSys@@UAE?AU?$TRefObject@UIStreamWriter@libmedia@UModSys@@U?$TRefObjectFunc@UIStreamWriter@libmedia@UModSys@@@tl@3@@tl@5@ABU?$TString@U?$TSCoreConst@D@su@tl@UModSys@@U?$TComparerBinaryHash@D@234@@75@ABUSFlags@libmedia@5@@Z$0 0040ef36 f    CIL library: CIL module
 0001:0000df4f       __ehhandler$?data_writer@RDataArchiver_OsDir@stdio@media@modules@UModSys@@UAE?AU?$TRefObject@UIStreamWriter@libmedia@UModSys@@U?$TRefObjectFunc@UIStreamWriter@libmedia@UModSys@@@tl@3@@tl@5@ABU?$TString@U?$TSCoreConst@D@su@tl@UModSys@@U?$TComparerBinaryHash@D@234@@75@ABUSFlags@libmedia@5@@Z 0040ef4f f    CIL library: CIL module
 0001:0000df59       __unwindfunclet$?data_reader@RDataArchiver_OsDir@stdio@media@modules@UModSys@@UAE?AU?$TRefObject@UIStreamReader@libmedia@UModSys@@U?$TRefObjectFunc@UIStreamReader@libmedia@UModSys@@@tl@3@@tl@5@ABU?$TString@U?$TSCoreConst@D@su@tl@UModSys@@U?$TComparerBinaryHash@D@234@@75@ABUSFlags@libmedia@5@@Z$1 0040ef59 f    CIL library: CIL module
 0001:0000df61       __unwindfunclet$?data_reader@RDataArchiver_OsDir@stdio@media@modules@UModSys@@UAE?AU?$TRefObject@UIStreamReader@libmedia@UModSys@@U?$TRefObjectFunc@UIStreamReader@libmedia@UModSys@@@tl@3@@tl@5@ABU?$TString@U?$TSCoreConst@D@su@tl@UModSys@@U?$TComparerBinaryHash@D@234@@75@ABUSFlags@libmedia@5@@Z$2 0040ef61 f    CIL library: CIL module
 0001:0000df6c       __unwindfunclet$?data_reader@RDataArchiver_OsDir@stdio@media@modules@UModSys@@UAE?AU?$TRefObject@UIStreamReader@libmedia@UModSys@@U?$TRefObjectFunc@UIStreamReader@libmedia@UModSys@@@tl@3@@tl@5@ABU?$TString@U?$TSCoreConst@D@su@tl@UModSys@@U?$TComparerBinaryHash@D@234@@75@ABUSFlags@libmedia@5@@Z$0 0040ef6c f    CIL library: CIL module
 0001:0000df85       __ehhandler$?data_reader@RDataArchiver_OsDir@stdio@media@modules@UModSys@@UAE?AU?$TRefObject@UIStreamReader@libmedia@UModSys@@U?$TRefObjectFunc@UIStreamReader@libmedia@UModSys@@@tl@3@@tl@5@ABU?$TString@U?$TSCoreConst@D@su@tl@UModSys@@U?$TComparerBinaryHash@D@234@@75@ABUSFlags@libmedia@5@@Z 0040ef85 f    CIL library: CIL module
 0001:0000df8f       __unwindfunclet$??0RDataArchiver_OsDir@stdio@media@modules@UModSys@@QAE@PAUIModObject@base@4@ABUSParameters@core@4@U?$TFlags4State@USMediaFlagUid@libmedia@UModSys@@I@tl@4@@Z$0 0040ef8f f    CIL library: CIL module
 0001:0000df98       __unwindfunclet$??0RDataArchiver_OsDir@stdio@media@modules@UModSys@@QAE@PAUIModObject@base@4@ABUSParameters@core@4@U?$TFlags4State@USMediaFlagUid@libmedia@UModSys@@I@tl@4@@Z$1 0040ef98 f    CIL library: CIL module
 0001:0000dfa3       __ehhandler$??0RDataArchiver_OsDir@stdio@media@modules@UModSys@@QAE@PAUIModObject@base@4@ABUSParameters@core@4@U?$TFlags4State@USMediaFlagUid@libmedia@UModSys@@I@tl@4@@Z 0040efa3 f    CIL library: CIL module
 0001:0000dfad       __unwindfunclet$??_GRStreamWriter_FILE@stdio@media@modules@UModSys@@UAEPAXI@Z$0 0040efad f    CIL library: CIL module
 0001:0000dfb5       __ehhandler$??_GRStreamWriter_FILE@stdio@media@modules@UModSys@@UAEPAXI@Z 0040efb5 f    CIL library: CIL module
 0001:0000dfbf       __unwindfunclet$??_GRModuleLibrarySO@rsystem@base@UModSys@@UAEPAXI@Z$0 0040efbf f    CIL library: CIL module
 0001:0000dfbf       __unwindfunclet$??_GRModuleLibraryThis@rsystem@base@UModSys@@UAEPAXI@Z$0 0040efbf f    CIL library: CIL module
 0001:0000dfc7       __ehhandler$??_GRModuleLibraryThis@rsystem@base@UModSys@@UAEPAXI@Z 0040efc7 f    CIL library: CIL module
 0001:0000dfc7       __ehhandler$??_GRModuleLibrarySO@rsystem@base@UModSys@@UAEPAXI@Z 0040efc7 f    CIL library: CIL module
 0001:0000dfd1       __unwindfunclet$??0RModule@rsystem@base@UModSys@@QAE@PAUIModuleLibraryUni@123@PAUIModuleReg@23@@Z$0 0040efd1 f    CIL library: CIL module
 0001:0000dfd9       __unwindfunclet$??0RModule@rsystem@base@UModSys@@QAE@PAUIModuleLibraryUni@123@PAUIModuleReg@23@@Z$1 0040efd9 f    CIL library: CIL module
 0001:0000dfe4       __unwindfunclet$??0RModule@rsystem@base@UModSys@@QAE@PAUIModuleLibraryUni@123@PAUIModuleReg@23@@Z$2 0040efe4 f    CIL library: CIL module
 0001:0000dfef       __unwindfunclet$??0RModule@rsystem@base@UModSys@@QAE@PAUIModuleLibraryUni@123@PAUIModuleReg@23@@Z$3 0040efef f    CIL library: CIL module
 0001:0000dffa       __ehhandler$??0RModule@rsystem@base@UModSys@@QAE@PAUIModuleLibraryUni@123@PAUIModuleReg@23@@Z 0040effa f    CIL library: CIL module
 0001:0000e004       __unwindfunclet$?link@IModuleLibraryUni@rsystem@base@UModSys@@QAE_NXZ$0 0040f004 f    CIL library: CIL module
 0001:0000e00f       __ehhandler$?link@IModuleLibraryUni@rsystem@base@UModSys@@QAE_NXZ 0040f00f f    CIL library: CIL module
 0001:0000e019       __unwindfunclet$?exec_test_shells@RSystem@rsystem@base@UModSys@@QAE_NXZ$0 0040f019 f    CIL library: CIL module
 0001:0000e024       __unwindfunclet$?exec_test_shells@RSystem@rsystem@base@UModSys@@QAE_NXZ$1 0040f024 f    CIL library: CIL module
 0001:0000e02f       __ehhandler$?exec_test_shells@RSystem@rsystem@base@UModSys@@QAE_NXZ 0040f02f f    CIL library: CIL module
 0001:0000e039       __unwindfunclet$??0SLayerX@RLibraryLayered@stdlib@media@modules@UModSys@@QAE@ABU012345@@Z$0 0040f039 f    CIL library: CIL module
 0001:0000e039       __unwindfunclet$??_GSLayerX@RLibraryLayered@stdlib@media@modules@UModSys@@QAEPAXI@Z$0 0040f039 f    CIL library: CIL module
 0001:0000e039       __unwindfunclet$??1SMountInfo@RLibraryBinTree@stdlib@media@modules@UModSys@@QAE@XZ$0 0040f039 f    CIL library: CIL module
 0001:0000e041       __ehhandler$??1SMountInfo@RLibraryBinTree@stdlib@media@modules@UModSys@@QAE@XZ 0040f041 f    CIL library: CIL module
 0001:0000e041       __ehhandler$??_GSLayerX@RLibraryLayered@stdlib@media@modules@UModSys@@QAEPAXI@Z 0040f041 f    CIL library: CIL module
 0001:0000e041       __ehhandler$??0SLayerX@RLibraryLayered@stdlib@media@modules@UModSys@@QAE@ABU012345@@Z 0040f041 f    CIL library: CIL module
 0001:0000e04b       __unwindfunclet$?amoveright@?$TTypeConstructor@USLayerX@RLibraryLayered@stdlib@media@modules@UModSys@@@tl@UModSys@@SAXPAUSLayerX@RLibraryLayered@stdlib@media@modules@3@III@Z$0 0040f04b f    CIL library: CIL module
 0001:0000e04b       __unwindfunclet$?amoveleft@?$TTypeConstructor@USLayerX@RLibraryLayered@stdlib@media@modules@UModSys@@@tl@UModSys@@SAXPAUSLayerX@RLibraryLayered@stdlib@media@modules@3@III@Z$0 0040f04b f    CIL library: CIL module
 0001:0000e04b       __unwindfunclet$??$genx_node@UCmp@?$TScatterArray@USMountInfo@RLibraryBinTree@stdlib@media@modules@UModSys@@USId@ILibraryBinTree@libmedia@6@U7896@U?$TNodeDeleter0@U?$TScatterArrayNode@USMountInfo@RLibraryBinTree@stdlib@media@modules@UModSys@@USId@ILibraryBinTree@libmedia@6@@tl@UModSys@@@tl@6@@tl@UModSys@@UGen0@234@@?$TTreeHoldRBD@U?$TScatterArrayNode@USMountInfo@RLibraryBinTree@stdlib@media@modules@UModSys@@USId@ILibraryBinTree@libmedia@6@@tl@UModSys@@U?$TNodeDeleter0@U?$TScatterArrayNode@USMountInfo@RLibraryBinTree@stdlib@media@modules@UModSys@@USId@ILibraryBinTree@libmedia@6@@tl@UModSys@@@23@@tl@UModSys@@QAEPAU?$TScatterArrayNode@USMountInfo@RLibraryBinTree@stdlib@media@modules@UModSys@@USId@ILibraryBinTree@libmedia@6@@12@UCmp@?$TScatterArray@USMountInfo@RLibraryBinTree@stdlib@media@modules@UModSys@@USId@ILibraryBinTree@libmedia@6@U7896@U?$TNodeDeleter0@U?$TScatterArrayNode@USMountInfo@RLibraryBinTree@stdlib@media@modules@UModSys@@USId@ILibraryBinTree@libmedia@6@@tl@UModSys@@@tl@6@@12@ABUGen0@512@PAPAU312@2_N@Z$0 0040f04b f    CIL library: CIL module
 0001:0000e04b       __unwindfunclet$??$genx_node@UCmp@?$TScatterArray@USCacheElem@RLibraryBinCache@stdlib@media@modules@UModSys@@U?$TString@U?$TSCoreConst@D@su@tl@UModSys@@U?$TComparerBinaryHash@D@234@@tl@6@U?$TObjectCompare@U?$TString@U?$TSCoreConst@D@su@tl@UModSys@@U?$TComparerBinaryHash@D@234@@tl@UModSys@@@core@6@U?$TNodeDeleter0@U?$TScatterArrayNode@USCacheElem@RLibraryBinCache@stdlib@media@modules@UModSys@@U?$TString@U?$TSCoreConst@D@su@tl@UModSys@@U?$TComparerBinaryHash@D@234@@tl@6@@tl@UModSys@@@86@@tl@UModSys@@UGen0@234@@?$TTreeHoldRBD@U?$TScatterArrayNode@USCacheElem@RLibraryBinCache@stdlib@media@modules@UModSys@@U?$TString@U?$TSCoreConst@D@su@tl@UModSys@@U?$TComparerBinaryHash@D@234@@tl@6@@tl@UModSys@@U?$TNodeDeleter0@U?$TScatterArrayNode@USCacheElem@RLibraryBinCache@stdlib@media@modules@UModSys@@U?$TString@U?$TSCoreConst@D@su@tl@UModSys@@U?$TComparerBinaryHash@D@234@@tl@6@@tl@UModSys@@@23@@tl@UModSys@@QAEPAU?$TScatterArrayNode@USCacheElem@RLibraryBinCache@stdlib@media@modules@UModSys@@U?$TString@U?$TSCoreConst@D@su@tl@UModSys@@U?$TComparerBinaryHash@D@234@@tl@6@@12@UCmp@?$TScatterArray@USCacheElem@RLibraryBinCache@stdlib@media@modules@UModSys@@U?$TString@U?$TSCoreConst@D@su@tl@UModSys@@U?$TComparerBinaryHash@D@234@@tl@6@U?$TObjectCompare@U?$TString@U?$TSCoreConst@D@su@tl@UModSys@@U?$TComparerBinaryHash@D@234@@tl@UModSys@@@core@6@U?$TNodeDeleter0@U?$TScatterArrayNode@USCacheElem@RLibraryBinCache@stdlib@media@modules@UModSys@@U?$TString@U?$TSCoreConst@D@su@tl@UModSys@@U?$TComparerBinaryHash@D@234@@tl@6@@tl@UModSys@@@86@@12@ABUGen0@512@PAPAU312@2_N@Z$0 0040f04b f    CIL library: CIL module
 0001:0000e04b       __unwindfunclet$??$genx_node@UCmp@?$TScatterArray@USCacheElem@RLibraryObjCache@stdlib@media@modules@UModSys@@U?$TString@U?$TSCoreConst@D@su@tl@UModSys@@U?$TComparerBinaryHash@D@234@@tl@6@U?$TObjectCompare@U?$TString@U?$TSCoreConst@D@su@tl@UModSys@@U?$TComparerBinaryHash@D@234@@tl@UModSys@@@core@6@U?$TNodeDeleter0@U?$TScatterArrayNode@USCacheElem@RLibraryObjCache@stdlib@media@modules@UModSys@@U?$TString@U?$TSCoreConst@D@su@tl@UModSys@@U?$TComparerBinaryHash@D@234@@tl@6@@tl@UModSys@@@86@@tl@UModSys@@UGen0@234@@?$TTreeHoldRBD@U?$TScatterArrayNode@USCacheElem@RLibraryObjCache@stdlib@media@modules@UModSys@@U?$TString@U?$TSCoreConst@D@su@tl@UModSys@@U?$TComparerBinaryHash@D@234@@tl@6@@tl@UModSys@@U?$TNodeDeleter0@U?$TScatterArrayNode@USCacheElem@RLibraryObjCache@stdlib@media@modules@UModSys@@U?$TString@U?$TSCoreConst@D@su@tl@UModSys@@U?$TComparerBinaryHash@D@234@@tl@6@@tl@UModSys@@@23@@tl@UModSys@@QAEPAU?$TScatterArrayNode@USCacheElem@RLibraryObjCache@stdlib@media@modules@UModSys@@U?$TString@U?$TSCoreConst@D@su@tl@UModSys@@U?$TComparerBinaryHash@D@234@@tl@6@@12@UCmp@?$TScatterArray@USCacheElem@RLibraryObjCache@stdlib@media@modules@UModSys@@U?$TString@U?$TSCoreConst@D@su@tl@UModSys@@U?$TComparerBinaryHash@D@234@@tl@6@U?$TObjectCompare@U?$TString@U?$TSCoreConst@D@su@tl@UModSys@@U?$TComparerBinaryHash@D@234@@tl@UModSys@@@core@6@U?$TNodeDeleter0@U?$TScatterArrayNode@USCacheElem@RLibraryObjCache@stdlib@media@modules@UModSys@@U?$TString@U?$TSCoreConst@D@su@tl@UModSys@@U?$TComparerBinaryHash@D@234@@tl@6@@tl@UModSys@@@86@@12@ABUGen0@512@PAPAU312@2_N@Z$0 0040f04b f    CIL library: CIL module
 0001:0000e050       __ehhandler$?amoveleft@?$TTypeConstructor@USLayerX@RLibraryLayered@stdlib@media@modules@UModSys@@@tl@UModSys@@SAXPAUSLayerX@RLibraryLayered@stdlib@media@modules@3@III@Z 0040f050 f    CIL library: CIL module
 0001:0000e050       __ehhandler$??$genx_node@UCmp@?$TScatterArray@USMountInfo@RLibraryBinTree@stdlib@media@modules@UModSys@@USId@ILibraryBinTree@libmedia@6@U7896@U?$TNodeDeleter0@U?$TScatterArrayNode@USMountInfo@RLibraryBinTree@stdlib@media@modules@UModSys@@USId@ILibraryBinTree@libmedia@6@@tl@UModSys@@@tl@6@@tl@UModSys@@UGen0@234@@?$TTreeHoldRBD@U?$TScatterArrayNode@USMountInfo@RLibraryBinTree@stdlib@media@modules@UModSys@@USId@ILibraryBinTree@libmedia@6@@tl@UModSys@@U?$TNodeDeleter0@U?$TScatterArrayNode@USMountInfo@RLibraryBinTree@stdlib@media@modules@UModSys@@USId@ILibraryBinTree@libmedia@6@@tl@UModSys@@@23@@tl@UModSys@@QAEPAU?$TScatterArrayNode@USMountInfo@RLibraryBinTree@stdlib@media@modules@UModSys@@USId@ILibraryBinTree@libmedia@6@@12@UCmp@?$TScatterArray@USMountInfo@RLibraryBinTree@stdlib@media@modules@UModSys@@USId@ILibraryBinTree@libmedia@6@U7896@U?$TNodeDeleter0@U?$TScatterArrayNode@USMountInfo@RLibraryBinTree@stdlib@media@modules@UModSys@@USId@ILibraryBinTree@libmedia@6@@tl@UModSys@@@tl@6@@12@ABUGen0@512@PAPAU312@2_N@Z 0040f050 f    CIL library: CIL module
 0001:0000e050       __ehhandler$??$genx_node@UCmp@?$TScatterArray@USCacheElem@RLibraryObjCache@stdlib@media@modules@UModSys@@U?$TString@U?$TSCoreConst@D@su@tl@UModSys@@U?$TComparerBinaryHash@D@234@@tl@6@U?$TObjectCompare@U?$TString@U?$TSCoreConst@D@su@tl@UModSys@@U?$TComparerBinaryHash@D@234@@tl@UModSys@@@core@6@U?$TNodeDeleter0@U?$TScatterArrayNode@USCacheElem@RLibraryObjCache@stdlib@media@modules@UModSys@@U?$TString@U?$TSCoreConst@D@su@tl@UModSys@@U?$TComparerBinaryHash@D@234@@tl@6@@tl@UModSys@@@86@@tl@UModSys@@UGen0@234@@?$TTreeHoldRBD@U?$TScatterArrayNode@USCacheElem@RLibraryObjCache@stdlib@media@modules@UModSys@@U?$TString@U?$TSCoreConst@D@su@tl@UModSys@@U?$TComparerBinaryHash@D@234@@tl@6@@tl@UModSys@@U?$TNodeDeleter0@U?$TScatterArrayNode@USCacheElem@RLibraryObjCache@stdlib@media@modules@UModSys@@U?$TString@U?$TSCoreConst@D@su@tl@UModSys@@U?$TComparerBinaryHash@D@234@@tl@6@@tl@UModSys@@@23@@tl@UModSys@@QAEPAU?$TScatterArrayNode@USCacheElem@RLibraryObjCache@stdlib@media@modules@UModSys@@U?$TString@U?$TSCoreConst@D@su@tl@UModSys@@U?$TComparerBinaryHash@D@234@@tl@6@@12@UCmp@?$TScatterArray@USCacheElem@RLibraryObjCache@stdlib@media@modules@UModSys@@U?$TString@U?$TSCoreConst@D@su@tl@UModSys@@U?$TComparerBinaryHash@D@234@@tl@6@U?$TObjectCompare@U?$TString@U?$TSCoreConst@D@su@tl@UModSys@@U?$TComparerBinaryHash@D@234@@tl@UModSys@@@core@6@U?$TNodeDeleter0@U?$TScatterArrayNode@USCacheElem@RLibraryObjCache@stdlib@media@modules@UModSys@@U?$TString@U?$TSCoreConst@D@su@tl@UModSys@@U?$TComparerBinaryHash@D@234@@tl@6@@tl@UModSys@@@86@@12@ABUGen0@512@PAPAU312@2_N@Z 0040f050 f    CIL library: CIL module
 0001:0000e050       __ehhandler$?amoveright@?$TTypeConstructor@USLayerX@RLibraryLayered@stdlib@media@modules@UModSys@@@tl@UModSys@@SAXPAUSLayerX@RLibraryLayered@stdlib@media@modules@3@III@Z 0040f050 f    CIL library: CIL module
 0001:0000e050       __ehhandler$??$genx_node@UCmp@?$TScatterArray@USCacheElem@RLibraryBinCache@stdlib@media@modules@UModSys@@U?$TString@U?$TSCoreConst@D@su@tl@UModSys@@U?$TComparerBinaryHash@D@234@@tl@6@U?$TObjectCompare@U?$TString@U?$TSCoreConst@D@su@tl@UModSys@@U?$TComparerBinaryHash@D@234@@tl@UModSys@@@core@6@U?$TNodeDeleter0@U?$TScatterArrayNode@USCacheElem@RLibraryBinCache@stdlib@media@modules@UModSys@@U?$TString@U?$TSCoreConst@D@su@tl@UModSys@@U?$TComparerBinaryHash@D@234@@tl@6@@tl@UModSys@@@86@@tl@UModSys@@UGen0@234@@?$TTreeHoldRBD@U?$TScatterArrayNode@USCacheElem@RLibraryBinCache@stdlib@media@modules@UModSys@@U?$TString@U?$TSCoreConst@D@su@tl@UModSys@@U?$TComparerBinaryHash@D@234@@tl@6@@tl@UModSys@@U?$TNodeDeleter0@U?$TScatterArrayNode@USCacheElem@RLibraryBinCache@stdlib@media@modules@UModSys@@U?$TString@U?$TSCoreConst@D@su@tl@UModSys@@U?$TComparerBinaryHash@D@234@@tl@6@@tl@UModSys@@@23@@tl@UModSys@@QAEPAU?$TScatterArrayNode@USCacheElem@RLibraryBinCache@stdlib@media@modules@UModSys@@U?$TString@U?$TSCoreConst@D@su@tl@UModSys@@U?$TComparerBinaryHash@D@234@@tl@6@@12@UCmp@?$TScatterArray@USCacheElem@RLibraryBinCache@stdlib@media@modules@UModSys@@U?$TString@U?$TSCoreConst@D@su@tl@UModSys@@U?$TComparerBinaryHash@D@234@@tl@6@U?$TObjectCompare@U?$TString@U?$TSCoreConst@D@su@tl@UModSys@@U?$TComparerBinaryHash@D@234@@tl@UModSys@@@core@6@U?$TNodeDeleter0@U?$TScatterArrayNode@USCacheElem@RLibraryBinCache@stdlib@media@modules@UModSys@@U?$TString@U?$TSCoreConst@D@su@tl@UModSys@@U?$TComparerBinaryHash@D@234@@tl@6@@tl@UModSys@@@86@@12@ABUGen0@512@PAPAU312@2_N@Z 0040f050 f    CIL library: CIL module
 0001:0000e05a       __unwindfunclet$??$t_gen_param@URLibraryObjFilter@stdlib@media@modules@UModSys@@URGenerator@2345@@IGenerator@base@UModSys@@IAE_NPAURGenerator@stdlib@media@modules@2@AAU?$TRefObject@UIRefObject@core@UModSys@@U?$TRefObjectFunc@UIRefObject@core@UModSys@@@tl@3@@tl@2@PBUSUniquePointerInfo@core@2@ABUSParameters@core@2@@Z$0 0040f05a f    CIL library: CIL module
 0001:0000e05a       __unwindfunclet$??$t_gen_param@URLibraryObjCache@stdlib@media@modules@UModSys@@URGenerator@2345@@IGenerator@base@UModSys@@IAE_NPAURGenerator@stdlib@media@modules@2@AAU?$TRefObject@UIRefObject@core@UModSys@@U?$TRefObjectFunc@UIRefObject@core@UModSys@@@tl@3@@tl@2@PBUSUniquePointerInfo@core@2@ABUSParameters@core@2@@Z$0 0040f05a f    CIL library: CIL module
 0001:0000e05a       __unwindfunclet$??$t_gen_param@URUtilities@stdlib@media@modules@UModSys@@URGenerator@2345@@IGenerator@base@UModSys@@IAE_NPAURGenerator@stdlib@media@modules@2@AAU?$TRefObject@UIRefObject@core@UModSys@@U?$TRefObjectFunc@UIRefObject@core@UModSys@@@tl@3@@tl@2@PBUSUniquePointerInfo@core@2@ABUSParameters@core@2@@Z$0 0040f05a f    CIL library: CIL module
 0001:0000e05a       __unwindfunclet$??$t_gen_param@URLibraryBinCache@stdlib@media@modules@UModSys@@URGenerator@2345@@IGenerator@base@UModSys@@IAE_NPAURGenerator@stdlib@media@modules@2@AAU?$TRefObject@UIRefObject@core@UModSys@@U?$TRefObjectFunc@UIRefObject@core@UModSys@@@tl@3@@tl@2@PBUSUniquePointerInfo@core@2@ABUSParameters@core@2@@Z$0 0040f05a f    CIL library: CIL module
 0001:0000e05a       __unwindfunclet$??$t_gen_param@URLibraryLayered@stdlib@media@modules@UModSys@@URGenerator@2345@@IGenerator@base@UModSys@@IAE_NPAURGenerator@stdlib@media@modules@2@AAU?$TRefObject@UIRefObject@core@UModSys@@U?$TRefObjectFunc@UIRefObject@core@UModSys@@@tl@3@@tl@2@PBUSUniquePointerInfo@core@2@ABUSParameters@core@2@@Z$0 0040f05a f    CIL library: CIL module
 0001:0000e05a       __unwindfunclet$??$t_gen_param@URLibraryBinTree@stdlib@media@modules@UModSys@@URGenerator@2345@@IGenerator@base@UModSys@@IAE_NPAURGenerator@stdlib@media@modules@2@AAU?$TRefObject@UIRefObject@core@UModSys@@U?$TRefObjectFunc@UIRefObject@core@UModSys@@@tl@3@@tl@2@PBUSUniquePointerInfo@core@2@ABUSParameters@core@2@@Z$0 0040f05a f    CIL library: CIL module
 0001:0000e065       __unwindfunclet$??$t_gen_param@URLibraryBinCache@stdlib@media@modules@UModSys@@URGenerator@2345@@IGenerator@base@UModSys@@IAE_NPAURGenerator@stdlib@media@modules@2@AAU?$TRefObject@UIRefObject@core@UModSys@@U?$TRefObjectFunc@UIRefObject@core@UModSys@@@tl@3@@tl@2@PBUSUniquePointerInfo@core@2@ABUSParameters@core@2@@Z$1 0040f065 f    CIL library: CIL module
 0001:0000e065       __unwindfunclet$??$t_gen_param@URLibraryBinTree@stdlib@media@modules@UModSys@@URGenerator@2345@@IGenerator@base@UModSys@@IAE_NPAURGenerator@stdlib@media@modules@2@AAU?$TRefObject@UIRefObject@core@UModSys@@U?$TRefObjectFunc@UIRefObject@core@UModSys@@@tl@3@@tl@2@PBUSUniquePointerInfo@core@2@ABUSParameters@core@2@@Z$1 0040f065 f    CIL library: CIL module
 0001:0000e065       __unwindfunclet$??$t_gen_param@URLibraryObjFilter@stdlib@media@modules@UModSys@@URGenerator@2345@@IGenerator@base@UModSys@@IAE_NPAURGenerator@stdlib@media@modules@2@AAU?$TRefObject@UIRefObject@core@UModSys@@U?$TRefObjectFunc@UIRefObject@core@UModSys@@@tl@3@@tl@2@PBUSUniquePointerInfo@core@2@ABUSParameters@core@2@@Z$1 0040f065 f    CIL library: CIL module
 0001:0000e065       __unwindfunclet$??$t_gen_param@URUtilities@stdlib@media@modules@UModSys@@URGenerator@2345@@IGenerator@base@UModSys@@IAE_NPAURGenerator@stdlib@media@modules@2@AAU?$TRefObject@UIRefObject@core@UModSys@@U?$TRefObjectFunc@UIRefObject@core@UModSys@@@tl@3@@tl@2@PBUSUniquePointerInfo@core@2@ABUSParameters@core@2@@Z$1 0040f065 f    CIL library: CIL module
 0001:0000e065       __unwindfunclet$??$t_gen_param@URLibraryLayered@stdlib@media@modules@UModSys@@URGenerator@2345@@IGenerator@base@UModSys@@IAE_NPAURGenerator@stdlib@media@modules@2@AAU?$TRefObject@UIRefObject@core@UModSys@@U?$TRefObjectFunc@UIRefObject@core@UModSys@@@tl@3@@tl@2@PBUSUniquePointerInfo@core@2@ABUSParameters@core@2@@Z$1 0040f065 f    CIL library: CIL module
 0001:0000e065       __unwindfunclet$??$t_gen_param@URLibraryObjCache@stdlib@media@modules@UModSys@@URGenerator@2345@@IGenerator@base@UModSys@@IAE_NPAURGenerator@stdlib@media@modules@2@AAU?$TRefObject@UIRefObject@core@UModSys@@U?$TRefObjectFunc@UIRefObject@core@UModSys@@@tl@3@@tl@2@PBUSUniquePointerInfo@core@2@ABUSParameters@core@2@@Z$1 0040f065 f    CIL library: CIL module
 0001:0000e06d       __ehhandler$??$t_gen_param@URLibraryObjCache@stdlib@media@modules@UModSys@@URGenerator@2345@@IGenerator@base@UModSys@@IAE_NPAURGenerator@stdlib@media@modules@2@AAU?$TRefObject@UIRefObject@core@UModSys@@U?$TRefObjectFunc@UIRefObject@core@UModSys@@@tl@3@@tl@2@PBUSUniquePointerInfo@core@2@ABUSParameters@core@2@@Z 0040f06d f    CIL library: CIL module
 0001:0000e06d       __ehhandler$??$t_gen_param@URLibraryBinCache@stdlib@media@modules@UModSys@@URGenerator@2345@@IGenerator@base@UModSys@@IAE_NPAURGenerator@stdlib@media@modules@2@AAU?$TRefObject@UIRefObject@core@UModSys@@U?$TRefObjectFunc@UIRefObject@core@UModSys@@@tl@3@@tl@2@PBUSUniquePointerInfo@core@2@ABUSParameters@core@2@@Z 0040f06d f    CIL library: CIL module
 0001:0000e06d       __ehhandler$??$t_gen_param@URLibraryObjFilter@stdlib@media@modules@UModSys@@URGenerator@2345@@IGenerator@base@UModSys@@IAE_NPAURGenerator@stdlib@media@modules@2@AAU?$TRefObject@UIRefObject@core@UModSys@@U?$TRefObjectFunc@UIRefObject@core@UModSys@@@tl@3@@tl@2@PBUSUniquePointerInfo@core@2@ABUSParameters@core@2@@Z 0040f06d f    CIL library: CIL module
 0001:0000e06d       __ehhandler$??$t_gen_param@URLibraryLayered@stdlib@media@modules@UModSys@@URGenerator@2345@@IGenerator@base@UModSys@@IAE_NPAURGenerator@stdlib@media@modules@2@AAU?$TRefObject@UIRefObject@core@UModSys@@U?$TRefObjectFunc@UIRefObject@core@UModSys@@@tl@3@@tl@2@PBUSUniquePointerInfo@core@2@ABUSParameters@core@2@@Z 0040f06d f    CIL library: CIL module
 0001:0000e06d       __ehhandler$??$t_gen_param@URUtilities@stdlib@media@modules@UModSys@@URGenerator@2345@@IGenerator@base@UModSys@@IAE_NPAURGenerator@stdlib@media@modules@2@AAU?$TRefObject@UIRefObject@core@UModSys@@U?$TRefObjectFunc@UIRefObject@core@UModSys@@@tl@3@@tl@2@PBUSUniquePointerInfo@core@2@ABUSParameters@core@2@@Z 0040f06d f    CIL library: CIL module
 0001:0000e06d       __ehhandler$??$t_gen_param@URLibraryBinTree@stdlib@media@modules@UModSys@@URGenerator@2345@@IGenerator@base@UModSys@@IAE_NPAURGenerator@stdlib@media@modules@2@AAU?$TRefObject@UIRefObject@core@UModSys@@U?$TRefObjectFunc@UIRefObject@core@UModSys@@@tl@3@@tl@2@PBUSUniquePointerInfo@core@2@ABUSParameters@core@2@@Z 0040f06d f    CIL library: CIL module
 0001:0000e077       __unwindfunclet$??_GRLibraryBinTree@stdlib@media@modules@UModSys@@UAEPAXI@Z$0 0040f077 f    CIL library: CIL module
 0001:0000e077       __unwindfunclet$??_GRLibraryObjCache@stdlib@media@modules@UModSys@@UAEPAXI@Z$0 0040f077 f    CIL library: CIL module
 0001:0000e077       __unwindfunclet$??_GRLibraryObjFilter@stdlib@media@modules@UModSys@@UAEPAXI@Z$0 0040f077 f    CIL library: CIL module
 0001:0000e077       __unwindfunclet$??_GRDataArchiver_OsDir@stdio@media@modules@UModSys@@UAEPAXI@Z$0 0040f077 f    CIL library: CIL module
 0001:0000e077       __unwindfunclet$??_GRLibraryBinCache@stdlib@media@modules@UModSys@@UAEPAXI@Z$0 0040f077 f    CIL library: CIL module
 0001:0000e080       __ehhandler$??_GRLibraryObjCache@stdlib@media@modules@UModSys@@UAEPAXI@Z 0040f080 f    CIL library: CIL module
 0001:0000e080       __ehhandler$??_GRDataArchiver_OsDir@stdio@media@modules@UModSys@@UAEPAXI@Z 0040f080 f    CIL library: CIL module
 0001:0000e080       __ehhandler$??_GRLibraryObjFilter@stdlib@media@modules@UModSys@@UAEPAXI@Z 0040f080 f    CIL library: CIL module
 0001:0000e080       __ehhandler$??_GRLibraryBinCache@stdlib@media@modules@UModSys@@UAEPAXI@Z 0040f080 f    CIL library: CIL module
 0001:0000e080       __ehhandler$??_GRLibraryBinTree@stdlib@media@modules@UModSys@@UAEPAXI@Z 0040f080 f    CIL library: CIL module
 0001:0000e08a       __unwindfunclet$?obj_save@RLibraryLayered@stdlib@media@modules@UModSys@@UAE_NABU?$TString@U?$TSCoreConst@D@su@tl@UModSys@@U?$TComparerBinaryHash@D@234@@tl@5@PBUIRefObject@core@5@ABUSObjOptions@ILibrary@libmedia@5@@Z$0 0040f08a f    CIL library: CIL module
 0001:0000e092       __ehhandler$?obj_save@RLibraryLayered@stdlib@media@modules@UModSys@@UAE_NABU?$TString@U?$TSCoreConst@D@su@tl@UModSys@@U?$TComparerBinaryHash@D@234@@tl@5@PBUIRefObject@core@5@ABUSObjOptions@ILibrary@libmedia@5@@Z 0040f092 f    CIL library: CIL module
 0001:0000e09c       __unwindfunclet$?obj_load@RLibraryLayered@stdlib@media@modules@UModSys@@UAE_NABU?$TString@U?$TSCoreConst@D@su@tl@UModSys@@U?$TComparerBinaryHash@D@234@@tl@5@PAUIRefObject@core@5@ABUSObjOptions@ILibrary@libmedia@5@@Z$0 0040f09c f    CIL library: CIL module
 0001:0000e0a4       __ehhandler$?obj_load@RLibraryLayered@stdlib@media@modules@UModSys@@UAE_NABU?$TString@U?$TSCoreConst@D@su@tl@UModSys@@U?$TComparerBinaryHash@D@234@@tl@5@PAUIRefObject@core@5@ABUSObjOptions@ILibrary@libmedia@5@@Z 0040f0a4 f    CIL library: CIL module
 0001:0000e0ae       __unwindfunclet$?data_list@RBinArchiveFrame@stdlib@media@modules@UModSys@@UAE_NABU?$TString@U?$TSCoreConst@D@su@tl@UModSys@@U?$TComparerBinaryHash@D@234@@tl@5@IAAU?$TIStackSocket@USFileInfo@libmedia@UModSys@@@75@ABUSFlags@libmedia@5@@Z$0 0040f0ae f    CIL library: CIL module
 0001:0000e0b8       __ehhandler$?data_list@RBinArchiveFrame@stdlib@media@modules@UModSys@@UAE_NABU?$TString@U?$TSCoreConst@D@su@tl@UModSys@@U?$TComparerBinaryHash@D@234@@tl@5@IAAU?$TIStackSocket@USFileInfo@libmedia@UModSys@@@75@ABUSFlags@libmedia@5@@Z 0040f0b8 f    CIL library: CIL module
 0001:0000e0c2       __unwindfunclet$??$t_gen_param@URDataArchiver_OsDir@stdio@media@modules@UModSys@@URGenerator@2345@@IGenerator@base@UModSys@@IAE_NPAURGenerator@stdio@media@modules@2@AAU?$TRefObject@UIRefObject@core@UModSys@@U?$TRefObjectFunc@UIRefObject@core@UModSys@@@tl@3@@tl@2@PBUSUniquePointerInfo@core@2@ABUSParameters@core@2@@Z$0 0040f0c2 f    CIL library: CIL module
 0001:0000e0c2       __unwindfunclet$??$t_gen_param@URStreamWriter_FILE@stdio@media@modules@UModSys@@URGenerator@2345@@IGenerator@base@UModSys@@IAE_NPAURGenerator@stdio@media@modules@2@AAU?$TRefObject@UIRefObject@core@UModSys@@U?$TRefObjectFunc@UIRefObject@core@UModSys@@@tl@3@@tl@2@PBUSUniquePointerInfo@core@2@ABUSParameters@core@2@@Z$0 0040f0c2 f    CIL library: CIL module
 0001:0000e0c2       __unwindfunclet$??$t_gen_param@URStreamReader_FILE@stdio@media@modules@UModSys@@URGenerator@2345@@IGenerator@base@UModSys@@IAE_NPAURGenerator@stdio@media@modules@2@AAU?$TRefObject@UIRefObject@core@UModSys@@U?$TRefObjectFunc@UIRefObject@core@UModSys@@@tl@3@@tl@2@PBUSUniquePointerInfo@core@2@ABUSParameters@core@2@@Z$0 0040f0c2 f    CIL library: CIL module
 0001:0000e0cd       __unwindfunclet$??$t_gen_param@URStreamWriter_FILE@stdio@media@modules@UModSys@@URGenerator@2345@@IGenerator@base@UModSys@@IAE_NPAURGenerator@stdio@media@modules@2@AAU?$TRefObject@UIRefObject@core@UModSys@@U?$TRefObjectFunc@UIRefObject@core@UModSys@@@tl@3@@tl@2@PBUSUniquePointerInfo@core@2@ABUSParameters@core@2@@Z$1 0040f0cd f    CIL library: CIL module
 0001:0000e0cd       __unwindfunclet$??$t_gen_param@URStreamReader_FILE@stdio@media@modules@UModSys@@URGenerator@2345@@IGenerator@base@UModSys@@IAE_NPAURGenerator@stdio@media@modules@2@AAU?$TRefObject@UIRefObject@core@UModSys@@U?$TRefObjectFunc@UIRefObject@core@UModSys@@@tl@3@@tl@2@PBUSUniquePointerInfo@core@2@ABUSParameters@core@2@@Z$1 0040f0cd f    CIL library: CIL module
 0001:0000e0cd       __unwindfunclet$??$t_gen_param@URDataArchiver_OsDir@stdio@media@modules@UModSys@@URGenerator@2345@@IGenerator@base@UModSys@@IAE_NPAURGenerator@stdio@media@modules@2@AAU?$TRefObject@UIRefObject@core@UModSys@@U?$TRefObjectFunc@UIRefObject@core@UModSys@@@tl@3@@tl@2@PBUSUniquePointerInfo@core@2@ABUSParameters@core@2@@Z$1 0040f0cd f    CIL library: CIL module
 0001:0000e0d5       __ehhandler$??$t_gen_param@URDataArchiver_OsDir@stdio@media@modules@UModSys@@URGenerator@2345@@IGenerator@base@UModSys@@IAE_NPAURGenerator@stdio@media@modules@2@AAU?$TRefObject@UIRefObject@core@UModSys@@U?$TRefObjectFunc@UIRefObject@core@UModSys@@@tl@3@@tl@2@PBUSUniquePointerInfo@core@2@ABUSParameters@core@2@@Z 0040f0d5 f    CIL library: CIL module
 0001:0000e0d5       __ehhandler$??$t_gen_param@URStreamWriter_FILE@stdio@media@modules@UModSys@@URGenerator@2345@@IGenerator@base@UModSys@@IAE_NPAURGenerator@stdio@media@modules@2@AAU?$TRefObject@UIRefObject@core@UModSys@@U?$TRefObjectFunc@UIRefObject@core@UModSys@@@tl@3@@tl@2@PBUSUniquePointerInfo@core@2@ABUSParameters@core@2@@Z 0040f0d5 f    CIL library: CIL module
 0001:0000e0d5       __ehhandler$??$t_gen_param@URStreamReader_FILE@stdio@media@modules@UModSys@@URGenerator@2345@@IGenerator@base@UModSys@@IAE_NPAURGenerator@stdio@media@modules@2@AAU?$TRefObject@UIRefObject@core@UModSys@@U?$TRefObjectFunc@UIRefObject@core@UModSys@@@tl@3@@tl@2@PBUSUniquePointerInfo@core@2@ABUSParameters@core@2@@Z 0040f0d5 f    CIL library: CIL module
 0001:0000e0df       __unwindfunclet$?mem_free@?$TRMemAlloc_CC@U?$TMemAllocHeader@USMagic@mem_headers@rsystem@base@UModSys@@U?$TPool@X@2345@USDebug@2345@UVoid@core@5@U895@@rsystem@base@UModSys@@USMemAlloc_Malloc@core@4@@rsystem@base@UModSys@@UAEXPAXPBUSSourceContext@core@4@@Z$0 0040f0df f    CIL library: CIL module
 0001:0000e0e7       __ehhandler$?mem_free@?$TRMemAlloc_CC@U?$TMemAllocHeader@USMagic@mem_headers@rsystem@base@UModSys@@U?$TPool@X@2345@USDebug@2345@UVoid@core@5@U895@@rsystem@base@UModSys@@USMemAlloc_Malloc@core@4@@rsystem@base@UModSys@@UAEXPAXPBUSSourceContext@core@4@@Z 0040f0e7 f    CIL library: CIL module
 0001:0000e0f1       __unwindfunclet$?mem_realloc@?$TRMemAlloc_CC@U?$TMemAllocHeader@USMagic@mem_headers@rsystem@base@UModSys@@U?$TPool@X@2345@USDebug@2345@UVoid@core@5@U895@@rsystem@base@UModSys@@USMemAlloc_Malloc@core@4@@rsystem@base@UModSys@@UAEPAXPAXIPBUSSourceContext@core@4@@Z$0 0040f0f1 f    CIL library: CIL module
 0001:0000e0f9       __unwindfunclet$?mem_realloc@?$TRMemAlloc_CC@U?$TMemAllocHeader@USMagic@mem_headers@rsystem@base@UModSys@@U?$TPool@X@2345@USDebug@2345@UVoid@core@5@U895@@rsystem@base@UModSys@@USMemAlloc_Malloc@core@4@@rsystem@base@UModSys@@UAEPAXPAXIPBUSSourceContext@core@4@@Z$1 0040f0f9 f    CIL library: CIL module
 0001:0000e101       __ehhandler$?mem_realloc@?$TRMemAlloc_CC@U?$TMemAllocHeader@USMagic@mem_headers@rsystem@base@UModSys@@U?$TPool@X@2345@USDebug@2345@UVoid@core@5@U895@@rsystem@base@UModSys@@USMemAlloc_Malloc@core@4@@rsystem@base@UModSys@@UAEPAXPAXIPBUSSourceContext@core@4@@Z 0040f101 f    CIL library: CIL module
 0001:0000e10b       __unwindfunclet$??0?$TScatterArrayNode@USCacheElem@RLibraryObjCache@stdlib@media@modules@UModSys@@U?$TString@U?$TSCoreConst@D@su@tl@UModSys@@U?$TComparerBinaryHash@D@234@@tl@6@@tl@UModSys@@QAE@ABU?$TString@U?$TSCoreConst@D@su@tl@UModSys@@U?$TComparerBinaryHash@D@234@@12@@Z$0 0040f10b f    CIL library: CIL module
 0001:0000e115       __unwindfunclet$??0?$TScatterArrayNode@USCacheElem@RLibraryObjCache@stdlib@media@modules@UModSys@@U?$TString@U?$TSCoreConst@D@su@tl@UModSys@@U?$TComparerBinaryHash@D@234@@tl@6@@tl@UModSys@@QAE@ABU?$TString@U?$TSCoreConst@D@su@tl@UModSys@@U?$TComparerBinaryHash@D@234@@12@@Z$3 0040f115 f    CIL library: CIL module
 0001:0000e11d       __unwindfunclet$??0?$TScatterArrayNode@USCacheElem@RLibraryObjCache@stdlib@media@modules@UModSys@@U?$TString@U?$TSCoreConst@D@su@tl@UModSys@@U?$TComparerBinaryHash@D@234@@tl@6@@tl@UModSys@@QAE@ABU?$TString@U?$TSCoreConst@D@su@tl@UModSys@@U?$TComparerBinaryHash@D@234@@12@@Z$1 0040f11d f    CIL library: CIL module
 0001:0000e128       __ehhandler$??0?$TScatterArrayNode@USCacheElem@RLibraryObjCache@stdlib@media@modules@UModSys@@U?$TString@U?$TSCoreConst@D@su@tl@UModSys@@U?$TComparerBinaryHash@D@234@@tl@6@@tl@UModSys@@QAE@ABU?$TString@U?$TSCoreConst@D@su@tl@UModSys@@U?$TComparerBinaryHash@D@234@@12@@Z 0040f128 f    CIL library: CIL module
 0001:0000e132       __unwindfunclet$??0?$TScatterArrayNode@USCacheElem@RLibraryBinCache@stdlib@media@modules@UModSys@@U?$TString@U?$TSCoreConst@D@su@tl@UModSys@@U?$TComparerBinaryHash@D@234@@tl@6@@tl@UModSys@@QAE@ABU?$TString@U?$TSCoreConst@D@su@tl@UModSys@@U?$TComparerBinaryHash@D@234@@12@@Z$0 0040f132 f    CIL library: CIL module
 0001:0000e13c       __unwindfunclet$??0?$TScatterArrayNode@USCacheElem@RLibraryBinCache@stdlib@media@modules@UModSys@@U?$TString@U?$TSCoreConst@D@su@tl@UModSys@@U?$TComparerBinaryHash@D@234@@tl@6@@tl@UModSys@@QAE@ABU?$TString@U?$TSCoreConst@D@su@tl@UModSys@@U?$TComparerBinaryHash@D@234@@12@@Z$3 0040f13c f    CIL library: CIL module
 0001:0000e144       __unwindfunclet$??0?$TScatterArrayNode@USCacheElem@RLibraryBinCache@stdlib@media@modules@UModSys@@U?$TString@U?$TSCoreConst@D@su@tl@UModSys@@U?$TComparerBinaryHash@D@234@@tl@6@@tl@UModSys@@QAE@ABU?$TString@U?$TSCoreConst@D@su@tl@UModSys@@U?$TComparerBinaryHash@D@234@@12@@Z$1 0040f144 f    CIL library: CIL module
 0001:0000e14f       __ehhandler$??0?$TScatterArrayNode@USCacheElem@RLibraryBinCache@stdlib@media@modules@UModSys@@U?$TString@U?$TSCoreConst@D@su@tl@UModSys@@U?$TComparerBinaryHash@D@234@@tl@6@@tl@UModSys@@QAE@ABU?$TString@U?$TSCoreConst@D@su@tl@UModSys@@U?$TComparerBinaryHash@D@234@@12@@Z 0040f14f f    CIL library: CIL module
 0001:0000e159       __unwindfunclet$??0?$TScatterArrayNode@USMountInfo@RLibraryBinTree@stdlib@media@modules@UModSys@@USId@ILibraryBinTree@libmedia@6@@tl@UModSys@@QAE@ABUSId@ILibraryBinTree@libmedia@2@@Z$0 0040f159 f    CIL library: CIL module
 0001:0000e163       __unwindfunclet$??0?$TScatterArrayNode@USMountInfo@RLibraryBinTree@stdlib@media@modules@UModSys@@USId@ILibraryBinTree@libmedia@6@@tl@UModSys@@QAE@ABUSId@ILibraryBinTree@libmedia@2@@Z$6 0040f163 f    CIL library: CIL module
 0001:0000e16b       __unwindfunclet$??0?$TScatterArrayNode@USMountInfo@RLibraryBinTree@stdlib@media@modules@UModSys@@USId@ILibraryBinTree@libmedia@6@@tl@UModSys@@QAE@ABUSId@ILibraryBinTree@libmedia@2@@Z$1 0040f16b f    CIL library: CIL module
 0001:0000e176       __ehhandler$??0?$TScatterArrayNode@USMountInfo@RLibraryBinTree@stdlib@media@modules@UModSys@@USId@ILibraryBinTree@libmedia@6@@tl@UModSys@@QAE@ABUSId@ILibraryBinTree@libmedia@2@@Z 0040f176 f    CIL library: CIL module
 0001:0000e180       __unwindfunclet$?objcache_add@RLibraryObjCache@stdlib@media@modules@UModSys@@UAE_NABU?$TString@U?$TSCoreConst@D@su@tl@UModSys@@U?$TComparerBinaryHash@D@234@@tl@5@PAUIRefObject@core@5@@Z$0 0040f180 f    CIL library: CIL module
 0001:0000e180       __unwindfunclet$?fill_info@RBinArchiveFrame@stdlib@media@modules@UModSys@@QAE_NAAUSFileInfo@libmedia@5@PAUNameNode@IBinArchiveFrame@75@ABU?$TString@U?$TSCoreConst@D@su@tl@UModSys@@U?$TComparerBinaryHash@D@234@@tl@5@I@Z$0 0040f180 f    CIL library: CIL module
 0001:0000e180       __unwindfunclet$?bincache_add@RLibraryBinCache@stdlib@media@modules@UModSys@@QAE_NABU?$TString@U?$TSCoreConst@D@su@tl@UModSys@@U?$TComparerBinaryHash@D@234@@tl@5@ABUSCMemShared@core@5@_N@Z$0 0040f180 f    CIL library: CIL module
 0001:0000e188       __ehhandler$?bincache_add@RLibraryBinCache@stdlib@media@modules@UModSys@@QAE_NABU?$TString@U?$TSCoreConst@D@su@tl@UModSys@@U?$TComparerBinaryHash@D@234@@tl@5@ABUSCMemShared@core@5@_N@Z 0040f188 f    CIL library: CIL module
 0001:0000e188       __ehhandler$?objcache_add@RLibraryObjCache@stdlib@media@modules@UModSys@@UAE_NABU?$TString@U?$TSCoreConst@D@su@tl@UModSys@@U?$TComparerBinaryHash@D@234@@tl@5@PAUIRefObject@core@5@@Z 0040f188 f    CIL library: CIL module
 0001:0000e188       __ehhandler$?fill_info@RBinArchiveFrame@stdlib@media@modules@UModSys@@QAE_NAAUSFileInfo@libmedia@5@PAUNameNode@IBinArchiveFrame@75@ABU?$TString@U?$TSCoreConst@D@su@tl@UModSys@@U?$TComparerBinaryHash@D@234@@tl@5@I@Z 0040f188 f    CIL library: CIL module
 0001:0000e192       __unwindfunclet$?bincache_add@RLibraryBinCache@stdlib@media@modules@UModSys@@UAE_NABU?$TString@U?$TSCoreConst@D@su@tl@UModSys@@U?$TComparerBinaryHash@D@234@@tl@5@@Z$0 0040f192 f    CIL library: CIL module
 0001:0000e19a       __ehhandler$?bincache_add@RLibraryBinCache@stdlib@media@modules@UModSys@@UAE_NABU?$TString@U?$TSCoreConst@D@su@tl@UModSys@@U?$TComparerBinaryHash@D@234@@tl@5@@Z 0040f19a f    CIL library: CIL module
 0001:0000e1a4       __unwindfunclet$?mount_add@RLibraryBinTree@stdlib@media@modules@UModSys@@UAE_NABUSId@ILibraryBinTree@libmedia@5@ABUSPoint@785@@Z$0 0040f1a4 f    CIL library: CIL module
 0001:0000e1ac       __ehhandler$?mount_add@RLibraryBinTree@stdlib@media@modules@UModSys@@UAE_NABUSId@ILibraryBinTree@libmedia@5@ABUSPoint@785@@Z 0040f1ac f    CIL library: CIL module
 0001:0000e1b6       __unwindfunclet$?openr@RBinArchiveFrame@stdlib@media@modules@UModSys@@QAE_NPAUILibrary@libmedia@5@ABU?$TString@U?$TSCoreConst@D@su@tl@UModSys@@U?$TComparerBinaryHash@D@234@@tl@5@PBUSParameters@core@5@@Z$0 0040f1b6 f    CIL library: CIL module
 0001:0000e1b6       __unwindfunclet$?bin_writer@RLibraryBinTree@stdlib@media@modules@UModSys@@UAE?AU?$TRefObject@UIStreamWriter@libmedia@UModSys@@U?$TRefObjectFunc@UIStreamWriter@libmedia@UModSys@@@tl@3@@tl@5@ABU?$TString@U?$TSCoreConst@D@su@tl@UModSys@@U?$TComparerBinaryHash@D@234@@75@ABUSFlags@libmedia@5@@Z$0 0040f1b6 f    CIL library: CIL module
 0001:0000e1b6       __unwindfunclet$?s_add@RModuleLibrarySO@rsystem@base@UModSys@@SA_NPAUISystem@34@AAU?$TDynarrayDynamic@U?$TRefObject@URModuleLibrarySO@rsystem@base@UModSys@@U?$TRefObjectFunc@URModuleLibrarySO@rsystem@base@UModSys@@@tl@4@@tl@UModSys@@U?$TAllocator@USMemAlloc_Malloc@core@UModSys@@USCountCalcPower2@23@@23@@tl@4@PBD@Z$1 0040f1b6 f    CIL library: CIL module
 0001:0000e1b6       __unwindfunclet$?bin_reader@RLibraryBinTree@stdlib@media@modules@UModSys@@UAE?AU?$TRefObject@UIStreamReader@libmedia@UModSys@@U?$TRefObjectFunc@UIStreamReader@libmedia@UModSys@@@tl@3@@tl@5@ABU?$TString@U?$TSCoreConst@D@su@tl@UModSys@@U?$TComparerBinaryHash@D@234@@75@ABUSFlags@libmedia@5@@Z$0 0040f1b6 f    CIL library: CIL module
 0001:0000e1be       __ehhandler$?s_add@RModuleLibrarySO@rsystem@base@UModSys@@SA_NPAUISystem@34@AAU?$TDynarrayDynamic@U?$TRefObject@URModuleLibrarySO@rsystem@base@UModSys@@U?$TRefObjectFunc@URModuleLibrarySO@rsystem@base@UModSys@@@tl@4@@tl@UModSys@@U?$TAllocator@USMemAlloc_Malloc@core@UModSys@@USCountCalcPower2@23@@23@@tl@4@PBD@Z 0040f1be f    CIL library: CIL module
 0001:0000e1be       __ehhandler$?openr@RBinArchiveFrame@stdlib@media@modules@UModSys@@QAE_NPAUILibrary@libmedia@5@ABU?$TString@U?$TSCoreConst@D@su@tl@UModSys@@U?$TComparerBinaryHash@D@234@@tl@5@PBUSParameters@core@5@@Z 0040f1be f    CIL library: CIL module
 0001:0000e1be       __ehhandler$?bin_reader@RLibraryBinTree@stdlib@media@modules@UModSys@@UAE?AU?$TRefObject@UIStreamReader@libmedia@UModSys@@U?$TRefObjectFunc@UIStreamReader@libmedia@UModSys@@@tl@3@@tl@5@ABU?$TString@U?$TSCoreConst@D@su@tl@UModSys@@U?$TComparerBinaryHash@D@234@@75@ABUSFlags@libmedia@5@@Z 0040f1be f    CIL library: CIL module
 0001:0000e1be       __ehhandler$?bin_writer@RLibraryBinTree@stdlib@media@modules@UModSys@@UAE?AU?$TRefObject@UIStreamWriter@libmedia@UModSys@@U?$TRefObjectFunc@UIStreamWriter@libmedia@UModSys@@@tl@3@@tl@5@ABU?$TString@U?$TSCoreConst@D@su@tl@UModSys@@U?$TComparerBinaryHash@D@234@@75@ABUSFlags@libmedia@5@@Z 0040f1be f    CIL library: CIL module
 0001:0000e1c8       ??__E?s_id@?$TObjectUniqueID@UIRoot@core@UModSys@@@tl@UModSys@@2USUniquePointer@core@3@A@@YAXXZ 0040f1c8 f    CIL library: CIL module
 0001:0000e1ea       ??__E?s_id@?$TObjectUniqueID@UIRefObject@core@UModSys@@@tl@UModSys@@2USUniquePointer@core@3@A@@YAXXZ 0040f1ea f    CIL library: CIL module
 0001:0000e20c       ??__E?s_id@?$TObjectUniqueID@UIParameters@core@UModSys@@@tl@UModSys@@2USUniquePointer@core@3@A@@YAXXZ 0040f20c f    CIL library: CIL module
 0001:0000e22e       ??__E?s_id@?$TObjectUniqueID@UIConsole@base@UModSys@@@tl@UModSys@@2USUniquePointer@core@3@A@@YAXXZ 0040f22e f    CIL library: CIL module
 0001:0000e250       ??__E?s_id@?$TObjectUniqueID@UIModule@base@UModSys@@@tl@UModSys@@2USUniquePointer@core@3@A@@YAXXZ 0040f250 f    CIL library: CIL module
 0001:0000e272       ??__E?s_id@?$TObjectUniqueID@UIModuleLibrary@base@UModSys@@@tl@UModSys@@2USUniquePointer@core@3@A@@YAXXZ 0040f272 f    CIL library: CIL module
 0001:0000e294       ??__E?s_id@?$TObjectUniqueID@UIModObject@base@UModSys@@@tl@UModSys@@2USUniquePointer@core@3@A@@YAXXZ 0040f294 f    CIL library: CIL module
 0001:0000e2b6       ??__E?s_id@?$TObjectUniqueID@UIGenerator@base@UModSys@@@tl@UModSys@@2USUniquePointer@core@3@A@@YAXXZ 0040f2b6 f    CIL library: CIL module
 0001:0000e2d8       ??__E?s_id@?$TObjectUniqueID@UIShell@base@UModSys@@@tl@UModSys@@2USUniquePointer@core@3@A@@YAXXZ 0040f2d8 f    CIL library: CIL module
 0001:0000e2fa       ??__E?s_id@?$TObjectUniqueID@UISystem@base@UModSys@@@tl@UModSys@@2USUniquePointer@core@3@A@@YAXXZ 0040f2fa f    CIL library: CIL module
 0001:0000e31c       ??__E?s_id@?$TObjectUniqueID@URModule@rsystem@base@UModSys@@@tl@UModSys@@2USUniquePointer@core@3@A@@YAXXZ 0040f31c f    CIL library: CIL module
 0001:0000e33e       ??__E?s_id@?$TObjectUniqueID@UIModuleLibraryUni@rsystem@base@UModSys@@@tl@UModSys@@2USUniquePointer@core@3@A@@YAXXZ 0040f33e f    CIL library: CIL module
 0001:0000e360       ??__E?s_id@?$TObjectUniqueID@URModuleLibrarySO@rsystem@base@UModSys@@@tl@UModSys@@2USUniquePointer@core@3@A@@YAXXZ 0040f360 f    CIL library: CIL module
 0001:0000e382       ??__E?s_id@?$TObjectUniqueID@URModuleLibraryThis@rsystem@base@UModSys@@@tl@UModSys@@2USUniquePointer@core@3@A@@YAXXZ 0040f382 f    CIL library: CIL module
 0001:0000e3a4       ??__E?s_id@?$TObjectUniqueID@URParameters@rsystem@base@UModSys@@@tl@UModSys@@2USUniquePointer@core@3@A@@YAXXZ 0040f3a4 f    CIL library: CIL module
 0001:0000e3c6       ??__E?s_id@?$TObjectUniqueID@URSystem@rsystem@base@UModSys@@@tl@UModSys@@2USUniquePointer@core@3@A@@YAXXZ 0040f3c6 f    CIL library: CIL module
 0001:0000e3e8       ??__E?s_id@?$TObjectUniqueID@URConsole_std@rsystem@base@UModSys@@@tl@UModSys@@2USUniquePointer@core@3@A@@YAXXZ 0040f3e8 f    CIL library: CIL module
 0001:0000e40a       ??__Es_dbg@stdio@media@modules@UModSys@@YAXXZ 0040f40a f    CIL library: CIL module
 0001:0000e416       ??__E?s_modreg@RModuleReg@stdio@media@modules@UModSys@@2U12345@A@@YAXXZ 0040f416 f    CIL library: CIL module
 0001:0000e44b       ??__E?s_modreg_chain@RModuleReg@stdio@media@modules@UModSys@@2USModuleRegChain@base@5@A@@YAXXZ 0040f44b f    CIL library: CIL module
 0001:0000e466       ??__E?s_uid@RGenerator@stdio@media@modules@UModSys@@2USUniquePointer@core@5@A@@YAXXZ 0040f466 f    CIL library: CIL module
 0001:0000e488       ??__E?s_id@?$TObjectUniqueID@UIStreamReader@libmedia@UModSys@@@tl@UModSys@@2USUniquePointer@core@3@A@@YAXXZ 0040f488 f    CIL library: CIL module
 0001:0000e4aa       ??__E?s_id@?$TObjectUniqueID@UIStreamWriter@libmedia@UModSys@@@tl@UModSys@@2USUniquePointer@core@3@A@@YAXXZ 0040f4aa f    CIL library: CIL module
 0001:0000e4cc       ??__E?s_id@?$TObjectUniqueID@UIUtilities@libmedia@UModSys@@@tl@UModSys@@2USUniquePointer@core@3@A@@YAXXZ 0040f4cc f    CIL library: CIL module
 0001:0000e4ee       ??__E?s_id@?$TObjectUniqueID@UILibObject@libmedia@UModSys@@@tl@UModSys@@2USUniquePointer@core@3@A@@YAXXZ 0040f4ee f    CIL library: CIL module
 0001:0000e510       ??__E?s_id@?$TObjectUniqueID@UIBinArchive@libmedia@UModSys@@@tl@UModSys@@2USUniquePointer@core@3@A@@YAXXZ 0040f510 f    CIL library: CIL module
 0001:0000e532       ??__E?s_id@?$TObjectUniqueID@UIBinObjFilter@libmedia@UModSys@@@tl@UModSys@@2USUniquePointer@core@3@A@@YAXXZ 0040f532 f    CIL library: CIL module
 0001:0000e554       ??__E?s_id@?$TObjectUniqueID@UILibrary@libmedia@UModSys@@@tl@UModSys@@2USUniquePointer@core@3@A@@YAXXZ 0040f554 f    CIL library: CIL module
 0001:0000e576       ??__E?s_id@?$TObjectUniqueID@URStreamReader_FILE@stdio@media@modules@UModSys@@@tl@UModSys@@2USUniquePointer@core@3@A@@YAXXZ 0040f576 f    CIL library: CIL module
 0001:0000e598       ??__E?s_id@?$TObjectUniqueID@URStreamWriter_FILE@stdio@media@modules@UModSys@@@tl@UModSys@@2USUniquePointer@core@3@A@@YAXXZ 0040f598 f    CIL library: CIL module
 0001:0000e5ba       ??__E?s_id@?$TObjectUniqueID@URDataArchiver_OsDir@stdio@media@modules@UModSys@@@tl@UModSys@@2USUniquePointer@core@3@A@@YAXXZ 0040f5ba f    CIL library: CIL module
 0001:0000e5dc       ??__E?s_id@?$TObjectUniqueID@URGenerator@stdio@media@modules@UModSys@@@tl@UModSys@@2USUniquePointer@core@3@A@@YAXXZ 0040f5dc f    CIL library: CIL module
 0001:0000e5fe       ??__Es_dbg@stdlib@media@modules@UModSys@@YAXXZ 0040f5fe f    CIL library: CIL module
 0001:0000e60a       ??__E?s_modreg@RModuleReg@stdlib@media@modules@UModSys@@2U12345@A@@YAXXZ 0040f60a f    CIL library: CIL module
 0001:0000e642       ??__E?s_modreg_chain@RModuleReg@stdlib@media@modules@UModSys@@2USModuleRegChain@base@5@A@@YAXXZ 0040f642 f    CIL library: CIL module
 0001:0000e65d       ??__E?s_uid@RGenerator@stdlib@media@modules@UModSys@@2USUniquePointer@core@5@A@@YAXXZ 0040f65d f    CIL library: CIL module
 0001:0000e67f       ??__E?s_id@?$TObjectUniqueID@UILibraryBinTree@libmedia@UModSys@@@tl@UModSys@@2USUniquePointer@core@3@A@@YAXXZ 0040f67f f    CIL library: CIL module
 0001:0000e6a1       ??__E?s_id@?$TObjectUniqueID@UILibraryBinCache@libmedia@UModSys@@@tl@UModSys@@2USUniquePointer@core@3@A@@YAXXZ 0040f6a1 f    CIL library: CIL module
 0001:0000e6c3       ??__E?s_id@?$TObjectUniqueID@UILibraryObjFilter@libmedia@UModSys@@@tl@UModSys@@2USUniquePointer@core@3@A@@YAXXZ 0040f6c3 f    CIL library: CIL module
 0001:0000e6e5       ??__E?s_id@?$TObjectUniqueID@UILibraryObjCache@libmedia@UModSys@@@tl@UModSys@@2USUniquePointer@core@3@A@@YAXXZ 0040f6e5 f    CIL library: CIL module
 0001:0000e707       ??__E?s_id@?$TObjectUniqueID@UILibraryLayered@libmedia@UModSys@@@tl@UModSys@@2USUniquePointer@core@3@A@@YAXXZ 0040f707 f    CIL library: CIL module
 0001:0000e729       ??__E?s_id@?$TObjectUniqueID@UIBinArchiveFrame@libmedia@UModSys@@@tl@UModSys@@2USUniquePointer@core@3@A@@YAXXZ 0040f729 f    CIL library: CIL module
 0001:0000e74b       ??__E?s_id@?$TObjectUniqueID@UIClient@IBinArchiveFrame@libmedia@UModSys@@@tl@UModSys@@2USUniquePointer@core@3@A@@YAXXZ 0040f74b f    CIL library: CIL module
 0001:0000e76d       ??__E?s_id@?$TObjectUniqueID@URUtilities@stdlib@media@modules@UModSys@@@tl@UModSys@@2USUniquePointer@core@3@A@@YAXXZ 0040f76d f    CIL library: CIL module
 0001:0000e78f       ??__E?s_id@?$TObjectUniqueID@URBinArchiveFrame@stdlib@media@modules@UModSys@@@tl@UModSys@@2USUniquePointer@core@3@A@@YAXXZ 0040f78f f    CIL library: CIL module
 0001:0000e7b1       ??__E?s_id@?$TObjectUniqueID@URLibraryBinTree@stdlib@media@modules@UModSys@@@tl@UModSys@@2USUniquePointer@core@3@A@@YAXXZ 0040f7b1 f    CIL library: CIL module
 0001:0000e7d3       ??__E?s_id@?$TObjectUniqueID@URLibraryBinCache@stdlib@media@modules@UModSys@@@tl@UModSys@@2USUniquePointer@core@3@A@@YAXXZ 0040f7d3 f    CIL library: CIL module
 0001:0000e7f5       ??__E?s_id@?$TObjectUniqueID@URLibraryLayered@stdlib@media@modules@UModSys@@@tl@UModSys@@2USUniquePointer@core@3@A@@YAXXZ 0040f7f5 f    CIL library: CIL module
 0001:0000e817       ??__E?s_id@?$TObjectUniqueID@URLibraryObjCache@stdlib@media@modules@UModSys@@@tl@UModSys@@2USUniquePointer@core@3@A@@YAXXZ 0040f817 f    CIL library: CIL module
 0001:0000e839       ??__E?s_id@?$TObjectUniqueID@URLibraryObjFilter@stdlib@media@modules@UModSys@@@tl@UModSys@@2USUniquePointer@core@3@A@@YAXXZ 0040f839 f    CIL library: CIL module
 0001:0000e85b       ??__E?s_id@?$TObjectUniqueID@URGenerator@stdlib@media@modules@UModSys@@@tl@UModSys@@2USUniquePointer@core@3@A@@YAXXZ 0040f85b f    CIL library: CIL module
 0001:0000e87d       ??__E?s_console@RConsole_std@rsystem@base@UModSys@@2U1234@A@@YAXXZ 0040f87d f    CIL library: CIL module
 0001:0000e889       ??__E?s_sys@RSystem@rsystem@base@UModSys@@2U1234@A@@YAXXZ 0040f889 f    CIL library: CIL module
 0001:0000e89a       ??__Ersys_dbg@rsystem@base@UModSys@@YAXXZ 0040f89a f    CIL library: CIL module
 0001:0000e8a6       ??__EM@UModSys@@YAXXZ      0040f8a6 f    CIL library: CIL module
 0001:0000e8b2       ??__E?root@SModuleRegChain@base@UModSys@@2U123@A@@YAXXZ 0040f8b2 f    CIL library: CIL module
 0001:0000e8be       ??__E?s_library@RModuleLibraryReg_Chain@base@UModSys@@2U123@A@@YAXXZ 0040f8be f    CIL library: CIL module
 0001:0000e8ca       ??__E?root@SUniquePointer@core@UModSys@@2U123@A@@YAXXZ 0040f8ca f    CIL library: CIL module
 0001:0000e8d6       ??__F?s_id@?$TObjectUniqueID@URConsole_std@rsystem@base@UModSys@@@tl@UModSys@@2USUniquePointer@core@3@A@@YAXXZ 0040f8d6 f    CIL library: CIL module
 0001:0000e8e0       ??__F?s_id@?$TObjectUniqueID@URSystem@rsystem@base@UModSys@@@tl@UModSys@@2USUniquePointer@core@3@A@@YAXXZ 0040f8e0 f    CIL library: CIL module
 0001:0000e8ea       ??__F?s_id@?$TObjectUniqueID@URParameters@rsystem@base@UModSys@@@tl@UModSys@@2USUniquePointer@core@3@A@@YAXXZ 0040f8ea f    CIL library: CIL module
 0001:0000e8f4       ??__F?s_id@?$TObjectUniqueID@URModuleLibraryThis@rsystem@base@UModSys@@@tl@UModSys@@2USUniquePointer@core@3@A@@YAXXZ 0040f8f4 f    CIL library: CIL module
 0001:0000e8fe       ??__F?s_id@?$TObjectUniqueID@URModuleLibrarySO@rsystem@base@UModSys@@@tl@UModSys@@2USUniquePointer@core@3@A@@YAXXZ 0040f8fe f    CIL library: CIL module
 0001:0000e908       ??__F?s_id@?$TObjectUniqueID@UIModuleLibraryUni@rsystem@base@UModSys@@@tl@UModSys@@2USUniquePointer@core@3@A@@YAXXZ 0040f908 f    CIL library: CIL module
 0001:0000e912       ??__F?s_id@?$TObjectUniqueID@URModule@rsystem@base@UModSys@@@tl@UModSys@@2USUniquePointer@core@3@A@@YAXXZ 0040f912 f    CIL library: CIL module
 0001:0000e91c       ??__F?s_id@?$TObjectUniqueID@UISystem@base@UModSys@@@tl@UModSys@@2USUniquePointer@core@3@A@@YAXXZ 0040f91c f    CIL library: CIL module
 0001:0000e926       ??__F?s_id@?$TObjectUniqueID@UIShell@base@UModSys@@@tl@UModSys@@2USUniquePointer@core@3@A@@YAXXZ 0040f926 f    CIL library: CIL module
 0001:0000e930       ??__F?s_id@?$TObjectUniqueID@UIGenerator@base@UModSys@@@tl@UModSys@@2USUniquePointer@core@3@A@@YAXXZ 0040f930 f    CIL library: CIL module
 0001:0000e93a       ??__F?s_id@?$TObjectUniqueID@UIModObject@base@UModSys@@@tl@UModSys@@2USUniquePointer@core@3@A@@YAXXZ 0040f93a f    CIL library: CIL module
 0001:0000e944       ??__F?s_id@?$TObjectUniqueID@UIModuleLibrary@base@UModSys@@@tl@UModSys@@2USUniquePointer@core@3@A@@YAXXZ 0040f944 f    CIL library: CIL module
 0001:0000e94e       ??__F?s_id@?$TObjectUniqueID@UIModule@base@UModSys@@@tl@UModSys@@2USUniquePointer@core@3@A@@YAXXZ 0040f94e f    CIL library: CIL module
 0001:0000e958       ??__F?s_id@?$TObjectUniqueID@UIConsole@base@UModSys@@@tl@UModSys@@2USUniquePointer@core@3@A@@YAXXZ 0040f958 f    CIL library: CIL module
 0001:0000e962       ??__F?s_id@?$TObjectUniqueID@UIParameters@core@UModSys@@@tl@UModSys@@2USUniquePointer@core@3@A@@YAXXZ 0040f962 f    CIL library: CIL module
 0001:0000e96c       ??__F?s_id@?$TObjectUniqueID@UIRefObject@core@UModSys@@@tl@UModSys@@2USUniquePointer@core@3@A@@YAXXZ 0040f96c f    CIL library: CIL module
 0001:0000e976       ??__F?s_id@?$TObjectUniqueID@UIRoot@core@UModSys@@@tl@UModSys@@2USUniquePointer@core@3@A@@YAXXZ 0040f976 f    CIL library: CIL module
 0001:0000e980       ??__Fs_dbg@stdio@media@modules@UModSys@@YAXXZ 0040f980 f    CIL library: CIL module
 0001:0000e997       ??__F?s_modreg@RModuleReg@stdio@media@modules@UModSys@@2U12345@A@@YAXXZ 0040f997 f    CIL library: CIL module
 0001:0000e9a2       ??__F?s_modreg_chain@RModuleReg@stdio@media@modules@UModSys@@2USModuleRegChain@base@5@A@@YAXXZ 0040f9a2 f    CIL library: CIL module
 0001:0000e9ac       ??__F?s_uid@RGenerator@stdio@media@modules@UModSys@@2USUniquePointer@core@5@A@@YAXXZ 0040f9ac f    CIL library: CIL module
 0001:0000e9b6       ??__Fh@?1??s_holder@RGenerator@stdio@media@modules@UModSys@@SAAAU?$TTypeStaticHolder@URGenerator@stdio@media@modules@UModSys@@@tl@5@XZ@YAXXZ 0040f9b6 f    CIL library: CIL module
 0001:0000e9d3       ??__F?s_id@?$TObjectUniqueID@URGenerator@stdio@media@modules@UModSys@@@tl@UModSys@@2USUniquePointer@core@3@A@@YAXXZ 0040f9d3 f    CIL library: CIL module
 0001:0000e9dd       ??__F?s_id@?$TObjectUniqueID@URDataArchiver_OsDir@stdio@media@modules@UModSys@@@tl@UModSys@@2USUniquePointer@core@3@A@@YAXXZ 0040f9dd f    CIL library: CIL module
 0001:0000e9e7       ??__F?s_id@?$TObjectUniqueID@URStreamWriter_FILE@stdio@media@modules@UModSys@@@tl@UModSys@@2USUniquePointer@core@3@A@@YAXXZ 0040f9e7 f    CIL library: CIL module
 0001:0000e9f1       ??__F?s_id@?$TObjectUniqueID@URStreamReader_FILE@stdio@media@modules@UModSys@@@tl@UModSys@@2USUniquePointer@core@3@A@@YAXXZ 0040f9f1 f    CIL library: CIL module
 0001:0000e9fb       ??__F?s_id@?$TObjectUniqueID@UILibrary@libmedia@UModSys@@@tl@UModSys@@2USUniquePointer@core@3@A@@YAXXZ 0040f9fb f    CIL library: CIL module
 0001:0000ea05       ??__F?s_id@?$TObjectUniqueID@UIBinObjFilter@libmedia@UModSys@@@tl@UModSys@@2USUniquePointer@core@3@A@@YAXXZ 0040fa05 f    CIL library: CIL module
 0001:0000ea0f       ??__F?s_id@?$TObjectUniqueID@UIBinArchive@libmedia@UModSys@@@tl@UModSys@@2USUniquePointer@core@3@A@@YAXXZ 0040fa0f f    CIL library: CIL module
 0001:0000ea19       ??__F?s_id@?$TObjectUniqueID@UILibObject@libmedia@UModSys@@@tl@UModSys@@2USUniquePointer@core@3@A@@YAXXZ 0040fa19 f    CIL library: CIL module
 0001:0000ea23       ??__F?s_id@?$TObjectUniqueID@UIUtilities@libmedia@UModSys@@@tl@UModSys@@2USUniquePointer@core@3@A@@YAXXZ 0040fa23 f    CIL library: CIL module
 0001:0000ea2d       ??__F?s_id@?$TObjectUniqueID@UIStreamWriter@libmedia@UModSys@@@tl@UModSys@@2USUniquePointer@core@3@A@@YAXXZ 0040fa2d f    CIL library: CIL module
 0001:0000ea37       ??__F?s_id@?$TObjectUniqueID@UIStreamReader@libmedia@UModSys@@@tl@UModSys@@2USUniquePointer@core@3@A@@YAXXZ 0040fa37 f    CIL library: CIL module
 0001:0000ea41       ??__Fs_dbg@stdlib@media@modules@UModSys@@YAXXZ 0040fa41 f    CIL library: CIL module
 0001:0000ea58       ??__F?s_modreg@RModuleReg@stdlib@media@modules@UModSys@@2U12345@A@@YAXXZ 0040fa58 f    CIL library: CIL module
 0001:0000ea63       ??__F?s_modreg_chain@RModuleReg@stdlib@media@modules@UModSys@@2USModuleRegChain@base@5@A@@YAXXZ 0040fa63 f    CIL library: CIL module
 0001:0000ea6d       ??__F?s_uid@RGenerator@stdlib@media@modules@UModSys@@2USUniquePointer@core@5@A@@YAXXZ 0040fa6d f    CIL library: CIL module
 0001:0000ea77       ??__Fh@?1??s_holder@RGenerator@stdlib@media@modules@UModSys@@SAAAU?$TTypeStaticHolder@URGenerator@stdlib@media@modules@UModSys@@@tl@5@XZ@YAXXZ 0040fa77 f    CIL library: CIL module
 0001:0000ea94       ??__F?s_id@?$TObjectUniqueID@URGenerator@stdlib@media@modules@UModSys@@@tl@UModSys@@2USUniquePointer@core@3@A@@YAXXZ 0040fa94 f    CIL library: CIL module
 0001:0000ea9e       ??__F?s_id@?$TObjectUniqueID@URLibraryObjFilter@stdlib@media@modules@UModSys@@@tl@UModSys@@2USUniquePointer@core@3@A@@YAXXZ 0040fa9e f    CIL library: CIL module
 0001:0000eaa8       ??__F?s_id@?$TObjectUniqueID@URLibraryObjCache@stdlib@media@modules@UModSys@@@tl@UModSys@@2USUniquePointer@core@3@A@@YAXXZ 0040faa8 f    CIL library: CIL module
 0001:0000eab2       ??__F?s_id@?$TObjectUniqueID@URLibraryLayered@stdlib@media@modules@UModSys@@@tl@UModSys@@2USUniquePointer@core@3@A@@YAXXZ 0040fab2 f    CIL library: CIL module
 0001:0000eabc       ??__F?s_id@?$TObjectUniqueID@URLibraryBinCache@stdlib@media@modules@UModSys@@@tl@UModSys@@2USUniquePointer@core@3@A@@YAXXZ 0040fabc f    CIL library: CIL module
 0001:0000eac6       ??__F?s_id@?$TObjectUniqueID@URLibraryBinTree@stdlib@media@modules@UModSys@@@tl@UModSys@@2USUniquePointer@core@3@A@@YAXXZ 0040fac6 f    CIL library: CIL module
 0001:0000ead0       ??__F?s_id@?$TObjectUniqueID@URBinArchiveFrame@stdlib@media@modules@UModSys@@@tl@UModSys@@2USUniquePointer@core@3@A@@YAXXZ 0040fad0 f    CIL library: CIL module
 0001:0000eada       ??__F?s_id@?$TObjectUniqueID@URUtilities@stdlib@media@modules@UModSys@@@tl@UModSys@@2USUniquePointer@core@3@A@@YAXXZ 0040fada f    CIL library: CIL module
 0001:0000eae4       ??__F?s_id@?$TObjectUniqueID@UIClient@IBinArchiveFrame@libmedia@UModSys@@@tl@UModSys@@2USUniquePointer@core@3@A@@YAXXZ 0040fae4 f    CIL library: CIL module
 0001:0000eaee       ??__F?s_id@?$TObjectUniqueID@UIBinArchiveFrame@libmedia@UModSys@@@tl@UModSys@@2USUniquePointer@core@3@A@@YAXXZ 0040faee f    CIL library: CIL module
 0001:0000eaf8       ??__F?s_id@?$TObjectUniqueID@UILibraryLayered@libmedia@UModSys@@@tl@UModSys@@2USUniquePointer@core@3@A@@YAXXZ 0040faf8 f    CIL library: CIL module
 0001:0000eb02       ??__F?s_id@?$TObjectUniqueID@UILibraryObjCache@libmedia@UModSys@@@tl@UModSys@@2USUniquePointer@core@3@A@@YAXXZ 0040fb02 f    CIL library: CIL module
 0001:0000eb0c       ??__F?s_id@?$TObjectUniqueID@UILibraryObjFilter@libmedia@UModSys@@@tl@UModSys@@2USUniquePointer@core@3@A@@YAXXZ 0040fb0c f    CIL library: CIL module
 0001:0000eb16       ??__F?s_id@?$TObjectUniqueID@UILibraryBinCache@libmedia@UModSys@@@tl@UModSys@@2USUniquePointer@core@3@A@@YAXXZ 0040fb16 f    CIL library: CIL module
 0001:0000eb20       ??__F?s_id@?$TObjectUniqueID@UILibraryBinTree@libmedia@UModSys@@@tl@UModSys@@2USUniquePointer@core@3@A@@YAXXZ 0040fb20 f    CIL library: CIL module
 0001:0000eb2a       ??__F?s_console@RConsole_std@rsystem@base@UModSys@@2U1234@A@@YAXXZ 0040fb2a f    CIL library: CIL module
 0001:0000eb57       ??__F?s_sys@RSystem@rsystem@base@UModSys@@2U1234@A@@YAXXZ 0040fb57 f    CIL library: CIL module
 0001:0000eb62       ??__Frsys_dbg@rsystem@base@UModSys@@YAXXZ 0040fb62 f    CIL library: CIL module
 0001:0000eb79       ??__FM@UModSys@@YAXXZ      0040fb79 f    CIL library: CIL module
 0001:0000eb7a       ??__F?root@SModuleRegChain@base@UModSys@@2U123@A@@YAXXZ 0040fb7a f    CIL library: CIL module
 0001:0000eb84       ??__F?s_library@RModuleLibraryReg_Chain@base@UModSys@@2U123@A@@YAXXZ 0040fb84 f    CIL library: CIL module
 0001:0000eb8f       ??__F?root@SUniquePointer@core@UModSys@@2U123@A@@YAXXZ 0040fb8f f    CIL library: CIL module

 Exports

  ordinal    name

        1    _UModSys_Plugin_Entry2@0
