 umodsysc

 Timestamp is 53327dc7 (Wed Mar 26 10:12:07 2014)

 Preferred load address is 00400000

 Start         Length     Name                   Class
 0001:00000000 0000dc40H .text                   CODE
 0001:0000dc40 00000508H .text$x                 CODE
 0001:0000e148 0000070eH .text$yc                CODE
 0001:0000e856 000002c3H .text$yd                CODE
 0002:00000000 0000015cH .idata$5                DATA
 0002:0000015c 00000004H .CRT$XCA                DATA
 0002:00000160 00000004H .CRT$XCAA               DATA
 0002:00000164 00000378H .CRT$XCU                DATA
 0002:000004dc 00000004H .CRT$XCZ                DATA
 0002:000004e0 00000004H .CRT$XIA                DATA
 0002:000004e4 00000004H .CRT$XIAA               DATA
 0002:000004e8 00000004H .CRT$XIY                DATA
 0002:000004ec 00000004H .CRT$XIZ                DATA
 0002:000004f0 00001a68H .rdata                  DATA
 0002:00001f58 00001324H .rdata$r                DATA
 0002:00003280 000000b8H .rdata$sxdata           DATA
 0002:00003338 00000004H .rtc$IAA                DATA
 0002:0000333c 00000004H .rtc$IZZ                DATA
 0002:00003340 00000004H .rtc$TAA                DATA
 0002:00003344 00000004H .rtc$TZZ                DATA
 0002:00003348 00000a44H .xdata$x                DATA
 0002:00003d8c 00000028H .idata$2                DATA
 0002:00003db4 00000014H .idata$3                DATA
 0002:00003dc8 0000015cH .idata$4                DATA
 0002:00003f24 00000580H .idata$6                DATA
 0002:000044b0 00000058H .edata                  DATA
 0003:00000000 00000d60H .data                   DATA
 0003:00000d60 00002a00H .bss                    DATA

  Address         Publics by Value              Rva+Base       Lib:Object

 0000:00000000       __except_list              00000000     <absolute>
 0000:0000002e       ___safe_se_handler_count   0000002e     <absolute>
 0000:00009876       __ldused                   00009876     <absolute>
 0000:00009876       __fltused                  00009876     <absolute>
 0000:00000000       ___ImageBase               00400000     <linker-defined>
 0001:00000000       ??$slen@D@su@tl@UModSys@@YAIPBD@Z 00401000 f i umodsys.c_main.obj
 0001:00000019       _main                      00401019 f   umodsys.c_main.obj
 0001:000001c7       ??0?$TString@U?$TSCoreConst@D@su@tl@UModSys@@U?$TComparerBinaryHash@D@234@@tl@UModSys@@QAE@PBD@Z 004011c7 f i umodsys.c_main.obj
 0001:000001ec       ?update@?$TComparerBinaryHash@D@su@tl@UModSys@@QAEXPBDI@Z 004011ec f i umodsys.c_main.obj
 0001:00000223       ??1SInfo@IBinObjFilter@libmedia@UModSys@@QAE@XZ 00401223 f i umodsys_lib_libmedia:umodsys.mod.media.stdlib.obj
 0001:00000223       ??1SCMemShared@core@UModSys@@QAE@XZ 00401223 f i umodsys_lib_libmedia:umodsys.mod.media.stdlib.obj
 0001:00000223       ??1SMemShared@core@UModSys@@QAE@XZ 00401223 f i umodsys_lib_libmedia:umodsys.mod.media.stdio.obj
 0001:0000022d       ?link@SMemShared@core@UModSys@@QAE_NPAUSMemorySharedData@23@PAUSSourceContext@23@@Z 0040122d f i umodsys_lib_libmedia:umodsys.mod.media.stdio.obj
 0001:0000022d       ?link@SCMemShared@core@UModSys@@QAE_NPAUSMemorySharedData@23@PAUSSourceContext@23@@Z 0040122d f i umodsys_lib_libmedia:umodsys.mod.media.stdio.obj
 0001:00000252       ??6SUniquePtrList@core@UModSys@@QAEAAU012@PBUSUniquePointerInfo@12@@Z 00401252 f i umodsys_lib_libmedia:umodsys.mod.media.stdio.obj
 0001:0000026e       ??2IRoot@core@UModSys@@SAPAXIABUSIMemAlloc@12@@Z 0040126e f i umodsys_lib_libmedia:umodsys.mod.media.stdio.obj
 0001:00000290       ??3IRoot@core@UModSys@@SAXPAXABUSIMemAlloc@12@@Z 00401290 f i umodsys_lib_libmedia:umodsys.mod.media.stdio.obj
 0001:000002a9       ?_root_get_other_interface@IRefObject@core@UModSys@@IBEPBUIRoot@23@PBUSUniquePointerInfo@23@@Z 004012a9 f i umodsys_lib_libmedia:umodsys.mod.media.stdio.obj
 0001:000002a9       ?_root_get_other_interface@IRefObject@core@UModSys@@IAEPAUIRoot@23@PBUSUniquePointerInfo@23@@Z 004012a9 f i umodsys_lib_libmedia:umodsys.mod.media.stdio.obj
 0001:000002ca       ?_root_get_interface_types@IRefObject@core@UModSys@@SAIAAUSUniquePtrList@23@@Z 004012ca f i umodsys_lib_libmedia:umodsys.mod.media.stdio.obj
 0001:000002ea       ?_root_is_interface_supported@IRefObject@core@UModSys@@SA_NPBUSUniquePointerInfo@23@@Z 004012ea f i umodsys_lib_libmedia:umodsys.mod.media.stdio.obj
 0001:00000301       ?get@SParameters@core@UModSys@@QBE_NPBDAA_N@Z 00401301 f i umodsys_lib_libmedia:umodsys.mod.media.stdio.obj
 0001:00000333       ?_root_is_interface_supported@IGenerator@base@UModSys@@SA_NPBUSUniquePointerInfo@core@3@@Z 00401333 f i umodsys_lib_libmedia:umodsys.mod.media.stdio.obj
 0001:00000353       ?_root_get_interface_types@IBinArchive@libmedia@UModSys@@SAIAAUSUniquePtrList@core@3@@Z 00401353 f i umodsys_lib_libmedia:umodsys.mod.media.stdio.obj
 0001:00000375       ?_root_is_interface_supported@IBinArchive@libmedia@UModSys@@SA_NPBUSUniquePointerInfo@core@3@@Z 00401375 f i umodsys_lib_libmedia:umodsys.mod.media.stdio.obj
 0001:00000395       ?archive_load_data@libmedia@UModSys@@YA_NAAUIBinArchive@12@ABU?$TString@U?$TSCoreConst@D@su@tl@UModSys@@U?$TComparerBinaryHash@D@234@@tl@2@AAUSCMemShared@core@2@ABUSFlags@12@@Z 00401395 f i umodsys_lib_libmedia:umodsys.mod.media.stdio.obj
 0001:000004c0       ?file_get_size@stdio@media@modules@UModSys@@YA_JPAU_iobuf@@@Z 004014c0 f i umodsys_lib_libmedia:umodsys.mod.media.stdio.obj
 0001:0000050b       ?root_get_interface_info@RStreamReader_FILE@stdio@media@modules@UModSys@@UBEABUSUniquePointerInfo@core@5@XZ 0040150b f i umodsys_lib_libmedia:umodsys.mod.media.stdio.obj
 0001:00000511       ?root_get_interface_type@RStreamReader_FILE@stdio@media@modules@UModSys@@UBEPBUSUniquePointerInfo@core@5@XZ 00401511 f i umodsys_lib_libmedia:umodsys.mod.media.stdio.obj
 0001:00000517       ?root_get_other_interface@RStreamReader_FILE@stdio@media@modules@UModSys@@UBEPBUIRoot@core@5@PBUSUniquePointerInfo@75@@Z 00401517 f i umodsys_lib_libmedia:umodsys.mod.media.stdio.obj
 0001:00000517       ?root_get_other_interface@RStreamReader_FILE@stdio@media@modules@UModSys@@UAEPAUIRoot@core@5@PBUSUniquePointerInfo@75@@Z 00401517 f i umodsys_lib_libmedia:umodsys.mod.media.stdio.obj
 0001:00000538       ?root_is_interface_supported@RStreamReader_FILE@stdio@media@modules@UModSys@@UBE_NPBUSUniquePointerInfo@core@5@@Z 00401538 f i umodsys_lib_libmedia:umodsys.mod.media.stdio.obj
 0001:0000055f       ?ref_weak@RGenerator@stdio@media@modules@UModSys@@UBE_NAAUWeakPointer@IRefObject@core@5@@Z 0040155f f i umodsys_lib_libmedia:umodsys.mod.media.stdio.obj
 0001:0000055f       ?ref_weak@RStreamReader_FILE@stdio@media@modules@UModSys@@UBE_NAAUWeakPointer@IRefObject@core@5@@Z 0040155f f i umodsys_lib_libmedia:umodsys.mod.media.stdio.obj
 0001:0000055f       ?ref_weak@RGenerator@stdlib@media@modules@UModSys@@UBE_NAAUWeakPointer@IRefObject@core@5@@Z 0040155f f i umodsys_lib_libmedia:umodsys.mod.media.stdlib.obj
 0001:0000055f       ?ref_weak@RUtilities@stdlib@media@modules@UModSys@@UBE_NAAUWeakPointer@IRefObject@core@5@@Z 0040155f f i umodsys_lib_libmedia:umodsys.mod.media.stdlib.obj
 0001:0000055f       ?ref_weak@RStreamWriter_FILE@stdio@media@modules@UModSys@@UBE_NAAUWeakPointer@IRefObject@core@5@@Z 0040155f f i umodsys_lib_libmedia:umodsys.mod.media.stdio.obj
 0001:0000057e       ??0RStreamReader_FILE@stdio@media@modules@UModSys@@QAE@PAUIModObject@base@4@ABUSParameters@core@4@@Z 0040157e f i umodsys_lib_libmedia:umodsys.mod.media.stdio.obj
 0001:000005f9       ??0RStreamReader_FILE@stdio@media@modules@UModSys@@QAE@PAUIModObject@base@4@PBD@Z 004015f9 f i umodsys_lib_libmedia:umodsys.mod.media.stdio.obj
 0001:00000650       ?open@RStreamReader_FILE@stdio@media@modules@UModSys@@QAEXPBD@Z 00401650 f i umodsys_lib_libmedia:umodsys.mod.media.stdio.obj
 0001:00000674       ?reader_seek@RStreamReader_FILE@stdio@media@modules@UModSys@@UAE_N_J@Z 00401674 f i umodsys_lib_libmedia:umodsys.mod.media.stdio.obj
 0001:00000697       ?reader_seekend@RStreamReader_FILE@stdio@media@modules@UModSys@@UAE_N_J@Z 00401697 f i umodsys_lib_libmedia:umodsys.mod.media.stdio.obj
 0001:000006bd       ?reader_seekdelta@RStreamReader_FILE@stdio@media@modules@UModSys@@UAE_N_J@Z 004016bd f i umodsys_lib_libmedia:umodsys.mod.media.stdio.obj
 0001:000006e0       ?reader_pos@RStreamReader_FILE@stdio@media@modules@UModSys@@UAE_JXZ 004016e0 f i umodsys_lib_libmedia:umodsys.mod.media.stdio.obj
 0001:000006f5       ?reader_size@RStreamReader_FILE@stdio@media@modules@UModSys@@UAE_JXZ 004016f5 f i umodsys_lib_libmedia:umodsys.mod.media.stdio.obj
 0001:000006fc       ?reader_read@RStreamReader_FILE@stdio@media@modules@UModSys@@UAE_NPAXI@Z 004016fc f i umodsys_lib_libmedia:umodsys.mod.media.stdio.obj
 0001:00000759       ?reader_close@RStreamReader_FILE@stdio@media@modules@UModSys@@UAEXXZ 00401759 f i umodsys_lib_libmedia:umodsys.mod.media.stdio.obj
 0001:00000771       ??_ERStreamReader_FILE@stdio@media@modules@UModSys@@UAEPAXI@Z 00401771 f i  CIL library: CIL module
 0001:00000771       ??_GRStreamReader_FILE@stdio@media@modules@UModSys@@UAEPAXI@Z 00401771 f i umodsys_lib_libmedia:umodsys.mod.media.stdio.obj
 0001:00000799       ?root_get_interface_info@RStreamWriter_FILE@stdio@media@modules@UModSys@@UBEABUSUniquePointerInfo@core@5@XZ 00401799 f i umodsys_lib_libmedia:umodsys.mod.media.stdio.obj
 0001:0000079f       ?root_get_interface_type@RStreamWriter_FILE@stdio@media@modules@UModSys@@UBEPBUSUniquePointerInfo@core@5@XZ 0040179f f i umodsys_lib_libmedia:umodsys.mod.media.stdio.obj
 0001:000007a5       ?root_get_other_interface@RStreamWriter_FILE@stdio@media@modules@UModSys@@UAEPAUIRoot@core@5@PBUSUniquePointerInfo@75@@Z 004017a5 f i umodsys_lib_libmedia:umodsys.mod.media.stdio.obj
 0001:000007a5       ?root_get_other_interface@RStreamWriter_FILE@stdio@media@modules@UModSys@@UBEPBUIRoot@core@5@PBUSUniquePointerInfo@75@@Z 004017a5 f i umodsys_lib_libmedia:umodsys.mod.media.stdio.obj
 0001:000007c6       ?root_is_interface_supported@RStreamWriter_FILE@stdio@media@modules@UModSys@@UBE_NPBUSUniquePointerInfo@core@5@@Z 004017c6 f i umodsys_lib_libmedia:umodsys.mod.media.stdio.obj
 0001:000007ed       ?ref_add@RStreamReader_FILE@stdio@media@modules@UModSys@@UBEXXZ 004017ed f i umodsys_lib_libmedia:umodsys.mod.media.stdio.obj
 0001:000007ed       ?ref_add@RStreamWriter_FILE@stdio@media@modules@UModSys@@UBEXXZ 004017ed f i umodsys_lib_libmedia:umodsys.mod.media.stdio.obj
 0001:000007ed       ?ref_add@RGenerator@stdio@media@modules@UModSys@@UBEXXZ 004017ed f i umodsys_lib_libmedia:umodsys.mod.media.stdio.obj
 0001:000007ed       ?ref_add@RGenerator@stdlib@media@modules@UModSys@@UBEXXZ 004017ed f i umodsys_lib_libmedia:umodsys.mod.media.stdlib.obj
 0001:000007ed       ?ref_add@RUtilities@stdlib@media@modules@UModSys@@UBEXXZ 004017ed f i umodsys_lib_libmedia:umodsys.mod.media.stdlib.obj
 0001:000007f1       ?ref_remove@RStreamReader_FILE@stdio@media@modules@UModSys@@UBEXXZ 004017f1 f i umodsys_lib_libmedia:umodsys.mod.media.stdio.obj
 0001:000007f1       ?ref_remove@RGenerator@stdlib@media@modules@UModSys@@UBEXXZ 004017f1 f i umodsys_lib_libmedia:umodsys.mod.media.stdlib.obj
 0001:000007f1       ?ref_remove@RGenerator@stdio@media@modules@UModSys@@UBEXXZ 004017f1 f i umodsys_lib_libmedia:umodsys.mod.media.stdio.obj
 0001:000007f1       ?ref_remove@RStreamWriter_FILE@stdio@media@modules@UModSys@@UBEXXZ 004017f1 f i umodsys_lib_libmedia:umodsys.mod.media.stdio.obj
 0001:000007f1       ?ref_remove@RUtilities@stdlib@media@modules@UModSys@@UBEXXZ 004017f1 f i umodsys_lib_libmedia:umodsys.mod.media.stdlib.obj
 0001:000007fc       ?get_system@IModuleLibraryUni@rsystem@base@UModSys@@UBEPAUISystem@34@XZ 004017fc f i umodsys_lib_basesys:umodsys.basesys.rmodulelib.obj
 0001:000007fc       ?ref_links@RStreamWriter_FILE@stdio@media@modules@UModSys@@UBEHXZ 004017fc f i umodsys_lib_libmedia:umodsys.mod.media.stdio.obj
 0001:000007fc       ?ref_links@RGenerator@stdio@media@modules@UModSys@@UBEHXZ 004017fc f i umodsys_lib_libmedia:umodsys.mod.media.stdio.obj
 0001:000007fc       ?ref_links@RUtilities@stdlib@media@modules@UModSys@@UBEHXZ 004017fc f i umodsys_lib_libmedia:umodsys.mod.media.stdlib.obj
 0001:000007fc       ?ref_links@RStreamReader_FILE@stdio@media@modules@UModSys@@UBEHXZ 004017fc f i umodsys_lib_libmedia:umodsys.mod.media.stdio.obj
 0001:000007fc       ?ref_links@RGenerator@stdlib@media@modules@UModSys@@UBEHXZ 004017fc f i umodsys_lib_libmedia:umodsys.mod.media.stdlib.obj
 0001:00000800       ?suicide@RStreamReader_FILE@stdio@media@modules@UModSys@@UAEXXZ 00401800 f i umodsys_lib_libmedia:umodsys.mod.media.stdio.obj
 0001:00000800       ?suicide@RUtilities@stdlib@media@modules@UModSys@@UAEXXZ 00401800 f i umodsys_lib_libmedia:umodsys.mod.media.stdlib.obj
 0001:00000800       ?suicide@RStreamWriter_FILE@stdio@media@modules@UModSys@@UAEXXZ 00401800 f i umodsys_lib_libmedia:umodsys.mod.media.stdio.obj
 0001:0000083d       ??0RStreamWriter_FILE@stdio@media@modules@UModSys@@QAE@PAUIModObject@base@4@ABUSParameters@core@4@@Z 0040183d f i umodsys_lib_libmedia:umodsys.mod.media.stdio.obj
 0001:000008d6       ??0RStreamWriter_FILE@stdio@media@modules@UModSys@@QAE@PAUIModObject@base@4@PBD_N@Z 004018d6 f i umodsys_lib_libmedia:umodsys.mod.media.stdio.obj
 0001:00000937       ?open@RStreamWriter_FILE@stdio@media@modules@UModSys@@QAEXPBD_N@Z 00401937 f i umodsys_lib_libmedia:umodsys.mod.media.stdio.obj
 0001:0000097d       ?writer_seek@RStreamWriter_FILE@stdio@media@modules@UModSys@@UAE_N_J@Z 0040197d f i umodsys_lib_libmedia:umodsys.mod.media.stdio.obj
 0001:000009a0       ?writer_seekend@RStreamWriter_FILE@stdio@media@modules@UModSys@@UAE_N_J@Z 004019a0 f i umodsys_lib_libmedia:umodsys.mod.media.stdio.obj
 0001:000009c6       ?writer_seekdelta@RStreamWriter_FILE@stdio@media@modules@UModSys@@UAE_N_J@Z 004019c6 f i umodsys_lib_libmedia:umodsys.mod.media.stdio.obj
 0001:000009e9       ?writer_setsize@RStreamWriter_FILE@stdio@media@modules@UModSys@@UAE_N_J@Z 004019e9 f i umodsys_lib_libmedia:umodsys.mod.media.stdio.obj
 0001:00000a31       ?writer_pos@RStreamWriter_FILE@stdio@media@modules@UModSys@@UAE_JXZ 00401a31 f i umodsys_lib_libmedia:umodsys.mod.media.stdio.obj
 0001:00000a46       ?writer_size@RStreamWriter_FILE@stdio@media@modules@UModSys@@UAE_JXZ 00401a46 f i umodsys_lib_libmedia:umodsys.mod.media.stdio.obj
 0001:00000a6b       ?writer_write@RStreamWriter_FILE@stdio@media@modules@UModSys@@UAE_NPBXI@Z 00401a6b f i umodsys_lib_libmedia:umodsys.mod.media.stdio.obj
 0001:00000ac8       ?writer_copy@RStreamWriter_FILE@stdio@media@modules@UModSys@@UAE_NPAUIStreamReader@libmedia@5@_J@Z 00401ac8 f i umodsys_lib_libmedia:umodsys.mod.media.stdio.obj
 0001:00000b4c       ?writer_copy@RStreamWriter_FILE@stdio@media@modules@UModSys@@UAE_NPAUIStreamReader@libmedia@5@_J1@Z 00401b4c f i umodsys_lib_libmedia:umodsys.mod.media.stdio.obj
 0001:00000b83       ?writer_close@RStreamWriter_FILE@stdio@media@modules@UModSys@@UAEXXZ 00401b83 f i umodsys_lib_libmedia:umodsys.mod.media.stdio.obj
 0001:00000bb0       ?writer_abort@RStreamWriter_FILE@stdio@media@modules@UModSys@@UAEXXZ 00401bb0 f i umodsys_lib_libmedia:umodsys.mod.media.stdio.obj
 0001:00000bdd       ??_GRStreamWriter_FILE@stdio@media@modules@UModSys@@UAEPAXI@Z 00401bdd f i umodsys_lib_libmedia:umodsys.mod.media.stdio.obj
 0001:00000bdd       ??_ERStreamWriter_FILE@stdio@media@modules@UModSys@@UAEPAXI@Z 00401bdd f i  CIL library: CIL module
 0001:00000c21       ??1IRefObject@core@UModSys@@UAE@XZ 00401c21 f i umodsys_lib_core:umodsys.core.objects.obj
 0001:00000c21       ??1ISystem@base@UModSys@@UAE@XZ 00401c21 f i umodsys_lib_base:umodsys.base.system.obj
 0001:00000c21       ??1IUtilities@libmedia@UModSys@@UAE@XZ 00401c21 f i umodsys_lib_libmedia:umodsys.mod.media.stdlib.obj
 0001:00000c21       ??1IModule@base@UModSys@@UAE@XZ 00401c21 f i umodsys_lib_base:umodsys.base.module.obj
 0001:00000c21       ??1IStreamWriter@libmedia@UModSys@@UAE@XZ 00401c21 f i umodsys_lib_libmedia:umodsys.mod.media.stdio.obj
 0001:00000c21       ??1IStreamReader@libmedia@UModSys@@UAE@XZ 00401c21 f i umodsys_lib_libmedia:umodsys.mod.media.stdio.obj
 0001:00000c28       ?root_get_interface_info@RDataArchiver_OsDir@stdio@media@modules@UModSys@@UBEABUSUniquePointerInfo@core@5@XZ 00401c28 f i umodsys_lib_libmedia:umodsys.mod.media.stdio.obj
 0001:00000c2e       ?root_get_interface_type@RDataArchiver_OsDir@stdio@media@modules@UModSys@@UBEPBUSUniquePointerInfo@core@5@XZ 00401c2e f i umodsys_lib_libmedia:umodsys.mod.media.stdio.obj
 0001:00000c34       ?root_get_other_interface@RDataArchiver_OsDir@stdio@media@modules@UModSys@@UAEPAUIRoot@core@5@PBUSUniquePointerInfo@75@@Z 00401c34 f i umodsys_lib_libmedia:umodsys.mod.media.stdio.obj
 0001:00000c34       ?root_get_other_interface@RDataArchiver_OsDir@stdio@media@modules@UModSys@@UBEPBUIRoot@core@5@PBUSUniquePointerInfo@75@@Z 00401c34 f i umodsys_lib_libmedia:umodsys.mod.media.stdio.obj
 0001:00000c5d       ?root_is_interface_supported@RDataArchiver_OsDir@stdio@media@modules@UModSys@@UBE_NPBUSUniquePointerInfo@core@5@@Z 00401c5d f i umodsys_lib_libmedia:umodsys.mod.media.stdio.obj
 0001:00000c7c       ??0RDataArchiver_OsDir@stdio@media@modules@UModSys@@QAE@PAUIModObject@base@4@ABUSParameters@core@4@U?$TFlags4State@USMediaFlagUid@libmedia@UModSys@@I@tl@4@@Z 00401c7c f i umodsys_lib_libmedia:umodsys.mod.media.stdio.obj
 0001:00000cef       ?open@RDataArchiver_OsDir@stdio@media@modules@UModSys@@QAEXABUSParameters@core@5@@Z 00401cef f i umodsys_lib_libmedia:umodsys.mod.media.stdio.obj
 0001:00000dca       ?get_flag@RDataArchiver_OsDir@stdio@media@modules@UModSys@@UBE?AW4eStates@?$TFlags4State@USMediaFlagUid@libmedia@UModSys@@I@tl@5@H@Z 00401dca f i umodsys_lib_libmedia:umodsys.mod.media.stdio.obj
 0001:00000ddd       ?get_flags_auto@RDataArchiver_OsDir@stdio@media@modules@UModSys@@UBE?AU?$TFlags4State@USMediaFlagUid@libmedia@UModSys@@I@tl@5@XZ 00401ddd f i umodsys_lib_libmedia:umodsys.mod.media.stdio.obj
 0001:00000dec       ?set_flag@RDataArchiver_OsDir@stdio@media@modules@UModSys@@UAE?AW4eStates@?$TFlags4State@USMediaFlagUid@libmedia@UModSys@@I@tl@5@HW46785@@Z 00401dec f i umodsys_lib_libmedia:umodsys.mod.media.stdio.obj
 0001:00000e19       ?data_load@RDataArchiver_OsDir@stdio@media@modules@UModSys@@UAE_NABU?$TString@U?$TSCoreConst@D@su@tl@UModSys@@U?$TComparerBinaryHash@D@234@@tl@5@AAUSCMemShared@core@5@ABUSFlags@libmedia@5@@Z 00401e19 f i umodsys_lib_libmedia:umodsys.mod.media.stdio.obj
 0001:00000e4e       ?data_save@RDataArchiver_OsDir@stdio@media@modules@UModSys@@UAE_NABU?$TString@U?$TSCoreConst@D@su@tl@UModSys@@U?$TComparerBinaryHash@D@234@@tl@5@ABUSCMem@core@5@ABUSFlags@libmedia@5@@Z 00401e4e f i umodsys_lib_libmedia:umodsys.mod.media.stdio.obj
 0001:00000ec4       ?data_reader@RDataArchiver_OsDir@stdio@media@modules@UModSys@@UAE?AU?$TRefObject@UIStreamReader@libmedia@UModSys@@U?$TRefObjectFunc@UIStreamReader@libmedia@UModSys@@@tl@3@@tl@5@ABU?$TString@U?$TSCoreConst@D@su@tl@UModSys@@U?$TComparerBinaryHash@D@234@@75@ABUSFlags@libmedia@5@@Z 00401ec4 f i umodsys_lib_libmedia:umodsys.mod.media.stdio.obj
 0001:00000fcb       ?data_writer@RDataArchiver_OsDir@stdio@media@modules@UModSys@@UAE?AU?$TRefObject@UIStreamWriter@libmedia@UModSys@@U?$TRefObjectFunc@UIStreamWriter@libmedia@UModSys@@@tl@3@@tl@5@ABU?$TString@U?$TSCoreConst@D@su@tl@UModSys@@U?$TComparerBinaryHash@D@234@@75@ABUSFlags@libmedia@5@@Z 00401fcb f i umodsys_lib_libmedia:umodsys.mod.media.stdio.obj
 0001:000010ed       ?data_list@RDataArchiver_OsDir@stdio@media@modules@UModSys@@UAE_NABU?$TString@U?$TSCoreConst@D@su@tl@UModSys@@U?$TComparerBinaryHash@D@234@@tl@5@IAAU?$TIStackSocket@USFileInfo@libmedia@UModSys@@@75@ABUSFlags@libmedia@5@@Z 004020ed f i umodsys_lib_libmedia:umodsys.mod.media.stdio.obj
 0001:000010ed       ?data_info@RDataArchiver_OsDir@stdio@media@modules@UModSys@@UAE_NABU?$TString@U?$TSCoreConst@D@su@tl@UModSys@@U?$TComparerBinaryHash@D@234@@tl@5@IAAUSFileInfo@libmedia@5@ABUSFlags@95@@Z 004020ed f i umodsys_lib_libmedia:umodsys.mod.media.stdio.obj
 0001:00001136       ?get_permissions@RDataArchiver_OsDir@stdio@media@modules@UModSys@@UAEHXZ 00402136 f i umodsys_lib_libmedia:umodsys.mod.media.stdio.obj
 0001:0000113a       ??_ERDataArchiver_OsDir@stdio@media@modules@UModSys@@UAEPAXI@Z 0040213a f i  CIL library: CIL module
 0001:0000113a       ??_GRDataArchiver_OsDir@stdio@media@modules@UModSys@@UAEPAXI@Z 0040213a f i umodsys_lib_libmedia:umodsys.mod.media.stdio.obj
 0001:0000118e       ??1ILibObject@libmedia@UModSys@@UAE@XZ 0040218e f i umodsys_lib_libmedia:umodsys.mod.media.stdio.obj
 0001:000011c5       ?get_generated_names@RGenerator@stdio@media@modules@UModSys@@UBEHAAUSUniquePtrList@core@5@@Z 004021c5 f i umodsys_lib_libmedia:umodsys.mod.media.stdio.obj
 0001:000011f5       ?get_generated_types@RGenerator@stdio@media@modules@UModSys@@UBEHAAUSUniquePtrList@core@5@PBUSUniquePointerInfo@75@@Z 004021f5 f i umodsys_lib_libmedia:umodsys.mod.media.stdio.obj
 0001:00001268       ?generate@RGenerator@stdio@media@modules@UModSys@@UAE_NAAU?$TRefObject@UIRefObject@core@UModSys@@U?$TRefObjectFunc@UIRefObject@core@UModSys@@@tl@3@@tl@5@PBUSUniquePointerInfo@core@5@ABUSParameters@95@@Z 00402268 f i umodsys_lib_libmedia:umodsys.mod.media.stdio.obj
 0001:000012cf       ?root_get_interface_info@RGenerator@stdio@media@modules@UModSys@@UBEABUSUniquePointerInfo@core@5@XZ 004022cf f i umodsys_lib_libmedia:umodsys.mod.media.stdio.obj
 0001:000012d5       ?root_get_interface_type@RGenerator@stdio@media@modules@UModSys@@UBEPBUSUniquePointerInfo@core@5@XZ 004022d5 f i umodsys_lib_libmedia:umodsys.mod.media.stdio.obj
 0001:000012db       ?root_get_other_interface@RGenerator@stdio@media@modules@UModSys@@UAEPAUIRoot@core@5@PBUSUniquePointerInfo@75@@Z 004022db f i umodsys_lib_libmedia:umodsys.mod.media.stdio.obj
 0001:000012db       ?root_get_other_interface@RGenerator@stdio@media@modules@UModSys@@UBEPBUIRoot@core@5@PBUSUniquePointerInfo@75@@Z 004022db f i umodsys_lib_libmedia:umodsys.mod.media.stdio.obj
 0001:00001304       ?root_is_interface_supported@RGenerator@stdio@media@modules@UModSys@@UBE_NPBUSUniquePointerInfo@core@5@@Z 00402304 f i umodsys_lib_libmedia:umodsys.mod.media.stdio.obj
 0001:00001323       ?ref_remove@RConsole_std@rsystem@base@UModSys@@UBEXXZ 00402323 f i umodsys_lib_basesys:umodsys.basesys.rconsole_std.obj
 0001:00001323       ?suicide@RGenerator@stdlib@media@modules@UModSys@@UAEXXZ 00402323 f i umodsys_lib_libmedia:umodsys.mod.media.stdlib.obj
 0001:00001323       ?suicide@RGenerator@stdio@media@modules@UModSys@@UAEXXZ 00402323 f i umodsys_lib_libmedia:umodsys.mod.media.stdio.obj
 0001:00001323       ??3@YAXPAX0@Z              00402323 f i umodsys_lib_libmedia:umodsys.mod.media.stdio.obj
 0001:00001323       ?ref_add@RConsole_std@rsystem@base@UModSys@@UBEXXZ 00402323 f i umodsys_lib_basesys:umodsys.basesys.rconsole_std.obj
 0001:00001324       ?get_uid@RGenerator@stdio@media@modules@UModSys@@UBEPBUSUniquePointerInfo@core@5@XZ 00402324 f i umodsys_lib_libmedia:umodsys.mod.media.stdio.obj
 0001:0000132a       ?do_open@RModuleReg@stdio@media@modules@UModSys@@UAE_NXZ 0040232a f i umodsys_lib_libmedia:umodsys.mod.media.stdio.obj
 0001:00001378       ?do_close@RModuleReg@stdio@media@modules@UModSys@@UAE_NXZ 00402378 f i umodsys_lib_libmedia:umodsys.mod.media.stdio.obj
 0001:000013b3       ??_EIModuleReg@base@UModSys@@UAEPAXI@Z 004023b3 f i  CIL library: CIL module
 0001:000013b3       ??_GRModuleReg@stdio@media@modules@UModSys@@UAEPAXI@Z 004023b3 f i umodsys_lib_libmedia:umodsys.mod.media.stdio.obj
 0001:000013b3       ??_ERModuleReg@stdlib@media@modules@UModSys@@UAEPAXI@Z 004023b3 f i  CIL library: CIL module
 0001:000013b3       ??_GIModuleReg@base@UModSys@@UAEPAXI@Z 004023b3 f i umodsys_lib_base:umodsys.base.modulereg.obj
 0001:000013b3       ??_ERModuleReg@stdio@media@modules@UModSys@@UAEPAXI@Z 004023b3 f i  CIL library: CIL module
 0001:000013b3       ??_GRModuleReg@stdlib@media@modules@UModSys@@UAEPAXI@Z 004023b3 f i umodsys_lib_libmedia:umodsys.mod.media.stdlib.obj
 0001:000013d0       ?get_module@RGenerator@stdio@media@modules@UModSys@@UBEPAUIModule@base@5@XZ 004023d0 f   umodsys_lib_libmedia:umodsys.mod.media.stdio.obj
 0001:000013d6       ?mod_inc@RGenerator@stdio@media@modules@UModSys@@UBE_NXZ 004023d6 f   umodsys_lib_libmedia:umodsys.mod.media.stdio.obj
 0001:000013e1       ?mod_dec@RGenerator@stdio@media@modules@UModSys@@UBE_NXZ 004023e1 f   umodsys_lib_libmedia:umodsys.mod.media.stdio.obj
 0001:000013ec       ?s_holder@RGenerator@stdio@media@modules@UModSys@@SAAAU?$TTypeStaticHolder@URGenerator@stdio@media@modules@UModSys@@@tl@5@XZ 004023ec f   umodsys_lib_libmedia:umodsys.mod.media.stdio.obj
 0001:0000141e       ??0?$TString@U?$TSCoreShared@USIMemAlloc@core@UModSys@@D@su@tl@UModSys@@U?$TComparerBinaryHash@D@234@@tl@UModSys@@QAE@XZ 0040241e f i umodsys_lib_libmedia:umodsys.mod.media.stdio.obj
 0001:00001434       ?set@?$TSCoreShared@USIMemAlloc@core@UModSys@@D@su@tl@UModSys@@QAEXPBD@Z 00402434 f i umodsys_lib_libmedia:umodsys.mod.media.stdio.obj
 0001:00001459       ?info_release@?$TSCoreShared@USIMemAlloc@core@UModSys@@D@su@tl@UModSys@@QAEXXZ 00402459 f i umodsys_lib_libmedia:umodsys.mod.media.stdio.obj
 0001:00001492       ?info_new@?$TSCoreShared@USIMemAlloc@core@UModSys@@D@su@tl@UModSys@@QAE_NPBDI@Z 00402492 f i umodsys_lib_libmedia:umodsys.mod.media.stdio.obj
 0001:000014f6       ?get_null@?$TSCoreShared@USIMemAlloc@core@UModSys@@D@su@tl@UModSys@@SAPAU?$TSharedStringInfo@DUSIMemAlloc@core@UModSys@@@234@XZ 004024f6 f i umodsys_lib_libmedia:umodsys.mod.media.stdio.obj
 0001:0000152e       ??$ValidateConstruction@UIStreamReader@libmedia@UModSys@@URStreamReader_FILE@stdio@media@modules@3@@core@UModSys@@YA_NAAU?$TRefObject@UIStreamReader@libmedia@UModSys@@U?$TRefObjectFunc@UIStreamReader@libmedia@UModSys@@@tl@3@@tl@1@PAURStreamReader_FILE@stdio@media@modules@1@@Z 0040252e f i umodsys_lib_libmedia:umodsys.mod.media.stdio.obj
 0001:00001580       ??$yes@U?$TFlags4StateShift@USMediaFlagUid@libmedia@UModSys@@I$09@tl@UModSys@@@SFlags@libmedia@UModSys@@QBE_NPBUIResolverAuto@012@@Z 00402580 f i umodsys_lib_libmedia:umodsys.mod.media.stdio.obj
 0001:000015d1       ??$ValidateConstruction@UIStreamWriter@libmedia@UModSys@@URStreamWriter_FILE@stdio@media@modules@3@@core@UModSys@@YA_NAAU?$TRefObject@UIStreamWriter@libmedia@UModSys@@U?$TRefObjectFunc@UIStreamWriter@libmedia@UModSys@@@tl@3@@tl@1@PAURStreamWriter_FILE@stdio@media@modules@1@@Z 004025d1 f i umodsys_lib_libmedia:umodsys.mod.media.stdio.obj
 0001:0000162b       ??$t_gen_param@URStreamReader_FILE@stdio@media@modules@UModSys@@URGenerator@2345@@IGenerator@base@UModSys@@IAE_NPAURGenerator@stdio@media@modules@2@AAU?$TRefObject@UIRefObject@core@UModSys@@U?$TRefObjectFunc@UIRefObject@core@UModSys@@@tl@3@@tl@2@PBUSUniquePointerInfo@core@2@ABUSParameters@core@2@@Z 0040262b f i umodsys_lib_libmedia:umodsys.mod.media.stdio.obj
 0001:000016b6       ??$t_gen_param@URStreamWriter_FILE@stdio@media@modules@UModSys@@URGenerator@2345@@IGenerator@base@UModSys@@IAE_NPAURGenerator@stdio@media@modules@2@AAU?$TRefObject@UIRefObject@core@UModSys@@U?$TRefObjectFunc@UIRefObject@core@UModSys@@@tl@3@@tl@2@PBUSUniquePointerInfo@core@2@ABUSParameters@core@2@@Z 004026b6 f i umodsys_lib_libmedia:umodsys.mod.media.stdio.obj
 0001:00001741       ??$t_gen_param@URDataArchiver_OsDir@stdio@media@modules@UModSys@@URGenerator@2345@@IGenerator@base@UModSys@@IAE_NPAURGenerator@stdio@media@modules@2@AAU?$TRefObject@UIRefObject@core@UModSys@@U?$TRefObjectFunc@UIRefObject@core@UModSys@@@tl@3@@tl@2@PBUSUniquePointerInfo@core@2@ABUSParameters@core@2@@Z 00402741 f i umodsys_lib_libmedia:umodsys.mod.media.stdio.obj
 0001:000017bc       ??1?$TRefObject@UIModObject@base@UModSys@@U?$TModObjectFunc@UIModObject@base@UModSys@@@tl@3@@tl@UModSys@@QAE@XZ 004027bc f i umodsys_lib_libmedia:umodsys.mod.media.stdio.obj
 0001:000017d2       ?s_init@?$TModObjectFunc@UIModObject@base@UModSys@@@tl@UModSys@@SAXAAPAUIModObject@base@3@PAU453@@Z 004027d2 f i umodsys_lib_libmedia:umodsys.mod.media.stdio.obj
 0001:000017eb       ??4?$TRefObject@UIStreamReader@libmedia@UModSys@@U?$TRefObjectFunc@UIStreamReader@libmedia@UModSys@@@tl@3@@tl@UModSys@@QAEABU012@PAUIStreamReader@libmedia@2@@Z 004027eb f i umodsys_lib_libmedia:umodsys.mod.media.stdio.obj
 0001:000017eb       ??4?$TRefObject@UIRefObject@core@UModSys@@U?$TRefObjectFunc@UIRefObject@core@UModSys@@@tl@3@@tl@UModSys@@QAEABU012@PAUIRefObject@core@2@@Z 004027eb f i umodsys_lib_libmedia:umodsys.mod.media.stdio.obj
 0001:000017eb       ??4?$TRefObject@UIConsole@base@UModSys@@U?$TRefObjectFunc@UIConsole@base@UModSys@@@tl@3@@tl@UModSys@@QAEABU012@PAUIConsole@base@2@@Z 004027eb f i umodsys_lib_basesys:umodsys.basesys.rsystem_main.obj
 0001:00001806       ?new_data@SMemorySharedData@core@UModSys@@SAPAU123@IPBUSSourceContext@23@@Z 00402806 f i umodsys_lib_libmedia:umodsys.mod.media.stdlib.obj
 0001:0000182a       ??$seq@D@su@tl@UModSys@@YA_NPBD0I@Z 0040282a f i umodsys_lib_libmedia:umodsys.mod.media.stdlib.obj
 0001:00001845       ??1SFileInfo@libmedia@UModSys@@QAE@XZ 00402845 f i umodsys_lib_libmedia:umodsys.mod.media.stdlib.obj
 0001:00001892       ?get_flag@RResolverChain@SFlagsChain@libmedia@UModSys@@UBE?AW4eStates@?$TFlags4State@USMediaFlagUid@libmedia@UModSys@@I@tl@4@H@Z 00402892 f i umodsys_lib_libmedia:umodsys.mod.media.stdlib.obj
 0001:000018b8       ?bin_reader@ILibrary@libmedia@UModSys@@QAE?AU?$TRefObject@UIStreamReader@libmedia@UModSys@@U?$TRefObjectFunc@UIStreamReader@libmedia@UModSys@@@tl@3@@tl@3@ABU?$TString@U?$TSCoreConst@D@su@tl@UModSys@@U?$TComparerBinaryHash@D@234@@53@ABU?$TFlags4State@USMediaFlagUid@libmedia@UModSys@@I@53@@Z 004028b8 f i umodsys_lib_libmedia:umodsys.mod.media.stdlib.obj
 0001:000018e7       ?bin_writer@ILibrary@libmedia@UModSys@@QAE?AU?$TRefObject@UIStreamWriter@libmedia@UModSys@@U?$TRefObjectFunc@UIStreamWriter@libmedia@UModSys@@@tl@3@@tl@3@ABU?$TString@U?$TSCoreConst@D@su@tl@UModSys@@U?$TComparerBinaryHash@D@234@@53@ABU?$TFlags4State@USMediaFlagUid@libmedia@UModSys@@I@53@@Z 004028e7 f i umodsys_lib_libmedia:umodsys.mod.media.stdlib.obj
 0001:00001916       ?_root_get_other_interface@ILibrary@libmedia@UModSys@@IAEPAUIRoot@core@3@PBUSUniquePointerInfo@53@@Z 00402916 f i umodsys_lib_libmedia:umodsys.mod.media.stdlib.obj
 0001:00001916       ?_root_get_other_interface@ILibrary@libmedia@UModSys@@IBEPBUIRoot@core@3@PBUSUniquePointerInfo@53@@Z 00402916 f i umodsys_lib_libmedia:umodsys.mod.media.stdlib.obj
 0001:00001932       ?_root_get_interface_types@ILibrary@libmedia@UModSys@@SAIAAUSUniquePtrList@core@3@@Z 00402932 f i umodsys_lib_libmedia:umodsys.mod.media.stdlib.obj
 0001:00001954       ?_root_is_interface_supported@ILibrary@libmedia@UModSys@@SA_NPBUSUniquePointerInfo@core@3@@Z 00402954 f i umodsys_lib_libmedia:umodsys.mod.media.stdlib.obj
 0001:00001974       ??1SPoint@ILibraryBinTree@libmedia@UModSys@@QAE@XZ 00402974 f i umodsys_lib_libmedia:umodsys.mod.media.stdlib.obj
 0001:00001974       ??1SLayer@ILibraryLayered@libmedia@UModSys@@QAE@XZ 00402974 f i umodsys_lib_libmedia:umodsys.mod.media.stdlib.obj
 0001:00001985       ?setname@NameNode@IBinArchiveFrame@libmedia@UModSys@@QAEXPAXHABU?$TString@U?$TSCoreConst@D@su@tl@UModSys@@U?$TComparerBinaryHash@D@234@@tl@4@@Z 00402985 f i umodsys_lib_libmedia:umodsys.mod.media.stdlib.obj
 0001:000019cd       ?setname@NameNode@IBinArchiveFrame@libmedia@UModSys@@QAEXPAXHABU?$TString@U?$TSCoreConst@D@su@tl@UModSys@@U?$TComparerUtfNocaseHash@D@234@@tl@4@@Z 004029cd f i umodsys_lib_libmedia:umodsys.mod.media.stdlib.obj
 0001:00001a1d       ??RNameNodeCmpC@IBinArchiveFrame@libmedia@UModSys@@QBEHPBUNameNode@123@@Z 00402a1d f i umodsys_lib_libmedia:umodsys.mod.media.stdlib.obj
 0001:00001a47       ??RNameNodeCmpUC@IBinArchiveFrame@libmedia@UModSys@@QBEHPBUNameNode@123@@Z 00402a47 f i umodsys_lib_libmedia:umodsys.mod.media.stdlib.obj
 0001:00001aa2       ?root_get_interface_info@RUtilities@stdlib@media@modules@UModSys@@UBEABUSUniquePointerInfo@core@5@XZ 00402aa2 f i umodsys_lib_libmedia:umodsys.mod.media.stdlib.obj
 0001:00001aa8       ?root_get_interface_type@RUtilities@stdlib@media@modules@UModSys@@UBEPBUSUniquePointerInfo@core@5@XZ 00402aa8 f i umodsys_lib_libmedia:umodsys.mod.media.stdlib.obj
 0001:00001aae       ?root_get_other_interface@RUtilities@stdlib@media@modules@UModSys@@UAEPAUIRoot@core@5@PBUSUniquePointerInfo@75@@Z 00402aae f i umodsys_lib_libmedia:umodsys.mod.media.stdlib.obj
 0001:00001aae       ?root_get_other_interface@RUtilities@stdlib@media@modules@UModSys@@UBEPBUIRoot@core@5@PBUSUniquePointerInfo@75@@Z 00402aae f i umodsys_lib_libmedia:umodsys.mod.media.stdlib.obj
 0001:00001acf       ?root_is_interface_supported@RUtilities@stdlib@media@modules@UModSys@@UBE_NPBUSUniquePointerInfo@core@5@@Z 00402acf f i umodsys_lib_libmedia:umodsys.mod.media.stdlib.obj
 0001:00001af6       ?root_get_interface_info@RBinArchiveFrame@stdlib@media@modules@UModSys@@UBEABUSUniquePointerInfo@core@5@XZ 00402af6 f i umodsys_lib_libmedia:umodsys.mod.media.stdlib.obj
 0001:00001afc       ?root_get_interface_type@RBinArchiveFrame@stdlib@media@modules@UModSys@@UBEPBUSUniquePointerInfo@core@5@XZ 00402afc f i umodsys_lib_libmedia:umodsys.mod.media.stdlib.obj
 0001:00001b02       ?root_get_other_interface@RBinArchiveFrame@stdlib@media@modules@UModSys@@UBEPBUIRoot@core@5@PBUSUniquePointerInfo@75@@Z 00402b02 f i umodsys_lib_libmedia:umodsys.mod.media.stdlib.obj
 0001:00001b02       ?root_get_other_interface@RBinArchiveFrame@stdlib@media@modules@UModSys@@UAEPAUIRoot@core@5@PBUSUniquePointerInfo@75@@Z 00402b02 f i umodsys_lib_libmedia:umodsys.mod.media.stdlib.obj
 0001:00001b33       ?root_is_interface_supported@RBinArchiveFrame@stdlib@media@modules@UModSys@@UBE_NPBUSUniquePointerInfo@core@5@@Z 00402b33 f i umodsys_lib_libmedia:umodsys.mod.media.stdlib.obj
 0001:00001b5a       ?ref_add@RBinArchiveFrame@stdlib@media@modules@UModSys@@UBEXXZ 00402b5a f i umodsys_lib_libmedia:umodsys.mod.media.stdlib.obj
 0001:00001b5e       ?ref_remove@RBinArchiveFrame@stdlib@media@modules@UModSys@@UBEXXZ 00402b5e f i umodsys_lib_libmedia:umodsys.mod.media.stdlib.obj
 0001:00001b69       ?ref_links@RBinArchiveFrame@stdlib@media@modules@UModSys@@UBEHXZ 00402b69 f i umodsys_lib_libmedia:umodsys.mod.media.stdlib.obj
 0001:00001b6d       ?ref_weak@RBinArchiveFrame@stdlib@media@modules@UModSys@@UBE_NAAUWeakPointer@IRefObject@core@5@@Z 00402b6d f i umodsys_lib_libmedia:umodsys.mod.media.stdlib.obj
 0001:00001b8c       ?suicide@RBinArchiveFrame@stdlib@media@modules@UModSys@@UAEXXZ 00402b8c f i umodsys_lib_libmedia:umodsys.mod.media.stdlib.obj
 0001:00001bc9       ?root_get_interface_info@RLibraryBinTree@stdlib@media@modules@UModSys@@UBEABUSUniquePointerInfo@core@5@XZ 00402bc9 f i umodsys_lib_libmedia:umodsys.mod.media.stdlib.obj
 0001:00001bcf       ?root_get_interface_type@RLibraryBinTree@stdlib@media@modules@UModSys@@UBEPBUSUniquePointerInfo@core@5@XZ 00402bcf f i umodsys_lib_libmedia:umodsys.mod.media.stdlib.obj
 0001:00001bd5       ?root_get_other_interface@RLibraryBinTree@stdlib@media@modules@UModSys@@UAEPAUIRoot@core@5@PBUSUniquePointerInfo@75@@Z 00402bd5 f i umodsys_lib_libmedia:umodsys.mod.media.stdlib.obj
 0001:00001bd5       ?root_get_other_interface@RLibraryBinTree@stdlib@media@modules@UModSys@@UBEPBUIRoot@core@5@PBUSUniquePointerInfo@75@@Z 00402bd5 f i umodsys_lib_libmedia:umodsys.mod.media.stdlib.obj
 0001:00001bf6       ?root_is_interface_supported@RLibraryBinTree@stdlib@media@modules@UModSys@@UBE_NPBUSUniquePointerInfo@core@5@@Z 00402bf6 f i umodsys_lib_libmedia:umodsys.mod.media.stdlib.obj
 0001:00001c1d       ?ref_links@RLibraryObjCache@stdlib@media@modules@UModSys@@UBEHXZ 00402c1d f i umodsys_lib_libmedia:umodsys.mod.media.stdlib.obj
 0001:00001c1d       ?ref_links@RLibraryObjFilter@stdlib@media@modules@UModSys@@UBEHXZ 00402c1d f i umodsys_lib_libmedia:umodsys.mod.media.stdlib.obj
 0001:00001c1d       ?ref_links@RLibraryBinTree@stdlib@media@modules@UModSys@@UBEHXZ 00402c1d f i umodsys_lib_libmedia:umodsys.mod.media.stdlib.obj
 0001:00001c1d       ?ref_links@RLibraryLayered@stdlib@media@modules@UModSys@@UBEHXZ 00402c1d f i umodsys_lib_libmedia:umodsys.mod.media.stdlib.obj
 0001:00001c1d       ?get_console@RSystem@rsystem@base@UModSys@@UAEPAUIConsole@34@XZ 00402c1d f i umodsys_lib_basesys:umodsys.basesys.rsystem.obj
 0001:00001c1d       ?ref_links@RLibraryBinCache@stdlib@media@modules@UModSys@@UBEHXZ 00402c1d f i umodsys_lib_libmedia:umodsys.mod.media.stdlib.obj
 0001:00001c1d       ?ref_links@RDataArchiver_OsDir@stdio@media@modules@UModSys@@UBEHXZ 00402c1d f i umodsys_lib_libmedia:umodsys.mod.media.stdio.obj
 0001:00001c1d       ?ref_links@RParameters@rsystem@base@UModSys@@UBEHXZ 00402c1d f i umodsys_lib_basesys:umodsys.basesys.rparameters.obj
 0001:00001c21       ?root_get_interface_info@RLibraryBinCache@stdlib@media@modules@UModSys@@UBEABUSUniquePointerInfo@core@5@XZ 00402c21 f i umodsys_lib_libmedia:umodsys.mod.media.stdlib.obj
 0001:00001c27       ?root_get_interface_type@RLibraryBinCache@stdlib@media@modules@UModSys@@UBEPBUSUniquePointerInfo@core@5@XZ 00402c27 f i umodsys_lib_libmedia:umodsys.mod.media.stdlib.obj
 0001:00001c2d       ?root_get_other_interface@RLibraryBinCache@stdlib@media@modules@UModSys@@UBEPBUIRoot@core@5@PBUSUniquePointerInfo@75@@Z 00402c2d f i umodsys_lib_libmedia:umodsys.mod.media.stdlib.obj
 0001:00001c2d       ?root_get_other_interface@RLibraryBinCache@stdlib@media@modules@UModSys@@UAEPAUIRoot@core@5@PBUSUniquePointerInfo@75@@Z 00402c2d f i umodsys_lib_libmedia:umodsys.mod.media.stdlib.obj
 0001:00001c4e       ?root_is_interface_supported@RLibraryBinCache@stdlib@media@modules@UModSys@@UBE_NPBUSUniquePointerInfo@core@5@@Z 00402c4e f i umodsys_lib_libmedia:umodsys.mod.media.stdlib.obj
 0001:00001c75       ?suicide@RLibraryLayered@stdlib@media@modules@UModSys@@UAEXXZ 00402c75 f i umodsys_lib_libmedia:umodsys.mod.media.stdlib.obj
 0001:00001c75       ?suicide@RLibraryObjFilter@stdlib@media@modules@UModSys@@UAEXXZ 00402c75 f i umodsys_lib_libmedia:umodsys.mod.media.stdlib.obj
 0001:00001c75       ?suicide@RLibraryObjCache@stdlib@media@modules@UModSys@@UAEXXZ 00402c75 f i umodsys_lib_libmedia:umodsys.mod.media.stdlib.obj
 0001:00001c75       ?suicide@RLibraryBinTree@stdlib@media@modules@UModSys@@UAEXXZ 00402c75 f i umodsys_lib_libmedia:umodsys.mod.media.stdlib.obj
 0001:00001c75       ?suicide@RLibraryBinCache@stdlib@media@modules@UModSys@@UAEXXZ 00402c75 f i umodsys_lib_libmedia:umodsys.mod.media.stdlib.obj
 0001:00001c75       ?suicide@RDataArchiver_OsDir@stdio@media@modules@UModSys@@UAEXXZ 00402c75 f i umodsys_lib_libmedia:umodsys.mod.media.stdio.obj
 0001:00001cb2       ?root_get_interface_info@RLibraryLayered@stdlib@media@modules@UModSys@@UBEABUSUniquePointerInfo@core@5@XZ 00402cb2 f i umodsys_lib_libmedia:umodsys.mod.media.stdlib.obj
 0001:00001cb8       ?root_get_interface_type@RLibraryLayered@stdlib@media@modules@UModSys@@UBEPBUSUniquePointerInfo@core@5@XZ 00402cb8 f i umodsys_lib_libmedia:umodsys.mod.media.stdlib.obj
 0001:00001cbe       ?root_get_other_interface@RLibraryLayered@stdlib@media@modules@UModSys@@UAEPAUIRoot@core@5@PBUSUniquePointerInfo@75@@Z 00402cbe f i umodsys_lib_libmedia:umodsys.mod.media.stdlib.obj
 0001:00001cbe       ?root_get_other_interface@RLibraryLayered@stdlib@media@modules@UModSys@@UBEPBUIRoot@core@5@PBUSUniquePointerInfo@75@@Z 00402cbe f i umodsys_lib_libmedia:umodsys.mod.media.stdlib.obj
 0001:00001cdf       ?root_is_interface_supported@RLibraryLayered@stdlib@media@modules@UModSys@@UBE_NPBUSUniquePointerInfo@core@5@@Z 00402cdf f i umodsys_lib_libmedia:umodsys.mod.media.stdlib.obj
 0001:00001d06       ??4SLayerX@RLibraryLayered@stdlib@media@modules@UModSys@@QAEXABUSLayer@ILibraryLayered@libmedia@5@@Z 00402d06 f i umodsys_lib_libmedia:umodsys.mod.media.stdlib.obj
 0001:00001d4f       ?root_get_interface_info@RLibraryObjCache@stdlib@media@modules@UModSys@@UBEABUSUniquePointerInfo@core@5@XZ 00402d4f f i umodsys_lib_libmedia:umodsys.mod.media.stdlib.obj
 0001:00001d55       ?root_get_interface_type@RLibraryObjCache@stdlib@media@modules@UModSys@@UBEPBUSUniquePointerInfo@core@5@XZ 00402d55 f i umodsys_lib_libmedia:umodsys.mod.media.stdlib.obj
 0001:00001d5b       ?root_get_other_interface@RLibraryObjCache@stdlib@media@modules@UModSys@@UAEPAUIRoot@core@5@PBUSUniquePointerInfo@75@@Z 00402d5b f i umodsys_lib_libmedia:umodsys.mod.media.stdlib.obj
 0001:00001d5b       ?root_get_other_interface@RLibraryObjCache@stdlib@media@modules@UModSys@@UBEPBUIRoot@core@5@PBUSUniquePointerInfo@75@@Z 00402d5b f i umodsys_lib_libmedia:umodsys.mod.media.stdlib.obj
 0001:00001d7c       ?root_is_interface_supported@RLibraryObjCache@stdlib@media@modules@UModSys@@UBE_NPBUSUniquePointerInfo@core@5@@Z 00402d7c f i umodsys_lib_libmedia:umodsys.mod.media.stdlib.obj
 0001:00001da3       ?ref_add@RLibraryBinTree@stdlib@media@modules@UModSys@@UBEXXZ 00402da3 f i umodsys_lib_libmedia:umodsys.mod.media.stdlib.obj
 0001:00001da3       ?ref_add@RLibraryBinCache@stdlib@media@modules@UModSys@@UBEXXZ 00402da3 f i umodsys_lib_libmedia:umodsys.mod.media.stdlib.obj
 0001:00001da3       ?ref_add@RLibraryObjFilter@stdlib@media@modules@UModSys@@UBEXXZ 00402da3 f i umodsys_lib_libmedia:umodsys.mod.media.stdlib.obj
 0001:00001da3       ?ref_add@RDataArchiver_OsDir@stdio@media@modules@UModSys@@UBEXXZ 00402da3 f i umodsys_lib_libmedia:umodsys.mod.media.stdio.obj
 0001:00001da3       ?ref_add@RLibraryLayered@stdlib@media@modules@UModSys@@UBEXXZ 00402da3 f i umodsys_lib_libmedia:umodsys.mod.media.stdlib.obj
 0001:00001da3       ?ref_add@RLibraryObjCache@stdlib@media@modules@UModSys@@UBEXXZ 00402da3 f i umodsys_lib_libmedia:umodsys.mod.media.stdlib.obj
 0001:00001da3       ?ref_add@RParameters@rsystem@base@UModSys@@UBEXXZ 00402da3 f i umodsys_lib_basesys:umodsys.basesys.rparameters.obj
 0001:00001da7       ?ref_remove@RLibraryLayered@stdlib@media@modules@UModSys@@UBEXXZ 00402da7 f i umodsys_lib_libmedia:umodsys.mod.media.stdlib.obj
 0001:00001da7       ?ref_remove@RLibraryBinCache@stdlib@media@modules@UModSys@@UBEXXZ 00402da7 f i umodsys_lib_libmedia:umodsys.mod.media.stdlib.obj
 0001:00001da7       ?ref_remove@RDataArchiver_OsDir@stdio@media@modules@UModSys@@UBEXXZ 00402da7 f i umodsys_lib_libmedia:umodsys.mod.media.stdio.obj
 0001:00001da7       ?ref_remove@RLibraryObjCache@stdlib@media@modules@UModSys@@UBEXXZ 00402da7 f i umodsys_lib_libmedia:umodsys.mod.media.stdlib.obj
 0001:00001da7       ?ref_remove@RLibraryBinTree@stdlib@media@modules@UModSys@@UBEXXZ 00402da7 f i umodsys_lib_libmedia:umodsys.mod.media.stdlib.obj
 0001:00001da7       ?ref_remove@RLibraryObjFilter@stdlib@media@modules@UModSys@@UBEXXZ 00402da7 f i umodsys_lib_libmedia:umodsys.mod.media.stdlib.obj
 0001:00001da7       ?ref_remove@RParameters@rsystem@base@UModSys@@UBEXXZ 00402da7 f i umodsys_lib_basesys:umodsys.basesys.rparameters.obj
 0001:00001db2       ?root_get_interface_info@RLibraryObjFilter@stdlib@media@modules@UModSys@@UBEABUSUniquePointerInfo@core@5@XZ 00402db2 f i umodsys_lib_libmedia:umodsys.mod.media.stdlib.obj
 0001:00001db8       ?root_get_interface_type@RLibraryObjFilter@stdlib@media@modules@UModSys@@UBEPBUSUniquePointerInfo@core@5@XZ 00402db8 f i umodsys_lib_libmedia:umodsys.mod.media.stdlib.obj
 0001:00001dbe       ?root_get_other_interface@RLibraryObjFilter@stdlib@media@modules@UModSys@@UBEPBUIRoot@core@5@PBUSUniquePointerInfo@75@@Z 00402dbe f i umodsys_lib_libmedia:umodsys.mod.media.stdlib.obj
 0001:00001dbe       ?root_get_other_interface@RLibraryObjFilter@stdlib@media@modules@UModSys@@UAEPAUIRoot@core@5@PBUSUniquePointerInfo@75@@Z 00402dbe f i umodsys_lib_libmedia:umodsys.mod.media.stdlib.obj
 0001:00001ddf       ?root_is_interface_supported@RLibraryObjFilter@stdlib@media@modules@UModSys@@UBE_NPBUSUniquePointerInfo@core@5@@Z 00402ddf f i umodsys_lib_libmedia:umodsys.mod.media.stdlib.obj
 0001:00001e06       ?get_generated_names@RGenerator@stdlib@media@modules@UModSys@@UBEHAAUSUniquePtrList@core@5@@Z 00402e06 f i umodsys_lib_libmedia:umodsys.mod.media.stdlib.obj
 0001:00001e66       ?get_generated_types@RGenerator@stdlib@media@modules@UModSys@@UBEHAAUSUniquePtrList@core@5@PBUSUniquePointerInfo@75@@Z 00402e66 f i umodsys_lib_libmedia:umodsys.mod.media.stdlib.obj
 0001:00001f6c       ?generate@RGenerator@stdlib@media@modules@UModSys@@UAE_NAAU?$TRefObject@UIRefObject@core@UModSys@@U?$TRefObjectFunc@UIRefObject@core@UModSys@@@tl@3@@tl@5@PBUSUniquePointerInfo@core@5@ABUSParameters@95@@Z 00402f6c f i umodsys_lib_libmedia:umodsys.mod.media.stdlib.obj
 0001:0000204d       ?root_get_interface_info@RGenerator@stdlib@media@modules@UModSys@@UBEABUSUniquePointerInfo@core@5@XZ 0040304d f i umodsys_lib_libmedia:umodsys.mod.media.stdlib.obj
 0001:00002053       ?root_get_interface_type@RGenerator@stdlib@media@modules@UModSys@@UBEPBUSUniquePointerInfo@core@5@XZ 00403053 f i umodsys_lib_libmedia:umodsys.mod.media.stdlib.obj
 0001:00002059       ?root_get_other_interface@RGenerator@stdlib@media@modules@UModSys@@UBEPBUIRoot@core@5@PBUSUniquePointerInfo@75@@Z 00403059 f i umodsys_lib_libmedia:umodsys.mod.media.stdlib.obj
 0001:00002059       ?root_get_other_interface@RGenerator@stdlib@media@modules@UModSys@@UAEPAUIRoot@core@5@PBUSUniquePointerInfo@75@@Z 00403059 f i umodsys_lib_libmedia:umodsys.mod.media.stdlib.obj
 0001:00002082       ?root_is_interface_supported@RGenerator@stdlib@media@modules@UModSys@@UBE_NPBUSUniquePointerInfo@core@5@@Z 00403082 f i umodsys_lib_libmedia:umodsys.mod.media.stdlib.obj
 0001:000020a1       ?get_uid@RGenerator@stdlib@media@modules@UModSys@@UBEPBUSUniquePointerInfo@core@5@XZ 004030a1 f i umodsys_lib_libmedia:umodsys.mod.media.stdlib.obj
 0001:000020a7       ?buffer_free@RUtilities@stdlib@media@modules@UModSys@@UAE_NAAUSBuffer@libmedia@5@PBUSSourceContext@core@5@@Z 004030a7 f   umodsys_lib_libmedia:umodsys.mod.media.stdlib.obj
 0001:000020e8       ?buffer_alloc@RUtilities@stdlib@media@modules@UModSys@@UAE_NAAUSBuffer@libmedia@5@IPBUSSourceContext@core@5@@Z 004030e8 f   umodsys_lib_libmedia:umodsys.mod.media.stdlib.obj
 0001:000021b3       ?sub_reader@RUtilities@stdlib@media@modules@UModSys@@UAE?AU?$TRefObject@UIStreamReader@libmedia@UModSys@@U?$TRefObjectFunc@UIStreamReader@libmedia@UModSys@@@tl@3@@tl@5@PAUIStreamReader@libmedia@5@_J1@Z 004031b3 f   umodsys_lib_libmedia:umodsys.mod.media.stdlib.obj
 0001:000021b3       ?sub_writer@RUtilities@stdlib@media@modules@UModSys@@UAE?AU?$TRefObject@UIStreamWriter@libmedia@UModSys@@U?$TRefObjectFunc@UIStreamWriter@libmedia@UModSys@@@tl@3@@tl@5@PAUIStreamWriter@libmedia@5@_J1@Z 004031b3 f   umodsys_lib_libmedia:umodsys.mod.media.stdlib.obj
 0001:000021c5       ?mem_reader@RUtilities@stdlib@media@modules@UModSys@@UAE?AU?$TRefObject@UIStreamReader@libmedia@UModSys@@U?$TRefObjectFunc@UIStreamReader@libmedia@UModSys@@@tl@3@@tl@5@ABUSCMemShared@core@5@@Z 004031c5 f   umodsys_lib_libmedia:umodsys.mod.media.stdlib.obj
 0001:000021c5       ?mem_reader@RUtilities@stdlib@media@modules@UModSys@@UAE?AU?$TRefObject@UIStreamReader@libmedia@UModSys@@U?$TRefObjectFunc@UIStreamReader@libmedia@UModSys@@@tl@3@@tl@5@ABUSCMem@core@5@@Z 004031c5 f   umodsys_lib_libmedia:umodsys.mod.media.stdlib.obj
 0001:000021d7       ?mem_writer@RUtilities@stdlib@media@modules@UModSys@@UAE?AU?$TRefObject@UIStreamWriter@libmedia@UModSys@@U?$TRefObjectFunc@UIStreamWriter@libmedia@UModSys@@@tl@3@@tl@5@PBUSMem@core@5@PAUIMemWriterCompleted@IUtilities@libmedia@5@PAUIRefObject@95@@Z 004031d7 f   umodsys_lib_libmedia:umodsys.mod.media.stdlib.obj
 0001:000021e9       ??0RUtilities@stdlib@media@modules@UModSys@@QAE@PAUIModObject@base@4@ABUSParameters@core@4@@Z 004031e9 f   umodsys_lib_libmedia:umodsys.mod.media.stdlib.obj
 0001:00002243       ??_GRUtilities@stdlib@media@modules@UModSys@@UAEPAXI@Z 00403243 f i umodsys_lib_libmedia:umodsys.mod.media.stdlib.obj
 0001:00002243       ??_ERUtilities@stdlib@media@modules@UModSys@@UAEPAXI@Z 00403243 f i  CIL library: CIL module
 0001:00002270       ?get_flag@RBinArchiveFrame@stdlib@media@modules@UModSys@@UBE?AW4eStates@?$TFlags4State@USMediaFlagUid@libmedia@UModSys@@I@tl@5@H@Z 00403270 f   umodsys_lib_libmedia:umodsys.mod.media.stdlib.obj
 0001:00002283       ?get_flags_auto@RBinArchiveFrame@stdlib@media@modules@UModSys@@UBE?AU?$TFlags4State@USMediaFlagUid@libmedia@UModSys@@I@tl@5@XZ 00403283 f   umodsys_lib_libmedia:umodsys.mod.media.stdlib.obj
 0001:00002292       ?set_flag@RBinArchiveFrame@stdlib@media@modules@UModSys@@UAE?AW4eStates@?$TFlags4State@USMediaFlagUid@libmedia@UModSys@@I@tl@5@HW46785@@Z 00403292 f   umodsys_lib_libmedia:umodsys.mod.media.stdlib.obj
 0001:000022bf       ?data_reader@RBinArchiveFrame@stdlib@media@modules@UModSys@@UAE?AU?$TRefObject@UIStreamReader@libmedia@UModSys@@U?$TRefObjectFunc@UIStreamReader@libmedia@UModSys@@@tl@3@@tl@5@ABU?$TString@U?$TSCoreConst@D@su@tl@UModSys@@U?$TComparerBinaryHash@D@234@@75@ABUSFlags@libmedia@5@@Z 004032bf f   umodsys_lib_libmedia:umodsys.mod.media.stdlib.obj
 0001:00002350       ?data_writer@RBinArchiveFrame@stdlib@media@modules@UModSys@@UAE?AU?$TRefObject@UIStreamWriter@libmedia@UModSys@@U?$TRefObjectFunc@UIStreamWriter@libmedia@UModSys@@@tl@3@@tl@5@ABU?$TString@U?$TSCoreConst@D@su@tl@UModSys@@U?$TComparerBinaryHash@D@234@@75@ABUSFlags@libmedia@5@@Z 00403350 f   umodsys_lib_libmedia:umodsys.mod.media.stdlib.obj
 0001:00002384       ?data_load@RBinArchiveFrame@stdlib@media@modules@UModSys@@UAE_NABU?$TString@U?$TSCoreConst@D@su@tl@UModSys@@U?$TComparerBinaryHash@D@234@@tl@5@AAUSCMemShared@core@5@ABUSFlags@libmedia@5@@Z 00403384 f   umodsys_lib_libmedia:umodsys.mod.media.stdlib.obj
 0001:000023b4       ?data_save@RBinArchiveFrame@stdlib@media@modules@UModSys@@UAE_NABU?$TString@U?$TSCoreConst@D@su@tl@UModSys@@U?$TComparerBinaryHash@D@234@@tl@5@ABUSCMem@core@5@ABUSFlags@libmedia@5@@Z 004033b4 f   umodsys_lib_libmedia:umodsys.mod.media.stdlib.obj
 0001:000023dc       ?data_list@RBinArchiveFrame@stdlib@media@modules@UModSys@@UAE_NABU?$TString@U?$TSCoreConst@D@su@tl@UModSys@@U?$TComparerBinaryHash@D@234@@tl@5@IAAU?$TIStackSocket@USFileInfo@libmedia@UModSys@@@75@ABUSFlags@libmedia@5@@Z 004033dc f   umodsys_lib_libmedia:umodsys.mod.media.stdlib.obj
 0001:00002524       ?data_info@RBinArchiveFrame@stdlib@media@modules@UModSys@@UAE_NABU?$TString@U?$TSCoreConst@D@su@tl@UModSys@@U?$TComparerBinaryHash@D@234@@tl@5@IAAUSFileInfo@libmedia@5@ABUSFlags@95@@Z 00403524 f   umodsys_lib_libmedia:umodsys.mod.media.stdlib.obj
 0001:000025e4       ?get_permissions@RBinArchiveFrame@stdlib@media@modules@UModSys@@UAEHXZ 004035e4 f   umodsys_lib_libmedia:umodsys.mod.media.stdlib.obj
 0001:000025f1       ?open@RBinArchiveFrame@stdlib@media@modules@UModSys@@UAE_NPAUIClient@IBinArchiveFrame@libmedia@5@PBUSParameters@core@5@@Z 004035f1 f   umodsys_lib_libmedia:umodsys.mod.media.stdlib.obj
 0001:0000289b       ?close@RBinArchiveFrame@stdlib@media@modules@UModSys@@UAE_NXZ 0040389b f   umodsys_lib_libmedia:umodsys.mod.media.stdlib.obj
 0001:00002912       ?add_node_r@RBinArchiveFrame@stdlib@media@modules@UModSys@@UAEPAUNameNode@IBinArchiveFrame@libmedia@5@ABU?$TString@U?$TSCoreConst@D@su@tl@UModSys@@U?$TComparerBinaryHash@D@234@@tl@5@IAAUSMem@core@5@@Z 00403912 f   umodsys_lib_libmedia:umodsys.mod.media.stdlib.obj
 0001:00002997       ?add_node_w@RBinArchiveFrame@stdlib@media@modules@UModSys@@UAEPAUNameNode@IBinArchiveFrame@libmedia@5@ABU?$TString@U?$TSCoreConst@D@su@tl@UModSys@@U?$TComparerBinaryHash@D@234@@tl@5@I@Z 00403997 f   umodsys_lib_libmedia:umodsys.mod.media.stdlib.obj
 0001:00002a35       ?remove_node@RBinArchiveFrame@stdlib@media@modules@UModSys@@UAE_NPAUNameNode@IBinArchiveFrame@libmedia@5@@Z 00403a35 f   umodsys_lib_libmedia:umodsys.mod.media.stdlib.obj
 0001:00002a56       ?find_node@RBinArchiveFrame@stdlib@media@modules@UModSys@@UAEPAUNameNode@IBinArchiveFrame@libmedia@5@ABU?$TString@U?$TSCoreConst@D@su@tl@UModSys@@U?$TComparerBinaryHash@D@234@@tl@5@@Z 00403a56 f   umodsys_lib_libmedia:umodsys.mod.media.stdlib.obj
 0001:00002ada       ?node_size@RBinArchiveFrame@stdlib@media@modules@UModSys@@UAEIABU?$TString@U?$TSCoreConst@D@su@tl@UModSys@@U?$TComparerBinaryHash@D@234@@tl@5@H@Z 00403ada f   umodsys_lib_libmedia:umodsys.mod.media.stdlib.obj
 0001:00002aef       ?kill_node@RBinArchiveFrame@stdlib@media@modules@UModSys@@SA_NPAUNameNode@IBinArchiveFrame@libmedia@5@@Z 00403aef f   umodsys_lib_libmedia:umodsys.mod.media.stdlib.obj
 0001:00002b0a       ?fill_info@RBinArchiveFrame@stdlib@media@modules@UModSys@@QAE_NAAUSFileInfo@libmedia@5@PAUNameNode@IBinArchiveFrame@75@ABU?$TString@U?$TSCoreConst@D@su@tl@UModSys@@U?$TComparerBinaryHash@D@234@@tl@5@I@Z 00403b0a f   umodsys_lib_libmedia:umodsys.mod.media.stdlib.obj
 0001:00002c6d       ??1?$TSCoreShared@USIMemAlloc@core@UModSys@@D@su@tl@UModSys@@QAE@XZ 00403c6d f i umodsys_lib_libmedia:umodsys.mod.media.stdio.obj
 0001:00002c6d       ??1?$TStringBuf@U?$TSCoreShared@USIMemAlloc@core@UModSys@@D@su@tl@UModSys@@U?$TComparerBinaryHash@D@234@@tl@UModSys@@QAE@XZ 00403c6d f i umodsys_lib_libmedia:umodsys.mod.media.stdlib.obj
 0001:00002c6d       ??1?$TString@U?$TSCoreShared@USIMemAlloc@core@UModSys@@D@su@tl@UModSys@@U?$TComparerBinaryHash@D@234@@tl@UModSys@@QAE@XZ 00403c6d f i umodsys_lib_libmedia:umodsys.mod.media.stdio.obj
 0001:00002c72       ?openr@RBinArchiveFrame@stdlib@media@modules@UModSys@@QAE_NPAUILibrary@libmedia@5@ABU?$TString@U?$TSCoreConst@D@su@tl@UModSys@@U?$TComparerBinaryHash@D@234@@tl@5@PBUSParameters@core@5@@Z 00403c72 f   umodsys_lib_libmedia:umodsys.mod.media.stdlib.obj
 0001:00002d4d       ?closew@RBinArchiveFrame@stdlib@media@modules@UModSys@@QAE_N_N@Z 00403d4d f   umodsys_lib_libmedia:umodsys.mod.media.stdlib.obj
 0001:00002e1b       ??0RBinArchiveFrame@stdlib@media@modules@UModSys@@QAE@PAUIModObject@base@4@ABUSParameters@core@4@U?$TFlags4State@USMediaFlagUid@libmedia@UModSys@@I@tl@4@@Z 00403e1b f   umodsys_lib_libmedia:umodsys.mod.media.stdlib.obj
 0001:00002ecf       ??_GRBinArchiveFrame@stdlib@media@modules@UModSys@@UAEPAXI@Z 00403ecf f i umodsys_lib_libmedia:umodsys.mod.media.stdlib.obj
 0001:00002ecf       ??_ERBinArchiveFrame@stdlib@media@modules@UModSys@@UAEPAXI@Z 00403ecf f i  CIL library: CIL module
 0001:00002eec       ??1IBinArchiveFrame@libmedia@UModSys@@UAE@XZ 00403eec f i umodsys_lib_libmedia:umodsys.mod.media.stdlib.obj
 0001:00002f52       ??1RBinArchiveFrame@stdlib@media@modules@UModSys@@UAE@XZ 00403f52 f   umodsys_lib_libmedia:umodsys.mod.media.stdlib.obj
 0001:00002fd5       ??0RLibraryBinTree@stdlib@media@modules@UModSys@@QAE@PAUIModObject@base@4@ABUSParameters@core@4@U?$TFlags4State@USMediaFlagUid@libmedia@UModSys@@I@tl@4@@Z 00403fd5 f   umodsys_lib_libmedia:umodsys.mod.media.stdlib.obj
 0001:00003035       ??_ERLibraryBinTree@stdlib@media@modules@UModSys@@UAEPAXI@Z 00404035 f i  CIL library: CIL module
 0001:00003035       ??_GRLibraryBinTree@stdlib@media@modules@UModSys@@UAEPAXI@Z 00404035 f i umodsys_lib_libmedia:umodsys.mod.media.stdlib.obj
 0001:00003096       ?get_flags_auto@RLibraryBinTree@stdlib@media@modules@UModSys@@UBE?AU?$TFlags4State@USMediaFlagUid@libmedia@UModSys@@I@tl@5@XZ 00404096 f   umodsys_lib_libmedia:umodsys.mod.media.stdlib.obj
 0001:000030a5       ?bin_reader@RLibraryBinTree@stdlib@media@modules@UModSys@@UAE?AU?$TRefObject@UIStreamReader@libmedia@UModSys@@U?$TRefObjectFunc@UIStreamReader@libmedia@UModSys@@@tl@3@@tl@5@ABU?$TString@U?$TSCoreConst@D@su@tl@UModSys@@U?$TComparerBinaryHash@D@234@@75@ABUSFlags@libmedia@5@@Z 004040a5 f   umodsys_lib_libmedia:umodsys.mod.media.stdlib.obj
 0001:00003194       ?bin_writer@RLibraryBinTree@stdlib@media@modules@UModSys@@UAE?AU?$TRefObject@UIStreamWriter@libmedia@UModSys@@U?$TRefObjectFunc@UIStreamWriter@libmedia@UModSys@@@tl@3@@tl@5@ABU?$TString@U?$TSCoreConst@D@su@tl@UModSys@@U?$TComparerBinaryHash@D@234@@75@ABUSFlags@libmedia@5@@Z 00404194 f   umodsys_lib_libmedia:umodsys.mod.media.stdlib.obj
 0001:00003283       ?bin_load@RLibraryBinTree@stdlib@media@modules@UModSys@@UAE_NABU?$TString@U?$TSCoreConst@D@su@tl@UModSys@@U?$TComparerBinaryHash@D@234@@tl@5@AAUSCMemShared@core@5@ABUSFlags@libmedia@5@@Z 00404283 f   umodsys_lib_libmedia:umodsys.mod.media.stdlib.obj
 0001:00003335       ?bin_save@RLibraryBinTree@stdlib@media@modules@UModSys@@UAE_NABU?$TString@U?$TSCoreConst@D@su@tl@UModSys@@U?$TComparerBinaryHash@D@234@@tl@5@ABUSCMem@core@5@ABUSFlags@libmedia@5@@Z 00404335 f   umodsys_lib_libmedia:umodsys.mod.media.stdlib.obj
 0001:000033db       ?bin_info@RLibraryBinTree@stdlib@media@modules@UModSys@@UAE_NABU?$TString@U?$TSCoreConst@D@su@tl@UModSys@@U?$TComparerBinaryHash@D@234@@tl@5@AAUSFileInfo@libmedia@5@ABUSFlags@95@@Z 004043db f   umodsys_lib_libmedia:umodsys.mod.media.stdlib.obj
 0001:00003473       ?bin_list@RLibraryBinTree@stdlib@media@modules@UModSys@@UAE_NABU?$TString@U?$TSCoreConst@D@su@tl@UModSys@@U?$TComparerBinaryHash@D@234@@tl@5@AAU?$TIStackSocket@USFileInfo@libmedia@UModSys@@@75@ABUSFlags@libmedia@5@@Z 00404473 f   umodsys_lib_libmedia:umodsys.mod.media.stdlib.obj
 0001:00003518       ?mount_get@RLibraryBinTree@stdlib@media@modules@UModSys@@UBE?AUSPoint@ILibraryBinTree@libmedia@5@ABUSId@785@@Z 00404518 f   umodsys_lib_libmedia:umodsys.mod.media.stdlib.obj
 0001:00003567       ?mount_add@RLibraryBinTree@stdlib@media@modules@UModSys@@UAE_NABUSId@ILibraryBinTree@libmedia@5@ABUSPoint@785@@Z 00404567 f   umodsys_lib_libmedia:umodsys.mod.media.stdlib.obj
 0001:00003641       ?mount_remove@RLibraryBinTree@stdlib@media@modules@UModSys@@UAE_NABUSId@ILibraryBinTree@libmedia@5@@Z 00404641 f   umodsys_lib_libmedia:umodsys.mod.media.stdlib.obj
 0001:00003678       ?mount_clear@RLibraryBinTree@stdlib@media@modules@UModSys@@UAE_NXZ 00404678 f   umodsys_lib_libmedia:umodsys.mod.media.stdlib.obj
 0001:00003696       ??0RLibraryBinCache@stdlib@media@modules@UModSys@@QAE@PAUIModObject@base@4@ABUSParameters@core@4@U?$TFlags4State@USMediaFlagUid@libmedia@UModSys@@I@tl@4@@Z 00404696 f   umodsys_lib_libmedia:umodsys.mod.media.stdlib.obj
 0001:000036f6       ??_ERLibraryBinCache@stdlib@media@modules@UModSys@@UAEPAXI@Z 004046f6 f i  CIL library: CIL module
 0001:000036f6       ??_GRLibraryBinCache@stdlib@media@modules@UModSys@@UAEPAXI@Z 004046f6 f i umodsys_lib_libmedia:umodsys.mod.media.stdlib.obj
 0001:00003757       ?get_flags_auto@RLibraryBinCache@stdlib@media@modules@UModSys@@UBE?AU?$TFlags4State@USMediaFlagUid@libmedia@UModSys@@I@tl@5@XZ 00404757 f   umodsys_lib_libmedia:umodsys.mod.media.stdlib.obj
 0001:00003766       ?set_flag@RLibraryObjCache@stdlib@media@modules@UModSys@@UAE?AW4eStates@?$TFlags4State@USMediaFlagUid@libmedia@UModSys@@I@tl@5@HW46785@@Z 00404766 f   umodsys_lib_libmedia:umodsys.mod.media.stdlib.obj
 0001:00003766       ?set_flag@RLibraryBinCache@stdlib@media@modules@UModSys@@UAE?AW4eStates@?$TFlags4State@USMediaFlagUid@libmedia@UModSys@@I@tl@5@HW46785@@Z 00404766 f   umodsys_lib_libmedia:umodsys.mod.media.stdlib.obj
 0001:00003766       ?set_flag@RLibraryObjFilter@stdlib@media@modules@UModSys@@UAE?AW4eStates@?$TFlags4State@USMediaFlagUid@libmedia@UModSys@@I@tl@5@HW46785@@Z 00404766 f   umodsys_lib_libmedia:umodsys.mod.media.stdlib.obj
 0001:00003766       ?set_flag@RLibraryBinTree@stdlib@media@modules@UModSys@@UAE?AW4eStates@?$TFlags4State@USMediaFlagUid@libmedia@UModSys@@I@tl@5@HW46785@@Z 00404766 f   umodsys_lib_libmedia:umodsys.mod.media.stdlib.obj
 0001:00003793       ?bin_load@RLibraryBinCache@stdlib@media@modules@UModSys@@UAE_NABU?$TString@U?$TSCoreConst@D@su@tl@UModSys@@U?$TComparerBinaryHash@D@234@@tl@5@AAUSCMemShared@core@5@ABUSFlags@libmedia@5@@Z 00404793 f   umodsys_lib_libmedia:umodsys.mod.media.stdlib.obj
 0001:000037ea       ?bin_put@RLibraryBinCache@stdlib@media@modules@UModSys@@UAE_NABU?$TString@U?$TSCoreConst@D@su@tl@UModSys@@U?$TComparerBinaryHash@D@234@@tl@5@PBUSCMemShared@core@5@@Z 004047ea f   umodsys_lib_libmedia:umodsys.mod.media.stdlib.obj
 0001:00003800       ?bincache_get@RLibraryBinCache@stdlib@media@modules@UModSys@@UBE_NABU?$TString@U?$TSCoreConst@D@su@tl@UModSys@@U?$TComparerBinaryHash@D@234@@tl@5@PAUSCMemShared@core@5@PA_N@Z 00404800 f   umodsys_lib_libmedia:umodsys.mod.media.stdlib.obj
 0001:00003852       ?bincache_add@RLibraryBinCache@stdlib@media@modules@UModSys@@UAE_NABU?$TString@U?$TSCoreConst@D@su@tl@UModSys@@U?$TComparerBinaryHash@D@234@@tl@5@@Z 00404852 f   umodsys_lib_libmedia:umodsys.mod.media.stdlib.obj
 0001:00003898       ?bincache_add@RLibraryBinCache@stdlib@media@modules@UModSys@@UAE_NABU?$TString@U?$TSCoreConst@D@su@tl@UModSys@@U?$TComparerBinaryHash@D@234@@tl@5@ABUSCMemShared@core@5@@Z 00404898 f   umodsys_lib_libmedia:umodsys.mod.media.stdlib.obj
 0001:000038aa       ?bincache_remove@RLibraryBinCache@stdlib@media@modules@UModSys@@UAE_NABU?$TString@U?$TSCoreConst@D@su@tl@UModSys@@U?$TComparerBinaryHash@D@234@@tl@5@@Z 004048aa f   umodsys_lib_libmedia:umodsys.mod.media.stdlib.obj
 0001:000038e1       ?bincache_clear@RLibraryBinCache@stdlib@media@modules@UModSys@@UAE_NXZ 004048e1 f   umodsys_lib_libmedia:umodsys.mod.media.stdlib.obj
 0001:000038ff       ?bincache_add@RLibraryBinCache@stdlib@media@modules@UModSys@@QAE_NABU?$TString@U?$TSCoreConst@D@su@tl@UModSys@@U?$TComparerBinaryHash@D@234@@tl@5@ABUSCMemShared@core@5@_N@Z 004048ff f   umodsys_lib_libmedia:umodsys.mod.media.stdlib.obj
 0001:000039ac       ??0RLibraryLayered@stdlib@media@modules@UModSys@@QAE@PAUIModObject@base@4@ABUSParameters@core@4@U?$TFlags4State@USMediaFlagUid@libmedia@UModSys@@I@tl@4@@Z 004049ac f   umodsys_lib_libmedia:umodsys.mod.media.stdlib.obj
 0001:00003a1d       ??_ERLibraryLayered@stdlib@media@modules@UModSys@@UAEPAXI@Z 00404a1d f i  CIL library: CIL module
 0001:00003a1d       ??_GRLibraryLayered@stdlib@media@modules@UModSys@@UAEPAXI@Z 00404a1d f i umodsys_lib_libmedia:umodsys.mod.media.stdlib.obj
 0001:00003a51       ?get_flag@RLibraryLayered@stdlib@media@modules@UModSys@@UBE?AW4eStates@?$TFlags4State@USMediaFlagUid@libmedia@UModSys@@I@tl@5@H@Z 00404a51 f   umodsys_lib_libmedia:umodsys.mod.media.stdlib.obj
 0001:00003a64       ?get_flags_auto@RLibraryLayered@stdlib@media@modules@UModSys@@UBE?AU?$TFlags4State@USMediaFlagUid@libmedia@UModSys@@I@tl@5@XZ 00404a64 f   umodsys_lib_libmedia:umodsys.mod.media.stdlib.obj
 0001:00003a73       ?set_flag@RLibraryLayered@stdlib@media@modules@UModSys@@UAE?AW4eStates@?$TFlags4State@USMediaFlagUid@libmedia@UModSys@@I@tl@5@HW46785@@Z 00404a73 f   umodsys_lib_libmedia:umodsys.mod.media.stdlib.obj
 0001:00003aa0       ?bin_reader@RLibraryLayered@stdlib@media@modules@UModSys@@UAE?AU?$TRefObject@UIStreamReader@libmedia@UModSys@@U?$TRefObjectFunc@UIStreamReader@libmedia@UModSys@@@tl@3@@tl@5@ABU?$TString@U?$TSCoreConst@D@su@tl@UModSys@@U?$TComparerBinaryHash@D@234@@75@ABUSFlags@libmedia@5@@Z 00404aa0 f   umodsys_lib_libmedia:umodsys.mod.media.stdlib.obj
 0001:00003b51       ?bin_writer@RLibraryLayered@stdlib@media@modules@UModSys@@UAE?AU?$TRefObject@UIStreamWriter@libmedia@UModSys@@U?$TRefObjectFunc@UIStreamWriter@libmedia@UModSys@@@tl@3@@tl@5@ABU?$TString@U?$TSCoreConst@D@su@tl@UModSys@@U?$TComparerBinaryHash@D@234@@75@ABUSFlags@libmedia@5@@Z 00404b51 f   umodsys_lib_libmedia:umodsys.mod.media.stdlib.obj
 0001:00003c02       ?bin_load@RLibraryLayered@stdlib@media@modules@UModSys@@UAE_NABU?$TString@U?$TSCoreConst@D@su@tl@UModSys@@U?$TComparerBinaryHash@D@234@@tl@5@AAUSCMemShared@core@5@ABUSFlags@libmedia@5@@Z 00404c02 f   umodsys_lib_libmedia:umodsys.mod.media.stdlib.obj
 0001:00003d09       ?bin_save@RLibraryLayered@stdlib@media@modules@UModSys@@UAE_NABU?$TString@U?$TSCoreConst@D@su@tl@UModSys@@U?$TComparerBinaryHash@D@234@@tl@5@ABUSCMem@core@5@ABUSFlags@libmedia@5@@Z 00404d09 f   umodsys_lib_libmedia:umodsys.mod.media.stdlib.obj
 0001:00003e26       ?bin_info@RLibraryLayered@stdlib@media@modules@UModSys@@UAE_NABU?$TString@U?$TSCoreConst@D@su@tl@UModSys@@U?$TComparerBinaryHash@D@234@@tl@5@AAUSFileInfo@libmedia@5@ABUSFlags@95@@Z 00404e26 f   umodsys_lib_libmedia:umodsys.mod.media.stdlib.obj
 0001:00003e96       ?bin_list@RLibraryLayered@stdlib@media@modules@UModSys@@UAE_NABU?$TString@U?$TSCoreConst@D@su@tl@UModSys@@U?$TComparerBinaryHash@D@234@@tl@5@AAU?$TIStackSocket@USFileInfo@libmedia@UModSys@@@75@ABUSFlags@libmedia@5@@Z 00404e96 f   umodsys_lib_libmedia:umodsys.mod.media.stdlib.obj
 0001:00003f0c       ?bin_get@RLibraryLayered@stdlib@media@modules@UModSys@@UAE_NABU?$TString@U?$TSCoreConst@D@su@tl@UModSys@@U?$TComparerBinaryHash@D@234@@tl@5@AAUSCMemShared@core@5@_N@Z 00404f0c f   umodsys_lib_libmedia:umodsys.mod.media.stdlib.obj
 0001:00003f4e       ?bin_put@RLibraryLayered@stdlib@media@modules@UModSys@@UAE_NABU?$TString@U?$TSCoreConst@D@su@tl@UModSys@@U?$TComparerBinaryHash@D@234@@tl@5@PBUSCMemShared@core@5@@Z 00404f4e f   umodsys_lib_libmedia:umodsys.mod.media.stdlib.obj
 0001:00003f8c       ?obj_fget@RLibraryLayered@stdlib@media@modules@UModSys@@UAE_NABUSInfo@IBinObjFilter@libmedia@5@AAU?$TRefObject@UIRefObject@core@UModSys@@U?$TRefObjectFunc@UIRefObject@core@UModSys@@@tl@3@@tl@5@@Z 00404f8c f   umodsys_lib_libmedia:umodsys.mod.media.stdlib.obj
 0001:00003fca       ?obj_fload@RLibraryLayered@stdlib@media@modules@UModSys@@UAE_NABUSInfo@IBinObjFilter@libmedia@5@PAUIRefObject@core@5@@Z 00404fca f   umodsys_lib_libmedia:umodsys.mod.media.stdlib.obj
 0001:00004008       ?obj_fsave@RLibraryLayered@stdlib@media@modules@UModSys@@UAE_NAAUSInfo@IBinObjFilter@libmedia@5@PBUIRefObject@core@5@@Z 00405008 f   umodsys_lib_libmedia:umodsys.mod.media.stdlib.obj
 0001:00004046       ?obj_cget@RLibraryLayered@stdlib@media@modules@UModSys@@UAE_NABU?$TString@U?$TSCoreConst@D@su@tl@UModSys@@U?$TComparerBinaryHash@D@234@@tl@5@AAU?$TRefObject@UIRefObject@core@UModSys@@U?$TRefObjectFunc@UIRefObject@core@UModSys@@@tl@3@@75@_N@Z 00405046 f   umodsys_lib_libmedia:umodsys.mod.media.stdlib.obj
 0001:00004088       ?obj_cput@RLibraryLayered@stdlib@media@modules@UModSys@@UAE_NABU?$TString@U?$TSCoreConst@D@su@tl@UModSys@@U?$TComparerBinaryHash@D@234@@tl@5@PAUIRefObject@core@5@@Z 00405088 f   umodsys_lib_libmedia:umodsys.mod.media.stdlib.obj
 0001:000040c6       ?obj_get@RLibraryLayered@stdlib@media@modules@UModSys@@UAE_NABU?$TString@U?$TSCoreConst@D@su@tl@UModSys@@U?$TComparerBinaryHash@D@234@@tl@5@AAU?$TRefObject@UIRefObject@core@UModSys@@U?$TRefObjectFunc@UIRefObject@core@UModSys@@@tl@3@@75@ABUSObjOptions@ILibrary@libmedia@5@@Z 004050c6 f   umodsys_lib_libmedia:umodsys.mod.media.stdlib.obj
 0001:00004266       ?obj_load@RLibraryLayered@stdlib@media@modules@UModSys@@UAE_NABU?$TString@U?$TSCoreConst@D@su@tl@UModSys@@U?$TComparerBinaryHash@D@234@@tl@5@PAUIRefObject@core@5@ABUSObjOptions@ILibrary@libmedia@5@@Z 00405266 f   umodsys_lib_libmedia:umodsys.mod.media.stdlib.obj
 0001:00004367       ?obj_save@RLibraryLayered@stdlib@media@modules@UModSys@@UAE_NABU?$TString@U?$TSCoreConst@D@su@tl@UModSys@@U?$TComparerBinaryHash@D@234@@tl@5@PBUIRefObject@core@5@ABUSObjOptions@ILibrary@libmedia@5@@Z 00405367 f   umodsys_lib_libmedia:umodsys.mod.media.stdlib.obj
 0001:0000448f       ?layer_count@RLibraryLayered@stdlib@media@modules@UModSys@@UBEIABUSLayer@ILibraryLayered@libmedia@5@@Z 0040548f f   umodsys_lib_libmedia:umodsys.mod.media.stdlib.obj
 0001:00004495       ?layer_get@RLibraryLayered@stdlib@media@modules@UModSys@@UBE?AUSLayer@ILibraryLayered@libmedia@5@I@Z 00405495 f   umodsys_lib_libmedia:umodsys.mod.media.stdlib.obj
 0001:000044b8       ??0SLayer@ILibraryLayered@libmedia@UModSys@@QAE@ABU0123@@Z 004054b8 f i umodsys_lib_libmedia:umodsys.mod.media.stdlib.obj
 0001:000044e4       ?layer_find@RLibraryLayered@stdlib@media@modules@UModSys@@UBEIABU?$TString@U?$TSCoreConst@D@su@tl@UModSys@@U?$TComparerBinaryHash@D@234@@tl@5@I@Z 004054e4 f   umodsys_lib_libmedia:umodsys.mod.media.stdlib.obj
 0001:0000452c       ?layer_insert@RLibraryLayered@stdlib@media@modules@UModSys@@UAE_NABUSLayer@ILibraryLayered@libmedia@5@I@Z 0040552c f   umodsys_lib_libmedia:umodsys.mod.media.stdlib.obj
 0001:0000459f       ?layer_remove@RLibraryLayered@stdlib@media@modules@UModSys@@UAE_NI@Z 0040559f f   umodsys_lib_libmedia:umodsys.mod.media.stdlib.obj
 0001:000045e9       ?layer_clear@RLibraryLayered@stdlib@media@modules@UModSys@@UAE_NXZ 004055e9 f   umodsys_lib_libmedia:umodsys.mod.media.stdlib.obj
 0001:000045f3       ??0RLibraryObjCache@stdlib@media@modules@UModSys@@QAE@PAUIModObject@base@4@ABUSParameters@core@4@U?$TFlags4State@USMediaFlagUid@libmedia@UModSys@@I@tl@4@@Z 004055f3 f   umodsys_lib_libmedia:umodsys.mod.media.stdlib.obj
 0001:00004653       ??_ERLibraryObjCache@stdlib@media@modules@UModSys@@UAEPAXI@Z 00405653 f i  CIL library: CIL module
 0001:00004653       ??_GRLibraryObjCache@stdlib@media@modules@UModSys@@UAEPAXI@Z 00405653 f i umodsys_lib_libmedia:umodsys.mod.media.stdlib.obj
 0001:000046b4       ?get_flag@RLibraryBinTree@stdlib@media@modules@UModSys@@UBE?AW4eStates@?$TFlags4State@USMediaFlagUid@libmedia@UModSys@@I@tl@5@H@Z 004056b4 f   umodsys_lib_libmedia:umodsys.mod.media.stdlib.obj
 0001:000046b4       ?get_flag@RLibraryObjCache@stdlib@media@modules@UModSys@@UBE?AW4eStates@?$TFlags4State@USMediaFlagUid@libmedia@UModSys@@I@tl@5@H@Z 004056b4 f   umodsys_lib_libmedia:umodsys.mod.media.stdlib.obj
 0001:000046b4       ?get_flag@RLibraryObjFilter@stdlib@media@modules@UModSys@@UBE?AW4eStates@?$TFlags4State@USMediaFlagUid@libmedia@UModSys@@I@tl@5@H@Z 004056b4 f   umodsys_lib_libmedia:umodsys.mod.media.stdlib.obj
 0001:000046b4       ?get_flag@RLibraryBinCache@stdlib@media@modules@UModSys@@UBE?AW4eStates@?$TFlags4State@USMediaFlagUid@libmedia@UModSys@@I@tl@5@H@Z 004056b4 f   umodsys_lib_libmedia:umodsys.mod.media.stdlib.obj
 0001:000046c7       ?get_flags_auto@RLibraryObjCache@stdlib@media@modules@UModSys@@UBE?AU?$TFlags4State@USMediaFlagUid@libmedia@UModSys@@I@tl@5@XZ 004056c7 f   umodsys_lib_libmedia:umodsys.mod.media.stdlib.obj
 0001:000046d6       ?obj_cget@RLibraryObjCache@stdlib@media@modules@UModSys@@UAE_NABU?$TString@U?$TSCoreConst@D@su@tl@UModSys@@U?$TComparerBinaryHash@D@234@@tl@5@AAU?$TRefObject@UIRefObject@core@UModSys@@U?$TRefObjectFunc@UIRefObject@core@UModSys@@@tl@3@@75@_N@Z 004056d6 f   umodsys_lib_libmedia:umodsys.mod.media.stdlib.obj
 0001:000046d6       ?bin_get@RLibraryBinCache@stdlib@media@modules@UModSys@@UAE_NABU?$TString@U?$TSCoreConst@D@su@tl@UModSys@@U?$TComparerBinaryHash@D@234@@tl@5@AAUSCMemShared@core@5@_N@Z 004056d6 f   umodsys_lib_libmedia:umodsys.mod.media.stdlib.obj
 0001:00004702       ?obj_cput@RLibraryObjCache@stdlib@media@modules@UModSys@@UAE_NABU?$TString@U?$TSCoreConst@D@su@tl@UModSys@@U?$TComparerBinaryHash@D@234@@tl@5@PAUIRefObject@core@5@@Z 00405702 f   umodsys_lib_libmedia:umodsys.mod.media.stdlib.obj
 0001:00004707       ?obj_get@RLibraryObjCache@stdlib@media@modules@UModSys@@UAE_NABU?$TString@U?$TSCoreConst@D@su@tl@UModSys@@U?$TComparerBinaryHash@D@234@@tl@5@AAU?$TRefObject@UIRefObject@core@UModSys@@U?$TRefObjectFunc@UIRefObject@core@UModSys@@@tl@3@@75@ABUSObjOptions@ILibrary@libmedia@5@@Z 00405707 f   umodsys_lib_libmedia:umodsys.mod.media.stdlib.obj
 0001:0000478d       ?objcache_get@RLibraryObjCache@stdlib@media@modules@UModSys@@UBE_NABU?$TString@U?$TSCoreConst@D@su@tl@UModSys@@U?$TComparerBinaryHash@D@234@@tl@5@PAU?$TRefObject@UIRefObject@core@UModSys@@U?$TRefObjectFunc@UIRefObject@core@UModSys@@@tl@3@@75@PA_N@Z 0040578d f   umodsys_lib_libmedia:umodsys.mod.media.stdlib.obj
 0001:000047f9       ?objcache_add@RLibraryObjCache@stdlib@media@modules@UModSys@@UAE_NABU?$TString@U?$TSCoreConst@D@su@tl@UModSys@@U?$TComparerBinaryHash@D@234@@tl@5@PAUIRefObject@core@5@@Z 004057f9 f   umodsys_lib_libmedia:umodsys.mod.media.stdlib.obj
 0001:000048a4       ?objcache_remove@RLibraryObjCache@stdlib@media@modules@UModSys@@UAE_NABU?$TString@U?$TSCoreConst@D@su@tl@UModSys@@U?$TComparerBinaryHash@D@234@@tl@5@@Z 004058a4 f   umodsys_lib_libmedia:umodsys.mod.media.stdlib.obj
 0001:000048db       ?objcache_clear@RLibraryObjCache@stdlib@media@modules@UModSys@@UAE_NXZ 004058db f   umodsys_lib_libmedia:umodsys.mod.media.stdlib.obj
 0001:000048f9       ??0RLibraryObjFilter@stdlib@media@modules@UModSys@@QAE@PAUIModObject@base@4@ABUSParameters@core@4@U?$TFlags4State@USMediaFlagUid@libmedia@UModSys@@I@tl@4@@Z 004058f9 f   umodsys_lib_libmedia:umodsys.mod.media.stdlib.obj
 0001:00004959       ??_ERLibraryObjFilter@stdlib@media@modules@UModSys@@UAEPAXI@Z 00405959 f i  CIL library: CIL module
 0001:00004959       ??_GRLibraryObjFilter@stdlib@media@modules@UModSys@@UAEPAXI@Z 00405959 f i umodsys_lib_libmedia:umodsys.mod.media.stdlib.obj
 0001:000049ba       ??1ILibraryLayered@libmedia@UModSys@@UAE@XZ 004059ba f i umodsys_lib_libmedia:umodsys.mod.media.stdlib.obj
 0001:000049ba       ??1IBinArchive@libmedia@UModSys@@UAE@XZ 004059ba f i umodsys_lib_libmedia:umodsys.mod.media.stdio.obj
 0001:000049ba       ??1ILibraryObjFilter@libmedia@UModSys@@UAE@XZ 004059ba f i umodsys_lib_libmedia:umodsys.mod.media.stdlib.obj
 0001:000049ba       ??1ILibraryBinTree@libmedia@UModSys@@UAE@XZ 004059ba f i umodsys_lib_libmedia:umodsys.mod.media.stdlib.obj
 0001:000049ba       ??1ILibraryObjCache@libmedia@UModSys@@UAE@XZ 004059ba f i umodsys_lib_libmedia:umodsys.mod.media.stdlib.obj
 0001:000049ba       ??1ILibraryBinCache@libmedia@UModSys@@UAE@XZ 004059ba f i umodsys_lib_libmedia:umodsys.mod.media.stdlib.obj
 0001:000049bf       ?get_flags_auto@RLibraryObjFilter@stdlib@media@modules@UModSys@@UBE?AU?$TFlags4State@USMediaFlagUid@libmedia@UModSys@@I@tl@5@XZ 004059bf f   umodsys_lib_libmedia:umodsys.mod.media.stdlib.obj
 0001:000049ce       ?obj_fget@RLibraryObjFilter@stdlib@media@modules@UModSys@@UAE_NABUSInfo@IBinObjFilter@libmedia@5@AAU?$TRefObject@UIRefObject@core@UModSys@@U?$TRefObjectFunc@UIRefObject@core@UModSys@@@tl@3@@tl@5@@Z 004059ce f   umodsys_lib_libmedia:umodsys.mod.media.stdlib.obj
 0001:000049d6       ?obj_fload@RLibraryObjFilter@stdlib@media@modules@UModSys@@UAE_NABUSInfo@IBinObjFilter@libmedia@5@PAUIRefObject@core@5@@Z 004059d6 f   umodsys_lib_libmedia:umodsys.mod.media.stdlib.obj
 0001:000049db       ?obj_fsave@RLibraryObjFilter@stdlib@media@modules@UModSys@@UAE_NAAUSInfo@IBinObjFilter@libmedia@5@PBUIRefObject@core@5@@Z 004059db f   umodsys_lib_libmedia:umodsys.mod.media.stdlib.obj
 0001:000049e3       ?filters_add@RLibraryObjFilter@stdlib@media@modules@UModSys@@UAE_NU?$TRefObject@UIBinObjFilter@libmedia@UModSys@@U?$TRefObjectFunc@UIBinObjFilter@libmedia@UModSys@@@tl@3@@tl@5@PBUSParameters@core@5@H@Z 004059e3 f   umodsys_lib_libmedia:umodsys.mod.media.stdlib.obj
 0001:00004a7f       ?filters_remove@RLibraryObjFilter@stdlib@media@modules@UModSys@@UAE_NPAUIBinObjFilter@libmedia@5@H@Z 00405a7f f   umodsys_lib_libmedia:umodsys.mod.media.stdlib.obj
 0001:00004acf       ?filters_clear@RLibraryObjFilter@stdlib@media@modules@UModSys@@UAE_NXZ 00405acf f   umodsys_lib_libmedia:umodsys.mod.media.stdlib.obj
 0001:00004aed       ?filters_load@RLibraryObjFilter@stdlib@media@modules@UModSys@@UAE_NABUSInfo@IBinObjFilter@libmedia@5@AAU?$TRefObject@UIRefObject@core@UModSys@@U?$TRefObjectFunc@UIRefObject@core@UModSys@@@tl@3@@tl@5@@Z 00405aed f   umodsys_lib_libmedia:umodsys.mod.media.stdlib.obj
 0001:00004b4a       ?filters_load@RLibraryObjFilter@stdlib@media@modules@UModSys@@UAE_NABUSInfo@IBinObjFilter@libmedia@5@PAUIRefObject@core@5@@Z 00405b4a f   umodsys_lib_libmedia:umodsys.mod.media.stdlib.obj
 0001:00004ba7       ?filters_save@RLibraryObjFilter@stdlib@media@modules@UModSys@@UAE_NAAUSInfo@IBinObjFilter@libmedia@5@PBUIRefObject@core@5@@Z 00405ba7 f   umodsys_lib_libmedia:umodsys.mod.media.stdlib.obj
 0001:00004c04       ?do_open@RModuleReg@stdlib@media@modules@UModSys@@UAE_NXZ 00405c04 f i umodsys_lib_libmedia:umodsys.mod.media.stdlib.obj
 0001:00004c52       ?do_close@RModuleReg@stdlib@media@modules@UModSys@@UAE_NXZ 00405c52 f i umodsys_lib_libmedia:umodsys.mod.media.stdlib.obj
 0001:00004c8d       ?get_module@RGenerator@stdlib@media@modules@UModSys@@UBEPAUIModule@base@5@XZ 00405c8d f   umodsys_lib_libmedia:umodsys.mod.media.stdlib.obj
 0001:00004c93       ?mod_inc@RGenerator@stdlib@media@modules@UModSys@@UBE_NXZ 00405c93 f   umodsys_lib_libmedia:umodsys.mod.media.stdlib.obj
 0001:00004c9e       ?mod_dec@RGenerator@stdlib@media@modules@UModSys@@UBE_NXZ 00405c9e f   umodsys_lib_libmedia:umodsys.mod.media.stdlib.obj
 0001:00004ca9       ?s_holder@RGenerator@stdlib@media@modules@UModSys@@SAAAU?$TTypeStaticHolder@URGenerator@stdlib@media@modules@UModSys@@@tl@5@XZ 00405ca9 f   umodsys_lib_libmedia:umodsys.mod.media.stdlib.obj
 0001:00004cdb       ?cat@?$TSCoreBuffer@D@su@tl@UModSys@@QAE_NPBDI@Z 00405cdb f i umodsys_lib_libmedia:umodsys.mod.media.stdlib.obj
 0001:00004d19       ??4?$TString@U?$TSCoreConst@D@su@tl@UModSys@@U?$TComparerBinaryHash@D@234@@tl@UModSys@@QAEABU012@PBD@Z 00405d19 f i umodsys_lib_libmedia:umodsys.mod.media.stdlib.obj
 0001:00004d35       ??0?$TString@U?$TSCoreShared@USIMemAlloc@core@UModSys@@D@su@tl@UModSys@@U?$TComparerBinaryHash@D@234@@tl@UModSys@@QAE@ABU?$TSCoreConst@D@su@12@@Z 00405d35 f i umodsys_lib_libmedia:umodsys.mod.media.stdlib.obj
 0001:00004d76       ??4?$TString@U?$TSCoreShared@USIMemAlloc@core@UModSys@@D@su@tl@UModSys@@U?$TComparerBinaryHash@D@234@@tl@UModSys@@QAEABU012@ABU012@@Z 00405d76 f i umodsys_lib_libmedia:umodsys.mod.media.stdlib.obj
 0001:00004d98       ?update@?$TString@U?$TSCoreConst@D@su@tl@UModSys@@U?$TComparerUtfNocaseHash@D@234@@tl@UModSys@@QAEXXZ 00405d98 f i umodsys_lib_libmedia:umodsys.mod.media.stdlib.obj
 0001:00004ddf       ?Resize@?$TDynarray@U?$TDynarrayHolderDynamic@EU?$TAllocator@USIMemAlloc@core@UModSys@@USCountCalcPower2@23@@tl@UModSys@@@tl@UModSys@@@tl@UModSys@@QAE_NI@Z 00405ddf f i umodsys_lib_libmedia:umodsys.mod.media.stdlib.obj
 0001:00004e31       ??1?$TTreeHoldRBD@UNameNode@IBinArchiveFrame@libmedia@UModSys@@U?$TNodeDeleter0@UNameNode@IBinArchiveFrame@libmedia@UModSys@@@tl@4@@tl@UModSys@@QAE@XZ 00405e31 f i umodsys_lib_libmedia:umodsys.mod.media.stdlib.obj
 0001:00004e47       ??R?$TScatterArray@USFilter@RLibraryObjFilter@stdlib@media@modules@UModSys@@USId@23456@U723456@U?$TNodeDeleter0@U?$TScatterArrayNode@USFilter@RLibraryObjFilter@stdlib@media@modules@UModSys@@USId@23456@@tl@UModSys@@@tl@6@@tl@UModSys@@QAEPAUSFilter@RLibraryObjFilter@stdlib@media@modules@2@ABUSId@45672@PAUVoid@core@2@@Z 00405e47 f i umodsys_lib_libmedia:umodsys.mod.media.stdlib.obj
 0001:00004eaa       ??E?$TTreeIterRB@$$CBU?$TScatterArrayNode@USFilter@RLibraryObjFilter@stdlib@media@modules@UModSys@@USId@23456@@tl@UModSys@@$$CBU?$TPair@USId@RLibraryObjFilter@stdlib@media@modules@UModSys@@USFilter@23456@@23@@tl@UModSys@@QAE?AU012@XZ 00405eaa f i umodsys_lib_libmedia:umodsys.mod.media.stdlib.obj
 0001:00004eaa       ??E?$TTreeIterRB@$$CBU?$TScatterArrayNode@USMountInfo@RLibraryBinTree@stdlib@media@modules@UModSys@@USId@ILibraryBinTree@libmedia@6@@tl@UModSys@@$$CBU?$TPair@USId@ILibraryBinTree@libmedia@UModSys@@USMountInfo@RLibraryBinTree@stdlib@media@modules@4@@23@@tl@UModSys@@QAE?AU012@XZ 00405eaa f i umodsys_lib_libmedia:umodsys.mod.media.stdlib.obj
 0001:00004ed4       ??1?$TDynarray@U?$TDynarrayHolderDynamic@EU?$TAllocator@USIMemAlloc@core@UModSys@@USCountCalcPower2@23@@tl@UModSys@@@tl@UModSys@@@tl@UModSys@@QAE@XZ 00405ed4 f i umodsys_lib_libmedia:umodsys.mod.media.stdlib.obj
 0001:00004f16       ??1?$TDynarray@U?$TDynarrayHolderDynamic@UBuffer@RUtilities@stdlib@media@modules@UModSys@@U?$TAllocator@USIMemAlloc@core@UModSys@@USCountCalcPower2@23@@tl@6@@tl@UModSys@@@tl@UModSys@@QAE@XZ 00405f16 f i umodsys_lib_libmedia:umodsys.mod.media.stdlib.obj
 0001:00004f5c       ??1?$TDynarray@U?$TDynarrayHolderDynamic@USLayerX@RLibraryLayered@stdlib@media@modules@UModSys@@U?$TAllocator@USIMemAlloc@core@UModSys@@USCountCalcPower2@23@@tl@6@@tl@UModSys@@@tl@UModSys@@QAE@XZ 00405f5c f i umodsys_lib_libmedia:umodsys.mod.media.stdlib.obj
 0001:00004f9c       ?Resize@?$TDynarray@U?$TDynarrayHolderDynamic@USLayerX@RLibraryLayered@stdlib@media@modules@UModSys@@U?$TAllocator@USIMemAlloc@core@UModSys@@USCountCalcPower2@23@@tl@6@@tl@UModSys@@@tl@UModSys@@QAE_NI@Z 00405f9c f i umodsys_lib_libmedia:umodsys.mod.media.stdlib.obj
 0001:00004ffe       ?remove_node@?$TTreeHoldRB@U?$TScatterArrayNode@USCacheElem@RLibraryObjCache@stdlib@media@modules@UModSys@@U?$TString@U?$TSCoreConst@D@su@tl@UModSys@@U?$TComparerBinaryHash@D@234@@tl@6@@tl@UModSys@@@tl@UModSys@@QAEXPAU?$TScatterArrayNode@USCacheElem@RLibraryObjCache@stdlib@media@modules@UModSys@@U?$TString@U?$TSCoreConst@D@su@tl@UModSys@@U?$TComparerBinaryHash@D@234@@tl@6@@23@@Z 00405ffe f i umodsys_lib_libmedia:umodsys.mod.media.stdlib.obj
 0001:00004ffe       ?remove_node@?$TTreeHoldRB@U?$TScatterArrayNode@USMountInfo@RLibraryBinTree@stdlib@media@modules@UModSys@@USId@ILibraryBinTree@libmedia@6@@tl@UModSys@@@tl@UModSys@@QAEXPAU?$TScatterArrayNode@USMountInfo@RLibraryBinTree@stdlib@media@modules@UModSys@@USId@ILibraryBinTree@libmedia@6@@23@@Z 00405ffe f i umodsys_lib_libmedia:umodsys.mod.media.stdlib.obj
 0001:00004ffe       ?remove_node@?$TTreeHoldRB@U?$TScatterArrayNode@USCacheElem@RLibraryBinCache@stdlib@media@modules@UModSys@@U?$TString@U?$TSCoreConst@D@su@tl@UModSys@@U?$TComparerBinaryHash@D@234@@tl@6@@tl@UModSys@@@tl@UModSys@@QAEXPAU?$TScatterArrayNode@USCacheElem@RLibraryBinCache@stdlib@media@modules@UModSys@@U?$TString@U?$TSCoreConst@D@su@tl@UModSys@@U?$TComparerBinaryHash@D@234@@tl@6@@23@@Z 00405ffe f i umodsys_lib_libmedia:umodsys.mod.media.stdlib.obj
 0001:00004ffe       ?remove_node@?$TTreeHoldRB@UNameNode@IBinArchiveFrame@libmedia@UModSys@@@tl@UModSys@@QAEXPAUNameNode@IBinArchiveFrame@libmedia@3@@Z 00405ffe f i umodsys_lib_libmedia:umodsys.mod.media.stdlib.obj
 0001:00004ffe       ?remove_node@?$TTreeHoldRB@U?$TScatterArrayNode@USFilter@RLibraryObjFilter@stdlib@media@modules@UModSys@@USId@23456@@tl@UModSys@@@tl@UModSys@@QAEXPAU?$TScatterArrayNode@USFilter@RLibraryObjFilter@stdlib@media@modules@UModSys@@USId@23456@@23@@Z 00405ffe f i umodsys_lib_libmedia:umodsys.mod.media.stdlib.obj
 0001:000050db       ??1?$TPair@USId@ILibraryBinTree@libmedia@UModSys@@USMountInfo@RLibraryBinTree@stdlib@media@modules@4@@tl@UModSys@@QAE@XZ 004060db f i umodsys_lib_libmedia:umodsys.mod.media.stdlib.obj
 0001:000050e5       ??1?$TPair@U?$TString@U?$TSCoreConst@D@su@tl@UModSys@@U?$TComparerBinaryHash@D@234@@tl@UModSys@@USCacheElem@RLibraryBinCache@stdlib@media@modules@3@@tl@UModSys@@QAE@XZ 004060e5 f i umodsys_lib_libmedia:umodsys.mod.media.stdlib.obj
 0001:000050ef       ??1?$TPair@U?$TString@U?$TSCoreConst@D@su@tl@UModSys@@U?$TComparerBinaryHash@D@234@@tl@UModSys@@USCacheElem@RLibraryObjCache@stdlib@media@modules@3@@tl@UModSys@@QAE@XZ 004060ef f i umodsys_lib_libmedia:umodsys.mod.media.stdlib.obj
 0001:000050f9       ??1?$TPair@USId@RLibraryObjFilter@stdlib@media@modules@UModSys@@USFilter@23456@@tl@UModSys@@QAE@XZ 004060f9 f i umodsys_lib_libmedia:umodsys.mod.media.stdlib.obj
 0001:0000510a       ??1SMountInfo@RLibraryBinTree@stdlib@media@modules@UModSys@@QAE@XZ 0040610a f i umodsys_lib_libmedia:umodsys.mod.media.stdlib.obj
 0001:00005149       ??1SCacheElem@RLibraryBinCache@stdlib@media@modules@UModSys@@QAE@XZ 00406149 f i umodsys_lib_libmedia:umodsys.mod.media.stdlib.obj
 0001:00005183       ??1SCacheElem@RLibraryObjCache@stdlib@media@modules@UModSys@@QAE@XZ 00406183 f i umodsys_lib_libmedia:umodsys.mod.media.stdlib.obj
 0001:000051bd       ??$?8U?$TSCoreConst@D@su@tl@UModSys@@U?$TComparerBinaryHash@D@123@@?$TString@U?$TSCoreConst@D@su@tl@UModSys@@U?$TComparerBinaryHash@D@234@@tl@UModSys@@QBE_NABU012@@Z 004061bd f i umodsys_lib_libmedia:umodsys.mod.media.stdlib.obj
 0001:000051f8       ??$compare@U?$TSCoreConst@D@su@tl@UModSys@@@?$TString@U?$TSCoreConst@D@su@tl@UModSys@@U?$TComparerBinaryHash@D@234@@tl@UModSys@@QBEHABU012@@Z 004061f8 f i umodsys_lib_libmedia:umodsys.mod.media.stdlib.obj
 0001:00005221       ?ResizeRel@?$TDynarray@U?$TDynarrayHolderDynamic@UBuffer@RUtilities@stdlib@media@modules@UModSys@@U?$TAllocator@USIMemAlloc@core@UModSys@@USCountCalcPower2@23@@tl@6@@tl@UModSys@@@tl@UModSys@@QAE_NH@Z 00406221 f i umodsys_lib_libmedia:umodsys.mod.media.stdlib.obj
 0001:000052a5       ??$new_node@U?$TString@U?$TSCoreConst@D@su@tl@UModSys@@U?$TComparerUtfNocaseHash@D@234@@tl@UModSys@@@RBinArchiveFrame@stdlib@media@modules@UModSys@@SAPAUNameNode@IBinArchiveFrame@libmedia@4@ABU?$TString@U?$TSCoreConst@D@su@tl@UModSys@@U?$TComparerUtfNocaseHash@D@234@@tl@4@HPAUSMem@core@4@@Z 004062a5 f i umodsys_lib_libmedia:umodsys.mod.media.stdlib.obj
 0001:00005312       ??$new_node@U?$TString@U?$TSCoreConst@D@su@tl@UModSys@@U?$TComparerBinaryHash@D@234@@tl@UModSys@@@RBinArchiveFrame@stdlib@media@modules@UModSys@@SAPAUNameNode@IBinArchiveFrame@libmedia@4@ABU?$TString@U?$TSCoreConst@D@su@tl@UModSys@@U?$TComparerBinaryHash@D@234@@tl@4@HPAUSMem@core@4@@Z 00406312 f i umodsys_lib_libmedia:umodsys.mod.media.stdlib.obj
 0001:0000537f       ?remove_color@?$TTreeHoldRB@U?$TScatterArrayNode@USCacheElem@RLibraryObjCache@stdlib@media@modules@UModSys@@U?$TString@U?$TSCoreConst@D@su@tl@UModSys@@U?$TComparerBinaryHash@D@234@@tl@6@@tl@UModSys@@@tl@UModSys@@IAEXPAU?$TScatterArrayNode@USCacheElem@RLibraryObjCache@stdlib@media@modules@UModSys@@U?$TString@U?$TSCoreConst@D@su@tl@UModSys@@U?$TComparerBinaryHash@D@234@@tl@6@@23@0@Z 0040637f f i umodsys_lib_libmedia:umodsys.mod.media.stdlib.obj
 0001:0000537f       ?remove_color@?$TTreeHoldRB@U?$TScatterArrayNode@USFilter@RLibraryObjFilter@stdlib@media@modules@UModSys@@USId@23456@@tl@UModSys@@@tl@UModSys@@IAEXPAU?$TScatterArrayNode@USFilter@RLibraryObjFilter@stdlib@media@modules@UModSys@@USId@23456@@23@0@Z 0040637f f i umodsys_lib_libmedia:umodsys.mod.media.stdlib.obj
 0001:0000537f       ?remove_color@?$TTreeHoldRB@U?$TScatterArrayNode@USMountInfo@RLibraryBinTree@stdlib@media@modules@UModSys@@USId@ILibraryBinTree@libmedia@6@@tl@UModSys@@@tl@UModSys@@IAEXPAU?$TScatterArrayNode@USMountInfo@RLibraryBinTree@stdlib@media@modules@UModSys@@USId@ILibraryBinTree@libmedia@6@@23@0@Z 0040637f f i umodsys_lib_libmedia:umodsys.mod.media.stdlib.obj
 0001:0000537f       ?remove_color@?$TTreeHoldRB@U?$TScatterArrayNode@USCacheElem@RLibraryBinCache@stdlib@media@modules@UModSys@@U?$TString@U?$TSCoreConst@D@su@tl@UModSys@@U?$TComparerBinaryHash@D@234@@tl@6@@tl@UModSys@@@tl@UModSys@@IAEXPAU?$TScatterArrayNode@USCacheElem@RLibraryBinCache@stdlib@media@modules@UModSys@@U?$TString@U?$TSCoreConst@D@su@tl@UModSys@@U?$TComparerBinaryHash@D@234@@tl@6@@23@0@Z 0040637f f i umodsys_lib_libmedia:umodsys.mod.media.stdlib.obj
 0001:0000537f       ?remove_color@?$TTreeHoldRB@UNameNode@IBinArchiveFrame@libmedia@UModSys@@@tl@UModSys@@IAEXPAUNameNode@IBinArchiveFrame@libmedia@3@0@Z 0040637f f i umodsys_lib_libmedia:umodsys.mod.media.stdlib.obj
 0001:00005481       ??$?4U?$TSCoreConst@D@su@tl@UModSys@@U?$TComparerBinaryHash@D@123@@?$TString@U?$TSCoreShared@USIMemAlloc@core@UModSys@@D@su@tl@UModSys@@U?$TComparerBinaryHash@D@234@@tl@UModSys@@QAEXABU?$TString@U?$TSCoreConst@D@su@tl@UModSys@@U?$TComparerBinaryHash@D@234@@12@@Z 00406481 f i umodsys_lib_libmedia:umodsys.mod.media.stdlib.obj
 0001:000054a6       ??$t_gen_param@URLibraryBinCache@stdlib@media@modules@UModSys@@URGenerator@2345@@IGenerator@base@UModSys@@IAE_NPAURGenerator@stdlib@media@modules@2@AAU?$TRefObject@UIRefObject@core@UModSys@@U?$TRefObjectFunc@UIRefObject@core@UModSys@@@tl@3@@tl@2@PBUSUniquePointerInfo@core@2@ABUSParameters@core@2@@Z 004064a6 f i umodsys_lib_libmedia:umodsys.mod.media.stdlib.obj
 0001:00005523       ??$t_gen_param@URLibraryBinTree@stdlib@media@modules@UModSys@@URGenerator@2345@@IGenerator@base@UModSys@@IAE_NPAURGenerator@stdlib@media@modules@2@AAU?$TRefObject@UIRefObject@core@UModSys@@U?$TRefObjectFunc@UIRefObject@core@UModSys@@@tl@3@@tl@2@PBUSUniquePointerInfo@core@2@ABUSParameters@core@2@@Z 00406523 f i umodsys_lib_libmedia:umodsys.mod.media.stdlib.obj
 0001:000055a0       ??$t_gen_param@URLibraryLayered@stdlib@media@modules@UModSys@@URGenerator@2345@@IGenerator@base@UModSys@@IAE_NPAURGenerator@stdlib@media@modules@2@AAU?$TRefObject@UIRefObject@core@UModSys@@U?$TRefObjectFunc@UIRefObject@core@UModSys@@@tl@3@@tl@2@PBUSUniquePointerInfo@core@2@ABUSParameters@core@2@@Z 004065a0 f i umodsys_lib_libmedia:umodsys.mod.media.stdlib.obj
 0001:0000561d       ??$t_gen_param@URLibraryObjFilter@stdlib@media@modules@UModSys@@URGenerator@2345@@IGenerator@base@UModSys@@IAE_NPAURGenerator@stdlib@media@modules@2@AAU?$TRefObject@UIRefObject@core@UModSys@@U?$TRefObjectFunc@UIRefObject@core@UModSys@@@tl@3@@tl@2@PBUSUniquePointerInfo@core@2@ABUSParameters@core@2@@Z 0040661d f i umodsys_lib_libmedia:umodsys.mod.media.stdlib.obj
 0001:0000569a       ??$t_gen_param@URLibraryObjCache@stdlib@media@modules@UModSys@@URGenerator@2345@@IGenerator@base@UModSys@@IAE_NPAURGenerator@stdlib@media@modules@2@AAU?$TRefObject@UIRefObject@core@UModSys@@U?$TRefObjectFunc@UIRefObject@core@UModSys@@@tl@3@@tl@2@PBUSUniquePointerInfo@core@2@ABUSParameters@core@2@@Z 0040669a f i umodsys_lib_libmedia:umodsys.mod.media.stdlib.obj
 0001:00005717       ??$t_gen_param@URBinArchiveFrame@stdlib@media@modules@UModSys@@URGenerator@2345@@IGenerator@base@UModSys@@IAE_NPAURGenerator@stdlib@media@modules@2@AAU?$TRefObject@UIRefObject@core@UModSys@@U?$TRefObjectFunc@UIRefObject@core@UModSys@@@tl@3@@tl@2@PBUSUniquePointerInfo@core@2@ABUSParameters@core@2@@Z 00406717 f i umodsys_lib_libmedia:umodsys.mod.media.stdlib.obj
 0001:000057aa       ??$t_gen_param@URUtilities@stdlib@media@modules@UModSys@@URGenerator@2345@@IGenerator@base@UModSys@@IAE_NPAURGenerator@stdlib@media@modules@2@AAU?$TRefObject@UIRefObject@core@UModSys@@U?$TRefObjectFunc@UIRefObject@core@UModSys@@@tl@3@@tl@2@PBUSUniquePointerInfo@core@2@ABUSParameters@core@2@@Z 004067aa f i umodsys_lib_libmedia:umodsys.mod.media.stdlib.obj
 0001:00005824       ??$wildcmp@D@su@tl@UModSys@@YA_NPBD0@Z 00406824 f i umodsys_lib_libmedia:umodsys.mod.media.stdlib.obj
 0001:0000589c       ??$ref_get@UIClient@IBinArchiveFrame@libmedia@UModSys@@@SParameters@core@UModSys@@QBE_NPBDAAPAUIClient@IBinArchiveFrame@libmedia@2@@Z 0040689c f i umodsys_lib_libmedia:umodsys.mod.media.stdlib.obj
 0001:000058e1       ??$ref_get@UILibrary@libmedia@UModSys@@U?$TRefObjectFunc@UILibrary@libmedia@UModSys@@@tl@3@@SParameters@core@UModSys@@QBE_NPBDAAU?$TRefObject@UILibrary@libmedia@UModSys@@U?$TRefObjectFunc@UILibrary@libmedia@UModSys@@@tl@3@@tl@2@@Z 004068e1 f i umodsys_lib_libmedia:umodsys.mod.media.stdlib.obj
 0001:00005939       ??$gen_node@UNameNodeCmpUC@IBinArchiveFrame@libmedia@UModSys@@UNN_Add@RBinArchiveFrame@stdlib@media@modules@4@@?$TTreeHoldRB@UNameNode@IBinArchiveFrame@libmedia@UModSys@@@tl@UModSys@@QAEPAUNameNode@IBinArchiveFrame@libmedia@2@UNameNodeCmpUC@452@ABUNN_Add@RBinArchiveFrame@stdlib@media@modules@2@PAPAU3452@2_N@Z 00406939 f i umodsys_lib_libmedia:umodsys.mod.media.stdlib.obj
 0001:000059c0       ??$gen_node@UNameNodeCmpC@IBinArchiveFrame@libmedia@UModSys@@UNN_Add@RBinArchiveFrame@stdlib@media@modules@4@@?$TTreeHoldRB@UNameNode@IBinArchiveFrame@libmedia@UModSys@@@tl@UModSys@@QAEPAUNameNode@IBinArchiveFrame@libmedia@2@UNameNodeCmpC@452@ABUNN_Add@RBinArchiveFrame@stdlib@media@modules@2@PAPAU3452@2_N@Z 004069c0 f i umodsys_lib_libmedia:umodsys.mod.media.stdlib.obj
 0001:00005a47       ??$yes@U?$TFlags4StateShift@USMediaFlagUid@libmedia@UModSys@@I$00@tl@UModSys@@@SFlags@libmedia@UModSys@@QBE_NPBUIResolverAuto@012@@Z 00406a47 f i umodsys_lib_libmedia:umodsys.mod.media.stdlib.obj
 0001:00005a98       ??$yes@U?$TFlags4StateShift@USMediaFlagUid@libmedia@UModSys@@I$02@tl@UModSys@@@SFlags@libmedia@UModSys@@QBE_NPBUIResolverAuto@012@@Z 00406a98 f i umodsys_lib_libmedia:umodsys.mod.media.stdlib.obj
 0001:00005ae9       ??$yes@U?$TFlags4StateShift@USMediaFlagUid@libmedia@UModSys@@I$03@tl@UModSys@@@SFlags@libmedia@UModSys@@QBE_NPBUIResolverAuto@012@@Z 00406ae9 f i umodsys_lib_libmedia:umodsys.mod.media.stdlib.obj
 0001:00005b3a       ??$yes@U?$TFlags4StateShift@USMediaFlagUid@libmedia@UModSys@@I$01@tl@UModSys@@@SFlags@libmedia@UModSys@@QBE_NPBUIResolverAuto@012@@Z 00406b3a f i umodsys_lib_libmedia:umodsys.mod.media.stdlib.obj
 0001:00005b8b       ??$yes@U?$TFlags4StateShift@USMediaFlagUid@libmedia@UModSys@@I$05@tl@UModSys@@@SFlags@libmedia@UModSys@@QBE_NPBUIResolverAuto@012@@Z 00406b8b f i umodsys_lib_libmedia:umodsys.mod.media.stdlib.obj
 0001:00005bdc       ??$yes@U?$TFlags4StateShift@USMediaFlagUid@libmedia@UModSys@@I$07@tl@UModSys@@@SFlags@libmedia@UModSys@@QBE_NPBUIResolverAuto@012@@Z 00406bdc f i umodsys_lib_libmedia:umodsys.mod.media.stdlib.obj
 0001:00005c2b       ??$yes@U?$TFlags4StateShift@USMediaFlagUid@libmedia@UModSys@@I$06@tl@UModSys@@@SFlags@libmedia@UModSys@@QBE_NPBUIResolverAuto@012@@Z 00406c2b f i umodsys_lib_libmedia:umodsys.mod.media.stdlib.obj
 0001:00005c7c       ??$yes@U?$TFlags4StateShift@USMediaFlagUid@libmedia@UModSys@@I$08@tl@UModSys@@@SFlags@libmedia@UModSys@@QBE_NPBUIResolverAuto@012@@Z 00406c7c f i umodsys_lib_libmedia:umodsys.mod.media.stdlib.obj
 0001:00005ccd       ??$genx_node@UCmp@?$TScatterArray@USMountInfo@RLibraryBinTree@stdlib@media@modules@UModSys@@USId@ILibraryBinTree@libmedia@6@U7896@U?$TNodeDeleter0@U?$TScatterArrayNode@USMountInfo@RLibraryBinTree@stdlib@media@modules@UModSys@@USId@ILibraryBinTree@libmedia@6@@tl@UModSys@@@tl@6@@tl@UModSys@@UGen0@234@@?$TTreeHoldRBD@U?$TScatterArrayNode@USMountInfo@RLibraryBinTree@stdlib@media@modules@UModSys@@USId@ILibraryBinTree@libmedia@6@@tl@UModSys@@U?$TNodeDeleter0@U?$TScatterArrayNode@USMountInfo@RLibraryBinTree@stdlib@media@modules@UModSys@@USId@ILibraryBinTree@libmedia@6@@tl@UModSys@@@23@@tl@UModSys@@QAEPAU?$TScatterArrayNode@USMountInfo@RLibraryBinTree@stdlib@media@modules@UModSys@@USId@ILibraryBinTree@libmedia@6@@12@UCmp@?$TScatterArray@USMountInfo@RLibraryBinTree@stdlib@media@modules@UModSys@@USId@ILibraryBinTree@libmedia@6@U7896@U?$TNodeDeleter0@U?$TScatterArrayNode@USMountInfo@RLibraryBinTree@stdlib@media@modules@UModSys@@USId@ILibraryBinTree@libmedia@6@@tl@UModSys@@@tl@6@@12@ABUGen0@512@PAPAU312@2_N@Z 00406ccd f i umodsys_lib_libmedia:umodsys.mod.media.stdlib.obj
 0001:00005d4b       ??$find_node_u@UCmp@?$TScatterArray@USMountInfo@RLibraryBinTree@stdlib@media@modules@UModSys@@USId@ILibraryBinTree@libmedia@6@U7896@U?$TNodeDeleter0@U?$TScatterArrayNode@USMountInfo@RLibraryBinTree@stdlib@media@modules@UModSys@@USId@ILibraryBinTree@libmedia@6@@tl@UModSys@@@tl@6@@tl@UModSys@@@?$TTreeHoldRB@U?$TScatterArrayNode@USMountInfo@RLibraryBinTree@stdlib@media@modules@UModSys@@USId@ILibraryBinTree@libmedia@6@@tl@UModSys@@@tl@UModSys@@QBEPAU?$TScatterArrayNode@USMountInfo@RLibraryBinTree@stdlib@media@modules@UModSys@@USId@ILibraryBinTree@libmedia@6@@12@UCmp@?$TScatterArray@USMountInfo@RLibraryBinTree@stdlib@media@modules@UModSys@@USId@ILibraryBinTree@libmedia@6@U7896@U?$TNodeDeleter0@U?$TScatterArrayNode@USMountInfo@RLibraryBinTree@stdlib@media@modules@UModSys@@USId@ILibraryBinTree@libmedia@6@@tl@UModSys@@@tl@6@@12@@Z 00406d4b f i umodsys_lib_libmedia:umodsys.mod.media.stdlib.obj
 0001:00005d77       ??$genx_node@UCmp@?$TScatterArray@USCacheElem@RLibraryBinCache@stdlib@media@modules@UModSys@@U?$TString@U?$TSCoreConst@D@su@tl@UModSys@@U?$TComparerBinaryHash@D@234@@tl@6@U?$TObjectCompare@U?$TString@U?$TSCoreConst@D@su@tl@UModSys@@U?$TComparerBinaryHash@D@234@@tl@UModSys@@@core@6@U?$TNodeDeleter0@U?$TScatterArrayNode@USCacheElem@RLibraryBinCache@stdlib@media@modules@UModSys@@U?$TString@U?$TSCoreConst@D@su@tl@UModSys@@U?$TComparerBinaryHash@D@234@@tl@6@@tl@UModSys@@@86@@tl@UModSys@@UGen0@234@@?$TTreeHoldRBD@U?$TScatterArrayNode@USCacheElem@RLibraryBinCache@stdlib@media@modules@UModSys@@U?$TString@U?$TSCoreConst@D@su@tl@UModSys@@U?$TComparerBinaryHash@D@234@@tl@6@@tl@UModSys@@U?$TNodeDeleter0@U?$TScatterArrayNode@USCacheElem@RLibraryBinCache@stdlib@media@modules@UModSys@@U?$TString@U?$TSCoreConst@D@su@tl@UModSys@@U?$TComparerBinaryHash@D@234@@tl@6@@tl@UModSys@@@23@@tl@UModSys@@QAEPAU?$TScatterArrayNode@USCacheElem@RLibraryBinCache@stdlib@media@modules@UModSys@@U?$TString@U?$TSCoreConst@D@su@tl@UModSys@@U?$TComparerBinaryHash@D@234@@tl@6@@12@UCmp@?$TScatterArray@USCacheElem@RLibraryBinCache@stdlib@media@modules@UModSys@@U?$TString@U?$TSCoreConst@D@su@tl@UModSys@@U?$TComparerBinaryHash@D@234@@tl@6@U?$TObjectCompare@U?$TString@U?$TSCoreConst@D@su@tl@UModSys@@U?$TComparerBinaryHash@D@234@@tl@UModSys@@@core@6@U?$TNodeDeleter0@U?$TScatterArrayNode@USCacheElem@RLibraryBinCache@stdlib@media@modules@UModSys@@U?$TString@U?$TSCoreConst@D@su@tl@UModSys@@U?$TComparerBinaryHash@D@234@@tl@6@@tl@UModSys@@@86@@12@ABUGen0@512@PAPAU312@2_N@Z 00406d77 f i umodsys_lib_libmedia:umodsys.mod.media.stdlib.obj
 0001:00005df6       ??$find_node_u@UCmp@?$TScatterArray@USCacheElem@RLibraryBinCache@stdlib@media@modules@UModSys@@U?$TString@U?$TSCoreConst@D@su@tl@UModSys@@U?$TComparerBinaryHash@D@234@@tl@6@U?$TObjectCompare@U?$TString@U?$TSCoreConst@D@su@tl@UModSys@@U?$TComparerBinaryHash@D@234@@tl@UModSys@@@core@6@U?$TNodeDeleter0@U?$TScatterArrayNode@USCacheElem@RLibraryBinCache@stdlib@media@modules@UModSys@@U?$TString@U?$TSCoreConst@D@su@tl@UModSys@@U?$TComparerBinaryHash@D@234@@tl@6@@tl@UModSys@@@86@@tl@UModSys@@@?$TTreeHoldRB@U?$TScatterArrayNode@USCacheElem@RLibraryBinCache@stdlib@media@modules@UModSys@@U?$TString@U?$TSCoreConst@D@su@tl@UModSys@@U?$TComparerBinaryHash@D@234@@tl@6@@tl@UModSys@@@tl@UModSys@@QBEPAU?$TScatterArrayNode@USCacheElem@RLibraryBinCache@stdlib@media@modules@UModSys@@U?$TString@U?$TSCoreConst@D@su@tl@UModSys@@U?$TComparerBinaryHash@D@234@@tl@6@@12@UCmp@?$TScatterArray@USCacheElem@RLibraryBinCache@stdlib@media@modules@UModSys@@U?$TString@U?$TSCoreConst@D@su@tl@UModSys@@U?$TComparerBinaryHash@D@234@@tl@6@U?$TObjectCompare@U?$TString@U?$TSCoreConst@D@su@tl@UModSys@@U?$TComparerBinaryHash@D@234@@tl@UModSys@@@core@6@U?$TNodeDeleter0@U?$TScatterArrayNode@USCacheElem@RLibraryBinCache@stdlib@media@modules@UModSys@@U?$TString@U?$TSCoreConst@D@su@tl@UModSys@@U?$TComparerBinaryHash@D@234@@tl@6@@tl@UModSys@@@86@@12@@Z 00406df6 f i umodsys_lib_libmedia:umodsys.mod.media.stdlib.obj
 0001:00005df6       ??$find_node_u@UCmp@?$TScatterArray@USCacheElem@RLibraryObjCache@stdlib@media@modules@UModSys@@U?$TString@U?$TSCoreConst@D@su@tl@UModSys@@U?$TComparerBinaryHash@D@234@@tl@6@U?$TObjectCompare@U?$TString@U?$TSCoreConst@D@su@tl@UModSys@@U?$TComparerBinaryHash@D@234@@tl@UModSys@@@core@6@U?$TNodeDeleter0@U?$TScatterArrayNode@USCacheElem@RLibraryObjCache@stdlib@media@modules@UModSys@@U?$TString@U?$TSCoreConst@D@su@tl@UModSys@@U?$TComparerBinaryHash@D@234@@tl@6@@tl@UModSys@@@86@@tl@UModSys@@@?$TTreeHoldRB@U?$TScatterArrayNode@USCacheElem@RLibraryObjCache@stdlib@media@modules@UModSys@@U?$TString@U?$TSCoreConst@D@su@tl@UModSys@@U?$TComparerBinaryHash@D@234@@tl@6@@tl@UModSys@@@tl@UModSys@@QBEPAU?$TScatterArrayNode@USCacheElem@RLibraryObjCache@stdlib@media@modules@UModSys@@U?$TString@U?$TSCoreConst@D@su@tl@UModSys@@U?$TComparerBinaryHash@D@234@@tl@6@@12@UCmp@?$TScatterArray@USCacheElem@RLibraryObjCache@stdlib@media@modules@UModSys@@U?$TString@U?$TSCoreConst@D@su@tl@UModSys@@U?$TComparerBinaryHash@D@234@@tl@6@U?$TObjectCompare@U?$TString@U?$TSCoreConst@D@su@tl@UModSys@@U?$TComparerBinaryHash@D@234@@tl@UModSys@@@core@6@U?$TNodeDeleter0@U?$TScatterArrayNode@USCacheElem@RLibraryObjCache@stdlib@media@modules@UModSys@@U?$TString@U?$TSCoreConst@D@su@tl@UModSys@@U?$TComparerBinaryHash@D@234@@tl@6@@tl@UModSys@@@86@@12@@Z 00406df6 f i umodsys_lib_libmedia:umodsys.mod.media.stdlib.obj
 0001:00005e23       ??$genx_node@UCmp@?$TScatterArray@USCacheElem@RLibraryObjCache@stdlib@media@modules@UModSys@@U?$TString@U?$TSCoreConst@D@su@tl@UModSys@@U?$TComparerBinaryHash@D@234@@tl@6@U?$TObjectCompare@U?$TString@U?$TSCoreConst@D@su@tl@UModSys@@U?$TComparerBinaryHash@D@234@@tl@UModSys@@@core@6@U?$TNodeDeleter0@U?$TScatterArrayNode@USCacheElem@RLibraryObjCache@stdlib@media@modules@UModSys@@U?$TString@U?$TSCoreConst@D@su@tl@UModSys@@U?$TComparerBinaryHash@D@234@@tl@6@@tl@UModSys@@@86@@tl@UModSys@@UGen0@234@@?$TTreeHoldRBD@U?$TScatterArrayNode@USCacheElem@RLibraryObjCache@stdlib@media@modules@UModSys@@U?$TString@U?$TSCoreConst@D@su@tl@UModSys@@U?$TComparerBinaryHash@D@234@@tl@6@@tl@UModSys@@U?$TNodeDeleter0@U?$TScatterArrayNode@USCacheElem@RLibraryObjCache@stdlib@media@modules@UModSys@@U?$TString@U?$TSCoreConst@D@su@tl@UModSys@@U?$TComparerBinaryHash@D@234@@tl@6@@tl@UModSys@@@23@@tl@UModSys@@QAEPAU?$TScatterArrayNode@USCacheElem@RLibraryObjCache@stdlib@media@modules@UModSys@@U?$TString@U?$TSCoreConst@D@su@tl@UModSys@@U?$TComparerBinaryHash@D@234@@tl@6@@12@UCmp@?$TScatterArray@USCacheElem@RLibraryObjCache@stdlib@media@modules@UModSys@@U?$TString@U?$TSCoreConst@D@su@tl@UModSys@@U?$TComparerBinaryHash@D@234@@tl@6@U?$TObjectCompare@U?$TString@U?$TSCoreConst@D@su@tl@UModSys@@U?$TComparerBinaryHash@D@234@@tl@UModSys@@@core@6@U?$TNodeDeleter0@U?$TScatterArrayNode@USCacheElem@RLibraryObjCache@stdlib@media@modules@UModSys@@U?$TString@U?$TSCoreConst@D@su@tl@UModSys@@U?$TComparerBinaryHash@D@234@@tl@6@@tl@UModSys@@@86@@12@ABUGen0@512@PAPAU312@2_N@Z 00406e23 f i umodsys_lib_libmedia:umodsys.mod.media.stdlib.obj
 0001:00005ea2       ??$find_node_u@UCmp@?$TScatterArray@USFilter@RLibraryObjFilter@stdlib@media@modules@UModSys@@USId@23456@U723456@U?$TNodeDeleter0@U?$TScatterArrayNode@USFilter@RLibraryObjFilter@stdlib@media@modules@UModSys@@USId@23456@@tl@UModSys@@@tl@6@@tl@UModSys@@@?$TTreeHoldRB@U?$TScatterArrayNode@USFilter@RLibraryObjFilter@stdlib@media@modules@UModSys@@USId@23456@@tl@UModSys@@@tl@UModSys@@QBEPAU?$TScatterArrayNode@USFilter@RLibraryObjFilter@stdlib@media@modules@UModSys@@USId@23456@@12@UCmp@?$TScatterArray@USFilter@RLibraryObjFilter@stdlib@media@modules@UModSys@@USId@23456@U723456@U?$TNodeDeleter0@U?$TScatterArrayNode@USFilter@RLibraryObjFilter@stdlib@media@modules@UModSys@@USId@23456@@tl@UModSys@@@tl@6@@12@@Z 00406ea2 f i umodsys_lib_libmedia:umodsys.mod.media.stdlib.obj
 0001:00005ece       ?cmp3@?$TComparerBinaryHash@D@su@tl@UModSys@@QBEHPBDI0IABUSComparerHash@234@@Z 00406ece f i umodsys_lib_libmedia:umodsys.mod.media.stdlib.obj
 0001:00005f11       ?ReLink@?$TDynarray@U?$TDynarrayHolderDynamic@UBuffer@RUtilities@stdlib@media@modules@UModSys@@U?$TAllocator@USIMemAlloc@core@UModSys@@USCountCalcPower2@23@@tl@6@@tl@UModSys@@@tl@UModSys@@IAE_NI@Z 00406f11 f i umodsys_lib_libmedia:umodsys.mod.media.stdlib.obj
 0001:00005f53       ?rotate_left@?$TTreeHoldRB@U?$TScatterArrayNode@USCacheElem@RLibraryBinCache@stdlib@media@modules@UModSys@@U?$TString@U?$TSCoreConst@D@su@tl@UModSys@@U?$TComparerBinaryHash@D@234@@tl@6@@tl@UModSys@@@tl@UModSys@@IAEXPAU?$TScatterArrayNode@USCacheElem@RLibraryBinCache@stdlib@media@modules@UModSys@@U?$TString@U?$TSCoreConst@D@su@tl@UModSys@@U?$TComparerBinaryHash@D@234@@tl@6@@23@@Z 00406f53 f i umodsys_lib_libmedia:umodsys.mod.media.stdlib.obj
 0001:00005f53       ?rotate_left@?$TTreeHoldRB@U?$TScatterArrayNode@USFilter@RLibraryObjFilter@stdlib@media@modules@UModSys@@USId@23456@@tl@UModSys@@@tl@UModSys@@IAEXPAU?$TScatterArrayNode@USFilter@RLibraryObjFilter@stdlib@media@modules@UModSys@@USId@23456@@23@@Z 00406f53 f i umodsys_lib_libmedia:umodsys.mod.media.stdlib.obj
 0001:00005f53       ?rotate_left@?$TTreeHoldRB@U?$TQuantArrayNode@USUniquePointerInfo@core@UModSys@@$0BAA@@tl@UModSys@@@tl@UModSys@@IAEXPAU?$TQuantArrayNode@USUniquePointerInfo@core@UModSys@@$0BAA@@23@@Z 00406f53 f i umodsys_lib_basesys:umodsys.basesys.rsystem.obj
 0001:00005f53       ?rotate_left@?$TTreeHoldRB@UNameNode@IBinArchiveFrame@libmedia@UModSys@@@tl@UModSys@@IAEXPAUNameNode@IBinArchiveFrame@libmedia@3@@Z 00406f53 f i umodsys_lib_libmedia:umodsys.mod.media.stdlib.obj
 0001:00005f53       ?rotate_left@?$TTreeHoldRB@U?$TScatterArrayNode@USCacheElem@RLibraryObjCache@stdlib@media@modules@UModSys@@U?$TString@U?$TSCoreConst@D@su@tl@UModSys@@U?$TComparerBinaryHash@D@234@@tl@6@@tl@UModSys@@@tl@UModSys@@IAEXPAU?$TScatterArrayNode@USCacheElem@RLibraryObjCache@stdlib@media@modules@UModSys@@U?$TString@U?$TSCoreConst@D@su@tl@UModSys@@U?$TComparerBinaryHash@D@234@@tl@6@@23@@Z 00406f53 f i umodsys_lib_libmedia:umodsys.mod.media.stdlib.obj
 0001:00005f53       ?rotate_left@?$TTreeHoldRB@U?$TQuantArrayNode@USSourceContext@core@UModSys@@$0BAA@@tl@UModSys@@@tl@UModSys@@IAEXPAU?$TQuantArrayNode@USSourceContext@core@UModSys@@$0BAA@@23@@Z 00406f53 f i umodsys_lib_basesys:umodsys.basesys.rsystem.obj
 0001:00005f53       ?rotate_left@?$TTreeHoldRB@U?$TScatterArrayNode@USMountInfo@RLibraryBinTree@stdlib@media@modules@UModSys@@USId@ILibraryBinTree@libmedia@6@@tl@UModSys@@@tl@UModSys@@IAEXPAU?$TScatterArrayNode@USMountInfo@RLibraryBinTree@stdlib@media@modules@UModSys@@USId@ILibraryBinTree@libmedia@6@@23@@Z 00406f53 f i umodsys_lib_libmedia:umodsys.mod.media.stdlib.obj
 0001:00005f92       ?ReLink@?$TDynarray@U?$TDynarrayHolderDynamic@USLayerX@RLibraryLayered@stdlib@media@modules@UModSys@@U?$TAllocator@USIMemAlloc@core@UModSys@@USCountCalcPower2@23@@tl@6@@tl@UModSys@@@tl@UModSys@@IAE_NI@Z 00406f92 f i umodsys_lib_libmedia:umodsys.mod.media.stdlib.obj
 0001:00005fd4       ?items_construct@?$TDynarray@U?$TDynarrayHolderDynamic@USLayerX@RLibraryLayered@stdlib@media@modules@UModSys@@U?$TAllocator@USIMemAlloc@core@UModSys@@USCountCalcPower2@23@@tl@6@@tl@UModSys@@@tl@UModSys@@IAEXII@Z 00406fd4 f i umodsys_lib_libmedia:umodsys.mod.media.stdlib.obj
 0001:00006033       ?rotate_right@?$TTreeHoldRB@U?$TQuantArrayNode@USSourceContext@core@UModSys@@$0BAA@@tl@UModSys@@@tl@UModSys@@IAEXPAU?$TQuantArrayNode@USSourceContext@core@UModSys@@$0BAA@@23@@Z 00407033 f i umodsys_lib_basesys:umodsys.basesys.rsystem.obj
 0001:00006033       ?rotate_right@?$TTreeHoldRB@U?$TScatterArrayNode@USFilter@RLibraryObjFilter@stdlib@media@modules@UModSys@@USId@23456@@tl@UModSys@@@tl@UModSys@@IAEXPAU?$TScatterArrayNode@USFilter@RLibraryObjFilter@stdlib@media@modules@UModSys@@USId@23456@@23@@Z 00407033 f i umodsys_lib_libmedia:umodsys.mod.media.stdlib.obj
 0001:00006033       ?rotate_right@?$TTreeHoldRB@U?$TScatterArrayNode@USCacheElem@RLibraryBinCache@stdlib@media@modules@UModSys@@U?$TString@U?$TSCoreConst@D@su@tl@UModSys@@U?$TComparerBinaryHash@D@234@@tl@6@@tl@UModSys@@@tl@UModSys@@IAEXPAU?$TScatterArrayNode@USCacheElem@RLibraryBinCache@stdlib@media@modules@UModSys@@U?$TString@U?$TSCoreConst@D@su@tl@UModSys@@U?$TComparerBinaryHash@D@234@@tl@6@@23@@Z 00407033 f i umodsys_lib_libmedia:umodsys.mod.media.stdlib.obj
 0001:00006033       ?rotate_right@?$TTreeHoldRB@UNameNode@IBinArchiveFrame@libmedia@UModSys@@@tl@UModSys@@IAEXPAUNameNode@IBinArchiveFrame@libmedia@3@@Z 00407033 f i umodsys_lib_libmedia:umodsys.mod.media.stdlib.obj
 0001:00006033       ?rotate_right@?$TTreeHoldRB@U?$TScatterArrayNode@USCacheElem@RLibraryObjCache@stdlib@media@modules@UModSys@@U?$TString@U?$TSCoreConst@D@su@tl@UModSys@@U?$TComparerBinaryHash@D@234@@tl@6@@tl@UModSys@@@tl@UModSys@@IAEXPAU?$TScatterArrayNode@USCacheElem@RLibraryObjCache@stdlib@media@modules@UModSys@@U?$TString@U?$TSCoreConst@D@su@tl@UModSys@@U?$TComparerBinaryHash@D@234@@tl@6@@23@@Z 00407033 f i umodsys_lib_libmedia:umodsys.mod.media.stdlib.obj
 0001:00006033       ?rotate_right@?$TTreeHoldRB@U?$TQuantArrayNode@USUniquePointerInfo@core@UModSys@@$0BAA@@tl@UModSys@@@tl@UModSys@@IAEXPAU?$TQuantArrayNode@USUniquePointerInfo@core@UModSys@@$0BAA@@23@@Z 00407033 f i umodsys_lib_basesys:umodsys.basesys.rsystem.obj
 0001:00006033       ?rotate_right@?$TTreeHoldRB@U?$TScatterArrayNode@USMountInfo@RLibraryBinTree@stdlib@media@modules@UModSys@@USId@ILibraryBinTree@libmedia@6@@tl@UModSys@@@tl@UModSys@@IAEXPAU?$TScatterArrayNode@USMountInfo@RLibraryBinTree@stdlib@media@modules@UModSys@@USId@ILibraryBinTree@libmedia@6@@23@@Z 00407033 f i umodsys_lib_libmedia:umodsys.mod.media.stdlib.obj
 0001:00006072       ?sub_insert_node@?$TTreeHoldRB@U?$TScatterArrayNode@USFilter@RLibraryObjFilter@stdlib@media@modules@UModSys@@USId@23456@@tl@UModSys@@@tl@UModSys@@QAEXPAU?$TScatterArrayNode@USFilter@RLibraryObjFilter@stdlib@media@modules@UModSys@@USId@23456@@23@0H@Z 00407072 f i umodsys_lib_libmedia:umodsys.mod.media.stdlib.obj
 0001:00006072       ?sub_insert_node@?$TTreeHoldRB@U?$TScatterArrayNode@USCacheElem@RLibraryObjCache@stdlib@media@modules@UModSys@@U?$TString@U?$TSCoreConst@D@su@tl@UModSys@@U?$TComparerBinaryHash@D@234@@tl@6@@tl@UModSys@@@tl@UModSys@@QAEXPAU?$TScatterArrayNode@USCacheElem@RLibraryObjCache@stdlib@media@modules@UModSys@@U?$TString@U?$TSCoreConst@D@su@tl@UModSys@@U?$TComparerBinaryHash@D@234@@tl@6@@23@0H@Z 00407072 f i umodsys_lib_libmedia:umodsys.mod.media.stdlib.obj
 0001:00006072       ?sub_insert_node@?$TTreeHoldRB@UNameNode@IBinArchiveFrame@libmedia@UModSys@@@tl@UModSys@@QAEXPAUNameNode@IBinArchiveFrame@libmedia@3@0H@Z 00407072 f i umodsys_lib_libmedia:umodsys.mod.media.stdlib.obj
 0001:00006072       ?sub_insert_node@?$TTreeHoldRB@U?$TScatterArrayNode@USMountInfo@RLibraryBinTree@stdlib@media@modules@UModSys@@USId@ILibraryBinTree@libmedia@6@@tl@UModSys@@@tl@UModSys@@QAEXPAU?$TScatterArrayNode@USMountInfo@RLibraryBinTree@stdlib@media@modules@UModSys@@USId@ILibraryBinTree@libmedia@6@@23@0H@Z 00407072 f i umodsys_lib_libmedia:umodsys.mod.media.stdlib.obj
 0001:00006072       ?sub_insert_node@?$TTreeHoldRB@U?$TScatterArrayNode@USCacheElem@RLibraryBinCache@stdlib@media@modules@UModSys@@U?$TString@U?$TSCoreConst@D@su@tl@UModSys@@U?$TComparerBinaryHash@D@234@@tl@6@@tl@UModSys@@@tl@UModSys@@QAEXPAU?$TScatterArrayNode@USCacheElem@RLibraryBinCache@stdlib@media@modules@UModSys@@U?$TString@U?$TSCoreConst@D@su@tl@UModSys@@U?$TComparerBinaryHash@D@234@@tl@6@@23@0H@Z 00407072 f i umodsys_lib_libmedia:umodsys.mod.media.stdlib.obj
 0001:000060c0       ??RCmp@?$TScatterArray@USMountInfo@RLibraryBinTree@stdlib@media@modules@UModSys@@USId@ILibraryBinTree@libmedia@6@U7896@U?$TNodeDeleter0@U?$TScatterArrayNode@USMountInfo@RLibraryBinTree@stdlib@media@modules@UModSys@@USId@ILibraryBinTree@libmedia@6@@tl@UModSys@@@tl@6@@tl@UModSys@@QBEHPBU?$TScatterArrayNode@USMountInfo@RLibraryBinTree@stdlib@media@modules@UModSys@@USId@ILibraryBinTree@libmedia@6@@23@@Z 004070c0 f i umodsys_lib_libmedia:umodsys.mod.media.stdlib.obj
 0001:000060ed       ??RCmp@?$TScatterArray@USFilter@RLibraryObjFilter@stdlib@media@modules@UModSys@@USId@23456@U723456@U?$TNodeDeleter0@U?$TScatterArrayNode@USFilter@RLibraryObjFilter@stdlib@media@modules@UModSys@@USId@23456@@tl@UModSys@@@tl@6@@tl@UModSys@@QBEHPBU?$TScatterArrayNode@USFilter@RLibraryObjFilter@stdlib@media@modules@UModSys@@USId@23456@@23@@Z 004070ed f i umodsys_lib_libmedia:umodsys.mod.media.stdlib.obj
 0001:00006125       ??RGen0@?$TScatterArray@USFilter@RLibraryObjFilter@stdlib@media@modules@UModSys@@USId@23456@U723456@U?$TNodeDeleter0@U?$TScatterArrayNode@USFilter@RLibraryObjFilter@stdlib@media@modules@UModSys@@USId@23456@@tl@UModSys@@@tl@6@@tl@UModSys@@QBEPAU?$TScatterArrayNode@USFilter@RLibraryObjFilter@stdlib@media@modules@UModSys@@USId@23456@@23@ABUCmp@123@ABU?$TTreeHoldRBD@U?$TScatterArrayNode@USFilter@RLibraryObjFilter@stdlib@media@modules@UModSys@@USId@23456@@tl@UModSys@@U?$TNodeDeleter0@U?$TScatterArrayNode@USFilter@RLibraryObjFilter@stdlib@media@modules@UModSys@@USId@23456@@tl@UModSys@@@23@@23@@Z 00407125 f i umodsys_lib_libmedia:umodsys.mod.media.stdlib.obj
 0001:00006173       ?amoveright@?$TTypeConstructor@USLayerX@RLibraryLayered@stdlib@media@modules@UModSys@@@tl@UModSys@@SAXPAUSLayerX@RLibraryLayered@stdlib@media@modules@3@III@Z 00407173 f i umodsys_lib_libmedia:umodsys.mod.media.stdlib.obj
 0001:000061d0       ?amoveleft@?$TTypeConstructor@USLayerX@RLibraryLayered@stdlib@media@modules@UModSys@@@tl@UModSys@@SAXPAUSLayerX@RLibraryLayered@stdlib@media@modules@3@III@Z 004071d0 f i umodsys_lib_libmedia:umodsys.mod.media.stdlib.obj
 0001:0000622f       ??0SLayerX@RLibraryLayered@stdlib@media@modules@UModSys@@QAE@ABU012345@@Z 0040722f f i umodsys_lib_libmedia:umodsys.mod.media.stdlib.obj
 0001:00006268       ??_GSLayerX@RLibraryLayered@stdlib@media@modules@UModSys@@QAEPAXI@Z 00407268 f i umodsys_lib_libmedia:umodsys.mod.media.stdlib.obj
 0001:000062a9       ??0?$TString@U?$TSCoreShared@USIMemAlloc@core@UModSys@@D@su@tl@UModSys@@U?$TComparerBinaryHash@D@234@@tl@UModSys@@QAE@ABU012@@Z 004072a9 f i umodsys_lib_libmedia:umodsys.mod.media.stdlib.obj
 0001:000062d6       ??0?$TScatterArrayNode@USMountInfo@RLibraryBinTree@stdlib@media@modules@UModSys@@USId@ILibraryBinTree@libmedia@6@@tl@UModSys@@QAE@ABUSId@ILibraryBinTree@libmedia@2@@Z 004072d6 f i umodsys_lib_libmedia:umodsys.mod.media.stdlib.obj
 0001:00006370       ??0?$TScatterArrayNode@USCacheElem@RLibraryBinCache@stdlib@media@modules@UModSys@@U?$TString@U?$TSCoreConst@D@su@tl@UModSys@@U?$TComparerBinaryHash@D@234@@tl@6@@tl@UModSys@@QAE@ABU?$TString@U?$TSCoreConst@D@su@tl@UModSys@@U?$TComparerBinaryHash@D@234@@12@@Z 00407370 f i umodsys_lib_libmedia:umodsys.mod.media.stdlib.obj
 0001:0000640a       ??0?$TScatterArrayNode@USCacheElem@RLibraryObjCache@stdlib@media@modules@UModSys@@U?$TString@U?$TSCoreConst@D@su@tl@UModSys@@U?$TComparerBinaryHash@D@234@@tl@6@@tl@UModSys@@QAE@ABU?$TString@U?$TSCoreConst@D@su@tl@UModSys@@U?$TComparerBinaryHash@D@234@@12@@Z 0040740a f i umodsys_lib_libmedia:umodsys.mod.media.stdlib.obj
 0001:000064a4       ?insert_color@?$TTreeHoldRB@U?$TScatterArrayNode@USCacheElem@RLibraryBinCache@stdlib@media@modules@UModSys@@U?$TString@U?$TSCoreConst@D@su@tl@UModSys@@U?$TComparerBinaryHash@D@234@@tl@6@@tl@UModSys@@@tl@UModSys@@IAEXPAU?$TScatterArrayNode@USCacheElem@RLibraryBinCache@stdlib@media@modules@UModSys@@U?$TString@U?$TSCoreConst@D@su@tl@UModSys@@U?$TComparerBinaryHash@D@234@@tl@6@@23@@Z 004074a4 f i umodsys_lib_libmedia:umodsys.mod.media.stdlib.obj
 0001:000064a4       ?insert_color@?$TTreeHoldRB@UNameNode@IBinArchiveFrame@libmedia@UModSys@@@tl@UModSys@@IAEXPAUNameNode@IBinArchiveFrame@libmedia@3@@Z 004074a4 f i umodsys_lib_libmedia:umodsys.mod.media.stdlib.obj
 0001:000064a4       ?insert_color@?$TTreeHoldRB@U?$TQuantArrayNode@USUniquePointerInfo@core@UModSys@@$0BAA@@tl@UModSys@@@tl@UModSys@@IAEXPAU?$TQuantArrayNode@USUniquePointerInfo@core@UModSys@@$0BAA@@23@@Z 004074a4 f i umodsys_lib_basesys:umodsys.basesys.rsystem.obj
 0001:000064a4       ?insert_color@?$TTreeHoldRB@U?$TQuantArrayNode@USSourceContext@core@UModSys@@$0BAA@@tl@UModSys@@@tl@UModSys@@IAEXPAU?$TQuantArrayNode@USSourceContext@core@UModSys@@$0BAA@@23@@Z 004074a4 f i umodsys_lib_basesys:umodsys.basesys.rsystem.obj
 0001:000064a4       ?insert_color@?$TTreeHoldRB@U?$TScatterArrayNode@USCacheElem@RLibraryObjCache@stdlib@media@modules@UModSys@@U?$TString@U?$TSCoreConst@D@su@tl@UModSys@@U?$TComparerBinaryHash@D@234@@tl@6@@tl@UModSys@@@tl@UModSys@@IAEXPAU?$TScatterArrayNode@USCacheElem@RLibraryObjCache@stdlib@media@modules@UModSys@@U?$TString@U?$TSCoreConst@D@su@tl@UModSys@@U?$TComparerBinaryHash@D@234@@tl@6@@23@@Z 004074a4 f i umodsys_lib_libmedia:umodsys.mod.media.stdlib.obj
 0001:000064a4       ?insert_color@?$TTreeHoldRB@U?$TScatterArrayNode@USFilter@RLibraryObjFilter@stdlib@media@modules@UModSys@@USId@23456@@tl@UModSys@@@tl@UModSys@@IAEXPAU?$TScatterArrayNode@USFilter@RLibraryObjFilter@stdlib@media@modules@UModSys@@USId@23456@@23@@Z 004074a4 f i umodsys_lib_libmedia:umodsys.mod.media.stdlib.obj
 0001:000064a4       ?insert_color@?$TTreeHoldRB@U?$TScatterArrayNode@USMountInfo@RLibraryBinTree@stdlib@media@modules@UModSys@@USId@ILibraryBinTree@libmedia@6@@tl@UModSys@@@tl@UModSys@@IAEXPAU?$TScatterArrayNode@USMountInfo@RLibraryBinTree@stdlib@media@modules@UModSys@@USId@ILibraryBinTree@libmedia@6@@23@@Z 004074a4 f i umodsys_lib_libmedia:umodsys.mod.media.stdlib.obj
 0001:00006552       ??$process_nodes_r@U?$TNodeDeleter0@UNameNode@IBinArchiveFrame@libmedia@UModSys@@@tl@UModSys@@@?$TTreeHoldRB@UNameNode@IBinArchiveFrame@libmedia@UModSys@@@tl@UModSys@@KAHPAUNameNode@IBinArchiveFrame@libmedia@2@ABU?$TNodeDeleter0@UNameNode@IBinArchiveFrame@libmedia@UModSys@@@12@@Z 00407552 f i umodsys_lib_libmedia:umodsys.mod.media.stdlib.obj
 0001:00006593       ??$process_nodes_r@U?$TNodeDeleter0@U?$TScatterArrayNode@USMountInfo@RLibraryBinTree@stdlib@media@modules@UModSys@@USId@ILibraryBinTree@libmedia@6@@tl@UModSys@@@tl@UModSys@@@?$TTreeHoldRB@U?$TScatterArrayNode@USMountInfo@RLibraryBinTree@stdlib@media@modules@UModSys@@USId@ILibraryBinTree@libmedia@6@@tl@UModSys@@@tl@UModSys@@KAHPAU?$TScatterArrayNode@USMountInfo@RLibraryBinTree@stdlib@media@modules@UModSys@@USId@ILibraryBinTree@libmedia@6@@12@ABU?$TNodeDeleter0@U?$TScatterArrayNode@USMountInfo@RLibraryBinTree@stdlib@media@modules@UModSys@@USId@ILibraryBinTree@libmedia@6@@tl@UModSys@@@12@@Z 00407593 f i umodsys_lib_libmedia:umodsys.mod.media.stdlib.obj
 0001:000065dd       ??$process_nodes_r@U?$TNodeDeleter0@U?$TScatterArrayNode@USCacheElem@RLibraryBinCache@stdlib@media@modules@UModSys@@U?$TString@U?$TSCoreConst@D@su@tl@UModSys@@U?$TComparerBinaryHash@D@234@@tl@6@@tl@UModSys@@@tl@UModSys@@@?$TTreeHoldRB@U?$TScatterArrayNode@USCacheElem@RLibraryBinCache@stdlib@media@modules@UModSys@@U?$TString@U?$TSCoreConst@D@su@tl@UModSys@@U?$TComparerBinaryHash@D@234@@tl@6@@tl@UModSys@@@tl@UModSys@@KAHPAU?$TScatterArrayNode@USCacheElem@RLibraryBinCache@stdlib@media@modules@UModSys@@U?$TString@U?$TSCoreConst@D@su@tl@UModSys@@U?$TComparerBinaryHash@D@234@@tl@6@@12@ABU?$TNodeDeleter0@U?$TScatterArrayNode@USCacheElem@RLibraryBinCache@stdlib@media@modules@UModSys@@U?$TString@U?$TSCoreConst@D@su@tl@UModSys@@U?$TComparerBinaryHash@D@234@@tl@6@@tl@UModSys@@@12@@Z 004075dd f i umodsys_lib_libmedia:umodsys.mod.media.stdlib.obj
 0001:00006627       ??$process_nodes_r@U?$TNodeDeleter0@U?$TScatterArrayNode@USCacheElem@RLibraryObjCache@stdlib@media@modules@UModSys@@U?$TString@U?$TSCoreConst@D@su@tl@UModSys@@U?$TComparerBinaryHash@D@234@@tl@6@@tl@UModSys@@@tl@UModSys@@@?$TTreeHoldRB@U?$TScatterArrayNode@USCacheElem@RLibraryObjCache@stdlib@media@modules@UModSys@@U?$TString@U?$TSCoreConst@D@su@tl@UModSys@@U?$TComparerBinaryHash@D@234@@tl@6@@tl@UModSys@@@tl@UModSys@@KAHPAU?$TScatterArrayNode@USCacheElem@RLibraryObjCache@stdlib@media@modules@UModSys@@U?$TString@U?$TSCoreConst@D@su@tl@UModSys@@U?$TComparerBinaryHash@D@234@@tl@6@@12@ABU?$TNodeDeleter0@U?$TScatterArrayNode@USCacheElem@RLibraryObjCache@stdlib@media@modules@UModSys@@U?$TString@U?$TSCoreConst@D@su@tl@UModSys@@U?$TComparerBinaryHash@D@234@@tl@6@@tl@UModSys@@@12@@Z 00407627 f i umodsys_lib_libmedia:umodsys.mod.media.stdlib.obj
 0001:00006671       ??$process_nodes_r@U?$TNodeDeleter0@U?$TScatterArrayNode@USFilter@RLibraryObjFilter@stdlib@media@modules@UModSys@@USId@23456@@tl@UModSys@@@tl@UModSys@@@?$TTreeHoldRB@U?$TScatterArrayNode@USFilter@RLibraryObjFilter@stdlib@media@modules@UModSys@@USId@23456@@tl@UModSys@@@tl@UModSys@@KAHPAU?$TScatterArrayNode@USFilter@RLibraryObjFilter@stdlib@media@modules@UModSys@@USId@23456@@12@ABU?$TNodeDeleter0@U?$TScatterArrayNode@USFilter@RLibraryObjFilter@stdlib@media@modules@UModSys@@USId@23456@@tl@UModSys@@@12@@Z 00407671 f i umodsys_lib_libmedia:umodsys.mod.media.stdlib.obj
 0001:000066c2       ??1?$TRefObject@URLibraryObjFilter@stdlib@media@modules@UModSys@@U?$TRefObjectFunc@URLibraryObjFilter@stdlib@media@modules@UModSys@@@tl@5@@tl@UModSys@@QAE@XZ 004076c2 f i umodsys_lib_libmedia:umodsys.mod.media.stdlib.obj
 0001:000066c2       ??1?$TRefObject@URLibraryBinCache@stdlib@media@modules@UModSys@@U?$TRefObjectFunc@URLibraryBinCache@stdlib@media@modules@UModSys@@@tl@5@@tl@UModSys@@QAE@XZ 004076c2 f i umodsys_lib_libmedia:umodsys.mod.media.stdlib.obj
 0001:000066c2       ??1?$TRefObject@UIBinObjFilter@libmedia@UModSys@@U?$TRefObjectFunc@UIBinObjFilter@libmedia@UModSys@@@tl@3@@tl@UModSys@@QAE@XZ 004076c2 f i umodsys_lib_libmedia:umodsys.mod.media.stdlib.obj
 0001:000066c2       ??1?$TRefObject@URBinArchiveFrame@stdlib@media@modules@UModSys@@U?$TRefObjectFunc@URBinArchiveFrame@stdlib@media@modules@UModSys@@@tl@5@@tl@UModSys@@QAE@XZ 004076c2 f i umodsys_lib_libmedia:umodsys.mod.media.stdlib.obj
 0001:000066c2       ??1SFilter@RLibraryObjFilter@stdlib@media@modules@UModSys@@QAE@XZ 004076c2 f i umodsys_lib_libmedia:umodsys.mod.media.stdlib.obj
 0001:000066c2       ??1?$TRefObject@URStreamReader_FILE@stdio@media@modules@UModSys@@U?$TRefObjectFunc@URStreamReader_FILE@stdio@media@modules@UModSys@@@tl@5@@tl@UModSys@@QAE@XZ 004076c2 f i umodsys_lib_libmedia:umodsys.mod.media.stdio.obj
 0001:000066c2       ??1?$TRefObject@URStreamWriter_FILE@stdio@media@modules@UModSys@@U?$TRefObjectFunc@URStreamWriter_FILE@stdio@media@modules@UModSys@@@tl@5@@tl@UModSys@@QAE@XZ 004076c2 f i umodsys_lib_libmedia:umodsys.mod.media.stdio.obj
 0001:000066c2       ??1?$TRefObject@UIRefObject@core@UModSys@@U?$TRefObjectFunc@UIRefObject@core@UModSys@@@tl@3@@tl@UModSys@@QAE@XZ 004076c2 f i umodsys_lib_libmedia:umodsys.mod.media.stdlib.obj
 0001:000066c2       ??1?$TRefObject@URLibraryBinTree@stdlib@media@modules@UModSys@@U?$TRefObjectFunc@URLibraryBinTree@stdlib@media@modules@UModSys@@@tl@5@@tl@UModSys@@QAE@XZ 004076c2 f i umodsys_lib_libmedia:umodsys.mod.media.stdlib.obj
 0001:000066c2       ??1?$TRefObject@UIClient@IBinArchiveFrame@libmedia@UModSys@@U?$TRefObjectFunc@UIClient@IBinArchiveFrame@libmedia@UModSys@@@tl@4@@tl@UModSys@@QAE@XZ 004076c2 f i umodsys_lib_libmedia:umodsys.mod.media.stdlib.obj
 0001:000066c2       ??1?$TRefObject@UIStreamReader@libmedia@UModSys@@U?$TRefObjectFunc@UIStreamReader@libmedia@UModSys@@@tl@3@@tl@UModSys@@QAE@XZ 004076c2 f i umodsys_lib_libmedia:umodsys.mod.media.stdio.obj
 0001:000066c2       ??1?$TRefObject@URLibraryLayered@stdlib@media@modules@UModSys@@U?$TRefObjectFunc@URLibraryLayered@stdlib@media@modules@UModSys@@@tl@5@@tl@UModSys@@QAE@XZ 004076c2 f i umodsys_lib_libmedia:umodsys.mod.media.stdlib.obj
 0001:000066c2       ??1?$TRefObject@URDataArchiver_OsDir@stdio@media@modules@UModSys@@U?$TRefObjectFunc@URDataArchiver_OsDir@stdio@media@modules@UModSys@@@tl@5@@tl@UModSys@@QAE@XZ 004076c2 f i umodsys_lib_libmedia:umodsys.mod.media.stdio.obj
 0001:000066c2       ??1?$TRefObject@URParameters@rsystem@base@UModSys@@U?$TRefObjectFunc@URParameters@rsystem@base@UModSys@@@tl@4@@tl@UModSys@@QAE@XZ 004076c2 f i umodsys_lib_basesys:umodsys.basesys.rsystem_main.obj
 0001:000066c2       ??1?$TRefObject@UIBinArchive@libmedia@UModSys@@U?$TRefObjectFunc@UIBinArchive@libmedia@UModSys@@@tl@3@@tl@UModSys@@QAE@XZ 004076c2 f i umodsys_lib_libmedia:umodsys.mod.media.stdlib.obj
 0001:000066c2       ??1?$TRefObject@UIShell@base@UModSys@@U?$TRefObjectFunc@UIShell@base@UModSys@@@tl@3@@tl@UModSys@@QAE@XZ 004076c2 f i umodsys_lib_basesys:umodsys.basesys.rsystem_tests.obj
 0001:000066c2       ??1?$TRefObject@URUtilities@stdlib@media@modules@UModSys@@U?$TRefObjectFunc@URUtilities@stdlib@media@modules@UModSys@@@tl@5@@tl@UModSys@@QAE@XZ 004076c2 f i umodsys_lib_libmedia:umodsys.mod.media.stdlib.obj
 0001:000066c2       ??1?$TRefObject@URLibraryObjCache@stdlib@media@modules@UModSys@@U?$TRefObjectFunc@URLibraryObjCache@stdlib@media@modules@UModSys@@@tl@5@@tl@UModSys@@QAE@XZ 004076c2 f i umodsys_lib_libmedia:umodsys.mod.media.stdlib.obj
 0001:000066c2       ??1?$TRefObject@UIModuleLibraryUni@rsystem@base@UModSys@@U?$TRefObjectFunc@UIModuleLibraryUni@rsystem@base@UModSys@@@tl@4@@tl@UModSys@@QAE@XZ 004076c2 f i umodsys_lib_basesys:umodsys.basesys.rmodule.obj
 0001:000066c2       ??1?$TRefObject@UIStreamWriter@libmedia@UModSys@@U?$TRefObjectFunc@UIStreamWriter@libmedia@UModSys@@@tl@3@@tl@UModSys@@QAE@XZ 004076c2 f i umodsys_lib_libmedia:umodsys.mod.media.stdio.obj
 0001:000066c2       ??1?$TRefObject@URModuleLibrarySO@rsystem@base@UModSys@@U?$TRefObjectFunc@URModuleLibrarySO@rsystem@base@UModSys@@@tl@4@@tl@UModSys@@QAE@XZ 004076c2 f i umodsys_lib_basesys:umodsys.basesys.rmoduleloader.obj
 0001:000066c2       ??1?$TRefObject@UILibrary@libmedia@UModSys@@U?$TRefObjectFunc@UILibrary@libmedia@UModSys@@@tl@3@@tl@UModSys@@QAE@XZ 004076c2 f i umodsys_lib_libmedia:umodsys.mod.media.stdlib.obj
 0001:000066d1       ??0SVFileName@libmedia@UModSys@@QAE@ABU?$TString@U?$TSCoreConst@D@su@tl@UModSys@@U?$TComparerBinaryHash@D@234@@tl@2@0_N@Z 004076d1 f   umodsys_lib_libmedia:umodsys.lib.media.common.obj
 0001:0000672a       ?init@SVFileName@libmedia@UModSys@@QAEXPBDH_N@Z 0040772a f   umodsys_lib_libmedia:umodsys.lib.media.common.obj
 0001:000067e5       ??$safe_snprintf@D@syshlp@core@UModSys@@YAIPADIPBDZZ 004077e5 f i umodsys_lib_libmedia:umodsys.lib.media.common.obj
 0001:00006803       ?bin_reader@ILibrary@libmedia@UModSys@@UAE?AU?$TRefObject@UIStreamReader@libmedia@UModSys@@U?$TRefObjectFunc@UIStreamReader@libmedia@UModSys@@@tl@3@@tl@3@ABU?$TString@U?$TSCoreConst@D@su@tl@UModSys@@U?$TComparerBinaryHash@D@234@@53@ABUSFlags@23@@Z 00407803 f   umodsys_lib_libmedia:umodsys.lib.media.library.obj
 0001:00006803       ?bin_reader@RLibraryBinCache@stdlib@media@modules@UModSys@@UAE?AU?$TRefObject@UIStreamReader@libmedia@UModSys@@U?$TRefObjectFunc@UIStreamReader@libmedia@UModSys@@@tl@3@@tl@5@ABU?$TString@U?$TSCoreConst@D@su@tl@UModSys@@U?$TComparerBinaryHash@D@234@@75@ABUSFlags@libmedia@5@@Z 00407803 f   umodsys_lib_libmedia:umodsys.mod.media.stdlib.obj
 0001:00006803       ?bin_writer@ILibrary@libmedia@UModSys@@UAE?AU?$TRefObject@UIStreamWriter@libmedia@UModSys@@U?$TRefObjectFunc@UIStreamWriter@libmedia@UModSys@@@tl@3@@tl@3@ABU?$TString@U?$TSCoreConst@D@su@tl@UModSys@@U?$TComparerBinaryHash@D@234@@53@ABUSFlags@23@@Z 00407803 f   umodsys_lib_libmedia:umodsys.lib.media.library.obj
 0001:00006803       ?bin_writer@RLibraryBinCache@stdlib@media@modules@UModSys@@UAE?AU?$TRefObject@UIStreamWriter@libmedia@UModSys@@U?$TRefObjectFunc@UIStreamWriter@libmedia@UModSys@@@tl@3@@tl@5@ABU?$TString@U?$TSCoreConst@D@su@tl@UModSys@@U?$TComparerBinaryHash@D@234@@75@ABUSFlags@libmedia@5@@Z 00407803 f   umodsys_lib_libmedia:umodsys.mod.media.stdlib.obj
 0001:00006815       ?obj_fload@ILibrary@libmedia@UModSys@@UAE_NABUSInfo@IBinObjFilter@23@PAUIRefObject@core@3@@Z 00407815 f   umodsys_lib_libmedia:umodsys.lib.media.library.obj
 0001:00006815       ?obj_fsave@ILibrary@libmedia@UModSys@@UAE_NAAUSInfo@IBinObjFilter@23@PBUIRefObject@core@3@@Z 00407815 f   umodsys_lib_libmedia:umodsys.lib.media.library.obj
 0001:00006815       ?obj_cput@ILibrary@libmedia@UModSys@@UAE_NABU?$TString@U?$TSCoreConst@D@su@tl@UModSys@@U?$TComparerBinaryHash@D@234@@tl@3@PAUIRefObject@core@3@@Z 00407815 f   umodsys_lib_libmedia:umodsys.lib.media.library.obj
 0001:00006815       ?bin_put@ILibrary@libmedia@UModSys@@UAE_NABU?$TString@U?$TSCoreConst@D@su@tl@UModSys@@U?$TComparerBinaryHash@D@234@@tl@3@PBUSCMemShared@core@3@@Z 00407815 f   umodsys_lib_libmedia:umodsys.lib.media.library.obj
 0001:00006815       ?obj_fget@ILibrary@libmedia@UModSys@@UAE_NABUSInfo@IBinObjFilter@23@AAU?$TRefObject@UIRefObject@core@UModSys@@U?$TRefObjectFunc@UIRefObject@core@UModSys@@@tl@3@@tl@3@@Z 00407815 f   umodsys_lib_libmedia:umodsys.lib.media.library.obj
 0001:0000681a       ?obj_save@ILibrary@libmedia@UModSys@@UAE_NABU?$TString@U?$TSCoreConst@D@su@tl@UModSys@@U?$TComparerBinaryHash@D@234@@tl@3@PBUIRefObject@core@3@ABUSObjOptions@123@@Z 0040781a f   umodsys_lib_libmedia:umodsys.lib.media.library.obj
 0001:0000681a       ?vget_c@RConsole_std@rsystem@base@UModSys@@UAE_NPAHPBDPAD@Z 0040781a f   umodsys_lib_basesys:umodsys.basesys.rconsole_std.obj
 0001:0000681a       ?obj_load@ILibrary@libmedia@UModSys@@UAE_NABU?$TString@U?$TSCoreConst@D@su@tl@UModSys@@U?$TComparerBinaryHash@D@234@@tl@3@PAUIRefObject@core@3@ABUSObjOptions@123@@Z 0040781a f   umodsys_lib_libmedia:umodsys.lib.media.library.obj
 0001:0000681a       ?bin_list@ILibrary@libmedia@UModSys@@UAE_NABU?$TString@U?$TSCoreConst@D@su@tl@UModSys@@U?$TComparerBinaryHash@D@234@@tl@3@AAU?$TIStackSocket@USFileInfo@libmedia@UModSys@@@53@ABUSFlags@23@@Z 0040781a f   umodsys_lib_libmedia:umodsys.lib.media.library.obj
 0001:0000681a       ?bin_save@ILibrary@libmedia@UModSys@@UAE_NABU?$TString@U?$TSCoreConst@D@su@tl@UModSys@@U?$TComparerBinaryHash@D@234@@tl@3@ABUSCMem@core@3@ABUSFlags@23@@Z 0040781a f   umodsys_lib_libmedia:umodsys.lib.media.library.obj
 0001:0000681a       ?obj_get@ILibrary@libmedia@UModSys@@UAE_NABU?$TString@U?$TSCoreConst@D@su@tl@UModSys@@U?$TComparerBinaryHash@D@234@@tl@3@AAU?$TRefObject@UIRefObject@core@UModSys@@U?$TRefObjectFunc@UIRefObject@core@UModSys@@@tl@3@@53@ABUSObjOptions@123@@Z 0040781a f   umodsys_lib_libmedia:umodsys.lib.media.library.obj
 0001:0000681a       ?obj_cget@ILibrary@libmedia@UModSys@@UAE_NABU?$TString@U?$TSCoreConst@D@su@tl@UModSys@@U?$TComparerBinaryHash@D@234@@tl@3@AAU?$TRefObject@UIRefObject@core@UModSys@@U?$TRefObjectFunc@UIRefObject@core@UModSys@@@tl@3@@53@_N@Z 0040781a f   umodsys_lib_libmedia:umodsys.lib.media.library.obj
 0001:0000681a       ?bin_get@ILibrary@libmedia@UModSys@@UAE_NABU?$TString@U?$TSCoreConst@D@su@tl@UModSys@@U?$TComparerBinaryHash@D@234@@tl@3@AAUSCMemShared@core@3@_N@Z 0040781a f   umodsys_lib_libmedia:umodsys.lib.media.library.obj
 0001:0000681a       ?bin_info@ILibrary@libmedia@UModSys@@UAE_NABU?$TString@U?$TSCoreConst@D@su@tl@UModSys@@U?$TComparerBinaryHash@D@234@@tl@3@AAUSFileInfo@23@ABUSFlags@23@@Z 0040781a f   umodsys_lib_libmedia:umodsys.lib.media.library.obj
 0001:0000681a       ?bin_load@ILibrary@libmedia@UModSys@@UAE_NABU?$TString@U?$TSCoreConst@D@su@tl@UModSys@@U?$TComparerBinaryHash@D@234@@tl@3@AAUSCMemShared@core@3@ABUSFlags@23@@Z 0040781a f   umodsys_lib_libmedia:umodsys.lib.media.library.obj
 0001:0000681f       ?root_get_interface_info@RConsole_std@rsystem@base@UModSys@@UBEABUSUniquePointerInfo@core@4@XZ 0040781f f i umodsys_lib_basesys:umodsys.basesys.rconsole_std.obj
 0001:00006825       ?root_get_interface_type@RConsole_std@rsystem@base@UModSys@@UBEPBUSUniquePointerInfo@core@4@XZ 00407825 f i umodsys_lib_basesys:umodsys.basesys.rconsole_std.obj
 0001:0000682b       ?root_get_other_interface@RConsole_std@rsystem@base@UModSys@@UBEPBUIRoot@core@4@PBUSUniquePointerInfo@64@@Z 0040782b f i umodsys_lib_basesys:umodsys.basesys.rconsole_std.obj
 0001:0000682b       ?root_get_other_interface@RConsole_std@rsystem@base@UModSys@@UAEPAUIRoot@core@4@PBUSUniquePointerInfo@64@@Z 0040782b f i umodsys_lib_basesys:umodsys.basesys.rconsole_std.obj
 0001:0000684c       ?root_is_interface_supported@RConsole_std@rsystem@base@UModSys@@UBE_NPBUSUniquePointerInfo@core@4@@Z 0040784c f i umodsys_lib_basesys:umodsys.basesys.rconsole_std.obj
 0001:00006873       ?ref_weak@RConsole_std@rsystem@base@UModSys@@UBE_NAAUWeakPointer@IRefObject@core@4@@Z 00407873 f   umodsys_lib_basesys:umodsys.basesys.rconsole_std.obj
 0001:00006873       ?moduledb_load@RModuleLoader@rsystem@base@UModSys@@UAE_NABU?$TString@U?$TSCoreConst@D@su@tl@UModSys@@U?$TComparerBinaryHash@D@234@@tl@4@@Z 00407873 f   umodsys_lib_basesys:umodsys.basesys.rmoduleloader.obj
 0001:00006873       ?moduledb_lib_drop@RModuleLoader@rsystem@base@UModSys@@UAE_NPAUIModuleLibrary@34@@Z 00407873 f   umodsys_lib_basesys:umodsys.basesys.rmoduleloader.obj
 0001:00006878       ?vput@RConsole_std@rsystem@base@UModSys@@UAE_NW4eConsoleLevels@34@PBDPAD@Z 00407878 f   umodsys_lib_basesys:umodsys.basesys.rconsole_std.obj
 0001:00006904       ?put@RConsole_std@rsystem@base@UModSys@@UAA_NW4eConsoleLevels@34@PBDZZ 00407904 f   umodsys_lib_basesys:umodsys.basesys.rconsole_std.obj
 0001:0000691b       ?get_c@RConsole_std@rsystem@base@UModSys@@UAA_NPAHPBDZZ 0040791b f   umodsys_lib_basesys:umodsys.basesys.rconsole_std.obj
 0001:0000691b       ?get_s@RConsole_std@rsystem@base@UModSys@@UAA_NPADIPBDZZ 0040791b f   umodsys_lib_basesys:umodsys.basesys.rconsole_std.obj
 0001:0000691e       ?vget_s@RConsole_std@rsystem@base@UModSys@@UAE_NPADIPBD0@Z 0040791e f   umodsys_lib_basesys:umodsys.basesys.rconsole_std.obj
 0001:00006923       ?reflect@RConsole_std@rsystem@base@UModSys@@QAE_NPBD@Z 00407923 f   umodsys_lib_basesys:umodsys.basesys.rconsole_std.obj
 0001:00006963       ??_GRConsole_std@rsystem@base@UModSys@@UAEPAXI@Z 00407963 f i umodsys_lib_basesys:umodsys.basesys.rconsole_std.obj
 0001:00006963       ??_ERConsole_std@rsystem@base@UModSys@@UAEPAXI@Z 00407963 f i  CIL library: CIL module
 0001:0000698d       ??0EExceptionBase@core@UModSys@@QAE@PBUSSourceContext@12@HPBD@Z 0040798d f i umodsys_lib_basesys:umodsys.basesys.rsystem_main.obj
 0001:000069b8       ?decode_error@EExceptionBase@core@UModSys@@UBEHPADI@Z 004079b8 f i umodsys_lib_basesys:umodsys.basesys.rsystem_main.obj
 0001:000069e1       ?decode_error@EFatal@core@UModSys@@UBEHPADI@Z 004079e1 f i umodsys_lib_basesys:umodsys.basesys.rsystem_main.obj
 0001:00006a0a       ??1EFatal@core@UModSys@@UAE@XZ 00407a0a f i umodsys_lib_basesys:umodsys.basesys.rsystem_main.obj
 0001:00006a0a       ??1EWarning@core@UModSys@@UAE@XZ 00407a0a f i umodsys_lib_basesys:umodsys.basesys.rsystem_main.obj
 0001:00006a11       ?decode_error@EWarning@core@UModSys@@UBEHPADI@Z 00407a11 f i umodsys_lib_basesys:umodsys.basesys.rsystem_main.obj
 0001:00006a3a       ??_GEExceptionBase@core@UModSys@@UAEPAXI@Z 00407a3a f i umodsys_lib_basesys:umodsys.basesys.rsystem_main.obj
 0001:00006a3a       ??_EEWarning@core@UModSys@@UAEPAXI@Z 00407a3a f i  CIL library: CIL module
 0001:00006a3a       ??_EEFatal@core@UModSys@@UAEPAXI@Z 00407a3a f i  CIL library: CIL module
 0001:00006a3a       ??_GEWarning@core@UModSys@@UAEPAXI@Z 00407a3a f i umodsys_lib_basesys:umodsys.basesys.rsystem_main.obj
 0001:00006a3a       ??_EEExceptionBase@core@UModSys@@UAEPAXI@Z 00407a3a f i  CIL library: CIL module
 0001:00006a3a       ??_GEFatal@core@UModSys@@UAEPAXI@Z 00407a3a f i umodsys_lib_basesys:umodsys.basesys.rsystem_main.obj
 0001:00006a57       ?root_get_interface_info@RSystem@rsystem@base@UModSys@@UBEABUSUniquePointerInfo@core@4@XZ 00407a57 f i umodsys_lib_basesys:umodsys.basesys.rsystem_main.obj
 0001:00006a5d       ?root_get_interface_type@RSystem@rsystem@base@UModSys@@UBEPBUSUniquePointerInfo@core@4@XZ 00407a5d f i umodsys_lib_basesys:umodsys.basesys.rsystem_main.obj
 0001:00006a63       ?root_get_other_interface@RSystem@rsystem@base@UModSys@@UAEPAUIRoot@core@4@PBUSUniquePointerInfo@64@@Z 00407a63 f i umodsys_lib_basesys:umodsys.basesys.rsystem_main.obj
 0001:00006a63       ?root_get_other_interface@RSystem@rsystem@base@UModSys@@UBEPBUIRoot@core@4@PBUSUniquePointerInfo@64@@Z 00407a63 f i umodsys_lib_basesys:umodsys.basesys.rsystem_main.obj
 0001:00006a84       ?root_is_interface_supported@RSystem@rsystem@base@UModSys@@UBE_NPBUSUniquePointerInfo@core@4@@Z 00407a84 f i umodsys_lib_basesys:umodsys.basesys.rsystem_main.obj
 0001:00006aaa       ?init@RSystem@rsystem@base@UModSys@@QAE_NXZ 00407aaa f   umodsys_lib_basesys:umodsys.basesys.rsystem_main.obj
 0001:00006b9e       ?deinit@RSystem@rsystem@base@UModSys@@QAE_NXZ 00407b9e f   umodsys_lib_basesys:umodsys.basesys.rsystem_main.obj
 0001:00006c58       ?set_console@RSystem@rsystem@base@UModSys@@QAEXPAUIConsole@34@@Z 00407c58 f   umodsys_lib_basesys:umodsys.basesys.rsystem_main.obj
 0001:00006c7f       ??0RSystem@rsystem@base@UModSys@@QAE@XZ 00407c7f f   umodsys_lib_basesys:umodsys.basesys.rsystem_main.obj
 0001:00006dc0       ??_GRSystem@rsystem@base@UModSys@@UAEPAXI@Z 00407dc0 f i umodsys_lib_basesys:umodsys.basesys.rsystem_main.obj
 0001:00006dc0       ??_ERSystem@rsystem@base@UModSys@@UAEPAXI@Z 00407dc0 f i  CIL library: CIL module
 0001:00006ddd       ??1RSystem@rsystem@base@UModSys@@UAE@XZ 00407ddd f   umodsys_lib_basesys:umodsys.basesys.rsystem_main.obj
 0001:00006e76       ?dbg_put@rsystem@base@UModSys@@YAXW4eRSystemDebugLevels@123@PBDZZ 00407e76 f   umodsys_lib_basesys:umodsys.basesys.rsystem_main.obj
 0001:00006ea2       ?err_put@rsystem@base@UModSys@@YAXW4eRSystemDebugLevels@123@PBDZZ 00407ea2 f   umodsys_lib_basesys:umodsys.basesys.rsystem_main.obj
 0001:00006ece       ??1?$TStaticStringPool@DU?$TComparerBinaryHash@D@su@tl@UModSys@@USMemAlloc_Malloc@core@4@@tl@UModSys@@QAE@XZ 00407ece f i umodsys_lib_basesys:umodsys.basesys.rsystem_main.obj
 0001:00006ed3       ??1?$TQuantArrayUnique@USUniquePointerInfo@core@UModSys@@$0BAA@USMemAlloc_Malloc@23@@tl@UModSys@@QAE@XZ 00407ed3 f i umodsys_lib_basesys:umodsys.basesys.rsystem_main.obj
 0001:00006ed3       ??1?$TQuantArrayUnique@USSourceContext@core@UModSys@@$0BAA@USMemAlloc_Malloc@23@@tl@UModSys@@QAE@XZ 00407ed3 f i umodsys_lib_basesys:umodsys.basesys.rsystem_main.obj
 0001:00006f09       ??1?$TTreeHoldRBD@U?$TQuantArrayNode@USUniquePointerInfo@core@UModSys@@$0BAA@@tl@UModSys@@U?$TNodeDeleter@U?$TQuantArrayNode@USUniquePointerInfo@core@UModSys@@$0BAA@@tl@UModSys@@USMemAlloc_Malloc@core@3@@23@@tl@UModSys@@QAE@XZ 00407f09 f i umodsys_lib_basesys:umodsys.basesys.rsystem_main.obj
 0001:00006f09       ??1?$TTreeHoldRBD@U?$TQuantArrayNode@USSourceContext@core@UModSys@@$0BAA@@tl@UModSys@@U?$TNodeDeleter@U?$TQuantArrayNode@USSourceContext@core@UModSys@@$0BAA@@tl@UModSys@@USMemAlloc_Malloc@core@3@@23@@tl@UModSys@@QAE@XZ 00407f09 f i umodsys_lib_basesys:umodsys.basesys.rsystem_main.obj
 0001:00006f1f       ?mem_alloc@?$TRMemAlloc_CC@U?$TMemAllocHeader@USMagic@mem_headers@rsystem@base@UModSys@@U?$TPool@X@2345@USDebug@2345@UVoid@core@5@U895@@rsystem@base@UModSys@@USMemAlloc_Malloc@core@4@@rsystem@base@UModSys@@UAEPAXIPBUSSourceContext@core@4@@Z 00407f1f f i umodsys_lib_basesys:umodsys.basesys.rsystem_main.obj
 0001:00006f79       ?mem_realloc@?$TRMemAlloc_CC@U?$TMemAllocHeader@USMagic@mem_headers@rsystem@base@UModSys@@U?$TPool@X@2345@USDebug@2345@UVoid@core@5@U895@@rsystem@base@UModSys@@USMemAlloc_Malloc@core@4@@rsystem@base@UModSys@@UAEPAXPAXIPBUSSourceContext@core@4@@Z 00407f79 f i umodsys_lib_basesys:umodsys.basesys.rsystem_main.obj
 0001:000070fc       ?mem_free@?$TRMemAlloc_CC@U?$TMemAllocHeader@USMagic@mem_headers@rsystem@base@UModSys@@U?$TPool@X@2345@USDebug@2345@UVoid@core@5@U895@@rsystem@base@UModSys@@USMemAlloc_Malloc@core@4@@rsystem@base@UModSys@@UAEXPAXPBUSSourceContext@core@4@@Z 004080fc f i umodsys_lib_basesys:umodsys.basesys.rsystem_main.obj
 0001:00007196       ?free@?$TStaticStringPool@DU?$TComparerBinaryHash@D@su@tl@UModSys@@USMemAlloc_Malloc@core@4@@tl@UModSys@@QAEXXZ 00408196 f i umodsys_lib_basesys:umodsys.basesys.rsystem_main.obj
 0001:000071d1       ??$valid@U?$TRMemAlloc_CC@U?$TMemAllocHeader@USMagic@mem_headers@rsystem@base@UModSys@@U?$TPool@X@2345@USDebug@2345@UVoid@core@5@U895@@rsystem@base@UModSys@@USMemAlloc_Malloc@core@4@@rsystem@base@UModSys@@@?$TMemAllocHeader@USMagic@mem_headers@rsystem@base@UModSys@@U?$TPool@X@2345@USDebug@2345@UVoid@core@5@U895@@rsystem@base@UModSys@@QBE_NPBU?$TRMemAlloc_CC@U?$TMemAllocHeader@USMagic@mem_headers@rsystem@base@UModSys@@U?$TPool@X@2345@USDebug@2345@UVoid@core@5@U895@@rsystem@base@UModSys@@USMemAlloc_Malloc@core@4@@123@@Z 004081d1 f i umodsys_lib_basesys:umodsys.basesys.rsystem_main.obj
 0001:000071f8       ??$process@UEFatal@core@UModSys@@@IExceptionHandler@core@UModSys@@QAEXABUEFatal@12@@Z 004081f8 f i umodsys_lib_basesys:umodsys.basesys.rsystem_main.obj
 0001:0000722a       ??$process_nodes_r@U?$TNodeDeleter@U?$TQuantArrayNode@USUniquePointerInfo@core@UModSys@@$0BAA@@tl@UModSys@@USMemAlloc_Malloc@core@3@@tl@UModSys@@@?$TTreeHoldRB@U?$TQuantArrayNode@USUniquePointerInfo@core@UModSys@@$0BAA@@tl@UModSys@@@tl@UModSys@@KAHPAU?$TQuantArrayNode@USUniquePointerInfo@core@UModSys@@$0BAA@@12@ABU?$TNodeDeleter@U?$TQuantArrayNode@USUniquePointerInfo@core@UModSys@@$0BAA@@tl@UModSys@@USMemAlloc_Malloc@core@3@@12@@Z 0040822a f i umodsys_lib_basesys:umodsys.basesys.rsystem_main.obj
 0001:0000722a       ??$process_nodes_r@U?$TNodeDeleter@U?$TQuantArrayNode@USSourceContext@core@UModSys@@$0BAA@@tl@UModSys@@USMemAlloc_Malloc@core@3@@tl@UModSys@@@?$TTreeHoldRB@U?$TQuantArrayNode@USSourceContext@core@UModSys@@$0BAA@@tl@UModSys@@@tl@UModSys@@KAHPAU?$TQuantArrayNode@USSourceContext@core@UModSys@@$0BAA@@12@ABU?$TNodeDeleter@U?$TQuantArrayNode@USSourceContext@core@UModSys@@$0BAA@@tl@UModSys@@USMemAlloc_Malloc@core@3@@12@@Z 0040822a f i umodsys_lib_basesys:umodsys.basesys.rsystem_main.obj
 0001:0000726c       ??0EFatal@core@UModSys@@QAE@ABU012@@Z 0040826c f i umodsys_lib_basesys:umodsys.basesys.rsystem_main.obj
 0001:00007284       ??0EExceptionBase@core@UModSys@@QAE@ABU012@@Z 00408284 f i umodsys_lib_basesys:umodsys.basesys.rsystem_main.obj
 0001:000072ac       ??0EWarning@core@UModSys@@QAE@ABU012@@Z 004082ac f i umodsys_lib_basesys:umodsys.basesys.rsystem_main.obj
 0001:000072c4       ?exec_test_shells@RSystem@rsystem@base@UModSys@@QAE_NXZ 004082c4 f   umodsys_lib_basesys:umodsys.basesys.rsystem_tests.obj
 0001:0000743a       ??1?$TParametersA@$0EAA@@core@UModSys@@QAE@XZ 0040843a f i umodsys_lib_basesys:umodsys.basesys.rsystem_tests.obj
 0001:00007447       ??$t_moduledb_generate@UIShell@base@UModSys@@@IModuleLoader@base@UModSys@@QAE_NAAU?$TRefObject@UIShell@base@UModSys@@U?$TRefObjectFunc@UIShell@base@UModSys@@@tl@3@@tl@2@PBUSUniquePointerInfo@core@2@ABUSParameters@62@@Z 00408447 f i umodsys_lib_basesys:umodsys.basesys.rsystem_tests.obj
 0001:000074d9       ?eq@SModuleInfo@base@UModSys@@QBE_NABU?$TString@U?$TSCoreConst@D@su@tl@UModSys@@U?$TComparerBinaryHash@D@234@@tl@3@ABUSVersion@core@3@@Z 004084d9 f i umodsys_lib_basesys:umodsys.basesys.rmoduleloader.obj
 0001:000074fe       ?moduledb_findobjname@RModuleLoader@rsystem@base@UModSys@@UAEIPBUSUniquePointerInfo@core@4@QAPBU564@IPBD@Z 004084fe f   umodsys_lib_basesys:umodsys.basesys.rmoduleloader.obj
 0001:0000756b       ?moduledb_generate@RModuleLoader@rsystem@base@UModSys@@UAE_NAAU?$TRefObject@UIRefObject@core@UModSys@@U?$TRefObjectFunc@UIRefObject@core@UModSys@@@tl@3@@tl@4@PBUSUniquePointerInfo@core@4@ABUSParameters@84@@Z 0040856b f   umodsys_lib_basesys:umodsys.basesys.rmoduleloader.obj
 0001:000075c0       ?moduledb_lib_count@RModuleLoader@rsystem@base@UModSys@@UAEIXZ 004085c0 f   umodsys_lib_basesys:umodsys.basesys.rmoduleloader.obj
 0001:000075c5       ?moduledb_lib_get@RModuleLoader@rsystem@base@UModSys@@UBEPAUIModuleLibrary@34@I@Z 004085c5 f   umodsys_lib_basesys:umodsys.basesys.rmoduleloader.obj
 0001:000075e5       ?moduledb_module_count@RModuleLoader@rsystem@base@UModSys@@UAEIXZ 004085e5 f   umodsys_lib_basesys:umodsys.basesys.rmoduleloader.obj
 0001:00007607       ?moduledb_module_get@RModuleLoader@rsystem@base@UModSys@@UBEPAUIModule@34@I@Z 00408607 f   umodsys_lib_basesys:umodsys.basesys.rmoduleloader.obj
 0001:00007655       ?moduledb_find@RModuleLoader@rsystem@base@UModSys@@UBEPAUIModule@34@ABU?$TString@U?$TSCoreConst@D@su@tl@UModSys@@U?$TComparerBinaryHash@D@234@@tl@4@ABUSVersion@core@4@@Z 00408655 f   umodsys_lib_basesys:umodsys.basesys.rmoduleloader.obj
 0001:0000770c       ?moduledb_clear@RModuleLoader@rsystem@base@UModSys@@UAEXXZ 0040870c f   umodsys_lib_basesys:umodsys.basesys.rmoduleloader.obj
 0001:0000775b       ?moduledb_cleanup@RModuleLoader@rsystem@base@UModSys@@UAEIXZ 0040875b f   umodsys_lib_basesys:umodsys.basesys.rmoduleloader.obj
 0001:0000785d       ?moduledb_save@RModuleLoader@rsystem@base@UModSys@@UAE_NABU?$TString@U?$TSCoreConst@D@su@tl@UModSys@@U?$TComparerBinaryHash@D@234@@tl@4@@Z 0040885d f   umodsys_lib_basesys:umodsys.basesys.rmoduleloader.obj
 0001:000078dd       ?moduledb_scan@RModuleLoader@rsystem@base@UModSys@@UAEIABU?$TString@U?$TSCoreConst@D@su@tl@UModSys@@U?$TComparerBinaryHash@D@234@@tl@4@_N@Z 004088dd f   umodsys_lib_basesys:umodsys.basesys.rmoduleloader.obj
 0001:0000796b       ?moduledb_get_string@RModuleLoader@rsystem@base@UModSys@@UAEABU?$TString@U?$TSCoreConst@D@su@tl@UModSys@@U?$TComparerBinaryHash@D@234@@tl@4@ABU564@@Z 0040896b f   umodsys_lib_basesys:umodsys.basesys.rmoduleloader.obj
 0001:0000797e       ??_GRModuleLoader@rsystem@base@UModSys@@UAEPAXI@Z 0040897e f i umodsys_lib_basesys:umodsys.basesys.rmoduleloader.obj
 0001:0000797e       ??_ERModuleLoader@rsystem@base@UModSys@@UAEPAXI@Z 0040897e f i  CIL library: CIL module
 0001:0000799b       ??_EIModuleLoader@base@UModSys@@UAEPAXI@Z 0040899b f i  CIL library: CIL module
 0001:0000799b       ??_GIModuleLoader@base@UModSys@@UAEPAXI@Z 0040899b f i umodsys_lib_basesys:umodsys.basesys.rmoduleloader.obj
 0001:000079b8       ??1RModuleLoader@rsystem@base@UModSys@@UAE@XZ 004089b8 f   umodsys_lib_basesys:umodsys.basesys.rmoduleloader.obj
 0001:00007a1e       ?append@?$TStaticStringPool@DU?$TComparerBinaryHash@D@su@tl@UModSys@@USMemAlloc_Malloc@core@4@@tl@UModSys@@QAEPBU?$TString@U?$TSCoreConst@D@su@tl@UModSys@@U?$TComparerBinaryHash@D@234@@23@PBD@Z 00408a1e f i umodsys_lib_basesys:umodsys.basesys.rmoduleloader.obj
 0001:00007a3b       ??1?$TDynarrayDynamic@U?$TRefObject@URModuleLibrarySO@rsystem@base@UModSys@@U?$TRefObjectFunc@URModuleLibrarySO@rsystem@base@UModSys@@@tl@4@@tl@UModSys@@U?$TAllocator@USMemAlloc_Malloc@core@UModSys@@USCountCalcPower2@23@@23@@tl@UModSys@@QAE@XZ 00408a3b f i umodsys_lib_basesys:umodsys.basesys.rmoduleloader.obj
 0001:00007a59       ?Free@?$TDynarray@U?$TDynarrayHolderDynamic@U?$TRefObject@URModuleLibrarySO@rsystem@base@UModSys@@U?$TRefObjectFunc@URModuleLibrarySO@rsystem@base@UModSys@@@tl@4@@tl@UModSys@@U?$TAllocator@USMemAlloc_Malloc@core@UModSys@@USCountCalcPower2@23@@23@@tl@UModSys@@@tl@UModSys@@QAE_NXZ 00408a59 f i umodsys_lib_basesys:umodsys.basesys.rmoduleloader.obj
 0001:00007a81       ?Resize@?$TDynarray@U?$TDynarrayHolderDynamic@U?$TRefObject@URModuleLibrarySO@rsystem@base@UModSys@@U?$TRefObjectFunc@URModuleLibrarySO@rsystem@base@UModSys@@@tl@4@@tl@UModSys@@U?$TAllocator@USMemAlloc_Malloc@core@UModSys@@USCountCalcPower2@23@@23@@tl@UModSys@@@tl@UModSys@@QAE_NI@Z 00408a81 f i umodsys_lib_basesys:umodsys.basesys.rmoduleloader.obj
 0001:00007adb       ?append@?$TStaticStringPool@DU?$TComparerBinaryHash@D@su@tl@UModSys@@USMemAlloc_Malloc@core@4@@tl@UModSys@@QAEPBU?$TString@U?$TSCoreConst@D@su@tl@UModSys@@U?$TComparerBinaryHash@D@234@@23@PBDI@Z 00408adb f i umodsys_lib_basesys:umodsys.basesys.rmoduleloader.obj
 0001:00007c0d       ?ReLink@?$TDynarray@U?$TDynarrayHolderDynamic@U?$TRefObject@URModule@rsystem@base@UModSys@@U?$TRefObjectFunc@URModule@rsystem@base@UModSys@@@tl@4@@tl@UModSys@@U?$TAllocator@USMemAlloc_Malloc@core@UModSys@@USCountCalcPower2@23@@23@@tl@UModSys@@@tl@UModSys@@IAE_NI@Z 00408c0d f i umodsys_lib_basesys:umodsys.basesys.rmodulelib.obj
 0001:00007c0d       ?ReLink@?$TDynarray@U?$TDynarrayHolderDynamic@U?$TRefObject@URModuleLibrarySO@rsystem@base@UModSys@@U?$TRefObjectFunc@URModuleLibrarySO@rsystem@base@UModSys@@@tl@4@@tl@UModSys@@U?$TAllocator@USMemAlloc_Malloc@core@UModSys@@USCountCalcPower2@23@@23@@tl@UModSys@@@tl@UModSys@@IAE_NI@Z 00408c0d f i umodsys_lib_basesys:umodsys.basesys.rmoduleloader.obj
 0001:00007c49       ?items_destruct@?$TDynarray@U?$TDynarrayHolderDynamic@U?$TRefObject@URModuleLibrarySO@rsystem@base@UModSys@@U?$TRefObjectFunc@URModuleLibrarySO@rsystem@base@UModSys@@@tl@4@@tl@UModSys@@U?$TAllocator@USMemAlloc_Malloc@core@UModSys@@USCountCalcPower2@23@@23@@tl@UModSys@@@tl@UModSys@@IAEXII@Z 00408c49 f i umodsys_lib_basesys:umodsys.basesys.rmoduleloader.obj
 0001:00007c74       ?append@CharChunk@?$TStaticStringPool@DU?$TComparerBinaryHash@D@su@tl@UModSys@@USMemAlloc_Malloc@core@4@@tl@UModSys@@QAEPADPBDI@Z 00408c74 f i umodsys_lib_basesys:umodsys.basesys.rmoduleloader.obj
 0001:00007c9d       ?find_s@?$TStaticStringPool@DU?$TComparerBinaryHash@D@su@tl@UModSys@@USMemAlloc_Malloc@core@4@@tl@UModSys@@QBEPBU?$TString@U?$TSCoreConst@D@su@tl@UModSys@@U?$TComparerBinaryHash@D@234@@23@ABU423@@Z 00408c9d f i umodsys_lib_basesys:umodsys.basesys.rmoduleloader.obj
 0001:00007cf1       ?_root_is_interface_supported@IModuleLibraryUni@rsystem@base@UModSys@@SA_NPBUSUniquePointerInfo@core@4@@Z 00408cf1 f i umodsys_lib_basesys:umodsys.basesys.rmodulelibthis.obj
 0001:00007d11       ?root_get_interface_info@RModuleLibraryThis@rsystem@base@UModSys@@UBEABUSUniquePointerInfo@core@4@XZ 00408d11 f i umodsys_lib_basesys:umodsys.basesys.rmodulelibthis.obj
 0001:00007d17       ?root_get_interface_type@RModuleLibraryThis@rsystem@base@UModSys@@UBEPBUSUniquePointerInfo@core@4@XZ 00408d17 f i umodsys_lib_basesys:umodsys.basesys.rmodulelibthis.obj
 0001:00007d1d       ?root_get_interface_types@RLibraryBinTree@stdlib@media@modules@UModSys@@UBEIAAUSUniquePtrList@core@5@@Z 00408d1d f i umodsys_lib_libmedia:umodsys.mod.media.stdlib.obj
 0001:00007d1d       ?root_get_interface_types@RModuleLibrarySO@rsystem@base@UModSys@@UBEIAAUSUniquePtrList@core@4@@Z 00408d1d f i umodsys_lib_basesys:umodsys.basesys.rmodulelibso.obj
 0001:00007d1d       ?root_get_interface_types@RUtilities@stdlib@media@modules@UModSys@@UBEIAAUSUniquePtrList@core@5@@Z 00408d1d f i umodsys_lib_libmedia:umodsys.mod.media.stdlib.obj
 0001:00007d1d       ?root_get_interface_types@RSystem@rsystem@base@UModSys@@UBEIAAUSUniquePtrList@core@4@@Z 00408d1d f i umodsys_lib_basesys:umodsys.basesys.rsystem_main.obj
 0001:00007d1d       ?root_get_interface_types@RStreamReader_FILE@stdio@media@modules@UModSys@@UBEIAAUSUniquePtrList@core@5@@Z 00408d1d f i umodsys_lib_libmedia:umodsys.mod.media.stdio.obj
 0001:00007d1d       ?root_get_interface_types@RStreamWriter_FILE@stdio@media@modules@UModSys@@UBEIAAUSUniquePtrList@core@5@@Z 00408d1d f i umodsys_lib_libmedia:umodsys.mod.media.stdio.obj
 0001:00007d1d       ?root_get_interface_types@RLibraryLayered@stdlib@media@modules@UModSys@@UBEIAAUSUniquePtrList@core@5@@Z 00408d1d f i umodsys_lib_libmedia:umodsys.mod.media.stdlib.obj
 0001:00007d1d       ?root_get_interface_types@RDataArchiver_OsDir@stdio@media@modules@UModSys@@UBEIAAUSUniquePtrList@core@5@@Z 00408d1d f i umodsys_lib_libmedia:umodsys.mod.media.stdio.obj
 0001:00007d1d       ?root_get_interface_types@RModuleLibraryThis@rsystem@base@UModSys@@UBEIAAUSUniquePtrList@core@4@@Z 00408d1d f i umodsys_lib_basesys:umodsys.basesys.rmodulelibthis.obj
 0001:00007d1d       ?root_get_interface_types@RBinArchiveFrame@stdlib@media@modules@UModSys@@UBEIAAUSUniquePtrList@core@5@@Z 00408d1d f i umodsys_lib_libmedia:umodsys.mod.media.stdlib.obj
 0001:00007d1d       ?root_get_interface_types@RConsole_std@rsystem@base@UModSys@@UBEIAAUSUniquePtrList@core@4@@Z 00408d1d f i umodsys_lib_basesys:umodsys.basesys.rconsole_std.obj
 0001:00007d1d       ?root_get_interface_types@RLibraryObjFilter@stdlib@media@modules@UModSys@@UBEIAAUSUniquePtrList@core@5@@Z 00408d1d f i umodsys_lib_libmedia:umodsys.mod.media.stdlib.obj
 0001:00007d1d       ?root_get_interface_types@RParameters@rsystem@base@UModSys@@UBEIAAUSUniquePtrList@core@4@@Z 00408d1d f i umodsys_lib_basesys:umodsys.basesys.rparameters.obj
 0001:00007d1d       ?root_get_interface_types@RModule@rsystem@base@UModSys@@UBEIAAUSUniquePtrList@core@4@@Z 00408d1d f i umodsys_lib_basesys:umodsys.basesys.rmodule.obj
 0001:00007d1d       ?root_get_interface_types@RLibraryObjCache@stdlib@media@modules@UModSys@@UBEIAAUSUniquePtrList@core@5@@Z 00408d1d f i umodsys_lib_libmedia:umodsys.mod.media.stdlib.obj
 0001:00007d1d       ?root_get_interface_types@RGenerator@stdlib@media@modules@UModSys@@UBEIAAUSUniquePtrList@core@5@@Z 00408d1d f i umodsys_lib_libmedia:umodsys.mod.media.stdlib.obj
 0001:00007d1d       ?root_get_interface_types@RLibraryBinCache@stdlib@media@modules@UModSys@@UBEIAAUSUniquePtrList@core@5@@Z 00408d1d f i umodsys_lib_libmedia:umodsys.mod.media.stdlib.obj
 0001:00007d1d       ?root_get_interface_types@RGenerator@stdio@media@modules@UModSys@@UBEIAAUSUniquePtrList@core@5@@Z 00408d1d f i umodsys_lib_libmedia:umodsys.mod.media.stdio.obj
 0001:00007d22       ?root_get_other_interface@RModuleLibraryThis@rsystem@base@UModSys@@UBEPBUIRoot@core@4@PBUSUniquePointerInfo@64@@Z 00408d22 f i umodsys_lib_basesys:umodsys.basesys.rmodulelibthis.obj
 0001:00007d22       ?root_get_other_interface@RModuleLibraryThis@rsystem@base@UModSys@@UAEPAUIRoot@core@4@PBUSUniquePointerInfo@64@@Z 00408d22 f i umodsys_lib_basesys:umodsys.basesys.rmodulelibthis.obj
 0001:00007d4b       ?root_is_interface_supported@RModuleLibraryThis@rsystem@base@UModSys@@UBE_NPBUSUniquePointerInfo@core@4@@Z 00408d4b f i umodsys_lib_basesys:umodsys.basesys.rmodulelibthis.obj
 0001:00007d6a       ?ref_add@RModuleLibraryThis@rsystem@base@UModSys@@UBEXXZ 00408d6a f i umodsys_lib_basesys:umodsys.basesys.rmodulelibthis.obj
 0001:00007d6e       ?ref_remove@RModuleLibraryThis@rsystem@base@UModSys@@UBEXXZ 00408d6e f i umodsys_lib_basesys:umodsys.basesys.rmodulelibthis.obj
 0001:00007d79       ?ref_links@RModuleLibraryThis@rsystem@base@UModSys@@UBEHXZ 00408d79 f i umodsys_lib_basesys:umodsys.basesys.rmodulelibthis.obj
 0001:00007d7d       ?ref_weak@RModuleLibraryThis@rsystem@base@UModSys@@UBE_NAAUWeakPointer@IRefObject@core@4@@Z 00408d7d f i umodsys_lib_basesys:umodsys.basesys.rmodulelibthis.obj
 0001:00007d9c       ?uni_load@RModuleLibraryThis@rsystem@base@UModSys@@UAE_NXZ 00408d9c f   umodsys_lib_basesys:umodsys.basesys.rmodulelibthis.obj
 0001:00007da6       ?uni_close@RModuleLibraryThis@rsystem@base@UModSys@@UAE_NXZ 00408da6 f   umodsys_lib_basesys:umodsys.basesys.rmodulelibthis.obj
 0001:00007da6       ?uni_open@RModuleLibraryThis@rsystem@base@UModSys@@UAE_NXZ 00408da6 f   umodsys_lib_basesys:umodsys.basesys.rmodulelibthis.obj
 0001:00007da6       ?uni_unload@RModuleLibraryThis@rsystem@base@UModSys@@UAE_NXZ 00408da6 f   umodsys_lib_basesys:umodsys.basesys.rmodulelibthis.obj
 0001:00007da9       ??_ERModuleLibraryThis@rsystem@base@UModSys@@UAEPAXI@Z 00408da9 f i  CIL library: CIL module
 0001:00007da9       ??_GRModuleLibraryThis@rsystem@base@UModSys@@UAEPAXI@Z 00408da9 f i umodsys_lib_basesys:umodsys.basesys.rmodulelibthis.obj
 0001:00007df0       ?get_sys_libname@IModuleLibraryUni@rsystem@base@UModSys@@UBE?AU?$TString@U?$TSCoreConst@D@su@tl@UModSys@@U?$TComparerBinaryHash@D@234@@tl@4@XZ 00408df0 f   umodsys_lib_basesys:umodsys.basesys.rmodulelib.obj
 0001:00007e08       ?get_privmem@IModuleLibraryUni@rsystem@base@UModSys@@UBEPAUIMemAlloc@core@4@XZ 00408e08 f   umodsys_lib_basesys:umodsys.basesys.rmodulelib.obj
 0001:00007e0c       ?get_module_count@IModuleLibraryUni@rsystem@base@UModSys@@UBEIXZ 00408e0c f   umodsys_lib_basesys:umodsys.basesys.rmodulelib.obj
 0001:00007e10       ?get_module@IModuleLibraryUni@rsystem@base@UModSys@@UBEPAUIModule@34@I@Z 00408e10 f   umodsys_lib_basesys:umodsys.basesys.rmodulelib.obj
 0001:00007e26       ?lib_loaded@IModuleLibraryUni@rsystem@base@UModSys@@UBE_NXZ 00408e26 f   umodsys_lib_basesys:umodsys.basesys.rmodulelib.obj
 0001:00007e2f       ?lib_load@IModuleLibraryUni@rsystem@base@UModSys@@UAE_NXZ 00408e2f f   umodsys_lib_basesys:umodsys.basesys.rmodulelib.obj
 0001:00007e4c       ?lib_unload@IModuleLibraryUni@rsystem@base@UModSys@@UAE_NXZ 00408e4c f   umodsys_lib_basesys:umodsys.basesys.rmodulelib.obj
 0001:00007e60       ?lib_free@IModuleLibraryUni@rsystem@base@UModSys@@UAE_NXZ 00408e60 f   umodsys_lib_basesys:umodsys.basesys.rmodulelib.obj
 0001:00007e79       ?lib_findobjname@IModuleLibraryUni@rsystem@base@UModSys@@UAEIPBUSUniquePointerInfo@core@4@QAPBU564@IPBD@Z 00408e79 f   umodsys_lib_basesys:umodsys.basesys.rmodulelib.obj
 0001:00007ed2       ?lib_generate@IModuleLibraryUni@rsystem@base@UModSys@@UAE_NAAU?$TRefObject@UIRefObject@core@UModSys@@U?$TRefObjectFunc@UIRefObject@core@UModSys@@@tl@3@@tl@4@PBUSUniquePointerInfo@core@4@ABUSParameters@84@@Z 00408ed2 f   umodsys_lib_basesys:umodsys.basesys.rmodulelib.obj
 0001:00007f0d       ?cleanup@IModuleLibraryUni@rsystem@base@UModSys@@QAEIXZ 00408f0d f   umodsys_lib_basesys:umodsys.basesys.rmodulelib.obj
 0001:00007f39       ?load0@IModuleLibraryUni@rsystem@base@UModSys@@QAE_NXZ 00408f39 f   umodsys_lib_basesys:umodsys.basesys.rmodulelib.obj
 0001:00007f7e       ?link@IModuleLibraryUni@rsystem@base@UModSys@@QAE_NXZ 00408f7e f   umodsys_lib_basesys:umodsys.basesys.rmodulelib.obj
 0001:00008100       ?unlink@IModuleLibraryUni@rsystem@base@UModSys@@QAE_NXZ 00409100 f   umodsys_lib_basesys:umodsys.basesys.rmodulelib.obj
 0001:00008133       ?scan@IModuleLibraryUni@rsystem@base@UModSys@@QAE_NXZ 00409133 f   umodsys_lib_basesys:umodsys.basesys.rmodulelib.obj
 0001:0000817f       ?save_db@IModuleLibraryUni@rsystem@base@UModSys@@QAE_NPAU_iobuf@@@Z 0040917f f   umodsys_lib_basesys:umodsys.basesys.rmodulelib.obj
 0001:000081e1       ??0IModuleLibraryUni@rsystem@base@UModSys@@QAE@PAUISystem@23@PAUIModuleLibraryReg@23@@Z 004091e1 f   umodsys_lib_basesys:umodsys.basesys.rmodulelib.obj
 0001:00008230       ??_EIModuleLibraryUni@rsystem@base@UModSys@@UAEPAXI@Z 00409230 f i  CIL library: CIL module
 0001:00008230       ??_GIModuleLibraryUni@rsystem@base@UModSys@@UAEPAXI@Z 00409230 f i umodsys_lib_basesys:umodsys.basesys.rmodulelib.obj
 0001:0000824c       ??1IModuleLibraryUni@rsystem@base@UModSys@@UAE@XZ 0040924c f   umodsys_lib_basesys:umodsys.basesys.rmodulelib.obj
 0001:00008272       ??1?$TDynarray@U?$TDynarrayHolderDynamic@U?$TRefObject@URModule@rsystem@base@UModSys@@U?$TRefObjectFunc@URModule@rsystem@base@UModSys@@@tl@4@@tl@UModSys@@U?$TAllocator@USMemAlloc_Malloc@core@UModSys@@USCountCalcPower2@23@@23@@tl@UModSys@@@tl@UModSys@@QAE@XZ 00409272 f i umodsys_lib_basesys:umodsys.basesys.rmodulelib.obj
 0001:000082aa       ?ResizeRel@?$TDynarray@U?$TDynarrayHolderDynamic@U?$TRefObject@URModule@rsystem@base@UModSys@@U?$TRefObjectFunc@URModule@rsystem@base@UModSys@@@tl@4@@tl@UModSys@@U?$TAllocator@USMemAlloc_Malloc@core@UModSys@@USCountCalcPower2@23@@23@@tl@UModSys@@@tl@UModSys@@QAE_NH@Z 004092aa f i umodsys_lib_basesys:umodsys.basesys.rmodulelib.obj
 0001:0000832a       ?info_release@?$TSCoreShared@USMemAlloc_Malloc@core@UModSys@@D@su@tl@UModSys@@QAEXXZ 0040932a f i umodsys_lib_basesys:umodsys.basesys.rmodulelib.obj
 0001:0000835b       ?get_null@?$TSCoreShared@USMemAlloc_Malloc@core@UModSys@@D@su@tl@UModSys@@SAPAU?$TSharedStringInfo@DUSMemAlloc_Malloc@core@UModSys@@@234@XZ 0040935b f i umodsys_lib_basesys:umodsys.basesys.rmodulelib.obj
 0001:00008389       ?check_leaks@?$TRMemAlloc_CC@U?$TMemAllocHeader@USMagic@mem_headers@rsystem@base@UModSys@@U?$TPool@X@2345@USDebug@2345@UVoid@core@5@U895@@rsystem@base@UModSys@@USMemAlloc_Malloc@core@4@@rsystem@base@UModSys@@QAEI_NPAUIExceptionHandler@core@4@@Z 00409389 f i umodsys_lib_basesys:umodsys.basesys.rmodulelib.obj
 0001:000083f9       ?scalar_compare@core@UModSys@@YAHABUSUniquePointerInfo@12@0@Z 004093f9 f i umodsys_lib_basesys:umodsys.basesys.rsystem.obj
 0001:0000843c       ?upi_add@RSystem@rsystem@base@UModSys@@UAEPBUSUniquePointerInfo@core@4@PBU564@@Z 0040943c f   umodsys_lib_basesys:umodsys.basesys.rsystem.obj
 0001:000084e4       ?upi_remove@RSystem@rsystem@base@UModSys@@UAEHPBUSUniquePointerInfo@core@4@@Z 004094e4 f   umodsys_lib_basesys:umodsys.basesys.rsystem.obj
 0001:000084ea       ?persist_ctx@RSystem@rsystem@base@UModSys@@UAEPBUSSourceContext@core@4@PBU564@@Z 004094ea f   umodsys_lib_basesys:umodsys.basesys.rsystem.obj
 0001:00008574       ?get_params@RSystem@rsystem@base@UModSys@@UAEPAUIParameters@core@4@XZ 00409574 f   umodsys_lib_basesys:umodsys.basesys.rsystem.obj
 0001:00008578       ?get_sysmem@RSystem@rsystem@base@UModSys@@UAEPAUIMemAlloc@core@4@XZ 00409578 f   umodsys_lib_basesys:umodsys.basesys.rsystem.obj
 0001:0000857f       ?get_sharemem@RSystem@rsystem@base@UModSys@@UAEPAUIMemAlloc@core@4@XZ 0040957f f   umodsys_lib_basesys:umodsys.basesys.rsystem.obj
 0001:00008586       ?get_modloader@RSystem@rsystem@base@UModSys@@UAEPAUIModuleLoader@34@XZ 00409586 f   umodsys_lib_basesys:umodsys.basesys.rsystem.obj
 0001:0000858a       ?get_upr@RSystem@rsystem@base@UModSys@@UAEPAUIUniquePointerResolver@core@4@XZ 0040958a f   umodsys_lib_basesys:umodsys.basesys.rsystem.obj
 0001:00008595       ?get_sca@RSystem@rsystem@base@UModSys@@UAEPAUISourceContextAdapter@core@4@XZ 00409595 f   umodsys_lib_basesys:umodsys.basesys.rsystem.obj
 0001:000085a0       ?find@?$TQuantArrayUnique@USUniquePointerInfo@core@UModSys@@$0BAA@USMemAlloc_Malloc@23@@tl@UModSys@@QAEPBUSUniquePointerInfo@core@3@ABU453@@Z 004095a0 f i umodsys_lib_basesys:umodsys.basesys.rsystem.obj
 0001:000085fe       ?add@?$TQuantArrayUnique@USSourceContext@core@UModSys@@$0BAA@USMemAlloc_Malloc@23@@tl@UModSys@@QAEPAUSSourceContext@core@3@ABU453@@Z 004095fe f i umodsys_lib_basesys:umodsys.basesys.rsystem.obj
 0001:000085fe       ?add@?$TQuantArrayUnique@USUniquePointerInfo@core@UModSys@@$0BAA@USMemAlloc_Malloc@23@@tl@UModSys@@QAEPAUSUniquePointerInfo@core@3@ABU453@@Z 004095fe f i umodsys_lib_basesys:umodsys.basesys.rsystem.obj
 0001:0000870e       ?find@?$TQuantArrayUnique@USSourceContext@core@UModSys@@$0BAA@USMemAlloc_Malloc@23@@tl@UModSys@@QAEPBUSSourceContext@core@3@ABU453@@Z 0040970e f i umodsys_lib_basesys:umodsys.basesys.rsystem.obj
 0001:000087ad       ?next_node@?$TTreeHoldRB@U?$TQuantArrayNode@USUniquePointerInfo@core@UModSys@@$0BAA@@tl@UModSys@@@tl@UModSys@@SAPAU?$TQuantArrayNode@USUniquePointerInfo@core@UModSys@@$0BAA@@23@PAU423@@Z 004097ad f i umodsys_lib_basesys:umodsys.basesys.rsystem_main.obj
 0001:000087ad       ?next_node@?$TTreeHoldRB@U?$TQuantArrayNode@USSourceContext@core@UModSys@@$0BAA@@tl@UModSys@@@tl@UModSys@@SAPAU?$TQuantArrayNode@USSourceContext@core@UModSys@@$0BAA@@23@PAU423@@Z 004097ad f i umodsys_lib_basesys:umodsys.basesys.rsystem.obj
 0001:000087ad       ?next_node@?$TTreeHoldRB@UNameNode@IBinArchiveFrame@libmedia@UModSys@@@tl@UModSys@@SAPAUNameNode@IBinArchiveFrame@libmedia@3@PAU4563@@Z 004097ad f i umodsys_lib_libmedia:umodsys.mod.media.stdlib.obj
 0001:000087d2       ?root_get_interface_info@RParameters@rsystem@base@UModSys@@UBEABUSUniquePointerInfo@core@4@XZ 004097d2 f i umodsys_lib_basesys:umodsys.basesys.rparameters.obj
 0001:000087d8       ?root_get_interface_type@RParameters@rsystem@base@UModSys@@UBEPBUSUniquePointerInfo@core@4@XZ 004097d8 f i umodsys_lib_basesys:umodsys.basesys.rparameters.obj
 0001:000087de       ?root_get_other_interface@RParameters@rsystem@base@UModSys@@UBEPBUIRoot@core@4@PBUSUniquePointerInfo@64@@Z 004097de f i umodsys_lib_basesys:umodsys.basesys.rparameters.obj
 0001:000087de       ?root_get_other_interface@RParameters@rsystem@base@UModSys@@UAEPAUIRoot@core@4@PBUSUniquePointerInfo@64@@Z 004097de f i umodsys_lib_basesys:umodsys.basesys.rparameters.obj
 0001:000087ff       ?root_is_interface_supported@RParameters@rsystem@base@UModSys@@UBE_NPBUSUniquePointerInfo@core@4@@Z 004097ff f i umodsys_lib_basesys:umodsys.basesys.rparameters.obj
 0001:00008826       ?ref_weak@RDataArchiver_OsDir@stdio@media@modules@UModSys@@UBE_NAAUWeakPointer@IRefObject@core@5@@Z 00409826 f i umodsys_lib_libmedia:umodsys.mod.media.stdio.obj
 0001:00008826       ?ref_weak@RLibraryBinCache@stdlib@media@modules@UModSys@@UBE_NAAUWeakPointer@IRefObject@core@5@@Z 00409826 f i umodsys_lib_libmedia:umodsys.mod.media.stdlib.obj
 0001:00008826       ?ref_weak@RLibraryObjFilter@stdlib@media@modules@UModSys@@UBE_NAAUWeakPointer@IRefObject@core@5@@Z 00409826 f i umodsys_lib_libmedia:umodsys.mod.media.stdlib.obj
 0001:00008826       ?ref_weak@RLibraryLayered@stdlib@media@modules@UModSys@@UBE_NAAUWeakPointer@IRefObject@core@5@@Z 00409826 f i umodsys_lib_libmedia:umodsys.mod.media.stdlib.obj
 0001:00008826       ?ref_weak@RParameters@rsystem@base@UModSys@@UBE_NAAUWeakPointer@IRefObject@core@4@@Z 00409826 f i umodsys_lib_basesys:umodsys.basesys.rparameters.obj
 0001:00008826       ?ref_weak@RLibraryObjCache@stdlib@media@modules@UModSys@@UBE_NAAUWeakPointer@IRefObject@core@5@@Z 00409826 f i umodsys_lib_libmedia:umodsys.mod.media.stdlib.obj
 0001:00008826       ?ref_weak@RLibraryBinTree@stdlib@media@modules@UModSys@@UBE_NAAUWeakPointer@IRefObject@core@5@@Z 00409826 f i umodsys_lib_libmedia:umodsys.mod.media.stdlib.obj
 0001:00008845       ?find_elem@RParameters@rsystem@base@UModSys@@IAEPBUElem@1234@PBXHHHPBD@Z 00409845 f   umodsys_lib_basesys:umodsys.basesys.rparameters.obj
 0001:000088be       ?estimate_size@RParameters@rsystem@base@UModSys@@IAEHAAUElem@1234@HPBDHH@Z 004098be f   umodsys_lib_basesys:umodsys.basesys.rparameters.obj
 0001:00008923       ?free_elems@RParameters@rsystem@base@UModSys@@IAEXPAXH@Z 00409923 f   umodsys_lib_basesys:umodsys.basesys.rparameters.obj
 0001:0000897b       ?alloc_elems@RParameters@rsystem@base@UModSys@@IAEXPAXH@Z 0040997b f   umodsys_lib_basesys:umodsys.basesys.rparameters.obj
 0001:000089cc       ?add_last@RParameters@rsystem@base@UModSys@@IAE_NPAUSParametersData@core@4@PBDPBXH@Z 004099cc f   umodsys_lib_basesys:umodsys.basesys.rparameters.obj
 0001:00008b94       ?p_deinit@RParameters@rsystem@base@UModSys@@UAEXPAUSParametersData@core@4@@Z 00409b94 f   umodsys_lib_basesys:umodsys.basesys.rparameters.obj
 0001:00008be9       ?p_init@RParameters@rsystem@base@UModSys@@UAEXPAUSParametersData@core@4@H@Z 00409be9 f   umodsys_lib_basesys:umodsys.basesys.rparameters.obj
 0001:00008c2d       ?p_init@RParameters@rsystem@base@UModSys@@UAEXPAUSParametersData@core@4@ABU564@@Z 00409c2d f   umodsys_lib_basesys:umodsys.basesys.rparameters.obj
 0001:00008cb4       ?p_copy@RParameters@rsystem@base@UModSys@@UAEXPAUSParametersData@core@4@ABU564@@Z 00409cb4 f   umodsys_lib_basesys:umodsys.basesys.rparameters.obj
 0001:00008da6       ?p_init_s@RParameters@rsystem@base@UModSys@@UAEXPAUSParametersData@core@4@PAXH@Z 00409da6 f   umodsys_lib_basesys:umodsys.basesys.rparameters.obj
 0001:00008dd0       ?p_init_s@RParameters@rsystem@base@UModSys@@UAEXPAUSParametersData@core@4@ABU564@PAXH@Z 00409dd0 f   umodsys_lib_basesys:umodsys.basesys.rparameters.obj
 0001:00008e39       ?next@RParameters@rsystem@base@UModSys@@UAE_NPBUSParametersData@core@4@AAPBD@Z 00409e39 f   umodsys_lib_basesys:umodsys.basesys.rparameters.obj
 0001:00008edc       ?next@RParameters@rsystem@base@UModSys@@UAE_NPBUSParametersData@core@4@AAU?$TString@U?$TSCoreConst@D@su@tl@UModSys@@U?$TComparerBinaryHash@D@234@@tl@4@@Z 00409edc f   umodsys_lib_basesys:umodsys.basesys.rparameters.obj
 0001:00008f7d       ?add@RParameters@rsystem@base@UModSys@@UAE_NPAUSParametersData@core@4@PBD1@Z 00409f7d f   umodsys_lib_basesys:umodsys.basesys.rparameters.obj
 0001:00008f93       ?add@RParameters@rsystem@base@UModSys@@UAE_NPAUSParametersData@core@4@PBDH@Z 00409f93 f   umodsys_lib_basesys:umodsys.basesys.rparameters.obj
 0001:00008faa       ?add@RParameters@rsystem@base@UModSys@@UAE_NPAUSParametersData@core@4@PBDABN@Z 00409faa f   umodsys_lib_basesys:umodsys.basesys.rparameters.obj
 0001:00008fc0       ?add@RParameters@rsystem@base@UModSys@@UAE_NPAUSParametersData@core@4@PBDPAUIRefObject@64@@Z 00409fc0 f   umodsys_lib_basesys:umodsys.basesys.rparameters.obj
 0001:00008fd7       ?get@RParameters@rsystem@base@UModSys@@UAE_NPBUSParametersData@core@4@PBDAAPBD@Z 00409fd7 f   umodsys_lib_basesys:umodsys.basesys.rparameters.obj
 0001:0000902b       ?get@RParameters@rsystem@base@UModSys@@UAE_NPBUSParametersData@core@4@PBDAAH@Z 0040a02b f   umodsys_lib_basesys:umodsys.basesys.rparameters.obj
 0001:0000907f       ?get@RParameters@rsystem@base@UModSys@@UAE_NPBUSParametersData@core@4@PBDAAN@Z 0040a07f f   umodsys_lib_basesys:umodsys.basesys.rparameters.obj
 0001:000090d3       ?get@RParameters@rsystem@base@UModSys@@UAE_NPBUSParametersData@core@4@PBDAAPAUIRefObject@64@@Z 0040a0d3 f   umodsys_lib_basesys:umodsys.basesys.rparameters.obj
 0001:00009127       ??_ERParameters@rsystem@base@UModSys@@UAEPAXI@Z 0040a127 f i  CIL library: CIL module
 0001:00009127       ??_GRGenerator@stdio@media@modules@UModSys@@UAEPAXI@Z 0040a127 f i umodsys_lib_libmedia:umodsys.mod.media.stdio.obj
 0001:00009127       ??_ERGenerator@stdlib@media@modules@UModSys@@UAEPAXI@Z 0040a127 f i  CIL library: CIL module
 0001:00009127       ??_GRGenerator@stdlib@media@modules@UModSys@@UAEPAXI@Z 0040a127 f i umodsys_lib_libmedia:umodsys.mod.media.stdlib.obj
 0001:00009127       ??_GIRoot@core@UModSys@@UAEPAXI@Z 0040a127 f i umodsys_lib_libmedia:umodsys.mod.media.stdio.obj
 0001:00009127       ??_EIRoot@core@UModSys@@UAEPAXI@Z 0040a127 f i  CIL library: CIL module
 0001:00009127       ??_ERGenerator@stdio@media@modules@UModSys@@UAEPAXI@Z 0040a127 f i  CIL library: CIL module
 0001:00009127       ??_GRParameters@rsystem@base@UModSys@@UAEPAXI@Z 0040a127 f i umodsys_lib_basesys:umodsys.basesys.rparameters.obj
 0001:00009144       ??$shash@D@su@tl@UModSys@@YAIPBD@Z 0040a144 f i umodsys_lib_basesys:umodsys.basesys.rparameters.obj
 0001:0000916b       ??$t_alloc@UIMemAlloc@core@UModSys@@@SMemChunk@core@UModSys@@QAE_NAAUIMemAlloc@12@IPBUSSourceContext@12@@Z 0040a16b f i umodsys_lib_basesys:umodsys.basesys.rparameters.obj
 0001:0000922c       ?pfd_load@RModuleLibrarySO@rsystem@base@UModSys@@SAPAUIModuleLibraryReg@34@PAUPFD_Data@1234@ABU?$TString@U?$TSCoreConst@D@su@tl@UModSys@@U?$TComparerBinaryHash@D@234@@tl@4@@Z 0040a22c f   umodsys_lib_basesys:umodsys.basesys.rmodule.win32.obj
 0001:000092e6       ?pfd_unload@RModuleLibrarySO@rsystem@base@UModSys@@SA_NPAUPFD_Data@1234@@Z 0040a2e6 f   umodsys_lib_basesys:umodsys.basesys.rmodule.win32.obj
 0001:0000953f       ??0?$U16String@$0BAAA@@syshlp@core@UModSys@@QAE@PBD@Z 0040a53f f i umodsys_lib_basesys:umodsys.basesys.rmodule.win32.obj
 0001:00009570       ?root_get_interface_info@RModule@rsystem@base@UModSys@@UBEABUSUniquePointerInfo@core@4@XZ 0040a570 f i umodsys_lib_basesys:umodsys.basesys.rmodule.obj
 0001:00009576       ?root_get_interface_type@RModule@rsystem@base@UModSys@@UBEPBUSUniquePointerInfo@core@4@XZ 0040a576 f i umodsys_lib_basesys:umodsys.basesys.rmodule.obj
 0001:0000957c       ?root_get_other_interface@RModule@rsystem@base@UModSys@@UAEPAUIRoot@core@4@PBUSUniquePointerInfo@64@@Z 0040a57c f i umodsys_lib_basesys:umodsys.basesys.rmodule.obj
 0001:0000957c       ?root_get_other_interface@RModule@rsystem@base@UModSys@@UBEPBUIRoot@core@4@PBUSUniquePointerInfo@64@@Z 0040a57c f i umodsys_lib_basesys:umodsys.basesys.rmodule.obj
 0001:0000959d       ?root_is_interface_supported@RModule@rsystem@base@UModSys@@UBE_NPBUSUniquePointerInfo@core@4@@Z 0040a59d f i umodsys_lib_basesys:umodsys.basesys.rmodule.obj
 0001:000095c4       ?ref_add@RModule@rsystem@base@UModSys@@UBEXXZ 0040a5c4 f i umodsys_lib_basesys:umodsys.basesys.rmodule.obj
 0001:000095c8       ?ref_remove@RModule@rsystem@base@UModSys@@UBEXXZ 0040a5c8 f i umodsys_lib_basesys:umodsys.basesys.rmodule.obj
 0001:000095d3       ?ref_links@RModule@rsystem@base@UModSys@@UBEHXZ 0040a5d3 f i umodsys_lib_basesys:umodsys.basesys.rmodule.obj
 0001:000095d7       ?ref_weak@RModule@rsystem@base@UModSys@@UBE_NAAUWeakPointer@IRefObject@core@4@@Z 0040a5d7 f i umodsys_lib_basesys:umodsys.basesys.rmodule.obj
 0001:000095f6       ?suicide@RModule@rsystem@base@UModSys@@UAEXXZ 0040a5f6 f i umodsys_lib_basesys:umodsys.basesys.rmodule.obj
 0001:00009636       ?get_library@RModule@rsystem@base@UModSys@@UBEPAUIModuleLibrary@34@XZ 0040a636 f   umodsys_lib_basesys:umodsys.basesys.rmodule.obj
 0001:0000963a       ?get_info@RModule@rsystem@base@UModSys@@UBEABUSModuleInfo@34@XZ 0040a63a f   umodsys_lib_basesys:umodsys.basesys.rmodule.obj
 0001:0000963e       ?getdebug@RModule@rsystem@base@UModSys@@UBEPAUSDebug@34@XZ 0040a63e f   umodsys_lib_basesys:umodsys.basesys.rmodule.obj
 0001:0000964e       ?is_open@RModule@rsystem@base@UModSys@@UBE_NXZ 0040a64e f   umodsys_lib_basesys:umodsys.basesys.rmodule.obj
 0001:00009667       ?open@RModule@rsystem@base@UModSys@@UAE_NXZ 0040a667 f   umodsys_lib_basesys:umodsys.basesys.rmodule.obj
 0001:000096b7       ?close@RModule@rsystem@base@UModSys@@UAE_NXZ 0040a6b7 f   umodsys_lib_basesys:umodsys.basesys.rmodule.obj
 0001:000096f4       ?reg@RModule@rsystem@base@UModSys@@UAE_NPAUIModObject@34@_N@Z 0040a6f4 f   umodsys_lib_basesys:umodsys.basesys.rmodule.obj
 0001:0000971e       ?reg@RModule@rsystem@base@UModSys@@UAE_NPAUIGenerator@34@_N@Z 0040a71e f   umodsys_lib_basesys:umodsys.basesys.rmodule.obj
 0001:00009760       ?mod_findobjname@RModule@rsystem@base@UModSys@@UAEIPBUSUniquePointerInfo@core@4@QAPBU564@IPBD@Z 0040a760 f   umodsys_lib_basesys:umodsys.basesys.rmodule.obj
 0001:00009852       ?mod_generate@RModule@rsystem@base@UModSys@@UAE_NAAU?$TRefObject@UIRefObject@core@UModSys@@U?$TRefObjectFunc@UIRefObject@core@UModSys@@@tl@3@@tl@4@PBUSUniquePointerInfo@core@4@ABUSParameters@84@@Z 0040a852 f   umodsys_lib_basesys:umodsys.basesys.rmodule.obj
 0001:00009944       ?reg_generator@RModule@rsystem@base@UModSys@@QAE_NPAUModuleObjInfo@1234@PAUIGenerator@34@@Z 0040a944 f   umodsys_lib_basesys:umodsys.basesys.rmodule.obj
 0001:00009aa8       ?reg_obj@RModule@rsystem@base@UModSys@@QAEPAUModuleObjInfo@1234@PAUIModObject@34@@Z 0040aaa8 f   umodsys_lib_basesys:umodsys.basesys.rmodule.obj
 0001:00009b9c       ?unreg_obj@RModule@rsystem@base@UModSys@@QAE_NPAUIModObject@34@@Z 0040ab9c f   umodsys_lib_basesys:umodsys.basesys.rmodule.obj
 0001:00009c2e       ?alloc_minfo@RModule@rsystem@base@UModSys@@QAE_NABUSModuleInfo@34@@Z 0040ac2e f   umodsys_lib_basesys:umodsys.basesys.rmodule.obj
 0001:00009ca1       ?save_db@RModule@rsystem@base@UModSys@@QAE_NPAU_iobuf@@@Z 0040aca1 f   umodsys_lib_basesys:umodsys.basesys.rmodule.obj
 0001:00009e22       ??0RModule@rsystem@base@UModSys@@QAE@PAUIModuleLibraryUni@123@PAUIModuleReg@23@@Z 0040ae22 f   umodsys_lib_basesys:umodsys.basesys.rmodule.obj
 0001:00009ecc       ??_GRModule@rsystem@base@UModSys@@UAEPAXI@Z 0040aecc f i umodsys_lib_basesys:umodsys.basesys.rmodule.obj
 0001:00009ecc       ??_ERModule@rsystem@base@UModSys@@UAEPAXI@Z 0040aecc f i  CIL library: CIL module
 0001:00009f16       ??1?$TDynarrayDynamic@UModuleObjInfo@RModule@rsystem@base@UModSys@@U?$TAllocator@USMemAlloc_Malloc@core@UModSys@@USCountCalcPower2@23@@tl@5@@tl@UModSys@@QAE@XZ 0040af16 f i umodsys_lib_basesys:umodsys.basesys.rmodule.obj
 0001:00009f1b       ??1?$TDynarrayDynamic@UGeneratedObjInfo@RModule@rsystem@base@UModSys@@U?$TAllocator@USMemAlloc_Malloc@core@UModSys@@USCountCalcPower2@23@@tl@5@@tl@UModSys@@QAE@XZ 0040af1b f i umodsys_lib_basesys:umodsys.basesys.rmodule.obj
 0001:00009f20       ??1?$TDynarrayDynamic@PBUSUniquePointerInfo@core@UModSys@@U?$TAllocator@USMemAlloc_Malloc@core@UModSys@@USCountCalcPower2@23@@tl@3@@tl@UModSys@@QAE@XZ 0040af20 f i umodsys_lib_basesys:umodsys.basesys.rmodule.obj
 0001:00009f25       ??1?$TDynarray@U?$TDynarrayHolderDynamic@UModuleObjInfo@RModule@rsystem@base@UModSys@@U?$TAllocator@USMemAlloc_Malloc@core@UModSys@@USCountCalcPower2@23@@tl@5@@tl@UModSys@@@tl@UModSys@@QAE@XZ 0040af25 f i umodsys_lib_basesys:umodsys.basesys.rmodule.obj
 0001:00009f63       ??1?$TDynarray@U?$TDynarrayHolderDynamic@UGeneratedObjInfo@RModule@rsystem@base@UModSys@@U?$TAllocator@USMemAlloc_Malloc@core@UModSys@@USCountCalcPower2@23@@tl@5@@tl@UModSys@@@tl@UModSys@@QAE@XZ 0040af63 f i umodsys_lib_basesys:umodsys.basesys.rmodule.obj
 0001:00009f9e       ??1?$TDynarray@U?$TDynarrayHolderDynamic@PBUSUniquePointerInfo@core@UModSys@@U?$TAllocator@USMemAlloc_Malloc@core@UModSys@@USCountCalcPower2@23@@tl@3@@tl@UModSys@@@tl@UModSys@@QAE@XZ 0040af9e f i umodsys_lib_basesys:umodsys.basesys.rmodule.obj
 0001:00009fd9       ?ResizeRel@?$TDynarray@U?$TDynarrayHolderDynamic@UModuleObjInfo@RModule@rsystem@base@UModSys@@U?$TAllocator@USMemAlloc_Malloc@core@UModSys@@USCountCalcPower2@23@@tl@5@@tl@UModSys@@@tl@UModSys@@QAE_NH@Z 0040afd9 f i umodsys_lib_basesys:umodsys.basesys.rmodule.obj
 0001:0000a05b       ?ResizeRel@?$TDynarray@U?$TDynarrayHolderDynamic@UGeneratedObjInfo@RModule@rsystem@base@UModSys@@U?$TAllocator@USMemAlloc_Malloc@core@UModSys@@USCountCalcPower2@23@@tl@5@@tl@UModSys@@@tl@UModSys@@QAE_NH@Z 0040b05b f i umodsys_lib_basesys:umodsys.basesys.rmodule.obj
 0001:0000a0de       ?ResizeRel@?$TDynarray@U?$TDynarrayHolderDynamic@PBUSUniquePointerInfo@core@UModSys@@U?$TAllocator@USMemAlloc_Malloc@core@UModSys@@USCountCalcPower2@23@@tl@3@@tl@UModSys@@@tl@UModSys@@QAE_NH@Z 0040b0de f i umodsys_lib_basesys:umodsys.basesys.rmodule.obj
 0001:0000a13b       ?root_get_interface_info@RModuleLibrarySO@rsystem@base@UModSys@@UBEABUSUniquePointerInfo@core@4@XZ 0040b13b f i umodsys_lib_basesys:umodsys.basesys.rmodulelibso.obj
 0001:0000a141       ?root_get_interface_type@RModuleLibrarySO@rsystem@base@UModSys@@UBEPBUSUniquePointerInfo@core@4@XZ 0040b141 f i umodsys_lib_basesys:umodsys.basesys.rmodulelibso.obj
 0001:0000a147       ?root_get_other_interface@RModuleLibrarySO@rsystem@base@UModSys@@UBEPBUIRoot@core@4@PBUSUniquePointerInfo@64@@Z 0040b147 f i umodsys_lib_basesys:umodsys.basesys.rmodulelibso.obj
 0001:0000a147       ?root_get_other_interface@RModuleLibrarySO@rsystem@base@UModSys@@UAEPAUIRoot@core@4@PBUSUniquePointerInfo@64@@Z 0040b147 f i umodsys_lib_basesys:umodsys.basesys.rmodulelibso.obj
 0001:0000a170       ?root_is_interface_supported@RModuleLibrarySO@rsystem@base@UModSys@@UBE_NPBUSUniquePointerInfo@core@4@@Z 0040b170 f i umodsys_lib_basesys:umodsys.basesys.rmodulelibso.obj
 0001:0000a18f       ?ref_add@RModuleLibrarySO@rsystem@base@UModSys@@UBEXXZ 0040b18f f i umodsys_lib_basesys:umodsys.basesys.rmodulelibso.obj
 0001:0000a196       ?ref_remove@RModuleLibrarySO@rsystem@base@UModSys@@UBEXXZ 0040b196 f i umodsys_lib_basesys:umodsys.basesys.rmodulelibso.obj
 0001:0000a1a4       ?ref_links@RModuleLibrarySO@rsystem@base@UModSys@@UBEHXZ 0040b1a4 f i umodsys_lib_basesys:umodsys.basesys.rmodulelibso.obj
 0001:0000a1ab       ?ref_weak@RModuleLibrarySO@rsystem@base@UModSys@@UBE_NAAUWeakPointer@IRefObject@core@4@@Z 0040b1ab f i umodsys_lib_basesys:umodsys.basesys.rmodulelibso.obj
 0001:0000a1cd       ?suicide@IRoot@core@UModSys@@UAEXXZ 0040b1cd f i umodsys_lib_core:umodsys.core.objects.obj
 0001:0000a1cd       ?suicide@RParameters@rsystem@base@UModSys@@UAEXXZ 0040b1cd f i umodsys_lib_basesys:umodsys.basesys.rparameters.obj
 0001:0000a1cd       ?suicide@RModuleLibraryThis@rsystem@base@UModSys@@UAEXXZ 0040b1cd f i umodsys_lib_basesys:umodsys.basesys.rmodulelibthis.obj
 0001:0000a1cd       ?suicide@RModuleLibrarySO@rsystem@base@UModSys@@UAEXXZ 0040b1cd f i umodsys_lib_basesys:umodsys.basesys.rmodulelibso.obj
 0001:0000a1d8       ?uni_load@RModuleLibrarySO@rsystem@base@UModSys@@UAE_NXZ 0040b1d8 f   umodsys_lib_basesys:umodsys.basesys.rmodulelibso.obj
 0001:0000a20c       ?uni_unload@RModuleLibrarySO@rsystem@base@UModSys@@UAE_NXZ 0040b20c f   umodsys_lib_basesys:umodsys.basesys.rmodulelibso.obj
 0001:0000a217       ?uni_open@RModuleLibrarySO@rsystem@base@UModSys@@UAE_NXZ 0040b217 f   umodsys_lib_basesys:umodsys.basesys.rmodulelibso.obj
 0001:0000a239       ?uni_close@RModuleLibrarySO@rsystem@base@UModSys@@UAE_NXZ 0040b239 f   umodsys_lib_basesys:umodsys.basesys.rmodulelibso.obj
 0001:0000a249       ?s_add@RModuleLibrarySO@rsystem@base@UModSys@@SA_NPAUISystem@34@AAU?$TDynarrayDynamic@U?$TRefObject@URModuleLibrarySO@rsystem@base@UModSys@@U?$TRefObjectFunc@URModuleLibrarySO@rsystem@base@UModSys@@@tl@4@@tl@UModSys@@U?$TAllocator@USMemAlloc_Malloc@core@UModSys@@USCountCalcPower2@23@@23@@tl@4@PBD@Z 0040b249 f   umodsys_lib_basesys:umodsys.basesys.rmodulelibso.obj
 0001:0000a3cb       ??_GRModuleLibrarySO@rsystem@base@UModSys@@UAEPAXI@Z 0040b3cb f i umodsys_lib_basesys:umodsys.basesys.rmodulelibso.obj
 0001:0000a3cb       ??_ERModuleLibrarySO@rsystem@base@UModSys@@UAEPAXI@Z 0040b3cb f i  CIL library: CIL module
 0001:0000a41a       ?set@?$TString@U?$TSCoreShared@USMemAlloc_Malloc@core@UModSys@@D@su@tl@UModSys@@U?$TComparerBinaryHash@D@234@@tl@UModSys@@QAEXPBD@Z 0040b41a f i umodsys_lib_basesys:umodsys.basesys.rmodulelibso.obj
 0001:0000a48c       ?Link@SModuleContext@base@UModSys@@QAEXPAUISystem@23@PAUIMemAlloc@core@3@@Z 0040b48c f   umodsys_lib_base:umodsys.base.modulecontext.obj
 0001:0000a4d8       ?put@SDebug@base@UModSys@@QBA_NEW4eConsoleLevels@23@PBDZZ 0040b4d8 f   umodsys_lib_base:umodsys.base.debug.obj
 0001:0000a4fe       ??0SModuleRegChain@base@UModSys@@QAE@AAUIModuleReg@12@@Z 0040b4fe f   umodsys_lib_base:umodsys.base.moduleregchain.obj
 0001:0000a52d       ??1SUniquePointer@core@UModSys@@QAE@XZ 0040b52d f   umodsys_lib_core:umodsys.core.uniqueptr.obj
 0001:0000a52d       ??1SModuleRegChain@base@UModSys@@QAE@XZ 0040b52d f   umodsys_lib_base:umodsys.base.moduleregchain.obj
 0001:0000a54b       ?s_get@SModuleRegChain@base@UModSys@@SAPAUIModuleReg@23@I@Z 0040b54b f   umodsys_lib_base:umodsys.base.moduleregchain.obj
 0001:0000a56f       ?mlr_count@RModuleLibraryReg_Chain@base@UModSys@@UBEIXZ 0040b56f f   umodsys_lib_base:umodsys.base.moduleregchain.obj
 0001:0000a582       ?mlr_get@RModuleLibraryReg_Chain@base@UModSys@@UBEPAUIModuleReg@23@I@Z 0040b582 f   umodsys_lib_base:umodsys.base.moduleregchain.obj
 0001:0000a58f       ?mlr_open@RModuleLibraryReg_Chain@base@UModSys@@UAE_NPAUISystem@23@PAUIMemAlloc@core@3@@Z 0040b58f f   umodsys_lib_base:umodsys.base.moduleregchain.obj
 0001:0000a5b7       ?mlr_close@RModuleLibraryReg_Chain@base@UModSys@@UAE_NXZ 0040b5b7 f   umodsys_lib_base:umodsys.base.moduleregchain.obj
 0001:0000a5e9       ?mlr_isopen@RModuleLibraryReg_Chain@base@UModSys@@UBE_NXZ 0040b5e9 f   umodsys_lib_base:umodsys.base.moduleregchain.obj
 0001:0000a5f5       ??_GRModuleLibraryReg_Chain@base@UModSys@@UAEPAXI@Z 0040b5f5 f i umodsys_lib_base:umodsys.base.moduleregchain.obj
 0001:0000a5f5       ??_ERModuleLibraryReg_Chain@base@UModSys@@UAEPAXI@Z 0040b5f5 f i  CIL library: CIL module
 0001:0000a5f5       ??_GIModuleLibraryReg@base@UModSys@@UAEPAXI@Z 0040b5f5 f i umodsys_lib_base:umodsys.base.modulereg.obj
 0001:0000a5f5       ??_EIModuleLibraryReg@base@UModSys@@UAEPAXI@Z 0040b5f5 f i  CIL library: CIL module
 0001:0000a612       _UModSys_Plugin_Entry2@0   0040b612 f   umodsys_lib_base:umodsys.so_main.win32.obj
 0001:0000a618       ??0IModuleReg@base@UModSys@@QAE@PBDGG0K_JPAUSDebug@12@@Z 0040b618 f   umodsys_lib_base:umodsys.base.modulereg.obj
 0001:0000a679       ?mr_getdebug@IModuleReg@base@UModSys@@UBEPAUSDebug@23@XZ 0040b679 f   umodsys_lib_base:umodsys.base.modulereg.obj
 0001:0000a67d       ?mr_isopen@IModuleReg@base@UModSys@@UBE_NXZ 0040b67d f   umodsys_lib_base:umodsys.base.modulereg.obj
 0001:0000a686       ?mr_open@IModuleReg@base@UModSys@@UAE_NXZ 0040b686 f   umodsys_lib_base:umodsys.base.modulereg.obj
 0001:0000a6be       ?mr_close@IModuleReg@base@UModSys@@UAE_NXZ 0040b6be f   umodsys_lib_base:umodsys.base.modulereg.obj
 0001:0000a6e9       ??1IModuleLoader@base@UModSys@@UAE@XZ 0040b6e9 f   umodsys_lib_base:umodsys.base.moduleloader.obj
 0001:0000a6f0       ??0SUniquePointer@core@UModSys@@QAE@PBD0H@Z 0040b6f0 f   umodsys_lib_core:umodsys.core.uniqueptr.obj
 0001:0000a733       ?s_resolve@SUniquePointer@core@UModSys@@SAXPAUIUniquePointerResolver@23@@Z 0040b733 f   umodsys_lib_core:umodsys.core.uniqueptr.obj
 0001:0000a770       ?s_unresolve@SUniquePointer@core@UModSys@@SAXPAUIUniquePointerResolver@23@@Z 0040b770 f   umodsys_lib_core:umodsys.core.uniqueptr.obj
 0001:0000a79b       ?con_setcolor@syshlp@core@UModSys@@YAXPAU_iobuf@@PBE@Z 0040b79b f   umodsys_lib_core:umodsys.core.syshlp_files.win32.obj
 0001:0000a856       ?u_fopen@syshlp@core@UModSys@@YAPAU_iobuf@@PBD0@Z 0040b856 f   umodsys_lib_core:umodsys.core.syshlp_files.win32.obj
 0001:0000a8c4       ?u_fopentemp@syshlp@core@UModSys@@YAPAU_iobuf@@AAPADPBD@Z 0040b8c4 f   umodsys_lib_core:umodsys.core.syshlp_files.win32.obj
 0001:0000a94e       ?u_fendtemp@syshlp@core@UModSys@@YA_NAAPAU_iobuf@@AAPAD_N@Z 0040b94e f   umodsys_lib_core:umodsys.core.syshlp_files.win32.obj
 0001:0000a9e5       ??3IRoot@core@UModSys@@SAXPAX@Z 0040b9e5 f   umodsys_lib_core:umodsys.core.objects.obj
 0001:0000a9fe       ?Set@?$TSet@U?$TArray@PBUSUniquePointerInfo@core@UModSys@@@tl@UModSys@@U?$TScalarCompare@PBUSUniquePointerInfo@core@UModSys@@@core@3@@tl@UModSys@@QAE_NABQBUSUniquePointerInfo@core@3@@Z 0040b9fe f i umodsys_lib_core:umodsys.core.uniqueptrlist.obj
 0001:0000aa70       ?utf_nocase32@su@tl@UModSys@@YAHH@Z 0040ba70 f   umodsys_lib_core:umodsys.tl.utfcase.obj
 0001:0000cfec       ?utf8_cmp_nocase_bin@su@tl@UModSys@@YAHPBD0II@Z 0040dfec f   umodsys_lib_core:umodsys.tl.utfcase.obj
 0001:0000d06e       ?gracial_cpy@syshlp@core@UModSys@@YA_NPADHQAPBDH@Z 0040e06e f   umodsys_lib_core:umodsys.core.syshlp_chars.win32.obj
 0001:0000d0f1       ?gracial_cpy@syshlp@core@UModSys@@YA_NPA_WHQAPB_WH@Z 0040e0f1 f   umodsys_lib_core:umodsys.core.syshlp_chars.win32.obj
 0001:0000d181       ?path_uni_os@syshlp@core@UModSys@@YAXPA_W@Z 0040e181 f   umodsys_lib_core:umodsys.core.syshlp_chars.win32.obj
 0001:0000d198       ?gracial_convert@syshlp@core@UModSys@@YA_NPA_WHPBDH@Z 0040e198 f   umodsys_lib_core:umodsys.core.syshlp_charcode.win32.obj
 0001:0000d1c5       ?gracial_convert@syshlp@core@UModSys@@YA_NPADHPB_WH@Z 0040e1c5 f   umodsys_lib_core:umodsys.core.syshlp_charcode.win32.obj
 0001:0000d1f5       ?utf_8to32@su@tl@UModSys@@YA_NAAHAAPBDAAI@Z 0040e1f5 f   umodsys_lib_core:umodsys.tl.utf8.obj
 0001:0000d2b4       __onexit                   0040e2b4 f   MSVCRT:atonexit.obj
 0001:0000d359       _atexit                    0040e359 f   MSVCRT:atonexit.obj
 0001:0000d612       _mainCRTStartup            0040e612 f   MSVCRT:crtexe.obj
 0001:0000d61c       __purecall                 0040e61c f   MSVCRT:MSVCR90.dll
 0001:0000d622       ??3@YAXPAX@Z               0040e622 f   MSVCRT:MSVCR90.dll
 0001:0000d628       ??_Etype_info@@UAEPAXI@Z   0040e628 f i MSVCRT:ti_inst.obj
 0001:0000d674       ??2@YAPAXI@Z               0040e674 f   MSVCRT:MSVCR90.dll
 0001:0000d67a       __unlock                   0040e67a f   MSVCRT:MSVCR90.dll
 0001:0000d680       ___dllonexit               0040e680 f   MSVCRT:MSVCR90.dll
 0001:0000d686       __lock                     0040e686 f   MSVCRT:MSVCR90.dll
 0001:0000d68c       __SEH_prolog4              0040e68c f   MSVCRT:sehprolg4.obj
 0001:0000d6d1       __SEH_epilog4              0040e6d1 f   MSVCRT:sehprolg4.obj
 0001:0000d6e5       __except_handler4          0040e6e5 f   MSVCRT:chandler4gs.obj
 0001:0000d70a       ?__CxxUnhandledExceptionFilter@@YGJPAU_EXCEPTION_POINTERS@@@Z 0040e70a f   MSVCRT:unhandld.obj
 0001:0000d74c       ___CxxSetUnhandledExceptionFilter 0040e74c f   MSVCRT:unhandld.obj
 0001:0000d75a       __amsg_exit                0040e75a f   MSVCRT:MSVCR90.dll
 0001:0000d760       __RTC_Initialize           0040e760 f   MSVCRT:_initsect_.obj
 0001:0000d786       __RTC_Terminate            0040e786 f   MSVCRT:_initsect_.obj
 0001:0000d7ac       __XcptFilter               0040e7ac f   MSVCRT:MSVCR90.dll
 0001:0000d7c0       __ValidateImageBase        0040e7c0 f   MSVCRT:pesect.obj
 0001:0000d800       __FindPESection            0040e800 f   MSVCRT:pesect.obj
 0001:0000d850       __IsNonwritableInCurrentImage 0040e850 f   MSVCRT:pesect.obj
 0001:0000d90e       __initterm                 0040e90e f   MSVCRT:MSVCR90.dll
 0001:0000d914       __initterm_e               0040e914 f   MSVCRT:MSVCR90.dll
 0001:0000d91a       __setdefaultprecision      0040e91a f   MSVCRT:fp8.obj
 0001:0000d945       __matherr                  0040e945 f   MSVCRT:merr.obj
 0001:0000d945       ?ref_links@RConsole_std@rsystem@base@UModSys@@UBEHXZ 0040e945 f   umodsys_lib_basesys:umodsys.basesys.rconsole_std.obj
 0001:0000d945       __setargv                  0040e945 f   MSVCRT:dllargv.obj
 0001:0000d945       ?get_syslib@RSystem@rsystem@base@UModSys@@UAEPAUIModuleLibrary@34@XZ 0040e945 f   umodsys_lib_basesys:umodsys.basesys.rsystem.obj
 0001:0000d948       ___security_init_cookie    0040e948 f   MSVCRT:gs_support.obj
 0001:0000d9de       ?__ArrayUnwind@@YGXPAXIHP6EX0@Z@Z 0040e9de f   MSVCRT:ehvecdtr.obj
 0001:0000da3c       ??_M@YGXPAXIHP6EX0@Z@Z     0040ea3c f   MSVCRT:ehvecdtr.obj
 0001:0000da9f       @__security_check_cookie@4 0040ea9f f   MSVCRT:secchk.obj
 0001:0000daae       __except_handler4_common   0040eaae f   MSVCRT:MSVCR90.dll
 0001:0000dab4       ?terminate@@YAXXZ          0040eab4 f   MSVCRT:MSVCR90.dll
 0001:0000daba       __invoke_watson            0040eaba f   MSVCRT:MSVCR90.dll
 0001:0000dac0       __controlfp_s              0040eac0 f   MSVCRT:MSVCR90.dll
 0001:0000dac6       ?_type_info_dtor_internal_method@type_info@@QAEXXZ 0040eac6 f   MSVCRT:MSVCR90.dll
 0001:0000dac6       ??1type_info@@UAE@XZ       0040eac6 f   MSVCRT:MSVCR90.dll
 0001:0000dacc       ___report_gsfailure        0040eacc f   MSVCRT:gs_report.obj
 0001:0000dbd2       __crt_debugger_hook        0040ebd2 f   MSVCRT:MSVCR90.dll
 0001:0000dbd8       _memcpy                    0040ebd8 f   MSVCRT:MSVCR90.dll
 0001:0000dbe0       __alloca_probe             0040ebe0     MSVCRT:chkstk.obj
 0001:0000dbe0       __chkstk                   0040ebe0 f   MSVCRT:chkstk.obj
 0001:0000dc0c       ___CxxFrameHandler3        0040ec0c f   MSVCRT:MSVCR90.dll
 0001:0000dc14       __EH_prolog                0040ec14 f   MSVCRT:ehprolog.obj
 0001:0000dc34       __CxxThrowException@8      0040ec34 f   MSVCRT:MSVCR90.dll
 0002:00000000       __imp__UnhandledExceptionFilter@4 00410000     kernel32:KERNEL32.dll
 0002:00000004       __imp__GetCurrentProcess@0 00410004     kernel32:KERNEL32.dll
 0002:00000008       __imp__TerminateProcess@8  00410008     kernel32:KERNEL32.dll
 0002:0000000c       __imp__GetSystemTimeAsFileTime@4 0041000c     kernel32:KERNEL32.dll
 0002:00000010       __imp__GetCurrentProcessId@0 00410010     kernel32:KERNEL32.dll
 0002:00000014       __imp__GetCurrentThreadId@0 00410014     kernel32:KERNEL32.dll
 0002:00000018       __imp__GetTickCount@0      00410018     kernel32:KERNEL32.dll
 0002:0000001c       __imp__QueryPerformanceCounter@4 0041001c     kernel32:KERNEL32.dll
 0002:00000020       __imp__SetUnhandledExceptionFilter@4 00410020     kernel32:KERNEL32.dll
 0002:00000024       __imp__InterlockedCompareExchange@12 00410024     kernel32:KERNEL32.dll
 0002:00000028       __imp__Sleep@4             00410028     kernel32:KERNEL32.dll
 0002:0000002c       __imp__InterlockedExchange@8 0041002c     kernel32:KERNEL32.dll
 0002:00000030       __imp__MultiByteToWideChar@24 00410030     kernel32:KERNEL32.dll
 0002:00000034       __imp__WideCharToMultiByte@32 00410034     kernel32:KERNEL32.dll
 0002:00000038       __imp__SetConsoleOutputCP@4 00410038     kernel32:KERNEL32.dll
 0002:0000003c       __imp__GetLastError@0      0041003c     kernel32:KERNEL32.dll
 0002:00000040       __imp__GetConsoleOutputCP@0 00410040     kernel32:KERNEL32.dll
 0002:00000044       __imp__SetConsoleTextAttribute@8 00410044     kernel32:KERNEL32.dll
 0002:00000048       __imp__FindNextFileW@8     00410048     kernel32:KERNEL32.dll
 0002:0000004c       __imp__FindClose@4         0041004c     kernel32:KERNEL32.dll
 0002:00000050       __imp__GetProcAddress@8    00410050     kernel32:KERNEL32.dll
 0002:00000054       __imp__GetModuleFileNameW@12 00410054     kernel32:KERNEL32.dll
 0002:00000058       __imp__GetModuleHandleW@4  00410058     kernel32:KERNEL32.dll
 0002:0000005c       __imp__LoadLibraryExW@12   0041005c     kernel32:KERNEL32.dll
 0002:00000060       __imp__FreeLibrary@4       00410060     kernel32:KERNEL32.dll
 0002:00000064       __imp__SetErrorMode@4      00410064     kernel32:KERNEL32.dll
 0002:00000068       __imp__FindFirstFileW@8    00410068     kernel32:KERNEL32.dll
 0002:0000006c       __imp__GetFullPathNameW@16 0041006c     kernel32:KERNEL32.dll
 0002:00000070       __imp__IsDebuggerPresent@0 00410070     kernel32:KERNEL32.dll
 0002:00000074       \177KERNEL32_NULL_THUNK_DATA 00410074     kernel32:KERNEL32.dll
 0002:00000078       __imp___lock               00410078     MSVCRT:MSVCR90.dll
 0002:0000007c       __imp___onexit             0041007c     MSVCRT:MSVCR90.dll
 0002:00000080       __imp___decode_pointer     00410080     MSVCRT:MSVCR90.dll
 0002:00000084       __imp___amsg_exit          00410084     MSVCRT:MSVCR90.dll
 0002:00000088       __imp____getmainargs       00410088     MSVCRT:MSVCR90.dll
 0002:0000008c       __imp___cexit              0041008c     MSVCRT:MSVCR90.dll
 0002:00000090       __imp___exit               00410090     MSVCRT:MSVCR90.dll
 0002:00000094       __imp___XcptFilter         00410094     MSVCRT:MSVCR90.dll
 0002:00000098       __imp__exit                00410098     MSVCRT:MSVCR90.dll
 0002:0000009c       __imp____initenv           0041009c     MSVCRT:MSVCR90.dll
 0002:000000a0       __imp___initterm           004100a0     MSVCRT:MSVCR90.dll
 0002:000000a4       __imp___initterm_e         004100a4     MSVCRT:MSVCR90.dll
 0002:000000a8       __imp___encode_pointer     004100a8     MSVCRT:MSVCR90.dll
 0002:000000ac       __imp____setusermatherr    004100ac     MSVCRT:MSVCR90.dll
 0002:000000b0       __imp___adjust_fdiv        004100b0     MSVCRT:MSVCR90.dll
 0002:000000b4       __imp____p__commode        004100b4     MSVCRT:MSVCR90.dll
 0002:000000b8       __imp____p__fmode          004100b8     MSVCRT:MSVCR90.dll
 0002:000000bc       __imp____set_app_type      004100bc     MSVCRT:MSVCR90.dll
 0002:000000c0       __imp___except_handler4_common 004100c0     MSVCRT:MSVCR90.dll
 0002:000000c4       __imp_?terminate@@YAXXZ    004100c4     MSVCRT:MSVCR90.dll
 0002:000000c8       __imp___invoke_watson      004100c8     MSVCRT:MSVCR90.dll
 0002:000000cc       __imp___controlfp_s        004100cc     MSVCRT:MSVCR90.dll
 0002:000000d0       __imp_?_type_info_dtor_internal_method@type_info@@QAEXXZ 004100d0     MSVCRT:MSVCR90.dll
 0002:000000d4       __imp___crt_debugger_hook  004100d4     MSVCRT:MSVCR90.dll
 0002:000000d8       __imp____dllonexit         004100d8     MSVCRT:MSVCR90.dll
 0002:000000dc       __imp___unlock             004100dc     MSVCRT:MSVCR90.dll
 0002:000000e0       __imp___vsnprintf          004100e0     MSVCRT:MSVCR90.dll
 0002:000000e4       __imp___get_osfhandle      004100e4     MSVCRT:MSVCR90.dll
 0002:000000e8       __imp___fileno             004100e8     MSVCRT:MSVCR90.dll
 0002:000000ec       __imp___chsize             004100ec     MSVCRT:MSVCR90.dll
 0002:000000f0       __imp__remove              004100f0     MSVCRT:MSVCR90.dll
 0002:000000f4       __imp___wfopen             004100f4     MSVCRT:MSVCR90.dll
 0002:000000f8       __imp__rename              004100f8     MSVCRT:MSVCR90.dll
 0002:000000fc       __imp__realloc             004100fc     MSVCRT:MSVCR90.dll
 0002:00000100       __imp__fprintf             00410100     MSVCRT:MSVCR90.dll
 0002:00000104       __imp__strncpy             00410104     MSVCRT:MSVCR90.dll
 0002:00000108       __imp___snprintf           00410108     MSVCRT:MSVCR90.dll
 0002:0000010c       __imp__malloc              0041010c     MSVCRT:MSVCR90.dll
 0002:00000110       __imp__free                00410110     MSVCRT:MSVCR90.dll
 0002:00000114       __imp__vfprintf            00410114     MSVCRT:MSVCR90.dll
 0002:00000118       __imp____iob_func          00410118     MSVCRT:MSVCR90.dll
 0002:0000011c       __imp__strstr              0041011c     MSVCRT:MSVCR90.dll
 0002:00000120       __imp_??2@YAPAXI@Z         00410120     MSVCRT:MSVCR90.dll
 0002:00000124       __imp__strncmp             00410124     MSVCRT:MSVCR90.dll
 0002:00000128       __imp__fclose              00410128     MSVCRT:MSVCR90.dll
 0002:0000012c       __imp__fseek               0041012c     MSVCRT:MSVCR90.dll
 0002:00000130       __imp__ftell               00410130     MSVCRT:MSVCR90.dll
 0002:00000134       __imp__fwrite              00410134     MSVCRT:MSVCR90.dll
 0002:00000138       __imp_??3@YAXPAX@Z         00410138     MSVCRT:MSVCR90.dll
 0002:0000013c       __imp___purecall           0041013c     MSVCRT:MSVCR90.dll
 0002:00000140       __imp__fread               00410140     MSVCRT:MSVCR90.dll
 0002:00000144       __imp___configthreadlocale 00410144     MSVCRT:MSVCR90.dll
 0002:00000148       __imp__fflush              00410148     MSVCRT:MSVCR90.dll
 0002:0000014c       __imp__memcpy              0041014c     MSVCRT:MSVCR90.dll
 0002:00000150       __imp____CxxFrameHandler3  00410150     MSVCRT:MSVCR90.dll
 0002:00000154       __imp___CxxThrowException@8 00410154     MSVCRT:MSVCR90.dll
 0002:00000158       \177MSVCR90_NULL_THUNK_DATA 00410158     MSVCRT:MSVCR90.dll
 0002:0000015c       ___xc_a                    0041015c     MSVCRT:cinitexe.obj
 0002:000004dc       ___xc_z                    004104dc     MSVCRT:cinitexe.obj
 0002:000004e0       ___xi_a                    004104e0     MSVCRT:cinitexe.obj
 0002:000004ec       ___xi_z                    004104ec     MSVCRT:cinitexe.obj
 0002:000004f4       ??_7type_info@@6B@         004104f4     MSVCRT:ti_inst.obj
 0002:00000500       ??_C@_0P@GHFPNOJB@bad?5allocation?$AA@ 00410500     umodsys.c_main.obj
 0002:00000510       ??_C@_0BF@OCNNAADO@UModSys?3?3core?3?3IRoot?$AA@ 00410510     umodsys.c_main.obj
 0002:00000528       ??_C@_0BK@EMIJFOPA@UModSys?3?3core?3?3IRefObject?$AA@ 00410528     umodsys.c_main.obj
 0002:00000544       ??_C@_0BL@IOMMHELF@UModSys?3?3core?3?3IParameters?$AA@ 00410544     umodsys.c_main.obj
 0002:00000560       ??_C@_0BI@IKAOEFAP@UModSys?3?3base?3?3IConsole?$AA@ 00410560     umodsys.c_main.obj
 0002:00000578       ??_C@_0BH@LKDEEPPM@UModSys?3?3base?3?3IModule?$AA@ 00410578     umodsys.c_main.obj
 0002:00000590       ??_C@_0BO@PHJOHFCB@UModSys?3?3base?3?3IModuleLibrary?$AA@ 00410590     umodsys.c_main.obj
 0002:000005b0       ??_C@_0BK@FDPIOPHG@UModSys?3?3base?3?3IModObject?$AA@ 004105b0     umodsys.c_main.obj
 0002:000005cc       ??_C@_0BK@OIBKNCKJ@UModSys?3?3base?3?3IGenerator?$AA@ 004105cc     umodsys.c_main.obj
 0002:000005e8       ??_C@_0BG@PJBGCMEC@UModSys?3?3base?3?3IShell?$AA@ 004105e8     umodsys.c_main.obj
 0002:00000600       ??_C@_0BH@PFCONEJJ@UModSys?3?3base?3?3ISystem?$AA@ 00410600     umodsys.c_main.obj
 0002:00000618       ??_C@_0CA@MDFMKLLN@UModSys?3?3base?3?3rsystem?3?3RModule?$AA@ 00410618     umodsys.c_main.obj
 0002:00000638       ??_C@_0CK@MJPNGLHN@UModSys?3?3base?3?3rsystem?3?3IModuleL@ 00410638     umodsys.c_main.obj
 0002:00000664       ??_C@_0CJ@OPOMMGLJ@UModSys?3?3base?3?3rsystem?3?3RModuleL@ 00410664     umodsys.c_main.obj
 0002:00000690       ??_C@_0CL@ILNBAMJF@UModSys?3?3base?3?3rsystem?3?3RModuleL@ 00410690     umodsys.c_main.obj
 0002:000006bc       ??_C@_0CE@IHGMMEEA@UModSys?3?3base?3?3rsystem?3?3RParamet@ 004106bc     umodsys.c_main.obj
 0002:000006e0       ??_C@_0CA@IMEGDANI@UModSys?3?3base?3?3rsystem?3?3RSystem?$AA@ 004106e0     umodsys.c_main.obj
 0002:00000700       ??_C@_0CF@KIMLNODL@UModSys?3?3base?3?3rsystem?3?3RConsole@ 00410700     umodsys.c_main.obj
 0002:00000728       ??_C@_0M@DCEPEPFJ@umodsys?4log?$AA@ 00410728     umodsys.c_main.obj
 0002:00000734       ??_C@_00CNPNBAHC@?$AA@     00410734     umodsys.c_main.obj
 0002:00000738       ??_C@_01NBENCBCI@?$CK?$AA@ 00410738     umodsys.c_main.obj
 0002:0000073c       ??_C@_0BC@JABDEAFI@moduledb?4conf?9hdb?$AA@ 0041073c     umodsys.c_main.obj
 0002:00000750       ??_C@_08FCBDOIAH@typeinfo?$AA@ 00410750     umodsys.c_main.obj
 0002:0000075c       ??_C@_0CB@CLGNFEGF@UModSys?3?3libmedia?3?3IStreamReader@ 0041075c     umodsys_lib_libmedia:umodsys.mod.media.stdio.obj
 0002:00000780       ??_C@_0CB@HOPFFLP@UModSys?3?3libmedia?3?3IStreamWriter@ 00410780     umodsys_lib_libmedia:umodsys.mod.media.stdio.obj
 0002:000007a4       ??_C@_0BO@INLIIEII@UModSys?3?3libmedia?3?3IUtilities?$AA@ 004107a4     umodsys_lib_libmedia:umodsys.mod.media.stdio.obj
 0002:000007c4       ??_C@_0BO@BMLODIDG@UModSys?3?3libmedia?3?3ILibObject?$AA@ 004107c4     umodsys_lib_libmedia:umodsys.mod.media.stdio.obj
 0002:000007e4       ??_C@_0BP@KCJMEDNO@UModSys?3?3libmedia?3?3IBinArchive?$AA@ 004107e4     umodsys_lib_libmedia:umodsys.mod.media.stdio.obj
 0002:00000804       ??_C@_0CB@FDEKNMGJ@UModSys?3?3libmedia?3?3IBinObjFilter@ 00410804     umodsys_lib_libmedia:umodsys.mod.media.stdio.obj
 0002:00000828       ??_C@_0BM@DPCMOAPM@UModSys?3?3libmedia?3?3ILibrary?$AA@ 00410828     umodsys_lib_libmedia:umodsys.mod.media.stdio.obj
 0002:00000844       ??_C@_0DD@HMDIDEEB@UModSys?3?3modules?3?3media?3?3stdio?3?3@ 00410844     umodsys_lib_libmedia:umodsys.mod.media.stdio.obj
 0002:00000878       ??_C@_08BABJIOEM@filename?$AA@ 00410878     umodsys_lib_libmedia:umodsys.mod.media.stdio.obj
 0002:00000884       ??_C@_02JDPG@rb?$AA@       00410884     umodsys_lib_libmedia:umodsys.mod.media.stdio.obj
 0002:00000888       ??_C@_0DD@NMEBJAJM@UModSys?3?3modules?3?3media?3?3stdio?3?3@ 00410888     umodsys_lib_libmedia:umodsys.mod.media.stdio.obj
 0002:000008bc       ??_C@_04FAOFCKOL@safe?$AA@ 004108bc     umodsys_lib_libmedia:umodsys.mod.media.stdio.obj
 0002:000008c4       ??_C@_02GMLFBBN@wb?$AA@    004108c4     umodsys_lib_libmedia:umodsys.mod.media.stdio.obj
 0002:000008c8       ??_C@_0DE@KBMIHBCD@UModSys?3?3modules?3?3media?3?3stdio?3?3@ 004108c8     umodsys_lib_libmedia:umodsys.mod.media.stdio.obj
 0002:000008fc       ??_C@_01LFCBOECM@?4?$AA@   004108fc     umodsys_lib_libmedia:umodsys.mod.media.stdio.obj
 0002:00000900       ??_C@_04LNEJFJGI@path?$AA@ 00410900     umodsys_lib_libmedia:umodsys.mod.media.stdio.obj
 0002:00000908       ??_C@_08PEIJGPHF@pathname?$AA@ 00410908     umodsys_lib_libmedia:umodsys.mod.media.stdio.obj
 0002:00000914       ??_C@_0M@PANNIBHH@permissions?$AA@ 00410914     umodsys_lib_libmedia:umodsys.mod.media.stdio.obj
 0002:00000920       ??_C@_0P@DDBOOPIK@?$HL?$HLos?5load?5?$CFs?$HN?$HN?$AA@ 00410920     umodsys_lib_libmedia:umodsys.mod.media.stdio.obj
 0002:00000930       ??_C@_0CL@IOBDHHMI@UModSys?3?3modules?3?3media?3?3stdio?3?3@ 00410930     umodsys_lib_libmedia:umodsys.mod.media.stdio.obj
 0002:0000095c       ??_C@_0BJ@NOFIIAEK@U_MOD?3?3RGenerator?3unique?$AA@ 0041095c     umodsys_lib_libmedia:umodsys.mod.media.stdio.obj
 0002:00000978       ??_C@_0N@HJPCMPI@media?3?3stdio?$AA@ 00410978     umodsys_lib_libmedia:umodsys.mod.media.stdio.obj
 0002:00000988       ??_C@_09JGNMLHG@modobject?$AA@ 00410988     umodsys_lib_libmedia:umodsys.mod.media.stdio.obj
 0002:00000998       ??_7IRoot@core@UModSys@@6B@ 00410998     umodsys_lib_libmedia:umodsys.mod.media.stdio.obj
 0002:000009bc       ??_7ISetter@SFlags@libmedia@UModSys@@6B@ 004109bc     umodsys_lib_libmedia:umodsys.mod.media.stdio.obj
 0002:000009cc       ??_7RGenerator@stdio@media@modules@UModSys@@6B@ 004109cc     umodsys_lib_libmedia:umodsys.mod.media.stdio.obj
 0002:00000a1c       ??_7RStreamReader_FILE@stdio@media@modules@UModSys@@6B@ 00410a1c     umodsys_lib_libmedia:umodsys.mod.media.stdio.obj
 0002:00000a6c       ??_7RStreamWriter_FILE@stdio@media@modules@UModSys@@6B@ 00410a6c     umodsys_lib_libmedia:umodsys.mod.media.stdio.obj
 0002:00000acc       ??_7RDataArchiver_OsDir@stdio@media@modules@UModSys@@6BIRefObject@core@4@@ 00410acc     umodsys_lib_libmedia:umodsys.mod.media.stdio.obj
 0002:00000b1c       ??_7RDataArchiver_OsDir@stdio@media@modules@UModSys@@6BISetter@SFlags@libmedia@4@@ 00410b1c     umodsys_lib_libmedia:umodsys.mod.media.stdio.obj
 0002:00000b2c       ??_7RModuleReg@stdio@media@modules@UModSys@@6B@ 00410b2c     umodsys_lib_libmedia:umodsys.mod.media.stdio.obj
 0002:00000b48       ??_C@_0CD@ELIFEGE@UModSys?3?3libmedia?3?3ILibraryBinTr@ 00410b48     umodsys_lib_libmedia:umodsys.mod.media.stdlib.obj
 0002:00000b6c       ??_C@_0CE@EGHBJBAJ@UModSys?3?3libmedia?3?3ILibraryBinCa@ 00410b6c     umodsys_lib_libmedia:umodsys.mod.media.stdlib.obj
 0002:00000b90       ??_C@_0CF@LBIGBLOK@UModSys?3?3libmedia?3?3ILibraryObjFi@ 00410b90     umodsys_lib_libmedia:umodsys.mod.media.stdlib.obj
 0002:00000bb8       ??_C@_0CE@BOBLEOBL@UModSys?3?3libmedia?3?3ILibraryObjCa@ 00410bb8     umodsys_lib_libmedia:umodsys.mod.media.stdlib.obj
 0002:00000bdc       ??_C@_0CD@LJFEJKGF@UModSys?3?3libmedia?3?3ILibraryLayer@ 00410bdc     umodsys_lib_libmedia:umodsys.mod.media.stdlib.obj
 0002:00000c00       ??_C@_0CE@FGFAKEDN@UModSys?3?3libmedia?3?3IBinArchiveFr@ 00410c00     umodsys_lib_libmedia:umodsys.mod.media.stdlib.obj
 0002:00000c24       ??_C@_0CN@GBHCKFMF@UModSys?3?3libmedia?3?3IBinArchiveFr@ 00410c24     umodsys_lib_libmedia:umodsys.mod.media.stdlib.obj
 0002:00000c54       ??_C@_0CM@MNCPANLP@UModSys?3?3modules?3?3media?3?3stdlib?3@ 00410c54     umodsys_lib_libmedia:umodsys.mod.media.stdlib.obj
 0002:00000c80       ??_C@_0DC@KDNEBFBG@UModSys?3?3modules?3?3media?3?3stdlib?3@ 00410c80     umodsys_lib_libmedia:umodsys.mod.media.stdlib.obj
 0002:00000cb4       ??_C@_0DB@IPMNCIDD@UModSys?3?3modules?3?3media?3?3stdlib?3@ 00410cb4     umodsys_lib_libmedia:umodsys.mod.media.stdlib.obj
 0002:00000ce8       ??_C@_0DC@LDPFCACC@UModSys?3?3modules?3?3media?3?3stdlib?3@ 00410ce8     umodsys_lib_libmedia:umodsys.mod.media.stdlib.obj
 0002:00000d1c       ??_C@_0DB@DCCBOGDC@UModSys?3?3modules?3?3media?3?3stdlib?3@ 00410d1c     umodsys_lib_libmedia:umodsys.mod.media.stdlib.obj
 0002:00000d50       ??_C@_0DC@OLJPPPDA@UModSys?3?3modules?3?3media?3?3stdlib?3@ 00410d50     umodsys_lib_libmedia:umodsys.mod.media.stdlib.obj
 0002:00000d84       ??_C@_0DD@BNMPGGBL@UModSys?3?3modules?3?3media?3?3stdlib?3@ 00410d84     umodsys_lib_libmedia:umodsys.mod.media.stdlib.obj
 0002:00000db8       ??_C@_0CM@LNHMJHON@UModSys?3?3modules?3?3media?3?3stdlib?3@ 00410db8     umodsys_lib_libmedia:umodsys.mod.media.stdlib.obj
 0002:00000de4       ??_C@_06DGDLPBAN@client?$AA@ 00410de4     umodsys_lib_libmedia:umodsys.mod.media.stdlib.obj
 0002:00000dec       ??_C@_07OPILGPEN@library?$AA@ 00410dec     umodsys_lib_libmedia:umodsys.mod.media.stdlib.obj
 0002:00000df4       ??_C@_05NGFEDHGN@write?$AA@ 00410df4     umodsys_lib_libmedia:umodsys.mod.media.stdlib.obj
 0002:00000dfc       ??_C@_0L@LOIPJDMA@media?3?3std?$AA@ 00410dfc     umodsys_lib_libmedia:umodsys.mod.media.stdlib.obj
 0002:00000e0c       ??_7RResolverChain@SFlagsChain@libmedia@UModSys@@6B@ 00410e0c     umodsys_lib_libmedia:umodsys.mod.media.stdlib.obj
 0002:00000e14       ??_7RGenerator@stdlib@media@modules@UModSys@@6B@ 00410e14     umodsys_lib_libmedia:umodsys.mod.media.stdlib.obj
 0002:00000e64       ??_7RUtilities@stdlib@media@modules@UModSys@@6B@ 00410e64     umodsys_lib_libmedia:umodsys.mod.media.stdlib.obj
 0002:00000eb4       ??_7RBinArchiveFrame@stdlib@media@modules@UModSys@@6BIRefObject@core@4@@ 00410eb4     umodsys_lib_libmedia:umodsys.mod.media.stdlib.obj
 0002:00000f20       ??_7RBinArchiveFrame@stdlib@media@modules@UModSys@@6BISetter@SFlags@libmedia@4@@ 00410f20     umodsys_lib_libmedia:umodsys.mod.media.stdlib.obj
 0002:00000f34       ??_7RLibraryBinTree@stdlib@media@modules@UModSys@@6BIRefObject@core@4@@ 00410f34     umodsys_lib_libmedia:umodsys.mod.media.stdlib.obj
 0002:00000fb8       ??_7RLibraryBinTree@stdlib@media@modules@UModSys@@6BISetter@SFlags@libmedia@4@@ 00410fb8     umodsys_lib_libmedia:umodsys.mod.media.stdlib.obj
 0002:00000fcc       ??_7RLibraryBinCache@stdlib@media@modules@UModSys@@6BIRefObject@core@4@@ 00410fcc     umodsys_lib_libmedia:umodsys.mod.media.stdlib.obj
 0002:00001054       ??_7RLibraryBinCache@stdlib@media@modules@UModSys@@6BISetter@SFlags@libmedia@4@@ 00411054     umodsys_lib_libmedia:umodsys.mod.media.stdlib.obj
 0002:00001064       ??_7RLibraryLayered@stdlib@media@modules@UModSys@@6BIRefObject@core@4@@ 00411064     umodsys_lib_libmedia:umodsys.mod.media.stdlib.obj
 0002:000010f0       ??_7RLibraryLayered@stdlib@media@modules@UModSys@@6BISetter@SFlags@libmedia@4@@ 004110f0     umodsys_lib_libmedia:umodsys.mod.media.stdlib.obj
 0002:00001104       ??_7RLibraryObjCache@stdlib@media@modules@UModSys@@6BIRefObject@core@4@@ 00411104     umodsys_lib_libmedia:umodsys.mod.media.stdlib.obj
 0002:00001188       ??_7RLibraryObjCache@stdlib@media@modules@UModSys@@6BISetter@SFlags@libmedia@4@@ 00411188     umodsys_lib_libmedia:umodsys.mod.media.stdlib.obj
 0002:0000119c       ??_7RLibraryObjFilter@stdlib@media@modules@UModSys@@6BIRefObject@core@4@@ 0041119c     umodsys_lib_libmedia:umodsys.mod.media.stdlib.obj
 0002:00001228       ??_7RLibraryObjFilter@stdlib@media@modules@UModSys@@6BISetter@SFlags@libmedia@4@@ 00411228     umodsys_lib_libmedia:umodsys.mod.media.stdlib.obj
 0002:00001238       ??_7RModuleReg@stdlib@media@modules@UModSys@@6B@ 00411238     umodsys_lib_libmedia:umodsys.mod.media.stdlib.obj
 0002:00001254       ??_C@_04HDOCAJNK@?$CFs?$CFs?$AA@ 00411254     umodsys_lib_libmedia:umodsys.lib.media.common.obj
 0002:0000125c       ??_C@_02CBLDBPFN@?1?1?$AA@ 0041125c     umodsys_lib_libmedia:umodsys.lib.media.common.obj
 0002:00001260       ??_C@_02BKFDOEMK@wt?$AA@   00411260     umodsys_lib_basesys:umodsys.basesys.rconsole_std.obj
 0002:0000126c       ??_7RConsole_std@rsystem@base@UModSys@@6B@ 0041126c     umodsys_lib_basesys:umodsys.basesys.rconsole_std.obj
 0002:000012b4       ??_C@_04HIBGFPH@NULL?$AA@  004112b4     umodsys_lib_basesys:umodsys.basesys.rsystem_main.obj
 0002:000012bc       ??_C@_0L@FPKIMPHA@?$CD?$CF08x?5?$CC?$CFs?$CC?$AA@ 004112bc     umodsys_lib_basesys:umodsys.basesys.rsystem_main.obj
 0002:000012c8       ??_C@_0BC@HBJCAHHB@EFatal?5?$CD?$CF08x?5?$CC?$CFs?$CC?$AA@ 004112c8     umodsys_lib_basesys:umodsys.basesys.rsystem_main.obj
 0002:000012dc       ??_C@_0BE@IIJFBNID@EWarning?5?$CD?$CF08x?5?$CC?$CFs?$CC?$AA@ 004112dc     umodsys_lib_basesys:umodsys.basesys.rsystem_main.obj
 0002:000012f0       ??_C@_0BB@KFMJENMO@RSystem?3?3init?$CI?$CJ?6?$AA@ 004112f0     umodsys_lib_basesys:umodsys.basesys.rsystem_main.obj
 0002:00001304       ??_C@_0BI@FKDCNCM@RSystem?3?3exec_args?$CI?$CFd?$CJ?6?$AA@ 00411304     umodsys_lib_basesys:umodsys.basesys.rsystem_main.obj
 0002:0000131c       ??_C@_0BG@NFAKDFBG@RSystem?3?3exec_main?$CI?$CJ?6?$AA@ 0041131c     umodsys_lib_basesys:umodsys.basesys.rsystem_main.obj
 0002:00001334       ??_C@_0BD@CKNOJECK@RSystem?3?3deinit?$CI?$CJ?6?$AA@ 00411334     umodsys_lib_basesys:umodsys.basesys.rsystem_main.obj
 0002:0000134c       ??_7EExceptionBase@core@UModSys@@6B@ 0041134c     umodsys_lib_basesys:umodsys.basesys.rsystem_main.obj
 0002:00001358       ??_7EFatal@core@UModSys@@6B@ 00411358     umodsys_lib_basesys:umodsys.basesys.rsystem_main.obj
 0002:00001364       ??_7EWarning@core@UModSys@@6B@ 00411364     umodsys_lib_basesys:umodsys.basesys.rsystem_main.obj
 0002:00001370       ??_7?$TRMemAlloc_CC@U?$TMemAllocHeader@USMagic@mem_headers@rsystem@base@UModSys@@U?$TPool@X@2345@USDebug@2345@UVoid@core@5@U895@@rsystem@base@UModSys@@USMemAlloc_Malloc@core@4@@rsystem@base@UModSys@@6B@ 00411370     umodsys_lib_basesys:umodsys.basesys.rsystem_main.obj
 0002:00001384       ??_7RSystem@rsystem@base@UModSys@@6BISystem@23@@ 00411384     umodsys_lib_basesys:umodsys.basesys.rsystem_main.obj
 0002:000013c8       ??_7RSystem@rsystem@base@UModSys@@6BIUniquePointerResolver@core@3@@ 004113c8     umodsys_lib_basesys:umodsys.basesys.rsystem_main.obj
 0002:000013d4       ??_7RSystem@rsystem@base@UModSys@@6BISourceContextAdapter@core@3@@ 004113d4     umodsys_lib_basesys:umodsys.basesys.rsystem_main.obj
 0002:000013d8       ??_C@_0BC@NNHIIPO@shells?5found?3?5?$CFd?6?$AA@ 004113d8     umodsys_lib_basesys:umodsys.basesys.rsystem_tests.obj
 0002:000013ec       ??_C@_0BA@EBBPOIJG@?5?5shell?3?5?$CFp?5?$CFs?6?$AA@ 004113ec     umodsys_lib_basesys:umodsys.basesys.rsystem_tests.obj
 0002:000013fc       ??_C@_0BF@JPMHOAKE@?5?5?5?5shell?5gen?5error?6?$AA@ 004113fc     umodsys_lib_basesys:umodsys.basesys.rsystem_tests.obj
 0002:00001414       ??_C@_0BL@NANLGMEE@?5?5?5?5shell?5generated?5as?5?$CFp?6?$AA@ 00411414     umodsys_lib_basesys:umodsys.basesys.rsystem_tests.obj
 0002:00001430       ??_C@_0BD@NFNPGOAG@?1shells?5found?3?5?$CFd?6?$AA@ 00411430     umodsys_lib_basesys:umodsys.basesys.rsystem_tests.obj
 0002:00001444       ??_C@_0CJ@BMAKALAG@?$CK?$CK?$CK?$CK?$CK?$CK?$CK?$CK?$CK?$CK?$CK?$CK?$CK?$CK?$CK?$CK?$CK?$CK?$CK?$CK?$CK?$CK?$CK?$CK?$CK?$CK?$CK?$CK?$CK?$CK?$CK?5@ 00411444     umodsys_lib_basesys:umodsys.basesys.rsystem_tests.obj
 0002:00001470       ??_C@_0IM@GKLDAEGO@sizeof?$CIDRMemAlloc?$CJ?$DN?$CFu?5sizeof?$CIDRM@ 00411470     umodsys_lib_basesys:umodsys.basesys.rsystem_tests.obj
 0002:000014fc       ??_C@_0CJ@HFHNFOAC@?$CK?$CK?$CK?$CK?$CK?$CK?$CK?$CK?$CK?$CK?$CK?$CK?$CK?$CK?$CK?$CK?$CK?$CK?$CK?$CK?$CK?$CK?$CK?$CK?$CK?$CK?$CK?$CK?$CK?$CK?$CK?5@ 004114fc     umodsys_lib_basesys:umodsys.basesys.rsystem_tests.obj
 0002:00001528       ??_C@_0DG@DMGFJEPO@RModuleLoader?3?3moduledb_cleanup?$CI@ 00411528     umodsys_lib_basesys:umodsys.basesys.rmoduleloader.obj
 0002:00001560       ??_C@_0BN@BDEAMLC@?$CD?5LIST?5OF?5LIBRARY?5MODULES?3?6?6?$AA@ 00411560     umodsys_lib_basesys:umodsys.basesys.rmoduleloader.obj
 0002:00001580       ??_C@_0BF@PLOHEFDA@?5?$HL?5mod_list?$DN?$CFd?3?$FL?$FN?5?$HN?6?$AA@ 00411580     umodsys_lib_basesys:umodsys.basesys.rmoduleloader.obj
 0002:0000159c       ??_7IModuleLoader@base@UModSys@@6B@ 0041159c     umodsys_lib_basesys:umodsys.basesys.rmoduleloader.obj
 0002:000015dc       ??_7RModuleLoader@rsystem@base@UModSys@@6B@ 004115dc     umodsys_lib_basesys:umodsys.basesys.rmoduleloader.obj
 0002:0000161c       ??_7RModuleLibraryThis@rsystem@base@UModSys@@6B@ 0041161c     umodsys_lib_basesys:umodsys.basesys.rmodulelibthis.obj
 0002:00001688       ??_C@_0CN@ONDMHEFN@IModuleLibraryUni?$CI?$CFp?$CJ?3?3link?$CI?$CJ?5?9?9@ 00411688     umodsys_lib_basesys:umodsys.basesys.rmodulelib.obj
 0002:000016b8       ??_C@_0BA@LBGMEMKJ@LIBRARY?5?$CC?$CFs?$CC?5?$HL?6?$AA@ 004116b8     umodsys_lib_basesys:umodsys.basesys.rmodulelib.obj
 0002:000016c8       ??_C@_0BH@CLNAAMEM@?$HN?5?$CD?5END?5LIBRARY?5?$CC?$CFs?$CC?6?6?$AA@ 004116c8     umodsys_lib_basesys:umodsys.basesys.rmodulelib.obj
 0002:000016e0       ??_C@_0BI@OEALOBHC@NULL?5detected?5after?5?$CFp?6?$AA@ 004116e0     umodsys_lib_basesys:umodsys.basesys.rmodulelib.obj
 0002:000016f8       ??_C@_0CH@LDLHHCGC@leak?5detected?5?$CFp?5size?5?$CFu?5at?5?$CFs?$CI?$CF@ 004116f8     umodsys_lib_basesys:umodsys.basesys.rmodulelib.obj
 0002:00001720       ??_C@_0BK@NDLOCOMD@leak?5detected?5?$CFp?5size?5?$CFu?6?$AA@ 00411720     umodsys_lib_basesys:umodsys.basesys.rmodulelib.obj
 0002:00001744       ??_7IModuleLibraryUni@rsystem@base@UModSys@@6B@ 00411744     umodsys_lib_basesys:umodsys.basesys.rmodulelib.obj
 0002:000017b0       ??_C@_0CI@BLONPINK@RSystem?3?3upi_add?$CI?$CFp?3?$HL?$CC?$CFs?$CC?0?$CC?$CFs?$CC?0?$CF@ 004117b0     umodsys_lib_basesys:umodsys.basesys.rsystem.obj
 0002:000017dc       ??_7RParameters@rsystem@base@UModSys@@6B@ 004117dc     umodsys_lib_basesys:umodsys.basesys.rparameters.obj
 0002:0000184c       ??_C@_0BJ@IHGOMCFA@_UModSys_Plugin_Entry2?$EA0?$AA@ 0041184c     umodsys_lib_basesys:umodsys.basesys.rmodule.win32.obj
 0002:00001868       ??_C@_0CI@IABKIJLA@?5?5?5?5?5?5?5?5?5?5load?5so?$CI?$CC?$CFs?$CC?$CJ?5?$HL?$CFp?0?5?$CFp?$HN@ 00411868     umodsys_lib_basesys:umodsys.basesys.rmodule.win32.obj
 0002:00001890       ??_C@_0BP@EBMDLOGD@?5?5?5?5?5?5?5?5?5?5unload?5so?$CI?$HL?$CFp?0?5?$CFp?$HN?$CJ?6?$AA@ 00411890     umodsys_lib_basesys:umodsys.basesys.rmodule.win32.obj
 0002:000018b0       ??_C@_0BD@FBMHCLKB@scan?5so?3?5?$CC?$CFs?$CFs?$CFs?$CC?6?$AA@ 004118b0     umodsys_lib_basesys:umodsys.basesys.rmodule.win32.obj
 0002:000018c4       ??_C@_0BC@GMLCPHOK@?1scan?5so?3?5?$CC?$CFs?$CFs?$CC?6?$AA@ 004118c4     umodsys_lib_basesys:umodsys.basesys.rmodule.win32.obj
 0002:000018d8       ??_C@_02CAHBHFGK@?4?1?$AA@ 004118d8     umodsys_lib_basesys:umodsys.basesys.rmodule.win32.obj
 0002:000018dc       ??_C@_04HLONOPDM@?4dll?$AA@ 004118dc     umodsys_lib_basesys:umodsys.basesys.rmodule.win32.obj
 0002:000018e4       ??_C@_0BF@KDHHIHAN@RModule?$CI?$CFp?$CJ?3?3open?$CI?$CJ?6?$AA@ 004118e4     umodsys_lib_basesys:umodsys.basesys.rmodule.obj
 0002:000018fc       ??_C@_0BG@HADBHJOP@RModule?$CI?$CFp?$CJ?3?3close?$CI?$CJ?6?$AA@ 004118fc     umodsys_lib_basesys:umodsys.basesys.rmodule.obj
 0002:00001914       ??_C@_0BK@FNONNOFM@RModule?$CI?$CFp?$CJ?3?3?5pre?9loaded?6?$AA@ 00411914     umodsys_lib_basesys:umodsys.basesys.rmodule.obj
 0002:00001930       ??_C@_0CE@HBBEEAED@RModule?$CI?$CFp?$CJ?3?3generate?$CI?$CJ?5?$HL?5gen?$DN?$CFp@ 00411930     umodsys_lib_basesys:umodsys.basesys.rmodule.obj
 0002:00001954       ??_C@_0DL@FHDKGKAD@RModule?$CI?$CFp?$CJ?3?3reg_generator?$CI?$CFs?5?$CFp@ 00411954     umodsys_lib_basesys:umodsys.basesys.rmodule.obj
 0002:00001990       ??_C@_0DL@ECFHLNEB@RModule?$CI?$CFp?$CJ?3?3reg_generator?$CI?$CFs?5?$CFp@ 00411990     umodsys_lib_basesys:umodsys.basesys.rmodule.obj
 0002:000019cc       ??_C@_0DI@EBNLDEPD@RModule?$CI?$CFp?$CJ?3?3reg_obj?$CI?$CFs?5?$CFp?$CJ?5?9?9?5?$HL@ 004119cc     umodsys_lib_basesys:umodsys.basesys.rmodule.obj
 0002:00001a08       ??_C@_0GC@IAELDHPB@RModule?$CI?$CFp?$CJ?3?3reg_obj?$CI?$CFs?5?$CFp?$CJ?5?9?9?5i@ 00411a08     umodsys_lib_basesys:umodsys.basesys.rmodule.obj
 0002:00001a6c       ??_C@_0CM@JCLMIGEB@RModule?$CI?$CFp?$CJ?3?3reg_obj?$CI?$CFs?5?$CFp?$CJ?5?9?9?5a@ 00411a6c     umodsys_lib_basesys:umodsys.basesys.rmodule.obj
 0002:00001a98       ??_C@_0DK@NJCECDIC@RModule?$CI?$CFp?$CJ?3?3unreg_obj?$CI?$CFs?5?$CFp?$CJ?5?9?9@ 00411a98     umodsys_lib_basesys:umodsys.basesys.rmodule.obj
 0002:00001ad8       ??_C@_0GE@MGLAJHFG@RModule?$CI?$CFp?$CJ?3?3unreg_obj?$CI?$CFs?5?$CFp?$CJ?5?9?9@ 00411ad8     umodsys_lib_basesys:umodsys.basesys.rmodule.obj
 0002:00001b3c       ??_C@_0CO@DAMPCAGA@RModule?3?3alloc_minfo?$CI?$HL?$CC?$CFs?$CC?0?5?$CC?$CFs?$CC@ 00411b3c     umodsys_lib_basesys:umodsys.basesys.rmodule.obj
 0002:00001b6c       ??_C@_0BG@HANHHGHE@?5?5MODULE?5?$CFs?$CI?$CFd?0?$CFd?$CJ?5?$HL?6?$AA@ 00411b6c     umodsys_lib_basesys:umodsys.basesys.rmodule.obj
 0002:00001b84       ??_C@_0CI@FMDENPAM@RModule?$CI?$CFp?$CJ?3?3save_db?$CI?4?4?4?$CJ?5?9?9?5?$HL?5?$CF@ 00411b84     umodsys_lib_basesys:umodsys.basesys.rmodule.obj
 0002:00001bac       ??_C@_0BN@CFNKPKCH@?5?5?5?5MODOBJECT?5?$CFs?$CI?$CFd?$CJ?5?$CFs?$CI?$CFd?$CJ?6?$AA@ 00411bac     umodsys_lib_basesys:umodsys.basesys.rmodule.obj
 0002:00001bcc       ??_C@_0BP@BJFGMFNK@?5?5?5?5GENERATOR?5?$CFs?$CI?$CFd?$CJ?5?$CFs?$CI?$CFd?$CJ?5?$HL?6?$AA@ 00411bcc     umodsys_lib_basesys:umodsys.basesys.rmodule.obj
 0002:00001bec       ??_C@_0BK@DNNMLLHP@?5?5?5?5?5?5REFOBJECT?5?$CFs?$CI?$CFd?$CJ?5?$HL?6?$AA@ 00411bec     umodsys_lib_basesys:umodsys.basesys.rmodule.obj
 0002:00001c08       ??_C@_0BF@CJPCFEEB@?5?5?5?5?5?5?5?5TYPE?5?$CFs?$CI?$CFd?$CJ?6?$AA@ 00411c08     umodsys_lib_basesys:umodsys.basesys.rmodule.obj
 0002:00001c20       ??_C@_0BM@PFPEFHDC@?5?5?5?5?5?5?$HN?5?$CD?5REFOBJECT?5?$CFs?$CI?$CFd?$CJ?6?$AA@ 00411c20     umodsys_lib_basesys:umodsys.basesys.rmodule.obj
 0002:00001c3c       ??_C@_0CB@PCDHJLII@?5?5?5?5?$HN?5?$CD?5GENERATOR?5?$CFs?$CI?$CFd?$CJ?5?$CFs?$CI?$CFd?$CJ?6@ 00411c3c     umodsys_lib_basesys:umodsys.basesys.rmodule.obj
 0002:00001c60       ??_C@_0BI@OGBPJMLO@?5?5?$HN?5?$CD?5MODULE?5?$CFs?$CI?$CFd?0?$CFd?$CJ?6?$AA@ 00411c60     umodsys_lib_basesys:umodsys.basesys.rmodule.obj
 0002:00001c7c       ??_7RModule@rsystem@base@UModSys@@6B@ 00411c7c     umodsys_lib_basesys:umodsys.basesys.rmodule.obj
 0002:00001cd4       ??_C@_0M@KEHKBKEH@?5?5so?3?5?$CC?$CFs?$CC?6?$AA@ 00411cd4     umodsys_lib_basesys:umodsys.basesys.rmodulelibso.obj
 0002:00001ce0       ??_C@_0BF@IKAEAMGP@?5?5?5?5so?5loaded?3?5?$CC?$CFs?$CC?6?$AA@ 00411ce0     umodsys_lib_basesys:umodsys.basesys.rmodulelibso.obj
 0002:00001cf8       ??_C@_0O@MCPOKEFF@?5?5?5?5so?5added?6?$AA@ 00411cf8     umodsys_lib_basesys:umodsys.basesys.rmodulelibso.obj
 0002:00001d08       ??_C@_0BE@BFONLBBI@?5?5?5?5so?5dup?5with?5?$CFd?6?$AA@ 00411d08     umodsys_lib_basesys:umodsys.basesys.rmodulelibso.obj
 0002:00001d24       ??_7RModuleLibrarySO@rsystem@base@UModSys@@6B@ 00411d24     umodsys_lib_basesys:umodsys.basesys.rmodulelibso.obj
 0002:00001d94       ??_7RModuleLibraryReg_Chain@base@UModSys@@6B@ 00411d94     umodsys_lib_base:umodsys.base.moduleregchain.obj
 0002:00001db0       ??_7IModuleReg@base@UModSys@@6B@ 00411db0     umodsys_lib_base:umodsys.base.modulereg.obj
 0002:00001dd0       ??_7IModuleLibraryReg@base@UModSys@@6B@ 00411dd0     umodsys_lib_base:umodsys.base.modulereg.obj
 0002:00001de8       ??_C@_04MMEBIPMJ@?4tmp?$AA@ 00411de8     umodsys_lib_core:umodsys.core.syshlp_files.win32.obj
 0002:00001df0       ?utf_bytesFromUTF8@su@tl@UModSys@@3QBEB 00411df0     umodsys_lib_core:umodsys.tl.utf8.obj
 0002:00001ef0       ?utf_firstByteMark@su@tl@UModSys@@3QBEB 00411ef0     umodsys_lib_core:umodsys.tl.utf8.obj
 0002:00001ef8       ?utf_offsetsFromUTF8@su@tl@UModSys@@3QBHB 00411ef8     umodsys_lib_core:umodsys.tl.utf8.obj
 0002:00001f10       __load_config_used         00411f10     MSVCRT:loadcfg.obj
 0002:00001f58       ??_R4type_info@@6B@        00411f58     MSVCRT:ti_inst.obj
 0002:00001f6c       ??_R3type_info@@8          00411f6c     MSVCRT:ti_inst.obj
 0002:00001f7c       ??_R2type_info@@8          00411f7c     MSVCRT:ti_inst.obj
 0002:00001f84       ??_R1A@?0A@EA@type_info@@8 00411f84     MSVCRT:ti_inst.obj
 0002:00001fa0       ??_R4RModuleReg@stdio@media@modules@UModSys@@6B@ 00411fa0     umodsys_lib_libmedia:umodsys.mod.media.stdio.obj
 0002:00001fb4       ??_R3RModuleReg@stdio@media@modules@UModSys@@8 00411fb4     umodsys_lib_libmedia:umodsys.mod.media.stdio.obj
 0002:00001fc4       ??_R2RModuleReg@stdio@media@modules@UModSys@@8 00411fc4     umodsys_lib_libmedia:umodsys.mod.media.stdio.obj
 0002:00001fd0       ??_R1A@?0A@EA@IModuleReg@base@UModSys@@8 00411fd0     umodsys_lib_libmedia:umodsys.mod.media.stdio.obj
 0002:00001fec       ??_R3IModuleReg@base@UModSys@@8 00411fec     umodsys_lib_libmedia:umodsys.mod.media.stdio.obj
 0002:00001ffc       ??_R2IModuleReg@base@UModSys@@8 00411ffc     umodsys_lib_libmedia:umodsys.mod.media.stdio.obj
 0002:00002004       ??_R1A@?0A@EA@RModuleReg@stdio@media@modules@UModSys@@8 00412004     umodsys_lib_libmedia:umodsys.mod.media.stdio.obj
 0002:00002020       ??_R4RDataArchiver_OsDir@stdio@media@modules@UModSys@@6BISetter@SFlags@libmedia@4@@ 00412020     umodsys_lib_libmedia:umodsys.mod.media.stdio.obj
 0002:00002034       ??_R4RDataArchiver_OsDir@stdio@media@modules@UModSys@@6BIRefObject@core@4@@ 00412034     umodsys_lib_libmedia:umodsys.mod.media.stdio.obj
 0002:00002048       ??_R3RDataArchiver_OsDir@stdio@media@modules@UModSys@@8 00412048     umodsys_lib_libmedia:umodsys.mod.media.stdio.obj
 0002:00002058       ??_R2RDataArchiver_OsDir@stdio@media@modules@UModSys@@8 00412058     umodsys_lib_libmedia:umodsys.mod.media.stdio.obj
 0002:0000207c       ??_R1A@?0A@EA@RDataArchiver_OsDir@stdio@media@modules@UModSys@@8 0041207c     umodsys_lib_libmedia:umodsys.mod.media.stdio.obj
 0002:00002098       ??_R4RStreamWriter_FILE@stdio@media@modules@UModSys@@6B@ 00412098     umodsys_lib_libmedia:umodsys.mod.media.stdio.obj
 0002:000020ac       ??_R3RStreamWriter_FILE@stdio@media@modules@UModSys@@8 004120ac     umodsys_lib_libmedia:umodsys.mod.media.stdio.obj
 0002:000020bc       ??_R2RStreamWriter_FILE@stdio@media@modules@UModSys@@8 004120bc     umodsys_lib_libmedia:umodsys.mod.media.stdio.obj
 0002:000020d0       ??_R1A@?0A@EA@RStreamWriter_FILE@stdio@media@modules@UModSys@@8 004120d0     umodsys_lib_libmedia:umodsys.mod.media.stdio.obj
 0002:000020ec       ??_R4RStreamReader_FILE@stdio@media@modules@UModSys@@6B@ 004120ec     umodsys_lib_libmedia:umodsys.mod.media.stdio.obj
 0002:00002100       ??_R3RStreamReader_FILE@stdio@media@modules@UModSys@@8 00412100     umodsys_lib_libmedia:umodsys.mod.media.stdio.obj
 0002:00002110       ??_R2RStreamReader_FILE@stdio@media@modules@UModSys@@8 00412110     umodsys_lib_libmedia:umodsys.mod.media.stdio.obj
 0002:00002124       ??_R1A@?0A@EA@RStreamReader_FILE@stdio@media@modules@UModSys@@8 00412124     umodsys_lib_libmedia:umodsys.mod.media.stdio.obj
 0002:00002140       ??_R4RGenerator@stdio@media@modules@UModSys@@6B@ 00412140     umodsys_lib_libmedia:umodsys.mod.media.stdio.obj
 0002:00002154       ??_R3RGenerator@stdio@media@modules@UModSys@@8 00412154     umodsys_lib_libmedia:umodsys.mod.media.stdio.obj
 0002:00002164       ??_R2RGenerator@stdio@media@modules@UModSys@@8 00412164     umodsys_lib_libmedia:umodsys.mod.media.stdio.obj
 0002:0000217c       ??_R1A@?0A@EA@RGenerator@stdio@media@modules@UModSys@@8 0041217c     umodsys_lib_libmedia:umodsys.mod.media.stdio.obj
 0002:00002198       ??_R4ISetter@SFlags@libmedia@UModSys@@6B@ 00412198     umodsys_lib_libmedia:umodsys.mod.media.stdio.obj
 0002:000021ac       ??_R3IBinArchive@libmedia@UModSys@@8 004121ac     umodsys_lib_libmedia:umodsys.mod.media.stdio.obj
 0002:000021bc       ??_R2IBinArchive@libmedia@UModSys@@8 004121bc     umodsys_lib_libmedia:umodsys.mod.media.stdio.obj
 0002:000021dc       ??_R1A@?0A@EA@IBinArchive@libmedia@UModSys@@8 004121dc     umodsys_lib_libmedia:umodsys.mod.media.stdio.obj
 0002:000021f8       ??_R3ILibObject@libmedia@UModSys@@8 004121f8     umodsys_lib_libmedia:umodsys.mod.media.stdio.obj
 0002:00002208       ??_R2ILibObject@libmedia@UModSys@@8 00412208     umodsys_lib_libmedia:umodsys.mod.media.stdio.obj
 0002:00002224       ??_R13?0A@EA@IResolver@SFlags@libmedia@UModSys@@8 00412224     umodsys_lib_libmedia:umodsys.mod.media.stdio.obj
 0002:00002240       ??_R13?0A@EA@IResolverAuto@SFlags@libmedia@UModSys@@8 00412240     umodsys_lib_libmedia:umodsys.mod.media.stdio.obj
 0002:0000225c       ??_R13?0A@EA@ISetter@SFlags@libmedia@UModSys@@8 0041225c     umodsys_lib_libmedia:umodsys.mod.media.stdio.obj
 0002:00002278       ??_R3ISetter@SFlags@libmedia@UModSys@@8 00412278     umodsys_lib_libmedia:umodsys.mod.media.stdio.obj
 0002:00002288       ??_R2ISetter@SFlags@libmedia@UModSys@@8 00412288     umodsys_lib_libmedia:umodsys.mod.media.stdio.obj
 0002:00002298       ??_R1A@?0A@EA@IResolverAuto@SFlags@libmedia@UModSys@@8 00412298     umodsys_lib_libmedia:umodsys.mod.media.stdio.obj
 0002:000022b4       ??_R3IResolverAuto@SFlags@libmedia@UModSys@@8 004122b4     umodsys_lib_libmedia:umodsys.mod.media.stdio.obj
 0002:000022c4       ??_R2IResolverAuto@SFlags@libmedia@UModSys@@8 004122c4     umodsys_lib_libmedia:umodsys.mod.media.stdio.obj
 0002:000022d0       ??_R1A@?0A@EA@IResolver@SFlags@libmedia@UModSys@@8 004122d0     umodsys_lib_libmedia:umodsys.mod.media.stdio.obj
 0002:000022ec       ??_R3IResolver@SFlags@libmedia@UModSys@@8 004122ec     umodsys_lib_libmedia:umodsys.mod.media.stdio.obj
 0002:000022fc       ??_R2IResolver@SFlags@libmedia@UModSys@@8 004122fc     umodsys_lib_libmedia:umodsys.mod.media.stdio.obj
 0002:00002304       ??_R1A@?0A@EA@ISetter@SFlags@libmedia@UModSys@@8 00412304     umodsys_lib_libmedia:umodsys.mod.media.stdio.obj
 0002:00002320       ??_R1A@?0A@EA@ILibObject@libmedia@UModSys@@8 00412320     umodsys_lib_libmedia:umodsys.mod.media.stdio.obj
 0002:0000233c       ??_R3IStreamWriter@libmedia@UModSys@@8 0041233c     umodsys_lib_libmedia:umodsys.mod.media.stdio.obj
 0002:0000234c       ??_R2IStreamWriter@libmedia@UModSys@@8 0041234c     umodsys_lib_libmedia:umodsys.mod.media.stdio.obj
 0002:0000235c       ??_R1A@?0A@EA@IStreamWriter@libmedia@UModSys@@8 0041235c     umodsys_lib_libmedia:umodsys.mod.media.stdio.obj
 0002:00002378       ??_R3IStreamReader@libmedia@UModSys@@8 00412378     umodsys_lib_libmedia:umodsys.mod.media.stdio.obj
 0002:00002388       ??_R2IStreamReader@libmedia@UModSys@@8 00412388     umodsys_lib_libmedia:umodsys.mod.media.stdio.obj
 0002:00002398       ??_R1A@?0A@EA@IStreamReader@libmedia@UModSys@@8 00412398     umodsys_lib_libmedia:umodsys.mod.media.stdio.obj
 0002:000023b4       ??_R3IGenerator@base@UModSys@@8 004123b4     umodsys_lib_libmedia:umodsys.mod.media.stdio.obj
 0002:000023c4       ??_R2IGenerator@base@UModSys@@8 004123c4     umodsys_lib_libmedia:umodsys.mod.media.stdio.obj
 0002:000023d8       ??_R1A@?0A@EA@IGenerator@base@UModSys@@8 004123d8     umodsys_lib_libmedia:umodsys.mod.media.stdio.obj
 0002:000023f4       ??_R3IModObject@base@UModSys@@8 004123f4     umodsys_lib_libmedia:umodsys.mod.media.stdio.obj
 0002:00002404       ??_R2IModObject@base@UModSys@@8 00412404     umodsys_lib_libmedia:umodsys.mod.media.stdio.obj
 0002:00002414       ??_R1A@?0A@EA@IModObject@base@UModSys@@8 00412414     umodsys_lib_libmedia:umodsys.mod.media.stdio.obj
 0002:00002430       ??_R3IRefObject@core@UModSys@@8 00412430     umodsys_lib_libmedia:umodsys.mod.media.stdio.obj
 0002:00002440       ??_R2IRefObject@core@UModSys@@8 00412440     umodsys_lib_libmedia:umodsys.mod.media.stdio.obj
 0002:0000244c       ??_R1A@?0A@EA@IRefObject@core@UModSys@@8 0041244c     umodsys_lib_libmedia:umodsys.mod.media.stdio.obj
 0002:00002468       ??_R4IRoot@core@UModSys@@6B@ 00412468     umodsys_lib_libmedia:umodsys.mod.media.stdio.obj
 0002:0000247c       ??_R3IRoot@core@UModSys@@8 0041247c     umodsys_lib_libmedia:umodsys.mod.media.stdio.obj
 0002:0000248c       ??_R2IRoot@core@UModSys@@8 0041248c     umodsys_lib_libmedia:umodsys.mod.media.stdio.obj
 0002:00002494       ??_R1A@?0A@EA@IRoot@core@UModSys@@8 00412494     umodsys_lib_libmedia:umodsys.mod.media.stdio.obj
 0002:000024b0       ??_R4RModuleReg@stdlib@media@modules@UModSys@@6B@ 004124b0     umodsys_lib_libmedia:umodsys.mod.media.stdlib.obj
 0002:000024c4       ??_R3RModuleReg@stdlib@media@modules@UModSys@@8 004124c4     umodsys_lib_libmedia:umodsys.mod.media.stdlib.obj
 0002:000024d4       ??_R2RModuleReg@stdlib@media@modules@UModSys@@8 004124d4     umodsys_lib_libmedia:umodsys.mod.media.stdlib.obj
 0002:000024e0       ??_R1A@?0A@EA@RModuleReg@stdlib@media@modules@UModSys@@8 004124e0     umodsys_lib_libmedia:umodsys.mod.media.stdlib.obj
 0002:000024fc       ??_R4RLibraryObjFilter@stdlib@media@modules@UModSys@@6BISetter@SFlags@libmedia@4@@ 004124fc     umodsys_lib_libmedia:umodsys.mod.media.stdlib.obj
 0002:00002510       ??_R4RLibraryObjFilter@stdlib@media@modules@UModSys@@6BIRefObject@core@4@@ 00412510     umodsys_lib_libmedia:umodsys.mod.media.stdlib.obj
 0002:00002524       ??_R3RLibraryObjFilter@stdlib@media@modules@UModSys@@8 00412524     umodsys_lib_libmedia:umodsys.mod.media.stdlib.obj
 0002:00002534       ??_R2RLibraryObjFilter@stdlib@media@modules@UModSys@@8 00412534     umodsys_lib_libmedia:umodsys.mod.media.stdlib.obj
 0002:0000255c       ??_R1A@?0A@EA@RLibraryObjFilter@stdlib@media@modules@UModSys@@8 0041255c     umodsys_lib_libmedia:umodsys.mod.media.stdlib.obj
 0002:00002578       ??_R4RLibraryObjCache@stdlib@media@modules@UModSys@@6BISetter@SFlags@libmedia@4@@ 00412578     umodsys_lib_libmedia:umodsys.mod.media.stdlib.obj
 0002:0000258c       ??_R4RLibraryObjCache@stdlib@media@modules@UModSys@@6BIRefObject@core@4@@ 0041258c     umodsys_lib_libmedia:umodsys.mod.media.stdlib.obj
 0002:000025a0       ??_R3RLibraryObjCache@stdlib@media@modules@UModSys@@8 004125a0     umodsys_lib_libmedia:umodsys.mod.media.stdlib.obj
 0002:000025b0       ??_R2RLibraryObjCache@stdlib@media@modules@UModSys@@8 004125b0     umodsys_lib_libmedia:umodsys.mod.media.stdlib.obj
 0002:000025d8       ??_R1A@?0A@EA@RLibraryObjCache@stdlib@media@modules@UModSys@@8 004125d8     umodsys_lib_libmedia:umodsys.mod.media.stdlib.obj
 0002:000025f4       ??_R4RLibraryLayered@stdlib@media@modules@UModSys@@6BISetter@SFlags@libmedia@4@@ 004125f4     umodsys_lib_libmedia:umodsys.mod.media.stdlib.obj
 0002:00002608       ??_R4RLibraryLayered@stdlib@media@modules@UModSys@@6BIRefObject@core@4@@ 00412608     umodsys_lib_libmedia:umodsys.mod.media.stdlib.obj
 0002:0000261c       ??_R3RLibraryLayered@stdlib@media@modules@UModSys@@8 0041261c     umodsys_lib_libmedia:umodsys.mod.media.stdlib.obj
 0002:0000262c       ??_R2RLibraryLayered@stdlib@media@modules@UModSys@@8 0041262c     umodsys_lib_libmedia:umodsys.mod.media.stdlib.obj
 0002:00002654       ??_R1A@?0A@EA@RLibraryLayered@stdlib@media@modules@UModSys@@8 00412654     umodsys_lib_libmedia:umodsys.mod.media.stdlib.obj
 0002:00002670       ??_R4RLibraryBinCache@stdlib@media@modules@UModSys@@6BISetter@SFlags@libmedia@4@@ 00412670     umodsys_lib_libmedia:umodsys.mod.media.stdlib.obj
 0002:00002684       ??_R4RLibraryBinCache@stdlib@media@modules@UModSys@@6BIRefObject@core@4@@ 00412684     umodsys_lib_libmedia:umodsys.mod.media.stdlib.obj
 0002:00002698       ??_R3RLibraryBinCache@stdlib@media@modules@UModSys@@8 00412698     umodsys_lib_libmedia:umodsys.mod.media.stdlib.obj
 0002:000026a8       ??_R2RLibraryBinCache@stdlib@media@modules@UModSys@@8 004126a8     umodsys_lib_libmedia:umodsys.mod.media.stdlib.obj
 0002:000026d0       ??_R1A@?0A@EA@RLibraryBinCache@stdlib@media@modules@UModSys@@8 004126d0     umodsys_lib_libmedia:umodsys.mod.media.stdlib.obj
 0002:000026ec       ??_R4RLibraryBinTree@stdlib@media@modules@UModSys@@6BISetter@SFlags@libmedia@4@@ 004126ec     umodsys_lib_libmedia:umodsys.mod.media.stdlib.obj
 0002:00002700       ??_R4RLibraryBinTree@stdlib@media@modules@UModSys@@6BIRefObject@core@4@@ 00412700     umodsys_lib_libmedia:umodsys.mod.media.stdlib.obj
 0002:00002714       ??_R3RLibraryBinTree@stdlib@media@modules@UModSys@@8 00412714     umodsys_lib_libmedia:umodsys.mod.media.stdlib.obj
 0002:00002724       ??_R2RLibraryBinTree@stdlib@media@modules@UModSys@@8 00412724     umodsys_lib_libmedia:umodsys.mod.media.stdlib.obj
 0002:0000274c       ??_R1A@?0A@EA@RLibraryBinTree@stdlib@media@modules@UModSys@@8 0041274c     umodsys_lib_libmedia:umodsys.mod.media.stdlib.obj
 0002:00002768       ??_R4RBinArchiveFrame@stdlib@media@modules@UModSys@@6BISetter@SFlags@libmedia@4@@ 00412768     umodsys_lib_libmedia:umodsys.mod.media.stdlib.obj
 0002:0000277c       ??_R4RBinArchiveFrame@stdlib@media@modules@UModSys@@6BIRefObject@core@4@@ 0041277c     umodsys_lib_libmedia:umodsys.mod.media.stdlib.obj
 0002:00002790       ??_R3RBinArchiveFrame@stdlib@media@modules@UModSys@@8 00412790     umodsys_lib_libmedia:umodsys.mod.media.stdlib.obj
 0002:000027a0       ??_R2RBinArchiveFrame@stdlib@media@modules@UModSys@@8 004127a0     umodsys_lib_libmedia:umodsys.mod.media.stdlib.obj
 0002:000027c8       ??_R1A@?0A@EA@RBinArchiveFrame@stdlib@media@modules@UModSys@@8 004127c8     umodsys_lib_libmedia:umodsys.mod.media.stdlib.obj
 0002:000027e4       ??_R4RUtilities@stdlib@media@modules@UModSys@@6B@ 004127e4     umodsys_lib_libmedia:umodsys.mod.media.stdlib.obj
 0002:000027f8       ??_R3RUtilities@stdlib@media@modules@UModSys@@8 004127f8     umodsys_lib_libmedia:umodsys.mod.media.stdlib.obj
 0002:00002808       ??_R2RUtilities@stdlib@media@modules@UModSys@@8 00412808     umodsys_lib_libmedia:umodsys.mod.media.stdlib.obj
 0002:0000281c       ??_R1A@?0A@EA@RUtilities@stdlib@media@modules@UModSys@@8 0041281c     umodsys_lib_libmedia:umodsys.mod.media.stdlib.obj
 0002:00002838       ??_R4RGenerator@stdlib@media@modules@UModSys@@6B@ 00412838     umodsys_lib_libmedia:umodsys.mod.media.stdlib.obj
 0002:0000284c       ??_R3RGenerator@stdlib@media@modules@UModSys@@8 0041284c     umodsys_lib_libmedia:umodsys.mod.media.stdlib.obj
 0002:0000285c       ??_R2RGenerator@stdlib@media@modules@UModSys@@8 0041285c     umodsys_lib_libmedia:umodsys.mod.media.stdlib.obj
 0002:00002874       ??_R1A@?0A@EA@RGenerator@stdlib@media@modules@UModSys@@8 00412874     umodsys_lib_libmedia:umodsys.mod.media.stdlib.obj
 0002:00002890       ??_R4RResolverChain@SFlagsChain@libmedia@UModSys@@6B@ 00412890     umodsys_lib_libmedia:umodsys.mod.media.stdlib.obj
 0002:000028a4       ??_R3RResolverChain@SFlagsChain@libmedia@UModSys@@8 004128a4     umodsys_lib_libmedia:umodsys.mod.media.stdlib.obj
 0002:000028b4       ??_R2RResolverChain@SFlagsChain@libmedia@UModSys@@8 004128b4     umodsys_lib_libmedia:umodsys.mod.media.stdlib.obj
 0002:000028c0       ??_R1A@?0A@EA@RResolverChain@SFlagsChain@libmedia@UModSys@@8 004128c0     umodsys_lib_libmedia:umodsys.mod.media.stdlib.obj
 0002:000028dc       ??_R3ILibraryLayered@libmedia@UModSys@@8 004128dc     umodsys_lib_libmedia:umodsys.mod.media.stdlib.obj
 0002:000028ec       ??_R2ILibraryLayered@libmedia@UModSys@@8 004128ec     umodsys_lib_libmedia:umodsys.mod.media.stdlib.obj
 0002:00002910       ??_R1A@?0A@EA@ILibraryLayered@libmedia@UModSys@@8 00412910     umodsys_lib_libmedia:umodsys.mod.media.stdlib.obj
 0002:0000292c       ??_R3ILibraryObjCache@libmedia@UModSys@@8 0041292c     umodsys_lib_libmedia:umodsys.mod.media.stdlib.obj
 0002:0000293c       ??_R2ILibraryObjCache@libmedia@UModSys@@8 0041293c     umodsys_lib_libmedia:umodsys.mod.media.stdlib.obj
 0002:00002960       ??_R1A@?0A@EA@ILibraryObjCache@libmedia@UModSys@@8 00412960     umodsys_lib_libmedia:umodsys.mod.media.stdlib.obj
 0002:0000297c       ??_R3ILibraryObjFilter@libmedia@UModSys@@8 0041297c     umodsys_lib_libmedia:umodsys.mod.media.stdlib.obj
 0002:0000298c       ??_R2ILibraryObjFilter@libmedia@UModSys@@8 0041298c     umodsys_lib_libmedia:umodsys.mod.media.stdlib.obj
 0002:000029b0       ??_R1A@?0A@EA@ILibraryObjFilter@libmedia@UModSys@@8 004129b0     umodsys_lib_libmedia:umodsys.mod.media.stdlib.obj
 0002:000029cc       ??_R3ILibraryBinCache@libmedia@UModSys@@8 004129cc     umodsys_lib_libmedia:umodsys.mod.media.stdlib.obj
 0002:000029dc       ??_R2ILibraryBinCache@libmedia@UModSys@@8 004129dc     umodsys_lib_libmedia:umodsys.mod.media.stdlib.obj
 0002:00002a00       ??_R1A@?0A@EA@ILibraryBinCache@libmedia@UModSys@@8 00412a00     umodsys_lib_libmedia:umodsys.mod.media.stdlib.obj
 0002:00002a1c       ??_R3ILibraryBinTree@libmedia@UModSys@@8 00412a1c     umodsys_lib_libmedia:umodsys.mod.media.stdlib.obj
 0002:00002a2c       ??_R2ILibraryBinTree@libmedia@UModSys@@8 00412a2c     umodsys_lib_libmedia:umodsys.mod.media.stdlib.obj
 0002:00002a50       ??_R1A@?0A@EA@ILibraryBinTree@libmedia@UModSys@@8 00412a50     umodsys_lib_libmedia:umodsys.mod.media.stdlib.obj
 0002:00002a6c       ??_R3ILibrary@libmedia@UModSys@@8 00412a6c     umodsys_lib_libmedia:umodsys.mod.media.stdlib.obj
 0002:00002a7c       ??_R2ILibrary@libmedia@UModSys@@8 00412a7c     umodsys_lib_libmedia:umodsys.mod.media.stdlib.obj
 0002:00002a9c       ??_R1A@?0A@EA@ILibrary@libmedia@UModSys@@8 00412a9c     umodsys_lib_libmedia:umodsys.mod.media.stdlib.obj
 0002:00002ab8       ??_R3IBinArchiveFrame@libmedia@UModSys@@8 00412ab8     umodsys_lib_libmedia:umodsys.mod.media.stdlib.obj
 0002:00002ac8       ??_R2IBinArchiveFrame@libmedia@UModSys@@8 00412ac8     umodsys_lib_libmedia:umodsys.mod.media.stdlib.obj
 0002:00002aec       ??_R1A@?0A@EA@IBinArchiveFrame@libmedia@UModSys@@8 00412aec     umodsys_lib_libmedia:umodsys.mod.media.stdlib.obj
 0002:00002b08       ??_R3IUtilities@libmedia@UModSys@@8 00412b08     umodsys_lib_libmedia:umodsys.mod.media.stdlib.obj
 0002:00002b18       ??_R2IUtilities@libmedia@UModSys@@8 00412b18     umodsys_lib_libmedia:umodsys.mod.media.stdlib.obj
 0002:00002b28       ??_R1A@?0A@EA@IUtilities@libmedia@UModSys@@8 00412b28     umodsys_lib_libmedia:umodsys.mod.media.stdlib.obj
 0002:00002b44       ??_R4RConsole_std@rsystem@base@UModSys@@6B@ 00412b44     umodsys_lib_basesys:umodsys.basesys.rconsole_std.obj
 0002:00002b58       ??_R3RConsole_std@rsystem@base@UModSys@@8 00412b58     umodsys_lib_basesys:umodsys.basesys.rconsole_std.obj
 0002:00002b68       ??_R2RConsole_std@rsystem@base@UModSys@@8 00412b68     umodsys_lib_basesys:umodsys.basesys.rconsole_std.obj
 0002:00002b7c       ??_R1A@?0A@EA@RConsole_std@rsystem@base@UModSys@@8 00412b7c     umodsys_lib_basesys:umodsys.basesys.rconsole_std.obj
 0002:00002b98       ??_R3IConsole@base@UModSys@@8 00412b98     umodsys_lib_basesys:umodsys.basesys.rconsole_std.obj
 0002:00002ba8       ??_R2IConsole@base@UModSys@@8 00412ba8     umodsys_lib_basesys:umodsys.basesys.rconsole_std.obj
 0002:00002bb8       ??_R1A@?0A@EA@IConsole@base@UModSys@@8 00412bb8     umodsys_lib_basesys:umodsys.basesys.rconsole_std.obj
 0002:00002bd4       ??_R4RSystem@rsystem@base@UModSys@@6BISourceContextAdapter@core@3@@ 00412bd4     umodsys_lib_basesys:umodsys.basesys.rsystem_main.obj
 0002:00002be8       ??_R4RSystem@rsystem@base@UModSys@@6BIUniquePointerResolver@core@3@@ 00412be8     umodsys_lib_basesys:umodsys.basesys.rsystem_main.obj
 0002:00002bfc       ??_R4RSystem@rsystem@base@UModSys@@6BISystem@23@@ 00412bfc     umodsys_lib_basesys:umodsys.basesys.rsystem_main.obj
 0002:00002c10       ??_R3RSystem@rsystem@base@UModSys@@8 00412c10     umodsys_lib_basesys:umodsys.basesys.rsystem_main.obj
 0002:00002c20       ??_R2RSystem@rsystem@base@UModSys@@8 00412c20     umodsys_lib_basesys:umodsys.basesys.rsystem_main.obj
 0002:00002c38       ??_R17?0A@EA@ISourceContextAdapter@core@UModSys@@8 00412c38     umodsys_lib_basesys:umodsys.basesys.rsystem_main.obj
 0002:00002c54       ??_R13?0A@EA@IUniquePointerResolver@core@UModSys@@8 00412c54     umodsys_lib_basesys:umodsys.basesys.rsystem_main.obj
 0002:00002c70       ??_R1A@?0A@EA@RSystem@rsystem@base@UModSys@@8 00412c70     umodsys_lib_basesys:umodsys.basesys.rsystem_main.obj
 0002:00002c8c       ??_R4?$TRMemAlloc_CC@U?$TMemAllocHeader@USMagic@mem_headers@rsystem@base@UModSys@@U?$TPool@X@2345@USDebug@2345@UVoid@core@5@U895@@rsystem@base@UModSys@@USMemAlloc_Malloc@core@4@@rsystem@base@UModSys@@6B@ 00412c8c     umodsys_lib_basesys:umodsys.basesys.rsystem_main.obj
 0002:00002ca0       ??_R3?$TRMemAlloc_CC@U?$TMemAllocHeader@USMagic@mem_headers@rsystem@base@UModSys@@U?$TPool@X@2345@USDebug@2345@UVoid@core@5@U895@@rsystem@base@UModSys@@USMemAlloc_Malloc@core@4@@rsystem@base@UModSys@@8 00412ca0     umodsys_lib_basesys:umodsys.basesys.rsystem_main.obj
 0002:00002cb0       ??_R2?$TRMemAlloc_CC@U?$TMemAllocHeader@USMagic@mem_headers@rsystem@base@UModSys@@U?$TPool@X@2345@USDebug@2345@UVoid@core@5@U895@@rsystem@base@UModSys@@USMemAlloc_Malloc@core@4@@rsystem@base@UModSys@@8 00412cb0     umodsys_lib_basesys:umodsys.basesys.rsystem_main.obj
 0002:00002cc0       ??_R13?0A@EA@SMemAlloc_Malloc@core@UModSys@@8 00412cc0     umodsys_lib_basesys:umodsys.basesys.rsystem_main.obj
 0002:00002cdc       ??_R3SMemAlloc_Malloc@core@UModSys@@8 00412cdc     umodsys_lib_basesys:umodsys.basesys.rsystem_main.obj
 0002:00002cec       ??_R2SMemAlloc_Malloc@core@UModSys@@8 00412cec     umodsys_lib_basesys:umodsys.basesys.rsystem_main.obj
 0002:00002cf4       ??_R1A@?0A@EA@SMemAlloc_Malloc@core@UModSys@@8 00412cf4     umodsys_lib_basesys:umodsys.basesys.rsystem_main.obj
 0002:00002d10       ??_R1A@?0A@EA@?$TRMemAlloc_CC@U?$TMemAllocHeader@USMagic@mem_headers@rsystem@base@UModSys@@U?$TPool@X@2345@USDebug@2345@UVoid@core@5@U895@@rsystem@base@UModSys@@USMemAlloc_Malloc@core@4@@rsystem@base@UModSys@@8 00412d10     umodsys_lib_basesys:umodsys.basesys.rsystem_main.obj
 0002:00002d2c       ??_R3IUniquePointerResolver@core@UModSys@@8 00412d2c     umodsys_lib_basesys:umodsys.basesys.rsystem_main.obj
 0002:00002d3c       ??_R2IUniquePointerResolver@core@UModSys@@8 00412d3c     umodsys_lib_basesys:umodsys.basesys.rsystem_main.obj
 0002:00002d44       ??_R1A@?0A@EA@IUniquePointerResolver@core@UModSys@@8 00412d44     umodsys_lib_basesys:umodsys.basesys.rsystem_main.obj
 0002:00002d60       ??_R3ISourceContextAdapter@core@UModSys@@8 00412d60     umodsys_lib_basesys:umodsys.basesys.rsystem_main.obj
 0002:00002d70       ??_R2ISourceContextAdapter@core@UModSys@@8 00412d70     umodsys_lib_basesys:umodsys.basesys.rsystem_main.obj
 0002:00002d78       ??_R1A@?0A@EA@ISourceContextAdapter@core@UModSys@@8 00412d78     umodsys_lib_basesys:umodsys.basesys.rsystem_main.obj
 0002:00002d94       ??_R3ISystem@base@UModSys@@8 00412d94     umodsys_lib_basesys:umodsys.basesys.rsystem_main.obj
 0002:00002da4       ??_R2ISystem@base@UModSys@@8 00412da4     umodsys_lib_basesys:umodsys.basesys.rsystem_main.obj
 0002:00002db0       ??_R1A@?0A@EA@ISystem@base@UModSys@@8 00412db0     umodsys_lib_basesys:umodsys.basesys.rsystem_main.obj
 0002:00002dcc       ??_R3IMemAlloc@core@UModSys@@8 00412dcc     umodsys_lib_basesys:umodsys.basesys.rsystem_main.obj
 0002:00002ddc       ??_R2IMemAlloc@core@UModSys@@8 00412ddc     umodsys_lib_basesys:umodsys.basesys.rsystem_main.obj
 0002:00002de4       ??_R1A@?0A@EA@IMemAlloc@core@UModSys@@8 00412de4     umodsys_lib_basesys:umodsys.basesys.rsystem_main.obj
 0002:00002e00       ??_R4EWarning@core@UModSys@@6B@ 00412e00     umodsys_lib_basesys:umodsys.basesys.rsystem_main.obj
 0002:00002e14       ??_R3EWarning@core@UModSys@@8 00412e14     umodsys_lib_basesys:umodsys.basesys.rsystem_main.obj
 0002:00002e24       ??_R2EWarning@core@UModSys@@8 00412e24     umodsys_lib_basesys:umodsys.basesys.rsystem_main.obj
 0002:00002e30       ??_R1A@?0A@EA@EWarning@core@UModSys@@8 00412e30     umodsys_lib_basesys:umodsys.basesys.rsystem_main.obj
 0002:00002e4c       ??_R4EFatal@core@UModSys@@6B@ 00412e4c     umodsys_lib_basesys:umodsys.basesys.rsystem_main.obj
 0002:00002e60       ??_R3EFatal@core@UModSys@@8 00412e60     umodsys_lib_basesys:umodsys.basesys.rsystem_main.obj
 0002:00002e70       ??_R2EFatal@core@UModSys@@8 00412e70     umodsys_lib_basesys:umodsys.basesys.rsystem_main.obj
 0002:00002e7c       ??_R1A@?0A@EA@EFatal@core@UModSys@@8 00412e7c     umodsys_lib_basesys:umodsys.basesys.rsystem_main.obj
 0002:00002e98       ??_R4EExceptionBase@core@UModSys@@6B@ 00412e98     umodsys_lib_basesys:umodsys.basesys.rsystem_main.obj
 0002:00002eac       ??_R3EExceptionBase@core@UModSys@@8 00412eac     umodsys_lib_basesys:umodsys.basesys.rsystem_main.obj
 0002:00002ebc       ??_R2EExceptionBase@core@UModSys@@8 00412ebc     umodsys_lib_basesys:umodsys.basesys.rsystem_main.obj
 0002:00002ec4       ??_R1A@?0A@EA@EExceptionBase@core@UModSys@@8 00412ec4     umodsys_lib_basesys:umodsys.basesys.rsystem_main.obj
 0002:00002ee0       ??_R4RModuleLoader@rsystem@base@UModSys@@6B@ 00412ee0     umodsys_lib_basesys:umodsys.basesys.rmoduleloader.obj
 0002:00002ef4       ??_R3RModuleLoader@rsystem@base@UModSys@@8 00412ef4     umodsys_lib_basesys:umodsys.basesys.rmoduleloader.obj
 0002:00002f04       ??_R2RModuleLoader@rsystem@base@UModSys@@8 00412f04     umodsys_lib_basesys:umodsys.basesys.rmoduleloader.obj
 0002:00002f10       ??_R1A@?0A@EA@RModuleLoader@rsystem@base@UModSys@@8 00412f10     umodsys_lib_basesys:umodsys.basesys.rmoduleloader.obj
 0002:00002f2c       ??_R4IModuleLoader@base@UModSys@@6B@ 00412f2c     umodsys_lib_basesys:umodsys.basesys.rmoduleloader.obj
 0002:00002f40       ??_R3IModuleLoader@base@UModSys@@8 00412f40     umodsys_lib_basesys:umodsys.basesys.rmoduleloader.obj
 0002:00002f50       ??_R2IModuleLoader@base@UModSys@@8 00412f50     umodsys_lib_basesys:umodsys.basesys.rmoduleloader.obj
 0002:00002f58       ??_R1A@?0A@EA@IModuleLoader@base@UModSys@@8 00412f58     umodsys_lib_basesys:umodsys.basesys.rmoduleloader.obj
 0002:00002f74       ??_R4RModuleLibraryThis@rsystem@base@UModSys@@6B@ 00412f74     umodsys_lib_basesys:umodsys.basesys.rmodulelibthis.obj
 0002:00002f88       ??_R3RModuleLibraryThis@rsystem@base@UModSys@@8 00412f88     umodsys_lib_basesys:umodsys.basesys.rmodulelibthis.obj
 0002:00002f98       ??_R2RModuleLibraryThis@rsystem@base@UModSys@@8 00412f98     umodsys_lib_basesys:umodsys.basesys.rmodulelibthis.obj
 0002:00002fb0       ??_R1A@?0A@EA@IModuleLibraryUni@rsystem@base@UModSys@@8 00412fb0     umodsys_lib_basesys:umodsys.basesys.rmodulelibthis.obj
 0002:00002fcc       ??_R3IModuleLibraryUni@rsystem@base@UModSys@@8 00412fcc     umodsys_lib_basesys:umodsys.basesys.rmodulelibthis.obj
 0002:00002fdc       ??_R2IModuleLibraryUni@rsystem@base@UModSys@@8 00412fdc     umodsys_lib_basesys:umodsys.basesys.rmodulelibthis.obj
 0002:00002ff0       ??_R1A@?0A@EA@IModuleLibrary@base@UModSys@@8 00412ff0     umodsys_lib_basesys:umodsys.basesys.rmodulelibthis.obj
 0002:0000300c       ??_R3IModuleLibrary@base@UModSys@@8 0041300c     umodsys_lib_basesys:umodsys.basesys.rmodulelibthis.obj
 0002:0000301c       ??_R2IModuleLibrary@base@UModSys@@8 0041301c     umodsys_lib_basesys:umodsys.basesys.rmodulelibthis.obj
 0002:0000302c       ??_R1A@?0A@EA@RModuleLibraryThis@rsystem@base@UModSys@@8 0041302c     umodsys_lib_basesys:umodsys.basesys.rmodulelibthis.obj
 0002:00003048       ??_R4IModuleLibraryUni@rsystem@base@UModSys@@6B@ 00413048     umodsys_lib_basesys:umodsys.basesys.rmodulelib.obj
 0002:0000305c       ??_R4RParameters@rsystem@base@UModSys@@6B@ 0041305c     umodsys_lib_basesys:umodsys.basesys.rparameters.obj
 0002:00003070       ??_R3RParameters@rsystem@base@UModSys@@8 00413070     umodsys_lib_basesys:umodsys.basesys.rparameters.obj
 0002:00003080       ??_R2RParameters@rsystem@base@UModSys@@8 00413080     umodsys_lib_basesys:umodsys.basesys.rparameters.obj
 0002:00003094       ??_R1A@?0A@EA@RParameters@rsystem@base@UModSys@@8 00413094     umodsys_lib_basesys:umodsys.basesys.rparameters.obj
 0002:000030b0       ??_R3IParameters@core@UModSys@@8 004130b0     umodsys_lib_basesys:umodsys.basesys.rparameters.obj
 0002:000030c0       ??_R2IParameters@core@UModSys@@8 004130c0     umodsys_lib_basesys:umodsys.basesys.rparameters.obj
 0002:000030d0       ??_R1A@?0A@EA@IParameters@core@UModSys@@8 004130d0     umodsys_lib_basesys:umodsys.basesys.rparameters.obj
 0002:000030ec       ??_R4RModule@rsystem@base@UModSys@@6B@ 004130ec     umodsys_lib_basesys:umodsys.basesys.rmodule.obj
 0002:00003100       ??_R3RModule@rsystem@base@UModSys@@8 00413100     umodsys_lib_basesys:umodsys.basesys.rmodule.obj
 0002:00003110       ??_R2RModule@rsystem@base@UModSys@@8 00413110     umodsys_lib_basesys:umodsys.basesys.rmodule.obj
 0002:00003124       ??_R1A@?0A@EA@RModule@rsystem@base@UModSys@@8 00413124     umodsys_lib_basesys:umodsys.basesys.rmodule.obj
 0002:00003140       ??_R3IModule@base@UModSys@@8 00413140     umodsys_lib_basesys:umodsys.basesys.rmodule.obj
 0002:00003150       ??_R2IModule@base@UModSys@@8 00413150     umodsys_lib_basesys:umodsys.basesys.rmodule.obj
 0002:00003160       ??_R1A@?0A@EA@IModule@base@UModSys@@8 00413160     umodsys_lib_basesys:umodsys.basesys.rmodule.obj
 0002:0000317c       ??_R4RModuleLibrarySO@rsystem@base@UModSys@@6B@ 0041317c     umodsys_lib_basesys:umodsys.basesys.rmodulelibso.obj
 0002:00003190       ??_R3RModuleLibrarySO@rsystem@base@UModSys@@8 00413190     umodsys_lib_basesys:umodsys.basesys.rmodulelibso.obj
 0002:000031a0       ??_R2RModuleLibrarySO@rsystem@base@UModSys@@8 004131a0     umodsys_lib_basesys:umodsys.basesys.rmodulelibso.obj
 0002:000031b8       ??_R1A@?0A@EA@RModuleLibrarySO@rsystem@base@UModSys@@8 004131b8     umodsys_lib_basesys:umodsys.basesys.rmodulelibso.obj
 0002:000031d4       ??_R4RModuleLibraryReg_Chain@base@UModSys@@6B@ 004131d4     umodsys_lib_base:umodsys.base.moduleregchain.obj
 0002:000031e8       ??_R3RModuleLibraryReg_Chain@base@UModSys@@8 004131e8     umodsys_lib_base:umodsys.base.moduleregchain.obj
 0002:000031f8       ??_R2RModuleLibraryReg_Chain@base@UModSys@@8 004131f8     umodsys_lib_base:umodsys.base.moduleregchain.obj
 0002:00003204       ??_R1A@?0A@EA@IModuleLibraryReg@base@UModSys@@8 00413204     umodsys_lib_base:umodsys.base.moduleregchain.obj
 0002:00003220       ??_R3IModuleLibraryReg@base@UModSys@@8 00413220     umodsys_lib_base:umodsys.base.moduleregchain.obj
 0002:00003230       ??_R2IModuleLibraryReg@base@UModSys@@8 00413230     umodsys_lib_base:umodsys.base.moduleregchain.obj
 0002:00003238       ??_R1A@?0A@EA@RModuleLibraryReg_Chain@base@UModSys@@8 00413238     umodsys_lib_base:umodsys.base.moduleregchain.obj
 0002:00003254       ??_R4IModuleLibraryReg@base@UModSys@@6B@ 00413254     umodsys_lib_base:umodsys.base.modulereg.obj
 0002:00003268       ??_R4IModuleReg@base@UModSys@@6B@ 00413268     umodsys_lib_base:umodsys.base.modulereg.obj
 0002:00003280       ___safe_se_handler_table   00413280     <linker-defined>
 0002:00003338       ___rtc_iaa                 00413338     MSVCRT:_initsect_.obj
 0002:0000333c       ___rtc_izz                 0041333c     MSVCRT:_initsect_.obj
 0002:00003340       ___rtc_taa                 00413340     MSVCRT:_initsect_.obj
 0002:00003344       ___rtc_tzz                 00413344     MSVCRT:_initsect_.obj
 0002:000033e4       __CT??_R0?AUEFatal@core@UModSys@@@8??0EFatal@core@UModSys@@QAE@ABU012@@Z24 004133e4     umodsys_lib_basesys:umodsys.basesys.rsystem_main.obj
 0002:00003400       __CT??_R0?AUEExceptionBase@core@UModSys@@@8??0EExceptionBase@core@UModSys@@QAE@ABU012@@Z24 00413400     umodsys_lib_basesys:umodsys.basesys.rsystem_main.obj
 0002:0000341c       __CTA2?AUEFatal@core@UModSys@@ 0041341c     umodsys_lib_basesys:umodsys.basesys.rsystem_main.obj
 0002:00003428       __TI2?AUEFatal@core@UModSys@@ 00413428     umodsys_lib_basesys:umodsys.basesys.rsystem_main.obj
 0002:00003438       __CT??_R0?AUEWarning@core@UModSys@@@8??0EWarning@core@UModSys@@QAE@ABU012@@Z24 00413438     umodsys_lib_basesys:umodsys.basesys.rsystem_main.obj
 0002:00003454       __CTA2?AUEWarning@core@UModSys@@ 00413454     umodsys_lib_basesys:umodsys.basesys.rsystem_main.obj
 0002:00003460       __TI2?AUEWarning@core@UModSys@@ 00413460     umodsys_lib_basesys:umodsys.basesys.rsystem_main.obj
 0002:00003d8c       __IMPORT_DESCRIPTOR_MSVCR90 00413d8c     MSVCRT:MSVCR90.dll
 0002:00003da0       __IMPORT_DESCRIPTOR_KERNEL32 00413da0     kernel32:KERNEL32.dll
 0002:00003db4       __NULL_IMPORT_DESCRIPTOR   00413db4     MSVCRT:MSVCR90.dll
 0003:00000000       ??_R0?AVtype_info@@@8      00415000     MSVCRT:ti_inst.obj
 0003:00000018       ___native_dllmain_reason   00415018     MSVCRT:natstart.obj
 0003:0000001c       ___native_vcclrit_reason   0041501c     MSVCRT:natstart.obj
 0003:00000020       ___globallocalestatus      00415020     MSVCRT:xthdloc.obj
 0003:00000024       ___defaultmatherr          00415024     MSVCRT:merr.obj
 0003:00000028       ___security_cookie         00415028     MSVCRT:gs_cookie.obj
 0003:0000002c       ___security_cookie_complement 0041502c     MSVCRT:gs_cookie.obj
 0003:00000070       ?so_entry_enabled_flag@base@UModSys@@3HA 00415070     umodsys_lib_base:umodsys.so_main.win32.obj
 0003:000000b0       ?s_colors@RConsole_std@rsystem@base@UModSys@@2PAY07EA 004150b0     umodsys_lib_basesys:umodsys.basesys.rconsole_std.obj
 0003:00000140       ?auto_flags@RDataArchiver_OsDir@stdio@media@modules@UModSys@@2U?$TFlags4State@USMediaFlagUid@libmedia@UModSys@@I@tl@5@A 00415140     umodsys_lib_libmedia:umodsys.mod.media.stdio.obj
 0003:00000144       ?s_dbg@stdio@media@modules@UModSys@@3USDebug@base@4@A 00415144     umodsys_lib_libmedia:umodsys.mod.media.stdio.obj
 0003:0000014c       ?s_dbg@stdlib@media@modules@UModSys@@3USDebug@base@4@A 0041514c     umodsys_lib_libmedia:umodsys.mod.media.stdlib.obj
 0003:00000154       ?auto_flags@RLibraryLayered@stdlib@media@modules@UModSys@@2U?$TFlags4State@USMediaFlagUid@libmedia@UModSys@@I@tl@5@A 00415154     umodsys_lib_libmedia:umodsys.mod.media.stdlib.obj
 0003:00000158       ?s_console@RConsole_std@rsystem@base@UModSys@@2U1234@A 00415158     umodsys_lib_basesys:umodsys.basesys.rconsole_std.obj
 0003:00000160       ?rsys_dbg@rsystem@base@UModSys@@3USDebug@23@A 00415160     umodsys_lib_basesys:umodsys.basesys.rsystem_main.obj
 0003:00000168       ?s_library@RModuleLibraryReg_Chain@base@UModSys@@2U123@A 00415168     umodsys_lib_base:umodsys.base.moduleregchain.obj
 0003:0000016c       ??_R0?AUIModuleReg@base@UModSys@@@8 0041516c     umodsys_lib_libmedia:umodsys.mod.media.stdio.obj
 0003:00000194       ??_R0?AURModuleReg@stdio@media@modules@UModSys@@@8 00415194     umodsys_lib_libmedia:umodsys.mod.media.stdio.obj
 0003:000001cc       ??_R0?AURDataArchiver_OsDir@stdio@media@modules@UModSys@@@8 004151cc     umodsys_lib_libmedia:umodsys.mod.media.stdio.obj
 0003:0000020c       ??_R0?AURStreamWriter_FILE@stdio@media@modules@UModSys@@@8 0041520c     umodsys_lib_libmedia:umodsys.mod.media.stdio.obj
 0003:0000024c       ??_R0?AURStreamReader_FILE@stdio@media@modules@UModSys@@@8 0041524c     umodsys_lib_libmedia:umodsys.mod.media.stdio.obj
 0003:0000028c       ??_R0?AURGenerator@stdio@media@modules@UModSys@@@8 0041528c     umodsys_lib_libmedia:umodsys.mod.media.stdio.obj
 0003:000002c4       ??_R0?AUIBinArchive@libmedia@UModSys@@@8 004152c4     umodsys_lib_libmedia:umodsys.mod.media.stdio.obj
 0003:000002f0       ??_R0?AUIResolver@SFlags@libmedia@UModSys@@@8 004152f0     umodsys_lib_libmedia:umodsys.mod.media.stdio.obj
 0003:00000320       ??_R0?AUIResolverAuto@SFlags@libmedia@UModSys@@@8 00415320     umodsys_lib_libmedia:umodsys.mod.media.stdio.obj
 0003:00000354       ??_R0?AUISetter@SFlags@libmedia@UModSys@@@8 00415354     umodsys_lib_libmedia:umodsys.mod.media.stdio.obj
 0003:00000384       ??_R0?AUILibObject@libmedia@UModSys@@@8 00415384     umodsys_lib_libmedia:umodsys.mod.media.stdio.obj
 0003:000003b0       ??_R0?AUIStreamWriter@libmedia@UModSys@@@8 004153b0     umodsys_lib_libmedia:umodsys.mod.media.stdio.obj
 0003:000003e0       ??_R0?AUIStreamReader@libmedia@UModSys@@@8 004153e0     umodsys_lib_libmedia:umodsys.mod.media.stdio.obj
 0003:00000410       ??_R0?AUIGenerator@base@UModSys@@@8 00415410     umodsys_lib_libmedia:umodsys.mod.media.stdio.obj
 0003:00000438       ??_R0?AUIModObject@base@UModSys@@@8 00415438     umodsys_lib_libmedia:umodsys.mod.media.stdio.obj
 0003:00000460       ??_R0?AUIRefObject@core@UModSys@@@8 00415460     umodsys_lib_libmedia:umodsys.mod.media.stdio.obj
 0003:00000488       ??_R0?AUIRoot@core@UModSys@@@8 00415488     umodsys_lib_libmedia:umodsys.mod.media.stdio.obj
 0003:000004ac       ??_R0?AURModuleReg@stdlib@media@modules@UModSys@@@8 004154ac     umodsys_lib_libmedia:umodsys.mod.media.stdlib.obj
 0003:000004e4       ??_R0?AURLibraryObjFilter@stdlib@media@modules@UModSys@@@8 004154e4     umodsys_lib_libmedia:umodsys.mod.media.stdlib.obj
 0003:00000524       ??_R0?AURLibraryObjCache@stdlib@media@modules@UModSys@@@8 00415524     umodsys_lib_libmedia:umodsys.mod.media.stdlib.obj
 0003:00000560       ??_R0?AURLibraryLayered@stdlib@media@modules@UModSys@@@8 00415560     umodsys_lib_libmedia:umodsys.mod.media.stdlib.obj
 0003:0000059c       ??_R0?AURLibraryBinCache@stdlib@media@modules@UModSys@@@8 0041559c     umodsys_lib_libmedia:umodsys.mod.media.stdlib.obj
 0003:000005d8       ??_R0?AURLibraryBinTree@stdlib@media@modules@UModSys@@@8 004155d8     umodsys_lib_libmedia:umodsys.mod.media.stdlib.obj
 0003:00000614       ??_R0?AURBinArchiveFrame@stdlib@media@modules@UModSys@@@8 00415614     umodsys_lib_libmedia:umodsys.mod.media.stdlib.obj
 0003:00000650       ??_R0?AURUtilities@stdlib@media@modules@UModSys@@@8 00415650     umodsys_lib_libmedia:umodsys.mod.media.stdlib.obj
 0003:00000688       ??_R0?AURGenerator@stdlib@media@modules@UModSys@@@8 00415688     umodsys_lib_libmedia:umodsys.mod.media.stdlib.obj
 0003:000006c0       ??_R0?AURResolverChain@SFlagsChain@libmedia@UModSys@@@8 004156c0     umodsys_lib_libmedia:umodsys.mod.media.stdlib.obj
 0003:000006fc       ??_R0?AUILibraryLayered@libmedia@UModSys@@@8 004156fc     umodsys_lib_libmedia:umodsys.mod.media.stdlib.obj
 0003:0000072c       ??_R0?AUILibraryObjCache@libmedia@UModSys@@@8 0041572c     umodsys_lib_libmedia:umodsys.mod.media.stdlib.obj
 0003:0000075c       ??_R0?AUILibraryObjFilter@libmedia@UModSys@@@8 0041575c     umodsys_lib_libmedia:umodsys.mod.media.stdlib.obj
 0003:00000790       ??_R0?AUILibraryBinCache@libmedia@UModSys@@@8 00415790     umodsys_lib_libmedia:umodsys.mod.media.stdlib.obj
 0003:000007c0       ??_R0?AUILibraryBinTree@libmedia@UModSys@@@8 004157c0     umodsys_lib_libmedia:umodsys.mod.media.stdlib.obj
 0003:000007f0       ??_R0?AUILibrary@libmedia@UModSys@@@8 004157f0     umodsys_lib_libmedia:umodsys.mod.media.stdlib.obj
 0003:00000818       ??_R0?AUIBinArchiveFrame@libmedia@UModSys@@@8 00415818     umodsys_lib_libmedia:umodsys.mod.media.stdlib.obj
 0003:00000848       ??_R0?AUIUtilities@libmedia@UModSys@@@8 00415848     umodsys_lib_libmedia:umodsys.mod.media.stdlib.obj
 0003:00000874       ??_R0?AURConsole_std@rsystem@base@UModSys@@@8 00415874     umodsys_lib_basesys:umodsys.basesys.rconsole_std.obj
 0003:000008a4       ??_R0?AUIConsole@base@UModSys@@@8 004158a4     umodsys_lib_basesys:umodsys.basesys.rconsole_std.obj
 0003:000008c8       ??_R0?AURSystem@rsystem@base@UModSys@@@8 004158c8     umodsys_lib_basesys:umodsys.basesys.rsystem_main.obj
 0003:000008f4       ??_R0?AUSMemAlloc_Malloc@core@UModSys@@@8 004158f4     umodsys_lib_basesys:umodsys.basesys.rsystem_main.obj
 0003:00000920       ??_R0?AU?$TRMemAlloc_CC@U?$TMemAllocHeader@USMagic@mem_headers@rsystem@base@UModSys@@U?$TPool@X@2345@USDebug@2345@UVoid@core@5@U895@@rsystem@base@UModSys@@USMemAlloc_Malloc@core@4@@rsystem@base@UModSys@@@8 00415920     umodsys_lib_basesys:umodsys.basesys.rsystem_main.obj
 0003:000009f0       ??_R0?AUIUniquePointerResolver@core@UModSys@@@8 004159f0     umodsys_lib_basesys:umodsys.basesys.rsystem_main.obj
 0003:00000a24       ??_R0?AUISourceContextAdapter@core@UModSys@@@8 00415a24     umodsys_lib_basesys:umodsys.basesys.rsystem_main.obj
 0003:00000a58       ??_R0?AUISystem@base@UModSys@@@8 00415a58     umodsys_lib_basesys:umodsys.basesys.rsystem_main.obj
 0003:00000a7c       ??_R0?AUIMemAlloc@core@UModSys@@@8 00415a7c     umodsys_lib_basesys:umodsys.basesys.rsystem_main.obj
 0003:00000aa4       ??_R0?AUEFatal@core@UModSys@@@8 00415aa4     umodsys_lib_basesys:umodsys.basesys.rsystem_main.obj
 0003:00000ac8       ??_R0?AUEExceptionBase@core@UModSys@@@8 00415ac8     umodsys_lib_basesys:umodsys.basesys.rsystem_main.obj
 0003:00000af4       ??_R0?AUEWarning@core@UModSys@@@8 00415af4     umodsys_lib_basesys:umodsys.basesys.rsystem_main.obj
 0003:00000b18       ??_R0?AURModuleLoader@rsystem@base@UModSys@@@8 00415b18     umodsys_lib_basesys:umodsys.basesys.rmoduleloader.obj
 0003:00000b4c       ??_R0?AUIModuleLoader@base@UModSys@@@8 00415b4c     umodsys_lib_basesys:umodsys.basesys.rmoduleloader.obj
 0003:00000b78       ??_R0?AUIModuleLibrary@base@UModSys@@@8 00415b78     umodsys_lib_basesys:umodsys.basesys.rmodulelibthis.obj
 0003:00000ba4       ??_R0?AUIModuleLibraryUni@rsystem@base@UModSys@@@8 00415ba4     umodsys_lib_basesys:umodsys.basesys.rmodulelibthis.obj
 0003:00000bdc       ??_R0?AURModuleLibraryThis@rsystem@base@UModSys@@@8 00415bdc     umodsys_lib_basesys:umodsys.basesys.rmodulelibthis.obj
 0003:00000c14       ??_R0?AURParameters@rsystem@base@UModSys@@@8 00415c14     umodsys_lib_basesys:umodsys.basesys.rparameters.obj
 0003:00000c44       ??_R0?AUIParameters@core@UModSys@@@8 00415c44     umodsys_lib_basesys:umodsys.basesys.rparameters.obj
 0003:00000c6c       ??_R0?AURModule@rsystem@base@UModSys@@@8 00415c6c     umodsys_lib_basesys:umodsys.basesys.rmodule.obj
 0003:00000c98       ??_R0?AUIModule@base@UModSys@@@8 00415c98     umodsys_lib_basesys:umodsys.basesys.rmodule.obj
 0003:00000cbc       ??_R0?AURModuleLibrarySO@rsystem@base@UModSys@@@8 00415cbc     umodsys_lib_basesys:umodsys.basesys.rmodulelibso.obj
 0003:00000cf0       ??_R0?AUIModuleLibraryReg@base@UModSys@@@8 00415cf0     umodsys_lib_base:umodsys.base.moduleregchain.obj
 0003:00000d20       ??_R0?AURModuleLibraryReg_Chain@base@UModSys@@@8 00415d20     umodsys_lib_base:umodsys.base.moduleregchain.obj
 0003:00000d80       __forceCRTManifestRTM      00415d80     MSVCRT:crtmanifestrtm.obj
 0003:00000d84       __dowildcard               00415d84     MSVCRT:wildcard.obj
 0003:00000d88       __newmode                  00415d88     MSVCRT:_newmode.obj
 0003:00000d8c       __commode                  00415d8c     MSVCRT:xncommod.obj
 0003:00000d90       __fmode                    00415d90     MSVCRT:xtxtmode.obj
 0003:000010bc       ?s_null@?1??get_null@?$TSCoreShared@USIMemAlloc@core@UModSys@@D@su@tl@UModSys@@SAPAU?$TSharedStringInfo@DUSIMemAlloc@core@UModSys@@@345@XZ@4U6345@A 004160bc     umodsys_lib_libmedia:umodsys.mod.media.stdio.obj
 0003:000010d0       ??_B?1??get_null@?$TSCoreShared@USIMemAlloc@core@UModSys@@D@su@tl@UModSys@@SAPAU?$TSharedStringInfo@DUSIMemAlloc@core@UModSys@@@234@XZ@51 004160d0     umodsys_lib_libmedia:umodsys.mod.media.stdio.obj
 0003:000010d8       ?fmodule@stdio@media@modules@UModSys@@3DA 004160d8     umodsys_lib_libmedia:umodsys.mod.media.stdio.obj
 0003:000010d9       ?fmodule@stdlib@media@modules@UModSys@@3DA 004160d9     umodsys_lib_libmedia:umodsys.mod.media.stdlib.obj
 0003:000010e0       ?null_time@core@UModSys@@3_JA 004160e0     umodsys_lib_core:umodsys.core.stdtypedefs.obj
 0003:000010ec       ?s_modreg_chain@RModuleReg@stdio@media@modules@UModSys@@2USModuleRegChain@base@5@A 004160ec     umodsys_lib_libmedia:umodsys.mod.media.stdio.obj
 0003:000010f8       ?s_modreg@RModuleReg@stdio@media@modules@UModSys@@2U12345@A 004160f8     umodsys_lib_libmedia:umodsys.mod.media.stdio.obj
 0003:00001138       ?s_uid@RGenerator@stdio@media@modules@UModSys@@2USUniquePointer@core@5@A 00416138     umodsys_lib_libmedia:umodsys.mod.media.stdio.obj
 0003:00001150       ?s_modreg@RModuleReg@stdlib@media@modules@UModSys@@2U12345@A 00416150     umodsys_lib_libmedia:umodsys.mod.media.stdlib.obj
 0003:00001190       ?s_uid@RGenerator@stdlib@media@modules@UModSys@@2USUniquePointer@core@5@A 00416190     umodsys_lib_libmedia:umodsys.mod.media.stdlib.obj
 0003:000011a8       ?auto_flags@RLibraryObjCache@stdlib@media@modules@UModSys@@2U?$TFlags4State@USMediaFlagUid@libmedia@UModSys@@I@tl@5@A 004161a8     umodsys_lib_libmedia:umodsys.mod.media.stdlib.obj
 0003:000011ac       ?auto_flags@RLibraryObjFilter@stdlib@media@modules@UModSys@@2U?$TFlags4State@USMediaFlagUid@libmedia@UModSys@@I@tl@5@A 004161ac     umodsys_lib_libmedia:umodsys.mod.media.stdlib.obj
 0003:000011b0       ?auto_flags@RBinArchiveFrame@stdlib@media@modules@UModSys@@2U?$TFlags4State@USMediaFlagUid@libmedia@UModSys@@I@tl@5@A 004161b0     umodsys_lib_libmedia:umodsys.mod.media.stdlib.obj
 0003:000011b4       ?auto_flags@RLibraryBinTree@stdlib@media@modules@UModSys@@2U?$TFlags4State@USMediaFlagUid@libmedia@UModSys@@I@tl@5@A 004161b4     umodsys_lib_libmedia:umodsys.mod.media.stdlib.obj
 0003:000011b8       ?s_modreg_chain@RModuleReg@stdlib@media@modules@UModSys@@2USModuleRegChain@base@5@A 004161b8     umodsys_lib_libmedia:umodsys.mod.media.stdlib.obj
 0003:000011c4       ?auto_flags@RLibraryBinCache@stdlib@media@modules@UModSys@@2U?$TFlags4State@USMediaFlagUid@libmedia@UModSys@@I@tl@5@A 004161c4     umodsys_lib_libmedia:umodsys.mod.media.stdlib.obj
 0003:000011c8       ?s_sys@RSystem@rsystem@base@UModSys@@2U1234@A 004161c8     umodsys_lib_basesys:umodsys.basesys.rsystem_main.obj
 0003:000032a4       ?M@UModSys@@3USModuleContext@base@1@A 004182a4     umodsys_lib_base:umodsys.base.modulecontext.obj
 0003:000032b8       ?root@SModuleRegChain@base@UModSys@@2U123@A 004182b8     umodsys_lib_base:umodsys.base.moduleregchain.obj
 0003:000032c4       ?root@SUniquePointer@core@UModSys@@2U123@A 004182c4     umodsys_lib_core:umodsys.core.uniqueptr.obj
 0003:000032dc       ?rv@?1??get_default@SMemAlloc_Malloc@core@UModSys@@SAABU234@XZ@4U234@A 004182dc     umodsys_lib_basesys:umodsys.basesys.rsystem_main.obj
 0003:000032e0       ??_B?1??get_null@?$TSCoreShared@USMemAlloc_Malloc@core@UModSys@@D@su@tl@UModSys@@SAPAU?$TSharedStringInfo@DUSMemAlloc_Malloc@core@UModSys@@@234@XZ@51 004182e0     umodsys_lib_basesys:umodsys.basesys.rmodulelib.obj
 0003:000032e4       ?s_null@?1??get_null@?$TSCoreShared@USMemAlloc_Malloc@core@UModSys@@D@su@tl@UModSys@@SAPAU?$TSharedStringInfo@DUSMemAlloc_Malloc@core@UModSys@@@345@XZ@4U6345@A 004182e4     umodsys_lib_basesys:umodsys.basesys.rmodulelib.obj
 0003:00003334       ?s_id@?$TObjectUniqueID@URConsole_std@rsystem@base@UModSys@@@tl@UModSys@@2USUniquePointer@core@3@A 00418334     umodsys.c_main.obj
 0003:0000334c       ?s_id@?$TObjectUniqueID@URModuleLibrarySO@rsystem@base@UModSys@@@tl@UModSys@@2USUniquePointer@core@3@A 0041834c     umodsys.c_main.obj
 0003:00003364       ?s_id@?$TObjectUniqueID@UIRefObject@core@UModSys@@@tl@UModSys@@2USUniquePointer@core@3@A 00418364     umodsys.c_main.obj
 0003:0000337c       ?s_id@?$TObjectUniqueID@UIRoot@core@UModSys@@@tl@UModSys@@2USUniquePointer@core@3@A 0041837c     umodsys.c_main.obj
 0003:00003394       ?s_id@?$TObjectUniqueID@URParameters@rsystem@base@UModSys@@@tl@UModSys@@2USUniquePointer@core@3@A 00418394     umodsys.c_main.obj
 0003:000033ac       ?s_id@?$TObjectUniqueID@UIModule@base@UModSys@@@tl@UModSys@@2USUniquePointer@core@3@A 004183ac     umodsys.c_main.obj
 0003:000033c4       ?s_id@?$TObjectUniqueID@UIGenerator@base@UModSys@@@tl@UModSys@@2USUniquePointer@core@3@A 004183c4     umodsys.c_main.obj
 0003:000033dc       ?s_id@?$TObjectUniqueID@URModuleLibraryThis@rsystem@base@UModSys@@@tl@UModSys@@2USUniquePointer@core@3@A 004183dc     umodsys.c_main.obj
 0003:000033f4       ?s_id@?$TObjectUniqueID@UIModuleLibrary@base@UModSys@@@tl@UModSys@@2USUniquePointer@core@3@A 004183f4     umodsys.c_main.obj
 0003:0000340c       ?s_null@?$TStaticStringPool@DU?$TComparerBinaryHash@D@su@tl@UModSys@@USMemAlloc_Malloc@core@4@@tl@UModSys@@2U?$TString@U?$TSCoreConst@D@su@tl@UModSys@@U?$TComparerBinaryHash@D@234@@23@A 0041840c     umodsys.c_main.obj
 0003:00003418       ?s_id@?$TObjectUniqueID@UIParameters@core@UModSys@@@tl@UModSys@@2USUniquePointer@core@3@A 00418418     umodsys.c_main.obj
 0003:00003430       ?s_id@?$TObjectUniqueID@UISystem@base@UModSys@@@tl@UModSys@@2USUniquePointer@core@3@A 00418430     umodsys.c_main.obj
 0003:00003448       ?s_id@?$TObjectUniqueID@URModule@rsystem@base@UModSys@@@tl@UModSys@@2USUniquePointer@core@3@A 00418448     umodsys.c_main.obj
 0003:00003460       ?s_id@?$TObjectUniqueID@UIModObject@base@UModSys@@@tl@UModSys@@2USUniquePointer@core@3@A 00418460     umodsys.c_main.obj
 0003:00003478       ?s_id@?$TObjectUniqueID@UIModuleLibraryUni@rsystem@base@UModSys@@@tl@UModSys@@2USUniquePointer@core@3@A 00418478     umodsys.c_main.obj
 0003:00003490       ?s_id@?$TObjectUniqueID@URSystem@rsystem@base@UModSys@@@tl@UModSys@@2USUniquePointer@core@3@A 00418490     umodsys.c_main.obj
 0003:000034a8       ?s_id@?$TObjectUniqueID@UIShell@base@UModSys@@@tl@UModSys@@2USUniquePointer@core@3@A 004184a8     umodsys.c_main.obj
 0003:000034c0       ?s_id@?$TObjectUniqueID@UIConsole@base@UModSys@@@tl@UModSys@@2USUniquePointer@core@3@A 004184c0     umodsys.c_main.obj
 0003:000034d8       ?s_id@?$TObjectUniqueID@UILibrary@libmedia@UModSys@@@tl@UModSys@@2USUniquePointer@core@3@A 004184d8     umodsys_lib_libmedia:umodsys.mod.media.stdio.obj
 0003:000034f0       ?s_id@?$TObjectUniqueID@UIBinArchive@libmedia@UModSys@@@tl@UModSys@@2USUniquePointer@core@3@A 004184f0     umodsys_lib_libmedia:umodsys.mod.media.stdio.obj
 0003:00003508       ?s_id@?$TObjectUniqueID@URStreamWriter_FILE@stdio@media@modules@UModSys@@@tl@UModSys@@2USUniquePointer@core@3@A 00418508     umodsys_lib_libmedia:umodsys.mod.media.stdio.obj
 0003:00003520       ?s_id@?$TObjectUniqueID@UIStreamWriter@libmedia@UModSys@@@tl@UModSys@@2USUniquePointer@core@3@A 00418520     umodsys_lib_libmedia:umodsys.mod.media.stdio.obj
 0003:00003538       ?s_id@?$TObjectUniqueID@UIBinObjFilter@libmedia@UModSys@@@tl@UModSys@@2USUniquePointer@core@3@A 00418538     umodsys_lib_libmedia:umodsys.mod.media.stdio.obj
 0003:00003550       ?s_id@?$TObjectUniqueID@URDataArchiver_OsDir@stdio@media@modules@UModSys@@@tl@UModSys@@2USUniquePointer@core@3@A 00418550     umodsys_lib_libmedia:umodsys.mod.media.stdio.obj
 0003:00003568       ?s_id@?$TObjectUniqueID@URGenerator@stdio@media@modules@UModSys@@@tl@UModSys@@2USUniquePointer@core@3@A 00418568     umodsys_lib_libmedia:umodsys.mod.media.stdio.obj
 0003:00003580       ?s_id@?$TObjectUniqueID@UIStreamReader@libmedia@UModSys@@@tl@UModSys@@2USUniquePointer@core@3@A 00418580     umodsys_lib_libmedia:umodsys.mod.media.stdio.obj
 0003:00003598       ?s_id@?$TObjectUniqueID@UILibObject@libmedia@UModSys@@@tl@UModSys@@2USUniquePointer@core@3@A 00418598     umodsys_lib_libmedia:umodsys.mod.media.stdio.obj
 0003:000035b0       ?s_id@?$TObjectUniqueID@UIUtilities@libmedia@UModSys@@@tl@UModSys@@2USUniquePointer@core@3@A 004185b0     umodsys_lib_libmedia:umodsys.mod.media.stdio.obj
 0003:000035c8       ?s_id@?$TObjectUniqueID@URStreamReader_FILE@stdio@media@modules@UModSys@@@tl@UModSys@@2USUniquePointer@core@3@A 004185c8     umodsys_lib_libmedia:umodsys.mod.media.stdio.obj
 0003:000035e0       ?s_id@?$TObjectUniqueID@URGenerator@stdlib@media@modules@UModSys@@@tl@UModSys@@2USUniquePointer@core@3@A 004185e0     umodsys_lib_libmedia:umodsys.mod.media.stdlib.obj
 0003:000035f8       ?s_id@?$TObjectUniqueID@URUtilities@stdlib@media@modules@UModSys@@@tl@UModSys@@2USUniquePointer@core@3@A 004185f8     umodsys_lib_libmedia:umodsys.mod.media.stdlib.obj
 0003:00003610       ?s_id@?$TObjectUniqueID@UILibraryLayered@libmedia@UModSys@@@tl@UModSys@@2USUniquePointer@core@3@A 00418610     umodsys_lib_libmedia:umodsys.mod.media.stdlib.obj
 0003:00003628       ?s_id@?$TObjectUniqueID@URLibraryObjFilter@stdlib@media@modules@UModSys@@@tl@UModSys@@2USUniquePointer@core@3@A 00418628     umodsys_lib_libmedia:umodsys.mod.media.stdlib.obj
 0003:00003640       ?s_id@?$TObjectUniqueID@UILibraryObjCache@libmedia@UModSys@@@tl@UModSys@@2USUniquePointer@core@3@A 00418640     umodsys_lib_libmedia:umodsys.mod.media.stdlib.obj
 0003:00003658       ?s_id@?$TObjectUniqueID@URLibraryBinCache@stdlib@media@modules@UModSys@@@tl@UModSys@@2USUniquePointer@core@3@A 00418658     umodsys_lib_libmedia:umodsys.mod.media.stdlib.obj
 0003:00003670       ?s_id@?$TObjectUniqueID@URLibraryObjCache@stdlib@media@modules@UModSys@@@tl@UModSys@@2USUniquePointer@core@3@A 00418670     umodsys_lib_libmedia:umodsys.mod.media.stdlib.obj
 0003:00003688       ?s_id@?$TObjectUniqueID@URLibraryLayered@stdlib@media@modules@UModSys@@@tl@UModSys@@2USUniquePointer@core@3@A 00418688     umodsys_lib_libmedia:umodsys.mod.media.stdlib.obj
 0003:000036a0       ?s_id@?$TObjectUniqueID@URBinArchiveFrame@stdlib@media@modules@UModSys@@@tl@UModSys@@2USUniquePointer@core@3@A 004186a0     umodsys_lib_libmedia:umodsys.mod.media.stdlib.obj
 0003:000036b8       ?s_id@?$TObjectUniqueID@UILibraryBinCache@libmedia@UModSys@@@tl@UModSys@@2USUniquePointer@core@3@A 004186b8     umodsys_lib_libmedia:umodsys.mod.media.stdlib.obj
 0003:000036d0       ?s_id@?$TObjectUniqueID@URLibraryBinTree@stdlib@media@modules@UModSys@@@tl@UModSys@@2USUniquePointer@core@3@A 004186d0     umodsys_lib_libmedia:umodsys.mod.media.stdlib.obj
 0003:000036e8       ?s_id@?$TObjectUniqueID@UILibraryBinTree@libmedia@UModSys@@@tl@UModSys@@2USUniquePointer@core@3@A 004186e8     umodsys_lib_libmedia:umodsys.mod.media.stdlib.obj
 0003:00003700       ?s_id@?$TObjectUniqueID@UILibraryObjFilter@libmedia@UModSys@@@tl@UModSys@@2USUniquePointer@core@3@A 00418700     umodsys_lib_libmedia:umodsys.mod.media.stdlib.obj
 0003:00003718       ?s_id@?$TObjectUniqueID@UIClient@IBinArchiveFrame@libmedia@UModSys@@@tl@UModSys@@2USUniquePointer@core@3@A 00418718     umodsys_lib_libmedia:umodsys.mod.media.stdlib.obj
 0003:00003730       ?s_id@?$TObjectUniqueID@UIBinArchiveFrame@libmedia@UModSys@@@tl@UModSys@@2USUniquePointer@core@3@A 00418730     umodsys_lib_libmedia:umodsys.mod.media.stdlib.obj
 0003:00003748       __adjust_fdiv              00418748     <common>
 0003:0000374c       ___native_startup_state    0041874c     <common>
 0003:00003750       ___native_startup_lock     00418750     <common>
 0003:00003754       ___dyn_tls_init_callback   00418754     <common>
 0003:00003758       ___onexitend               00418758     <common>
 0003:0000375c       ___onexitbegin             0041875c     <common>

 entry point at        0001:0000d612

 Static symbols

 0001:000091a4       ?s_pwd_init@@YAXXZ         0040a1a4 f    CIL library: CIL module
 0001:00009311       ?s_pfd_scan@@YAIPAUISystem@base@UModSys@@AAU?$TDynarrayDynamic@U?$TRefObject@URModuleLibrarySO@rsystem@base@UModSys@@U?$TRefObjectFunc@URModuleLibrarySO@rsystem@base@UModSys@@@tl@4@@tl@UModSys@@U?$TAllocator@USMemAlloc_Malloc@core@UModSys@@USCountCalcPower2@23@@23@@tl@3@PBD22@Z 0040a311 f    CIL library: CIL module
 0001:000094fa       ?s_pfd_scan@@YAIPAUISystem@base@UModSys@@AAU?$TDynarrayDynamic@U?$TRefObject@URModuleLibrarySO@rsystem@base@UModSys@@U?$TRefObjectFunc@URModuleLibrarySO@rsystem@base@UModSys@@@tl@4@@tl@UModSys@@U?$TAllocator@USMemAlloc_Malloc@core@UModSys@@USCountCalcPower2@23@@23@@tl@3@PBD2@Z 0040a4fa f    CIL library: CIL module
 0001:0000d370       _pre_cpp_init              0040e370 f   MSVCRT:crtexe.obj
 0001:0000d3bb       ___tmainCRTStartup         0040e3bb f   MSVCRT:crtexe.obj
 0001:0000d531       _pre_c_init                0040e531 f   MSVCRT:crtexe.obj
 0001:0000dc40       __unwindfunclet$??1?$TQuantArrayUnique@USSourceContext@core@UModSys@@$0BAA@USMemAlloc_Malloc@23@@tl@UModSys@@QAE@XZ$0 0040ec40 f    CIL library: CIL module
 0001:0000dc40       __unwindfunclet$??1?$TQuantArrayUnique@USUniquePointerInfo@core@UModSys@@$0BAA@USMemAlloc_Malloc@23@@tl@UModSys@@QAE@XZ$0 0040ec40 f    CIL library: CIL module
 0001:0000dc48       __ehhandler$??1?$TQuantArrayUnique@USUniquePointerInfo@core@UModSys@@$0BAA@USMemAlloc_Malloc@23@@tl@UModSys@@QAE@XZ 0040ec48 f    CIL library: CIL module
 0001:0000dc48       __ehhandler$??1?$TQuantArrayUnique@USSourceContext@core@UModSys@@$0BAA@USMemAlloc_Malloc@23@@tl@UModSys@@QAE@XZ 0040ec48 f    CIL library: CIL module
 0001:0000dc52       __unwindfunclet$?data_reader@RBinArchiveFrame@stdlib@media@modules@UModSys@@UAE?AU?$TRefObject@UIStreamReader@libmedia@UModSys@@U?$TRefObjectFunc@UIStreamReader@libmedia@UModSys@@@tl@3@@tl@5@ABU?$TString@U?$TSCoreConst@D@su@tl@UModSys@@U?$TComparerBinaryHash@D@234@@75@ABUSFlags@libmedia@5@@Z$0 0040ec52 f    CIL library: CIL module
 0001:0000dc6b       __unwindfunclet$?data_reader@RBinArchiveFrame@stdlib@media@modules@UModSys@@UAE?AU?$TRefObject@UIStreamReader@libmedia@UModSys@@U?$TRefObjectFunc@UIStreamReader@libmedia@UModSys@@@tl@3@@tl@5@ABU?$TString@U?$TSCoreConst@D@su@tl@UModSys@@U?$TComparerBinaryHash@D@234@@75@ABUSFlags@libmedia@5@@Z$1 0040ec6b f    CIL library: CIL module
 0001:0000dc84       __ehhandler$?data_reader@RBinArchiveFrame@stdlib@media@modules@UModSys@@UAE?AU?$TRefObject@UIStreamReader@libmedia@UModSys@@U?$TRefObjectFunc@UIStreamReader@libmedia@UModSys@@@tl@3@@tl@5@ABU?$TString@U?$TSCoreConst@D@su@tl@UModSys@@U?$TComparerBinaryHash@D@234@@75@ABUSFlags@libmedia@5@@Z 0040ec84 f    CIL library: CIL module
 0001:0000dc8e       __unwindfunclet$?suicide@RLibraryObjCache@stdlib@media@modules@UModSys@@UAEXXZ$0 0040ec8e f    CIL library: CIL module
 0001:0000dc8e       __unwindfunclet$?suicide@RLibraryObjFilter@stdlib@media@modules@UModSys@@UAEXXZ$0 0040ec8e f    CIL library: CIL module
 0001:0000dc8e       __unwindfunclet$?suicide@RStreamReader_FILE@stdio@media@modules@UModSys@@UAEXXZ$0 0040ec8e f    CIL library: CIL module
 0001:0000dc8e       __unwindfunclet$?suicide@RLibraryBinCache@stdlib@media@modules@UModSys@@UAEXXZ$0 0040ec8e f    CIL library: CIL module
 0001:0000dc8e       __unwindfunclet$?suicide@RStreamWriter_FILE@stdio@media@modules@UModSys@@UAEXXZ$0 0040ec8e f    CIL library: CIL module
 0001:0000dc8e       __unwindfunclet$?suicide@RLibraryBinTree@stdlib@media@modules@UModSys@@UAEXXZ$0 0040ec8e f    CIL library: CIL module
 0001:0000dc8e       __unwindfunclet$?suicide@RDataArchiver_OsDir@stdio@media@modules@UModSys@@UAEXXZ$0 0040ec8e f    CIL library: CIL module
 0001:0000dc8e       __unwindfunclet$?suicide@RBinArchiveFrame@stdlib@media@modules@UModSys@@UAEXXZ$0 0040ec8e f    CIL library: CIL module
 0001:0000dc8e       __unwindfunclet$?suicide@RLibraryLayered@stdlib@media@modules@UModSys@@UAEXXZ$0 0040ec8e f    CIL library: CIL module
 0001:0000dc8e       __unwindfunclet$?suicide@RUtilities@stdlib@media@modules@UModSys@@UAEXXZ$0 0040ec8e f    CIL library: CIL module
 0001:0000dc96       __ehhandler$?suicide@RUtilities@stdlib@media@modules@UModSys@@UAEXXZ 0040ec96 f    CIL library: CIL module
 0001:0000dc96       __ehhandler$?suicide@RLibraryObjFilter@stdlib@media@modules@UModSys@@UAEXXZ 0040ec96 f    CIL library: CIL module
 0001:0000dc96       __ehhandler$?suicide@RLibraryObjCache@stdlib@media@modules@UModSys@@UAEXXZ 0040ec96 f    CIL library: CIL module
 0001:0000dc96       __ehhandler$?suicide@RStreamReader_FILE@stdio@media@modules@UModSys@@UAEXXZ 0040ec96 f    CIL library: CIL module
 0001:0000dc96       __ehhandler$?suicide@RLibraryLayered@stdlib@media@modules@UModSys@@UAEXXZ 0040ec96 f    CIL library: CIL module
 0001:0000dc96       __ehhandler$?suicide@RStreamWriter_FILE@stdio@media@modules@UModSys@@UAEXXZ 0040ec96 f    CIL library: CIL module
 0001:0000dc96       __ehhandler$?suicide@RLibraryBinCache@stdlib@media@modules@UModSys@@UAEXXZ 0040ec96 f    CIL library: CIL module
 0001:0000dc96       __ehhandler$?suicide@RBinArchiveFrame@stdlib@media@modules@UModSys@@UAEXXZ 0040ec96 f    CIL library: CIL module
 0001:0000dc96       __ehhandler$?suicide@RDataArchiver_OsDir@stdio@media@modules@UModSys@@UAEXXZ 0040ec96 f    CIL library: CIL module
 0001:0000dc96       __ehhandler$?suicide@RLibraryBinTree@stdlib@media@modules@UModSys@@UAEXXZ 0040ec96 f    CIL library: CIL module
 0001:0000dca0       __unwindfunclet$?suicide@RModule@rsystem@base@UModSys@@UAEXXZ$0 0040eca0 f    CIL library: CIL module
 0001:0000dca0       __unwindfunclet$??$t_moduledb_generate@UIShell@base@UModSys@@@IModuleLoader@base@UModSys@@QAE_NAAU?$TRefObject@UIShell@base@UModSys@@U?$TRefObjectFunc@UIShell@base@UModSys@@@tl@3@@tl@2@PBUSUniquePointerInfo@core@2@ABUSParameters@62@@Z$0 0040eca0 f    CIL library: CIL module
 0001:0000dca0       __unwindfunclet$??$ValidateConstruction@UIStreamReader@libmedia@UModSys@@URStreamReader_FILE@stdio@media@modules@3@@core@UModSys@@YA_NAAU?$TRefObject@UIStreamReader@libmedia@UModSys@@U?$TRefObjectFunc@UIStreamReader@libmedia@UModSys@@@tl@3@@tl@1@PAURStreamReader_FILE@stdio@media@modules@1@@Z$0 0040eca0 f    CIL library: CIL module
 0001:0000dca0       __unwindfunclet$??$ValidateConstruction@UIStreamWriter@libmedia@UModSys@@URStreamWriter_FILE@stdio@media@modules@3@@core@UModSys@@YA_NAAU?$TRefObject@UIStreamWriter@libmedia@UModSys@@U?$TRefObjectFunc@UIStreamWriter@libmedia@UModSys@@@tl@3@@tl@1@PAURStreamWriter_FILE@stdio@media@modules@1@@Z$0 0040eca0 f    CIL library: CIL module
 0001:0000dca8       __ehhandler$??$ValidateConstruction@UIStreamWriter@libmedia@UModSys@@URStreamWriter_FILE@stdio@media@modules@3@@core@UModSys@@YA_NAAU?$TRefObject@UIStreamWriter@libmedia@UModSys@@U?$TRefObjectFunc@UIStreamWriter@libmedia@UModSys@@@tl@3@@tl@1@PAURStreamWriter_FILE@stdio@media@modules@1@@Z 0040eca8 f    CIL library: CIL module
 0001:0000dca8       __ehhandler$?suicide@RModule@rsystem@base@UModSys@@UAEXXZ 0040eca8 f    CIL library: CIL module
 0001:0000dca8       __ehhandler$??$t_moduledb_generate@UIShell@base@UModSys@@@IModuleLoader@base@UModSys@@QAE_NAAU?$TRefObject@UIShell@base@UModSys@@U?$TRefObjectFunc@UIShell@base@UModSys@@@tl@3@@tl@2@PBUSUniquePointerInfo@core@2@ABUSParameters@62@@Z 0040eca8 f    CIL library: CIL module
 0001:0000dca8       __ehhandler$??$ValidateConstruction@UIStreamReader@libmedia@UModSys@@URStreamReader_FILE@stdio@media@modules@3@@core@UModSys@@YA_NAAU?$TRefObject@UIStreamReader@libmedia@UModSys@@U?$TRefObjectFunc@UIStreamReader@libmedia@UModSys@@@tl@3@@tl@1@PAURStreamReader_FILE@stdio@media@modules@1@@Z 0040eca8 f    CIL library: CIL module
 0001:0000dcb2       __unwindfunclet$??0RStreamReader_FILE@stdio@media@modules@UModSys@@QAE@PAUIModObject@base@4@ABUSParameters@core@4@@Z$0 0040ecb2 f    CIL library: CIL module
 0001:0000dcb2       __unwindfunclet$??0RUtilities@stdlib@media@modules@UModSys@@QAE@PAUIModObject@base@4@ABUSParameters@core@4@@Z$0 0040ecb2 f    CIL library: CIL module
 0001:0000dcb2       __unwindfunclet$??0RStreamWriter_FILE@stdio@media@modules@UModSys@@QAE@PAUIModObject@base@4@ABUSParameters@core@4@@Z$0 0040ecb2 f    CIL library: CIL module
 0001:0000dcb2       __unwindfunclet$??0RStreamWriter_FILE@stdio@media@modules@UModSys@@QAE@PAUIModObject@base@4@PBD_N@Z$0 0040ecb2 f    CIL library: CIL module
 0001:0000dcb2       __unwindfunclet$??1ILibObject@libmedia@UModSys@@UAE@XZ$0 0040ecb2 f    CIL library: CIL module
 0001:0000dcb2       __unwindfunclet$??0RStreamReader_FILE@stdio@media@modules@UModSys@@QAE@PAUIModObject@base@4@PBD@Z$0 0040ecb2 f    CIL library: CIL module
 0001:0000dcba       __ehhandler$??0RUtilities@stdlib@media@modules@UModSys@@QAE@PAUIModObject@base@4@ABUSParameters@core@4@@Z 0040ecba f    CIL library: CIL module
 0001:0000dcba       __ehhandler$??0RStreamReader_FILE@stdio@media@modules@UModSys@@QAE@PAUIModObject@base@4@ABUSParameters@core@4@@Z 0040ecba f    CIL library: CIL module
 0001:0000dcba       __ehhandler$??0RStreamReader_FILE@stdio@media@modules@UModSys@@QAE@PAUIModObject@base@4@PBD@Z 0040ecba f    CIL library: CIL module
 0001:0000dcba       __ehhandler$??1ILibObject@libmedia@UModSys@@UAE@XZ 0040ecba f    CIL library: CIL module
 0001:0000dcba       __ehhandler$??0RStreamWriter_FILE@stdio@media@modules@UModSys@@QAE@PAUIModObject@base@4@ABUSParameters@core@4@@Z 0040ecba f    CIL library: CIL module
 0001:0000dcba       __ehhandler$??0RStreamWriter_FILE@stdio@media@modules@UModSys@@QAE@PAUIModObject@base@4@PBD_N@Z 0040ecba f    CIL library: CIL module
 0001:0000dcc4       __unwindfunclet$??_GRModuleLibraryThis@rsystem@base@UModSys@@UAEPAXI@Z$0 0040ecc4 f    CIL library: CIL module
 0001:0000dcc4       __unwindfunclet$??_GRModuleLibrarySO@rsystem@base@UModSys@@UAEPAXI@Z$0 0040ecc4 f    CIL library: CIL module
 0001:0000dccc       __ehhandler$??_GRModuleLibraryThis@rsystem@base@UModSys@@UAEPAXI@Z 0040eccc f    CIL library: CIL module
 0001:0000dccc       __ehhandler$??_GRModuleLibrarySO@rsystem@base@UModSys@@UAEPAXI@Z 0040eccc f    CIL library: CIL module
 0001:0000dcd6       __unwindfunclet$??1RModuleLoader@rsystem@base@UModSys@@UAE@XZ$0 0040ecd6 f    CIL library: CIL module
 0001:0000dcde       __unwindfunclet$??1RModuleLoader@rsystem@base@UModSys@@UAE@XZ$1 0040ecde f    CIL library: CIL module
 0001:0000dce9       __unwindfunclet$??1RModuleLoader@rsystem@base@UModSys@@UAE@XZ$2 0040ece9 f    CIL library: CIL module
 0001:0000dcf4       __ehhandler$??1RModuleLoader@rsystem@base@UModSys@@UAE@XZ 0040ecf4 f    CIL library: CIL module
 0001:0000dcfe       __unwindfunclet$??1RSystem@rsystem@base@UModSys@@UAE@XZ$0 0040ecfe f    CIL library: CIL module
 0001:0000dd06       __unwindfunclet$??1RSystem@rsystem@base@UModSys@@UAE@XZ$1 0040ed06 f    CIL library: CIL module
 0001:0000dd13       __unwindfunclet$??1RSystem@rsystem@base@UModSys@@UAE@XZ$2 0040ed13 f    CIL library: CIL module
 0001:0000dd1e       __unwindfunclet$??1RSystem@rsystem@base@UModSys@@UAE@XZ$3 0040ed1e f    CIL library: CIL module
 0001:0000dd29       __unwindfunclet$??1RSystem@rsystem@base@UModSys@@UAE@XZ$4 0040ed29 f    CIL library: CIL module
 0001:0000dd36       __unwindfunclet$??1RSystem@rsystem@base@UModSys@@UAE@XZ$5 0040ed36 f    CIL library: CIL module
 0001:0000dd41       __ehhandler$??1RSystem@rsystem@base@UModSys@@UAE@XZ 0040ed41 f    CIL library: CIL module
 0001:0000dd4b       __unwindfunclet$??RGen0@?$TScatterArray@USFilter@RLibraryObjFilter@stdlib@media@modules@UModSys@@USId@23456@U723456@U?$TNodeDeleter0@U?$TScatterArrayNode@USFilter@RLibraryObjFilter@stdlib@media@modules@UModSys@@USId@23456@@tl@UModSys@@@tl@6@@tl@UModSys@@QBEPAU?$TScatterArrayNode@USFilter@RLibraryObjFilter@stdlib@media@modules@UModSys@@USId@23456@@23@ABUCmp@123@ABU?$TTreeHoldRBD@U?$TScatterArrayNode@USFilter@RLibraryObjFilter@stdlib@media@modules@UModSys@@USId@23456@@tl@UModSys@@U?$TNodeDeleter0@U?$TScatterArrayNode@USFilter@RLibraryObjFilter@stdlib@media@modules@UModSys@@USId@23456@@tl@UModSys@@@23@@23@@Z$0 0040ed4b f    CIL library: CIL module
 0001:0000dd50       __unwindfunclet$??RGen0@?$TScatterArray@USFilter@RLibraryObjFilter@stdlib@media@modules@UModSys@@USId@23456@U723456@U?$TNodeDeleter0@U?$TScatterArrayNode@USFilter@RLibraryObjFilter@stdlib@media@modules@UModSys@@USId@23456@@tl@UModSys@@@tl@6@@tl@UModSys@@QBEPAU?$TScatterArrayNode@USFilter@RLibraryObjFilter@stdlib@media@modules@UModSys@@USId@23456@@23@ABUCmp@123@ABU?$TTreeHoldRBD@U?$TScatterArrayNode@USFilter@RLibraryObjFilter@stdlib@media@modules@UModSys@@USId@23456@@tl@UModSys@@U?$TNodeDeleter0@U?$TScatterArrayNode@USFilter@RLibraryObjFilter@stdlib@media@modules@UModSys@@USId@23456@@tl@UModSys@@@23@@23@@Z$1 0040ed50 f    CIL library: CIL module
 0001:0000dd58       __unwindfunclet$??RGen0@?$TScatterArray@USFilter@RLibraryObjFilter@stdlib@media@modules@UModSys@@USId@23456@U723456@U?$TNodeDeleter0@U?$TScatterArrayNode@USFilter@RLibraryObjFilter@stdlib@media@modules@UModSys@@USId@23456@@tl@UModSys@@@tl@6@@tl@UModSys@@QBEPAU?$TScatterArrayNode@USFilter@RLibraryObjFilter@stdlib@media@modules@UModSys@@USId@23456@@23@ABUCmp@123@ABU?$TTreeHoldRBD@U?$TScatterArrayNode@USFilter@RLibraryObjFilter@stdlib@media@modules@UModSys@@USId@23456@@tl@UModSys@@U?$TNodeDeleter0@U?$TScatterArrayNode@USFilter@RLibraryObjFilter@stdlib@media@modules@UModSys@@USId@23456@@tl@UModSys@@@23@@23@@Z$2 0040ed58 f    CIL library: CIL module
 0001:0000dd63       __ehhandler$??RGen0@?$TScatterArray@USFilter@RLibraryObjFilter@stdlib@media@modules@UModSys@@USId@23456@U723456@U?$TNodeDeleter0@U?$TScatterArrayNode@USFilter@RLibraryObjFilter@stdlib@media@modules@UModSys@@USId@23456@@tl@UModSys@@@tl@6@@tl@UModSys@@QBEPAU?$TScatterArrayNode@USFilter@RLibraryObjFilter@stdlib@media@modules@UModSys@@USId@23456@@23@ABUCmp@123@ABU?$TTreeHoldRBD@U?$TScatterArrayNode@USFilter@RLibraryObjFilter@stdlib@media@modules@UModSys@@USId@23456@@tl@UModSys@@U?$TNodeDeleter0@U?$TScatterArrayNode@USFilter@RLibraryObjFilter@stdlib@media@modules@UModSys@@USId@23456@@tl@UModSys@@@23@@23@@Z 0040ed63 f    CIL library: CIL module
 0001:0000dd6d       __unwindfunclet$?filters_add@RLibraryObjFilter@stdlib@media@modules@UModSys@@UAE_NU?$TRefObject@UIBinObjFilter@libmedia@UModSys@@U?$TRefObjectFunc@UIBinObjFilter@libmedia@UModSys@@@tl@3@@tl@5@PBUSParameters@core@5@H@Z$0 0040ed6d f    CIL library: CIL module
 0001:0000dd75       __ehhandler$?filters_add@RLibraryObjFilter@stdlib@media@modules@UModSys@@UAE_NU?$TRefObject@UIBinObjFilter@libmedia@UModSys@@U?$TRefObjectFunc@UIBinObjFilter@libmedia@UModSys@@@tl@3@@tl@5@PBUSParameters@core@5@H@Z 0040ed75 f    CIL library: CIL module
 0001:0000dd7f       __unwindfunclet$??1IBinArchiveFrame@libmedia@UModSys@@UAE@XZ$0 0040ed7f f    CIL library: CIL module
 0001:0000dd88       __unwindfunclet$??1IBinArchiveFrame@libmedia@UModSys@@UAE@XZ$1 0040ed88 f    CIL library: CIL module
 0001:0000dd93       __unwindfunclet$??1IBinArchiveFrame@libmedia@UModSys@@UAE@XZ$2 0040ed93 f    CIL library: CIL module
 0001:0000dd9e       __ehhandler$??1IBinArchiveFrame@libmedia@UModSys@@UAE@XZ 0040ed9e f    CIL library: CIL module
 0001:0000dda8       __unwindfunclet$?archive_load_data@libmedia@UModSys@@YA_NAAUIBinArchive@12@ABU?$TString@U?$TSCoreConst@D@su@tl@UModSys@@U?$TComparerBinaryHash@D@234@@tl@2@AAUSCMemShared@core@2@ABUSFlags@12@@Z$0 0040eda8 f    CIL library: CIL module
 0001:0000ddb0       __unwindfunclet$?archive_load_data@libmedia@UModSys@@YA_NAAUIBinArchive@12@ABU?$TString@U?$TSCoreConst@D@su@tl@UModSys@@U?$TComparerBinaryHash@D@234@@tl@2@AAUSCMemShared@core@2@ABUSFlags@12@@Z$1 0040edb0 f    CIL library: CIL module
 0001:0000ddb8       __ehhandler$?archive_load_data@libmedia@UModSys@@YA_NAAUIBinArchive@12@ABU?$TString@U?$TSCoreConst@D@su@tl@UModSys@@U?$TComparerBinaryHash@D@234@@tl@2@AAUSCMemShared@core@2@ABUSFlags@12@@Z 0040edb8 f    CIL library: CIL module
 0001:0000ddc2       __unwindfunclet$??1SMountInfo@RLibraryBinTree@stdlib@media@modules@UModSys@@QAE@XZ$0 0040edc2 f    CIL library: CIL module
 0001:0000ddc2       __unwindfunclet$??0SLayerX@RLibraryLayered@stdlib@media@modules@UModSys@@QAE@ABU012345@@Z$0 0040edc2 f    CIL library: CIL module
 0001:0000ddc2       __unwindfunclet$??_GSLayerX@RLibraryLayered@stdlib@media@modules@UModSys@@QAEPAXI@Z$0 0040edc2 f    CIL library: CIL module
 0001:0000ddca       __ehhandler$??1SMountInfo@RLibraryBinTree@stdlib@media@modules@UModSys@@QAE@XZ 0040edca f    CIL library: CIL module
 0001:0000ddca       __ehhandler$??_GSLayerX@RLibraryLayered@stdlib@media@modules@UModSys@@QAEPAXI@Z 0040edca f    CIL library: CIL module
 0001:0000ddca       __ehhandler$??0SLayerX@RLibraryLayered@stdlib@media@modules@UModSys@@QAE@ABU012345@@Z 0040edca f    CIL library: CIL module
 0001:0000ddd4       __unwindfunclet$??$t_gen_param@URBinArchiveFrame@stdlib@media@modules@UModSys@@URGenerator@2345@@IGenerator@base@UModSys@@IAE_NPAURGenerator@stdlib@media@modules@2@AAU?$TRefObject@UIRefObject@core@UModSys@@U?$TRefObjectFunc@UIRefObject@core@UModSys@@@tl@3@@tl@2@PBUSUniquePointerInfo@core@2@ABUSParameters@core@2@@Z$0 0040edd4 f    CIL library: CIL module
 0001:0000dddf       __unwindfunclet$??$t_gen_param@URBinArchiveFrame@stdlib@media@modules@UModSys@@URGenerator@2345@@IGenerator@base@UModSys@@IAE_NPAURGenerator@stdlib@media@modules@2@AAU?$TRefObject@UIRefObject@core@UModSys@@U?$TRefObjectFunc@UIRefObject@core@UModSys@@@tl@3@@tl@2@PBUSUniquePointerInfo@core@2@ABUSParameters@core@2@@Z$1 0040eddf f    CIL library: CIL module
 0001:0000dde7       __ehhandler$??$t_gen_param@URBinArchiveFrame@stdlib@media@modules@UModSys@@URGenerator@2345@@IGenerator@base@UModSys@@IAE_NPAURGenerator@stdlib@media@modules@2@AAU?$TRefObject@UIRefObject@core@UModSys@@U?$TRefObjectFunc@UIRefObject@core@UModSys@@@tl@3@@tl@2@PBUSUniquePointerInfo@core@2@ABUSParameters@core@2@@Z 0040ede7 f    CIL library: CIL module
 0001:0000ddf1       __unwindfunclet$??1SCacheElem@RLibraryObjCache@stdlib@media@modules@UModSys@@QAE@XZ$0 0040edf1 f    CIL library: CIL module
 0001:0000ddf1       __unwindfunclet$??0?$TString@U?$TSCoreShared@USIMemAlloc@core@UModSys@@D@su@tl@UModSys@@U?$TComparerBinaryHash@D@234@@tl@UModSys@@QAE@ABU?$TSCoreConst@D@su@12@@Z$0 0040edf1 f    CIL library: CIL module
 0001:0000ddf1       __unwindfunclet$??1SCacheElem@RLibraryBinCache@stdlib@media@modules@UModSys@@QAE@XZ$0 0040edf1 f    CIL library: CIL module
 0001:0000ddf9       __ehhandler$??1SCacheElem@RLibraryBinCache@stdlib@media@modules@UModSys@@QAE@XZ 0040edf9 f    CIL library: CIL module
 0001:0000ddf9       __ehhandler$??1SCacheElem@RLibraryObjCache@stdlib@media@modules@UModSys@@QAE@XZ 0040edf9 f    CIL library: CIL module
 0001:0000ddf9       __ehhandler$??0?$TString@U?$TSCoreShared@USIMemAlloc@core@UModSys@@D@su@tl@UModSys@@U?$TComparerBinaryHash@D@234@@tl@UModSys@@QAE@ABU?$TSCoreConst@D@su@12@@Z 0040edf9 f    CIL library: CIL module
 0001:0000de03       __unwindfunclet$?obj_get@RLibraryLayered@stdlib@media@modules@UModSys@@UAE_NABU?$TString@U?$TSCoreConst@D@su@tl@UModSys@@U?$TComparerBinaryHash@D@234@@tl@5@AAU?$TRefObject@UIRefObject@core@UModSys@@U?$TRefObjectFunc@UIRefObject@core@UModSys@@@tl@3@@75@ABUSObjOptions@ILibrary@libmedia@5@@Z$0 0040ee03 f    CIL library: CIL module
 0001:0000de0b       __ehhandler$?obj_get@RLibraryLayered@stdlib@media@modules@UModSys@@UAE_NABU?$TString@U?$TSCoreConst@D@su@tl@UModSys@@U?$TComparerBinaryHash@D@234@@tl@5@AAU?$TRefObject@UIRefObject@core@UModSys@@U?$TRefObjectFunc@UIRefObject@core@UModSys@@@tl@3@@75@ABUSObjOptions@ILibrary@libmedia@5@@Z 0040ee0b f    CIL library: CIL module
 0001:0000de15       __unwindfunclet$?bin_save@RLibraryLayered@stdlib@media@modules@UModSys@@UAE_NABU?$TString@U?$TSCoreConst@D@su@tl@UModSys@@U?$TComparerBinaryHash@D@234@@tl@5@ABUSCMem@core@5@ABUSFlags@libmedia@5@@Z$0 0040ee15 f    CIL library: CIL module
 0001:0000de1d       __unwindfunclet$?bin_save@RLibraryLayered@stdlib@media@modules@UModSys@@UAE_NABU?$TString@U?$TSCoreConst@D@su@tl@UModSys@@U?$TComparerBinaryHash@D@234@@tl@5@ABUSCMem@core@5@ABUSFlags@libmedia@5@@Z$1 0040ee1d f    CIL library: CIL module
 0001:0000de25       __ehhandler$?bin_save@RLibraryLayered@stdlib@media@modules@UModSys@@UAE_NABU?$TString@U?$TSCoreConst@D@su@tl@UModSys@@U?$TComparerBinaryHash@D@234@@tl@5@ABUSCMem@core@5@ABUSFlags@libmedia@5@@Z 0040ee25 f    CIL library: CIL module
 0001:0000de2f       __unwindfunclet$?bin_writer@RLibraryLayered@stdlib@media@modules@UModSys@@UAE?AU?$TRefObject@UIStreamWriter@libmedia@UModSys@@U?$TRefObjectFunc@UIStreamWriter@libmedia@UModSys@@@tl@3@@tl@5@ABU?$TString@U?$TSCoreConst@D@su@tl@UModSys@@U?$TComparerBinaryHash@D@234@@75@ABUSFlags@libmedia@5@@Z$0 0040ee2f f    CIL library: CIL module
 0001:0000de2f       __unwindfunclet$?data_save@RDataArchiver_OsDir@stdio@media@modules@UModSys@@UAE_NABU?$TString@U?$TSCoreConst@D@su@tl@UModSys@@U?$TComparerBinaryHash@D@234@@tl@5@ABUSCMem@core@5@ABUSFlags@libmedia@5@@Z$0 0040ee2f f    CIL library: CIL module
 0001:0000de2f       __unwindfunclet$?bin_reader@RLibraryLayered@stdlib@media@modules@UModSys@@UAE?AU?$TRefObject@UIStreamReader@libmedia@UModSys@@U?$TRefObjectFunc@UIStreamReader@libmedia@UModSys@@@tl@3@@tl@5@ABU?$TString@U?$TSCoreConst@D@su@tl@UModSys@@U?$TComparerBinaryHash@D@234@@75@ABUSFlags@libmedia@5@@Z$0 0040ee2f f    CIL library: CIL module
 0001:0000de37       __ehhandler$?bin_writer@RLibraryLayered@stdlib@media@modules@UModSys@@UAE?AU?$TRefObject@UIStreamWriter@libmedia@UModSys@@U?$TRefObjectFunc@UIStreamWriter@libmedia@UModSys@@@tl@3@@tl@5@ABU?$TString@U?$TSCoreConst@D@su@tl@UModSys@@U?$TComparerBinaryHash@D@234@@75@ABUSFlags@libmedia@5@@Z 0040ee37 f    CIL library: CIL module
 0001:0000de37       __ehhandler$?bin_reader@RLibraryLayered@stdlib@media@modules@UModSys@@UAE?AU?$TRefObject@UIStreamReader@libmedia@UModSys@@U?$TRefObjectFunc@UIStreamReader@libmedia@UModSys@@@tl@3@@tl@5@ABU?$TString@U?$TSCoreConst@D@su@tl@UModSys@@U?$TComparerBinaryHash@D@234@@75@ABUSFlags@libmedia@5@@Z 0040ee37 f    CIL library: CIL module
 0001:0000de37       __ehhandler$?data_save@RDataArchiver_OsDir@stdio@media@modules@UModSys@@UAE_NABU?$TString@U?$TSCoreConst@D@su@tl@UModSys@@U?$TComparerBinaryHash@D@234@@tl@5@ABUSCMem@core@5@ABUSFlags@libmedia@5@@Z 0040ee37 f    CIL library: CIL module
 0001:0000de41       __unwindfunclet$??0RBinArchiveFrame@stdlib@media@modules@UModSys@@QAE@PAUIModObject@base@4@ABUSParameters@core@4@U?$TFlags4State@USMediaFlagUid@libmedia@UModSys@@I@tl@4@@Z$0 0040ee41 f    CIL library: CIL module
 0001:0000de41       __unwindfunclet$??1RBinArchiveFrame@stdlib@media@modules@UModSys@@UAE@XZ$0 0040ee41 f    CIL library: CIL module
 0001:0000de4a       __unwindfunclet$??0RBinArchiveFrame@stdlib@media@modules@UModSys@@QAE@PAUIModObject@base@4@ABUSParameters@core@4@U?$TFlags4State@USMediaFlagUid@libmedia@UModSys@@I@tl@4@@Z$1 0040ee4a f    CIL library: CIL module
 0001:0000de4a       __unwindfunclet$??1RBinArchiveFrame@stdlib@media@modules@UModSys@@UAE@XZ$1 0040ee4a f    CIL library: CIL module
 0001:0000de55       __unwindfunclet$??0RBinArchiveFrame@stdlib@media@modules@UModSys@@QAE@PAUIModObject@base@4@ABUSParameters@core@4@U?$TFlags4State@USMediaFlagUid@libmedia@UModSys@@I@tl@4@@Z$2 0040ee55 f    CIL library: CIL module
 0001:0000de55       __unwindfunclet$??1RBinArchiveFrame@stdlib@media@modules@UModSys@@UAE@XZ$2 0040ee55 f    CIL library: CIL module
 0001:0000de60       __unwindfunclet$??1RBinArchiveFrame@stdlib@media@modules@UModSys@@UAE@XZ$3 0040ee60 f    CIL library: CIL module
 0001:0000de60       __unwindfunclet$??0RBinArchiveFrame@stdlib@media@modules@UModSys@@QAE@PAUIModObject@base@4@ABUSParameters@core@4@U?$TFlags4State@USMediaFlagUid@libmedia@UModSys@@I@tl@4@@Z$3 0040ee60 f    CIL library: CIL module
 0001:0000de6b       __ehhandler$??1RBinArchiveFrame@stdlib@media@modules@UModSys@@UAE@XZ 0040ee6b f    CIL library: CIL module
 0001:0000de6b       __ehhandler$??0RBinArchiveFrame@stdlib@media@modules@UModSys@@QAE@PAUIModObject@base@4@ABUSParameters@core@4@U?$TFlags4State@USMediaFlagUid@libmedia@UModSys@@I@tl@4@@Z 0040ee6b f    CIL library: CIL module
 0001:0000de75       __unwindfunclet$?s_add@RModuleLibrarySO@rsystem@base@UModSys@@SA_NPAUISystem@34@AAU?$TDynarrayDynamic@U?$TRefObject@URModuleLibrarySO@rsystem@base@UModSys@@U?$TRefObjectFunc@URModuleLibrarySO@rsystem@base@UModSys@@@tl@4@@tl@UModSys@@U?$TAllocator@USMemAlloc_Malloc@core@UModSys@@USCountCalcPower2@23@@23@@tl@4@PBD@Z$1 0040ee75 f    CIL library: CIL module
 0001:0000de75       __unwindfunclet$?bin_writer@RLibraryBinTree@stdlib@media@modules@UModSys@@UAE?AU?$TRefObject@UIStreamWriter@libmedia@UModSys@@U?$TRefObjectFunc@UIStreamWriter@libmedia@UModSys@@@tl@3@@tl@5@ABU?$TString@U?$TSCoreConst@D@su@tl@UModSys@@U?$TComparerBinaryHash@D@234@@75@ABUSFlags@libmedia@5@@Z$0 0040ee75 f    CIL library: CIL module
 0001:0000de75       __unwindfunclet$?openr@RBinArchiveFrame@stdlib@media@modules@UModSys@@QAE_NPAUILibrary@libmedia@5@ABU?$TString@U?$TSCoreConst@D@su@tl@UModSys@@U?$TComparerBinaryHash@D@234@@tl@5@PBUSParameters@core@5@@Z$0 0040ee75 f    CIL library: CIL module
 0001:0000de75       __unwindfunclet$?bin_reader@RLibraryBinTree@stdlib@media@modules@UModSys@@UAE?AU?$TRefObject@UIStreamReader@libmedia@UModSys@@U?$TRefObjectFunc@UIStreamReader@libmedia@UModSys@@@tl@3@@tl@5@ABU?$TString@U?$TSCoreConst@D@su@tl@UModSys@@U?$TComparerBinaryHash@D@234@@75@ABUSFlags@libmedia@5@@Z$0 0040ee75 f    CIL library: CIL module
 0001:0000de7d       __ehhandler$?s_add@RModuleLibrarySO@rsystem@base@UModSys@@SA_NPAUISystem@34@AAU?$TDynarrayDynamic@U?$TRefObject@URModuleLibrarySO@rsystem@base@UModSys@@U?$TRefObjectFunc@URModuleLibrarySO@rsystem@base@UModSys@@@tl@4@@tl@UModSys@@U?$TAllocator@USMemAlloc_Malloc@core@UModSys@@USCountCalcPower2@23@@23@@tl@4@PBD@Z 0040ee7d f    CIL library: CIL module
 0001:0000de7d       __ehhandler$?openr@RBinArchiveFrame@stdlib@media@modules@UModSys@@QAE_NPAUILibrary@libmedia@5@ABU?$TString@U?$TSCoreConst@D@su@tl@UModSys@@U?$TComparerBinaryHash@D@234@@tl@5@PBUSParameters@core@5@@Z 0040ee7d f    CIL library: CIL module
 0001:0000de7d       __ehhandler$?bin_reader@RLibraryBinTree@stdlib@media@modules@UModSys@@UAE?AU?$TRefObject@UIStreamReader@libmedia@UModSys@@U?$TRefObjectFunc@UIStreamReader@libmedia@UModSys@@@tl@3@@tl@5@ABU?$TString@U?$TSCoreConst@D@su@tl@UModSys@@U?$TComparerBinaryHash@D@234@@75@ABUSFlags@libmedia@5@@Z 0040ee7d f    CIL library: CIL module
 0001:0000de7d       __ehhandler$?bin_writer@RLibraryBinTree@stdlib@media@modules@UModSys@@UAE?AU?$TRefObject@UIStreamWriter@libmedia@UModSys@@U?$TRefObjectFunc@UIStreamWriter@libmedia@UModSys@@@tl@3@@tl@5@ABU?$TString@U?$TSCoreConst@D@su@tl@UModSys@@U?$TComparerBinaryHash@D@234@@75@ABUSFlags@libmedia@5@@Z 0040ee7d f    CIL library: CIL module
 0001:0000de87       __unwindfunclet$?open@RBinArchiveFrame@stdlib@media@modules@UModSys@@UAE_NPAUIClient@IBinArchiveFrame@libmedia@5@PBUSParameters@core@5@@Z$0 0040ee87 f    CIL library: CIL module
 0001:0000de8f       __unwindfunclet$?open@RBinArchiveFrame@stdlib@media@modules@UModSys@@UAE_NPAUIClient@IBinArchiveFrame@libmedia@5@PBUSParameters@core@5@@Z$1 0040ee8f f    CIL library: CIL module
 0001:0000de97       __unwindfunclet$?open@RBinArchiveFrame@stdlib@media@modules@UModSys@@UAE_NPAUIClient@IBinArchiveFrame@libmedia@5@PBUSParameters@core@5@@Z$2 0040ee97 f    CIL library: CIL module
 0001:0000de9f       __ehhandler$?open@RBinArchiveFrame@stdlib@media@modules@UModSys@@UAE_NPAUIClient@IBinArchiveFrame@libmedia@5@PBUSParameters@core@5@@Z 0040ee9f f    CIL library: CIL module
 0001:0000dea9       __unwindfunclet$??1SFileInfo@libmedia@UModSys@@QAE@XZ$0 0040eea9 f    CIL library: CIL module
 0001:0000deb1       __unwindfunclet$??1SFileInfo@libmedia@UModSys@@QAE@XZ$1 0040eeb1 f    CIL library: CIL module
 0001:0000debc       __ehhandler$??1SFileInfo@libmedia@UModSys@@QAE@XZ 0040eebc f    CIL library: CIL module
 0001:0000dec6       __unwindfunclet$?data_writer@RDataArchiver_OsDir@stdio@media@modules@UModSys@@UAE?AU?$TRefObject@UIStreamWriter@libmedia@UModSys@@U?$TRefObjectFunc@UIStreamWriter@libmedia@UModSys@@@tl@3@@tl@5@ABU?$TString@U?$TSCoreConst@D@su@tl@UModSys@@U?$TComparerBinaryHash@D@234@@75@ABUSFlags@libmedia@5@@Z$1 0040eec6 f    CIL library: CIL module
 0001:0000dece       __unwindfunclet$?data_writer@RDataArchiver_OsDir@stdio@media@modules@UModSys@@UAE?AU?$TRefObject@UIStreamWriter@libmedia@UModSys@@U?$TRefObjectFunc@UIStreamWriter@libmedia@UModSys@@@tl@3@@tl@5@ABU?$TString@U?$TSCoreConst@D@su@tl@UModSys@@U?$TComparerBinaryHash@D@234@@75@ABUSFlags@libmedia@5@@Z$2 0040eece f    CIL library: CIL module
 0001:0000ded9       __unwindfunclet$?data_writer@RDataArchiver_OsDir@stdio@media@modules@UModSys@@UAE?AU?$TRefObject@UIStreamWriter@libmedia@UModSys@@U?$TRefObjectFunc@UIStreamWriter@libmedia@UModSys@@@tl@3@@tl@5@ABU?$TString@U?$TSCoreConst@D@su@tl@UModSys@@U?$TComparerBinaryHash@D@234@@75@ABUSFlags@libmedia@5@@Z$0 0040eed9 f    CIL library: CIL module
 0001:0000def2       __ehhandler$?data_writer@RDataArchiver_OsDir@stdio@media@modules@UModSys@@UAE?AU?$TRefObject@UIStreamWriter@libmedia@UModSys@@U?$TRefObjectFunc@UIStreamWriter@libmedia@UModSys@@@tl@3@@tl@5@ABU?$TString@U?$TSCoreConst@D@su@tl@UModSys@@U?$TComparerBinaryHash@D@234@@75@ABUSFlags@libmedia@5@@Z 0040eef2 f    CIL library: CIL module
 0001:0000defc       __unwindfunclet$?data_reader@RDataArchiver_OsDir@stdio@media@modules@UModSys@@UAE?AU?$TRefObject@UIStreamReader@libmedia@UModSys@@U?$TRefObjectFunc@UIStreamReader@libmedia@UModSys@@@tl@3@@tl@5@ABU?$TString@U?$TSCoreConst@D@su@tl@UModSys@@U?$TComparerBinaryHash@D@234@@75@ABUSFlags@libmedia@5@@Z$1 0040eefc f    CIL library: CIL module
 0001:0000df04       __unwindfunclet$?data_reader@RDataArchiver_OsDir@stdio@media@modules@UModSys@@UAE?AU?$TRefObject@UIStreamReader@libmedia@UModSys@@U?$TRefObjectFunc@UIStreamReader@libmedia@UModSys@@@tl@3@@tl@5@ABU?$TString@U?$TSCoreConst@D@su@tl@UModSys@@U?$TComparerBinaryHash@D@234@@75@ABUSFlags@libmedia@5@@Z$2 0040ef04 f    CIL library: CIL module
 0001:0000df0f       __unwindfunclet$?data_reader@RDataArchiver_OsDir@stdio@media@modules@UModSys@@UAE?AU?$TRefObject@UIStreamReader@libmedia@UModSys@@U?$TRefObjectFunc@UIStreamReader@libmedia@UModSys@@@tl@3@@tl@5@ABU?$TString@U?$TSCoreConst@D@su@tl@UModSys@@U?$TComparerBinaryHash@D@234@@75@ABUSFlags@libmedia@5@@Z$0 0040ef0f f    CIL library: CIL module
 0001:0000df28       __ehhandler$?data_reader@RDataArchiver_OsDir@stdio@media@modules@UModSys@@UAE?AU?$TRefObject@UIStreamReader@libmedia@UModSys@@U?$TRefObjectFunc@UIStreamReader@libmedia@UModSys@@@tl@3@@tl@5@ABU?$TString@U?$TSCoreConst@D@su@tl@UModSys@@U?$TComparerBinaryHash@D@234@@75@ABUSFlags@libmedia@5@@Z 0040ef28 f    CIL library: CIL module
 0001:0000df32       __unwindfunclet$??0RDataArchiver_OsDir@stdio@media@modules@UModSys@@QAE@PAUIModObject@base@4@ABUSParameters@core@4@U?$TFlags4State@USMediaFlagUid@libmedia@UModSys@@I@tl@4@@Z$0 0040ef32 f    CIL library: CIL module
 0001:0000df3b       __unwindfunclet$??0RDataArchiver_OsDir@stdio@media@modules@UModSys@@QAE@PAUIModObject@base@4@ABUSParameters@core@4@U?$TFlags4State@USMediaFlagUid@libmedia@UModSys@@I@tl@4@@Z$1 0040ef3b f    CIL library: CIL module
 0001:0000df46       __ehhandler$??0RDataArchiver_OsDir@stdio@media@modules@UModSys@@QAE@PAUIModObject@base@4@ABUSParameters@core@4@U?$TFlags4State@USMediaFlagUid@libmedia@UModSys@@I@tl@4@@Z 0040ef46 f    CIL library: CIL module
 0001:0000df50       __unwindfunclet$??_GRStreamWriter_FILE@stdio@media@modules@UModSys@@UAEPAXI@Z$0 0040ef50 f    CIL library: CIL module
 0001:0000df58       __ehhandler$??_GRStreamWriter_FILE@stdio@media@modules@UModSys@@UAEPAXI@Z 0040ef58 f    CIL library: CIL module
 0001:0000df62       __unwindfunclet$??0RModule@rsystem@base@UModSys@@QAE@PAUIModuleLibraryUni@123@PAUIModuleReg@23@@Z$0 0040ef62 f    CIL library: CIL module
 0001:0000df6a       __unwindfunclet$??0RModule@rsystem@base@UModSys@@QAE@PAUIModuleLibraryUni@123@PAUIModuleReg@23@@Z$1 0040ef6a f    CIL library: CIL module
 0001:0000df75       __unwindfunclet$??0RModule@rsystem@base@UModSys@@QAE@PAUIModuleLibraryUni@123@PAUIModuleReg@23@@Z$2 0040ef75 f    CIL library: CIL module
 0001:0000df80       __unwindfunclet$??0RModule@rsystem@base@UModSys@@QAE@PAUIModuleLibraryUni@123@PAUIModuleReg@23@@Z$3 0040ef80 f    CIL library: CIL module
 0001:0000df8b       __ehhandler$??0RModule@rsystem@base@UModSys@@QAE@PAUIModuleLibraryUni@123@PAUIModuleReg@23@@Z 0040ef8b f    CIL library: CIL module
 0001:0000df95       __unwindfunclet$?link@IModuleLibraryUni@rsystem@base@UModSys@@QAE_NXZ$0 0040ef95 f    CIL library: CIL module
 0001:0000dfa0       __ehhandler$?link@IModuleLibraryUni@rsystem@base@UModSys@@QAE_NXZ 0040efa0 f    CIL library: CIL module
 0001:0000dfaa       __unwindfunclet$?exec_test_shells@RSystem@rsystem@base@UModSys@@QAE_NXZ$0 0040efaa f    CIL library: CIL module
 0001:0000dfb5       __unwindfunclet$?exec_test_shells@RSystem@rsystem@base@UModSys@@QAE_NXZ$1 0040efb5 f    CIL library: CIL module
 0001:0000dfc0       __ehhandler$?exec_test_shells@RSystem@rsystem@base@UModSys@@QAE_NXZ 0040efc0 f    CIL library: CIL module
 0001:0000dfca       __unwindfunclet$?obj_save@RLibraryLayered@stdlib@media@modules@UModSys@@UAE_NABU?$TString@U?$TSCoreConst@D@su@tl@UModSys@@U?$TComparerBinaryHash@D@234@@tl@5@PBUIRefObject@core@5@ABUSObjOptions@ILibrary@libmedia@5@@Z$0 0040efca f    CIL library: CIL module
 0001:0000dfd2       __ehhandler$?obj_save@RLibraryLayered@stdlib@media@modules@UModSys@@UAE_NABU?$TString@U?$TSCoreConst@D@su@tl@UModSys@@U?$TComparerBinaryHash@D@234@@tl@5@PBUIRefObject@core@5@ABUSObjOptions@ILibrary@libmedia@5@@Z 0040efd2 f    CIL library: CIL module
 0001:0000dfdc       __unwindfunclet$?obj_load@RLibraryLayered@stdlib@media@modules@UModSys@@UAE_NABU?$TString@U?$TSCoreConst@D@su@tl@UModSys@@U?$TComparerBinaryHash@D@234@@tl@5@PAUIRefObject@core@5@ABUSObjOptions@ILibrary@libmedia@5@@Z$0 0040efdc f    CIL library: CIL module
 0001:0000dfe4       __ehhandler$?obj_load@RLibraryLayered@stdlib@media@modules@UModSys@@UAE_NABU?$TString@U?$TSCoreConst@D@su@tl@UModSys@@U?$TComparerBinaryHash@D@234@@tl@5@PAUIRefObject@core@5@ABUSObjOptions@ILibrary@libmedia@5@@Z 0040efe4 f    CIL library: CIL module
 0001:0000dfee       __unwindfunclet$??_GRLibraryBinCache@stdlib@media@modules@UModSys@@UAEPAXI@Z$0 0040efee f    CIL library: CIL module
 0001:0000dfee       __unwindfunclet$??_GRLibraryObjFilter@stdlib@media@modules@UModSys@@UAEPAXI@Z$0 0040efee f    CIL library: CIL module
 0001:0000dfee       __unwindfunclet$??_GRLibraryBinTree@stdlib@media@modules@UModSys@@UAEPAXI@Z$0 0040efee f    CIL library: CIL module
 0001:0000dfee       __unwindfunclet$??_GRLibraryObjCache@stdlib@media@modules@UModSys@@UAEPAXI@Z$0 0040efee f    CIL library: CIL module
 0001:0000dfee       __unwindfunclet$??_GRDataArchiver_OsDir@stdio@media@modules@UModSys@@UAEPAXI@Z$0 0040efee f    CIL library: CIL module
 0001:0000dff7       __ehhandler$??_GRDataArchiver_OsDir@stdio@media@modules@UModSys@@UAEPAXI@Z 0040eff7 f    CIL library: CIL module
 0001:0000dff7       __ehhandler$??_GRLibraryBinCache@stdlib@media@modules@UModSys@@UAEPAXI@Z 0040eff7 f    CIL library: CIL module
 0001:0000dff7       __ehhandler$??_GRLibraryObjFilter@stdlib@media@modules@UModSys@@UAEPAXI@Z 0040eff7 f    CIL library: CIL module
 0001:0000dff7       __ehhandler$??_GRLibraryBinTree@stdlib@media@modules@UModSys@@UAEPAXI@Z 0040eff7 f    CIL library: CIL module
 0001:0000dff7       __ehhandler$??_GRLibraryObjCache@stdlib@media@modules@UModSys@@UAEPAXI@Z 0040eff7 f    CIL library: CIL module
 0001:0000e001       __unwindfunclet$?objcache_add@RLibraryObjCache@stdlib@media@modules@UModSys@@UAE_NABU?$TString@U?$TSCoreConst@D@su@tl@UModSys@@U?$TComparerBinaryHash@D@234@@tl@5@PAUIRefObject@core@5@@Z$0 0040f001 f    CIL library: CIL module
 0001:0000e001       __unwindfunclet$?bincache_add@RLibraryBinCache@stdlib@media@modules@UModSys@@QAE_NABU?$TString@U?$TSCoreConst@D@su@tl@UModSys@@U?$TComparerBinaryHash@D@234@@tl@5@ABUSCMemShared@core@5@_N@Z$0 0040f001 f    CIL library: CIL module
 0001:0000e001       __unwindfunclet$?fill_info@RBinArchiveFrame@stdlib@media@modules@UModSys@@QAE_NAAUSFileInfo@libmedia@5@PAUNameNode@IBinArchiveFrame@75@ABU?$TString@U?$TSCoreConst@D@su@tl@UModSys@@U?$TComparerBinaryHash@D@234@@tl@5@I@Z$0 0040f001 f    CIL library: CIL module
 0001:0000e009       __ehhandler$?objcache_add@RLibraryObjCache@stdlib@media@modules@UModSys@@UAE_NABU?$TString@U?$TSCoreConst@D@su@tl@UModSys@@U?$TComparerBinaryHash@D@234@@tl@5@PAUIRefObject@core@5@@Z 0040f009 f    CIL library: CIL module
 0001:0000e009       __ehhandler$?bincache_add@RLibraryBinCache@stdlib@media@modules@UModSys@@QAE_NABU?$TString@U?$TSCoreConst@D@su@tl@UModSys@@U?$TComparerBinaryHash@D@234@@tl@5@ABUSCMemShared@core@5@_N@Z 0040f009 f    CIL library: CIL module
 0001:0000e009       __ehhandler$?fill_info@RBinArchiveFrame@stdlib@media@modules@UModSys@@QAE_NAAUSFileInfo@libmedia@5@PAUNameNode@IBinArchiveFrame@75@ABU?$TString@U?$TSCoreConst@D@su@tl@UModSys@@U?$TComparerBinaryHash@D@234@@tl@5@I@Z 0040f009 f    CIL library: CIL module
 0001:0000e013       __unwindfunclet$?data_list@RBinArchiveFrame@stdlib@media@modules@UModSys@@UAE_NABU?$TString@U?$TSCoreConst@D@su@tl@UModSys@@U?$TComparerBinaryHash@D@234@@tl@5@IAAU?$TIStackSocket@USFileInfo@libmedia@UModSys@@@75@ABUSFlags@libmedia@5@@Z$0 0040f013 f    CIL library: CIL module
 0001:0000e01d       __ehhandler$?data_list@RBinArchiveFrame@stdlib@media@modules@UModSys@@UAE_NABU?$TString@U?$TSCoreConst@D@su@tl@UModSys@@U?$TComparerBinaryHash@D@234@@tl@5@IAAU?$TIStackSocket@USFileInfo@libmedia@UModSys@@@75@ABUSFlags@libmedia@5@@Z 0040f01d f    CIL library: CIL module
 0001:0000e027       __unwindfunclet$??$t_gen_param@URDataArchiver_OsDir@stdio@media@modules@UModSys@@URGenerator@2345@@IGenerator@base@UModSys@@IAE_NPAURGenerator@stdio@media@modules@2@AAU?$TRefObject@UIRefObject@core@UModSys@@U?$TRefObjectFunc@UIRefObject@core@UModSys@@@tl@3@@tl@2@PBUSUniquePointerInfo@core@2@ABUSParameters@core@2@@Z$0 0040f027 f    CIL library: CIL module
 0001:0000e027       __unwindfunclet$??$t_gen_param@URStreamReader_FILE@stdio@media@modules@UModSys@@URGenerator@2345@@IGenerator@base@UModSys@@IAE_NPAURGenerator@stdio@media@modules@2@AAU?$TRefObject@UIRefObject@core@UModSys@@U?$TRefObjectFunc@UIRefObject@core@UModSys@@@tl@3@@tl@2@PBUSUniquePointerInfo@core@2@ABUSParameters@core@2@@Z$0 0040f027 f    CIL library: CIL module
 0001:0000e027       __unwindfunclet$??$t_gen_param@URStreamWriter_FILE@stdio@media@modules@UModSys@@URGenerator@2345@@IGenerator@base@UModSys@@IAE_NPAURGenerator@stdio@media@modules@2@AAU?$TRefObject@UIRefObject@core@UModSys@@U?$TRefObjectFunc@UIRefObject@core@UModSys@@@tl@3@@tl@2@PBUSUniquePointerInfo@core@2@ABUSParameters@core@2@@Z$0 0040f027 f    CIL library: CIL module
 0001:0000e032       __unwindfunclet$??$t_gen_param@URStreamReader_FILE@stdio@media@modules@UModSys@@URGenerator@2345@@IGenerator@base@UModSys@@IAE_NPAURGenerator@stdio@media@modules@2@AAU?$TRefObject@UIRefObject@core@UModSys@@U?$TRefObjectFunc@UIRefObject@core@UModSys@@@tl@3@@tl@2@PBUSUniquePointerInfo@core@2@ABUSParameters@core@2@@Z$1 0040f032 f    CIL library: CIL module
 0001:0000e032       __unwindfunclet$??$t_gen_param@URStreamWriter_FILE@stdio@media@modules@UModSys@@URGenerator@2345@@IGenerator@base@UModSys@@IAE_NPAURGenerator@stdio@media@modules@2@AAU?$TRefObject@UIRefObject@core@UModSys@@U?$TRefObjectFunc@UIRefObject@core@UModSys@@@tl@3@@tl@2@PBUSUniquePointerInfo@core@2@ABUSParameters@core@2@@Z$1 0040f032 f    CIL library: CIL module
 0001:0000e032       __unwindfunclet$??$t_gen_param@URDataArchiver_OsDir@stdio@media@modules@UModSys@@URGenerator@2345@@IGenerator@base@UModSys@@IAE_NPAURGenerator@stdio@media@modules@2@AAU?$TRefObject@UIRefObject@core@UModSys@@U?$TRefObjectFunc@UIRefObject@core@UModSys@@@tl@3@@tl@2@PBUSUniquePointerInfo@core@2@ABUSParameters@core@2@@Z$1 0040f032 f    CIL library: CIL module
 0001:0000e03a       __ehhandler$??$t_gen_param@URStreamWriter_FILE@stdio@media@modules@UModSys@@URGenerator@2345@@IGenerator@base@UModSys@@IAE_NPAURGenerator@stdio@media@modules@2@AAU?$TRefObject@UIRefObject@core@UModSys@@U?$TRefObjectFunc@UIRefObject@core@UModSys@@@tl@3@@tl@2@PBUSUniquePointerInfo@core@2@ABUSParameters@core@2@@Z 0040f03a f    CIL library: CIL module
 0001:0000e03a       __ehhandler$??$t_gen_param@URStreamReader_FILE@stdio@media@modules@UModSys@@URGenerator@2345@@IGenerator@base@UModSys@@IAE_NPAURGenerator@stdio@media@modules@2@AAU?$TRefObject@UIRefObject@core@UModSys@@U?$TRefObjectFunc@UIRefObject@core@UModSys@@@tl@3@@tl@2@PBUSUniquePointerInfo@core@2@ABUSParameters@core@2@@Z 0040f03a f    CIL library: CIL module
 0001:0000e03a       __ehhandler$??$t_gen_param@URDataArchiver_OsDir@stdio@media@modules@UModSys@@URGenerator@2345@@IGenerator@base@UModSys@@IAE_NPAURGenerator@stdio@media@modules@2@AAU?$TRefObject@UIRefObject@core@UModSys@@U?$TRefObjectFunc@UIRefObject@core@UModSys@@@tl@3@@tl@2@PBUSUniquePointerInfo@core@2@ABUSParameters@core@2@@Z 0040f03a f    CIL library: CIL module
 0001:0000e044       __unwindfunclet$?mem_free@?$TRMemAlloc_CC@U?$TMemAllocHeader@USMagic@mem_headers@rsystem@base@UModSys@@U?$TPool@X@2345@USDebug@2345@UVoid@core@5@U895@@rsystem@base@UModSys@@USMemAlloc_Malloc@core@4@@rsystem@base@UModSys@@UAEXPAXPBUSSourceContext@core@4@@Z$0 0040f044 f    CIL library: CIL module
 0001:0000e04c       __ehhandler$?mem_free@?$TRMemAlloc_CC@U?$TMemAllocHeader@USMagic@mem_headers@rsystem@base@UModSys@@U?$TPool@X@2345@USDebug@2345@UVoid@core@5@U895@@rsystem@base@UModSys@@USMemAlloc_Malloc@core@4@@rsystem@base@UModSys@@UAEXPAXPBUSSourceContext@core@4@@Z 0040f04c f    CIL library: CIL module
 0001:0000e056       __unwindfunclet$?mem_realloc@?$TRMemAlloc_CC@U?$TMemAllocHeader@USMagic@mem_headers@rsystem@base@UModSys@@U?$TPool@X@2345@USDebug@2345@UVoid@core@5@U895@@rsystem@base@UModSys@@USMemAlloc_Malloc@core@4@@rsystem@base@UModSys@@UAEPAXPAXIPBUSSourceContext@core@4@@Z$0 0040f056 f    CIL library: CIL module
 0001:0000e05e       __unwindfunclet$?mem_realloc@?$TRMemAlloc_CC@U?$TMemAllocHeader@USMagic@mem_headers@rsystem@base@UModSys@@U?$TPool@X@2345@USDebug@2345@UVoid@core@5@U895@@rsystem@base@UModSys@@USMemAlloc_Malloc@core@4@@rsystem@base@UModSys@@UAEPAXPAXIPBUSSourceContext@core@4@@Z$1 0040f05e f    CIL library: CIL module
 0001:0000e066       __ehhandler$?mem_realloc@?$TRMemAlloc_CC@U?$TMemAllocHeader@USMagic@mem_headers@rsystem@base@UModSys@@U?$TPool@X@2345@USDebug@2345@UVoid@core@5@U895@@rsystem@base@UModSys@@USMemAlloc_Malloc@core@4@@rsystem@base@UModSys@@UAEPAXPAXIPBUSSourceContext@core@4@@Z 0040f066 f    CIL library: CIL module
 0001:0000e070       __unwindfunclet$??0?$TScatterArrayNode@USCacheElem@RLibraryObjCache@stdlib@media@modules@UModSys@@U?$TString@U?$TSCoreConst@D@su@tl@UModSys@@U?$TComparerBinaryHash@D@234@@tl@6@@tl@UModSys@@QAE@ABU?$TString@U?$TSCoreConst@D@su@tl@UModSys@@U?$TComparerBinaryHash@D@234@@12@@Z$0 0040f070 f    CIL library: CIL module
 0001:0000e07a       __unwindfunclet$??0?$TScatterArrayNode@USCacheElem@RLibraryObjCache@stdlib@media@modules@UModSys@@U?$TString@U?$TSCoreConst@D@su@tl@UModSys@@U?$TComparerBinaryHash@D@234@@tl@6@@tl@UModSys@@QAE@ABU?$TString@U?$TSCoreConst@D@su@tl@UModSys@@U?$TComparerBinaryHash@D@234@@12@@Z$3 0040f07a f    CIL library: CIL module
 0001:0000e082       __unwindfunclet$??0?$TScatterArrayNode@USCacheElem@RLibraryObjCache@stdlib@media@modules@UModSys@@U?$TString@U?$TSCoreConst@D@su@tl@UModSys@@U?$TComparerBinaryHash@D@234@@tl@6@@tl@UModSys@@QAE@ABU?$TString@U?$TSCoreConst@D@su@tl@UModSys@@U?$TComparerBinaryHash@D@234@@12@@Z$1 0040f082 f    CIL library: CIL module
 0001:0000e08d       __ehhandler$??0?$TScatterArrayNode@USCacheElem@RLibraryObjCache@stdlib@media@modules@UModSys@@U?$TString@U?$TSCoreConst@D@su@tl@UModSys@@U?$TComparerBinaryHash@D@234@@tl@6@@tl@UModSys@@QAE@ABU?$TString@U?$TSCoreConst@D@su@tl@UModSys@@U?$TComparerBinaryHash@D@234@@12@@Z 0040f08d f    CIL library: CIL module
 0001:0000e097       __unwindfunclet$??0?$TScatterArrayNode@USCacheElem@RLibraryBinCache@stdlib@media@modules@UModSys@@U?$TString@U?$TSCoreConst@D@su@tl@UModSys@@U?$TComparerBinaryHash@D@234@@tl@6@@tl@UModSys@@QAE@ABU?$TString@U?$TSCoreConst@D@su@tl@UModSys@@U?$TComparerBinaryHash@D@234@@12@@Z$0 0040f097 f    CIL library: CIL module
 0001:0000e0a1       __unwindfunclet$??0?$TScatterArrayNode@USCacheElem@RLibraryBinCache@stdlib@media@modules@UModSys@@U?$TString@U?$TSCoreConst@D@su@tl@UModSys@@U?$TComparerBinaryHash@D@234@@tl@6@@tl@UModSys@@QAE@ABU?$TString@U?$TSCoreConst@D@su@tl@UModSys@@U?$TComparerBinaryHash@D@234@@12@@Z$3 0040f0a1 f    CIL library: CIL module
 0001:0000e0a9       __unwindfunclet$??0?$TScatterArrayNode@USCacheElem@RLibraryBinCache@stdlib@media@modules@UModSys@@U?$TString@U?$TSCoreConst@D@su@tl@UModSys@@U?$TComparerBinaryHash@D@234@@tl@6@@tl@UModSys@@QAE@ABU?$TString@U?$TSCoreConst@D@su@tl@UModSys@@U?$TComparerBinaryHash@D@234@@12@@Z$1 0040f0a9 f    CIL library: CIL module
 0001:0000e0b4       __ehhandler$??0?$TScatterArrayNode@USCacheElem@RLibraryBinCache@stdlib@media@modules@UModSys@@U?$TString@U?$TSCoreConst@D@su@tl@UModSys@@U?$TComparerBinaryHash@D@234@@tl@6@@tl@UModSys@@QAE@ABU?$TString@U?$TSCoreConst@D@su@tl@UModSys@@U?$TComparerBinaryHash@D@234@@12@@Z 0040f0b4 f    CIL library: CIL module
 0001:0000e0be       __unwindfunclet$??0?$TScatterArrayNode@USMountInfo@RLibraryBinTree@stdlib@media@modules@UModSys@@USId@ILibraryBinTree@libmedia@6@@tl@UModSys@@QAE@ABUSId@ILibraryBinTree@libmedia@2@@Z$0 0040f0be f    CIL library: CIL module
 0001:0000e0c8       __unwindfunclet$??0?$TScatterArrayNode@USMountInfo@RLibraryBinTree@stdlib@media@modules@UModSys@@USId@ILibraryBinTree@libmedia@6@@tl@UModSys@@QAE@ABUSId@ILibraryBinTree@libmedia@2@@Z$6 0040f0c8 f    CIL library: CIL module
 0001:0000e0d0       __unwindfunclet$??0?$TScatterArrayNode@USMountInfo@RLibraryBinTree@stdlib@media@modules@UModSys@@USId@ILibraryBinTree@libmedia@6@@tl@UModSys@@QAE@ABUSId@ILibraryBinTree@libmedia@2@@Z$1 0040f0d0 f    CIL library: CIL module
 0001:0000e0db       __ehhandler$??0?$TScatterArrayNode@USMountInfo@RLibraryBinTree@stdlib@media@modules@UModSys@@USId@ILibraryBinTree@libmedia@6@@tl@UModSys@@QAE@ABUSId@ILibraryBinTree@libmedia@2@@Z 0040f0db f    CIL library: CIL module
 0001:0000e0e5       __unwindfunclet$??$genx_node@UCmp@?$TScatterArray@USMountInfo@RLibraryBinTree@stdlib@media@modules@UModSys@@USId@ILibraryBinTree@libmedia@6@U7896@U?$TNodeDeleter0@U?$TScatterArrayNode@USMountInfo@RLibraryBinTree@stdlib@media@modules@UModSys@@USId@ILibraryBinTree@libmedia@6@@tl@UModSys@@@tl@6@@tl@UModSys@@UGen0@234@@?$TTreeHoldRBD@U?$TScatterArrayNode@USMountInfo@RLibraryBinTree@stdlib@media@modules@UModSys@@USId@ILibraryBinTree@libmedia@6@@tl@UModSys@@U?$TNodeDeleter0@U?$TScatterArrayNode@USMountInfo@RLibraryBinTree@stdlib@media@modules@UModSys@@USId@ILibraryBinTree@libmedia@6@@tl@UModSys@@@23@@tl@UModSys@@QAEPAU?$TScatterArrayNode@USMountInfo@RLibraryBinTree@stdlib@media@modules@UModSys@@USId@ILibraryBinTree@libmedia@6@@12@UCmp@?$TScatterArray@USMountInfo@RLibraryBinTree@stdlib@media@modules@UModSys@@USId@ILibraryBinTree@libmedia@6@U7896@U?$TNodeDeleter0@U?$TScatterArrayNode@USMountInfo@RLibraryBinTree@stdlib@media@modules@UModSys@@USId@ILibraryBinTree@libmedia@6@@tl@UModSys@@@tl@6@@12@ABUGen0@512@PAPAU312@2_N@Z$0 0040f0e5 f    CIL library: CIL module
 0001:0000e0e5       __unwindfunclet$?amoveleft@?$TTypeConstructor@USLayerX@RLibraryLayered@stdlib@media@modules@UModSys@@@tl@UModSys@@SAXPAUSLayerX@RLibraryLayered@stdlib@media@modules@3@III@Z$0 0040f0e5 f    CIL library: CIL module
 0001:0000e0e5       __unwindfunclet$??$genx_node@UCmp@?$TScatterArray@USCacheElem@RLibraryBinCache@stdlib@media@modules@UModSys@@U?$TString@U?$TSCoreConst@D@su@tl@UModSys@@U?$TComparerBinaryHash@D@234@@tl@6@U?$TObjectCompare@U?$TString@U?$TSCoreConst@D@su@tl@UModSys@@U?$TComparerBinaryHash@D@234@@tl@UModSys@@@core@6@U?$TNodeDeleter0@U?$TScatterArrayNode@USCacheElem@RLibraryBinCache@stdlib@media@modules@UModSys@@U?$TString@U?$TSCoreConst@D@su@tl@UModSys@@U?$TComparerBinaryHash@D@234@@tl@6@@tl@UModSys@@@86@@tl@UModSys@@UGen0@234@@?$TTreeHoldRBD@U?$TScatterArrayNode@USCacheElem@RLibraryBinCache@stdlib@media@modules@UModSys@@U?$TString@U?$TSCoreConst@D@su@tl@UModSys@@U?$TComparerBinaryHash@D@234@@tl@6@@tl@UModSys@@U?$TNodeDeleter0@U?$TScatterArrayNode@USCacheElem@RLibraryBinCache@stdlib@media@modules@UModSys@@U?$TString@U?$TSCoreConst@D@su@tl@UModSys@@U?$TComparerBinaryHash@D@234@@tl@6@@tl@UModSys@@@23@@tl@UModSys@@QAEPAU?$TScatterArrayNode@USCacheElem@RLibraryBinCache@stdlib@media@modules@UModSys@@U?$TString@U?$TSCoreConst@D@su@tl@UModSys@@U?$TComparerBinaryHash@D@234@@tl@6@@12@UCmp@?$TScatterArray@USCacheElem@RLibraryBinCache@stdlib@media@modules@UModSys@@U?$TString@U?$TSCoreConst@D@su@tl@UModSys@@U?$TComparerBinaryHash@D@234@@tl@6@U?$TObjectCompare@U?$TString@U?$TSCoreConst@D@su@tl@UModSys@@U?$TComparerBinaryHash@D@234@@tl@UModSys@@@core@6@U?$TNodeDeleter0@U?$TScatterArrayNode@USCacheElem@RLibraryBinCache@stdlib@media@modules@UModSys@@U?$TString@U?$TSCoreConst@D@su@tl@UModSys@@U?$TComparerBinaryHash@D@234@@tl@6@@tl@UModSys@@@86@@12@ABUGen0@512@PAPAU312@2_N@Z$0 0040f0e5 f    CIL library: CIL module
 0001:0000e0e5       __unwindfunclet$??$genx_node@UCmp@?$TScatterArray@USCacheElem@RLibraryObjCache@stdlib@media@modules@UModSys@@U?$TString@U?$TSCoreConst@D@su@tl@UModSys@@U?$TComparerBinaryHash@D@234@@tl@6@U?$TObjectCompare@U?$TString@U?$TSCoreConst@D@su@tl@UModSys@@U?$TComparerBinaryHash@D@234@@tl@UModSys@@@core@6@U?$TNodeDeleter0@U?$TScatterArrayNode@USCacheElem@RLibraryObjCache@stdlib@media@modules@UModSys@@U?$TString@U?$TSCoreConst@D@su@tl@UModSys@@U?$TComparerBinaryHash@D@234@@tl@6@@tl@UModSys@@@86@@tl@UModSys@@UGen0@234@@?$TTreeHoldRBD@U?$TScatterArrayNode@USCacheElem@RLibraryObjCache@stdlib@media@modules@UModSys@@U?$TString@U?$TSCoreConst@D@su@tl@UModSys@@U?$TComparerBinaryHash@D@234@@tl@6@@tl@UModSys@@U?$TNodeDeleter0@U?$TScatterArrayNode@USCacheElem@RLibraryObjCache@stdlib@media@modules@UModSys@@U?$TString@U?$TSCoreConst@D@su@tl@UModSys@@U?$TComparerBinaryHash@D@234@@tl@6@@tl@UModSys@@@23@@tl@UModSys@@QAEPAU?$TScatterArrayNode@USCacheElem@RLibraryObjCache@stdlib@media@modules@UModSys@@U?$TString@U?$TSCoreConst@D@su@tl@UModSys@@U?$TComparerBinaryHash@D@234@@tl@6@@12@UCmp@?$TScatterArray@USCacheElem@RLibraryObjCache@stdlib@media@modules@UModSys@@U?$TString@U?$TSCoreConst@D@su@tl@UModSys@@U?$TComparerBinaryHash@D@234@@tl@6@U?$TObjectCompare@U?$TString@U?$TSCoreConst@D@su@tl@UModSys@@U?$TComparerBinaryHash@D@234@@tl@UModSys@@@core@6@U?$TNodeDeleter0@U?$TScatterArrayNode@USCacheElem@RLibraryObjCache@stdlib@media@modules@UModSys@@U?$TString@U?$TSCoreConst@D@su@tl@UModSys@@U?$TComparerBinaryHash@D@234@@tl@6@@tl@UModSys@@@86@@12@ABUGen0@512@PAPAU312@2_N@Z$0 0040f0e5 f    CIL library: CIL module
 0001:0000e0e5       __unwindfunclet$?amoveright@?$TTypeConstructor@USLayerX@RLibraryLayered@stdlib@media@modules@UModSys@@@tl@UModSys@@SAXPAUSLayerX@RLibraryLayered@stdlib@media@modules@3@III@Z$0 0040f0e5 f    CIL library: CIL module
 0001:0000e0ea       __ehhandler$??$genx_node@UCmp@?$TScatterArray@USMountInfo@RLibraryBinTree@stdlib@media@modules@UModSys@@USId@ILibraryBinTree@libmedia@6@U7896@U?$TNodeDeleter0@U?$TScatterArrayNode@USMountInfo@RLibraryBinTree@stdlib@media@modules@UModSys@@USId@ILibraryBinTree@libmedia@6@@tl@UModSys@@@tl@6@@tl@UModSys@@UGen0@234@@?$TTreeHoldRBD@U?$TScatterArrayNode@USMountInfo@RLibraryBinTree@stdlib@media@modules@UModSys@@USId@ILibraryBinTree@libmedia@6@@tl@UModSys@@U?$TNodeDeleter0@U?$TScatterArrayNode@USMountInfo@RLibraryBinTree@stdlib@media@modules@UModSys@@USId@ILibraryBinTree@libmedia@6@@tl@UModSys@@@23@@tl@UModSys@@QAEPAU?$TScatterArrayNode@USMountInfo@RLibraryBinTree@stdlib@media@modules@UModSys@@USId@ILibraryBinTree@libmedia@6@@12@UCmp@?$TScatterArray@USMountInfo@RLibraryBinTree@stdlib@media@modules@UModSys@@USId@ILibraryBinTree@libmedia@6@U7896@U?$TNodeDeleter0@U?$TScatterArrayNode@USMountInfo@RLibraryBinTree@stdlib@media@modules@UModSys@@USId@ILibraryBinTree@libmedia@6@@tl@UModSys@@@tl@6@@12@ABUGen0@512@PAPAU312@2_N@Z 0040f0ea f    CIL library: CIL module
 0001:0000e0ea       __ehhandler$??$genx_node@UCmp@?$TScatterArray@USCacheElem@RLibraryBinCache@stdlib@media@modules@UModSys@@U?$TString@U?$TSCoreConst@D@su@tl@UModSys@@U?$TComparerBinaryHash@D@234@@tl@6@U?$TObjectCompare@U?$TString@U?$TSCoreConst@D@su@tl@UModSys@@U?$TComparerBinaryHash@D@234@@tl@UModSys@@@core@6@U?$TNodeDeleter0@U?$TScatterArrayNode@USCacheElem@RLibraryBinCache@stdlib@media@modules@UModSys@@U?$TString@U?$TSCoreConst@D@su@tl@UModSys@@U?$TComparerBinaryHash@D@234@@tl@6@@tl@UModSys@@@86@@tl@UModSys@@UGen0@234@@?$TTreeHoldRBD@U?$TScatterArrayNode@USCacheElem@RLibraryBinCache@stdlib@media@modules@UModSys@@U?$TString@U?$TSCoreConst@D@su@tl@UModSys@@U?$TComparerBinaryHash@D@234@@tl@6@@tl@UModSys@@U?$TNodeDeleter0@U?$TScatterArrayNode@USCacheElem@RLibraryBinCache@stdlib@media@modules@UModSys@@U?$TString@U?$TSCoreConst@D@su@tl@UModSys@@U?$TComparerBinaryHash@D@234@@tl@6@@tl@UModSys@@@23@@tl@UModSys@@QAEPAU?$TScatterArrayNode@USCacheElem@RLibraryBinCache@stdlib@media@modules@UModSys@@U?$TString@U?$TSCoreConst@D@su@tl@UModSys@@U?$TComparerBinaryHash@D@234@@tl@6@@12@UCmp@?$TScatterArray@USCacheElem@RLibraryBinCache@stdlib@media@modules@UModSys@@U?$TString@U?$TSCoreConst@D@su@tl@UModSys@@U?$TComparerBinaryHash@D@234@@tl@6@U?$TObjectCompare@U?$TString@U?$TSCoreConst@D@su@tl@UModSys@@U?$TComparerBinaryHash@D@234@@tl@UModSys@@@core@6@U?$TNodeDeleter0@U?$TScatterArrayNode@USCacheElem@RLibraryBinCache@stdlib@media@modules@UModSys@@U?$TString@U?$TSCoreConst@D@su@tl@UModSys@@U?$TComparerBinaryHash@D@234@@tl@6@@tl@UModSys@@@86@@12@ABUGen0@512@PAPAU312@2_N@Z 0040f0ea f    CIL library: CIL module
 0001:0000e0ea       __ehhandler$?amoveright@?$TTypeConstructor@USLayerX@RLibraryLayered@stdlib@media@modules@UModSys@@@tl@UModSys@@SAXPAUSLayerX@RLibraryLayered@stdlib@media@modules@3@III@Z 0040f0ea f    CIL library: CIL module
 0001:0000e0ea       __ehhandler$??$genx_node@UCmp@?$TScatterArray@USCacheElem@RLibraryObjCache@stdlib@media@modules@UModSys@@U?$TString@U?$TSCoreConst@D@su@tl@UModSys@@U?$TComparerBinaryHash@D@234@@tl@6@U?$TObjectCompare@U?$TString@U?$TSCoreConst@D@su@tl@UModSys@@U?$TComparerBinaryHash@D@234@@tl@UModSys@@@core@6@U?$TNodeDeleter0@U?$TScatterArrayNode@USCacheElem@RLibraryObjCache@stdlib@media@modules@UModSys@@U?$TString@U?$TSCoreConst@D@su@tl@UModSys@@U?$TComparerBinaryHash@D@234@@tl@6@@tl@UModSys@@@86@@tl@UModSys@@UGen0@234@@?$TTreeHoldRBD@U?$TScatterArrayNode@USCacheElem@RLibraryObjCache@stdlib@media@modules@UModSys@@U?$TString@U?$TSCoreConst@D@su@tl@UModSys@@U?$TComparerBinaryHash@D@234@@tl@6@@tl@UModSys@@U?$TNodeDeleter0@U?$TScatterArrayNode@USCacheElem@RLibraryObjCache@stdlib@media@modules@UModSys@@U?$TString@U?$TSCoreConst@D@su@tl@UModSys@@U?$TComparerBinaryHash@D@234@@tl@6@@tl@UModSys@@@23@@tl@UModSys@@QAEPAU?$TScatterArrayNode@USCacheElem@RLibraryObjCache@stdlib@media@modules@UModSys@@U?$TString@U?$TSCoreConst@D@su@tl@UModSys@@U?$TComparerBinaryHash@D@234@@tl@6@@12@UCmp@?$TScatterArray@USCacheElem@RLibraryObjCache@stdlib@media@modules@UModSys@@U?$TString@U?$TSCoreConst@D@su@tl@UModSys@@U?$TComparerBinaryHash@D@234@@tl@6@U?$TObjectCompare@U?$TString@U?$TSCoreConst@D@su@tl@UModSys@@U?$TComparerBinaryHash@D@234@@tl@UModSys@@@core@6@U?$TNodeDeleter0@U?$TScatterArrayNode@USCacheElem@RLibraryObjCache@stdlib@media@modules@UModSys@@U?$TString@U?$TSCoreConst@D@su@tl@UModSys@@U?$TComparerBinaryHash@D@234@@tl@6@@tl@UModSys@@@86@@12@ABUGen0@512@PAPAU312@2_N@Z 0040f0ea f    CIL library: CIL module
 0001:0000e0ea       __ehhandler$?amoveleft@?$TTypeConstructor@USLayerX@RLibraryLayered@stdlib@media@modules@UModSys@@@tl@UModSys@@SAXPAUSLayerX@RLibraryLayered@stdlib@media@modules@3@III@Z 0040f0ea f    CIL library: CIL module
 0001:0000e0f4       __unwindfunclet$??0RLibraryObjFilter@stdlib@media@modules@UModSys@@QAE@PAUIModObject@base@4@ABUSParameters@core@4@U?$TFlags4State@USMediaFlagUid@libmedia@UModSys@@I@tl@4@@Z$0 0040f0f4 f    CIL library: CIL module
 0001:0000e0f4       __unwindfunclet$??0RLibraryObjCache@stdlib@media@modules@UModSys@@QAE@PAUIModObject@base@4@ABUSParameters@core@4@U?$TFlags4State@USMediaFlagUid@libmedia@UModSys@@I@tl@4@@Z$0 0040f0f4 f    CIL library: CIL module
 0001:0000e0f4       __unwindfunclet$??0RLibraryBinTree@stdlib@media@modules@UModSys@@QAE@PAUIModObject@base@4@ABUSParameters@core@4@U?$TFlags4State@USMediaFlagUid@libmedia@UModSys@@I@tl@4@@Z$0 0040f0f4 f    CIL library: CIL module
 0001:0000e0f4       __unwindfunclet$??0RLibraryBinCache@stdlib@media@modules@UModSys@@QAE@PAUIModObject@base@4@ABUSParameters@core@4@U?$TFlags4State@USMediaFlagUid@libmedia@UModSys@@I@tl@4@@Z$0 0040f0f4 f    CIL library: CIL module
 0001:0000e0f4       __unwindfunclet$??0RLibraryLayered@stdlib@media@modules@UModSys@@QAE@PAUIModObject@base@4@ABUSParameters@core@4@U?$TFlags4State@USMediaFlagUid@libmedia@UModSys@@I@tl@4@@Z$0 0040f0f4 f    CIL library: CIL module
 0001:0000e0fd       __ehhandler$??0RLibraryObjFilter@stdlib@media@modules@UModSys@@QAE@PAUIModObject@base@4@ABUSParameters@core@4@U?$TFlags4State@USMediaFlagUid@libmedia@UModSys@@I@tl@4@@Z 0040f0fd f    CIL library: CIL module
 0001:0000e0fd       __ehhandler$??0RLibraryObjCache@stdlib@media@modules@UModSys@@QAE@PAUIModObject@base@4@ABUSParameters@core@4@U?$TFlags4State@USMediaFlagUid@libmedia@UModSys@@I@tl@4@@Z 0040f0fd f    CIL library: CIL module
 0001:0000e0fd       __ehhandler$??0RLibraryBinTree@stdlib@media@modules@UModSys@@QAE@PAUIModObject@base@4@ABUSParameters@core@4@U?$TFlags4State@USMediaFlagUid@libmedia@UModSys@@I@tl@4@@Z 0040f0fd f    CIL library: CIL module
 0001:0000e0fd       __ehhandler$??0RLibraryBinCache@stdlib@media@modules@UModSys@@QAE@PAUIModObject@base@4@ABUSParameters@core@4@U?$TFlags4State@USMediaFlagUid@libmedia@UModSys@@I@tl@4@@Z 0040f0fd f    CIL library: CIL module
 0001:0000e0fd       __ehhandler$??0RLibraryLayered@stdlib@media@modules@UModSys@@QAE@PAUIModObject@base@4@ABUSParameters@core@4@U?$TFlags4State@USMediaFlagUid@libmedia@UModSys@@I@tl@4@@Z 0040f0fd f    CIL library: CIL module
 0001:0000e107       __unwindfunclet$?bincache_add@RLibraryBinCache@stdlib@media@modules@UModSys@@UAE_NABU?$TString@U?$TSCoreConst@D@su@tl@UModSys@@U?$TComparerBinaryHash@D@234@@tl@5@@Z$0 0040f107 f    CIL library: CIL module
 0001:0000e10f       __ehhandler$?bincache_add@RLibraryBinCache@stdlib@media@modules@UModSys@@UAE_NABU?$TString@U?$TSCoreConst@D@su@tl@UModSys@@U?$TComparerBinaryHash@D@234@@tl@5@@Z 0040f10f f    CIL library: CIL module
 0001:0000e119       __unwindfunclet$?mount_add@RLibraryBinTree@stdlib@media@modules@UModSys@@UAE_NABUSId@ILibraryBinTree@libmedia@5@ABUSPoint@785@@Z$0 0040f119 f    CIL library: CIL module
 0001:0000e121       __ehhandler$?mount_add@RLibraryBinTree@stdlib@media@modules@UModSys@@UAE_NABUSId@ILibraryBinTree@libmedia@5@ABUSPoint@785@@Z 0040f121 f    CIL library: CIL module
 0001:0000e12b       __unwindfunclet$??$t_gen_param@URLibraryObjCache@stdlib@media@modules@UModSys@@URGenerator@2345@@IGenerator@base@UModSys@@IAE_NPAURGenerator@stdlib@media@modules@2@AAU?$TRefObject@UIRefObject@core@UModSys@@U?$TRefObjectFunc@UIRefObject@core@UModSys@@@tl@3@@tl@2@PBUSUniquePointerInfo@core@2@ABUSParameters@core@2@@Z$0 0040f12b f    CIL library: CIL module
 0001:0000e12b       __unwindfunclet$??$t_gen_param@URLibraryBinCache@stdlib@media@modules@UModSys@@URGenerator@2345@@IGenerator@base@UModSys@@IAE_NPAURGenerator@stdlib@media@modules@2@AAU?$TRefObject@UIRefObject@core@UModSys@@U?$TRefObjectFunc@UIRefObject@core@UModSys@@@tl@3@@tl@2@PBUSUniquePointerInfo@core@2@ABUSParameters@core@2@@Z$0 0040f12b f    CIL library: CIL module
 0001:0000e12b       __unwindfunclet$??$t_gen_param@URUtilities@stdlib@media@modules@UModSys@@URGenerator@2345@@IGenerator@base@UModSys@@IAE_NPAURGenerator@stdlib@media@modules@2@AAU?$TRefObject@UIRefObject@core@UModSys@@U?$TRefObjectFunc@UIRefObject@core@UModSys@@@tl@3@@tl@2@PBUSUniquePointerInfo@core@2@ABUSParameters@core@2@@Z$0 0040f12b f    CIL library: CIL module
 0001:0000e12b       __unwindfunclet$??$t_gen_param@URLibraryBinTree@stdlib@media@modules@UModSys@@URGenerator@2345@@IGenerator@base@UModSys@@IAE_NPAURGenerator@stdlib@media@modules@2@AAU?$TRefObject@UIRefObject@core@UModSys@@U?$TRefObjectFunc@UIRefObject@core@UModSys@@@tl@3@@tl@2@PBUSUniquePointerInfo@core@2@ABUSParameters@core@2@@Z$0 0040f12b f    CIL library: CIL module
 0001:0000e12b       __unwindfunclet$??$t_gen_param@URLibraryObjFilter@stdlib@media@modules@UModSys@@URGenerator@2345@@IGenerator@base@UModSys@@IAE_NPAURGenerator@stdlib@media@modules@2@AAU?$TRefObject@UIRefObject@core@UModSys@@U?$TRefObjectFunc@UIRefObject@core@UModSys@@@tl@3@@tl@2@PBUSUniquePointerInfo@core@2@ABUSParameters@core@2@@Z$0 0040f12b f    CIL library: CIL module
 0001:0000e12b       __unwindfunclet$??$t_gen_param@URLibraryLayered@stdlib@media@modules@UModSys@@URGenerator@2345@@IGenerator@base@UModSys@@IAE_NPAURGenerator@stdlib@media@modules@2@AAU?$TRefObject@UIRefObject@core@UModSys@@U?$TRefObjectFunc@UIRefObject@core@UModSys@@@tl@3@@tl@2@PBUSUniquePointerInfo@core@2@ABUSParameters@core@2@@Z$0 0040f12b f    CIL library: CIL module
 0001:0000e136       __unwindfunclet$??$t_gen_param@URLibraryObjFilter@stdlib@media@modules@UModSys@@URGenerator@2345@@IGenerator@base@UModSys@@IAE_NPAURGenerator@stdlib@media@modules@2@AAU?$TRefObject@UIRefObject@core@UModSys@@U?$TRefObjectFunc@UIRefObject@core@UModSys@@@tl@3@@tl@2@PBUSUniquePointerInfo@core@2@ABUSParameters@core@2@@Z$1 0040f136 f    CIL library: CIL module
 0001:0000e136       __unwindfunclet$??$t_gen_param@URLibraryObjCache@stdlib@media@modules@UModSys@@URGenerator@2345@@IGenerator@base@UModSys@@IAE_NPAURGenerator@stdlib@media@modules@2@AAU?$TRefObject@UIRefObject@core@UModSys@@U?$TRefObjectFunc@UIRefObject@core@UModSys@@@tl@3@@tl@2@PBUSUniquePointerInfo@core@2@ABUSParameters@core@2@@Z$1 0040f136 f    CIL library: CIL module
 0001:0000e136       __unwindfunclet$??$t_gen_param@URLibraryBinTree@stdlib@media@modules@UModSys@@URGenerator@2345@@IGenerator@base@UModSys@@IAE_NPAURGenerator@stdlib@media@modules@2@AAU?$TRefObject@UIRefObject@core@UModSys@@U?$TRefObjectFunc@UIRefObject@core@UModSys@@@tl@3@@tl@2@PBUSUniquePointerInfo@core@2@ABUSParameters@core@2@@Z$1 0040f136 f    CIL library: CIL module
 0001:0000e136       __unwindfunclet$??$t_gen_param@URLibraryBinCache@stdlib@media@modules@UModSys@@URGenerator@2345@@IGenerator@base@UModSys@@IAE_NPAURGenerator@stdlib@media@modules@2@AAU?$TRefObject@UIRefObject@core@UModSys@@U?$TRefObjectFunc@UIRefObject@core@UModSys@@@tl@3@@tl@2@PBUSUniquePointerInfo@core@2@ABUSParameters@core@2@@Z$1 0040f136 f    CIL library: CIL module
 0001:0000e136       __unwindfunclet$??$t_gen_param@URUtilities@stdlib@media@modules@UModSys@@URGenerator@2345@@IGenerator@base@UModSys@@IAE_NPAURGenerator@stdlib@media@modules@2@AAU?$TRefObject@UIRefObject@core@UModSys@@U?$TRefObjectFunc@UIRefObject@core@UModSys@@@tl@3@@tl@2@PBUSUniquePointerInfo@core@2@ABUSParameters@core@2@@Z$1 0040f136 f    CIL library: CIL module
 0001:0000e136       __unwindfunclet$??$t_gen_param@URLibraryLayered@stdlib@media@modules@UModSys@@URGenerator@2345@@IGenerator@base@UModSys@@IAE_NPAURGenerator@stdlib@media@modules@2@AAU?$TRefObject@UIRefObject@core@UModSys@@U?$TRefObjectFunc@UIRefObject@core@UModSys@@@tl@3@@tl@2@PBUSUniquePointerInfo@core@2@ABUSParameters@core@2@@Z$1 0040f136 f    CIL library: CIL module
 0001:0000e13e       __ehhandler$??$t_gen_param@URLibraryLayered@stdlib@media@modules@UModSys@@URGenerator@2345@@IGenerator@base@UModSys@@IAE_NPAURGenerator@stdlib@media@modules@2@AAU?$TRefObject@UIRefObject@core@UModSys@@U?$TRefObjectFunc@UIRefObject@core@UModSys@@@tl@3@@tl@2@PBUSUniquePointerInfo@core@2@ABUSParameters@core@2@@Z 0040f13e f    CIL library: CIL module
 0001:0000e13e       __ehhandler$??$t_gen_param@URLibraryBinTree@stdlib@media@modules@UModSys@@URGenerator@2345@@IGenerator@base@UModSys@@IAE_NPAURGenerator@stdlib@media@modules@2@AAU?$TRefObject@UIRefObject@core@UModSys@@U?$TRefObjectFunc@UIRefObject@core@UModSys@@@tl@3@@tl@2@PBUSUniquePointerInfo@core@2@ABUSParameters@core@2@@Z 0040f13e f    CIL library: CIL module
 0001:0000e13e       __ehhandler$??$t_gen_param@URLibraryObjCache@stdlib@media@modules@UModSys@@URGenerator@2345@@IGenerator@base@UModSys@@IAE_NPAURGenerator@stdlib@media@modules@2@AAU?$TRefObject@UIRefObject@core@UModSys@@U?$TRefObjectFunc@UIRefObject@core@UModSys@@@tl@3@@tl@2@PBUSUniquePointerInfo@core@2@ABUSParameters@core@2@@Z 0040f13e f    CIL library: CIL module
 0001:0000e13e       __ehhandler$??$t_gen_param@URUtilities@stdlib@media@modules@UModSys@@URGenerator@2345@@IGenerator@base@UModSys@@IAE_NPAURGenerator@stdlib@media@modules@2@AAU?$TRefObject@UIRefObject@core@UModSys@@U?$TRefObjectFunc@UIRefObject@core@UModSys@@@tl@3@@tl@2@PBUSUniquePointerInfo@core@2@ABUSParameters@core@2@@Z 0040f13e f    CIL library: CIL module
 0001:0000e13e       __ehhandler$??$t_gen_param@URLibraryBinCache@stdlib@media@modules@UModSys@@URGenerator@2345@@IGenerator@base@UModSys@@IAE_NPAURGenerator@stdlib@media@modules@2@AAU?$TRefObject@UIRefObject@core@UModSys@@U?$TRefObjectFunc@UIRefObject@core@UModSys@@@tl@3@@tl@2@PBUSUniquePointerInfo@core@2@ABUSParameters@core@2@@Z 0040f13e f    CIL library: CIL module
 0001:0000e13e       __ehhandler$??$t_gen_param@URLibraryObjFilter@stdlib@media@modules@UModSys@@URGenerator@2345@@IGenerator@base@UModSys@@IAE_NPAURGenerator@stdlib@media@modules@2@AAU?$TRefObject@UIRefObject@core@UModSys@@U?$TRefObjectFunc@UIRefObject@core@UModSys@@@tl@3@@tl@2@PBUSUniquePointerInfo@core@2@ABUSParameters@core@2@@Z 0040f13e f    CIL library: CIL module
 0001:0000e148       ??__E?s_id@?$TObjectUniqueID@UIRoot@core@UModSys@@@tl@UModSys@@2USUniquePointer@core@3@A@@YAXXZ 0040f148 f    CIL library: CIL module
 0001:0000e16a       ??__E?s_id@?$TObjectUniqueID@UIRefObject@core@UModSys@@@tl@UModSys@@2USUniquePointer@core@3@A@@YAXXZ 0040f16a f    CIL library: CIL module
 0001:0000e18c       ??__E?s_id@?$TObjectUniqueID@UIParameters@core@UModSys@@@tl@UModSys@@2USUniquePointer@core@3@A@@YAXXZ 0040f18c f    CIL library: CIL module
 0001:0000e1ae       ??__E?s_id@?$TObjectUniqueID@UIConsole@base@UModSys@@@tl@UModSys@@2USUniquePointer@core@3@A@@YAXXZ 0040f1ae f    CIL library: CIL module
 0001:0000e1d0       ??__E?s_id@?$TObjectUniqueID@UIModule@base@UModSys@@@tl@UModSys@@2USUniquePointer@core@3@A@@YAXXZ 0040f1d0 f    CIL library: CIL module
 0001:0000e1f2       ??__E?s_id@?$TObjectUniqueID@UIModuleLibrary@base@UModSys@@@tl@UModSys@@2USUniquePointer@core@3@A@@YAXXZ 0040f1f2 f    CIL library: CIL module
 0001:0000e214       ??__E?s_id@?$TObjectUniqueID@UIModObject@base@UModSys@@@tl@UModSys@@2USUniquePointer@core@3@A@@YAXXZ 0040f214 f    CIL library: CIL module
 0001:0000e236       ??__E?s_id@?$TObjectUniqueID@UIGenerator@base@UModSys@@@tl@UModSys@@2USUniquePointer@core@3@A@@YAXXZ 0040f236 f    CIL library: CIL module
 0001:0000e258       ??__E?s_id@?$TObjectUniqueID@UIShell@base@UModSys@@@tl@UModSys@@2USUniquePointer@core@3@A@@YAXXZ 0040f258 f    CIL library: CIL module
 0001:0000e27a       ??__E?s_id@?$TObjectUniqueID@UISystem@base@UModSys@@@tl@UModSys@@2USUniquePointer@core@3@A@@YAXXZ 0040f27a f    CIL library: CIL module
 0001:0000e29c       ??__E?s_id@?$TObjectUniqueID@URModule@rsystem@base@UModSys@@@tl@UModSys@@2USUniquePointer@core@3@A@@YAXXZ 0040f29c f    CIL library: CIL module
 0001:0000e2be       ??__E?s_id@?$TObjectUniqueID@UIModuleLibraryUni@rsystem@base@UModSys@@@tl@UModSys@@2USUniquePointer@core@3@A@@YAXXZ 0040f2be f    CIL library: CIL module
 0001:0000e2e0       ??__E?s_id@?$TObjectUniqueID@URModuleLibrarySO@rsystem@base@UModSys@@@tl@UModSys@@2USUniquePointer@core@3@A@@YAXXZ 0040f2e0 f    CIL library: CIL module
 0001:0000e302       ??__E?s_id@?$TObjectUniqueID@URModuleLibraryThis@rsystem@base@UModSys@@@tl@UModSys@@2USUniquePointer@core@3@A@@YAXXZ 0040f302 f    CIL library: CIL module
 0001:0000e324       ??__E?s_id@?$TObjectUniqueID@URParameters@rsystem@base@UModSys@@@tl@UModSys@@2USUniquePointer@core@3@A@@YAXXZ 0040f324 f    CIL library: CIL module
 0001:0000e346       ??__E?s_id@?$TObjectUniqueID@URSystem@rsystem@base@UModSys@@@tl@UModSys@@2USUniquePointer@core@3@A@@YAXXZ 0040f346 f    CIL library: CIL module
 0001:0000e368       ??__E?s_id@?$TObjectUniqueID@URConsole_std@rsystem@base@UModSys@@@tl@UModSys@@2USUniquePointer@core@3@A@@YAXXZ 0040f368 f    CIL library: CIL module
 0001:0000e38a       ??__Es_dbg@stdio@media@modules@UModSys@@YAXXZ 0040f38a f    CIL library: CIL module
 0001:0000e396       ??__E?s_modreg@RModuleReg@stdio@media@modules@UModSys@@2U12345@A@@YAXXZ 0040f396 f    CIL library: CIL module
 0001:0000e3cb       ??__E?s_modreg_chain@RModuleReg@stdio@media@modules@UModSys@@2USModuleRegChain@base@5@A@@YAXXZ 0040f3cb f    CIL library: CIL module
 0001:0000e3e6       ??__E?s_uid@RGenerator@stdio@media@modules@UModSys@@2USUniquePointer@core@5@A@@YAXXZ 0040f3e6 f    CIL library: CIL module
 0001:0000e408       ??__E?s_id@?$TObjectUniqueID@UIStreamReader@libmedia@UModSys@@@tl@UModSys@@2USUniquePointer@core@3@A@@YAXXZ 0040f408 f    CIL library: CIL module
 0001:0000e42a       ??__E?s_id@?$TObjectUniqueID@UIStreamWriter@libmedia@UModSys@@@tl@UModSys@@2USUniquePointer@core@3@A@@YAXXZ 0040f42a f    CIL library: CIL module
 0001:0000e44c       ??__E?s_id@?$TObjectUniqueID@UIUtilities@libmedia@UModSys@@@tl@UModSys@@2USUniquePointer@core@3@A@@YAXXZ 0040f44c f    CIL library: CIL module
 0001:0000e46e       ??__E?s_id@?$TObjectUniqueID@UILibObject@libmedia@UModSys@@@tl@UModSys@@2USUniquePointer@core@3@A@@YAXXZ 0040f46e f    CIL library: CIL module
 0001:0000e490       ??__E?s_id@?$TObjectUniqueID@UIBinArchive@libmedia@UModSys@@@tl@UModSys@@2USUniquePointer@core@3@A@@YAXXZ 0040f490 f    CIL library: CIL module
 0001:0000e4b2       ??__E?s_id@?$TObjectUniqueID@UIBinObjFilter@libmedia@UModSys@@@tl@UModSys@@2USUniquePointer@core@3@A@@YAXXZ 0040f4b2 f    CIL library: CIL module
 0001:0000e4d4       ??__E?s_id@?$TObjectUniqueID@UILibrary@libmedia@UModSys@@@tl@UModSys@@2USUniquePointer@core@3@A@@YAXXZ 0040f4d4 f    CIL library: CIL module
 0001:0000e4f6       ??__E?s_id@?$TObjectUniqueID@URStreamReader_FILE@stdio@media@modules@UModSys@@@tl@UModSys@@2USUniquePointer@core@3@A@@YAXXZ 0040f4f6 f    CIL library: CIL module
 0001:0000e518       ??__E?s_id@?$TObjectUniqueID@URStreamWriter_FILE@stdio@media@modules@UModSys@@@tl@UModSys@@2USUniquePointer@core@3@A@@YAXXZ 0040f518 f    CIL library: CIL module
 0001:0000e53a       ??__E?s_id@?$TObjectUniqueID@URDataArchiver_OsDir@stdio@media@modules@UModSys@@@tl@UModSys@@2USUniquePointer@core@3@A@@YAXXZ 0040f53a f    CIL library: CIL module
 0001:0000e55c       ??__E?s_id@?$TObjectUniqueID@URGenerator@stdio@media@modules@UModSys@@@tl@UModSys@@2USUniquePointer@core@3@A@@YAXXZ 0040f55c f    CIL library: CIL module
 0001:0000e57e       ??__Es_dbg@stdlib@media@modules@UModSys@@YAXXZ 0040f57e f    CIL library: CIL module
 0001:0000e58a       ??__E?s_modreg@RModuleReg@stdlib@media@modules@UModSys@@2U12345@A@@YAXXZ 0040f58a f    CIL library: CIL module
 0001:0000e5c2       ??__E?s_modreg_chain@RModuleReg@stdlib@media@modules@UModSys@@2USModuleRegChain@base@5@A@@YAXXZ 0040f5c2 f    CIL library: CIL module
 0001:0000e5dd       ??__E?s_uid@RGenerator@stdlib@media@modules@UModSys@@2USUniquePointer@core@5@A@@YAXXZ 0040f5dd f    CIL library: CIL module
 0001:0000e5ff       ??__E?s_id@?$TObjectUniqueID@UILibraryBinTree@libmedia@UModSys@@@tl@UModSys@@2USUniquePointer@core@3@A@@YAXXZ 0040f5ff f    CIL library: CIL module
 0001:0000e621       ??__E?s_id@?$TObjectUniqueID@UILibraryBinCache@libmedia@UModSys@@@tl@UModSys@@2USUniquePointer@core@3@A@@YAXXZ 0040f621 f    CIL library: CIL module
 0001:0000e643       ??__E?s_id@?$TObjectUniqueID@UILibraryObjFilter@libmedia@UModSys@@@tl@UModSys@@2USUniquePointer@core@3@A@@YAXXZ 0040f643 f    CIL library: CIL module
 0001:0000e665       ??__E?s_id@?$TObjectUniqueID@UILibraryObjCache@libmedia@UModSys@@@tl@UModSys@@2USUniquePointer@core@3@A@@YAXXZ 0040f665 f    CIL library: CIL module
 0001:0000e687       ??__E?s_id@?$TObjectUniqueID@UILibraryLayered@libmedia@UModSys@@@tl@UModSys@@2USUniquePointer@core@3@A@@YAXXZ 0040f687 f    CIL library: CIL module
 0001:0000e6a9       ??__E?s_id@?$TObjectUniqueID@UIBinArchiveFrame@libmedia@UModSys@@@tl@UModSys@@2USUniquePointer@core@3@A@@YAXXZ 0040f6a9 f    CIL library: CIL module
 0001:0000e6cb       ??__E?s_id@?$TObjectUniqueID@UIClient@IBinArchiveFrame@libmedia@UModSys@@@tl@UModSys@@2USUniquePointer@core@3@A@@YAXXZ 0040f6cb f    CIL library: CIL module
 0001:0000e6ed       ??__E?s_id@?$TObjectUniqueID@URUtilities@stdlib@media@modules@UModSys@@@tl@UModSys@@2USUniquePointer@core@3@A@@YAXXZ 0040f6ed f    CIL library: CIL module
 0001:0000e70f       ??__E?s_id@?$TObjectUniqueID@URBinArchiveFrame@stdlib@media@modules@UModSys@@@tl@UModSys@@2USUniquePointer@core@3@A@@YAXXZ 0040f70f f    CIL library: CIL module
 0001:0000e731       ??__E?s_id@?$TObjectUniqueID@URLibraryBinTree@stdlib@media@modules@UModSys@@@tl@UModSys@@2USUniquePointer@core@3@A@@YAXXZ 0040f731 f    CIL library: CIL module
 0001:0000e753       ??__E?s_id@?$TObjectUniqueID@URLibraryBinCache@stdlib@media@modules@UModSys@@@tl@UModSys@@2USUniquePointer@core@3@A@@YAXXZ 0040f753 f    CIL library: CIL module
 0001:0000e775       ??__E?s_id@?$TObjectUniqueID@URLibraryLayered@stdlib@media@modules@UModSys@@@tl@UModSys@@2USUniquePointer@core@3@A@@YAXXZ 0040f775 f    CIL library: CIL module
 0001:0000e797       ??__E?s_id@?$TObjectUniqueID@URLibraryObjCache@stdlib@media@modules@UModSys@@@tl@UModSys@@2USUniquePointer@core@3@A@@YAXXZ 0040f797 f    CIL library: CIL module
 0001:0000e7b9       ??__E?s_id@?$TObjectUniqueID@URLibraryObjFilter@stdlib@media@modules@UModSys@@@tl@UModSys@@2USUniquePointer@core@3@A@@YAXXZ 0040f7b9 f    CIL library: CIL module
 0001:0000e7db       ??__E?s_id@?$TObjectUniqueID@URGenerator@stdlib@media@modules@UModSys@@@tl@UModSys@@2USUniquePointer@core@3@A@@YAXXZ 0040f7db f    CIL library: CIL module
 0001:0000e7fd       ??__E?s_console@RConsole_std@rsystem@base@UModSys@@2U1234@A@@YAXXZ 0040f7fd f    CIL library: CIL module
 0001:0000e809       ??__E?s_sys@RSystem@rsystem@base@UModSys@@2U1234@A@@YAXXZ 0040f809 f    CIL library: CIL module
 0001:0000e81a       ??__Ersys_dbg@rsystem@base@UModSys@@YAXXZ 0040f81a f    CIL library: CIL module
 0001:0000e826       ??__EM@UModSys@@YAXXZ      0040f826 f    CIL library: CIL module
 0001:0000e832       ??__E?root@SModuleRegChain@base@UModSys@@2U123@A@@YAXXZ 0040f832 f    CIL library: CIL module
 0001:0000e83e       ??__E?s_library@RModuleLibraryReg_Chain@base@UModSys@@2U123@A@@YAXXZ 0040f83e f    CIL library: CIL module
 0001:0000e84a       ??__E?root@SUniquePointer@core@UModSys@@2U123@A@@YAXXZ 0040f84a f    CIL library: CIL module
 0001:0000e856       ??__F?s_id@?$TObjectUniqueID@URConsole_std@rsystem@base@UModSys@@@tl@UModSys@@2USUniquePointer@core@3@A@@YAXXZ 0040f856 f    CIL library: CIL module
 0001:0000e860       ??__F?s_id@?$TObjectUniqueID@URSystem@rsystem@base@UModSys@@@tl@UModSys@@2USUniquePointer@core@3@A@@YAXXZ 0040f860 f    CIL library: CIL module
 0001:0000e86a       ??__F?s_id@?$TObjectUniqueID@URParameters@rsystem@base@UModSys@@@tl@UModSys@@2USUniquePointer@core@3@A@@YAXXZ 0040f86a f    CIL library: CIL module
 0001:0000e874       ??__F?s_id@?$TObjectUniqueID@URModuleLibraryThis@rsystem@base@UModSys@@@tl@UModSys@@2USUniquePointer@core@3@A@@YAXXZ 0040f874 f    CIL library: CIL module
 0001:0000e87e       ??__F?s_id@?$TObjectUniqueID@URModuleLibrarySO@rsystem@base@UModSys@@@tl@UModSys@@2USUniquePointer@core@3@A@@YAXXZ 0040f87e f    CIL library: CIL module
 0001:0000e888       ??__F?s_id@?$TObjectUniqueID@UIModuleLibraryUni@rsystem@base@UModSys@@@tl@UModSys@@2USUniquePointer@core@3@A@@YAXXZ 0040f888 f    CIL library: CIL module
 0001:0000e892       ??__F?s_id@?$TObjectUniqueID@URModule@rsystem@base@UModSys@@@tl@UModSys@@2USUniquePointer@core@3@A@@YAXXZ 0040f892 f    CIL library: CIL module
 0001:0000e89c       ??__F?s_id@?$TObjectUniqueID@UISystem@base@UModSys@@@tl@UModSys@@2USUniquePointer@core@3@A@@YAXXZ 0040f89c f    CIL library: CIL module
 0001:0000e8a6       ??__F?s_id@?$TObjectUniqueID@UIShell@base@UModSys@@@tl@UModSys@@2USUniquePointer@core@3@A@@YAXXZ 0040f8a6 f    CIL library: CIL module
 0001:0000e8b0       ??__F?s_id@?$TObjectUniqueID@UIGenerator@base@UModSys@@@tl@UModSys@@2USUniquePointer@core@3@A@@YAXXZ 0040f8b0 f    CIL library: CIL module
 0001:0000e8ba       ??__F?s_id@?$TObjectUniqueID@UIModObject@base@UModSys@@@tl@UModSys@@2USUniquePointer@core@3@A@@YAXXZ 0040f8ba f    CIL library: CIL module
 0001:0000e8c4       ??__F?s_id@?$TObjectUniqueID@UIModuleLibrary@base@UModSys@@@tl@UModSys@@2USUniquePointer@core@3@A@@YAXXZ 0040f8c4 f    CIL library: CIL module
 0001:0000e8ce       ??__F?s_id@?$TObjectUniqueID@UIModule@base@UModSys@@@tl@UModSys@@2USUniquePointer@core@3@A@@YAXXZ 0040f8ce f    CIL library: CIL module
 0001:0000e8d8       ??__F?s_id@?$TObjectUniqueID@UIConsole@base@UModSys@@@tl@UModSys@@2USUniquePointer@core@3@A@@YAXXZ 0040f8d8 f    CIL library: CIL module
 0001:0000e8e2       ??__F?s_id@?$TObjectUniqueID@UIParameters@core@UModSys@@@tl@UModSys@@2USUniquePointer@core@3@A@@YAXXZ 0040f8e2 f    CIL library: CIL module
 0001:0000e8ec       ??__F?s_id@?$TObjectUniqueID@UIRefObject@core@UModSys@@@tl@UModSys@@2USUniquePointer@core@3@A@@YAXXZ 0040f8ec f    CIL library: CIL module
 0001:0000e8f6       ??__F?s_id@?$TObjectUniqueID@UIRoot@core@UModSys@@@tl@UModSys@@2USUniquePointer@core@3@A@@YAXXZ 0040f8f6 f    CIL library: CIL module
 0001:0000e900       ??__Fs_dbg@stdio@media@modules@UModSys@@YAXXZ 0040f900 f    CIL library: CIL module
 0001:0000e917       ??__F?s_modreg@RModuleReg@stdio@media@modules@UModSys@@2U12345@A@@YAXXZ 0040f917 f    CIL library: CIL module
 0001:0000e922       ??__F?s_modreg_chain@RModuleReg@stdio@media@modules@UModSys@@2USModuleRegChain@base@5@A@@YAXXZ 0040f922 f    CIL library: CIL module
 0001:0000e92c       ??__F?s_uid@RGenerator@stdio@media@modules@UModSys@@2USUniquePointer@core@5@A@@YAXXZ 0040f92c f    CIL library: CIL module
 0001:0000e936       ??__Fh@?1??s_holder@RGenerator@stdio@media@modules@UModSys@@SAAAU?$TTypeStaticHolder@URGenerator@stdio@media@modules@UModSys@@@tl@5@XZ@YAXXZ 0040f936 f    CIL library: CIL module
 0001:0000e953       ??__F?s_id@?$TObjectUniqueID@URGenerator@stdio@media@modules@UModSys@@@tl@UModSys@@2USUniquePointer@core@3@A@@YAXXZ 0040f953 f    CIL library: CIL module
 0001:0000e95d       ??__F?s_id@?$TObjectUniqueID@URDataArchiver_OsDir@stdio@media@modules@UModSys@@@tl@UModSys@@2USUniquePointer@core@3@A@@YAXXZ 0040f95d f    CIL library: CIL module
 0001:0000e967       ??__F?s_id@?$TObjectUniqueID@URStreamWriter_FILE@stdio@media@modules@UModSys@@@tl@UModSys@@2USUniquePointer@core@3@A@@YAXXZ 0040f967 f    CIL library: CIL module
 0001:0000e971       ??__F?s_id@?$TObjectUniqueID@URStreamReader_FILE@stdio@media@modules@UModSys@@@tl@UModSys@@2USUniquePointer@core@3@A@@YAXXZ 0040f971 f    CIL library: CIL module
 0001:0000e97b       ??__F?s_id@?$TObjectUniqueID@UILibrary@libmedia@UModSys@@@tl@UModSys@@2USUniquePointer@core@3@A@@YAXXZ 0040f97b f    CIL library: CIL module
 0001:0000e985       ??__F?s_id@?$TObjectUniqueID@UIBinObjFilter@libmedia@UModSys@@@tl@UModSys@@2USUniquePointer@core@3@A@@YAXXZ 0040f985 f    CIL library: CIL module
 0001:0000e98f       ??__F?s_id@?$TObjectUniqueID@UIBinArchive@libmedia@UModSys@@@tl@UModSys@@2USUniquePointer@core@3@A@@YAXXZ 0040f98f f    CIL library: CIL module
 0001:0000e999       ??__F?s_id@?$TObjectUniqueID@UILibObject@libmedia@UModSys@@@tl@UModSys@@2USUniquePointer@core@3@A@@YAXXZ 0040f999 f    CIL library: CIL module
 0001:0000e9a3       ??__F?s_id@?$TObjectUniqueID@UIUtilities@libmedia@UModSys@@@tl@UModSys@@2USUniquePointer@core@3@A@@YAXXZ 0040f9a3 f    CIL library: CIL module
 0001:0000e9ad       ??__F?s_id@?$TObjectUniqueID@UIStreamWriter@libmedia@UModSys@@@tl@UModSys@@2USUniquePointer@core@3@A@@YAXXZ 0040f9ad f    CIL library: CIL module
 0001:0000e9b7       ??__F?s_id@?$TObjectUniqueID@UIStreamReader@libmedia@UModSys@@@tl@UModSys@@2USUniquePointer@core@3@A@@YAXXZ 0040f9b7 f    CIL library: CIL module
 0001:0000e9c1       ??__Fs_dbg@stdlib@media@modules@UModSys@@YAXXZ 0040f9c1 f    CIL library: CIL module
 0001:0000e9d8       ??__F?s_modreg@RModuleReg@stdlib@media@modules@UModSys@@2U12345@A@@YAXXZ 0040f9d8 f    CIL library: CIL module
 0001:0000e9e3       ??__F?s_modreg_chain@RModuleReg@stdlib@media@modules@UModSys@@2USModuleRegChain@base@5@A@@YAXXZ 0040f9e3 f    CIL library: CIL module
 0001:0000e9ed       ??__F?s_uid@RGenerator@stdlib@media@modules@UModSys@@2USUniquePointer@core@5@A@@YAXXZ 0040f9ed f    CIL library: CIL module
 0001:0000e9f7       ??__Fh@?1??s_holder@RGenerator@stdlib@media@modules@UModSys@@SAAAU?$TTypeStaticHolder@URGenerator@stdlib@media@modules@UModSys@@@tl@5@XZ@YAXXZ 0040f9f7 f    CIL library: CIL module
 0001:0000ea14       ??__F?s_id@?$TObjectUniqueID@URGenerator@stdlib@media@modules@UModSys@@@tl@UModSys@@2USUniquePointer@core@3@A@@YAXXZ 0040fa14 f    CIL library: CIL module
 0001:0000ea1e       ??__F?s_id@?$TObjectUniqueID@URLibraryObjFilter@stdlib@media@modules@UModSys@@@tl@UModSys@@2USUniquePointer@core@3@A@@YAXXZ 0040fa1e f    CIL library: CIL module
 0001:0000ea28       ??__F?s_id@?$TObjectUniqueID@URLibraryObjCache@stdlib@media@modules@UModSys@@@tl@UModSys@@2USUniquePointer@core@3@A@@YAXXZ 0040fa28 f    CIL library: CIL module
 0001:0000ea32       ??__F?s_id@?$TObjectUniqueID@URLibraryLayered@stdlib@media@modules@UModSys@@@tl@UModSys@@2USUniquePointer@core@3@A@@YAXXZ 0040fa32 f    CIL library: CIL module
 0001:0000ea3c       ??__F?s_id@?$TObjectUniqueID@URLibraryBinCache@stdlib@media@modules@UModSys@@@tl@UModSys@@2USUniquePointer@core@3@A@@YAXXZ 0040fa3c f    CIL library: CIL module
 0001:0000ea46       ??__F?s_id@?$TObjectUniqueID@URLibraryBinTree@stdlib@media@modules@UModSys@@@tl@UModSys@@2USUniquePointer@core@3@A@@YAXXZ 0040fa46 f    CIL library: CIL module
 0001:0000ea50       ??__F?s_id@?$TObjectUniqueID@URBinArchiveFrame@stdlib@media@modules@UModSys@@@tl@UModSys@@2USUniquePointer@core@3@A@@YAXXZ 0040fa50 f    CIL library: CIL module
 0001:0000ea5a       ??__F?s_id@?$TObjectUniqueID@URUtilities@stdlib@media@modules@UModSys@@@tl@UModSys@@2USUniquePointer@core@3@A@@YAXXZ 0040fa5a f    CIL library: CIL module
 0001:0000ea64       ??__F?s_id@?$TObjectUniqueID@UIClient@IBinArchiveFrame@libmedia@UModSys@@@tl@UModSys@@2USUniquePointer@core@3@A@@YAXXZ 0040fa64 f    CIL library: CIL module
 0001:0000ea6e       ??__F?s_id@?$TObjectUniqueID@UIBinArchiveFrame@libmedia@UModSys@@@tl@UModSys@@2USUniquePointer@core@3@A@@YAXXZ 0040fa6e f    CIL library: CIL module
 0001:0000ea78       ??__F?s_id@?$TObjectUniqueID@UILibraryLayered@libmedia@UModSys@@@tl@UModSys@@2USUniquePointer@core@3@A@@YAXXZ 0040fa78 f    CIL library: CIL module
 0001:0000ea82       ??__F?s_id@?$TObjectUniqueID@UILibraryObjCache@libmedia@UModSys@@@tl@UModSys@@2USUniquePointer@core@3@A@@YAXXZ 0040fa82 f    CIL library: CIL module
 0001:0000ea8c       ??__F?s_id@?$TObjectUniqueID@UILibraryObjFilter@libmedia@UModSys@@@tl@UModSys@@2USUniquePointer@core@3@A@@YAXXZ 0040fa8c f    CIL library: CIL module
 0001:0000ea96       ??__F?s_id@?$TObjectUniqueID@UILibraryBinCache@libmedia@UModSys@@@tl@UModSys@@2USUniquePointer@core@3@A@@YAXXZ 0040fa96 f    CIL library: CIL module
 0001:0000eaa0       ??__F?s_id@?$TObjectUniqueID@UILibraryBinTree@libmedia@UModSys@@@tl@UModSys@@2USUniquePointer@core@3@A@@YAXXZ 0040faa0 f    CIL library: CIL module
 0001:0000eaaa       ??__F?s_console@RConsole_std@rsystem@base@UModSys@@2U1234@A@@YAXXZ 0040faaa f    CIL library: CIL module
 0001:0000ead7       ??__F?s_sys@RSystem@rsystem@base@UModSys@@2U1234@A@@YAXXZ 0040fad7 f    CIL library: CIL module
 0001:0000eae2       ??__Frsys_dbg@rsystem@base@UModSys@@YAXXZ 0040fae2 f    CIL library: CIL module
 0001:0000eaf9       ??__FM@UModSys@@YAXXZ      0040faf9 f    CIL library: CIL module
 0001:0000eafa       ??__F?root@SModuleRegChain@base@UModSys@@2U123@A@@YAXXZ 0040fafa f    CIL library: CIL module
 0001:0000eb04       ??__F?s_library@RModuleLibraryReg_Chain@base@UModSys@@2U123@A@@YAXXZ 0040fb04 f    CIL library: CIL module
 0001:0000eb0f       ??__F?root@SUniquePointer@core@UModSys@@2U123@A@@YAXXZ 0040fb0f f    CIL library: CIL module

 Exports

  ordinal    name

        1    _UModSys_Plugin_Entry2@0
