 lib_freetype

 Timestamp is 52d55162 (Tue Jan 14 18:01:54 2014)

 Preferred load address is 0000000180000000

 Start         Length     Name                   Class
 0001:00000000 000793f0H .text                   CODE
 0001:000793f0 0000005eH .text$00                CODE
 0001:00079450 00000091H .text$x                 CODE
 0002:00000000 00000188H .idata$5                DATA
 0002:00000188 00000008H .CRT$XCA                DATA
 0002:00000190 00000008H .CRT$XCZ                DATA
 0002:00000198 00000008H .CRT$XIA                DATA
 0002:000001a0 00000008H .CRT$XIAA               DATA
 0002:000001a8 00000008H .CRT$XIZ                DATA
 0002:000001b0 000245d0H .rdata                  DATA
 0002:00024780 00000008H .rtc$IAA                DATA
 0002:00024788 00000008H .rtc$IZZ                DATA
 0002:00024790 00000008H .rtc$TAA                DATA
 0002:00024798 00000008H .rtc$TZZ                DATA
 0002:000247a0 0000b758H .xdata                  DATA
 0002:0002fef8 00000028H .idata$2                DATA
 0002:0002ff20 00000014H .idata$3                DATA
 0002:0002ff38 00000188H .idata$4                DATA
 0002:000300c0 0000028aH .idata$6                DATA
 0002:00030350 00001a63H .edata                  DATA
 0003:00000000 00000540H .data                   DATA
 0003:00000540 000001b4H .bss                    DATA
 0004:00000000 00007c2cH .pdata                  DATA

  Address         Publics by Value              Rva+Base               Lib:Object

 0000:00000000       ___safe_se_handler_count   0000000000000000     <absolute>
 0000:00000000       ___safe_se_handler_table   0000000000000000     <absolute>
 0000:00000000       __ImageBase                0000000180000000     <linker-defined>
 0001:00000060       _CRT_INIT                  0000000180001060 f   MSVCRT:crtdll.obj
 0001:000003f4       _DllMainCRTStartup         00000001800013f4 f   MSVCRT:crtdll.obj
 0001:00000434       __clean_type_info_names    0000000180001434 f   MSVCRT:tncleanup.obj
 0001:00000440       _onexit                    0000000180001440 f   MSVCRT:atonexit.obj
 0001:000004f0       atexit                     00000001800014f0 f   MSVCRT:atonexit.obj
 0001:00000508       _RTC_Initialize            0000000180001508 f   MSVCRT:_initsect_.obj
 0001:00000540       _RTC_Terminate             0000000180001540 f   MSVCRT:_initsect_.obj
 0001:00000580       _ValidateImageBase         0000000180001580 f   MSVCRT:pesect.obj
 0001:000005b0       _FindPESection             00000001800015b0 f   MSVCRT:pesect.obj
 0001:00000600       _IsNonwritableInCurrentImage 0000000180001600 f   MSVCRT:pesect.obj
 0001:00000642       _initterm                  0000000180001642 f   MSVCRT:MSVCR90.dll
 0001:00000648       _initterm_e                0000000180001648 f   MSVCRT:MSVCR90.dll
 0001:0000064e       _amsg_exit                 000000018000164e f   MSVCRT:MSVCR90.dll
 0001:00000654       __C_specific_handler       0000000180001654 f   MSVCRT:MSVCR90.dll
 0001:0000065a       __CppXcptFilter            000000018000165a f   MSVCRT:MSVCR90.dll
 0001:00000660       DllMain                    0000000180001660 f   MSVCRT:dllmain.obj
 0001:00000684       __security_init_cookie     0000000180001684 f   MSVCRT:gs_support.obj
 0001:00000738       __clean_type_info_names_internal 0000000180001738 f   MSVCRT:MSVCR90.dll
 0001:0000073e       _unlock                    000000018000173e f   MSVCRT:MSVCR90.dll
 0001:00000744       __dllonexit                0000000180001744 f   MSVCRT:MSVCR90.dll
 0001:0000074a       _lock                      000000018000174a f   MSVCRT:MSVCR90.dll
 0001:00001cc0       ft_lzwstate_reset          0000000180002cc0 f   ftlzw.obj
 0001:00001cf0       ft_lzwstate_done           0000000180002cf0 f   ftlzw.obj
 0001:00001d70       ft_lzwstate_init           0000000180002d70 f   ftlzw.obj
 0001:00002280       ft_lzwstate_io             0000000180003280 f   ftlzw.obj
 0001:000027b0       FT_Stream_OpenLZW          00000001800037b0 f   ftlzw.obj
 0001:00005270       FT_Stream_OpenGzip         0000000180006270 f   ftgzip.obj
 0001:000153c0       TT_New_Context             00000001800163c0 f   truetype.obj
 0001:00018000       TT_RunIns                  0000000180019000 f   truetype.obj
 0001:0002b660       ps_hints_apply             000000018002c660 f   pshinter.obj
 0001:0005a7a0       FTC_Node_Unref             000000018005b7a0 f   ftcache.obj
 0001:0005abd0       FTC_Manager_New            000000018005bbd0 f   ftcache.obj
 0001:0005b060       FTC_CMapCache_New          000000018005c060 f   ftcache.obj
 0001:0005b4f0       FTC_SBitCache_New          000000018005c4f0 f   ftcache.obj
 0001:0005b510       FTC_ImageCache_New         000000018005c510 f   ftcache.obj
 0001:0005b8b0       FTC_Manager_LookupFace     000000018005c8b0 f   ftcache.obj
 0001:0005b990       FTC_Manager_LookupSize     000000018005c990 f   ftcache.obj
 0001:0005be10       FTC_Manager_RemoveFaceID   000000018005ce10 f   ftcache.obj
 0001:0005bfa0       FTC_Manager_Reset          000000018005cfa0 f   ftcache.obj
 0001:0005bfe0       FTC_Manager_Done           000000018005cfe0 f   ftcache.obj
 0001:0005c580       FTC_SBitCache_LookupScaler 000000018005d580 f   ftcache.obj
 0001:0005c8f0       FTC_SBitCache_Lookup       000000018005d8f0 f   ftcache.obj
 0001:0005cc20       FTC_ImageCache_LookupScaler 000000018005dc20 f   ftcache.obj
 0001:0005cf50       FTC_ImageCache_Lookup      000000018005df50 f   ftcache.obj
 0001:0005d400       FTC_CMapCache_Lookup       000000018005e400 f   ftcache.obj
 0001:00061e10       FT_Stroker_BeginSubPath    0000000180062e10 f   ftstroke.obj
 0001:000620a0       FT_Stroker_GetCounts       00000001800630a0 f   ftstroke.obj
 0001:00062120       FT_Stroker_GetBorderCounts 0000000180063120 f   ftstroke.obj
 0001:000621b0       FT_Stroker_Rewind          00000001800631b0 f   ftstroke.obj
 0001:000621e0       FT_Stroker_Set             00000001800631e0 f   ftstroke.obj
 0001:00062210       FT_Stroker_New             0000000180063210 f   ftstroke.obj
 0001:00062510       FT_Stroker_ExportBorder    0000000180063510 f   ftstroke.obj
 0001:00062550       FT_Stroker_Done            0000000180063550 f   ftstroke.obj
 0001:00062690       FT_Outline_GetOutsideBorder 0000000180063690 f   ftstroke.obj
 0001:000626b0       FT_Outline_GetInsideBorder 00000001800636b0 f   ftstroke.obj
 0001:000626d0       FT_Stroker_Export          00000001800636d0 f   ftstroke.obj
 0001:00063580       FT_Stroker_CubicTo         0000000180064580 f   ftstroke.obj
 0001:00063ac0       FT_Stroker_ConicTo         0000000180064ac0 f   ftstroke.obj
 0001:00063f30       FT_Stroker_LineTo          0000000180064f30 f   ftstroke.obj
 0001:00064060       FT_Stroker_EndSubPath      0000000180065060 f   ftstroke.obj
 0001:00064160       FT_Stroker_ParseOutline    0000000180065160 f   ftstroke.obj
 0001:00064500       FT_Glyph_StrokeBorder      0000000180065500 f   ftstroke.obj
 0001:00064660       FT_Glyph_Stroke            0000000180065660 f   ftstroke.obj
 0001:00064780       FT_Glyph_Get_CBox          0000000180065780 f   ftglyph.obj
 0001:000648b0       FT_Done_Glyph              00000001800658b0 f   ftglyph.obj
 0001:00064980       FT_Glyph_Transform         0000000180065980 f   ftglyph.obj
 0001:00064a00       FT_Get_Glyph               0000000180065a00 f   ftglyph.obj
 0001:00064b30       FT_Glyph_Copy              0000000180065b30 f   ftglyph.obj
 0001:00064e70       FT_Glyph_To_Bitmap         0000000180065e70 f   ftglyph.obj
 0001:00065050       FT_Bitmap_New              0000000180066050 f   ftbitmap.obj
 0001:00065090       FT_Bitmap_Done             0000000180066090 f   ftbitmap.obj
 0001:00065140       ft_gray_for_premultiplied_srgb_bgra 0000000180066140 f   ftbitmap.obj
 0001:00065200       FT_Bitmap_Convert          0000000180066200 f   ftbitmap.obj
 0001:00065920       FT_Bitmap_Copy             0000000180066920 f   ftbitmap.obj
 0001:00065a50       FT_GlyphSlot_Own_Bitmap    0000000180066a50 f   ftbitmap.obj
 0001:00065af0       FT_Bitmap_Embolden         0000000180066af0 f   ftbitmap.obj
 0001:00065ec0       FT_Done_Memory             0000000180066ec0 f   ftsystem.obj
 0001:00065fb0       FT_New_Memory              0000000180066fb0 f   ftsystem.obj
 0001:00066000       FT_Stream_Open             0000000180067000 f   ftsystem.obj
 0001:00066180       ft_debug_init              0000000180067180 f   ftdebug.obj
 0001:00066310       FT_Trace_Get_Count         0000000180067310 f   ftdebug.obj
 0001:00066320       FT_Throw                   0000000180067320 f   ftdebug.obj
 0001:00066330       FT_Panic                   0000000180067330 f   ftdebug.obj
 0001:00066380       FT_Message                 0000000180067380 f   ftdebug.obj
 0001:000663d0       FT_Trace_Get_Name          00000001800673d0 f   ftdebug.obj
 0001:00066400       ft_highpow2                0000000180067400 f   ftbase.obj
 0001:00066420       FT_List_Iterate            0000000180067420 f   ftbase.obj
 0001:00066480       FT_List_Up                 0000000180067480 f   ftbase.obj
 0001:000664c0       FT_List_Remove             00000001800674c0 f   ftbase.obj
 0001:000664f0       FT_List_Insert             00000001800674f0 f   ftbase.obj
 0001:00066520       FT_List_Add                0000000180067520 f   ftbase.obj
 0001:00066550       FT_List_Find               0000000180067550 f   ftbase.obj
 0001:00066580       ft_mem_strcpyn             0000000180067580 f   ftbase.obj
 0001:000665b0       ft_mem_free                00000001800675b0 f   ftbase.obj
 0001:000665d0       ft_mem_qalloc              00000001800675d0 f   ftbase.obj
 0001:00066650       ft_mem_alloc               0000000180067650 f   ftbase.obj
 0001:000666c0       FT_Angle_Diff              00000001800676c0 f   ftbase.obj
 0001:00066970       FT_Stream_ReadULongLE      0000000180067970 f   ftbase.obj
 0001:00066a60       FT_Stream_ReadULong        0000000180067a60 f   ftbase.obj
 0001:00066b50       FT_Stream_ReadUOffset      0000000180067b50 f   ftbase.obj
 0001:00066c30       FT_Stream_ReadUShortLE     0000000180067c30 f   ftbase.obj
 0001:00066d10       FT_Stream_ReadUShort       0000000180067d10 f   ftbase.obj
 0001:00066df0       FT_Stream_ReadChar         0000000180067df0 f   ftbase.obj
 0001:00066ec0       FT_Stream_GetULongLE       0000000180067ec0 f   ftbase.obj
 0001:00066f40       FT_Stream_GetULong         0000000180067f40 f   ftbase.obj
 0001:00066fc0       FT_Stream_GetUOffset       0000000180067fc0 f   ftbase.obj
 0001:00067030       FT_Stream_GetUShortLE      0000000180068030 f   ftbase.obj
 0001:00067090       FT_Stream_GetUShort        0000000180068090 f   ftbase.obj
 0001:000670f0       FT_Stream_GetChar          00000001800680f0 f   ftbase.obj
 0001:00067140       FT_Stream_ExitFrame        0000000180068140 f   ftbase.obj
 0001:000671a0       FT_Stream_EnterFrame       00000001800681a0 f   ftbase.obj
 0001:00067350       FT_Stream_ReleaseFrame     0000000180068350 f   ftbase.obj
 0001:00067390       FT_Stream_ExtractFrame     0000000180068390 f   ftbase.obj
 0001:000673d0       FT_Stream_TryRead          00000001800683d0 f   ftbase.obj
 0001:00067450       FT_Stream_ReadAt           0000000180068450 f   ftbase.obj
 0001:00067530       FT_Stream_Read             0000000180068530 f   ftbase.obj
 0001:00067550       FT_Stream_Pos              0000000180068550 f   ftbase.obj
 0001:00067560       FT_Stream_Seek             0000000180068560 f   ftbase.obj
 0001:000675f0       FT_Stream_Close            00000001800685f0 f   ftbase.obj
 0001:00067610       FT_Stream_OpenMemory       0000000180068610 f   ftbase.obj
 0001:00067630       FT_Get_Sfnt_Name_Count     0000000180068630 f   ftbase.obj
 0001:00067a00       FT_Raccess_Guess           0000000180068a00 f   ftbase.obj
 0001:00067b00       FT_Outline_Reverse         0000000180068b00 f   ftbase.obj
 0001:00067bd0       FT_Outline_Translate       0000000180068bd0 f   ftbase.obj
 0001:00067c20       FT_Outline_Get_CBox        0000000180068c20 f   ftbase.obj
 0001:00067ce0       FT_Outline_Done_Internal   0000000180068ce0 f   ftbase.obj
 0001:00067db0       FT_Outline_Copy            0000000180068db0 f   ftbase.obj
 0001:00067e70       FT_Outline_Check           0000000180068e70 f   ftbase.obj
 0001:00067f00       FT_Outline_Decompose       0000000180068f00 f   ftbase.obj
 0001:000686b0       FT_Get_SubGlyph_Info       00000001800696b0 f   ftbase.obj
 0001:00068730       FT_Set_Debug_Hook          0000000180069730 f   ftbase.obj
 0001:00068760       FT_Library_Version         0000000180069760 f   ftbase.obj
 0001:000687a0       FT_New_Library             00000001800697a0 f   ftbase.obj
 0001:00068890       FT_Reference_Library       0000000180069890 f   ftbase.obj
 0001:000688a0       ft_property_do             00000001800698a0 f   ftbase.obj
 0001:00068ac0       ft_module_get_service      0000000180069ac0 f   ftbase.obj
 0001:00068bb0       FT_Get_Module              0000000180069bb0 f   ftbase.obj
 0001:00068c40       FT_Set_Renderer            0000000180069c40 f   ftbase.obj
 0001:00068d60       FT_Lookup_Renderer         0000000180069d60 f   ftbase.obj
 0001:00068dc0       FT_Activate_Size           0000000180069dc0 f   ftbase.obj
 0001:00068e20       FT_Get_CMap_Format         0000000180069e20 f   ftbase.obj
 0001:00068e90       FT_Get_CMap_Language_ID    0000000180069e90 f   ftbase.obj
 0001:00068f00       FT_Sfnt_Table_Info         0000000180069f00 f   ftbase.obj
 0001:00068fb0       FT_Load_Sfnt_Table         0000000180069fb0 f   ftbase.obj
 0001:00069060       FT_Get_Sfnt_Table          000000018006a060 f   ftbase.obj
 0001:000690d0       FT_Get_Postscript_Name     000000018006a0d0 f   ftbase.obj
 0001:00069160       FT_Get_Glyph_Name          000000018006a160 f   ftbase.obj
 0001:00069230       FT_Get_Name_Index          000000018006a230 f   ftbase.obj
 0001:000692d0       FT_Get_Next_Char           000000018006a2d0 f   ftbase.obj
 0001:00069360       FT_Get_Char_Index          000000018006a360 f   ftbase.obj
 0001:00069440       FT_Get_Charmap_Index       000000018006a440 f   ftbase.obj
 0001:000694a0       FT_Set_Charmap             000000018006a4a0 f   ftbase.obj
 0001:00069570       FT_Get_Track_Kerning       000000018006a570 f   ftbase.obj
 0001:00069620       ft_synthesize_vertical_metrics 000000018006a620 f   ftbase.obj
 0001:00069690       FT_Match_Size              000000018006a690 f   ftbase.obj
 0001:00069830       FT_New_Size                000000018006a830 f   ftbase.obj
 0001:00069990       FT_Reference_Face          000000018006a990 f   ftbase.obj
 0001:00069e00       FT_Set_Transform           000000018006ae00 f   ftbase.obj
 0001:00069ea0       ft_glyphslot_alloc_bitmap  000000018006aea0 f   ftbase.obj
 0001:00069f20       ft_glyphslot_free_bitmap   000000018006af20 f   ftbase.obj
 0001:00069f80       FT_Stream_Free             000000018006af80 f   ftbase.obj
 0001:00069fd0       ft_validator_error         000000018006afd0 f   ftbase.obj
 0001:00069ff0       ft_validator_run           000000018006aff0 f   ftbase.obj
 0001:0006a000       ft_validator_init          000000018006b000 f   ftbase.obj
 0001:0006a020       ft_service_list_lookup     000000018006b020 f   ftbase.obj
 0001:0006a090       MD5_Init                   000000018006b090 f   ftbase.obj
 0001:0006aba0       FT_GlyphLoader_Rewind      000000018006bba0 f   ftbase.obj
 0001:0006ac10       FT_GlyphLoader_New         000000018006bc10 f   ftbase.obj
 0001:0006ac60       ft_corner_is_flat          000000018006bc60 f   ftbase.obj
 0001:0006acd0       ft_corner_orientation      000000018006bcd0 f   ftbase.obj
 0001:0006ad60       FT_SqrtFixed               000000018006bd60 f   ftbase.obj
 0001:0006adb0       FT_DivFix                  000000018006bdb0 f   ftbase.obj
 0001:0006ae10       FT_MulFix                  000000018006be10 f   ftbase.obj
 0001:0006ae50       FT_MulDiv_No_Round         000000018006be50 f   ftbase.obj
 0001:0006aeb0       FT_MulDiv                  000000018006beb0 f   ftbase.obj
 0001:0006af10       FT_MSB                     000000018006bf10 f   ftbase.obj
 0001:0006af60       FT_FloorFix                000000018006bf60 f   ftbase.obj
 0001:0006af80       FT_CeilFix                 000000018006bf80 f   ftbase.obj
 0001:0006afb0       FT_RoundFix                000000018006bfb0 f   ftbase.obj
 0001:0006b070       FT_List_Finalize           000000018006c070 f   ftbase.obj
 0001:0006b100       ft_mem_dup                 000000018006c100 f   ftbase.obj
 0001:0006b170       ft_mem_qrealloc            000000018006c170 f   ftbase.obj
 0001:0006b2a0       ft_mem_realloc             000000018006c2a0 f   ftbase.obj
 0001:0006b340       FT_Vector_Unit             000000018006c340 f   ftbase.obj
 0001:0006b390       FT_Tan                     000000018006c390 f   ftbase.obj
 0001:0006b3d0       FT_Cos                     000000018006c3d0 f   ftbase.obj
 0001:0006b480       FT_Stream_ReadFields       000000018006c480 f   ftbase.obj
 0001:0006b760       FT_Stream_Skip             000000018006c760 f   ftbase.obj
 0001:0006b7a0       FT_Get_Sfnt_Name           000000018006c7a0 f   ftbase.obj
 0001:0006bb60       FT_Raccess_Get_DataOffsets 000000018006cb60 f   ftbase.obj
 0001:0006be90       FT_Raccess_Get_HeaderInfo  000000018006ce90 f   ftbase.obj
 0001:0006c060       FT_Outline_Get_Orientation 000000018006d060 f   ftbase.obj
 0001:0006c2a0       FT_Vector_Transform        000000018006d2a0 f   ftbase.obj
 0001:0006c320       FT_Outline_Render          000000018006d320 f   ftbase.obj
 0001:0006c420       FT_Outline_Done            000000018006d420 f   ftbase.obj
 0001:0006c460       FT_Outline_New_Internal    000000018006d460 f   ftbase.obj
 0001:0006c630       FT_Get_TrueType_Engine_Type 000000018006d630 f   ftbase.obj
 0001:0006c680       FT_Property_Get            000000018006d680 f   ftbase.obj
 0001:0006c6a0       FT_Property_Set            000000018006d6a0 f   ftbase.obj
 0001:0006c6c0       FT_Get_Module_Interface    000000018006d6c0 f   ftbase.obj
 0001:0006c6f0       FT_Get_Renderer            000000018006d6f0 f   ftbase.obj
 0001:0006c770       FT_Face_GetCharsOfVariant  000000018006d770 f   ftbase.obj
 0001:0006c820       FT_Face_GetVariantsOfChar  000000018006d820 f   ftbase.obj
 0001:0006c8d0       FT_Face_GetVariantSelectors 000000018006d8d0 f   ftbase.obj
 0001:0006c910       FT_Face_GetCharVariantIsDefault 000000018006d910 f   ftbase.obj
 0001:0006c9f0       FT_Face_GetCharVariantIndex 000000018006d9f0 f   ftbase.obj
 0001:0006caf0       FT_Get_First_Char          000000018006daf0 f   ftbase.obj
 0001:0006cb70       FT_CMap_New                000000018006db70 f   ftbase.obj
 0001:0006ccb0       FT_CMap_Done               000000018006dcb0 f   ftbase.obj
 0001:0006cdc0       FT_Select_Charmap          000000018006ddc0 f   ftbase.obj
 0001:0006ce80       FT_Get_Kerning             000000018006de80 f   ftbase.obj
 0001:0006d050       FT_Done_Size               000000018006e050 f   ftbase.obj
 0001:0006d680       ft_glyphslot_set_bitmap    000000018006e680 f   ftbase.obj
 0001:0006d770       FT_Stream_New              000000018006e770 f   ftbase.obj
 0001:0006d8b0       MD5_Final                  000000018006e8b0 f   ftbase.obj
 0001:0006da10       MD5_Update                 000000018006ea10 f   ftbase.obj
 0001:0006dae0       FT_GlyphLoader_Prepare     000000018006eae0 f   ftbase.obj
 0001:0006db10       FT_GlyphLoader_CheckSubGlyphs 000000018006eb10 f   ftbase.obj
 0001:0006dba0       FT_GlyphLoader_CreateExtra 000000018006eba0 f   ftbase.obj
 0001:0006dc10       FT_GlyphLoader_Reset       000000018006ec10 f   ftbase.obj
 0001:0006dcb0       FT_Vector_Transform_Scaled 000000018006ecb0 f   ftbase.obj
 0001:0006dd50       FT_Matrix_Multiply_Scaled  000000018006ed50 f   ftbase.obj
 0001:0006de90       FT_Matrix_Invert           000000018006ee90 f   ftbase.obj
 0001:0006df60       FT_Matrix_Multiply         000000018006ef60 f   ftbase.obj
 0001:0006e050       ft_mem_strdup              000000018006f050 f   ftbase.obj
 0001:0006e0b0       FT_Vector_Polarize         000000018006f0b0 f   ftbase.obj
 0001:0006e130       FT_Vector_Length           000000018006f130 f   ftbase.obj
 0001:0006e1d0       FT_Vector_Rotate           000000018006f1d0 f   ftbase.obj
 0001:0006e290       FT_Atan2                   000000018006f290 f   ftbase.obj
 0001:0006e2d0       FT_Sin                     000000018006f2d0 f   ftbase.obj
 0001:0006e550       FT_Outline_EmboldenXY      000000018006f550 f   ftbase.obj
 0001:0006e960       FT_Outline_Embolden        000000018006f960 f   ftbase.obj
 0001:0006e970       FT_Outline_Transform       000000018006f970 f   ftbase.obj
 0001:0006e9d0       FT_Outline_Get_Bitmap      000000018006f9d0 f   ftbase.obj
 0001:0006ea40       FT_Outline_New             000000018006fa40 f   ftbase.obj
 0001:0006ea80       FT_Render_Glyph_Internal   000000018006fa80 f   ftbase.obj
 0001:0006eda0       FT_Request_Metrics         000000018006fda0 f   ftbase.obj
 0001:0006f130       FT_Select_Metrics          0000000180070130 f   ftbase.obj
 0001:0006f340       FT_Attach_Stream           0000000180070340 f   ftbase.obj
 0001:0006f430       FT_Attach_File             0000000180070430 f   ftbase.obj
 0001:0006f950       FT_GlyphLoader_Add         0000000180070950 f   ftbase.obj
 0001:0006f9c0       FT_GlyphLoader_CheckPoints 00000001800709c0 f   ftbase.obj
 0001:0006fba0       FT_GlyphLoader_Done        0000000180070ba0 f   ftbase.obj
 0001:0006fbe0       FT_Hypot                   0000000180070be0 f   ftbase.obj
 0001:0006fc10       FT_Vector_From_Polar       0000000180070c10 f   ftbase.obj
 0001:0006fc30       FT_Render_Glyph            0000000180070c30 f   ftbase.obj
 0001:0006fc80       FT_Select_Size             0000000180070c80 f   ftbase.obj
 0001:00070040       FT_Load_Glyph              0000000180071040 f   ftbase.obj
 0001:000704b0       FT_GlyphLoader_CopyPoints  00000001800714b0 f   ftbase.obj
 0001:000705a0       FT_Get_Advances            00000001800715a0 f   ftbase.obj
 0001:00070740       FT_Get_Advance             0000000180071740 f   ftbase.obj
 0001:00070830       FT_Request_Size            0000000180071830 f   ftbase.obj
 0001:00070c00       FT_Load_Char               0000000180071c00 f   ftbase.obj
 0001:00070c70       FT_Done_GlyphSlot          0000000180071c70 f   ftbase.obj
 0001:00070d10       FT_New_GlyphSlot           0000000180071d10 f   ftbase.obj
 0001:00070e20       FT_Set_Pixel_Sizes         0000000180071e20 f   ftbase.obj
 0001:00070e90       FT_Set_Char_Size           0000000180071e90 f   ftbase.obj
 0001:000713a0       FT_Done_Face               00000001800723a0 f   ftbase.obj
 0001:00071610       FT_Open_Face               0000000180072610 f   ftbase.obj
 0001:00071b20       FT_New_Memory_Face         0000000180072b20 f   ftbase.obj
 0001:00071b90       FT_New_Face                0000000180072b90 f   ftbase.obj
 0001:00071bf0       FT_Remove_Module           0000000180072bf0 f   ftbase.obj
 0001:00071cc0       FT_Add_Module              0000000180072cc0 f   ftbase.obj
 0001:00071f10       FT_Done_Library            0000000180072f10 f   ftbase.obj
 0001:000759f0       af_property_get_face_globals 00000001800769f0 f   autofit.obj
 0001:00078b50       af_property_get            0000000180079b50 f   autofit.obj
 0001:00078c60       af_property_set            0000000180079c60 f   autofit.obj
 0001:00079270       FT_Stream_OpenBzip2        000000018007a270 f   ftbzip2.obj
 0001:000792a0       FT_Add_Default_Modules     000000018007a2a0 f   ftinit.obj
 0001:00079310       FT_Done_FreeType           000000018007a310 f   ftinit.obj
 0001:00079340       FT_Init_FreeType           000000018007a340 f   ftinit.obj
 0001:000793d2       memcpy                     000000018007a3d2 f   MSVCRT:MSVCR90.dll
 0001:000793d8       memset                     000000018007a3d8 f   MSVCRT:MSVCR90.dll
 0001:000793de       memcmp                     000000018007a3de f   MSVCRT:MSVCR90.dll
 0001:000793e4       _setjmp                    000000018007a3e4 f   MSVCRT:MSVCR90.dll
 0001:00079400       _alloca_probe              000000018007a400     MSVCRT:chkstk.obj
 0001:00079400       __chkstk                   000000018007a400 f   MSVCRT:chkstk.obj
 0002:00000000       __imp_GetCurrentProcessId  000000018007b000     kernel32:KERNEL32.dll
 0002:00000008       __imp_GetCurrentThreadId   000000018007b008     kernel32:KERNEL32.dll
 0002:00000010       __imp_GetTickCount         000000018007b010     kernel32:KERNEL32.dll
 0002:00000018       __imp_QueryPerformanceCounter 000000018007b018     kernel32:KERNEL32.dll
 0002:00000020       __imp_DisableThreadLibraryCalls 000000018007b020     kernel32:KERNEL32.dll
 0002:00000028       __imp_Sleep                000000018007b028     kernel32:KERNEL32.dll
 0002:00000030       __imp_GetSystemTimeAsFileTime 000000018007b030     kernel32:KERNEL32.dll
 0002:00000038       \177KERNEL32_NULL_THUNK_DATA 000000018007b038     kernel32:KERNEL32.dll
 0002:00000040       __imp_exit                 000000018007b040     MSVCRT:MSVCR90.dll
 0002:00000048       __imp_free                 000000018007b048     MSVCRT:MSVCR90.dll
 0002:00000050       __imp_malloc               000000018007b050     MSVCRT:MSVCR90.dll
 0002:00000058       __imp_fopen                000000018007b058     MSVCRT:MSVCR90.dll
 0002:00000060       __imp_fread                000000018007b060     MSVCRT:MSVCR90.dll
 0002:00000068       __imp_ftell                000000018007b068     MSVCRT:MSVCR90.dll
 0002:00000070       __imp_realloc              000000018007b070     MSVCRT:MSVCR90.dll
 0002:00000078       __imp_fseek                000000018007b078     MSVCRT:MSVCR90.dll
 0002:00000080       __imp_fclose               000000018007b080     MSVCRT:MSVCR90.dll
 0002:00000088       __imp_sprintf              000000018007b088     MSVCRT:MSVCR90.dll
 0002:00000090       __imp_strncmp              000000018007b090     MSVCRT:MSVCR90.dll
 0002:00000098       __imp_atol                 000000018007b098     MSVCRT:MSVCR90.dll
 0002:000000a0       __imp_memchr               000000018007b0a0     MSVCRT:MSVCR90.dll
 0002:000000a8       __imp_strstr               000000018007b0a8     MSVCRT:MSVCR90.dll
 0002:000000b0       __imp_getenv               000000018007b0b0     MSVCRT:MSVCR90.dll
 0002:000000b8       __imp__malloc_crt          000000018007b0b8     MSVCRT:MSVCR90.dll
 0002:000000c0       __imp__initterm            000000018007b0c0     MSVCRT:MSVCR90.dll
 0002:000000c8       __imp__initterm_e          000000018007b0c8     MSVCRT:MSVCR90.dll
 0002:000000d0       __imp__encoded_null        000000018007b0d0     MSVCRT:MSVCR90.dll
 0002:000000d8       __imp__decode_pointer      000000018007b0d8     MSVCRT:MSVCR90.dll
 0002:000000e0       __imp__amsg_exit           000000018007b0e0     MSVCRT:MSVCR90.dll
 0002:000000e8       __imp___C_specific_handler 000000018007b0e8     MSVCRT:MSVCR90.dll
 0002:000000f0       __imp___CppXcptFilter      000000018007b0f0     MSVCRT:MSVCR90.dll
 0002:000000f8       __imp___clean_type_info_names_internal 000000018007b0f8     MSVCRT:MSVCR90.dll
 0002:00000100       __imp__unlock              000000018007b100     MSVCRT:MSVCR90.dll
 0002:00000108       __imp___dllonexit          000000018007b108     MSVCRT:MSVCR90.dll
 0002:00000110       __imp__lock                000000018007b110     MSVCRT:MSVCR90.dll
 0002:00000118       __imp__onexit              000000018007b118     MSVCRT:MSVCR90.dll
 0002:00000120       __imp_vfprintf             000000018007b120     MSVCRT:MSVCR90.dll
 0002:00000128       __imp___iob_func           000000018007b128     MSVCRT:MSVCR90.dll
 0002:00000130       __imp_longjmp              000000018007b130     MSVCRT:MSVCR90.dll
 0002:00000138       __imp_strrchr              000000018007b138     MSVCRT:MSVCR90.dll
 0002:00000140       __imp_strncpy              000000018007b140     MSVCRT:MSVCR90.dll
 0002:00000148       __imp_qsort                000000018007b148     MSVCRT:MSVCR90.dll
 0002:00000150       __imp__encode_pointer      000000018007b150     MSVCRT:MSVCR90.dll
 0002:00000158       __imp_memmove              000000018007b158     MSVCRT:MSVCR90.dll
 0002:00000160       __imp_memcpy               000000018007b160     MSVCRT:MSVCR90.dll
 0002:00000168       __imp_memset               000000018007b168     MSVCRT:MSVCR90.dll
 0002:00000170       __imp_memcmp               000000018007b170     MSVCRT:MSVCR90.dll
 0002:00000178       __imp__setjmp              000000018007b178     MSVCRT:MSVCR90.dll
 0002:00000180       \177MSVCR90_NULL_THUNK_DATA 000000018007b180     MSVCRT:MSVCR90.dll
 0002:00000188       __xc_a                     000000018007b188     MSVCRT:cinitexe.obj
 0002:00000190       __xc_z                     000000018007b190     MSVCRT:cinitexe.obj
 0002:00000198       __xi_a                     000000018007b198     MSVCRT:cinitexe.obj
 0002:000001a8       __xi_z                     000000018007b1a8     MSVCRT:cinitexe.obj
 0002:000001b0       _pRawDllMain               000000018007b1b0     MSVCRT:crtdll.obj
 0002:000001b0       _pDefaultRawDllMain        000000018007b1b0     MSVCRT:crtdll.obj
 0002:000001b8       ??_C@_0L@MNEBCNMP@autofitter?$AA@ 000000018007b1b8     autofit.obj
 0002:000001c8       ??_C@_0L@CIHKIEFA@properties?$AA@ 000000018007b1c8     autofit.obj
 0002:000001e0       winfnt_driver_class        000000018007b1e0     winfnt.obj
 0002:00001840       t42_driver_class           000000018007c840     type42.obj
 0002:00001d10       t1_driver_class            000000018007cd10     type1.obj
 0002:00002760       tt_driver_class            000000018007d760     truetype.obj
 0002:00002b40       tt_default_graphics_state  000000018007db40     truetype.obj
 0002:000035b0       ft_grays_raster            000000018007e5b0     smooth.obj
 0002:000035e0       ft_smooth_renderer_class   000000018007e5e0     smooth.obj
 0002:00003648       sfnt_module_class          000000018007e648     sfnt.obj
 0002:00003680       ft_smooth_lcd_renderer_class 000000018007e680     smooth.obj
 0002:00003700       ft_smooth_lcdv_renderer_class 000000018007e700     smooth.obj
 0002:00003af0       tt_cmap0_class_rec         000000018007eaf0     sfnt.obj
 0002:00003b70       tt_cmap2_class_rec         000000018007eb70     sfnt.obj
 0002:00003be0       tt_cmap4_class_rec         000000018007ebe0     sfnt.obj
 0002:00003c50       tt_cmap6_class_rec         000000018007ec50     sfnt.obj
 0002:00003cb8       psnames_module_class       000000018007ecb8     psnames.obj
 0002:00003cf0       tt_cmap8_class_rec         000000018007ecf0     sfnt.obj
 0002:00003d80       tt_cmap10_class_rec        000000018007ed80     sfnt.obj
 0002:00003e10       tt_cmap12_class_rec        000000018007ee10     sfnt.obj
 0002:00003e90       tt_cmap13_class_rec        000000018007ee90     sfnt.obj
 0002:00003ef8       pshinter_module_class      000000018007eef8     pshinter.obj
 0002:00003f30       tt_cmap14_class_rec        000000018007ef30     sfnt.obj
 0002:00003f98       t1_decoder_funcs           000000018007ef98     psaux.obj
 0002:000040b8       afm_parser_funcs           000000018007f0b8     psaux.obj
 0002:00004130       ft_standard_raster         000000018007f130     raster.obj
 0002:00004160       ft_raster1_renderer_class  000000018007f160     raster.obj
 0002:00004200       ft_raster5_renderer_class  000000018007f200     raster.obj
 0002:00004268       psaux_module_class         000000018007f268     psaux.obj
 0002:000135a8       ps_table_funcs             000000018008e5a8     psaux.obj
 0002:000135c8       pfr_metrics_service_rec    000000018008e5c8     pfr.obj
 0002:000135e0       ps_parser_funcs            000000018008e5e0     psaux.obj
 0002:00013660       t1_builder_funcs           000000018008e660     psaux.obj
 0002:000136a0       t1_cmap_standard_class_rec 000000018008e6a0     psaux.obj
 0002:000136f0       t1_cmap_expert_class_rec   000000018008e6f0     psaux.obj
 0002:00013740       t1_cmap_custom_class_rec   000000018008e740     psaux.obj
 0002:00013790       t1_cmap_unicode_class_rec  000000018008e790     psaux.obj
 0002:000137e0       t1_cmap_classes            000000018008e7e0     psaux.obj
 0002:00013b40       pfr_driver_class           000000018008eb40     pfr.obj
 0002:00013cd0       pfr_cmap_class_rec         000000018008ecd0     pfr.obj
 0002:00013d50       pcf_driver_class           000000018008ed50     pcf.obj
 0002:00013f40       pcf_cmap_class             000000018008ef40     pcf.obj
 0002:000140c0       t1cid_driver_class         000000018008f0c0     type1cid.obj
 0002:00014b90       cff_driver_class           000000018008fb90     cff.obj
 0002:00015d58       ftc_size_list_class        0000000180090d58     ftcache.obj
 0002:00015d80       cff_cmap_encoding_class_rec 0000000180090d80     cff.obj
 0002:00015dd0       cff_cmap_unicode_class_rec 0000000180090dd0     cff.obj
 0002:00015e60       ftc_face_list_class        0000000180090e60     ftcache.obj
 0002:00015e88       ftc_basic_sbit_family_class 0000000180090e88     ftcache.obj
 0002:00015ec0       ftc_cmap_cache_class       0000000180090ec0     ftcache.obj
 0002:00015f00       ftc_basic_image_family_class 0000000180090f00     ftcache.obj
 0002:00015f30       ftc_basic_image_cache_class 0000000180090f30     ftcache.obj
 0002:00015f80       ftc_basic_sbit_cache_class 0000000180090f80     ftcache.obj
 0002:00015fc8       ft_bitmap_glyph_class      0000000180090fc8     ftglyph.obj
 0002:00016000       bdf_driver_class           0000000180091000     bdf.obj
 0002:000160b8       ft_outline_glyph_class     00000001800910b8     ftglyph.obj
 0002:000169c0       bdf_cmap_class             00000001800919c0     bdf.obj
 0002:00016b10       ft_raccess_guess_table     0000000180091b10     ftbase.obj
 0002:00016c20       af_dummy_script_class      0000000180091c20     autofit.obj
 0002:00016c68       autofit_module_class       0000000180091c68     autofit.obj
 0002:00016d90       af_latin_script_class      0000000180091d90     autofit.obj
 0002:00016ef0       af_cjk_script_class        0000000180091ef0     autofit.obj
 0002:00016f80       af_indic_script_class      0000000180091f80     autofit.obj
 0002:00017450       af_autofitter_interface    0000000180092450     autofit.obj
 0002:00017470       ??_C@_0EF@PDOBOAFB@m?3?2svn?2?4private?2mini?2umodsys?2dep@ 0000000180092470     autofit.obj
 0002:000174b8       ??_C@_0CI@LNKHNHDB@assertion?5failed?5on?5line?5?$CFd?5of?5f@ 00000001800924b8     autofit.obj
 0002:000174e0       ??_C@_0EE@OPBHFCIO@m?3?2svn?2?4private?2mini?2umodsys?2dep@ 00000001800924e0     autofit.obj
 0002:00017528       ??_C@_0DK@LEPJBMCE@standard?5widths?5computation?6?$DN?$DN?$DN?$DN@ 0000000180092528     autofit.obj
 0002:00017568       ??_C@_0CL@PAJPHIA@standard?5character?3?50x?$CFX?5?$CIglyph?5@ 0000000180092568     autofit.obj
 0002:00017598       ??_C@_0L@LMMKHPOB@horizontal?$AA@ 0000000180092598     autofit.obj
 0002:000175a8       ??_C@_08NEOMLJGJ@vertical?$AA@ 00000001800925a8     autofit.obj
 0002:000175b8       ??_C@_0M@JLNCCLMF@?$CFs?5widths?3?6?$AA@ 00000001800925b8     autofit.obj
 0002:000175c8       ??_C@_0BA@KFDNFODA@?5?5?$CFd?5?$CIstandard?$CJ?$AA@ 00000001800925c8     autofit.obj
 0002:000175d8       ??_C@_03EBJOKFHF@?5?$CFd?$AA@ 00000001800925d8     autofit.obj
 0002:000175dc       ??_C@_01EEMJAFIK@?6?$AA@   00000001800925dc     autofit.obj
 0002:000175e0       ??_C@_0DA@OOEEMNDP@blue?5zones?5computation?6?$DN?$DN?$DN?$DN?$DN?$DN?$DN?$DN?$DN@ 00000001800925e0     autofit.obj
 0002:00017610       ??_C@_0P@OCIOIKAD@blue?5zone?5?$CFd?3?6?$AA@ 0000000180092610     autofit.obj
 0002:00017620       ??_C@_09MLMMMFGJ@?5?5?$CFc?5?5?$CFld?$AA@ 0000000180092620     autofit.obj
 0002:0001762c       ??_C@_05MIMAKCN@round?$AA@ 000000018009262c     autofit.obj
 0002:00017634       ??_C@_04FMBJNPFB@flat?$AA@ 0000000180092634     autofit.obj
 0002:0001763c       ??_C@_06PLAJKEKF@?5?$CI?$CFs?$CJ?6?$AA@ 000000018009263c     autofit.obj
 0002:00017648       ??_C@_08LDNFBIDD@?5?5empty?6?$AA@ 0000000180092648     autofit.obj
 0002:00017658       ??_C@_0DJ@NLNICGBP@?5?5?$FLovershoot?5smaller?5than?5refere@ 0000000180092658     autofit.obj
 0002:00017698       ??_C@_0CP@JHJINMEL@?5?5?5?5?9?$DO?5reference?5?$DN?5?$CFld?6?5?5?5?5?5?5?5ov@ 0000000180092698     autofit.obj
 0002:000176d0       ??_C@_0EF@LJFILMHI@?5?5LINK?3?5edge?5?$CFd?5?$CIopos?$DN?$CF?42f?$CJ?5link@ 00000001800926d0     autofit.obj
 0002:00017718       ??_C@_0BB@PNNPEEIA@?$CFs?5edge?5hinting?6?$AA@ 0000000180092718     autofit.obj
 0002:00017730       ??_C@_0EP@IPINFLPN@?5?5BLUE_ANCHOR?3?5edge?5?$CFd?5?$CIopos?$DN?$CF?42@ 0000000180092730     autofit.obj
 0002:00017780       ??_C@_0DH@JELFDAPE@?5?5BLUE?3?5edge?5?$CFd?5?$CIopos?$DN?$CF?42f?$CJ?5snap@ 0000000180092780     autofit.obj
 0002:000177b8       ??_C@_0CA@FCEDGMBE@?5?5ASSERTION?5FAILED?5for?5edge?5?$CFd?6?$AA@ 00000001800927b8     autofit.obj
 0002:000177e0       ??_C@_0EL@FPOPNBHO@?5?5ANCHOR?3?5edge?5?$CFd?5?$CIopos?$DN?$CF?42f?$CJ?5an@ 00000001800927e0     autofit.obj
 0002:00017830       ??_C@_0CM@NJDIDKKL@?5?5ADJUST?3?5edge?5?$CFd?5?$CIpos?$DN?$CF?42f?$CJ?5mov@ 0000000180092830     autofit.obj
 0002:00017860       ??_C@_0EP@ENJHGNKO@?5?5STEM?3?5edge?5?$CFd?5?$CIopos?$DN?$CF?42f?$CJ?5link@ 0000000180092860     autofit.obj
 0002:000178b0       ??_C@_0CL@PILJPGPJ@?5?5BOUND?3?5edge?5?$CFd?5?$CIpos?$DN?$CF?42f?$CJ?5move@ 00000001800928b0     autofit.obj
 0002:000178e0       ??_C@_0EG@IKDPLHHC@?5?5SERIF?3?5edge?5?$CFd?5?$CIopos?$DN?$CF?42f?$CJ?5ser@ 00000001800928e0     autofit.obj
 0002:00017928       ??_C@_0DF@JLBLFNAN@?5?5SERIF_ANCHOR?3?5edge?5?$CFd?5?$CIopos?$DN?$CF?4@ 0000000180092928     autofit.obj
 0002:00017960       ??_C@_0EI@CLPFPFJH@?5?5SERIF_LINK1?3?5edge?5?$CFd?5?$CIopos?$DN?$CF?42@ 0000000180092960     autofit.obj
 0002:000179a8       ??_C@_0DE@BMCAJCJH@?5?5SERIF_LINK2?3?5edge?5?$CFd?5?$CIopos?$DN?$CF?42@ 00000001800929a8     autofit.obj
 0002:000179e0       ??_C@_09DOOILONG@?5?5?$CInone?$CJ?6?$AA@ 00000001800929e0     autofit.obj
 0002:000179ec       ??_C@_03FGFCOCMD@top?$AA@  00000001800929ec     autofit.obj
 0002:000179f0       ??_C@_06PMMPCIPB@bottom?$AA@ 00000001800929f0     autofit.obj
 0002:000179f8       ??_C@_04GOOOJOPP@left?$AA@ 00000001800929f8     autofit.obj
 0002:00017a00       ??_C@_05DHJDAOHK@right?$AA@ 0000000180092a00     autofit.obj
 0002:00017a08       ??_C@_06MHLBHCFD@filled?$AA@ 0000000180092a08     autofit.obj
 0002:00017a10       ??_C@_08MDIBINJA@unfilled?$AA@ 0000000180092a10     autofit.obj
 0002:00017a20       ??_C@_0BM@HCCELELM@cjk?5blue?5zones?5computation?6?$AA@ 0000000180092a20     autofit.obj
 0002:00017a40       ??_C@_0DC@FBKHDEOD@?9?9?9?9?9?9?9?9?9?9?9?9?9?9?9?9?9?9?9?9?9?9?9?9?9?9?9?9?9?9?9?9@ 0000000180092a40     autofit.obj
 0002:00017a78       ??_C@_0BA@FPDEOEBM@cjk?5blue?5?$CFs?1?$CFs?6?$AA@ 0000000180092a78     autofit.obj
 0002:00017a88       ??_C@_0L@FCIJFPPG@?5?5U?$CL?$CFlX?4?4?4?$AA@ 0000000180092a88     autofit.obj
 0002:00017a98       ??_C@_0N@NBMNCMBF@unavailable?6?$AA@ 0000000180092a98     autofit.obj
 0002:00017aa8       ??_C@_0M@DCGLHJHN@no?5outline?6?$AA@ 0000000180092aa8     autofit.obj
 0002:00017ab8       ??_C@_0P@GFEHJDLP@best_pos?$DN?$CF5ld?6?$AA@ 0000000180092ab8     autofit.obj
 0002:00017ac8       ??_C@_06LDDHDDBG@empty?6?$AA@ 0000000180092ac8     autofit.obj
 0002:00017ad0       ??_C@_0CK@MEDHDPHI@?9?9?5cjk?5?$CFs?5bluezone?5ref?5?$DN?5?$CFld?5sho@ 0000000180092ad0     autofit.obj
 0002:00017b00       ??_C@_09PKPCEPOK@delta?3?5?$CFd?$AA@ 0000000180092b00     autofit.obj
 0002:00017b0c       ??_C@_04FIJBGEEN@?1?$CFd?6?$AA@ 0000000180092b0c     autofit.obj
 0002:00017b20       ??_C@_0FI@KEHJLDFB@?$DO?$DO?5active?5cjk?5blue?5zone?5?$CFc?$CFd?$FL?$CFld@ 0000000180092b20     autofit.obj
 0002:00017b78       ??_C@_0CB@MECMNKLE@?$DN?$DN?$DN?$DN?5cjk?5hinting?5?$CFs?5edges?5?$DN?$DN?$DN?$DN?$DN?6@ 0000000180092b78     autofit.obj
 0002:00017ba0       ??_C@_0EA@EFLJIJKK@CJKBLUE?3?5edge?5?$CFd?5?$EA?$CFd?5?$CIopos?$DN?$CF?42f?$CJ@ 0000000180092ba0     autofit.obj
 0002:00017be0       ??_C@_0BO@HGHDMGLP@ASSERTION?5FAILED?5for?5edge?5?$CFd?6?$AA@ 0000000180092be0     autofit.obj
 0002:00017c00       ??_C@_0EF@DMBLGHED@m?3?2svn?2?4private?2mini?2umodsys?2dep@ 0000000180092c00     autofit.obj
 0002:00017c50       ??_C@_0EF@HBAMIAMO@m?3?2svn?2?4private?2mini?2umodsys?2dep@ 0000000180092c50     autofit.obj
 0002:00017c98       ??_C@_0BA@OKOILHEH@fallback?9script?$AA@ 0000000180092c98     autofit.obj
 0002:00017ca8       ??_C@_0BC@OOHNGIJD@increase?9x?9height?$AA@ 0000000180092ca8     autofit.obj
 0002:00017cc0       ??_C@_0CI@BAHKCIED@af_property_set?3?5missing?5propert@ 0000000180092cc0     autofit.obj
 0002:00017ce8       ??_C@_0BE@CELKBFDM@glyph?9to?9script?9map?$AA@ 0000000180092ce8     autofit.obj
 0002:00017d00       ??_C@_0CI@NPCANOH@af_property_get?3?5missing?5propert@ 0000000180092d00     autofit.obj
 0002:00017d30       ??_C@_0EC@CAMDBIJG@m?3?2svn?2?4private?2mini?2umodsys?2dep@ 0000000180092d30     ftbase.obj
 0002:00017d80       ??_C@_0EA@MKJLHCHF@m?3?2svn?2?4private?2mini?2umodsys?2dep@ 0000000180092d80     ftbase.obj
 0002:00017dc0       ??_C@_0EC@NAGPILOP@m?3?2svn?2?4private?2mini?2umodsys?2dep@ 0000000180092dc0     ftbase.obj
 0002:00017e10       ??_C@_0EA@FEPGMIJA@m?3?2svn?2?4private?2mini?2umodsys?2dep@ 0000000180092e10     ftbase.obj
 0002:00017e50       ??_C@_0CM@EJMEHHKF@FT_New_GlyphSlot?3?5Creating?5new?5s@ 0000000180092e50     ftbase.obj
 0002:00017e80       ??_C@_0BN@GHDAFOEM@FT_New_GlyphSlot?3?5Return?5?$CFd?6?$AA@ 0000000180092e80     ftbase.obj
 0002:00017ea0       ??_C@_0BB@IOAIMLPN@?5?5x?5advance?3?5?$CFd?6?$AA@ 0000000180092ea0     ftbase.obj
 0002:00017eb8       ??_C@_0BB@DHPDBABF@?5?5y?5advance?3?5?$CFd?6?$AA@ 0000000180092eb8     ftbase.obj
 0002:00017ed0       ??_C@_0BI@JDGPFKEE@?5?5linear?5x?5advance?3?5?$CFd?6?$AA@ 0000000180092ed0     ftbase.obj
 0002:00017ee8       ??_C@_0BI@CKJEIBKM@?5?5linear?5y?5advance?3?5?$CFd?6?$AA@ 0000000180092ee8     ftbase.obj
 0002:00017f00       ??_C@_03LBLPCGAC@cid?$AA@  0000000180092f00     ftbase.obj
 0002:00017f04       ??_C@_05MJDCDNNA@type1?$AA@ 0000000180092f04     ftbase.obj
 0002:00017f10       ??_C@_0DO@FFNFKKBL@POST?5fragment?$FL?$CFd?$FN?3?5offsets?$DN0x?$CF08@ 0000000180092f10     ftbase.obj
 0002:00017f50       ??_C@_04LLEFIKCJ@OTTO?$AA@ 0000000180092f50     ftbase.obj
 0002:00017f58       ??_C@_03IINFADLN@cff?$AA@  0000000180092f58     ftbase.obj
 0002:00017f60       ??_C@_08OKLLNAKL@truetype?$AA@ 0000000180092f60     ftbase.obj
 0002:00017f70       ??_C@_0FA@JCLMAEBF@Skip?5rule?5?$CFd?3?5darwin?5vfs?5resourc@ 0000000180092f70     ftbase.obj
 0002:00017fc0       ??_C@_0CD@FFDDFHGN@Error?$FL?$CFd?$FN?5has?5occurred?5in?5rule?5?$CF@ 0000000180092fc0     ftbase.obj
 0002:00017fe8       ??_C@_0CA@PFAALNLK@Try?5rule?5?$CFd?3?5?$CFs?5?$CIoffset?$DN?$CFd?$CJ?5?4?4?4?$AA@ 0000000180092fe8     ftbase.obj
 0002:00018008       ??_C@_07GLGIIGGC@failed?6?$AA@ 0000000180093008     ftbase.obj
 0002:00018010       ??_C@_06ODACHPEO@failed?$AA@ 0000000180093010     ftbase.obj
 0002:00018018       ??_C@_0L@LHCHIOPJ@successful?$AA@ 0000000180093018     ftbase.obj
 0002:00018024       ??_C@_03OFAPEBGM@?$CFs?6?$AA@ 0000000180093024     ftbase.obj
 0002:00018028       ??_C@_0BF@BBOLNHBA@Try?5as?5dfont?3?5?$CFs?5?4?4?4?$AA@ 0000000180093028     ftbase.obj
 0002:00018040       ??_C@_0CP@IBOIBMPE@FT_Open_Face?3?5New?5face?5object?0?5a@ 0000000180093040     ftbase.obj
 0002:00018070       ??_C@_0CD@CHCDOGML@FT_Open_Face?3?5Creating?5glyph?5slo@ 0000000180093070     ftbase.obj
 0002:00018098       ??_C@_0CE@BJBAHAEB@FT_Open_Face?3?5Creating?5size?5obje@ 0000000180093098     ftbase.obj
 0002:000180c0       ??_C@_0BJ@MEHPJOJJ@FT_Open_Face?3?5Return?5?$CFd?6?$AA@ 00000001800930c0     ftbase.obj
 0002:000180e0       ??_C@_0CJ@DDDPHPIG@FT_Match_Size?3?5bitmap?5strike?5?$CFd?5@ 00000001800930e0     ftbase.obj
 0002:00018110       ??_C@_0BE@MLDMBGGF@FT_Select_Metrics?3?6?$AA@ 0000000180093110     ftbase.obj
 0002:00018128       ??_C@_0BE@ELENCOCM@?5?5x?5scale?3?5?$CFd?5?$CI?$CFf?$CJ?6?$AA@ 0000000180093128     ftbase.obj
 0002:00018140       ??_C@_0BE@KEBPJIMN@?5?5y?5scale?3?5?$CFd?5?$CI?$CFf?$CJ?6?$AA@ 0000000180093140     ftbase.obj
 0002:00018158       ??_C@_0BA@IMDJILLD@?5?5ascender?3?5?$CFf?6?$AA@ 0000000180093158     ftbase.obj
 0002:00018168       ??_C@_0BB@NOOFJCKE@?5?5descender?3?5?$CFf?6?$AA@ 0000000180093168     ftbase.obj
 0002:00018180       ??_C@_0O@BECDBCKD@?5?5height?3?5?$CFf?6?$AA@ 0000000180093180     ftbase.obj
 0002:00018190       ??_C@_0BD@CKEHEIOI@?5?5max?5advance?3?5?$CFf?6?$AA@ 0000000180093190     ftbase.obj
 0002:000181a8       ??_C@_0O@MGPJNHMK@?5?5x?5ppem?3?5?$CFd?6?$AA@ 00000001800931a8     ftbase.obj
 0002:000181b8       ??_C@_0O@FNFMJLKF@?5?5y?5ppem?3?5?$CFd?6?$AA@ 00000001800931b8     ftbase.obj
 0002:000181c8       ??_C@_0BF@NOKCMJFG@FT_Request_Metrics?3?6?$AA@ 00000001800931c8     ftbase.obj
 0002:000181e0       ??_C@_0CP@GKDGDPHD@FT_Select_Size?5?$CIfont?5driver?8s?5?$GAs@ 00000001800931e0     ftbase.obj
 0002:00018210       ??_C@_0DB@EGLCAILO@FT_Request_Size?5?$CIfont?5driver?8s?5?$GA@ 0000000180093210     ftbase.obj
 0002:00018248       ??_C@_07IAOBDJBM@kerning?$AA@ 0000000180093248     ftbase.obj
 0002:00018250       ??_C@_0CG@CKMEHECH@FT_Get_Char_Index?3?5too?5large?5cha@ 0000000180093250     ftbase.obj
 0002:00018278       ??_C@_0BE@MNGPDEEO@?50x?$CFx?5is?5truncated?6?$AA@ 0000000180093278     ftbase.obj
 0002:00018290       ??_C@_0CN@FFPLHPNK@FT_Get_Char_Index?3?5too?5large?5var@ 0000000180093290     ftbase.obj
 0002:000182c0       ??_C@_0L@POCJHJKN@glyph?9dict?$AA@ 00000001800932c0     ftbase.obj
 0002:000182d0       ??_C@_0BF@GDPJODJF@postscript?9font?9name?$AA@ 00000001800932d0     ftbase.obj
 0002:000182e8       ??_C@_0L@MBBJBANC@sfnt?9table?$AA@ 00000001800932e8     ftbase.obj
 0002:000182f8       ??_C@_08OHCKCLF@tt?9cmaps?$AA@ 00000001800932f8     ftbase.obj
 0002:00018308       ??_C@_0CC@GCGCHKFH@MD5?5checksum?5for?5?$CFdx?$CFd?5bitmap?3?6?5@ 0000000180093308     ftbase.obj
 0002:0001832c       ??_C@_04JFFKLGJF@?$CF02X?$AA@ 000000018009332c     ftbase.obj
 0002:00018338       ??_C@_0BA@EFHAKNKK@FT_Property_Set?$AA@ 0000000180093338     ftbase.obj
 0002:00018348       ??_C@_0BA@JKALGNGC@FT_Property_Get?$AA@ 0000000180093348     ftbase.obj
 0002:00018358       ??_C@_0BM@PCLLPLNH@?$CFs?3?5can?8t?5find?5module?5?$GA?$CFs?8?6?$AA@ 0000000180093358     ftbase.obj
 0002:00018378       ??_C@_0CM@OCOCNMJK@?$CFs?3?5module?5?$GA?$CFs?8?5doesn?8t?5support?5@ 0000000180093378     ftbase.obj
 0002:000183a8       ??_C@_0CP@KPKEMLC@?$CFs?3?5property?5service?5of?5module?5?$GA@ 00000001800933a8     ftbase.obj
 0002:000183d8       ??_C@_06GNKBHGHD@type42?$AA@ 00000001800933d8     ftbase.obj
 0002:000183e0       ??_C@_0CF@CMLHDJPN@FT_Done_Library?3?5close?5faces?5for@ 00000001800933e0     ftbase.obj
 0002:00018408       ??_C@_0CM@IAHJFBLJ@FT_Done_Library?3?5failed?5to?5free?5@ 0000000180093408     ftbase.obj
 0002:00018438       ??_C@_0BA@DHLLBDBB@truetype?9engine?$AA@ 0000000180093438     ftbase.obj
 0002:00018450       ??_C@_0EB@CEMINKLO@m?3?2svn?2?4private?2mini?2umodsys?2dep@ 0000000180093450     ftbase.obj
 0002:00018498       ??_C@_0CC@FHPGBHIE@FT_Outline_Decompose?3?5Outline?5?$CFd@ 0000000180093498     ftbase.obj
 0002:000184c0       ??_C@_0BI@GMIFLDHO@?5?5move?5to?5?$CI?$CF?42f?0?5?$CF?42f?$CJ?6?$AA@ 00000001800934c0     ftbase.obj
 0002:000184d8       ??_C@_0BI@PAINKPOP@?5?5line?5to?5?$CI?$CF?42f?0?5?$CF?42f?$CJ?6?$AA@ 00000001800934d8     ftbase.obj
 0002:000184f0       ??_C@_0DD@EHHABHHE@?5?5conic?5to?5?$CI?$CF?42f?0?5?$CF?42f?$CJ?5with?5con@ 00000001800934f0     ftbase.obj
 0002:00018530       ??_C@_0EF@NIEBKFCN@?5?5cubic?5to?5?$CI?$CF?42f?0?5?$CF?42f?$CJ?5with?5con@ 0000000180093530     ftbase.obj
 0002:00018578       ??_C@_0BM@HMGKFOOF@FT_Outline_Decompose?3?5Done?6?$AA@ 0000000180093578     ftbase.obj
 0002:00018598       ??_C@_0CA@HIGGMNGK@FT_Outline_Decompose?3?5Error?5?$CFd?6?$AA@ 0000000180093598     ftbase.obj
 0002:000185c0       ??_C@_0EB@BEFPFDJO@m?3?2svn?2?4private?2mini?2umodsys?2dep@ 00000001800935c0     ftbase.obj
 0002:00018608       ??_C@_0BJ@PBBBNBMA@Resource?5tags?3?5?$CFc?$CFc?$CFc?$CFc?6?$AA@ 0000000180093608     ftbase.obj
 0002:00018624       ??_C@_02PEOAMJM@?4_?$AA@   0000000180093624     ftbase.obj
 0002:00018628       ??_C@_05FLPKNBDI@?1rsrc?$AA@ 0000000180093628     ftbase.obj
 0002:00018630       ??_C@_0BC@OBHLCHMP@?1?4?4namedfork?1rsrc?$AA@ 0000000180093630     ftbase.obj
 0002:00018648       ??_C@_0O@FDMCFKOC@resource?4frk?1?$AA@ 0000000180093648     ftbase.obj
 0002:00018658       ??_C@_0L@FGJFJHGF@?4resource?1?$AA@ 0000000180093658     ftbase.obj
 0002:00018664       ??_C@_01FGNFDNOH@?$CF?$AA@ 0000000180093664     ftbase.obj
 0002:00018668       ??_C@_0O@KCDCBAF@?4AppleDouble?1?$AA@ 0000000180093668     ftbase.obj
 0002:00018678       ??_C@_0DI@JDEEOCCA@FT_Stream_Seek?3?5invalid?5i?1o?$DL?5pos@ 0000000180093678     ftbase.obj
 0002:000186b0       ??_C@_0EC@NDBPMFKN@m?3?2svn?2?4private?2mini?2umodsys?2dep@ 00000001800936b0     ftbase.obj
 0002:000186f8       ??_C@_0DK@PCCEOJMP@FT_Stream_ReadAt?3?5invalid?5i?1o?$DL?5p@ 00000001800936f8     ftbase.obj
 0002:00018738       ??_C@_0DN@KPBHPHNM@FT_Stream_ReadAt?3?5invalid?5read?$DL?5@ 0000000180093738     ftbase.obj
 0002:00018780       ??_C@_0EG@GDLBILGJ@FT_Stream_EnterFrame?3?5frame?5size@ 0000000180093780     ftbase.obj
 0002:000187d0       ??_C@_0EB@PPLLFEKJ@FT_Stream_EnterFrame?3?5invalid?5re@ 00000001800937d0     ftbase.obj
 0002:00018820       ??_C@_0EL@CLEGLINF@FT_Stream_EnterFrame?3?5invalid?5i?1@ 0000000180093820     ftbase.obj
 0002:00018870       ??_C@_0DM@FACLPPPE@FT_Stream_ReadChar?3?5invalid?5i?1o?$DL@ 0000000180093870     ftbase.obj
 0002:000188b0       ??_C@_0DO@MOMJLNNP@FT_Stream_ReadUShort?3?5invalid?5i?1@ 00000001800938b0     ftbase.obj
 0002:000188f0       ??_C@_0EA@CJCFGHBO@FT_Stream_ReadUShortLE?3?5invalid?5@ 00000001800938f0     ftbase.obj
 0002:00018930       ??_C@_0DP@ECOCMLKO@FT_Stream_ReadUOffset?3?5invalid?5i@ 0000000180093930     ftbase.obj
 0002:00018970       ??_C@_0DN@NOIDKAGM@FT_Stream_ReadULong?3?5invalid?5i?1o@ 0000000180093970     ftbase.obj
 0002:000189b0       ??_C@_0DP@IFMLOGPG@FT_Stream_ReadULongLE?3?5invalid?5i@ 00000001800939b0     ftbase.obj
 0002:000189f0       ??_C@_0EA@NANNHIP@m?3?2svn?2?4private?2mini?2umodsys?2dep@ 00000001800939f0     ftbase.obj
 0002:00018a30       ??_C@_06CBNNOCOG@afwarp?$AA@ 0000000180093a30     ftdebug.obj
 0002:00018a38       ??_C@_08COJBGBDJ@aflatin2?$AA@ 0000000180093a38     ftdebug.obj
 0002:00018a48       ??_C@_07ONLLOJPN@aflatin?$AA@ 0000000180093a48     ftdebug.obj
 0002:00018a50       ??_C@_05HBDNKEDJ@afcjk?$AA@ 0000000180093a50     ftdebug.obj
 0002:00018a58       ??_C@_07JCGMALOO@afhints?$AA@ 0000000180093a58     ftdebug.obj
 0002:00018a60       ??_C@_08DOLNGLKF@afmodule?$AA@ 0000000180093a60     ftdebug.obj
 0002:00018a70       ??_C@_07GDECIBGG@gxvlcar?$AA@ 0000000180093a70     ftdebug.obj
 0002:00018a78       ??_C@_07BGFPIEJH@gxvprop?$AA@ 0000000180093a78     ftdebug.obj
 0002:00018a80       ??_C@_07EAHHMEMH@gxvtrak?$AA@ 0000000180093a80     ftdebug.obj
 0002:00018a88       ??_C@_07HIJAAIEJ@gxvopbd?$AA@ 0000000180093a88     ftdebug.obj
 0002:00018a90       ??_C@_07MBOECNO@gxvkern?$AA@ 0000000180093a90     ftdebug.obj
 0002:00018a98       ??_C@_07NAIIKMBN@gxvjust?$AA@ 0000000180093a98     ftdebug.obj
 0002:00018aa0       ??_C@_07GCMEKGJG@gxvbsln?$AA@ 0000000180093aa0     ftdebug.obj
 0002:00018aa8       ??_C@_07PAHLOCMN@gxvmorx?$AA@ 0000000180093aa8     ftdebug.obj
 0002:00018ab0       ??_C@_07FMMOKNMB@gxvmort?$AA@ 0000000180093ab0     ftdebug.obj
 0002:00018ab8       ??_C@_07FKMDGBJN@gxvfeat?$AA@ 0000000180093ab8     ftdebug.obj
 0002:00018ac0       ??_C@_09FNONMMLL@gxvcommon?$AA@ 0000000180093ac0     ftdebug.obj
 0002:00018ad0       ??_C@_09HENNMNHF@gxvmodule?$AA@ 0000000180093ad0     ftdebug.obj
 0002:00018ae0       ??_C@_07EKKOIKNM@otvmath?$AA@ 0000000180093ae0     ftdebug.obj
 0002:00018ae8       ??_C@_07JMBNOEFG@otvjstf?$AA@ 0000000180093ae8     ftdebug.obj
 0002:00018af0       ??_C@_07BCDIPNE@otvgsub?$AA@ 0000000180093af0     ftdebug.obj
 0002:00018af8       ??_C@_07FBPOCFIM@otvgpos?$AA@ 0000000180093af8     ftdebug.obj
 0002:00018b00       ??_C@_07LEKHIGIG@otvgdef?$AA@ 0000000180093b00     ftdebug.obj
 0002:00018b08       ??_C@_07HIBPHFMF@otvbase?$AA@ 0000000180093b08     ftdebug.obj
 0002:00018b10       ??_C@_09KIAOHPFL@otvcommon?$AA@ 0000000180093b10     ftdebug.obj
 0002:00018b20       ??_C@_09IBDOHOJF@otvmodule?$AA@ 0000000180093b20     ftdebug.obj
 0002:00018b2c       ??_C@_03OENHCMJJ@pfr?$AA@  0000000180093b2c     ftdebug.obj
 0002:00018b30       ??_C@_06JKJAADNN@bdflib?$AA@ 0000000180093b30     ftdebug.obj
 0002:00018b38       ??_C@_09GOBMAGKP@bdfdriver?$AA@ 0000000180093b38     ftdebug.obj
 0002:00018b48       ??_C@_07JFBALABD@pcfread?$AA@ 0000000180093b48     ftdebug.obj
 0002:00018b50       ??_C@_09CJCGDKLD@pcfdriver?$AA@ 0000000180093b50     ftdebug.obj
 0002:00018b5c       ??_C@_06FFPCKLJN@winfnt?$AA@ 0000000180093b5c     ftdebug.obj
 0002:00018b68       ??_C@_08OMDOPHJG@cidparse?$AA@ 0000000180093b68     ftdebug.obj
 0002:00018b78       ??_C@_07ICONHIGD@cidobjs?$AA@ 0000000180093b78     ftdebug.obj
 0002:00018b80       ??_C@_07DOPBLBBJ@cidload?$AA@ 0000000180093b80     ftdebug.obj
 0002:00018b88       ??_C@_08KOLHMIBJ@cidgload?$AA@ 0000000180093b88     ftdebug.obj
 0002:00018b98       ??_C@_09DCLEINLL@ciddriver?$AA@ 0000000180093b98     ftdebug.obj
 0002:00018ba4       ??_C@_06IEBHMLPI@cidafm?$AA@ 0000000180093ba4     ftdebug.obj
 0002:00018bac       ??_C@_03PEPEAOBF@t42?$AA@  0000000180093bac     ftdebug.obj
 0002:00018bb0       ??_C@_09JKAEGHDO@cf2interp?$AA@ 0000000180093bb0     ftdebug.obj
 0002:00018bc0       ??_C@_08KJPGLJPF@cf2hints?$AA@ 0000000180093bc0     ftdebug.obj
 0002:00018bd0       ??_C@_08FKHBAMDK@cf2blues?$AA@ 0000000180093bd0     ftdebug.obj
 0002:00018be0       ??_C@_08KCIBPEBD@cffparse?$AA@ 0000000180093be0     ftdebug.obj
 0002:00018bf0       ??_C@_07DJGNKJIB@cffobjs?$AA@ 0000000180093bf0     ftdebug.obj
 0002:00018bf8       ??_C@_07IFHBGAPL@cffload?$AA@ 0000000180093bf8     ftdebug.obj
 0002:00018c00       ??_C@_08OAAIMLJM@cffgload?$AA@ 0000000180093c00     ftdebug.obj
 0002:00018c10       ??_C@_09KPCIEFBH@cffdriver?$AA@ 0000000180093c10     ftdebug.obj
 0002:00018c20       ??_C@_08OELDONBA@pshalgo2?$AA@ 0000000180093c20     ftdebug.obj
 0002:00018c30       ??_C@_08MPJOLOND@pshalgo1?$AA@ 0000000180093c30     ftdebug.obj
 0002:00018c3c       ??_C@_06GLPFOKPB@pshrec?$AA@ 0000000180093c3c     ftdebug.obj
 0002:00018c44       ??_C@_06IFLGFNFH@psconv?$AA@ 0000000180093c44     ftdebug.obj
 0002:00018c4c       ??_C@_06MIFCDEBC@psobjs?$AA@ 0000000180093c4c     ftdebug.obj
 0002:00018c58       ??_C@_08DAJNMKKC@t1decode?$AA@ 0000000180093c58     ftdebug.obj
 0002:00018c68       ??_C@_07JMKIGDNK@t1parse?$AA@ 0000000180093c68     ftdebug.obj
 0002:00018c70       ??_C@_06HOINLLGG@t1objs?$AA@ 0000000180093c70     ftdebug.obj
 0002:00018c78       ??_C@_06MCJBHCBM@t1load?$AA@ 0000000180093c78     ftdebug.obj
 0002:00018c80       ??_C@_06FDOENOGM@t1hint?$AA@ 0000000180093c80     ftdebug.obj
 0002:00018c88       ??_C@_07NOCBFMFF@t1gload?$AA@ 0000000180093c88     ftdebug.obj
 0002:00018c90       ??_C@_08ENKOBGJE@t1driver?$AA@ 0000000180093c90     ftdebug.obj
 0002:00018c9c       ??_C@_05FNFMLCKD@t1afm?$AA@ 0000000180093c9c     ftdebug.obj
 0002:00018ca8       ??_C@_07GMPLJKAL@ttgxvar?$AA@ 0000000180093ca8     ftdebug.obj
 0002:00018cb0       ??_C@_07NGMBDEKI@ttpload?$AA@ 0000000180093cb0     ftdebug.obj
 0002:00018cb8       ??_C@_06CBBICALJ@ttobjs?$AA@ 0000000180093cb8     ftdebug.obj
 0002:00018cc0       ??_C@_08MIJDAFAI@ttinterp?$AA@ 0000000180093cc0     ftdebug.obj
 0002:00018cd0       ??_C@_07MIBCAGIL@ttgload?$AA@ 0000000180093cd0     ftdebug.obj
 0002:00018cd8       ??_C@_08CMNDNKBN@ttdriver?$AA@ 0000000180093cd8     ftdebug.obj
 0002:00018ce4       ??_C@_05DPIKMHNB@ttbdf?$AA@ 0000000180093ce4     ftdebug.obj
 0002:00018cec       ??_C@_06MJAPHCKE@ttsbit?$AA@ 0000000180093cec     ftdebug.obj
 0002:00018cf4       ??_C@_06GNHEPGAP@ttpost?$AA@ 0000000180093cf4     ftdebug.obj
 0002:00018cfc       ??_C@_05KPIOELCI@ttmtx?$AA@ 0000000180093cfc     ftdebug.obj
 0002:00018d04       ??_C@_06JNAEOJMD@ttload?$AA@ 0000000180093d04     ftdebug.obj
 0002:00018d0c       ??_C@_06KEBGCABE@ttkern?$AA@ 0000000180093d0c     ftdebug.obj
 0002:00018d14       ??_C@_06JLPDGBMM@ttcmap?$AA@ 0000000180093d14     ftdebug.obj
 0002:00018d1c       ??_C@_06KKKBLNKH@sfobjs?$AA@ 0000000180093d1c     ftdebug.obj
 0002:00018d28       ??_C@_08HGCMIBIC@sfdriver?$AA@ 0000000180093d28     ftdebug.obj
 0002:00018d34       ??_C@_05BDNCCAMC@cache?$AA@ 0000000180093d34     ftdebug.obj
 0002:00018d3c       ??_C@_06PCHFJCOP@bitmap?$AA@ 0000000180093d3c     ftdebug.obj
 0002:00018d44       ??_C@_05BCGMACJO@synth?$AA@ 0000000180093d44     ftdebug.obj
 0002:00018d50       ??_C@_07FHMGHKEO@raccess?$AA@ 0000000180093d50     ftdebug.obj
 0002:00018d58       ??_C@_02JAOCGLHE@mm?$AA@   0000000180093d58     ftdebug.obj
 0002:00018d5c       ??_C@_06INICNAFJ@smooth?$AA@ 0000000180093d5c     ftdebug.obj
 0002:00018d64       ??_C@_06NDPGICBH@raster?$AA@ 0000000180093d64     ftdebug.obj
 0002:00018d70       ??_C@_07LGEEDODM@gloader?$AA@ 0000000180093d70     ftdebug.obj
 0002:00018d78       ??_C@_05OIOMJNBL@glyph?$AA@ 0000000180093d78     ftdebug.obj
 0002:00018d80       ??_C@_07PNNKHJNH@outline?$AA@ 0000000180093d80     ftdebug.obj
 0002:00018d88       ??_C@_04PCMCLDDF@objs?$AA@ 0000000180093d88     ftdebug.obj
 0002:00018d90       ??_C@_04HKFDNBLD@init?$AA@ 0000000180093d90     ftdebug.obj
 0002:00018d98       ??_C@_04DONFEANM@list?$AA@ 0000000180093d98     ftdebug.obj
 0002:00018da0       ??_C@_02KFNNKBCK@io?$AA@   0000000180093da0     ftdebug.obj
 0002:00018da4       ??_C@_06DJAMKFID@stream?$AA@ 0000000180093da4     ftdebug.obj
 0002:00018dac       ??_C@_06HLKELJGF@memory?$AA@ 0000000180093dac     ftdebug.obj
 0002:00018db4       ??_C@_04GLMIJPDJ@calc?$AA@ 0000000180093db4     ftdebug.obj
 0002:00018dbc       ??_C@_03OBJFJEBA@any?$AA@  0000000180093dbc     ftdebug.obj
 0002:00018dc0       ??_C@_09FCJCAHCG@FT2_DEBUG?$AA@ 0000000180093dc0     ftdebug.obj
 0002:00018dd0       ??_C@_0CO@MEPEBCOM@?4?4?2?4?4?2?4?4?2depends?2freetype?2src?2ba@ 0000000180093dd0     ftsystem.obj
 0002:00018e00       ??_C@_02JDPG@rb?$AA@       0000000180093e00     ftsystem.obj
 0002:00018e08       ??_C@_0CF@LMIGAOPM@FT_Stream_Open?3?5could?5not?5open?5?$GA@ 0000000180093e08     ftsystem.obj
 0002:00018e30       ??_C@_0BA@KAPCMOHL@FT_Stream_Open?3?$AA@ 0000000180093e30     ftsystem.obj
 0002:00018e40       ??_C@_0BN@JBDDLAFC@?5opened?5?$GA?$CFs?8?5but?5zero?9sized?6?$AA@ 0000000180093e40     ftsystem.obj
 0002:00018e60       ??_C@_0CG@GFJCIDNE@?5opened?5?$GA?$CFs?8?5?$CI?$CFd?5bytes?$CJ?5successf@ 0000000180093e60     ftsystem.obj
 0002:00018e88       ??_C@_0CO@LFHJDBKK@?4?4?2?4?4?2?4?4?2depends?2freetype?2src?2ba@ 0000000180093e88     ftbitmap.obj
 0002:00018eb8       ??_C@_0CN@BNIOLHAJ@?4?4?2?4?4?2?4?4?2depends?2freetype?2src?2ba@ 0000000180093eb8     ftglyph.obj
 0002:00018ee8       ??_C@_0DK@DKMFEICM@FT_Add_Default_Module?3?5Cannot?5in@ 0000000180093ee8     ftinit.obj
 0002:00018f28       ??_C@_0CO@LBAOJIKG@FT_Init_FreeType?3?5cannot?5find?5me@ 0000000180093f28     ftinit.obj
 0002:00018f58       ??_C@_0CM@COKJEHEL@?4?4?2?4?4?2?4?4?2depends?2freetype?2src?2ba@ 0000000180093f58     ftinit.obj
 0002:00018f88       ??_C@_0CO@OKBDGIFP@?4?4?2?4?4?2?4?4?2depends?2freetype?2src?2ba@ 0000000180093f88     ftstroke.obj
 0002:00018fb8       ??_C@_03DOBGHNMK@BDF?$AA@  0000000180093fb8     bdf.obj
 0002:00018fc0       ??_C@_0BB@PMIOOMFN@xf86?9driver?9name?$AA@ 0000000180093fc0     bdf.obj
 0002:00018fd8       ??_C@_0BH@EGBLCDE@_MULE_RELATIVE_COMPOSE?$AA@ 0000000180093fd8     bdf.obj
 0002:00018ff0       ??_C@_0BG@NJJHMBCE@_MULE_BASELINE_OFFSET?$AA@ 0000000180093ff0     bdf.obj
 0002:00019008       ??_C@_08IHHFFHAA@X_HEIGHT?$AA@ 0000000180094008     bdf.obj
 0002:00019018       ??_C@_0M@FCJHKPGH@WEIGHT_NAME?$AA@ 0000000180094018     bdf.obj
 0002:00019024       ??_C@_06CIAKHCPD@WEIGHT?$AA@ 0000000180094024     bdf.obj
 0002:00019030       ??_C@_0BE@KDKNDDDB@UNDERLINE_THICKNESS?$AA@ 0000000180094030     bdf.obj
 0002:00019048       ??_C@_0BD@FLNBCMPP@UNDERLINE_POSITION?$AA@ 0000000180094048     bdf.obj
 0002:00019060       ??_C@_0O@EHDLJGOB@SUPERSCRIPT_Y?$AA@ 0000000180094060     bdf.obj
 0002:00019070       ??_C@_0O@FOCAKHKA@SUPERSCRIPT_X?$AA@ 0000000180094070     bdf.obj
 0002:00019080       ??_C@_0BB@HOLJGBFI@SUPERSCRIPT_SIZE?$AA@ 0000000180094080     bdf.obj
 0002:00019098       ??_C@_0M@FMFMNELO@SUBSCRIPT_Y?$AA@ 0000000180094098     bdf.obj
 0002:000190a8       ??_C@_0M@EFEHOFPP@SUBSCRIPT_X?$AA@ 00000001800940a8     bdf.obj
 0002:000190b8       ??_C@_0P@IMANBLC@SUBSCRIPT_SIZE?$AA@ 00000001800940b8     bdf.obj
 0002:000190c8       ??_C@_0BC@PCLONKLB@STRIKEOUT_DESCENT?$AA@ 00000001800940c8     bdf.obj
 0002:000190e0       ??_C@_0BB@MOJIHJPL@STRIKEOUT_ASCENT?$AA@ 00000001800940e0     bdf.obj
 0002:000190f8       ??_C@_07JKNGKIOL@SPACING?$AA@ 00000001800940f8     bdf.obj
 0002:00019100       ??_C@_0P@CJBLANOF@SMALL_CAP_SIZE?$AA@ 0000000180094100     bdf.obj
 0002:00019110       ??_C@_05NOFPJGIP@SLANT?$AA@ 0000000180094110     bdf.obj
 0002:00019118       ??_C@_0O@DANCJNNA@SETWIDTH_NAME?$AA@ 0000000180094118     bdf.obj
 0002:00019128       ??_C@_0N@MICMOIBI@RESOLUTION_Y?$AA@ 0000000180094128     bdf.obj
 0002:00019138       ??_C@_0N@NBDHNJFJ@RESOLUTION_X?$AA@ 0000000180094138     bdf.obj
 0002:00019148       ??_C@_0L@JGAABLGD@RESOLUTION?$AA@ 0000000180094148     bdf.obj
 0002:00019158       ??_C@_0BA@NKHOPHOP@RELATIVE_WEIGHT?$AA@ 0000000180094158     bdf.obj
 0002:00019168       ??_C@_0BC@JMGAMBDF@RELATIVE_SETWIDTH?$AA@ 0000000180094168     bdf.obj
 0002:00019180       ??_C@_0N@LFICGJOL@RAW_X_HEIGHT?$AA@ 0000000180094180     bdf.obj
 0002:00019190       ??_C@_0BI@OEPMFPAK@RAW_UNDERLINE_THICKNESS?$AA@ 0000000180094190     bdf.obj
 0002:000191a8       ??_C@_0BH@LIHCGIBB@RAW_UNDERLINE_POSITION?$AA@ 00000001800941a8     bdf.obj
 0002:000191c0       ??_C@_0BC@FFDANOJJ@RAW_SUPERSCRIPT_Y?$AA@ 00000001800941c0     bdf.obj
 0002:000191d8       ??_C@_0BC@EMCLOPNI@RAW_SUPERSCRIPT_X?$AA@ 00000001800941d8     bdf.obj
 0002:000191f0       ??_C@_0BF@ILCJEECH@RAW_SUPERSCRIPT_SIZE?$AA@ 00000001800941f0     bdf.obj
 0002:00019208       ??_C@_0BA@JLPHJHAP@RAW_SUBSCRIPT_Y?$AA@ 0000000180094208     bdf.obj
 0002:00019218       ??_C@_0BA@ICOMKGEO@RAW_SUBSCRIPT_X?$AA@ 0000000180094218     bdf.obj
 0002:00019228       ??_C@_0BD@FGAMCDPE@RAW_SUBSCRIPT_SIZE?$AA@ 0000000180094228     bdf.obj
 0002:00019240       ??_C@_0BG@DCPBCGDJ@RAW_STRIKEOUT_DESCENT?$AA@ 0000000180094240     bdf.obj
 0002:00019258       ??_C@_0BF@DLAIFMIE@RAW_STRIKEOUT_ASCENT?$AA@ 0000000180094258     bdf.obj
 0002:00019270       ??_C@_0BD@HHNHPPKD@RAW_SMALL_CAP_SIZE?$AA@ 0000000180094270     bdf.obj
 0002:00019288       ??_C@_0P@LMDGMIPB@RAW_QUAD_WIDTH?$AA@ 0000000180094288     bdf.obj
 0002:00019298       ??_C@_0O@FDNDDOFA@RAW_POINTSIZE?$AA@ 0000000180094298     bdf.obj
 0002:000192a8       ??_C@_0O@HNFKKCGD@RAW_PIXELSIZE?$AA@ 00000001800942a8     bdf.obj
 0002:000192b8       ??_C@_0P@OOHCGKOO@RAW_POINT_SIZE?$AA@ 00000001800942b8     bdf.obj
 0002:000192c8       ??_C@_0P@FBIMICGE@RAW_PIXEL_SIZE?$AA@ 00000001800942c8     bdf.obj
 0002:000192d8       ??_C@_0P@FGMOAACN@RAW_NORM_SPACE?$AA@ 00000001800942d8     bdf.obj
 0002:000192e8       ??_C@_0O@LFBDCJJJ@RAW_MIN_SPACE?$AA@ 00000001800942e8     bdf.obj
 0002:000192f8       ??_C@_0O@LEBPLDCN@RAW_MAX_SPACE?$AA@ 00000001800942f8     bdf.obj
 0002:00019308       ??_C@_0BB@LHIJKBAI@RAW_FIGURE_WIDTH?$AA@ 0000000180094308     bdf.obj
 0002:00019320       ??_C@_0O@FDGFBIGM@RAW_END_SPACE?$AA@ 0000000180094320     bdf.obj
 0002:00019330       ??_C@_0M@JDDLHGCG@RAW_DESCENT?$AA@ 0000000180094330     bdf.obj
 0002:00019340       ??_C@_0P@PDBKEGFB@RAW_CAP_HEIGHT?$AA@ 0000000180094340     bdf.obj
 0002:00019350       ??_C@_0BI@BEKJFFLM@RAW_AVG_LOWERCASE_WIDTH?$AA@ 0000000180094350     bdf.obj
 0002:00019368       ??_C@_0BG@PEMOHOIO@RAW_AVG_CAPITAL_WIDTH?$AA@ 0000000180094368     bdf.obj
 0002:00019380       ??_C@_0BC@LNOEENJF@RAW_AVERAGE_WIDTH?$AA@ 0000000180094380     bdf.obj
 0002:00019398       ??_C@_0L@CAMLDNCF@RAW_ASCENT?$AA@ 0000000180094398     bdf.obj
 0002:000193a8       ??_C@_0L@MANNMNIK@QUAD_WIDTH?$AA@ 00000001800943a8     bdf.obj
 0002:000193b8       ??_C@_0L@JCJJGPJF@POINT_SIZE?$AA@ 00000001800943b8     bdf.obj
 0002:000193c8       ??_C@_0L@CNGHIHBP@PIXEL_SIZE?$AA@ 00000001800943c8     bdf.obj
 0002:000193d4       ??_C@_06FMPEGAHJ@NOTICE?$AA@ 00000001800943d4     bdf.obj
 0002:000193e0       ??_C@_0L@CKCFAFFG@NORM_SPACE?$AA@ 00000001800943e0     bdf.obj
 0002:000193f0       ??_C@_09ICPJOFFH@MIN_SPACE?$AA@ 00000001800943f0     bdf.obj
 0002:00019400       ??_C@_09IDPFHPOD@MAX_SPACE?$AA@ 0000000180094400     bdf.obj
 0002:00019410       ??_C@_0N@LHJKBLMB@ITALIC_ANGLE?$AA@ 0000000180094410     bdf.obj
 0002:00019420       ??_C@_09IGHCOKHJ@FULL_NAME?$AA@ 0000000180094420     bdf.obj
 0002:00019430       ??_C@_07GMNLECKJ@FOUNDRY?$AA@ 0000000180094430     bdf.obj
 0002:00019438       ??_C@_0N@BAIKBLGK@FONT_DESCENT?$AA@ 0000000180094438     bdf.obj
 0002:00019448       ??_C@_0M@ECCDLGDC@FONT_ASCENT?$AA@ 0000000180094448     bdf.obj
 0002:00019458       ??_C@_0BC@LNICJLFI@FONTNAME_REGISTRY?$AA@ 0000000180094458     bdf.obj
 0002:0001946c       ??_C@_04IJMKNFPK@FONT?$AA@ 000000018009446c     bdf.obj
 0002:00019478       ??_C@_0N@LCIIJFB@FIGURE_WIDTH?$AA@ 0000000180094478     bdf.obj
 0002:00019488       ??_C@_0M@FBEHGJKE@FAMILY_NAME?$AA@ 0000000180094488     bdf.obj
 0002:00019498       ??_C@_09DLOGKOHL@FACE_NAME?$AA@ 0000000180094498     bdf.obj
 0002:000194a8       ??_C@_09GEIPNEKC@END_SPACE?$AA@ 00000001800944a8     bdf.obj
 0002:000194b8       ??_C@_0BB@PJMJCLEI@DEVICE_FONT_NAME?$AA@ 00000001800944b8     bdf.obj
 0002:000194d0       ??_C@_0M@LFJMPFGC@DESTINATION?$AA@ 00000001800944d0     bdf.obj
 0002:000194e0       ??_C@_0N@LOGJBDOF@DEFAULT_CHAR?$AA@ 00000001800944e0     bdf.obj
 0002:000194f0       ??_C@_09DJIAAPDG@COPYRIGHT?$AA@ 00000001800944f0     bdf.obj
 0002:00019500       ??_C@_07JEDAPFNH@COMMENT?$AA@ 0000000180094500     bdf.obj
 0002:00019508       ??_C@_0BB@OHIDJKBJ@CHARSET_REGISTRY?$AA@ 0000000180094508     bdf.obj
 0002:00019520       ??_C@_0BB@OBJAMPOC@CHARSET_ENCODING?$AA@ 0000000180094520     bdf.obj
 0002:00019538       ??_C@_0BE@KNHMGHPI@CHARSET_COLLECTIONS?$AA@ 0000000180094538     bdf.obj
 0002:00019550       ??_C@_0L@IPPBEDCK@CAP_HEIGHT?$AA@ 0000000180094550     bdf.obj
 0002:00019560       ??_C@_0BE@FDPIDJIH@AVG_LOWERCASE_WIDTH?$AA@ 0000000180094560     bdf.obj
 0002:00019578       ??_C@_0BC@DEIBICAG@AVG_CAPITAL_WIDTH?$AA@ 0000000180094578     bdf.obj
 0002:00019590       ??_C@_0O@KPOPAFON@AVERAGE_WIDTH?$AA@ 0000000180094590     bdf.obj
 0002:000195a0       ??_C@_0P@BLEODLOA@ADD_STYLE_NAME?$AA@ 00000001800945a0     bdf.obj
 0002:000195b0       ??_C@_03DDONLALG@bdf?$AA@  00000001800945b0     bdf.obj
 0002:000195b8       ??_C@_0DP@GOBEEJFO@m?3?2svn?2?4private?2mini?2umodsys?2dep@ 00000001800945b8     bdf.obj
 0002:000195f8       ??_C@_0DC@DLBACEAA@_bdf_readstream?3?5?$FLline?5?$CFld?$FN?5Inpu@ 00000001800945f8     bdf.obj
 0002:00019630       ??_C@_0DK@EDMDNOHE@_bdf_set_default_spacing?3?5?$FLline?5@ 0000000180094630     bdf.obj
 0002:0001966c       ??_C@_01JOAMLHOP@?9?$AA@   000000018009466c     bdf.obj
 0002:00019670       ??_C@_0DD@DCHAPBD@_bdf_add_property?3?5?$FLline?5?$CFld?$FN?5In@ 0000000180094670     bdf.obj
 0002:000196a4       ??_C@_05HCHEPOAH@CHARS?$AA@ 00000001800946a4     bdf.obj
 0002:000196b0       ??_C@_0DC@DDOGKPDM@_bdf_parse_glyphs?3?5?$FLline?5?$CFld?$FN?5Mi@ 00000001800946b0     bdf.obj
 0002:000196e4       ??_C@_02EOIDJNGE@?5?$CL?$AA@ 00000001800946e4     bdf.obj
 0002:000196e8       ??_C@_0DD@GMPJEGEF@_bdf_parse_glyphs?3?5?$FLline?5?$CFld?$FN?5?$GA?$CF@ 00000001800946e8     bdf.obj
 0002:00019720       ??_C@_07MLEKHHFJ@ENDFONT?$AA@ 0000000180094720     bdf.obj
 0002:00019728       ??_C@_07MDHLCACL@ENDCHAR?$AA@ 0000000180094728     bdf.obj
 0002:00019730       ??_C@_09BPKMEANO@STARTCHAR?$AA@ 0000000180094730     bdf.obj
 0002:00019740       ??_C@_0DD@KLDEHACG@_bdf_parse_glyphs?3?5?$FLline?5?$CFld?$FN?5In@ 0000000180094740     bdf.obj
 0002:00019778       ??_C@_0M@FFOBOMLB@?5?5?$FL?$CF6ld?$FN?5?$CFs?$AA@ 0000000180094778     bdf.obj
 0002:00019788       ??_C@_08LEFKDKKN@ENCODING?$AA@ 0000000180094788     bdf.obj
 0002:00019798       ??_C@_09PICCMFLC@?5?$CI0x?$CFlX?$CJ?6?$AA@ 0000000180094798     bdf.obj
 0002:000197b0       ??_C@_0EG@MJNBKJNE@_bdf_parse_glyphs?3?5Duplicate?5enc@ 00000001800947b0     bdf.obj
 0002:000197f8       ??_C@_0DC@GOOCBNOJ@_bdf_parse_glyphs?3?5Glyph?5?$CFld?5ext@ 00000001800947f8     bdf.obj
 0002:00019830       ??_C@_0EF@KGEBKPJK@_bdf_parse_glyphs?3?5Glyph?5?$CFld?5mis@ 0000000180094830     bdf.obj
 0002:00019878       ??_C@_0DF@HPJDBJMP@_bdf_parse_glyphs?3?5Glyph?5?$CFld?5ext@ 0000000180094878     bdf.obj
 0002:000198b0       ??_C@_06HDKFFNNH@SWIDTH?$AA@ 00000001800948b0     bdf.obj
 0002:000198b8       ??_C@_06NBNMPPJH@DWIDTH?$AA@ 00000001800948b8     bdf.obj
 0002:000198c0       ??_C@_0EK@BMLMGGMM@_bdf_parse_glyphs?3?5SWIDTH?5field?5@ 00000001800948c0     bdf.obj
 0002:0001990c       ??_C@_03OONKDOKH@BBX?$AA@  000000018009490c     bdf.obj
 0002:00019910       ??_C@_0EL@OOKPCJLE@_bdf_parse_glyphs?3?5DWIDTH?5field?5@ 0000000180094910     bdf.obj
 0002:0001995c       ??_C@_06PGFOEMDN@BITMAP?$AA@ 000000018009495c     bdf.obj
 0002:00019968       ??_C@_0CM@OCICBMMH@_bdf_parse_glyphs?3?5?$FLline?5?$CFld?$FN?5BB@ 0000000180094968     bdf.obj
 0002:00019998       ??_C@_0DA@FNFEDBOI@_bdf_parse_glyphs?3?5?$FLline?5?$CFld?$FN?5In@ 0000000180094998     bdf.obj
 0002:000199c8       ??_C@_0O@JFDPHGFD@ENDPROPERTIES?$AA@ 00000001800949c8     bdf.obj
 0002:000199d8       ??_C@_03OACELNE@?$CFhd?$AA@ 00000001800949d8     bdf.obj
 0002:000199e0       ??_C@_0FA@MHOOANLD@_bdf_parse_properties?3?5FONT_ASCE@ 00000001800949e0     bdf.obj
 0002:00019a30       ??_C@_0FC@OOLBPPB@_bdf_parse_properties?3?5FONT_DESC@ 0000000180094a30     bdf.obj
 0002:00019a88       ??_C@_0BG@NDMEGDOA@_XFREE86_GLYPH_RANGES?$AA@ 0000000180094a88     bdf.obj
 0002:00019aa0       ??_C@_09BHJNBHKM@STARTFONT?$AA@ 0000000180094aa0     bdf.obj
 0002:00019ab0       ??_C@_0BA@HGECMEMA@STARTPROPERTIES?$AA@ 0000000180094ab0     bdf.obj
 0002:00019ac0       ??_C@_0BA@PIDAKDPC@FONTBOUNDINGBOX?$AA@ 0000000180094ac0     bdf.obj
 0002:00019ad0       ??_C@_0DB@PPLLGEHM@_bdf_parse_start?3?5?$FLline?5?$CFld?$FN?5Mis@ 0000000180094ad0     bdf.obj
 0002:00019b04       ??_C@_04EMFHLKGI@SIZE?$AA@ 0000000180094b04     bdf.obj
 0002:00019b10       ??_C@_0DC@NNCEGMHN@_bdf_parse_start?3?5?$FLline?5?$CFld?$FN?5Inv@ 0000000180094b10     bdf.obj
 0002:00019b48       ??_C@_0DO@EMAEPNNN@_bdf_parse_start?3?5SIZE?5bits?5per?5@ 0000000180094b48     bdf.obj
 0002:00019b88       ??_C@_0CP@DPIBLPNJ@_bdf_parse_start?3?5?$FLline?5?$CFld?$FN?5Inv@ 0000000180094b88     bdf.obj
 0002:00019bc0       ??_C@_0EE@MADKNNKC@bdf_load_font?3?5Incorrect?5glyph?5c@ 0000000180094bc0     bdf.obj
 0002:00019c10       ??_C@_0EA@KBJJKEEG@bdf_load_font?3?5Font?5width?5?$CB?$DN?5act@ 0000000180094c10     bdf.obj
 0002:00019c50       ??_C@_0EO@CFDGAKHK@bdf_load_font?3?5Font?5left?5bearing@ 0000000180094c50     bdf.obj
 0002:00019ca0       ??_C@_0EC@IBNOIPBM@bdf_load_font?3?5Font?5ascent?5?$CB?$DN?5ac@ 0000000180094ca0     bdf.obj
 0002:00019cf0       ??_C@_0EE@KFBCIHOC@bdf_load_font?3?5Font?5descent?5?$CB?$DN?5a@ 0000000180094cf0     bdf.obj
 0002:00019d40       ??_C@_0EB@BJDOKJCG@bdf_load_font?3?5Font?5height?5?$CB?$DN?5ac@ 0000000180094d40     bdf.obj
 0002:00019d90       ??_C@_0EA@OANGMKP@bdf_load_font?3?5Glyph?5scalable?5wi@ 0000000180094d90     bdf.obj
 0002:00019dd0       ??_C@_0EE@KCMAOHJO@bdf_load_font?3?5?$FLline?5?$CFld?$FN?5Font?5h@ 0000000180094dd0     bdf.obj
 0002:00019e20       ??_C@_0EE@ONIDKJPN@bdf_load_font?3?5?$FLline?5?$CFld?$FN?5Font?5g@ 0000000180094e20     bdf.obj
 0002:00019e68       ??_C@_0CO@EGKPGEJ@bdf_cmap_char_next?3?5charcode?50x?$CF@ 0000000180094e68     bdf.obj
 0002:00019e98       ??_C@_07EGOIFKG@Oblique?$AA@ 0000000180094e98     bdf.obj
 0002:00019ea0       ??_C@_06PPMHIBHB@Italic?$AA@ 0000000180094ea0     bdf.obj
 0002:00019ea8       ??_C@_04DIPHHIHJ@Bold?$AA@ 0000000180094ea8     bdf.obj
 0002:00019eb0       ??_C@_07FFHPBFOK@Regular?$AA@ 0000000180094eb0     bdf.obj
 0002:00019eb8       ??_C@_0M@PIOLPION@BDF?5driver?6?$AA@ 0000000180094eb8     bdf.obj
 0002:00019ec8       ??_C@_0BC@CHFALINA@?5?5not?5a?5BDF?5file?6?$AA@ 0000000180094ec8     bdf.obj
 0002:00019ee0       ??_C@_0CM@BNFDELFJ@?5?5number?5of?5glyphs?3?5allocated?5?$CFd@ 0000000180094ee0     bdf.obj
 0002:00019f10       ??_C@_0DG@LFIMIPLI@?5?5number?5of?5unencoded?5glyphs?3?5al@ 0000000180094f10     bdf.obj
 0002:00019f48       ??_C@_0BF@CECOLGPK@?5?5idx?5?$CFd?0?5val?50x?$CFlX?6?$AA@ 0000000180094f48     bdf.obj
 0002:00019f60       ??_C@_0DE@MDPBGMHJ@BDF_Face_Init?3?5idx?5?$CFd?5is?5too?5lar@ 0000000180094f60     bdf.obj
 0002:00019f94       ??_C@_05FPAEEJJG@10646?$AA@ 0000000180094f94     bdf.obj
 0002:00019f9c       ??_C@_04LBDHIBCK@8859?$AA@ 0000000180094f9c     bdf.obj
 0002:00019fa4       ??_C@_01HIHLOKLC@1?$AA@    0000000180094fa4     bdf.obj
 0002:00019fb0       ??_C@_0EB@GLAGCDMG@m?3?2svn?2?4private?2mini?2umodsys?2dep@ 0000000180094fb0     bdf.obj
 0002:00019ff8       ??_C@_0DB@DFIGKFPK@BDF_Glyph_Load?3?5too?5large?5pitch?5@ 0000000180094ff8     bdf.obj
 0002:0001a030       ??_C@_0DL@OLPFOBLL@bdf_get_bdf_property?3?5too?5large?5@ 0000000180095030     bdf.obj
 0002:0001a070       ??_C@_0DM@BKEIKPHP@bdf_get_bdf_property?3?5too?5large?5@ 0000000180095070     bdf.obj
 0002:0001a0b0       ??_C@_0EB@EAJFIFFK@m?3?2svn?2?4private?2mini?2umodsys?2dep@ 00000001800950b0     ftcache.obj
 0002:0001a100       ??_C@_0ED@MLGDPNKO@m?3?2svn?2?4private?2mini?2umodsys?2dep@ 0000000180095100     ftcache.obj
 0002:0001a148       ??_C@_0DH@GDNBFMPE@FTC_Manager_RegisterCache?3?5too?5m@ 0000000180095148     ftcache.obj
 0002:0001a180       ??_C@_0CE@BLIHJJBK@ftc_node_hash_unlink?3?5unknown?5no@ 0000000180095180     ftcache.obj
 0002:0001a1a8       ??_C@_0DC@CFNMPNMM@FTC_CMapCache_Lookup?3?5bad?5argume@ 00000001800951a8     ftcache.obj
 0002:0001a1e0       ??_C@_0CM@EPKLKJGD@FTC_CACHE_LOOKUP_CMP?3?5oops?$CB?$CB?$CB?5no@ 00000001800951e0     ftcache.obj
 0002:0001a210       ??_C@_0EC@KBGBIJFI@m?3?2svn?2?4private?2mini?2umodsys?2dep@ 0000000180095210     ftcache.obj
 0002:0001a258       ??_C@_0CE@HOJAKFAA@ftc_snode_load?3?5invalid?5glyph?5in@ 0000000180095258     ftcache.obj
 0002:0001a280       ??_C@_0ED@PJMECMKI@m?3?2svn?2?4private?2mini?2umodsys?2dep@ 0000000180095280     ftcache.obj
 0002:0001a2c8       ??_C@_0DF@FINININH@ftc_snode_load?3?5glyph?5loaded?5did@ 00000001800952c8     ftcache.obj
 0002:0001a300       ??_C@_0DI@HLNFLMBJ@ftc_snode_load?3?5glyph?5too?5large?5@ 0000000180095300     ftcache.obj
 0002:0001a338       ??_C@_0DI@ICNEDMOF@ftc_basic_family_get_count?3?5too?5@ 0000000180095338     ftcache.obj
 0002:0001a370       ??_C@_0BJ@KKBJNBDJ@in?5this?5face?0?5truncated?6?$AA@ 0000000180095370     ftcache.obj
 0002:0001a390       ??_C@_0ED@BCBJCCNB@m?3?2svn?2?4private?2mini?2umodsys?2dep@ 0000000180095390     ftcache.obj
 0002:0001a3d8       ??_C@_0DB@OBDFPJED@FTC_ImageCache_Lookup?3?5higher?5bi@ 00000001800953d8     ftcache.obj
 0002:0001a410       ??_C@_0BC@KMIFKDPF@0x?$CFx?5are?5dropped?6?$AA@ 0000000180095410     ftcache.obj
 0002:0001a428       ??_C@_0DH@DDKCBHGJ@FTC_ImageCache_LookupScaler?3?5hig@ 0000000180095428     ftcache.obj
 0002:0001a460       ??_C@_0O@KLFHKAFI@nominalWidthX?$AA@ 0000000180095460     cff.obj
 0002:0001a470       ??_C@_0O@JDBOOHI@defaultWidthX?$AA@ 0000000180095470     cff.obj
 0002:0001a480       ??_C@_05DHFNOCDJ@Subrs?$AA@ 0000000180095480     cff.obj
 0002:0001a488       ??_C@_0BC@CKOEOLCM@initialRandomSeed?$AA@ 0000000180095488     cff.obj
 0002:0001a4a0       ??_C@_0BA@PKGIFANC@ExpansionFactor?$AA@ 00000001800954a0     cff.obj
 0002:0001a4b0       ??_C@_0O@PJDGHDCK@LanguageGroup?$AA@ 00000001800954b0     cff.obj
 0002:0001a4c0       ??_C@_05CIIKKFON@lenIV?$AA@ 00000001800954c0     cff.obj
 0002:0001a4c8       ??_C@_0BD@BGHMBBEO@ForceBoldThreshold?$AA@ 00000001800954c8     cff.obj
 0002:0001a4e0       ??_C@_09BDDIAPM@ForceBold?$AA@ 00000001800954e0     cff.obj
 0002:0001a4f0       ??_C@_09GOBAKHA@StemSnapV?$AA@ 00000001800954f0     cff.obj
 0002:0001a500       ??_C@_09NCKADFKP@StemSnapH?$AA@ 0000000180095500     cff.obj
 0002:0001a50c       ??_C@_05OBPKJLMP@StdVW?$AA@ 000000018009550c     cff.obj
 0002:0001a514       ??_C@_05PHECBFLF@StdHW?$AA@ 0000000180095514     cff.obj
 0002:0001a520       ??_C@_08IPFLJFPM@BlueFuzz?$AA@ 0000000180095520     cff.obj
 0002:0001a530       ??_C@_09GDCMDLCO@BlueShift?$AA@ 0000000180095530     cff.obj
 0002:0001a540       ??_C@_09IPAGIEBG@BlueScale?$AA@ 0000000180095540     cff.obj
 0002:0001a550       ??_C@_0BB@FMLCJJDP@FamilyOtherBlues?$AA@ 0000000180095550     cff.obj
 0002:0001a568       ??_C@_0M@OIPOLIDA@FamilyBlues?$AA@ 0000000180095568     cff.obj
 0002:0001a578       ??_C@_0L@CCJAIIMC@OtherBlues?$AA@ 0000000180095578     cff.obj
 0002:0001a588       ??_C@_0L@DKDIMLOI@BlueValues?$AA@ 0000000180095588     cff.obj
 0002:0001a598       ??_C@_08MKFDOKHL@FontName?$AA@ 0000000180095598     cff.obj
 0002:0001a5a8       ??_C@_08CFFGEPO@FDSelect?$AA@ 00000001800955a8     cff.obj
 0002:0001a5b8       ??_C@_07PEKDNLEP@FDArray?$AA@ 00000001800955b8     cff.obj
 0002:0001a5c0       ??_C@_07CNNFHHEA@UIDBase?$AA@ 00000001800955c0     cff.obj
 0002:0001a5c8       ??_C@_08LPCKMOBH@CIDCount?$AA@ 00000001800955c8     cff.obj
 0002:0001a5d8       ??_C@_0M@IBCFBNHK@CIDFontType?$AA@ 00000001800955d8     cff.obj
 0002:0001a5e8       ??_C@_0BA@GOIFFDIH@CIDFontRevision?$AA@ 00000001800955e8     cff.obj
 0002:0001a5f8       ??_C@_0P@FDOGBFAP@CIDFontVersion?$AA@ 00000001800955f8     cff.obj
 0002:0001a608       ??_C@_03FFOPCDKA@ROS?$AA@  0000000180095608     cff.obj
 0002:0001a610       ??_C@_0L@GLNNPNOK@PostScript?$AA@ 0000000180095610     cff.obj
 0002:0001a620       ??_C@_0O@EENDDJBG@SyntheticBase?$AA@ 0000000180095620     cff.obj
 0002:0001a630       ??_C@_07CFINJGKH@Private?$AA@ 0000000180095630     cff.obj
 0002:0001a638       ??_C@_0M@EKIFGBLL@CharStrings?$AA@ 0000000180095638     cff.obj
 0002:0001a648       ??_C@_08EJAHIGCJ@Encoding?$AA@ 0000000180095648     cff.obj
 0002:0001a658       ??_C@_07EAJPFAFH@charset?$AA@ 0000000180095658     cff.obj
 0002:0001a660       ??_C@_0M@GLGMDIGG@StrokeWidth?$AA@ 0000000180095660     cff.obj
 0002:0001a670       ??_C@_08EBMMLPNI@FontBBox?$AA@ 0000000180095670     cff.obj
 0002:0001a680       ??_C@_08OMJGNOHD@UniqueID?$AA@ 0000000180095680     cff.obj
 0002:0001a690       ??_C@_0L@LNCCOCBB@FontMatrix?$AA@ 0000000180095690     cff.obj
 0002:0001a6a0       ??_C@_0P@IHAOFIJF@CharstringType?$AA@ 00000001800956a0     cff.obj
 0002:0001a6b0       ??_C@_09PNDIDGHG@PaintType?$AA@ 00000001800956b0     cff.obj
 0002:0001a6c0       ??_C@_0BD@KBICJDLM@UnderlineThickness?$AA@ 00000001800956c0     cff.obj
 0002:0001a6d8       ??_C@_0BC@CCIMILPE@UnderlinePosition?$AA@ 00000001800956d8     cff.obj
 0002:0001a6f0       ??_C@_0M@ILCDBHGP@ItalicAngle?$AA@ 00000001800956f0     cff.obj
 0002:0001a700       ??_C@_0N@OPLNPOL@isFixedPitch?$AA@ 0000000180095700     cff.obj
 0002:0001a710       ??_C@_06ODJMJFLN@Weight?$AA@ 0000000180095710     cff.obj
 0002:0001a718       ??_C@_0L@KKMPOENF@FamilyName?$AA@ 0000000180095718     cff.obj
 0002:0001a728       ??_C@_08FPDCFGEH@FullName?$AA@ 0000000180095728     cff.obj
 0002:0001a738       ??_C@_09EGCMDBBB@Copyright?$AA@ 0000000180095738     cff.obj
 0002:0001a744       ??_C@_06JHGCIHDH@Notice?$AA@ 0000000180095744     cff.obj
 0002:0001a750       ??_C@_07NGFJPNPN@Version?$AA@ 0000000180095750     cff.obj
 0002:0001a758       ??_C@_03LMEEOLHO@CID?$AA@  0000000180095758     cff.obj
 0002:0001a760       ??_C@_0BA@EAOIOGJA@postscript?9info?$AA@ 0000000180095760     cff.obj
 0002:0001a770       ??_C@_03IFCOMOMB@CFF?$AA@  0000000180095770     cff.obj
 0002:0001a774       ??_C@_04JAPIGAPK@sfnt?$AA@ 0000000180095774     cff.obj
 0002:0001a780       ??_C@_08MNGCAOLP@pshinter?$AA@ 0000000180095780     cff.obj
 0002:0001a790       ??_C@_0EB@PGOIDDHO@m?3?2svn?2?4private?2mini?2umodsys?2dep@ 0000000180095790     cff.obj
 0002:0001a7e0       ??_C@_0HB@NJOCEPIM@cff_get_glyph_name?3?5cannot?5get?5g@ 00000001800957e0     cff.obj
 0002:0001a858       ??_C@_0BB@JIMLNENF@postscript?9cmaps?$AA@ 0000000180095858     cff.obj
 0002:0001a870       ??_C@_0DD@IOKAALAE@cff_get_ros?3?5too?5large?5supplemen@ 0000000180095870     cff.obj
 0002:0001a8a8       ??_C@_0P@DGAAAJJA@hinting?9engine?$AA@ 00000001800958a8     cff.obj
 0002:0001a8b8       ??_C@_0BC@GFOLLGHN@no?9stem?9darkening?$AA@ 00000001800958b8     cff.obj
 0002:0001a8d0       ??_C@_0CJ@ILDIEHLM@cff_property_set?3?5missing?5proper@ 00000001800958d0     cff.obj
 0002:0001a900       ??_C@_0CJ@JGLAGCBI@cff_property_get?3?5missing?5proper@ 0000000180095900     cff.obj
 0002:0001a930       ??_C@_0BD@FHMLGBOP@?$CB?$CB?$CBEND?5OF?5DATA?3?$CB?$CB?$CB?$AA@ 0000000180095930     cff.obj
 0002:0001a948       ??_C@_0BA@KOHOLLIM@?$CB?$CB?$CBOVERFLOW?3?$CB?$CB?$CB?$AA@ 0000000180095948     cff.obj
 0002:0001a958       ??_C@_0BB@OMFJGOGF@?$CB?$CB?$CBUNDERFLOW?3?$CB?$CB?$CB?$AA@ 0000000180095958     cff.obj
 0002:0001a970       ??_C@_0EB@DEBAJIPC@m?3?2svn?2?4private?2mini?2umodsys?2dep@ 0000000180095970     cff.obj
 0002:0001a9c0       ??_C@_0GP@GNKIDPDI@cff_parse_font_matrix?3?5strange?5s@ 00000001800959c0     cff.obj
 0002:0001aa30       ??_C@_0BG@BNEAPFAC@?5?$FL?$CFf?5?$CFf?5?$CFf?5?$CFf?5?$CFf?5?$CFf?$FN?6?$AA@ 0000000180095a30     cff.obj
 0002:0001aa48       ??_C@_0BA@IMLBGBBJ@?5?$FL?$CFd?5?$CFd?5?$CFd?5?$CFd?$FN?6?$AA@ 0000000180095a48     cff.obj
 0002:0001aa58       ??_C@_09HFPCLGAF@?5?$CFlu?5?$CFlu?6?$AA@ 0000000180095a58     cff.obj
 0002:0001aa68       ??_C@_0CP@NECNKDDM@cff_parse_cid_ros?3?5real?5suppleme@ 0000000180095a68     cff.obj
 0002:0001aa98       ??_C@_0DE@NALBOPNG@cff_parse_cid_ros?3?5negative?5supp@ 0000000180095a98     cff.obj
 0002:0001aad0       ??_C@_0L@KOJFBLKH@?5?$CFd?5?$CFd?5?$CFd?6?$AA@ 0000000180095ad0     cff.obj
 0002:0001aadc       ??_C@_04GCLKCGOG@?5?5?$CFs?$AA@ 0000000180095adc     cff.obj
 0002:0001aae4       ??_C@_04LOAJBDKD@true?$AA@ 0000000180095ae4     cff.obj
 0002:0001aaec       ??_C@_05LAPONLG@false?$AA@ 0000000180095aec     cff.obj
 0002:0001aaf4       ??_C@_04MDKIEGGJ@?5?$CFs?6?$AA@ 0000000180095af4     cff.obj
 0002:0001ab00       ??_C@_0M@KCFMPKOI@?5?$CFld?5?$CISID?$CJ?6?$AA@ 0000000180095b00     cff.obj
 0002:0001ab0c       ??_C@_05IEHBDIND@?5?$CFld?6?$AA@ 0000000180095b0c     cff.obj
 0002:0001ab14       ??_C@_04NJEFCHPC@?5?$CFf?6?$AA@ 0000000180095b14     cff.obj
 0002:0001ab1c       ??_C@_02GBLMOEJC@?5?$FL?$AA@ 0000000180095b1c     cff.obj
 0002:0001ab20       ??_C@_04CPKMOEAN@?5?$CFld?$AA@ 0000000180095b20     cff.obj
 0002:0001ab28       ??_C@_02JODFHDIE@?$FN?6?$AA@ 0000000180095b28     cff.obj
 0002:0001ab30       ??_C@_0EA@ODBIHIFM@m?3?2svn?2?4private?2mini?2umodsys?2dep@ 0000000180095b30     cff.obj
 0002:0001ab70       ??_C@_0ED@DAPLMPOB@cff_index_get_pointers?3?5invalid?5@ 0000000180095b70     cff.obj
 0002:0001abc0       ??_C@_0FE@ENEMOHLP@cff_index_access_element?3?5offset@ 0000000180095bc0     cff.obj
 0002:0001ac18       ??_C@_0DM@GENJHLB@cff_charset_load?3?5invalid?5SID?5ra@ 0000000180095c18     cff.obj
 0002:0001ac58       ??_C@_0CI@EOOPAJJE@cff_charset_load?3?5invalid?5table?5@ 0000000180095c58     cff.obj
 0002:0001ac80       ??_C@_0FF@GKAPBCNH@cff_charset_load?3?5implicit?5chars@ 0000000180095c80     cff.obj
 0002:0001ace0       ??_C@_0FC@PKBNJFNM@cff_charset_load?3?5implicit?5chars@ 0000000180095ce0     cff.obj
 0002:0001ad40       ??_C@_0FJ@HPFEHAJC@cff_charset_load?3?5implicit?5chars@ 0000000180095d40     cff.obj
 0002:0001ada0       ??_C@_0CJ@IOCHKLEE@cff_encoding_load?3?5invalid?5table@ 0000000180095da0     cff.obj
 0002:0001add0       ??_C@_0BC@EELEKAKH@?5top?5dictionary?3?6?$AA@ 0000000180095dd0     cff.obj
 0002:0001ade8       ??_C@_0BG@CJKDMNLC@?5private?5dictionary?3?6?$AA@ 0000000180095de8     cff.obj
 0002:0001ae00       ??_C@_0BJ@OELAFMEA@?5?5not?5a?5CFF?5font?5header?6?$AA@ 0000000180095e00     cff.obj
 0002:0001ae20       ??_C@_0DN@LJNNLEPJ@cff_font_load?3?5invalid?5subfont?5i@ 0000000180095e20     cff.obj
 0002:0001ae60       ??_C@_0FH@CJOCMAHG@cff_font_load?3?5invalid?5CFF?5font?5@ 0000000180095e60     cff.obj
 0002:0001aeb8       ??_C@_0BD@CCJNIFKF@parsing?5top?9level?6?$AA@ 0000000180095eb8     cff.obj
 0002:0001aed0       ??_C@_0CP@FMGMLIID@cff_font_load?3?5FD?5array?5too?5larg@ 0000000180095ed0     cff.obj
 0002:0001af00       ??_C@_0BE@PDMOIGFG@parsing?5subfont?5?$CFu?6?$AA@ 0000000180095f00     cff.obj
 0002:0001af18       ??_C@_0CG@PPGJGOEB@cff_font_load?3?5no?5charstrings?5of@ 0000000180095f18     cff.obj
 0002:0001af40       ??_C@_0CM@MMDJIEMP@cff_face_init?3?5cannot?5access?5?$GAsf@ 0000000180095f40     cff.obj
 0002:0001af70       ??_C@_0EA@NEHACPCI@m?3?2svn?2?4private?2mini?2umodsys?2dep@ 0000000180095f70     cff.obj
 0002:0001afb0       ??_C@_0M@DLCCANED@CFF?5driver?6?$AA@ 0000000180095fb0     cff.obj
 0002:0001afc0       ??_C@_0BM@EHLJIHDG@?5?5not?5an?5OpenType?1CFF?5font?6?$AA@ 0000000180095fc0     cff.obj
 0002:0001afe0       ??_C@_0FI@GMFCILJE@cff_face_init?3?5cannot?5open?5CFF?5?$CG@ 0000000180095fe0     cff.obj
 0002:0001b038       ??_C@_05CJOKOPNE@SIDs?6?$AA@ 0000000180096038     cff.obj
 0002:0001b040       ??_C@_09PDAEPDPK@?5?5?$CF5d?5?$CFs?6?$AA@ 0000000180096040     cff.obj
 0002:0001b04c       ??_C@_05BPGNDIAE@Black?$AA@ 000000018009604c     cff.obj
 0002:0001b058       ??_C@_0DA@MKHDHELB@cff_decoder_prepare?3?5invalid?5CID@ 0000000180096058     cff.obj
 0002:0001b090       ??_C@_0EB@DOGNHDMC@m?3?2svn?2?4private?2mini?2umodsys?2dep@ 0000000180096090     cff.obj
 0002:0001b0d8       ??_C@_0BO@GPOGLHOD@glyph?5index?5?$CFd?5?$CIsubfont?5?$CFd?$CJ?3?6?$AA@ 00000001800960d8     cff.obj
 0002:0001b0f8       ??_C@_0BB@OGOKOGJK@glyph?5index?5?$CFd?3?6?$AA@ 00000001800960f8     cff.obj
 0002:0001b110       ??_C@_0EA@IHODGJHG@m?3?2svn?2?4private?2mini?2umodsys?2dep@ 0000000180096110     cff.obj
 0002:0001b150       ??_C@_0EB@BFCMAPJE@m?3?2svn?2?4private?2mini?2umodsys?2dep@ 0000000180096150     cff.obj
 0002:0001b198       ??_C@_0CP@GHJMCGOG@cf2_blues_init?3?5ignoring?5negativ@ 0000000180096198     cff.obj
 0002:0001b1d0       ??_C@_0EB@MDDAIFMH@m?3?2svn?2?4private?2mini?2umodsys?2dep@ 00000001800961d0     cff.obj
 0002:0001b218       ??_C@_0DO@HAIDPFIC@m?3?2svn?2?4private?2mini?2umodsys?2dep@ 0000000180096218     cff.obj
 0002:0001b260       ??_C@_0EB@DEFJPKMC@m?3?2svn?2?4private?2mini?2umodsys?2dep@ 0000000180096260     cff.obj
 0002:0001b2a8       ??_C@_0CL@DCBEKAKO@cf2_hintmap_insertHint?3?5too?5many@ 00000001800962a8     cff.obj
 0002:0001b2e0       ??_C@_0EB@COMLPGB@m?3?2svn?2?4private?2mini?2umodsys?2dep@ 00000001800962e0     cff.obj
 0002:0001b328       ??_C@_0N@PPLCOAIJ@?5?$CImaskbytes?3?$AA@ 0000000180096328     cff.obj
 0002:0001b338       ??_C@_07IADONGEJ@?50x?$CF02X?$AA@ 0000000180096338     cff.obj
 0002:0001b340       ??_C@_02MNMNLDAI@?$CJ?6?$AA@ 0000000180096340     cff.obj
 0002:0001b348       ??_C@_0BC@NIIHAFPM@?5unknown?5op?5?$CI?$CFd?$CJ?6?$AA@ 0000000180096348     cff.obj
 0002:0001b360       ??_C@_09PDICJHKO@?5hstemhm?6?$AA@ 0000000180096360     cff.obj
 0002:0001b370       ??_C@_07OMAOMOOK@?5hstem?6?$AA@ 0000000180096370     cff.obj
 0002:0001b378       ??_C@_0DG@DJOFBKNF@cf2_interpT2CharString?3?5invalid?5@ 0000000180096378     cff.obj
 0002:0001b3b0       ??_C@_09JHIAAOEN@?5vstemhm?6?$AA@ 00000001800963b0     cff.obj
 0002:0001b3c0       ??_C@_07NLOPCJHJ@?5vstem?6?$AA@ 00000001800963c0     cff.obj
 0002:0001b3c8       ??_C@_0DE@FIKDMLEJ@cf2_interpT2CharString?3?5invalid?5@ 00000001800963c8     cff.obj
 0002:0001b400       ??_C@_09DHBBOCNN@?5vmoveto?6?$AA@ 0000000180096400     cff.obj
 0002:0001b410       ??_C@_09CKACAGID@?5rlineto?6?$AA@ 0000000180096410     cff.obj
 0002:0001b420       ??_C@_09BDOMMOGM@?5hlineto?6?$AA@ 0000000180096420     cff.obj
 0002:0001b430       ??_C@_09HHOOFHIP@?5vlineto?6?$AA@ 0000000180096430     cff.obj
 0002:0001b440       ??_C@_0N@LLCIPIGM@?5rcurveline?6?$AA@ 0000000180096440     cff.obj
 0002:0001b450       ??_C@_0M@ODNAPKNF@?5rrcurveto?6?$AA@ 0000000180096450     cff.obj
 0002:0001b460       ??_C@_0L@JEGIJFM@?5callgsubr?$AA@ 0000000180096460     cff.obj
 0002:0001b470       ??_C@_09KNGOKOCG@?5callsubr?$AA@ 0000000180096470     cff.obj
 0002:0001b47c       ??_C@_05NFNEIMMC@?$CI?$CFd?$CJ?6?$AA@ 000000018009647c     cff.obj
 0002:0001b488       ??_C@_08HEONNKIC@?5return?6?$AA@ 0000000180096488     cff.obj
 0002:0001b498       ??_C@_0N@GACGFGEK@?5dotsection?6?$AA@ 0000000180096498     cff.obj
 0002:0001b4a8       ??_C@_05IDALAONB@?5and?6?$AA@ 00000001800964a8     cff.obj
 0002:0001b4b0       ??_C@_0DG@DPAICGPG@cf2_interpT2CharString?3?5operator@ 00000001800964b0     cff.obj
 0002:0001b4e8       ??_C@_04DGMDJEAH@?5or?6?$AA@ 00000001800964e8     cff.obj
 0002:0001b4f0       ??_C@_05KFMBFNBF@?5not?6?$AA@ 00000001800964f0     cff.obj
 0002:0001b4f8       ??_C@_05NALEAEJM@?5abs?6?$AA@ 00000001800964f8     cff.obj
 0002:0001b500       ??_C@_05OMLGOOLF@?5add?6?$AA@ 0000000180096500     cff.obj
 0002:0001b508       ??_C@_05BKLOGGBP@?5sub?6?$AA@ 0000000180096508     cff.obj
 0002:0001b510       ??_C@_05MJJOMOAG@?5div?6?$AA@ 0000000180096510     cff.obj
 0002:0001b518       ??_C@_05NEBMKAFI@?5neg?6?$AA@ 0000000180096518     cff.obj
 0002:0001b520       ??_C@_04FLDIMKDK@?5eq?6?$AA@ 0000000180096520     cff.obj
 0002:0001b528       ??_C@_06HAACIAHB@?5drop?6?$AA@ 0000000180096528     cff.obj
 0002:0001b530       ??_C@_05EFLFMDAN@?5put?6?$AA@ 0000000180096530     cff.obj
 0002:0001b538       ??_C@_05MHGMNPAA@?5get?6?$AA@ 0000000180096538     cff.obj
 0002:0001b540       ??_C@_08HFEHEBCL@?5ifelse?6?$AA@ 0000000180096540     cff.obj
 0002:0001b550       ??_C@_08NPFKFAEF@?5random?6?$AA@ 0000000180096550     cff.obj
 0002:0001b55c       ??_C@_05MPPAGCPG@?5mul?6?$AA@ 000000018009655c     cff.obj
 0002:0001b564       ??_C@_06IMALOPBM@?5sqrt?6?$AA@ 0000000180096564     cff.obj
 0002:0001b56c       ??_C@_05NHNMFKJD@?5dup?6?$AA@ 000000018009656c     cff.obj
 0002:0001b574       ??_C@_06KJANAGAF@?5exch?6?$AA@ 0000000180096574     cff.obj
 0002:0001b580       ??_C@_07IPDMCCAC@?5index?6?$AA@ 0000000180096580     cff.obj
 0002:0001b588       ??_C@_06DKHEMHDO@?5roll?6?$AA@ 0000000180096588     cff.obj
 0002:0001b590       ??_C@_07PFGIOABK@?5hflex?6?$AA@ 0000000180096590     cff.obj
 0002:0001b598       ??_C@_06IDLELJEF@?5flex?6?$AA@ 0000000180096598     cff.obj
 0002:0001b5a0       ??_C@_08CPEGHDGB@?5hflex1?6?$AA@ 00000001800965a0     cff.obj
 0002:0001b5b0       ??_C@_07NEOEODFN@?5flex1?6?$AA@ 00000001800965b0     cff.obj
 0002:0001b5b8       ??_C@_0BG@NAMNIKJA@?5unknown?5op?5?$CI12?0?5?$CFd?$CJ?6?$AA@ 00000001800965b8     cff.obj
 0002:0001b5d0       ??_C@_09PGGGAPGH@?5endchar?6?$AA@ 00000001800965d0     cff.obj
 0002:0001b5e0       ??_C@_09JPOMIELM@?5cntrmask?$AA@ 00000001800965e0     cff.obj
 0002:0001b5f0       ??_C@_09CILDDOF@?5hintmask?$AA@ 00000001800965f0     cff.obj
 0002:0001b600       ??_C@_0CL@DODOLLDE@cf2_interpT2CharString?3?5invalid?5@ 0000000180096600     cff.obj
 0002:0001b630       ??_C@_09GKPNLDNB@?5rmoveto?6?$AA@ 0000000180096630     cff.obj
 0002:0001b640       ??_C@_09FDBDHLDO@?5hmoveto?6?$AA@ 0000000180096640     cff.obj
 0002:0001b650       ??_C@_0N@GIBGFFOL@?5rlinecurve?6?$AA@ 0000000180096650     cff.obj
 0002:0001b660       ??_C@_0M@FKOCCJCN@?5vvcurveto?6?$AA@ 0000000180096660     cff.obj
 0002:0001b670       ??_C@_0M@JPAFHHLL@?5hhcurveto?6?$AA@ 0000000180096670     cff.obj
 0002:0001b680       ??_C@_0M@KGGCMGOA@?5hvcurveto?6?$AA@ 0000000180096680     cff.obj
 0002:0001b690       ??_C@_0M@GDIFJIHG@?5vhcurveto?6?$AA@ 0000000180096690     cff.obj
 0002:0001b69c       ??_C@_05BEBFNOMM@?5?$CF?42f?$AA@ 000000018009669c     cff.obj
 0002:0001b6b0       ??_C@_0EA@KEAOEBJF@m?3?2svn?2?4private?2mini?2umodsys?2dep@ 00000001800966b0     cff.obj
 0002:0001b6f0       ??_C@_0EB@KFLKKMIG@m?3?2svn?2?4private?2mini?2umodsys?2dep@ 00000001800966f0     cff.obj
 0002:0001b738       ??_C@_0L@DDPIBKML@CID?5Type?51?$AA@ 0000000180096738     type1cid.obj
 0002:0001b748       ??_C@_0L@NKGPCONN@MinFeature?$AA@ 0000000180096748     type1cid.obj
 0002:0001b758       ??_C@_08NLHBPEGP@password?$AA@ 0000000180096758     type1cid.obj
 0002:0001b768       ??_C@_0BC@HBJENNOG@lenBuildCharArray?$AA@ 0000000180096768     type1cid.obj
 0002:0001b780       ??_C@_09NKAONILE@SubrCount?$AA@ 0000000180096780     type1cid.obj
 0002:0001b790       ??_C@_07OJDBLIDF@SDBytes?$AA@ 0000000180096790     type1cid.obj
 0002:0001b798       ??_C@_0O@DKIHOHFK@SubrMapOffset?$AA@ 0000000180096798     type1cid.obj
 0002:0001b7a8       ??_C@_08GBFACKAL@FontType?$AA@ 00000001800967a8     type1cid.obj
 0002:0001b7b4       ??_C@_06FIINGLDE@FSType?$AA@ 00000001800967b4     type1cid.obj
 0002:0001b7c0       ??_C@_07CPCPJPKL@version?$AA@ 00000001800967c0     type1cid.obj
 0002:0001b7c8       ??_C@_07BBMAIHOE@GDBytes?$AA@ 00000001800967c8     type1cid.obj
 0002:0001b7d0       ??_C@_07NNGKIHHK@FDBytes?$AA@ 00000001800967d0     type1cid.obj
 0002:0001b7d8       ??_C@_0N@LBMCPKAC@CIDMapOffset?$AA@ 00000001800967d8     type1cid.obj
 0002:0001b7e8       ??_C@_0L@EJNILPMC@Supplement?$AA@ 00000001800967e8     type1cid.obj
 0002:0001b7f8       ??_C@_08HMKBFHBJ@Ordering?$AA@ 00000001800967f8     type1cid.obj
 0002:0001b808       ??_C@_08EPBENDNC@Registry?$AA@ 0000000180096808     type1cid.obj
 0002:0001b818       ??_C@_0M@CKCGNNAK@CIDFontName?$AA@ 0000000180096818     type1cid.obj
 0002:0001b824       ??_C@_05MNCLAAKB@psaux?$AA@ 0000000180096824     type1cid.obj
 0002:0001b82c       ??_C@_05CNMLIGFM@t1cid?$AA@ 000000018009682c     type1cid.obj
 0002:0001b838       ??_C@_0CA@JGHPJJJF@?$CF?$CBPS?9Adobe?93?40?5Resource?9CIDFont?$AA@ 0000000180096838     type1cid.obj
 0002:0001b858       ??_C@_0BI@NIGNLBAO@?5?5not?5a?5CID?9keyed?5font?6?$AA@ 0000000180096858     type1cid.obj
 0002:0001b870       ??_C@_0EB@NNCFOKEE@m?3?2svn?2?4private?2mini?2umodsys?2dep@ 0000000180096870     type1cid.obj
 0002:0001b8b8       ??_C@_0CO@NAPDPACI@cid_parser_new?3?5no?5?$GAStartData?8?5k@ 00000001800968b8     type1cid.obj
 0002:0001b8e8       ??_C@_09BFOLOCGO@StartData?$AA@ 00000001800968e8     type1cid.obj
 0002:0001b8f4       ??_C@_06EMLBPOPP@?1sfnts?$AA@ 00000001800968f4     type1cid.obj
 0002:0001b8fc       ??_C@_05NPBNGLLN@?$CIHex?$CJ?$AA@ 00000001800968fc     type1cid.obj
 0002:0001b908       ??_C@_0CN@LHLBALAL@cid_parser_new?3?5cannot?5handle?5Ty@ 0000000180096908     type1cid.obj
 0002:0001b938       ??_C@_0CH@LPCJOMPF@cid_load_keyword?3?5invalid?5use?5of@ 0000000180096938     type1cid.obj
 0002:0001b960       ??_C@_0EA@LFMPPLFK@m?3?2svn?2?4private?2mini?2umodsys?2dep@ 0000000180096960     type1cid.obj
 0002:0001b9a0       ??_C@_0BC@JBBEDJNJ@?$CFADOBeginFontDict?$AA@ 00000001800969a0     type1cid.obj
 0002:0001b9b8       ??_C@_0CN@JBBCEMJC@cid_face_init?3?5cannot?5access?5?$GAps@ 00000001800969b8     type1cid.obj
 0002:0001b9f0       ??_C@_0EA@ICKHKMCO@m?3?2svn?2?4private?2mini?2umodsys?2dep@ 00000001800969f0     type1cid.obj
 0002:0001ba30       ??_C@_0M@KMCPCJLI@CID?5driver?6?$AA@ 0000000180096a30     type1cid.obj
 0002:0001ba40       ??_C@_0CD@OOMDKOJA@cid_face_init?3?5invalid?5face?5inde@ 0000000180096a40     type1cid.obj
 0002:0001ba68       ??_C@_0CA@OICIAGP@cid_load_glyph?3?5glyph?5index?5?$CFd?6?$AA@ 0000000180096a68     type1cid.obj
 0002:0001ba90       ??_C@_0EB@NHFIABHE@m?3?2svn?2?4private?2mini?2umodsys?2dep@ 0000000180096a90     type1cid.obj
 0002:0001bad8       ??_C@_0BF@LNCPPMHC@classickern?9validate?$AA@ 0000000180096ad8     gxvalid.obj
 0002:0001baf0       ??_C@_0BE@KPKLBHAB@truetypegx?9validate?$AA@ 0000000180096af0     gxvalid.obj
 0002:0001bb08       ??_C@_0P@EKNEFGKJ@ABxCD?5?$DN?$DO?5DCxBA?$AA@ 0000000180096b08     gxvalid.obj
 0002:0001bb18       ??_C@_0P@GDLPLLDD@ABxCD?5?$DN?$DO?5DCxAB?$AA@ 0000000180096b18     gxvalid.obj
 0002:0001bb28       ??_C@_0P@OFPBLKAB@ABxCD?5?$DN?$DO?5CDxBA?$AA@ 0000000180096b28     gxvalid.obj
 0002:0001bb38       ??_C@_0P@MMJKFHJL@ABxCD?5?$DN?$DO?5CDxAB?$AA@ 0000000180096b38     gxvalid.obj
 0002:0001bb48       ??_C@_0N@GFDFICHG@ABxD?5?$DN?$DO?5DxBA?$AA@ 0000000180096b48     gxvalid.obj
 0002:0001bb58       ??_C@_0N@EMFOGPOM@ABxD?5?$DN?$DO?5DxAB?$AA@ 0000000180096b58     gxvalid.obj
 0002:0001bb68       ??_C@_0N@JOLGIPKN@AxCD?5?$DN?$DO?5DCxA?$AA@ 0000000180096b68     gxvalid.obj
 0002:0001bb78       ??_C@_0N@LBEBGLAE@AxCD?5?$DN?$DO?5CDxA?$AA@ 0000000180096b78     gxvalid.obj
 0002:0001bb88       ??_C@_0L@GIFFPDBN@xCD?5?$DN?$DO?5DCx?$AA@ 0000000180096b88     gxvalid.obj
 0002:0001bb98       ??_C@_0L@PAMNNNCB@xCD?5?$DN?$DO?5CDx?$AA@ 0000000180096b98     gxvalid.obj
 0002:0001bba8       ??_C@_0L@KJAOHOOI@ABx?5?$DN?$DO?5xBA?$AA@ 0000000180096ba8     gxvalid.obj
 0002:0001bbb8       ??_C@_0L@IAGFJDHC@ABx?5?$DN?$DO?5xAB?$AA@ 0000000180096bb8     gxvalid.obj
 0002:0001bbc8       ??_C@_0L@INNLHIIA@AxD?5?$DN?$DO?5DxA?$AA@ 0000000180096bc8     gxvalid.obj
 0002:0001bbd8       ??_C@_08KGFFBEFP@xD?5?$DN?$DO?5Dx?$AA@ 0000000180096bd8     gxvalid.obj
 0002:0001bbe8       ??_C@_08NFFALFKK@Ax?5?$DN?$DO?5xA?$AA@ 0000000180096be8     gxvalid.obj
 0002:0001bbf8       ??_C@_09NNLHMIKM@no?5change?$AA@ 0000000180096bf8     gxvalid.obj
 0002:0001bc04       ??_C@_04MJLCKGBD@?$CF?$CK?4s?$AA@ 0000000180096c04     gxvalid.obj
 0002:0001bc10       ??_C@_0BE@INNMHEOF@feature?5in?5registry?$AA@ 0000000180096c10     gxvalid.obj
 0002:0001bc28       ??_C@_09HICHGHEL@?$CFs?5table?6?$AA@ 0000000180096c28     gxvalid.obj
 0002:0001bc38       ??_C@_0BB@CEOMLILN@?5?$CIfeature?5?$DN?5?$CFu?$CJ?6?$AA@ 0000000180096c38     gxvalid.obj
 0002:0001bc50       ??_C@_0CG@IEAFCHLI@feature?5number?5?$CFd?5is?5out?5of?5rang@ 0000000180096c50     gxvalid.obj
 0002:0001bc78       ??_C@_0DJ@JIHLFNIM@feature?5number?5?$CFd?5is?5in?5defined?5@ 0000000180096c78     gxvalid.obj
 0002:0001bcb8       ??_C@_0CI@CMOJNLNN@feature?5number?5?$CFd?5is?5reserved?5by@ 0000000180096cb8     gxvalid.obj
 0002:0001bce0       ??_C@_0DC@BAPJNOEC@feature?5?$CFd?3?5nSettings?5?$CFd?5?$CB?$DN?5defi@ 0000000180096ce0     gxvalid.obj
 0002:0001bd18       ??_C@_0DB@GOJDINIF@exclusive?5flag?5?$CFd?5differs?5from?5p@ 0000000180096d18     gxvalid.obj
 0002:0001bd50       ??_C@_09BJMIOIGM@nameIndex?$AA@ 0000000180096d50     gxvalid.obj
 0002:0001bd60       ??_C@_0BD@HKHJKKLM@?5?$CInameIndex?5?$DN?5?$CFd?$CJ?6?$AA@ 0000000180096d60     gxvalid.obj
 0002:0001bd78       ??_C@_07NDLGHPLM@setting?$AA@ 0000000180096d78     gxvalid.obj
 0002:0001bd80       ??_C@_04MEMAJGDJ@name?$AA@ 0000000180096d80     gxvalid.obj
 0002:0001bd88       ??_C@_0BJ@EJJLOAHM@validating?5?$GAfeat?8?5table?6?$AA@ 0000000180096d88     gxvalid.obj
 0002:0001bda8       ??_C@_0BK@POPCPNNF@?5?$CIfeatureNameCount?5?$DN?5?$CFd?$CJ?6?$AA@ 0000000180096da8     gxvalid.obj
 0002:0001bdc8       ??_C@_0CG@KDOIENIM@Inconsistency?5found?5in?5BinSrchHe@ 0000000180096dc8     gxvalid.obj
 0002:0001bdf0       ??_C@_0FF@OELKBFJC@originally?3?5unitSize?$DN?$CFd?0?5nUnits?$DN@ 0000000180096df0     gxvalid.obj
 0002:0001be50       ??_C@_0FF@GKIJOMME@calculated?3?5unitSize?$DN?$CFd?0?5nUnits?$DN@ 0000000180096e50     gxvalid.obj
 0002:0001bea8       ??_C@_0BH@CFOLKJOP@BinSrchHeader?5validate?$AA@ 0000000180096ea8     gxvalid.obj
 0002:0001bec0       ??_C@_0L@OEGPCPKO@nUnits?5?$CFd?6?$AA@ 0000000180096ec0     gxvalid.obj
 0002:0001bed0       ??_C@_0BF@CFMMMKPM@LookupTable?5format?50?$AA@ 0000000180096ed0     gxvalid.obj
 0002:0001bee8       ??_C@_0CH@FDIOAIGJ@too?5short?0?5glyphs?5?$CFd?5?9?5?$CFd?5are?5mi@ 0000000180096ee8     gxvalid.obj
 0002:0001bf10       ??_C@_0BF@BHPKKIHO@LookupTable?5format?52?$AA@ 0000000180096f10     gxvalid.obj
 0002:0001bf28       ??_C@_07OLPNKOAL@format2?$AA@ 0000000180096f28     gxvalid.obj
 0002:0001bf30       ??_C@_0EB@FABJMACD@unitSize?$DN?$CFd?5differs?5from?5expecte@ 0000000180096f30     gxvalid.obj
 0002:0001bf78       ??_C@_0BK@OIBFMELD@?5cannot?5validate?5anymore?6?$AA@ 0000000180096f78     gxvalid.obj
 0002:0001bf98       ??_C@_0BF@CDBNBCOF@?5forcibly?5continues?6?$AA@ 0000000180096f98     gxvalid.obj
 0002:0001bfb0       ??_C@_0EM@NHEBKBPN@reverse?5ordered?5segment?5specific@ 0000000180096fb0     gxvalid.obj
 0002:0001c000       ??_C@_0BP@HOEDHHHG@?5lastGlyph?5?$CFd?5?$DM?5firstGlyph?5?$CFd?5?$AA@ 0000000180097000     gxvalid.obj
 0002:0001c020       ??_C@_0DA@JHBHJAKH@reverse?5ordered?5range?5specificat@ 0000000180097020     gxvalid.obj
 0002:0001c050       ??_C@_0CC@KLMAJLOJ@continuing?5with?5exchanged?5values@ 0000000180097050     gxvalid.obj
 0002:0001c078       ??_C@_0BF@EBKAAPPI@LookupTable?5format?54?$AA@ 0000000180097078     gxvalid.obj
 0002:0001c090       ??_C@_07LNKHAJIN@format4?$AA@ 0000000180097090     gxvalid.obj
 0002:0001c098       ??_C@_0BF@HDJGGNHK@LookupTable?5format?56?$AA@ 0000000180097098     gxvalid.obj
 0002:0001c0b0       ??_C@_07IPJBGLAP@format6?$AA@ 00000001800970b0     gxvalid.obj
 0002:0001c0b8       ??_C@_0DO@EAEKFIMJ@?5endmarker?5found?5within?5defined?5@ 00000001800970b8     gxvalid.obj
 0002:0001c0f8       ??_C@_0CK@OEHFKDDM@current?5gid?50x?$CF04x?5?$DM?5previous?5gi@ 00000001800970f8     gxvalid.obj
 0002:0001c128       ??_C@_0BF@ONBFEAPE@LookupTable?5format?58?$AA@ 0000000180097128     gxvalid.obj
 0002:0001c140       ??_C@_0M@HPEICIHG@LookupTable?$AA@ 0000000180097140     gxvalid.obj
 0002:0001c150       ??_C@_0O@CCFCPKNG@?5?$CIformat?5?$CFd?$CJ?6?$AA@ 0000000180097150     gxvalid.obj
 0002:0001c160       ??_C@_0DH@BKLAPFML@?5gxv_glyphid_check?$CI?$CJ?5gid?5overflo@ 0000000180097160     gxvalid.obj
 0002:0001c198       ??_C@_08LBLKHEMN@sfntName?$AA@ 0000000180097198     gxvalid.obj
 0002:0001c1a8       ??_C@_0BN@BGJHMELA@?5?5nameIndex?5?$DN?5?$CFd?5?$CIUNTITLED?$CJ?6?$AA@ 00000001800971a8     gxvalid.obj
 0002:0001c1c8       ??_C@_0BD@MFELHJBP@?5?5nameIndex?5?$DN?5?$CFd?5?$CI?$AA@ 00000001800971c8     gxvalid.obj
 0002:0001c1dc       ??_C@_06FIJELGDL@?2x?$CF02x?$AA@ 00000001800971dc     gxvalid.obj
 0002:0001c1e8       ??_C@_0L@FPGLJKBD@ClassTable?$AA@ 00000001800971e8     gxvalid.obj
 0002:0001c1f8       ??_C@_0CC@CGNOIOGJ@?5?$CIfirstGlyph?5?$DN?5?$CFd?0?5nGlyphs?5?$DN?5?$CFd?$CJ@ 00000001800971f8     gxvalid.obj
 0002:0001c220       ??_C@_0DD@EBCKLCHH@Declared?5stateSize?$DN0x?$CF02x?0?5Used?5@ 0000000180097220     gxvalid.obj
 0002:0001c258       ??_C@_0L@BMCNIMC@StateArray?$AA@ 0000000180097258     gxvalid.obj
 0002:0001c268       ??_C@_0CO@BOMJGCGM@parse?5?$CFd?5bytes?5by?5stateSize?$DN?$CFd?5m@ 0000000180097268     gxvalid.obj
 0002:0001c298       ??_C@_0CC@OKNMKAG@parsed?3?5maxState?$DN?$CFd?0?5maxEntry?$DN?$CFd@ 0000000180097298     gxvalid.obj
 0002:0001c2c0       ??_C@_0L@DNKGNIID@EntryTable?$AA@ 00000001800972c0     gxvalid.obj
 0002:0001c2d0       ??_C@_0BK@HBJOMEJH@maxEntry?$DN?$CFd?5entrySize?$DN?$CFd?6?$AA@ 00000001800972d0     gxvalid.obj
 0002:0001c2f0       ??_C@_0DL@FHGOPENN@too?5large?5maxEntry?0?5shrinking?5to@ 00000001800972f0     gxvalid.obj
 0002:0001c330       ??_C@_0CO@BHOMMNJJ@?5newState?5offset?50x?$CF04x?5is?5out?5o@ 0000000180097330     gxvalid.obj
 0002:0001c360       ??_C@_0DG@PGMCKEPL@?5newState?5offset?50x?$CF04x?5is?5not?5a@ 0000000180097360     gxvalid.obj
 0002:0001c398       ??_C@_0L@MLCPDPCJ@StateTable?$AA@ 0000000180097398     gxvalid.obj
 0002:0001c3a8       ??_C@_0BD@IGCEMGPH@StateTable?5header?6?$AA@ 00000001800973a8     gxvalid.obj
 0002:0001c3c0       ??_C@_0BC@DJAJGCPP@stateSize?$DN0x?$CF04x?6?$AA@ 00000001800973c0     gxvalid.obj
 0002:0001c3d8       ??_C@_0BN@DCGKEGKM@offset?5to?5classTable?$DN0x?$CF04x?6?$AA@ 00000001800973d8     gxvalid.obj
 0002:0001c3f8       ??_C@_0BN@JCHJGFPC@offset?5to?5stateArray?$DN0x?$CF04x?6?$AA@ 00000001800973f8     gxvalid.obj
 0002:0001c418       ??_C@_0BN@IAPKLPEK@offset?5to?5entryTable?$DN0x?$CF04x?6?$AA@ 0000000180097418     gxvalid.obj
 0002:0001c438       ??_C@_0BG@DJLACMED@StateTable?5Subtables?6?$AA@ 0000000180097438     gxvalid.obj
 0002:0001c450       ??_C@_0M@CLOHIDLD@XStateArray?$AA@ 0000000180097450     gxvalid.obj
 0002:0001c460       ??_C@_0DE@NJBFCELM@parse?5?$CF?53d?5bytes?5by?5stateSize?$DN?$CF?5@ 0000000180097460     gxvalid.obj
 0002:0001c498       ??_C@_0M@BHIDIDPC@XEntryTable?$AA@ 0000000180097498     gxvalid.obj
 0002:0001c4a8       ??_C@_0DC@GFGOLAJF@?5?5newState?5index?50x?$CF04x?5points?5o@ 00000001800974a8     gxvalid.obj
 0002:0001c4e0       ??_C@_0FF@DHAMBHJP@?9?$DO?5new?5state?5?$DN?5?$CFd?5?$CIsupposed?$CJ?6but@ 00000001800974e0     gxvalid.obj
 0002:0001c538       ??_C@_0M@OBAKGEFI@XStateTable?$AA@ 0000000180097538     gxvalid.obj
 0002:0001c548       ??_C@_0BE@BLBMEJJE@XStateTable?5header?6?$AA@ 0000000180097548     gxvalid.obj
 0002:0001c560       ??_C@_0BC@OCMCHJCK@nClasses?5?$DN0x?$CF08x?6?$AA@ 0000000180097560     gxvalid.obj
 0002:0001c578       ??_C@_0BN@HILMPJBE@offset?5to?5classTable?$DN0x?$CF08x?6?$AA@ 0000000180097578     gxvalid.obj
 0002:0001c598       ??_C@_0BN@NIKPNKEK@offset?5to?5stateArray?$DN0x?$CF08x?6?$AA@ 0000000180097598     gxvalid.obj
 0002:0001c5b8       ??_C@_0BN@MKCMAAPC@offset?5to?5entryTable?$DN0x?$CF08x?6?$AA@ 00000001800975b8     gxvalid.obj
 0002:0001c5d8       ??_C@_0CB@HGFMHCIF@check?5overlap?5among?5multi?5ranges@ 00000001800975d8     gxvalid.obj
 0002:0001c600       ??_C@_0CN@OKEHLFHP@found?5overlap?5between?5range?5?$CFd?5a@ 0000000180097600     gxvalid.obj
 0002:0001c630       ??_C@_0CF@PMHFJOJG@found?5overlap?5between?5?$GA?$CFs?8?5and?5?$GA@ 0000000180097630     gxvalid.obj
 0002:0001c658       ??_C@_0N@EPJPFHIN@lookup?5value?$AA@ 0000000180097658     gxvalid.obj
 0002:0001c668       ??_C@_0P@KEPAICBH@parts?5format?50?$AA@ 0000000180097668     gxvalid.obj
 0002:0001c678       ??_C@_0P@LNOLLDFG@parts?5format?51?$AA@ 0000000180097678     gxvalid.obj
 0002:0001c688       ??_C@_0P@JGMGOAJF@parts?5format?52?$AA@ 0000000180097688     gxvalid.obj
 0002:0001c698       ??_C@_0BC@DEAIPHBF@?5?$CIstdGlyph?5?$DN?5?$CFu?$CJ?6?$AA@ 0000000180097698     gxvalid.obj
 0002:0001c6b0       ??_C@_0P@IPNNNBNE@parts?5format?53?$AA@ 00000001800976b0     gxvalid.obj
 0002:0001c6c0       ??_C@_0BJ@JBBPJONA@validating?5?$GAbsln?8?5table?6?$AA@ 00000001800976c0     gxvalid.obj
 0002:0001c6e0       ??_C@_0BA@JJIIDJMO@?5?$CIformat?5?$DN?5?$CFd?$CJ?6?$AA@ 00000001800976e0     gxvalid.obj
 0002:0001c6f0       ??_C@_0L@EPNHJGFF@trackTable?$AA@ 00000001800976f0     gxvalid.obj
 0002:0001c700       ??_C@_0CP@OGMBJFDF@duplicated?5entries?5found?5for?5tra@ 0000000180097700     gxvalid.obj
 0002:0001c730       ??_C@_09PIFJKEHJ@trackData?$AA@ 0000000180097730     gxvalid.obj
 0002:0001c740       ??_C@_0BB@NHLJIHNJ@trackData?5header?$AA@ 0000000180097740     gxvalid.obj
 0002:0001c758       ??_C@_09OOPAPGMF@sizeTable?$AA@ 0000000180097758     gxvalid.obj
 0002:0001c768       ??_C@_0BM@EMAOLGAI@too?5short?5trackValue?5array?6?$AA@ 0000000180097768     gxvalid.obj
 0002:0001c788       ??_C@_0BB@MJAIAHFM@trackValue?5array?$AA@ 0000000180097788     gxvalid.obj
 0002:0001c7a0       ??_C@_0BJ@DDOFCNPL@validating?5?$GAtrak?8?5table?6?$AA@ 00000001800977a0     gxvalid.obj
 0002:0001c7c0       ??_C@_0BF@JKEBBHOG@?5?$CIversion?5?$DN?50x?$CF08x?$CJ?6?$AA@ 00000001800977c0     gxvalid.obj
 0002:0001c7d8       ??_C@_0BE@FPPKBALM@?5?$CIformat?5?$DN?50x?$CF04x?$CJ?6?$AA@ 00000001800977d8     gxvalid.obj
 0002:0001c7f0       ??_C@_0BJ@NBCDEPNN@?5?$CIhorizOffset?5?$DN?50x?$CF04x?$CJ?6?$AA@ 00000001800977f0     gxvalid.obj
 0002:0001c810       ??_C@_0BI@JPJCFKNO@?5?$CIvertOffset?5?$DN?50x?$CF04x?$CJ?6?$AA@ 0000000180097810     gxvalid.obj
 0002:0001c828       ??_C@_0BG@GIDIHHMC@?5?$CIreserved?5?$DN?50x?$CF04x?$CJ?6?$AA@ 0000000180097828     gxvalid.obj
 0002:0001c840       ??_C@_0O@FJAINNEC@horizJustData?$AA@ 0000000180097840     gxvalid.obj
 0002:0001c850       ??_C@_0N@OAEPKIGF@vertJustData?$AA@ 0000000180097850     gxvalid.obj
 0002:0001c860       ??_C@_0DI@CJDBOEDP@just?5table?5includes?5too?5large?5?$CFs@ 0000000180097860     gxvalid.obj
 0002:0001c8a0       ??_C@_0FF@INJCKFHD@just?5table?5includes?5non?9zero?5val@ 00000001800978a0     gxvalid.obj
 0002:0001c8f8       ??_C@_0BL@PDKECLNH@validating?5wdc?5pair?5?$CFd?1?$CFd?6?$AA@ 00000001800978f8     gxvalid.obj
 0002:0001c918       ??_C@_0BH@DKGNFIPP@just?5justDeltaClusters?$AA@ 0000000180097918     gxvalid.obj
 0002:0001c930       ??_C@_0EJ@GKIHAHPC@just?5table?5includes?5invalid?5rang@ 0000000180097930     gxvalid.obj
 0002:0001c980       ??_C@_0N@CMPJCJGP@type0?3glyphs?$AA@ 0000000180097980     gxvalid.obj
 0002:0001c990       ??_C@_0P@LNDIHLEC@type1?3addGlyph?$AA@ 0000000180097990     gxvalid.obj
 0002:0001c9a0       ??_C@_0P@CENKBNED@type2?3addGlyph?$AA@ 00000001800979a0     gxvalid.obj
 0002:0001c9b0       ??_C@_0BB@CKBIJAOG@type2?3substGlyph?$AA@ 00000001800979b0     gxvalid.obj
 0002:0001c9c8       ??_C@_0CJ@MOFFDCMO@variantsAxis?50x?$CF08x?5is?5non?5defau@ 00000001800979c8     gxvalid.obj
 0002:0001c9f8       ??_C@_0DD@EGGJBIFA@type4?3minimumLimit?50x?$CF08x?5?$DO?5noSt@ 00000001800979f8     gxvalid.obj
 0002:0001ca30       ??_C@_0DD@KGAGBBOK@type4?3noStretchValue?50x?$CF08x?5?$DO?5ma@ 0000000180097a30     gxvalid.obj
 0002:0001ca68       ??_C@_0CN@IAEHPAMB@type5?3?5nonzero?5value?50x?$CF04x?5in?5u@ 0000000180097a68     gxvalid.obj
 0002:0001ca98       ??_C@_0M@KBFLMKFM@type5?3glyph?$AA@ 0000000180097a98     gxvalid.obj
 0002:0001caa8       ??_C@_0BC@DKCMPIJF@just?5actSubrecord?$AA@ 0000000180097aa8     gxvalid.obj
 0002:0001cac0       ??_C@_0BC@BNAKFIEF@actionCount?5?$DN?5?$CFd?6?$AA@ 0000000180097ac0     gxvalid.obj
 0002:0001cad8       ??_C@_0BD@IHEACLD@just?5pcLookupTable?$AA@ 0000000180097ad8     gxvalid.obj
 0002:0001caf0       ??_C@_0BD@JBCKMKKO@just?5postcompTable?$AA@ 0000000180097af0     gxvalid.obj
 0002:0001cb08       ??_C@_0BE@ENIOFICK@just?5justClassTable?$AA@ 0000000180097b08     gxvalid.obj
 0002:0001cb20       ??_C@_0CK@LDIDIJDH@?5?5justClassTable?3?5coverage?5?$DN?50x?$CF@ 0000000180097b20     gxvalid.obj
 0002:0001cb50       ??_C@_0L@FFPJPABJ@ascending?6?$AA@ 0000000180097b50     gxvalid.obj
 0002:0001cb60       ??_C@_0M@NOCGKDGP@descending?6?$AA@ 0000000180097b60     gxvalid.obj
 0002:0001cb70       ??_C@_0EE@JOAEIJCE@?5?5justClassTable?3?5nonzero?5value?5@ 0000000180097b70     gxvalid.obj
 0002:0001cbb8       ??_C@_0O@OEDOIIJC@just?5justData?$AA@ 0000000180097bb8     gxvalid.obj
 0002:0001cbc8       ??_C@_0CC@EOPOGJNC@?5?$CIjustClassTableOffset?5?$DN?50x?$CF04x?$CJ@ 0000000180097bc8     gxvalid.obj
 0002:0001cbf0       ??_C@_0BM@NNPKCHAA@?5?$CIwdcTableOffset?5?$DN?50x?$CF04x?$CJ?6?$AA@ 0000000180097bf0     gxvalid.obj
 0002:0001cc10       ??_C@_0BL@PDAFHACE@?5?$CIpcTableOffset?5?$DN?50x?$CF04x?$CJ?6?$AA@ 0000000180097c10     gxvalid.obj
 0002:0001cc30       ??_C@_0BB@ODJMJHDD@just_LookupTable?$AA@ 0000000180097c30     gxvalid.obj
 0002:0001cc48       ??_C@_0O@DFNGDLK@just_wdcTable?$AA@ 0000000180097c48     gxvalid.obj
 0002:0001cc58       ??_C@_0N@KAGMCNIM@just_pcTable?$AA@ 0000000180097c58     gxvalid.obj
 0002:0001cc68       ??_C@_0BE@BMACIMAJ@just_justClassTable?$AA@ 0000000180097c68     gxvalid.obj
 0002:0001cc80       ??_C@_0BJ@CJKDMJHB@validating?5?$GAjust?8?5table?6?$AA@ 0000000180097c80     gxvalid.obj
 0002:0001cca0       ??_C@_0M@CDBODNCB@just?5header?$AA@ 0000000180097ca0     gxvalid.obj
 0002:0001ccb0       ??_C@_0BF@CMABBIIH@?5?$CIhorizOffset?5?$DN?5?$CFd?$CJ?6?$AA@ 0000000180097cb0     gxvalid.obj
 0002:0001ccc8       ??_C@_0BE@JFCHPFFG@?5?$CIvertOffset?5?$DN?5?$CFd?$CJ?6?$AA@ 0000000180097cc8     gxvalid.obj
 0002:0001cce0       ??_C@_0EE@NHNIFBNE@featureType?5?$CFd?5is?5out?5of?5registe@ 0000000180097ce0     gxvalid.obj
 0002:0001cd30       ??_C@_0FB@PEFGGJCF@featureType?5?$CFd?5is?5within?5registe@ 0000000180097d30     gxvalid.obj
 0002:0001cd88       ??_C@_0BN@NBHBLNPN@featureType?5?$CFd?5is?5registered?$AA@ 0000000180097d88     gxvalid.obj
 0002:0001cda8       ??_C@_0L@NJMEPBLB@setting?5?$CFd?$AA@ 0000000180097da8     gxvalid.obj
 0002:0001cdb8       ??_C@_0BI@KAENCPH@out?5of?5defined?5range?5?$CFd?$AA@ 0000000180097db8     gxvalid.obj
 0002:0001cdd0       ??_C@_0BC@NNBFEOAD@mort?5feature?5list?$AA@ 0000000180097dd0     gxvalid.obj
 0002:0001cde8       ??_C@_0CK@DFNJPDGP@?5this?5subtable?5is?5for?5vertical?5t@ 0000000180097de8     gxvalid.obj
 0002:0001ce18       ??_C@_0CM@FKEKJIHB@?5this?5subtable?5is?5for?5horizontal@ 0000000180097e18     gxvalid.obj
 0002:0001ce48       ??_C@_0DO@GPPIHKDE@?5this?5subtable?5is?5applied?5to?5gly@ 0000000180097e48     gxvalid.obj
 0002:0001ce88       ??_C@_0DN@FKLFHIEN@?5this?5subtable?5is?5applied?5to?5gly@ 0000000180097e88     gxvalid.obj
 0002:0001ced0       ??_C@_0EA@OILEFNPF@?5this?5subtable?5is?5forcibly?5appli@ 0000000180097ed0     gxvalid.obj
 0002:0001cf10       ??_C@_0CO@PPDCIHDL@?5coverage?5has?5non?9zero?5bits?5in?5r@ 0000000180097f10     gxvalid.obj
 0002:0001cf40       ??_C@_0BF@CDPKIEFC@subtables?5in?5a?5chain?$AA@ 0000000180097f40     gxvalid.obj
 0002:0001cf58       ??_C@_0CM@KJJCNDKE@validating?5chain?5subtable?5?$CFd?1?$CFd?5@ 0000000180097f58     gxvalid.obj
 0002:0001cf88       ??_C@_0BK@GABFJFGO@morx?5type?5?$CFd?5is?5reserved?6?$AA@ 0000000180097f88     gxvalid.obj
 0002:0001cfa8       ??_C@_0BC@MPBKEAIG@mort?5chain?5header?$AA@ 0000000180097fa8     gxvalid.obj
 0002:0001cfc0       ??_C@_0BJ@HDHBBFHE@validating?5?$GAmort?8?5table?6?$AA@ 0000000180097fc0     gxvalid.obj
 0002:0001cfe0       ??_C@_0BI@IKDEBIOI@validating?5chain?5?$CFd?1?$CFd?6?$AA@ 0000000180097fe0     gxvalid.obj
 0002:0001cff8       ??_C@_0CP@BLFNPCPD@?5?5IndicScript?5MorphRule?5for?5glyp@ 0000000180097ff8     gxvalid.obj
 0002:0001d028       ??_C@_0BA@LKIFIPAC@?5markFirst?$DN?$CF01d?$AA@ 0000000180098028     gxvalid.obj
 0002:0001d038       ??_C@_0BC@DLAKGIBP@?5dontAdvance?$DN?$CF01d?$AA@ 0000000180098038     gxvalid.obj
 0002:0001d050       ??_C@_0P@GDJPENBI@?5markLast?$DN?$CF01d?$AA@ 0000000180098050     gxvalid.obj
 0002:0001d060       ??_C@_05JGOFJMOC@?5?$CF02d?$AA@ 0000000180098060     gxvalid.obj
 0002:0001d070       ??_C@_0EJ@HOPMAAAN@?5?5?$FLodd?$FN?5a?5glyph?5is?5marked?5as?5the@ 0000000180098070     gxvalid.obj
 0002:0001d0c0       ??_C@_0EJ@FCJDKLAF@?5?5?$FLodd?$FN?5the?5first?5glyph?5is?5marke@ 00000001800980c0     gxvalid.obj
 0002:0001d110       ??_C@_0CI@BAFHHIHM@?5non?9zero?5bits?5found?5in?5reserved@ 0000000180098110     gxvalid.obj
 0002:0001d138       ??_C@_0DH@IFICMNAH@mort?5chain?5subtable?5type0?5?$CIIndic@ 0000000180098138     gxvalid.obj
 0002:0001d170       ??_C@_0L@GEJAHMKN@markOffset?$AA@ 0000000180098170     gxvalid.obj
 0002:0001d180       ??_C@_0O@JKDAMMBN@currentOffset?$AA@ 0000000180098180     gxvalid.obj
 0002:0001d190       ??_C@_0CJ@KHEMEKLO@validating?5contents?5of?5substitut@ 0000000180098190     gxvalid.obj
 0002:0001d1c0       ??_C@_0EI@OGFDMMGO@substTable?5include?5a?5strange?5gid@ 00000001800981c0     gxvalid.obj
 0002:0001d208       ??_C@_0DD@LNLAPACO@mort?5chain?5subtable?5type1?5?$CIConte@ 0000000180098208     gxvalid.obj
 0002:0001d240       ??_C@_0CB@NOFBBJEM@offset?5to?5ligActionTable?$DN0x?$CF04x?6@ 0000000180098240     gxvalid.obj
 0002:0001d268       ??_C@_0CB@EADJMCEO@offset?5to?5componentTable?$DN0x?$CF04x?6@ 0000000180098268     gxvalid.obj
 0002:0001d290       ??_C@_0CA@NDNEMHDP@offset?5to?5ligatureTable?$DN0x?$CF04x?6?$AA@ 0000000180098290     gxvalid.obj
 0002:0001d2b0       ??_C@_0BK@EFCJODAL@subtable?5boundaries?5setup?$AA@ 00000001800982b0     gxvalid.obj
 0002:0001d2d0       ??_C@_0CJ@KEAEKKB@classTable?3?5offset?$DN0x?$CF04x?5length@ 00000001800982d0     gxvalid.obj
 0002:0001d300       ??_C@_0CJ@LNGHLADH@stateArray?3?5offset?$DN0x?$CF04x?5length@ 0000000180098300     gxvalid.obj
 0002:0001d330       ??_C@_0CJ@IFIPPFNC@entryTable?3?5offset?$DN0x?$CF04x?5length@ 0000000180098330     gxvalid.obj
 0002:0001d360       ??_C@_0CN@JBGJNHHM@ligActionTable?3?5offset?$DN0x?$CF04x?5le@ 0000000180098360     gxvalid.obj
 0002:0001d390       ??_C@_0CN@MDJCIELE@componentTable?3?5offset?$DN0x?$CF04x?5le@ 0000000180098390     gxvalid.obj
 0002:0001d3c0       ??_C@_0CN@IOMKFGIP@ligatureTable?3?5?5offset?$DN0x?$CF04x?5le@ 00000001800983c0     gxvalid.obj
 0002:0001d3f0       ??_C@_0DI@PFPAKPAD@too?5short?5offset?50x?$CF04x?3?5p?5?$DM?5lat@ 00000001800983f0     gxvalid.obj
 0002:0001d428       ??_C@_0DK@NEOEPNKB@too?5large?5offset?50x?$CF04x?3?5lat_lim@ 0000000180098428     gxvalid.obj
 0002:0001d470       ??_C@_0EG@FEHOLMAM@too?5short?5offset?50x?$CF08x?3?52?5x?5off@ 0000000180098470     gxvalid.obj
 0002:0001d4c0       ??_C@_0FN@OBFFAHFG@too?5long?5offset?50x?$CF08x?3?52?5x?5offs@ 00000001800984c0     gxvalid.obj
 0002:0001d520       ??_C@_0CO@CKILHPKC@mort?5chain?5subtable?5type2?5?9?5subs@ 0000000180098520     gxvalid.obj
 0002:0001d550       ??_C@_0DC@GAENJLMF@mort?5chain?5subtable?5type2?5?$CILigat@ 0000000180098550     gxvalid.obj
 0002:0001d588       ??_C@_0DO@PHDGHEOB@mort?5chain?5subtable?5type4?5?$CINon?9C@ 0000000180098588     gxvalid.obj
 0002:0001d5c8       ??_C@_0BN@OGEJINGO@?5offset?5runs?5into?5ClassTable?$AA@ 00000001800985c8     gxvalid.obj
 0002:0001d5e8       ??_C@_0BN@LIOAMPLP@?5offset?5runs?5into?5StateArray?$AA@ 00000001800985e8     gxvalid.obj
 0002:0001d608       ??_C@_0BN@IEIEMPPO@?5offset?5runs?5into?5EntryTable?$AA@ 0000000180098608     gxvalid.obj
 0002:0001d628       ??_C@_07BBDHIOFJ@?50x?$CF04x?$AA@ 0000000180098628     gxvalid.obj
 0002:0001d630       ??_C@_0CM@HKGLNPMG@mort?5chain?5subtable?5type5?5?$CIGlyph@ 0000000180098630     gxvalid.obj
 0002:0001d660       ??_C@_0BC@IKOPOJGC@morx?5chain?5header?$AA@ 0000000180098660     gxvalid.obj
 0002:0001d678       ??_C@_0BJ@GJENPFPK@validating?5?$GAmorx?8?5table?6?$AA@ 0000000180098678     gxvalid.obj
 0002:0001d698       ??_C@_0DH@BEFNHJI@morx?5chain?5subtable?5type0?5?$CIIndic@ 0000000180098698     gxvalid.obj
 0002:0001d6d0       ??_C@_0CA@OOALBDKD@?5setMark?$DN?$CF01d?5dontAdvance?$DN?$CF01d?6?$AA@ 00000001800986d0     gxvalid.obj
 0002:0001d6f0       ??_C@_0CD@JLFNKFJG@markIndex?5?$DN?5?$CFd?0?5currentIndex?5?$DN?5?$CF@ 00000001800986f0     gxvalid.obj
 0002:0001d718       ??_C@_0CG@HMLMIJME@morx?5subtable?5type1?5subst?4?3?5?$CFd?5?9@ 0000000180098718     gxvalid.obj
 0002:0001d740       ??_C@_0DD@HNIJCDPP@morx?5chain?5subtable?5type1?5?$CIConte@ 0000000180098740     gxvalid.obj
 0002:0001d778       ??_C@_0CB@JEIHKGPE@offset?5to?5ligActionTable?$DN0x?$CF08x?6@ 0000000180098778     gxvalid.obj
 0002:0001d7a0       ??_C@_0CB@KOPHNPG@offset?5to?5componentTable?$DN0x?$CF08x?6@ 00000001800987a0     gxvalid.obj
 0002:0001d7c8       ??_C@_0CA@JJACHIIH@offset?5to?5ligatureTable?$DN0x?$CF08x?6?$AA@ 00000001800987c8     gxvalid.obj
 0002:0001d7e8       ??_C@_0CJ@FMGPIMBD@classTable?3?5offset?$DN0x?$CF08x?5length@ 00000001800987e8     gxvalid.obj
 0002:0001d818       ??_C@_0CJ@OLEIHGIF@stateArray?3?5offset?$DN0x?$CF08x?5length@ 0000000180098818     gxvalid.obj
 0002:0001d848       ??_C@_0CJ@NDKADDGA@entryTable?3?5offset?$DN0x?$CF08x?5length@ 0000000180098848     gxvalid.obj
 0002:0001d878       ??_C@_0CN@MHEGBBMO@ligActionTable?3?5offset?$DN0x?$CF08x?5le@ 0000000180098878     gxvalid.obj
 0002:0001d8a8       ??_C@_0CN@JFLNECAG@componentTable?3?5offset?$DN0x?$CF08x?5le@ 00000001800988a8     gxvalid.obj
 0002:0001d8d8       ??_C@_0CN@NIOFJADN@ligatureTable?3?5?5offset?$DN0x?$CF08x?5le@ 00000001800988d8     gxvalid.obj
 0002:0001d908       ??_C@_0BP@DAFIONGP@p?5?$DM?5lat_base?5?$CI?$CFd?5byte?5rewind?$CJ?6?$AA@ 0000000180098908     gxvalid.obj
 0002:0001d928       ??_C@_0CB@IEDBCKAK@lat_limit?5?$DM?5p?5?$CI?$CFd?5byte?5overrun?$CJ?6@ 0000000180098928     gxvalid.obj
 0002:0001d950       ??_C@_0FP@PNAGKJCD@ligature?5action?5table?5includes?5t@ 0000000180098950     gxvalid.obj
 0002:0001d9b0       ??_C@_0FL@OJHFMOKG@ligature?5action?5table?5includes?5t@ 00000001800989b0     gxvalid.obj
 0002:0001da10       ??_C@_0EM@HNKJPGPM@ligature?5action?5table?5includes?5i@ 0000000180098a10     gxvalid.obj
 0002:0001da60       ??_C@_0BO@ELBAJOLL@?5?5reserved?514bit?5is?5non?9zero?6?$AA@ 0000000180098a60     gxvalid.obj
 0002:0001da80       ??_C@_0CO@LILJBPBE@morx?5chain?5subtable?5type2?5?9?5subs@ 0000000180098a80     gxvalid.obj
 0002:0001dab0       ??_C@_0DC@ODPCOHLK@morx?5chain?5subtable?5type2?5?$CILigat@ 0000000180098ab0     gxvalid.obj
 0002:0001dae8       ??_C@_0DO@HFPFEGGO@morx?5chain?5subtable?5type4?5?$CINon?9C@ 0000000180098ae8     gxvalid.obj
 0002:0001db28       ??_C@_0CM@EBKPANMM@morx?5chain?5subtable?5type5?5?$CIGlyph@ 0000000180098b28     gxvalid.obj
 0002:0001db58       ??_C@_0BE@JLIAMELO@kern?5format?50?5pairs?$AA@ 0000000180098b58     gxvalid.obj
 0002:0001db70       ??_C@_0BP@LNAKMNFN@left?5gid?5?$DN?5?$CFu?0?5right?5gid?5?$DN?5?$CFu?6?$AA@ 0000000180098b70     gxvalid.obj
 0002:0001db90       ??_C@_0BH@NKOAKPBH@kern?5subtable?5format?50?$AA@ 0000000180098b90     gxvalid.obj
 0002:0001dba8       ??_C@_0BH@MDPLJOFG@kern?5subtable?5format?51?$AA@ 0000000180098ba8     gxvalid.obj
 0002:0001dbc0       ??_C@_0BJ@LLJDPPA@kern?5format?52?5classTable?$AA@ 0000000180098bc0     gxvalid.obj
 0002:0001dbe0       ??_C@_0BP@LMELLEKM@?5?$CFs?5firstGlyph?$DN?$CFd?0?5nGlyphs?$DN?$CFd?6?$AA@ 0000000180098be0     gxvalid.obj
 0002:0001dc00       ??_C@_09MLMIGEEM@leftClass?$AA@ 0000000180098c00     gxvalid.obj
 0002:0001dc10       ??_C@_0L@DINOKHBE@rightClass?$AA@ 0000000180098c10     gxvalid.obj
 0002:0001dc20       ??_C@_0BH@OINGMNJF@kern?5subtable?5format?52?$AA@ 0000000180098c20     gxvalid.obj
 0002:0001dc38       ??_C@_0P@BKEKJGFE@rowWidth?5?$DN?5?$CFd?6?$AA@ 0000000180098c38     gxvalid.obj
 0002:0001dc48       ??_C@_05HIFJDKLD@array?$AA@ 0000000180098c48     gxvalid.obj
 0002:0001dc50       ??_C@_0BH@PBMNPMNE@kern?5subtable?5format?53?$AA@ 0000000180098c50     gxvalid.obj
 0002:0001dc68       ??_C@_0BO@CBLMABCI@maxGID?$DN?$CFd?0?5but?5glyphCount?$DN?$CFd?6?$AA@ 0000000180098c68     gxvalid.obj
 0002:0001dc88       ??_C@_0DK@DCFBPKOO@kern?5subtable?5fmt3?5has?5nonzero?5v@ 0000000180098c88     gxvalid.obj
 0002:0001dcd0       ??_C@_0EM@NCBEHCCG@new?5Apple?9dialect?3?5horizontal?$DN?$CFd@ 0000000180098cd0     gxvalid.obj
 0002:0001dd20       ??_C@_0DF@PJOCMIHK@kerning?5values?5in?5Apple?5format?5s@ 0000000180098d20     gxvalid.obj
 0002:0001dd60       ??_C@_0EC@GKDPDHHK@classic?5Apple?9dialect?3?5horizonta@ 0000000180098d60     gxvalid.obj
 0002:0001ddb0       ??_C@_0FP@BKEPJGAA@classic?5Microsoft?9dialect?3?5horiz@ 0000000180098db0     gxvalid.obj
 0002:0001de10       ??_C@_0DL@EKGIIFLA@kerning?5values?5in?5Microsoft?5form@ 0000000180098e10     gxvalid.obj
 0002:0001de50       ??_C@_0BE@JLDLEDOM@validating?5coverage?$AA@ 0000000180098e50     gxvalid.obj
 0002:0001de68       ??_C@_0CL@LBOBPDEC@interprete?5coverage?50x?$CF04x?5by?5Ap@ 0000000180098e68     gxvalid.obj
 0002:0001de98       ??_C@_0DC@DCOJGAAM@cannot?5interprete?5coverage?0?5brok@ 0000000180098e98     gxvalid.obj
 0002:0001ded0       ??_C@_0O@LGMNEEBI@kern?5subtable?$AA@ 0000000180098ed0     gxvalid.obj
 0002:0001dee0       ??_C@_0BH@HLPCPPFN@Subtable?5version?5?$DN?5?$CFd?6?$AA@ 0000000180098ee0     gxvalid.obj
 0002:0001def8       ??_C@_0BG@HOEOBMDH@Subtable?5length?5?$DN?5?$CFd?6?$AA@ 0000000180098ef8     gxvalid.obj
 0002:0001df10       ??_C@_0BK@GLPDLKOL@Subtable?5tupleIndex?5?$DN?5?$CFd?6?$AA@ 0000000180098f10     gxvalid.obj
 0002:0001df30       ??_C@_0DD@FNJOAPKM@cannot?5detect?5subtable?5dialect?0?5@ 0000000180098f30     gxvalid.obj
 0002:0001df68       ??_C@_0BJ@JCPDDOJ@validating?5?$GAkern?8?5table?6?$AA@ 0000000180098f68     gxvalid.obj
 0002:0001df88       ??_C@_0BP@CGDGIJPA@version?50x?$CF04x?5?$CIhigher?516bit?$CJ?6?$AA@ 0000000180098f88     gxvalid.obj
 0002:0001dfa8       ??_C@_0BL@KOOHLMAI@validating?5subtable?5?$CFd?1?$CFd?6?$AA@ 0000000180098fa8     gxvalid.obj
 0002:0001dfc8       ??_C@_0BJ@OEPJJHJB@validating?5?$GAopbd?8?5table?6?$AA@ 0000000180098fc8     gxvalid.obj
 0002:0001dfe8       ??_C@_0BC@BMGCNAAO@?$CIversion?$DN0x?$CF08x?$CJ?6?$AA@ 0000000180098fe8     gxvalid.obj
 0002:0001e000       ??_C@_0BB@FPDIIMNM@?$CIformat?$DN0x?$CF04x?$CJ?6?$AA@ 0000000180099000     gxvalid.obj
 0002:0001e018       ??_C@_0DI@HKJFBHG@found?5overlap?5between?5LookupTabl@ 0000000180099018     gxvalid.obj
 0002:0001e050       ??_C@_0N@FHPBJMPC@zero?5advance?$AA@ 0000000180099050     gxvalid.obj
 0002:0001e060       ??_C@_0DA@BAOEKFGE@?5?5found?5non?9zero?5advance?5in?5zero@ 0000000180099060     gxvalid.obj
 0002:0001e090       ??_C@_0CB@INKFJCHG@?5?5found?5zero?5offset?5to?5property?6@ 0000000180099090     gxvalid.obj
 0002:0001e0b8       ??_C@_0CH@MFFPNNPK@?5?5found?5non?9positive?5glyph?5compl@ 00000001800990b8     gxvalid.obj
 0002:0001e0e0       ??_C@_0CP@DJPBHBEO@glyph?5?$CFd?5cannot?5have?5complementa@ 00000001800990e0     gxvalid.obj
 0002:0001e110       ??_C@_0DC@MDMFEPHI@?5?5found?5older?5version?5?$CI1?40?$CJ?5in?5n@ 0000000180099110     gxvalid.obj
 0002:0001e148       ??_C@_0CI@ICCCDDBB@?5?5found?5non?9zero?5bits?5in?5reserve@ 0000000180099148     gxvalid.obj
 0002:0001e170       ??_C@_0DB@PLGACNIE@?5?5found?5too?5old?5version?5in?5direc@ 0000000180099170     gxvalid.obj
 0002:0001e1a8       ??_C@_0BJ@HOGEBGHE@validating?5?$GAprop?8?5table?6?$AA@ 00000001800991a8     gxvalid.obj
 0002:0001e1c8       ??_C@_0BC@BIOAJOFG@?5?5version?50x?$CF08x?6?$AA@ 00000001800991c8     gxvalid.obj
 0002:0001e1e0       ??_C@_0BC@JGFHMKGO@?5?5format?5?50x?$CF04x?6?$AA@ 00000001800991e0     gxvalid.obj
 0002:0001e1f8       ??_C@_0BH@OJEOFIJM@?5?5defaultProp?5?50x?$CF04x?6?$AA@ 00000001800991f8     gxvalid.obj
 0002:0001e210       ??_C@_0BJ@KEBPAJIJ@?5?5found?5unknown?5version?6?$AA@ 0000000180099210     gxvalid.obj
 0002:0001e230       ??_C@_0BI@PNFFIACD@?5?5found?5unknown?5format?6?$AA@ 0000000180099230     gxvalid.obj
 0002:0001e250       ??_C@_0EE@KMNJAONB@?$CIformat?50?0?5no?5per?9glyph?5properti@ 0000000180099250     gxvalid.obj
 0002:0001e298       ??_C@_07JHIHCBKH@partial?$AA@ 0000000180099298     gxvalid.obj
 0002:0001e2a0       ??_C@_0BH@EJHHMOLM@element?5in?5lookupTable?$AA@ 00000001800992a0     gxvalid.obj
 0002:0001e2b8       ??_C@_0BJ@JBOHFDPN@validating?5?$GAlcar?8?5table?6?$AA@ 00000001800992b8     gxvalid.obj
 0002:0001e2d8       ??_C@_0BC@CIDGJKNO@opentype?9validate?$AA@ 00000001800992d8     otvalid.obj
 0002:0001e2f0       ??_C@_09JBHMENFE@BaseCoord?$AA@ 00000001800992f0     otvalid.obj
 0002:0001e300       ??_C@_0M@ONDHEBMC@BaseTagList?$AA@ 0000000180099300     otvalid.obj
 0002:0001e310       ??_C@_0BG@HENOFBKF@?5?$CIBaseTagCount?5?$DN?5?$CFd?$CJ?6?$AA@ 0000000180099310     otvalid.obj
 0002:0001e328       ??_C@_0L@LMNMDJNC@BaseValues?$AA@ 0000000180099328     otvalid.obj
 0002:0001e338       ??_C@_0BI@BELFGMHE@?5?$CIBaseCoordCount?5?$DN?5?$CFd?$CJ?6?$AA@ 0000000180099338     otvalid.obj
 0002:0001e350       ??_C@_06IJDLHBIP@MinMax?$AA@ 0000000180099350     otvalid.obj
 0002:0001e358       ??_C@_0BJ@LEEBCPFJ@?5?$CIFeatMinMaxCount?5?$DN?5?$CFd?$CJ?6?$AA@ 0000000180099358     otvalid.obj
 0002:0001e378       ??_C@_08IFAJOOLP@MinCoord?$AA@ 0000000180099378     otvalid.obj
 0002:0001e388       ??_C@_0DG@LHDEHHMJ@?6Invalid?5offset?5to?5optional?5tabl@ 0000000180099388     otvalid.obj
 0002:0001e3c0       ??_C@_08FCOCFMPO@MaxCoord?$AA@ 00000001800993c0     otvalid.obj
 0002:0001e3d0       ??_C@_0L@DDJPIBOG@BaseScript?$AA@ 00000001800993d0     otvalid.obj
 0002:0001e3e0       ??_C@_0BK@BMGBKNJG@?5?$CIBaseLangSysCount?5?$DN?5?$CFd?$CJ?6?$AA@ 00000001800993e0     otvalid.obj
 0002:0001e400       ??_C@_0O@FKDNOFIH@DefaultMinMax?$AA@ 0000000180099400     otvalid.obj
 0002:0001e410       ??_C@_0P@JMCDPPKK@BaseScriptList?$AA@ 0000000180099410     otvalid.obj
 0002:0001e420       ??_C@_0BJ@MBKMGFHH@?5?$CIBaseScriptCount?5?$DN?5?$CFd?$CJ?6?$AA@ 0000000180099420     otvalid.obj
 0002:0001e43c       ??_C@_04LBNBCLPC@Axis?$AA@ 000000018009943c     otvalid.obj
 0002:0001e448       ??_C@_0BH@DFMDHEOJ@validating?5BASE?5table?6?$AA@ 0000000180099448     otvalid.obj
 0002:0001e460       ??_C@_09MACMAMME@HorizAxis?$AA@ 0000000180099460     otvalid.obj
 0002:0001e470       ??_C@_08ODPNNALH@VertAxis?$AA@ 0000000180099470     otvalid.obj
 0002:0001e480       ??_C@_08HFDJHMPC@Coverage?$AA@ 0000000180099480     otvalid.obj
 0002:0001e490       ??_C@_0BE@DDIFEMEH@?5?$CIGlyphCount?5?$DN?5?$CFd?$CJ?6?$AA@ 0000000180099490     otvalid.obj
 0002:0001e4a8       ??_C@_0BE@JICFPEEP@?5?$CIRangeCount?5?$DN?5?$CFd?$CJ?6?$AA@ 00000001800994a8     otvalid.obj
 0002:0001e4c0       ??_C@_08OGFMJMG@ClassDef?$AA@ 00000001800994c0     otvalid.obj
 0002:0001e4d0       ??_C@_0BJ@EEAPCIBM@?5?$CIClassRangeCount?5?$DN?5?$CFd?$CJ?6?$AA@ 00000001800994d0     otvalid.obj
 0002:0001e4ec       ??_C@_06OIEJKIHP@Device?$AA@ 00000001800994ec     otvalid.obj
 0002:0001e4f4       ??_C@_06JCNKMBNA@Lookup?$AA@ 00000001800994f4     otvalid.obj
 0002:0001e500       ??_C@_0M@BICHOLH@?5?$CItype?5?$CFd?$CJ?6?$AA@ 0000000180099500     otvalid.obj
 0002:0001e510       ??_C@_0BH@KLHBMLOA@?5?$CISubTableCount?5?$DN?5?$CFd?$CJ?6?$AA@ 0000000180099510     otvalid.obj
 0002:0001e528       ??_C@_0L@BFCGPNCJ@LookupList?$AA@ 0000000180099528     otvalid.obj
 0002:0001e538       ??_C@_0BF@OLMFLMGB@?5?$CILookupCount?5?$DN?5?$CFd?$CJ?6?$AA@ 0000000180099538     otvalid.obj
 0002:0001e550       ??_C@_07HAEFGBDM@Feature?$AA@ 0000000180099550     otvalid.obj
 0002:0001e558       ??_C@_0M@OICKELEI@FeatureList?$AA@ 0000000180099558     otvalid.obj
 0002:0001e568       ??_C@_0BG@GFPNAJMM@?5?$CIFeatureCount?5?$DN?5?$CFd?$CJ?6?$AA@ 0000000180099568     otvalid.obj
 0002:0001e580       ??_C@_07FGEIKMLE@LangSys?$AA@ 0000000180099580     otvalid.obj
 0002:0001e588       ??_C@_0BJ@FHMEOHN@?5?$CIReqFeatureIndex?5?$DN?5?$CFd?$CJ?6?$AA@ 0000000180099588     otvalid.obj
 0002:0001e5a4       ??_C@_06CEFAHBNL@Script?$AA@ 00000001800995a4     otvalid.obj
 0002:0001e5b0       ??_C@_0BG@GNBOABDM@?5?$CILangSysCount?5?$DN?5?$CFd?$CJ?6?$AA@ 00000001800995b0     otvalid.obj
 0002:0001e5c8       ??_C@_0L@OEBHOCEA@ScriptList?$AA@ 00000001800995c8     otvalid.obj
 0002:0001e5d8       ??_C@_0BF@PIFEGDD@?5?$CIScriptCount?5?$DN?5?$CFd?$CJ?6?$AA@ 00000001800995d8     otvalid.obj
 0002:0001e5f0       ??_C@_0P@KODJAEOI@?5?$CICount?5?$DN?5?$CFd?$CJ?6?$AA@ 00000001800995f0     otvalid.obj
 0002:0001e600       ??_C@_0BA@GILHKMBB@?5?$CICount1?5?$DN?5?$CFd?$CJ?6?$AA@ 0000000180099600     otvalid.obj
 0002:0001e610       ??_C@_0BA@FBDKJANE@?5?$CICount2?5?$DN?5?$CFd?$CJ?6?$AA@ 0000000180099610     otvalid.obj
 0002:0001e620       ??_C@_0BI@HMKFADBO@?5?$CIBacktrackCount?5?$DN?5?$CFd?$CJ?6?$AA@ 0000000180099620     otvalid.obj
 0002:0001e638       ??_C@_0BE@FMCPNDBN@?5?$CIInputCount?5?$DN?5?$CFd?$CJ?6?$AA@ 0000000180099638     otvalid.obj
 0002:0001e650       ??_C@_0BI@HCOJHMPO@?5?$CILookaheadCount?5?$DN?5?$CFd?$CJ?6?$AA@ 0000000180099650     otvalid.obj
 0002:0001e668       ??_C@_0BH@PGADLMJN@?5?$CIClassSetCount?5?$DN?5?$CFd?$CJ?6?$AA@ 0000000180099668     otvalid.obj
 0002:0001e680       ??_C@_0BM@CCBCKIJE@?5?$CIChainClassSetCount?5?$DN?5?$CFd?$CJ?6?$AA@ 0000000180099680     otvalid.obj
 0002:0001e6a0       ??_C@_0BN@COCBDHAK@?5?$CIBacktrackGlyphCount?5?$DN?5?$CFd?$CJ?6?$AA@ 00000001800996a0     otvalid.obj
 0002:0001e6c0       ??_C@_0BJ@DGPDEOLH@?5?$CIInputGlyphCount?5?$DN?5?$CFd?$CJ?6?$AA@ 00000001800996c0     otvalid.obj
 0002:0001e6e0       ??_C@_0BN@NCKKBJDF@?5?$CILookaheadGlyphCount?5?$DN?5?$CFd?$CJ?6?$AA@ 00000001800996e0     otvalid.obj
 0002:0001e700       ??_C@_0BH@MPAKGCNB@validating?5GDEF?5table?6?$AA@ 0000000180099700     otvalid.obj
 0002:0001e718       ??_C@_0O@MBLDHCJ@GlyphClassDef?$AA@ 0000000180099718     otvalid.obj
 0002:0001e728       ??_C@_0BB@PBPPDHAE@AttachListOffset?$AA@ 0000000180099728     otvalid.obj
 0002:0001e740       ??_C@_0L@FFCCCDFH@AttachList?$AA@ 0000000180099740     otvalid.obj
 0002:0001e750       ??_C@_0M@GLEIPMJL@AttachPoint?$AA@ 0000000180099750     otvalid.obj
 0002:0001e760       ??_C@_0BD@BBKGFMJD@LigCaretListOffset?$AA@ 0000000180099760     otvalid.obj
 0002:0001e778       ??_C@_0N@EELMLAAJ@LigCaretList?$AA@ 0000000180099778     otvalid.obj
 0002:0001e788       ??_C@_08BJIBEMI@LigGlyph?$AA@ 0000000180099788     otvalid.obj
 0002:0001e798       ??_C@_0L@POELCHPC@CaretValue?$AA@ 0000000180099798     otvalid.obj
 0002:0001e7a8       ??_C@_0BD@NBLDPACM@MarkAttachClassDef?$AA@ 00000001800997a8     otvalid.obj
 0002:0001e7c0       ??_C@_0O@MFADEKCF@anchor_offset?$AA@ 00000001800997c0     otvalid.obj
 0002:0001e7d0       ??_C@_0M@CIJCNNBN@ValueRecord?$AA@ 00000001800997d0     otvalid.obj
 0002:0001e7e0       ??_C@_0BD@BJNGBOKL@?5?$CIformat?50b?$CF08lx?$CJ?6?$AA@ 00000001800997e0     otvalid.obj
 0002:0001e7f4       ??_C@_06CHPEJBOD@device?$AA@ 00000001800997f4     otvalid.obj
 0002:0001e7fc       ??_C@_06MMJDHFHO@Anchor?$AA@ 00000001800997fc     otvalid.obj
 0002:0001e808       ??_C@_0N@MGLMGLJM@XDeviceTable?$AA@ 0000000180099808     otvalid.obj
 0002:0001e818       ??_C@_0N@BLCKLCBJ@YDeviceTable?$AA@ 0000000180099818     otvalid.obj
 0002:0001e828       ??_C@_09GKCFGBFF@MarkArray?$AA@ 0000000180099828     otvalid.obj
 0002:0001e838       ??_C@_0BD@MGHPDDB@?5?$CIMarkCount?5?$DN?5?$CFd?$CJ?6?$AA@ 0000000180099838     otvalid.obj
 0002:0001e850       ??_C@_09JHJGMDEJ@SinglePos?$AA@ 0000000180099850     otvalid.obj
 0002:0001e860       ??_C@_0BE@PIMJCIPE@?5?$CIValueCount?5?$DN?5?$CFd?$CJ?6?$AA@ 0000000180099860     otvalid.obj
 0002:0001e878       ??_C@_07JCCEGMEJ@PairSet?$AA@ 0000000180099878     otvalid.obj
 0002:0001e880       ??_C@_0BI@NJAGMLBI@?5?$CIPairValueCount?5?$DN?5?$CFd?$CJ?6?$AA@ 0000000180099880     otvalid.obj
 0002:0001e898       ??_C@_07MCEHNALG@PairPos?$AA@ 0000000180099898     otvalid.obj
 0002:0001e8a0       ??_C@_0BG@DIGFHEAM@?5?$CIPairSetCount?5?$DN?5?$CFd?$CJ?6?$AA@ 00000001800998a0     otvalid.obj
 0002:0001e8b8       ??_C@_0BF@IFDEPIGC@?5?$CIClassCount1?5?$DN?5?$CFd?$CJ?6?$AA@ 00000001800998b8     otvalid.obj
 0002:0001e8d0       ??_C@_0BF@LMLJMEKH@?5?$CIClassCount2?5?$DN?5?$CFd?$CJ?6?$AA@ 00000001800998d0     otvalid.obj
 0002:0001e8e8       ??_C@_0L@CJCLLEFM@CursivePos?$AA@ 00000001800998e8     otvalid.obj
 0002:0001e8f8       ??_C@_0BI@BPFEMEPK@?5?$CIEntryExitCount?5?$DN?5?$CFd?$CJ?6?$AA@ 00000001800998f8     otvalid.obj
 0002:0001e910       ??_C@_0M@BCKAFFLL@EntryAnchor?$AA@ 0000000180099910     otvalid.obj
 0002:0001e920       ??_C@_0L@KACDMDLI@ExitAnchor?$AA@ 0000000180099920     otvalid.obj
 0002:0001e930       ??_C@_0M@IBLPCALD@MarkBasePos?$AA@ 0000000180099930     otvalid.obj
 0002:0001e940       ??_C@_0BD@HCDIKBJI@MarkBasePosFormat1?$AA@ 0000000180099940     otvalid.obj
 0002:0001e958       ??_C@_09HLLEBBL@BaseArray?$AA@ 0000000180099958     otvalid.obj
 0002:0001e968       ??_C@_0L@OPIDGBED@MarkLigPos?$AA@ 0000000180099968     otvalid.obj
 0002:0001e978       ??_C@_0BC@GNGKJHDP@MarkLigPosFormat1?$AA@ 0000000180099978     otvalid.obj
 0002:0001e990       ??_C@_0O@ECFLMLCD@LigatureArray?$AA@ 0000000180099990     otvalid.obj
 0002:0001e9a0       ??_C@_0P@EHKJPLAN@LigatureAttach?$AA@ 00000001800999a0     otvalid.obj
 0002:0001e9b0       ??_C@_0M@CMPDFPNL@MarkMarkPos?$AA@ 00000001800999b0     otvalid.obj
 0002:0001e9c0       ??_C@_0BD@BCBHGIJO@MarkMarkPosFormat1?$AA@ 00000001800999c0     otvalid.obj
 0002:0001e9d8       ??_C@_0L@OKGBPHKJ@Mark2Array?$AA@ 00000001800999d8     otvalid.obj
 0002:0001e9e8       ??_C@_0L@PJLMKIDH@ContextPos?$AA@ 00000001800999e8     otvalid.obj
 0002:0001e9f8       ??_C@_0BC@BFKJALGP@ContextPosFormat1?$AA@ 00000001800999f8     otvalid.obj
 0002:0001ea10       ??_C@_0L@FOEEBKIE@PosRuleSet?$AA@ 0000000180099a10     otvalid.obj
 0002:0001ea20       ??_C@_07HIMGPBJA@PosRule?$AA@ 0000000180099a20     otvalid.obj
 0002:0001ea28       ??_C@_0BC@DOIEFIKM@ContextPosFormat2?$AA@ 0000000180099a28     otvalid.obj
 0002:0001ea40       ??_C@_0M@MEKKACJL@PosClassSet?$AA@ 0000000180099a40     otvalid.obj
 0002:0001ea50       ??_C@_0N@NPPDML@PosClassRule?$AA@ 0000000180099a50     otvalid.obj
 0002:0001ea60       ??_C@_0BC@CHJPGJON@ContextPosFormat3?$AA@ 0000000180099a60     otvalid.obj
 0002:0001ea78       ??_C@_0BA@KNFGJIBN@ChainContextPos?$AA@ 0000000180099a78     otvalid.obj
 0002:0001ea88       ??_C@_0BH@FMBFCNJL@ChainContextPosFormat1?$AA@ 0000000180099a88     otvalid.obj
 0002:0001eaa0       ??_C@_0BA@KKOCKKO@ChainPosRuleSet?$AA@ 0000000180099aa0     otvalid.obj
 0002:0001eab0       ??_C@_0N@BEIALDJM@ChainPosRule?$AA@ 0000000180099ab0     otvalid.obj
 0002:0001eac0       ??_C@_0BH@HHDIHOFI@ChainContextPosFormat2?$AA@ 0000000180099ac0     otvalid.obj
 0002:0001ead8       ??_C@_0BB@BPEFCBHN@ChainPosClassSet?$AA@ 0000000180099ad8     otvalid.obj
 0002:0001eaf0       ??_C@_0BC@EJGNFLKF@ChainPosClassRule?$AA@ 0000000180099af0     otvalid.obj
 0002:0001eb08       ??_C@_0BH@GOCDEPBJ@ChainContextPosFormat3?$AA@ 0000000180099b08     otvalid.obj
 0002:0001eb20       ??_C@_0N@PADOJKNA@ExtensionPos?$AA@ 0000000180099b20     otvalid.obj
 0002:0001eb30       ??_C@_0BH@CAFAECGP@validating?5GPOS?5table?6?$AA@ 0000000180099b30     otvalid.obj
 0002:0001eb48       ??_C@_0M@HKFDFHFM@SingleSubst?$AA@ 0000000180099b48     otvalid.obj
 0002:0001eb58       ??_C@_0O@KIAHLELB@MultipleSubst?$AA@ 0000000180099b58     otvalid.obj
 0002:0001eb68       ??_C@_0BF@JONNEHIF@MultipleSubstFormat1?$AA@ 0000000180099b68     otvalid.obj
 0002:0001eb80       ??_C@_08DOCONEG@Sequence?$AA@ 0000000180099b80     otvalid.obj
 0002:0001eb90       ??_C@_0P@NDLHLJCI@AlternateSubst?$AA@ 0000000180099b90     otvalid.obj
 0002:0001eba0       ??_C@_0BG@PEOKEIDN@AlternateSubstFormat1?$AA@ 0000000180099ba0     otvalid.obj
 0002:0001ebb8       ??_C@_0N@OPJOICIL@AlternateSet?$AA@ 0000000180099bb8     otvalid.obj
 0002:0001ebc8       ??_C@_0BD@FEKBKGFP@?5?$CICompCount?5?$DN?5?$CFd?$CJ?6?$AA@ 0000000180099bc8     otvalid.obj
 0002:0001ebe0       ??_C@_0O@EEHAOKGP@LigatureSubst?$AA@ 0000000180099be0     otvalid.obj
 0002:0001ebf0       ??_C@_0BF@IEPOJEEF@LigatureSubstFormat1?$AA@ 0000000180099bf0     otvalid.obj
 0002:0001ec08       ??_C@_0M@LPHMMANG@LigatureSet?$AA@ 0000000180099c08     otvalid.obj
 0002:0001ec18       ??_C@_08HMABDLDL@Ligature?$AA@ 0000000180099c18     otvalid.obj
 0002:0001ec28       ??_C@_0N@BBIPNFNO@ContextSubst?$AA@ 0000000180099c28     otvalid.obj
 0002:0001ec38       ??_C@_0BE@MBGHFNDF@ContextSubstFormat1?$AA@ 0000000180099c38     otvalid.obj
 0002:0001ec50       ??_C@_0L@EMJBDLJG@SubRuleSet?$AA@ 0000000180099c50     otvalid.obj
 0002:0001ec60       ??_C@_07PNGNOEMN@SubRule?$AA@ 0000000180099c60     otvalid.obj
 0002:0001ec68       ??_C@_0BE@OKEKAOPG@ContextSubstFormat2?$AA@ 0000000180099c68     otvalid.obj
 0002:0001ec80       ??_C@_0M@DHABKGPC@SubClassSet?$AA@ 0000000180099c80     otvalid.obj
 0002:0001ec90       ??_C@_0N@DEECIBJD@SubClassRule?$AA@ 0000000180099c90     otvalid.obj
 0002:0001eca0       ??_C@_0BE@PDFBDPLH@ContextSubstFormat3?$AA@ 0000000180099ca0     otvalid.obj
 0002:0001ecb8       ??_C@_0BC@FIDNHNLA@ChainContextSubst?$AA@ 0000000180099cb8     otvalid.obj
 0002:0001ecd0       ??_C@_0BJ@GDLKLFMN@ChainContextSubstFormat1?$AA@ 0000000180099cd0     otvalid.obj
 0002:0001ecf0       ??_C@_0BA@BIHLALLM@ChainSubRuleSet?$AA@ 0000000180099cf0     otvalid.obj
 0002:0001ed00       ??_C@_0N@JBCLKGMB@ChainSubRule?$AA@ 0000000180099d00     otvalid.obj
 0002:0001ed10       ??_C@_0BJ@EIJHOGAO@ChainContextSubstFormat2?$AA@ 0000000180099d10     otvalid.obj
 0002:0001ed30       ??_C@_0BB@OMOOIFBE@ChainSubClassSet?$AA@ 0000000180099d30     otvalid.obj
 0002:0001ed48       ??_C@_0BC@HNPACJPN@ChainSubClassRule?$AA@ 0000000180099d48     otvalid.obj
 0002:0001ed60       ??_C@_0BJ@FBIMNHEP@ChainContextSubstFormat3?$AA@ 0000000180099d60     otvalid.obj
 0002:0001ed80       ??_C@_0P@MIGHOIPH@ExtensionSubst?$AA@ 0000000180099d80     otvalid.obj
 0002:0001ed90       ??_C@_0BI@HNGGLFBK@ReverseChainSingleSubst?$AA@ 0000000180099d90     otvalid.obj
 0002:0001eda8       ??_C@_0BH@DCIFGDHN@validating?5GSUB?5table?6?$AA@ 0000000180099da8     otvalid.obj
 0002:0001edc0       ??_C@_0BE@HGIHBMCK@JstfPriority?5table?6?$AA@ 0000000180099dc0     otvalid.obj
 0002:0001edd8       ??_C@_0BE@FPEOFGKE@ShrinkageEnableGSUB?$AA@ 0000000180099dd8     otvalid.obj
 0002:0001edf0       ??_C@_0BF@NIPHBIGL@ShrinkageDisableGSUB?$AA@ 0000000180099df0     otvalid.obj
 0002:0001ee08       ??_C@_0BE@PJDPMPM@ShrinkageEnableGPOS?$AA@ 0000000180099e08     otvalid.obj
 0002:0001ee20       ??_C@_0BF@IICKLCDD@ShrinkageDisableGPOS?$AA@ 0000000180099e20     otvalid.obj
 0002:0001ee38       ??_C@_0BB@NEEPCHIB@ShrinkageJstfMax?$AA@ 0000000180099e38     otvalid.obj
 0002:0001ee50       ??_C@_07LOEMCLDG@JstfMax?$AA@ 0000000180099e50     otvalid.obj
 0002:0001ee58       ??_C@_0L@PGGDOLFH@JstfLookup?$AA@ 0000000180099e58     otvalid.obj
 0002:0001ee68       ??_C@_0BE@CAKOLFBH@ExtensionEnableGSUB?$AA@ 0000000180099e68     otvalid.obj
 0002:0001ee80       ??_C@_0BF@IKOABKLO@ExtensionDisableGSUB?$AA@ 0000000180099e80     otvalid.obj
 0002:0001ee98       ??_C@_0BE@HAHDBPEP@ExtensionEnableGPOS?$AA@ 0000000180099e98     otvalid.obj
 0002:0001eeb0       ??_C@_0BF@NKDNLAOG@ExtensionDisableGPOS?$AA@ 0000000180099eb0     otvalid.obj
 0002:0001eec8       ??_C@_0BB@KLFHNGNL@ExtensionJstfMax?$AA@ 0000000180099ec8     otvalid.obj
 0002:0001eee0       ??_C@_0L@EAOJFLFM@JstfScript?$AA@ 0000000180099ee0     otvalid.obj
 0002:0001eef0       ??_C@_0BK@DMEPHICO@?5?$CIJstfLangSysCount?5?$DN?5?$CFd?$CJ?6?$AA@ 0000000180099ef0     otvalid.obj
 0002:0001ef10       ??_C@_08ELBMBFHF@ExtGlyph?$AA@ 0000000180099f10     otvalid.obj
 0002:0001ef20       ??_C@_0O@IBEGHNHL@ExtenderGlyph?$AA@ 0000000180099f20     otvalid.obj
 0002:0001ef30       ??_C@_0P@GPBJDMEM@DefJstfLangSys?$AA@ 0000000180099f30     otvalid.obj
 0002:0001ef40       ??_C@_0M@CFPAADBN@JstfLangSys?$AA@ 0000000180099f40     otvalid.obj
 0002:0001ef50       ??_C@_0N@KFBNCCIF@JstfPriority?$AA@ 0000000180099f50     otvalid.obj
 0002:0001ef60       ??_C@_0BH@BOAEFIKB@validating?5JSTF?5table?6?$AA@ 0000000180099f60     otvalid.obj
 0002:0001ef78       ??_C@_0BJ@IAPMGOAC@?5?$CIJstfScriptCount?5?$DN?5?$CFd?$CJ?6?$AA@ 0000000180099f78     otvalid.obj
 0002:0001ef98       ??_C@_0O@JAHNDOPF@MathConstants?$AA@ 0000000180099f98     otvalid.obj
 0002:0001efa8       ??_C@_0BC@KKGBJGEA@DeviceTableOffset?$AA@ 0000000180099fa8     otvalid.obj
 0002:0001efc0       ??_C@_0BK@DILFDAFN@MathItalicsCorrectionInfo?$AA@ 0000000180099fc0     otvalid.obj
 0002:0001efe0       ??_C@_0BI@HGLKFHAI@MathTopAccentAttachment?$AA@ 0000000180099fe0     otvalid.obj
 0002:0001eff8       ??_C@_0N@JIPGOLOF@MathKernInfo?$AA@ 0000000180099ff8     otvalid.obj
 0002:0001f008       ??_C@_0P@KMAIJLPA@MKRecordOffset?$AA@ 000000018009a008     otvalid.obj
 0002:0001f018       ??_C@_0O@JLPNAMID@MathGlyphInfo?$AA@ 000000018009a018     otvalid.obj
 0002:0001f028       ??_C@_0BG@GDBIFJDD@ExtendedShapeCoverage?$AA@ 000000018009a028     otvalid.obj
 0002:0001f040       ??_C@_0O@DKLKLMFJ@GlyphAssembly?$AA@ 000000018009a040     otvalid.obj
 0002:0001f050       ??_C@_0N@FEFCDOAH@MathVariants?$AA@ 000000018009a050     otvalid.obj
 0002:0001f060       ??_C@_09MELAPGCF@VCoverage?$AA@ 000000018009a060     otvalid.obj
 0002:0001f070       ??_C@_09PNNHEHHO@HCoverage?$AA@ 000000018009a070     otvalid.obj
 0002:0001f07c       ??_C@_06GEMKPBPA@Offset?$AA@ 000000018009a07c     otvalid.obj
 0002:0001f088       ??_C@_0BH@FEMEBHLG@validating?5MATH?5table?6?$AA@ 000000018009a088     otvalid.obj
 0002:0001f0a0       ??_C@_0DK@CGBDLOMC@otv_validate?3?5Invalid?5glyphs?5ind@ 000000018009a0a0     otvalid.obj
 0002:0001f0e0       ??_C@_0CE@CPGKLFJK@are?5not?5handled?5by?5OpenType?5tabl@ 000000018009a0e0     otvalid.obj
 0002:0001f104       ??_C@_03MBEJPEFL@PCF?$AA@  000000018009a104     pcf.obj
 0002:0001f108       ??_C@_05PNMAPKLD@accel?$AA@ 000000018009a108     pcf.obj
 0002:0001f110       ??_C@_05FLNDGCKL@names?$AA@ 000000018009a110     pcf.obj
 0002:0001f118       ??_C@_06HHIOIDAF@swidth?$AA@ 000000018009a118     pcf.obj
 0002:0001f120       ??_C@_03NONKPJJM@enc?$AA@  000000018009a120     pcf.obj
 0002:0001f124       ??_C@_06ELDAEEGH@imtrcs?$AA@ 000000018009a124     pcf.obj
 0002:0001f12c       ??_C@_04EDIAEBHE@bmps?$AA@ 000000018009a12c     pcf.obj
 0002:0001f134       ??_C@_05HJLADDIM@mtrcs?$AA@ 000000018009a134     pcf.obj
 0002:0001f13c       ??_C@_04DHMFFPCA@accl?$AA@ 000000018009a13c     pcf.obj
 0002:0001f144       ??_C@_04GNINHFNB@prop?$AA@ 000000018009a144     pcf.obj
 0002:0001f14c       ??_C@_03MMLCDJCH@pcf?$AA@  000000018009a14c     pcf.obj
 0002:0001f150       ??_C@_0EA@PEJAGJKJ@m?3?2svn?2?4private?2mini?2umodsys?2dep@ 000000018009a150     pcf.obj
 0002:0001f190       ??_C@_01OGPIMHDM@?$DP?$AA@ 000000018009a190     pcf.obj
 0002:0001f198       ??_C@_0P@HCJPDACA@pcf_read_TOC?3?6?$AA@ 000000018009a198     pcf.obj
 0002:0001f1a8       ??_C@_0BJ@GJLGODPG@?5?5number?5of?5tables?3?5?$CFld?6?$AA@ 000000018009a1a8     pcf.obj
 0002:0001f1d0       ??_C@_0EC@ELCFBNEH@?5?5?$CFd?3?5type?$DN?$CFs?0?5format?$DN0x?$CFX?0?5size@ 000000018009a1d0     pcf.obj
 0002:0001f218       ??_C@_0BF@BMLMFMIP@pcf_get_properties?3?6?$AA@ 000000018009a218     pcf.obj
 0002:0001f230       ??_C@_0BA@OLPHMDDF@?5?5format?5?$DN?5?$CFld?6?$AA@ 000000018009a230     pcf.obj
 0002:0001f240       ??_C@_0CC@GJMPFJH@?5?5nprop?5?$DN?5?$CFd?5?$CItruncate?5?$CFd?5props?$CJ@ 000000018009a240     pcf.obj
 0002:0001f268       ??_C@_0BF@GDNOIGOI@?5?5string_size?5?$DN?5?$CFld?6?$AA@ 000000018009a268     pcf.obj
 0002:0001f280       ??_C@_05GMKCCDBC@?5?5?$CFs?3?$AA@ 000000018009a280     pcf.obj
 0002:0001f288       ??_C@_06BCJMABKO@?5?$GA?$CFs?8?6?$AA@ 000000018009a288     pcf.obj
 0002:0001f290       ??_C@_04NKMBPDJM@?5?$CFd?6?$AA@ 000000018009a290     pcf.obj
 0002:0001f298       ??_C@_0BC@MNAEHFID@pcf_get_metrics?3?6?$AA@ 000000018009a298     pcf.obj
 0002:0001f2b0       ??_C@_0BJ@OBKLIAMH@?5?5number?5of?5metrics?3?5?$CFd?6?$AA@ 000000018009a2b0     pcf.obj
 0002:0001f2d0       ??_C@_0EG@BDDHEMBN@?5?5idx?5?$CFd?3?5width?$DN?$CFd?0?5lsb?$DN?$CFd?0?5rsb?$DN@ 000000018009a2d0     pcf.obj
 0002:0001f318       ??_C@_0BC@IALOFOAC@pcf_get_bitmaps?3?6?$AA@ 000000018009a318     pcf.obj
 0002:0001f330       ??_C@_0BJ@FMJIFGMG@?5?5number?5of?5bitmaps?3?5?$CFd?6?$AA@ 000000018009a330     pcf.obj
 0002:0001f350       ??_C@_0CB@PAKFNJJL@?5?5bitmap?5?$CFd?3?5offset?5?$CFld?5?$CI0x?$CFlX?$CJ?6@ 000000018009a350     pcf.obj
 0002:0001f378       ??_C@_0CE@MMOPKGHL@?5?5padding?5?$CFd?5implies?5a?5size?5of?5?$CF@ 000000018009a378     pcf.obj
 0002:0001f3a0       ??_C@_0CB@LJNKNPOK@?5?5?$CFd?5bitmaps?0?5padding?5index?5?$CFld?6@ 000000018009a3a0     pcf.obj
 0002:0001f3c8       ??_C@_0BE@BJJPBJHC@?5?5bitmap?5size?5?$DN?5?$CFd?6?$AA@ 000000018009a3c8     pcf.obj
 0002:0001f3e0       ??_C@_0DM@JHCKNBBM@pcf_get_bitmaps?3?5invalid?5offset?5@ 000000018009a3e0     pcf.obj
 0002:0001f420       ??_C@_0BE@ECLFPBAD@pdf_get_encodings?3?6?$AA@ 000000018009a420     pcf.obj
 0002:0001f438       ??_C@_0DE@OCLLIDHM@?5?5firstCol?5?$CFd?0?5lastCol?5?$CFd?0?5first@ 000000018009a438     pcf.obj
 0002:0001f470       ??_C@_0BM@NLLOBMOO@?5?5code?5?$CFd?5?$CI0x?$CF04X?$CJ?3?5idx?5?$CFd?6?$AA@ 000000018009a470     pcf.obj
 0002:0001f490       ??_C@_0CO@LGKELEDN@pcf_cmap_char_next?3?5charcode?50x?$CF@ 000000018009a490     pcf.obj
 0002:0001f4c0       ??_C@_0M@DBPDJOAN@PCF?5driver?6?$AA@ 000000018009a4c0     pcf.obj
 0002:0001f4d0       ??_C@_0BC@GAGKIEMM@?5?5not?5a?5PCF?5file?6?$AA@ 000000018009a4d0     pcf.obj
 0002:0001f4f0       ??_C@_0EB@PGGJMBKL@m?3?2svn?2?4private?2mini?2umodsys?2dep@ 000000018009a4f0     pcf.obj
 0002:0001f538       ??_C@_0BC@EGLAHPIJ@load_glyph?5?$CFd?5?9?9?9?$AA@ 000000018009a538     pcf.obj
 0002:0001f550       ??_C@_0CN@MCMMALEK@BIT_ORDER?5?$CFd?5?$DL?5BYTE_ORDER?5?$CFd?5?$DL?5G@ 000000018009a550     pcf.obj
 0002:0001f580       ??_C@_08PAMFFENL@?5?9?9?9?5ok?6?$AA@ 000000018009a580     pcf.obj
 0002:0001f590       ??_C@_0BH@DKMPHCLM@pcf_get_bdf_property?3?5?$AA@ 000000018009a590     pcf.obj
 0002:0001f5a8       ??_C@_0CF@JIJNIFLI@too?5large?5integer?50x?$CFx?5is?5trunca@ 000000018009a5a8     pcf.obj
 0002:0001f5d0       ??_C@_03OJCMOBOF@PFR?$AA@  000000018009a5d0     pfr.obj
 0002:0001f5d8       ??_C@_0M@BAGPBJNL@pfr?9metrics?$AA@ 000000018009a5d8     pfr.obj
 0002:0001f5e8       ??_C@_0DC@BKFOBILN@pfr_extra_items_parse?3?5invalid?5e@ 000000018009a5e8     pfr.obj
 0002:0001f620       ??_C@_0EA@MCLNLCFC@m?3?2svn?2?4private?2mini?2umodsys?2dep@ 000000018009a620     pfr.obj
 0002:0001f660       ??_C@_0CP@EHKGCINN@pfr_log_font_load?3?5invalid?5logic@ 000000018009a660     pfr.obj
 0002:0001f690       ??_C@_0DM@EPPBEFLF@pfr_extra_item_load_bitmap_info?3@ 000000018009a690     pfr.obj
 0002:0001f6d0       ??_C@_0DJ@FFMDOKAE@pfr_exta_item_load_stem_snaps?3?5i@ 000000018009a6d0     pfr.obj
 0002:0001f710       ??_C@_0CF@FCDPLIJA@pfr_extra_item_load_kerning_pair@ 000000018009a710     pfr.obj
 0002:0001f740       ??_C@_0EA@IIPIOAFH@pfr_extra_item_load_kerning_pair@ 000000018009a740     pfr.obj
 0002:0001f780       ??_C@_0DA@DCDGMNEM@pfr_phy_font_load?3?5invalid?5physi@ 000000018009a780     pfr.obj
 0002:0001f7b0       ??_C@_0EB@NJPEPLAP@m?3?2svn?2?4private?2mini?2umodsys?2dep@ 000000018009a7b0     pfr.obj
 0002:0001f7f8       ??_C@_0CH@COHDKJKI@pfr_glyph_line_to?3?5invalid?5glyph@ 000000018009a7f8     pfr.obj
 0002:0001f820       ??_C@_0M@BKIKKNMJ@?9?5end?5glyph?$AA@ 000000018009a820     pfr.obj
 0002:0001f830       ??_C@_0P@KOBPEOJK@?9?5general?5line?$AA@ 000000018009a830     pfr.obj
 0002:0001f840       ??_C@_0BB@FDOBGPCE@?9?5move?5to?5inside?$AA@ 000000018009a840     pfr.obj
 0002:0001f858       ??_C@_0BC@EDJBFGJO@?9?5move?5to?5outside?$AA@ 000000018009a858     pfr.obj
 0002:0001f870       ??_C@_0BL@LGNGKDAN@?9?5horizontal?5line?5to?5cx?4?$CFd?$AA@ 000000018009a870     pfr.obj
 0002:0001f890       ??_C@_0BJ@DBOJNGOL@?9?5vertical?5line?5to?5cy?4?$CFd?$AA@ 000000018009a890     pfr.obj
 0002:0001f8b0       ??_C@_0M@MLLIFLFA@?9?5hv?5curve?5?$AA@ 000000018009a8b0     pfr.obj
 0002:0001f8c0       ??_C@_0L@OPLFEGIC@?9?5vh?5curve?$AA@ 000000018009a8c0     pfr.obj
 0002:0001f8d0       ??_C@_0BA@FIBHMHKO@?9?5general?5curve?$AA@ 000000018009a8d0     pfr.obj
 0002:0001f8e0       ??_C@_06GHHMOFJP@?5cx?$CD?$CFd?$AA@ 000000018009a8e0     pfr.obj
 0002:0001f8e8       ??_C@_05PPMJACMB@?5x?4?$CFd?$AA@ 000000018009a8e8     pfr.obj
 0002:0001f8f0       ??_C@_06IIBDANPK@?5dx?4?$CFd?$AA@ 000000018009a8f0     pfr.obj
 0002:0001f8f8       ??_C@_02LLHJFGPH@?5?$HM?$AA@ 000000018009a8f8     pfr.obj
 0002:0001f8fc       ??_C@_06FKBMMMCP@?5cy?$CD?$CFd?$AA@ 000000018009a8fc     pfr.obj
 0002:0001f904       ??_C@_05MCKJCLHB@?5y?4?$CFd?$AA@ 000000018009a904     pfr.obj
 0002:0001f90c       ??_C@_06LFHDCEEK@?5dy?4?$CFd?$AA@ 000000018009a90c     pfr.obj
 0002:0001f914       ??_C@_02BINJDKOC@?5?9?$AA@ 000000018009a914     pfr.obj
 0002:0001f918       ??_C@_0CL@HFCPKENB@pfr_glyph_load_simple?3?5invalid?5g@ 000000018009a918     pfr.obj
 0002:0001f948       ??_C@_0DO@ELFMHDGC@pfr_glyph_load_compound?3?5too?5man@ 000000018009a948     pfr.obj
 0002:0001f988       ??_C@_0CN@KOEFLHAO@pfr_glyph_load_compound?3?5invalid@ 000000018009a988     pfr.obj
 0002:0001f9b8       ??_C@_0CP@HHCGFANJ@compound?5glyph?5with?5?$CFd?5elements?5@ 000000018009a9b8     pfr.obj
 0002:0001f9e8       ??_C@_0O@EIBPOBKF@subglyph?5?$CFd?3?6?$AA@ 000000018009a9e8     pfr.obj
 0002:0001f9f8       ??_C@_0CF@BKCBGEIA@end?5compound?5glyph?5with?5?$CFd?5eleme@ 000000018009a9f8     pfr.obj
 0002:0001fa20       ??_C@_0BL@KEPACAAP@simple?5glyph?5?$CIoffset?5?$CFlu?$CJ?6?$AA@ 000000018009aa20     pfr.obj
 0002:0001fa40       ??_C@_0EA@KGEGKDHI@m?3?2svn?2?4private?2mini?2umodsys?2dep@ 000000018009aa40     pfr.obj
 0002:0001fa80       ??_C@_0M@GOOBBDNN@PFR?5driver?6?$AA@ 000000018009aa80     pfr.obj
 0002:0001fa90       ??_C@_0BC@OKKBAKDO@?5?5not?5a?5PFR?5font?6?$AA@ 000000018009aa90     pfr.obj
 0002:0001fab0       ??_C@_0EA@PFNFOFCG@m?3?2svn?2?4private?2mini?2umodsys?2dep@ 000000018009aab0     pfr.obj
 0002:0001faf0       ??_C@_0CD@EFOCINCJ@pfr_face_init?3?5invalid?5face?5inde@ 000000018009aaf0     pfr.obj
 0002:0001fb18       ??_C@_0CM@HLIONOE@pfr_face_init?3?5font?5doesn?8t?5cont@ 000000018009ab18     pfr.obj
 0002:0001fb50       ??_C@_0EA@IPNMFBPF@m?3?2svn?2?4private?2mini?2umodsys?2dep@ 000000018009ab50     pfr.obj
 0002:0001fb90       ??_C@_0CN@KEFJHBGC@pfr_load_bitmap_metrics?3?5invalid@ 000000018009ab90     pfr.obj
 0002:0001fbc0       ??_C@_0CK@KKIDHNEI@pfr_read_bitmap_data?3?5invalid?5im@ 000000018009abc0     pfr.obj
 0002:0001fbf0       ??_C@_0BG@BLDLGPJM@pfr_slot_load_bitmap?3?$AA@ 000000018009abf0     pfr.obj
 0002:0001fc08       ??_C@_0CL@MPABOBKE@huge?5bitmap?5glyph?5?$CFdx?$CFd?5over?5FT_@ 000000018009ac08     pfr.obj
 0002:0001fc38       ??_C@_07MIHJBPO@XHeight?$AA@ 000000018009ac38     psaux.obj
 0002:0001fc40       ??_C@_0N@JPPBHHHF@WeightVector?$AA@ 000000018009ac40     psaux.obj
 0002:0001fc50       ??_C@_02CDEPIMF@WY?$AA@    000000018009ac50     psaux.obj
 0002:0001fc54       ??_C@_02BLCPMJIE@WX?$AA@   000000018009ac54     psaux.obj
 0002:0001fc58       ??_C@_03MGLBHOEC@W1Y?$AA@  000000018009ac58     psaux.obj
 0002:0001fc5c       ??_C@_03NPKKEPAD@W1X?$AA@  000000018009ac5c     psaux.obj
 0002:0001fc60       ??_C@_02KPBABJGK@W1?$AA@   000000018009ac60     psaux.obj
 0002:0001fc64       ??_C@_03MHHDBEHF@W0Y?$AA@  000000018009ac64     psaux.obj
 0002:0001fc68       ??_C@_03NOGICFDE@W0X?$AA@  000000018009ac68     psaux.obj
 0002:0001fc6c       ??_C@_02LGALCICL@W0?$AA@   000000018009ac6c     psaux.obj
 0002:0001fc70       ??_C@_01ELNMCGJD@W?$AA@    000000018009ac70     psaux.obj
 0002:0001fc78       ??_C@_07HFOFDFIM@VVector?$AA@ 000000018009ac78     psaux.obj
 0002:0001fc80       ??_C@_02IEGOIODN@VV?$AA@   000000018009ac80     psaux.obj
 0002:0001fc88       ??_C@_09DJCDMHFC@TrackKern?$AA@ 000000018009ac88     psaux.obj
 0002:0001fc98       ??_C@_0P@DELCCDBH@StartTrackKern?$AA@ 000000018009ac98     psaux.obj
 0002:0001fca8       ??_C@_0BA@GONDPLHF@StartKernPairs1?$AA@ 000000018009aca8     psaux.obj
 0002:0001fcb8       ??_C@_0BA@HHMIMKDE@StartKernPairs0?$AA@ 000000018009acb8     psaux.obj
 0002:0001fcc8       ??_C@_0P@OJCDJCKN@StartKernPairs?$AA@ 000000018009acc8     psaux.obj
 0002:0001fcd8       ??_C@_0O@GJEKPIHD@StartKernData?$AA@ 000000018009acd8     psaux.obj
 0002:0001fce8       ??_C@_0BB@KAEKNABH@StartFontMetrics?$AA@ 000000018009ace8     psaux.obj
 0002:0001fd00       ??_C@_0P@DNGHFPAA@StartDirection?$AA@ 000000018009ad00     psaux.obj
 0002:0001fd10       ??_C@_0BA@DGMAPPPC@StartComposites?$AA@ 000000018009ad10     psaux.obj
 0002:0001fd20       ??_C@_0BB@JDMDJAID@StartCharMetrics?$AA@ 000000018009ad20     psaux.obj
 0002:0001fd38       ??_C@_09JMBADFPL@StartAxis?$AA@ 000000018009ad38     psaux.obj
 0002:0001fd44       ??_C@_03LMDOAABO@PCC?$AA@  000000018009ad44     psaux.obj
 0002:0001fd48       ??_C@_01NANMIPIL@N?$AA@    000000018009ad48     psaux.obj
 0002:0001fd50       ??_C@_0M@PGHPLBFB@MetricsSets?$AA@ 000000018009ad50     psaux.obj
 0002:0001fd60       ??_C@_0O@NDBFHPJC@MappingScheme?$AA@ 000000018009ad60     psaux.obj
 0002:0001fd70       ??_C@_01OCOKONAJ@L?$AA@    000000018009ad70     psaux.obj
 0002:0001fd74       ??_C@_03JFGLDHHC@KPY?$AA@  000000018009ad74     psaux.obj
 0002:0001fd78       ??_C@_03IMHAAGDD@KPX?$AA@  000000018009ad78     psaux.obj
 0002:0001fd7c       ??_C@_03MGLCBEGC@KPH?$AA@  000000018009ad7c     psaux.obj
 0002:0001fd80       ??_C@_02MGMKBJJI@KP?$AA@   000000018009ad80     psaux.obj
 0002:0001fd88       ??_C@_08CHFNODLO@IsFixedV?$AA@ 000000018009ad88     psaux.obj
 0002:0001fd98       ??_C@_0N@LNIFJEBO@IsFixedPitch?$AA@ 000000018009ad98     psaux.obj
 0002:0001fda8       ??_C@_09OIFAOJEJ@IsCIDFont?$AA@ 000000018009ada8     psaux.obj
 0002:0001fdb8       ??_C@_0L@PAHDJIHN@IsBaseFont?$AA@ 000000018009adb8     psaux.obj
 0002:0001fdc8       ??_C@_07BNJNBMEL@EscChar?$AA@ 000000018009adc8     psaux.obj
 0002:0001fdd0       ??_C@_0N@FEBBJBLC@EndTrackKern?$AA@ 000000018009add0     psaux.obj
 0002:0001fde0       ??_C@_0N@IJIACAAI@EndKernPairs?$AA@ 000000018009ade0     psaux.obj
 0002:0001fdf0       ??_C@_0M@HKHGIIOM@EndKernData?$AA@ 000000018009adf0     psaux.obj
 0002:0001fe00       ??_C@_0P@FGFFCKLI@EndFontMetrics?$AA@ 000000018009ae00     psaux.obj
 0002:0001fe10       ??_C@_0N@FNMEONKF@EndDirection?$AA@ 000000018009ae10     psaux.obj
 0002:0001fe20       ??_C@_0O@JABMALCH@EndComposites?$AA@ 000000018009ae20     psaux.obj
 0002:0001fe30       ??_C@_0P@GFNMGKCM@EndCharMetrics?$AA@ 000000018009ae30     psaux.obj
 0002:0001fe40       ??_C@_07DLEALFPL@EndAxis?$AA@ 000000018009ae40     psaux.obj
 0002:0001fe48       ??_C@_0P@JNPLONMI@EncodingScheme?$AA@ 000000018009ae48     psaux.obj
 0002:0001fe58       ??_C@_09JMDLBBJN@Descender?$AA@ 000000018009ae58     psaux.obj
 0002:0001fe68       ??_C@_0L@EMODJLOD@Characters?$AA@ 000000018009ae68     psaux.obj
 0002:0001fe78       ??_C@_0N@LHPDLMAH@CharacterSet?$AA@ 000000018009ae78     psaux.obj
 0002:0001fe88       ??_C@_09CGMEAFLF@CharWidth?$AA@ 000000018009ae88     psaux.obj
 0002:0001fe98       ??_C@_09JOCJHGEG@CapHeight?$AA@ 000000018009ae98     psaux.obj
 0002:0001fea4       ??_C@_02EKMCNAHJ@CH?$AA@   000000018009aea4     psaux.obj
 0002:0001fea8       ??_C@_02KJDGAJLC@CC?$AA@   000000018009aea8     psaux.obj
 0002:0001feac       ??_C@_01GFHCPBMG@C?$AA@    000000018009aeac     psaux.obj
 0002:0001feb0       ??_C@_0BF@BEKHBPMN@BlendDesignPositions?$AA@ 000000018009aeb0     psaux.obj
 0002:0001fec8       ??_C@_0P@FPDIEJKK@BlendDesignMap?$AA@ 000000018009aec8     psaux.obj
 0002:0001fed8       ??_C@_0P@LEAACMFJ@BlendAxisTypes?$AA@ 000000018009aed8     psaux.obj
 0002:0001fee8       ??_C@_01HMGJMAIH@B?$AA@    000000018009aee8     psaux.obj
 0002:0001fef0       ??_C@_08KLONHBMG@AxisType?$AA@ 000000018009aef0     psaux.obj
 0002:0001ff00       ??_C@_09POOBGNPO@AxisLabel?$AA@ 000000018009af00     psaux.obj
 0002:0001ff10       ??_C@_08NBPEBJDA@Ascender?$AA@ 000000018009af10     psaux.obj
 0002:0001ff20       ??_C@_0BN@GELKHPDM@ps_table_add?3?5invalid?5index?6?$AA@ 000000018009af20     psaux.obj
 0002:0001ff40       ??_C@_0EB@JDMNDBOE@m?3?2svn?2?4private?2mini?2umodsys?2dep@ 000000018009af40     psaux.obj
 0002:0001ff88       ??_C@_0BO@EFNNKEBM@ps_table_add?3?5invalid?5length?6?$AA@ 000000018009af88     psaux.obj
 0002:0001ffa8       ??_C@_0CM@NJEEGKFJ@skip_string?3?5missing?5closing?5del@ 000000018009afa8     psaux.obj
 0002:0001ffd8       ??_C@_0DL@OAPJNHO@ps_parser_skip_PS_token?3?5unexpec@ 000000018009afd8     psaux.obj
 0002:00020020       ??_C@_0HM@CKKIDGNO@ps_parser_skip_PS_token?3?5current@ 000000018009b020     psaux.obj
 0002:000200a0       ??_C@_0GK@EBFPAJAB@ps_parser_load_field?3?5expected?5a@ 000000018009b0a0     psaux.obj
 0002:00020110       ??_C@_0CM@DDJHLJEN@ps_parser_load_field?3?5overwritin@ 000000018009b110     psaux.obj
 0002:00020140       ??_C@_0DO@LOOFCFNL@ps_parser_load_field?3?5expected?5f@ 000000018009b140     psaux.obj
 0002:00020180       ??_C@_05NIGAKFML@first?$AA@ 000000018009b180     psaux.obj
 0002:00020188       ??_C@_06BJCFNGJP@second?$AA@ 000000018009b188     psaux.obj
 0002:00020190       ??_C@_05GHAGIHBD@third?$AA@ 000000018009b190     psaux.obj
 0002:00020198       ??_C@_06HNIPMCFK@fourth?$AA@ 000000018009b198     psaux.obj
 0002:000201a0       ??_C@_0HL@OCNLIFCI@ps_parser_load_field?3?5expected?5?$CF@ 000000018009b1a0     psaux.obj
 0002:00020220       ??_C@_0DE@COKEPDPO@ps_parser_to_bytes?3?5Missing?5star@ 000000018009b220     psaux.obj
 0002:00020258       ??_C@_0DD@BGGGJIHK@ps_parser_to_bytes?3?5Missing?5clos@ 000000018009b258     psaux.obj
 0002:00020290       ??_C@_0DF@IFLONPMO@t1_builder_add_contour?3?5no?5outli@ 000000018009b290     psaux.obj
 0002:000202c8       ??_C@_0CG@POJNIAJI@t1operator_seac?3?5invalid?5nested?5@ 000000018009b2c8     psaux.obj
 0002:000202f0       ??_C@_0ED@GDGNFNEN@m?3?2svn?2?4private?2mini?2umodsys?2dep@ 000000018009b2f0     psaux.obj
 0002:00020338       ??_C@_0CC@NODANDOE@t1operator_seac?3?5unexpected?5seac@ 000000018009b338     psaux.obj
 0002:00020360       ??_C@_0DP@GFLBMBEI@t1operator_seac?3?5glyph?5names?5tab@ 000000018009b360     psaux.obj
 0002:000203a0       ??_C@_0DI@GBBODPEO@t1operator_seac?3?5invalid?5seac?5ch@ 000000018009b3a0     psaux.obj
 0002:000203d8       ??_C@_0BD@JJKNBGPI@?6Start?5charstring?6?$AA@ 000000018009b3d8     psaux.obj
 0002:000203ec       ??_C@_05CEFEJMLE@?5?$CI?$CFd?$CJ?$AA@ 000000018009b3ec     psaux.obj
 0002:000203f8       ??_C@_0DH@IGJNCNMJ@t1_decoder_parse_charstrings?3?5in@ 000000018009b3f8     psaux.obj
 0002:00020430       ??_C@_0DG@LNAJFAMA@t1_decoder_parse_charstrings?3?5in@ 000000018009b430     psaux.obj
 0002:00020468       ??_C@_0DJ@OLDOMFEO@t1_decoder_parse_charstrings?3?5un@ 000000018009b468     psaux.obj
 0002:000204a8       ??_C@_0DM@OMJDEAMG@t1_decoder_parse_charstrings?3?5no@ 000000018009b4a8     psaux.obj
 0002:000204e8       ??_C@_0DB@GEFAPPII@t1_decoder_parse_charstrings?3?5in@ 000000018009b4e8     psaux.obj
 0002:00020520       ??_C@_0CO@KOBFIAOA@t1_decoder_parse_charstrings?3?5st@ 000000018009b520     psaux.obj
 0002:00020550       ??_C@_0BA@EHADLMKP@?5callothersubr?6?$AA@ 000000018009b550     psaux.obj
 0002:00020560       ??_C@_0DD@EINJFADG@t1_decoder_parse_charstrings?3?5un@ 000000018009b560     psaux.obj
 0002:00020598       ??_C@_0DC@ICFCHEGP@t1_decoder_parse_charstrings?3?5mi@ 000000018009b598     psaux.obj
 0002:000205d0       ??_C@_0EE@MAABODPO@t1_decoder_parse_charstrings?3?5un@ 000000018009b5d0     psaux.obj
 0002:00020620       ??_C@_0EO@PEGLJDKI@t1_decoder_parse_charstrings?3?5in@ 000000018009b620     psaux.obj
 0002:00020670       ??_C@_0EH@GAEHKPOM@t1_decoder_parse_charstrings?3?5un@ 000000018009b670     psaux.obj
 0002:000206b8       ??_C@_0DJ@IFEMBGPG@t1_decoder_parse_charstrings?3?5in@ 000000018009b6b8     psaux.obj
 0002:00020700       ??_C@_0FF@LAKOBLEN@t1_decoder_parse_charstrings?3?5to@ 000000018009b700     psaux.obj
 0002:00020758       ??_C@_0BE@HHNHFCOF@BuildCharArray?5?$DN?5?$FL?5?$AA@ 000000018009b758     psaux.obj
 0002:0002076c       ??_C@_03JDANDILB@?$CFd?5?$AA@ 000000018009b76c     psaux.obj
 0002:00020770       ??_C@_05LCHEJIOL@?5hsbw?$AA@ 000000018009b770     psaux.obj
 0002:00020778       ??_C@_04KKLLNIOL@?5sbw?$AA@ 000000018009b778     psaux.obj
 0002:00020780       ??_C@_0L@JKIFLLMF@?5closepath?$AA@ 000000018009b780     psaux.obj
 0002:00020790       ??_C@_08GAIDNDAG@?5hlineto?$AA@ 000000018009b790     psaux.obj
 0002:000207a0       ??_C@_08EADNOHOM@?5hmoveto?$AA@ 000000018009b7a0     psaux.obj
 0002:000207b0       ??_C@_0L@DOEEGOLL@?5hvcurveto?$AA@ 000000018009b7b0     psaux.obj
 0002:000207c0       ??_C@_08INPIPOOF@?5rlineto?$AA@ 000000018009b7c0     psaux.obj
 0002:000207d0       ??_C@_08KNEGMKAP@?5rmoveto?$AA@ 000000018009b7d0     psaux.obj
 0002:000207e0       ??_C@_0L@FDCECOJG@?5rrcurveto?$AA@ 000000018009b7e0     psaux.obj
 0002:000207f0       ??_C@_0L@GDCBEGAD@?5vhcurveto?$AA@ 000000018009b7f0     psaux.obj
 0002:00020800       ??_C@_08JLCPABP@?5vlineto?$AA@ 000000018009b800     psaux.obj
 0002:00020810       ??_C@_08CJAMMEPF@?5vmoveto?$AA@ 000000018009b810     psaux.obj
 0002:0002081c       ??_C@_04HCDLGJGN@?5div?$AA@ 000000018009b81c     psaux.obj
 0002:00020828       ??_C@_0DD@OINDMPPL@t1_decoder_parse_charstrings?3?5in@ 000000018009b828     psaux.obj
 0002:00020860       ??_C@_0DF@HCNFGFJA@t1_decoder_parse_charstrings?3?5to@ 000000018009b860     psaux.obj
 0002:00020898       ??_C@_0DE@IHCGNKEN@t1_decoder_parse_charstrings?3?5in@ 000000018009b898     psaux.obj
 0002:000208cc       ??_C@_04PPJHHCJB@?5pop?$AA@ 000000018009b8cc     psaux.obj
 0002:000208d8       ??_C@_0DO@KNDLOCKM@t1_decoder_parse_charstrings?3?5no@ 000000018009b8d8     psaux.obj
 0002:00020918       ??_C@_07LMNNPBJN@?5return?$AA@ 000000018009b918     psaux.obj
 0002:00020920       ??_C@_0DB@HGEABPPN@t1_decoder_parse_charstrings?3?5un@ 000000018009b920     psaux.obj
 0002:00020958       ??_C@_0M@HGANHGIB@?5dotsection?$AA@ 000000018009b958     psaux.obj
 0002:00020964       ??_C@_06INOJCFNP@?5hstem?$AA@ 000000018009b964     psaux.obj
 0002:00020970       ??_C@_07OCIKEDFA@?5hstem3?$AA@ 000000018009b970     psaux.obj
 0002:00020978       ??_C@_06LEDFEGDE@?5vstem?$AA@ 000000018009b978     psaux.obj
 0002:00020980       ??_C@_07NFGLKEMD@?5vstem3?$AA@ 000000018009b980     psaux.obj
 0002:00020988       ??_C@_0BB@KDIDIPNA@?5setcurrentpoint?$AA@ 000000018009b988     psaux.obj
 0002:000209a0       ??_C@_0L@DHHACBCM@?5opcode_15?$AA@ 000000018009b9a0     psaux.obj
 0002:000209b0       ??_C@_0DD@BCBNJFPE@t1_decoder_parse_charstrings?3?5un@ 000000018009b9b0     psaux.obj
 0002:000209e8       ??_C@_09BOFBANME@?4?4end?4?4?6?6?$AA@ 000000018009b9e8     psaux.obj
 0002:000209f8       ??_C@_0DI@FLHHPBJB@t1_decoder_init?3?5the?5?$GApsnames?8?5m@ 000000018009b9f8     psaux.obj
 0002:00020a30       ??_C@_0EB@PGAKODCG@m?3?2svn?2?4private?2mini?2umodsys?2dep@ 000000018009ba30     psaux.obj
 0002:00020a80       ??_C@_0ED@IFOLGKBP@m?3?2svn?2?4private?2mini?2umodsys?2dep@ 000000018009ba80     psaux.obj
 0002:00020ac8       ??_C@_0BE@DDNPCMFO@?$CB?$CB?$CBINVALID?5BASE?3?$CB?$CB?$CB?$AA@ 000000018009bac8     psaux.obj
 0002:00020ae0       ??_C@_0DH@CPJKBLHK@ps_mask_table_merge?3?5ignoring?5in@ 000000018009bae0     pshinter.obj
 0002:00020b20       ??_C@_0EE@NFPENEPM@m?3?2svn?2?4private?2mini?2umodsys?2dep@ 000000018009bb20     pshinter.obj
 0002:00020b68       ??_C@_0CM@KHLDNAGM@ps_hints_stem?3?5invalid?5dimension@ 000000018009bb68     pshinter.obj
 0002:00020b98       ??_C@_0DK@GKNKPEKG@ps_hints_stem?3?5could?5not?5add?5ste@ 000000018009bb98     pshinter.obj
 0002:00020bd8       ??_C@_0DD@OKAAPPBD@ps_hints_stem?3?5called?5with?5inval@ 000000018009bbd8     pshinter.obj
 0002:00020c10       ??_C@_0CP@FMBBOBED@ps_hints_t1stem3?3?5invalid?5dimens@ 000000018009bc10     pshinter.obj
 0002:00020c40       ??_C@_0DB@GCDGEBGC@ps_hints_t1stem3?3?5called?5with?5in@ 000000018009bc40     pshinter.obj
 0002:00020c78       ??_C@_0DI@DMIKENBL@ps_hints_t1stem3?3?5could?5not?5add?5@ 000000018009bc78     pshinter.obj
 0002:00020cb0       ??_C@_0EC@MEDNBIJC@ps_hints_t2mask?3?5called?5with?5inv@ 000000018009bcb0     pshinter.obj
 0002:00020d00       ??_C@_0EF@HAEHOBPD@ps_hints_t2counter?3?5called?5with?5@ 000000018009bd00     pshinter.obj
 0002:00020d48       ??_C@_0CO@JKPANHOK@psh_hint_table_record?3?5invalid?5h@ 000000018009bd48     pshinter.obj
 0002:00020d78       ??_C@_0DF@NFHOHEHE@psh_hint_table_record?3?5too?5many?5@ 000000018009bd78     pshinter.obj
 0002:00020db0       ??_C@_0DD@DBNEHGNP@psh_hint_table_init?3?5missing?1inc@ 000000018009bdb0     pshinter.obj
 0002:00020de8       ??_C@_0DE@KDCBFKMG@psh_hint_tableactivate_mask?3?5too@ 000000018009bde8     pshinter.obj
 0002:00020e20       ??_C@_07POODEHEH@psnames?$AA@ 000000018009be20     psnames.obj
 0002:00020e30       ??_C@_0EF@JJKCFHLK@m?3?2svn?2?4private?2mini?2umodsys?2dep@ 000000018009be30     psnames.obj
 0002:00020e78       ??_C@_07CBDBLBPD@raster5?$AA@ 000000018009be78     raster.obj
 0002:00020e80       ??_C@_07EFFNHEPH@raster1?$AA@ 000000018009be80     raster.obj
 0002:00020e88       ??_C@_0BI@MGIFCGPI@Set_High_Precision?$CI?$CFs?$CJ?6?$AA@ 000000018009be88     raster.obj
 0002:00020ea0       ??_C@_0EE@HIGIFHGO@m?3?2svn?2?4private?2mini?2umodsys?2dep@ 000000018009bea0     raster.obj
 0002:00020ee8       ??_C@_0BM@LJCIMGKP@New?5ascending?5profile?5?$DN?5?$CFp?6?$AA@ 000000018009bee8     raster.obj
 0002:00020f08       ??_C@_0BN@FOHPIGBE@New?5descending?5profile?5?$DN?5?$CFp?6?$AA@ 000000018009bf08     raster.obj
 0002:00020f28       ??_C@_0CI@BGPDJEGO@New_Profile?3?5invalid?5profile?5dir@ 000000018009bf28     raster.obj
 0002:00020f50       ??_C@_0CK@CFDFDNDC@End_Profile?3?5negative?5height?5enc@ 000000018009bf50     raster.obj
 0002:00020f80       ??_C@_0CO@MKAFJPLK@Ending?5profile?5?$CFp?0?5start?5?$DN?5?$CFld?0?5@ 000000018009bf80     raster.obj
 0002:00020fb0       ??_C@_0BJ@NHAHLGCP@overflow?5in?5End_Profile?6?$AA@ 000000018009bfb0     raster.obj
 0002:00020fd0       ??_C@_0ED@PENMCABH@m?3?2svn?2?4private?2mini?2umodsys?2dep@ 000000018009bfd0     raster.obj
 0002:00021018       ??_C@_0CL@MFKLBIHA@tt_face_lookup_table?3?5?$CF08p?0?5?$GA?$CFc?$CF@ 000000018009c018     sfnt.obj
 0002:00021048       ??_C@_0O@EPIPEIMI@found?5table?4?6?$AA@ 000000018009c048     sfnt.obj
 0002:00021058       ??_C@_0BG@IAJDEAEF@ignoring?5empty?5table?6?$AA@ 000000018009c058     sfnt.obj
 0002:00021070       ??_C@_0BG@MHBJFBAN@could?5not?5find?5table?6?$AA@ 000000018009c070     sfnt.obj
 0002:00021090       ??_C@_0EA@JKKJNJEI@m?3?2svn?2?4private?2mini?2umodsys?2dep@ 000000018009c090     sfnt.obj
 0002:000210d0       ??_C@_00CNPNBAHC@?$AA@     000000018009c0d0     sfnt.obj
 0002:000210d4       ??_C@_01LKDEMHDF@s?$AA@    000000018009c0d4     sfnt.obj
 0002:000210e0       ??_C@_0ED@EPOGLPMF@check_table_dir?3?5can?5read?5only?5?$CF@ 000000018009c0e0     sfnt.obj
 0002:00021128       ??_C@_0CJ@FLLNGMPK@check_table_dir?3?5table?5entry?5?$CFd?5@ 000000018009c128     sfnt.obj
 0002:00021158       ??_C@_0CJ@CHKALDON@check_table_dir?3?5?$GAhead?8?5table?5to@ 000000018009c158     sfnt.obj
 0002:00021188       ??_C@_0DI@JKJDCPMA@check_table_dir?3?5no?5magic?5number@ 000000018009c188     sfnt.obj
 0002:000211c0       ??_C@_0CC@PNEHFGIH@check_table_dir?3?5no?5tables?5found@ 000000018009c1c0     sfnt.obj
 0002:000211e8       ??_C@_0BB@IDPEGBNA@check_table_dir?3?$AA@ 000000018009c1e8     sfnt.obj
 0002:00021200       ??_C@_0DB@IIJHKNKO@?5neither?5?$GAhead?8?0?5?$GAbhed?8?0?5nor?5?$GAsi@ 000000018009c200     sfnt.obj
 0002:00021238       ??_C@_0BN@CHICAENP@tt_face_load_font_dir?3?5?$CF08p?6?$AA@ 000000018009c238     sfnt.obj
 0002:00021258       ??_C@_0BL@NHFPEKII@?9?9?5Number?5of?5tables?3?5?$CF10u?6?$AA@ 000000018009c258     sfnt.obj
 0002:00021278       ??_C@_0BO@OALIFCCP@?9?9?5Format?5version?3?5?5?50x?$CF08lx?6?$AA@ 000000018009c278     sfnt.obj
 0002:00021298       ??_C@_0DN@PPONPIPP@tt_face_load_font_dir?3?5invalid?5t@ 000000018009c298     sfnt.obj
 0002:000212e0       ??_C@_0EM@IIGIPBPJ@?6?5?5tag?5?5?5?5offset?5?5?5?5length?5?5?5che@ 000000018009c2e0     sfnt.obj
 0002:00021330       ??_C@_0CB@HGMCIHBO@?5?5?$CFc?$CFc?$CFc?$CFc?5?5?$CF08lx?5?5?$CF08lx?5?5?$CF08lx?6@ 000000018009c330     sfnt.obj
 0002:00021358       ??_C@_0BJ@KEOAEPMB@table?5directory?5loaded?6?6?$AA@ 000000018009c358     sfnt.obj
 0002:00021378       ??_C@_0BD@GIBJDOAC@Units?5per?5EM?3?5?$CF4u?6?$AA@ 000000018009c378     sfnt.obj
 0002:00021390       ??_C@_0BD@FAOKJHJC@IndexToLoc?3?5?5?5?$CF4d?6?$AA@ 000000018009c390     sfnt.obj
 0002:000213b0       ??_C@_0HL@PJCDKHJG@tt_face_load_maxp?3?5too?5much?5twil@ 000000018009c3b0     sfnt.obj
 0002:00021430       ??_C@_0EF@GCEDNBLG@tt_face_load_maxp?3?5abnormally?5la@ 000000018009c430     sfnt.obj
 0002:00021478       ??_C@_0P@MBCPJGML@numGlyphs?3?5?$CFu?6?$AA@ 000000018009c478     sfnt.obj
 0002:00021488       ??_C@_0CJ@MIJAPJH@tt_face_load_name?3?5invalid?5?$GAname@ 000000018009c488     sfnt.obj
 0002:000214b8       ??_C@_0BF@PJOLDGB@sTypoAscender?3?5?5?$CF4d?6?$AA@ 000000018009c4b8     sfnt.obj
 0002:000214d0       ??_C@_0BF@FIIAGEKP@sTypoDescender?3?5?$CF4d?6?$AA@ 000000018009c4d0     sfnt.obj
 0002:000214e8       ??_C@_0BF@KLDGDLFB@usWinAscent?3?5?5?5?5?$CF4u?6?$AA@ 000000018009c4e8     sfnt.obj
 0002:00021500       ??_C@_0BF@PFPGIJPG@usWinDescent?3?5?5?5?$CF4u?6?$AA@ 000000018009c500     sfnt.obj
 0002:00021518       ??_C@_0BH@DMHJKBIA@fsSelection?3?5?5?5?50x?$CF2x?6?$AA@ 000000018009c518     sfnt.obj
 0002:00021530       ??_C@_0BE@OINBJNHM@FormatType?3?5?5?50x?$CFx?6?$AA@ 000000018009c530     sfnt.obj
 0002:00021544       ??_C@_05NEGJLIIG@?5?5yes?$AA@ 000000018009c544     sfnt.obj
 0002:0002154c       ??_C@_05IIEOEKBC@?5?5?5no?$AA@ 000000018009c54c     sfnt.obj
 0002:00021558       ??_C@_0BE@BLJNHHPM@isFixedPitch?3?5?5?5?$CFs?6?$AA@ 000000018009c558     sfnt.obj
 0002:00021570       ??_C@_0P@INGOBNI@numRanges?3?5?$CFu?6?$AA@ 000000018009c570     sfnt.obj
 0002:00021580       ??_C@_0DI@KFMOBEKD@gaspRange?5?$CFd?3?5rangeMaxPPEM?5?$CF5d?0?5@ 000000018009c580     sfnt.obj
 0002:000215b8       ??_C@_0BI@PDIKHCDG@Ascender?3?5?5?5?5?5?5?5?5?5?5?$CF5d?6?$AA@ 000000018009c5b8     sfnt.obj
 0002:000215d0       ??_C@_0BI@EBCNGKMI@Descender?3?5?5?5?5?5?5?5?5?5?$CF5d?6?$AA@ 000000018009c5d0     sfnt.obj
 0002:000215e8       ??_C@_0BI@GOMALKPP@number_Of_Metrics?3?5?$CF5u?6?$AA@ 000000018009c5e8     sfnt.obj
 0002:00021600       ??_C@_0EA@POFCMIGC@m?3?2svn?2?4private?2mini?2umodsys?2dep@ 000000018009c600     sfnt.obj
 0002:00021640       ??_C@_0DL@JJHILCEG@tt_face_build_cmaps?3?5unsupported@ 000000018009c640     sfnt.obj
 0002:00021680       ??_C@_0DE@GBEIEEOP@tt_face_build_cmaps?3?5broken?5cmap@ 000000018009c680     sfnt.obj
 0002:000216b8       ??_C@_0DJ@NBCEBNID@tt_face_build_cmaps?3?5unsupported@ 000000018009c6b8     sfnt.obj
 0002:000216f8       ??_C@_0DJ@MLEDOBHN@tt_face_load_kern?3?5kerning?5table@ 000000018009c6f8     sfnt.obj
 0002:00021740       ??_C@_0EA@LGGIMJJG@m?3?2svn?2?4private?2mini?2umodsys?2dep@ 000000018009c740     sfnt.obj
 0002:00021780       ??_C@_0DE@CLAOKAPF@tt_face_load_kern?3?5could?5not?5ext@ 000000018009c780     sfnt.obj
 0002:000217c0       ??_C@_0EA@PHDONFKD@m?3?2svn?2?4private?2mini?2umodsys?2dep@ 000000018009c7c0     sfnt.obj
 0002:00021800       ??_C@_0CO@CDKEJLKM@?5?5not?5a?5font?5using?5the?5SFNT?5cont@ 000000018009c800     sfnt.obj
 0002:00021830       ??_C@_0CG@GHJPLPOB@sfnt_open_font?3?5file?5is?5a?5collec@ 000000018009c830     sfnt.obj
 0002:00021858       ??_C@_0CA@CLBLEALO@sfnt_open_font?3?5synthesize?5TTC?6?$AA@ 000000018009c858     sfnt.obj
 0002:00021878       ??_C@_0CN@FMHEADDH@sfnt_init_face?3?5cannot?5access?5?$GAs@ 000000018009c878     sfnt.obj
 0002:000218a8       ??_C@_0N@PKPIBBJB@SFNT?5driver?6?$AA@ 000000018009c8a8     sfnt.obj
 0002:000218b8       ??_C@_0BL@LDODPMPE@sfnt_init_face?3?5?$CF08p?0?5?$CFld?6?$AA@ 000000018009c8b8     sfnt.obj
 0002:000218d8       ??_C@_0BH@LEODIEGM@sfnt_load_face?3?5?$CF08p?6?6?$AA@ 000000018009c8d8     sfnt.obj
 0002:000218f0       ??_C@_07PPKILMHI@?$GAbhed?8?5?$AA@ 000000018009c8f0     sfnt.obj
 0002:000218f8       ??_C@_04IGMOLEKE@?9?9?$DO?6?$AA@ 000000018009c8f8     sfnt.obj
 0002:00021900       ??_C@_06IILMCCFO@loaded?$AA@ 000000018009c900     sfnt.obj
 0002:00021908       ??_C@_07NCACNKHJ@missing?$AA@ 000000018009c908     sfnt.obj
 0002:00021910       ??_C@_0P@KDDBDKEH@failed?5to?5load?$AA@ 000000018009c910     sfnt.obj
 0002:00021920       ??_C@_07BCMGFGCI@?$GAhead?8?5?$AA@ 000000018009c920     sfnt.obj
 0002:00021928       ??_C@_07GJOEAOKC@?$GAmaxp?8?5?$AA@ 000000018009c928     sfnt.obj
 0002:00021930       ??_C@_07CDOJEAHH@?$GAcmap?8?5?$AA@ 000000018009c930     sfnt.obj
 0002:00021938       ??_C@_07JHMLKLGA@?$GAname?8?5?$AA@ 000000018009c938     sfnt.obj
 0002:00021940       ??_C@_07KNFFDEJK@?$GApost?8?5?$AA@ 000000018009c940     sfnt.obj
 0002:00021948       ??_C@_09BBLFBEP@?$GA?$CFshhea?8?5?$AA@ 000000018009c948     sfnt.obj
 0002:00021958       ??_C@_09CBEHGGNL@?$GA?$CFshmtx?8?5?$AA@ 000000018009c958     sfnt.obj
 0002:00021968       ??_C@_0BL@CGOEDHCG@This?5is?5an?5SFNT?5Mac?5font?4?6?$AA@ 000000018009c968     sfnt.obj
 0002:00021988       ??_C@_09KBDOBBOH@vertical?5?$AA@ 000000018009c988     sfnt.obj
 0002:00021994       ??_C@_06FMFBAPBJ@?$GAos2?8?5?$AA@ 000000018009c994     sfnt.obj
 0002:000219a0       ??_C@_07LFDPLFI@?$GAeblc?8?5?$AA@ 000000018009c9a0     sfnt.obj
 0002:000219a8       ??_C@_07DICHPELC@?$GApclt?8?5?$AA@ 000000018009c9a8     sfnt.obj
 0002:000219b0       ??_C@_07LKEEGAPN@?$GAgasp?8?5?$AA@ 000000018009c9b0     sfnt.obj
 0002:000219b8       ??_C@_07GLNDEBID@?$GAkern?8?5?$AA@ 000000018009c9b8     sfnt.obj
 0002:000219c0       ??_C@_0BG@ICCDACNE@sfnt_load_face?3?5done?6?$AA@ 000000018009c9c0     sfnt.obj
 0002:000219e0       ??_C@_0EC@FHNNBALL@m?3?2svn?2?4private?2mini?2umodsys?2dep@ 000000018009c9e0     sfnt.obj
 0002:00021a28       ??_C@_0DE@MABHGHLP@Ignore?5glyph?5names?5for?5invalid?5G@ 000000018009ca28     sfnt.obj
 0002:00021a60       ??_C@_0CM@LIPCEJLG@tt_face_load_sbit_strikes?3?5table@ 000000018009ca60     sfnt.obj
 0002:00021a90       ??_C@_0EA@NHMIDKOP@m?3?2svn?2?4private?2mini?2umodsys?2dep@ 000000018009ca90     sfnt.obj
 0002:00021ad0       ??_C@_0DC@BBCMHNHM@tt_face_load_sbit_strikes?3?5inval@ 000000018009cad0     sfnt.obj
 0002:00021b08       ??_C@_0BG@BFBBMCNL@sbit_num_strikes?3?5?$CFu?6?$AA@ 000000018009cb08     sfnt.obj
 0002:00021b20       ??_C@_0CL@FLLFJNAH@tt_sbit_decoder_load_metrics?3?5br@ 000000018009cb20     sfnt.obj
 0002:00021b50       ??_C@_0DO@OBKNPPOC@tt_sbit_decoder_load_byte_aligne@ 000000018009cb50     sfnt.obj
 0002:00021b90       ??_C@_0DC@EJMIPKNG@tt_sbit_decoder_load_byte_aligne@ 000000018009cb90     sfnt.obj
 0002:00021bc8       ??_C@_0CL@MBLAPJLN@tt_sbit_decoder_load_byte_aligne@ 000000018009cbc8     sfnt.obj
 0002:00021bf8       ??_C@_0DN@CMJAIJLB@tt_sbit_decoder_load_bit_aligned@ 000000018009cbf8     sfnt.obj
 0002:00021c38       ??_C@_0DB@HOGKMILJ@tt_sbit_decoder_load_bit_aligned@ 000000018009cc38     sfnt.obj
 0002:00021c70       ??_C@_0CK@GPJNOIJH@tt_sbit_decoder_load_bit_aligned@ 000000018009cc70     sfnt.obj
 0002:00021ca0       ??_C@_0CN@DPFLEEKK@tt_sbit_decoder_load_compound?3?5b@ 000000018009cca0     sfnt.obj
 0002:00021cd0       ??_C@_0DG@PBMCOCHC@tt_sbit_decoder_load_compound?3?5l@ 000000018009ccd0     sfnt.obj
 0002:00021d08       ??_C@_0CF@NKDEPFML@tt_sbit_decoder_load_compound?3?5d@ 000000018009cd08     sfnt.obj
 0002:00021d30       ??_C@_0EH@OCMKCNMI@tt_sbit_decoder_load_image?3?5foun@ 000000018009cd30     sfnt.obj
 0002:00021d78       ??_C@_0DO@OIHGOFLO@tt_sbit_decoder_load_image?3?5no?5s@ 000000018009cd78     sfnt.obj
 0002:00021dc0       ??_C@_0EA@HAOOLMIP@m?3?2svn?2?4private?2mini?2umodsys?2dep@ 000000018009cdc0     sfnt.obj
 0002:00021e00       ??_C@_0CM@MABCLHAJ@load_format_20?3?5?$CFd?5byte?5left?5in?5@ 000000018009ce00     sfnt.obj
 0002:00021e30       ??_C@_0FO@KECODNIJ@load_format_20?3?5exceeding?5string@ 000000018009ce30     sfnt.obj
 0002:00021e90       ??_C@_0GA@LDEHPDAP@load_format_20?3?5all?5entries?5in?5p@ 000000018009ce90     sfnt.obj
 0002:00021ef0       ??_C@_0DP@CKAGJPOF@m?3?2svn?2?4private?2mini?2umodsys?2dep@ 000000018009cef0     sfnt.obj
 0002:00021f30       ??_C@_0M@IHBDFEAO@smooth?9lcdv?$AA@ 000000018009cf30     smooth.obj
 0002:00021f40       ??_C@_0L@KCJBAIJI@smooth?9lcd?$AA@ 000000018009cf40     smooth.obj
 0002:00021f50       ??_C@_08EDHNINEI@y?5?$DN?5?$CF3d?5?$AA@ 000000018009cf50     smooth.obj
 0002:00021f60       ??_C@_0P@NDOJLBMK@?$FL?$CFd?4?4?$CFd?$FN?3?$CF02x?5?$AA@ 000000018009cf60     smooth.obj
 0002:00021f70       ??_C@_0BD@BBCNCFCG@gray_sweep?3?5start?6?$AA@ 000000018009cf70     smooth.obj
 0002:00021f88       ??_C@_0BB@JBKFABFN@gray_sweep?3?5end?6?$AA@ 000000018009cf88     smooth.obj
 0002:00021fa0       ??_C@_0ED@LNOCJPCL@m?3?2svn?2?4private?2mini?2umodsys?2dep@ 000000018009cfa0     smooth.obj
 0002:00021fe8       ??_C@_0CC@KMMLIIMO@gray_convert_glyph?3?5rotten?5glyph@ 000000018009cfe8     smooth.obj
 0002:00022010       ??_C@_0EE@EHMLEMPI@m?3?2svn?2?4private?2mini?2umodsys?2dep@ 000000018009d010     smooth.obj
 0002:00022060       ??_C@_0EB@CPAMGION@ft_smooth_render_generic?3?5glyph?5@ 000000018009d060     smooth.obj
 0002:000220b0       ??_C@_0EB@PJKKNDON@ft_smooth_render_generic?3?5glyph?5@ 000000018009d0b0     smooth.obj
 0002:000220f8       ??_C@_0DE@MAGFHKIJ@ft_smooth_render_generic?3?5glyph?5@ 000000018009d0f8     smooth.obj
 0002:00022130       ??_C@_08DPNMCDIF@MIRP?$FL31?$FN?$AA@ 000000018009d130     truetype.obj
 0002:00022140       ??_C@_08DOBOEJLC@MIRP?$FL30?$FN?$AA@ 000000018009d140     truetype.obj
 0002:00022150       ??_C@_08IJHDBFFI@MIRP?$FL29?$FN?$AA@ 000000018009d150     truetype.obj
 0002:00022160       ??_C@_08IILBHPGP@MIRP?$FL28?$FN?$AA@ 000000018009d160     truetype.obj
 0002:00022170       ??_C@_08IDONDIFC@MIRP?$FL27?$FN?$AA@ 000000018009d170     truetype.obj
 0002:00022180       ??_C@_08ICCPFCGF@MIRP?$FL26?$FN?$AA@ 000000018009d180     truetype.obj
 0002:00022190       ??_C@_08IAGJOMDM@MIRP?$FL25?$FN?$AA@ 000000018009d190     truetype.obj
 0002:000221a0       ??_C@_08IBKLIGAL@MIRP?$FL24?$FN?$AA@ 000000018009d1a0     truetype.obj
 0002:000221b0       ??_C@_08IEOEJAIO@MIRP?$FL23?$FN?$AA@ 000000018009d1b0     truetype.obj
 0002:000221c0       ??_C@_08IFCGPKLJ@MIRP?$FL22?$FN?$AA@ 000000018009d1c0     truetype.obj
 0002:000221d0       ??_C@_08IHGAEEOA@MIRP?$FL21?$FN?$AA@ 000000018009d1d0     truetype.obj
 0002:000221e0       ??_C@_08IGKCCONH@MIRP?$FL20?$FN?$AA@ 000000018009d1e0     truetype.obj
 0002:000221f0       ??_C@_08JLMGLKLG@MIRP?$FL19?$FN?$AA@ 000000018009d1f0     truetype.obj
 0002:00022200       ??_C@_08JKAENAIB@MIRP?$FL18?$FN?$AA@ 000000018009d200     truetype.obj
 0002:00022210       ??_C@_08JBFIJHLM@MIRP?$FL17?$FN?$AA@ 000000018009d210     truetype.obj
 0002:00022220       ??_C@_08JAJKPNIL@MIRP?$FL16?$FN?$AA@ 000000018009d220     truetype.obj
 0002:00022230       ??_C@_08JCNMEDNC@MIRP?$FL15?$FN?$AA@ 000000018009d230     truetype.obj
 0002:00022240       ??_C@_08JDBOCJOF@MIRP?$FL14?$FN?$AA@ 000000018009d240     truetype.obj
 0002:00022250       ??_C@_08JGFBDPGA@MIRP?$FL13?$FN?$AA@ 000000018009d250     truetype.obj
 0002:00022260       ??_C@_08JHJDFFFH@MIRP?$FL12?$FN?$AA@ 000000018009d260     truetype.obj
 0002:00022270       ??_C@_08JFNFOLAO@MIRP?$FL11?$FN?$AA@ 000000018009d270     truetype.obj
 0002:00022280       ??_C@_08JEBHIBDJ@MIRP?$FL10?$FN?$AA@ 000000018009d280     truetype.obj
 0002:00022290       ??_C@_08CDHKNNND@MIRP?$FL09?$FN?$AA@ 000000018009d290     truetype.obj
 0002:000222a0       ??_C@_08CCLILHOE@MIRP?$FL08?$FN?$AA@ 000000018009d2a0     truetype.obj
 0002:000222b0       ??_C@_08CJOEPANJ@MIRP?$FL07?$FN?$AA@ 000000018009d2b0     truetype.obj
 0002:000222c0       ??_C@_08CICGJKOO@MIRP?$FL06?$FN?$AA@ 000000018009d2c0     truetype.obj
 0002:000222d0       ??_C@_08CKGACELH@MIRP?$FL05?$FN?$AA@ 000000018009d2d0     truetype.obj
 0002:000222e0       ??_C@_08CLKCEOIA@MIRP?$FL04?$FN?$AA@ 000000018009d2e0     truetype.obj
 0002:000222f0       ??_C@_08COONFIAF@MIRP?$FL03?$FN?$AA@ 000000018009d2f0     truetype.obj
 0002:00022300       ??_C@_08CPCPDCDC@MIRP?$FL02?$FN?$AA@ 000000018009d300     truetype.obj
 0002:00022310       ??_C@_08CNGJIMGL@MIRP?$FL01?$FN?$AA@ 000000018009d310     truetype.obj
 0002:00022320       ??_C@_08CMKLOGFM@MIRP?$FL00?$FN?$AA@ 000000018009d320     truetype.obj
 0002:00022330       ??_C@_08KENJDGFE@MDRP?$FL31?$FN?$AA@ 000000018009d330     truetype.obj
 0002:00022340       ??_C@_08KFBLFMGD@MDRP?$FL30?$FN?$AA@ 000000018009d340     truetype.obj
 0002:00022350       ??_C@_08BCHGAAIJ@MDRP?$FL29?$FN?$AA@ 000000018009d350     truetype.obj
 0002:00022360       ??_C@_08BDLEGKLO@MDRP?$FL28?$FN?$AA@ 000000018009d360     truetype.obj
 0002:00022370       ??_C@_08BIOICNID@MDRP?$FL27?$FN?$AA@ 000000018009d370     truetype.obj
 0002:00022380       ??_C@_08BJCKEHLE@MDRP?$FL26?$FN?$AA@ 000000018009d380     truetype.obj
 0002:00022390       ??_C@_08BLGMPJON@MDRP?$FL25?$FN?$AA@ 000000018009d390     truetype.obj
 0002:000223a0       ??_C@_08BKKOJDNK@MDRP?$FL24?$FN?$AA@ 000000018009d3a0     truetype.obj
 0002:000223b0       ??_C@_08BPOBIFFP@MDRP?$FL23?$FN?$AA@ 000000018009d3b0     truetype.obj
 0002:000223c0       ??_C@_08BOCDOPGI@MDRP?$FL22?$FN?$AA@ 000000018009d3c0     truetype.obj
 0002:000223d0       ??_C@_08BMGFFBDB@MDRP?$FL21?$FN?$AA@ 000000018009d3d0     truetype.obj
 0002:000223e0       ??_C@_08BNKHDLAG@MDRP?$FL20?$FN?$AA@ 000000018009d3e0     truetype.obj
 0002:000223f0       ??_C@_08MDKPGH@MDRP?$FL19?$FN?$AA@ 000000018009d3f0     truetype.obj
 0002:00022400       ??_C@_08BABMFFA@MDRP?$FL18?$FN?$AA@ 000000018009d400     truetype.obj
 0002:00022410       ??_C@_08KFNICGN@MDRP?$FL17?$FN?$AA@ 000000018009d410     truetype.obj
 0002:00022420       ??_C@_08LJPOIFK@MDRP?$FL16?$FN?$AA@ 000000018009d420     truetype.obj
 0002:00022430       ??_C@_08JNJFGAD@MDRP?$FL15?$FN?$AA@ 000000018009d430     truetype.obj
 0002:00022440       ??_C@_08IBLDMDE@MDRP?$FL14?$FN?$AA@ 000000018009d440     truetype.obj
 0002:00022450       ??_C@_08NFECKLB@MDRP?$FL13?$FN?$AA@ 000000018009d450     truetype.obj
 0002:00022460       ??_C@_08MJGEAIG@MDRP?$FL12?$FN?$AA@ 000000018009d460     truetype.obj
 0002:00022470       ??_C@_08ONAPONP@MDRP?$FL11?$FN?$AA@ 000000018009d470     truetype.obj
 0002:00022480       ??_C@_08PBCJEOI@MDRP?$FL10?$FN?$AA@ 000000018009d480     truetype.obj
 0002:00022490       ??_C@_08LIHPMIAC@MDRP?$FL09?$FN?$AA@ 000000018009d490     truetype.obj
 0002:000224a0       ??_C@_08LJLNKCDF@MDRP?$FL08?$FN?$AA@ 000000018009d4a0     truetype.obj
 0002:000224b0       ??_C@_08LCOBOFAI@MDRP?$FL07?$FN?$AA@ 000000018009d4b0     truetype.obj
 0002:000224c0       ??_C@_08LDCDIPDP@MDRP?$FL06?$FN?$AA@ 000000018009d4c0     truetype.obj
 0002:000224d0       ??_C@_08LBGFDBGG@MDRP?$FL05?$FN?$AA@ 000000018009d4d0     truetype.obj
 0002:000224e0       ??_C@_08LAKHFLFB@MDRP?$FL04?$FN?$AA@ 000000018009d4e0     truetype.obj
 0002:000224f0       ??_C@_08LFOIENNE@MDRP?$FL03?$FN?$AA@ 000000018009d4f0     truetype.obj
 0002:00022500       ??_C@_08LECKCHOD@MDRP?$FL02?$FN?$AA@ 000000018009d500     truetype.obj
 0002:00022510       ??_C@_08LGGMJJLK@MDRP?$FL01?$FN?$AA@ 000000018009d510     truetype.obj
 0002:00022520       ??_C@_08LHKOPDIN@MDRP?$FL00?$FN?$AA@ 000000018009d520     truetype.obj
 0002:00022530       ??_C@_08ODNDJCG@PushW?$FL7?$FN?$AA@ 000000018009d530     truetype.obj
 0002:00022540       ??_C@_08PPPFDBB@PushW?$FL6?$FN?$AA@ 000000018009d540     truetype.obj
 0002:00022550       ??_C@_08NLJONEI@PushW?$FL5?$FN?$AA@ 000000018009d550     truetype.obj
 0002:00022560       ??_C@_08MHLIHHP@PushW?$FL4?$FN?$AA@ 000000018009d560     truetype.obj
 0002:00022570       ??_C@_08JDEJBPK@PushW?$FL3?$FN?$AA@ 000000018009d570     truetype.obj
 0002:00022580       ??_C@_08IPGPLMN@PushW?$FL2?$FN?$AA@ 000000018009d580     truetype.obj
 0002:00022590       ??_C@_08KLAEFJE@PushW?$FL1?$FN?$AA@ 000000018009d590     truetype.obj
 0002:000225a0       ??_C@_08LHCCPKD@PushW?$FL0?$FN?$AA@ 000000018009d5a0     truetype.obj
 0002:000225b0       ??_C@_08KGDNCBNE@PushB?$FL7?$FN?$AA@ 000000018009d5b0     truetype.obj
 0002:000225c0       ??_C@_08KHPPELOD@PushB?$FL6?$FN?$AA@ 000000018009d5c0     truetype.obj
 0002:000225d0       ??_C@_08KFLJPFLK@PushB?$FL5?$FN?$AA@ 000000018009d5d0     truetype.obj
 0002:000225e0       ??_C@_08KEHLJPIN@PushB?$FL4?$FN?$AA@ 000000018009d5e0     truetype.obj
 0002:000225f0       ??_C@_08KBDEIJAI@PushB?$FL3?$FN?$AA@ 000000018009d5f0     truetype.obj
 0002:00022600       ??_C@_08KAPGODDP@PushB?$FL2?$FN?$AA@ 000000018009d600     truetype.obj
 0002:00022610       ??_C@_08KCLAFNGG@PushB?$FL1?$FN?$AA@ 000000018009d610     truetype.obj
 0002:00022620       ??_C@_08KDHCDHFB@PushB?$FL0?$FN?$AA@ 000000018009d620     truetype.obj
 0002:00022630       ??_C@_07HAEJOCCK@INS_$AF?$AA@ 000000018009d630     truetype.obj
 0002:00022638       ??_C@_07FLGELBOJ@INS_$AE?$AA@ 000000018009d638     truetype.obj
 0002:00022640       ??_C@_07ECHPIAKI@INS_$AD?$AA@ 000000018009d640     truetype.obj
 0002:00022648       ??_C@_07NDOBGGP@INS_$AC?$AA@ 000000018009d648     truetype.obj
 0002:00022650       ??_C@_07BECFCHCO@INS_$AB?$AA@ 000000018009d650     truetype.obj
 0002:00022658       ??_C@_07DPAIHEON@INS_$AA?$AA@ 000000018009d658     truetype.obj
 0002:00022660       ??_C@_07NIOOIHBD@INS_$A9?$AA@ 000000018009d660     truetype.obj
 0002:00022668       ??_C@_07MBPFLGFC@INS_$A8?$AA@ 000000018009d668     truetype.obj
 0002:00022670       ??_C@_07EGGNKKJN@INS_$A7?$AA@ 000000018009d670     truetype.obj
 0002:00022678       ??_C@_07FPHGJLNM@INS_$A6?$AA@ 000000018009d678     truetype.obj
 0002:00022680       ??_C@_07HEFLMIBP@INS_$A5?$AA@ 000000018009d680     truetype.obj
 0002:00022688       ??_C@_07GNEAPJFO@INS_$A4?$AA@ 000000018009d688     truetype.obj
 0002:00022690       ??_C@_07CCABGPJJ@INS_$A3?$AA@ 000000018009d690     truetype.obj
 0002:00022698       ??_C@_07DLBKFONI@INS_$A2?$AA@ 000000018009d698     truetype.obj
 0002:000226a0       ??_C@_07BADHANBL@INS_$A1?$AA@ 000000018009d6a0     truetype.obj
 0002:000226a8       ??_C@_07JCMDMFK@INS_$A0?$AA@ 000000018009d6a8     truetype.obj
 0002:000226b0       ??_C@_07CKKLNLMC@INS_$9F?$AA@ 000000018009d6b0     truetype.obj
 0002:000226b8       ??_C@_07BIGIIAB@INS_$9E?$AA@ 000000018009d6b8     truetype.obj
 0002:000226c0       ??_C@_07BIJNLJEA@INS_$9D?$AA@ 000000018009d6c0     truetype.obj
 0002:000226c8       ??_C@_07FHNMCPIH@INS_$9C?$AA@ 000000018009d6c8     truetype.obj
 0002:000226d0       ??_C@_07EOMHBOMG@INS_$9B?$AA@ 000000018009d6d0     truetype.obj
 0002:000226d8       ??_C@_07GFOKENAF@INS_$9A?$AA@ 000000018009d6d8     truetype.obj
 0002:000226e0       ??_C@_07ICAMLOPL@INS_$99?$AA@ 000000018009d6e0     truetype.obj
 0002:000226e8       ??_C@_07JLBHIPLK@INS_$98?$AA@ 000000018009d6e8     truetype.obj
 0002:000226f0       ??_C@_07BMIPJDHF@INS_$97?$AA@ 000000018009d6f0     truetype.obj
 0002:000226f8       ??_C@_07FJEKCDE@INS_$96?$AA@ 000000018009d6f8     truetype.obj
 0002:00022700       ??_C@_07COLJPBPH@INS_$95?$AA@ 000000018009d700     truetype.obj
 0002:00022708       ??_C@_07DHKCMALG@INS_$94?$AA@ 000000018009d708     truetype.obj
 0002:00022710       ??_C@_07HIODFGHB@INS_$93?$AA@ 000000018009d710     truetype.obj
 0002:00022718       ??_C@_07GBPIGHDA@INS_$92?$AA@ 000000018009d718     truetype.obj
 0002:00022720       ??_C@_07EKNFDEPD@INS_$91?$AA@ 000000018009d720     truetype.obj
 0002:00022728       ??_C@_07FDMOAFLC@INS_$90?$AA@ 000000018009d728     truetype.obj
 0002:00022730       ??_C@_07CLGJLBPF@INS_$8F?$AA@ 000000018009d730     truetype.obj
 0002:00022738       ??_C@_08ILFNCJFO@InstCTRL?$AA@ 000000018009d738     truetype.obj
 0002:00022748       ??_C@_08IJFGKEBC@ScanTYPE?$AA@ 000000018009d748     truetype.obj
 0002:00022754       ??_C@_03KGHEHEMH@MIN?$AA@  000000018009d754     truetype.obj
 0002:00022758       ??_C@_03LEPPJAKI@MAX?$AA@  000000018009d758     truetype.obj
 0002:0002275c       ??_C@_04JNDFKIIP@ROLL?$AA@ 000000018009d75c     truetype.obj
 0002:00022764       ??_C@_04KIDKFKBI@IDEF?$AA@ 000000018009d764     truetype.obj
 0002:00022770       ??_C@_07NNGGHAHJ@GetINFO?$AA@ 000000018009d770     truetype.obj
 0002:00022778       ??_C@_09EBBIDAIL@SDVPTL?$FL1?$FN?$AA@ 000000018009d778     truetype.obj
 0002:00022788       ??_C@_09EANKFKLM@SDVPTL?$FL0?$FN?$AA@ 000000018009d788     truetype.obj
 0002:00022798       ??_C@_08HLLKFIHK@ScanCTRL?$AA@ 000000018009d798     truetype.obj
 0002:000227a8       ??_C@_07DGGAKKIB@INS_$84?$AA@ 000000018009d7a8     truetype.obj
 0002:000227b0       ??_C@_07HJCBDMEG@INS_$83?$AA@ 000000018009d7b0     truetype.obj
 0002:000227b8       ??_C@_09GNFNKKFO@FlipRgOFF?$AA@ 000000018009d7b8     truetype.obj
 0002:000227c8       ??_C@_08NHCINLLI@FlipRgON?$AA@ 000000018009d7c8     truetype.obj
 0002:000227d4       ??_C@_06HHAIKMKD@FlipPT?$AA@ 000000018009d7d4     truetype.obj
 0002:000227dc       ??_C@_02JIIELPFO@AA?$AA@   000000018009d7dc     truetype.obj
 0002:000227e0       ??_C@_05FKFACKCE@SANGW?$AA@ 000000018009d7e0     truetype.obj
 0002:000227e8       ??_C@_04LLPFAEIN@RDTG?$AA@ 000000018009d7e8     truetype.obj
 0002:000227f0       ??_C@_04FDFADEHH@RUTG?$AA@ 000000018009d7f0     truetype.obj
 0002:000227f8       ??_C@_07EEFJDDMM@INS_$7B?$AA@ 000000018009d7f8     truetype.obj
 0002:00022800       ??_C@_04GKENMFND@ROFF?$AA@ 000000018009d800     truetype.obj
 0002:00022808       ??_C@_04JHHPKNFN@JROF?$AA@ 000000018009d808     truetype.obj
 0002:00022810       ??_C@_04OPILNNIO@JROT?$AA@ 000000018009d810     truetype.obj
 0002:00022818       ??_C@_08OMOIBANH@S45Round?$AA@ 000000018009d818     truetype.obj
 0002:00022824       ??_C@_06PJIJGAJE@SROUND?$AA@ 000000018009d824     truetype.obj
 0002:00022830       ??_C@_0L@OBJDGKGL@DeltaCn?$FL2?$FN?$AA@ 000000018009d830     truetype.obj
 0002:00022840       ??_C@_0L@ODNFNEDC@DeltaCn?$FL1?$FN?$AA@ 000000018009d840     truetype.obj
 0002:00022850       ??_C@_0L@OCBHLOAF@DeltaCn?$FL0?$FN?$AA@ 000000018009d850     truetype.obj
 0002:00022860       ??_C@_07IGKNNNAL@DeltaP3?$AA@ 000000018009d860     truetype.obj
 0002:00022868       ??_C@_07JPLGOMEK@DeltaP2?$AA@ 000000018009d868     truetype.obj
 0002:00022870       ??_C@_05PLGKJDMF@WCvtF?$AA@ 000000018009d870     truetype.obj
 0002:00022878       ??_C@_09OMOHLKNN@NROUND?$FL3?$FN?$AA@ 000000018009d878     truetype.obj
 0002:00022888       ??_C@_09ONCFNAOK@NROUND?$FL2?$FN?$AA@ 000000018009d888     truetype.obj
 0002:00022898       ??_C@_09OPGDGOLD@NROUND?$FL1?$FN?$AA@ 000000018009d898     truetype.obj
 0002:000228a8       ??_C@_09OOKBAEIE@NROUND?$FL0?$FN?$AA@ 000000018009d8a8     truetype.obj
 0002:000228b8       ??_C@_08GJBHPBBG@ROUND?$FL3?$FN?$AA@ 000000018009d8b8     truetype.obj
 0002:000228c8       ??_C@_08GINFJLCB@ROUND?$FL2?$FN?$AA@ 000000018009d8c8     truetype.obj
 0002:000228d8       ??_C@_08GKJDCFHI@ROUND?$FL1?$FN?$AA@ 000000018009d8d8     truetype.obj
 0002:000228e8       ??_C@_08GLFBEPEP@ROUND?$FL0?$FN?$AA@ 000000018009d8e8     truetype.obj
 0002:000228f8       ??_C@_07LNIIDPBF@CEILING?$AA@ 000000018009d8f8     truetype.obj
 0002:00022900       ??_C@_05DKADLPCF@FLOOR?$AA@ 000000018009d900     truetype.obj
 0002:00022908       ??_C@_03GMBJJJAE@NEG?$AA@  000000018009d908     truetype.obj
 0002:0002290c       ??_C@_03BPJLEIIC@ABS?$AA@  000000018009d90c     truetype.obj
 0002:00022910       ??_C@_03IBHOEMFB@MUL?$AA@  000000018009d910     truetype.obj
 0002:00022914       ??_C@_03FJGHKDBE@DIV?$AA@  000000018009d914     truetype.obj
 0002:00022918       ??_C@_03KPDLEBHD@SUB?$AA@  000000018009d918     truetype.obj
 0002:0002291c       ??_C@_03BOJFLAKG@ADD?$AA@  000000018009d91c     truetype.obj
 0002:00022920       ??_C@_03OBAGKLCE@SDS?$AA@  000000018009d920     truetype.obj
 0002:00022924       ??_C@_03LCNPIIDE@SDB?$AA@  000000018009d924     truetype.obj
 0002:00022928       ??_C@_07LEJLLPIJ@DeltaP1?$AA@ 000000018009d928     truetype.obj
 0002:00022930       ??_C@_03GBFNEA@NOT?$AA@    000000018009d930     truetype.obj
 0002:00022934       ??_C@_02PDPFNDMG@OR?$AA@   000000018009d934     truetype.obj
 0002:00022938       ??_C@_03BDACDFHA@AND?$AA@  000000018009d938     truetype.obj
 0002:0002293c       ??_C@_03KLBJNGCA@EIF?$AA@  000000018009d93c     truetype.obj
 0002:00022940       ??_C@_02NJNGHICB@IF?$AA@   000000018009d940     truetype.obj
 0002:00022944       ??_C@_04FPADKCAF@EVEN?$AA@ 000000018009d944     truetype.obj
 0002:0002294c       ??_C@_03POEKMHJF@ODD?$AA@  000000018009d94c     truetype.obj
 0002:00022950       ??_C@_03HAIBCMND@NEQ?$AA@  000000018009d950     truetype.obj
 0002:00022954       ??_C@_02NFEPAFND@EQ?$AA@   000000018009d954     truetype.obj
 0002:00022958       ??_C@_04ECJADHHA@GTEQ?$AA@ 000000018009d958     truetype.obj
 0002:00022960       ??_C@_02KLLMCFPI@GT?$AA@   000000018009d960     truetype.obj
 0002:00022964       ??_C@_04DFEAAGGB@LTEQ?$AA@ 000000018009d964     truetype.obj
 0002:0002296c       ??_C@_02KHOJMKBJ@LT?$AA@   000000018009d96c     truetype.obj
 0002:00022970       ??_C@_05KOLFGEDA@DEBUG?$AA@ 000000018009d970     truetype.obj
 0002:00022978       ??_C@_07POFDCCKK@FlipOFF?$AA@ 000000018009d978     truetype.obj
 0002:00022980       ??_C@_06NAFPLCDF@FlipON?$AA@ 000000018009d980     truetype.obj
 0002:00022988       ??_C@_03EKOPIACE@MPS?$AA@  000000018009d988     truetype.obj
 0002:0002298c       ??_C@_05DNGDPJOE@MPPEM?$AA@ 000000018009d98c     truetype.obj
 0002:00022994       ??_C@_05GGDIJNHK@MD?$FL1?$FN?$AA@ 000000018009d994     truetype.obj
 0002:0002299c       ??_C@_05GHPKPHEN@MD?$FL0?$FN?$AA@ 000000018009d99c     truetype.obj
 0002:000229a4       ??_C@_04CKEOLFMP@SCFS?$AA@ 000000018009d9a4     truetype.obj
 0002:000229ac       ??_C@_05HFIDGCAM@GC?$FL1?$FN?$AA@ 000000018009d9ac     truetype.obj
 0002:000229b4       ??_C@_05HEEBAIDL@GC?$FL0?$FN?$AA@ 000000018009d9b4     truetype.obj
 0002:000229bc       ??_C@_04OJIAMLIK@RCvt?$AA@ 000000018009d9bc     truetype.obj
 0002:000229c4       ??_C@_05OHPCCGBC@WCvtP?$AA@ 000000018009d9c4     truetype.obj
 0002:000229cc       ??_C@_02POBANCKE@RS?$AA@   000000018009d9cc     truetype.obj
 0002:000229d0       ??_C@_02PINLBAEP@WS?$AA@   000000018009d9d0     truetype.obj
 0002:000229d4       ??_C@_06IBKPBHJE@NPushW?$AA@ 000000018009d9d4     truetype.obj
 0002:000229dc       ??_C@_06LGBKPBIA@NPushB?$AA@ 000000018009d9dc     truetype.obj
 0002:000229e8       ??_C@_07DDHBPFBP@MIAP?$FL1?$FN?$AA@ 000000018009d9e8     truetype.obj
 0002:000229f0       ??_C@_07DCLDJPCI@MIAP?$FL0?$FN?$AA@ 000000018009d9f0     truetype.obj
 0002:000229f8       ??_C@_04PHMKPAGC@RTDG?$AA@ 000000018009d9f8     truetype.obj
 0002:00022a00       ??_C@_07DJGPBGAB@AlignRP?$AA@ 000000018009da00     truetype.obj
 0002:00022a08       ??_C@_08HDPEIJKE@MSIRP?$FL1?$FN?$AA@ 000000018009da08     truetype.obj
 0002:00022a18       ??_C@_08HCDGODJD@MSIRP?$FL0?$FN?$AA@ 000000018009da18     truetype.obj
 0002:00022a24       ??_C@_02MFEOMNPG@IP?$AA@   000000018009da24     truetype.obj
 0002:00022a28       ??_C@_05GKIAFJDM@SHPIX?$AA@ 000000018009da28     truetype.obj
 0002:00022a30       ??_C@_06NHLGKINN@SHZ?$FL1?$FN?$AA@ 000000018009da30     truetype.obj
 0002:00022a38       ??_C@_06NGHEMCOK@SHZ?$FL0?$FN?$AA@ 000000018009da38     truetype.obj
 0002:00022a40       ??_C@_06LKEGFNCO@SHC?$FL1?$FN?$AA@ 000000018009da40     truetype.obj
 0002:00022a48       ??_C@_06LLIEDHBJ@SHC?$FL0?$FN?$AA@ 000000018009da48     truetype.obj
 0002:00022a50       ??_C@_06JNAGLAHM@SHP?$FL1?$FN?$AA@ 000000018009da50     truetype.obj
 0002:00022a58       ??_C@_06JMMENKEL@SHP?$FL0?$FN?$AA@ 000000018009da58     truetype.obj
 0002:00022a60       ??_C@_06OBOAGCLJ@IUP?$FL1?$FN?$AA@ 000000018009da60     truetype.obj
 0002:00022a68       ??_C@_06OACCAIIO@IUP?$FL0?$FN?$AA@ 000000018009da68     truetype.obj
 0002:00022a70       ??_C@_07FCKGJENP@MDAP?$FL1?$FN?$AA@ 000000018009da70     truetype.obj
 0002:00022a78       ??_C@_07FDGEPOOI@MDAP?$FL0?$FN?$AA@ 000000018009da78     truetype.obj
 0002:00022a80       ??_C@_04DLFDNEK@ENDF?$AA@  000000018009da80     truetype.obj
 0002:00022a88       ??_C@_04CKGKMNMJ@FDEF?$AA@ 000000018009da88     truetype.obj
 0002:00022a90       ??_C@_04CAGKGBIO@CALL?$AA@ 000000018009da90     truetype.obj
 0002:00022a98       ??_C@_08HGJHKPAI@LOOPCALL?$AA@ 000000018009da98     truetype.obj
 0002:00022aa4       ??_C@_03PDGGAEEL@UTP?$AA@  000000018009daa4     truetype.obj
 0002:00022aa8       ??_C@_07JHECGAFL@INS_$28?$AA@ 000000018009daa8     truetype.obj
 0002:00022ab0       ??_C@_08ELKIDBEA@AlignPTS?$AA@ 000000018009dab0     truetype.obj
 0002:00022abc       ??_C@_06JIJONOKJ@MINDEX?$AA@ 000000018009dabc     truetype.obj
 0002:00022ac4       ??_C@_06MIKBKFPE@CINDEX?$AA@ 000000018009dac4     truetype.obj
 0002:00022acc       ??_C@_05NCPPINNM@DEPTH?$AA@ 000000018009dacc     truetype.obj
 0002:00022ad4       ??_C@_04NLFHDAEB@SWAP?$AA@ 000000018009dad4     truetype.obj
 0002:00022adc       ??_C@_05PONODPI@CLEAR?$AA@ 000000018009dadc     truetype.obj
 0002:00022ae4       ??_C@_03NEMLLIOI@POP?$AA@  000000018009dae4     truetype.obj
 0002:00022ae8       ??_C@_03BKABFOIG@DUP?$AA@  000000018009dae8     truetype.obj
 0002:00022aec       ??_C@_03JMADNLNF@SSW?$AA@  000000018009daec     truetype.obj
 0002:00022af0       ??_C@_05ILJPOKEM@SSwCi?$AA@ 000000018009daf0     truetype.obj
 0002:00022af8       ??_C@_06NHMMFIE@SCvTCi?$AA@ 000000018009daf8     truetype.obj
 0002:00022b00       ??_C@_04KGNBNJIM@JMPR?$AA@ 000000018009db00     truetype.obj
 0002:00022b08       ??_C@_04JLPIBDPH@ELSE?$AA@ 000000018009db08     truetype.obj
 0002:00022b10       ??_C@_03OLFEBEDN@SMD?$AA@  000000018009db10     truetype.obj
 0002:00022b14       ??_C@_04PONAAJAG@RTHG?$AA@ 000000018009db14     truetype.obj
 0002:00022b1c       ??_C@_03GLDCLIGE@RTG?$AA@  000000018009db1c     truetype.obj
 0002:00022b20       ??_C@_05FLCOEOIP@SLOOP?$AA@ 000000018009db20     truetype.obj
 0002:00022b28       ??_C@_04BPPEHCBI@SZPS?$AA@ 000000018009db28     truetype.obj
 0002:00022b30       ??_C@_04GDBCCIPO@SZP2?$AA@ 000000018009db30     truetype.obj
 0002:00022b38       ??_C@_04EIDPHLDN@SZP1?$AA@ 000000018009db38     truetype.obj
 0002:00022b40       ??_C@_04FBCEEKHM@SZP0?$AA@ 000000018009db40     truetype.obj
 0002:00022b48       ??_C@_04KGKGAABB@SRP2?$AA@ 000000018009db48     truetype.obj
 0002:00022b50       ??_C@_04INILFDNC@SRP1?$AA@ 000000018009db50     truetype.obj
 0002:00022b58       ??_C@_04JEJAGCJD@SRP0?$AA@ 000000018009db58     truetype.obj
 0002:00022b60       ??_C@_05BJBILDCF@ISECT?$AA@ 000000018009db60     truetype.obj
 0002:00022b68       ??_C@_06IOILEHIA@SFvTPv?$AA@ 000000018009db68     truetype.obj
 0002:00022b70       ??_C@_03EAIOELMH@GFV?$AA@  000000018009db70     truetype.obj
 0002:00022b74       ??_C@_03FICFJEAF@GPV?$AA@  000000018009db74     truetype.obj
 0002:00022b78       ??_C@_05LIEBIJEJ@SFvFS?$AA@ 000000018009db78     truetype.obj
 0002:00022b80       ??_C@_05FHOBOLGL@SPvFS?$AA@ 000000018009db80     truetype.obj
 0002:00022b88       ??_C@_07OJLIEPCL@SFvTL?5?$CL?$AA@ 000000018009db88     truetype.obj
 0002:00022b90       ??_C@_08EGCMEPMA@SFvTL?5?$HM?$HM?$AA@ 000000018009db90     truetype.obj
 0002:00022ba0       ??_C@_07ONLGOGNP@SPvTL?5?$CL?$AA@ 000000018009dba0     truetype.obj
 0002:00022ba8       ??_C@_08PMPIHHGM@SPvTL?5?$HM?$HM?$AA@ 000000018009dba8     truetype.obj
 0002:00022bb8       ??_C@_08EGCMFKKH@SFvTCA?5x?$AA@ 000000018009dbb8     truetype.obj
 0002:00022bc8       ??_C@_08FPDHGLOG@SFvTCA?5y?$AA@ 000000018009dbc8     truetype.obj
 0002:00022bd8       ??_C@_08PMPIGCAL@SPvTCA?5x?$AA@ 000000018009dbd8     truetype.obj
 0002:00022be8       ??_C@_08OFODFDEK@SPvTCA?5y?$AA@ 000000018009dbe8     truetype.obj
 0002:00022bf8       ??_C@_07HFDOOKAA@SVTCA?5x?$AA@ 000000018009dbf8     truetype.obj
 0002:00022c00       ??_C@_07GMCFNLEB@SVTCA?5y?$AA@ 000000018009dc00     truetype.obj
 0002:00022c08       ??_C@_07CDLHCBDE@tt?9glyf?$AA@ 000000018009dc08     truetype.obj
 0002:00022c10       ??_C@_0O@DHADKGAK@multi?9masters?$AA@ 000000018009dc10     truetype.obj
 0002:00022c20       ??_C@_08KJILHNAM@TrueType?$AA@ 000000018009dc20     truetype.obj
 0002:00022c30       ??_C@_0BE@OJJAFABD@interpreter?9version?$AA@ 000000018009dc30     truetype.obj
 0002:00022c48       ??_C@_0CI@DFPMECGB@tt_property_set?3?5missing?5propert@ 000000018009dc48     truetype.obj
 0002:00022c70       ??_C@_0EG@LGFIJBIJ@m?3?2svn?2?4private?2mini?2umodsys?2dep@ 000000018009dc70     truetype.obj
 0002:00022cb8       ??_C@_0CI@CIHEGHMF@tt_property_get?3?5missing?5propert@ 000000018009dcb8     truetype.obj
 0002:00022ce0       ??_C@_0L@CFBNLPCP@Locations?5?$AA@ 000000018009dce0     truetype.obj
 0002:00022cf0       ??_C@_0EF@LJEDHFOJ@m?3?2svn?2?4private?2mini?2umodsys?2dep@ 000000018009dcf0     truetype.obj
 0002:00022d38       ??_C@_0BB@PLONJGLO@table?5too?5large?6?$AA@ 000000018009dd38     truetype.obj
 0002:00022d50       ??_C@_0CL@FKGHPAON@glyph?5count?5mismatch?$CB?5?5loca?3?5?$CFd?0@ 000000018009dd50     truetype.obj
 0002:00022d80       ??_C@_0BP@GGFJPGKJ@adjusting?5num_locations?5to?5?$CFd?6?$AA@ 000000018009dd80     truetype.obj
 0002:00022da0       ??_C@_07HGLECIFL@loaded?6?$AA@ 000000018009dda0     truetype.obj
 0002:00022db0       ??_C@_0HB@MOHDECEE@tt_face_get_location?3?5too?5large?5@ 000000018009ddb0     truetype.obj
 0002:00022e30       ??_C@_0HD@OBNBPFBE@tt_face_get_location?3?5too?5large?5@ 000000018009de30     truetype.obj
 0002:00022ea4       ??_C@_04DGNJNIML@CVT?5?$AA@ 000000018009dea4     truetype.obj
 0002:00022eb0       ??_C@_0M@NDFOJALC@is?5missing?6?$AA@ 000000018009deb0     truetype.obj
 0002:00022ec0       ??_C@_0O@NNKDKBGN@Font?5program?5?$AA@ 000000018009dec0     truetype.obj
 0002:00022ed0       ??_C@_0BE@JCLFNPKA@loaded?0?5?$CF12d?5bytes?6?$AA@ 000000018009ded0     truetype.obj
 0002:00022ee8       ??_C@_0O@HBLDMHJP@Prep?5program?5?$AA@ 000000018009dee8     truetype.obj
 0002:00022ef8       ??_C@_0CC@GHKIDEOD@?5?5advance?5width?5?$CIfont?5units?$CJ?3?5?$CFd@ 000000018009def8     truetype.obj
 0002:00022f20       ??_C@_0CG@BOBMINFM@?5?5left?5side?5bearing?5?$CIfont?5units?$CJ@ 000000018009df20     truetype.obj
 0002:00022f48       ??_C@_0CD@EFKKHLDJ@?5?5advance?5height?5?$CIfont?5units?$CJ?3?5?$CF@ 000000018009df48     truetype.obj
 0002:00022f70       ??_C@_0CF@OJHICLND@?5?5top?5side?5bearing?5?$CIfont?5units?$CJ?3@ 000000018009df70     truetype.obj
 0002:00022f98       ??_C@_0L@CCJFCGJC@Glyph?5?$CFld?6?$AA@ 000000018009df98     truetype.obj
 0002:00022fb0       ??_C@_0EF@MPDNENNL@m?3?2svn?2?4private?2mini?2umodsys?2dep@ 000000018009dfb0     truetype.obj
 0002:00022ff8       ??_C@_0BF@FFONIHL@?5?5?$CD?5of?5contours?3?5?$CFd?6?$AA@ 000000018009dff8     truetype.obj
 0002:00023010       ??_C@_0BI@PLPDCJI@?5?5xMin?3?5?$CF4d?5?5xMax?3?5?$CF4d?6?$AA@ 000000018009e010     truetype.obj
 0002:00023028       ??_C@_0BI@NJBJIJJI@?5?5yMin?3?5?$CF4d?5?5yMax?3?5?$CF4d?6?$AA@ 000000018009e028     truetype.obj
 0002:00023040       ??_C@_0BJ@KHGEHEJ@?5?5Instructions?5size?3?5?$CFu?6?$AA@ 000000018009e040     truetype.obj
 0002:00023060       ??_C@_0DC@NGIDIKJC@TT_Load_Simple_Glyph?3?5too?5many?5i@ 000000018009e060     truetype.obj
 0002:00023098       ??_C@_0DC@CHNDPNNA@TT_Load_Simple_Glyph?3?5instructio@ 000000018009e098     truetype.obj
 0002:000230d0       ??_C@_0CG@KJHFMCEP@TT_Hint_Glyph?3?5too?5long?5instruct@ 000000018009e0d0     truetype.obj
 0002:000230f8       ??_C@_0BL@GDFCBPID@?$CI0x?$CFlx?5byte?$CJ?5is?5truncated?6?$AA@ 000000018009e0f8     truetype.obj
 0002:00023118       ??_C@_0BK@MIKHNDME@?5?5Instructions?5size?5?$DN?5?$CFd?6?$AA@ 000000018009e118     truetype.obj
 0002:00023140       ??_C@_0FB@OKBIEGNL@TT_Process_Composite_Glyph?3?5too?5@ 000000018009e140     truetype.obj
 0002:00023198       ??_C@_0CL@BHCGKAAL@no?5?$GAglyf?8?5table?5but?5non?9zero?5?$GAlo@ 000000018009e198     truetype.obj
 0002:000231c8       ??_C@_0DN@PGFMAJDA@tt_loader_init?3?5grayscale?5change@ 000000018009e1c8     truetype.obj
 0002:00023208       ??_C@_0CO@PBELKMDA@tt_loader_init?3?5could?5not?5access@ 000000018009e208     truetype.obj
 0002:00023238       ??_C@_07JBKHDJHE@?4notdef?$AA@ 000000018009e238     truetype.obj
 0002:00023240       ??_C@_0M@LFDIHEDK@TTF?5driver?6?$AA@ 000000018009e240     truetype.obj
 0002:00023250       ??_C@_0CL@KIBGNAPO@tt_face_init?3?5cannot?5access?5?$GAsfn@ 000000018009e250     truetype.obj
 0002:00023280       ??_C@_0EE@FAKMHEPJ@m?3?2svn?2?4private?2mini?2umodsys?2dep@ 000000018009e280     truetype.obj
 0002:000232c8       ??_C@_0BC@JJINPPGC@?5?5not?5a?5TTF?5font?6?$AA@ 000000018009e2c8     truetype.obj
 0002:000232e0       ??_C@_0GI@MMCLBIDK@tt_face_init?3?5Only?5the?5?$GA?4notdef?8@ 000000018009e2e0     truetype.obj
 0002:00023348       ??_C@_0BJ@PGIACECH@Executing?5?$GAfpgm?8?5table?4?6?$AA@ 000000018009e348     truetype.obj
 0002:00023368       ??_C@_0BJ@IBPFPBOF@Executing?5?$GAprep?8?5table?4?6?$AA@ 000000018009e368     truetype.obj
 0002:00023390       ??_C@_0EG@JHIBFMJI@m?3?2svn?2?4private?2mini?2umodsys?2dep@ 000000018009e390     truetype.obj
 0002:000233d8       ??_C@_0CE@KIKCADGJ@Init_Context?3?5new?5object?5at?50x?$CF0@ 000000018009e3d8     truetype.obj
 0002:00023400       ??_C@_0CI@NMCPIOBJ@Init_Context?3?5not?5enough?5memory?5@ 000000018009e400     truetype.obj
 0002:00023428       ??_C@_02KNHHEEKP@?5?5?$AA@ 000000018009e428     truetype.obj
 0002:00023430       ??_C@_0CH@EDANKCMM@?5?5The?5interpreter?5returned?5error@ 000000018009e430     truetype.obj
 0002:00023460       ??_C@_0EF@NAHKOBG@m?3?2svn?2?4private?2mini?2umodsys?2dep@ 000000018009e460     truetype.obj
 0002:000234a8       ??_C@_05IBAMDCFI@Width?$AA@ 000000018009e4a8     truetype.obj
 0002:000234b0       ??_C@_0M@EDHPABCB@OpticalSize?$AA@ 000000018009e4b0     truetype.obj
 0002:000234bc       ??_C@_05BCGFHEPH@Slant?$AA@ 000000018009e4bc     truetype.obj
 0002:000234c4       ??_C@_05KJLGPNNB@CVAR?5?$AA@ 000000018009e4c4     truetype.obj
 0002:000234d0       ??_C@_0CG@BFBCJJHP@tt_face_vary_cvt?3?5no?5blend?5speci@ 000000018009e4d0     truetype.obj
 0002:000234f8       ??_C@_0CD@KMMHMBPJ@tt_face_vary_cvt?3?5no?5?$GAcvt?5?8?5tabl@ 000000018009e4f8     truetype.obj
 0002:00023520       ??_C@_0BD@DHGNCPNC@bad?5table?5version?6?$AA@ 000000018009e520     truetype.obj
 0002:00023534       ??_C@_06JCBOBHIA@Type?51?$AA@ 000000018009e534     type1.obj
 0002:00023540       ??_C@_0P@KEOGGALI@BuildCharArray?$AA@ 000000018009e540     type1.obj
 0002:00023550       ??_C@_0N@PGGOPDKP@DesignVector?$AA@ 000000018009e550     type1.obj
 0002:00023560       ??_C@_03MMGIAIPO@CDV?$AA@  000000018009e560     type1.obj
 0002:00023564       ??_C@_03DOACNACD@NDV?$AA@  000000018009e564     type1.obj
 0002:00023570       ??_C@_0EC@OEEOHLM@m?3?2svn?2?4private?2mini?2umodsys?2dep@ 000000018009e570     type1.obj
 0002:000235b8       ??_C@_0P@EMKCEFJO@?$CF?$CBPS?9AdobeFont?$AA@ 000000018009e5b8     type1.obj
 0002:000235c8       ??_C@_0L@LLIKMEDC@?$CF?$CBFontType?$AA@ 000000018009e5c8     type1.obj
 0002:000235d8       ??_C@_0BF@OBJOOMFD@?5?5not?5a?5Type?51?5font?6?$AA@ 000000018009e5d8     type1.obj
 0002:000235f0       ??_C@_0DJ@DIIACHLF@T1_Get_Private_Dict?3?5invalid?5pri@ 000000018009e5f0     type1.obj
 0002:00023630       ??_C@_0DF@JKCBBGLP@T1_Get_Private_Dict?3?5could?5not?5f@ 000000018009e630     type1.obj
 0002:00023668       ??_C@_05OJJBIBFE@eexec?$AA@ 000000018009e668     type1.obj
 0002:00023670       ??_C@_0DG@KENEOBOK@T1_Get_Private_Dict?3?5?$GAeexec?8?5not@ 000000018009e670     type1.obj
 0002:000236b0       ??_C@_0EB@CDGPIDN@m?3?2svn?2?4private?2mini?2umodsys?2dep@ 000000018009e6b0     type1.obj
 0002:000236f8       ??_C@_0DG@FDPLANGL@parse_blend_axis_types?3?5incorrec@ 000000018009e6f8     type1.obj
 0002:00023730       ??_C@_0DP@NHOIKMJF@parse_blend_design_positions?3?5in@ 000000018009e730     type1.obj
 0002:00023770       ??_C@_0DK@HLHOOLOJ@parse_blend_design_positions?3?5in@ 000000018009e770     type1.obj
 0002:000237b0       ??_C@_0CP@EKOMBMEB@parse_blend_design_positions?3?5in@ 000000018009e7b0     type1.obj
 0002:000237e0       ??_C@_0DG@CDNMPEHM@parse_blend_design_map?3?5incorrec@ 000000018009e7e0     type1.obj
 0002:00023818       ??_C@_0CJ@LFJMHIAI@parse_blend_design_map?3?5incorrec@ 000000018009e818     type1.obj
 0002:00023848       ??_C@_0DG@GHJNDPMD@parse_weight_vector?3?5incorrect?5n@ 000000018009e848     type1.obj
 0002:00023880       ??_C@_0HE@IECMEGI@parse_weight_vector?3?5?1BlendDesig@ 000000018009e880     type1.obj
 0002:00023900       ??_C@_0HN@DGGMHBJP@t1_load_keyword?3?5ignoring?5keywor@ 000000018009e900     type1.obj
 0002:00023980       ??_C@_0CG@MFJIEGCO@read_binary_data?3?5invalid?5size?5f@ 000000018009e980     type1.obj
 0002:000239a8       ??_C@_0CL@EBDFOJAM@t1_parse_font_matrix?3?5invalid?5fo@ 000000018009e9a8     type1.obj
 0002:000239d8       ??_C@_0BP@KLKHBNPG@parse_encoding?3?5out?5of?5bounds?6?$AA@ 000000018009e9d8     type1.obj
 0002:000239f8       ??_C@_0O@NFMFMIMO@encoding?5end?6?$AA@ 000000018009e9f8     type1.obj
 0002:00023a08       ??_C@_0BB@MLEHKAJM@StandardEncoding?$AA@ 000000018009ea08     type1.obj
 0002:00023a20       ??_C@_0P@LHOFAKJ@ExpertEncoding?$AA@ 000000018009ea20     type1.obj
 0002:00023a30       ??_C@_0BC@OHHLKLPP@ISOLatin1Encoding?$AA@ 000000018009ea30     type1.obj
 0002:00023a44       ??_C@_03BHPKJDPK@dup?$AA@  000000018009ea44     type1.obj
 0002:00023a48       ??_C@_03KMONJGDG@put?$AA@  000000018009ea48     type1.obj
 0002:00023a50       ??_C@_09BJJLCLMA@closefile?$AA@ 000000018009ea50     type1.obj
 0002:00023a60       ??_C@_0O@CJLBGMNG@FontDirectory?$AA@ 000000018009ea60     type1.obj
 0002:00023a70       ??_C@_0EM@IJFOPHMP@parse_dict?3?5found?5?$GA?$CFs?8?5but?5ignor@ 000000018009ea70     type1.obj
 0002:00023ac0       ??_C@_0EM@IIPFEHK@T1_Open_Face?$CI?$CJ?3?5?1DesignVector?5co@ 000000018009eac0     type1.obj
 0002:00023b10       ??_C@_0CO@OLOEBBAC@T1_Open_Face?3?5cannot?5allocate?5Bu@ 000000018009eb10     type1.obj
 0002:00023b40       ??_C@_0CP@DEPHJMKA@T1_Open_Face?3?5no?5?$GA?1CharStrings?8?5@ 000000018009eb40     type1.obj
 0002:00023b70       ??_C@_0EB@DFFOKPEJ@m?3?2svn?2?4private?2mini?2umodsys?2dep@ 000000018009eb70     type1.obj
 0002:00023bb8       ??_C@_0CM@LOPNIGHG@T1_Face_Init?3?5cannot?5access?5?$GApsa@ 000000018009ebb8     type1.obj
 0002:00023be8       ??_C@_0P@DGPEMFJJ@Type?51?5driver?6?$AA@ 000000018009ebe8     type1.obj
 0002:00023bf8       ??_C@_0CC@BMKDPKIC@T1_Face_Init?3?5invalid?5face?5index@ 000000018009ebf8     type1.obj
 0002:00023c20       ??_C@_0EC@EDJAMIM@m?3?2svn?2?4private?2mini?2umodsys?2dep@ 000000018009ec20     type1.obj
 0002:00023c70       ??_C@_0EA@EMFCPAGI@m?3?2svn?2?4private?2mini?2umodsys?2dep@ 000000018009ec70     type1.obj
 0002:00023cb0       ??_C@_07GJBALKN@Type?542?$AA@ 000000018009ecb0     type42.obj
 0002:00023cb8       ??_C@_05FJOKMJFH@sfnts?$AA@ 000000018009ecb8     type42.obj
 0002:00023cc0       ??_C@_0CK@JKHMFEOJ@T42_Open_Face?3?5cannot?5handle?5Fon@ 000000018009ecc0     type42.obj
 0002:00023cf0       ??_C@_0ED@EBKIPJHE@m?3?2svn?2?4private?2mini?2umodsys?2dep@ 000000018009ecf0     type42.obj
 0002:00023d38       ??_C@_0CN@MCPPGLNG@T42_Open_Face?3?5no?5charstrings?5ar@ 000000018009ed38     type42.obj
 0002:00023d68       ??_C@_0CN@MAKIMJMP@T42_Face_Init?3?5cannot?5access?5?$GAps@ 000000018009ed68     type42.obj
 0002:00023d98       ??_C@_0BA@DPJJGDHJ@Type?542?5driver?6?$AA@ 000000018009ed98     type42.obj
 0002:00023da8       ??_C@_0CD@PBHBCFME@T42_Face_Init?3?5invalid?5face?5inde@ 000000018009eda8     type42.obj
 0002:00023dd0       ??_C@_0DC@FAIOLLMM@T42_Driver_Init?3?5cannot?5access?5?$GA@ 000000018009edd0     type42.obj
 0002:00023e08       ??_C@_0BC@IJJLOJBO@?$CF?$CBPS?9TrueTypeFont?$AA@ 000000018009ee08     type42.obj
 0002:00023e20       ??_C@_0BF@JODNPIMN@?5?5not?5a?5Type42?5font?6?$AA@ 000000018009ee20     type42.obj
 0002:00023e40       ??_C@_0EE@FGFIFNPL@m?3?2svn?2?4private?2mini?2umodsys?2dep@ 000000018009ee40     type42.obj
 0002:00023e88       ??_C@_0CD@GEPNNAKD@t42_parse_encoding?3?5out?5of?5bound@ 000000018009ee88     type42.obj
 0002:00023eb0       ??_C@_0CD@IHAONGOM@t42_parse_encoding?3?5invalid?5toke@ 000000018009eeb0     type42.obj
 0002:00023ed8       ??_C@_0DD@OGBHJDN@t42_parse_sfnts?3?5can?8t?5find?5begi@ 000000018009eed8     type42.obj
 0002:00023f10       ??_C@_0DM@KBNPAEAA@t42_parse_sfnts?3?5can?8t?5handle?5mi@ 000000018009ef10     type42.obj
 0002:00023f50       ??_C@_0CG@CHKPOLCH@t42_parse_sfnts?3?5invalid?5string?5@ 000000018009ef50     type42.obj
 0002:00023f78       ??_C@_0CH@EPBHFNII@t42_parse_sfnts?3?5too?5many?5binary@ 000000018009ef78     type42.obj
 0002:00023fa0       ??_C@_0CO@PMKANJDE@t42_parse_sfnts?3?5invalid?5data?5in@ 000000018009efa0     type42.obj
 0002:00023fd0       ??_C@_0CB@NDOOGBOD@t42_parse_sfnts?3?5invalid?5string?6@ 000000018009efd0     type42.obj
 0002:00023ff8       ??_C@_0CG@HLGHJJOG@t42_parse_charstrings?3?5out?5of?5bo@ 000000018009eff8     type42.obj
 0002:00024020       ??_C@_0CG@JIJEJPKJ@t42_parse_charstrings?3?5invalid?5t@ 000000018009f020     type42.obj
 0002:00024048       ??_C@_0CK@PFGHLDNE@t42_parse_charstrings?3?5no?5?1?4notd@ 000000018009f048     type42.obj
 0002:00024074       ??_C@_05MDIJLHEA@known?$AA@ 000000018009f074     type42.obj
 0002:00024080       ??_C@_0CO@DPDMDGBM@?4?4?2?4?4?2?4?4?2depends?2freetype?2src?2bz@ 000000018009f080     ftbzip2.obj
 0002:000240b0       ??_C@_0CI@CGMOPDPD@oversubscribed?5dynamic?5bit?5lengt@ 000000018009f0b0     ftgzip.obj
 0002:000240d8       ??_C@_0CE@LOHAHEGK@incomplete?5dynamic?5bit?5lengths?5t@ 000000018009f0d8     ftgzip.obj
 0002:00024100       ??_C@_0CD@GJIDGCKE@oversubscribed?5literal?1length?5tr@ 000000018009f100     ftgzip.obj
 0002:00024128       ??_C@_0BP@NEEEJJNA@incomplete?5literal?1length?5tree?$AA@ 000000018009f128     ftgzip.obj
 0002:00024148       ??_C@_0BN@KBLCDIAI@oversubscribed?5distance?5tree?$AA@ 000000018009f148     ftgzip.obj
 0002:00024168       ??_C@_0BJ@CBCPDPJF@incomplete?5distance?5tree?$AA@ 000000018009f168     ftgzip.obj
 0002:00024188       ??_C@_0CB@KPKKKLFO@empty?5distance?5tree?5with?5lengths@ 000000018009f188     ftgzip.obj
 0002:000241b0       ??_C@_0BM@FFFLPBBC@invalid?5literal?1length?5code?$AA@ 000000018009f1b0     ftgzip.obj
 0002:000241d0       ??_C@_0BG@LBKINIKP@invalid?5distance?5code?$AA@ 000000018009f1d0     ftgzip.obj
 0002:000241e8       ??_C@_0BD@PJCBIDD@invalid?5block?5type?$AA@ 000000018009f1e8     ftgzip.obj
 0002:00024200       ??_C@_0BN@LGAADGOK@invalid?5stored?5block?5lengths?$AA@ 000000018009f200     ftgzip.obj
 0002:00024220       ??_C@_0CE@GMIGFPBB@too?5many?5length?5or?5distance?5symb@ 000000018009f220     ftgzip.obj
 0002:00024248       ??_C@_0BK@BMMPFBBH@invalid?5bit?5length?5repeat?$AA@ 000000018009f248     ftgzip.obj
 0002:00024264       ??_C@_05DOIEBMOI@1?41?44?$AA@ 000000018009f264     ftgzip.obj
 0002:00024270       ??_C@_0BL@IHKGDAEE@unknown?5compression?5method?$AA@ 000000018009f270     ftgzip.obj
 0002:00024290       ??_C@_0BE@EMOGCLGO@invalid?5window?5size?$AA@ 000000018009f290     ftgzip.obj
 0002:000242a8       ??_C@_0BH@LIBMMIGA@incorrect?5header?5check?$AA@ 000000018009f2a8     ftgzip.obj
 0002:000242c0       ??_C@_0BA@MOKMMFOD@need?5dictionary?$AA@ 000000018009f2c0     ftgzip.obj
 0002:000242d0       ??_C@_0BF@MEIGEHBE@incorrect?5data?5check?$AA@ 000000018009f2d0     ftgzip.obj
 0002:000242e8       ??_C@_0CM@IHFAPBMM@?4?4?2?4?4?2?4?4?2depends?2freetype?2src?2gz@ 000000018009f2e8     ftgzip.obj
 0002:00024318       ??_C@_0CK@LPFNPKOO@?4?4?2?4?4?2?4?4?2depends?2freetype?2src?2lz@ 000000018009f318     ftlzw.obj
 0002:00024350       ??_C@_0EA@BKNCBLLI@m?3?2svn?2?4private?2mini?2umodsys?2dep@ 000000018009f350     ftlzw.obj
 0002:00024390       ??_C@_0M@FPCOPFGH@Windows?5FNT?$AA@ 000000018009f390     winfnt.obj
 0002:000243a0       ??_C@_08NAMFKPDH@winfonts?$AA@ 000000018009f3a0     winfnt.obj
 0002:000243b0       ??_C@_0BK@ICKIODJD@?5?5not?5a?5Windows?5FNT?5file?6?$AA@ 000000018009f3b0     winfnt.obj
 0002:000243d0       ??_C@_0DA@MMEHKCDL@?4?4?2?4?4?2?4?4?2depends?2freetype?2src?2wi@ 000000018009f3d0     winfnt.obj
 0002:00024400       ??_C@_0CB@EKJMPNAG@?$FLcan?8t?5handle?5vector?5FNT?5fonts?$FN?6@ 000000018009f400     winfnt.obj
 0002:00024428       ??_C@_0BE@GIKLCEAB@MZ?5signature?5found?6?$AA@ 000000018009f428     winfnt.obj
 0002:00024440       ??_C@_0BE@JHNPMEAP@NE?5signature?5found?6?$AA@ 000000018009f440     winfnt.obj
 0002:00024458       ??_C@_0CN@EJOGEPIK@this?5file?5doesn?8t?5contain?5any?5FN@ 000000018009f458     winfnt.obj
 0002:00024488       ??_C@_0BJ@HGIMDOPD@invalid?5number?5of?5faces?6?$AA@ 000000018009f488     winfnt.obj
 0002:000244a8       ??_C@_0BE@GOOBCEEN@PE?5signature?5found?6?$AA@ 000000018009f4a8     winfnt.obj
 0002:000244c0       ??_C@_0IK@JKJLNFFJ@magic?5?$CF04lx?0?5machine?5?$CF02x?0?5numbe@ 000000018009f4c0     winfnt.obj
 0002:00024550       ??_C@_0CE@LCFMCIAM@this?5file?5has?5an?5invalid?5PE?5head@ 000000018009f550     winfnt.obj
 0002:00024578       ??_C@_0CP@OECOELNO@name?5?$CF?48s?0?5va?5?$CF04lx?0?5size?5?$CF04lx?0@ 000000018009f578     winfnt.obj
 0002:000245a8       ??_C@_0CJ@JJKGIDAB@this?5file?5doesn?8t?5contain?5any?5re@ 000000018009f5a8     winfnt.obj
 0002:000245d8       ??_C@_0BO@GLDCMBH@found?5resources?5section?5?$CF?48s?6?$AA@ 000000018009f5d8     winfnt.obj
 0002:000245f8       ??_C@_0DD@JCCODEEE@found?5font?5?$CD?$CFlu?0?5offset?5?$CF04lx?0?5s@ 000000018009f5f8     winfnt.obj
 0002:00024630       ??_C@_0BJ@CKGBPFLK@font?5?$CD?$CFlu?5load?5error?5?$CFd?6?$AA@ 000000018009f630     winfnt.obj
 0002:00024650       ??_C@_0BP@JIBKMFEB@font?5?$CD?$CFlu?5successfully?5loaded?6?$AA@ 000000018009f650     winfnt.obj
 0002:00024670       ??_C@_0DB@PCIFMECM@this?5file?5doesn?8t?5contain?5any?5RT@ 000000018009f670     winfnt.obj
 0002:000246a8       ??_C@_0BE@DOCBHFBI@Windows?5FNT?5driver?6?$AA@ 000000018009f6a8     winfnt.obj
 0002:000246c0       ??_C@_0CI@KDIJKEBA@use?5pixel_height?5as?5the?5nominal?5@ 000000018009f6c0     winfnt.obj
 0002:000246e8       ??_C@_0BK@KFCFBMAC@invalid?5number?5of?5glyphs?6?$AA@ 000000018009f6e8     winfnt.obj
 0002:00024708       ??_C@_0BM@DBMALMDP@invalid?5family?5name?5offset?6?$AA@ 000000018009f708     winfnt.obj
 0002:00024728       ??_C@_0M@DFCIIFPB@Bold?5Italic?$AA@ 000000018009f728     winfnt.obj
 0002:00024738       ??_C@_0BE@CKOHBAHK@invalid?5FNT?5offset?6?$AA@ 000000018009f738     winfnt.obj
 0002:00024750       ??_C@_0BG@CNAIIIPE@invalid?5bitmap?5width?6?$AA@ 000000018009f750     winfnt.obj
 0002:00024768       __real@3f90000000000000    000000018009f768      CIL library: CIL module
 0002:00024770       __real@3ef0000000000000    000000018009f770      CIL library: CIL module
 0002:00024778       __real@408f400000000000    000000018009f778      CIL library: CIL module
 0002:00024780       __rtc_iaa                  000000018009f780     MSVCRT:_initsect_.obj
 0002:00024788       __rtc_izz                  000000018009f788     MSVCRT:_initsect_.obj
 0002:00024790       __rtc_taa                  000000018009f790     MSVCRT:_initsect_.obj
 0002:00024798       __rtc_tzz                  000000018009f798     MSVCRT:_initsect_.obj
 0002:0002fef8       __IMPORT_DESCRIPTOR_MSVCR90 00000001800aaef8     MSVCRT:MSVCR90.dll
 0002:0002ff0c       __IMPORT_DESCRIPTOR_KERNEL32 00000001800aaf0c     kernel32:KERNEL32.dll
 0002:0002ff20       __NULL_IMPORT_DESCRIPTOR   00000001800aaf20     MSVCRT:MSVCR90.dll
 0003:00000000       __native_dllmain_reason    00000001800ad000     MSVCRT:natstart.obj
 0003:00000004       __native_vcclrit_reason    00000001800ad004     MSVCRT:natstart.obj
 0003:00000008       __security_cookie          00000001800ad008     MSVCRT:gs_cookie.obj
 0003:00000010       __security_cookie_complement 00000001800ad010     MSVCRT:gs_cookie.obj
 0003:00000530       _fltused                   00000001800ad530     MSVCRT:dllsupp.obj
 0003:00000544       _forceCRTManifestRTM       00000001800ad544     MSVCRT:crtmanifestrtm.obj
 0003:00000548       ?__type_info_root_node@@3U__type_info_node@@A 00000001800ad548     MSVCRT:tncleanup.obj
 0003:00000558       __native_startup_state     00000001800ad558     <common>
 0003:00000560       __native_startup_lock      00000001800ad560     <common>
 0003:00000568       __onexitend                00000001800ad568     <common>
 0003:00000570       __onexitbegin              00000001800ad570     <common>
 0003:00000578       __dyn_tls_init_callback    00000001800ad578     <common>
 0003:00000580       ft_trace_levels            00000001800ad580     <common>

 entry point at        0001:000003f4

 Static symbols

 0001:00000000       pre_c_init                 0000000180001000 f   MSVCRT:crtdll.obj
 0001:000002bc       __DllMainCRTStartup        00000001800012bc f   MSVCRT:crtdll.obj
 0001:00000750       winfnt_get_header          0000000180001750 f    CIL library: CIL module
 0001:00000780       fnt_cmap_char_next         0000000180001780 f    CIL library: CIL module
 0001:000007c0       fnt_cmap_char_index        00000001800017c0 f    CIL library: CIL module
 0001:000007e0       fnt_cmap_init              00000001800017e0 f    CIL library: CIL module
 0001:00000810       winfnt_get_service         0000000180001810 f    CIL library: CIL module
 0001:00000830       fnt_font_done              0000000180001830 f    CIL library: CIL module
 0001:000008c0       FNT_Load_Glyph             00000001800018c0 f    CIL library: CIL module
 0001:00000b80       FNT_Face_Done              0000000180001b80 f    CIL library: CIL module
 0001:00000bd0       fnt_font_load              0000000180001bd0 f    CIL library: CIL module
 0001:00000d70       FNT_Size_Select            0000000180001d70 f    CIL library: CIL module
 0001:00000dd0       fnt_face_get_dll_font      0000000180001dd0 f    CIL library: CIL module
 0001:000017e0       FNT_Size_Request           00000001800027e0 f    CIL library: CIL module
 0001:000018a0       FNT_Face_Init              00000001800028a0 f    CIL library: CIL module
 0001:00001de0       ft_lzwstate_refill         0000000180002de0 f    CIL library: CIL module
 0001:00001e50       ft_lzw_file_reset          0000000180002e50 f    CIL library: CIL module
 0001:00001ea0       ft_lzw_file_done           0000000180002ea0 f    CIL library: CIL module
 0001:00001ed0       ft_lzw_check_header        0000000180002ed0 f    CIL library: CIL module
 0001:00001f30       ft_lzwstate_prefix_grow    0000000180002f30 f    CIL library: CIL module
 0001:00001fe0       ft_lzwstate_stack_grow     0000000180002fe0 f    CIL library: CIL module
 0001:00002090       ft_lzwstate_get_code       0000000180003090 f    CIL library: CIL module
 0001:000021b0       ft_lzw_stream_close        00000001800031b0 f    CIL library: CIL module
 0001:00002200       ft_lzw_file_init           0000000180003200 f    CIL library: CIL module
 0001:00002580       ft_lzw_file_skip_output    0000000180003580 f    CIL library: CIL module
 0001:00002640       ft_lzw_file_fill_output    0000000180003640 f    CIL library: CIL module
 0001:000026b0       ft_lzw_file_io             00000001800036b0 f    CIL library: CIL module
 0001:000027a0       ft_lzw_stream_io           00000001800037a0 f    CIL library: CIL module
 0001:00002890       adler32                    0000000180003890 f    CIL library: CIL module
 0001:00002a00       inflate_codes_free         0000000180003a00 f    CIL library: CIL module
 0001:00002a20       inflate_codes_new          0000000180003a20 f    CIL library: CIL module
 0001:00002a90       inflate_flush              0000000180003a90 f    CIL library: CIL module
 0001:00002bc0       inflate_trees_fixed        0000000180003bc0 f    CIL library: CIL module
 0001:00002bf0       huft_build                 0000000180003bf0 f    CIL library: CIL module
 0001:000030f0       ft_gzip_get_uncompressed_size 00000001800040f0 f    CIL library: CIL module
 0001:00003170       ft_gzip_file_fill_input    0000000180004170 f    CIL library: CIL module
 0001:00003240       ft_gzip_free               0000000180004240 f    CIL library: CIL module
 0001:00003250       ft_gzip_alloc              0000000180004250 f    CIL library: CIL module
 0001:00003270       inflate_blocks_reset       0000000180004270 f    CIL library: CIL module
 0001:00003300       inflate_codes              0000000180004300 f    CIL library: CIL module
 0001:00003870       inflate_trees_dynamic      0000000180004870 f    CIL library: CIL module
 0001:00003a30       inflate_trees_bits         0000000180004a30 f    CIL library: CIL module
 0001:00003b20       ft_gzip_check_header       0000000180004b20 f    CIL library: CIL module
 0001:00003ca0       zcfree                     0000000180004ca0 f    CIL library: CIL module
 0001:00003cb0       zcalloc                    0000000180004cb0 f    CIL library: CIL module
 0001:00003cc0       inflateReset               0000000180004cc0 f    CIL library: CIL module
 0001:00003d20       inflate_blocks_free        0000000180004d20 f    CIL library: CIL module
 0001:00003d70       inflate_blocks             0000000180004d70 f    CIL library: CIL module
 0001:00004780       inflate_blocks_new         0000000180005780 f    CIL library: CIL module
 0001:00004850       ft_gzip_file_reset         0000000180005850 f    CIL library: CIL module
 0001:000048d0       inflate                    00000001800058d0 f    CIL library: CIL module
 0001:00004d50       inflateEnd                 0000000180005d50 f    CIL library: CIL module
 0001:00004db0       ft_gzip_file_fill_output   0000000180005db0 f    CIL library: CIL module
 0001:00004e90       ft_gzip_file_done          0000000180005e90 f    CIL library: CIL module
 0001:00004ef0       inflateInit2_              0000000180005ef0 f    CIL library: CIL module
 0001:00004fe0       ft_gzip_stream_close       0000000180005fe0 f    CIL library: CIL module
 0001:00005030       ft_gzip_file_skip_output   0000000180006030 f    CIL library: CIL module
 0001:000050a0       ft_gzip_file_init          00000001800060a0 f    CIL library: CIL module
 0001:00005190       ft_gzip_file_io            0000000180006190 f    CIL library: CIL module
 0001:00005260       ft_gzip_stream_io          0000000180006260 f    CIL library: CIL module
 0001:000053e0       t42_ps_get_font_private    00000001800063e0 f    CIL library: CIL module
 0001:00005410       t42_ps_has_glyph_names     0000000180006410 f    CIL library: CIL module
 0001:00005420       t42_ps_get_font_extra      0000000180006420 f    CIL library: CIL module
 0001:00005440       t42_ps_get_font_info       0000000180006440 f    CIL library: CIL module
 0001:000054a0       t42_get_ps_font_name       00000001800064a0 f    CIL library: CIL module
 0001:000054b0       t42_get_name_index         00000001800064b0 f    CIL library: CIL module
 0001:00005550       t42_loader_init            0000000180006550 f    CIL library: CIL module
 0001:000055a0       t42_load_keyword           00000001800065a0 f    CIL library: CIL module
 0001:00005650       t42_is_space               0000000180006650 f    CIL library: CIL module
 0001:00005680       T42_Driver_Done            0000000180006680 f    CIL library: CIL module
 0001:00005690       T42_Get_Interface          0000000180006690 f    CIL library: CIL module
 0001:000056b0       t42_get_glyph_name         00000001800066b0 f    CIL library: CIL module
 0001:000056e0       t42_parse_dict             00000001800066e0 f    CIL library: CIL module
 0001:000058e0       t42_parse_charstrings      00000001800068e0 f    CIL library: CIL module
 0001:00005d90       t42_parse_font_matrix      0000000180006d90 f    CIL library: CIL module
 0001:00005ea0       t42_parser_done            0000000180006ea0 f    CIL library: CIL module
 0001:00005ef0       t42_glyphslot_clear        0000000180006ef0 f    CIL library: CIL module
 0001:00005fa0       T42_Size_Init              0000000180006fa0 f    CIL library: CIL module
 0001:00005fe0       T42_Driver_Init            0000000180006fe0 f    CIL library: CIL module
 0001:00006040       t42_loader_done            0000000180007040 f    CIL library: CIL module
 0001:000060b0       t42_parse_sfnts            00000001800070b0 f    CIL library: CIL module
 0001:000065a0       t42_parse_encoding         00000001800075a0 f    CIL library: CIL module
 0001:000069a0       t42_parser_init            00000001800079a0 f    CIL library: CIL module
 0001:00006b60       T42_GlyphSlot_Load         0000000180007b60 f    CIL library: CIL module
 0001:00006d30       T42_Size_Done              0000000180007d30 f    CIL library: CIL module
 0001:00006d80       T42_Open_Face              0000000180007d80 f    CIL library: CIL module
 0001:00007090       T42_Size_Select            0000000180008090 f    CIL library: CIL module
 0001:00007120       T42_GlyphSlot_Done         0000000180008120 f    CIL library: CIL module
 0001:00007140       T42_GlyphSlot_Init         0000000180008140 f    CIL library: CIL module
 0001:000071a0       T42_Size_Request           00000001800081a0 f    CIL library: CIL module
 0001:00007230       T42_Face_Done              0000000180008230 f    CIL library: CIL module
 0001:000073e0       T42_Face_Init              00000001800083e0 f    CIL library: CIL module
 0001:000077a0       T1_Get_Kerning             00000001800087a0 f    CIL library: CIL module
 0001:00007820       compare_kern_pairs         0000000180008820 f    CIL library: CIL module
 0001:00007850       t1_get_index               0000000180008850 f    CIL library: CIL module
 0001:00007920       Get_Kerning                0000000180008920 f    CIL library: CIL module
 0001:00007950       t1_ps_get_font_value       0000000180008950 f    CIL library: CIL module
 0001:000083d0       t1_ps_get_font_private     00000001800093d0 f    CIL library: CIL module
 0001:00008400       t1_ps_has_glyph_names      0000000180009400 f    CIL library: CIL module
 0001:00008410       t1_ps_get_font_extra       0000000180009410 f    CIL library: CIL module
 0001:00008430       t1_ps_get_font_info        0000000180009430 f    CIL library: CIL module
 0001:00008490       t1_get_ps_name             0000000180009490 f    CIL library: CIL module
 0001:000084a0       t1_get_name_index          00000001800094a0 f    CIL library: CIL module
 0001:00008510       T1_Driver_Done             0000000180009510 f    CIL library: CIL module
 0001:00008520       T1_Driver_Init             0000000180009520 f    CIL library: CIL module
 0001:00008530       T1_GlyphSlot_Done          0000000180009530 f    CIL library: CIL module
 0001:00008550       t1_init_loader             0000000180009550 f    CIL library: CIL module
 0001:000085c0       parse_private              00000001800095c0 f    CIL library: CIL module
 0001:000085d0       parse_buildchar            00000001800095d0 f    CIL library: CIL module
 0001:00008600       T1_Get_Track_Kerning       0000000180009600 f    CIL library: CIL module
 0001:000086d0       T1_Done_Metrics            00000001800096d0 f    CIL library: CIL module
 0001:00008730       T1_Parse_Glyph_And_Get_Char_String 0000000180009730 f    CIL library: CIL module
 0001:00008880       Get_Interface              0000000180009880 f    CIL library: CIL module
 0001:000088a0       t1_get_glyph_name          00000001800098a0 f    CIL library: CIL module
 0001:000088d0       T1_GlyphSlot_Init          00000001800098d0 f    CIL library: CIL module
 0001:00008930       T1_Size_Get_Globals_Funcs  0000000180009930 f    CIL library: CIL module
 0001:00008990       t1_parse_font_matrix       0000000180009990 f    CIL library: CIL module
 0001:00008b10       read_binary_data           0000000180009b10 f    CIL library: CIL module
 0001:00008be0       t1_load_keyword            0000000180009be0 f    CIL library: CIL module
 0001:00008dc0       T1_Done_Blend              0000000180009dc0 f    CIL library: CIL module
 0001:00008f50       T1_Set_MM_Blend            0000000180009f50 f    CIL library: CIL module
 0001:00009040       mm_weights_unmap           000000018000a040 f    CIL library: CIL module
 0001:00009180       mm_axis_unmap              000000018000a180 f    CIL library: CIL module
 0001:00009220       T1_Get_Multi_Master        000000018000a220 f    CIL library: CIL module
 0001:000092d0       T1_Finalize_Parser         000000018000a2d0 f    CIL library: CIL module
 0001:00009340       read_pfb_tag               000000018000a340 f    CIL library: CIL module
 0001:000093d0       T1_Read_PFM                000000018000a3d0 f    CIL library: CIL module
 0001:00009640       T1_Parse_Glyph             000000018000a640 f    CIL library: CIL module
 0001:000096a0       T1_Face_Done               000000018000a6a0 f    CIL library: CIL module
 0001:000098c0       T1_Size_Init               000000018000a8c0 f    CIL library: CIL module
 0001:00009920       T1_Size_Done               000000018000a920 f    CIL library: CIL module
 0001:00009960       t1_done_loader             000000018000a960 f    CIL library: CIL module
 0001:000099f0       parse_dict                 000000018000a9f0 f    CIL library: CIL module
 0001:00009e30       parse_charstrings          000000018000ae30 f    CIL library: CIL module
 0001:0000a4a0       parse_subrs                000000018000b4a0 f    CIL library: CIL module
 0001:0000a790       parse_encoding             000000018000b790 f    CIL library: CIL module
 0001:0000ac00       T1_Set_MM_Design           000000018000bc00 f    CIL library: CIL module
 0001:0000ad40       T1_Get_MM_Var              000000018000bd40 f    CIL library: CIL module
 0001:0000af70       t1_allocate_blend          000000018000bf70 f    CIL library: CIL module
 0001:0000b220       T1_Get_Private_Dict        000000018000c220 f    CIL library: CIL module
 0001:0000b6b0       check_type1_format         000000018000c6b0 f    CIL library: CIL module
 0001:0000b770       T1_Read_Metrics            000000018000c770 f    CIL library: CIL module
 0001:0000b9a0       T1_Load_Glyph              000000018000c9a0 f    CIL library: CIL module
 0001:0000be80       T1_Get_Advances            000000018000ce80 f    CIL library: CIL module
 0001:0000bff0       T1_Compute_Max_Advance     000000018000cff0 f    CIL library: CIL module
 0001:0000c160       T1_Size_Request            000000018000d160 f    CIL library: CIL module
 0001:0000c1c0       parse_weight_vector        000000018000d1c0 f    CIL library: CIL module
 0001:0000c360       parse_blend_design_map     000000018000d360 f    CIL library: CIL module
 0001:0000c610       parse_blend_design_positions 000000018000d610 f    CIL library: CIL module
 0001:0000c8b0       parse_blend_axis_types     000000018000d8b0 f    CIL library: CIL module
 0001:0000ca80       T1_Set_Var_Design          000000018000da80 f    CIL library: CIL module
 0001:0000caf0       T1_New_Parser              000000018000daf0 f    CIL library: CIL module
 0001:0000ccd0       T1_Open_Face               000000018000dcd0 f    CIL library: CIL module
 0001:0000d1a0       T1_Face_Init               000000018000e1a0 f    CIL library: CIL module
 0001:0000d5a0       Ins_GETINFO                000000018000e5a0 f    CIL library: CIL module
 0001:0000d600       _iup_worker_shift          000000018000e600 f    CIL library: CIL module
 0001:0000d680       Move_Zp2_Point             000000018000e680 f    CIL library: CIL module
 0001:0000d6f0       Ins_SCANTYPE               000000018000e6f0 f    CIL library: CIL module
 0001:0000d710       Ins_SCANCTRL               000000018000e710 f    CIL library: CIL module
 0001:0000d7d0       Ins_ROLL                   000000018000e7d0 f    CIL library: CIL module
 0001:0000d7f0       Project_y                  000000018000e7f0 f    CIL library: CIL module
 0001:0000d800       Project_x                  000000018000e800 f    CIL library: CIL module
 0001:0000d810       SetSuperRound              000000018000e810 f    CIL library: CIL module
 0001:0000d920       Round_Super_45             000000018000e920 f    CIL library: CIL module
 0001:0000d9b0       Round_Super                000000018000e9b0 f    CIL library: CIL module
 0001:0000da10       Round_To_Double_Grid       000000018000ea10 f    CIL library: CIL module
 0001:0000da50       Round_Up_To_Grid           000000018000ea50 f    CIL library: CIL module
 0001:0000da90       Round_Down_To_Grid         000000018000ea90 f    CIL library: CIL module
 0001:0000dad0       Round_To_Half_Grid         000000018000ead0 f    CIL library: CIL module
 0001:0000db10       Round_To_Grid              000000018000eb10 f    CIL library: CIL module
 0001:0000db50       Round_None                 000000018000eb50 f    CIL library: CIL module
 0001:0000db80       Direct_Move_Orig_Y         000000018000eb80 f    CIL library: CIL module
 0001:0000dba0       Direct_Move_Orig_X         000000018000eba0 f    CIL library: CIL module
 0001:0000dbc0       Direct_Move_Y              000000018000ebc0 f    CIL library: CIL module
 0001:0000dbe0       Direct_Move_X              000000018000ebe0 f    CIL library: CIL module
 0001:0000dc00       GetShortIns                000000018000ec00 f    CIL library: CIL module
 0001:0000dc30       Move_CVT                   000000018000ec30 f    CIL library: CIL module
 0001:0000dc50       Write_CVT                  000000018000ec50 f    CIL library: CIL module
 0001:0000dc70       Read_CVT                   000000018000ec70 f    CIL library: CIL module
 0001:0000dc90       TT_DotFix14                000000018000ec90 f    CIL library: CIL module
 0001:0000dd30       TT_MulFix14                000000018000ed30 f    CIL library: CIL module
 0001:0000dd90       TT_Save_Context            000000018000ed90 f    CIL library: CIL module
 0001:0000de20       tt_size_init               000000018000ee20 f    CIL library: CIL module
 0001:0000de50       tt_check_trickyness_family 000000018000ee50 f    CIL library: CIL module
 0001:0000dec0       load_sbit_image            000000018000eec0 f    CIL library: CIL module
 0001:0000dfd0       tt_prepare_zone            000000018000efd0 f    CIL library: CIL module
 0001:0000e050       translate_array            000000018000f050 f    CIL library: CIL module
 0001:0000e0a0       tt_get_metrics_incr_overrides 000000018000f0a0 f    CIL library: CIL module
 0001:0000e140       tt_face_get_device_metrics 000000018000f140 f    CIL library: CIL module
 0001:0000e1c0       tt_get_kerning             000000018000f1c0 f    CIL library: CIL module
 0001:0000e200       tt_done_blend              000000018000f200 f    CIL library: CIL module
 0001:0000e2e0       ft_var_apply_tuple         000000018000f2e0 f    CIL library: CIL module
 0001:0000e410       _iup_worker_interpolate    000000018000f410 f    CIL library: CIL module
 0001:0000e590       Ins_UTP                    000000018000f590 f    CIL library: CIL module
 0001:0000e610       Ins_IP                     000000018000f610 f    CIL library: CIL module
 0001:0000e920       Ins_ALIGNPTS               000000018000f920 f    CIL library: CIL module
 0001:0000ea00       Ins_ISECT                  000000018000fa00 f    CIL library: CIL module
 0001:0000ecb0       Ins_ALIGNRP                000000018000fcb0 f    CIL library: CIL module
 0001:0000ede0       Ins_MIRP                   000000018000fde0 f    CIL library: CIL module
 0001:0000f070       Ins_MDRP                   0000000180010070 f    CIL library: CIL module
 0001:0000f2d0       Ins_MIAP                   00000001800102d0 f    CIL library: CIL module
 0001:0000f460       Ins_MDAP                   0000000180010460 f    CIL library: CIL module
 0001:0000f530       Ins_MSIRP                  0000000180010530 f    CIL library: CIL module
 0001:0000f680       Ins_SHPIX                  0000000180010680 f    CIL library: CIL module
 0001:0000f790       Compute_Point_Displacement 0000000180010790 f    CIL library: CIL module
 0001:0000f970       Ins_FLIPRGOFF              0000000180010970 f    CIL library: CIL module
 0001:0000fa00       Ins_FLIPRGON               0000000180010a00 f    CIL library: CIL module
 0001:0000fa90       Ins_FLIPPT                 0000000180010a90 f    CIL library: CIL module
 0001:0000fb50       Ins_INSTCTRL               0000000180010b50 f    CIL library: CIL module
 0001:0000fbc0       Ins_SZPS                   0000000180010bc0 f    CIL library: CIL module
 0001:0000fd90       Ins_SZP2                   0000000180010d90 f    CIL library: CIL module
 0001:0000fed0       Ins_SZP1                   0000000180010ed0 f    CIL library: CIL module
 0001:00010000       Ins_SZP0                   0000000180011000 f    CIL library: CIL module
 0001:00010120       Ins_MD                     0000000180011120 f    CIL library: CIL module
 0001:000102c0       Ins_SCFS                   00000001800112c0 f    CIL library: CIL module
 0001:00010390       Ins_GC                     0000000180011390 f    CIL library: CIL module
 0001:00010430       Ins_PUSHW                  0000000180011430 f    CIL library: CIL module
 0001:000104c0       Ins_PUSHB                  00000001800114c0 f    CIL library: CIL module
 0001:00010560       Ins_NPUSHW                 0000000180011560 f    CIL library: CIL module
 0001:00010600       Ins_NPUSHB                 0000000180011600 f    CIL library: CIL module
 0001:000106a0       SkipCode                   00000001800116a0 f    CIL library: CIL module
 0001:00010760       Ins_MINDEX                 0000000180011760 f    CIL library: CIL module
 0001:00010800       Dual_Project               0000000180011800 f    CIL library: CIL module
 0001:00010830       Project                    0000000180011830 f    CIL library: CIL module
 0001:00010860       Compute_Round              0000000180011860 f    CIL library: CIL module
 0001:00010930       Direct_Move_Orig           0000000180011930 f    CIL library: CIL module
 0001:000109c0       Direct_Move                00000001800119c0 f    CIL library: CIL module
 0001:00010a60       Ins_Goto_CodeRange         0000000180011a60 f    CIL library: CIL module
 0001:00010b00       TT_Done_Context            0000000180011b00 f    CIL library: CIL module
 0001:00010bb0       TT_Clear_CodeRange         0000000180011bb0 f    CIL library: CIL module
 0001:00010be0       TT_Set_CodeRange           0000000180011be0 f    CIL library: CIL module
 0001:00010c10       TT_Goto_CodeRange          0000000180011c10 f    CIL library: CIL module
 0001:00010c80       tt_driver_done             0000000180011c80 f    CIL library: CIL module
 0001:00010cb0       tt_size_reset              0000000180011cb0 f    CIL library: CIL module
 0001:00010e40       tt_synth_sfnt_checksum     0000000180011e40 f    CIL library: CIL module
 0001:00010ef0       tt_glyphzone_done          0000000180011ef0 f    CIL library: CIL module
 0001:00010f90       compute_glyph_metrics      0000000180011f90 f    CIL library: CIL module
 0001:000111c0       TT_Load_Glyph_Header       00000001800121c0 f    CIL library: CIL module
 0001:000112e0       TT_Forget_Glyph_Frame      00000001800122e0 f    CIL library: CIL module
 0001:000112f0       TT_Access_Glyph_Frame      00000001800122f0 f    CIL library: CIL module
 0001:00011380       TT_Get_VMetrics            0000000180012380 f    CIL library: CIL module
 0001:00011410       TT_Get_HMetrics            0000000180012410 f    CIL library: CIL module
 0001:00011480       tt_face_free_hdmx          0000000180012480 f    CIL library: CIL module
 0001:000114d0       tt_face_load_prep          00000001800124d0 f    CIL library: CIL module
 0001:00011590       tt_face_load_fpgm          0000000180012590 f    CIL library: CIL module
 0001:00011650       tt_face_done_loca          0000000180012650 f    CIL library: CIL module
 0001:00011690       tt_face_get_location       0000000180012690 f    CIL library: CIL module
 0001:00011830       tt_face_load_loca          0000000180012830 f    CIL library: CIL module
 0001:00011aa0       tt_get_interface           0000000180012aa0 f    CIL library: CIL module
 0001:00011b20       tt_get_advances            0000000180012b20 f    CIL library: CIL module
 0001:00011be0       tt_property_get            0000000180012be0 f    CIL library: CIL module
 0001:00011c60       tt_property_set            0000000180012c60 f    CIL library: CIL module
 0001:00011cf0       TT_Get_MM_Var              0000000180012cf0 f    CIL library: CIL module
 0001:00012210       ft_var_load_gvar           0000000180013210 f    CIL library: CIL module
 0001:000124e0       ft_var_load_avar           00000001800134e0 f    CIL library: CIL module
 0001:000126d0       ft_var_readpackeddeltas    00000001800136d0 f    CIL library: CIL module
 0001:00012810       ft_var_readpackedpoints    0000000180013810 f    CIL library: CIL module
 0001:000129a0       Ins_UNKNOWN                00000001800139a0 f    CIL library: CIL module
 0001:00012aa0       Ins_IUP                    0000000180013aa0 f    CIL library: CIL module
 0001:00012ca0       Ins_SHZ                    0000000180013ca0 f    CIL library: CIL module
 0001:00012de0       Ins_SHC                    0000000180013de0 f    CIL library: CIL module
 0001:00012f40       Ins_SHP                    0000000180013f40 f    CIL library: CIL module
 0001:00013050       Ins_IDEF                   0000000180014050 f    CIL library: CIL module
 0001:00013150       Ins_LOOPCALL               0000000180014150 f    CIL library: CIL module
 0001:00013270       Ins_CALL                   0000000180014270 f    CIL library: CIL module
 0001:00013390       Ins_ENDF                   0000000180014390 f    CIL library: CIL module
 0001:00013420       Ins_FDEF                   0000000180014420 f    CIL library: CIL module
 0001:00013540       Ins_ELSE                   0000000180014540 f    CIL library: CIL module
 0001:00013590       Ins_IF                     0000000180014590 f    CIL library: CIL module
 0001:000135f0       Compute_Funcs              00000001800145f0 f    CIL library: CIL module
 0001:00013760       TT_Run_Context             0000000180014760 f    CIL library: CIL module
 0001:00013920       Update_Max                 0000000180014920 f    CIL library: CIL module
 0001:00013990       Init_Context               0000000180014990 f    CIL library: CIL module
 0001:00013a70       tt_slot_init               0000000180014a70 f    CIL library: CIL module
 0001:00013a90       tt_size_done_bytecode      0000000180014a90 f    CIL library: CIL module
 0001:00013b80       tt_face_done               0000000180014b80 f    CIL library: CIL module
 0001:00013c60       tt_check_single_notdef     0000000180014c60 f    CIL library: CIL module
 0001:00013d30       tt_get_sfnt_checksum       0000000180014d30 f    CIL library: CIL module
 0001:00013db0       tt_glyphzone_new           0000000180014db0 f    CIL library: CIL module
 0001:00013f10       TT_Hint_Glyph              0000000180014f10 f    CIL library: CIL module
 0001:00014250       TT_Load_Composite_Glyph    0000000180015250 f    CIL library: CIL module
 0001:000144d0       tt_get_metrics             00000001800154d0 f    CIL library: CIL module
 0001:00014560       tt_face_load_hdmx          0000000180015560 f    CIL library: CIL module
 0001:00014750       TT_Vary_Get_Glyph_Deltas   0000000180015750 f    CIL library: CIL module
 0001:00014da0       tt_face_vary_cvt           0000000180015da0 f    CIL library: CIL module
 0001:00015290       Normalize                  0000000180016290 f    CIL library: CIL module
 0001:00015320       Current_Ratio              0000000180016320 f    CIL library: CIL module
 0001:00015440       TT_Load_Context            0000000180016440 f    CIL library: CIL module
 0001:000158f0       tt_driver_init             00000001800168f0 f    CIL library: CIL module
 0001:00015940       tt_size_done               0000000180016940 f    CIL library: CIL module
 0001:00015980       tt_size_run_prep           0000000180016980 f    CIL library: CIL module
 0001:00015b30       tt_size_run_fpgm           0000000180016b30 f    CIL library: CIL module
 0001:00015cb0       tt_check_trickyness_sfnt_ids 0000000180016cb0 f    CIL library: CIL module
 0001:00015e50       TT_Process_Composite_Glyph 0000000180016e50 f    CIL library: CIL module
 0001:000160e0       TT_Process_Composite_Component 00000001800170e0 f    CIL library: CIL module
 0001:00016280       TT_Process_Simple_Glyph    0000000180017280 f    CIL library: CIL module
 0001:00016470       TT_Load_Simple_Glyph       0000000180017470 f    CIL library: CIL module
 0001:000168c0       tt_face_load_cvt           00000001800178c0 f    CIL library: CIL module
 0001:00016a20       tt_size_select             0000000180017a20 f    CIL library: CIL module
 0001:00016a80       TT_Set_MM_Blend            0000000180017a80 f    CIL library: CIL module
 0001:00016c50       Ins_SDPVTL                 0000000180017c50 f    CIL library: CIL module
 0001:00016d90       Ins_SxVTL                  0000000180017d90 f    CIL library: CIL module
 0001:00016e40       Move_CVT_Stretched         0000000180017e40 f    CIL library: CIL module
 0001:00016e90       Write_CVT_Stretched        0000000180017e90 f    CIL library: CIL module
 0001:00016ee0       Read_CVT_Stretched         0000000180017ee0 f    CIL library: CIL module
 0001:00016f20       Current_Ppem               0000000180017f20 f    CIL library: CIL module
 0001:00016f50       tt_check_trickyness        0000000180017f50 f    CIL library: CIL module
 0001:00016fa0       load_truetype_glyph        0000000180017fa0 f    CIL library: CIL module
 0001:000177c0       TT_Init_Glyph_Loading      00000001800187c0 f    CIL library: CIL module
 0001:00017810       tt_size_request            0000000180018810 f    CIL library: CIL module
 0001:000178d0       TT_Set_Var_Design          00000001800188d0 f    CIL library: CIL module
 0001:00017b10       Ins_DELTAC                 0000000180018b10 f    CIL library: CIL module
 0001:00017c60       Ins_DELTAP                 0000000180018c60 f    CIL library: CIL module
 0001:00017dc0       tt_face_init               0000000180018dc0 f    CIL library: CIL module
 0001:00019280       tt_size_init_bytecode      000000018001a280 f    CIL library: CIL module
 0001:000194b0       tt_size_ready_bytecode     000000018001a4b0 f    CIL library: CIL module
 0001:00019620       tt_loader_init             000000018001a620 f    CIL library: CIL module
 0001:00019880       TT_Load_Glyph              000000018001a880 f    CIL library: CIL module
 0001:00019b00       tt_glyph_load              000000018001ab00 f    CIL library: CIL module
 0001:00019bd0       ft_smooth_set_mode         000000018001abd0 f    CIL library: CIL module
 0001:00019bf0       ft_smooth_init             000000018001abf0 f    CIL library: CIL module
 0001:00019c30       gray_raster_reset          000000018001ac30 f    CIL library: CIL module
 0001:00019c90       gray_render_span           000000018001ac90 f    CIL library: CIL module
 0001:00019db0       gray_split_cubic           000000018001adb0 f    CIL library: CIL module
 0001:00019e90       gray_split_conic           000000018001ae90 f    CIL library: CIL module
 0001:00019f00       gray_find_cell             000000018001af00 f    CIL library: CIL module
 0001:00019fa0       gray_compute_cbox          000000018001afa0 f    CIL library: CIL module
 0001:0001a040       gray_init_cells            000000018001b040 f    CIL library: CIL module
 0001:0001a080       ft_smooth_render_generic   000000018001b080 f    CIL library: CIL module
 0001:0001a580       ft_smooth_get_cbox         000000018001b580 f    CIL library: CIL module
 0001:0001a5c0       gray_raster_done           000000018001b5c0 f    CIL library: CIL module
 0001:0001a5e0       gray_raster_new            000000018001b5e0 f    CIL library: CIL module
 0001:0001a630       gray_hline                 000000018001b630 f    CIL library: CIL module
 0001:0001a810       gray_record_cell           000000018001b810 f    CIL library: CIL module
 0001:0001a850       ft_smooth_render_lcd_v     000000018001b850 f    CIL library: CIL module
 0001:0001a880       ft_smooth_render_lcd       000000018001b880 f    CIL library: CIL module
 0001:0001a8b0       ft_smooth_render           000000018001b8b0 f    CIL library: CIL module
 0001:0001a8e0       gray_convert_glyph_inner   000000018001b8e0 f    CIL library: CIL module
 0001:0001a970       gray_sweep                 000000018001b970 f    CIL library: CIL module
 0001:0001ab80       gray_set_cell              000000018001bb80 f    CIL library: CIL module
 0001:0001ac20       ft_smooth_transform        000000018001bc20 f    CIL library: CIL module
 0001:0001aca0       gray_convert_glyph         000000018001bca0 f    CIL library: CIL module
 0001:0001b0e0       gray_render_scanline       000000018001c0e0 f    CIL library: CIL module
 0001:0001b2d0       gray_start_cell            000000018001c2d0 f    CIL library: CIL module
 0001:0001b320       gray_raster_render         000000018001c320 f    CIL library: CIL module
 0001:0001b5b0       gray_move_to               000000018001c5b0 f    CIL library: CIL module
 0001:0001b610       gray_render_line           000000018001c610 f    CIL library: CIL module
 0001:0001b920       gray_line_to               000000018001c920 f    CIL library: CIL module
 0001:0001b950       gray_render_cubic          000000018001c950 f    CIL library: CIL module
 0001:0001bb40       gray_render_conic          000000018001cb40 f    CIL library: CIL module
 0001:0001bc80       gray_cubic_to              000000018001cc80 f    CIL library: CIL module
 0001:0001bcb0       gray_conic_to              000000018001ccb0 f    CIL library: CIL module
 0001:0001bcd0       tt_sbit_decoder_done       000000018001ccd0 f    CIL library: CIL module
 0001:0001bce0       get_sfnt_table             000000018001cce0 f    CIL library: CIL module
 0001:0001bda0       sfnt_find_encoding         000000018001cda0 f    CIL library: CIL module
 0001:0001bde0       tt_face_get_kerning        000000018001cde0 f    CIL library: CIL module
 0001:0001c040       tt_get_cmap_info           000000018001d040 f    CIL library: CIL module
 0001:0001c050       tt_cmap14_def_char_count   000000018001d050 f    CIL library: CIL module
 0001:0001c0a0       tt_cmap14_find_variant     000000018001d0a0 f    CIL library: CIL module
 0001:0001c140       tt_cmap14_char_map_nondef_binary 000000018001d140 f    CIL library: CIL module
 0001:0001c1e0       tt_cmap14_char_map_def_binary 000000018001d1e0 f    CIL library: CIL module
 0001:0001c290       tt_cmap14_get_info         000000018001d290 f    CIL library: CIL module
 0001:0001c2b0       tt_cmap14_char_next        000000018001d2b0 f    CIL library: CIL module
 0001:0001c2c0       tt_cmap14_char_index       000000018001d2c0 f    CIL library: CIL module
 0001:0001c2d0       tt_cmap14_init             000000018001d2d0 f    CIL library: CIL module
 0001:0001c310       tt_cmap13_get_info         000000018001d310 f    CIL library: CIL module
 0001:0001c350       tt_cmap13_next             000000018001d350 f    CIL library: CIL module
 0001:0001c460       tt_cmap13_init             000000018001d460 f    CIL library: CIL module
 0001:0001c4a0       tt_cmap12_get_info         000000018001d4a0 f    CIL library: CIL module
 0001:0001c4e0       tt_cmap12_next             000000018001d4e0 f    CIL library: CIL module
 0001:0001c600       tt_cmap12_init             000000018001d600 f    CIL library: CIL module
 0001:0001c640       tt_cmap10_get_info         000000018001d640 f    CIL library: CIL module
 0001:0001c680       tt_cmap10_char_next        000000018001d680 f    CIL library: CIL module
 0001:0001c730       tt_cmap10_char_index       000000018001d730 f    CIL library: CIL module
 0001:0001c7b0       tt_cmap8_get_info          000000018001d7b0 f    CIL library: CIL module
 0001:0001c7f0       tt_cmap8_char_next         000000018001d7f0 f    CIL library: CIL module
 0001:0001c940       tt_cmap8_char_index        000000018001d940 f    CIL library: CIL module
 0001:0001ca60       tt_cmap6_get_info          000000018001da60 f    CIL library: CIL module
 0001:0001ca90       tt_cmap6_char_next         000000018001da90 f    CIL library: CIL module
 0001:0001cb40       tt_cmap6_char_index        000000018001db40 f    CIL library: CIL module
 0001:0001cba0       tt_cmap4_get_info          000000018001dba0 f    CIL library: CIL module
 0001:0001cbd0       tt_cmap4_char_map_linear   000000018001dbd0 f    CIL library: CIL module
 0001:0001ce00       tt_cmap4_set_range         000000018001de00 f    CIL library: CIL module
 0001:0001cf80       tt_cmap4_init              000000018001df80 f    CIL library: CIL module
 0001:0001cfc0       tt_cmap2_get_info          000000018001dfc0 f    CIL library: CIL module
 0001:0001cff0       tt_cmap2_get_subheader     000000018001dff0 f    CIL library: CIL module
 0001:0001d060       tt_cmap0_get_info          000000018001e060 f    CIL library: CIL module
 0001:0001d090       tt_cmap0_char_next         000000018001e090 f    CIL library: CIL module
 0001:0001d0e0       tt_cmap0_char_index        000000018001e0e0 f    CIL library: CIL module
 0001:0001d100       tt_cmap_init               000000018001e100 f    CIL library: CIL module
 0001:0001d110       tt_face_free_bdf_props     000000018001e110 f    CIL library: CIL module
 0001:0001d160       tt_face_free_ps_names      000000018001e160 f    CIL library: CIL module
 0001:0001d2b0       tt_sbit_decoder_load_compound 000000018001e2b0 f    CIL library: CIL module
 0001:0001d4a0       tt_sbit_decoder_load_bit_aligned 000000018001e4a0 f    CIL library: CIL module
 0001:0001d730       tt_sbit_decoder_load_byte_aligned 000000018001e730 f    CIL library: CIL module
 0001:0001d970       tt_sbit_decoder_load_metrics 000000018001e970 f    CIL library: CIL module
 0001:0001da30       tt_sbit_decoder_alloc_bitmap 000000018001ea30 f    CIL library: CIL module
 0001:0001db60       tt_sbit_decoder_init       000000018001eb60 f    CIL library: CIL module
 0001:0001dcf0       tt_face_load_strike_metrics 000000018001ecf0 f    CIL library: CIL module
 0001:0001dd90       tt_face_set_sbit_strike    000000018001ed90 f    CIL library: CIL module
 0001:0001ddb0       tt_face_free_eblc          000000018001edb0 f    CIL library: CIL module
 0001:0001ddf0       tt_face_load_eblc          000000018001edf0 f    CIL library: CIL module
 0001:0001dfd0       sfnt_get_interface         000000018001efd0 f    CIL library: CIL module
 0001:0001dff0       sfnt_get_ps_name           000000018001eff0 f    CIL library: CIL module
 0001:0001e250       sfnt_table_info            000000018001f250 f    CIL library: CIL module
 0001:0001e300       tt_face_done_kern          000000018001f300 f    CIL library: CIL module
 0001:0001e350       tt_face_load_kern          000000018001f350 f    CIL library: CIL module
 0001:0001e600       tt_cmap14_char_var_isdefault 000000018001f600 f    CIL library: CIL module
 0001:0001e6e0       tt_cmap14_char_var_index   000000018001f6e0 f    CIL library: CIL module
 0001:0001e7c0       tt_cmap14_validate         000000018001f7c0 f    CIL library: CIL module
 0001:0001eb60       tt_cmap14_done             000000018001fb60 f    CIL library: CIL module
 0001:0001eba0       tt_cmap13_char_map_binary  000000018001fba0 f    CIL library: CIL module
 0001:0001ed20       tt_cmap13_validate         000000018001fd20 f    CIL library: CIL module
 0001:0001eef0       tt_cmap12_char_map_binary  000000018001fef0 f    CIL library: CIL module
 0001:0001f080       tt_cmap12_validate         0000000180020080 f    CIL library: CIL module
 0001:0001f250       tt_cmap10_validate         0000000180020250 f    CIL library: CIL module
 0001:0001f340       tt_cmap8_validate          0000000180020340 f    CIL library: CIL module
 0001:0001f660       tt_cmap6_validate          0000000180020660 f    CIL library: CIL module
 0001:0001f730       tt_cmap4_validate          0000000180020730 f    CIL library: CIL module
 0001:0001fb90       tt_cmap4_next              0000000180020b90 f    CIL library: CIL module
 0001:0001fc90       tt_cmap2_char_next         0000000180020c90 f    CIL library: CIL module
 0001:0001fdf0       tt_cmap2_char_index        0000000180020df0 f    CIL library: CIL module
 0001:0001feb0       tt_cmap2_validate          0000000180020eb0 f    CIL library: CIL module
 0001:000200d0       tt_cmap0_validate          00000001800210d0 f    CIL library: CIL module
 0001:00020160       tt_face_get_metrics        0000000180021160 f    CIL library: CIL module
 0001:000202c0       tt_face_load_hmtx          00000001800212c0 f    CIL library: CIL module
 0001:00020340       tt_face_load_cmap          0000000180021340 f    CIL library: CIL module
 0001:000203b0       tt_face_free_name          00000001800213b0 f    CIL library: CIL module
 0001:00020460       tt_face_lookup_table       0000000180021460 f    CIL library: CIL module
 0001:00020560       load_format_25             0000000180021560 f    CIL library: CIL module
 0001:00020690       load_format_20             0000000180021690 f    CIL library: CIL module
 0001:00020a50       sfnt_done_face             0000000180021a50 f    CIL library: CIL module
 0001:00020c20       sfnt_open_font             0000000180021c20 f    CIL library: CIL module
 0001:00020e60       tt_name_entry_ascii_from_other 0000000180021e60 f    CIL library: CIL module
 0001:00020f10       tt_name_entry_ascii_from_utf16 0000000180021f10 f    CIL library: CIL module
 0001:00020fe0       tt_face_build_cmaps        0000000180021fe0 f    CIL library: CIL module
 0001:00021330       tt_cmap14_ensure           0000000180022330 f    CIL library: CIL module
 0001:000213a0       tt_cmap13_char_next        00000001800223a0 f    CIL library: CIL module
 0001:00021420       tt_cmap13_char_index       0000000180022420 f    CIL library: CIL module
 0001:00021440       tt_cmap12_char_next        0000000180022440 f    CIL library: CIL module
 0001:000214c0       tt_cmap12_char_index       00000001800224c0 f    CIL library: CIL module
 0001:000214e0       tt_cmap4_char_map_binary   00000001800224e0 f    CIL library: CIL module
 0001:000219f0       tt_face_load_hhea          00000001800229f0 f    CIL library: CIL module
 0001:00021ac0       tt_face_load_gasp          0000000180022ac0 f    CIL library: CIL module
 0001:00021c50       tt_face_load_pclt          0000000180022c50 f    CIL library: CIL module
 0001:00021ca0       tt_face_load_post          0000000180022ca0 f    CIL library: CIL module
 0001:00021d40       tt_face_load_os2           0000000180022d40 f    CIL library: CIL module
 0001:00021e80       tt_face_load_name          0000000180022e80 f    CIL library: CIL module
 0001:00022070       tt_face_load_maxp          0000000180023070 f    CIL library: CIL module
 0001:000221b0       tt_face_load_generic_header 00000001800231b0 f    CIL library: CIL module
 0001:00022240       tt_face_load_any           0000000180023240 f    CIL library: CIL module
 0001:000222f0       check_table_dir            00000001800232f0 f    CIL library: CIL module
 0001:00022570       tt_face_goto_table         0000000180023570 f    CIL library: CIL module
 0001:000225d0       tt_face_load_bdf_props     00000001800235d0 f    CIL library: CIL module
 0001:000227e0       load_post_names            00000001800237e0 f    CIL library: CIL module
 0001:000228b0       tt_sbit_decoder_load_bitmap 00000001800238b0 f    CIL library: CIL module
 0001:00022bf0       sfnt_init_face             0000000180023bf0 f    CIL library: CIL module
 0001:00022d50       tt_face_get_name           0000000180023d50 f    CIL library: CIL module
 0001:00022fd0       tt_cmap14_get_nondef_chars 0000000180023fd0 f    CIL library: CIL module
 0001:000230a0       tt_cmap14_get_def_chars    00000001800240a0 f    CIL library: CIL module
 0001:00023180       tt_cmap14_char_variants    0000000180024180 f    CIL library: CIL module
 0001:000232e0       tt_cmap14_variants         00000001800242e0 f    CIL library: CIL module
 0001:000233a0       tt_cmap4_char_next         00000001800243a0 f    CIL library: CIL module
 0001:00023430       tt_cmap4_char_index        0000000180024430 f    CIL library: CIL module
 0001:00023470       tt_face_load_bhed          0000000180024470 f    CIL library: CIL module
 0001:00023490       tt_face_load_head          0000000180024490 f    CIL library: CIL module
 0001:000234b0       tt_face_load_font_dir      00000001800244b0 f    CIL library: CIL module
 0001:00023720       tt_face_find_bdf_prop      0000000180024720 f    CIL library: CIL module
 0001:00023990       tt_face_get_ps_name        0000000180024990 f    CIL library: CIL module
 0001:00023b10       tt_sbit_decoder_load_image 0000000180024b10 f    CIL library: CIL module
 0001:00023fe0       sfnt_get_charset_id        0000000180024fe0 f    CIL library: CIL module
 0001:00024090       sfnt_get_name_index        0000000180025090 f    CIL library: CIL module
 0001:00024150       sfnt_get_glyph_name        0000000180025150 f    CIL library: CIL module
 0001:000241a0       sfnt_load_face             00000001800251a0 f    CIL library: CIL module
 0001:00025130       tt_cmap14_variant_chars    0000000180026130 f    CIL library: CIL module
 0001:000254b0       tt_face_load_sbit_image    00000001800264b0 f    CIL library: CIL module
 0001:00025510       ft_raster1_set_mode        0000000180026510 f    CIL library: CIL module
 0001:00025530       ft_raster1_init            0000000180026530 f    CIL library: CIL module
 0001:00025570       ft_black_set_mode          0000000180026570 f    CIL library: CIL module
 0001:00025580       ft_black_reset             0000000180026580 f    CIL library: CIL module
 0001:000255c0       ft_black_init              00000001800265c0 f    CIL library: CIL module
 0001:000255d0       Horizontal_Sweep_Step      00000001800265d0 f    CIL library: CIL module
 0001:000255e0       Horizontal_Sweep_Drop      00000001800265e0 f    CIL library: CIL module
 0001:000257c0       Horizontal_Sweep_Span      00000001800267c0 f    CIL library: CIL module
 0001:00025860       Horizontal_Sweep_Init      0000000180026860 f    CIL library: CIL module
 0001:00025870       Vertical_Sweep_Step        0000000180026870 f    CIL library: CIL module
 0001:00025890       Vertical_Sweep_Drop        0000000180026890 f    CIL library: CIL module
 0001:00025a60       Vertical_Sweep_Span        0000000180026a60 f    CIL library: CIL module
 0001:00025b70       Vertical_Sweep_Init        0000000180026b70 f    CIL library: CIL module
 0001:00025bd0       Sort                       0000000180026bd0 f    CIL library: CIL module
 0001:00025c70       DelOld                     0000000180026c70 f    CIL library: CIL module
 0001:00025ca0       InsNew                     0000000180026ca0 f    CIL library: CIL module
 0001:00025cd0       Init_Linked                0000000180026cd0 f    CIL library: CIL module
 0001:00025ce0       Split_Cubic                0000000180026ce0 f    CIL library: CIL module
 0001:00025d90       Split_Conic                0000000180026d90 f    CIL library: CIL module
 0001:00025e00       ft_raster1_get_cbox        0000000180026e00 f    CIL library: CIL module
 0001:00025e40       ft_black_done              0000000180026e40 f    CIL library: CIL module
 0001:00025e60       ft_black_new               0000000180026e60 f    CIL library: CIL module
 0001:00025eb0       Render_Gray_Glyph          0000000180026eb0 f    CIL library: CIL module
 0001:00025ee0       Draw_Sweep                 0000000180026ee0 f    CIL library: CIL module
 0001:00026310       Bezier_Up                  0000000180027310 f    CIL library: CIL module
 0001:000264b0       Line_Up                    00000001800274b0 f    CIL library: CIL module
 0001:00026690       Insert_Y_Turn              0000000180027690 f    CIL library: CIL module
 0001:00026750       End_Profile                0000000180027750 f    CIL library: CIL module
 0001:000268b0       New_Profile                00000001800278b0 f    CIL library: CIL module
 0001:00026a40       Set_High_Precision         0000000180027a40 f    CIL library: CIL module
 0001:00026ad0       ft_raster1_render          0000000180027ad0 f    CIL library: CIL module
 0001:00026db0       Bezier_Down                0000000180027db0 f    CIL library: CIL module
 0001:00026e40       Line_Down                  0000000180027e40 f    CIL library: CIL module
 0001:00026eb0       Finalize_Profile_Table     0000000180027eb0 f    CIL library: CIL module
 0001:00026fb0       ft_raster1_transform       0000000180027fb0 f    CIL library: CIL module
 0001:00027030       Cubic_To                   0000000180028030 f    CIL library: CIL module
 0001:00027200       Conic_To                   0000000180028200 f    CIL library: CIL module
 0001:000273a0       Line_To                    00000001800283a0 f    CIL library: CIL module
 0001:00027520       Decompose_Curve            0000000180028520 f    CIL library: CIL module
 0001:000278e0       Convert_Glyph              00000001800288e0 f    CIL library: CIL module
 0001:00027a70       Render_Single_Pass         0000000180028a70 f    CIL library: CIL module
 0001:00027be0       Render_Glyph               0000000180028be0 f    CIL library: CIL module
 0001:00027d50       ft_black_render            0000000180028d50 f    CIL library: CIL module
 0001:00027f60       ps_get_standard_strings    0000000180028f60 f    CIL library: CIL module
 0001:00027f90       ps_get_macintosh_name      0000000180028f90 f    CIL library: CIL module
 0001:00027fc0       ps_unicodes_char_next      0000000180028fc0 f    CIL library: CIL module
 0001:000280a0       ps_unicodes_char_index     00000001800290a0 f    CIL library: CIL module
 0001:00028110       ps_check_extra_glyph_unicode 0000000180029110 f    CIL library: CIL module
 0001:00028140       ps_check_extra_glyph_name  0000000180029140 f    CIL library: CIL module
 0001:000281e0       compare_uni_maps           00000001800291e0 f    CIL library: CIL module
 0001:00028210       ft_get_adobe_glyph_index   0000000180029210 f    CIL library: CIL module
 0001:00028350       psnames_get_service        0000000180029350 f    CIL library: CIL module
 0001:00028370       ps_unicode_value           0000000180029370 f    CIL library: CIL module
 0001:000284a0       ps_unicodes_init           00000001800294a0 f    CIL library: CIL module
 0001:000286c0       pshinter_get_t2_funcs      00000001800296c0 f    CIL library: CIL module
 0001:000286d0       pshinter_get_t1_funcs      00000001800296d0 f    CIL library: CIL module
 0001:000286e0       pshinter_get_globals_funcs 00000001800296e0 f    CIL library: CIL module
 0001:000286f0       psh_glyph_find_blue_points 00000001800296f0 f    CIL library: CIL module
 0001:00028820       psh_hint_table_find_strong_points 0000000180029820 f    CIL library: CIL module
 0001:00028a50       psh_glyph_compute_extrema  0000000180029a50 f    CIL library: CIL module
 0001:00028b90       psh_glyph_save_points      0000000180029b90 f    CIL library: CIL module
 0001:00028c10       psh_glyph_load_points      0000000180029c10 f    CIL library: CIL module
 0001:00028c70       psh_compute_dir            0000000180029c70 f    CIL library: CIL module
 0001:00028cd0       psh_hint_snap_stem_side_delta 0000000180029cd0 f    CIL library: CIL module
 0001:00028d10       psh_dimension_quantize_len 0000000180029d10 f    CIL library: CIL module
 0001:00028d70       psh_hint_table_deactivate  0000000180029d70 f    CIL library: CIL module
 0001:00028da0       psh_hint_overlap           0000000180029da0 f    CIL library: CIL module
 0001:00028dd0       psh_blues_snap_stem        0000000180029dd0 f    CIL library: CIL module
 0001:00028ef0       psh_calc_max_height        0000000180029ef0 f    CIL library: CIL module
 0001:00028f30       psh_blues_set_zones_0      0000000180029f30 f    CIL library: CIL module
 0001:000290a0       ps_hints_init              000000018002a0a0 f    CIL library: CIL module
 0001:000290e0       ps_dimension_end_mask      000000018002a0e0 f    CIL library: CIL module
 0001:00029100       ps_dimension_init          000000018002a100 f    CIL library: CIL module
 0001:00029120       ps_mask_table_test_intersect 000000018002a120 f    CIL library: CIL module
 0001:00029190       ps_mask_clear_bit          000000018002a190 f    CIL library: CIL module
 0001:000291c0       ps_mask_test_bit           000000018002a1c0 f    CIL library: CIL module
 0001:00029200       psh_glyph_interpolate_other_points 000000018002a200 f    CIL library: CIL module
 0001:00029410       psh_glyph_interpolate_strong_points 000000018002a410 f    CIL library: CIL module
 0001:000294f0       psh_glyph_compute_inflections 000000018002a4f0 f    CIL library: CIL module
 0001:000296d0       psh_hint_align             000000018002a6d0 f    CIL library: CIL module
 0001:000299d0       psh_hint_table_activate_mask 000000018002a9d0 f    CIL library: CIL module
 0001:00029b10       psh_hint_table_record      000000018002ab10 f    CIL library: CIL module
 0001:00029be0       psh_hint_table_done        000000018002abe0 f    CIL library: CIL module
 0001:00029c50       psh_globals_destroy        000000018002ac50 f    CIL library: CIL module
 0001:00029ca0       psh_blues_scale_zones      000000018002aca0 f    CIL library: CIL module
 0001:00029ea0       psh_blues_set_zones        000000018002aea0 f    CIL library: CIL module
 0001:0002a020       psh_globals_scale_widths   000000018002b020 f    CIL library: CIL module
 0001:0002a0c0       ps_hints_open              000000018002b0c0 f    CIL library: CIL module
 0001:0002a0f0       ps_mask_done               000000018002b0f0 f    CIL library: CIL module
 0001:0002a130       ps_hint_table_done         000000018002b130 f    CIL library: CIL module
 0001:0002a170       psh_glyph_interpolate_normal_points 000000018002b170 f    CIL library: CIL module
 0001:0002a410       psh_glyph_find_strong_points 000000018002b410 f    CIL library: CIL module
 0001:0002a5b0       psh_glyph_done             000000018002b5b0 f    CIL library: CIL module
 0001:0002a620       psh_hint_table_align_hints 000000018002b620 f    CIL library: CIL module
 0001:0002a690       psh_hint_table_record_mask 000000018002b690 f    CIL library: CIL module
 0001:0002a710       psh_globals_set_scale      000000018002b710 f    CIL library: CIL module
 0001:0002a7a0       psh_globals_new            000000018002b7a0 f    CIL library: CIL module
 0001:0002a9d0       t2_hints_open              000000018002b9d0 f    CIL library: CIL module
 0001:0002a9e0       t1_hints_open              000000018002b9e0 f    CIL library: CIL module
 0001:0002a9f0       ps_mask_table_ensure       000000018002b9f0 f    CIL library: CIL module
 0001:0002aa70       ps_mask_table_done         000000018002ba70 f    CIL library: CIL module
 0001:0002aae0       ps_mask_ensure             000000018002bae0 f    CIL library: CIL module
 0001:0002ab70       ps_hint_table_ensure       000000018002bb70 f    CIL library: CIL module
 0001:0002abf0       psh_hint_table_init        000000018002bbf0 f    CIL library: CIL module
 0001:0002ad80       psh_globals_funcs_init     000000018002bd80 f    CIL library: CIL module
 0001:0002adb0       ps_dimension_done          000000018002bdb0 f    CIL library: CIL module
 0001:0002adf0       ps_mask_table_merge        000000018002bdf0 f    CIL library: CIL module
 0001:0002af80       ps_mask_table_alloc        000000018002bf80 f    CIL library: CIL module
 0001:0002b010       ps_mask_set_bit            000000018002c010 f    CIL library: CIL module
 0001:0002b090       ps_hint_table_alloc        000000018002c090 f    CIL library: CIL module
 0001:0002b110       psh_glyph_init             000000018002c110 f    CIL library: CIL module
 0001:0002b3e0       ps_hints_done              000000018002c3e0 f    CIL library: CIL module
 0001:0002b430       ps_dimension_add_counter   000000018002c430 f    CIL library: CIL module
 0001:0002b510       ps_dimension_reset_mask    000000018002c510 f    CIL library: CIL module
 0001:0002b540       ps_mask_table_merge_all    000000018002c540 f    CIL library: CIL module
 0001:0002b5e0       ps_mask_table_last         000000018002c5e0 f    CIL library: CIL module
 0001:0002b640       ps_hinter_done             000000018002c640 f    CIL library: CIL module
 0001:0002b8b0       ps_hints_t1reset           000000018002c8b0 f    CIL library: CIL module
 0001:0002b940       ps_dimension_end           000000018002c940 f    CIL library: CIL module
 0001:0002b970       ps_dimension_add_t1stem    000000018002c970 f    CIL library: CIL module
 0001:0002ba70       ps_mask_table_set_bits     000000018002ca70 f    CIL library: CIL module
 0001:0002bb50       ps_hints_close             000000018002cb50 f    CIL library: CIL module
 0001:0002bbb0       ps_hints_t1stem3           000000018002cbb0 f    CIL library: CIL module
 0001:0002bce0       ps_hints_stem              000000018002cce0 f    CIL library: CIL module
 0001:0002bde0       ps_dimension_set_mask_bits 000000018002cde0 f    CIL library: CIL module
 0001:0002be60       t2_hints_stems             000000018002ce60 f    CIL library: CIL module
 0001:0002bf60       t1_hints_stem              000000018002cf60 f    CIL library: CIL module
 0001:0002bfb0       ps_hints_t2counter         000000018002cfb0 f    CIL library: CIL module
 0001:0002c070       ps_hints_t2mask            000000018002d070 f    CIL library: CIL module
 0001:0002c130       t2_hints_funcs_init        000000018002d130 f    CIL library: CIL module
 0001:0002c180       t1_hints_funcs_init        000000018002d180 f    CIL library: CIL module
 0001:0002c1d0       ps_hinter_init             000000018002d1d0 f    CIL library: CIL module
 0001:0002c230       PS_Conv_EexecDecode        000000018002d230 f    CIL library: CIL module
 0001:0002c2f0       PS_Conv_ASCIIHexDecode     000000018002d2f0 f    CIL library: CIL module
 0001:0002c400       afm_compare_kern_pairs     000000018002d400 f    CIL library: CIL module
 0001:0002c430       afm_tokenize               000000018002d430 f    CIL library: CIL module
 0001:0002c4d0       afm_stream_skip_spaces     000000018002d4d0 f    CIL library: CIL module
 0001:0002c550       t1_cmap_unicode_char_next  000000018002d550 f    CIL library: CIL module
 0001:0002c570       t1_cmap_unicode_char_index 000000018002d570 f    CIL library: CIL module
 0001:0002c590       psaux_get_glyph_name       000000018002d590 f    CIL library: CIL module
 0001:0002c5b0       t1_cmap_custom_char_next   000000018002d5b0 f    CIL library: CIL module
 0001:0002c620       t1_cmap_custom_char_index  000000018002d620 f    CIL library: CIL module
 0001:0002c650       t1_cmap_custom_done        000000018002d650 f    CIL library: CIL module
 0001:0002c670       t1_cmap_std_char_index     000000018002d670 f    CIL library: CIL module
 0001:0002c710       t1_cmap_std_done           000000018002d710 f    CIL library: CIL module
 0001:0002c730       t1_decoder_parse_glyph     000000018002d730 f    CIL library: CIL module
 0001:0002c740       t1_lookup_glyph_by_stdcharcode 000000018002d740 f    CIL library: CIL module
 0001:0002c7f0       t1_decrypt                 000000018002d7f0 f    CIL library: CIL module
 0001:0002c830       t1_builder_close_contour   000000018002d830 f    CIL library: CIL module
 0001:0002c8f0       t1_builder_done            000000018002d8f0 f    CIL library: CIL module
 0001:0002c940       ps_parser_done             000000018002d940 f    CIL library: CIL module
 0001:0002c950       ps_parser_init             000000018002d950 f    CIL library: CIL module
 0001:0002c990       ps_tobool                  000000018002d990 f    CIL library: CIL module
 0001:0002ca10       skip_literal_string        000000018002da10 f    CIL library: CIL module
 0001:0002cb30       skip_comment               000000018002db30 f    CIL library: CIL module
 0001:0002cb70       shift_elements             000000018002db70 f    CIL library: CIL module
 0001:0002cbb0       PS_Conv_Strtol             000000018002dbb0 f    CIL library: CIL module
 0001:0002cd00       afm_parser_done            000000018002dd00 f    CIL library: CIL module
 0001:0002cd30       afm_parser_init            000000018002dd30 f    CIL library: CIL module
 0001:0002cdb0       afm_stream_read_string     000000018002ddb0 f    CIL library: CIL module
 0001:0002ce20       afm_stream_read_one        000000018002de20 f    CIL library: CIL module
 0001:0002ceb0       t1_cmap_unicode_done       000000018002deb0 f    CIL library: CIL module
 0001:0002cef0       t1_cmap_unicode_init       000000018002def0 f    CIL library: CIL module
 0001:0002cf40       t1_cmap_custom_init        000000018002df40 f    CIL library: CIL module
 0001:0002cfc0       t1_cmap_std_char_next      000000018002dfc0 f    CIL library: CIL module
 0001:0002d030       t1_cmap_std_init           000000018002e030 f    CIL library: CIL module
 0001:0002d0a0       t1_decoder_done            000000018002e0a0 f    CIL library: CIL module
 0001:0002d0b0       t1_builder_add_point       000000018002e0b0 f    CIL library: CIL module
 0001:0002d110       t1_builder_init            000000018002e110 f    CIL library: CIL module
 0001:0002d210       skip_spaces                000000018002e210 f    CIL library: CIL module
 0001:0002d280       ps_table_release           000000018002e280 f    CIL library: CIL module
 0001:0002d2f0       ps_table_done              000000018002e2f0 f    CIL library: CIL module
 0001:0002d370       reallocate_t1_table        000000018002e370 f    CIL library: CIL module
 0001:0002d400       PS_Conv_ToInt              000000018002e400 f    CIL library: CIL module
 0001:0002d4a0       afm_parser_next_key        000000018002e4a0 f    CIL library: CIL module
 0001:0002d500       t1_cmap_expert_init        000000018002e500 f    CIL library: CIL module
 0001:0002d520       t1_cmap_standard_init      000000018002e520 f    CIL library: CIL module
 0001:0002d540       t1_decoder_init            000000018002e540 f    CIL library: CIL module
 0001:0002d650       t1operator_seac            000000018002e650 f    CIL library: CIL module
 0001:0002d8f0       ps_parser_skip_spaces      000000018002e8f0 f    CIL library: CIL module
 0001:0002d900       skip_string                000000018002e900 f    CIL library: CIL module
 0001:0002d9b0       ps_table_add               000000018002e9b0 f    CIL library: CIL module
 0001:0002daf0       ps_table_new               000000018002eaf0 f    CIL library: CIL module
 0001:0002dbe0       PS_Conv_ToFixed            000000018002ebe0 f    CIL library: CIL module
 0001:0002dea0       afm_parser_skip_section    000000018002eea0 f    CIL library: CIL module
 0001:0002df60       afm_parser_read_vals       000000018002ef60 f    CIL library: CIL module
 0001:0002e100       t1_builder_add_contour     000000018002f100 f    CIL library: CIL module
 0001:0002e1b0       t1_builder_check_points    000000018002f1b0 f    CIL library: CIL module
 0001:0002e1f0       ps_parser_to_fixed         000000018002f1f0 f    CIL library: CIL module
 0001:0002e220       ps_parser_to_bytes         000000018002f220 f    CIL library: CIL module
 0001:0002e320       ps_parser_to_int           000000018002f320 f    CIL library: CIL module
 0001:0002e350       ps_tofixedarray            000000018002f350 f    CIL library: CIL module
 0001:0002e460       ps_tocoordarray            000000018002f460 f    CIL library: CIL module
 0001:0002e570       skip_procedure             000000018002f570 f    CIL library: CIL module
 0001:0002e670       afm_parser_read_int        000000018002f670 f    CIL library: CIL module
 0001:0002e6d0       t1_builder_add_point1      000000018002f6d0 f    CIL library: CIL module
 0001:0002e730       ps_parser_to_fixed_array   000000018002f730 f    CIL library: CIL module
 0001:0002e780       ps_parser_to_coord_array   000000018002f780 f    CIL library: CIL module
 0001:0002e7c0       ps_parser_skip_PS_token    000000018002f7c0 f    CIL library: CIL module
 0001:0002e970       afm_parse_kern_pairs       000000018002f970 f    CIL library: CIL module
 0001:0002ebb0       afm_parse_track_kern       000000018002fbb0 f    CIL library: CIL module
 0001:0002ed70       t1_builder_start_point     000000018002fd70 f    CIL library: CIL module
 0001:0002ede0       ps_parser_to_token         000000018002fde0 f    CIL library: CIL module
 0001:0002ef60       afm_parse_kern_data        000000018002ff60 f    CIL library: CIL module
 0001:0002f070       t1_decoder_parse_charstrings 0000000180030070 f    CIL library: CIL module
 0001:000308e0       ps_parser_load_field       00000001800318e0 f    CIL library: CIL module
 0001:00030d90       ps_parser_to_token_array   0000000180031d90 f    CIL library: CIL module
 0001:00030ea0       afm_parser_parse           0000000180031ea0 f    CIL library: CIL module
 0001:000311f0       ps_parser_load_field_table 00000001800321f0 f    CIL library: CIL module
 0001:00031380       pfr_lookup_bitmap_data     0000000180032380 f    CIL library: CIL module
 0001:000314e0       pfr_bitwriter_decode_rle2  00000001800324e0 f    CIL library: CIL module
 0001:000315b0       pfr_bitwriter_decode_rle1  00000001800325b0 f    CIL library: CIL module
 0001:000316b0       pfr_bitwriter_decode_bytes 00000001800326b0 f    CIL library: CIL module
 0001:00031780       pfr_bitwriter_init         0000000180032780 f    CIL library: CIL module
 0001:000317e0       pfr_get_advance            00000001800327e0 f    CIL library: CIL module
 0001:00031820       pfr_cmap_char_next         0000000180032820 f    CIL library: CIL module
 0001:000318e0       pfr_cmap_char_index        00000001800328e0 f    CIL library: CIL module
 0001:00031930       pfr_cmap_done              0000000180032930 f    CIL library: CIL module
 0001:00031940       pfr_glyph_start            0000000180032940 f    CIL library: CIL module
 0001:00031950       pfr_glyph_close_contour    0000000180032950 f    CIL library: CIL module
 0001:00031a00       pfr_header_check           0000000180032a00 f    CIL library: CIL module
 0001:00031a30       pfr_load_bitmap_bits       0000000180032a30 f    CIL library: CIL module
 0001:00031b20       pfr_load_bitmap_metrics    0000000180032b20 f    CIL library: CIL module
 0001:00031de0       pfr_get_service            0000000180032de0 f    CIL library: CIL module
 0001:00031e00       pfr_get_metrics            0000000180032e00 f    CIL library: CIL module
 0001:00031e90       pfr_face_get_kerning       0000000180032e90 f    CIL library: CIL module
 0001:00032100       pfr_cmap_init              0000000180033100 f    CIL library: CIL module
 0001:00032170       pfr_glyph_done             0000000180033170 f    CIL library: CIL module
 0001:000321e0       pfr_glyph_init             00000001800331e0 f    CIL library: CIL module
 0001:00032210       pfr_phy_font_done          0000000180033210 f    CIL library: CIL module
 0001:00032330       pfr_aux_name_load          0000000180033330 f    CIL library: CIL module
 0001:000323e0       pfr_extra_item_load_kerning_pairs 00000001800333e0 f    CIL library: CIL module
 0001:000325f0       pfr_extra_item_load_font_id 00000001800335f0 f    CIL library: CIL module
 0001:00032680       pfr_log_font_count         0000000180033680 f    CIL library: CIL module
 0001:000326e0       pfr_extra_items_parse      00000001800336e0 f    CIL library: CIL module
 0001:000327e0       pfr_extra_items_skip       00000001800337e0 f    CIL library: CIL module
 0001:00032800       pfr_slot_load_bitmap       0000000180033800 f    CIL library: CIL module
 0001:00032bc0       pfr_get_kerning            0000000180033bc0 f    CIL library: CIL module
 0001:00032c30       pfr_slot_done              0000000180033c30 f    CIL library: CIL module
 0001:00032c50       pfr_slot_init              0000000180033c50 f    CIL library: CIL module
 0001:00032c80       pfr_face_done              0000000180033c80 f    CIL library: CIL module
 0001:00032cf0       pfr_glyph_load_compound    0000000180033cf0 f    CIL library: CIL module
 0001:00033060       pfr_phy_font_load          0000000180034060 f    CIL library: CIL module
 0001:00033650       pfr_extra_item_load_stem_snaps 0000000180034650 f    CIL library: CIL module
 0001:00033770       pfr_extra_item_load_bitmap_info 0000000180034770 f    CIL library: CIL module
 0001:000339b0       pfr_log_font_load          00000001800349b0 f    CIL library: CIL module
 0001:00033cb0       pfr_header_load            0000000180034cb0 f    CIL library: CIL module
 0001:00033d00       pfr_face_init              0000000180034d00 f    CIL library: CIL module
 0001:00034120       pfr_glyph_end              0000000180035120 f    CIL library: CIL module
 0001:00034150       pfr_glyph_curve_to         0000000180035150 f    CIL library: CIL module
 0001:00034230       pfr_glyph_line_to          0000000180035230 f    CIL library: CIL module
 0001:000342d0       pfr_glyph_move_to          00000001800352d0 f    CIL library: CIL module
 0001:00034350       pfr_glyph_load_simple      0000000180035350 f    CIL library: CIL module
 0001:00034aa0       pfr_glyph_load_rec         0000000180035aa0 f    CIL library: CIL module
 0001:00034d30       pfr_glyph_load             0000000180035d30 f    CIL library: CIL module
 0001:00034d70       pfr_slot_load              0000000180035d70 f    CIL library: CIL module
 0001:00034fe0       pcf_get_charset_id         0000000180035fe0 f    CIL library: CIL module
 0001:00035000       pcf_cmap_char_index        0000000180036000 f    CIL library: CIL module
 0001:00035060       pcf_cmap_done              0000000180036060 f    CIL library: CIL module
 0001:00035070       pcf_cmap_init              0000000180036070 f    CIL library: CIL module
 0001:00035090       pcf_find_property          0000000180036090 f    CIL library: CIL module
 0001:00035130       pcf_has_table_type         0000000180036130 f    CIL library: CIL module
 0001:00035160       FourByteSwap               0000000180036160 f    CIL library: CIL module
 0001:000351b0       TwoByteSwap                00000001800361b0 f    CIL library: CIL module
 0001:000351f0       BitOrderInvert             00000001800361f0 f    CIL library: CIL module
 0001:00035250       pcf_driver_requester       0000000180036250 f    CIL library: CIL module
 0001:00035270       pcf_get_bdf_property       0000000180036270 f    CIL library: CIL module
 0001:00035330       PCF_Glyph_Load             0000000180036330 f    CIL library: CIL module
 0001:00035600       PCF_Face_Done              0000000180036600 f    CIL library: CIL module
 0001:00035790       pcf_cmap_char_next         0000000180036790 f    CIL library: CIL module
 0001:00035850       pcf_interpret_style        0000000180036850 f    CIL library: CIL module
 0001:00035ac0       pcf_seek_to_table_type     0000000180036ac0 f    CIL library: CIL module
 0001:00035b80       pcf_get_metric             0000000180036b80 f    CIL library: CIL module
 0001:00035c30       pcf_read_TOC               0000000180036c30 f    CIL library: CIL module
 0001:00035fa0       PCF_Size_Select            0000000180036fa0 f    CIL library: CIL module
 0001:00036000       pcf_get_accel              0000000180037000 f    CIL library: CIL module
 0001:00036190       pcf_get_encodings          0000000180037190 f    CIL library: CIL module
 0001:000364f0       pcf_get_bitmaps            00000001800374f0 f    CIL library: CIL module
 0001:00036870       pcf_get_metrics            0000000180037870 f    CIL library: CIL module
 0001:00036ba0       pcf_get_properties         0000000180037ba0 f    CIL library: CIL module
 0001:00037050       PCF_Size_Request           0000000180038050 f    CIL library: CIL module
 0001:00037110       pcf_load_font              0000000180038110 f    CIL library: CIL module
 0001:000374a0       PCF_Face_Init              00000001800384a0 f    CIL library: CIL module
 0001:00037650       otv_value_length           0000000180038650 f    CIL library: CIL module
 0001:00037680       otv_GSUBGPOS_have_MarkAttachmentType_flag 0000000180038680 f    CIL library: CIL module
 0001:00037710       otv_Feature_get_count      0000000180038710 f    CIL library: CIL module
 0001:00037730       otv_LookupList_get_count   0000000180038730 f    CIL library: CIL module
 0001:00037750       otv_Coverage_get_count     0000000180038750 f    CIL library: CIL module
 0001:000377e0       otv_Coverage_get_last      00000001800387e0 f    CIL library: CIL module
 0001:00037860       otv_Coverage_get_first     0000000180038860 f    CIL library: CIL module
 0001:00037880       otvalid_get_service        0000000180038880 f    CIL library: CIL module
 0001:000378a0       otv_load_table             00000001800388a0 f    CIL library: CIL module
 0001:00037930       otv_ExtensionSubst_validate 0000000180038930 f    CIL library: CIL module
 0001:00037aa0       otv_Ligature_validate      0000000180038aa0 f    CIL library: CIL module
 0001:00037bd0       otv_ExtensionPos_validate  0000000180038bd0 f    CIL library: CIL module
 0001:00037d30       otv_GSUBGPOS_get_Lookup_count 0000000180038d30 f    CIL library: CIL module
 0001:00037d60       otv_x_ux_y_uy_z_uz_p_sp    0000000180038d60 f    CIL library: CIL module
 0001:00038030       otv_x_y_ux_sy              0000000180039030 f    CIL library: CIL module
 0001:00038200       otv_x_ux                   0000000180039200 f    CIL library: CIL module
 0001:00038340       otv_x_Ox                   0000000180039340 f    CIL library: CIL module
 0001:00038480       otv_LangSys_validate       0000000180039480 f    CIL library: CIL module
 0001:00038620       otv_Feature_validate       0000000180039620 f    CIL library: CIL module
 0001:00038750       otv_Lookup_validate        0000000180039750 f    CIL library: CIL module
 0001:00038910       otv_Device_validate        0000000180039910 f    CIL library: CIL module
 0001:00038a30       otv_ClassDef_validate      0000000180039a30 f    CIL library: CIL module
 0001:00038cd0       otv_Coverage_validate      0000000180039cd0 f    CIL library: CIL module
 0001:00038fd0       otv_BaseTagList_validate   0000000180039fd0 f    CIL library: CIL module
 0001:000390c0       otv_BaseCoord_validate     000000018003a0c0 f    CIL library: CIL module
 0001:00039210       otv_GlyphAssembly_validate 000000018003a210 f    CIL library: CIL module
 0001:00039380       otv_MathKern_validate      000000018003a380 f    CIL library: CIL module
 0001:00039560       otv_MathItalicsCorrectionInfo_validate 000000018003a560 f    CIL library: CIL module
 0001:00039750       otv_MathConstants_validate 000000018003a750 f    CIL library: CIL module
 0001:00039880       otv_ReverseChainSingleSubst_validate 000000018003a880 f    CIL library: CIL module
 0001:00039bb0       otv_SingleSubst_validate   000000018003abb0 f    CIL library: CIL module
 0001:00039e20       otv_GPOS_subtable_validate 000000018003ae20 f    CIL library: CIL module
 0001:00039e40       otv_Anchor_validate        000000018003ae40 f    CIL library: CIL module
 0001:0003a060       otv_ValueRecord_validate   000000018003b060 f    CIL library: CIL module
 0001:0003a290       otv_x_sxy                  000000018003b290 f    CIL library: CIL module
 0001:0003a470       otv_CaretValue_validate    000000018003b470 f    CIL library: CIL module
 0001:0003a5b0       otv_O_x_Ox                 000000018003b5b0 f    CIL library: CIL module
 0001:0003a750       otv_u_x_Ox_y_Oy_z_Oz_p_sp  000000018003b750 f    CIL library: CIL module
 0001:0003aaa0       otv_u_O_O_O_O_x_Onx        000000018003baa0 f    CIL library: CIL module
 0001:0003acb0       otv_u_x_y_Ox_sy            000000018003bcb0 f    CIL library: CIL module
 0001:0003aea0       otv_u_O_O_x_Onx            000000018003bea0 f    CIL library: CIL module
 0001:0003b040       otv_u_C_x_Ox               000000018003c040 f    CIL library: CIL module
 0001:0003b1b0       otv_Script_validate        000000018003c1b0 f    CIL library: CIL module
 0001:0003b310       otv_FeatureList_validate   000000018003c310 f    CIL library: CIL module
 0001:0003b460       otv_LookupList_validate    000000018003c460 f    CIL library: CIL module
 0001:0003b5a0       otv_MinMax_validate        000000018003c5a0 f    CIL library: CIL module
 0001:0003b8e0       otv_BaseValues_validate    000000018003c8e0 f    CIL library: CIL module
 0001:0003ba20       otv_MathGlyphConstruction_validate 000000018003ca20 f    CIL library: CIL module
 0001:0003bb70       otv_MathKernInfo_validate  000000018003cb70 f    CIL library: CIL module
 0001:0003bd90       otv_JstfPriority_validate  000000018003cd90 f    CIL library: CIL module
 0001:0003c2f0       otv_ChainContextSubst_validate 000000018003d2f0 f    CIL library: CIL module
 0001:0003c4c0       otv_ContextSubst_validate  000000018003d4c0 f    CIL library: CIL module
 0001:0003c690       otv_LigatureSubst_validate 000000018003d690 f    CIL library: CIL module
 0001:0003c7d0       otv_AlternateSubst_validate 000000018003d7d0 f    CIL library: CIL module
 0001:0003c900       otv_MultipleSubst_validate 000000018003d900 f    CIL library: CIL module
 0001:0003ca30       otv_ChainContextPos_validate 000000018003da30 f    CIL library: CIL module
 0001:0003cc00       otv_ContextPos_validate    000000018003dc00 f    CIL library: CIL module
 0001:0003cdd0       otv_CursivePos_validate    000000018003ddd0 f    CIL library: CIL module
 0001:0003d0a0       otv_PairSet_validate       000000018003e0a0 f    CIL library: CIL module
 0001:0003d210       otv_SinglePos_validate     000000018003e210 f    CIL library: CIL module
 0001:0003d460       otv_MarkArray_validate     000000018003e460 f    CIL library: CIL module
 0001:0003d5a0       otv_u_O_O_u_O_O            000000018003e5a0 f    CIL library: CIL module
 0001:0003d700       otv_GDEF_validate          000000018003e700 f    CIL library: CIL module
 0001:0003da70       otv_ScriptList_validate    000000018003ea70 f    CIL library: CIL module
 0001:0003dbc0       otv_BaseScript_validate    000000018003ebc0 f    CIL library: CIL module
 0001:0003de20       otv_MathVariants_validate  000000018003ee20 f    CIL library: CIL module
 0001:0003e130       otv_MathGlyphInfo_validate 000000018003f130 f    CIL library: CIL module
 0001:0003e2b0       otv_JstfScript_validate    000000018003f2b0 f    CIL library: CIL module
 0001:0003e590       otv_GSUB_validate          000000018003f590 f    CIL library: CIL module
 0001:0003e6f0       otv_GPOS_validate          000000018003f6f0 f    CIL library: CIL module
 0001:0003e850       otv_MarkMarkPos_validate   000000018003f850 f    CIL library: CIL module
 0001:0003e970       otv_MarkLigPos_validate    000000018003f970 f    CIL library: CIL module
 0001:0003eab0       otv_MarkBasePos_validate   000000018003fab0 f    CIL library: CIL module
 0001:0003ebe0       otv_PairPos_validate       000000018003fbe0 f    CIL library: CIL module
 0001:0003f010       otv_BaseScriptList_validate 0000000180040010 f    CIL library: CIL module
 0001:0003f150       otv_MATH_validate          0000000180040150 f    CIL library: CIL module
 0001:0003f280       otv_JSTF_validate          0000000180040280 f    CIL library: CIL module
 0001:0003f450       otv_Axis_validate          0000000180040450 f    CIL library: CIL module
 0001:0003f560       otv_BASE_validate          0000000180040560 f    CIL library: CIL module
 0001:0003f710       otv_validate               0000000180040710 f    CIL library: CIL module
 0001:0003fc70       gxv_opbd_LookupFmt4_transit 0000000180040c70 f    CIL library: CIL module
 0001:0003fc90       gxv_mort_subtable_type1_offset_to_subst_validate 0000000180040c90 f    CIL library: CIL module
 0001:0003fcf0       gxv_just_wdcTable_LookupValue_validate 0000000180040cf0 f    CIL library: CIL module
 0001:0003fd20       gxv_just_classTable_entry_validate 0000000180040d20 f    CIL library: CIL module
 0001:0003fd30       gxv_just_pcTable_LookupValue_entry_validate 0000000180040d30 f    CIL library: CIL module
 0001:0003fd60       gxv_odtect_add_range       0000000180040d60 f    CIL library: CIL module
 0001:0003fda0       gxv_compare_ranges         0000000180040da0 f    CIL library: CIL module
 0001:0003fde0       gxv_LookupTable_fmt6_skip_endmarkers 0000000180040de0 f    CIL library: CIL module
 0001:0003fe20       gxv_LookupTable_fmt2_skip_endmarkers 0000000180040e20 f    CIL library: CIL module
 0001:0003fe80       gxv_lookup_value_load      0000000180040e80 f    CIL library: CIL module
 0001:0003fea0       gxv_compare_ulong_offset   0000000180040ea0 f    CIL library: CIL module
 0001:0003fec0       gxv_compare_ushort_offset  0000000180040ec0 f    CIL library: CIL module
 0001:0003fef0       gxvalid_get_service        0000000180040ef0 f    CIL library: CIL module
 0001:0003ff10       gxv_load_table             0000000180040f10 f    CIL library: CIL module
 0001:0003ffa0       gxv_lcar_LookupFmt4_transit 0000000180040fa0 f    CIL library: CIL module
 0001:00040000       gxv_prop_LookupFmt4_transit 0000000180041000 f    CIL library: CIL module
 0001:00040050       gxv_kern_coverage_classic_microsoft_validate 0000000180041050 f    CIL library: CIL module
 0001:00040170       gxv_kern_coverage_classic_apple_validate 0000000180041170 f    CIL library: CIL module
 0001:00040280       gxv_kern_coverage_new_apple_validate 0000000180041280 f    CIL library: CIL module
 0001:00040380       gxv_kern_subtable_fmt1_entry_validate 0000000180041380 f    CIL library: CIL module
 0001:000403f0       gxv_kern_subtable_fmt1_valueTable_load 00000001800413f0 f    CIL library: CIL module
 0001:00040440       gxv_morx_subtable_type5_InsertList_validate 0000000180041440 f    CIL library: CIL module
 0001:00040550       gxv_morx_subtable_type5_insertionGlyphList_load 0000000180041550 f    CIL library: CIL module
 0001:000405b0       gxv_morx_subtable_type2_ligatureTable_validate 00000001800415b0 f    CIL library: CIL module
 0001:000406b0       gxv_morx_subtable_type2_ligActionIndex_validate 00000001800416b0 f    CIL library: CIL module
 0001:000408e0       gxv_morx_subtable_type2_opttable_load 00000001800418e0 f    CIL library: CIL module
 0001:00040a40       gxv_morx_subtable_type1_LookupFmt4_transit 0000000180041a40 f    CIL library: CIL module
 0001:00040a90       gxv_morx_subtable_type1_LookupValue_validate 0000000180041a90 f    CIL library: CIL module
 0001:00040b20       gxv_morx_subtable_type1_entry_validate 0000000180041b20 f    CIL library: CIL module
 0001:00040ca0       gxv_morx_subtable_type1_substitutionTable_load 0000000180041ca0 f    CIL library: CIL module
 0001:00040cf0       gxv_morx_subtable_type0_entry_validate 0000000180041cf0 f    CIL library: CIL module
 0001:00040d60       gxv_mort_subtable_type5_InsertList_validate 0000000180041d60 f    CIL library: CIL module
 0001:00040f70       gxv_mort_subtable_type4_lookupfmt4_transit 0000000180041f70 f    CIL library: CIL module
 0001:00040fc0       gxv_mort_subtable_type2_ligatureTable_validate 0000000180041fc0 f    CIL library: CIL module
 0001:000410d0       gxv_mort_subtable_type2_ligActionOffset_validate 00000001800420d0 f    CIL library: CIL module
 0001:000412f0       gxv_mort_subtable_type2_opttable_load 00000001800422f0 f    CIL library: CIL module
 0001:00041420       gxv_mort_subtable_type1_substTable_validate 0000000180042420 f    CIL library: CIL module
 0001:000415a0       gxv_mort_subtable_type1_entry_validate 00000001800425a0 f    CIL library: CIL module
 0001:00041670       gxv_mort_subtable_type1_substitutionTable_load 0000000180042670 f    CIL library: CIL module
 0001:000416c0       gxv_mort_subtable_type0_entry_validate 00000001800426c0 f    CIL library: CIL module
 0001:00041a00       gxv_mort_coverage_validate 0000000180042a00 f    CIL library: CIL module
 0001:00041b80       gxv_mort_feature_validate  0000000180042b80 f    CIL library: CIL module
 0001:00041d90       gxv_just_actSubrecord_type4_validate 0000000180042d90 f    CIL library: CIL module
 0001:00041f60       gxv_just_wdp_entry_validate 0000000180042f60 f    CIL library: CIL module
 0001:00042030       gxv_just_check_max_gid     0000000180043030 f    CIL library: CIL module
 0001:000420d0       gxv_bsln_parts_fmt0_validate 00000001800430d0 f    CIL library: CIL module
 0001:00042180       gxv_bsln_LookupFmt4_transit 0000000180043180 f    CIL library: CIL module
 0001:000421d0       gxv_bsln_LookupValue_validate 00000001800431d0 f    CIL library: CIL module
 0001:00042280       gxv_odtect_validate        0000000180043280 f    CIL library: CIL module
 0001:00042410       gxv_XEntryTable_validate   0000000180043410 f    CIL library: CIL module
 0001:00042800       gxv_XStateArray_validate   0000000180043800 f    CIL library: CIL module
 0001:000429e0       gxv_XClassTable_lookupfmt4_transit 00000001800439e0 f    CIL library: CIL module
 0001:00042a30       gxv_XClassTable_lookupval_validate 0000000180043a30 f    CIL library: CIL module
 0001:00042a70       gxv_EntryTable_validate    0000000180043a70 f    CIL library: CIL module
 0001:00042eb0       gxv_StateArray_validate    0000000180043eb0 f    CIL library: CIL module
 0001:00043070       gxv_glyphid_validate       0000000180044070 f    CIL library: CIL module
 0001:00043120       gxv_LookupTable_fmt8_validate 0000000180044120 f    CIL library: CIL module
 0001:00043290       gxv_LookupTable_fmt0_validate 0000000180044290 f    CIL library: CIL module
 0001:00043420       gxv_BinSrchHeader_check_consistency 0000000180044420 f    CIL library: CIL module
 0001:00043600       gxv_array_getlimits_ushort 0000000180044600 f    CIL library: CIL module
 0001:000436b0       gxv_array_getlimits_byte   00000001800446b0 f    CIL library: CIL module
 0001:00043740       gxv_set_length_by_ulong_offset 0000000180044740 f    CIL library: CIL module
 0001:00043890       gxv_set_length_by_ushort_offset 0000000180044890 f    CIL library: CIL module
 0001:000439e0       gxv_feat_registry_validate 00000001800449e0 f    CIL library: CIL module
 0001:00043c90       gxv_kern_coverage_validate 0000000180044c90 f    CIL library: CIL module
 0001:00043e10       gxv_kern_subtable_fmt3_validate 0000000180044e10 f    CIL library: CIL module
 0001:00044140       gxv_kern_subtable_fmt2_clstbl_validate 0000000180045140 f    CIL library: CIL module
 0001:000442d0       gxv_kern_subtable_fmt1_subtable_setup 00000001800452d0 f    CIL library: CIL module
 0001:00044360       gxv_kern_subtable_fmt0_pairs_validate 0000000180045360 f    CIL library: CIL module
 0001:000444e0       gxv_morx_subtable_type5_entry_validate 00000001800454e0 f    CIL library: CIL module
 0001:00044570       gxv_morx_subtable_type5_subtable_setup 0000000180045570 f    CIL library: CIL module
 0001:00044600       gxv_morx_subtable_type2_entry_validate 0000000180045600 f    CIL library: CIL module
 0001:00044690       gxv_morx_subtable_type2_subtable_setup 0000000180045690 f    CIL library: CIL module
 0001:00044950       gxv_morx_subtable_type1_subtable_setup 0000000180045950 f    CIL library: CIL module
 0001:000449e0       gxv_mort_subtable_type5_entry_validate 00000001800459e0 f    CIL library: CIL module
 0001:00044a80       gxv_mort_subtable_type4_lookupval_validate 0000000180045a80 f    CIL library: CIL module
 0001:00044aa0       gxv_mort_subtable_type2_entry_validate 0000000180045aa0 f    CIL library: CIL module
 0001:00044ad0       gxv_mort_subtable_type2_subtable_setup 0000000180045ad0 f    CIL library: CIL module
 0001:00044da0       gxv_mort_subtable_type1_subtable_setup 0000000180045da0 f    CIL library: CIL module
 0001:00044e30       gxv_mort_featurearray_validate 0000000180045e30 f    CIL library: CIL module
 0001:00044ff0       gxv_just_actSubrecord_type5_validate 0000000180045ff0 f    CIL library: CIL module
 0001:000450d0       gxv_just_actSubrecord_type2_validate 00000001800460d0 f    CIL library: CIL module
 0001:00045180       gxv_just_actSubrecord_type1_validate 0000000180046180 f    CIL library: CIL module
 0001:000451f0       gxv_just_actSubrecord_type0_validate 00000001800461f0 f    CIL library: CIL module
 0001:00045360       gxv_just_wdc_entry_validate 0000000180046360 f    CIL library: CIL module
 0001:00045450       gxv_XStateTable_subtable_setup 0000000180046450 f    CIL library: CIL module
 0001:000454c0       gxv_StateTable_subtable_setup 00000001800464c0 f    CIL library: CIL module
 0001:00045530       gxv_ClassTable_validate    0000000180046530 f    CIL library: CIL module
 0001:000457b0       gxv_sfntName_validate      00000001800467b0 f    CIL library: CIL module
 0001:00045940       gxv_BinSrchHeader_validate 0000000180046940 f    CIL library: CIL module
 0001:00045b50       gxv_feat_name_index_validate 0000000180046b50 f    CIL library: CIL module
 0001:00045c40       gxv_kern_subtable_fmt2_validate 0000000180046c40 f    CIL library: CIL module
 0001:00045f40       gxv_kern_subtable_fmt0_validate 0000000180046f40 f    CIL library: CIL module
 0001:00046040       gxv_mort_subtable_type5_subtable_setup 0000000180047040 f    CIL library: CIL module
 0001:000460f0       gxv_just_actSubrecord_validate 00000001800470f0 f    CIL library: CIL module
 0001:00046280       gxv_just_widthDeltaClusters_validate 0000000180047280 f    CIL library: CIL module
 0001:00046360       gxv_trak_trackTable_validate 0000000180047360 f    CIL library: CIL module
 0001:00046560       gxv_StateTable_validate    0000000180047560 f    CIL library: CIL module
 0001:00046920       gxv_LookupTable_fmt6_validate 0000000180047920 f    CIL library: CIL module
 0001:00046ba0       gxv_LookupTable_fmt4_validate 0000000180047ba0 f    CIL library: CIL module
 0001:00046f30       gxv_LookupTable_fmt2_validate 0000000180047f30 f    CIL library: CIL module
 0001:00047250       gxv_feat_setting_validate  0000000180048250 f    CIL library: CIL module
 0001:00047300       gxv_prop_zero_advance_validate 0000000180048300 f    CIL library: CIL module
 0001:000473f0       gxv_kern_subtable_fmt1_validate 00000001800483f0 f    CIL library: CIL module
 0001:000474b0       gxv_mort_subtable_type5_validate 00000001800484b0 f    CIL library: CIL module
 0001:00047590       gxv_mort_subtable_type2_validate 0000000180048590 f    CIL library: CIL module
 0001:00047690       gxv_mort_subtable_type1_validate 0000000180048690 f    CIL library: CIL module
 0001:00047790       gxv_mort_subtable_type0_validate 0000000180048790 f    CIL library: CIL module
 0001:00047860       gxv_just_justClassTable_validate 0000000180048860 f    CIL library: CIL module
 0001:00047a60       gxv_just_pcActionRecord_validate 0000000180048a60 f    CIL library: CIL module
 0001:00047b60       gxv_trak_trackData_validate 0000000180048b60 f    CIL library: CIL module
 0001:00047e00       gxv_ctlPoint_validate      0000000180048e00 f    CIL library: CIL module
 0001:00047eb0       gxv_LookupTable_validate   0000000180048eb0 f    CIL library: CIL module
 0001:00048040       gxv_feat_name_validate     0000000180049040 f    CIL library: CIL module
 0001:00048200       gxv_lcar_partial_validate  0000000180049200 f    CIL library: CIL module
 0001:00048290       gxv_prop_property_validate 0000000180049290 f    CIL library: CIL module
 0001:000484e0       gxv_opbd_LookupValue_validate 00000001800494e0 f    CIL library: CIL module
 0001:000485b0       gxv_kern_subtable_validate 00000001800495b0 f    CIL library: CIL module
 0001:000488a0       gxv_morx_subtable_type1_substitutionTable_validate 00000001800498a0 f    CIL library: CIL module
 0001:00048980       gxv_mort_subtable_type4_validate 0000000180049980 f    CIL library: CIL module
 0001:00048a30       gxv_mort_subtables_validate 0000000180049a30 f    CIL library: CIL module
 0001:00048c80       gxv_just_justData_lookuptable_validate 0000000180049c80 f    CIL library: CIL module
 0001:00048cd0       gxv_just_pcLookupTable_validate 0000000180049cd0 f    CIL library: CIL module
 0001:00048d80       gxv_trak_validate          0000000180049d80 f    CIL library: CIL module
 0001:00049120       gxv_bsln_parts_fmt2_validate 000000018004a120 f    CIL library: CIL module
 0001:00049290       gxv_bsln_parts_fmt1_validate 000000018004a290 f    CIL library: CIL module
 0001:00049350       gxv_XStateTable_validate   000000018004a350 f    CIL library: CIL module
 0001:00049790       gxv_feat_validate          000000018004a790 f    CIL library: CIL module
 0001:00049990       gxv_lcar_LookupValue_validate 000000018004a990 f    CIL library: CIL module
 0001:00049ad0       gxv_prop_LookupValue_validate 000000018004aad0 f    CIL library: CIL module
 0001:00049af0       gxv_opbd_validate          000000018004aaf0 f    CIL library: CIL module
 0001:00049d20       gxv_kern_validate_generic  000000018004ad20 f    CIL library: CIL module
 0001:00049f60       gxv_morx_subtable_type5_validate 000000018004af60 f    CIL library: CIL module
 0001:0004a050       gxv_morx_subtable_type4_validate 000000018004b050 f    CIL library: CIL module
 0001:0004a0e0       gxv_morx_subtable_type2_validate 000000018004b0e0 f    CIL library: CIL module
 0001:0004a1d0       gxv_morx_subtable_type1_validate 000000018004b1d0 f    CIL library: CIL module
 0001:0004a2e0       gxv_morx_subtable_type0_validate 000000018004b2e0 f    CIL library: CIL module
 0001:0004a3c0       gxv_morx_subtables_validate 000000018004b3c0 f    CIL library: CIL module
 0001:0004a630       gxv_mort_chain_validate    000000018004b630 f    CIL library: CIL module
 0001:0004a760       gxv_just_postcompTable_validate 000000018004b760 f    CIL library: CIL module
 0001:0004a810       gxv_bsln_parts_fmt3_validate 000000018004b810 f    CIL library: CIL module
 0001:0004a8d0       gxv_lcar_validate          000000018004b8d0 f    CIL library: CIL module
 0001:0004a9f0       gxv_prop_validate          000000018004b9f0 f    CIL library: CIL module
 0001:0004acb0       gxv_kern_validate_classic  000000018004bcb0 f    CIL library: CIL module
 0001:0004acd0       gxv_kern_validate          000000018004bcd0 f    CIL library: CIL module
 0001:0004ad00       gxv_morx_chain_validate    000000018004bd00 f    CIL library: CIL module
 0001:0004ae60       gxv_mort_validate          000000018004be60 f    CIL library: CIL module
 0001:0004b000       gxv_just_justData_validate 000000018004c000 f    CIL library: CIL module
 0001:0004b2a0       gxv_bsln_validate          000000018004c2a0 f    CIL library: CIL module
 0001:0004b450       classic_kern_validate      000000018004c450 f    CIL library: CIL module
 0001:0004b560       gxv_morx_validate          000000018004c560 f    CIL library: CIL module
 0001:0004b6e0       gxv_just_validate          000000018004c6e0 f    CIL library: CIL module
 0001:0004b9d0       gxv_validate               000000018004c9d0 f    CIL library: CIL module
 0001:0004c330       cid_get_cid_from_glyph_index 000000018004d330 f    CIL library: CIL module
 0001:0004c350       cid_get_is_cid             000000018004d350 f    CIL library: CIL module
 0001:0004c370       cid_get_ros                000000018004d370 f    CIL library: CIL module
 0001:0004c3b0       cid_ps_get_font_extra      000000018004d3b0 f    CIL library: CIL module
 0001:0004c3d0       cid_ps_get_font_info       000000018004d3d0 f    CIL library: CIL module
 0001:0004c430       cid_get_postscript_name    000000018004d430 f    CIL library: CIL module
 0001:0004c450       cid_driver_done            000000018004d450 f    CIL library: CIL module
 0001:0004c460       cid_driver_init            000000018004d460 f    CIL library: CIL module
 0001:0004c470       cid_slot_done              000000018004d470 f    CIL library: CIL module
 0001:0004c490       cid_init_loader            000000018004d490 f    CIL library: CIL module
 0001:0004c4b0       parse_expansion_factor     000000018004d4b0 f    CIL library: CIL module
 0001:0004c510       cid_get_offset             000000018004d510 f    CIL library: CIL module
 0001:0004c540       cid_load_glyph             000000018004d540 f    CIL library: CIL module
 0001:0004c900       cid_get_interface          000000018004d900 f    CIL library: CIL module
 0001:0004c920       cid_face_done              000000018004d920 f    CIL library: CIL module
 0001:0004cb00       cid_size_get_globals_funcs 000000018004db00 f    CIL library: CIL module
 0001:0004cb60       cid_slot_init              000000018004db60 f    CIL library: CIL module
 0001:0004cbc0       cid_hex_to_binary          000000018004dbc0 f    CIL library: CIL module
 0001:0004cd60       cid_parse_font_matrix      000000018004dd60 f    CIL library: CIL module
 0001:0004ce90       cid_load_keyword           000000018004de90 f    CIL library: CIL module
 0001:0004cfa0       cid_parser_done            000000018004dfa0 f    CIL library: CIL module
 0001:0004cfe0       cid_parser_new             000000018004dfe0 f    CIL library: CIL module
 0001:0004d3a0       cid_size_init              000000018004e3a0 f    CIL library: CIL module
 0001:0004d400       cid_size_done              000000018004e400 f    CIL library: CIL module
 0001:0004d440       cid_done_loader            000000018004e440 f    CIL library: CIL module
 0001:0004d450       cid_read_subrs             000000018004e450 f    CIL library: CIL module
 0001:0004d900       cid_parse_dict             000000018004e900 f    CIL library: CIL module
 0001:0004da90       parse_fd_array             000000018004ea90 f    CIL library: CIL module
 0001:0004db60       cid_slot_load_glyph        000000018004eb60 f    CIL library: CIL module
 0001:0004df00       cid_size_request           000000018004ef00 f    CIL library: CIL module
 0001:0004df50       cid_face_open              000000018004ef50 f    CIL library: CIL module
 0001:0004e110       cid_face_init              000000018004f110 f    CIL library: CIL module
 0001:0004e3e0       cf2_stack_clear            000000018004f3e0 f    CIL library: CIL module
 0001:0004e400       cf2_stack_count            000000018004f400 f    CIL library: CIL module
 0001:0004e420       cf2_buf_isEnd              000000018004f420 f    CIL library: CIL module
 0001:0004e440       cf2_hintmask_getMaskPtr    000000018004f440 f    CIL library: CIL module
 0001:0004e450       cf2_hintmask_setNew        000000018004f450 f    CIL library: CIL module
 0001:0004e460       cf2_hintmask_isNew         000000018004f460 f    CIL library: CIL module
 0001:0004e470       cf2_hintmask_isValid       000000018004f470 f    CIL library: CIL module
 0001:0004e480       cf2_hintmask_init          000000018004f480 f    CIL library: CIL module
 0001:0004e4a0       cf2_hintmap_isValid        000000018004f4a0 f    CIL library: CIL module
 0001:0004e4b0       cf2_hintmap_init           000000018004f4b0 f    CIL library: CIL module
 0001:0004e520       cf2_hint_lock              000000018004f520 f    CIL library: CIL module
 0001:0004e530       cf2_hint_isSynthetic       000000018004f530 f    CIL library: CIL module
 0001:0004e540       cf2_hint_isLocked          000000018004f540 f    CIL library: CIL module
 0001:0004e550       cf2_hint_isBottom          000000018004f550 f    CIL library: CIL module
 0001:0004e560       cf2_hint_isTop             000000018004f560 f    CIL library: CIL module
 0001:0004e570       cf2_hint_isPairTop         000000018004f570 f    CIL library: CIL module
 0001:0004e580       cf2_hint_isPair            000000018004f580 f    CIL library: CIL module
 0001:0004e590       cf2_hint_isValid           000000018004f590 f    CIL library: CIL module
 0001:0004e5a0       cf2_hint_initZero          000000018004f5a0 f    CIL library: CIL module
 0001:0004e5c0       cf2_getWindingMomentum     000000018004f5c0 f    CIL library: CIL module
 0001:0004e5f0       cf2_free_instance          000000018004f5f0 f    CIL library: CIL module
 0001:0004e600       cf2_setError               000000018004f600 f    CIL library: CIL module
 0001:0004e620       cff_cmap_unicode_char_next 000000018004f620 f    CIL library: CIL module
 0001:0004e640       cff_cmap_unicode_char_index 000000018004f640 f    CIL library: CIL module
 0001:0004e660       cff_cmap_encoding_char_next 000000018004f660 f    CIL library: CIL module
 0001:0004e6c0       cff_cmap_encoding_char_index 000000018004f6c0 f    CIL library: CIL module
 0001:0004e6e0       cff_cmap_encoding_done     000000018004f6e0 f    CIL library: CIL module
 0001:0004e6f0       cff_cmap_encoding_init     000000018004f6f0 f    CIL library: CIL module
 0001:0004e710       cff_builder_close_contour  000000018004f710 f    CIL library: CIL module
 0001:0004e7d0       cff_builder_add_point      000000018004f7d0 f    CIL library: CIL module
 0001:0004e810       cff_compute_bias           000000018004f810 f    CIL library: CIL module
 0001:0004e840       cff_builder_done           000000018004f840 f    CIL library: CIL module
 0001:0004e890       cff_driver_done            000000018004f890 f    CIL library: CIL module
 0001:0004e8a0       cff_driver_init            000000018004f8a0 f    CIL library: CIL module
 0001:0004e8c0       remove_style               000000018004f8c0 f    CIL library: CIL module
 0001:0004e9a0       remove_subset_prefix       000000018004f9a0 f    CIL library: CIL module
 0001:0004ea20       cff_slot_done              000000018004fa20 f    CIL library: CIL module
 0001:0004ea40       cff_make_private_dict      000000018004fa40 f    CIL library: CIL module
 0001:0004ec20       cff_encoding_done          000000018004fc20 f    CIL library: CIL module
 0001:0004ec40       cff_charset_cid_to_gindex  000000018004fc40 f    CIL library: CIL module
 0001:0004ec60       cff_fd_select_get          000000018004fc60 f    CIL library: CIL module
 0001:0004ed20       cff_index_get_string       000000018004fd20 f    CIL library: CIL module
 0001:0004ed40       cff_get_standard_encoding  000000018004fd40 f    CIL library: CIL module
 0001:0004ed60       cff_parser_init            000000018004fd60 f    CIL library: CIL module
 0001:0004edd0       cff_get_is_cid             000000018004fdd0 f    CIL library: CIL module
 0001:0004ee00       cff_get_ps_name            000000018004fe00 f    CIL library: CIL module
 0001:0004ee20       cff_ps_has_glyph_names     000000018004fe20 f    CIL library: CIL module
 0001:0004ee40       cff_get_kerning            000000018004fe40 f    CIL library: CIL module
 0001:0004ee80       cf2_stack_getReal          000000018004fe80 f    CIL library: CIL module
 0001:0004ef30       cf2_stack_popFixed         000000018004ff30 f    CIL library: CIL module
 0001:0004efc0       cf2_stack_popInt           000000018004ffc0 f    CIL library: CIL module
 0001:0004f050       cf2_stack_pushFixed        0000000180050050 f    CIL library: CIL module
 0001:0004f0b0       cf2_stack_pushInt          00000001800500b0 f    CIL library: CIL module
 0001:0004f110       cf2_stack_free             0000000180050110 f    CIL library: CIL module
 0001:0004f130       cf2_stack_init             0000000180050130 f    CIL library: CIL module
 0001:0004f190       cf2_buf_readByte           0000000180050190 f    CIL library: CIL module
 0001:0004f1e0       cf2_hintmask_setCounts     00000001800501e0 f    CIL library: CIL module
 0001:0004f240       cf2_glyphpath_computeOffset 0000000180050240 f    CIL library: CIL module
 0001:0004f410       cf2_glyphpath_computeIntersection 0000000180050410 f    CIL library: CIL module
 0001:0004f620       cf2_hintmap_map            0000000180050620 f    CIL library: CIL module
 0001:0004f740       cf2_outline_reset          0000000180050740 f    CIL library: CIL module
 0001:0004f780       cf2_getNominalWidthX       0000000180050780 f    CIL library: CIL module
 0001:0004f7d0       cf2_getDefaultWidthX       00000001800507d0 f    CIL library: CIL module
 0001:0004f820       cf2_initLocalRegionBuffer  0000000180050820 f    CIL library: CIL module
 0001:0004f8b0       cf2_initGlobalRegionBuffer 00000001800508b0 f    CIL library: CIL module
 0001:0004f940       cf2_getLanguageGroup       0000000180050940 f    CIL library: CIL module
 0001:0004f980       cf2_getFamilyOtherBlues    0000000180050980 f    CIL library: CIL module
 0001:0004f9e0       cf2_getFamilyBlues         00000001800509e0 f    CIL library: CIL module
 0001:0004fa40       cf2_getOtherBlues          0000000180050a40 f    CIL library: CIL module
 0001:0004faa0       cf2_getBlueValues          0000000180050aa0 f    CIL library: CIL module
 0001:0004fb00       cf2_getBlueMetrics         0000000180050b00 f    CIL library: CIL module
 0001:0004fb90       cf2_getStdHW               0000000180050b90 f    CIL library: CIL module
 0001:0004fbe0       cf2_getStdVW               0000000180050be0 f    CIL library: CIL module
 0001:0004fc30       cf2_getPpemY               0000000180050c30 f    CIL library: CIL module
 0001:0004fca0       cf2_getSubfont             0000000180050ca0 f    CIL library: CIL module
 0001:0004fce0       cf2_getUnitsPerEm          0000000180050ce0 f    CIL library: CIL module
 0001:0004fd40       cf2_getScaleAndHintFlag    0000000180050d40 f    CIL library: CIL module
 0001:0004fdf0       cf2_builder_moveTo         0000000180050df0 f    CIL library: CIL module
 0001:0004fe60       cf2_setGlyphWidth          0000000180050e60 f    CIL library: CIL module
 0001:0004feb0       cf2_checkTransform         0000000180050eb0 f    CIL library: CIL module
 0001:0004ffc0       cf2_computeDarkening       0000000180050fc0 f    CIL library: CIL module
 0001:00050100       cf2_blues_capture          0000000180051100 f    CIL library: CIL module
 0001:000502f0       cf2_blues_init             00000001800512f0 f    CIL library: CIL module
 0001:00050800       cf2_arrstack_getPointer    0000000180051800 f    CIL library: CIL module
 0001:00050870       cf2_arrstack_getBuffer     0000000180051870 f    CIL library: CIL module
 0001:000508b0       cf2_arrstack_size          00000001800518b0 f    CIL library: CIL module
 0001:000508f0       cf2_arrstack_clear         00000001800518f0 f    CIL library: CIL module
 0001:00050930       cf2_arrstack_finalize      0000000180051930 f    CIL library: CIL module
 0001:00050970       cf2_arrstack_init          0000000180051970 f    CIL library: CIL module
 0001:000509c0       cff_cmap_unicode_done      00000001800519c0 f    CIL library: CIL module
 0001:00050a00       cff_lookup_glyph_by_stdcharcode 0000000180051a00 f    CIL library: CIL module
 0001:00050a50       cff_decoder_prepare        0000000180051a50 f    CIL library: CIL module
 0001:00050bc0       cff_builder_init           0000000180051bc0 f    CIL library: CIL module
 0001:00050c60       cff_slot_init              0000000180051c60 f    CIL library: CIL module
 0001:00050cd0       cff_size_get_globals_funcs 0000000180051cd0 f    CIL library: CIL module
 0001:00050d30       cff_charset_free_cids      0000000180051d30 f    CIL library: CIL module
 0001:00050d60       CFF_Load_FD_Select         0000000180051d60 f    CIL library: CIL module
 0001:00050e60       CFF_Done_FD_Select         0000000180051e60 f    CIL library: CIL module
 0001:00050ea0       cff_index_get_sid_string   0000000180051ea0 f    CIL library: CIL module
 0001:00050ee0       cff_index_forget_element   0000000180051ee0 f    CIL library: CIL module
 0001:00050f00       cff_index_done             0000000180051f00 f    CIL library: CIL module
 0001:00050f70       cff_index_read_offset      0000000180051f70 f    CIL library: CIL module
 0001:00050fe0       cff_parse_real             0000000180051fe0 f    CIL library: CIL module
 0001:00051380       cff_parse_integer          0000000180052380 f    CIL library: CIL module
 0001:00051470       cff_get_interface          0000000180052470 f    CIL library: CIL module
 0001:000514d0       cff_property_get           00000001800524d0 f    CIL library: CIL module
 0001:00051570       cff_property_set           0000000180052570 f    CIL library: CIL module
 0001:00051620       cff_get_cid_from_glyph_index 0000000180052620 f    CIL library: CIL module
 0001:000516b0       cff_get_ros                00000001800526b0 f    CIL library: CIL module
 0001:000517c0       cff_get_cmap_info          00000001800527c0 f    CIL library: CIL module
 0001:00051860       cff_ps_get_font_info       0000000180052860 f    CIL library: CIL module
 0001:000519c0       cff_get_name_index         00000001800529c0 f    CIL library: CIL module
 0001:00051ab0       cff_get_glyph_name         0000000180052ab0 f    CIL library: CIL module
 0001:00051b40       cf2_hintmask_setAll        0000000180052b40 f    CIL library: CIL module
 0001:00051be0       cf2_hintmask_read          0000000180052be0 f    CIL library: CIL module
 0001:00051ca0       cf2_glyphpath_hintPoint    0000000180052ca0 f    CIL library: CIL module
 0001:00051d60       cf2_glyphpath_finalize     0000000180052d60 f    CIL library: CIL module
 0001:00051d80       cf2_glyphpath_init         0000000180052d80 f    CIL library: CIL module
 0001:00051f60       cf2_hintmap_insertHint     0000000180052f60 f    CIL library: CIL module
 0001:00052230       cf2_hint_init              0000000180053230 f    CIL library: CIL module
 0001:00052380       cf2_font_setup             0000000180053380 f    CIL library: CIL module
 0001:00052600       cf2_arrstack_setNumElements 0000000180053600 f    CIL library: CIL module
 0001:00052740       cff_sid_to_glyph_name      0000000180053740 f    CIL library: CIL module
 0001:00052760       cff_free_glyph_data        0000000180053760 f    CIL library: CIL module
 0001:000527c0       cff_decoder_init           00000001800537c0 f    CIL library: CIL module
 0001:00052880       cff_size_init              0000000180053880 f    CIL library: CIL module
 0001:000529a0       cff_size_done              00000001800539a0 f    CIL library: CIL module
 0001:00052a10       cff_subfont_done           0000000180053a10 f    CIL library: CIL module
 0001:00052a60       cff_charset_done           0000000180053a60 f    CIL library: CIL module
 0001:00052ab0       cff_charset_compute_cids   0000000180053ab0 f    CIL library: CIL module
 0001:00052ba0       cff_index_access_element   0000000180053ba0 f    CIL library: CIL module
 0001:00052d60       cff_index_load_offsets     0000000180053d60 f    CIL library: CIL module
 0001:00052f40       cff_index_init             0000000180053f40 f    CIL library: CIL module
 0001:000530b0       cff_parse_fixed_dynamic    00000001800540b0 f    CIL library: CIL module
 0001:000531a0       do_fixed                   00000001800541a0 f    CIL library: CIL module
 0001:00053230       cff_parse_num              0000000180054230 f    CIL library: CIL module
 0001:00053270       cf2_glyphpath_pushMove     0000000180054270 f    CIL library: CIL module
 0001:00053320       cf2_glyphpath_pushPrevElem 0000000180054320 f    CIL library: CIL module
 0001:00053580       cf2_outline_close          0000000180054580 f    CIL library: CIL module
 0001:000535d0       cf2_freeSeacComponent      00000001800545d0 f    CIL library: CIL module
 0001:00053620       cf2_arrstack_push          0000000180054620 f    CIL library: CIL module
 0001:000536c0       cf2_arrstack_setCount      00000001800546c0 f    CIL library: CIL module
 0001:00053710       cff_cmap_unicode_init      0000000180054710 f    CIL library: CIL module
 0001:00053780       cff_get_glyph_data         0000000180054780 f    CIL library: CIL module
 0001:000537f0       cff_builder_add_contour    00000001800547f0 f    CIL library: CIL module
 0001:00053870       cff_check_points           0000000180054870 f    CIL library: CIL module
 0001:000538a0       cff_strcpy                 00000001800548a0 f    CIL library: CIL module
 0001:000538c0       cff_size_select            00000001800548c0 f    CIL library: CIL module
 0001:000539e0       cff_font_done              00000001800549e0 f    CIL library: CIL module
 0001:00053b80       cff_encoding_load          0000000180054b80 f    CIL library: CIL module
 0001:00053f80       cff_charset_load           0000000180054f80 f    CIL library: CIL module
 0001:000543f0       cff_index_get_name         00000001800553f0 f    CIL library: CIL module
 0001:00054480       cff_index_get_pointers     0000000180055480 f    CIL library: CIL module
 0001:000546c0       cff_parse_cid_ros          00000001800556c0 f    CIL library: CIL module
 0001:000547a0       cff_parse_private_dict     00000001800557a0 f    CIL library: CIL module
 0001:00054820       cff_parse_fixed_scaled     0000000180055820 f    CIL library: CIL module
 0001:00054830       cff_parse_fixed            0000000180055830 f    CIL library: CIL module
 0001:00054840       cf2_doStems                0000000180055840 f    CIL library: CIL module
 0001:00054960       cf2_hintmap_adjustHints    0000000180055960 f    CIL library: CIL module
 0001:00054d90       cf2_getSeacComponent       0000000180055d90 f    CIL library: CIL module
 0001:00054e60       cff_builder_add_point1     0000000180055e60 f    CIL library: CIL module
 0001:00054ec0       cff_face_done              0000000180055ec0 f    CIL library: CIL module
 0001:00054f30       cff_size_request           0000000180055f30 f    CIL library: CIL module
 0001:00055090       cff_parser_run             0000000180056090 f    CIL library: CIL module
 0001:00055600       cff_parse_font_bbox        0000000180056600 f    CIL library: CIL module
 0001:000556e0       cff_parse_font_matrix      00000001800566e0 f    CIL library: CIL module
 0001:000558d0       cf2_hintmap_build          00000001800568d0 f    CIL library: CIL module
 0001:00055d10       cff_builder_start_point    0000000180056d10 f    CIL library: CIL module
 0001:00055d70       cff_subfont_load           0000000180056d70 f    CIL library: CIL module
 0001:00056010       cf2_glyphpath_curveTo      0000000180057010 f    CIL library: CIL module
 0001:00056250       cf2_glyphpath_lineTo       0000000180057250 f    CIL library: CIL module
 0001:000563f0       cf2_builder_cubeTo         00000001800573f0 f    CIL library: CIL module
 0001:000564b0       cf2_builder_lineTo         00000001800574b0 f    CIL library: CIL module
 0001:00056540       cff_font_load              0000000180057540 f    CIL library: CIL module
 0001:00056a60       cf2_doFlex                 0000000180057a60 f    CIL library: CIL module
 0001:00056c50       cf2_glyphpath_closeOpenPath 0000000180057c50 f    CIL library: CIL module
 0001:00056d20       cf2_glyphpath_moveTo       0000000180057d20 f    CIL library: CIL module
 0001:00056dd0       cf2_outline_init           0000000180057dd0 f    CIL library: CIL module
 0001:00056e10       cff_face_init              0000000180057e10 f    CIL library: CIL module
 0001:00057750       cf2_interpT2CharString     0000000180058750 f    CIL library: CIL module
 0001:000598d0       cf2_getGlyphOutline        000000018005a8d0 f    CIL library: CIL module
 0001:00059a10       cf2_decoder_parse_charstrings 000000018005aa10 f    CIL library: CIL module
 0001:00059c20       cff_slot_load              000000018005ac20 f    CIL library: CIL module
 0001:0005a4e0       cff_glyph_load             000000018005b4e0 f    CIL library: CIL module
 0001:0005a550       cff_get_advances           000000018005b550 f    CIL library: CIL module
 0001:0005a5f0       ftc_basic_family_compare   000000018005b5f0 f    CIL library: CIL module
 0001:0005a660       ftc_inode_weight           000000018005b660 f    CIL library: CIL module
 0001:0005a6b0       FTC_Family_Init            000000018005b6b0 f    CIL library: CIL module
 0001:0005a6d0       ftc_gnode_compare          000000018005b6d0 f    CIL library: CIL module
 0001:0005a700       FTC_GNode_Init             000000018005b700 f    CIL library: CIL module
 0001:0005a720       ftc_cmap_node_remove_faceid 000000018005b720 f    CIL library: CIL module
 0001:0005a740       ftc_cmap_node_compare      000000018005b740 f    CIL library: CIL module
 0001:0005a780       ftc_cmap_node_weight       000000018005b780 f    CIL library: CIL module
 0001:0005a7c0       ftc_face_node_compare      000000018005b7c0 f    CIL library: CIL module
 0001:0005a7d0       ftc_size_node_compare_faceid 000000018005b7d0 f    CIL library: CIL module
 0001:0005a7e0       FTC_MruList_Init           000000018005b7e0 f    CIL library: CIL module
 0001:0005a830       FTC_MruNode_Prepend        000000018005b830 f    CIL library: CIL module
 0001:0005a860       ftc_basic_family_init      000000018005b860 f    CIL library: CIL module
 0001:0005a8b0       ftc_snode_weight           000000018005b8b0 f    CIL library: CIL module
 0001:0005a920       ftc_sbit_copy_bitmap       000000018005b920 f    CIL library: CIL module
 0001:0005a990       FTC_GNode_Compare          000000018005b990 f    CIL library: CIL module
 0001:0005a9a0       ftc_cmap_node_new          000000018005b9a0 f    CIL library: CIL module
 0001:0005aa30       ftc_cmap_node_free         000000018005ba30 f    CIL library: CIL module
 0001:0005aa50       ftc_node_mru_link          000000018005ba50 f    CIL library: CIL module
 0001:0005aa80       FTC_Manager_RegisterCache  000000018005ba80 f    CIL library: CIL module
 0001:0005ace0       ftc_size_node_compare      000000018005bce0 f    CIL library: CIL module
 0001:0005ad50       FTC_MruNode_Remove         000000018005bd50 f    CIL library: CIL module
 0001:0005adf0       FTC_MruNode_Up             000000018005bdf0 f    CIL library: CIL module
 0001:0005ae50       ftc_snode_load             000000018005be50 f    CIL library: CIL module
 0001:0005b050       FTC_GCache_New             000000018005c050 f    CIL library: CIL module
 0001:0005b080       ftc_cache_init             000000018005c080 f    CIL library: CIL module
 0001:0005b0e0       FTC_Cache_Init             000000018005c0e0 f    CIL library: CIL module
 0001:0005b0f0       ftc_cache_resize           000000018005c0f0 f    CIL library: CIL module
 0001:0005b270       ftc_node_mru_unlink        000000018005c270 f    CIL library: CIL module
 0001:0005b2a0       ftc_face_node_init         000000018005c2a0 f    CIL library: CIL module
 0001:0005b300       ftc_size_node_done         000000018005c300 f    CIL library: CIL module
 0001:0005b320       FTC_MruList_Remove         000000018005c320 f    CIL library: CIL module
 0001:0005b380       FTC_MruList_New            000000018005c380 f    CIL library: CIL module
 0001:0005b4a0       FTC_MruList_Reset          000000018005c4a0 f    CIL library: CIL module
 0001:0005b530       ftc_gcache_init            000000018005c530 f    CIL library: CIL module
 0001:0005b580       FTC_GNode_UnselectFamily   000000018005c580 f    CIL library: CIL module
 0001:0005b5c0       FTC_Cache_RemoveFaceID     000000018005c5c0 f    CIL library: CIL module
 0001:0005b6e0       FTC_Cache_Clear            000000018005c6e0 f    CIL library: CIL module
 0001:0005b7d0       ftc_node_hash_link         000000018005c7d0 f    CIL library: CIL module
 0001:0005b820       ftc_node_hash_unlink       000000018005c820 f    CIL library: CIL module
 0001:0005ba90       FTC_MruList_RemoveSelection 000000018005ca90 f    CIL library: CIL module
 0001:0005bb50       FTC_MruList_Done           000000018005cb50 f    CIL library: CIL module
 0001:0005bb60       ftc_basic_gnode_compare_faceid 000000018005cb60 f    CIL library: CIL module
 0001:0005bba0       ftc_basic_family_load_glyph 000000018005cba0 f    CIL library: CIL module
 0001:0005bc50       ftc_basic_family_load_bitmap 000000018005cc50 f    CIL library: CIL module
 0001:0005bcc0       ftc_basic_family_get_count 000000018005ccc0 f    CIL library: CIL module
 0001:0005bd40       FTC_GNode_Done             000000018005cd40 f    CIL library: CIL module
 0001:0005bd60       ftc_cache_done             000000018005cd60 f    CIL library: CIL module
 0001:0005bdb0       ftc_node_destroy           000000018005cdb0 f    CIL library: CIL module
 0001:0005be90       FTC_Manager_FlushN         000000018005ce90 f    CIL library: CIL module
 0001:0005bf20       FTC_Manager_Compress       000000018005cf20 f    CIL library: CIL module
 0001:0005c0b0       ftc_snode_compare          000000018005d0b0 f    CIL library: CIL module
 0001:0005c1e0       ftc_snode_free             000000018005d1e0 f    CIL library: CIL module
 0001:0005c260       ftc_inode_free             000000018005d260 f    CIL library: CIL module
 0001:0005c2c0       ftc_cache_add              000000018005d2c0 f    CIL library: CIL module
 0001:0005c350       FTC_Cache_Done             000000018005d350 f    CIL library: CIL module
 0001:0005c360       FTC_SNode_Compare          000000018005d360 f    CIL library: CIL module
 0001:0005c370       FTC_SNode_Free             000000018005d370 f    CIL library: CIL module
 0001:0005c380       FTC_INode_Free             000000018005d380 f    CIL library: CIL module
 0001:0005c390       ftc_gcache_done            000000018005d390 f    CIL library: CIL module
 0001:0005c3c0       FTC_Cache_NewNode          000000018005d3c0 f    CIL library: CIL module
 0001:0005c480       ftc_scaler_lookup_size     000000018005d480 f    CIL library: CIL module
 0001:0005d240       FTC_SNode_New              000000018005e240 f    CIL library: CIL module
 0001:0005d360       FTC_INode_New              000000018005e360 f    CIL library: CIL module
 0001:0005d6a0       ftc_face_node_done         000000018005e6a0 f    CIL library: CIL module
 0001:0005d6e0       ftc_size_node_reset        000000018005e6e0 f    CIL library: CIL module
 0001:0005d750       ftc_size_node_init         000000018005e750 f    CIL library: CIL module
 0001:0005d790       ftc_snode_new              000000018005e790 f    CIL library: CIL module
 0001:0005d7a0       ftc_inode_new              000000018005e7a0 f    CIL library: CIL module
 0001:0005d7b0       bdf_get_charset_id         000000018005e7b0 f    CIL library: CIL module
 0001:0005d7d0       bdf_cmap_char_index        000000018005e7d0 f    CIL library: CIL module
 0001:0005d830       bdf_cmap_done              000000018005e830 f    CIL library: CIL module
 0001:0005d840       bdf_cmap_init              000000018005e840 f    CIL library: CIL module
 0001:0005d870       by_encoding                000000018005e870 f    CIL library: CIL module
 0001:0005d890       _bdf_atos                  000000018005e890 f    CIL library: CIL module
 0001:0005d9a0       _bdf_atol                  000000018005e9a0 f    CIL library: CIL module
 0001:0005da90       _bdf_atoul                 000000018005ea90 f    CIL library: CIL module
 0001:0005db70       _bdf_list_join             000000018005eb70 f    CIL library: CIL module
 0001:0005dc20       _bdf_list_shift            000000018005ec20 f    CIL library: CIL module
 0001:0005dc80       _bdf_list_init             000000018005ec80 f    CIL library: CIL module
 0001:0005dca0       hash_bucket                000000018005eca0 f    CIL library: CIL module
 0001:0005dd60       bdf_driver_requester       000000018005ed60 f    CIL library: CIL module
 0001:0005dd80       bdf_cmap_char_next         000000018005ed80 f    CIL library: CIL module
 0001:0005de40       _bdf_list_done             000000018005ee40 f    CIL library: CIL module
 0001:0005de80       hash_lookup                000000018005ee80 f    CIL library: CIL module
 0001:0005dea0       hash_free                  000000018005eea0 f    CIL library: CIL module
 0001:0005df20       BDF_Glyph_Load             000000018005ef20 f    CIL library: CIL module
 0001:0005e0e0       bdf_get_font_property      000000018005f0e0 f    CIL library: CIL module
 0001:0005e140       bdf_free_font              000000018005f140 f    CIL library: CIL module
 0001:0005e380       _bdf_add_comment           000000018005f380 f    CIL library: CIL module
 0001:0005e420       bdf_get_property           000000018005f420 f    CIL library: CIL module
 0001:0005e490       _bdf_readstream            000000018005f490 f    CIL library: CIL module
 0001:0005e840       _bdf_list_ensure           000000018005f840 f    CIL library: CIL module
 0001:0005e900       hash_init                  000000018005f900 f    CIL library: CIL module
 0001:0005e960       hash_rehash                000000018005f960 f    CIL library: CIL module
 0001:0005ea30       bdf_get_bdf_property       000000018005fa30 f    CIL library: CIL module
 0001:0005eb60       BDF_Size_Select            000000018005fb60 f    CIL library: CIL module
 0001:0005ebb0       BDF_Face_Done              000000018005fbb0 f    CIL library: CIL module
 0001:0005ec80       bdf_interpret_style        000000018005fc80 f    CIL library: CIL module
 0001:0005ef10       _bdf_is_atom               000000018005ff10 f    CIL library: CIL module
 0001:0005f030       _bdf_list_split            0000000180060030 f    CIL library: CIL module
 0001:0005f290       hash_insert                0000000180060290 f    CIL library: CIL module
 0001:0005f340       BDF_Size_Request           0000000180060340 f    CIL library: CIL module
 0001:0005f400       _bdf_parse_glyphs          0000000180060400 f    CIL library: CIL module
 0001:00060170       _bdf_set_default_spacing   0000000180061170 f    CIL library: CIL module
 0001:00060340       bdf_create_property        0000000180061340 f    CIL library: CIL module
 0001:000604b0       _bdf_add_property          00000001800614b0 f    CIL library: CIL module
 0001:00060920       _bdf_parse_properties      0000000180061920 f    CIL library: CIL module
 0001:00060bf0       _bdf_parse_start           0000000180061bf0 f    CIL library: CIL module
 0001:00061410       bdf_load_font              0000000180062410 f    CIL library: CIL module
 0001:000617f0       BDF_Face_Init              00000001800627f0 f    CIL library: CIL module
 0001:00061e60       ft_stroke_border_get_counts 0000000180062e60 f    CIL library: CIL module
 0001:00061ef0       ft_stroke_border_reset     0000000180062ef0 f    CIL library: CIL module
 0001:00061f10       ft_stroke_border_init      0000000180062f10 f    CIL library: CIL module
 0001:00061f40       ft_cubic_split             0000000180062f40 f    CIL library: CIL module
 0001:00062020       ft_conic_split             0000000180063020 f    CIL library: CIL module
 0001:00062090       ft_pos_abs                 0000000180063090 f    CIL library: CIL module
 0001:000622b0       ft_stroke_border_export    00000001800632b0 f    CIL library: CIL module
 0001:00062390       ft_stroke_border_done      0000000180063390 f    CIL library: CIL module
 0001:000623f0       ft_stroke_border_close     00000001800633f0 f    CIL library: CIL module
 0001:000624f0       ft_angle_mean              00000001800634f0 f    CIL library: CIL module
 0001:000625b0       ft_stroke_border_grow      00000001800635b0 f    CIL library: CIL module
 0001:00062710       ft_stroker_add_reverse_left 0000000180063710 f    CIL library: CIL module
 0001:00062820       ft_stroke_border_cubicto   0000000180063820 f    CIL library: CIL module
 0001:000628d0       ft_stroke_border_conicto   00000001800638d0 f    CIL library: CIL module
 0001:00062960       ft_stroke_border_lineto    0000000180063960 f    CIL library: CIL module
 0001:00062a40       ft_cubic_is_small_enough   0000000180063a40 f    CIL library: CIL module
 0001:00062c10       ft_conic_is_small_enough   0000000180063c10 f    CIL library: CIL module
 0001:00062ce0       ft_stroker_inside          0000000180063ce0 f    CIL library: CIL module
 0001:00062de0       ft_stroke_border_moveto    0000000180063de0 f    CIL library: CIL module
 0001:00062e30       ft_stroke_border_arcto     0000000180063e30 f    CIL library: CIL module
 0001:00063010       ft_stroker_subpath_start   0000000180064010 f    CIL library: CIL module
 0001:000630b0       ft_stroker_arcto           00000001800640b0 f    CIL library: CIL module
 0001:00063120       ft_stroker_outside         0000000180064120 f    CIL library: CIL module
 0001:00063390       ft_stroker_cap             0000000180064390 f    CIL library: CIL module
 0001:00063500       ft_stroker_process_corner  0000000180064500 f    CIL library: CIL module
 0001:00064820       ft_outline_glyph_prepare   0000000180065820 f    CIL library: CIL module
 0001:00064870       ft_bitmap_glyph_bbox       0000000180065870 f    CIL library: CIL module
 0001:00064900       ft_new_glyph               0000000180065900 f    CIL library: CIL module
 0001:00064970       ft_outline_glyph_bbox      0000000180065970 f    CIL library: CIL module
 0001:00064c20       ft_outline_glyph_done      0000000180065c20 f    CIL library: CIL module
 0001:00064c40       ft_bitmap_glyph_done       0000000180065c40 f    CIL library: CIL module
 0001:00064c60       ft_outline_glyph_transform 0000000180065c60 f    CIL library: CIL module
 0001:00064cb0       ft_outline_glyph_copy      0000000180065cb0 f    CIL library: CIL module
 0001:00064d10       ft_outline_glyph_init      0000000180065d10 f    CIL library: CIL module
 0001:00064d90       ft_bitmap_glyph_copy       0000000180065d90 f    CIL library: CIL module
 0001:00064dc0       ft_bitmap_glyph_init       0000000180065dc0 f    CIL library: CIL module
 0001:000656c0       ft_bitmap_assure_buffer    00000001800666c0 f    CIL library: CIL module
 0001:00065ed0       ft_ansi_stream_io          0000000180066ed0 f    CIL library: CIL module
 0001:00065f40       ft_ansi_stream_close       0000000180066f40 f    CIL library: CIL module
 0001:00065f70       ft_free                    0000000180066f70 f    CIL library: CIL module
 0001:00065f80       ft_realloc                 0000000180066f80 f    CIL library: CIL module
 0001:00065fa0       ft_alloc                   0000000180066fa0 f    CIL library: CIL module
 0001:00066710       ft_trig_pseudo_polarize    0000000180067710 f    CIL library: CIL module
 0001:00066810       ft_trig_pseudo_rotate      0000000180067810 f    CIL library: CIL module
 0001:00066930       ft_trig_downscale          0000000180067930 f    CIL library: CIL module
 0001:00067650       raccess_make_file_name     0000000180068650 f    CIL library: CIL module
 0001:00067760       raccess_guess_linux_cap    0000000180068760 f    CIL library: CIL module
 0001:000677c0       raccess_guess_vfat         00000001800687c0 f    CIL library: CIL module
 0001:00067820       raccess_guess_darwin_newvfs 0000000180068820 f    CIL library: CIL module
 0001:00067900       raccess_guess_darwin_hfsplus 0000000180068900 f    CIL library: CIL module
 0001:000679d0       raccess_get_rule_type_from_rule_index 00000001800689d0 f    CIL library: CIL module
 0001:00067ad0       ft_raccess_sort_ref_by_id  0000000180068ad0 f    CIL library: CIL module
 0001:000693f0       ft_cmap_done_internal      000000018006a3f0 f    CIL library: CIL module
 0001:000699b0       new_memory_stream          000000018006a9b0 f    CIL library: CIL module
 0001:00069a80       memory_stream_close        000000018006aa80 f    CIL library: CIL module
 0001:00069ab0       find_variant_selector_charmap 000000018006aab0 f    CIL library: CIL module
 0001:00069b50       find_unicode_charmap       000000018006ab50 f    CIL library: CIL module
 0001:00069c40       destroy_charmaps           000000018006ac40 f    CIL library: CIL module
 0001:00069cd0       destroy_size               000000018006acd0 f    CIL library: CIL module
 0001:00069d40       ft_glyphslot_grid_fit_metrics 000000018006ad40 f    CIL library: CIL module
 0001:0006a0c0       body                       000000018006b0c0 f    CIL library: CIL module
 0001:0006ab10       FT_GlyphLoader_Adjust_Subglyphs 000000018006bb10 f    CIL library: CIL module
 0001:0006ab30       FT_GlyphLoader_Adjust_Points 000000018006bb30 f    CIL library: CIL module
 0001:0006afe0       _ft_face_scale_advances    000000018006bfe0 f    CIL library: CIL module
 0001:0006b410       ft_trig_prenorm            000000018006c410 f    CIL library: CIL module
 0001:0006b900       raccess_guess_apple_generic 000000018006c900 f    CIL library: CIL module
 0001:0006baa0       raccess_guess_apple_single 000000018006caa0 f    CIL library: CIL module
 0001:0006baf0       raccess_guess_apple_double 000000018006caf0 f    CIL library: CIL module
 0001:0006bb40       ft_raccess_rule_by_darwin_vfs 000000018006cb40 f    CIL library: CIL module
 0001:0006c700       ft_set_current_renderer    000000018006d700 f    CIL library: CIL module
 0001:0006c730       ft_lookup_glyph_renderer   000000018006d730 f    CIL library: CIL module
 0001:0006cfd0       ft_recompute_scaled_metrics 000000018006dfd0 f    CIL library: CIL module
 0001:0006d1a0       ft_lookup_PS_in_sfnt_stream 000000018006e1a0 f    CIL library: CIL module
 0001:0006d370       open_face_from_buffer      000000018006e370 f    CIL library: CIL module
 0001:0006d460       open_face                  000000018006e460 f    CIL library: CIL module
 0001:0006d5d0       ft_glyphslot_clear         000000018006e5d0 f    CIL library: CIL module
 0001:0006d6d0       ft_glyphslot_init          000000018006e6d0 f    CIL library: CIL module
 0001:0006e2f0       raccess_guess_linux_double_from_file_name 000000018006f2f0 f    CIL library: CIL module
 0001:0006e370       raccess_guess_linux_netatalk 000000018006f370 f    CIL library: CIL module
 0001:0006e410       raccess_guess_linux_double 000000018006f410 f    CIL library: CIL module
 0001:0006e4b0       raccess_guess_darwin_ufs_export 000000018006f4b0 f    CIL library: CIL module
 0001:0006ec40       ft_remove_renderer         000000018006fc40 f    CIL library: CIL module
 0001:0006ecd0       ft_add_renderer            000000018006fcd0 f    CIL library: CIL module
 0001:0006f490       Mac_Read_POST_Resource     0000000180070490 f    CIL library: CIL module
 0001:0006f830       open_face_PS_from_sfnt_stream 0000000180070830 f    CIL library: CIL module
 0001:0006fe90       Mac_Read_sfnt_Resource     0000000180070e90 f    CIL library: CIL module
 0001:00070420       ft_glyphslot_done          0000000180071420 f    CIL library: CIL module
 0001:00070a80       IsMacResource              0000000180071a80 f    CIL library: CIL module
 0001:00070f10       load_face_in_embedded_rfork 0000000180071f10 f    CIL library: CIL module
 0001:00071170       IsMacBinary                0000000180072170 f    CIL library: CIL module
 0001:000712a0       destroy_face               00000001800722a0 f    CIL library: CIL module
 0001:00071460       load_mac_face              0000000180072460 f    CIL library: CIL module
 0001:00071540       Destroy_Driver             0000000180072540 f    CIL library: CIL module
 0001:00071580       Destroy_Module             0000000180072580 f    CIL library: CIL module
 0001:000720e0       af_get_interface           00000001800730e0 f    CIL library: CIL module
 0001:00072100       af_cjk_align_edge_points   0000000180073100 f    CIL library: CIL module
 0001:00072210       af_cjk_align_serif_edge    0000000180073210 f    CIL library: CIL module
 0001:00072230       af_cjk_snap_width          0000000180073230 f    CIL library: CIL module
 0001:00072290       af_cjk_hints_compute_blue_edges 0000000180073290 f    CIL library: CIL module
 0001:000723f0       af_cjk_hints_link_segments 00000001800733f0 f    CIL library: CIL module
 0001:00072710       af_cjk_metrics_scale_dim   0000000180073710 f    CIL library: CIL module
 0001:00072960       af_latin_align_serif_edge  0000000180073960 f    CIL library: CIL module
 0001:00072980       af_latin_snap_width        0000000180073980 f    CIL library: CIL module
 0001:000729e0       af_latin_hints_compute_blue_edges 00000001800739e0 f    CIL library: CIL module
 0001:00072b60       af_latin_hints_link_segments 0000000180073b60 f    CIL library: CIL module
 0001:00072d00       af_latin_metrics_scale_dim 0000000180073d00 f    CIL library: CIL module
 0001:00072f70       af_dummy_hints_apply       0000000180073f70 f    CIL library: CIL module
 0001:00072f80       af_iup_interp              0000000180073f80 f    CIL library: CIL module
 0001:000730f0       af_iup_shift               00000001800740f0 f    CIL library: CIL module
 0001:00073170       af_glyph_hints_align_strong_points 0000000180074170 f    CIL library: CIL module
 0001:00073380       af_glyph_hints_align_edge_points 0000000180074380 f    CIL library: CIL module
 0001:00073490       af_glyph_hints_save        0000000180074490 f    CIL library: CIL module
 0001:000734f0       af_glyph_hints_rescale     00000001800744f0 f    CIL library: CIL module
 0001:00073510       af_glyph_hints_done        0000000180074510 f    CIL library: CIL module
 0001:000735e0       af_glyph_hints_init        00000001800745e0 f    CIL library: CIL module
 0001:00073620       af_direction_compute       0000000180074620 f    CIL library: CIL module
 0001:00073680       af_face_globals_is_digit   0000000180074680 f    CIL library: CIL module
 0001:000736a0       af_face_globals_get_metrics 00000001800746a0 f    CIL library: CIL module
 0001:000737a0       af_face_globals_free       00000001800747a0 f    CIL library: CIL module
 0001:00073880       af_sort_and_quantize_widths 0000000180074880 f    CIL library: CIL module
 0001:00073a70       af_sort_pos                0000000180074a70 f    CIL library: CIL module
 0001:00073ad0       af_loader_init             0000000180074ad0 f    CIL library: CIL module
 0001:00073b20       af_cjk_compute_stem_width  0000000180074b20 f    CIL library: CIL module
 0001:00073c80       af_cjk_hints_init          0000000180074c80 f    CIL library: CIL module
 0001:00073d10       af_cjk_metrics_scale       0000000180074d10 f    CIL library: CIL module
 0001:00073d70       af_latin_compute_stem_width 0000000180074d70 f    CIL library: CIL module
 0001:00073f50       af_latin_hints_init        0000000180074f50 f    CIL library: CIL module
 0001:00073ff0       af_latin_metrics_scale     0000000180074ff0 f    CIL library: CIL module
 0001:00074040       af_dummy_hints_init        0000000180075040 f    CIL library: CIL module
 0001:00074060       af_glyph_hints_align_weak_points 0000000180075060 f    CIL library: CIL module
 0001:00074310       af_glyph_hints_reload      0000000180075310 f    CIL library: CIL module
 0001:000746f0       af_axis_hints_new_edge     00000001800756f0 f    CIL library: CIL module
 0001:00074890       af_axis_hints_new_segment  0000000180075890 f    CIL library: CIL module
 0001:00074970       af_face_globals_compute_script_coverage 0000000180075970 f    CIL library: CIL module
 0001:00074b50       af_autofitter_init         0000000180075b50 f    CIL library: CIL module
 0001:00074b70       af_loader_done             0000000180075b70 f    CIL library: CIL module
 0001:00074bb0       af_indic_hints_init        0000000180075bb0 f    CIL library: CIL module
 0001:00074bc0       af_indic_metrics_scale     0000000180075bc0 f    CIL library: CIL module
 0001:00074bd0       af_hint_normal_stem        0000000180075bd0 f    CIL library: CIL module
 0001:00074da0       af_cjk_align_linked_edge   0000000180075da0 f    CIL library: CIL module
 0001:00074df0       af_cjk_hints_compute_edges 0000000180075df0 f    CIL library: CIL module
 0001:00075190       af_latin_align_linked_edge 0000000180076190 f    CIL library: CIL module
 0001:00075290       af_latin_hints_compute_edges 0000000180076290 f    CIL library: CIL module
 0001:000755b0       af_latin_hints_compute_segments 00000001800765b0 f    CIL library: CIL module
 0001:00075940       af_face_globals_new        0000000180076940 f    CIL library: CIL module
 0001:000759e0       af_autofitter_done         00000001800769e0 f    CIL library: CIL module
 0001:00075a80       af_loader_load_g           0000000180076a80 f    CIL library: CIL module
 0001:00076360       af_loader_reset            0000000180077360 f    CIL library: CIL module
 0001:000763e0       af_cjk_hint_edges          00000001800773e0 f    CIL library: CIL module
 0001:00076980       af_cjk_hints_compute_segments 0000000180077980 f    CIL library: CIL module
 0001:00076a20       af_cjk_metrics_check_digits 0000000180077a20 f    CIL library: CIL module
 0001:00076ab0       af_cjk_metrics_init_blues  0000000180077ab0 f    CIL library: CIL module
 0001:00077010       af_cjk_metrics_init_widths 0000000180078010 f    CIL library: CIL module
 0001:000772c0       af_latin_hint_edges        00000001800782c0 f    CIL library: CIL module
 0001:00078100       af_latin_hints_detect_features 0000000180079100 f    CIL library: CIL module
 0001:00078140       af_latin_metrics_check_digits 0000000180079140 f    CIL library: CIL module
 0001:000781d0       af_latin_metrics_init_blues 00000001800791d0 f    CIL library: CIL module
 0001:000787f0       af_latin_metrics_init_widths 00000001800797f0 f    CIL library: CIL module
 0001:00078d20       af_loader_load_glyph       0000000180079d20 f    CIL library: CIL module
 0001:00078e80       af_indic_metrics_init      0000000180079e80 f    CIL library: CIL module
 0001:00078f00       af_cjk_hints_detect_features 0000000180079f00 f    CIL library: CIL module
 0001:00078f40       af_cjk_metrics_init        0000000180079f40 f    CIL library: CIL module
 0001:00078fd0       af_latin_hints_apply       0000000180079fd0 f    CIL library: CIL module
 0001:000790c0       af_latin_metrics_init      000000018007a0c0 f    CIL library: CIL module
 0001:00079140       af_autofitter_load_glyph   000000018007a140 f    CIL library: CIL module
 0001:00079160       af_cjk_hints_apply         000000018007a160 f    CIL library: CIL module
 0001:00079260       af_indic_hints_apply       000000018007a260 f    CIL library: CIL module
 0001:00079450       __DllMainCRTStartup$filt$0 000000018007a450 f   MSVCRT:crtdll.obj
 0001:00079480       __DllMainCRTStartup$fin$1  000000018007a480 f   MSVCRT:crtdll.obj
 0001:00079499       _onexit$fin$0              000000018007a499 f   MSVCRT:atonexit.obj
 0001:000794c0       _IsNonwritableInCurrentImage$filt$0 000000018007a4c0 f   MSVCRT:pesect.obj

 Exports

  ordinal    name

        1    FTC_CMapCache_Lookup
        2    FTC_CMapCache_New
        3    FTC_ImageCache_Lookup
        4    FTC_ImageCache_LookupScaler
        5    FTC_ImageCache_New
        6    FTC_Manager_Done
        7    FTC_Manager_LookupFace
        8    FTC_Manager_LookupSize
        9    FTC_Manager_New
       10    FTC_Manager_RemoveFaceID
       11    FTC_Manager_Reset
       12    FTC_Node_Unref
       13    FTC_SBitCache_Lookup
       14    FTC_SBitCache_LookupScaler
       15    FTC_SBitCache_New
       16    FT_Activate_Size
       17    FT_Add_Default_Modules
       18    FT_Add_Module
       19    FT_Angle_Diff
       20    FT_Atan2
       21    FT_Attach_File
       22    FT_Attach_Stream
       23    FT_Bitmap_Convert
       24    FT_Bitmap_Copy
       25    FT_Bitmap_Done
       26    FT_Bitmap_Embolden
       27    FT_Bitmap_New
       28    FT_CMap_Done
       29    FT_CMap_New
       30    FT_CeilFix
       31    FT_Cos
       32    FT_DivFix
       33    FT_Done_Face
       34    FT_Done_FreeType
       35    FT_Done_Glyph
       36    FT_Done_GlyphSlot
       37    FT_Done_Library
       38    FT_Done_Memory
       39    FT_Done_Size
       40    FT_Face_GetCharVariantIndex
       41    FT_Face_GetCharVariantIsDefault
       42    FT_Face_GetCharsOfVariant
       43    FT_Face_GetVariantSelectors
       44    FT_Face_GetVariantsOfChar
       45    FT_FloorFix
       46    FT_Get_Advance
       47    FT_Get_Advances
       48    FT_Get_CMap_Format
       49    FT_Get_CMap_Language_ID
       50    FT_Get_Char_Index
       51    FT_Get_Charmap_Index
       52    FT_Get_First_Char
       53    FT_Get_Glyph
       54    FT_Get_Glyph_Name
       55    FT_Get_Kerning
       56    FT_Get_Module
       57    FT_Get_Module_Interface
       58    FT_Get_Name_Index
       59    FT_Get_Next_Char
       60    FT_Get_Postscript_Name
       61    FT_Get_Renderer
       62    FT_Get_Sfnt_Name
       63    FT_Get_Sfnt_Name_Count
       64    FT_Get_Sfnt_Table
       65    FT_Get_SubGlyph_Info
       66    FT_Get_Track_Kerning
       67    FT_Get_TrueType_Engine_Type
       68    FT_GlyphLoader_Add
       69    FT_GlyphLoader_CheckPoints
       70    FT_GlyphLoader_CheckSubGlyphs
       71    FT_GlyphLoader_CopyPoints
       72    FT_GlyphLoader_CreateExtra
       73    FT_GlyphLoader_Done
       74    FT_GlyphLoader_New
       75    FT_GlyphLoader_Prepare
       76    FT_GlyphLoader_Reset
       77    FT_GlyphLoader_Rewind
       78    FT_GlyphSlot_Own_Bitmap
       79    FT_Glyph_Copy
       80    FT_Glyph_Get_CBox
       81    FT_Glyph_Stroke
       82    FT_Glyph_StrokeBorder
       83    FT_Glyph_To_Bitmap
       84    FT_Glyph_Transform
       85    FT_Hypot
       86    FT_Init_FreeType
       87    FT_Library_Version
       88    FT_List_Add
       89    FT_List_Finalize
       90    FT_List_Find
       91    FT_List_Insert
       92    FT_List_Iterate
       93    FT_List_Remove
       94    FT_List_Up
       95    FT_Load_Char
       96    FT_Load_Glyph
       97    FT_Load_Sfnt_Table
       98    FT_Lookup_Renderer
       99    FT_MSB
      100    FT_Match_Size
      101    FT_Matrix_Invert
      102    FT_Matrix_Multiply
      103    FT_Matrix_Multiply_Scaled
      104    FT_Message
      105    FT_MulDiv
      106    FT_MulDiv_No_Round
      107    FT_MulFix
      108    FT_New_Face
      109    FT_New_GlyphSlot
      110    FT_New_Library
      111    FT_New_Memory
      112    FT_New_Memory_Face
      113    FT_New_Size
      114    FT_Open_Face
      115    FT_Outline_Check
      116    FT_Outline_Copy
      117    FT_Outline_Decompose
      118    FT_Outline_Done
      119    FT_Outline_Done_Internal
      120    FT_Outline_Embolden
      121    FT_Outline_EmboldenXY
      122    FT_Outline_GetInsideBorder
      123    FT_Outline_GetOutsideBorder
      124    FT_Outline_Get_Bitmap
      125    FT_Outline_Get_CBox
      126    FT_Outline_Get_Orientation
      127    FT_Outline_New
      128    FT_Outline_New_Internal
      129    FT_Outline_Render
      130    FT_Outline_Reverse
      131    FT_Outline_Transform
      132    FT_Outline_Translate
      133    FT_Panic
      134    FT_Property_Get
      135    FT_Property_Set
      136    FT_Raccess_Get_DataOffsets
      137    FT_Raccess_Get_HeaderInfo
      138    FT_Raccess_Guess
      139    FT_Reference_Face
      140    FT_Reference_Library
      141    FT_Remove_Module
      142    FT_Render_Glyph
      143    FT_Render_Glyph_Internal
      144    FT_Request_Metrics
      145    FT_Request_Size
      146    FT_RoundFix
      147    FT_Select_Charmap
      148    FT_Select_Metrics
      149    FT_Select_Size
      150    FT_Set_Char_Size
      151    FT_Set_Charmap
      152    FT_Set_Debug_Hook
      153    FT_Set_Pixel_Sizes
      154    FT_Set_Renderer
      155    FT_Set_Transform
      156    FT_Sfnt_Table_Info
      157    FT_Sin
      158    FT_SqrtFixed
      159    FT_Stream_Close
      160    FT_Stream_EnterFrame
      161    FT_Stream_ExitFrame
      162    FT_Stream_ExtractFrame
      163    FT_Stream_Free
      164    FT_Stream_GetChar
      165    FT_Stream_GetULong
      166    FT_Stream_GetULongLE
      167    FT_Stream_GetUOffset
      168    FT_Stream_GetUShort
      169    FT_Stream_GetUShortLE
      170    FT_Stream_New
      171    FT_Stream_Open
      172    FT_Stream_OpenBzip2
      173    FT_Stream_OpenGzip
      174    FT_Stream_OpenLZW
      175    FT_Stream_OpenMemory
      176    FT_Stream_Pos
      177    FT_Stream_Read
      178    FT_Stream_ReadAt
      179    FT_Stream_ReadChar
      180    FT_Stream_ReadFields
      181    FT_Stream_ReadULong
      182    FT_Stream_ReadULongLE
      183    FT_Stream_ReadUOffset
      184    FT_Stream_ReadUShort
      185    FT_Stream_ReadUShortLE
      186    FT_Stream_ReleaseFrame
      187    FT_Stream_Seek
      188    FT_Stream_Skip
      189    FT_Stream_TryRead
      190    FT_Stroker_BeginSubPath
      191    FT_Stroker_ConicTo
      192    FT_Stroker_CubicTo
      193    FT_Stroker_Done
      194    FT_Stroker_EndSubPath
      195    FT_Stroker_Export
      196    FT_Stroker_ExportBorder
      197    FT_Stroker_GetBorderCounts
      198    FT_Stroker_GetCounts
      199    FT_Stroker_LineTo
      200    FT_Stroker_New
      201    FT_Stroker_ParseOutline
      202    FT_Stroker_Rewind
      203    FT_Stroker_Set
      204    FT_Tan
      205    FT_Throw
      206    FT_Trace_Get_Count
      207    FT_Trace_Get_Name
      208    FT_Vector_From_Polar
      209    FT_Vector_Length
      210    FT_Vector_Polarize
      211    FT_Vector_Rotate
      212    FT_Vector_Transform
      213    FT_Vector_Transform_Scaled
      214    FT_Vector_Unit
      215    TT_New_Context
      216    TT_RunIns
      217    ft_corner_is_flat
      218    ft_corner_orientation
      219    ft_debug_init
      220    ft_glyphslot_alloc_bitmap
      221    ft_glyphslot_free_bitmap
      222    ft_glyphslot_set_bitmap
      223    ft_highpow2
      224    ft_mem_alloc
      225    ft_mem_dup
      226    ft_mem_free
      227    ft_mem_qalloc
      228    ft_mem_qrealloc
      229    ft_mem_realloc
      230    ft_mem_strcpyn
      231    ft_mem_strdup
      232    ft_module_get_service
      233    ft_service_list_lookup
      234    ft_synthesize_vertical_metrics
      235    ft_validator_error
      236    ft_validator_init
      237    ft_validator_run
