 lib_luajit

 Timestamp is 52d551f2 (Tue Jan 14 18:04:18 2014)

 Preferred load address is 0000000180000000

 Start         Length     Name                   Class
 0001:00000000 000566a0H .text                   CODE
 0001:000566a0 00000091H .text$x                 CODE
 0002:00000000 00000338H .idata$5                DATA
 0002:00000338 00000008H .CRT$XCA                DATA
 0002:00000340 00000008H .CRT$XCZ                DATA
 0002:00000348 00000008H .CRT$XIA                DATA
 0002:00000350 00000008H .CRT$XIAA               DATA
 0002:00000358 00000008H .CRT$XIZ                DATA
 0002:00000360 00005640H .rdata                  DATA
 0002:000059a0 0000000dH .rdata$Z                DATA
 0002:000059b0 00000008H .rtc$IAA                DATA
 0002:000059b8 00000008H .rtc$IZZ                DATA
 0002:000059c0 00000008H .rtc$TAA                DATA
 0002:000059c8 00000008H .rtc$TZZ                DATA
 0002:000059d0 00006c34H .xdata                  DATA
 0002:0000c604 00000028H .idata$2                DATA
 0002:0000c62c 00000014H .idata$3                DATA
 0002:0000c640 00000338H .idata$4                DATA
 0002:0000c978 0000052cH .idata$6                DATA
 0002:0000ceb0 00000cb1H .edata                  DATA
 0003:00000000 000001b4H .data                   DATA
 0003:000001b8 00000080H .bss                    DATA
 0004:00000000 000053acH .pdata                  DATA

  Address         Publics by Value              Rva+Base               Lib:Object

 0000:00000000       ___safe_se_handler_count   0000000000000000     <absolute>
 0000:00000000       ___safe_se_handler_table   0000000000000000     <absolute>
 0000:00000000       __ImageBase                0000000180000000     <linker-defined>
 0001:00000000       lj_BC_ISLT                 0000000180001000 f   lj_vm.obj
 0001:00000000       lj_vm_asm_begin            0000000180001000     lj_vm.obj
 0001:00000047       lj_BC_ISGE                 0000000180001047 f   lj_vm.obj
 0001:0000008e       lj_BC_ISLE                 000000018000108e f   lj_vm.obj
 0001:000000d5       lj_BC_ISGT                 00000001800010d5 f   lj_vm.obj
 0001:0000011c       lj_BC_ISEQV                000000018000111c f   lj_vm.obj
 0001:000001a6       lj_BC_ISNEV                00000001800011a6 f   lj_vm.obj
 0001:00000233       lj_BC_ISEQS                0000000180001233 f   lj_vm.obj
 0001:00000270       lj_BC_ISNES                0000000180001270 f   lj_vm.obj
 0001:000002ad       lj_BC_ISEQN                00000001800012ad f   lj_vm.obj
 0001:000002f0       lj_BC_ISNEN                00000001800012f0 f   lj_vm.obj
 0001:00000333       lj_BC_ISEQP                0000000180001333 f   lj_vm.obj
 0001:00000367       lj_BC_ISNEP                0000000180001367 f   lj_vm.obj
 0001:0000039a       lj_BC_ISTC                 000000018000139a f   lj_vm.obj
 0001:000003cc       lj_BC_ISFC                 00000001800013cc f   lj_vm.obj
 0001:000003fe       lj_BC_IST                  00000001800013fe f   lj_vm.obj
 0001:00000426       lj_BC_ISF                  0000000180001426 f   lj_vm.obj
 0001:0000044e       lj_BC_MOV                  000000018000144e f   lj_vm.obj
 0001:00000467       lj_BC_NOT                  0000000180001467 f   lj_vm.obj
 0001:00000486       lj_BC_UNM                  0000000180001486 f   lj_vm.obj
 0001:000004c1       lj_BC_LEN                  00000001800014c1 f   lj_vm.obj
 0001:0000050a       lj_BC_ADDVN                000000018000150a f   lj_vm.obj
 0001:0000053e       lj_BC_SUBVN                000000018000153e f   lj_vm.obj
 0001:00000572       lj_BC_MULVN                0000000180001572 f   lj_vm.obj
 0001:000005a6       lj_BC_DIVVN                00000001800015a6 f   lj_vm.obj
 0001:000005da       lj_BC_MODVN                00000001800015da f   lj_vm.obj
 0001:00000613       lj_BC_ADDNV                0000000180001613 f   lj_vm.obj
 0001:00000647       lj_BC_SUBNV                0000000180001647 f   lj_vm.obj
 0001:0000067b       lj_BC_MULNV                000000018000167b f   lj_vm.obj
 0001:000006af       lj_BC_DIVNV                00000001800016af f   lj_vm.obj
 0001:000006e3       lj_BC_MODNV                00000001800016e3 f   lj_vm.obj
 0001:00000706       lj_BC_ADDVV                0000000180001706 f   lj_vm.obj
 0001:00000748       lj_BC_SUBVV                0000000180001748 f   lj_vm.obj
 0001:0000078a       lj_BC_MULVV                000000018000178a f   lj_vm.obj
 0001:000007cc       lj_BC_DIVVV                00000001800017cc f   lj_vm.obj
 0001:0000080e       lj_BC_MODVV                000000018000180e f   lj_vm.obj
 0001:0000083f       lj_BC_POW                  000000018000183f f   lj_vm.obj
 0001:00000886       lj_BC_CAT                  0000000180001886 f   lj_vm.obj
 0001:000008d3       lj_BC_KSTR                 00000001800018d3 f   lj_vm.obj
 0001:000008f5       lj_BC_KCDATA               00000001800018f5 f   lj_vm.obj
 0001:00000917       lj_BC_KSHORT               0000000180001917 f   lj_vm.obj
 0001:00000934       lj_BC_KNUM                 0000000180001934 f   lj_vm.obj
 0001:0000094f       lj_BC_KPRI                 000000018000194f f   lj_vm.obj
 0001:00000967       lj_BC_KNIL                 0000000180001967 f   lj_vm.obj
 0001:00000991       lj_BC_UGET                 0000000180001991 f   lj_vm.obj
 0001:000009b4       lj_BC_USETV                00000001800019b4 f   lj_vm.obj
 0001:00000a0a       lj_BC_USETS                0000000180001a0a f   lj_vm.obj
 0001:00000a59       lj_BC_USETN                0000000180001a59 f   lj_vm.obj
 0001:00000a7d       lj_BC_USETP                0000000180001a7d f   lj_vm.obj
 0001:00000a9e       lj_BC_UCLO                 0000000180001a9e f   lj_vm.obj
 0001:00000ad0       lj_BC_FNEW                 0000000180001ad0 f   lj_vm.obj
 0001:00000b0f       lj_BC_TNEW                 0000000180001b0f f   lj_vm.obj
 0001:00000b7b       lj_BC_TDUP                 0000000180001b7b f   lj_vm.obj
 0001:00000bd4       lj_BC_GGET                 0000000180001bd4 f   lj_vm.obj
 0001:00000be5       lj_BC_GSET                 0000000180001be5 f   lj_vm.obj
 0001:00000bf6       lj_BC_TGETV                0000000180001bf6 f   lj_vm.obj
 0001:00000c89       lj_BC_TGETS                0000000180001c89 f   lj_vm.obj
 0001:00000d03       lj_BC_TGETB                0000000180001d03 f   lj_vm.obj
 0001:00000d65       lj_BC_TSETV                0000000180001d65 f   lj_vm.obj
 0001:00000e0f       lj_BC_TSETS                0000000180001e0f f   lj_vm.obj
 0001:00000ef4       lj_BC_TSETB                0000000180001ef4 f   lj_vm.obj
 0001:00000f6d       lj_BC_TSETM                0000000180001f6d f   lj_vm.obj
 0001:00000ff3       lj_BC_CALLM                0000000180001ff3 f   lj_vm.obj
 0001:00001020       lj_BC_CALL                 0000000180002020 f   lj_vm.obj
 0001:00001049       lj_BC_CALLMT               0000000180002049 f   lj_vm.obj
 0001:0000104d       lj_BC_CALLT                000000018000204d f   lj_vm.obj
 0001:000010dc       lj_BC_ITERC                00000001800020dc f   lj_vm.obj
 0001:0000111f       lj_BC_ITERN                000000018000211f f   lj_vm.obj
 0001:000011b7       lj_BC_VARG                 00000001800021b7 f   lj_vm.obj
 0001:0000126b       lj_BC_ISNEXT               000000018000226b f   lj_vm.obj
 0001:000012c2       lj_BC_RETM                 00000001800022c2 f   lj_vm.obj
 0001:000012c6       lj_BC_RET                  00000001800022c6 f   lj_vm.obj
 0001:00001343       lj_BC_RET0                 0000000180002343 f   lj_vm.obj
 0001:0000139b       lj_BC_RET1                 000000018000239b f   lj_vm.obj
 0001:00001400       lj_BC_FORI                 0000000180002400 f   lj_vm.obj
 0001:00001460       lj_BC_JFORI                0000000180002460 f   lj_vm.obj
 0001:000014c8       lj_BC_FORL                 00000001800024c8 f   lj_vm.obj
 0001:000014db       lj_BC_IFORL                00000001800024db f   lj_vm.obj
 0001:00001520       lj_BC_JFORL                0000000180002520 f   lj_vm.obj
 0001:00001562       lj_BC_ITERL                0000000180002562 f   lj_vm.obj
 0001:00001575       lj_BC_IITERL               0000000180002575 f   lj_vm.obj
 0001:000015a0       lj_BC_JITERL               00000001800025a0 f   lj_vm.obj
 0001:000015c6       lj_BC_LOOP                 00000001800025c6 f   lj_vm.obj
 0001:000015d9       lj_BC_ILOOP                00000001800025d9 f   lj_vm.obj
 0001:000015ea       lj_BC_JLOOP                00000001800025ea f   lj_vm.obj
 0001:00001663       lj_BC_JMP                  0000000180002663 f   lj_vm.obj
 0001:0000167b       lj_BC_FUNCF                000000018000267b f   lj_vm.obj
 0001:0000168e       lj_BC_IFUNCF               000000018000268e f   lj_vm.obj
 0001:000016cb       lj_BC_JFUNCF               00000001800026cb f   lj_vm.obj
 0001:00001700       lj_BC_IFUNCV               0000000180002700 f   lj_vm.obj
 0001:00001700       lj_BC_FUNCV                0000000180002700 f   lj_vm.obj
 0001:00001775       lj_BC_JFUNCV               0000000180002775 f   lj_vm.obj
 0001:00001776       lj_BC_FUNCC                0000000180002776 f   lj_vm.obj
 0001:000017c2       lj_BC_FUNCCW               00000001800027c2 f   lj_vm.obj
 0001:00001815       lj_vm_returnp              0000000180002815 f   lj_vm.obj
 0001:00001836       lj_vm_returnc              0000000180002836 f   lj_vm.obj
 0001:0000184f       lj_vm_return               000000018000284f f   lj_vm.obj
 0001:00001899       lj_vm_leave_cp             0000000180002899 f   lj_vm.obj
 0001:000018a4       lj_vm_leave_unw            00000001800028a4 f   lj_vm.obj
 0001:000018e3       lj_vm_unwind_yield         00000001800028e3 f   lj_vm.obj
 0001:000018e7       lj_vm_unwind_c             00000001800028e7 f   lj_vm.obj
 0001:000018ec       lj_vm_unwind_c_eh          00000001800028ec f   lj_vm.obj
 0001:000018ff       lj_vm_unwind_rethrow       00000001800028ff f   lj_vm.obj
 0001:000018ff       lj_vm_unwind_ff            00000001800028ff f   lj_vm.obj
 0001:00001906       lj_vm_unwind_ff_eh         0000000180002906 f   lj_vm.obj
 0001:0000193b       lj_vm_growstack_c          000000018000293b f   lj_vm.obj
 0001:00001942       lj_vm_growstack_v          0000000180002942 f   lj_vm.obj
 0001:00001947       lj_vm_growstack_f          0000000180002947 f   lj_vm.obj
 0001:00001987       lj_vm_resume               0000000180002987 f   lj_vm.obj
 0001:000019ff       lj_vm_pcall                00000001800029ff f   lj_vm.obj
 0001:00001a13       lj_vm_call                 0000000180002a13 f   lj_vm.obj
 0001:00001a63       lj_vm_call_dispatch        0000000180002a63 f   lj_vm.obj
 0001:00001a70       lj_vm_call_dispatch_f      0000000180002a70 f   lj_vm.obj
 0001:00001a86       lj_vm_cpcall               0000000180002a86 f   lj_vm.obj
 0001:00001ace       lj_cont_dispatch           0000000180002ace f   lj_vm.obj
 0001:00001b15       lj_cont_cat                0000000180002b15 f   lj_vm.obj
 0001:00001b44       lj_vmeta_tgets             0000000180002b44 f   lj_vm.obj
 0001:00001b6e       lj_vmeta_tgetb             0000000180002b6e f   lj_vm.obj
 0001:00001b83       lj_vmeta_tgetv             0000000180002b83 f   lj_vm.obj
 0001:00001baf       lj_cont_ra                 0000000180002baf f   lj_vm.obj
 0001:00001be3       lj_vmeta_tsets             0000000180002be3 f   lj_vm.obj
 0001:00001c0d       lj_vmeta_tsetb             0000000180002c0d f   lj_vm.obj
 0001:00001c22       lj_vmeta_tsetv             0000000180002c22 f   lj_vm.obj
 0001:00001c59       lj_cont_nop                0000000180002c59 f   lj_vm.obj
 0001:00001c8e       lj_vmeta_comp              0000000180002c8e f   lj_vm.obj
 0001:00001cd9       lj_cont_condt              0000000180002cd9 f   lj_vm.obj
 0001:00001ce4       lj_cont_condf              0000000180002ce4 f   lj_vm.obj
 0001:00001cea       lj_vmeta_equal             0000000180002cea f   lj_vm.obj
 0001:00001d09       lj_vmeta_equal_cd          0000000180002d09 f   lj_vm.obj
 0001:00001d23       lj_vmeta_arith_vn          0000000180002d23 f   lj_vm.obj
 0001:00001d23       lj_vmeta_arith_vno         0000000180002d23 f   lj_vm.obj
 0001:00001d28       lj_vmeta_arith_nv          0000000180002d28 f   lj_vm.obj
 0001:00001d28       lj_vmeta_arith_nvo         0000000180002d28 f   lj_vm.obj
 0001:00001d31       lj_vmeta_unm               0000000180002d31 f   lj_vm.obj
 0001:00001d38       lj_vmeta_arith_vvo         0000000180002d38 f   lj_vm.obj
 0001:00001d38       lj_vmeta_arith_vv          0000000180002d38 f   lj_vm.obj
 0001:00001d6e       lj_vmeta_binop             0000000180002d6e f   lj_vm.obj
 0001:00001d82       lj_vmeta_len               0000000180002d82 f   lj_vm.obj
 0001:00001d9c       lj_vmeta_call_ra           0000000180002d9c f   lj_vm.obj
 0001:00001da0       lj_vmeta_call              0000000180002da0 f   lj_vm.obj
 0001:00001df2       lj_vmeta_for               0000000180002df2 f   lj_vm.obj
 0001:00001e1c       lj_ff_assert               0000000180002e1c f   lj_vm.obj
 0001:00001e5f       lj_ff_type                 0000000180002e5f f   lj_vm.obj
 0001:00001ea1       lj_ff_getmetatable         0000000180002ea1 f   lj_vm.obj
 0001:00001f41       lj_ff_setmetatable         0000000180002f41 f   lj_vm.obj
 0001:00001f9b       lj_ff_rawget               0000000180002f9b f   lj_vm.obj
 0001:00001fd0       lj_ff_tonumber             0000000180002fd0 f   lj_vm.obj
 0001:00001fef       lj_ff_tostring             0000000180002fef f   lj_vm.obj
 0001:00002056       lj_ff_next                 0000000180003056 f   lj_vm.obj
 0001:0000209f       lj_fff_res2                000000018000309f f   lj_vm.obj
 0001:000020be       lj_ff_pairs                00000001800030be f   lj_vm.obj
 0001:000020f7       lj_ff_ipairs_aux           00000001800030f7 f   lj_vm.obj
 0001:00002170       lj_fff_res0                0000000180003170 f   lj_vm.obj
 0001:0000217a       lj_ff_ipairs               000000018000317a f   lj_vm.obj
 0001:000021b4       lj_ff_pcall                00000001800031b4 f   lj_vm.obj
 0001:000021dc       lj_ff_xpcall               00000001800031dc f   lj_vm.obj
 0001:00002213       lj_ff_coroutine_resume     0000000180003213 f   lj_vm.obj
 0001:00002342       lj_ff_coroutine_wrap_aux   0000000180003342 f   lj_vm.obj
 0001:0000243c       lj_ff_coroutine_yield      000000018000343c f   lj_vm.obj
 0001:00002468       lj_fff_resi                0000000180003468 f   lj_vm.obj
 0001:00002468       lj_fff_resn                0000000180003468 f   lj_vm.obj
 0001:00002470       lj_ff_math_abs             0000000180003470 f   lj_vm.obj
 0001:0000249c       lj_fff_resxmm0             000000018000349c f   lj_vm.obj
 0001:000024a4       lj_fff_res1                00000001800034a4 f   lj_vm.obj
 0001:000024a9       lj_fff_res                 00000001800034a9 f   lj_vm.obj
 0001:000024ad       lj_fff_res_                00000001800034ad f   lj_vm.obj
 0001:000024ee       lj_ff_math_floor           00000001800034ee f   lj_vm.obj
 0001:00002506       lj_ff_math_ceil            0000000180003506 f   lj_vm.obj
 0001:00002521       lj_ff_math_sqrt            0000000180003521 f   lj_vm.obj
 0001:00002540       lj_ff_math_log             0000000180003540 f   lj_vm.obj
 0001:00002561       lj_ff_math_log10           0000000180003561 f   lj_vm.obj
 0001:00002582       lj_ff_math_exp             0000000180003582 f   lj_vm.obj
 0001:000025a4       lj_ff_math_sin             00000001800035a4 f   lj_vm.obj
 0001:000025c3       lj_ff_math_cos             00000001800035c3 f   lj_vm.obj
 0001:000025e2       lj_ff_math_tan             00000001800035e2 f   lj_vm.obj
 0001:00002603       lj_ff_math_asin            0000000180003603 f   lj_vm.obj
 0001:0000262c       lj_ff_math_acos            000000018000362c f   lj_vm.obj
 0001:00002657       lj_ff_math_atan            0000000180003657 f   lj_vm.obj
 0001:00002678       lj_ff_math_sinh            0000000180003678 f   lj_vm.obj
 0001:000026a0       lj_ff_math_cosh            00000001800036a0 f   lj_vm.obj
 0001:000026c8       lj_ff_math_tanh            00000001800036c8 f   lj_vm.obj
 0001:000026f0       lj_ff_math_deg             00000001800036f0 f   lj_vm.obj
 0001:000026f0       lj_ff_math_rad             00000001800036f0 f   lj_vm.obj
 0001:00002717       lj_ff_math_atan2           0000000180003717 f   lj_vm.obj
 0001:00002746       lj_ff_math_ldexp           0000000180003746 f   lj_vm.obj
 0001:00002777       lj_ff_math_frexp           0000000180003777 f   lj_vm.obj
 0001:0000280b       lj_ff_math_modf            000000018000380b f   lj_vm.obj
 0001:0000286e       lj_ff_math_fmod            000000018000386e f   lj_vm.obj
 0001:000028a4       lj_ff_math_pow             00000001800038a4 f   lj_vm.obj
 0001:000028da       lj_ff_math_min             00000001800038da f   lj_vm.obj
 0001:00002915       lj_ff_math_max             0000000180003915 f   lj_vm.obj
 0001:00002950       lj_ff_string_len           0000000180003950 f   lj_vm.obj
 0001:0000296f       lj_ff_string_byte          000000018000396f f   lj_vm.obj
 0001:0000299e       lj_ff_string_char          000000018000399e f   lj_vm.obj
 0001:000029e8       lj_fff_newstr              00000001800039e8 f   lj_vm.obj
 0001:00002a17       lj_ff_string_sub           0000000180003a17 f   lj_vm.obj
 0001:00002aba       lj_fff_emptystr            0000000180003aba f   lj_vm.obj
 0001:00002abe       lj_ff_string_rep           0000000180003abe f   lj_vm.obj
 0001:00002b38       lj_ff_string_reverse       0000000180003b38 f   lj_vm.obj
 0001:00002ba2       lj_ff_string_lower         0000000180003ba2 f   lj_vm.obj
 0001:00002c11       lj_ff_string_upper         0000000180003c11 f   lj_vm.obj
 0001:00002c80       lj_ff_table_getn           0000000180003c80 f   lj_vm.obj
 0001:00002ca7       lj_ff_bit_tobit            0000000180003ca7 f   lj_vm.obj
 0001:00002cdd       lj_ff_bit_band             0000000180003cdd f   lj_vm.obj
 0001:00002d3e       lj_ff_bit_bor              0000000180003d3e f   lj_vm.obj
 0001:00002d9f       lj_ff_bit_bxor             0000000180003d9f f   lj_vm.obj
 0001:00002e00       lj_ff_bit_bswap            0000000180003e00 f   lj_vm.obj
 0001:00002e35       lj_ff_bit_bnot             0000000180003e35 f   lj_vm.obj
 0001:00002e68       lj_fff_resbit              0000000180003e68 f   lj_vm.obj
 0001:00002e71       lj_fff_fallback_bit_op     0000000180003e71 f   lj_vm.obj
 0001:00002e7a       lj_ff_bit_lshift           0000000180003e7a f   lj_vm.obj
 0001:00002ec9       lj_ff_bit_rshift           0000000180003ec9 f   lj_vm.obj
 0001:00002f1b       lj_ff_bit_arshift          0000000180003f1b f   lj_vm.obj
 0001:00002f6d       lj_ff_bit_rol              0000000180003f6d f   lj_vm.obj
 0001:00002fbf       lj_ff_bit_ror              0000000180003fbf f   lj_vm.obj
 0001:00003005       lj_fff_fallback_2          0000000180004005 f   lj_vm.obj
 0001:0000300c       lj_fff_fallback_1          000000018000400c f   lj_vm.obj
 0001:00003011       lj_fff_fallback            0000000180004011 f   lj_vm.obj
 0001:00003067       lj_vm_call_tail            0000000180004067 f   lj_vm.obj
 0001:0000309f       lj_fff_gcstep              000000018000409f f   lj_vm.obj
 0001:000030d3       lj_vm_record               00000001800040d3 f   lj_vm.obj
 0001:000030ee       lj_vm_rethook              00000001800040ee f   lj_vm.obj
 0001:000030fb       lj_vm_inshook              00000001800040fb f   lj_vm.obj
 0001:0000313c       lj_cont_hook               000000018000413c f   lj_vm.obj
 0001:00003148       lj_vm_hotloop              0000000180004148 f   lj_vm.obj
 0001:00003179       lj_vm_callhook             0000000180004179 f   lj_vm.obj
 0001:0000317f       lj_vm_hotcall              000000018000417f f   lj_vm.obj
 0001:000031c2       lj_vm_exit_handler         00000001800041c2 f   lj_vm.obj
 0001:000032af       lj_vm_exit_interp          00000001800042af f   lj_vm.obj
 0001:00003354       lj_vm_floor_sse            0000000180004354 f   lj_vm.obj
 0001:00003354       lj_vm_floor                0000000180004354 f   lj_vm.obj
 0001:000033af       lj_vm_ceil_sse             00000001800043af f   lj_vm.obj
 0001:000033af       lj_vm_ceil                 00000001800043af f   lj_vm.obj
 0001:0000340a       lj_vm_trunc                000000018000440a f   lj_vm.obj
 0001:0000340a       lj_vm_trunc_sse            000000018000440a f   lj_vm.obj
 0001:00003468       lj_vm_mod                  0000000180004468 f   lj_vm.obj
 0001:000034de       lj_vm_log2                 00000001800044de f   lj_vm.obj
 0001:000034f7       lj_vm_exp_x87              00000001800044f7 f   lj_vm.obj
 0001:000034fb       lj_vm_exp2_x87             00000001800044fb f   lj_vm.obj
 0001:00003513       lj_vm_exp2raw              0000000180004513 f   lj_vm.obj
 0001:0000352b       lj_vm_pow_sse              000000018000452b f   lj_vm.obj
 0001:0000352b       lj_vm_pow                  000000018000452b f   lj_vm.obj
 0001:00003543       lj_vm_powi_sse             0000000180004543 f   lj_vm.obj
 0001:00003683       lj_vm_foldfpm              0000000180004683 f   lj_vm.obj
 0001:00003709       lj_vm_foldarith            0000000180004709 f   lj_vm.obj
 0001:000037af       lj_vm_cpuid                00000001800047af f   lj_vm.obj
 0001:000037c6       lj_assert_bad_for_arg_type 00000001800047c6 f   lj_vm.obj
 0001:000037c7       lj_vm_ffi_callback         00000001800047c7 f   lj_vm.obj
 0001:00003853       lj_cont_ffi_callback       0000000180004853 f   lj_vm.obj
 0001:0000387e       lj_vm_ffi_call             000000018000487e f   lj_vm.obj
 0001:000038dc       RtlUnwindEx                00000001800048dc f   kernel32:KERNEL32.dll
 0001:000038e2       fputc                      00000001800048e2 f   MSVCRT:MSVCR90.dll
 0001:000038e8       fflush                     00000001800048e8 f   MSVCRT:MSVCR90.dll
 0001:000038ee       fwrite                     00000001800048ee f   MSVCRT:MSVCR90.dll
 0001:000038f4       memcpy                     00000001800048f4 f   MSVCRT:MSVCR90.dll
 0001:000038fa       strlen                     00000001800048fa f   MSVCRT:MSVCR90.dll
 0001:00003900       tanh                       0000000180004900 f   MSVCRT:MSVCR90.dll
 0001:00003906       sinh                       0000000180004906 f   MSVCRT:MSVCR90.dll
 0001:0000390c       memset                     000000018000490c f   MSVCRT:MSVCR90.dll
 0001:00003912       cosh                       0000000180004912 f   MSVCRT:MSVCR90.dll
 0001:00003918       __DestructExceptionObject  0000000180004918 f   MSVCRT:MSVCR90.dll
 0001:00003980       _CRT_INIT                  0000000180004980 f   MSVCRT:crtdll.obj
 0001:00003d14       _DllMainCRTStartup         0000000180004d14 f   MSVCRT:crtdll.obj
 0001:00003d54       __clean_type_info_names    0000000180004d54 f   MSVCRT:tncleanup.obj
 0001:00003d60       _onexit                    0000000180004d60 f   MSVCRT:atonexit.obj
 0001:00003e10       atexit                     0000000180004e10 f   MSVCRT:atonexit.obj
 0001:00003e28       _RTC_Initialize            0000000180004e28 f   MSVCRT:_initsect_.obj
 0001:00003e60       _RTC_Terminate             0000000180004e60 f   MSVCRT:_initsect_.obj
 0001:00003ea0       _ValidateImageBase         0000000180004ea0 f   MSVCRT:pesect.obj
 0001:00003ed0       _FindPESection             0000000180004ed0 f   MSVCRT:pesect.obj
 0001:00003f20       _IsNonwritableInCurrentImage 0000000180004f20 f   MSVCRT:pesect.obj
 0001:00003f62       _initterm                  0000000180004f62 f   MSVCRT:MSVCR90.dll
 0001:00003f68       _initterm_e                0000000180004f68 f   MSVCRT:MSVCR90.dll
 0001:00003f6e       _amsg_exit                 0000000180004f6e f   MSVCRT:MSVCR90.dll
 0001:00003f74       __C_specific_handler       0000000180004f74 f   MSVCRT:MSVCR90.dll
 0001:00003f7a       __CppXcptFilter            0000000180004f7a f   MSVCRT:MSVCR90.dll
 0001:00003f80       DllMain                    0000000180004f80 f   MSVCRT:dllmain.obj
 0001:00003fa4       __security_init_cookie     0000000180004fa4 f   MSVCRT:gs_support.obj
 0001:00004058       __clean_type_info_names_internal 0000000180005058 f   MSVCRT:MSVCR90.dll
 0001:0000405e       _unlock                    000000018000505e f   MSVCRT:MSVCR90.dll
 0001:00004064       __dllonexit                0000000180005064 f   MSVCRT:MSVCR90.dll
 0001:0000406a       _lock                      000000018000506a f   MSVCRT:MSVCR90.dll
 0001:00004070       lua_atpanic                0000000180005070 f   lj_err.obj
 0001:000041e0       lj_err_throw               00000001800051e0 f   lj_err.obj
 0001:00004250       lj_err_mem                 0000000180005250 f   lj_err.obj
 0001:00004560       luaL_where                 0000000180005560 f   lj_err.obj
 0001:000045b0       lj_err_lex                 00000001800055b0 f   lj_err.obj
 0001:000046c0       lj_err_comp                00000001800056c0 f   lj_err.obj
 0001:00004760       lj_err_optype              0000000180005760 f   lj_err.obj
 0001:00004850       lj_err_msg                 0000000180005850 f   lj_err.obj
 0001:00004860       lj_err_optype_call         0000000180005860 f   lj_err.obj
 0001:000048f0       lj_err_str                 00000001800058f0 f   lj_err.obj
 0001:00004930       lj_err_unwind_win64        0000000180005930 f   lj_err.obj
 0001:00004a50       lj_err_run                 0000000180005a50 f   lj_err.obj
 0001:00004af0       lua_error                  0000000180005af0 f   lj_err.obj
 0001:00004b00       lj_err_callermsg           0000000180005b00 f   lj_err.obj
 0001:00004ba0       luaL_error                 0000000180005ba0 f   lj_err.obj
 0001:00004c90       lj_err_caller              0000000180005c90 f   lj_err.obj
 0001:00004cb0       lj_err_callerv             0000000180005cb0 f   lj_err.obj
 0001:00004cf0       luaL_argerror              0000000180005cf0 f   lj_err.obj
 0001:00004d00       lj_err_argtype             0000000180005d00 f   lj_err.obj
 0001:00004db0       lj_err_arg                 0000000180005db0 f   lj_err.obj
 0001:00004dd0       lj_err_argv                0000000180005dd0 f   lj_err.obj
 0001:00004e20       luaL_typerror              0000000180005e20 f   lj_err.obj
 0001:00004e30       lj_err_argt                0000000180005e30 f   lj_err.obj
 0001:000062f0       lj_vm_errno                00000001800072f0 f   lj_vmmath.obj
 0001:00006310       lj_vm_modi                 0000000180007310 f   lj_vmmath.obj
 0001:00006350       lj_vm_tanh                 0000000180007350 f   lj_vmmath.obj
 0001:00006360       lj_vm_cosh                 0000000180007360 f   lj_vmmath.obj
 0001:00006370       lj_vm_sinh                 0000000180007370 f   lj_vmmath.obj
 0001:00006380       lj_vmevent_call            0000000180007380 f   lj_vmevent.obj
 0001:000064e0       lj_vmevent_prepare         00000001800074e0 f   lj_vmevent.obj
 0001:000065e0       lj_udata_free              00000001800075e0 f   lj_udata.obj
 0001:00006600       lj_udata_new               0000000180007600 f   lj_udata.obj
 0001:000066d0       lj_trace_initstate         00000001800076d0 f   lj_trace.obj
 0001:00006780       lj_trace_reenableproto     0000000180007780 f   lj_trace.obj
 0001:00006bc0       lj_trace_free              0000000180007bc0 f   lj_trace.obj
 0001:00006c20       lj_trace_err_info          0000000180007c20 f   lj_trace.obj
 0001:00006c60       lj_trace_err               0000000180007c60 f   lj_trace.obj
 0001:00006ce0       lj_trace_freestate         0000000180007ce0 f   lj_trace.obj
 0001:00006db0       lj_trace_flushproto        0000000180007db0 f   lj_trace.obj
 0001:00006e10       lj_trace_flush             0000000180007e10 f   lj_trace.obj
 0001:000072d0       lj_trace_flushall          00000001800082d0 f   lj_trace.obj
 0001:00007c30       lj_trace_ins               0000000180008c30 f   lj_trace.obj
 0001:00007d10       lj_trace_hot               0000000180008d10 f   lj_trace.obj
 0001:00007dc0       lj_trace_exit              0000000180008dc0 f   lj_trace.obj
 0001:00008290       lj_tab_setinth             0000000180009290 f   lj_tab.obj
 0001:00008320       lj_tab_getstr              0000000180009320 f   lj_tab.obj
 0001:00008360       lj_tab_getinth             0000000180009360 f   lj_tab.obj
 0001:00008430       lj_tab_free                0000000180009430 f   lj_tab.obj
 0001:00008690       lj_tab_get                 0000000180009690 f   lj_tab.obj
 0001:000087b0       lj_tab_len                 00000001800097b0 f   lj_tab.obj
 0001:00008980       lj_tab_next                0000000180009980 f   lj_tab.obj
 0001:00008dd0       lj_tab_reasize             0000000180009dd0 f   lj_tab.obj
 0001:00008ee0       lj_tab_dup                 0000000180009ee0 f   lj_tab.obj
 0001:00008fd0       lj_tab_new1                0000000180009fd0 f   lj_tab.obj
 0001:00009060       lj_tab_new                 000000018000a060 f   lj_tab.obj
 0001:000090e0       lj_tab_newkey              000000018000a0e0 f   lj_tab.obj
 0001:00009290       lj_tab_setstr              000000018000a290 f   lj_tab.obj
 0001:00009300       lj_tab_set                 000000018000a300 f   lj_tab.obj
 0001:00009c50       lj_strscan_scan            000000018000ac50 f   lj_strscan.obj
 0001:0000a1b0       lj_strscan_num             000000018000b1b0 f   lj_strscan.obj
 0001:0000a1e0       lj_str_bufint              000000018000b1e0 f   lj_str.obj
 0001:0000a250       lj_str_bufnum              000000018000b250 f   lj_str.obj
 0001:0000a330       lj_str_cmp                 000000018000b330 f   lj_str.obj
 0001:0000a410       lj_str_free                000000018000b410 f   lj_str.obj
 0001:0000a460       lj_str_needbuf             000000018000b460 f   lj_str.obj
 0001:0000a5d0       lj_str_resize              000000018000b5d0 f   lj_str.obj
 0001:0000a6b0       lj_str_pushvf              000000018000b6b0 f   lj_str.obj
 0001:0000aa10       lj_str_pushf               000000018000ba10 f   lj_str.obj
 0001:0000aa40       lj_str_new                 000000018000ba40 f   lj_str.obj
 0001:0000ac90       lj_str_fromint             000000018000bc90 f   lj_str.obj
 0001:0000acc0       lj_str_fromnum             000000018000bcc0 f   lj_str.obj
 0001:0000acf0       lj_str_fromnumber          000000018000bcf0 f   lj_str.obj
 0001:0000ad70       lj_state_free              000000018000bd70 f   lj_state.obj
 0001:0000af10       lj_state_new               000000018000bf10 f   lj_state.obj
 0001:0000af70       lj_state_growstack         000000018000bf70 f   lj_state.obj
 0001:0000afe0       lj_state_shrinkstack       000000018000bfe0 f   lj_state.obj
 0001:0000b020       lj_state_relimitstack      000000018000c020 f   lj_state.obj
 0001:0000b060       lj_state_growstack1        000000018000c060 f   lj_state.obj
 0001:0000b1d0       lj_state_newstate          000000018000c1d0 f   lj_state.obj
 0001:0000b350       lua_close                  000000018000c350 f   lj_state.obj
 0001:0000b9e0       lj_snap_regspmap           000000018000c9e0 f   lj_snap.obj
 0001:0000bf80       lj_snap_shrink             000000018000cf80 f   lj_snap.obj
 0001:0000c0b0       lj_snap_purge              000000018000d0b0 f   lj_snap.obj
 0001:0000c130       lj_snap_grow_map_          000000018000d130 f   lj_snap.obj
 0001:0000c2c0       lj_snap_grow_buf_          000000018000d2c0 f   lj_snap.obj
 0001:0000c500       lj_snap_add                000000018000d500 f   lj_snap.obj
 0001:0000c760       lj_snap_replay             000000018000d760 f   lj_snap.obj
 0001:0000d290       lj_snap_restore            000000018000e290 f   lj_snap.obj
 0001:0000e670       lj_record_objcmp           000000018000f670 f   lj_record.obj
 0001:0000f520       lj_record_constify         0000000180010520 f   lj_record.obj
 0001:0000f9e0       lj_record_idx              00000001800109e0 f   lj_record.obj
 0001:00010100       lj_record_mm_lookup        0000000180011100 f   lj_record.obj
 0001:00010420       lj_record_ret              0000000180011420 f   lj_record.obj
 0001:00010c90       lj_record_tailcall         0000000180011c90 f   lj_record.obj
 0001:00010d50       lj_record_call             0000000180011d50 f   lj_record.obj
 0001:00010f50       lj_record_setup            0000000180011f50 f   lj_record.obj
 0001:00011aa0       lj_record_ins              0000000180012aa0 f   lj_record.obj
 0001:000146e0       lj_parse_keepcdata         00000001800156e0 f   lj_parse.obj
 0001:00014e40       lj_parse_keepstr           0000000180015e40 f   lj_parse.obj
 0001:00018130       lj_parse                   0000000180019130 f   lj_parse.obj
 0001:00018840       lj_opt_sink                0000000180019840 f   lj_opt_sink.obj
 0001:00018ad0       lj_opt_narrow_forl         0000000180019ad0 f   lj_opt_narrow.obj
 0001:00018e10       lj_opt_narrow_pow          0000000180019e10 f   lj_opt_narrow.obj
 0001:00019090       lj_opt_narrow_mod          000000018001a090 f   lj_opt_narrow.obj
 0001:00019210       lj_opt_narrow_unm          000000018001a210 f   lj_opt_narrow.obj
 0001:00019320       lj_opt_narrow_arith        000000018001a320 f   lj_opt_narrow.obj
 0001:000194e0       lj_opt_narrow_index        000000018001a4e0 f   lj_opt_narrow.obj
 0001:000199c0       lj_opt_narrow_cindex       000000018001a9c0 f   lj_opt_narrow.obj
 0001:00019a10       lj_opt_narrow_tobit        000000018001aa10 f   lj_opt_narrow.obj
 0001:00019ae0       lj_opt_narrow_toint        000000018001aae0 f   lj_opt_narrow.obj
 0001:00019b90       lj_opt_narrow_convert      000000018001ab90 f   lj_opt_narrow.obj
 0001:00019c40       lj_opt_fwd_wasnonnil       000000018001ac40 f   lj_opt_mem.obj
 0001:0001a190       lj_opt_fwd_tptr            000000018001b190 f   lj_opt_mem.obj
 0001:0001a3d0       lj_opt_fwd_href_nokey      000000018001b3d0 f   lj_opt_mem.obj
 0001:0001a4b0       lj_opt_dse_xstore          000000018001b4b0 f   lj_opt_mem.obj
 0001:0001a5f0       lj_opt_dse_fstore          000000018001b5f0 f   lj_opt_mem.obj
 0001:0001a710       lj_opt_dse_ustore          000000018001b710 f   lj_opt_mem.obj
 0001:0001a8a0       lj_opt_dse_ahstore         000000018001b8a0 f   lj_opt_mem.obj
 0001:0001a9c0       lj_opt_fwd_tab_len         000000018001b9c0 f   lj_opt_mem.obj
 0001:0001aa40       lj_opt_fwd_fload           000000018001ba40 f   lj_opt_mem.obj
 0001:0001ab10       lj_opt_fwd_uload           000000018001bb10 f   lj_opt_mem.obj
 0001:0001abb0       lj_opt_fwd_hrefk           000000018001bbb0 f   lj_opt_mem.obj
 0001:0001aff0       lj_opt_fwd_xload           000000018001bff0 f   lj_opt_mem.obj
 0001:0001b1f0       lj_opt_fwd_hload           000000018001c1f0 f   lj_opt_mem.obj
 0001:0001b2f0       lj_opt_fwd_aload           000000018001c2f0 f   lj_opt_mem.obj
 0001:0001bec0       lj_opt_loop                000000018001cec0 f   lj_opt_loop.obj
 0001:0001d560       lj_opt_cselim              000000018001e560 f   lj_opt_fold.obj
 0001:0001d5b0       lj_opt_cse                 000000018001e5b0 f   lj_opt_fold.obj
 0001:0001da00       lj_opt_fold                000000018001ea00 f   lj_opt_fold.obj
 0001:0001f640       lj_opt_dce                 0000000180020640 f   lj_opt_dce.obj
 0001:0001f680       lj_obj_equal               0000000180020680 f   lj_obj.obj
 0001:0001f7a0       lj_meta_tailcall           00000001800207a0 f   lj_meta.obj
 0001:0001f7f0       lj_meta_lookup             00000001800207f0 f   lj_meta.obj
 0001:0001f880       lj_meta_cache              0000000180020880 f   lj_meta.obj
 0001:0001f8e0       lj_meta_equal_cd           00000001800208e0 f   lj_meta.obj
 0001:0001f9f0       lj_meta_equal              00000001800209f0 f   lj_meta.obj
 0001:0001fba0       lj_meta_for                0000000180020ba0 f   lj_meta.obj
 0001:0001fc50       lj_meta_comp               0000000180020c50 f   lj_meta.obj
 0001:0001fdf0       lj_meta_len                0000000180020df0 f   lj_meta.obj
 0001:0001fe50       lj_meta_arith              0000000180020e50 f   lj_meta.obj
 0001:0001ff60       lj_meta_tget               0000000180020f60 f   lj_meta.obj
 0001:00020060       lj_meta_init               0000000180021060 f   lj_meta.obj
 0001:000200e0       lj_meta_call               00000001800210e0 f   lj_meta.obj
 0001:00020190       lj_meta_tset               0000000180021190 f   lj_meta.obj
 0001:00020330       lj_meta_cat                0000000180021330 f   lj_meta.obj
 0001:00020620       lj_mcode_sync              0000000180021620 f   lj_mcode.obj
 0001:00020660       lj_mcode_free              0000000180021660 f   lj_mcode.obj
 0001:00020770       lj_mcode_patch             0000000180021770 f   lj_mcode.obj
 0001:00020830       lj_mcode_abort             0000000180021830 f   lj_mcode.obj
 0001:00020840       lj_mcode_commit            0000000180021840 f   lj_mcode.obj
 0001:00020a20       lj_mcode_limiterr          0000000180021a20 f   lj_mcode.obj
 0001:00020aa0       lj_mcode_reserve           0000000180021aa0 f   lj_mcode.obj
 0001:00020be0       lua_dump                   0000000180021be0 f   lj_load.obj
 0001:00020d00       lua_loadx                  0000000180021d00 f   lj_load.obj
 0001:00020da0       luaL_loadbufferx           0000000180021da0 f   lj_load.obj
 0001:00020de0       luaL_loadfilex             0000000180021de0 f   lj_load.obj
 0001:00020f40       lua_load                   0000000180021f40 f   lj_load.obj
 0001:00020f60       luaL_loadbuffer            0000000180021f60 f   lj_load.obj
 0001:00020f80       luaL_loadfile              0000000180021f80 f   lj_load.obj
 0001:00020f90       luaL_loadstring            0000000180021f90 f   lj_load.obj
 0001:000210e0       lj_lib_checktabornil       00000001800220e0 f   lj_lib.obj
 0001:00021130       lj_lib_checkany            0000000180022130 f   lj_lib.obj
 0001:00021160       lj_lib_checktab            0000000180022160 f   lj_lib.obj
 0001:000211a0       lj_lib_checkfunc           00000001800221a0 f   lj_lib.obj
 0001:000211e0       lj_lib_checkbit            00000001800221e0 f   lj_lib.obj
 0001:00021260       lj_lib_checkint            0000000180022260 f   lj_lib.obj
 0001:000212d0       lj_lib_checknum            00000001800222d0 f   lj_lib.obj
 0001:00021340       lj_lib_checkstr            0000000180022340 f   lj_lib.obj
 0001:000213a0       lj_lib_optint              00000001800223a0 f   lj_lib.obj
 0001:000213d0       lj_lib_optstr              00000001800223d0 f   lj_lib.obj
 0001:00021400       lj_lib_checkopt            0000000180022400 f   lj_lib.obj
 0001:000215b0       lj_lib_register            00000001800225b0 f   lj_lib.obj
 0001:00021980       lj_lex_cleanup             0000000180022980 f   lj_lex.obj
 0001:00021bf0       lj_lex_token2str           0000000180022bf0 f   lj_lex.obj
 0001:00021c40       lj_lex_error               0000000180022c40 f   lj_lex.obj
 0001:00021d70       lj_lex_init                0000000180022d70 f   lj_lex.obj
 0001:00021de0       lj_lex_setup               0000000180022de0 f   lj_lex.obj
 0001:00023200       lj_lex_lookahead           0000000180024200 f   lj_lex.obj
 0001:00023230       lj_lex_next                0000000180024230 f   lj_lex.obj
 0001:00023280       lj_ir_rollback             0000000180024280 f   lj_ir.obj
 0001:000232e0       lj_ir_strcmp               00000001800242e0 f   lj_ir.obj
 0001:00023340       lj_ir_numcmp               0000000180024340 f   lj_ir.obj
 0001:00023500       lj_ir_k64_freeall          0000000180024500 f   lj_ir.obj
 0001:00023580       lj_ir_k64_find             0000000180024580 f   lj_ir.obj
 0001:00023780       lj_ir_growtop              0000000180024780 f   lj_ir.obj
 0001:000238a0       lj_ir_kvalue               00000001800248a0 f   lj_ir.obj
 0001:00023a00       lj_ir_emit                 0000000180024a00 f   lj_ir.obj
 0001:00023a90       lj_ir_kslot                0000000180024a90 f   lj_ir.obj
 0001:00023b40       lj_ir_knull                0000000180024b40 f   lj_ir.obj
 0001:00023bd0       lj_ir_kptr_                0000000180024bd0 f   lj_ir.obj
 0001:00023c90       lj_ir_kgc                  0000000180024c90 f   lj_ir.obj
 0001:00023d30       lj_ir_k64                  0000000180024d30 f   lj_ir.obj
 0001:00023df0       lj_ir_kint                 0000000180024df0 f   lj_ir.obj
 0001:00023e90       lj_ir_tostr                0000000180024e90 f   lj_ir.obj
 0001:00023ef0       lj_ir_tonum                0000000180024ef0 f   lj_ir.obj
 0001:00023f80       lj_ir_tonumber             0000000180024f80 f   lj_ir.obj
 0001:00023fe0       lj_ir_kint64               0000000180024fe0 f   lj_ir.obj
 0001:00024010       lj_ir_knum_u64             0000000180025010 f   lj_ir.obj
 0001:00024040       lj_ir_call                 0000000180025040 f   lj_ir.obj
 0001:00024160       lj_ir_knumint              0000000180025160 f   lj_ir.obj
 0001:000243d0       lj_gc_barriertrace         00000001800253d0 f   lj_gc.obj
 0001:000243f0       lj_gc_barrieruv            00000001800253f0 f   lj_gc.obj
 0001:00024420       lj_gc_barrierf             0000000180025420 f   lj_gc.obj
 0001:00024450       lj_gc_freeall              0000000180025450 f   lj_gc.obj
 0001:00024a50       lj_gc_separateudata        0000000180025a50 f   lj_gc.obj
 0001:00024c50       lj_mem_newgco              0000000180025c50 f   lj_gc.obj
 0001:00024cc0       lj_mem_realloc             0000000180025cc0 f   lj_gc.obj
 0001:00024d20       lj_gc_closeuv              0000000180025d20 f   lj_gc.obj
 0001:00024da0       lj_gc_finalize_cdata       0000000180025da0 f   lj_gc.obj
 0001:00024ed0       lj_mem_grow                0000000180025ed0 f   lj_gc.obj
 0001:00025520       lj_gc_finalize_udata       0000000180026520 f   lj_gc.obj
 0001:00025560       lj_gc_fullgc               0000000180026560 f   lj_gc.obj
 0001:00025600       lj_gc_step                 0000000180026600 f   lj_gc.obj
 0001:000256c0       lj_gc_step_jit             00000001800266c0 f   lj_gc.obj
 0001:00025740       lj_gc_step_fixtop          0000000180026740 f   lj_gc.obj
 0001:000257b0       lj_func_free               00000001800267b0 f   lj_func.obj
 0001:000257f0       lj_func_freeuv             00000001800267f0 f   lj_func.obj
 0001:00025830       lj_func_freeproto          0000000180026830 f   lj_func.obj
 0001:000258b0       lj_func_newC               00000001800268b0 f   lj_func.obj
 0001:00025910       lj_func_closeuv            0000000180026910 f   lj_func.obj
 0001:00025a90       lj_func_newL_empty         0000000180026a90 f   lj_func.obj
 0001:00025b40       lj_func_newL_gc            0000000180026b40 f   lj_func.obj
 0001:00026ab0       lj_ffrecord_select_mode    0000000180027ab0 f   lj_ffrecord.obj
 0001:00027280       lj_ffrecord_func           0000000180028280 f   lj_ffrecord.obj
 0001:00028370       lua_gethookcount           0000000180029370 f   lj_dispatch.obj
 0001:00028380       lua_gethookmask            0000000180029380 f   lj_dispatch.obj
 0001:000283a0       lua_gethook                00000001800293a0 f   lj_dispatch.obj
 0001:000283c0       luaJIT_version_2_0_1       00000001800293c0 f   lj_dispatch.obj
 0001:000283d0       lj_dispatch_init_hotcount  00000001800293d0 f   lj_dispatch.obj
 0001:00028400       lj_dispatch_init           0000000180029400 f   lj_dispatch.obj
 0001:00028560       lj_dispatch_update         0000000180029560 f   lj_dispatch.obj
 0001:00028870       lua_sethook                0000000180029870 f   lj_dispatch.obj
 0001:00028b00       luaJIT_setmode             0000000180029b00 f   lj_dispatch.obj
 0001:00028d20       lj_dispatch_ins            0000000180029d20 f   lj_dispatch.obj
 0001:00028ec0       lj_dispatch_call           0000000180029ec0 f   lj_dispatch.obj
 0001:00029030       lj_debug_shortname         000000018002a030 f   lj_debug.obj
 0001:00029150       lj_debug_uvname            000000018002a150 f   lj_debug.obj
 0001:000291d0       lj_debug_line              000000018002a1d0 f   lj_debug.obj
 0001:00029320       lj_debug_frame             000000018002a320 f   lj_debug.obj
 0001:000293d0       lua_getstack               000000018002a3d0 f   lj_debug.obj
 0001:00029440       lj_debug_uvnamev           000000018002a440 f   lj_debug.obj
 0001:00029600       lj_debug_slotname          000000018002a600 f   lj_debug.obj
 0001:000298b0       lua_setlocal               000000018002a8b0 f   lj_debug.obj
 0001:00029900       lj_debug_funcname          000000018002a900 f   lj_debug.obj
 0001:00029a00       lua_getlocal               000000018002aa00 f   lj_debug.obj
 0001:00029aa0       lj_debug_pushloc           000000018002aaa0 f   lj_debug.obj
 0001:00029b80       lj_debug_addloc            000000018002ab80 f   lj_debug.obj
 0001:00029c20       lj_debug_getinfo           000000018002ac20 f   lj_debug.obj
 0001:00029fa0       lua_getinfo                000000018002afa0 f   lj_debug.obj
 0001:00029fb0       luaL_traceback             000000018002afb0 f   lj_debug.obj
 0001:0002a410       lj_ctype_freestate         000000018002b410 f   lj_ctype.obj
 0001:0002a4f0       lj_ctype_addname           000000018002b4f0 f   lj_ctype.obj
 0001:0002a630       lj_ctype_meta              000000018002b630 f   lj_ctype.obj
 0001:0002a700       lj_ctype_info              000000018002b700 f   lj_ctype.obj
 0001:0002a7a0       lj_ctype_getname           000000018002b7a0 f   lj_ctype.obj
 0001:0002ad30       lj_ctype_rawref            000000018002bd30 f   lj_ctype.obj
 0001:0002ad70       lj_ctype_getfieldq         000000018002bd70 f   lj_ctype.obj
 0001:0002af30       lj_ctype_vlsize            000000018002bf30 f   lj_ctype.obj
 0001:0002b010       lj_ctype_size              000000018002c010 f   lj_ctype.obj
 0001:0002b070       lj_ctype_init              000000018002c070 f   lj_ctype.obj
 0001:0002b1d0       lj_ctype_repr_complex      000000018002c1d0 f   lj_ctype.obj
 0001:0002b2a0       lj_ctype_repr_int64        000000018002c2a0 f   lj_ctype.obj
 0001:0002b350       lj_ctype_repr              000000018002c350 f   lj_ctype.obj
 0001:0002b3f0       lj_ctype_intern            000000018002c3f0 f   lj_ctype.obj
 0001:0002b510       lj_ctype_new               000000018002c510 f   lj_ctype.obj
 0001:0002bc20       recff_ffi_abi              000000018002cc20 f   lj_crecord.obj
 0001:0002bcb0       recff_ffi_errno            000000018002ccb0 f   lj_crecord.obj
 0001:0002c500       recff_ffi_gc               000000018002d500 f   lj_crecord.obj
 0001:0002df40       lj_crecord_tonumber        000000018002ef40 f   lj_crecord.obj
 0001:0002e040       recff_clib_index           000000018002f040 f   lj_crecord.obj
 0001:0002e2a0       recff_cdata_arith          000000018002f2a0 f   lj_crecord.obj
 0001:0002f0d0       recff_cdata_index          00000001800300d0 f   lj_crecord.obj
 0001:0002f830       recff_ffi_fill             0000000180030830 f   lj_crecord.obj
 0001:0002f9c0       recff_ffi_copy             00000001800309c0 f   lj_crecord.obj
 0001:0002fb20       recff_ffi_string           0000000180030b20 f   lj_crecord.obj
 0001:00030040       recff_cdata_call           0000000180031040 f   lj_crecord.obj
 0001:000302c0       recff_ffi_xof              00000001800312c0 f   lj_crecord.obj
 0001:000303e0       recff_ffi_istype           00000001800313e0 f   lj_crecord.obj
 0001:00030470       recff_ffi_typeof           0000000180031470 f   lj_crecord.obj
 0001:00030520       recff_ffi_new              0000000180031520 f   lj_crecord.obj
 0001:00034a00       lj_cparse                  0000000180035a00 f   lj_cparse.obj
 0001:00034d00       lj_clib_unload             0000000180035d00 f   lj_clib.obj
 0001:00034ed0       lj_clib_default            0000000180035ed0 f   lj_clib.obj
 0001:00034f80       lj_clib_index              0000000180035f80 f   lj_clib.obj
 0001:00035150       lj_clib_load               0000000180036150 f   lj_clib.obj
 0001:00035280       lj_cdata_newv              0000000180036280 f   lj_cdata.obj
 0001:00035470       lj_cdata_free              0000000180036470 f   lj_cdata.obj
 0001:00035570       lj_cdata_newref            0000000180036570 f   lj_cdata.obj
 0001:000355d0       lj_cdata_setfin            00000001800365d0 f   lj_cdata.obj
 0001:00035640       lj_cdata_index             0000000180036640 f   lj_cdata.obj
 0001:00035a40       lj_cdata_set               0000000180036a40 f   lj_cdata.obj
 0001:00035b40       lj_cdata_get               0000000180036b40 f   lj_cdata.obj
 0001:00035d80       lj_cconv_multi_init        0000000180036d80 f   lj_cconv.obj
 0001:00035ee0       lj_cconv_compatptr         0000000180036ee0 f   lj_cconv.obj
 0001:00036020       lj_cconv_bf_tv             0000000180037020 f   lj_cconv.obj
 0001:00036360       lj_cconv_tv_bf             0000000180037360 f   lj_cconv.obj
 0001:000367a0       lj_cconv_ct_ct             00000001800377a0 f   lj_cconv.obj
 0001:00036f20       lj_cconv_ct_tv             0000000180037f20 f   lj_cconv.obj
 0001:00037280       lj_cconv_tv_ct             0000000180038280 f   lj_cconv.obj
 0001:00037710       lj_cconv_ct_init           0000000180038710 f   lj_cconv.obj
 0001:000377f0       lj_ccallback_mcode_free    00000001800387f0 f   lj_ccallback.obj
 0001:00037980       lj_ccallback_ptr2slot      0000000180038980 f   lj_ccallback.obj
 0001:00037d90       lj_ccallback_new           0000000180038d90 f   lj_ccallback.obj
 0001:00038120       lj_ccallback_leave         0000000180039120 f   lj_ccallback.obj
 0001:000381b0       lj_ccallback_enter         00000001800391b0 f   lj_ccallback.obj
 0001:000383f0       lj_ccall_ctid_vararg       00000001800393f0 f   lj_ccall.obj
 0001:00038bb0       lj_ccall_func              0000000180039bb0 f   lj_ccall.obj
 0001:00038d60       lj_carith_powu64           0000000180039d60 f   lj_carith.obj
 0001:00038dc0       lj_carith_modi64           0000000180039dc0 f   lj_carith.obj
 0001:00038e00       lj_carith_modu64           0000000180039e00 f   lj_carith.obj
 0001:00038e30       lj_carith_divi64           0000000180039e30 f   lj_carith.obj
 0001:00038e70       lj_carith_divu64           0000000180039e70 f   lj_carith.obj
 0001:00038f40       lj_carith_powi64           0000000180039f40 f   lj_carith.obj
 0001:00039b80       lj_carith_op               000000018003ab80 f   lj_carith.obj
 0001:0003a660       lj_bcwrite                 000000018003b660 f   lj_bcwrite.obj
 0001:0003b4e0       lj_bcread                  000000018003c4e0 f   lj_bcread.obj
 0001:0003c7e0       lj_asm_patchexit           000000018003d7e0 f   lj_asm.obj
 0001:00044a40       lj_asm_trace               0000000180045a40 f   lj_asm.obj
 0001:00044d90       lua_setallocf              0000000180045d90 f   lj_api.obj
 0001:00044db0       lua_getallocf              0000000180045db0 f   lj_api.obj
 0001:00044dd0       lua_call                   0000000180045dd0 f   lj_api.obj
 0001:00044df0       lua_typename               0000000180045df0 f   lj_api.obj
 0001:00044e10       lua_gettop                 0000000180045e10 f   lj_api.obj
 0001:00044e30       lua_status                 0000000180045e30 f   lj_api.obj
 0001:00044f40       lua_pcall                  0000000180045f40 f   lj_api.obj
 0001:00044fd0       lua_insert                 0000000180045fd0 f   lj_api.obj
 0001:00045020       lua_remove                 0000000180046020 f   lj_api.obj
 0001:000451f0       lua_setupvalue             00000001800461f0 f   lj_api.obj
 0001:00045280       lua_setfenv                0000000180046280 f   lj_api.obj
 0001:00045300       lua_rawseti                0000000180046300 f   lj_api.obj
 0001:00045390       lua_upvaluejoin            0000000180046390 f   lj_api.obj
 0001:00045400       lua_upvalueid              0000000180046400 f   lj_api.obj
 0001:00045440       lua_rawget                 0000000180046440 f   lj_api.obj
 0001:00045480       lua_topointer              0000000180046480 f   lj_api.obj
 0001:000454f0       lua_tothread               00000001800464f0 f   lj_api.obj
 0001:00045520       lua_touserdata             0000000180046520 f   lj_api.obj
 0001:00045570       lua_tocfunction            0000000180046570 f   lj_api.obj
 0001:000455b0       lua_toboolean              00000001800465b0 f   lj_api.obj
 0001:000455d0       lua_equal                  00000001800465d0 f   lj_api.obj
 0001:000456f0       lua_rawequal               00000001800466f0 f   lj_api.obj
 0001:00045740       lua_isuserdata             0000000180046740 f   lj_api.obj
 0001:00045780       lua_isstring               0000000180046780 f   lj_api.obj
 0001:000457b0       lua_iscfunction            00000001800467b0 f   lj_api.obj
 0001:000457e0       lua_type                   00000001800467e0 f   lj_api.obj
 0001:00045860       lua_tointeger              0000000180046860 f   lj_api.obj
 0001:000458c0       lua_tonumber               00000001800468c0 f   lj_api.obj
 0001:00045910       lua_isnumber               0000000180046910 f   lj_api.obj
 0001:00045950       lua_settop                 0000000180046950 f   lj_api.obj
 0001:00045a20       lua_getupvalue             0000000180046a20 f   lj_api.obj
 0001:00045a80       lua_getfenv                0000000180046a80 f   lj_api.obj
 0001:00045b10       lua_getmetatable           0000000180046b10 f   lj_api.obj
 0001:00045bb0       lua_rawgeti                0000000180046bb0 f   lj_api.obj
 0001:00045c20       lua_pushthread             0000000180046c20 f   lj_api.obj
 0001:00045c70       lua_pushboolean            0000000180046c70 f   lj_api.obj
 0001:00045cb0       lua_pushinteger            0000000180046cb0 f   lj_api.obj
 0001:00045cf0       lua_pushnumber             0000000180046cf0 f   lj_api.obj
 0001:00045d40       lua_pushnil                0000000180046d40 f   lj_api.obj
 0001:00045d70       lua_pushvalue              0000000180046d70 f   lj_api.obj
 0001:00045db0       lua_xmove                  0000000180046db0 f   lj_api.obj
 0001:00045e40       lua_checkstack             0000000180046e40 f   lj_api.obj
 0001:00045eb0       lua_yield                  0000000180046eb0 f   lj_api.obj
 0001:00046040       luaL_getmetafield          0000000180047040 f   lj_api.obj
 0001:000460e0       lua_getfield               00000001800470e0 f   lj_api.obj
 0001:000461a0       lua_gettable               00000001800471a0 f   lj_api.obj
 0001:00046210       lua_pushlightuserdata      0000000180047210 f   lj_api.obj
 0001:00046260       lua_lessthan               0000000180047260 f   lj_api.obj
 0001:00046310       lua_replace                0000000180047310 f   lj_api.obj
 0001:000463e0       lua_resume                 00000001800473e0 f   lj_api.obj
 0001:00046460       luaL_callmeta              0000000180047460 f   lj_api.obj
 0001:000464d0       lua_cpcall                 00000001800474d0 f   lj_api.obj
 0001:00046520       lua_next                   0000000180047520 f   lj_api.obj
 0001:00046590       lua_objlen                 0000000180047590 f   lj_api.obj
 0001:00046600       lua_setfield               0000000180047600 f   lj_api.obj
 0001:000466c0       lua_settable               00000001800476c0 f   lj_api.obj
 0001:00046740       lua_setmetatable           0000000180047740 f   lj_api.obj
 0001:00046890       luaL_newmetatable          0000000180047890 f   lj_api.obj
 0001:00046970       luaL_checkstack            0000000180047970 f   lj_api.obj
 0001:000469b0       lua_rawset                 00000001800479b0 f   lj_api.obj
 0001:00046a20       luaL_checkudata            0000000180047a20 f   lj_api.obj
 0001:00046ad0       luaL_checkany              0000000180047ad0 f   lj_api.obj
 0001:00046b10       luaL_optinteger            0000000180047b10 f   lj_api.obj
 0001:00046ba0       luaL_checkinteger          0000000180047ba0 f   lj_api.obj
 0001:00046c20       luaL_optnumber             0000000180047c20 f   lj_api.obj
 0001:00046cb0       luaL_checknumber           0000000180047cb0 f   lj_api.obj
 0001:00046d20       luaL_checktype             0000000180047d20 f   lj_api.obj
 0001:00046d70       lua_gc                     0000000180047d70 f   lj_api.obj
 0001:00046f20       lua_newuserdata            0000000180047f20 f   lj_api.obj
 0001:00046fb0       lua_newthread              0000000180047fb0 f   lj_api.obj
 0001:00047010       lua_createtable            0000000180048010 f   lj_api.obj
 0001:000470b0       lua_pushcclosure           00000001800480b0 f   lj_api.obj
 0001:00047180       lua_pushfstring            0000000180048180 f   lj_api.obj
 0001:000471d0       lua_pushvfstring           00000001800481d0 f   lj_api.obj
 0001:00047220       lua_pushstring             0000000180048220 f   lj_api.obj
 0001:000472c0       lua_pushlstring            00000001800482c0 f   lj_api.obj
 0001:00047340       luaL_optlstring            0000000180048340 f   lj_api.obj
 0001:00047420       luaL_checklstring          0000000180048420 f   lj_api.obj
 0001:000474c0       lua_tolstring              00000001800484c0 f   lj_api.obj
 0001:00047570       lua_concat                 0000000180048570 f   lj_api.obj
 0001:00047650       luaL_checkoption           0000000180048650 f   lj_api.obj
 0001:00047a50       lj_alloc_destroy           0000000180048a50 f   lj_alloc.obj
 0001:00047b20       lj_alloc_create            0000000180048b20 f   lj_alloc.obj
 0001:000499d0       lj_alloc_f                 000000018004a9d0 f   lj_alloc.obj
 0001:0004a470       luaopen_table              000000018004b470 f   lib_table.obj
 0001:0004b960       luaopen_string             000000018004c960 f   lib_string.obj
 0001:0004d5a0       luaopen_package            000000018004e5a0 f   lib_package.obj
 0001:0004e2e0       luaopen_os                 000000018004f2e0 f   lib_os.obj
 0001:0004e5a0       lj_math_random_step        000000018004f5a0 f   lib_math.obj
 0001:0004e9d0       luaopen_math               000000018004f9d0 f   lib_math.obj
 0001:0004fe40       luaopen_jit                0000000180050e40 f   lib_jit.obj
 0001:00050cf0       luaopen_io                 0000000180051cf0 f   lib_io.obj
 0001:00052570       luaopen_ffi                0000000180053570 f   lib_ffi.obj
 0001:00054070       luaopen_debug              0000000180055070 f   lib_debug.obj
 0001:00054500       lj_ffh_coroutine_wrap_err  0000000180055500 f   lib_base.obj
 0001:000556b0       luaopen_base               00000001800566b0 f   lib_base.obj
 0001:00055990       lua_newstate               0000000180056990 f   lib_aux.obj
 0001:000559c0       luaL_buffinit              00000001800569c0 f   lib_aux.obj
 0001:00055a30       luaL_unref                 0000000180056a30 f   lib_aux.obj
 0001:00055ab0       luaL_ref                   0000000180056ab0 f   lib_aux.obj
 0001:00055c70       luaL_findtable             0000000180056c70 f   lib_aux.obj
 0001:00055da0       luaL_fileresult            0000000180056da0 f   lib_aux.obj
 0001:00055e70       luaL_newstate              0000000180056e70 f   lib_aux.obj
 0001:00055ec0       luaL_pushresult            0000000180056ec0 f   lib_aux.obj
 0001:00055fa0       luaL_openlib               0000000180056fa0 f   lib_aux.obj
 0001:00056150       luaL_execresult            0000000180057150 f   lib_aux.obj
 0001:000561e0       luaL_addvalue              00000001800571e0 f   lib_aux.obj
 0001:00056290       luaL_prepbuffer            0000000180057290 f   lib_aux.obj
 0001:000562c0       luaL_register              00000001800572c0 f   lib_aux.obj
 0001:000562d0       luaL_addlstring            00000001800572d0 f   lib_aux.obj
 0001:00056340       luaL_addstring             0000000180057340 f   lib_aux.obj
 0001:00056370       luaL_gsub                  0000000180057370 f   lib_aux.obj
 0001:000565a0       luaopen_bit                00000001800575a0 f   lib_bit.obj
 0001:000565d0       luaL_openlibs              00000001800575d0 f   lib_init.obj
 0001:00056694       memcmp                     0000000180057694 f   MSVCRT:MSVCR90.dll
 0001:0005669a       floor                      000000018005769a f   MSVCRT:MSVCR90.dll
 0002:00000000       __imp_GetModuleHandleExA   0000000180058000     kernel32:KERNEL32.dll
 0002:00000008       __imp_FreeLibrary          0000000180058008     kernel32:KERNEL32.dll
 0002:00000010       __imp_FormatMessageA       0000000180058010     kernel32:KERNEL32.dll
 0002:00000018       __imp_GetLastError         0000000180058018     kernel32:KERNEL32.dll
 0002:00000020       __imp_GetProcAddress       0000000180058020     kernel32:KERNEL32.dll
 0002:00000028       __imp_LoadLibraryA         0000000180058028     kernel32:KERNEL32.dll
 0002:00000030       __imp_GetModuleFileNameA   0000000180058030     kernel32:KERNEL32.dll
 0002:00000038       __imp_GetModuleHandleA     0000000180058038     kernel32:KERNEL32.dll
 0002:00000040       __imp_VirtualQuery         0000000180058040     kernel32:KERNEL32.dll
 0002:00000048       __imp_VirtualFree          0000000180058048     kernel32:KERNEL32.dll
 0002:00000050       __imp_SetLastError         0000000180058050     kernel32:KERNEL32.dll
 0002:00000058       __imp_VirtualAlloc         0000000180058058     kernel32:KERNEL32.dll
 0002:00000060       __imp_VirtualProtect       0000000180058060     kernel32:KERNEL32.dll
 0002:00000068       __imp_RtlUnwindEx          0000000180058068     kernel32:KERNEL32.dll
 0002:00000070       __imp_RaiseException       0000000180058070     kernel32:KERNEL32.dll
 0002:00000078       __imp_GetCurrentProcessId  0000000180058078     kernel32:KERNEL32.dll
 0002:00000080       __imp_GetCurrentThreadId   0000000180058080     kernel32:KERNEL32.dll
 0002:00000088       __imp_GetTickCount         0000000180058088     kernel32:KERNEL32.dll
 0002:00000090       __imp_QueryPerformanceCounter 0000000180058090     kernel32:KERNEL32.dll
 0002:00000098       __imp_DisableThreadLibraryCalls 0000000180058098     kernel32:KERNEL32.dll
 0002:000000a0       __imp_Sleep                00000001800580a0     kernel32:KERNEL32.dll
 0002:000000a8       __imp_GetSystemTimeAsFileTime 00000001800580a8     kernel32:KERNEL32.dll
 0002:000000b0       \177KERNEL32_NULL_THUNK_DATA 00000001800580b0     kernel32:KERNEL32.dll
 0002:000000b8       __imp__errno               00000001800580b8     MSVCRT:MSVCR90.dll
 0002:000000c0       __imp_fwrite               00000001800580c0     MSVCRT:MSVCR90.dll
 0002:000000c8       __imp_putchar              00000001800580c8     MSVCRT:MSVCR90.dll
 0002:000000d0       __imp_strtoul              00000001800580d0     MSVCRT:MSVCR90.dll
 0002:000000d8       __imp_fgets                00000001800580d8     MSVCRT:MSVCR90.dll
 0002:000000e0       __imp_fscanf               00000001800580e0     MSVCRT:MSVCR90.dll
 0002:000000e8       __imp_tmpfile              00000001800580e8     MSVCRT:MSVCR90.dll
 0002:000000f0       __imp__ftelli64            00000001800580f0     MSVCRT:MSVCR90.dll
 0002:000000f8       __imp__pclose              00000001800580f8     MSVCRT:MSVCR90.dll
 0002:00000100       __imp_ungetc               0000000180058100     MSVCRT:MSVCR90.dll
 0002:00000108       __imp__fseeki64            0000000180058108     MSVCRT:MSVCR90.dll
 0002:00000110       __imp__popen               0000000180058110     MSVCRT:MSVCR90.dll
 0002:00000118       __imp_fopen                0000000180058118     MSVCRT:MSVCR90.dll
 0002:00000120       __imp_setvbuf              0000000180058120     MSVCRT:MSVCR90.dll
 0002:00000128       __imp_fread                0000000180058128     MSVCRT:MSVCR90.dll
 0002:00000130       __imp_fprintf              0000000180058130     MSVCRT:MSVCR90.dll
 0002:00000138       __imp_ferror               0000000180058138     MSVCRT:MSVCR90.dll
 0002:00000140       __imp_fclose               0000000180058140     MSVCRT:MSVCR90.dll
 0002:00000148       __imp_getc                 0000000180058148     MSVCRT:MSVCR90.dll
 0002:00000150       __imp_clearerr             0000000180058150     MSVCRT:MSVCR90.dll
 0002:00000158       __imp_strncmp              0000000180058158     MSVCRT:MSVCR90.dll
 0002:00000160       __imp_rename               0000000180058160     MSVCRT:MSVCR90.dll
 0002:00000168       __imp__mktime64            0000000180058168     MSVCRT:MSVCR90.dll
 0002:00000170       __imp__gmtime64            0000000180058170     MSVCRT:MSVCR90.dll
 0002:00000178       __imp_tmpnam               0000000180058178     MSVCRT:MSVCR90.dll
 0002:00000180       __imp_system               0000000180058180     MSVCRT:MSVCR90.dll
 0002:00000188       __imp_remove               0000000180058188     MSVCRT:MSVCR90.dll
 0002:00000190       __imp_fflush               0000000180058190     MSVCRT:MSVCR90.dll
 0002:00000198       __imp_strftime             0000000180058198     MSVCRT:MSVCR90.dll
 0002:000001a0       __imp_setlocale            00000001800581a0     MSVCRT:MSVCR90.dll
 0002:000001a8       __imp__localtime64         00000001800581a8     MSVCRT:MSVCR90.dll
 0002:000001b0       __imp_getenv               00000001800581b0     MSVCRT:MSVCR90.dll
 0002:000001b8       __imp__difftime64          00000001800581b8     MSVCRT:MSVCR90.dll
 0002:000001c0       __imp__time64              00000001800581c0     MSVCRT:MSVCR90.dll
 0002:000001c8       __imp_exit                 00000001800581c8     MSVCRT:MSVCR90.dll
 0002:000001d0       __imp_strrchr              00000001800581d0     MSVCRT:MSVCR90.dll
 0002:000001d8       __imp_sprintf              00000001800581d8     MSVCRT:MSVCR90.dll
 0002:000001e0       __imp_memchr               00000001800581e0     MSVCRT:MSVCR90.dll
 0002:000001e8       __imp_strncpy              00000001800581e8     MSVCRT:MSVCR90.dll
 0002:000001f0       __imp_strpbrk              00000001800581f0     MSVCRT:MSVCR90.dll
 0002:000001f8       __imp_memmove              00000001800581f8     MSVCRT:MSVCR90.dll
 0002:00000200       __imp__fmode               0000000180058200     MSVCRT:MSVCR90.dll
 0002:00000208       __imp_memcpy               0000000180058208     MSVCRT:MSVCR90.dll
 0002:00000210       __imp_strlen               0000000180058210     MSVCRT:MSVCR90.dll
 0002:00000218       __imp_tanh                 0000000180058218     MSVCRT:MSVCR90.dll
 0002:00000220       __imp_sinh                 0000000180058220     MSVCRT:MSVCR90.dll
 0002:00000228       __imp_memset               0000000180058228     MSVCRT:MSVCR90.dll
 0002:00000230       __imp_cosh                 0000000180058230     MSVCRT:MSVCR90.dll
 0002:00000238       __imp_feof                 0000000180058238     MSVCRT:MSVCR90.dll
 0002:00000240       __imp_ldexp                0000000180058240     MSVCRT:MSVCR90.dll
 0002:00000248       __imp_putc                 0000000180058248     MSVCRT:MSVCR90.dll
 0002:00000250       __imp__isatty              0000000180058250     MSVCRT:MSVCR90.dll
 0002:00000258       __imp_signal               0000000180058258     MSVCRT:MSVCR90.dll
 0002:00000260       __imp__fileno              0000000180058260     MSVCRT:MSVCR90.dll
 0002:00000268       __imp___DestructExceptionObject 0000000180058268     MSVCRT:MSVCR90.dll
 0002:00000270       __imp__encode_pointer      0000000180058270     MSVCRT:MSVCR90.dll
 0002:00000278       __imp__malloc_crt          0000000180058278     MSVCRT:MSVCR90.dll
 0002:00000280       __imp__initterm            0000000180058280     MSVCRT:MSVCR90.dll
 0002:00000288       __imp__initterm_e          0000000180058288     MSVCRT:MSVCR90.dll
 0002:00000290       __imp_free                 0000000180058290     MSVCRT:MSVCR90.dll
 0002:00000298       __imp__encoded_null        0000000180058298     MSVCRT:MSVCR90.dll
 0002:000002a0       __imp__decode_pointer      00000001800582a0     MSVCRT:MSVCR90.dll
 0002:000002a8       __imp__amsg_exit           00000001800582a8     MSVCRT:MSVCR90.dll
 0002:000002b0       __imp___C_specific_handler 00000001800582b0     MSVCRT:MSVCR90.dll
 0002:000002b8       __imp___CppXcptFilter      00000001800582b8     MSVCRT:MSVCR90.dll
 0002:000002c0       __imp___clean_type_info_names_internal 00000001800582c0     MSVCRT:MSVCR90.dll
 0002:000002c8       __imp__unlock              00000001800582c8     MSVCRT:MSVCR90.dll
 0002:000002d0       __imp___dllonexit          00000001800582d0     MSVCRT:MSVCR90.dll
 0002:000002d8       __imp__lock                00000001800582d8     MSVCRT:MSVCR90.dll
 0002:000002e0       __imp__onexit              00000001800582e0     MSVCRT:MSVCR90.dll
 0002:000002e8       __imp_strchr               00000001800582e8     MSVCRT:MSVCR90.dll
 0002:000002f0       __imp___iob_func           00000001800582f0     MSVCRT:MSVCR90.dll
 0002:000002f8       __imp_strstr               00000001800582f8     MSVCRT:MSVCR90.dll
 0002:00000300       __imp_fputs                0000000180058300     MSVCRT:MSVCR90.dll
 0002:00000308       __imp_strerror             0000000180058308     MSVCRT:MSVCR90.dll
 0002:00000310       __imp_fputc                0000000180058310     MSVCRT:MSVCR90.dll
 0002:00000318       __imp_clock                0000000180058318     MSVCRT:MSVCR90.dll
 0002:00000320       __imp_memcmp               0000000180058320     MSVCRT:MSVCR90.dll
 0002:00000328       __imp_floor                0000000180058328     MSVCRT:MSVCR90.dll
 0002:00000330       \177MSVCR90_NULL_THUNK_DATA 0000000180058330     MSVCRT:MSVCR90.dll
 0002:00000338       __xc_a                     0000000180058338     MSVCRT:cinitexe.obj
 0002:00000340       __xc_z                     0000000180058340     MSVCRT:cinitexe.obj
 0002:00000348       __xi_a                     0000000180058348     MSVCRT:cinitexe.obj
 0002:00000358       __xi_z                     0000000180058358     MSVCRT:cinitexe.obj
 0002:00000360       _pDefaultRawDllMain        0000000180058360     MSVCRT:crtdll.obj
 0002:00000360       _pRawDllMain               0000000180058360     MSVCRT:crtdll.obj
 0002:00000368       ??_C@_06DJHOIPC@?$CFs?3?5?$CFs?$AA@ 0000000180058368     lib_aux.obj
 0002:00000370       ??_C@_02DKCKIIND@?$CFs?$AA@ 0000000180058370     lib_aux.obj
 0002:00000374       ??_C@_04MKNBDEPB@exit?$AA@ 0000000180058374     lib_aux.obj
 0002:00000380       ??_C@_07PINPBNPB@_LOADED?$AA@ 0000000180058380     lib_aux.obj
 0002:00000388       ??_C@_0CO@HELBHHNG@PANIC?3?5unprotected?5error?5in?5call@ 0000000180058388     lib_aux.obj
 0002:000003b8       ??_C@_01OGPIMHDM@?$DP?$AA@ 00000001800583b8     lib_aux.obj
 0002:000003c0       ??_C@_0CM@JGCFBMI@Must?5use?5luaL_newstate?$CI?$CJ?5for?564?5@ 00000001800583c0     lib_aux.obj
 0002:000003f0       ??_C@_0BF@EJGIIJDH@function?3?5builtin?$CD?$CFd?$AA@ 00000001800583f0     lib_base.obj
 0002:00000408       ??_C@_06CILKLLDB@?$CFs?3?5?$CFp?$AA@ 0000000180058408     lib_base.obj
 0002:00000410       ??_C@_0BK@NJPFPDBN@too?5many?5nested?5functions?$AA@ 0000000180058410     lib_base.obj
 0002:00000430       ??_C@_07JEBBFCAN@?$DN?$CIload?$CJ?$AA@ 0000000180058430     lib_base.obj
 0002:00000438       ??_C@_0DH@OPFAKCB@?$AEstop?$AHrestart?$AHcollect?$AFcount?$AB?$PP?$AEst@ 0000000180058438     lib_base.obj
 0002:00001750       lj_obj_typename            0000000180059750     lj_obj.obj
 0002:000017b0       lj_obj_itypename           00000001800597b0     lj_obj.obj
 0002:00001930       lj_ir_mode                 0000000180059930     lj_ir.obj
 0002:00001990       lj_ir_type_size            0000000180059990     lj_ir.obj
 0002:000019b0       lj_ir_callinfo             00000001800599b0     lj_ir.obj
 0002:00002270       lj_char_bits               000000018005a270     lj_char.obj
 0002:00002380       lj_bc_ofs                  000000018005a380     lj_bc.obj
 0002:000024c0       lj_bc_mode                 000000018005a4c0     lj_bc.obj
 0002:000034a0       ??_C@_07PANPENDC@running?$AA@ 000000018005b4a0     lib_base.obj
 0002:000034a8       ??_C@_09PAHKPJCJ@suspended?$AA@ 000000018005b4a8     lib_base.obj
 0002:000034b4       ??_C@_04BBBDNBOK@dead?$AA@ 000000018005b4b4     lib_base.obj
 0002:000034bc       ??_C@_06IKLLLDHL@normal?$AA@ 000000018005b4bc     lib_base.obj
 0002:000034c4       ??_C@_02DNFJNMFM@kv?$AA@   000000018005b4c4     lib_base.obj
 0002:000034c8       ??_C@_06BPGFKLEK@__mode?$AA@ 000000018005b4c8     lib_base.obj
 0002:000034d0       ??_C@_02NIGGJGKC@_G?$AA@   000000018005b4d0     lib_base.obj
 0002:000034d8       ??_C@_07GLKNJPII@Lua?55?41?$AA@ 000000018005b4d8     lib_base.obj
 0002:000034e0       ??_C@_09HNKENHFC@coroutine?$AA@ 000000018005b4e0     lib_base.obj
 0002:000034f0       ??_C@_0BB@JCEFLFJE@0123456789abcdef?$AA@ 000000018005b4f0     lib_bit.obj
 0002:00003508       ??_C@_0BB@JGGOGLEG@0123456789ABCDEF?$AA@ 000000018005b508     lib_bit.obj
 0002:0000351c       ??_C@_03EDMBFDDG@bit?$AA@  000000018005b51c     lib_bit.obj
 0002:00003520       ??_C@_0M@IDJJEGOC@tail?5return?$AA@ 000000018005b520     lib_debug.obj
 0002:0000352c       ??_C@_05IOMEMJEC@count?$AA@ 000000018005b52c     lib_debug.obj
 0002:00003534       ??_C@_04HJPCFDOP@line?$AA@ 000000018005b534     lib_debug.obj
 0002:0000353c       ??_C@_06LNOFJDNM@return?$AA@ 000000018005b53c     lib_debug.obj
 0002:00003544       ??_C@_04OMFAIDPG@call?$AA@ 000000018005b544     lib_debug.obj
 0002:0000354c       ??_C@_05CLBJLFDN@flnSu?$AA@ 000000018005b54c     lib_debug.obj
 0002:00003554       ??_C@_03PENLABEP@?$DO?$CFs?$AA@ 000000018005b554     lib_debug.obj
 0002:00003558       ??_C@_06OEKOLKIL@source?$AA@ 000000018005b558     lib_debug.obj
 0002:00003560       ??_C@_09NOFDGFFO@short_src?$AA@ 000000018005b560     lib_debug.obj
 0002:00003570       ??_C@_0M@IOFFDKM@linedefined?$AA@ 000000018005b570     lib_debug.obj
 0002:00003580       ??_C@_0BA@BGGOJOFO@lastlinedefined?$AA@ 000000018005b580     lib_debug.obj
 0002:00003590       ??_C@_04IOPLPGDE@what?$AA@ 000000018005b590     lib_debug.obj
 0002:00003598       ??_C@_0M@OLGEEKJC@currentline?$AA@ 000000018005b598     lib_debug.obj
 0002:000035a4       ??_C@_04BDNNNDAF@nups?$AA@ 000000018005b5a4     lib_debug.obj
 0002:000035b0       ??_C@_07DEOJMPEE@nparams?$AA@ 000000018005b5b0     lib_debug.obj
 0002:000035b8       ??_C@_08PKLIBBKE@isvararg?$AA@ 000000018005b5b8     lib_debug.obj
 0002:000035c4       ??_C@_04MEMAJGDJ@name?$AA@ 000000018005b5c4     lib_debug.obj
 0002:000035d0       ??_C@_08JEGIFMFI@namewhat?$AA@ 000000018005b5d0     lib_debug.obj
 0002:000035e0       ??_C@_0M@DINLHJFF@activelines?$AA@ 000000018005b5e0     lib_debug.obj
 0002:000035ec       ??_C@_04HPNHAEOP@func?$AA@ 000000018005b5ec     lib_debug.obj
 0002:000035f8       ??_C@_0O@POGBCBNN@external?5hook?$AA@ 000000018005b5f8     lib_debug.obj
 0002:00003608       ??_C@_0M@FBGICICO@lua_debug?$DO?5?$AA@ 000000018005b608     lib_debug.obj
 0002:00003614       ??_C@_05KJNBGLAC@cont?6?$AA@ 000000018005b614     lib_debug.obj
 0002:00003620       ??_C@_0BB@BLKFCGLG@?$DN?$CIdebug?5command?$CJ?$AA@ 000000018005b620     lib_debug.obj
 0002:00003634       ??_C@_01EEMJAFIK@?6?$AA@   000000018005b634     lib_debug.obj
 0002:00003638       ??_C@_05GFCDIDHO@debug?$AA@ 000000018005b638     lib_debug.obj
 0002:00003640       ??_C@_06EGMCBEPI@C?5type?$AA@ 000000018005b640     lib_ffi.obj
 0002:00003648       ??_C@_0O@BDOCPDCB@cdata?$DM?$CFs?$DO?3?5?$CFp?$AA@ 000000018005b648     lib_ffi.obj
 0002:00003658       ??_C@_09GIOLLJKF@ctype?$DM?$CFs?$DO?$AA@ 000000018005b658     lib_ffi.obj
 0002:00003668       ??_C@_0O@DNEMCEHE@cdata?$DM?$CFs?$DO?3?5?$CFd?$AA@ 000000018005b668     lib_ffi.obj
 0002:00003678       ??_C@_01KNKLHLMO@K?$AA@    000000018005b678     lib_ffi.obj
 0002:0000367c       ??_C@_03DIJDOPEA@ffi?$AA@  000000018005b67c     lib_ffi.obj
 0002:00003680       ??_C@_07LDLFNPGN@Windows?$AA@ 000000018005b680     lib_ffi.obj
 0002:00003688       ??_C@_03OLPMMCEF@x64?$AA@  000000018005b688     lib_ffi.obj
 0002:0000368c       ??_C@_03IGHFHLNJ@jit?$AA@  000000018005b68c     lib_init.obj
 0002:00003690       ??_C@_04CFDJAKFL@math?$AA@ 000000018005b690     lib_init.obj
 0002:00003698       ??_C@_06ICGJLFIM@string?$AA@ 000000018005b698     lib_init.obj
 0002:000036a0       ??_C@_02EHCHIAMF@os?$AA@   000000018005b6a0     lib_init.obj
 0002:000036a4       ??_C@_02KFNNKBCK@io?$AA@   000000018005b6a4     lib_init.obj
 0002:000036a8       ??_C@_05LCLENNFI@table?$AA@ 000000018005b6a8     lib_init.obj
 0002:000036b0       ??_C@_07KNEGBPNO@package?$AA@ 000000018005b6b0     lib_init.obj
 0002:000036b8       ??_C@_00CNPNBAHC@?$AA@     000000018005b6b8     lib_init.obj
 0002:000036c0       ??_C@_08LBNNGFKE@_PRELOAD?$AA@ 000000018005b6c0     lib_init.obj
 0002:000036cc       ??_C@_05KCHOJJD@FILE?$CK?$AA@ 000000018005b6cc     lib_io.obj
 0002:000036d8       ??_C@_0BL@PEFGCPAG@cannot?5close?5standard?5file?$AA@ 000000018005b6d8     lib_io.obj
 0002:000036f4       ??_C@_03DLDNIBIK@?$CFlf?$AA@ 000000018005b6f4     lib_io.obj
 0002:000036f8       ??_C@_0BD@IOJAAODF@too?5many?5arguments?$AA@ 000000018005b6f8     lib_io.obj
 0002:0000370c       ??_C@_05CGOEHEFE@?$CF?414g?$AA@ 000000018005b70c     lib_io.obj
 0002:00003718       ??_C@_0N@FHGHGEJM@?$ADset?$ADcur?$ADend?$AA@ 000000018005b718     lib_io.obj
 0002:00003728       ??_C@_0O@BJINDIFF@?$AEfull?$AEline?$ACno?$AA@ 000000018005b728     lib_io.obj
 0002:00003738       ??_C@_09BPMAMLLD@file?5?$CI?$CFp?$CJ?$AA@ 000000018005b738     lib_io.obj
 0002:00003748       ??_C@_0O@PLFAPHPG@file?5?$CIclosed?$CJ?$AA@ 000000018005b748     lib_io.obj
 0002:00003758       ??_C@_01KDCPPGHE@r?$AA@    000000018005b758     lib_io.obj
 0002:0000375c       ??_C@_01NOFIACDB@w?$AA@    000000018005b75c     lib_io.obj
 0002:00003760       ??_C@_04DAMGJPCA@file?$AA@ 000000018005b760     lib_io.obj
 0002:00003768       ??_C@_0M@IBKPHHKH@closed?5file?$AA@ 000000018005b768     lib_io.obj
 0002:00003774       ??_C@_05MHOFLBOO@stdin?$AA@ 000000018005b774     lib_io.obj
 0002:0000377c       ??_C@_06DJDOIFHB@stdout?$AA@ 000000018005b77c     lib_io.obj
 0002:00003784       ??_C@_06FJGNEBG@stderr?$AA@ 000000018005b784     lib_io.obj
 0002:00003790       ??_C@_0M@HIEIAEHL@interpreter?$AA@ 000000018005b790     lib_jit.obj
 0002:000037a0       ??_C@_0P@HDPEGNKP@down?9recursion?$AA@ 000000018005b7a0     lib_jit.obj
 0002:000037b0       ??_C@_0N@DMCNLIDM@up?9recursion?$AA@ 000000018005b7b0     lib_jit.obj
 0002:000037c0       ??_C@_0P@FONHJDJF@tail?9recursion?$AA@ 000000018005b7c0     lib_jit.obj
 0002:000037d0       ??_C@_04GKOOIABA@loop?$AA@ 000000018005b7d0     lib_jit.obj
 0002:000037d8       ??_C@_04NBFCGMPH@root?$AA@ 000000018005b7d8     lib_jit.obj
 0002:000037e0       ??_C@_04CGFJFPFD@none?$AA@ 000000018005b7e0     lib_jit.obj
 0002:000037e8       ??_C@_0CG@JFFGFDHL@?$AECMOV?$AESSE2?$AESSE3?$AGSSE4?41?$ACP4?$ADAMD?$ACK8@ 000000018005b7e8     lib_jit.obj
 0002:00003810       ??_C@_0DA@IJMCEEPM@?$AEfold?$ADcse?$ADdce?$ADfwd?$ADdse?$AGnarrow?$AEloo@ 000000018005b810     lib_jit.obj
 0002:00003840       ??_C@_09DKKFGEHE@_VMEVENTS?$AA@ 000000018005b840     lib_jit.obj
 0002:00003850       ??_C@_0L@HFAMJNGM@stackslots?$AA@ 000000018005b850     lib_jit.obj
 0002:0000385c       ??_C@_06JMGHNNK@params?$AA@ 000000018005b85c     lib_jit.obj
 0002:00003868       ??_C@_09PLLBEKA@bytecodes?$AA@ 000000018005b868     lib_jit.obj
 0002:00003878       ??_C@_08DEAOGHHE@gcconsts?$AA@ 000000018005b878     lib_jit.obj
 0002:00003888       ??_C@_07BECCFFAP@nconsts?$AA@ 000000018005b888     lib_jit.obj
 0002:00003890       ??_C@_08JKPCMKJ@upvalues?$AA@ 000000018005b890     lib_jit.obj
 0002:000038a0       ??_C@_08GOINNFB@children?$AA@ 000000018005b8a0     lib_jit.obj
 0002:000038ac       ??_C@_03KCBANMCB@loc?$AA@  000000018005b8ac     lib_jit.obj
 0002:000038b0       ??_C@_04HHHFHMNM@ffid?$AA@ 000000018005b8b0     lib_jit.obj
 0002:000038b8       ??_C@_04HLBMEOMD@addr?$AA@ 000000018005b8b8     lib_jit.obj
 0002:000038c0       ??_C@_04BPKKLFFI@nins?$AA@ 000000018005b8c0     lib_jit.obj
 0002:000038c8       ??_C@_02MEPOHCKL@nk?$AA@   000000018005b8c8     lib_jit.obj
 0002:000038cc       ??_C@_04OHHBHOGB@link?$AA@ 000000018005b8cc     lib_jit.obj
 0002:000038d4       ??_C@_05IPMPAMGF@nexit?$AA@ 000000018005b8d4     lib_jit.obj
 0002:000038e0       ??_C@_08IDKBLEPL@linktype?$AA@ 000000018005b8e0     lib_jit.obj
 0002:000038f0       ??_C@_0IF@MKHEFFIN@?$AImaxtrace?7maxrecord?6maxirconst?$AHm@ 000000018005b8f0     lib_jit.obj
 0002:00003978       ??_C@_0N@CMJBGLJO@LuaJIT?52?40?41?$AA@ 000000018005b978     lib_jit.obj
 0002:00003988       ??_C@_08GBLPEHPF@jit?4util?$AA@ 000000018005b988     lib_jit.obj
 0002:00003998       ??_C@_07FHHNHIJG@jit?4opt?$AA@ 000000018005b998     lib_jit.obj
 0002:000039a0       ??_C@_04KEPJIHGP@fmod?$AA@ 000000018005b9a0     lib_math.obj
 0002:000039a8       ??_C@_03FFONCNID@mod?$AA@  000000018005b9a8     lib_math.obj
 0002:000039ac       ??_C@_02HAOIJKIC@?$CFc?$AA@ 000000018005b9ac     lib_os.obj
 0002:000039b0       ??_C@_02HODHFJCJ@?$CKt?$AA@ 000000018005b9b0     lib_os.obj
 0002:000039b4       ??_C@_03KHPNBODO@sec?$AA@  000000018005b9b4     lib_os.obj
 0002:000039b8       ??_C@_03KLIPLJLL@min?$AA@  000000018005b9b8     lib_os.obj
 0002:000039bc       ??_C@_04LMOJGCPE@hour?$AA@ 000000018005b9bc     lib_os.obj
 0002:000039c4       ??_C@_03NNBHCDBP@day?$AA@  000000018005b9c4     lib_os.obj
 0002:000039c8       ??_C@_05MEBAADFH@month?$AA@ 000000018005b9c8     lib_os.obj
 0002:000039d0       ??_C@_04JFPLDHAO@year?$AA@ 000000018005b9d0     lib_os.obj
 0002:000039d8       ??_C@_04HBIDDHMB@wday?$AA@ 000000018005b9d8     lib_os.obj
 0002:000039e0       ??_C@_04MOLDIJKA@yday?$AA@ 000000018005b9e0     lib_os.obj
 0002:000039e8       ??_C@_05HGBEJAHO@isdst?$AA@ 000000018005b9e8     lib_os.obj
 0002:000039f0       ??_C@_0CL@PFAPFEGP@?$AFctype?$AHnumeric?$AEtime?$AHcollate?$AImone@ 000000018005b9f0     lib_os.obj
 0002:00003a20       ??_C@_07FFLLPPLH@require?$AA@ 000000018005ba20     lib_package.obj
 0002:00003a28       ??_C@_06BIEEJMKO@module?$AA@ 000000018005ba28     lib_package.obj
 0002:00003a30       ??_C@_06LNOHAKGK@seeall?$AA@ 000000018005ba30     lib_package.obj
 0002:00003a38       ??_C@_0L@LLHGDMBK@searchpath?$AA@ 000000018005ba38     lib_package.obj
 0002:00003a48       ??_C@_07KOEABFCN@loadlib?$AA@ 000000018005ba48     lib_package.obj
 0002:00003a50       ??_C@_0BN@GMPFCLAN@unable?5to?5get?5ModuleFileName?$AA@ 000000018005ba50     lib_package.obj
 0002:00003a70       ??_C@_01DCLJPIOD@?$CB?$AA@ 000000018005ba70     lib_package.obj
 0002:00003a78       ??_C@_0BB@BLJKPILH@system?5error?5?$CFd?6?$AA@ 000000018005ba78     lib_package.obj
 0002:00003a90       ??_C@_0M@JKPDPNBF@LOADLIB?3?5?$CFs?$AA@ 000000018005ba90     lib_package.obj
 0002:00003aa0       ??_C@_08HNNNOMMJ@_LOADLIB?$AA@ 000000018005baa0     lib_package.obj
 0002:00003aac       ??_C@_01JOAMLHOP@?9?$AA@   000000018005baac     lib_package.obj
 0002:00003ab0       ??_C@_01IDAFKMJL@_?$AA@    000000018005bab0     lib_package.obj
 0002:00003ab4       ??_C@_01LFCBOECM@?4?$AA@   000000018005bab4     lib_package.obj
 0002:00003ab8       ??_C@_0L@KHKMBFOE@luaopen_?$CFs?$AA@ 000000018005bab8     lib_package.obj
 0002:00003ac8       ??_C@_0N@ECBABLKH@luaJIT_BC_?$CFs?$AA@ 000000018005bac8     lib_package.obj
 0002:00003ad8       ??_C@_04PMOCAHAA@open?$AA@ 000000018005bad8     lib_package.obj
 0002:00003ae0       ??_C@_04HKFDNBLD@init?$AA@ 000000018005bae0     lib_package.obj
 0002:00003ae8       ??_C@_0P@NEBKIMDC@?6?7no?5file?5?8?$CFs?8?$AA@ 000000018005bae8     lib_package.obj
 0002:00003af8       ??_C@_01KICIPPFI@?2?$AA@   000000018005baf8     lib_package.obj
 0002:00003b00       ??_C@_0BO@COFCKCAL@?8package?4?$CFs?8?5must?5be?5a?5string?$AA@ 000000018005bb00     lib_package.obj
 0002:00003b20       ??_C@_0CO@KHMIPLKM@error?5loading?5module?5?8?$CFs?8?5from?5f@ 000000018005bb20     lib_package.obj
 0002:00003b50       ??_C@_04LNEJFJGI@path?$AA@ 000000018005bb50     lib_package.obj
 0002:00003b58       ??_C@_05EEMJHCCC@cpath?$AA@ 000000018005bb58     lib_package.obj
 0002:00003b60       ??_C@_0BO@KOILFIGK@?6?7no?5module?5?8?$CFs?8?5in?5file?5?8?$CFs?8?$AA@ 000000018005bb60     lib_package.obj
 0002:00003b80       ??_C@_07GCEAJMEA@preload?$AA@ 000000018005bb80     lib_package.obj
 0002:00003b88       ??_C@_0CC@CCJHFBLH@?8package?4preload?8?5must?5be?5a?5tabl@ 000000018005bb88     lib_package.obj
 0002:00003bb0       ??_C@_0CB@NPNABMBF@?6?7no?5field?5package?4preload?$FL?8?$CFs?8?$FN@ 000000018005bbb0     lib_package.obj
 0002:00003bd8       ??_C@_0CL@DIEJCPFH@loop?5or?5previous?5error?5loading?5m@ 000000018005bbd8     lib_package.obj
 0002:00003c08       ??_C@_07JAOCDFCG@loaders?$AA@ 000000018005bc08     lib_package.obj
 0002:00003c10       ??_C@_0CC@IGEJMOFI@?8package?4loaders?8?5must?5be?5a?5tabl@ 000000018005bc10     lib_package.obj
 0002:00003c38       ??_C@_0BJ@HFHHABH@module?5?8?$CFs?8?5not?5found?3?$CFs?$AA@ 000000018005bc38     lib_package.obj
 0002:00003c54       ??_C@_01INIBCBCB@f?$AA@    000000018005bc54     lib_package.obj
 0002:00003c58       ??_C@_0CI@GKOMOAFD@?8module?8?5not?5called?5from?5a?5Lua?5f@ 000000018005bc58     lib_package.obj
 0002:00003c80       ??_C@_02CCIJHOCI@_M?$AA@   000000018005bc80     lib_package.obj
 0002:00003c84       ??_C@_05ICMCJINN@_NAME?$AA@ 000000018005bc84     lib_package.obj
 0002:00003c90       ??_C@_08HONLOGDK@_PACKAGE?$AA@ 000000018005bc90     lib_package.obj
 0002:00003ca0       ??_C@_07NHABFFHN@__index?$AA@ 000000018005bca0     lib_package.obj
 0002:00003ca8       ??_C@_03MEOBNKEM@?$DL?$AB?$DL?$AA@ 000000018005bca8     lib_package.obj
 0002:00003cac       ??_C@_02BEDCMDKE@?$DL?$DL?$AA@ 000000018005bcac     lib_package.obj
 0002:00003cb0       ??_C@_01KHDNNMEB@?$AB?$AA@ 000000018005bcb0     lib_package.obj
 0002:00003cb4       ??_C@_04BDLIKKMN@__gc?$AA@ 000000018005bcb4     lib_package.obj
 0002:00003cc0       ??_C@_09EFECHJCA@LUA_NOENV?$AA@ 000000018005bcc0     lib_package.obj
 0002:00003cd0       ??_C@_0CG@EEHPGGLI@?4?2?$DP?4lua?$DL?$CB?2lua?2?$DP?4lua?$DL?$CB?2lua?2?$DP?2init@ 000000018005bcd0     lib_package.obj
 0002:00003cf8       ??_C@_08GLJMJBPN@LUA_PATH?$AA@ 000000018005bcf8     lib_package.obj
 0002:00003d08       ??_C@_0BO@DBNDCFPP@?4?2?$DP?4dll?$DL?$CB?2?$DP?4dll?$DL?$CB?2loadall?4dll?$AA@ 000000018005bd08     lib_package.obj
 0002:00003d28       ??_C@_09FBPOOEID@LUA_CPATH?$AA@ 000000018005bd28     lib_package.obj
 0002:00003d38       ??_C@_09NMALNBAP@?2?6?$DL?6?$DP?6?$CB?6?9?$AA@ 000000018005bd38     lib_package.obj
 0002:00003d44       ??_C@_06HEJKKHEK@config?$AA@ 000000018005bd44     lib_package.obj
 0002:00003d4c       ??_C@_06IILMCCFO@loaded?$AA@ 000000018005bd4c     lib_package.obj
 0002:00003d58       ??_C@_0BC@IMEAEJPD@too?5many?5captures?$AA@ 000000018005bd58     lib_string.obj
 0002:00003d70       ??_C@_0L@NLFJOONJ@?$FO$?$CK?$CL?$DP?4?$CI?$FL?$CF?9?$AA@ 000000018005bd70     lib_string.obj
 0002:00003d7c       ??_C@_05GGBDHNF@?9?$CL?5?$CD0?$AA@ 000000018005bd7c     lib_string.obj
 0002:00003d84       ??_C@_03ILAMHENH@nil?$AA@  000000018005bd84     lib_string.obj
 0002:00003d88       ??_C@_05LAPONLG@false?$AA@ 000000018005bd88     lib_string.obj
 0002:00003d90       ??_C@_04LOAJBDKD@true?$AA@ 000000018005bd90     lib_string.obj
 0002:00003d98       ??_C@_02BBAHNLBA@?$CFp?$AA@ 000000018005bd98     lib_string.obj
 0002:00003d9c       ??_C@_06DPFCLDIO@gmatch?$AA@ 000000018005bd9c     lib_string.obj
 0002:00003da4       ??_C@_05EIEIBDFD@gfind?$AA@ 000000018005bda4     lib_string.obj
 0002:00003db0       ??_C@_0BI@BKMFFNKN@NtAllocateVirtualMemory?$AA@ 000000018005bdb0     lj_alloc.obj
 0002:00003dc8       ??_C@_09FLKFJBLM@ntdll?4dll?$AA@ 000000018005bdc8     lj_alloc.obj
 0002:00003dd8       ??_C@_08OEMDPBOO@?$CIbinary?$CJ?$AA@ 000000018005bdd8     lj_bcread.obj
 0002:00003de4       ??_C@_06DAJAKOAL@?$CFs?4dll?$AA@ 000000018005bde4     lj_clib.obj
 0002:00003df0       ??_C@_0BM@EBGDLOEH@cannot?5load?5module?5?8?$CFs?8?3?5?$CFs?$AA@ 000000018005bdf0     lj_clib.obj
 0002:00003e10       ??_C@_0N@MDJJJHMB@kernel32?4dll?$AA@ 000000018005be10     lj_clib.obj
 0002:00003e20       ??_C@_0L@GMPLCCII@user32?4dll?$AA@ 000000018005be20     lj_clib.obj
 0002:00003e30       ??_C@_09HDGMBNAP@gdi32?4dll?$AA@ 000000018005be30     lj_clib.obj
 0002:00003e40       ??_C@_0BP@KHDJPILA@cannot?5resolve?5symbol?5?8?$CFs?8?3?5?$CFs?$AA@ 000000018005be40     lj_clib.obj
 0002:00003e60       ??_C@_02HBOOOICD@?9?$DO?$AA@ 000000018005be60     lj_cparse.obj
 0002:00003e64       ??_C@_02GPIOPFAK@?$DO?$DO?$AA@ 000000018005be64     lj_cparse.obj
 0002:00003e68       ??_C@_02FODMEDOG@?$DM?$DM?$AA@ 000000018005be68     lj_cparse.obj
 0002:00003e6c       ??_C@_02EEKDKGMJ@?$DO?$DN?$AA@ 000000018005be6c     lj_cparse.obj
 0002:00003e70       ??_C@_02EHCHHCKH@?$DM?$DN?$AA@ 000000018005be70     lj_cparse.obj
 0002:00003e74       ??_C@_02FDNJECIE@?$CB?$DN?$AA@ 000000018005be74     lj_cparse.obj
 0002:00003e78       ??_C@_02EGOFBIJA@?$DN?$DN?$AA@ 000000018005be78     lj_cparse.obj
 0002:00003e7c       ??_C@_02PPKAJPJL@?$CG?$CG?$AA@ 000000018005be7c     lj_cparse.obj
 0002:00003e80       ??_C@_02NONPIBCD@?$HM?$HM?$AA@ 000000018005be80     lj_cparse.obj
 0002:00003e84       ??_C@_05CINCKAN@?$DMeof?$DO?$AA@ 000000018005be84     lj_cparse.obj
 0002:00003e90       ??_C@_09CKFPBBLH@?$DMinteger?$DO?$AA@ 000000018005be90     lj_cparse.obj
 0002:00003ea0       ??_C@_08OOGHEFMC@?$DMstring?$DO?$AA@ 000000018005bea0     lj_cparse.obj
 0002:00003eb0       ??_C@_0N@PNCCAENN@?$DMidentifier?$DO?$AA@ 000000018005beb0     lj_cparse.obj
 0002:00003ec0       ??_C@_08HJPIMBHL@char?$CI?$CFd?$CJ?$AA@ 000000018005bec0     lj_cparse.obj
 0002:00003ed0       ??_C@_0O@PBOGBKMF@?$CFs?5at?5line?5?$CFd?$AA@ 000000018005bed0     lj_cparse.obj
 0002:00003ee0       ??_C@_0P@EALJOHJH@type?5parameter?$AA@ 000000018005bee0     lj_cparse.obj
 0002:00003ef0       ??_C@_04HDOCAJNK@?$CFs?$CFs?$AA@ 000000018005bef0     lj_cparse.obj
 0002:00003f00       ??_C@_0CHI@JDODJJBH@va_list?$AA__builtin_va_list?$AA__gnuc@ 000000018005bf00     lj_ctype.obj
 0002:00004178       ??_C@_08PABEKFH@volatile?$AA@ 000000018005c178     lj_ctype.obj
 0002:00004184       ??_C@_05BNCCCJPP@const?$AA@ 000000018005c184     lj_ctype.obj
 0002:0000418c       ??_C@_04DDKJGDCM@bool?$AA@ 000000018005c18c     lj_ctype.obj
 0002:00004194       ??_C@_06BNJCAIGJ@double?$AA@ 000000018005c194     lj_ctype.obj
 0002:0000419c       ??_C@_05KNFBNCOH@float?$AA@ 000000018005c19c     lj_ctype.obj
 0002:000041a8       ??_C@_0M@BLAFOIPH@long?5double?$AA@ 000000018005c1a8     lj_ctype.obj
 0002:000041b4       ??_C@_04ENMBGAPA@char?$AA@ 000000018005c1b4     lj_ctype.obj
 0002:000041c0       ??_C@_0O@PPAIJIHF@unsigned?5char?$AA@ 000000018005c1c0     lj_ctype.obj
 0002:000041d0       ??_C@_03JBIPMCLC@int?$AA@  000000018005c1d0     lj_ctype.obj
 0002:000041d4       ??_C@_05BFKKPKCG@short?$AA@ 000000018005c1d4     lj_ctype.obj
 0002:000041e0       ??_C@_08CLLOMHGD@unsigned?$AA@ 000000018005c1e0     lj_ctype.obj
 0002:000041ec       ??_C@_02CMANPDJC@_t?$AA@   000000018005c1ec     lj_ctype.obj
 0002:000041f0       ??_C@_04GKJNKENE@void?$AA@ 000000018005c1f0     lj_ctype.obj
 0002:000041f8       ??_C@_05MNALHJLP@union?$AA@ 000000018005c1f8     lj_ctype.obj
 0002:00004200       ??_C@_06PBJBIPGK@struct?$AA@ 000000018005c200     lj_ctype.obj
 0002:00004208       ??_C@_05JGEDHNAD@ctype?$AA@ 000000018005c208     lj_ctype.obj
 0002:00004210       ??_C@_04DBJPMPLO@enum?$AA@ 000000018005c210     lj_ctype.obj
 0002:00004218       ??_C@_07MOFNHEMD@__ptr32?$AA@ 000000018005c218     lj_ctype.obj
 0002:00004220       ??_C@_07CMPFPFAH@complex?$AA@ 000000018005c220     lj_ctype.obj
 0002:00004228       ??_C@_03HAFLCCND@?$CJ?$CJ?$CJ?$AA@ 000000018005c228     lj_ctype.obj
 0002:00004230       ??_C@_0BM@IJFALIND@__attribute__?$CI?$CIvector_size?$CI?$AA@ 000000018005c230     lj_ctype.obj
 0002:00004250       ??_C@_0EO@CPLCJBBN@?$CIfor?5index?$CJ?$AA?$CIfor?5limit?$CJ?$AA?$CIfor?5ste@ 000000018005c250     lj_debug.obj
 0002:000042a0       ??_C@_09DKIONLLI@?$CI?$CKvararg?$CJ?$AA@ 000000018005c2a0     lj_debug.obj
 0002:000042b0       ??_C@_0N@NCKPGBEC@?$CI?$CKtemporary?$CJ?$AA@ 000000018005c2b0     lj_debug.obj
 0002:000042c0       ??_C@_05IDKHKMLA@local?$AA@ 000000018005c2c0     lj_debug.obj
 0002:000042c8       ??_C@_06FJKEMHGD@global?$AA@ 000000018005c2c8     lj_debug.obj
 0002:000042d0       ??_C@_06GABBCIBA@method?$AA@ 000000018005c2d0     lj_debug.obj
 0002:000042d8       ??_C@_05EIBGDMPB@field?$AA@ 000000018005c2d8     lj_debug.obj
 0002:000042e0       ??_C@_07NAGMKCIK@upvalue?$AA@ 000000018005c2e0     lj_debug.obj
 0002:000042e8       ??_C@_0L@ILHKGAHF@metamethod?$AA@ 000000018005c2e8     lj_debug.obj
 0002:000042f8       ??_C@_09PHLFBDIK@?$FLstring?5?$CC?$AA@ 000000018005c2f8     lj_debug.obj
 0002:00004304       ??_C@_03KHICJKCI@?4?4?4?$AA@ 000000018005c304     lj_debug.obj
 0002:00004308       ??_C@_02DEGCJHHK@?$CC?$FN?$AA@ 000000018005c308     lj_debug.obj
 0002:00004310       ??_C@_09BHPFBFOI@?$CFs?3?$CFd?3?5?$CFs?$AA@ 000000018005c310     lj_debug.obj
 0002:0000431c       ??_C@_05HKPGCKL@?$CFs?3?$CFd?$AA@ 000000018005c31c     lj_debug.obj
 0002:00004324       ??_C@_05EAAPBIHL@?$CFp?3?$CFd?$AA@ 000000018005c324     lj_debug.obj
 0002:00004330       ??_C@_07CKDNGCOA@?$CC?$CFs?$CC?3?$CFd?$AA@ 000000018005c330     lj_debug.obj
 0002:00004338       ??_C@_03CBKFDHDL@Lua?$AA@  000000018005c338     lj_debug.obj
 0002:0000433c       ??_C@_04GHJNJNPO@main?$AA@ 000000018005c33c     lj_debug.obj
 0002:00004344       ??_C@_04BKJOMPG@?$DN?$FLC?$FN?$AA@ 000000018005c344     lj_debug.obj
 0002:0000434c       ??_C@_01GFHCPBMG@C?$AA@    000000018005c34c     lj_debug.obj
 0002:00004350       ??_C@_03OFAPEBGM@?$CFs?6?$AA@ 000000018005c350     lj_debug.obj
 0002:00004358       ??_C@_0BB@CJHIJJAH@stack?5traceback?3?$AA@ 000000018005c358     lj_debug.obj
 0002:0000436c       ??_C@_05JLIPKFIA@?6?7?4?4?4?$AA@ 000000018005c36c     lj_debug.obj
 0002:00004374       ??_C@_04OPPNMDKM@Snlf?$AA@ 000000018005c374     lj_debug.obj
 0002:00004380       ??_C@_0BA@PEAPGPI@?6?7?$FLbuiltin?$CD?$CFd?$FN?3?$AA@ 000000018005c380     lj_debug.obj
 0002:00004390       ??_C@_05GEEEIDH@?6?7?$CFs?3?$AA@ 000000018005c390     lj_debug.obj
 0002:00004398       ??_C@_03CDCAMCGK@?$CFd?3?$AA@ 000000018005c398     lj_debug.obj
 0002:000043a0       ??_C@_0BC@CPJFAADE@?5in?5function?5?8?$CFs?8?$AA@ 000000018005c3a0     lj_debug.obj
 0002:000043b8       ??_C@_0P@IOLMPCPC@?5in?5main?5chunk?$AA@ 000000018005c3b8     lj_debug.obj
 0002:000043c8       ??_C@_06NDFPNBCO@?5at?5?$CFp?$AA@ 000000018005c3c8     lj_debug.obj
 0002:000043d0       ??_C@_0BF@IDFBHDGL@?5in?5function?5?$DM?$CFs?3?$CFd?$DO?$AA@ 000000018005c3d0     lj_debug.obj
 0002:000043e8       ??_C@_06FNGJOCBI@?$DMname?$DO?$AA@ 000000018005c3e8     lj_lex.obj
 0002:000043f0       ??_C@_08OHBCANEJ@?$DMnumber?$DO?$AA@ 000000018005c3f0     lj_lex.obj
 0002:000043fc       ??_C@_02MOLJINC@?3?3?$AA@  000000018005c3fc     lj_lex.obj
 0002:00004400       ??_C@_02DEDJCLAJ@?$HO?$DN?$AA@ 000000018005c400     lj_lex.obj
 0002:00004404       ??_C@_02DJGKEECL@?4?4?$AA@ 000000018005c404     lj_lex.obj
 0002:00004408       ??_C@_05OODBEKIG@while?$AA@ 000000018005c408     lj_lex.obj
 0002:00004410       ??_C@_05FJMDOIMN@until?$AA@ 000000018005c410     lj_lex.obj
 0002:00004418       ??_C@_04HOHPNOOD@then?$AA@ 000000018005c418     lj_lex.obj
 0002:00004420       ??_C@_06LGDBIFHB@repeat?$AA@ 000000018005c420     lj_lex.obj
 0002:00004428       ??_C@_02FODMLBIE@or?$AA@   000000018005c428     lj_lex.obj
 0002:0000442c       ??_C@_03NJKJADM@not?$AA@   000000018005c42c     lj_lex.obj
 0002:00004430       ??_C@_02LMMGJAGL@in?$AA@   000000018005c430     lj_lex.obj
 0002:00004434       ??_C@_02HEBPBKGD@if?$AA@   000000018005c434     lj_lex.obj
 0002:00004438       ??_C@_04MABHPDAO@goto?$AA@ 000000018005c438     lj_lex.obj
 0002:00004440       ??_C@_08HFFPPCHF@function?$AA@ 000000018005c440     lj_lex.obj
 0002:0000444c       ??_C@_03JOHEBPFF@for?$AA@  000000018005c44c     lj_lex.obj
 0002:00004450       ??_C@_03JBJLGPFL@end?$AA@  000000018005c450     lj_lex.obj
 0002:00004454       ??_C@_06CAACNEC@elseif?$AA@ 000000018005c454     lj_lex.obj
 0002:0000445c       ??_C@_04FHMCPBIP@else?$AA@ 000000018005c45c     lj_lex.obj
 0002:00004464       ??_C@_02KNAFDCHJ@do?$AA@   000000018005c464     lj_lex.obj
 0002:00004468       ??_C@_05ELPHFHOI@break?$AA@ 000000018005c468     lj_lex.obj
 0002:00004470       ??_C@_03BOPJPIAM@and?$AA@  000000018005c470     lj_lex.obj
 0002:00004474       ??_C@_02JDPG@rb?$AA@       000000018005c474     lj_load.obj
 0002:00004478       ??_C@_0BD@HEEOPHI@cannot?5open?5?$CFs?3?5?$CFs?$AA@ 000000018005c478     lj_load.obj
 0002:0000448c       ??_C@_03HPDLNGOA@?$EA?$CFs?$AA@ 000000018005c48c     lj_load.obj
 0002:00004490       ??_C@_06CCPPALKB@?$DNstdin?$AA@ 000000018005c490     lj_load.obj
 0002:00004498       ??_C@_0BD@NGJHEBAH@cannot?5read?5?$CFs?3?5?$CFs?$AA@ 000000018005c498     lj_load.obj
 0002:000044b0       ??_C@_0IH@DKAJMBPM@__index__newindex__gc__mode__eq_@ 000000018005c4b0     lj_meta.obj
 0002:00004538       ??_C@_05IMBNNINJ@trace?$AA@ 000000018005c538     lj_obj.obj
 0002:00004540       ??_C@_05CCAJFIBN@upval?$AA@ 000000018005c540     lj_obj.obj
 0002:00004548       ??_C@_05GLPICJ@cdata?$AA@  000000018005c548     lj_obj.obj
 0002:00004550       ??_C@_05BENFLAID@proto?$AA@ 000000018005c550     lj_obj.obj
 0002:00004558       ??_C@_06FJHNOCKE@thread?$AA@ 000000018005c558     lj_obj.obj
 0002:00004560       ??_C@_06EBGNBFIA@number?$AA@ 000000018005c560     lj_obj.obj
 0002:00004568       ??_C@_08NOEPOPLB@userdata?$AA@ 000000018005c568     lj_obj.obj
 0002:00004578       ??_C@_07GOBOHMJA@boolean?$AA@ 000000018005c578     lj_obj.obj
 0002:00004580       ??_C@_08JEIPHCP@no?5value?$AA@ 000000018005c580     lj_obj.obj
 0002:00004590       ??_C@_0BG@OFEPHPMG@bytecode?5instructions?$AA@ 000000018005c590     lj_parse.obj
 0002:000045a8       ??_C@_0BA@EIDMAHJI@local?5variables?$AA@ 000000018005c5a8     lj_parse.obj
 0002:000045b8       ??_C@_09FGMGFBD@constants?$AA@ 000000018005c5b8     lj_parse.obj
 0002:000045c4       ??_C@_04PJDNGLKJ@self?$AA@ 000000018005c5c4     lj_parse.obj
 0002:000045d0       ??_C@_0P@MOEMEHPO@variable?5names?$AA@ 000000018005c5d0     lj_parse.obj
 0002:000045e0       ??_C@_05PEAECDOC@pairs?$AA@ 000000018005c5e0     lj_parse.obj
 0002:000045e8       ??_C@_04CJGEDOF@next?$AA@  000000018005c5e8     lj_parse.obj
 0002:000045f0       ??_C@_06OJHGLDPL@?$CInull?$CJ?$AA@ 000000018005c5f0     lj_str.obj
 0002:000045f8       ??_C@_04HIBGFPH@NULL?$AA@  000000018005c5f8     lj_str.obj
 0002:00004600       ??_C@_05GLCAEPFP@flush?$AA@ 000000018005c600     lj_trace.obj
 0002:00004608       ??_C@_05FAGFPHJG@start?$AA@ 000000018005c608     lj_trace.obj
 0002:00004610       ??_C@_04PEGFANN@stop?$AA@  000000018005c610     lj_trace.obj
 0002:00004618       ??_C@_05BBAEEBBH@abort?$AA@ 000000018005c618     lj_trace.obj
 0002:00004620       ??_C@_0BE@HINHLNFP@VM?5handler?5failed?3?5?$AA@ 000000018005c620     lj_vmevent.obj
 0002:00004634       ??_C@_06IJPGJPKF@luajit?$AA@ 000000018005c634     luajit.obj
 0002:00004640       ??_C@_0P@HCOJNDKE@?$CFsinterrupted?$CB?$AA@ 000000018005c640     luajit.obj
 0002:00004650       ??_C@_0BOJ@OOMHIOKI@usage?3?5?$CFs?5?$FLoptions?$FN?4?4?4?5?$FLscript?5?$FL@ 000000018005c650     luajit.obj
 0002:0000483c       ??_C@_04PFAOODAA@?$CFs?3?5?$AA@ 000000018005c83c     luajit.obj
 0002:00004848       ??_C@_0BP@LIDEPBBI@?$CIerror?5object?5is?5not?5a?5string?$CJ?$AA@ 000000018005c848     luajit.obj
 0002:00004868       ??_C@_0L@HDFPAPPH@__tostring?$AA@ 000000018005c868     luajit.obj
 0002:00004880       ??_C@_0EH@EOODKJAD@LuaJIT?52?40?41?5?9?9?5Copyright?5?$CIC?$CJ?520@ 000000018005c880     luajit.obj
 0002:000048c8       ??_C@_06DJIHEMFI@status?$AA@ 000000018005c8c8     luajit.obj
 0002:000048d0       ??_C@_07DKJDCDJH@JIT?3?5ON?$AA@ 000000018005c8d0     luajit.obj
 0002:000048d8       ??_C@_08MGGBCMPP@JIT?3?5OFF?$AA@ 000000018005c8d8     luajit.obj
 0002:000048e8       ??_C@_0BN@DLFNFJGA@too?5many?5arguments?5to?5script?$AA@ 000000018005c8e8     luajit.obj
 0002:00004908       ??_C@_07HFPOHICP@_PROMPT?$AA@ 000000018005c908     luajit.obj
 0002:00004910       ??_C@_08EGNEJHFA@_PROMPT2?$AA@ 000000018005c910     luajit.obj
 0002:0000491c       ??_C@_02LLMPMKNF@?$DO?5?$AA@ 000000018005c91c     luajit.obj
 0002:00004920       ??_C@_03HFDOEDEJ@?$DO?$DO?5?$AA@ 000000018005c920     luajit.obj
 0002:00004928       ??_C@_07KPILCIKK@?8?$DMeof?$DO?8?$AA@ 000000018005c928     luajit.obj
 0002:00004930       ??_C@_09JEDJACMH@return?5?$CFs?$AA@ 000000018005c930     luajit.obj
 0002:0000493c       ??_C@_05IJDJACGD@print?$AA@ 000000018005c93c     luajit.obj
 0002:00004948       ??_C@_0BL@CJONDGA@error?5calling?5?8print?8?5?$CI?$CFs?$CJ?$AA@ 000000018005c948     luajit.obj
 0002:00004964       ??_C@_03CAOIPBNL@arg?$AA@  000000018005c964     luajit.obj
 0002:00004968       ??_C@_02BAABKJLB@?9?9?$AA@ 000000018005c968     luajit.obj
 0002:0000496c       ??_C@_04PEIOBGCH@jit?4?$AA@ 000000018005c96c     luajit.obj
 0002:00004978       ??_C@_07KEPCOONB@module?5?$AA@ 000000018005c978     luajit.obj
 0002:00004980       ??_C@_0DG@FFHELDFI@unknown?5luaJIT?5command?5or?5jit?4?$CK?5@ 000000018005c980     luajit.obj
 0002:000049b8       ??_C@_06IFMEIBMA@bcsave?$AA@ 000000018005c9b8     luajit.obj
 0002:000049c0       ??_C@_0BA@FDPHDMOB@?$DN?$CIcommand?5line?$CJ?$AA@ 000000018005c9c0     luajit.obj
 0002:000049d0       ??_C@_08KMIGBJCG@LUA_INIT?$AA@ 000000018005c9d0     luajit.obj
 0002:000049e0       ??_C@_09DEAIGMHG@?$DNLUA_INIT?$AA@ 000000018005c9e0     luajit.obj
 0002:000049f0       ??_C@_0PBH@MGNGDLLH@not?5enough?5memory?$AAerror?5in?5error@ 000000018005c9f0     lj_err.obj
 0002:00005908       __real@0000000000000000    000000018005d908      CIL library: CIL module
 0002:00005910       __real@43f0000000000000    000000018005d910      CIL library: CIL module
 0002:00005918       __real@43e0000000000000    000000018005d918      CIL library: CIL module
 0002:00005920       __real@4338000000000000    000000018005d920      CIL library: CIL module
 0002:00005928       __real@00000000            000000018005d928      CIL library: CIL module
 0002:00005930       __real@3f50624dd2f1a9fc    000000018005d930      CIL library: CIL module
 0002:00005940       __mask@@NegDouble@         000000018005d940      CIL library: CIL module
 0002:00005950       __real@4000000000000000    000000018005d950      CIL library: CIL module
 0002:00005958       __real@4005bf0a8b145769    000000018005d958      CIL library: CIL module
 0002:00005960       __real@400921fb54442d18    000000018005d960      CIL library: CIL module
 0002:00005968       __real@8000000000000000    000000018005d968      CIL library: CIL module
 0002:00005970       __real@c1e0000000000000    000000018005d970      CIL library: CIL module
 0002:00005978       __real@41dfffffffc00000    000000018005d978      CIL library: CIL module
 0002:00005980       __real@3fe0000000000000    000000018005d980      CIL library: CIL module
 0002:00005988       __real@bff0000000000000    000000018005d988      CIL library: CIL module
 0002:00005990       __real@3ff0000000000000    000000018005d990      CIL library: CIL module
 0002:00005998       __real@3f50000000000000    000000018005d998      CIL library: CIL module
 0002:000059b0       __rtc_iaa                  000000018005d9b0     MSVCRT:_initsect_.obj
 0002:000059b8       __rtc_izz                  000000018005d9b8     MSVCRT:_initsect_.obj
 0002:000059c0       __rtc_taa                  000000018005d9c0     MSVCRT:_initsect_.obj
 0002:000059c8       __rtc_tzz                  000000018005d9c8     MSVCRT:_initsect_.obj
 0002:0000c604       __IMPORT_DESCRIPTOR_KERNEL32 0000000180064604     kernel32:KERNEL32.dll
 0002:0000c618       __IMPORT_DESCRIPTOR_MSVCR90 0000000180064618     MSVCRT:MSVCR90.dll
 0002:0000c62c       __NULL_IMPORT_DESCRIPTOR   000000018006462c     kernel32:KERNEL32.dll
 0003:00000000       __native_dllmain_reason    0000000180066000     MSVCRT:natstart.obj
 0003:00000004       __native_vcclrit_reason    0000000180066004     MSVCRT:natstart.obj
 0003:00000008       __security_cookie          0000000180066008     MSVCRT:gs_cookie.obj
 0003:00000010       __security_cookie_complement 0000000180066010     MSVCRT:gs_cookie.obj
 0003:00000020       lj_err_allmsg              0000000180066020     lj_err.obj
 0003:000001b0       _fltused                   00000001800661b0     MSVCRT:dllsupp.obj
 0003:000001bc       _forceCRTManifestRTM       00000001800661bc     MSVCRT:crtmanifestrtm.obj
 0003:000001c0       ?__type_info_root_node@@3U__type_info_node@@A 00000001800661c0     MSVCRT:tncleanup.obj
 0003:00000210       __native_startup_state     0000000180066210     <common>
 0003:00000218       __native_startup_lock      0000000180066218     <common>
 0003:00000220       __onexitend                0000000180066220     <common>
 0003:00000228       __onexitbegin              0000000180066228     <common>
 0003:00000230       __dyn_tls_init_callback    0000000180066230     <common>

 entry point at        0001:00003d14

 Static symbols

 0001:00003920       pre_c_init                 0000000180004920 f   MSVCRT:crtdll.obj
 0001:00003bdc       __DllMainCRTStartup        0000000180004bdc f   MSVCRT:crtdll.obj
 0001:00004090       finderrfunc                0000000180005090 f    CIL library: CIL module
 0001:00004190       err_raise_ext              0000000180005190 f    CIL library: CIL module
 0001:000041b0       copyTV                     00000001800051b0 f    CIL library: CIL module
 0001:000041c0       setgcV                     00000001800051c0 f    CIL library: CIL module
 0001:00004230       setstrV                    0000000180005230 f    CIL library: CIL module
 0001:000042b0       unwindstack                00000001800052b0 f    CIL library: CIL module
 0001:00004300       err_unwind                 0000000180005300 f    CIL library: CIL module
 0001:00004640       err_msgv                   0000000180005640 f    CIL library: CIL module
 0001:00004be0       err_argmsg                 0000000180005be0 f    CIL library: CIL module
 0001:00004e50       collectargs                0000000180005e50 f    CIL library: CIL module
 0001:00004fe0       print_version              0000000180005fe0 f    CIL library: CIL module
 0001:00005010       l_message                  0000000180006010 f    CIL library: CIL module
 0001:00005080       print_usage                0000000180006080 f    CIL library: CIL module
 0001:000050c0       incomplete                 00000001800060c0 f    CIL library: CIL module
 0001:00005130       write_prompt               0000000180006130 f    CIL library: CIL module
 0001:000051e0       getargs                    00000001800061e0 f    CIL library: CIL module
 0001:000052d0       print_jit_status           00000001800062d0 f    CIL library: CIL module
 0001:00005400       report                     0000000180006400 f    CIL library: CIL module
 0001:00005470       lstop                      0000000180006470 f    CIL library: CIL module
 0001:000054c0       runcmdopt                  00000001800064c0 f    CIL library: CIL module
 0001:00005590       loadjitmodule              0000000180006590 f    CIL library: CIL module
 0001:00005690       pushline                   0000000180006690 f    CIL library: CIL module
 0001:00005770       laction                    0000000180006770 f    CIL library: CIL module
 0001:000057b0       dobytecode                 00000001800067b0 f    CIL library: CIL module
 0001:00005870       dojitopt                   0000000180006870 f    CIL library: CIL module
 0001:000058f0       dojitcmd                   00000001800068f0 f    CIL library: CIL module
 0001:00005a30       traceback                  0000000180006a30 f    CIL library: CIL module
 0001:00005ac0       docall                     0000000180006ac0 f    CIL library: CIL module
 0001:00005b70       dolibrary                  0000000180006b70 f    CIL library: CIL module
 0001:00005bd0       handle_script              0000000180006bd0 f    CIL library: CIL module
 0001:00005cb0       loadline                   0000000180006cb0 f    CIL library: CIL module
 0001:00005df0       dostring                   0000000180006df0 f    CIL library: CIL module
 0001:00005e50       dofile                     0000000180006e50 f    CIL library: CIL module
 0001:00005ea0       handle_luainit             0000000180006ea0 f    CIL library: CIL module
 0001:00005f00       runargs                    0000000180006f00 f    CIL library: CIL module
 0001:00006020       dotty                      0000000180007020 f    CIL library: CIL module
 0001:00006150       pmain                      0000000180007150 f    CIL library: CIL module
 0001:00006470       setgcV                     0000000180007470 f    CIL library: CIL module
 0001:00006490       setfuncV                   0000000180007490 f    CIL library: CIL module
 0001:000064b0       lj_state_checkstack        00000001800074b0 f    CIL library: CIL module
 0001:000065c0       lj_mem_free                00000001800075c0 f    CIL library: CIL module
 0001:00006670       trace_pendpatch            0000000180007670 f    CIL library: CIL module
 0001:000066b0       blacklist_pc               00000001800076b0 f    CIL library: CIL module
 0001:00006710       trace_unpatch              0000000180007710 f    CIL library: CIL module
 0001:000067d0       LJ_PRNG_BITS               00000001800077d0 f    CIL library: CIL module
 0001:00006800       bc_isret                   0000000180007800 f    CIL library: CIL module
 0001:00006830       lj_mem_free                0000000180007830 f    CIL library: CIL module
 0001:00006850       numberVint                 0000000180007850 f    CIL library: CIL module
 0001:00006860       copyTV                     0000000180007860 f    CIL library: CIL module
 0001:00006870       setintV                    0000000180007870 f    CIL library: CIL module
 0001:00006890       setgcV                     0000000180007890 f    CIL library: CIL module
 0001:000068a0       trace_exit_regs            00000001800078a0 f    CIL library: CIL module
 0001:00006a40       penalty_pc                 0000000180007a40 f    CIL library: CIL module
 0001:00006b20       trace_flushroot            0000000180007b20 f    CIL library: CIL module
 0001:00006ca0       setfuncV                   0000000180007ca0 f    CIL library: CIL module
 0001:00006cc0       setstrV                    0000000180007cc0 f    CIL library: CIL module
 0001:00006e50       trace_save                 0000000180007e50 f    CIL library: CIL module
 0001:00006f70       trace_findfree             0000000180007f70 f    CIL library: CIL module
 0001:000070a0       lj_state_checkstack        00000001800080a0 f    CIL library: CIL module
 0001:000070d0       trace_stop                 00000001800080d0 f    CIL library: CIL module
 0001:00007420       trace_start                0000000180008420 f    CIL library: CIL module
 0001:00007640       trace_downrec              0000000180008640 f    CIL library: CIL module
 0001:00007690       trace_abort                0000000180008690 f    CIL library: CIL module
 0001:00007900       trace_exit_cp              0000000180008900 f    CIL library: CIL module
 0001:00007940       trace_state                0000000180008940 f    CIL library: CIL module
 0001:00007cb0       trace_hotside              0000000180008cb0 f    CIL library: CIL module
 0001:00007ff0       bestasize                  0000000180008ff0 f    CIL library: CIL module
 0001:00008090       countarray                 0000000180009090 f    CIL library: CIL module
 0001:00008130       clearapart                 0000000180009130 f    CIL library: CIL module
 0001:00008170       clearhpart                 0000000180009170 f    CIL library: CIL module
 0001:000081b0       hashmask                   00000001800091b0 f    CIL library: CIL module
 0001:000081d0       hashrot                    00000001800091d0 f    CIL library: CIL module
 0001:000081f0       lj_mem_free                00000001800091f0 f    CIL library: CIL module
 0001:00008210       lj_gc_barrierback          0000000180009210 f    CIL library: CIL module
 0001:00008230       copyTV                     0000000180009230 f    CIL library: CIL module
 0001:00008240       setintV                    0000000180009240 f    CIL library: CIL module
 0001:00008260       setgcV                     0000000180009260 f    CIL library: CIL module
 0001:00008280       lj_fls                     0000000180009280 f    CIL library: CIL module
 0001:000083e0       countint                   00000001800093e0 f    CIL library: CIL module
 0001:000084e0       hashkey                    00000001800094e0 f    CIL library: CIL module
 0001:00008560       setstrV                    0000000180009560 f    CIL library: CIL module
 0001:00008580       unbound_search             0000000180009580 f    CIL library: CIL module
 0001:00008750       counthash                  0000000180009750 f    CIL library: CIL module
 0001:00008820       keyindex                   0000000180009820 f    CIL library: CIL module
 0001:00008910       newhpart                   0000000180009910 f    CIL library: CIL module
 0001:00008a50       resizetab                  0000000180009a50 f    CIL library: CIL module
 0001:00008ca0       newtab                     0000000180009ca0 f    CIL library: CIL module
 0001:00008e00       rehashtab                  0000000180009e00 f    CIL library: CIL module
 0001:000093e0       strscan_oct                000000018000a3e0 f    CIL library: CIL module
 0001:00009480       lj_fls                     000000018000a480 f    CIL library: CIL module
 0001:00009490       strscan_double             000000018000a490 f    CIL library: CIL module
 0001:00009530       strscan_dec                000000018000a530 f    CIL library: CIL module
 0001:00009aa0       strscan_hex                000000018000aaa0 f    CIL library: CIL module
 0001:0000a2f0       str_fastcmp                000000018000b2f0 f    CIL library: CIL module
 0001:0000a3c0       lj_mem_free                000000018000b3c0 f    CIL library: CIL module
 0001:0000a3e0       setgcV                     000000018000b3e0 f    CIL library: CIL module
 0001:0000a400       lj_fls                     000000018000b400 f    CIL library: CIL module
 0001:0000a440       setstrV                    000000018000b440 f    CIL library: CIL module
 0001:0000a4c0       addchar                    000000018000b4c0 f    CIL library: CIL module
 0001:0000a520       addstr                     000000018000b520 f    CIL library: CIL module
 0001:0000ad00       lj_mem_free                000000018000bd00 f    CIL library: CIL module
 0001:0000ad20       setgcV                     000000018000bd20 f    CIL library: CIL module
 0001:0000ad30       settabV                    000000018000bd30 f    CIL library: CIL module
 0001:0000ad50       setthreadV                 000000018000bd50 f    CIL library: CIL module
 0001:0000add0       stack_init                 000000018000bdd0 f    CIL library: CIL module
 0001:0000ae40       resizestack                000000018000be40 f    CIL library: CIL module
 0001:0000b070       close_state                000000018000c070 f    CIL library: CIL module
 0001:0000b130       cpluaopen                  000000018000c130 f    CIL library: CIL module
 0001:0000b320       cpfinalize                 000000018000c320 f    CIL library: CIL module
 0001:0000b410       snap_sunk_store2           000000018000c410 f    CIL library: CIL module
 0001:0000b470       snap_dedup                 000000018000c470 f    CIL library: CIL module
 0001:0000b4c0       snap_renameref             000000018000c4c0 f    CIL library: CIL module
 0001:0000b500       snap_renamefilter          000000018000c500 f    CIL library: CIL module
 0001:0000b550       snapshot_framelinks        000000018000c550 f    CIL library: CIL module
 0001:0000b610       snapshot_slots             000000018000c610 f    CIL library: CIL module
 0001:0000b6e0       ctype_check                000000018000c6e0 f    CIL library: CIL module
 0001:0000b6f0       lj_ir_set_                 000000018000c6f0 f    CIL library: CIL module
 0001:0000b710       snap_nextofs               000000018000c710 f    CIL library: CIL module
 0001:0000b740       irt_toitype_               000000018000c740 f    CIL library: CIL module
 0001:0000b750       bc_isret                   000000018000c750 f    CIL library: CIL module
 0001:0000b780       copyTV                     000000018000c780 f    CIL library: CIL module
 0001:0000b790       setintV                    000000018000c790 f    CIL library: CIL module
 0001:0000b7b0       setgcV                     000000018000c7b0 f    CIL library: CIL module
 0001:0000b7c0       snap_restoredata           000000018000c7c0 f    CIL library: CIL module
 0001:0000b9b0       snap_sunk_store            000000018000c9b0 f    CIL library: CIL module
 0001:0000bac0       snap_usedef                000000018000cac0 f    CIL library: CIL module
 0001:0000bf40       settabV                    000000018000cf40 f    CIL library: CIL module
 0001:0000bf60       setcdataV                  000000018000cf60 f    CIL library: CIL module
 0001:0000c1a0       lj_cdata_new               000000018000d1a0 f    CIL library: CIL module
 0001:0000c1d0       lj_snap_grow_map           000000018000d1d0 f    CIL library: CIL module
 0001:0000c1f0       snapshot_stack             000000018000d1f0 f    CIL library: CIL module
 0001:0000c320       lj_snap_grow_buf           000000018000d320 f    CIL library: CIL module
 0001:0000c340       snap_restoreval            000000018000d340 f    CIL library: CIL module
 0001:0000c5e0       snap_replay_const          000000018000d5e0 f    CIL library: CIL module
 0001:0000c680       snap_pref                  000000018000d680 f    CIL library: CIL module
 0001:0000cf30       snap_unsink                000000018000df30 f    CIL library: CIL module
 0001:0000d530       rec_setup_root             000000018000e530 f    CIL library: CIL module
 0001:0000d680       select_detect              000000018000e680 f    CIL library: CIL module
 0001:0000d6e0       nommstr                    000000018000e6e0 f    CIL library: CIL module
 0001:0000d740       innerloopleft              000000018000e740 f    CIL library: CIL module
 0001:0000d7a0       rec_loop                   000000018000e7a0 f    CIL library: CIL module
 0001:0000d7c0       rec_iterl                  000000018000e7c0 f    CIL library: CIL module
 0001:0000d830       rec_for_direction          000000018000e830 f    CIL library: CIL module
 0001:0000d840       lj_ir_set_                 000000018000e840 f    CIL library: CIL module
 0001:0000d860       LJ_PRNG_BITS               000000018000e860 f    CIL library: CIL module
 0001:0000d890       itype2irt                  000000018000e890 f    CIL library: CIL module
 0001:0000d8c0       ctype_check                000000018000e8c0 f    CIL library: CIL module
 0001:0000d8d0       bc_isret                   000000018000e8d0 f    CIL library: CIL module
 0001:0000d900       hashrot                    000000018000e900 f    CIL library: CIL module
 0001:0000d920       numberVnum                 000000018000e920 f    CIL library: CIL module
 0001:0000d930       numberVint                 000000018000e930 f    CIL library: CIL module
 0001:0000d940       copyTV                     000000018000e940 f    CIL library: CIL module
 0001:0000d950       setintV                    000000018000e950 f    CIL library: CIL module
 0001:0000d970       setgcV                     000000018000e970 f    CIL library: CIL module
 0001:0000d980       rec_func_vararg            000000018000e980 f    CIL library: CIL module
 0001:0000da50       rec_func_setup             000000018000ea50 f    CIL library: CIL module
 0001:0000dae0       check_downrec_unroll       000000018000eae0 f    CIL library: CIL module
 0001:0000db90       rec_for_iter               000000018000eb90 f    CIL library: CIL module
 0001:0000dc40       ctype_get                  000000018000ec40 f    CIL library: CIL module
 0001:0000dc50       settabV                    000000018000ec50 f    CIL library: CIL module
 0001:0000dc70       setfuncV                   000000018000ec70 f    CIL library: CIL module
 0001:0000dc90       setstrV                    000000018000ec90 f    CIL library: CIL module
 0001:0000dcb0       rec_comp_fixup             000000018000ecb0 f    CIL library: CIL module
 0001:0000dd30       ctype_child                000000018000ed30 f    CIL library: CIL module
 0001:0000dd50       ctype_raw                  000000018000ed50 f    CIL library: CIL module
 0001:0000dda0       rec_upvalue_constify       000000018000eda0 f    CIL library: CIL module
 0001:0000de40       rec_comp_prep              000000018000ee40 f    CIL library: CIL module
 0001:0000dea0       sload                      000000018000eea0 f    CIL library: CIL module
 0001:0000df60       sloadt                     000000018000ef60 f    CIL library: CIL module
 0001:0000dfc0       rec_mm_prep                000000018000efc0 f    CIL library: CIL module
 0001:0000e060       fori_load                  000000018000f060 f    CIL library: CIL module
 0001:0000e0b0       getcurrf                   000000018000f0b0 f    CIL library: CIL module
 0001:0000e0e0       rec_tnew                   000000018000f0e0 f    CIL library: CIL module
 0001:0000e120       rec_idx_abc                000000018000f120 f    CIL library: CIL module
 0001:0000e2c0       rec_call_specialize        000000018000f2c0 f    CIL library: CIL module
 0001:0000e3b0       rec_for_check              000000018000f3b0 f    CIL library: CIL module
 0001:0000e5a0       canonicalize_slots         000000018000f5a0 f    CIL library: CIL module
 0001:0000e7d0       lj_ir_knum                 000000018000f7d0 f    CIL library: CIL module
 0001:0000e7f0       rec_varg                   000000018000f7f0 f    CIL library: CIL module
 0001:0000ef80       rec_idx_key                000000018000ff80 f    CIL library: CIL module
 0001:0000f340       find_kinit                 0000000180010340 f    CIL library: CIL module
 0001:0000f4b0       rec_stop                   00000001800104b0 f    CIL library: CIL module
 0001:0000f5d0       check_call_unroll          00000001800105d0 f    CIL library: CIL module
 0001:0000f710       rec_upvalue                0000000180010710 f    CIL library: CIL module
 0001:000108b0       rec_call_setup             00000001800118b0 f    CIL library: CIL module
 0001:000109f0       rec_loop_jit               00000001800119f0 f    CIL library: CIL module
 0001:00010a60       rec_loop_interp            0000000180011a60 f    CIL library: CIL module
 0001:00010b40       fori_arg                   0000000180011b40 f    CIL library: CIL module
 0001:00010ba0       rec_func_jit               0000000180011ba0 f    CIL library: CIL module
 0001:00010c60       rec_func_lua               0000000180011c60 f    CIL library: CIL module
 0001:00010da0       rec_for_loop               0000000180011da0 f    CIL library: CIL module
 0001:000111f0       rec_mm_callcomp            00000001800121f0 f    CIL library: CIL module
 0001:00011280       rec_mm_len                 0000000180012280 f    CIL library: CIL module
 0001:00011340       rec_mm_arith               0000000180012340 f    CIL library: CIL module
 0001:00011440       rec_for                    0000000180012440 f    CIL library: CIL module
 0001:00011730       rec_mm_comp_cdata          0000000180012730 f    CIL library: CIL module
 0001:000117c0       rec_mm_comp                00000001800127c0 f    CIL library: CIL module
 0001:00011950       rec_mm_equal               0000000180012950 f    CIL library: CIL module
 0001:00012d40       endofblock                 0000000180013d40 f    CIL library: CIL module
 0001:00012d70       token2binop                0000000180013d70 f    CIL library: CIL module
 0001:00012f40       expr_kvalue                0000000180013f40 f    CIL library: CIL module
 0001:00012f70       bcopisret                  0000000180013f70 f    CIL library: CIL module
 0001:00012fa0       fs_fixup_var               0000000180013fa0 f    CIL library: CIL module
 0001:00012fd0       fs_buf_uleb128             0000000180013fd0 f    CIL library: CIL module
 0001:00013020       fs_buf_str                 0000000180014020 f    CIL library: CIL module
 0001:00013060       fs_fixup_line              0000000180014060 f    CIL library: CIL module
 0001:00013130       fs_prep_line               0000000180014130 f    CIL library: CIL module
 0001:00013160       fs_fixup_uv1               0000000180014160 f    CIL library: CIL module
 0001:00013190       fs_fixup_uv2               0000000180014190 f    CIL library: CIL module
 0001:00013220       fs_fixup_bc                0000000180014220 f    CIL library: CIL module
 0001:00013280       fscope_uvmark              0000000180014280 f    CIL library: CIL module
 0001:000132b0       fscope_begin               00000001800142b0 f    CIL library: CIL module
 0001:000132e0       gola_findlabel             00000001800142e0 f    CIL library: CIL module
 0001:00013330       var_lookup_local           0000000180014330 f    CIL library: CIL module
 0001:00013380       var_remove                 0000000180014380 f    CIL library: CIL module
 0001:000133c0       var_add                    00000001800143c0 f    CIL library: CIL module
 0001:00013410       invertcond                 0000000180014410 f    CIL library: CIL module
 0001:00013430       bcreg_free                 0000000180014430 f    CIL library: CIL module
 0001:00013440       jmp_patchtestreg           0000000180014440 f    CIL library: CIL module
 0001:000134f0       jmp_next                   00000001800144f0 f    CIL library: CIL module
 0001:00013520       expr_numiszero             0000000180014520 f    CIL library: CIL module
 0001:00013540       expr_init                  0000000180014540 f    CIL library: CIL module
 0001:00013560       lj_gc_barrierback          0000000180014560 f    CIL library: CIL module
 0001:00013580       numberVnum                 0000000180014580 f    CIL library: CIL module
 0001:00013590       copyTV                     0000000180014590 f    CIL library: CIL module
 0001:000135a0       setintV                    00000001800145a0 f    CIL library: CIL module
 0001:000135c0       setgcV                     00000001800145c0 f    CIL library: CIL module
 0001:000135d0       lj_fls                     00000001800145d0 f    CIL library: CIL module
 0001:000135e0       foldarith                  00000001800145e0 f    CIL library: CIL module
 0001:00013660       expr_free                  0000000180014660 f    CIL library: CIL module
 0001:00013680       jmp_dropval                0000000180014680 f    CIL library: CIL module
 0001:000136d0       jmp_novalue                00000001800146d0 f    CIL library: CIL module
 0001:00013740       settabV                    0000000180014740 f    CIL library: CIL module
 0001:00013760       setcdataV                  0000000180014760 f    CIL library: CIL module
 0001:00013780       setprotoV                  0000000180014780 f    CIL library: CIL module
 0001:000137a0       setstrV                    00000001800147a0 f    CIL library: CIL module
 0001:000137c0       fs_buf_resize              00000001800147c0 f    CIL library: CIL module
 0001:00013820       fs_buf_need                0000000180014820 f    CIL library: CIL module
 0001:00013850       fs_prep_var                0000000180014850 f    CIL library: CIL module
 0001:000139f0       predict_next               00000001800149f0 f    CIL library: CIL module
 0001:00013b20       synlevel_begin             0000000180014b20 f    CIL library: CIL module
 0001:00013b50       gola_new                   0000000180014b50 f    CIL library: CIL module
 0001:00013c20       err_limit                  0000000180014c20 f    CIL library: CIL module
 0001:00013c70       err_token                  0000000180014c70 f    CIL library: CIL module
 0001:00013ca0       err_syntax                 0000000180014ca0 f    CIL library: CIL module
 0001:00013cc0       fs_fixup_k                 0000000180014cc0 f    CIL library: CIL module
 0001:00013e00       var_lookup_uv              0000000180014e00 f    CIL library: CIL module
 0001:00013e90       var_new                    0000000180014e90 f    CIL library: CIL module
 0001:00013f70       bcreg_bump                 0000000180014f70 f    CIL library: CIL module
 0001:00013fb0       jmp_patchins               0000000180014fb0 f    CIL library: CIL module
 0001:00013ff0       fs_init                    0000000180014ff0 f    CIL library: CIL module
 0001:00014090       var_lookup_                0000000180015090 f    CIL library: CIL module
 0001:00014180       bcreg_reserve              0000000180015180 f    CIL library: CIL module
 0001:000141b0       jmp_patchval               00000001800151b0 f    CIL library: CIL module
 0001:00014250       jmp_append                 0000000180015250 f    CIL library: CIL module
 0001:000142b0       bcemit_INS                 00000001800152b0 f    CIL library: CIL module
 0001:000143b0       jmp_tohere                 00000001800153b0 f    CIL library: CIL module
 0001:000143d0       assign_hazard              00000001800153d0 f    CIL library: CIL module
 0001:00014450       bcemit_jmp                 0000000180015450 f    CIL library: CIL module
 0001:000144d0       bcemit_nil                 00000001800154d0 f    CIL library: CIL module
 0001:000145d0       jmp_patch                  00000001800155d0 f    CIL library: CIL module
 0001:00014600       parse_break                0000000180015600 f    CIL library: CIL module
 0001:00014640       gola_close                 0000000180015640 f    CIL library: CIL module
 0001:000146b0       gola_patch                 00000001800156b0 f    CIL library: CIL module
 0001:00014720       const_gc                   0000000180015720 f    CIL library: CIL module
 0001:00014770       const_num                  0000000180015770 f    CIL library: CIL module
 0001:000147c0       gola_fixup                 00000001800157c0 f    CIL library: CIL module
 0001:00014920       gola_resolve               0000000180015920 f    CIL library: CIL module
 0001:000149e0       const_str                  00000001800159e0 f    CIL library: CIL module
 0001:00014a00       fscope_end                 0000000180015a00 f    CIL library: CIL module
 0001:00014ac0       expr_discharge             0000000180015ac0 f    CIL library: CIL module
 0001:00014bd0       parse_block                0000000180015bd0 f    CIL library: CIL module
 0001:00014c10       fs_fixup_ret               0000000180015c10 f    CIL library: CIL module
 0001:00014d10       expr_toreg_nobranch        0000000180015d10 f    CIL library: CIL module
 0001:00014eb0       fs_finish                  0000000180015eb0 f    CIL library: CIL module
 0001:00015070       bcemit_branch              0000000180016070 f    CIL library: CIL module
 0001:00015140       expr_toreg                 0000000180016140 f    CIL library: CIL module
 0001:00015280       bcemit_branch_f            0000000180016280 f    CIL library: CIL module
 0001:00015330       bcemit_branch_t            0000000180016330 f    CIL library: CIL module
 0001:000153e0       expr_tonextreg             00000001800163e0 f    CIL library: CIL module
 0001:00015430       assign_adjust              0000000180016430 f    CIL library: CIL module
 0001:000154d0       expr_toanyreg              00000001800164d0 f    CIL library: CIL module
 0001:00015540       expr_index                 0000000180016540 f    CIL library: CIL module
 0001:00015600       bcemit_unop                0000000180016600 f    CIL library: CIL module
 0001:000157c0       bcemit_binop_left          00000001800167c0 f    CIL library: CIL module
 0001:00015830       bcemit_method              0000000180016830 f    CIL library: CIL module
 0001:00015940       expr_toval                 0000000180016940 f    CIL library: CIL module
 0001:00015960       lex_str                    0000000180016960 f    CIL library: CIL module
 0001:000159a0       lex_check                  00000001800169a0 f    CIL library: CIL module
 0001:000159c0       lex_opt                    00000001800169c0 f    CIL library: CIL module
 0001:000159f0       bcemit_comp                00000001800169f0 f    CIL library: CIL module
 0001:00015b80       bcemit_arith               0000000180016b80 f    CIL library: CIL module
 0001:00015cc0       bcemit_store               0000000180016cc0 f    CIL library: CIL module
 0001:00015e70       parse_label                0000000180016e70 f    CIL library: CIL module
 0001:00015f60       parse_goto                 0000000180016f60 f    CIL library: CIL module
 0001:00015fe0       parse_params               0000000180016fe0 f    CIL library: CIL module
 0001:000160d0       expr_bracket               00000001800170d0 f    CIL library: CIL module
 0001:00016120       expr_str                   0000000180017120 f    CIL library: CIL module
 0001:00016160       lex_match                  0000000180017160 f    CIL library: CIL module
 0001:000161f0       bcemit_binop               00000001800171f0 f    CIL library: CIL module
 0001:00016340       parse_body                 0000000180017340 f    CIL library: CIL module
 0001:000164c0       expr_table                 00000001800174c0 f    CIL library: CIL module
 0001:00016990       expr_field                 0000000180017990 f    CIL library: CIL module
 0001:000169f0       parse_func                 00000001800179f0 f    CIL library: CIL module
 0001:00016ab0       expr_simple                0000000180017ab0 f    CIL library: CIL module
 0001:00016da0       expr_unop                  0000000180017da0 f    CIL library: CIL module
 0001:00016e30       expr_binop                 0000000180017e30 f    CIL library: CIL module
 0001:00016f10       expr                       0000000180017f10 f    CIL library: CIL module
 0001:00016f20       expr_list                  0000000180017f20 f    CIL library: CIL module
 0001:00016fa0       parse_for_iter             0000000180017fa0 f    CIL library: CIL module
 0001:000171d0       parse_return               00000001800181d0 f    CIL library: CIL module
 0001:000172f0       parse_local                00000001800182f0 f    CIL library: CIL module
 0001:00017430       expr_cond                  0000000180018430 f    CIL library: CIL module
 0001:00017480       expr_next                  0000000180018480 f    CIL library: CIL module
 0001:000174b0       parse_args                 00000001800184b0 f    CIL library: CIL module
 0001:00017620       parse_then                 0000000180018620 f    CIL library: CIL module
 0001:00017670       parse_for_num              0000000180018670 f    CIL library: CIL module
 0001:00017800       parse_repeat               0000000180018800 f    CIL library: CIL module
 0001:00017900       parse_while                0000000180018900 f    CIL library: CIL module
 0001:000179e0       expr_primary               00000001800189e0 f    CIL library: CIL module
 0001:00017b30       parse_if                   0000000180018b30 f    CIL library: CIL module
 0001:00017c20       parse_for                  0000000180018c20 f    CIL library: CIL module
 0001:00017cd0       parse_assignment           0000000180018cd0 f    CIL library: CIL module
 0001:00017e60       parse_call_assign          0000000180018e60 f    CIL library: CIL module
 0001:00017ed0       parse_stmt                 0000000180018ed0 f    CIL library: CIL module
 0001:000180d0       parse_chunk                00000001800190d0 f    CIL library: CIL module
 0001:00018230       sink_remark_phi            0000000180019230 f    CIL library: CIL module
 0001:000182b0       sink_mark_snap             00000001800192b0 f    CIL library: CIL module
 0001:00018300       sink_phidep                0000000180019300 f    CIL library: CIL module
 0001:00018390       sink_checkalloc            0000000180019390 f    CIL library: CIL module
 0001:000183f0       sink_sweep_ins             00000001800193f0 f    CIL library: CIL module
 0001:000185a0       sink_checkphi              00000001800195a0 f    CIL library: CIL module
 0001:00018610       sink_mark_ins              0000000180019610 f    CIL library: CIL module
 0001:000188d0       numisint                   00000001800198d0 f    CIL library: CIL module
 0001:00018900       narrow_bpc_set             0000000180019900 f    CIL library: CIL module
 0001:00018940       narrow_bpc_get             0000000180019940 f    CIL library: CIL module
 0001:00018980       lj_ir_set_                 0000000180019980 f    CIL library: CIL module
 0001:000189a0       numberVnum                 00000001800199a0 f    CIL library: CIL module
 0001:000189b0       numberVint                 00000001800199b0 f    CIL library: CIL module
 0001:000189c0       narrow_forl                00000001800199c0 f    CIL library: CIL module
 0001:000189e0       narrow_stripov_backprop    00000001800199e0 f    CIL library: CIL module
 0001:00018b50       narrow_conv_backprop       0000000180019b50 f    CIL library: CIL module
 0001:000195c0       narrow_stripov             000000018001a5c0 f    CIL library: CIL module
 0001:00019730       narrow_conv_emit           000000018001a730 f    CIL library: CIL module
 0001:00019d40       reassoc_trycse             000000018001ad40 f    CIL library: CIL module
 0001:00019da0       aa_findcnew                000000018001ada0 f    CIL library: CIL module
 0001:00019e30       aa_uref                    000000018001ae30 f    CIL library: CIL module
 0001:00019e80       aa_escape                  000000018001ae80 f    CIL library: CIL module
 0001:00019ec0       aa_cnew                    000000018001aec0 f    CIL library: CIL module
 0001:00019f20       aa_table                   000000018001af20 f    CIL library: CIL module
 0001:00019f90       aa_xref                    000000018001af90 f    CIL library: CIL module
 0001:0001a140       aa_fref                    000000018001b140 f    CIL library: CIL module
 0001:0001a220       aa_ahref                   000000018001b220 f    CIL library: CIL module
 0001:0001ac50       reassoc_xref               000000018001bc50 f    CIL library: CIL module
 0001:0001add0       fwd_ahload                 000000018001bdd0 f    CIL library: CIL module
 0001:0001b220       fwd_aload_reassoc          000000018001c220 f    CIL library: CIL module
 0001:0001b330       lj_ir_set_                 000000018001c330 f    CIL library: CIL module
 0001:0001b350       snap_nextofs               000000018001c350 f    CIL library: CIL module
 0001:0001b380       numberVint                 000000018001c380 f    CIL library: CIL module
 0001:0001b390       loop_undo                  000000018001c390 f    CIL library: CIL module
 0001:0001b450       loop_subst_snap            000000018001c450 f    CIL library: CIL module
 0001:0001b620       lj_snap_grow_map           000000018001c620 f    CIL library: CIL module
 0001:0001b640       lj_snap_grow_buf           000000018001c640 f    CIL library: CIL module
 0001:0001b660       loop_emit_phi              000000018001c660 f    CIL library: CIL module
 0001:0001b9e0       loop_unroll                000000018001c9e0 f    CIL library: CIL module
 0001:0001bea0       cploop_opt                 000000018001cea0 f    CIL library: CIL module
 0001:0001bf70       fold_barrier_tnew_tdup     000000018001cf70 f    CIL library: CIL module
 0001:0001bfa0       fold_fload_cdata_ptr_int64_cnew 000000018001cfa0 f    CIL library: CIL module
 0001:0001bfc0       fold_fload_cdata_typeid_cnew 000000018001cfc0 f    CIL library: CIL module
 0001:0001bfe0       fold_fload_cdata_typeid_kgc 000000018001cfe0 f    CIL library: CIL module
 0001:0001c010       fold_fload_str_len_snew    000000018001d010 f    CIL library: CIL module
 0001:0001c040       fold_fload_str_len_kgc     000000018001d040 f    CIL library: CIL module
 0001:0001c070       fold_kfold_hload_kkptr     000000018001d070 f    CIL library: CIL module
 0001:0001c080       fold_comm_comp             000000018001d080 f    CIL library: CIL module
 0001:0001c0f0       fold_comm_swap             000000018001d0f0 f    CIL library: CIL module
 0001:0001c120       fold_abc_invar             000000018001d120 f    CIL library: CIL module
 0001:0001c150       fold_abc_fwd               000000018001d150 f    CIL library: CIL module
 0001:0001c1f0       fold_reassoc_minmax_right  000000018001d1f0 f    CIL library: CIL module
 0001:0001c220       fold_reassoc_minmax_left   000000018001d220 f    CIL library: CIL module
 0001:0001c250       fold_reassoc_bxor          000000018001d250 f    CIL library: CIL module
 0001:0001c290       fold_reassoc_dup           000000018001d290 f    CIL library: CIL module
 0001:0001c2c0       fold_simplify_shift2_ki    000000018001d2c0 f    CIL library: CIL module
 0001:0001c300       fold_simplify_shift1_ki    000000018001d300 f    CIL library: CIL module
 0001:0001c340       fold_simplify_shift_andk   000000018001d340 f    CIL library: CIL module
 0001:0001c3b0       fold_simplify_bxor_k       000000018001d3b0 f    CIL library: CIL module
 0001:0001c400       fold_simplify_bor_k        000000018001d400 f    CIL library: CIL module
 0001:0001c440       fold_simplify_band_k       000000018001d440 f    CIL library: CIL module
 0001:0001c480       fold_simplify_intsubaddadd_cancel 000000018001d480 f    CIL library: CIL module
 0001:0001c540       fold_simplify_intsubsub_rightcancel 000000018001d540 f    CIL library: CIL module
 0001:0001c580       fold_simplify_intsubadd_leftcancel 000000018001d580 f    CIL library: CIL module
 0001:0001c5d0       fold_simplify_intmod_kleft 000000018001d5d0 f    CIL library: CIL module
 0001:0001c600       fold_simplify_intadd_k64   000000018001d600 f    CIL library: CIL module
 0001:0001c620       fold_simplify_intsub_kleft 000000018001d620 f    CIL library: CIL module
 0001:0001c670       fold_simplify_intmul_k     000000018001d670 f    CIL library: CIL module
 0001:0001c6c0       fold_simplify_intadd_k     000000018001d6c0 f    CIL library: CIL module
 0001:0001c6e0       fold_simplify_conv_sext    000000018001d6e0 f    CIL library: CIL module
 0001:0001c7a0       fold_simplify_floor_conv   000000018001d7a0 f    CIL library: CIL module
 0001:0001c7d0       fold_simplify_tobit_conv   000000018001d7d0 f    CIL library: CIL module
 0001:0001c800       fold_simplify_conv_flt_num 000000018001d800 f    CIL library: CIL module
 0001:0001c830       fold_simplify_conv_int_i64 000000018001d830 f    CIL library: CIL module
 0001:0001c8a0       fold_simplify_conv_i64_num 000000018001d8a0 f    CIL library: CIL module
 0001:0001c900       fold_simplify_conv_int_num 000000018001d900 f    CIL library: CIL module
 0001:0001c930       fold_shortcut_conv_num_int 000000018001d930 f    CIL library: CIL module
 0001:0001c960       fold_simplify_nummuldiv_negneg 000000018001d960 f    CIL library: CIL module
 0001:0001c9a0       fold_simplify_numsub_xneg  000000018001d9a0 f    CIL library: CIL module
 0001:0001c9d0       fold_simplify_numsub_k     000000018001d9d0 f    CIL library: CIL module
 0001:0001ca00       fold_simplify_numadd_xneg  000000018001da00 f    CIL library: CIL module
 0001:0001ca30       fold_simplify_numadd_negx  000000018001da30 f    CIL library: CIL module
 0001:0001ca70       fold_shortcut_leftleft     000000018001da70 f    CIL library: CIL module
 0001:0001ca90       fold_shortcut_dropleft     000000018001da90 f    CIL library: CIL module
 0001:0001cac0       fold_shortcut_left         000000018001dac0 f    CIL library: CIL module
 0001:0001cad0       fold_shortcut_round        000000018001dad0 f    CIL library: CIL module
 0001:0001cb00       fold_kfold_kref            000000018001db00 f    CIL library: CIL module
 0001:0001cb30       fold_kfold_conv_knum_u32_num 000000018001db30 f    CIL library: CIL module
 0001:0001cb60       fold_kfold_conv_knum_int_num 000000018001db60 f    CIL library: CIL module
 0001:0001cbb0       fold_kfold_conv_kint64_int_i64 000000018001dbb0 f    CIL library: CIL module
 0001:0001cbd0       fold_kfold_conv_kint_ext   000000018001dbd0 f    CIL library: CIL module
 0001:0001cc30       fold_kfold_add_kright      000000018001dc30 f    CIL library: CIL module
 0001:0001cc70       fold_kfold_strcmp          000000018001dc70 f    CIL library: CIL module
 0001:0001ccd0       fold_kfold_int64comp0      000000018001dcd0 f    CIL library: CIL module
 0001:0001ccf0       fold_kfold_int64comp       000000018001dcf0 f    CIL library: CIL module
 0001:0001cd80       kfold_int64arith           000000018001dd80 f    CIL library: CIL module
 0001:0001ce10       fold_kfold_intcomp0        000000018001de10 f    CIL library: CIL module
 0001:0001ce30       fold_kfold_intcomp         000000018001de30 f    CIL library: CIL module
 0001:0001cf00       fold_kfold_bswap           000000018001df00 f    CIL library: CIL module
 0001:0001cf20       fold_kfold_bnot            000000018001df20 f    CIL library: CIL module
 0001:0001cf40       fold_kfold_intovarith      000000018001df40 f    CIL library: CIL module
 0001:0001cfb0       kfold_intop                000000018001dfb0 f    CIL library: CIL module
 0001:0001d110       fold_kfold_ldexp           000000018001e110 f    CIL library: CIL module
 0001:0001d120       ctype_check                000000018001e120 f    CIL library: CIL module
 0001:0001d130       lj_ir_set_                 000000018001e130 f    CIL library: CIL module
 0001:0001d150       lj_num2u64                 000000018001e150 f    CIL library: CIL module
 0001:0001d1a0       lj_num2bit                 000000018001e1a0 f    CIL library: CIL module
 0001:0001d1c0       lj_fls                     000000018001e1c0 f    CIL library: CIL module
 0001:0001d1d0       fold_comm_dup              000000018001e1d0 f    CIL library: CIL module
 0001:0001d1f0       fold_comm_equal            000000018001e1f0 f    CIL library: CIL module
 0001:0001d230       fold_simplify_andk_shiftk  000000018001e230 f    CIL library: CIL module
 0001:0001d280       fold_kfold_tobit           000000018001e280 f    CIL library: CIL module
 0001:0001d2b0       fold_kfold_intarith        000000018001e2b0 f    CIL library: CIL module
 0001:0001d2f0       fold_kfold_numcomp         000000018001e2f0 f    CIL library: CIL module
 0001:0001d330       ctype_get                  000000018001e330 f    CIL library: CIL module
 0001:0001d340       fold_fload_tab_tdup_hmask  000000018001e340 f    CIL library: CIL module
 0001:0001d3a0       fold_fload_tab_tdup_asize  000000018001e3a0 f    CIL library: CIL module
 0001:0001d400       fold_fload_tab_tnew_hmask  000000018001e400 f    CIL library: CIL module
 0001:0001d460       fold_fload_tab_tnew_asize  000000018001e460 f    CIL library: CIL module
 0001:0001d4b0       ctype_child                000000018001e4b0 f    CIL library: CIL module
 0001:0001d4d0       ctype_raw                  000000018001e4d0 f    CIL library: CIL module
 0001:0001d520       lj_ir_nextins              000000018001e520 f    CIL library: CIL module
 0001:0001d6b0       fold_barrier_tab           000000018001e6b0 f    CIL library: CIL module
 0001:0001d730       fold_fwd_sload             000000018001e730 f    CIL library: CIL module
 0001:0001d780       fold_fload_tab_ah          000000018001e780 f    CIL library: CIL module
 0001:0001d7d0       fold_cse_uref              000000018001e7d0 f    CIL library: CIL module
 0001:0001d8e0       fold_abc_k                 000000018001e8e0 f    CIL library: CIL module
 0001:0001d970       fold_cse_conv              000000018001e970 f    CIL library: CIL module
 0001:0001dc30       fold_fwd_href_tdup         000000018001ec30 f    CIL library: CIL module
 0001:0001dcc0       fold_fwd_href_tnew         000000018001ecc0 f    CIL library: CIL module
 0001:0001dd00       fold_reassoc_intarith_k    000000018001ed00 f    CIL library: CIL module
 0001:0001dd90       fold_simplify_shiftk_andk  000000018001ed90 f    CIL library: CIL module
 0001:0001de30       fold_simplify_shift_ik     000000018001ee30 f    CIL library: CIL module
 0001:0001dee0       fold_simplify_intsubadd_rightcancel 000000018001eee0 f    CIL library: CIL module
 0001:0001df60       fold_simplify_intsubsub_leftcancel 000000018001ef60 f    CIL library: CIL module
 0001:0001dfd0       fold_simplify_intmod_k     000000018001efd0 f    CIL library: CIL module
 0001:0001e020       simplify_intmul_k          000000018001f020 f    CIL library: CIL module
 0001:0001e080       fold_simplify_intsub_k     000000018001f080 f    CIL library: CIL module
 0001:0001e0d0       fold_simplify_conv_narrow  000000018001f0d0 f    CIL library: CIL module
 0001:0001e1c0       fold_kfold_add_kptr        000000018001f1c0 f    CIL library: CIL module
 0001:0001e1f0       fold_kfold_add_kgc         000000018001f1f0 f    CIL library: CIL module
 0001:0001e2c0       fold_kfold_strref_snew     000000018001f2c0 f    CIL library: CIL module
 0001:0001e380       fold_kfold_strref          000000018001f380 f    CIL library: CIL module
 0001:0001e3b0       fold_kfold_snew_empty      000000018001f3b0 f    CIL library: CIL module
 0001:0001e3e0       fold_fload_cdata_int64_kgc 000000018001f3e0 f    CIL library: CIL module
 0001:0001e440       kfold_xload                000000018001f440 f    CIL library: CIL module
 0001:0001e4d0       fold_comm_bxor             000000018001f4d0 f    CIL library: CIL module
 0001:0001e520       fold_reassoc_shift         000000018001f520 f    CIL library: CIL module
 0001:0001e600       fold_reassoc_intarith_k64  000000018001f600 f    CIL library: CIL module
 0001:0001e680       fold_simplify_intsub       000000018001f680 f    CIL library: CIL module
 0001:0001e6e0       fold_simplify_intmul_k64   000000018001f6e0 f    CIL library: CIL module
 0001:0001e710       fold_simplify_intmul_k32   000000018001f710 f    CIL library: CIL module
 0001:0001e740       fold_simplify_intsub_k64   000000018001f740 f    CIL library: CIL module
 0001:0001e790       fold_simplify_numpow_kx    000000018001f790 f    CIL library: CIL module
 0001:0001e820       fold_simplify_numpow_xk    000000018001f820 f    CIL library: CIL module
 0001:0001e9c0       fold_simplify_nummuldiv_k  000000018001f9c0 f    CIL library: CIL module
 0001:0001eae0       fold_kfold_conv_knum_u64_num 000000018001fae0 f    CIL library: CIL module
 0001:0001eb70       fold_kfold_conv_knum_i64_num 000000018001fb70 f    CIL library: CIL module
 0001:0001ebc0       fold_kfold_conv_kint_i64   000000018001fbc0 f    CIL library: CIL module
 0001:0001ebf0       fold_kfold_bswap64         000000018001fbf0 f    CIL library: CIL module
 0001:0001ec10       fold_kfold_bnot64          000000018001fc10 f    CIL library: CIL module
 0001:0001ec30       fold_kfold_int64shift      000000018001fc30 f    CIL library: CIL module
 0001:0001ecb0       fold_kfold_int64arith2     000000018001fcb0 f    CIL library: CIL module
 0001:0001ed70       fold_kfold_int64arith      000000018001fd70 f    CIL library: CIL module
 0001:0001edb0       lj_ir_knum                 000000018001fdb0 f    CIL library: CIL module
 0001:0001edd0       fold_xload_kptr            000000018001fdd0 f    CIL library: CIL module
 0001:0001edf0       fold_merge_eqne_snew_kgc   000000018001fdf0 f    CIL library: CIL module
 0001:0001efa0       fold_reassoc_minmax_k      000000018001ffa0 f    CIL library: CIL module
 0001:0001f0b0       fold_narrow_convert        00000001800200b0 f    CIL library: CIL module
 0001:0001f0e0       fold_simplify_nummuldiv_negk 00000001800200e0 f    CIL library: CIL module
 0001:0001f150       fold_simplify_numsub_negk  0000000180020150 f    CIL library: CIL module
 0001:0001f1c0       fold_kfold_strto           00000001800201c0 f    CIL library: CIL module
 0001:0001f210       fold_kfold_conv_kint64_num_u64 0000000180020210 f    CIL library: CIL module
 0001:0001f250       fold_kfold_conv_kint64_num_i64 0000000180020250 f    CIL library: CIL module
 0001:0001f280       fold_kfold_conv_kintu32_num 0000000180020280 f    CIL library: CIL module
 0001:0001f2b0       fold_kfold_conv_kint_num   00000001800202b0 f    CIL library: CIL module
 0001:0001f2e0       fold_kfold_numpow          00000001800202e0 f    CIL library: CIL module
 0001:0001f330       fold_kfold_fpmath          0000000180020330 f    CIL library: CIL module
 0001:0001f370       fold_kfold_numarith        0000000180020370 f    CIL library: CIL module
 0001:0001f3c0       fold_kfold_snew_kptr       00000001800203c0 f    CIL library: CIL module
 0001:0001f400       fold_kfold_tostr_kint      0000000180020400 f    CIL library: CIL module
 0001:0001f440       fold_kfold_tostr_knum      0000000180020440 f    CIL library: CIL module
 0001:0001f470       dce_marksnap               0000000180020470 f    CIL library: CIL module
 0001:0001f4e0       ir_sideeff                 00000001800204e0 f    CIL library: CIL module
 0001:0001f510       dce_propagate              0000000180020510 f    CIL library: CIL module
 0001:0001f670       numberVnum                 0000000180020670 f    CIL library: CIL module
 0001:0001f6e0       lj_gc_barrierback          00000001800206e0 f    CIL library: CIL module
 0001:0001f700       copyTV                     0000000180020700 f    CIL library: CIL module
 0001:0001f710       setintV                    0000000180020710 f    CIL library: CIL module
 0001:0001f730       setgcV                     0000000180020730 f    CIL library: CIL module
 0001:0001f740       mmcall                     0000000180020740 f    CIL library: CIL module
 0001:0001f8c0       setstrV                    00000001800208c0 f    CIL library: CIL module
 0001:0001fb10       str2num                    0000000180020b10 f    CIL library: CIL module
 0001:0001fb60       lj_strscan_numberobj       0000000180020b60 f    CIL library: CIL module
 0001:00020150       tostring                   0000000180021150 f    CIL library: CIL module
 0001:000205e0       mcode_setprot              00000001800215e0 f    CIL library: CIL module
 0001:00020600       mcode_free                 0000000180021600 f    CIL library: CIL module
 0001:00020630       LJ_PRNG_BITS               0000000180021630 f    CIL library: CIL module
 0001:000206c0       mcode_protect              00000001800216c0 f    CIL library: CIL module
 0001:00020710       mcode_alloc_at             0000000180021710 f    CIL library: CIL module
 0001:00020860       mcode_alloc                0000000180021860 f    CIL library: CIL module
 0001:00020990       mcode_allocarea            0000000180021990 f    CIL library: CIL module
 0001:00020af0       reader_string              0000000180021af0 f    CIL library: CIL module
 0001:00020b10       reader_file                0000000180021b10 f    CIL library: CIL module
 0001:00020b80       copyTV                     0000000180021b80 f    CIL library: CIL module
 0001:00020b90       setgcV                     0000000180021b90 f    CIL library: CIL module
 0001:00020ba0       setfuncV                   0000000180021ba0 f    CIL library: CIL module
 0001:00020bc0       setstrV                    0000000180021bc0 f    CIL library: CIL module
 0001:00020c30       cpparser                   0000000180021c30 f    CIL library: CIL module
 0001:00020fc0       lj_gc_barrierback          0000000180021fc0 f    CIL library: CIL module
 0001:00020fe0       lj_num2bit                 0000000180021fe0 f    CIL library: CIL module
 0001:00021000       copyTV                     0000000180022000 f    CIL library: CIL module
 0001:00021010       setintV                    0000000180022010 f    CIL library: CIL module
 0001:00021030       setgcV                     0000000180022030 f    CIL library: CIL module
 0001:00021040       settabV                    0000000180022040 f    CIL library: CIL module
 0001:00021060       setfuncV                   0000000180022060 f    CIL library: CIL module
 0001:00021080       setstrV                    0000000180022080 f    CIL library: CIL module
 0001:000210a0       lj_strscan_numberobj       00000001800220a0 f    CIL library: CIL module
 0001:000214d0       lib_create_table           00000001800224d0 f    CIL library: CIL module
 0001:000218e0       fillbuf                    00000001800228e0 f    CIL library: CIL module
 0001:00021940       lj_mem_free                0000000180022940 f    CIL library: CIL module
 0001:00021960       setgcV                     0000000180022960 f    CIL library: CIL module
 0001:00021a00       setstrV                    0000000180022a00 f    CIL library: CIL module
 0001:00021a20       save_grow                  0000000180022a20 f    CIL library: CIL module
 0001:00021a90       lj_cdata_new_              0000000180022a90 f    CIL library: CIL module
 0001:00021ac0       save                       0000000180022ac0 f    CIL library: CIL module
 0001:00021af0       skip_sep                   0000000180022af0 f    CIL library: CIL module
 0001:00021cd0       inclinenumber              0000000180022cd0 f    CIL library: CIL module
 0001:00021f90       read_string                0000000180022f90 f    CIL library: CIL module
 0001:00022560       read_long_string           0000000180023560 f    CIL library: CIL module
 0001:000227a0       lex_number                 00000001800237a0 f    CIL library: CIL module
 0001:000229b0       llex                       00000001800239b0 f    CIL library: CIL module
 0001:00023410       numistrueint               0000000180024410 f    CIL library: CIL module
 0001:00023460       lj_ir_set_                 0000000180024460 f    CIL library: CIL module
 0001:00023480       irt_toitype_               0000000180024480 f    CIL library: CIL module
 0001:00023490       lj_mem_free                0000000180024490 f    CIL library: CIL module
 0001:000234b0       setintV                    00000001800244b0 f    CIL library: CIL module
 0001:000234d0       setgcV                     00000001800244d0 f    CIL library: CIL module
 0001:000234e0       setlightudV                00000001800244e0 f    CIL library: CIL module
 0001:00023560       setcdataV                  0000000180024560 f    CIL library: CIL module
 0001:00023640       lj_ir_growbot              0000000180024640 f    CIL library: CIL module
 0001:00023830       lj_cdata_new_              0000000180024830 f    CIL library: CIL module
 0001:00023860       lj_ir_nextins              0000000180024860 f    CIL library: CIL module
 0001:000239c0       ir_nextk                   00000001800249c0 f    CIL library: CIL module
 0001:00024140       lj_ir_knum                 0000000180025140 f    CIL library: CIL module
 0001:000241a0       gc_mayclear                00000001800251a0 f    CIL library: CIL module
 0001:000241f0       gc_sweep                   00000001800251f0 f    CIL library: CIL module
 0001:000242d0       gc_marktrace               00000001800252d0 f    CIL library: CIL module
 0001:00024300       gc_mark                    0000000180025300 f    CIL library: CIL module
 0001:000243b0       copyTV                     00000001800253b0 f    CIL library: CIL module
 0001:000243c0       setgcV                     00000001800253c0 f    CIL library: CIL module
 0001:000244c0       gc_call_finalizer          00000001800254c0 f    CIL library: CIL module
 0001:00024570       gc_clearweak               0000000180025570 f    CIL library: CIL module
 0001:00024630       gc_traverse_frames         0000000180025630 f    CIL library: CIL module
 0001:000246e0       gc_traverse_proto          00000001800256e0 f    CIL library: CIL module
 0001:00024740       gc_traverse_trace          0000000180025740 f    CIL library: CIL module
 0001:00024800       gc_traverse_func           0000000180025800 f    CIL library: CIL module
 0001:000248c0       gc_traverse_tab            00000001800258c0 f    CIL library: CIL module
 0001:00024b20       gc_mark_mmudata            0000000180025b20 f    CIL library: CIL module
 0001:00024b80       gc_mark_uv                 0000000180025b80 f    CIL library: CIL module
 0001:00024be0       gc_mark_gcroot             0000000180025be0 f    CIL library: CIL module
 0001:00024c30       setcdataV                  0000000180025c30 f    CIL library: CIL module
 0001:00024e50       gc_mark_start              0000000180025e50 f    CIL library: CIL module
 0001:00024f20       gc_shrink                  0000000180025f20 f    CIL library: CIL module
 0001:00024f90       gc_traverse_thread         0000000180025f90 f    CIL library: CIL module
 0001:00025040       propagatemark              0000000180026040 f    CIL library: CIL module
 0001:00025130       gc_propagate_gray          0000000180026130 f    CIL library: CIL module
 0001:00025170       atomic                     0000000180026170 f    CIL library: CIL module
 0001:00025240       gc_finalize                0000000180026240 f    CIL library: CIL module
 0001:00025340       gc_onestep                 0000000180026340 f    CIL library: CIL module
 0001:00025770       unlinkuv                   0000000180026770 f    CIL library: CIL module
 0001:00025790       lj_mem_free                0000000180026790 f    CIL library: CIL module
 0001:00025850       func_newL                  0000000180026850 f    CIL library: CIL module
 0001:000259a0       func_emptyuv               00000001800269a0 f    CIL library: CIL module
 0001:000259d0       func_finduv                00000001800269d0 f    CIL library: CIL module
 0001:00025c40       recdef_lookup              0000000180026c40 f    CIL library: CIL module
 0001:00025c60       recff_assert               0000000180026c60 f    CIL library: CIL module
 0001:00025c80       results_wanted             0000000180026c80 f    CIL library: CIL module
 0001:00025cb0       lj_ir_set_                 0000000180026cb0 f    CIL library: CIL module
 0001:00025cd0       numberVnum                 0000000180026cd0 f    CIL library: CIL module
 0001:00025ce0       numberVint                 0000000180026ce0 f    CIL library: CIL module
 0001:00025cf0       copyTV                     0000000180026cf0 f    CIL library: CIL module
 0001:00025d00       setintV                    0000000180026d00 f    CIL library: CIL module
 0001:00025d20       setgcV                     0000000180026d20 f    CIL library: CIL module
 0001:00025d30       settabV                    0000000180026d30 f    CIL library: CIL module
 0001:00025d50       setfuncV                   0000000180026d50 f    CIL library: CIL module
 0001:00025d70       setstrV                    0000000180026d70 f    CIL library: CIL module
 0001:00025d90       recff_c                    0000000180026d90 f    CIL library: CIL module
 0001:00025dc0       recff_nyi                  0000000180026dc0 f    CIL library: CIL module
 0001:00025df0       recff_nyiu                 0000000180026df0 f    CIL library: CIL module
 0001:00025e20       lj_strscan_numberobj       0000000180026e20 f    CIL library: CIL module
 0001:00025e60       recff_ipairs               0000000180026e60 f    CIL library: CIL module
 0001:00025ef0       recff_type                 0000000180026ef0 f    CIL library: CIL module
 0001:00025f60       argv2int                   0000000180026f60 f    CIL library: CIL module
 0001:00025fb0       recff_io_fp                0000000180026fb0 f    CIL library: CIL module
 0001:00026100       recff_table_getn           0000000180027100 f    CIL library: CIL module
 0001:00026150       recff_string_len           0000000180027150 f    CIL library: CIL module
 0001:000261a0       recff_math_random          00000001800271a0 f    CIL library: CIL module
 0001:000263a0       recff_math_minmax          00000001800273a0 f    CIL library: CIL module
 0001:00026500       recff_math_modf            0000000180027500 f    CIL library: CIL module
 0001:000265d0       recff_math_htrig           00000001800275d0 f    CIL library: CIL module
 0001:00026630       recff_math_atrig           0000000180027630 f    CIL library: CIL module
 0001:00026740       recff_math_ldexp           0000000180027740 f    CIL library: CIL module
 0001:000267b0       recff_math_atan2           00000001800277b0 f    CIL library: CIL module
 0001:00026820       recff_math_log             0000000180027820 f    CIL library: CIL module
 0001:00026960       recff_math_unary           0000000180027960 f    CIL library: CIL module
 0001:000269c0       recff_math_round           00000001800279c0 f    CIL library: CIL module
 0001:00026a30       recff_math_abs             0000000180027a30 f    CIL library: CIL module
 0001:00026bb0       lj_ir_knum                 0000000180027bb0 f    CIL library: CIL module
 0001:00026bd0       recff_io_flush             0000000180027bd0 f    CIL library: CIL module
 0001:00026c60       recff_io_write             0000000180027c60 f    CIL library: CIL module
 0001:00026e80       recff_math_pow             0000000180027e80 f    CIL library: CIL module
 0001:00026f10       recff_math_degrad          0000000180027f10 f    CIL library: CIL module
 0001:00026f90       recff_select               0000000180027f90 f    CIL library: CIL module
 0001:00027070       recff_rawequal             0000000180028070 f    CIL library: CIL module
 0001:000270d0       recff_bit_shift            00000001800280d0 f    CIL library: CIL module
 0001:00027150       recff_bit_nary             0000000180028150 f    CIL library: CIL module
 0001:00027210       recff_bit_unary            0000000180028210 f    CIL library: CIL module
 0001:00027320       recff_table_insert         0000000180028320 f    CIL library: CIL module
 0001:00027430       recff_table_remove         0000000180028430 f    CIL library: CIL module
 0001:000275a0       recff_ipairs_aux           00000001800285a0 f    CIL library: CIL module
 0001:000276b0       recff_rawset               00000001800286b0 f    CIL library: CIL module
 0001:00027740       recff_rawget               0000000180028740 f    CIL library: CIL module
 0001:000277c0       recff_setmetatable         00000001800287c0 f    CIL library: CIL module
 0001:00027900       recff_getmetatable         0000000180028900 f    CIL library: CIL module
 0001:00027960       recff_xpcall_cp            0000000180028960 f    CIL library: CIL module
 0001:00027990       recff_pcall                0000000180028990 f    CIL library: CIL module
 0001:000279d0       recff_metacall_cp          00000001800289d0 f    CIL library: CIL module
 0001:000279f0       argv2str                   00000001800289f0 f    CIL library: CIL module
 0001:00027a40       recff_string_range         0000000180028a40 f    CIL library: CIL module
 0001:00027fb0       recff_xpcall               0000000180028fb0 f    CIL library: CIL module
 0001:00028060       recff_metacall             0000000180029060 f    CIL library: CIL module
 0001:00028140       recff_tonumber             0000000180029140 f    CIL library: CIL module
 0001:00028240       recff_tostring             0000000180029240 f    CIL library: CIL module
 0001:000282f0       cur_topslot                00000001800292f0 f    CIL library: CIL module
 0001:00028530       bc_isret                   0000000180029530 f    CIL library: CIL module
 0001:000288d0       setptmode                  00000001800298d0 f    CIL library: CIL module
 0001:00028900       setptmode_all              0000000180029900 f    CIL library: CIL module
 0001:00028980       lj_state_checkstack        0000000180029980 f    CIL library: CIL module
 0001:000289b0       call_init                  00000001800299b0 f    CIL library: CIL module
 0001:00028a50       callhook                   0000000180029a50 f    CIL library: CIL module
 0001:00029180       debug_read_uleb128         000000018002a180 f    CIL library: CIL module
 0001:00029240       debug_framepc              000000018002a240 f    CIL library: CIL module
 0001:000293b0       copyTV                     000000018002a3b0 f    CIL library: CIL module
 0001:000293c0       setgcV                     000000018002a3c0 f    CIL library: CIL module
 0001:000294a0       debug_varname              000000018002a4a0 f    CIL library: CIL module
 0001:00029580       debug_frameline            000000018002a580 f    CIL library: CIL module
 0001:000295c0       settabV                    000000018002a5c0 f    CIL library: CIL module
 0001:000295e0       setfuncV                   000000018002a5e0 f    CIL library: CIL module
 0001:000297a0       debug_localname            000000018002a7a0 f    CIL library: CIL module
 0001:0002a1f0       ctype_appnum               000000018002b1f0 f    CIL library: CIL module
 0001:0002a280       ctype_appc                 000000018002b280 f    CIL library: CIL module
 0001:0002a2b0       ctype_prepnum              000000018002b2b0 f    CIL library: CIL module
 0001:0002a310       ctype_prepc                000000018002b310 f    CIL library: CIL module
 0001:0002a340       ctype_prepstr              000000018002b340 f    CIL library: CIL module
 0001:0002a3b0       ctype_setname              000000018002b3b0 f    CIL library: CIL module
 0001:0002a3c0       ctype_check                000000018002b3c0 f    CIL library: CIL module
 0001:0002a3d0       hashrot                    000000018002b3d0 f    CIL library: CIL module
 0001:0002a3f0       lj_mem_free                000000018002b3f0 f    CIL library: CIL module
 0001:0002a4a0       ctype_prepqual             000000018002b4a0 f    CIL library: CIL module
 0001:0002a540       ctype_addtype              000000018002b540 f    CIL library: CIL module
 0001:0002a580       ctype_get                  000000018002b580 f    CIL library: CIL module
 0001:0002a590       ctype_preptype             000000018002b590 f    CIL library: CIL module
 0001:0002a850       ctype_child                000000018002b850 f    CIL library: CIL module
 0001:0002a870       ctype_repr                 000000018002b870 f    CIL library: CIL module
 0001:0002aea0       ctype_rawchild             000000018002bea0 f    CIL library: CIL module
 0001:0002aee0       ctype_raw                  000000018002bee0 f    CIL library: CIL module
 0001:0002b5a0       crec_reassoc_ofs           000000018002c5a0 f    CIL library: CIL module
 0001:0002b630       crec_isnonzero             000000018002c630 f    CIL library: CIL module
 0001:0002b6b0       lj_ir_set_                 000000018002c6b0 f    CIL library: CIL module
 0001:0002b6d0       cconv_idx                  000000018002c6d0 f    CIL library: CIL module
 0001:0002b6f0       cdata_getptr               000000018002c6f0 f    CIL library: CIL module
 0001:0002b710       ctype_check                000000018002c710 f    CIL library: CIL module
 0001:0002b720       setintV                    000000018002c720 f    CIL library: CIL module
 0001:0002b730       setgcV                     000000018002c730 f    CIL library: CIL module
 0001:0002b750       setlightudV                000000018002c750 f    CIL library: CIL module
 0001:0002b770       lj_fls                     000000018002c770 f    CIL library: CIL module
 0001:0002b780       crec_fill_unroll           000000018002c780 f    CIL library: CIL module
 0001:0002b810       crec_copy_unroll           000000018002c810 f    CIL library: CIL module
 0001:0002b8a0       ctype_get                  000000018002c8a0 f    CIL library: CIL module
 0001:0002b8b0       setfuncV                   000000018002c8b0 f    CIL library: CIL module
 0001:0002b8d0       ctype_child                000000018002c8d0 f    CIL library: CIL module
 0001:0002b8f0       crec_ct2irt                000000018002c8f0 f    CIL library: CIL module
 0001:0002b990       ctype_rawchild             000000018002c990 f    CIL library: CIL module
 0001:0002b9d0       ctype_raw                  000000018002c9d0 f    CIL library: CIL module
 0001:0002ba20       crec_copy_struct           000000018002ca20 f    CIL library: CIL module
 0001:0002bb20       crec_snap_caller           000000018002cb20 f    CIL library: CIL module
 0001:0002bcf0       crec_arith_int64           000000018002ccf0 f    CIL library: CIL module
 0001:0002c030       crec_finalizer             000000018002d030 f    CIL library: CIL module
 0001:0002c160       crec_fill_emit             000000018002d160 f    CIL library: CIL module
 0001:0002c220       crec_copy_emit             000000018002d220 f    CIL library: CIL module
 0001:0002c3c0       crec_constructor           000000018002d3c0 f    CIL library: CIL module
 0001:0002c440       argv2cdata                 000000018002d440 f    CIL library: CIL module
 0001:0002c4e0       lj_ir_knum                 000000018002d4e0 f    CIL library: CIL module
 0001:0002c550       crec_arith_meta            000000018002d550 f    CIL library: CIL module
 0001:0002c710       crec_fill                  000000018002d710 f    CIL library: CIL module
 0001:0002c8d0       crec_copy                  000000018002d8d0 f    CIL library: CIL module
 0001:0002ca50       crec_index_meta            000000018002da50 f    CIL library: CIL module
 0001:0002cba0       crec_ct_ct                 000000018002dba0 f    CIL library: CIL module
 0001:0002d330       crec_arith_ptr             000000018002e330 f    CIL library: CIL module
 0001:0002d6a0       crec_ct_tv                 000000018002e6a0 f    CIL library: CIL module
 0001:0002db80       crec_tv_ct                 000000018002eb80 f    CIL library: CIL module
 0001:0002e010       crec_toint                 000000018002f010 f    CIL library: CIL module
 0001:0002e860       crec_call_args             000000018002f860 f    CIL library: CIL module
 0001:0002eb10       crec_alloc                 000000018002fb10 f    CIL library: CIL module
 0001:0002fc20       crec_call                  0000000180030c20 f    CIL library: CIL module
 0001:00030190       argv2ctype                 0000000180031190 f    CIL library: CIL module
 0001:00030560       cp_field_align             0000000180031560 f    CIL library: CIL module
 0001:00030580       cp_decl_reset              0000000180031580 f    CIL library: CIL module
 0001:000305c0       cp_istypedecl              00000001800315c0 f    CIL library: CIL module
 0001:00030610       cp_rawpeek                 0000000180031610 f    CIL library: CIL module
 0001:00030620       cp_iseol                   0000000180031620 f    CIL library: CIL module
 0001:00030640       ctype_setname              0000000180031640 f    CIL library: CIL module
 0001:00030650       ctype_check                0000000180031650 f    CIL library: CIL module
 0001:00030660       lj_mem_free                0000000180031660 f    CIL library: CIL module
 0001:00030680       numberVint                 0000000180031680 f    CIL library: CIL module
 0001:00030690       lj_fls                     0000000180031690 f    CIL library: CIL module
 0001:000306a0       cp_cleanup                 00000001800316a0 f    CIL library: CIL module
 0001:000306d0       cp_newline                 00000001800316d0 f    CIL library: CIL module
 0001:00030700       cp_get_bs                  0000000180031700 f    CIL library: CIL module
 0001:00030770       ctype_get                  0000000180031770 f    CIL library: CIL module
 0001:00030780       cp_save_grow               0000000180031780 f    CIL library: CIL module
 0001:000307f0       cp_get                     00000001800317f0 f    CIL library: CIL module
 0001:00030820       ctype_child                0000000180031820 f    CIL library: CIL module
 0001:00030840       cp_comment_cpp             0000000180031840 f    CIL library: CIL module
 0001:00030890       cp_comment_c               0000000180031890 f    CIL library: CIL module
 0001:00030950       cp_save                    0000000180031950 f    CIL library: CIL module
 0001:00030980       ctype_rawchild             0000000180031980 f    CIL library: CIL module
 0001:000309c0       ctype_raw                  00000001800319c0 f    CIL library: CIL module
 0001:00030a10       cp_tok2str                 0000000180031a10 f    CIL library: CIL module
 0001:00030a60       cp_ident                   0000000180031a60 f    CIL library: CIL module
 0001:00030b30       cp_errmsg                  0000000180031b30 f    CIL library: CIL module
 0001:00030c30       cp_number                  0000000180031c30 f    CIL library: CIL module
 0001:00030d30       cp_err                     0000000180031d30 f    CIL library: CIL module
 0001:00030d50       cp_err_badidx              0000000180031d50 f    CIL library: CIL module
 0001:00030d90       cp_err_token               0000000180031d90 f    CIL library: CIL module
 0001:00030dc0       cp_struct_layout           0000000180031dc0 f    CIL library: CIL module
 0001:00031040       cp_decl_intern             0000000180032040 f    CIL library: CIL module
 0001:00031450       cp_add                     0000000180032450 f    CIL library: CIL module
 0001:000314d0       cp_string                  00000001800324d0 f    CIL library: CIL module
 0001:000318a0       cp_param                   00000001800328a0 f    CIL library: CIL module
 0001:000319d0       cp_push                    00000001800329d0 f    CIL library: CIL module
 0001:000319f0       cp_next_                   00000001800329f0 f    CIL library: CIL module
 0001:00031ec0       cp_push_type               0000000180032ec0 f    CIL library: CIL module
 0001:00031ff0       cp_push_attributes         0000000180032ff0 f    CIL library: CIL module
 0001:00032040       cp_next                    0000000180033040 f    CIL library: CIL module
 0001:00032060       cp_check                   0000000180033060 f    CIL library: CIL module
 0001:00032080       cp_opt                     0000000180033080 f    CIL library: CIL module
 0001:000320b0       cp_init                    00000001800330b0 f    CIL library: CIL module
 0001:00032140       cp_pragma                  0000000180033140 f    CIL library: CIL module
 0001:00032290       cp_decl_func               0000000180033290 f    CIL library: CIL module
 0001:00032520       cp_decl_array              0000000180033520 f    CIL library: CIL module
 0001:000325b0       cp_decl_mode               00000001800335b0 f    CIL library: CIL module
 0001:00032710       cp_decl_asm                0000000180033710 f    CIL library: CIL module
 0001:000327c0       cp_expr_comma              00000001800337c0 f    CIL library: CIL module
 0001:00032800       cp_declarator              0000000180033800 f    CIL library: CIL module
 0001:00032a00       cp_expr_postfix            0000000180033a00 f    CIL library: CIL module
 0001:00032bf0       cp_decl_abstract           0000000180033bf0 f    CIL library: CIL module
 0001:00032c40       cp_expr_sizeof             0000000180033c40 f    CIL library: CIL module
 0001:00032d20       cp_expr_prefix             0000000180033d20 f    CIL library: CIL module
 0001:000330a0       cp_expr_unary              00000001800340a0 f    CIL library: CIL module
 0001:000330f0       cp_expr_infix              00000001800340f0 f    CIL library: CIL module
 0001:00033730       cp_expr_sub                0000000180034730 f    CIL library: CIL module
 0001:00033770       cp_decl_constinit          0000000180034770 f    CIL library: CIL module
 0001:00033870       cp_expr_kint               0000000180034870 f    CIL library: CIL module
 0001:00033900       cp_expr_ksize              0000000180034900 f    CIL library: CIL module
 0001:00033940       cp_decl_sizeattr           0000000180034940 f    CIL library: CIL module
 0001:000339a0       cp_decl_align              00000001800349a0 f    CIL library: CIL module
 0001:000339f0       cp_decl_msvcattribute      00000001800349f0 f    CIL library: CIL module
 0001:00033ab0       cp_decl_gccattribute       0000000180034ab0 f    CIL library: CIL module
 0001:00033c40       cp_decl_attributes         0000000180034c40 f    CIL library: CIL module
 0001:00033d30       cp_struct_name             0000000180034d30 f    CIL library: CIL module
 0001:00033e90       cp_decl_enum               0000000180034e90 f    CIL library: CIL module
 0001:00034050       cp_decl_struct             0000000180035050 f    CIL library: CIL module
 0001:00034370       cp_decl_spec               0000000180035370 f    CIL library: CIL module
 0001:00034670       cp_decl_single             0000000180035670 f    CIL library: CIL module
 0001:000346d0       cp_decl_multi              00000001800356d0 f    CIL library: CIL module
 0001:000349a0       cpcparser                  00000001800359a0 f    CIL library: CIL module
 0001:00034a90       clib_getsym                0000000180035a90 f    CIL library: CIL module
 0001:00034c00       clib_unloadlib             0000000180035c00 f    CIL library: CIL module
 0001:00034c70       clib_needext               0000000180035c70 f    CIL library: CIL module
 0001:00034ca0       ctype_check                0000000180035ca0 f    CIL library: CIL module
 0001:00034cb0       ctype_cts                  0000000180035cb0 f    CIL library: CIL module
 0001:00034cd0       setintV                    0000000180035cd0 f    CIL library: CIL module
 0001:00034cf0       setgcV                     0000000180035cf0 f    CIL library: CIL module
 0001:00034d30       ctype_get                  0000000180035d30 f    CIL library: CIL module
 0001:00034d40       setudataV                  0000000180035d40 f    CIL library: CIL module
 0001:00034d60       setcdataV                  0000000180035d60 f    CIL library: CIL module
 0001:00034d80       clib_extsym                0000000180035d80 f    CIL library: CIL module
 0001:00034dc0       lj_cdata_new               0000000180035dc0 f    CIL library: CIL module
 0001:00034df0       ctype_child                0000000180035df0 f    CIL library: CIL module
 0001:00034e10       clib_extname               0000000180035e10 f    CIL library: CIL module
 0001:00034e60       clib_new                   0000000180035e60 f    CIL library: CIL module
 0001:00034ef0       clib_error                 0000000180035ef0 f    CIL library: CIL module
 0001:000350d0       clib_loadlib               00000001800360d0 f    CIL library: CIL module
 0001:000351a0       cdata_getptr               00000001800361a0 f    CIL library: CIL module
 0001:000351c0       ctype_check                00000001800361c0 f    CIL library: CIL module
 0001:000351d0       lj_mem_free                00000001800361d0 f    CIL library: CIL module
 0001:000351f0       lj_gc_barrierback          00000001800361f0 f    CIL library: CIL module
 0001:00035210       setintV                    0000000180036210 f    CIL library: CIL module
 0001:00035230       setgcV                     0000000180036230 f    CIL library: CIL module
 0001:00035250       ctype_get                  0000000180036250 f    CIL library: CIL module
 0001:00035260       setcdataV                  0000000180036260 f    CIL library: CIL module
 0001:00035350       lj_cdata_new               0000000180036350 f    CIL library: CIL module
 0001:00035380       ctype_child                0000000180036380 f    CIL library: CIL module
 0001:000353a0       cdata_getconst             00000001800363a0 f    CIL library: CIL module
 0001:000353e0       ctype_rawchild             00000001800363e0 f    CIL library: CIL module
 0001:00035420       ctype_raw                  0000000180036420 f    CIL library: CIL module
 0001:00035c00       cconv_idx                  0000000180036c00 f    CIL library: CIL module
 0001:00035c20       cdata_setptr               0000000180036c20 f    CIL library: CIL module
 0001:00035c40       cdata_getptr               0000000180036c40 f    CIL library: CIL module
 0001:00035c60       ctype_check                0000000180036c60 f    CIL library: CIL module
 0001:00035c70       lj_num2u64                 0000000180036c70 f    CIL library: CIL module
 0001:00035cc0       setintV                    0000000180036cc0 f    CIL library: CIL module
 0001:00035ce0       setgcV                     0000000180036ce0 f    CIL library: CIL module
 0001:00035d00       ctype_get                  0000000180036d00 f    CIL library: CIL module
 0001:00035d10       setcdataV                  0000000180036d10 f    CIL library: CIL module
 0001:00035d30       lj_cdata_new               0000000180036d30 f    CIL library: CIL module
 0001:00035d60       ctype_child                0000000180036d60 f    CIL library: CIL module
 0001:00035e00       cconv_childqual            0000000180036e00 f    CIL library: CIL module
 0001:00035e50       ctype_rawchild             0000000180036e50 f    CIL library: CIL module
 0001:00035e90       ctype_raw                  0000000180036e90 f    CIL library: CIL module
 0001:00036140       cconv_substruct_tab        0000000180037140 f    CIL library: CIL module
 0001:00036450       cconv_err_initov           0000000180037450 f    CIL library: CIL module
 0001:00036490       cconv_struct_tab           0000000180037490 f    CIL library: CIL module
 0001:00036510       cconv_array_tab            0000000180037510 f    CIL library: CIL module
 0001:00036630       cconv_err_convtv           0000000180037630 f    CIL library: CIL module
 0001:000366d0       cconv_err_conv             00000001800376d0 f    CIL library: CIL module
 0001:000373d0       cconv_substruct_init       00000001800383d0 f    CIL library: CIL module
 0001:00037560       cconv_array_init           0000000180038560 f    CIL library: CIL module
 0001:00037680       cconv_struct_init          0000000180038680 f    CIL library: CIL module
 0001:00037820       callback_mcode_init        0000000180038820 f    CIL library: CIL module
 0001:000378d0       callback_slot2ptr          00000001800388d0 f    CIL library: CIL module
 0001:00037900       CALLBACK_OFS2SLOT          0000000180038900 f    CIL library: CIL module
 0001:00037940       ctype_check                0000000180038940 f    CIL library: CIL module
 0001:00037950       lj_gc_barrierback          0000000180038950 f    CIL library: CIL module
 0001:00037970       setgcV                     0000000180038970 f    CIL library: CIL module
 0001:000379d0       ctype_get                  00000001800389d0 f    CIL library: CIL module
 0001:000379e0       setfuncV                   00000001800389e0 f    CIL library: CIL module
 0001:00037a00       setstrV                    0000000180038a00 f    CIL library: CIL module
 0001:00037a20       ctype_child                0000000180038a20 f    CIL library: CIL module
 0001:00037a40       ctype_rawchild             0000000180038a40 f    CIL library: CIL module
 0001:00037a80       ctype_raw                  0000000180038a80 f    CIL library: CIL module
 0001:00037ad0       callback_checkfunc         0000000180038ad0 f    CIL library: CIL module
 0001:00037bf0       lj_state_checkstack        0000000180038bf0 f    CIL library: CIL module
 0001:00037c20       callback_mcode_new         0000000180038c20 f    CIL library: CIL module
 0001:00037c90       callback_slot_new          0000000180038c90 f    CIL library: CIL module
 0001:00037e40       callback_conv_result       0000000180038e40 f    CIL library: CIL module
 0001:00037f40       callback_conv_args         0000000180038f40 f    CIL library: CIL module
 0001:00038250       cdata_getptr               0000000180039250 f    CIL library: CIL module
 0001:00038270       ctype_check                0000000180039270 f    CIL library: CIL module
 0001:00038280       ctype_cts                  0000000180039280 f    CIL library: CIL module
 0001:000382a0       setgcV                     00000001800392a0 f    CIL library: CIL module
 0001:000382c0       setlightudV                00000001800392c0 f    CIL library: CIL module
 0001:000382e0       ctype_get                  00000001800392e0 f    CIL library: CIL module
 0001:000382f0       setcdataV                  00000001800392f0 f    CIL library: CIL module
 0001:00038310       lj_cdata_new               0000000180039310 f    CIL library: CIL module
 0001:00038340       ctype_child                0000000180039340 f    CIL library: CIL module
 0001:00038360       ctype_rawchild             0000000180039360 f    CIL library: CIL module
 0001:000383a0       ctype_raw                  00000001800393a0 f    CIL library: CIL module
 0001:000384c0       ccall_get_results          00000001800394c0 f    CIL library: CIL module
 0001:000385c0       ccall_set_args             00000001800395c0 f    CIL library: CIL module
 0001:00038ea0       cdata_getptr               0000000180039ea0 f    CIL library: CIL module
 0001:00038ec0       ctype_check                0000000180039ec0 f    CIL library: CIL module
 0001:00038ed0       ctype_cts                  0000000180039ed0 f    CIL library: CIL module
 0001:00038ef0       copyTV                     0000000180039ef0 f    CIL library: CIL module
 0001:00038f00       setintV                    0000000180039f00 f    CIL library: CIL module
 0001:00038f20       setgcV                     0000000180039f20 f    CIL library: CIL module
 0001:00038f90       ctype_get                  0000000180039f90 f    CIL library: CIL module
 0001:00038fa0       setint64V                  0000000180039fa0 f    CIL library: CIL module
 0001:00038fc0       setcdataV                  0000000180039fc0 f    CIL library: CIL module
 0001:00038fe0       lj_cdata_new               0000000180039fe0 f    CIL library: CIL module
 0001:00039010       ctype_child                000000018003a010 f    CIL library: CIL module
 0001:00039030       ctype_rawchild             000000018003a030 f    CIL library: CIL module
 0001:00039070       ctype_raw                  000000018003a070 f    CIL library: CIL module
 0001:000390c0       lj_carith_meta             000000018003a0c0 f    CIL library: CIL module
 0001:00039350       carith_checkarg            000000018003a350 f    CIL library: CIL module
 0001:000395f0       carith_int64               000000018003a5f0 f    CIL library: CIL module
 0001:00039900       carith_ptr                 000000018003a900 f    CIL library: CIL module
 0001:00039c30       bcwrite_footer             000000018003ac30 f    CIL library: CIL module
 0001:00039c70       bcwrite_uleb128            000000018003ac70 f    CIL library: CIL module
 0001:00039cc0       bcwrite_byte               000000018003acc0 f    CIL library: CIL module
 0001:00039ce0       bcwrite_block              000000018003ace0 f    CIL library: CIL module
 0001:00039d20       lj_mem_free                000000018003ad20 f    CIL library: CIL module
 0001:00039d40       lj_fls                     000000018003ad40 f    CIL library: CIL module
 0001:00039d50       bcwrite_bytecode           000000018003ad50 f    CIL library: CIL module
 0001:00039e30       bcwrite_resize             000000018003ae30 f    CIL library: CIL module
 0001:00039e80       bcwrite_need               000000018003ae80 f    CIL library: CIL module
 0001:00039eb0       bcwrite_header             000000018003aeb0 f    CIL library: CIL module
 0001:00039f90       bcwrite_knum               000000018003af90 f    CIL library: CIL module
 0001:0003a090       bcwrite_ktabk              000000018003b090 f    CIL library: CIL module
 0001:0003a1b0       bcwrite_ktab               000000018003b1b0 f    CIL library: CIL module
 0001:0003a320       bcwrite_kgc                000000018003b320 f    CIL library: CIL module
 0001:0003a450       bcwrite_proto              000000018003b450 f    CIL library: CIL module
 0001:0003a610       cpwriter                   000000018003b610 f    CIL library: CIL module
 0001:0003a6e0       bcread_varinfo             000000018003b6e0 f    CIL library: CIL module
 0001:0003a710       bcread_uleb128_33          000000018003b710 f    CIL library: CIL module
 0001:0003a770       bcread_uleb128             000000018003b770 f    CIL library: CIL module
 0001:0003a7d0       bcread_byte                000000018003b7d0 f    CIL library: CIL module
 0001:0003a7f0       bcread_mem                 000000018003b7f0 f    CIL library: CIL module
 0001:0003a810       setintV                    000000018003b810 f    CIL library: CIL module
 0001:0003a830       setgcV                     000000018003b830 f    CIL library: CIL module
 0001:0003a840       lj_fls                     000000018003b840 f    CIL library: CIL module
 0001:0003a850       bcread_knum                000000018003b850 f    CIL library: CIL module
 0001:0003a8d0       bcread_block               000000018003b8d0 f    CIL library: CIL module
 0001:0003a900       setprotoV                  000000018003b900 f    CIL library: CIL module
 0001:0003a920       setstrV                    000000018003b920 f    CIL library: CIL module
 0001:0003a940       bcread_uv                  000000018003b940 f    CIL library: CIL module
 0001:0003a9b0       bcread_bytecode            000000018003b9b0 f    CIL library: CIL module
 0001:0003aa50       bcread_dbg                 000000018003ba50 f    CIL library: CIL module
 0001:0003ab00       bcread_resize              000000018003bb00 f    CIL library: CIL module
 0001:0003ab50       lj_cdata_new_              000000018003bb50 f    CIL library: CIL module
 0001:0003ab80       bcread_error               000000018003bb80 f    CIL library: CIL module
 0001:0003abe0       bcread_fill                000000018003bbe0 f    CIL library: CIL module
 0001:0003ad10       bcread_ktabk               000000018003bd10 f    CIL library: CIL module
 0001:0003ada0       bcread_want                000000018003bda0 f    CIL library: CIL module
 0001:0003adc0       bcread_need                000000018003bdc0 f    CIL library: CIL module
 0001:0003ade0       bcread_ktab                000000018003bde0 f    CIL library: CIL module
 0001:0003aec0       bcread_kgc                 000000018003bec0 f    CIL library: CIL module
 0001:0003b030       bcread_proto               000000018003c030 f    CIL library: CIL module
 0001:0003b360       bcread_header              000000018003c360 f    CIL library: CIL module
 0001:0003b5a0       asm_baseslot               000000018003c5a0 f    CIL library: CIL module
 0001:0003b5f0       asm_tail_prep              000000018003c5f0 f    CIL library: CIL module
 0001:0003b690       asm_loop_fixup             000000018003c690 f    CIL library: CIL module
 0001:0003b770       asm_hiop                   000000018003c770 f    CIL library: CIL module
 0001:0003b780       asm_swapops                000000018003c780 f    CIL library: CIL module
 0001:0003b830       merge_href_niltv           000000018003c830 f    CIL library: CIL module
 0001:0003b8a0       asm_callx_func             000000018003c8a0 f    CIL library: CIL module
 0001:0003b8e0       asm_count_call_slots       000000018003c8e0 f    CIL library: CIL module
 0001:0003b8f0       noconflict                 000000018003c8f0 f    CIL library: CIL module
 0001:0003b960       asm_isk32                  000000018003c960 f    CIL library: CIL module
 0001:0003b9b0       asm_stack_adjust           000000018003c9b0 f    CIL library: CIL module
 0001:0003b9d0       asm_collectargs            000000018003c9d0 f    CIL library: CIL module
 0001:0003ba70       asm_sunk_store             000000018003ca70 f    CIL library: CIL module
 0001:0003bae0       asm_snap_canremat          000000018003cae0 f    CIL library: CIL module
 0001:0003bb10       ra_releasetmp              000000018003cb10 f    CIL library: CIL module
 0001:0003bb50       ra_setup                   000000018003cb50 f    CIL library: CIL module
 0001:0003bbd0       jmprel                     000000018003cbd0 f    CIL library: CIL module
 0001:0003bbe0       emit_sfixup                000000018003cbe0 f    CIL library: CIL module
 0001:0003bc00       emit_sjcc_label            000000018003cc00 f    CIL library: CIL module
 0001:0003bc30       emit_sjcc                  000000018003cc30 f    CIL library: CIL module
 0001:0003bc60       emit_op                    000000018003cc60 f    CIL library: CIL module
 0001:0003bd20       exitstub_addr_             000000018003cd20 f    CIL library: CIL module
 0001:0003bd40       lj_ir_set_                 000000018003cd40 f    CIL library: CIL module
 0001:0003bd70       snap_nextofs               000000018003cd70 f    CIL library: CIL module
 0001:0003bda0       ir_sideeff                 000000018003cda0 f    CIL library: CIL module
 0001:0003bdd0       irt_toitype_               000000018003cdd0 f    CIL library: CIL module
 0001:0003bde0       ctype_check                000000018003cde0 f    CIL library: CIL module
 0001:0003bdf0       bc_isret                   000000018003cdf0 f    CIL library: CIL module
 0001:0003be20       hashrot                    000000018003ce20 f    CIL library: CIL module
 0001:0003be40       setintV                    000000018003ce40 f    CIL library: CIL module
 0001:0003be60       lj_fls                     000000018003ce60 f    CIL library: CIL module
 0001:0003be70       lj_ffs                     000000018003ce70 f    CIL library: CIL module
 0001:0003be80       asm_setup_call_slots       000000018003ce80 f    CIL library: CIL module
 0001:0003bf00       asm_tail_fixup             000000018003cf00 f    CIL library: CIL module
 0001:0003c010       asm_fuseabase              000000018003d010 f    CIL library: CIL module
 0001:0003c0d0       ir_khash                   000000018003d0d0 f    CIL library: CIL module
 0001:0003c140       ra_spill                   000000018003d140 f    CIL library: CIL module
 0001:0003c1e0       emit_jmp                   000000018003d1e0 f    CIL library: CIL module
 0001:0003c210       emit_jcc                   000000018003d210 f    CIL library: CIL module
 0001:0003c240       emit_mrm                   000000018003d240 f    CIL library: CIL module
 0001:0003c3e0       emit_gri                   000000018003d3e0 f    CIL library: CIL module
 0001:0003c4d0       emit_rmrxo                 000000018003d4d0 f    CIL library: CIL module
 0001:0003c580       emit_rmro                  000000018003d580 f    CIL library: CIL module
 0001:0003c690       emit_rma                   000000018003d690 f    CIL library: CIL module
 0001:0003c720       emit_rr                    000000018003d720 f    CIL library: CIL module
 0001:0003c7d0       ctype_get                  000000018003d7d0 f    CIL library: CIL module
 0001:0003c900       asm_head_side_base         000000018003d900 f    CIL library: CIL module
 0001:0003c9e0       asm_head_root_base         000000018003d9e0 f    CIL library: CIL module
 0001:0003ca50       asm_stack_check            000000018003da50 f    CIL library: CIL module
 0001:0003cbd0       asm_guardcc                000000018003dbd0 f    CIL library: CIL module
 0001:0003cc40       asm_callx_flags            000000018003dc40 f    CIL library: CIL module
 0001:0003ccf0       asm_snap_checkrename       000000018003dcf0 f    CIL library: CIL module
 0001:0003cd70       emit_addptr                000000018003dd70 f    CIL library: CIL module
 0001:0003cdc0       emit_spstore               000000018003ddc0 f    CIL library: CIL module
 0001:0003ce40       emit_spload                000000018003de40 f    CIL library: CIL module
 0001:0003cec0       emit_movrr                 000000018003dec0 f    CIL library: CIL module
 0001:0003cf20       emit_loadn                 000000018003df20 f    CIL library: CIL module
 0001:0003cf60       emit_loadi                 000000018003df60 f    CIL library: CIL module
 0001:0003cfc0       emit_movmroi               000000018003dfc0 f    CIL library: CIL module
 0001:0003d000       emit_gmrmi                 000000018003e000 f    CIL library: CIL module
 0001:0003d060       emit_gmroi                 000000018003e060 f    CIL library: CIL module
 0001:0003d0c0       asm_setup_regsp            000000018003e0c0 f    CIL library: CIL module
 0001:0003d620       asm_head_root              000000018003e620 f    CIL library: CIL module
 0001:0003d6b0       asm_phi_copyspill          000000018003e6b0 f    CIL library: CIL module
 0001:0003d900       ra_save                    000000018003e900 f    CIL library: CIL module
 0001:0003d920       emit_loadu64               000000018003e920 f    CIL library: CIL module
 0001:0003d9b0       lj_ir_nextins              000000018003e9b0 f    CIL library: CIL module
 0001:0003d9f0       asm_phi_fixup              000000018003e9f0 f    CIL library: CIL module
 0001:0003db00       ra_rename                  000000018003eb00 f    CIL library: CIL module
 0001:0003dc00       ra_rematk                  000000018003ec00 f    CIL library: CIL module
 0001:0003dcd0       emit_call_                 000000018003ecd0 f    CIL library: CIL module
 0001:0003dd50       asm_mclimit                000000018003ed50 f    CIL library: CIL module
 0001:0003dd80       asm_exitstub_gen           000000018003ed80 f    CIL library: CIL module
 0001:0003de80       ra_evictk                  000000018003ee80 f    CIL library: CIL module
 0001:0003df60       ra_restore                 000000018003ef60 f    CIL library: CIL module
 0001:0003e000       asm_exitstub_setup         000000018003f000 f    CIL library: CIL module
 0001:0003e0a0       ra_evictset                000000018003f0a0 f    CIL library: CIL module
 0001:0003e170       ra_evict                   000000018003f170 f    CIL library: CIL module
 0001:0003e3d0       asm_setup_target           000000018003f3d0 f    CIL library: CIL module
 0001:0003e3f0       ra_allocref                000000018003f3f0 f    CIL library: CIL module
 0001:0003e500       ra_pick                    000000018003f500 f    CIL library: CIL module
 0001:0003e520       asm_head_side              000000018003f520 f    CIL library: CIL module
 0001:0003ea50       asm_phi_break              000000018003fa50 f    CIL library: CIL module
 0001:0003eab0       asm_snap_alloc1            000000018003fab0 f    CIL library: CIL module
 0001:0003ec80       ra_left                    000000018003fc80 f    CIL library: CIL module
 0001:0003edb0       ra_alloc1                  000000018003fdb0 f    CIL library: CIL module
 0001:0003ee00       ra_scratch                 000000018003fe00 f    CIL library: CIL module
 0001:0003ee30       asm_stack_restore          000000018003fe30 f    CIL library: CIL module
 0001:0003f050       asm_tbar                   0000000180040050 f    CIL library: CIL module
 0001:0003f180       asm_retf                   0000000180040180 f    CIL library: CIL module
 0001:0003f250       asm_gencall                0000000180040250 f    CIL library: CIL module
 0001:0003f4a0       asm_fusestrref             00000001800404a0 f    CIL library: CIL module
 0001:0003f580       asm_fusefref               0000000180040580 f    CIL library: CIL module
 0001:0003f5f0       asm_fusearef               00000001800405f0 f    CIL library: CIL module
 0001:0003f6a0       asm_phi                    00000001800406a0 f    CIL library: CIL module
 0001:0003f800       asm_phi_shuffle            0000000180040800 f    CIL library: CIL module
 0001:0003faa0       asm_snap_alloc             0000000180040aa0 f    CIL library: CIL module
 0001:0003fb20       ra_dest                    0000000180040b20 f    CIL library: CIL module
 0001:0003fbc0       asm_tail_link              0000000180040bc0 f    CIL library: CIL module
 0001:0003fdf0       asm_gc_check               0000000180040df0 f    CIL library: CIL module
 0001:0003ff20       asm_bitshift               0000000180040f20 f    CIL library: CIL module
 0001:00040100       asm_bitswap                0000000180041100 f    CIL library: CIL module
 0001:000401f0       asm_min_max                00000001800411f0 f    CIL library: CIL module
 0001:00040300       asm_neg_not                0000000180041300 f    CIL library: CIL module
 0001:00040390       asm_lea                    0000000180041390 f    CIL library: CIL module
 0001:00040620       asm_obar                   0000000180041620 f    CIL library: CIL module
 0001:00040790       asm_load_lightud64         0000000180041790 f    CIL library: CIL module
 0001:00040890       asm_strref                 0000000180041890 f    CIL library: CIL module
 0001:00040960       asm_fref                   0000000180041960 f    CIL library: CIL module
 0001:000409c0       asm_uref                   00000001800419c0 f    CIL library: CIL module
 0001:00040b10       asm_hrefk                  0000000180041b10 f    CIL library: CIL module
 0001:00040cd0       asm_href                   0000000180041cd0 f    CIL library: CIL module
 0001:000412f0       asm_aref                   00000001800422f0 f    CIL library: CIL module
 0001:00041390       asm_strto                  0000000180042390 f    CIL library: CIL module
 0001:00041450       asm_tointg                 0000000180042450 f    CIL library: CIL module
 0001:00041520       asm_fusexref               0000000180042520 f    CIL library: CIL module
 0001:00041710       asm_fuseahuref             0000000180042710 f    CIL library: CIL module
 0001:00041830       asm_loop                   0000000180042830 f    CIL library: CIL module
 0001:000418d0       asm_gcstep                 00000001800428d0 f    CIL library: CIL module
 0001:00041960       asm_snap_prep              0000000180042960 f    CIL library: CIL module
 0001:00041a60       ra_destreg                 0000000180042a60 f    CIL library: CIL module
 0001:00041ad0       asm_fppowi                 0000000180042ad0 f    CIL library: CIL module
 0001:00041b50       fpmjoin_pow                0000000180042b50 f    CIL library: CIL module
 0001:00041c90       asm_sload                  0000000180042c90 f    CIL library: CIL module
 0001:00041f20       asm_ahustore               0000000180042f20 f    CIL library: CIL module
 0001:000420f0       asm_ahuvload               00000001800430f0 f    CIL library: CIL module
 0001:00042260       asm_fxstore                0000000180043260 f    CIL library: CIL module
 0001:00042480       asm_fxload                 0000000180043480 f    CIL library: CIL module
 0001:00042590       asm_setupresult            0000000180043590 f    CIL library: CIL module
 0001:000426b0       asm_fuseload               00000001800436b0 f    CIL library: CIL module
 0001:00042900       asm_tdup                   0000000180043900 f    CIL library: CIL module
 0001:00042950       asm_tnew                   0000000180043950 f    CIL library: CIL module
 0001:000429d0       asm_snew                   00000001800439d0 f    CIL library: CIL module
 0001:00042a30       asm_fparith                0000000180043a30 f    CIL library: CIL module
 0001:00042b20       asm_intmod                 0000000180043b20 f    CIL library: CIL module
 0001:00042b70       asm_arith64                0000000180043b70 f    CIL library: CIL module
 0001:00042bd0       asm_x87load                0000000180043bd0 f    CIL library: CIL module
 0001:00042d00       asm_cnew                   0000000180043d00 f    CIL library: CIL module
 0001:00042f10       asm_newref                 0000000180043f10 f    CIL library: CIL module
 0001:000430b0       asm_tostr                  00000001800440b0 f    CIL library: CIL module
 0001:00043190       asm_tobit                  0000000180044190 f    CIL library: CIL module
 0001:00043270       asm_callx                  0000000180044270 f    CIL library: CIL module
 0001:00043340       asm_call                   0000000180044340 f    CIL library: CIL module
 0001:000433b0       asm_fuseloadm              00000001800443b0 f    CIL library: CIL module
 0001:000433f0       asm_comp                   00000001800443f0 f    CIL library: CIL module
 0001:000439a0       asm_intarith               00000001800449a0 f    CIL library: CIL module
 0001:00043c30       asm_fpmath                 0000000180044c30 f    CIL library: CIL module
 0001:00043ff0       asm_conv                   0000000180044ff0 f    CIL library: CIL module
 0001:000444d0       asm_add                    00000001800454d0 f    CIL library: CIL module
 0001:00044560       asm_ir                     0000000180045560 f    CIL library: CIL module
 0001:00044e40       getcurrenv                 0000000180045e40 f    CIL library: CIL module
 0001:00044e60       stkindex2adr               0000000180045e60 f    CIL library: CIL module
 0001:00044ea0       lj_gc_barrierback          0000000180045ea0 f    CIL library: CIL module
 0001:00044ec0       numberVnum                 0000000180045ec0 f    CIL library: CIL module
 0001:00044ed0       copyTV                     0000000180045ed0 f    CIL library: CIL module
 0001:00044ee0       setintV                    0000000180045ee0 f    CIL library: CIL module
 0001:00044f00       setgcV                     0000000180045f00 f    CIL library: CIL module
 0001:00044f10       setlightudV                0000000180045f10 f    CIL library: CIL module
 0001:00044f30       lj_fls                     0000000180045f30 f    CIL library: CIL module
 0001:00045070       setint64V                  0000000180046070 f    CIL library: CIL module
 0001:00045090       setudataV                  0000000180046090 f    CIL library: CIL module
 0001:000450b0       settabV                    00000001800460b0 f    CIL library: CIL module
 0001:000450d0       setfuncV                   00000001800460d0 f    CIL library: CIL module
 0001:000450f0       setthreadV                 00000001800460f0 f    CIL library: CIL module
 0001:00045110       setstrV                    0000000180046110 f    CIL library: CIL module
 0001:00045130       index2adr                  0000000180046130 f    CIL library: CIL module
 0001:000459f0       lj_state_checkstack        00000001800469f0 f    CIL library: CIL module
 0001:00045fa0       cpcall                     0000000180046fa0 f    CIL library: CIL module
 0001:00047710       init_bins                  0000000180048710 f    CIL library: CIL module
 0001:00047740       init_top                   0000000180048740 f    CIL library: CIL module
 0001:00047790       direct_resize              0000000180048790 f    CIL library: CIL module
 0001:000477d0       has_segment_link           00000001800487d0 f    CIL library: CIL module
 0001:00047810       segment_holding            0000000180048810 f    CIL library: CIL module
 0001:00047840       CALL_MUNMAP                0000000180048840 f    CIL library: CIL module
 0001:000478f0       DIRECT_MMAP                00000001800488f0 f    CIL library: CIL module
 0001:00047970       CALL_MMAP                  0000000180048970 f    CIL library: CIL module
 0001:000479f0       INIT_MMAP                  00000001800489f0 f    CIL library: CIL module
 0001:00047a30       lj_fls                     0000000180048a30 f    CIL library: CIL module
 0001:00047a40       lj_ffs                     0000000180048a40 f    CIL library: CIL module
 0001:00047c30       tmalloc_small              0000000180048c30 f    CIL library: CIL module
 0001:00047e10       tmalloc_large              0000000180048e10 f    CIL library: CIL module
 0001:000481f0       release_unused_segments    00000001800491f0 f    CIL library: CIL module
 0001:00048600       add_segment                0000000180049600 f    CIL library: CIL module
 0001:00048870       prepend_alloc              0000000180049870 f    CIL library: CIL module
 0001:00048bc0       direct_alloc               0000000180049bc0 f    CIL library: CIL module
 0001:00048cb0       alloc_trim                 0000000180049cb0 f    CIL library: CIL module
 0001:00048e40       alloc_sys                  0000000180049e40 f    CIL library: CIL module
 0001:00049020       lj_alloc_free              000000018004a020 f    CIL library: CIL module
 0001:00049550       lj_alloc_malloc            000000018004a550 f    CIL library: CIL module
 0001:00049840       lj_alloc_realloc           000000018004a840 f    CIL library: CIL module
 0001:000499f0       lj_gc_barrierback          000000018004a9f0 f    CIL library: CIL module
 0001:00049a10       numberVnum                 000000018004aa10 f    CIL library: CIL module
 0001:00049a20       copyTV                     000000018004aa20 f    CIL library: CIL module
 0001:00049a30       setintV                    000000018004aa30 f    CIL library: CIL module
 0001:00049a50       setgcV                     000000018004aa50 f    CIL library: CIL module
 0001:00049a70       setfuncV                   000000018004aa70 f    CIL library: CIL module
 0001:00049a90       set2                       000000018004aa90 f    CIL library: CIL module
 0001:00049ad0       sort_comp                  000000018004aad0 f    CIL library: CIL module
 0001:00049b80       auxsort                    000000018004ab80 f    CIL library: CIL module
 0001:00049e90       lj_cf_table_sort           000000018004ae90 f    CIL library: CIL module
 0001:00049f00       lj_cf_table_insert         000000018004af00 f    CIL library: CIL module
 0001:0004a050       lj_cf_table_maxn           000000018004b050 f    CIL library: CIL module
 0001:0004a100       lj_ffh_table_getn          000000018004b100 f    CIL library: CIL module
 0001:0004a120       lj_cf_table_foreach        000000018004b120 f    CIL library: CIL module
 0001:0004a210       lj_cf_table_foreachi       000000018004b210 f    CIL library: CIL module
 0001:0004a320       lj_cf_table_remove         000000018004b320 f    CIL library: CIL module
 0001:0004a4a0       lj_cf_table_concat         000000018004b4a0 f    CIL library: CIL module
 0001:0004a600       addintlen                  000000018004b600 f    CIL library: CIL module
 0001:0004a640       posrelat                   000000018004b640 f    CIL library: CIL module
 0001:0004a660       lmemfind                   000000018004b660 f    CIL library: CIL module
 0001:0004a710       match_class                000000018004b710 f    CIL library: CIL module
 0001:0004a780       copyTV                     000000018004b780 f    CIL library: CIL module
 0001:0004a790       setintV                    000000018004b790 f    CIL library: CIL module
 0001:0004a7b0       setgcV                     000000018004b7b0 f    CIL library: CIL module
 0001:0004a7c0       matchbracketclass          000000018004b7c0 f    CIL library: CIL module
 0001:0004a880       settabV                    000000018004b880 f    CIL library: CIL module
 0001:0004a8a0       setstrV                    000000018004b8a0 f    CIL library: CIL module
 0001:0004a8c0       singlematch                000000018004b8c0 f    CIL library: CIL module
 0001:0004a900       min_expand                 000000018004b900 f    CIL library: CIL module
 0001:0004a990       max_expand                 000000018004b990 f    CIL library: CIL module
 0001:0004aa40       lj_state_checkstack        000000018004ba40 f    CIL library: CIL module
 0001:0004aa70       meta_tostring              000000018004ba70 f    CIL library: CIL module
 0001:0004ac50       scanformat                 000000018004bc50 f    CIL library: CIL module
 0001:0004ad60       start_capture              000000018004bd60 f    CIL library: CIL module
 0001:0004adc0       matchbalance               000000018004bdc0 f    CIL library: CIL module
 0001:0004ae30       classend                   000000018004be30 f    CIL library: CIL module
 0001:0004aeb0       capture_to_close           000000018004beb0 f    CIL library: CIL module
 0001:0004af00       check_capture              000000018004bf00 f    CIL library: CIL module
 0001:0004af40       match_capture              000000018004bf40 f    CIL library: CIL module
 0001:0004afc0       end_capture                000000018004bfc0 f    CIL library: CIL module
 0001:0004b040       num2uintfrm                000000018004c040 f    CIL library: CIL module
 0001:0004b050       num2intfrm                 000000018004c050 f    CIL library: CIL module
 0001:0004b060       match                      000000018004c060 f    CIL library: CIL module
 0001:0004b340       lj_ffh_string_reverse      000000018004c340 f    CIL library: CIL module
 0001:0004b380       lj_ffh_string_char         000000018004c380 f    CIL library: CIL module
 0001:0004b450       lj_ffh_string_len          000000018004c450 f    CIL library: CIL module
 0001:0004b470       push_onecapture            000000018004c470 f    CIL library: CIL module
 0001:0004b510       lj_ffh_string_rep          000000018004c510 f    CIL library: CIL module
 0001:0004b6c0       lj_ffh_string_sub          000000018004c6c0 f    CIL library: CIL module
 0001:0004b710       lj_ffh_string_byte         000000018004c710 f    CIL library: CIL module
 0001:0004b890       lj_lib_pushcc              000000018004c890 f    CIL library: CIL module
 0001:0004b8d0       push_captures              000000018004c8d0 f    CIL library: CIL module
 0001:0004ba10       lj_cf_string_gmatch_aux    000000018004ca10 f    CIL library: CIL module
 0001:0004bae0       str_find_aux               000000018004cae0 f    CIL library: CIL module
 0001:0004bcc0       addquoted                  000000018004ccc0 f    CIL library: CIL module
 0001:0004be70       lj_cf_string_gmatch        000000018004ce70 f    CIL library: CIL module
 0001:0004bef0       lj_cf_string_match         000000018004cef0 f    CIL library: CIL module
 0001:0004bf00       lj_cf_string_find          000000018004cf00 f    CIL library: CIL module
 0001:0004bf10       lj_cf_string_format        000000018004cf10 f    CIL library: CIL module
 0001:0004c2a0       add_s                      000000018004d2a0 f    CIL library: CIL module
 0001:0004c3b0       writer_buf                 000000018004d3b0 f    CIL library: CIL module
 0001:0004c3d0       add_value                  000000018004d3d0 f    CIL library: CIL module
 0001:0004c500       lj_cf_string_dump          000000018004d500 f    CIL library: CIL module
 0001:0004c5a0       lj_cf_string_gsub          000000018004d5a0 f    CIL library: CIL module
 0001:0004c770       readable                   000000018004d770 f    CIL library: CIL module
 0001:0004c7b0       ll_bcsym                   000000018004d7b0 f    CIL library: CIL module
 0001:0004c830       ll_unloadlib               000000018004d830 f    CIL library: CIL module
 0001:0004c840       dooptions                  000000018004d840 f    CIL library: CIL module
 0001:0004c8b0       setfenv                    000000018004d8b0 f    CIL library: CIL module
 0001:0004c940       lj_cf_package_unloadlib    000000018004d940 f    CIL library: CIL module
 0001:0004c990       lj_cf_package_seeall       000000018004d990 f    CIL library: CIL module
 0001:0004ca10       modinit                    000000018004da10 f    CIL library: CIL module
 0001:0004cab0       loaderror                  000000018004dab0 f    CIL library: CIL module
 0001:0004cb10       pushnexttemplate           000000018004db10 f    CIL library: CIL module
 0001:0004cba0       ll_register                000000018004dba0 f    CIL library: CIL module
 0001:0004cc80       pusherror                  000000018004dc80 f    CIL library: CIL module
 0001:0004cd10       lj_lib_pushcc              000000018004dd10 f    CIL library: CIL module
 0001:0004cd50       lj_cf_package_module       000000018004dd50 f    CIL library: CIL module
 0001:0004ce70       lj_cf_package_require      000000018004de70 f    CIL library: CIL module
 0001:0004d100       ll_sym                     000000018004e100 f    CIL library: CIL module
 0001:0004d140       ll_load                    000000018004e140 f    CIL library: CIL module
 0001:0004d180       searchpath                 000000018004e180 f    CIL library: CIL module
 0001:0004d290       mksymname                  000000018004e290 f    CIL library: CIL module
 0001:0004d310       setprogdir                 000000018004e310 f    CIL library: CIL module
 0001:0004d3b0       setpath                    000000018004e3b0 f    CIL library: CIL module
 0001:0004d460       findfile                   000000018004e460 f    CIL library: CIL module
 0001:0004d4e0       lj_cf_package_searchpath   000000018004e4e0 f    CIL library: CIL module
 0001:0004d800       lj_cf_package_loader_preload 000000018004e800 f    CIL library: CIL module
 0001:0004d8d0       lj_cf_package_loader_lua   000000018004e8d0 f    CIL library: CIL module
 0001:0004d940       ll_loadfunc                000000018004e940 f    CIL library: CIL module
 0001:0004da70       lj_cf_package_loader_croot 000000018004ea70 f    CIL library: CIL module
 0001:0004db40       lj_cf_package_loader_c     000000018004eb40 f    CIL library: CIL module
 0001:0004dbc0       lj_cf_package_loadlib      000000018004ebc0 f    CIL library: CIL module
 0001:0004dc60       lj_cf_os_clock             000000018004ec60 f    CIL library: CIL module
 0001:0004dcb0       setintV                    000000018004ecb0 f    CIL library: CIL module
 0001:0004dcd0       time                       000000018004ecd0 f    CIL library: CIL module
 0001:0004dce0       mktime                     000000018004ece0 f    CIL library: CIL module
 0001:0004dcf0       localtime                  000000018004ecf0 f    CIL library: CIL module
 0001:0004dd00       gmtime                     000000018004ed00 f    CIL library: CIL module
 0001:0004dd10       difftime                   000000018004ed10 f    CIL library: CIL module
 0001:0004dd20       getboolfield               000000018004ed20 f    CIL library: CIL module
 0001:0004dd80       setboolfield               000000018004ed80 f    CIL library: CIL module
 0001:0004ddc0       setfield                   000000018004edc0 f    CIL library: CIL module
 0001:0004de00       getfield                   000000018004ee00 f    CIL library: CIL module
 0001:0004de80       lj_cf_os_difftime          000000018004ee80 f    CIL library: CIL module
 0001:0004dee0       lj_cf_os_time              000000018004eee0 f    CIL library: CIL module
 0001:0004e010       lj_cf_os_getenv            000000018004f010 f    CIL library: CIL module
 0001:0004e050       lj_cf_os_tmpname           000000018004f050 f    CIL library: CIL module
 0001:0004e0a0       lj_cf_os_execute           000000018004f0a0 f    CIL library: CIL module
 0001:0004e0f0       lj_cf_os_setlocale         000000018004f0f0 f    CIL library: CIL module
 0001:0004e1b0       lj_cf_os_exit              000000018004f1b0 f    CIL library: CIL module
 0001:0004e230       lj_cf_os_rename            000000018004f230 f    CIL library: CIL module
 0001:0004e290       lj_cf_os_remove            000000018004f290 f    CIL library: CIL module
 0001:0004e310       lj_cf_os_date              000000018004f310 f    CIL library: CIL module
 0001:0004e690       random_init                000000018004f690 f    CIL library: CIL module
 0001:0004e710       lj_cf_math_randomseed      000000018004f710 f    CIL library: CIL module
 0001:0004e750       lj_cf_math_random          000000018004f750 f    CIL library: CIL module
 0001:0004e850       lj_ffh_math_min            000000018004f850 f    CIL library: CIL module
 0001:0004e890       lj_ffh_math_ldexp          000000018004f890 f    CIL library: CIL module
 0001:0004e8c0       lj_ffh_math_atan2          000000018004f8c0 f    CIL library: CIL module
 0001:0004e8f0       lj_ffh_math_log            000000018004f8f0 f    CIL library: CIL module
 0001:0004e990       lj_ffh_math_sqrt           000000018004f990 f    CIL library: CIL module
 0001:0004e9b0       lj_ffh_math_abs            000000018004f9b0 f    CIL library: CIL module
 0001:0004ea40       jit_cpudetect              000000018004fa40 f    CIL library: CIL module
 0001:0004eb40       jitopt_param               000000018004fb40 f    CIL library: CIL module
 0001:0004ec10       jitopt_flag                000000018004fc10 f    CIL library: CIL module
 0001:0004ecf0       jitopt_level               000000018004fcf0 f    CIL library: CIL module
 0001:0004ed50       exitstub_addr_             000000018004fd50 f    CIL library: CIL module
 0001:0004ed70       copyTV                     000000018004fd70 f    CIL library: CIL module
 0001:0004ed80       setintV                    000000018004fd80 f    CIL library: CIL module
 0001:0004eda0       setgcV                     000000018004fda0 f    CIL library: CIL module
 0001:0004edb0       jit_init                   000000018004fdb0 f    CIL library: CIL module
 0001:0004ee00       setint64V                  000000018004fe00 f    CIL library: CIL module
 0001:0004ee20       setstrV                    000000018004fe20 f    CIL library: CIL module
 0001:0004ee40       flagbits_to_strings        000000018004fe40 f    CIL library: CIL module
 0001:0004eed0       lj_cf_jit_status           000000018004fed0 f    CIL library: CIL module
 0001:0004ef60       setintfield                000000018004ff60 f    CIL library: CIL module
 0001:0004efe0       lj_cf_jit_opt_start        000000018004ffe0 f    CIL library: CIL module
 0001:0004f0b0       lj_cf_jit_util_ircalladdr  00000001800500b0 f    CIL library: CIL module
 0001:0004f100       lj_cf_jit_util_traceexitstub 0000000180050100 f    CIL library: CIL module
 0001:0004f170       jit_checktrace             0000000180050170 f    CIL library: CIL module
 0001:0004f1c0       check_Lproto               00000001800501c0 f    CIL library: CIL module
 0001:0004f220       setjitmode                 0000000180050220 f    CIL library: CIL module
 0001:0004f2d0       lj_cf_jit_util_tracemc     00000001800502d0 f    CIL library: CIL module
 0001:0004f370       lj_cf_jit_util_tracesnap   0000000180050370 f    CIL library: CIL module
 0001:0004f500       lj_cf_jit_util_tracek      0000000180050500 f    CIL library: CIL module
 0001:0004f5f0       lj_cf_jit_util_traceir     00000001800505f0 f    CIL library: CIL module
 0001:0004f720       lj_cf_jit_util_traceinfo   0000000180050720 f    CIL library: CIL module
 0001:0004f850       lj_cf_jit_util_funcuvname  0000000180050850 f    CIL library: CIL module
 0001:0004f8f0       lj_cf_jit_util_funck       00000001800508f0 f    CIL library: CIL module
 0001:0004f990       lj_cf_jit_util_funcbc      0000000180050990 f    CIL library: CIL module
 0001:0004fa20       lj_cf_jit_util_funcinfo    0000000180050a20 f    CIL library: CIL module
 0001:0004fc90       lj_cf_jit_flush            0000000180050c90 f    CIL library: CIL module
 0001:0004fce0       lj_cf_jit_off              0000000180050ce0 f    CIL library: CIL module
 0001:0004fcf0       lj_cf_jit_on               0000000180050cf0 f    CIL library: CIL module
 0001:0004fd00       lj_cf_jit_attach           0000000180050d00 f    CIL library: CIL module
 0001:0004ff10       copyTV                     0000000180050f10 f    CIL library: CIL module
 0001:0004ff20       setintV                    0000000180050f20 f    CIL library: CIL module
 0001:0004ff40       setgcV                     0000000180050f40 f    CIL library: CIL module
 0001:0004ff50       io_file_readnum            0000000180050f50 f    CIL library: CIL module
 0001:0004ffc0       setint64V                  0000000180050fc0 f    CIL library: CIL module
 0001:0004ffe0       setudataV                  0000000180050fe0 f    CIL library: CIL module
 0001:00050000       setstrV                    0000000180051000 f    CIL library: CIL module
 0001:00050020       lj_state_checkstack        0000000180051020 f    CIL library: CIL module
 0001:00050050       io_file_readlen            0000000180051050 f    CIL library: CIL module
 0001:00050130       io_file_readall            0000000180051130 f    CIL library: CIL module
 0001:00050210       io_file_readline           0000000180051210 f    CIL library: CIL module
 0001:00050320       io_stdfile                 0000000180051320 f    CIL library: CIL module
 0001:00050350       io_tofilep                 0000000180051350 f    CIL library: CIL module
 0001:00050390       io_tofile                  0000000180051390 f    CIL library: CIL module
 0001:000503c0       io_std_new                 00000001800513c0 f    CIL library: CIL module
 0001:00050440       lj_cf_io_type              0000000180051440 f    CIL library: CIL module
 0001:000504d0       lj_cf_io_method___tostring 00000001800514d0 f    CIL library: CIL module
 0001:00050530       io_file_new                0000000180051530 f    CIL library: CIL module
 0001:00050580       lj_cf_io_flush             0000000180051580 f    CIL library: CIL module
 0001:000505c0       lj_cf_io_tmpfile           00000001800515c0 f    CIL library: CIL module
 0001:00050610       lj_cf_io_popen             0000000180051610 f    CIL library: CIL module
 0001:000506b0       lj_cf_io_open              00000001800516b0 f    CIL library: CIL module
 0001:00050750       lj_cf_io_method_setvbuf    0000000180051750 f    CIL library: CIL module
 0001:00050800       lj_cf_io_method_seek       0000000180051800 f    CIL library: CIL module
 0001:000508f0       lj_cf_io_method_flush      00000001800518f0 f    CIL library: CIL module
 0001:00050930       io_file_write              0000000180051930 f    CIL library: CIL module
 0001:00050a10       io_file_read               0000000180051a10 f    CIL library: CIL module
 0001:00050bb0       io_file_close              0000000180051bb0 f    CIL library: CIL module
 0001:00050c50       io_file_open               0000000180051c50 f    CIL library: CIL module
 0001:00050dc0       io_std_getset              0000000180051dc0 f    CIL library: CIL module
 0001:00050e60       lj_cf_io_write             0000000180051e60 f    CIL library: CIL module
 0001:00050e90       lj_cf_io_read              0000000180051e90 f    CIL library: CIL module
 0001:00050ec0       lj_cf_io_method___gc       0000000180051ec0 f    CIL library: CIL module
 0001:00050f00       lj_cf_io_method_write      0000000180051f00 f    CIL library: CIL module
 0001:00050f30       lj_cf_io_method_read       0000000180051f30 f    CIL library: CIL module
 0001:00050f60       lj_cf_io_method_close      0000000180051f60 f    CIL library: CIL module
 0001:00050fb0       io_file_iter               0000000180051fb0 f    CIL library: CIL module
 0001:000510b0       lj_cf_io_lines             00000001800520b0 f    CIL library: CIL module
 0001:00051150       lj_cf_io_output            0000000180052150 f    CIL library: CIL module
 0001:00051170       lj_cf_io_input             0000000180052170 f    CIL library: CIL module
 0001:00051190       lj_cf_io_close             0000000180052190 f    CIL library: CIL module
 0001:000511a0       lj_cf_io_method_lines      00000001800521a0 f    CIL library: CIL module
 0001:000511e0       cdata_getptr               00000001800521e0 f    CIL library: CIL module
 0001:00051200       ctype_check                0000000180052200 f    CIL library: CIL module
 0001:00051210       ctype_cts                  0000000180052210 f    CIL library: CIL module
 0001:00051230       lj_gc_barrierback          0000000180052230 f    CIL library: CIL module
 0001:00051250       copyTV                     0000000180052250 f    CIL library: CIL module
 0001:00051260       setintV                    0000000180052260 f    CIL library: CIL module
 0001:00051280       setgcV                     0000000180052280 f    CIL library: CIL module
 0001:00051290       lj_cf_ffi_clib___gc        0000000180052290 f    CIL library: CIL module
 0001:000512d0       ctype_get                  00000001800522d0 f    CIL library: CIL module
 0001:000512e0       settabV                    00000001800522e0 f    CIL library: CIL module
 0001:00051300       setcdataV                  0000000180052300 f    CIL library: CIL module
 0001:00051320       setfuncV                   0000000180052320 f    CIL library: CIL module
 0001:00051340       setstrV                    0000000180052340 f    CIL library: CIL module
 0001:00051360       lj_cdata_new               0000000180052360 f    CIL library: CIL module
 0001:00051390       ctype_child                0000000180052390 f    CIL library: CIL module
 0001:000513b0       ctype_rawchild             00000001800523b0 f    CIL library: CIL module
 0001:000513f0       ctype_raw                  00000001800523f0 f    CIL library: CIL module
 0001:00051440       ffi_register_module        0000000180052440 f    CIL library: CIL module
 0001:000514e0       ffi_finalizer              00000001800524e0 f    CIL library: CIL module
 0001:00051580       ffi_index_meta             0000000180052580 f    CIL library: CIL module
 0001:000516d0       lj_cf_ffi_load             00000001800526d0 f    CIL library: CIL module
 0001:00051730       lj_cf_ffi_abi              0000000180052730 f    CIL library: CIL module
 0001:000517a0       ffi_clib_index             00000001800527a0 f    CIL library: CIL module
 0001:00051810       ffi_checkcdata             0000000180052810 f    CIL library: CIL module
 0001:00051840       lj_cf_ffi_gc               0000000180052840 f    CIL library: CIL module
 0001:00051970       ffi_callback_set           0000000180052970 f    CIL library: CIL module
 0001:00051ae0       lj_cf_ffi_clib___newindex  0000000180052ae0 f    CIL library: CIL module
 0001:00051bd0       lj_cf_ffi_clib___index     0000000180052bd0 f    CIL library: CIL module
 0001:00051cd0       ffi_pairs                  0000000180052cd0 f    CIL library: CIL module
 0001:00051dd0       lj_cf_ffi_meta___tostring  0000000180052dd0 f    CIL library: CIL module
 0001:00051fe0       ffi_checkint               0000000180052fe0 f    CIL library: CIL module
 0001:00052050       ffi_checkptr               0000000180053050 f    CIL library: CIL module
 0001:000520c0       lj_cf_ffi_fill             00000001800530c0 f    CIL library: CIL module
 0001:00052140       lj_cf_ffi_copy             0000000180053140 f    CIL library: CIL module
 0001:000521d0       lj_cf_ffi_string           00000001800531d0 f    CIL library: CIL module
 0001:000522d0       lj_cf_ffi_errno            00000001800532d0 f    CIL library: CIL module
 0001:00052340       lj_cf_ffi_callback_set     0000000180053340 f    CIL library: CIL module
 0001:00052370       lj_cf_ffi_callback_free    0000000180053370 f    CIL library: CIL module
 0001:00052380       lj_cf_ffi_meta___ipairs    0000000180053380 f    CIL library: CIL module
 0001:00052390       lj_cf_ffi_meta___pairs     0000000180053390 f    CIL library: CIL module
 0001:000523a0       ffi_arith                  00000001800533a0 f    CIL library: CIL module
 0001:000523c0       lj_cf_ffi_meta___newindex  00000001800533c0 f    CIL library: CIL module
 0001:000524a0       lj_cf_ffi_meta___index     00000001800534a0 f    CIL library: CIL module
 0001:000526c0       lj_cf_ffi_meta___unm       00000001800536c0 f    CIL library: CIL module
 0001:000526d0       lj_cf_ffi_meta___pow       00000001800536d0 f    CIL library: CIL module
 0001:000526e0       lj_cf_ffi_meta___mod       00000001800536e0 f    CIL library: CIL module
 0001:000526f0       lj_cf_ffi_meta___div       00000001800536f0 f    CIL library: CIL module
 0001:00052700       lj_cf_ffi_meta___mul       0000000180053700 f    CIL library: CIL module
 0001:00052710       lj_cf_ffi_meta___sub       0000000180053710 f    CIL library: CIL module
 0001:00052720       lj_cf_ffi_meta___add       0000000180053720 f    CIL library: CIL module
 0001:00052730       lj_cf_ffi_meta___concat    0000000180053730 f    CIL library: CIL module
 0001:00052740       lj_cf_ffi_meta___le        0000000180053740 f    CIL library: CIL module
 0001:00052750       lj_cf_ffi_meta___lt        0000000180053750 f    CIL library: CIL module
 0001:00052760       lj_cf_ffi_meta___len       0000000180053760 f    CIL library: CIL module
 0001:00052770       lj_cf_ffi_meta___eq        0000000180053770 f    CIL library: CIL module
 0001:00052780       lj_cf_ffi_cdef             0000000180053780 f    CIL library: CIL module
 0001:00052820       ffi_checkctype             0000000180053820 f    CIL library: CIL module
 0001:000528f0       lj_cf_ffi_metatype         00000001800538f0 f    CIL library: CIL module
 0001:00052a40       lj_cf_ffi_offsetof         0000000180053a40 f    CIL library: CIL module
 0001:00052b70       lj_cf_ffi_alignof          0000000180053b70 f    CIL library: CIL module
 0001:00052be0       lj_cf_ffi_sizeof           0000000180053be0 f    CIL library: CIL module
 0001:00052cb0       lj_cf_ffi_istype           0000000180053cb0 f    CIL library: CIL module
 0001:00052e10       lj_cf_ffi_typeof           0000000180053e10 f    CIL library: CIL module
 0001:00052ea0       lj_cf_ffi_cast             0000000180053ea0 f    CIL library: CIL module
 0001:00052fe0       lj_cf_ffi_new              0000000180053fe0 f    CIL library: CIL module
 0001:00053210       lj_cf_ffi_meta___call      0000000180054210 f    CIL library: CIL module
 0001:00053320       unmakemask                 0000000180054320 f    CIL library: CIL module
 0001:00053360       makemask                   0000000180054360 f    CIL library: CIL module
 0001:000533e0       getthread                  00000001800543e0 f    CIL library: CIL module
 0001:00053410       copyTV                     0000000180054410 f    CIL library: CIL module
 0001:00053420       setgcV                     0000000180054420 f    CIL library: CIL module
 0001:00053440       setlightudV                0000000180054440 f    CIL library: CIL module
 0001:00053460       lj_cf_debug_getregistry    0000000180054460 f    CIL library: CIL module
 0001:00053490       setfuncV                   0000000180054490 f    CIL library: CIL module
 0001:000534b0       treatstackoption           00000001800544b0 f    CIL library: CIL module
 0001:00053520       settabsb                   0000000180054520 f    CIL library: CIL module
 0001:00053550       settabsi                   0000000180054550 f    CIL library: CIL module
 0001:00053590       lj_cf_debug_getfenv        0000000180054590 f    CIL library: CIL module
 0001:000535d0       lj_cf_debug_setmetatable   00000001800545d0 f    CIL library: CIL module
 0001:00053620       lj_cf_debug_getmetatable   0000000180054620 f    CIL library: CIL module
 0001:00053660       lj_cf_debug_upvaluejoin    0000000180054660 f    CIL library: CIL module
 0001:00053750       lj_cf_debug_upvalueid      0000000180054750 f    CIL library: CIL module
 0001:000537e0       lj_cf_debug_setfenv        00000001800547e0 f    CIL library: CIL module
 0001:00053830       hookf                      0000000180054830 f    CIL library: CIL module
 0001:000538c0       debug_getupvalue           00000001800548c0 f    CIL library: CIL module
 0001:00053970       lj_cf_debug_setlocal       0000000180054970 f    CIL library: CIL module
 0001:00053a30       lj_cf_debug_getlocal       0000000180054a30 f    CIL library: CIL module
 0001:00053b40       settabss                   0000000180054b40 f    CIL library: CIL module
 0001:00053b80       lj_cf_debug_gethook        0000000180054b80 f    CIL library: CIL module
 0001:00053c20       lj_cf_debug_sethook        0000000180054c20 f    CIL library: CIL module
 0001:00053d00       lj_cf_debug_setupvalue     0000000180054d00 f    CIL library: CIL module
 0001:00053d30       lj_cf_debug_getupvalue     0000000180054d30 f    CIL library: CIL module
 0001:00053d40       lj_cf_debug_getinfo        0000000180054d40 f    CIL library: CIL module
 0001:000540a0       lj_cf_debug_traceback      00000001800550a0 f    CIL library: CIL module
 0001:00054140       lj_cf_debug_debug          0000000180055140 f    CIL library: CIL module
 0001:000542a0       setpc_wrap_aux             00000001800552a0 f    CIL library: CIL module
 0001:000542c0       ctype_check                00000001800552c0 f    CIL library: CIL module
 0001:000542d0       ctype_cts                  00000001800552d0 f    CIL library: CIL module
 0001:000542f0       lj_gc_barrierback          00000001800552f0 f    CIL library: CIL module
 0001:00054310       copyTV                     0000000180055310 f    CIL library: CIL module
 0001:00054320       setintV                    0000000180055320 f    CIL library: CIL module
 0001:00054340       setgcV                     0000000180055340 f    CIL library: CIL module
 0001:00054350       lj_cf_gcinfo               0000000180055350 f    CIL library: CIL module
 0001:00054380       load_aux                   0000000180055380 f    CIL library: CIL module
 0001:000543f0       ctype_get                  00000001800553f0 f    CIL library: CIL module
 0001:00054400       settabV                    0000000180055400 f    CIL library: CIL module
 0001:00054420       setfuncV                   0000000180055420 f    CIL library: CIL module
 0001:00054440       setstrV                    0000000180055440 f    CIL library: CIL module
 0001:00054460       ctype_child                0000000180055460 f    CIL library: CIL module
 0001:00054480       lj_strscan_numberobj       0000000180055480 f    CIL library: CIL module
 0001:000544c0       lj_cf_coroutine_running    00000001800554c0 f    CIL library: CIL module
 0001:00054540       newproxy_weaktable         0000000180055540 f    CIL library: CIL module
 0001:000545e0       ffh_resume                 00000001800555e0 f    CIL library: CIL module
 0001:00054680       lj_ffh_coroutine_yield     0000000180055680 f    CIL library: CIL module
 0001:000546a0       lj_ffh_coroutine_wrap_aux  00000001800556a0 f    CIL library: CIL module
 0001:000546c0       lj_ffh_coroutine_resume    00000001800556c0 f    CIL library: CIL module
 0001:00054700       lj_cf_rawequal             0000000180055700 f    CIL library: CIL module
 0001:00054760       lj_ffh_pcall               0000000180055760 f    CIL library: CIL module
 0001:00054790       lj_cf_select               0000000180055790 f    CIL library: CIL module
 0001:00054830       lj_cf_rawset               0000000180055830 f    CIL library: CIL module
 0001:00054890       lj_ffh_rawget              0000000180055890 f    CIL library: CIL module
 0001:000548c0       lj_cf_setfenv              00000001800558c0 f    CIL library: CIL module
 0001:000549a0       lj_ffh_setmetatable        00000001800559a0 f    CIL library: CIL module
 0001:00054a40       lj_ffh_ipairs_aux          0000000180055a40 f    CIL library: CIL module
 0001:00054a70       ffh_pairs                  0000000180055a70 f    CIL library: CIL module
 0001:00054b30       lj_ffh_next                0000000180055b30 f    CIL library: CIL module
 0001:00054b50       lj_cf_coroutine_create     0000000180055b50 f    CIL library: CIL module
 0001:00054bb0       lj_cf_coroutine_status     0000000180055bb0 f    CIL library: CIL module
 0001:00054c90       lj_cf_print                0000000180055c90 f    CIL library: CIL module
 0001:00054e50       lj_cf_newproxy             0000000180055e50 f    CIL library: CIL module
 0001:00054f50       reader_func                0000000180055f50 f    CIL library: CIL module
 0001:00055000       lj_ffh_tostring            0000000180056000 f    CIL library: CIL module
 0001:00055120       lj_ffh_tonumber            0000000180056120 f    CIL library: CIL module
 0001:000552d0       lj_cf_unpack               00000001800562d0 f    CIL library: CIL module
 0001:000553e0       lj_cf_getfenv              00000001800563e0 f    CIL library: CIL module
 0001:00055470       lj_ffh_ipairs              0000000180056470 f    CIL library: CIL module
 0001:00055480       lj_ffh_pairs               0000000180056480 f    CIL library: CIL module
 0001:00055490       lj_ffh_assert              0000000180056490 f    CIL library: CIL module
 0001:000554e0       lj_lib_pushcc              00000001800564e0 f    CIL library: CIL module
 0001:00055520       lj_cf_coroutine_wrap       0000000180056520 f    CIL library: CIL module
 0001:00055580       lj_cf_collectgarbage       0000000180056580 f    CIL library: CIL module
 0001:00055630       lj_cf_error                0000000180056630 f    CIL library: CIL module
 0001:00055760       lj_cf_load                 0000000180056760 f    CIL library: CIL module
 0001:00055880       lj_cf_loadfile             0000000180056880 f    CIL library: CIL module
 0001:00055900       lj_cf_dofile               0000000180056900 f    CIL library: CIL module
 0001:00055980       lj_cf_loadstring           0000000180056980 f    CIL library: CIL module
 0001:000559e0       libsize                    00000001800569e0 f    CIL library: CIL module
 0001:00055a10       setintV                    0000000180056a10 f    CIL library: CIL module
 0001:00055b80       panic                      0000000180056b80 f    CIL library: CIL module
 0001:00055c20       emptybuffer                0000000180056c20 f    CIL library: CIL module
 0001:00055ef0       adjuststack                0000000180056ef0 f    CIL library: CIL module
 0001:00056450       lj_ffh_bit_band            0000000180057450 f    CIL library: CIL module
 0001:00056490       lj_ffh_bit_lshift          0000000180057490 f    CIL library: CIL module
 0001:000564c0       lj_ffh_bit_tobit           00000001800574c0 f    CIL library: CIL module
 0001:000564e0       lj_cf_bit_tohex            00000001800574e0 f    CIL library: CIL module
 0001:000566a0       __DllMainCRTStartup$filt$0 00000001800576a0 f   MSVCRT:crtdll.obj
 0001:000566d0       __DllMainCRTStartup$fin$1  00000001800576d0 f   MSVCRT:crtdll.obj
 0001:000566e9       _onexit$fin$0              00000001800576e9 f   MSVCRT:atonexit.obj
 0001:00056710       _IsNonwritableInCurrentImage$filt$0 0000000180057710 f   MSVCRT:pesect.obj

 Exports

  ordinal    name

        1    luaJIT_setmode
        2    luaJIT_version_2_0_1
        3    luaL_addlstring
        4    luaL_addstring
        5    luaL_addvalue
        6    luaL_argerror
        7    luaL_buffinit
        8    luaL_callmeta
        9    luaL_checkany
       10    luaL_checkinteger
       11    luaL_checklstring
       12    luaL_checknumber
       13    luaL_checkoption
       14    luaL_checkstack
       15    luaL_checktype
       16    luaL_checkudata
       17    luaL_error
       18    luaL_execresult
       19    luaL_fileresult
       20    luaL_findtable
       21    luaL_getmetafield
       22    luaL_gsub
       23    luaL_loadbuffer
       24    luaL_loadbufferx
       25    luaL_loadfile
       26    luaL_loadfilex
       27    luaL_loadstring
       28    luaL_newmetatable
       29    luaL_newstate
       30    luaL_openlib
       31    luaL_openlibs
       32    luaL_optinteger
       33    luaL_optlstring
       34    luaL_optnumber
       35    luaL_prepbuffer
       36    luaL_pushresult
       37    luaL_ref
       38    luaL_register
       39    luaL_traceback
       40    luaL_typerror
       41    luaL_unref
       42    luaL_where
       43    lua_atpanic
       44    lua_call
       45    lua_checkstack
       46    lua_close
       47    lua_concat
       48    lua_cpcall
       49    lua_createtable
       50    lua_dump
       51    lua_equal
       52    lua_error
       53    lua_gc
       54    lua_getallocf
       55    lua_getfenv
       56    lua_getfield
       57    lua_gethook
       58    lua_gethookcount
       59    lua_gethookmask
       60    lua_getinfo
       61    lua_getlocal
       62    lua_getmetatable
       63    lua_getstack
       64    lua_gettable
       65    lua_gettop
       66    lua_getupvalue
       67    lua_insert
       68    lua_iscfunction
       69    lua_isnumber
       70    lua_isstring
       71    lua_isuserdata
       72    lua_lessthan
       73    lua_load
       74    lua_loadx
       75    lua_newstate
       76    lua_newthread
       77    lua_newuserdata
       78    lua_next
       79    lua_objlen
       80    lua_pcall
       81    lua_pushboolean
       82    lua_pushcclosure
       83    lua_pushfstring
       84    lua_pushinteger
       85    lua_pushlightuserdata
       86    lua_pushlstring
       87    lua_pushnil
       88    lua_pushnumber
       89    lua_pushstring
       90    lua_pushthread
       91    lua_pushvalue
       92    lua_pushvfstring
       93    lua_rawequal
       94    lua_rawget
       95    lua_rawgeti
       96    lua_rawset
       97    lua_rawseti
       98    lua_remove
       99    lua_replace
      100    lua_resume
      101    lua_setallocf
      102    lua_setfenv
      103    lua_setfield
      104    lua_sethook
      105    lua_setlocal
      106    lua_setmetatable
      107    lua_settable
      108    lua_settop
      109    lua_setupvalue
      110    lua_status
      111    lua_toboolean
      112    lua_tocfunction
      113    lua_tointeger
      114    lua_tolstring
      115    lua_tonumber
      116    lua_topointer
      117    lua_tothread
      118    lua_touserdata
      119    lua_type
      120    lua_typename
      121    lua_upvalueid
      122    lua_upvaluejoin
      123    lua_xmove
      124    lua_yield
      125    luaopen_base
      126    luaopen_bit
      127    luaopen_debug
      128    luaopen_ffi
      129    luaopen_io
      130    luaopen_jit
      131    luaopen_math
      132    luaopen_os
      133    luaopen_package
      134    luaopen_string
      135    luaopen_table
