 lib_zlib

 Timestamp is 52d5512f (Tue Jan 14 18:01:03 2014)

 Preferred load address is 0000000180000000

 Start         Length     Name                   Class
 0001:00000000 0000bf08H .text                   CODE
 0001:0000bf10 00000091H .text$x                 CODE
 0002:00000000 00000138H .idata$5                DATA
 0002:00000138 00000008H .CRT$XCA                DATA
 0002:00000140 00000008H .CRT$XCZ                DATA
 0002:00000148 00000008H .CRT$XIA                DATA
 0002:00000150 00000008H .CRT$XIAA               DATA
 0002:00000158 00000008H .CRT$XIZ                DATA
 0002:00000160 000041e0H .rdata                  DATA
 0002:00004340 00000008H .rtc$IAA                DATA
 0002:00004348 00000008H .rtc$IZZ                DATA
 0002:00004350 00000008H .rtc$TAA                DATA
 0002:00004358 00000008H .rtc$TZZ                DATA
 0002:00004360 00000df4H .xdata                  DATA
 0002:00005154 00000028H .idata$2                DATA
 0002:0000517c 00000014H .idata$3                DATA
 0002:00005190 00000138H .idata$4                DATA
 0002:000052c8 00000234H .idata$6                DATA
 0002:00005500 00000661H .edata                  DATA
 0003:00000000 00000078H .data                   DATA
 0003:00000078 00000040H .bss                    DATA
 0004:00000000 0000099cH .pdata                  DATA

  Address         Publics by Value              Rva+Base               Lib:Object

 0000:00000000       ___safe_se_handler_table   0000000000000000     <absolute>
 0000:00000000       ___safe_se_handler_count   0000000000000000     <absolute>
 0000:00000000       __ImageBase                0000000180000000     <linker-defined>
 0001:00000060       _CRT_INIT                  0000000180001060 f   MSVCRT:crtdll.obj
 0001:000003f4       _DllMainCRTStartup         00000001800013f4 f   MSVCRT:crtdll.obj
 0001:00000434       __clean_type_info_names    0000000180001434 f   MSVCRT:tncleanup.obj
 0001:00000440       _onexit                    0000000180001440 f   MSVCRT:atonexit.obj
 0001:000004f0       atexit                     00000001800014f0 f   MSVCRT:atonexit.obj
 0001:00000508       _RTC_Initialize            0000000180001508 f   MSVCRT:_initsect_.obj
 0001:00000540       _RTC_Terminate             0000000180001540 f   MSVCRT:_initsect_.obj
 0001:00000580       _ValidateImageBase         0000000180001580 f   MSVCRT:pesect.obj
 0001:000005b0       _FindPESection             00000001800015b0 f   MSVCRT:pesect.obj
 0001:00000600       _IsNonwritableInCurrentImage 0000000180001600 f   MSVCRT:pesect.obj
 0001:00000642       _initterm                  0000000180001642 f   MSVCRT:MSVCR90.dll
 0001:00000648       _initterm_e                0000000180001648 f   MSVCRT:MSVCR90.dll
 0001:0000064e       _amsg_exit                 000000018000164e f   MSVCRT:MSVCR90.dll
 0001:00000654       __C_specific_handler       0000000180001654 f   MSVCRT:MSVCR90.dll
 0001:0000065a       __CppXcptFilter            000000018000165a f   MSVCRT:MSVCR90.dll
 0001:00000660       DllMain                    0000000180001660 f   MSVCRT:dllmain.obj
 0001:00000684       __security_init_cookie     0000000180001684 f   MSVCRT:gs_support.obj
 0001:00000738       __clean_type_info_names_internal 0000000180001738 f   MSVCRT:MSVCR90.dll
 0001:0000073e       _unlock                    000000018000173e f   MSVCRT:MSVCR90.dll
 0001:00000744       __dllonexit                0000000180001744 f   MSVCRT:MSVCR90.dll
 0001:0000074a       _lock                      000000018000174a f   MSVCRT:MSVCR90.dll
 0001:00000750       zcfree                     0000000180001750 f   zutil.obj
 0001:00000760       zcalloc                    0000000180001760 f   zutil.obj
 0001:00000780       zError                     0000000180001780 f   zutil.obj
 0001:000007a0       zlibCompileFlags           00000001800017a0 f   zutil.obj
 0001:000007b0       zlibVersion                00000001800017b0 f   zutil.obj
 0001:00000e00       _tr_align                  0000000180001e00 f   trees.obj
 0001:00000f20       _tr_flush_bits             0000000180001f20 f   trees.obj
 0001:00001b10       _tr_stored_block           0000000180002b10 f   trees.obj
 0001:00002080       _tr_init                   0000000180003080 f   trees.obj
 0001:00002180       _tr_flush_block            0000000180003180 f   trees.obj
 0001:000023b0       inflate_table              00000001800033b0 f   inftrees.obj
 0001:000028d0       inflateMark                00000001800038d0 f   inflate.obj
 0001:00002930       inflateUndermine           0000000180003930 f   inflate.obj
 0001:00002960       inflateCopy                0000000180003960 f   inflate.obj
 0001:00002b00       inflateSyncPoint           0000000180003b00 f   inflate.obj
 0001:00002ba0       inflateGetHeader           0000000180003ba0 f   inflate.obj
 0001:00002bd0       inflateEnd                 0000000180003bd0 f   inflate.obj
 0001:00002d70       inflatePrime               0000000180003d70 f   inflate.obj
 0001:00002dd0       inflateResetKeep           0000000180003dd0 f   inflate.obj
 0001:00002e60       inflateSetDictionary       0000000180003e60 f   inflate.obj
 0001:00002f60       inflate                    0000000180003f60 f   inflate.obj
 0001:00004b80       inflateReset               0000000180005b80 f   inflate.obj
 0001:00004bb0       inflateSync                0000000180005bb0 f   inflate.obj
 0001:00004cd0       inflateReset2              0000000180005cd0 f   inflate.obj
 0001:00004d80       inflateInit2_              0000000180005d80 f   inflate.obj
 0001:00004e70       inflateInit_               0000000180005e70 f   inflate.obj
 0001:00004e80       inflate_fast               0000000180005e80 f   inffast.obj
 0001:00005380       inflateBackEnd             0000000180006380 f   infback.obj
 0001:00005400       inflateBackInit_           0000000180006400 f   infback.obj
 0001:00005520       inflateBack                0000000180006520 f   infback.obj
 0001:000066c0       gz_error                   00000001800076c0 f   gzlib.obj
 0001:00006800       gzclearerr                 0000000180007800 f   gzlib.obj
 0001:00006840       gzerror                    0000000180007840 f   gzlib.obj
 0001:00006880       gzeof                      0000000180007880 f   gzlib.obj
 0001:000068b0       gzoffset64                 00000001800078b0 f   gzlib.obj
 0001:00006920       gztell64                   0000000180007920 f   gzlib.obj
 0001:00006960       gzbuffer                   0000000180007960 f   gzlib.obj
 0001:000069f0       gzoffset                   00000001800079f0 f   gzlib.obj
 0001:00006a20       gztell                     0000000180007a20 f   gzlib.obj
 0001:00006a50       gzrewind                   0000000180007a50 f   gzlib.obj
 0001:00006e10       gzseek64                   0000000180007e10 f   gzlib.obj
 0001:00006f70       gzopen_w                   0000000180007f70 f   gzlib.obj
 0001:00006f90       gzdopen                    0000000180007f90 f   gzlib.obj
 0001:00007020       gzopen64                   0000000180008020 f   gzlib.obj
 0001:00007040       gzopen                     0000000180008040 f   gzlib.obj
 0001:00007060       gzseek                     0000000180008060 f   gzlib.obj
 0001:00007310       deflateEnd                 0000000180008310 f   deflate.obj
 0001:000074b0       deflateBound               00000001800084b0 f   deflate.obj
 0001:000075c0       deflateTune                00000001800085c0 f   deflate.obj
 0001:00007600       deflatePrime               0000000180008600 f   deflate.obj
 0001:000076d0       deflatePending             00000001800086d0 f   deflate.obj
 0001:00007710       deflateSetHeader           0000000180008710 f   deflate.obj
 0001:000077f0       deflateCopy                00000001800087f0 f   deflate.obj
 0001:000079e0       deflateResetKeep           00000001800089e0 f   deflate.obj
 0001:00007d30       deflateReset               0000000180008d30 f   deflate.obj
 0001:00007d70       deflateSetDictionary       0000000180008d70 f   deflate.obj
 0001:00007fa0       deflateInit2_              0000000180008fa0 f   deflate.obj
 0001:00008230       deflateInit_               0000000180009230 f   deflate.obj
 0001:000092f0       deflate                    000000018000a2f0 f   deflate.obj
 0001:00009be0       deflateParams              000000018000abe0 f   deflate.obj
 0001:0000a3e0       crc32                      000000018000b3e0 f   crc32.obj
 0001:0000a400       get_crc_table              000000018000b400 f   crc32.obj
 0001:0000a550       crc32_combine              000000018000b550 f   crc32.obj
 0001:0000a560       compressBound              000000018000b560 f   compress.obj
 0001:0000a580       compress2                  000000018000b580 f   compress.obj
 0001:0000a640       compress                   000000018000b640 f   compress.obj
 0001:0000a730       adler32                    000000018000b730 f   adler32.obj
 0001:0000aa40       adler32_combine            000000018000ba40 f   adler32.obj
 0001:0000aa50       gzclose_r                  000000018000ba50 f   gzread.obj
 0001:0000af50       gzdirect                   000000018000bf50 f   gzread.obj
 0001:0000b0c0       gzgets                     000000018000c0c0 f   gzread.obj
 0001:0000b210       gzungetc                   000000018000c210 f   gzread.obj
 0001:0000b330       gzread                     000000018000c330 f   gzread.obj
 0001:0000b4e0       gzgetc                     000000018000c4e0 f   gzread.obj
 0001:0000b560       gzgetc_                    000000018000c560 f   gzread.obj
 0001:0000b8b0       gzclose_w                  000000018000c8b0 f   gzwrite.obj
 0001:0000b980       gzsetparams                000000018000c980 f   gzwrite.obj
 0001:0000ba50       gzflush                    000000018000ca50 f   gzwrite.obj
 0001:0000bad0       gzprintf                   000000018000cad0 f   gzwrite.obj
 0001:0000bbe0       gzwrite                    000000018000cbe0 f   gzwrite.obj
 0001:0000bd20       gzputs                     000000018000cd20 f   gzwrite.obj
 0001:0000bd60       gzputc                     000000018000cd60 f   gzwrite.obj
 0001:0000be10       uncompress                 000000018000ce10 f   uncompr.obj
 0001:0000bee0       gzclose                    000000018000cee0 f   gzclose.obj
 0001:0000befc       memcpy                     000000018000cefc f   MSVCRT:MSVCR90.dll
 0001:0000bf02       memset                     000000018000cf02 f   MSVCRT:MSVCR90.dll
 0002:00000000       __imp_GetCurrentProcessId  000000018000d000     kernel32:KERNEL32.dll
 0002:00000008       __imp_GetCurrentThreadId   000000018000d008     kernel32:KERNEL32.dll
 0002:00000010       __imp_GetTickCount         000000018000d010     kernel32:KERNEL32.dll
 0002:00000018       __imp_QueryPerformanceCounter 000000018000d018     kernel32:KERNEL32.dll
 0002:00000020       __imp_DisableThreadLibraryCalls 000000018000d020     kernel32:KERNEL32.dll
 0002:00000028       __imp_Sleep                000000018000d028     kernel32:KERNEL32.dll
 0002:00000030       __imp_GetSystemTimeAsFileTime 000000018000d030     kernel32:KERNEL32.dll
 0002:00000038       \177KERNEL32_NULL_THUNK_DATA 000000018000d038     kernel32:KERNEL32.dll
 0002:00000040       __imp__errno               000000018000d040     MSVCRT:MSVCR90.dll
 0002:00000048       __imp__vsnprintf           000000018000d048     MSVCRT:MSVCR90.dll
 0002:00000048       __imp_vsnprintf            000000018000d048     MSVCRT:MSVCR90.dll
 0002:00000050       __imp__encode_pointer      000000018000d050     MSVCRT:MSVCR90.dll
 0002:00000058       __imp__malloc_crt          000000018000d058     MSVCRT:MSVCR90.dll
 0002:00000060       __imp__initterm            000000018000d060     MSVCRT:MSVCR90.dll
 0002:00000068       __imp__initterm_e          000000018000d068     MSVCRT:MSVCR90.dll
 0002:00000070       __imp__encoded_null        000000018000d070     MSVCRT:MSVCR90.dll
 0002:00000078       __imp__decode_pointer      000000018000d078     MSVCRT:MSVCR90.dll
 0002:00000080       __imp_memchr               000000018000d080     MSVCRT:MSVCR90.dll
 0002:00000088       __imp___C_specific_handler 000000018000d088     MSVCRT:MSVCR90.dll
 0002:00000090       __imp___CppXcptFilter      000000018000d090     MSVCRT:MSVCR90.dll
 0002:00000098       __imp___clean_type_info_names_internal 000000018000d098     MSVCRT:MSVCR90.dll
 0002:000000a0       __imp__unlock              000000018000d0a0     MSVCRT:MSVCR90.dll
 0002:000000a8       __imp___dllonexit          000000018000d0a8     MSVCRT:MSVCR90.dll
 0002:000000b0       __imp__lock                000000018000d0b0     MSVCRT:MSVCR90.dll
 0002:000000b8       __imp__onexit              000000018000d0b8     MSVCRT:MSVCR90.dll
 0002:000000c0       __imp_strerror             000000018000d0c0     MSVCRT:MSVCR90.dll
 0002:000000c8       __imp_wcstombs             000000018000d0c8     MSVCRT:MSVCR90.dll
 0002:000000d0       __imp_malloc               000000018000d0d0     MSVCRT:MSVCR90.dll
 0002:000000d8       __imp_free                 000000018000d0d8     MSVCRT:MSVCR90.dll
 0002:000000e0       __imp__wopen               000000018000d0e0     MSVCRT:MSVCR90.dll
 0002:000000e8       __imp__lseeki64            000000018000d0e8     MSVCRT:MSVCR90.dll
 0002:000000f0       __imp__amsg_exit           000000018000d0f0     MSVCRT:MSVCR90.dll
 0002:000000f8       __imp_sprintf              000000018000d0f8     MSVCRT:MSVCR90.dll
 0002:00000100       __imp_open                 000000018000d100     MSVCRT:MSVCR90.dll
 0002:00000100       __imp__open                000000018000d100     MSVCRT:MSVCR90.dll
 0002:00000108       __imp_read                 000000018000d108     MSVCRT:MSVCR90.dll
 0002:00000108       __imp__read                000000018000d108     MSVCRT:MSVCR90.dll
 0002:00000110       __imp__close               000000018000d110     MSVCRT:MSVCR90.dll
 0002:00000110       __imp_close                000000018000d110     MSVCRT:MSVCR90.dll
 0002:00000118       __imp_write                000000018000d118     MSVCRT:MSVCR90.dll
 0002:00000118       __imp__write               000000018000d118     MSVCRT:MSVCR90.dll
 0002:00000120       __imp_memcpy               000000018000d120     MSVCRT:MSVCR90.dll
 0002:00000128       __imp_memset               000000018000d128     MSVCRT:MSVCR90.dll
 0002:00000130       \177MSVCR90_NULL_THUNK_DATA 000000018000d130     MSVCRT:MSVCR90.dll
 0002:00000138       __xc_a                     000000018000d138     MSVCRT:cinitexe.obj
 0002:00000140       __xc_z                     000000018000d140     MSVCRT:cinitexe.obj
 0002:00000148       __xi_a                     000000018000d148     MSVCRT:cinitexe.obj
 0002:00000158       __xi_z                     000000018000d158     MSVCRT:cinitexe.obj
 0002:00000160       _pDefaultRawDllMain        000000018000d160     MSVCRT:crtdll.obj
 0002:00000160       _pRawDllMain               000000018000d160     MSVCRT:crtdll.obj
 0002:00000168       ??_C@_05HBMOAMF@1?42?47?$AA@ 000000018000d168     compress.obj
 0002:00000170       z_errmsg                   000000018000d170     zutil.obj
 0002:00000830       _dist_code                 000000018000d830     trees.obj
 0002:00000a30       _length_code               000000018000da30     trees.obj
 0002:00000c28       inflate_copyright          000000018000dc28     inftrees.obj
 0002:00001ec0       deflate_copyright          000000018000eec0     deflate.obj
 0002:00003fb0       ??_C@_07EBNKNFJN@?$DMfd?3?$CFd?$DO?$AA@ 0000000180010fb0     gzlib.obj
 0002:00003fb8       ??_C@_00CNPNBAHC@?$AA@     0000000180010fb8     gzlib.obj
 0002:00003fc0       ??_C@_0O@BNNCBLEN@out?5of?5memory?$AA@ 0000000180010fc0     gzlib.obj
 0002:00003fd0       ??_C@_02LMMGGCAJ@?3?5?$AA@ 0000000180010fd0     gzlib.obj
 0002:00003fd8       ??_C@_0BH@CFIIDOJD@unexpected?5end?5of?5file?$AA@ 0000000180010fd8     gzread.obj
 0002:00003ff0       ??_C@_0CH@CPOLIEKA@internal?5error?3?5inflate?5stream?5c@ 0000000180010ff0     gzread.obj
 0002:00004018       ??_C@_0BG@HCKBMIHF@compressed?5data?5error?$AA@ 0000000180011018     gzread.obj
 0002:00004030       ??_C@_0CF@MLPJFDMM@requested?5length?5does?5not?5fit?5in@ 0000000180011030     gzread.obj
 0002:00004058       ??_C@_0BP@IIKIGMCC@out?5of?5room?5to?5push?5characters?$AA@ 0000000180011058     gzread.obj
 0002:00004078       ??_C@_0CH@DEEGAHIB@internal?5error?3?5deflate?5stream?5c@ 0000000180011078     gzwrite.obj
 0002:000040a0       ??_C@_0BD@PJCBIDD@invalid?5block?5type?$AA@ 00000001800110a0     infback.obj
 0002:000040b8       ??_C@_0BN@LGAADGOK@invalid?5stored?5block?5lengths?$AA@ 00000001800110b8     infback.obj
 0002:000040d8       ??_C@_0CE@GMIGFPBB@too?5many?5length?5or?5distance?5symb@ 00000001800110d8     infback.obj
 0002:00004100       ??_C@_0BJ@HDEPPGOH@invalid?5code?5lengths?5set?$AA@ 0000000180011100     infback.obj
 0002:00004120       ??_C@_0BK@BMMPFBBH@invalid?5bit?5length?5repeat?$AA@ 0000000180011120     infback.obj
 0002:00004140       ??_C@_0CF@DGDMADCD@invalid?5code?5?9?9?5missing?5end?9of?9b@ 0000000180011140     infback.obj
 0002:00004168       ??_C@_0BM@IIMGAINC@invalid?5literal?1lengths?5set?$AA@ 0000000180011168     infback.obj
 0002:00004188       ??_C@_0BG@GMDFCBGP@invalid?5distances?5set?$AA@ 0000000180011188     infback.obj
 0002:000041a0       ??_C@_0BM@FFFLPBBC@invalid?5literal?1length?5code?$AA@ 00000001800111a0     infback.obj
 0002:000041c0       ??_C@_0BG@LBKINIKP@invalid?5distance?5code?$AA@ 00000001800111c0     infback.obj
 0002:000041d8       ??_C@_0BO@ECPMAOGG@invalid?5distance?5too?5far?5back?$AA@ 00000001800111d8     infback.obj
 0002:000041f8       ??_C@_0BH@LIBMMIGA@incorrect?5header?5check?$AA@ 00000001800111f8     inflate.obj
 0002:00004210       ??_C@_0BL@IHKGDAEE@unknown?5compression?5method?$AA@ 0000000180011210     inflate.obj
 0002:00004230       ??_C@_0BE@EMOGCLGO@invalid?5window?5size?$AA@ 0000000180011230     inflate.obj
 0002:00004248       ??_C@_0BJ@BLBBCOMO@unknown?5header?5flags?5set?$AA@ 0000000180011248     inflate.obj
 0002:00004268       ??_C@_0BE@GONKLEPM@header?5crc?5mismatch?$AA@ 0000000180011268     inflate.obj
 0002:00004280       ??_C@_0BF@MEIGEHBE@incorrect?5data?5check?$AA@ 0000000180011280     inflate.obj
 0002:00004298       ??_C@_0BH@FGKKJGOC@incorrect?5length?5check?$AA@ 0000000180011298     inflate.obj
 0002:000042b0       ??_C@_0BF@CJFPCCEG@incompatible?5version?$AA@ 00000001800112b0     zutil.obj
 0002:000042c8       ??_C@_0N@DFPGLBGC@buffer?5error?$AA@ 00000001800112c8     zutil.obj
 0002:000042d8       ??_C@_0BE@OGGJBMCE@insufficient?5memory?$AA@ 00000001800112d8     zutil.obj
 0002:000042f0       ??_C@_0L@HAHMBNLP@data?5error?$AA@ 00000001800112f0     zutil.obj
 0002:00004300       ??_C@_0N@MKKNPMJD@stream?5error?$AA@ 0000000180011300     zutil.obj
 0002:00004310       ??_C@_0L@KIJFAKBJ@file?5error?$AA@ 0000000180011310     zutil.obj
 0002:00004320       ??_C@_0L@FNAOCBOG@stream?5end?$AA@ 0000000180011320     zutil.obj
 0002:00004330       ??_C@_0BA@MOKMMFOD@need?5dictionary?$AA@ 0000000180011330     zutil.obj
 0002:00004340       __rtc_iaa                  0000000180011340     MSVCRT:_initsect_.obj
 0002:00004348       __rtc_izz                  0000000180011348     MSVCRT:_initsect_.obj
 0002:00004350       __rtc_taa                  0000000180011350     MSVCRT:_initsect_.obj
 0002:00004358       __rtc_tzz                  0000000180011358     MSVCRT:_initsect_.obj
 0002:00005154       __IMPORT_DESCRIPTOR_MSVCR90 0000000180012154     MSVCRT:MSVCR90.dll
 0002:00005168       __IMPORT_DESCRIPTOR_KERNEL32 0000000180012168     kernel32:KERNEL32.dll
 0002:0000517c       __NULL_IMPORT_DESCRIPTOR   000000018001217c     MSVCRT:MSVCR90.dll
 0003:00000000       __native_dllmain_reason    0000000180013000     MSVCRT:natstart.obj
 0003:00000004       __native_vcclrit_reason    0000000180013004     MSVCRT:natstart.obj
 0003:00000008       __security_cookie          0000000180013008     MSVCRT:gs_cookie.obj
 0003:00000010       __security_cookie_complement 0000000180013010     MSVCRT:gs_cookie.obj
 0003:0000007c       _forceCRTManifestRTM       000000018001307c     MSVCRT:crtmanifestrtm.obj
 0003:00000080       ?__type_info_root_node@@3U__type_info_node@@A 0000000180013080     MSVCRT:tncleanup.obj
 0003:00000090       __native_startup_state     0000000180013090     <common>
 0003:00000098       __native_startup_lock      0000000180013098     <common>
 0003:000000a0       __onexitend                00000001800130a0     <common>
 0003:000000a8       __onexitbegin              00000001800130a8     <common>
 0003:000000b0       __dyn_tls_init_callback    00000001800130b0     <common>

 entry point at        0001:000003f4

 Static symbols

 0001:00000000       pre_c_init                 0000000180001000 f   MSVCRT:crtdll.obj
 0001:000002bc       __DllMainCRTStartup        00000001800012bc f   MSVCRT:crtdll.obj
 0001:000007c0       bi_windup                  00000001800017c0 f    CIL library: CIL module
 0001:00000820       bi_flush                   0000000180001820 f    CIL library: CIL module
 0001:000008b0       bi_reverse                 00000001800018b0 f    CIL library: CIL module
 0001:000008d0       detect_data_type           00000001800018d0 f    CIL library: CIL module
 0001:00000950       compress_block             0000000180001950 f    CIL library: CIL module
 0001:00000f30       send_tree                  0000000180001f30 f    CIL library: CIL module
 0001:00001520       scan_tree                  0000000180002520 f    CIL library: CIL module
 0001:00001610       gen_codes                  0000000180002610 f    CIL library: CIL module
 0001:00001690       gen_bitlen                 0000000180002690 f    CIL library: CIL module
 0001:000018c0       pqdownheap                 00000001800028c0 f    CIL library: CIL module
 0001:000019c0       init_block                 00000001800029c0 f    CIL library: CIL module
 0001:00001a50       tr_static_init             0000000180002a50 f    CIL library: CIL module
 0001:00001a60       copy_block                 0000000180002a60 f    CIL library: CIL module
 0001:00001bb0       send_all_trees             0000000180002bb0 f    CIL library: CIL module
 0001:00001e20       build_tree                 0000000180002e20 f    CIL library: CIL module
 0001:000020f0       build_bl_tree              00000001800030f0 f    CIL library: CIL module
 0001:00002b30       syncsearch                 0000000180003b30 f    CIL library: CIL module
 0001:00002c30       updatewindow               0000000180003c30 f    CIL library: CIL module
 0001:00002d40       fixedtables                0000000180003d40 f    CIL library: CIL module
 0001:000053d0       fixedtables                00000001800063d0 f    CIL library: CIL module
 0001:000069a0       gz_reset                   00000001800079a0 f    CIL library: CIL module
 0001:00006ab0       gz_open                    0000000180007ab0 f    CIL library: CIL module
 0001:00007090       longest_match              0000000180008090 f    CIL library: CIL module
 0001:00007250       lm_init                    0000000180008250 f    CIL library: CIL module
 0001:00007400       flush_pending              0000000180008400 f    CIL library: CIL module
 0001:00007480       putShortMSB                0000000180008480 f    CIL library: CIL module
 0001:00007740       read_buf                   0000000180008740 f    CIL library: CIL module
 0001:00007ac0       fill_window                0000000180008ac0 f    CIL library: CIL module
 0001:00008270       deflate_huff               0000000180009270 f    CIL library: CIL module
 0001:00008450       deflate_rle                0000000180009450 f    CIL library: CIL module
 0001:000087b0       deflate_slow               00000001800097b0 f    CIL library: CIL module
 0001:00008ce0       deflate_fast               0000000180009ce0 f    CIL library: CIL module
 0001:000090f0       deflate_stored             000000018000a0f0 f    CIL library: CIL module
 0001:00009cf0       gf2_matrix_times           000000018000acf0 f    CIL library: CIL module
 0001:00009d10       crc32_big                  000000018000ad10 f    CIL library: CIL module
 0001:0000a0b0       crc32_little               000000018000b0b0 f    CIL library: CIL module
 0001:0000a410       gf2_matrix_square          000000018000b410 f    CIL library: CIL module
 0001:0000a460       crc32_combine_             000000018000b460 f    CIL library: CIL module
 0001:0000a660       adler32_combine_           000000018000b660 f    CIL library: CIL module
 0001:0000ab00       gz_load                    000000018000bb00 f    CIL library: CIL module
 0001:0000aba0       gz_avail                   000000018000bba0 f    CIL library: CIL module
 0001:0000ac40       gz_decomp                  000000018000bc40 f    CIL library: CIL module
 0001:0000ad60       gz_look                    000000018000bd60 f    CIL library: CIL module
 0001:0000af90       gz_fetch                   000000018000bf90 f    CIL library: CIL module
 0001:0000b040       gz_skip                    000000018000c040 f    CIL library: CIL module
 0001:0000b570       gz_init                    000000018000c570 f    CIL library: CIL module
 0001:0000b670       gz_comp                    000000018000c670 f    CIL library: CIL module
 0001:0000b7f0       gz_zero                    000000018000c7f0 f    CIL library: CIL module
 0001:0000bf10       __DllMainCRTStartup$filt$0 000000018000cf10 f   MSVCRT:crtdll.obj
 0001:0000bf40       __DllMainCRTStartup$fin$1  000000018000cf40 f   MSVCRT:crtdll.obj
 0001:0000bf59       _onexit$fin$0              000000018000cf59 f   MSVCRT:atonexit.obj
 0001:0000bf80       _IsNonwritableInCurrentImage$filt$0 000000018000cf80 f   MSVCRT:pesect.obj

 Exports

  ordinal    name

        1    adler32
        2    adler32_combine
        3    compress
        4    compress2
        5    compressBound
        6    crc32
        7    crc32_combine
        8    deflate
        9    deflateBound
       10    deflateCopy
       11    deflateEnd
       12    deflateInit2_
       13    deflateInit_
       14    deflateParams
       15    deflatePending
       16    deflatePrime
       17    deflateReset
       18    deflateResetKeep
       19    deflateSetDictionary
       20    deflateSetHeader
       21    deflateTune
       22    get_crc_table
       23    gzbuffer
       24    gzclearerr
       25    gzclose
       26    gzclose_r
       27    gzclose_w
       28    gzdirect
       29    gzdopen
       30    gzeof
       31    gzerror
       32    gzflush
       33    gzgetc
       34    gzgetc_
       35    gzgets
       36    gzoffset
       37    gzoffset64
       38    gzopen
       39    gzopen64
       40    gzopen_w
       41    gzprintf
       42    gzputc
       43    gzputs
       44    gzread
       45    gzrewind
       46    gzseek
       47    gzseek64
       48    gzsetparams
       49    gztell
       50    gztell64
       51    gzungetc
       52    gzwrite
       53    inflate
       54    inflateBack
       55    inflateBackEnd
       56    inflateBackInit_
       57    inflateCopy
       58    inflateEnd
       59    inflateGetHeader
       60    inflateInit2_
       61    inflateInit_
       62    inflateMark
       63    inflatePrime
       64    inflateReset
       65    inflateReset2
       66    inflateResetKeep
       67    inflateSetDictionary
       68    inflateSync
       69    inflateSyncPoint
       70    inflateUndermine
       71    uncompress
       72    zError
       73    zlibCompileFlags
       74    zlibVersion
