 libSDL2

 Timestamp is 526a91b7 (Fri Oct 25 18:43:51 2013)

 Preferred load address is 0000000180000000

 Start         Length     Name                   Class
 0001:00000000 000aea9eH .text                   CODE
 0002:00000000 00000660H .idata$5                DATA
 0002:00000660 0000c980H .rdata                  DATA
 0002:0000cfe0 0000df5cH .xdata                  DATA
 0002:0001af3c 000000c8H .idata$2                DATA
 0002:0001b004 00000014H .idata$3                DATA
 0002:0001b018 00000660H .idata$4                DATA
 0002:0001b678 00000e46H .idata$6                DATA
 0002:0001c4c0 000039a5H .edata                  DATA
 0003:00000000 00003958H .data                   DATA
 0003:00003960 0000b9f8H .bss                    DATA
 0004:00000000 000094f8H .pdata                  DATA

  Address         Publics by Value              Rva+Base               Lib:Object

 0000:00000000       ___safe_se_handler_count   0000000000000000     <absolute>
 0000:00000000       ___safe_se_handler_table   0000000000000000     <absolute>
 0000:00000000       __ImageBase                0000000180000000     <linker-defined>
 0001:00000040       SDL_AtomicCAS              0000000180001040 f   SDL_atomic.obj
 0001:000000c0       SDL_AtomicCASPtr           00000001800010c0 f   SDL_atomic.obj
 0001:00000140       SDL_AtomicTryLock          0000000180001140 f   SDL_spinlock.obj
 0001:00000160       SDL_AtomicLock             0000000180001160 f   SDL_spinlock.obj
 0001:000001a0       SDL_AtomicUnlock           00000001800011a0 f   SDL_spinlock.obj
 0001:000004f0       SDL_RunAudio               00000001800014f0 f   SDL_audio.obj
 0001:00000890       SDL_GetNumAudioDrivers     0000000180001890 f   SDL_audio.obj
 0001:000008a0       SDL_GetAudioDriver         00000001800018a0 f   SDL_audio.obj
 0001:000008e0       SDL_GetCurrentAudioDriver  00000001800018e0 f   SDL_audio.obj
 0001:00000a20       SDL_GetNumAudioDevices     0000000180001a20 f   SDL_audio.obj
 0001:00000ae0       SDL_GetAudioDeviceName     0000000180001ae0 f   SDL_audio.obj
 0001:00000c70       SDL_GetAudioDeviceStatus   0000000180001c70 f   SDL_audio.obj
 0001:00000cb0       SDL_GetAudioStatus         0000000180001cb0 f   SDL_audio.obj
 0001:00000cc0       SDL_PauseAudioDevice       0000000180001cc0 f   SDL_audio.obj
 0001:00000d10       SDL_PauseAudio             0000000180001d10 f   SDL_audio.obj
 0001:00000d30       SDL_LockAudioDevice        0000000180001d30 f   SDL_audio.obj
 0001:00000d60       SDL_LockAudio              0000000180001d60 f   SDL_audio.obj
 0001:00000d70       SDL_UnlockAudioDevice      0000000180001d70 f   SDL_audio.obj
 0001:00000da0       SDL_UnlockAudio            0000000180001da0 f   SDL_audio.obj
 0001:00000db0       SDL_CloseAudioDevice       0000000180001db0 f   SDL_audio.obj
 0001:00000df0       SDL_CloseAudio             0000000180001df0 f   SDL_audio.obj
 0001:00000e00       SDL_AudioQuit              0000000180001e00 f   SDL_audio.obj
 0001:00000eb0       SDL_NextAudioFormat        0000000180001eb0 f   SDL_audio.obj
 0001:00000ef0       SDL_CalculateAudioSpec     0000000180001ef0 f   SDL_audio.obj
 0001:00000f30       SDL_MixAudio               0000000180001f30 f   SDL_audio.obj
 0001:00000fa0       SDL_AudioInit              0000000180001fa0 f   SDL_audio.obj
 0001:000016a0       SDL_OpenAudio              00000001800026a0 f   SDL_audio.obj
 0001:00001740       SDL_OpenAudioDevice        0000000180002740 f   SDL_audio.obj
 0001:00001770       SDL_FirstAudioFormat       0000000180002770 f   SDL_audio.obj
 0001:00002fe0       SDL_ConvertAudio           0000000180003fe0 f   SDL_audiocvt.obj
 0001:00003330       SDL_BuildAudioCVT          0000000180004330 f   SDL_audiocvt.obj
 0001:0002e780       SDL_MixAudioFormat         000000018002f780 f   SDL_mixer.obj
 0001:0002f860       SDL_FreeWAV                0000000180030860 f   SDL_wave.obj
 0001:0002f910       SDL_LoadWAV_RW             0000000180030910 f   SDL_wave.obj
 0001:0002fd30       SDL_GetCPUCount            0000000180030d30 f   SDL_cpuinfo.obj
 0001:0002fdc0       SDL_GetCPUCacheLineSize    0000000180030dc0 f   SDL_cpuinfo.obj
 0001:0002fe50       SDL_HasRDTSC               0000000180030e50 f   SDL_cpuinfo.obj
 0001:0002fe70       SDL_HasAltiVec             0000000180030e70 f   SDL_cpuinfo.obj
 0001:0002fe90       SDL_HasMMX                 0000000180030e90 f   SDL_cpuinfo.obj
 0001:0002feb0       SDL_Has3DNow               0000000180030eb0 f   SDL_cpuinfo.obj
 0001:0002fed0       SDL_HasSSE                 0000000180030ed0 f   SDL_cpuinfo.obj
 0001:0002fef0       SDL_HasSSE2                0000000180030ef0 f   SDL_cpuinfo.obj
 0001:0002ff10       SDL_HasSSE3                0000000180030f10 f   SDL_cpuinfo.obj
 0001:0002ff30       SDL_HasSSE41               0000000180030f30 f   SDL_cpuinfo.obj
 0001:0002ff50       SDL_HasSSE42               0000000180030f50 f   SDL_cpuinfo.obj
 0001:0002ff70       SDL_GetSystemRAM           0000000180030f70 f   SDL_cpuinfo.obj
 0001:0002ffc0       SDL_SendClipboardUpdate    0000000180030fc0 f   SDL_clipboardevents.obj
 0001:00030000       SDL_SendDropFile           0000000180031000 f   SDL_dropevents.obj
 0001:000300a0       SDL_StopEventLoop          00000001800310a0 f   SDL_events.obj
 0001:00030390       SDL_PeepEvents             0000000180031390 f   SDL_events.obj
 0001:00030610       SDL_HasEvent               0000000180031610 f   SDL_events.obj
 0001:00030640       SDL_HasEvents              0000000180031640 f   SDL_events.obj
 0001:00030670       SDL_FlushEvents            0000000180031670 f   SDL_events.obj
 0001:000306e0       SDL_PumpEvents             00000001800316e0 f   SDL_events.obj
 0001:00030730       SDL_WaitEventTimeout       0000000180031730 f   SDL_events.obj
 0001:000307f0       SDL_PushEvent              00000001800317f0 f   SDL_events.obj
 0001:00030890       SDL_SetEventFilter         0000000180031890 f   SDL_events.obj
 0001:000308e0       SDL_GetEventFilter         00000001800318e0 f   SDL_events.obj
 0001:00030920       SDL_AddEventWatch          0000000180031920 f   SDL_events.obj
 0001:00030970       SDL_DelEventWatch          0000000180031970 f   SDL_events.obj
 0001:000309d0       SDL_FilterEvents           00000001800319d0 f   SDL_events.obj
 0001:00030a60       SDL_RegisterEvents         0000000180031a60 f   SDL_events.obj
 0001:00030a90       SDL_FlushEvent             0000000180031a90 f   SDL_events.obj
 0001:00030aa0       SDL_PollEvent              0000000180031aa0 f   SDL_events.obj
 0001:00030ab0       SDL_WaitEvent              0000000180031ab0 f   SDL_events.obj
 0001:00030ac0       SDL_EventState             0000000180031ac0 f   SDL_events.obj
 0001:00030bc0       SDL_SendAppEvent           0000000180031bc0 f   SDL_events.obj
 0001:00030c00       SDL_SendSysWMEvent         0000000180031c00 f   SDL_events.obj
 0001:00030c60       SDL_StartEventLoop         0000000180031c60 f   SDL_events.obj
 0001:00030cc0       SDL_RecordGesture          0000000180031cc0 f   SDL_gesture.obj
 0001:00030e80       SDL_SaveAllDollarTemplates 0000000180031e80 f   SDL_gesture.obj
 0001:00030f30       SDL_SaveDollarTemplate     0000000180031f30 f   SDL_gesture.obj
 0001:00031110       SDL_LoadDollarTemplates    0000000180032110 f   SDL_gesture.obj
 0001:00031b50       SDL_GestureAddTouch        0000000180032b50 f   SDL_gesture.obj
 0001:00031c60       SDL_SendGestureMulti       0000000180032c60 f   SDL_gesture.obj
 0001:00031d50       SDL_GestureProcessEvent    0000000180032d50 f   SDL_gesture.obj
 0001:000321c0       SDL_UCS4ToUTF8             00000001800331c0 f   SDL_keyboard.obj
 0001:000322e0       SDL_KeyboardInit           00000001800332e0 f   SDL_keyboard.obj
 0001:00032310       SDL_GetDefaultKeymap       0000000180033310 f   SDL_keyboard.obj
 0001:00032330       SDL_SetKeymap              0000000180033330 f   SDL_keyboard.obj
 0001:00032370       SDL_SetScancodeName        0000000180033370 f   SDL_keyboard.obj
 0001:00032390       SDL_GetKeyboardFocus       0000000180033390 f   SDL_keyboard.obj
 0001:000323a0       SDL_SendKeyboardKey        00000001800333a0 f   SDL_keyboard.obj
 0001:00032840       SDL_SendKeyboardText       0000000180033840 f   SDL_keyboard.obj
 0001:000328d0       SDL_SendEditingText        00000001800338d0 f   SDL_keyboard.obj
 0001:00032970       SDL_KeyboardQuit           0000000180033970 f   SDL_keyboard.obj
 0001:00032980       SDL_GetKeyboardState       0000000180033980 f   SDL_keyboard.obj
 0001:000329a0       SDL_GetModState            00000001800339a0 f   SDL_keyboard.obj
 0001:000329b0       SDL_SetModState            00000001800339b0 f   SDL_keyboard.obj
 0001:000329c0       SDL_GetKeyFromScancode     00000001800339c0 f   SDL_keyboard.obj
 0001:00032a00       SDL_GetScancodeFromKey     0000000180033a00 f   SDL_keyboard.obj
 0001:00032a30       SDL_GetScancodeName        0000000180033a30 f   SDL_keyboard.obj
 0001:00032a80       SDL_GetScancodeFromName    0000000180033a80 f   SDL_keyboard.obj
 0001:00032b20       SDL_GetKeyName             0000000180033b20 f   SDL_keyboard.obj
 0001:00032c80       SDL_GetKeyFromName         0000000180033c80 f   SDL_keyboard.obj
 0001:00032de0       SDL_ResetKeyboard          0000000180033de0 f   SDL_keyboard.obj
 0001:00032e20       SDL_SetKeyboardFocus       0000000180033e20 f   SDL_keyboard.obj
 0001:00032ee0       SDL_GetMouse               0000000180033ee0 f   SDL_mouse.obj
 0001:00032ef0       SDL_GetMouseFocus          0000000180033ef0 f   SDL_mouse.obj
 0001:000330b0       SDL_GetMouseState          00000001800340b0 f   SDL_mouse.obj
 0001:000330e0       SDL_GetRelativeMouseState  00000001800340e0 f   SDL_mouse.obj
 0001:00033120       SDL_GetRelativeMouseMode   0000000180034120 f   SDL_mouse.obj
 0001:00033140       SDL_CreateColorCursor      0000000180034140 f   SDL_mouse.obj
 0001:00033210       SDL_CreateSystemCursor     0000000180034210 f   SDL_mouse.obj
 0001:00033260       SDL_SetCursor              0000000180034260 f   SDL_mouse.obj
 0001:00033310       SDL_GetCursor              0000000180034310 f   SDL_mouse.obj
 0001:00033340       SDL_GetDefaultCursor       0000000180034340 f   SDL_mouse.obj
 0001:00033370       SDL_FreeCursor             0000000180034370 f   SDL_mouse.obj
 0001:00033400       SDL_ShowCursor             0000000180034400 f   SDL_mouse.obj
 0001:00033450       SDL_MouseInit              0000000180034450 f   SDL_mouse.obj
 0001:00033470       SDL_SetDefaultCursor       0000000180034470 f   SDL_mouse.obj
 0001:000334a0       SDL_SetMouseFocus          00000001800344a0 f   SDL_mouse.obj
 0001:000335c0       SDL_SendMouseMotion        00000001800345c0 f   SDL_mouse.obj
 0001:00033640       SDL_SendMouseButton        0000000180034640 f   SDL_mouse.obj
 0001:00033780       SDL_SendMouseWheel         0000000180034780 f   SDL_mouse.obj
 0001:00033840       SDL_MouseQuit              0000000180034840 f   SDL_mouse.obj
 0001:000338b0       SDL_WarpMouseInWindow      00000001800348b0 f   SDL_mouse.obj
 0001:00033900       SDL_SetRelativeMouseMode   0000000180034900 f   SDL_mouse.obj
 0001:000339f0       SDL_CreateCursor           00000001800349f0 f   SDL_mouse.obj
 0001:00033b20       SDL_ResetMouse             0000000180034b20 f   SDL_mouse.obj
 0001:00033b80       SDL_QuitInit               0000000180034b80 f   SDL_quit.obj
 0001:00033b90       SDL_QuitQuit               0000000180034b90 f   SDL_quit.obj
 0001:00033ba0       SDL_SendQuit               0000000180034ba0 f   SDL_quit.obj
 0001:00033bb0       SDL_TouchInit              0000000180034bb0 f   SDL_touch.obj
 0001:00033bc0       SDL_GetNumTouchDevices     0000000180034bc0 f   SDL_touch.obj
 0001:00033bd0       SDL_GetTouchDevice         0000000180034bd0 f   SDL_touch.obj
 0001:00033c50       SDL_GetTouch               0000000180034c50 f   SDL_touch.obj
 0001:00033ce0       SDL_GetFinger              0000000180034ce0 f   SDL_touch.obj
 0001:00033d20       SDL_GetNumTouchFingers     0000000180034d20 f   SDL_touch.obj
 0001:00033d50       SDL_GetTouchFinger         0000000180034d50 f   SDL_touch.obj
 0001:00033da0       SDL_AddTouch               0000000180034da0 f   SDL_touch.obj
 0001:00033f90       SDL_SendTouch              0000000180034f90 f   SDL_touch.obj
 0001:00034150       SDL_SendTouchMotion        0000000180035150 f   SDL_touch.obj
 0001:000342d0       SDL_DelTouch               00000001800352d0 f   SDL_touch.obj
 0001:00034370       SDL_TouchQuit              0000000180035370 f   SDL_touch.obj
 0001:00034450       SDL_SendWindowEvent        0000000180035450 f   SDL_windowevents.obj
 0001:00034e20       SDL_RWFromFP               0000000180035e20 f   SDL_rwops.obj
 0001:00034e40       SDL_AllocRW                0000000180035e40 f   SDL_rwops.obj
 0001:00034e80       SDL_FreeRW                 0000000180035e80 f   SDL_rwops.obj
 0001:00034e90       SDL_ReadU8                 0000000180035e90 f   SDL_rwops.obj
 0001:00034ec0       SDL_ReadLE16               0000000180035ec0 f   SDL_rwops.obj
 0001:00034f00       SDL_ReadBE16               0000000180035f00 f   SDL_rwops.obj
 0001:00034f40       SDL_ReadLE32               0000000180035f40 f   SDL_rwops.obj
 0001:00034f70       SDL_ReadBE32               0000000180035f70 f   SDL_rwops.obj
 0001:00034fd0       SDL_ReadLE64               0000000180035fd0 f   SDL_rwops.obj
 0001:00035010       SDL_ReadBE64               0000000180036010 f   SDL_rwops.obj
 0001:000350b0       SDL_WriteU8                00000001800360b0 f   SDL_rwops.obj
 0001:000350e0       SDL_WriteLE16              00000001800360e0 f   SDL_rwops.obj
 0001:00035110       SDL_WriteBE16              0000000180036110 f   SDL_rwops.obj
 0001:00035140       SDL_WriteLE32              0000000180036140 f   SDL_rwops.obj
 0001:00035170       SDL_WriteBE32              0000000180036170 f   SDL_rwops.obj
 0001:000351d0       SDL_WriteLE64              00000001800361d0 f   SDL_rwops.obj
 0001:00035200       SDL_WriteBE64              0000000180036200 f   SDL_rwops.obj
 0001:00035310       SDL_RWFromFile             0000000180036310 f   SDL_rwops.obj
 0001:00035400       SDL_RWFromMem              0000000180036400 f   SDL_rwops.obj
 0001:000354d0       SDL_RWFromConstMem         00000001800364d0 f   SDL_rwops.obj
 0001:000355a0       SDL_HapticInit             00000001800365a0 f   SDL_haptic.obj
 0001:00035680       SDL_NumHaptics             0000000180036680 f   SDL_haptic.obj
 0001:00035690       SDL_HapticName             0000000180036690 f   SDL_haptic.obj
 0001:000356d0       SDL_HapticOpened           00000001800366d0 f   SDL_haptic.obj
 0001:00035750       SDL_HapticIndex            0000000180036750 f   SDL_haptic.obj
 0001:00035780       SDL_MouseIsHaptic          0000000180036780 f   SDL_haptic.obj
 0001:000357a0       SDL_JoystickIsHaptic       00000001800367a0 f   SDL_haptic.obj
 0001:000357f0       SDL_HapticOpenFromJoystick 00000001800367f0 f   SDL_haptic.obj
 0001:00035980       SDL_HapticQuit             0000000180036980 f   SDL_haptic.obj
 0001:000359c0       SDL_HapticNumEffects       00000001800369c0 f   SDL_haptic.obj
 0001:000359f0       SDL_HapticNumEffectsPlaying 00000001800369f0 f   SDL_haptic.obj
 0001:00035a20       SDL_HapticQuery            0000000180036a20 f   SDL_haptic.obj
 0001:00035a50       SDL_HapticNumAxes          0000000180036a50 f   SDL_haptic.obj
 0001:00035a80       SDL_HapticEffectSupported  0000000180036a80 f   SDL_haptic.obj
 0001:00035ad0       SDL_HapticNewEffect        0000000180036ad0 f   SDL_haptic.obj
 0001:00035bf0       SDL_HapticUpdateEffect     0000000180036bf0 f   SDL_haptic.obj
 0001:00035cb0       SDL_HapticRunEffect        0000000180036cb0 f   SDL_haptic.obj
 0001:00035d30       SDL_HapticStopEffect       0000000180036d30 f   SDL_haptic.obj
 0001:00035da0       SDL_HapticDestroyEffect    0000000180036da0 f   SDL_haptic.obj
 0001:00035e00       SDL_HapticGetEffectStatus  0000000180036e00 f   SDL_haptic.obj
 0001:00035e80       SDL_HapticSetGain          0000000180036e80 f   SDL_haptic.obj
 0001:00035f60       SDL_HapticSetAutocenter    0000000180036f60 f   SDL_haptic.obj
 0001:00035ff0       SDL_HapticPause            0000000180036ff0 f   SDL_haptic.obj
 0001:00036040       SDL_HapticUnpause          0000000180037040 f   SDL_haptic.obj
 0001:00036080       SDL_HapticStopAll          0000000180037080 f   SDL_haptic.obj
 0001:000360b0       SDL_HapticRumbleSupported  00000001800370b0 f   SDL_haptic.obj
 0001:000360f0       SDL_HapticRumbleInit       00000001800370f0 f   SDL_haptic.obj
 0001:000361e0       SDL_HapticRumblePlay       00000001800371e0 f   SDL_haptic.obj
 0001:000362c0       SDL_HapticRumbleStop       00000001800372c0 f   SDL_haptic.obj
 0001:00036310       SDL_HapticOpen             0000000180037310 f   SDL_haptic.obj
 0001:000364a0       SDL_HapticOpenFromMouse    00000001800374a0 f   SDL_haptic.obj
 0001:000364e0       SDL_HapticClose            00000001800374e0 f   SDL_haptic.obj
 0001:000365d0       SDL_PrivateGetControllerMappingForGUID 00000001800375d0 f   SDL_gamecontroller.obj
 0001:00036630       SDL_PrivateGetControllerMapping 0000000180037630 f   SDL_gamecontroller.obj
 0001:00036690       SDL_GameControllerGetAxisFromString 0000000180037690 f   SDL_gamecontroller.obj
 0001:00036720       SDL_GameControllerGetStringForAxis 0000000180037720 f   SDL_gamecontroller.obj
 0001:00036740       SDL_GameControllerGetButtonFromString 0000000180037740 f   SDL_gamecontroller.obj
 0001:000367d0       SDL_GameControllerGetStringForButton 00000001800377d0 f   SDL_gamecontroller.obj
 0001:000367f0       SDL_PrivateGameControllerParseButton 00000001800377f0 f   SDL_gamecontroller.obj
 0001:00036a70       SDL_PrivateLoadButtonMapping 0000000180037a70 f   SDL_gamecontroller.obj
 0001:00036b90       SDL_PrivateGetControllerGUIDFromMappingString 0000000180037b90 f   SDL_gamecontroller.obj
 0001:00036c20       SDL_PrivateGetControllerNameFromMappingString 0000000180037c20 f   SDL_gamecontroller.obj
 0001:00036ce0       SDL_PrivateGetControllerMappingFromMappingString 0000000180037ce0 f   SDL_gamecontroller.obj
 0001:00036d20       SDL_PrivateGameControllerRefreshMapping 0000000180037d20 f   SDL_gamecontroller.obj
 0001:00036dd0       SDL_GameControllerAddMapping 0000000180037dd0 f   SDL_gamecontroller.obj
 0001:00036f50       SDL_GameControllerMappingForGUID 0000000180037f50 f   SDL_gamecontroller.obj
 0001:00037030       SDL_GameControllerMapping  0000000180038030 f   SDL_gamecontroller.obj
 0001:00037120       SDL_GameControllerNameForIndex 0000000180038120 f   SDL_gamecontroller.obj
 0001:00037150       SDL_IsGameController       0000000180038150 f   SDL_gamecontroller.obj
 0001:00037170       SDL_GameControllerOpen     0000000180038170 f   SDL_gamecontroller.obj
 0001:000372e0       SDL_GameControllerUpdate   00000001800382e0 f   SDL_gamecontroller.obj
 0001:000372f0       SDL_GameControllerGetAxis  00000001800382f0 f   SDL_gamecontroller.obj
 0001:00037360       SDL_GameControllerGetButton 0000000180038360 f   SDL_gamecontroller.obj
 0001:00037420       SDL_GameControllerGetAttached 0000000180038420 f   SDL_gamecontroller.obj
 0001:00037440       SDL_GameControllerName     0000000180038440 f   SDL_gamecontroller.obj
 0001:00037460       SDL_GameControllerGetJoystick 0000000180038460 f   SDL_gamecontroller.obj
 0001:00037480       SDL_GameControllerGetBindForAxis 0000000180038480 f   SDL_gamecontroller.obj
 0001:000374f0       SDL_GameControllerGetBindForButton 00000001800384f0 f   SDL_gamecontroller.obj
 0001:000375b0       SDL_GameControllerClose    00000001800385b0 f   SDL_gamecontroller.obj
 0001:00037650       SDL_PrivateGameControllerAxis 0000000180038650 f   SDL_gamecontroller.obj
 0001:000376d0       SDL_PrivateGameControllerButton 00000001800386d0 f   SDL_gamecontroller.obj
 0001:00037780       SDL_GameControllerEventState 0000000180038780 f   SDL_gamecontroller.obj
 0001:00037830       SDL_GameControllerEventWatcher 0000000180038830 f   SDL_gamecontroller.obj
 0001:00037c30       SDL_GameControllerInit     0000000180038c30 f   SDL_gamecontroller.obj
 0001:00037ca0       SDL_GameControllerQuit     0000000180038ca0 f   SDL_gamecontroller.obj
 0001:00037d60       SDL_JoystickInit           0000000180038d60 f   SDL_joystick.obj
 0001:00037db0       SDL_NumJoysticks           0000000180038db0 f   SDL_joystick.obj
 0001:00037dc0       SDL_JoystickNameForIndex   0000000180038dc0 f   SDL_joystick.obj
 0001:00037e10       SDL_PrivateJoystickValid   0000000180038e10 f   SDL_joystick.obj
 0001:00037e50       SDL_JoystickNumAxes        0000000180038e50 f   SDL_joystick.obj
 0001:00037e80       SDL_JoystickNumHats        0000000180038e80 f   SDL_joystick.obj
 0001:00037eb0       SDL_JoystickNumBalls       0000000180038eb0 f   SDL_joystick.obj
 0001:00037ee0       SDL_JoystickNumButtons     0000000180038ee0 f   SDL_joystick.obj
 0001:00037f10       SDL_JoystickGetAxis        0000000180038f10 f   SDL_joystick.obj
 0001:00037f70       SDL_JoystickGetHat         0000000180038f70 f   SDL_joystick.obj
 0001:00037fd0       SDL_JoystickGetBall        0000000180038fd0 f   SDL_joystick.obj
 0001:00038060       SDL_JoystickGetButton      0000000180039060 f   SDL_joystick.obj
 0001:000380c0       SDL_JoystickGetAttached    00000001800390c0 f   SDL_joystick.obj
 0001:000380f0       SDL_JoystickInstanceID     00000001800390f0 f   SDL_joystick.obj
 0001:00038120       SDL_JoystickName           0000000180039120 f   SDL_joystick.obj
 0001:00038150       SDL_JoystickClose          0000000180039150 f   SDL_joystick.obj
 0001:00038200       SDL_JoystickQuit           0000000180039200 f   SDL_joystick.obj
 0001:00038290       SDL_PrivateJoystickAxis    0000000180039290 f   SDL_joystick.obj
 0001:00038350       SDL_PrivateJoystickHat     0000000180039350 f   SDL_joystick.obj
 0001:00038410       SDL_PrivateJoystickBall    0000000180039410 f   SDL_joystick.obj
 0001:000384d0       SDL_PrivateJoystickButton  00000001800394d0 f   SDL_joystick.obj
 0001:000385a0       SDL_JoystickUpdate         00000001800395a0 f   SDL_joystick.obj
 0001:000386a0       SDL_JoystickEventState     00000001800396a0 f   SDL_joystick.obj
 0001:00038750       SDL_PrivateJoystickNeedsPolling 0000000180039750 f   SDL_joystick.obj
 0001:00038770       SDL_JoystickGetDeviceGUID  0000000180039770 f   SDL_joystick.obj
 0001:00038800       SDL_JoystickGetGUID        0000000180039800 f   SDL_joystick.obj
 0001:00038880       SDL_JoystickGetGUIDString  0000000180039880 f   SDL_joystick.obj
 0001:00038940       SDL_JoystickGetGUIDFromString 0000000180039940 f   SDL_joystick.obj
 0001:000389e0       SDL_JoystickOpen           00000001800399e0 f   SDL_joystick.obj
 0001:00038c00       SDL_uclibc_atan2           0000000180039c00 f   e_atan2.obj
 0001:00038e80       SDL_uclibc_log             0000000180039e80 f   e_log.obj
 0001:00039190       SDL_uclibc_pow             000000018003a190 f   e_pow.obj
 0001:00039b00       __ieee754_rem_pio2         000000018003ab00 f   e_rem_pio2.obj
 0001:00039f60       SDL_uclibc_sqrt            000000018003af60 f   e_sqrt.obj
 0001:0003a180       __kernel_cos               000000018003b180 f   k_cos.obj
 0001:0003a2a0       __kernel_rem_pio2          000000018003b2a0 f   k_rem_pio2.obj
 0001:0003b060       __kernel_sin               000000018003c060 f   k_sin.obj
 0001:0003b130       SDL_uclibc_atan            000000018003c130 f   s_atan.obj
 0001:0003b370       SDL_uclibc_copysign        000000018003c370 f   s_copysign.obj
 0001:0003b3b0       SDL_uclibc_cos             000000018003c3b0 f   s_cos.obj
 0001:0003b450       SDL_uclibc_fabs            000000018003c450 f   s_fabs.obj
 0001:0003b480       SDL_uclibc_floor           000000018003c480 f   s_floor.obj
 0001:0003b600       SDL_uclibc_scalbn          000000018003c600 f   s_scalbn.obj
 0001:0003b730       SDL_uclibc_sin             000000018003c730 f   s_sin.obj
 0001:0003b7e0       SDL_GetPowerInfo           000000018003c7e0 f   SDL_power.obj
 0001:0003b860       SDL_GetNumRenderDrivers    000000018003c860 f   SDL_render.obj
 0001:0003b870       SDL_GetRenderDriverInfo    000000018003c870 f   SDL_render.obj
 0001:0003b8d0       SDL_GetRenderer            000000018003c8d0 f   SDL_render.obj
 0001:0003b8f0       SDL_GetRendererInfo        000000018003c8f0 f   SDL_render.obj
 0001:0003ba90       SDL_QueryTexture           000000018003ca90 f   SDL_render.obj
 0001:0003bb00       SDL_SetTextureColorMod     000000018003cb00 f   SDL_render.obj
 0001:0003bb90       SDL_GetTextureColorMod     000000018003cb90 f   SDL_render.obj
 0001:0003bbf0       SDL_SetTextureAlphaMod     000000018003cbf0 f   SDL_render.obj
 0001:0003bc60       SDL_GetTextureAlphaMod     000000018003cc60 f   SDL_render.obj
 0001:0003bcb0       SDL_SetTextureBlendMode    000000018003ccb0 f   SDL_render.obj
 0001:0003bd20       SDL_GetTextureBlendMode    000000018003cd20 f   SDL_render.obj
 0001:0003be10       SDL_LockTexture            000000018003ce10 f   SDL_render.obj
 0001:0003c030       SDL_UnlockTexture          000000018003d030 f   SDL_render.obj
 0001:0003c0a0       SDL_RenderTargetSupported  000000018003d0a0 f   SDL_render.obj
 0001:0003c0d0       SDL_SetRenderTarget        000000018003d0d0 f   SDL_render.obj
 0001:0003c360       SDL_GetRenderTarget        000000018003d360 f   SDL_render.obj
 0001:0003c370       SDL_RenderGetLogicalSize   000000018003d370 f   SDL_render.obj
 0001:0003c3c0       SDL_RenderGetViewport      000000018003d3c0 f   SDL_render.obj
 0001:0003c460       SDL_RenderSetClipRect      000000018003d460 f   SDL_render.obj
 0001:0003c580       SDL_RenderGetClipRect      000000018003d580 f   SDL_render.obj
 0001:0003c620       SDL_RenderSetScale         000000018003d620 f   SDL_render.obj
 0001:0003c670       SDL_RenderGetScale         000000018003d670 f   SDL_render.obj
 0001:0003c6c0       SDL_SetRenderDrawColor     000000018003d6c0 f   SDL_render.obj
 0001:0003c720       SDL_GetRenderDrawColor     000000018003d720 f   SDL_render.obj
 0001:0003c7a0       SDL_SetRenderDrawBlendMode 000000018003d7a0 f   SDL_render.obj
 0001:0003c7e0       SDL_GetRenderDrawBlendMode 000000018003d7e0 f   SDL_render.obj
 0001:0003c820       SDL_RenderClear            000000018003d820 f   SDL_render.obj
 0001:0003ca90       SDL_RenderDrawPoints       000000018003da90 f   SDL_render.obj
 0001:0003cf50       SDL_RenderDrawLines        000000018003df50 f   SDL_render.obj
 0001:0003d1e0       SDL_RenderDrawRect         000000018003e1e0 f   SDL_render.obj
 0001:0003d2a0       SDL_RenderDrawRects        000000018003e2a0 f   SDL_render.obj
 0001:0003d380       SDL_RenderFillRects        000000018003e380 f   SDL_render.obj
 0001:0003d6a0       SDL_RenderCopy             000000018003e6a0 f   SDL_render.obj
 0001:0003d870       SDL_RenderCopyEx           000000018003e870 f   SDL_render.obj
 0001:0003dac0       SDL_RenderReadPixels       000000018003eac0 f   SDL_render.obj
 0001:0003dc30       SDL_RenderPresent          000000018003ec30 f   SDL_render.obj
 0001:0003dc80       SDL_DestroyTexture         000000018003ec80 f   SDL_render.obj
 0001:0003dd50       SDL_GL_BindTexture         000000018003ed50 f   SDL_render.obj
 0001:0003ddd0       SDL_GL_UnbindTexture       000000018003edd0 f   SDL_render.obj
 0001:0003de30       SDL_GetRendererOutputSize  000000018003ee30 f   SDL_render.obj
 0001:0003ded0       SDL_CreateTexture          000000018003eed0 f   SDL_render.obj
 0001:0003e4c0       SDL_UpdateTexture          000000018003f4c0 f   SDL_render.obj
 0001:0003e760       SDL_UpdateYUVTexture       000000018003f760 f   SDL_render.obj
 0001:0003e980       SDL_RenderSetViewport      000000018003f980 f   SDL_render.obj
 0001:0003eac0       SDL_RenderDrawPoint        000000018003fac0 f   SDL_render.obj
 0001:0003eaf0       SDL_RenderDrawLine         000000018003faf0 f   SDL_render.obj
 0001:0003eb30       SDL_RenderFillRect         000000018003fb30 f   SDL_render.obj
 0001:0003ebc0       SDL_CreateSoftwareRenderer 000000018003fbc0 f   SDL_render.obj
 0001:0003ec10       SDL_CreateTextureFromSurface 000000018003fc10 f   SDL_render.obj
 0001:0003f000       SDL_RenderSetLogicalSize   0000000180040000 f   SDL_render.obj
 0001:0003f3b0       SDL_CreateRenderer         00000001800403b0 f   SDL_render.obj
 0001:0003f5f0       SDL_DestroyRenderer        00000001800405f0 f   SDL_render.obj
 0001:0003f690       SDL_CreateWindowAndRenderer 0000000180040690 f   SDL_render.obj
 0001:00041340       SDL_SW_QueryYUVTexturePixels 0000000180042340 f   SDL_yuv_sw.obj
 0001:00041360       SDL_SW_UpdateYUVTexture    0000000180042360 f   SDL_yuv_sw.obj
 0001:00041640       SDL_SW_UpdateYUVTexturePlanar 0000000180042640 f   SDL_yuv_sw.obj
 0001:00041840       SDL_SW_LockYUVTexture      0000000180042840 f   SDL_yuv_sw.obj
 0001:000418d0       SDL_SW_UnlockYUVTexture    00000001800428d0 f   SDL_yuv_sw.obj
 0001:000418e0       SDL_SW_CopyYUVToRGB        00000001800428e0 f   SDL_yuv_sw.obj
 0001:00041c80       SDL_SW_DestroyYUVTexture   0000000180042c80 f   SDL_yuv_sw.obj
 0001:00041cd0       SDL_SW_CreateYUVTexture    0000000180042cd0 f   SDL_yuv_sw.obj
 0001:00041f00       SDL_setenv                 0000000180042f00 f   SDL_getenv.obj
 0001:00041f70       SDL_getenv                 0000000180042f70 f   SDL_getenv.obj
 0001:000420d0       SDL_iconv_open             00000001800430d0 f   SDL_iconv.obj
 0001:000421c0       SDL_iconv                  00000001800431c0 f   SDL_iconv.obj
 0001:00042d70       SDL_iconv_close            0000000180043d70 f   SDL_iconv.obj
 0001:00042d90       SDL_iconv_string           0000000180043d90 f   SDL_iconv.obj
 0001:00044a10       SDL_malloc                 0000000180045a10 f   SDL_malloc.obj
 0001:00044dc0       SDL_free                   0000000180045dc0 f   SDL_malloc.obj
 0001:000454c0       SDL_calloc                 00000001800464c0 f   SDL_malloc.obj
 0001:00045530       malloc_trim                0000000180046530 f   SDL_malloc.obj
 0001:00045550       malloc_footprint           0000000180046550 f   SDL_malloc.obj
 0001:00045560       malloc_max_footprint       0000000180046560 f   SDL_malloc.obj
 0001:00045570       mallinfo                   0000000180046570 f   SDL_malloc.obj
 0001:000455b0       malloc_stats               00000001800465b0 f   SDL_malloc.obj
 0001:000455c0       malloc_usable_size         00000001800465c0 f   SDL_malloc.obj
 0001:00045600       mallopt                    0000000180046600 f   SDL_malloc.obj
 0001:00045b90       SDL_realloc                0000000180046b90 f   SDL_malloc.obj
 0001:00045bc0       memalign                   0000000180046bc0 f   SDL_malloc.obj
 0001:00045be0       independent_calloc         0000000180046be0 f   SDL_malloc.obj
 0001:00045c20       independent_comalloc       0000000180046c20 f   SDL_malloc.obj
 0001:00045c50       valloc                     0000000180046c50 f   SDL_malloc.obj
 0001:00045c80       pvalloc                    0000000180046c80 f   SDL_malloc.obj
 0001:00046b10       SDL_qsort                  0000000180047b10 f   SDL_qsort.obj
 0001:00046b50       SDL_atan                   0000000180047b50 f   SDL_stdlib.obj
 0001:00046b60       SDL_atan2                  0000000180047b60 f   SDL_stdlib.obj
 0001:00046b70       SDL_ceil                   0000000180047b70 f   SDL_stdlib.obj
 0001:00046b90       SDL_copysign               0000000180047b90 f   SDL_stdlib.obj
 0001:00046ba0       SDL_cos                    0000000180047ba0 f   SDL_stdlib.obj
 0001:00046bb0       SDL_cosf                   0000000180047bb0 f   SDL_stdlib.obj
 0001:00046bd0       SDL_fabs                   0000000180047bd0 f   SDL_stdlib.obj
 0001:00046be0       SDL_floor                  0000000180047be0 f   SDL_stdlib.obj
 0001:00046bf0       SDL_log                    0000000180047bf0 f   SDL_stdlib.obj
 0001:00046c00       SDL_pow                    0000000180047c00 f   SDL_stdlib.obj
 0001:00046c10       SDL_scalbn                 0000000180047c10 f   SDL_stdlib.obj
 0001:00046c20       SDL_sin                    0000000180047c20 f   SDL_stdlib.obj
 0001:00046c30       SDL_sinf                   0000000180047c30 f   SDL_stdlib.obj
 0001:00046c50       SDL_sqrt                   0000000180047c50 f   SDL_stdlib.obj
 0001:00046c60       SDL_abs                    0000000180047c60 f   SDL_stdlib.obj
 0001:00046c70       SDL_isdigit                0000000180047c70 f   SDL_stdlib.obj
 0001:00046c90       SDL_isspace                0000000180047c90 f   SDL_stdlib.obj
 0001:00046cc0       SDL_toupper                0000000180047cc0 f   SDL_stdlib.obj
 0001:00046ce0       SDL_tolower                0000000180047ce0 f   SDL_stdlib.obj
 0001:00046d30       SDL_memset                 0000000180047d30 f   SDL_string.obj
 0001:00046da0       SDL_memcpy                 0000000180047da0 f   SDL_string.obj
 0001:00046e40       SDL_memmove                0000000180047e40 f   SDL_string.obj
 0001:00046eb0       SDL_memcmp                 0000000180047eb0 f   SDL_string.obj
 0001:00046ef0       SDL_strlen                 0000000180047ef0 f   SDL_string.obj
 0001:00046f20       SDL_wcslen                 0000000180047f20 f   SDL_string.obj
 0001:00046f50       SDL_wcslcpy                0000000180047f50 f   SDL_string.obj
 0001:00046fb0       SDL_wcslcat                0000000180047fb0 f   SDL_string.obj
 0001:00047010       SDL_strlcpy                0000000180048010 f   SDL_string.obj
 0001:00047060       SDL_utf8strlcpy            0000000180048060 f   SDL_string.obj
 0001:00047100       SDL_strlcat                0000000180048100 f   SDL_string.obj
 0001:00047160       SDL_strdup                 0000000180048160 f   SDL_string.obj
 0001:000471c0       SDL_strrev                 00000001800481c0 f   SDL_string.obj
 0001:00047210       SDL_strupr                 0000000180048210 f   SDL_string.obj
 0001:00047250       SDL_strlwr                 0000000180048250 f   SDL_string.obj
 0001:00047290       SDL_strchr                 0000000180048290 f   SDL_string.obj
 0001:000472c0       SDL_strrchr                00000001800482c0 f   SDL_string.obj
 0001:00047300       SDL_ltoa                   0000000180048300 f   SDL_string.obj
 0001:00047380       SDL_ultoa                  0000000180048380 f   SDL_string.obj
 0001:000473e0       SDL_lltoa                  00000001800483e0 f   SDL_string.obj
 0001:00047460       SDL_ulltoa                 0000000180048460 f   SDL_string.obj
 0001:000474c0       SDL_strcmp                 00000001800484c0 f   SDL_string.obj
 0001:00047500       SDL_strncmp                0000000180048500 f   SDL_string.obj
 0001:00047550       SDL_strcasecmp             0000000180048550 f   SDL_string.obj
 0001:000475d0       SDL_strncasecmp            00000001800485d0 f   SDL_string.obj
 0001:00048080       SDL_strstr                 0000000180049080 f   SDL_string.obj
 0001:000480e0       SDL_itoa                   00000001800490e0 f   SDL_string.obj
 0001:000480f0       SDL_uitoa                  00000001800490f0 f   SDL_string.obj
 0001:00048100       SDL_strtol                 0000000180049100 f   SDL_string.obj
 0001:00048180       SDL_strtoul                0000000180049180 f   SDL_string.obj
 0001:00048200       SDL_strtoll                0000000180049200 f   SDL_string.obj
 0001:00048280       SDL_strtoull               0000000180049280 f   SDL_string.obj
 0001:00048300       SDL_strtod                 0000000180049300 f   SDL_string.obj
 0001:00048340       SDL_sscanf                 0000000180049340 f   SDL_string.obj
 0001:00048910       SDL_vsnprintf              0000000180049910 f   SDL_string.obj
 0001:00048e10       SDL_atoi                   0000000180049e10 f   SDL_string.obj
 0001:00048e20       SDL_atof                   0000000180049e20 f   SDL_string.obj
 0001:00048e30       SDL_snprintf               0000000180049e30 f   SDL_string.obj
 0001:00048e50       SDL_TLSCreate              0000000180049e50 f   SDL_thread.obj
 0001:00048e70       SDL_TLSGet                 0000000180049e70 f   SDL_thread.obj
 0001:00048eb0       SDL_TLSSet                 0000000180049eb0 f   SDL_thread.obj
 0001:00049020       SDL_Generic_GetTLSData     000000018004a020 f   SDL_thread.obj
 0001:000490e0       SDL_Generic_SetTLSData     000000018004a0e0 f   SDL_thread.obj
 0001:000491c0       SDL_GetErrBuf              000000018004a1c0 f   SDL_thread.obj
 0001:000492d0       SDL_RunThread              000000018004a2d0 f   SDL_thread.obj
 0001:00049340       SDL_CreateThread           000000018004a340 f   SDL_thread.obj
 0001:000494c0       SDL_GetThreadID            000000018004a4c0 f   SDL_thread.obj
 0001:000494e0       SDL_GetThreadName          000000018004a4e0 f   SDL_thread.obj
 0001:00049500       SDL_SetThreadPriority      000000018004a500 f   SDL_thread.obj
 0001:00049510       SDL_WaitThread             000000018004a510 f   SDL_thread.obj
 0001:00049740       SDL_TimerQuit              000000018004a740 f   SDL_timer.obj
 0001:00049850       SDL_RemoveTimer            000000018004a850 f   SDL_timer.obj
 0001:00049900       SDL_TimerInit              000000018004a900 f   SDL_timer.obj
 0001:000499b0       SDL_AddTimer               000000018004a9b0 f   SDL_timer.obj
 0001:00049e70       SDL_CalculateBlit          000000018004ae70 f   SDL_blit.obj
 0001:0004b1a0       SDL_CalculateBlit0         000000018004c1a0 f   SDL_blit_0.obj
 0001:0004e480       SDL_CalculateBlit1         000000018004f480 f   SDL_blit_1.obj
 0001:000547a0       SDL_CalculateBlitA         00000001800557a0 f   SDL_blit_A.obj
 0001:000667d0       SDL_BlitCopy               00000001800677d0 f   SDL_blit_copy.obj
 0001:0006eed0       SDL_CalculateBlitN         000000018006fed0 f   SDL_blit_N.obj
 0001:0006f180       SDL_Blit_Slow              0000000180070180 f   SDL_blit_slow.obj
 0001:0006ff00       SDL_LoadBMP_RW             0000000180070f00 f   SDL_bmp.obj
 0001:00070630       SDL_SaveBMP_RW             0000000180071630 f   SDL_bmp.obj
 0001:00070ac0       SDL_SetClipboardText       0000000180071ac0 f   SDL_clipboard.obj
 0001:00070b40       SDL_GetClipboardText       0000000180071b40 f   SDL_clipboard.obj
 0001:00070b90       SDL_HasClipboardText       0000000180071b90 f   SDL_clipboard.obj
 0001:000711a0       SDL_FillRect               00000001800721a0 f   SDL_fillrect.obj
 0001:000713a0       SDL_FillRects              00000001800723a0 f   SDL_fillrect.obj
 0001:00071420       SDL_GetPixelFormatName     0000000180072420 f   SDL_pixels.obj
 0001:000716a0       SDL_PixelFormatEnumToMasks 00000001800726a0 f   SDL_pixels.obj
 0001:000719d0       SDL_MasksToPixelFormatEnum 00000001800729d0 f   SDL_pixels.obj
 0001:00071e10       SDL_InitFormat             0000000180072e10 f   SDL_pixels.obj
 0001:00071f70       SDL_AllocPalette           0000000180072f70 f   SDL_pixels.obj
 0001:00072040       SDL_SetPaletteColors       0000000180073040 f   SDL_pixels.obj
 0001:000720b0       SDL_FreePalette            00000001800730b0 f   SDL_pixels.obj
 0001:00072100       SDL_DitherColors           0000000180073100 f   SDL_pixels.obj
 0001:00072180       SDL_CalculatePitch         0000000180073180 f   SDL_pixels.obj
 0001:000721d0       SDL_FindColor              00000001800731d0 f   SDL_pixels.obj
 0001:000722b0       SDL_MapRGB                 00000001800732b0 f   SDL_pixels.obj
 0001:00072320       SDL_MapRGBA                0000000180073320 f   SDL_pixels.obj
 0001:000723b0       SDL_GetRGB                 00000001800733b0 f   SDL_pixels.obj
 0001:00072490       SDL_GetRGBA                0000000180073490 f   SDL_pixels.obj
 0001:000729d0       SDL_AllocBlitMap           00000001800739d0 f   SDL_pixels.obj
 0001:00072a10       SDL_InvalidateMap          0000000180073a10 f   SDL_pixels.obj
 0001:00072a70       SDL_MapSurface             0000000180073a70 f   SDL_pixels.obj
 0001:00072c50       SDL_FreeBlitMap            0000000180073c50 f   SDL_pixels.obj
 0001:00072c80       SDL_CalculateGammaRamp     0000000180073c80 f   SDL_pixels.obj
 0001:00072de0       SDL_AllocFormat            0000000180073de0 f   SDL_pixels.obj
 0001:00072ec0       SDL_FreeFormat             0000000180073ec0 f   SDL_pixels.obj
 0001:00072f60       SDL_SetPixelFormatPalette  0000000180073f60 f   SDL_pixels.obj
 0001:00072ff0       SDL_HasIntersection        0000000180073ff0 f   SDL_rect.obj
 0001:000730c0       SDL_IntersectRect          00000001800740c0 f   SDL_rect.obj
 0001:000731d0       SDL_UnionRect              00000001800741d0 f   SDL_rect.obj
 0001:00073300       SDL_EnclosePoints          0000000180074300 f   SDL_rect.obj
 0001:00073510       SDL_IntersectRectAndLine   0000000180074510 f   SDL_rect.obj
 0001:00073930       SDL_GetSpanEnclosingRect   0000000180074930 f   SDL_rect.obj
 0001:000750f0       SDL_RLEBlit                00000001800760f0 f   SDL_RLEaccel.obj
 0001:000768d0       SDL_RLEAlphaBlit           00000001800778d0 f   SDL_RLEaccel.obj
 0001:00078260       SDL_UnRLESurface           0000000180079260 f   SDL_RLEaccel.obj
 0001:00078330       SDL_RLESurface             0000000180079330 f   SDL_RLEaccel.obj
 0001:00078410       SDL_CreateShapedWindow     0000000180079410 f   SDL_shape.obj
 0001:000784d0       SDL_IsShapedWindow         00000001800794d0 f   SDL_shape.obj
 0001:000784f0       SDL_CalculateShapeBitmap   00000001800794f0 f   SDL_shape.obj
 0001:000789f0       SDL_CalculateShapeTree     00000001800799f0 f   SDL_shape.obj
 0001:00078a70       SDL_TraverseShapeTree      0000000180079a70 f   SDL_shape.obj
 0001:00078af0       SDL_FreeShapeTree          0000000180079af0 f   SDL_shape.obj
 0001:00078b50       SDL_SetWindowShape         0000000180079b50 f   SDL_shape.obj
 0001:00078c70       SDL_GetShapedWindowMode    0000000180079c70 f   SDL_shape.obj
 0001:00078eb0       SDL_SoftStretch            0000000180079eb0 f   SDL_stretch.obj
 0001:00079190       SDL_SetSurfacePalette      000000018007a190 f   SDL_surface.obj
 0001:000791b0       SDL_SetSurfaceRLE          000000018007a1b0 f   SDL_surface.obj
 0001:00079200       SDL_SetColorKey            000000018007a200 f   SDL_surface.obj
 0001:00079360       SDL_GetColorKey            000000018007a360 f   SDL_surface.obj
 0001:00079390       SDL_SetSurfaceColorMod     000000018007a390 f   SDL_surface.obj
 0001:00079400       SDL_GetSurfaceColorMod     000000018007a400 f   SDL_surface.obj
 0001:00079450       SDL_SetSurfaceAlphaMod     000000018007a450 f   SDL_surface.obj
 0001:000794a0       SDL_GetSurfaceAlphaMod     000000018007a4a0 f   SDL_surface.obj
 0001:000794d0       SDL_SetSurfaceBlendMode    000000018007a4d0 f   SDL_surface.obj
 0001:00079570       SDL_GetSurfaceBlendMode    000000018007a570 f   SDL_surface.obj
 0001:000795c0       SDL_SetClipRect            000000018007a5c0 f   SDL_surface.obj
 0001:00079630       SDL_GetClipRect            000000018007a630 f   SDL_surface.obj
 0001:00079660       SDL_LowerBlit              000000018007a660 f   SDL_surface.obj
 0001:00079700       SDL_UpperBlit              000000018007a700 f   SDL_surface.obj
 0001:000798d0       SDL_LowerBlitScaled        000000018007a8d0 f   SDL_surface.obj
 0001:00079a70       SDL_LockSurface            000000018007aa70 f   SDL_surface.obj
 0001:00079ab0       SDL_UnlockSurface          000000018007aab0 f   SDL_surface.obj
 0001:00079c00       SDL_ConvertPixels          000000018007ac00 f   SDL_surface.obj
 0001:00079ea0       SDL_FreeSurface            000000018007aea0 f   SDL_surface.obj
 0001:00079f40       SDL_CreateRGBSurface       000000018007af40 f   SDL_surface.obj
 0001:0007a120       SDL_CreateRGBSurfaceFrom   000000018007b120 f   SDL_surface.obj
 0001:0007a300       SDL_UpperBlitScaled        000000018007b300 f   SDL_surface.obj
 0001:0007a4a0       SDL_ConvertSurface         000000018007b4a0 f   SDL_surface.obj
 0001:0007a800       SDL_ConvertSurfaceFormat   000000018007b800 f   SDL_surface.obj
 0001:0007a980       SDL_GetNumVideoDrivers     000000018007b980 f   SDL_video.obj
 0001:0007a990       SDL_GetVideoDriver         000000018007b990 f   SDL_video.obj
 0001:0007a9d0       SDL_GetCurrentVideoDriver  000000018007b9d0 f   SDL_video.obj
 0001:0007aa00       SDL_GetVideoDevice         000000018007ba00 f   SDL_video.obj
 0001:0007aa10       SDL_AddVideoDisplay        000000018007ba10 f   SDL_video.obj
 0001:0007ab00       SDL_GetNumVideoDisplays    000000018007bb00 f   SDL_video.obj
 0001:0007ab80       SDL_GetDisplayDriverData   000000018007bb80 f   SDL_video.obj
 0001:0007abf0       SDL_GetDisplayName         000000018007bbf0 f   SDL_video.obj
 0001:0007ac60       SDL_GetDisplayBounds       000000018007bc60 f   SDL_video.obj
 0001:0007ad30       SDL_AddDisplayMode         000000018007bd30 f   SDL_video.obj
 0001:0007ae80       SDL_GetNumDisplayModes     000000018007be80 f   SDL_video.obj
 0001:0007aef0       SDL_GetDisplayMode         000000018007bef0 f   SDL_video.obj
 0001:0007aff0       SDL_GetDesktopDisplayMode  000000018007bff0 f   SDL_video.obj
 0001:0007b080       SDL_GetCurrentDisplayMode  000000018007c080 f   SDL_video.obj
 0001:0007b2e0       SDL_GetClosestDisplayMode  000000018007c2e0 f   SDL_video.obj
 0001:0007b4a0       SDL_GetWindowDisplayIndex  000000018007c4a0 f   SDL_video.obj
 0001:0007b6b0       SDL_GetDisplayForWindow    000000018007c6b0 f   SDL_video.obj
 0001:0007b6f0       SDL_SetWindowDisplayMode   000000018007c6f0 f   SDL_video.obj
 0001:0007b770       SDL_GetWindowDisplayMode   000000018007c770 f   SDL_video.obj
 0001:0007b8d0       SDL_GetWindowPixelFormat   000000018007c8d0 f   SDL_video.obj
 0001:0007b970       SDL_GetWindowID            000000018007c970 f   SDL_video.obj
 0001:0007b9c0       SDL_GetWindowFromID        000000018007c9c0 f   SDL_video.obj
 0001:0007ba00       SDL_GetWindowFlags         000000018007ca00 f   SDL_video.obj
 0001:0007ba50       SDL_SetWindowTitle         000000018007ca50 f   SDL_video.obj
 0001:0007bb00       SDL_GetWindowTitle         000000018007cb00 f   SDL_video.obj
 0001:0007bb70       SDL_SetWindowIcon          000000018007cb70 f   SDL_video.obj
 0001:0007bc20       SDL_SetWindowData          000000018007cc20 f   SDL_video.obj
 0001:0007bda0       SDL_GetWindowData          000000018007cda0 f   SDL_video.obj
 0001:0007be60       SDL_SetWindowPosition      000000018007ce60 f   SDL_video.obj
 0001:0007bff0       SDL_GetWindowPosition      000000018007cff0 f   SDL_video.obj
 0001:0007c070       SDL_SetWindowBordered      000000018007d070 f   SDL_video.obj
 0001:0007c100       SDL_GetWindowSize          000000018007d100 f   SDL_video.obj
 0001:0007c160       SDL_GetWindowMinimumSize   000000018007d160 f   SDL_video.obj
 0001:0007c1c0       SDL_GetWindowMaximumSize   000000018007d1c0 f   SDL_video.obj
 0001:0007c220       SDL_ShowWindow             000000018007d220 f   SDL_video.obj
 0001:0007c2a0       SDL_RaiseWindow            000000018007d2a0 f   SDL_video.obj
 0001:0007c300       SDL_MaximizeWindow         000000018007d300 f   SDL_video.obj
 0001:0007c360       SDL_MinimizeWindow         000000018007d360 f   SDL_video.obj
 0001:0007c3e0       SDL_RestoreWindow          000000018007d3e0 f   SDL_video.obj
 0001:0007c520       SDL_GetWindowSurface       000000018007d520 f   SDL_video.obj
 0001:0007c5c0       SDL_UpdateWindowSurfaceRects 000000018007d5c0 f   SDL_video.obj
 0001:0007c640       SDL_GetWindowBrightness    000000018007d640 f   SDL_video.obj
 0001:0007c6a0       SDL_GetWindowGammaRamp     000000018007d6a0 f   SDL_video.obj
 0001:0007c830       SDL_UpdateWindowGrab       000000018007d830 f   SDL_video.obj
 0001:0007c880       SDL_SetWindowGrab          000000018007d880 f   SDL_video.obj
 0001:0007c910       SDL_GetWindowGrab          000000018007d910 f   SDL_video.obj
 0001:0007c970       SDL_OnWindowResized        000000018007d970 f   SDL_video.obj
 0001:0007c990       SDL_OnWindowEnter          000000018007d990 f   SDL_video.obj
 0001:0007c9c0       SDL_OnWindowLeave          000000018007d9c0 f   SDL_video.obj
 0001:0007c9d0       SDL_OnWindowFocusGained    000000018007d9d0 f   SDL_video.obj
 0001:0007ca90       SDL_OnWindowFocusLost      000000018007da90 f   SDL_video.obj
 0001:0007caf0       SDL_GetFocusWindow         000000018007daf0 f   SDL_video.obj
 0001:0007cb30       SDL_IsScreenSaverEnabled   000000018007db30 f   SDL_video.obj
 0001:0007cb60       SDL_EnableScreenSaver      000000018007db60 f   SDL_video.obj
 0001:0007cba0       SDL_DisableScreenSaver     000000018007dba0 f   SDL_video.obj
 0001:0007cbe0       SDL_GL_LoadLibrary         000000018007dbe0 f   SDL_video.obj
 0001:0007ccc0       SDL_GL_GetProcAddress      000000018007dcc0 f   SDL_video.obj
 0001:0007cd50       SDL_GL_UnloadLibrary       000000018007dd50 f   SDL_video.obj
 0001:0007cdd0       SDL_GL_ExtensionSupported  000000018007ddd0 f   SDL_video.obj
 0001:0007cf50       SDL_GL_SetAttribute        000000018007df50 f   SDL_video.obj
 0001:0007d250       SDL_GL_GetAttribute        000000018007e250 f   SDL_video.obj
 0001:0007d510       SDL_GL_CreateContext       000000018007e510 f   SDL_video.obj
 0001:0007d5f0       SDL_GL_GetCurrentWindow    000000018007e5f0 f   SDL_video.obj
 0001:0007d630       SDL_GL_GetCurrentContext   000000018007e630 f   SDL_video.obj
 0001:0007d670       SDL_GL_GetDrawableSize     000000018007e670 f   SDL_video.obj
 0001:0007d6d0       SDL_GL_SetSwapInterval     000000018007e6d0 f   SDL_video.obj
 0001:0007d740       SDL_GL_GetSwapInterval     000000018007e740 f   SDL_video.obj
 0001:0007d780       SDL_GL_SwapWindow          000000018007e780 f   SDL_video.obj
 0001:0007d820       SDL_GetWindowWMInfo        000000018007e820 f   SDL_video.obj
 0001:0007d890       SDL_StartTextInput         000000018007e890 f   SDL_video.obj
 0001:0007d900       SDL_IsTextInputActive      000000018007e900 f   SDL_video.obj
 0001:0007d930       SDL_StopTextInput          000000018007e930 f   SDL_video.obj
 0001:0007d9a0       SDL_SetTextInputRect       000000018007e9a0 f   SDL_video.obj
 0001:0007d9d0       SDL_HasScreenKeyboardSupport 000000018007e9d0 f   SDL_video.obj
 0001:0007da00       SDL_IsScreenKeyboardShown  000000018007ea00 f   SDL_video.obj
 0001:0007da80       SDL_ShowMessageBox         000000018007ea80 f   SDL_video.obj
 0001:0007db70       SDL_ShowSimpleMessageBox   000000018007eb70 f   SDL_video.obj
 0001:0007dc10       SDL_ShouldAllowTopmost     000000018007ec10 f   SDL_video.obj
 0001:0007e090       SDL_AddBasicVideoDisplay   000000018007f090 f   SDL_video.obj
 0001:0007e2c0       SDL_SetWindowSize          000000018007f2c0 f   SDL_video.obj
 0001:0007e3c0       SDL_SetWindowMinimumSize   000000018007f3c0 f   SDL_video.obj
 0001:0007e490       SDL_SetWindowMaximumSize   000000018007f490 f   SDL_video.obj
 0001:0007e560       SDL_HideWindow             000000018007f560 f   SDL_video.obj
 0001:0007e5e0       SDL_SetWindowFullscreen    000000018007f5e0 f   SDL_video.obj
 0001:0007e680       SDL_UpdateWindowSurface    000000018007f680 f   SDL_video.obj
 0001:0007e700       SDL_SetWindowGammaRamp     000000018007f700 f   SDL_video.obj
 0001:0007e840       SDL_OnWindowHidden         000000018007f840 f   SDL_video.obj
 0001:0007e850       SDL_OnWindowMinimized      000000018007f850 f   SDL_video.obj
 0001:0007e860       SDL_OnWindowRestored       000000018007f860 f   SDL_video.obj
 0001:0007e8a0       SDL_GL_MakeCurrent         000000018007f8a0 f   SDL_video.obj
 0001:0007e9c0       SDL_GL_DeleteContext       000000018007f9c0 f   SDL_video.obj
 0001:0007ea90       SDL_RecreateWindow         000000018007fa90 f   SDL_video.obj
 0001:0007ec20       SDL_SetWindowBrightness    000000018007fc20 f   SDL_video.obj
 0001:0007ecc0       SDL_OnWindowShown          000000018007fcc0 f   SDL_video.obj
 0001:0007ecd0       SDL_DestroyWindow          000000018007fcd0 f   SDL_video.obj
 0001:0007eea0       SDL_VideoQuit              000000018007fea0 f   SDL_video.obj
 0001:0007f0a0       SDL_VideoInit              00000001800800a0 f   SDL_video.obj
 0001:0007f400       SDL_CreateWindow           0000000180080400 f   SDL_video.obj
 0001:0007f690       SDL_CreateWindowFrom       0000000180080690 f   SDL_video.obj
 0001:0007fa30       SDL_SetMainReady           0000000180080a30 f   SDL.obj
 0001:0007fa50       SDL_InitSubSystem          0000000180080a50 f   SDL.obj
 0001:0007fbe0       SDL_Init                   0000000180080be0 f   SDL.obj
 0001:0007fbf0       SDL_QuitSubSystem          0000000180080bf0 f   SDL.obj
 0001:0007fd10       SDL_WasInit                0000000180080d10 f   SDL.obj
 0001:0007fe80       SDL_Quit                   0000000180080e80 f   SDL.obj
 0001:0007fee0       SDL_GetVersion             0000000180080ee0 f   SDL.obj
 0001:0007ff00       SDL_GetRevision            0000000180080f00 f   SDL.obj
 0001:0007ff10       SDL_GetRevisionNumber      0000000180080f10 f   SDL.obj
 0001:0007ff20       SDL_GetPlatform            0000000180080f20 f   SDL.obj
 0001:0007ff30       _DllMainCRTStartup         0000000180080f30 f   SDL.obj
 0001:00080280       SDL_ReportAssertion        0000000180081280 f   SDL_assert.obj
 0001:000803c0       SDL_SetAssertionHandler    00000001800813c0 f   SDL_assert.obj
 0001:00080400       SDL_GetAssertionReport     0000000180081400 f   SDL_assert.obj
 0001:00080410       SDL_ResetAssertionReport   0000000180081410 f   SDL_assert.obj
 0001:00080530       SDL_AssertionsQuit         0000000180081530 f   SDL_assert.obj
 0001:000807d0       SDL_GetError               00000001800817d0 f   SDL_error.obj
 0001:000807f0       SDL_ClearError             00000001800817f0 f   SDL_error.obj
 0001:00080810       SDL_SetError               0000000180081810 f   SDL_error.obj
 0001:00080a90       SDL_Error                  0000000180081a90 f   SDL_error.obj
 0001:00080af0       SDL_SetHintWithPriority    0000000180081af0 f   SDL_hints.obj
 0001:00080c50       SDL_SetHint                0000000180081c50 f   SDL_hints.obj
 0001:00080c70       SDL_GetHint                0000000180081c70 f   SDL_hints.obj
 0001:00080cf0       SDL_DelHintCallback        0000000180081cf0 f   SDL_hints.obj
 0001:00080da0       SDL_ClearHints             0000000180081da0 f   SDL_hints.obj
 0001:00080e30       SDL_AddHintCallback        0000000180081e30 f   SDL_hints.obj
 0001:00080f70       SDL_LogSetAllPriority      0000000180081f70 f   SDL_log.obj
 0001:00080fb0       SDL_LogSetPriority         0000000180081fb0 f   SDL_log.obj
 0001:00081030       SDL_LogGetPriority         0000000180082030 f   SDL_log.obj
 0001:00081080       SDL_LogResetPriorities     0000000180082080 f   SDL_log.obj
 0001:000810e0       SDL_LogMessageV            00000001800820e0 f   SDL_log.obj
 0001:00081340       SDL_LogGetOutputFunction   0000000180082340 f   SDL_log.obj
 0001:00081370       SDL_LogSetOutputFunction   0000000180082370 f   SDL_log.obj
 0001:00081390       SDL_Log                    0000000180082390 f   SDL_log.obj
 0001:000813d0       SDL_LogVerbose             00000001800823d0 f   SDL_log.obj
 0001:00081400       SDL_LogDebug               0000000180082400 f   SDL_log.obj
 0001:00081430       SDL_LogInfo                0000000180082430 f   SDL_log.obj
 0001:00081460       SDL_LogWarn                0000000180082460 f   SDL_log.obj
 0001:00081490       SDL_LogError               0000000180082490 f   SDL_log.obj
 0001:000814c0       SDL_LogCritical            00000001800824c0 f   SDL_log.obj
 0001:000814f0       SDL_LogMessage             00000001800824f0 f   SDL_log.obj
 0001:00083970       WIN_SetError               0000000180084970 f   SDL_windows.obj
 0001:00083a30       WIN_CoInitialize           0000000180084a30 f   SDL_windows.obj
 0001:00083a50       WIN_CoUninitialize         0000000180084a50 f   SDL_windows.obj
 0001:00083a60       SDL_GetBasePath            0000000180084a60 f   SDL_sysfilesystem.obj
 0001:00083af0       SDL_GetPrefPath            0000000180084af0 f   SDL_sysfilesystem.obj
 0001:00083da0       SDL_SYS_HapticName         0000000180084da0 f   SDL_syshaptic.obj
 0001:000841e0       SDL_SYS_HapticMouse        00000001800851e0 f   SDL_syshaptic.obj
 0001:00084220       SDL_SYS_JoystickIsHaptic   0000000180085220 f   SDL_syshaptic.obj
 0001:00084250       SDL_SYS_JoystickSameHaptic 0000000180085250 f   SDL_syshaptic.obj
 0001:00084310       SDL_SYS_HapticClose        0000000180085310 f   SDL_syshaptic.obj
 0001:000843a0       SDL_SYS_HapticQuit         00000001800853a0 f   SDL_syshaptic.obj
 0001:00084fa0       SDL_SYS_HapticUpdateEffect 0000000180085fa0 f   SDL_syshaptic.obj
 0001:000850d0       SDL_SYS_HapticRunEffect    00000001800860d0 f   SDL_syshaptic.obj
 0001:000851e0       SDL_SYS_HapticStopEffect   00000001800861e0 f   SDL_syshaptic.obj
 0001:00085280       SDL_SYS_HapticDestroyEffect 0000000180086280 f   SDL_syshaptic.obj
 0001:000852f0       SDL_SYS_HapticGetEffectStatus 00000001800862f0 f   SDL_syshaptic.obj
 0001:00085340       SDL_SYS_HapticSetGain      0000000180086340 f   SDL_syshaptic.obj
 0001:000853a0       SDL_SYS_HapticSetAutocenter 00000001800863a0 f   SDL_syshaptic.obj
 0001:00085410       SDL_SYS_HapticPause        0000000180086410 f   SDL_syshaptic.obj
 0001:00085450       SDL_SYS_HapticUnpause      0000000180086450 f   SDL_syshaptic.obj
 0001:00085490       SDL_SYS_HapticStopAll      0000000180086490 f   SDL_syshaptic.obj
 0001:000855d0       SDL_SYS_HapticInit         00000001800865d0 f   SDL_syshaptic.obj
 0001:00085ab0       SDL_SYS_HapticOpen         0000000180086ab0 f   SDL_syshaptic.obj
 0001:00085b20       SDL_SYS_HapticOpenFromJoystick 0000000180086b20 f   SDL_syshaptic.obj
 0001:00085c50       SDL_SYS_HapticNewEffect    0000000180086c50 f   SDL_syshaptic.obj
 0001:00085d60       WIN_UnloadXInputDLL        0000000180086d60 f   SDL_dxjoystick.obj
 0001:00085fc0       SDL_PrivateJoystickDetectProc 0000000180086fc0 f   SDL_dxjoystick.obj
 0001:000863a0       SDL_SYS_NumJoysticks       00000001800873a0 f   SDL_dxjoystick.obj
 0001:00086740       SDL_SYS_JoystickDetect     0000000180087740 f   SDL_dxjoystick.obj
 0001:00086930       SDL_SYS_JoystickNeedsPolling 0000000180087930 f   SDL_dxjoystick.obj
 0001:00086960       SDL_SYS_JoystickNameForDeviceIndex 0000000180087960 f   SDL_dxjoystick.obj
 0001:00086990       SDL_SYS_GetInstanceIdOfDeviceIndex 0000000180087990 f   SDL_dxjoystick.obj
 0001:000869c0       SDL_SYS_JoystickAttached   00000001800879c0 f   SDL_dxjoystick.obj
 0001:00086d50       ButtonChanged              0000000180087d50 f   SDL_dxjoystick.obj
 0001:00086d70       SDL_SYS_JoystickUpdate_XInput 0000000180087d70 f   SDL_dxjoystick.obj
 0001:00087340       SDL_SYS_JoystickClose      0000000180088340 f   SDL_dxjoystick.obj
 0001:00087390       SDL_SYS_JoystickQuit       0000000180088390 f   SDL_dxjoystick.obj
 0001:000874a0       SDL_SYS_JoystickGetDeviceGUID 00000001800884a0 f   SDL_dxjoystick.obj
 0001:000874e0       SDL_SYS_JoystickGetGUID    00000001800884e0 f   SDL_dxjoystick.obj
 0001:00087500       SDL_SYS_IsXInputDeviceIndex 0000000180088500 f   SDL_dxjoystick.obj
 0001:00087530       SDL_SYS_IsXInputJoystick   0000000180088530 f   SDL_dxjoystick.obj
 0001:00087550       WIN_LoadXInputDLL          0000000180088550 f   SDL_dxjoystick.obj
 0001:00087670       SDL_SYS_JoystickInit       0000000180088670 f   SDL_dxjoystick.obj
 0001:00087810       SDL_SYS_JoystickOpen       0000000180088810 f   SDL_dxjoystick.obj
 0001:00087b90       SDL_SYS_JoystickUpdate_Polled 0000000180088b90 f   SDL_dxjoystick.obj
 0001:00087e00       SDL_SYS_JoystickUpdate_Buffered 0000000180088e00 f   SDL_dxjoystick.obj
 0001:00087fb0       SDL_SYS_JoystickUpdate     0000000180088fb0 f   SDL_dxjoystick.obj
 0001:00088050       SDL_LoadObject             0000000180089050 f   SDL_sysloadso.obj
 0001:00088100       SDL_LoadFunction           0000000180089100 f   SDL_sysloadso.obj
 0001:00088170       SDL_UnloadObject           0000000180089170 f   SDL_sysloadso.obj
 0001:00088190       SDL_GetPowerInfo_Windows   0000000180089190 f   SDL_syspower.obj
 0001:000898e0       SDL_RenderGetD3D9Device    000000018008a8e0 f   SDL_render_d3d.obj
 0001:000901f0       GL_SelectShader            00000001800911f0 f   SDL_shaders_gl.obj
 0001:00090210       GL_DestroyShaderContext    0000000180091210 f   SDL_shaders_gl.obj
 0001:00090270       GL_CreateShaderContext     0000000180091270 f   SDL_shaders_gl.obj
 0001:00095aa0       SDL_BlendFillRect          0000000180096aa0 f   SDL_blendfillrect.obj
 0001:00095cf0       SDL_BlendFillRects         0000000180096cf0 f   SDL_blendfillrect.obj
 0001:0009fa10       SDL_BlendLine              00000001800a0a10 f   SDL_blendline.obj
 0001:0009fb20       SDL_BlendLines             00000001800a0b20 f   SDL_blendline.obj
 0001:000a12d0       SDL_BlendPoint             00000001800a22d0 f   SDL_blendpoint.obj
 0001:000a1530       SDL_BlendPoints            00000001800a2530 f   SDL_blendpoint.obj
 0001:000a2580       SDL_DrawLine               00000001800a3580 f   SDL_drawline.obj
 0001:000a2640       SDL_DrawLines              00000001800a3640 f   SDL_drawline.obj
 0001:000a27b0       SDL_DrawPoint              00000001800a37b0 f   SDL_drawpoint.obj
 0001:000a28a0       SDL_DrawPoints             00000001800a38a0 f   SDL_drawpoint.obj
 0001:000a41e0       SW_CreateRendererForSurface 00000001800a51e0 f   SDL_render_sw.obj
 0001:000a4410       SDLgfx_rotozoomSurfaceSizeTrig 00000001800a5410 f   SDL_rotate.obj
 0001:000a50a0       SDLgfx_rotateSurface       00000001800a60a0 f   SDL_rotate.obj
 0001:000a5420       SDL_CreateMutex            00000001800a6420 f   SDL_sysmutex.obj
 0001:000a5470       SDL_DestroyMutex           00000001800a6470 f   SDL_sysmutex.obj
 0001:000a54a0       SDL_LockMutex              00000001800a64a0 f   SDL_sysmutex.obj
 0001:000a54d0       SDL_TryLockMutex           00000001800a64d0 f   SDL_sysmutex.obj
 0001:000a5510       SDL_UnlockMutex            00000001800a6510 f   SDL_sysmutex.obj
 0001:000a5540       SDL_CreateSemaphore        00000001800a6540 f   SDL_syssem.obj
 0001:000a55c0       SDL_DestroySemaphore       00000001800a65c0 f   SDL_syssem.obj
 0001:000a5600       SDL_SemWaitTimeout         00000001800a6600 f   SDL_syssem.obj
 0001:000a5670       SDL_SemTryWait             00000001800a6670 f   SDL_syssem.obj
 0001:000a5680       SDL_SemWait                00000001800a6680 f   SDL_syssem.obj
 0001:000a5690       SDL_SemValue               00000001800a6690 f   SDL_syssem.obj
 0001:000a56c0       SDL_SemPost                00000001800a66c0 f   SDL_syssem.obj
 0001:000a5780       SDL_SYS_CreateThread       00000001800a6780 f   SDL_systhread.obj
 0001:000a5830       SDL_SYS_SetupThread        00000001800a6830 f   SDL_systhread.obj
 0001:000a5840       SDL_ThreadID               00000001800a6840 f   SDL_systhread.obj
 0001:000a5850       SDL_SYS_SetThreadPriority  00000001800a6850 f   SDL_systhread.obj
 0001:000a58a0       SDL_SYS_WaitThread         00000001800a68a0 f   SDL_systhread.obj
 0001:000a58d0       SDL_SYS_GetTLSData         00000001800a68d0 f   SDL_systls.obj
 0001:000a5960       SDL_SYS_SetTLSData         00000001800a6960 f   SDL_systls.obj
 0001:000a59a0       SDL_DestroyCond            00000001800a69a0 f   SDL_syscond.obj
 0001:000a59f0       SDL_CondSignal             00000001800a69f0 f   SDL_syscond.obj
 0001:000a5a60       SDL_CondBroadcast          00000001800a6a60 f   SDL_syscond.obj
 0001:000a5b20       SDL_CondWaitTimeout        00000001800a6b20 f   SDL_syscond.obj
 0001:000a5be0       SDL_CondWait               00000001800a6be0 f   SDL_syscond.obj
 0001:000a5bf0       SDL_CreateCond             00000001800a6bf0 f   SDL_syscond.obj
 0001:000a5d10       SDL_InitTicks              00000001800a6d10 f   SDL_systimer.obj
 0001:000a5d90       SDL_GetTicks               00000001800a6d90 f   SDL_systimer.obj
 0001:000a5df0       SDL_GetPerformanceCounter  00000001800a6df0 f   SDL_systimer.obj
 0001:000a5e20       SDL_GetPerformanceFrequency 00000001800a6e20 f   SDL_systimer.obj
 0001:000a5e50       SDL_Delay                  00000001800a6e50 f   SDL_systimer.obj
 0001:000a5e60       DUMMY_PumpEvents           00000001800a6e60 f   SDL_nullevents.obj
 0001:000a5e70       SDL_DUMMY_CreateWindowFramebuffer 00000001800a6e70 f   SDL_nullframebuffer.obj
 0001:000a5f80       SDL_DUMMY_UpdateWindowFramebuffer 00000001800a6f80 f   SDL_nullframebuffer.obj
 0001:000a6040       SDL_DUMMY_DestroyWindowFramebuffer 00000001800a7040 f   SDL_nullframebuffer.obj
 0001:000a6230       WIN_SetClipboardText       00000001800a7230 f   SDL_windowsclipboard.obj
 0001:000a63e0       WIN_GetClipboardText       00000001800a73e0 f   SDL_windowsclipboard.obj
 0001:000a64b0       WIN_HasClipboardText       00000001800a74b0 f   SDL_windowsclipboard.obj
 0001:000a64e0       WIN_CheckClipboardUpdate   00000001800a74e0 f   SDL_windowsclipboard.obj
 0001:000a6910       WIN_CheckWParamMouseButton 00000001800a7910 f   SDL_windowsevents.obj
 0001:000a6950       WIN_CheckWParamMouseButtons 00000001800a7950 f   SDL_windowsevents.obj
 0001:000a6a00       WIN_CheckRawMouseButtons   00000001800a7a00 f   SDL_windowsevents.obj
 0001:000a6b60       WIN_WindowProc             00000001800a7b60 f   SDL_windowsevents.obj
 0001:000a7bd0       WIN_PumpEvents             00000001800a8bd0 f   SDL_windowsevents.obj
 0001:000a7ca0       SDL_RegisterApp            00000001800a8ca0 f   SDL_windowsevents.obj
 0001:000a7e20       SDL_UnregisterApp          00000001800a8e20 f   SDL_windowsevents.obj
 0001:000a7e90       WIN_CreateWindowFramebuffer 00000001800a8e90 f   SDL_windowsframebuffer.obj
 0001:000a80c0       WIN_UpdateWindowFramebuffer 00000001800a90c0 f   SDL_windowsframebuffer.obj
 0001:000a8110       WIN_DestroyWindowFramebuffer 00000001800a9110 f   SDL_windowsframebuffer.obj
 0001:000a8160       WIN_UpdateKeymap           00000001800a9160 f   SDL_windowskeyboard.obj
 0001:000a8230       WIN_SetTextInputRect       00000001800a9230 f   SDL_windowskeyboard.obj
 0001:000a8d50       TSFSink_AddRef             00000001800a9d50 f   SDL_windowskeyboard.obj
 0001:000a8d60       TSFSink_Release            00000001800a9d60 f   SDL_windowskeyboard.obj
 0001:000a8d80       UIElementSink_QueryInterface 00000001800a9d80 f   SDL_windowskeyboard.obj
 0001:000a8e30       UILess_GetUIElement        00000001800a9e30 f   SDL_windowskeyboard.obj
 0001:000a8e90       IPPASink_QueryInterface    00000001800a9e90 f   SDL_windowskeyboard.obj
 0001:000a9ae0       IME_Present                00000001800aaae0 f   SDL_windowskeyboard.obj
 0001:000a9b00       WIN_InitKeyboard           00000001800aab00 f   SDL_windowskeyboard.obj
 0001:000aa0d0       IME_HandleMessage          00000001800ab0d0 f   SDL_windowskeyboard.obj
 0001:000aa600       UIElementSink_BeginUIElement 00000001800ab600 f   SDL_windowskeyboard.obj
 0001:000aa6e0       UIElementSink_UpdateUIElement 00000001800ab6e0 f   SDL_windowskeyboard.obj
 0001:000aa7e0       UIElementSink_EndUIElement 00000001800ab7e0 f   SDL_windowskeyboard.obj
 0001:000aa8b0       IPPASink_OnActivated       00000001800ab8b0 f   SDL_windowskeyboard.obj
 0001:000aa930       WIN_QuitKeyboard           00000001800ab930 f   SDL_windowskeyboard.obj
 0001:000aab20       WIN_StartTextInput         00000001800abb20 f   SDL_windowskeyboard.obj
 0001:000aab90       WIN_StopTextInput          00000001800abb90 f   SDL_windowskeyboard.obj
 0001:000ab2e0       WIN_ShowMessageBox         00000001800ac2e0 f   SDL_windowsmessagebox.obj
 0001:000ab930       WIN_InitModes              00000001800ac930 f   SDL_windowsmodes.obj
 0001:000abaa0       WIN_GetDisplayBounds       00000001800acaa0 f   SDL_windowsmodes.obj
 0001:000abad0       WIN_GetDisplayModes        00000001800acad0 f   SDL_windowsmodes.obj
 0001:000abb80       WIN_SetDisplayMode         00000001800acb80 f   SDL_windowsmodes.obj
 0001:000abc70       WIN_QuitModes              00000001800acc70 f   SDL_windowsmodes.obj
 0001:000ac1c0       WIN_InitMouse              00000001800ad1c0 f   SDL_windowsmouse.obj
 0001:000ac230       WIN_QuitMouse              00000001800ad230 f   SDL_windowsmouse.obj
 0001:000ac260       WIN_GL_LoadLibrary         00000001800ad260 f   SDL_windowsopengl.obj
 0001:000ac3d0       WIN_GL_GetProcAddress      00000001800ad3d0 f   SDL_windowsopengl.obj
 0001:000ac420       WIN_GL_UnloadLibrary       00000001800ad420 f   SDL_windowsopengl.obj
 0001:000aceb0       WIN_GL_MakeCurrent         00000001800adeb0 f   SDL_windowsopengl.obj
 0001:000acf40       WIN_GL_SetSwapInterval     00000001800adf40 f   SDL_windowsopengl.obj
 0001:000acfb0       WIN_GL_GetSwapInterval     00000001800adfb0 f   SDL_windowsopengl.obj
 0001:000acfd0       WIN_GL_SwapWindow          00000001800adfd0 f   SDL_windowsopengl.obj
 0001:000acff0       WIN_GL_DeleteContext       00000001800adff0 f   SDL_windowsopengl.obj
 0001:000ad020       WIN_GL_SetupWindow         00000001800ae020 f   SDL_windowsopengl.obj
 0001:000ad090       WIN_GL_CreateContext       00000001800ae090 f   SDL_windowsopengl.obj
 0001:000ad290       CombineRectRegions         00000001800ae290 f   SDL_windowsshape.obj
 0001:000ad320       Win32_SetWindowShape       00000001800ae320 f   SDL_windowsshape.obj
 0001:000ad410       Win32_ResizeWindowShape    00000001800ae410 f   SDL_windowsshape.obj
 0001:000ad490       Win32_CreateShaper         00000001800ae490 f   SDL_windowsshape.obj
 0001:000ad5d0       D3D_LoadDLL                00000001800ae5d0 f   SDL_windowsvideo.obj
 0001:000ad660       SDL_Direct3D9GetAdapterIndex 00000001800ae660 f   SDL_windowsvideo.obj
 0001:000ade80       WIN_CreateWindowFrom       00000001800aee80 f   SDL_windowswindow.obj
 0001:000adf50       WIN_SetWindowTitle         00000001800aef50 f   SDL_windowswindow.obj
 0001:000adfd0       WIN_SetWindowIcon          00000001800aefd0 f   SDL_windowswindow.obj
 0001:000ae160       WIN_SetWindowPosition      00000001800af160 f   SDL_windowswindow.obj
 0001:000ae180       WIN_SetWindowSize          00000001800af180 f   SDL_windowswindow.obj
 0001:000ae1a0       WIN_ShowWindow             00000001800af1a0 f   SDL_windowswindow.obj
 0001:000ae1c0       WIN_HideWindow             00000001800af1c0 f   SDL_windowswindow.obj
 0001:000ae1e0       WIN_MaximizeWindow         00000001800af1e0 f   SDL_windowswindow.obj
 0001:000ae200       WIN_MinimizeWindow         00000001800af200 f   SDL_windowswindow.obj
 0001:000ae220       WIN_SetWindowBordered      00000001800af220 f   SDL_windowswindow.obj
 0001:000ae2b0       WIN_RestoreWindow          00000001800af2b0 f   SDL_windowswindow.obj
 0001:000ae2d0       WIN_SetWindowFullscreen    00000001800af2d0 f   SDL_windowswindow.obj
 0001:000ae430       WIN_SetWindowGammaRamp     00000001800af430 f   SDL_windowswindow.obj
 0001:000ae4b0       WIN_GetWindowGammaRamp     00000001800af4b0 f   SDL_windowswindow.obj
 0001:000ae530       WIN_SetWindowGrab          00000001800af530 f   SDL_windowswindow.obj
 0001:000ae5d0       WIN_DestroyWindow          00000001800af5d0 f   SDL_windowswindow.obj
 0001:000ae640       WIN_GetWindowWMInfo        00000001800af640 f   SDL_windowswindow.obj
 0001:000ae690       SDL_HelperWindowCreate     00000001800af690 f   SDL_windowswindow.obj
 0001:000ae7b0       SDL_HelperWindowDestroy    00000001800af7b0 f   SDL_windowswindow.obj
 0001:000ae850       WIN_OnWindowEnter          00000001800af850 f   SDL_windowswindow.obj
 0001:000ae8a0       WIN_CreateWindow           00000001800af8a0 f   SDL_windowswindow.obj
 0001:000aea20       WIN_RaiseWindow            00000001800afa20 f   SDL_windowswindow.obj
 0001:000aea50       ImmGetIMEFileNameA         00000001800afa50 f   Imm32:IMM32.dll
 0001:000aea56       ImmReleaseContext          00000001800afa56 f   Imm32:IMM32.dll
 0001:000aea5c       ImmGetContext              00000001800afa5c f   Imm32:IMM32.dll
 0001:000aea62       ImmSetCompositionStringW   00000001800afa62 f   Imm32:IMM32.dll
 0001:000aea68       ImmNotifyIME               00000001800afa68 f   Imm32:IMM32.dll
 0001:000aea6e       ImmGetCompositionStringW   00000001800afa6e f   Imm32:IMM32.dll
 0001:000aea74       ImmGetCandidateListW       00000001800afa74 f   Imm32:IMM32.dll
 0001:000aea7a       ImmAssociateContext        00000001800afa7a f   Imm32:IMM32.dll
 0001:000aea80       VerQueryValueA             00000001800afa80 f   Version:VERSION.dll
 0001:000aea86       GetFileVersionInfoA        00000001800afa86 f   Version:VERSION.dll
 0001:000aea8c       GetFileVersionInfoSizeA    00000001800afa8c f   Version:VERSION.dll
 0001:000aea92       GetSystemPowerStatus       00000001800afa92 f   kernel32:KERNEL32.dll
 0001:000aea98       memcpy                     00000001800afa98 f   MSVCRT:MSVCR90.dll
 0002:00000000       __imp_CombineRgn           00000001800b0000     gdi32:GDI32.dll
 0002:00000008       __imp_GetTextMetricsW      00000001800b0008     gdi32:GDI32.dll
 0002:00000010       __imp_GetDeviceCaps        00000001800b0010     gdi32:GDI32.dll
 0002:00000018       __imp_CreatePen            00000001800b0018     gdi32:GDI32.dll
 0002:00000020       __imp_CreateSolidBrush     00000001800b0020     gdi32:GDI32.dll
 0002:00000028       __imp_CreateFontW          00000001800b0028     gdi32:GDI32.dll
 0002:00000030       __imp_SetBkMode            00000001800b0030     gdi32:GDI32.dll
 0002:00000038       __imp_GetTextExtentPoint32W 00000001800b0038     gdi32:GDI32.dll
 0002:00000040       __imp_SetTextColor         00000001800b0040     gdi32:GDI32.dll
 0002:00000048       __imp_ExtTextOutW          00000001800b0048     gdi32:GDI32.dll
 0002:00000050       __imp_Rectangle            00000001800b0050     gdi32:GDI32.dll
 0002:00000058       __imp_BitBlt               00000001800b0058     gdi32:GDI32.dll
 0002:00000060       __imp_DeleteDC             00000001800b0060     gdi32:GDI32.dll
 0002:00000068       __imp_DeleteObject         00000001800b0068     gdi32:GDI32.dll
 0002:00000070       __imp_CreateCompatibleBitmap 00000001800b0070     gdi32:GDI32.dll
 0002:00000078       __imp_GetDIBits            00000001800b0078     gdi32:GDI32.dll
 0002:00000080       __imp_CreateCompatibleDC   00000001800b0080     gdi32:GDI32.dll
 0002:00000088       __imp_CreateDIBSection     00000001800b0088     gdi32:GDI32.dll
 0002:00000090       __imp_SelectObject         00000001800b0090     gdi32:GDI32.dll
 0002:00000098       __imp_CreateDCW            00000001800b0098     gdi32:GDI32.dll
 0002:000000a0       __imp_CreateBitmap         00000001800b00a0     gdi32:GDI32.dll
 0002:000000a8       __imp_DescribePixelFormat  00000001800b00a8     gdi32:GDI32.dll
 0002:000000b0       __imp_SetPixelFormat       00000001800b00b0     gdi32:GDI32.dll
 0002:000000b8       __imp_ChoosePixelFormat    00000001800b00b8     gdi32:GDI32.dll
 0002:000000c0       __imp_SwapBuffers          00000001800b00c0     gdi32:GDI32.dll
 0002:000000c8       __imp_CreateRectRgn        00000001800b00c8     gdi32:GDI32.dll
 0002:000000d0       __imp_SetDeviceGammaRamp   00000001800b00d0     gdi32:GDI32.dll
 0002:000000d8       __imp_GetDeviceGammaRamp   00000001800b00d8     gdi32:GDI32.dll
 0002:000000e0       __imp_CreateFontIndirectW  00000001800b00e0     gdi32:GDI32.dll
 0002:000000e8       \177GDI32_NULL_THUNK_DATA  00000001800b00e8     gdi32:GDI32.dll
 0002:000000f0       __imp_ImmGetContext        00000001800b00f0     Imm32:IMM32.dll
 0002:000000f8       __imp_ImmReleaseContext    00000001800b00f8     Imm32:IMM32.dll
 0002:00000100       __imp_ImmSetCompositionStringW 00000001800b0100     Imm32:IMM32.dll
 0002:00000108       __imp_ImmNotifyIME         00000001800b0108     Imm32:IMM32.dll
 0002:00000110       __imp_ImmGetCompositionStringW 00000001800b0110     Imm32:IMM32.dll
 0002:00000118       __imp_ImmGetCandidateListW 00000001800b0118     Imm32:IMM32.dll
 0002:00000120       __imp_ImmAssociateContext  00000001800b0120     Imm32:IMM32.dll
 0002:00000128       __imp_ImmGetIMEFileNameA   00000001800b0128     Imm32:IMM32.dll
 0002:00000130       \177IMM32_NULL_THUNK_DATA  00000001800b0130     Imm32:IMM32.dll
 0002:00000138       __imp_lstrlenW             00000001800b0138     kernel32:KERNEL32.dll
 0002:00000140       __imp_WriteConsoleW        00000001800b0140     kernel32:KERNEL32.dll
 0002:00000148       __imp_ExitProcess          00000001800b0148     kernel32:KERNEL32.dll
 0002:00000150       __imp_VirtualQuery         00000001800b0150     kernel32:KERNEL32.dll
 0002:00000158       __imp_VirtualFree          00000001800b0158     kernel32:KERNEL32.dll
 0002:00000160       __imp_VirtualAlloc         00000001800b0160     kernel32:KERNEL32.dll
 0002:00000168       __imp_GetEnvironmentVariableA 00000001800b0168     kernel32:KERNEL32.dll
 0002:00000170       __imp_SetEnvironmentVariableA 00000001800b0170     kernel32:KERNEL32.dll
 0002:00000178       __imp_CloseHandle          00000001800b0178     kernel32:KERNEL32.dll
 0002:00000180       __imp_GetStdHandle         00000001800b0180     kernel32:KERNEL32.dll
 0002:00000188       __imp_WriteFile            00000001800b0188     kernel32:KERNEL32.dll
 0002:00000190       __imp_ReadFile             00000001800b0190     kernel32:KERNEL32.dll
 0002:00000198       __imp_SetFilePointerEx     00000001800b0198     kernel32:KERNEL32.dll
 0002:000001a0       __imp_GetFileSizeEx        00000001800b01a0     kernel32:KERNEL32.dll
 0002:000001a8       __imp_SetErrorMode         00000001800b01a8     kernel32:KERNEL32.dll
 0002:000001b0       __imp_CreateFileW          00000001800b01b0     kernel32:KERNEL32.dll
 0002:000001b8       __imp_GlobalMemoryStatusEx 00000001800b01b8     kernel32:KERNEL32.dll
 0002:000001c0       __imp_GetSystemInfo        00000001800b01c0     kernel32:KERNEL32.dll
 0002:000001c8       __imp_OutputDebugStringW   00000001800b01c8     kernel32:KERNEL32.dll
 0002:000001d0       __imp_GetLastError         00000001800b01d0     kernel32:KERNEL32.dll
 0002:000001d8       __imp_AttachConsole        00000001800b01d8     kernel32:KERNEL32.dll
 0002:000001e0       __imp_ReleaseSemaphore     00000001800b01e0     kernel32:KERNEL32.dll
 0002:000001e8       __imp_WideCharToMultiByte  00000001800b01e8     kernel32:KERNEL32.dll
 0002:000001f0       __imp_WaitForSingleObject  00000001800b01f0     kernel32:KERNEL32.dll
 0002:000001f8       __imp_FormatMessageW       00000001800b01f8     kernel32:KERNEL32.dll
 0002:00000200       __imp_CreateSemaphoreW     00000001800b0200     kernel32:KERNEL32.dll
 0002:00000208       __imp_GetModuleFileNameW   00000001800b0208     kernel32:KERNEL32.dll
 0002:00000210       __imp_GetModuleHandleW     00000001800b0210     kernel32:KERNEL32.dll
 0002:00000218       __imp_FreeLibrary          00000001800b0218     kernel32:KERNEL32.dll
 0002:00000220       __imp_GetProcAddress       00000001800b0220     kernel32:KERNEL32.dll
 0002:00000228       __imp_LoadLibraryW         00000001800b0228     kernel32:KERNEL32.dll
 0002:00000230       __imp_GetSystemPowerStatus 00000001800b0230     kernel32:KERNEL32.dll
 0002:00000238       __imp_InitializeCriticalSectionAndSpinCount 00000001800b0238     kernel32:KERNEL32.dll
 0002:00000240       __imp_DeleteCriticalSection 00000001800b0240     kernel32:KERNEL32.dll
 0002:00000248       __imp_EnterCriticalSection 00000001800b0248     kernel32:KERNEL32.dll
 0002:00000250       __imp_TryEnterCriticalSection 00000001800b0250     kernel32:KERNEL32.dll
 0002:00000258       __imp_LeaveCriticalSection 00000001800b0258     kernel32:KERNEL32.dll
 0002:00000260       __imp_CreateThread         00000001800b0260     kernel32:KERNEL32.dll
 0002:00000268       __imp_GetCurrentThreadId   00000001800b0268     kernel32:KERNEL32.dll
 0002:00000270       __imp_SetThreadPriority    00000001800b0270     kernel32:KERNEL32.dll
 0002:00000278       __imp_GetCurrentThread     00000001800b0278     kernel32:KERNEL32.dll
 0002:00000280       __imp_TlsGetValue          00000001800b0280     kernel32:KERNEL32.dll
 0002:00000288       __imp_TlsAlloc             00000001800b0288     kernel32:KERNEL32.dll
 0002:00000290       __imp_TlsSetValue          00000001800b0290     kernel32:KERNEL32.dll
 0002:00000298       __imp_QueryPerformanceCounter 00000001800b0298     kernel32:KERNEL32.dll
 0002:000002a0       __imp_QueryPerformanceFrequency 00000001800b02a0     kernel32:KERNEL32.dll
 0002:000002a8       __imp_Sleep                00000001800b02a8     kernel32:KERNEL32.dll
 0002:000002b0       __imp_GlobalUnlock         00000001800b02b0     kernel32:KERNEL32.dll
 0002:000002b8       __imp_GlobalLock           00000001800b02b8     kernel32:KERNEL32.dll
 0002:000002c0       __imp_GlobalAlloc          00000001800b02c0     kernel32:KERNEL32.dll
 0002:000002c8       __imp_CompareStringA       00000001800b02c8     kernel32:KERNEL32.dll
 0002:000002d0       __imp_GetVersionExA        00000001800b02d0     kernel32:KERNEL32.dll
 0002:000002d8       __imp_MulDiv               00000001800b02d8     kernel32:KERNEL32.dll
 0002:000002e0       __imp_SetFilePointer       00000001800b02e0     kernel32:KERNEL32.dll
 0002:000002e8       \177KERNEL32_NULL_THUNK_DATA 00000001800b02e8     kernel32:KERNEL32.dll
 0002:000002f0       __imp_memcpy               00000001800b02f0     MSVCRT:MSVCR90.dll
 0002:000002f8       \177MSVCR90_NULL_THUNK_DATA 00000001800b02f8     MSVCRT:MSVCR90.dll
 0002:00000300       __imp_SysFreeString        00000001800b0300     oleaut32:OLEAUT32.dll
 0002:00000308       \177OLEAUT32_NULL_THUNK_DATA 00000001800b0308     oleaut32:OLEAUT32.dll
 0002:00000310       __imp_DragQueryFileW       00000001800b0310     shell32:SHELL32.dll
 0002:00000318       __imp_DragFinish           00000001800b0318     shell32:SHELL32.dll
 0002:00000320       __imp_SHGetFolderPathW     00000001800b0320     shell32:SHELL32.dll
 0002:00000328       __imp_DragAcceptFiles      00000001800b0328     shell32:SHELL32.dll
 0002:00000330       \177SHELL32_NULL_THUNK_DATA 00000001800b0330     shell32:SHELL32.dll
 0002:00000338       __imp_SetWindowTextW       00000001800b0338     user32:USER32.dll
 0002:00000340       __imp_TrackMouseEvent      00000001800b0340     user32:USER32.dll
 0002:00000348       __imp_GetWindowLongPtrW    00000001800b0348     user32:USER32.dll
 0002:00000350       __imp_SendMessageW         00000001800b0350     user32:USER32.dll
 0002:00000358       __imp_CreateIconFromResource 00000001800b0358     user32:USER32.dll
 0002:00000360       __imp_ShowWindow           00000001800b0360     user32:USER32.dll
 0002:00000368       __imp_GetWindowTextW       00000001800b0368     user32:USER32.dll
 0002:00000370       __imp_GetWindowTextLengthW 00000001800b0370     user32:USER32.dll
 0002:00000378       __imp_SetWindowLongW       00000001800b0378     user32:USER32.dll
 0002:00000380       __imp_GetRawInputDeviceInfoA 00000001800b0380     user32:USER32.dll
 0002:00000388       __imp_SetPropW             00000001800b0388     user32:USER32.dll
 0002:00000390       __imp_GetRawInputDeviceList 00000001800b0390     user32:USER32.dll
 0002:00000398       __imp_DefWindowProcW       00000001800b0398     user32:USER32.dll
 0002:000003a0       __imp_UnregisterClassW     00000001800b03a0     user32:USER32.dll
 0002:000003a8       __imp_DestroyWindow        00000001800b03a8     user32:USER32.dll
 0002:000003b0       __imp_UnregisterDeviceNotification 00000001800b03b0     user32:USER32.dll
 0002:000003b8       __imp_DispatchMessageW     00000001800b03b8     user32:USER32.dll
 0002:000003c0       __imp_TranslateMessage     00000001800b03c0     user32:USER32.dll
 0002:000003c8       __imp_GetMessageW          00000001800b03c8     user32:USER32.dll
 0002:000003d0       __imp_PeekMessageW         00000001800b03d0     user32:USER32.dll
 0002:000003d8       __imp_RegisterDeviceNotificationW 00000001800b03d8     user32:USER32.dll
 0002:000003e0       __imp_CreateWindowExW      00000001800b03e0     user32:USER32.dll
 0002:000003e8       __imp_RegisterClassExW     00000001800b03e8     user32:USER32.dll
 0002:000003f0       __imp_CloseClipboard       00000001800b03f0     user32:USER32.dll
 0002:000003f8       __imp_SetWindowLongPtrW    00000001800b03f8     user32:USER32.dll
 0002:00000400       __imp_GetFocus             00000001800b0400     user32:USER32.dll
 0002:00000408       __imp_SetWindowPos         00000001800b0408     user32:USER32.dll
 0002:00000410       __imp_SetWindowRgn         00000001800b0410     user32:USER32.dll
 0002:00000418       __imp_GetActiveWindow      00000001800b0418     user32:USER32.dll
 0002:00000420       __imp_RegisterRawInputDevices 00000001800b0420     user32:USER32.dll
 0002:00000428       __imp_SetCursorPos         00000001800b0428     user32:USER32.dll
 0002:00000430       __imp_CreateIconIndirect   00000001800b0430     user32:USER32.dll
 0002:00000438       __imp_DestroyIcon          00000001800b0438     user32:USER32.dll
 0002:00000440       __imp_GetClipboardSequenceNumber 00000001800b0440     user32:USER32.dll
 0002:00000448       __imp_SetClipboardData     00000001800b0448     user32:USER32.dll
 0002:00000450       __imp_EmptyClipboard       00000001800b0450     user32:USER32.dll
 0002:00000458       __imp_OpenClipboard        00000001800b0458     user32:USER32.dll
 0002:00000460       __imp_LoadCursorW          00000001800b0460     user32:USER32.dll
 0002:00000468       __imp_ChangeDisplaySettingsExW 00000001800b0468     user32:USER32.dll
 0002:00000470       __imp_EnumDisplayDevicesW  00000001800b0470     user32:USER32.dll
 0002:00000478       __imp_EnumDisplaySettingsW 00000001800b0478     user32:USER32.dll
 0002:00000480       __imp_SystemParametersInfoW 00000001800b0480     user32:USER32.dll
 0002:00000488       __imp_DrawTextW            00000001800b0488     user32:USER32.dll
 0002:00000490       __imp_DialogBoxIndirectParamW 00000001800b0490     user32:USER32.dll
 0002:00000498       __imp_SystemParametersInfoA 00000001800b0498     user32:USER32.dll
 0002:000004a0       __imp_GetDC                00000001800b04a0     user32:USER32.dll
 0002:000004a8       __imp_ReleaseDC            00000001800b04a8     user32:USER32.dll
 0002:000004b0       __imp_EndDialog            00000001800b04b0     user32:USER32.dll
 0002:000004b8       __imp_GetKeyboardLayout    00000001800b04b8     user32:USER32.dll
 0002:000004c0       __imp_MapVirtualKeyW       00000001800b04c0     user32:USER32.dll
 0002:000004c8       __imp_GetClassInfoW        00000001800b04c8     user32:USER32.dll
 0002:000004d0       __imp_LoadImageW           00000001800b04d0     user32:USER32.dll
 0002:000004d8       __imp_RegisterClassW       00000001800b04d8     user32:USER32.dll
 0002:000004e0       __imp_GetKeyState          00000001800b04e0     user32:USER32.dll
 0002:000004e8       __imp_GetPropW             00000001800b04e8     user32:USER32.dll
 0002:000004f0       __imp_CallWindowProcW      00000001800b04f0     user32:USER32.dll
 0002:000004f8       __imp_IsZoomed             00000001800b04f8     user32:USER32.dll
 0002:00000500       __imp_GetAsyncKeyState     00000001800b0500     user32:USER32.dll
 0002:00000508       __imp_GetWindowRect        00000001800b0508     user32:USER32.dll
 0002:00000510       __imp_ClipCursor           00000001800b0510     user32:USER32.dll
 0002:00000518       __imp_GetUpdateRect        00000001800b0518     user32:USER32.dll
 0002:00000520       __imp_ValidateRect         00000001800b0520     user32:USER32.dll
 0002:00000528       __imp_GetRawInputData      00000001800b0528     user32:USER32.dll
 0002:00000530       __imp_GetKeyboardState     00000001800b0530     user32:USER32.dll
 0002:00000538       __imp_ToUnicode            00000001800b0538     user32:USER32.dll
 0002:00000540       __imp_GetWindowLongW       00000001800b0540     user32:USER32.dll
 0002:00000548       __imp_GetMenu              00000001800b0548     user32:USER32.dll
 0002:00000550       __imp_AdjustWindowRectEx   00000001800b0550     user32:USER32.dll
 0002:00000558       __imp_GetClientRect        00000001800b0558     user32:USER32.dll
 0002:00000560       __imp_ClientToScreen       00000001800b0560     user32:USER32.dll
 0002:00000568       __imp_SetCursor            00000001800b0568     user32:USER32.dll
 0002:00000570       __imp_GetCursorPos         00000001800b0570     user32:USER32.dll
 0002:00000578       __imp_ScreenToClient       00000001800b0578     user32:USER32.dll
 0002:00000580       __imp_IsClipboardFormatAvailable 00000001800b0580     user32:USER32.dll
 0002:00000588       __imp_GetClipboardData     00000001800b0588     user32:USER32.dll
 0002:00000590       __imp_GetDesktopWindow     00000001800b0590     user32:USER32.dll
 0002:00000598       \177USER32_NULL_THUNK_DATA 00000001800b0598     user32:USER32.dll
 0002:000005a0       __imp_GetFileVersionInfoSizeA 00000001800b05a0     Version:VERSION.dll
 0002:000005a8       __imp_GetFileVersionInfoA  00000001800b05a8     Version:VERSION.dll
 0002:000005b0       __imp_VerQueryValueA       00000001800b05b0     Version:VERSION.dll
 0002:000005b8       \177VERSION_NULL_THUNK_DATA 00000001800b05b8     Version:VERSION.dll
 0002:000005c0       __imp_timeGetTime          00000001800b05c0     winmm:WINMM.dll
 0002:000005c8       __imp_timeEndPeriod        00000001800b05c8     winmm:WINMM.dll
 0002:000005d0       __imp_timeBeginPeriod      00000001800b05d0     winmm:WINMM.dll
 0002:000005d8       __imp_waveOutPrepareHeader 00000001800b05d8     winmm:WINMM.dll
 0002:000005e0       __imp_waveInOpen           00000001800b05e0     winmm:WINMM.dll
 0002:000005e8       __imp_waveOutOpen          00000001800b05e8     winmm:WINMM.dll
 0002:000005f0       __imp_waveOutUnprepareHeader 00000001800b05f0     winmm:WINMM.dll
 0002:000005f8       __imp_waveOutClose         00000001800b05f8     winmm:WINMM.dll
 0002:00000600       __imp_waveOutWrite         00000001800b0600     winmm:WINMM.dll
 0002:00000608       __imp_waveOutGetErrorTextW 00000001800b0608     winmm:WINMM.dll
 0002:00000610       __imp_waveInGetNumDevs     00000001800b0610     winmm:WINMM.dll
 0002:00000618       __imp_waveOutGetDevCapsW   00000001800b0618     winmm:WINMM.dll
 0002:00000620       __imp_waveOutGetNumDevs    00000001800b0620     winmm:WINMM.dll
 0002:00000628       __imp_waveInGetDevCapsW    00000001800b0628     winmm:WINMM.dll
 0002:00000630       __imp_waveInClose          00000001800b0630     winmm:WINMM.dll
 0002:00000638       \177WINMM_NULL_THUNK_DATA  00000001800b0638     winmm:WINMM.dll
 0002:00000640       __imp_CoInitialize         00000001800b0640     ole32:ole32.dll
 0002:00000648       __imp_CoCreateInstance     00000001800b0648     ole32:ole32.dll
 0002:00000650       __imp_CoUninitialize       00000001800b0650     ole32:ole32.dll
 0002:00000658       \177ole32_NULL_THUNK_DATA  00000001800b0658     ole32:ole32.dll
 0002:00000690       ??_C@_0BI@GBAHCMKM@Invalid?5audio?5device?5ID?$AA@ 00000001800b0690     SDL_audio.obj
 0002:000006a8       ??_C@_03KLJJCILK@F32?$AA@  00000001800b06a8     SDL_audio.obj
 0002:000006ac       ??_C@_06DHAEEFMD@F32SYS?$AA@ 00000001800b06ac     SDL_audio.obj
 0002:000006b4       ??_C@_06NJIMMDKJ@F32MSB?$AA@ 00000001800b06b4     SDL_audio.obj
 0002:000006bc       ??_C@_06GBDAKEMM@F32LSB?$AA@ 00000001800b06bc     SDL_audio.obj
 0002:000006c4       ??_C@_03MMFOIPBH@S32?$AA@  00000001800b06c4     SDL_audio.obj
 0002:000006c8       ??_C@_06COCPGKK@S32SYS?$AA@ 00000001800b06c8     SDL_audio.obj
 0002:000006d0       ??_C@_06OMGKHAMA@S32MSB?$AA@ 00000001800b06d0     SDL_audio.obj
 0002:000006d8       ??_C@_06FENGBHKF@S32LSB?$AA@ 00000001800b06d8     SDL_audio.obj
 0002:000006e0       ??_C@_03KLLGJOHN@S16?$AA@  00000001800b06e0     SDL_audio.obj
 0002:000006e4       ??_C@_03IONNMBKB@U16?$AA@  00000001800b06e4     SDL_audio.obj
 0002:000006e8       ??_C@_06LKKKPBGB@S16SYS?$AA@ 00000001800b06e8     SDL_audio.obj
 0002:000006f0       ??_C@_06NJHKMEFL@U16SYS?$AA@ 00000001800b06f0     SDL_audio.obj
 0002:000006f8       ??_C@_06FECCHHAL@S16MSB?$AA@ 00000001800b06f8     SDL_audio.obj
 0002:00000700       ??_C@_06DHPCECDB@U16MSB?$AA@ 00000001800b0700     SDL_audio.obj
 0002:00000708       ??_C@_06OMJOBAGO@S16LSB?$AA@ 00000001800b0708     SDL_audio.obj
 0002:00000710       ??_C@_06IPEOCFFE@U16LSB?$AA@ 00000001800b0710     SDL_audio.obj
 0002:00000718       ??_C@_02HJNLAKPP@S8?$AA@   00000001800b0718     SDL_audio.obj
 0002:0000071c       ??_C@_02HNFGHGEN@U8?$AA@   00000001800b071c     SDL_audio.obj
 0002:00000720       ??_C@_0P@NLEIANHE@No?5such?5device?$AA@ 00000001800b0720     SDL_audio.obj
 0002:00000730       ??_C@_0BL@ICFJNBDI@System?5audio?5output?5device?$AA@ 00000001800b0730     SDL_audio.obj
 0002:00000750       ??_C@_0BM@FHCHCIML@System?5audio?5capture?5device?$AA@ 00000001800b0750     SDL_audio.obj
 0002:00000770       ??_C@_0BD@GHPKDOM@No?5capture?5support?$AA@ 00000001800b0770     SDL_audio.obj
 0002:00000788       ??_C@_0CD@HHOELEPA@Audio?5subsystem?5is?5not?5initializ@ 00000001800b0788     SDL_audio.obj
 0002:000007b0       ??_C@_0BK@FMHDHGOG@No?5available?5audio?5device?$AA@ 00000001800b07b0     SDL_audio.obj
 0002:000007d0       ??_C@_0CA@JKJLPNCO@Audio?5target?5?8?$CFs?8?5not?5available?$AA@ 00000001800b07d0     SDL_audio.obj
 0002:000007f0       ??_C@_0BA@PEENPIKJ@SDL_AUDIODRIVER?$AA@ 00000001800b07f0     SDL_audio.obj
 0002:00000800       ??_C@_0BC@ILGDJACM@SDL_AUDIO_SAMPLES?$AA@ 00000001800b0800     SDL_audio.obj
 0002:00000818       ??_C@_0BD@IDIMOGAM@SDL_AUDIO_CHANNELS?$AA@ 00000001800b0818     SDL_audio.obj
 0002:00000830       ??_C@_0CG@MFNBOJNE@Unsupported?5number?5of?5audio?5chan@ 00000001800b0830     SDL_audio.obj
 0002:00000858       ??_C@_0BB@DLGECLFP@SDL_AUDIO_FORMAT?$AA@ 00000001800b0858     SDL_audio.obj
 0002:00000870       ??_C@_0BE@HHGJFOAF@SDL_AUDIO_FREQUENCY?$AA@ 00000001800b0870     SDL_audio.obj
 0002:00000888       ??_C@_0CH@KOHFKNH@SDL_OpenAudio?$CI?$CJ?5passed?5a?5NULL?5ca@ 00000001800b0888     SDL_audio.obj
 0002:000008b0       ??_C@_0BN@DPLMHEIO@Couldn?8t?5create?5audio?5thread?$AA@ 00000001800b08b0     SDL_audio.obj
 0002:000008d0       ??_C@_0O@DNFINDFK@SDLAudioDev?$CFd?$AA@ 00000001800b08d0     SDL_audio.obj
 0002:000008e0       ??_C@_0BM@EMKILBGE@Too?5many?5open?5audio?5devices?$AA@ 00000001800b08e0     SDL_audio.obj
 0002:00000900       ??_C@_0BK@NMAHONFG@Audio?5device?5already?5open?$AA@ 00000001800b0900     SDL_audio.obj
 0002:00000920       ??_C@_0BL@JMFAHGBA@Couldn?8t?5create?5mixer?5lock?$AA@ 00000001800b0920     SDL_audio.obj
 0002:00000940       ??_C@_0BG@KLPMJNAK@SDL_AUDIO_DEVICE_NAME?$AA@ 00000001800b0940     SDL_audio.obj
 0002:00000958       ??_C@_0BP@FIICIEOD@Audio?5device?5is?5already?5opened?$AA@ 00000001800b0958     SDL_audio.obj
 0002:00000978       __real@3fe0000000000000    00000001800b0978     SDL_audiocvt.obj
 0002:00000980       __real@3f000000            00000001800b0980     SDL_audiocvt.obj
 0002:00000988       ??_C@_0CD@DJIMOKAG@No?5buffer?5allocated?5for?5conversi@ 00000001800b0988     SDL_audiocvt.obj
 0002:000009b0       ??_C@_0CK@HCBIOFFL@No?5conversion?5available?5for?5thes@ 00000001800b09b0     SDL_audiocvt.obj
 0002:000009e0       ??_C@_0CI@HLMOJNNO@No?5conversion?5available?5for?5thes@ 00000001800b09e0     SDL_audiocvt.obj
 0002:00000a08       ??_C@_0CH@MHFJAAGB@Source?5or?5destination?5channels?5i@ 00000001800b0a08     SDL_audiocvt.obj
 0002:00000a30       ??_C@_0CD@IJPPMKEJ@Source?5or?5destination?5rate?5is?5ze@ 00000001800b0a30     SDL_audiocvt.obj
 0002:00000a58       __real@4000000000000000    00000001800b0a58     SDL_audiocvt.obj
 0002:00000a60       __real@4008000000000000    00000001800b0a60     SDL_audiocvt.obj
 0002:00000a68       ??_C@_0BL@COJNMENJ@Invalid?5destination?5format?$AA@ 00000001800b0a68     SDL_audiocvt.obj
 0002:00000a88       ??_C@_0BG@NBOKNCDG@Invalid?5source?5format?$AA@ 00000001800b0a88     SDL_audiocvt.obj
 0002:00000aa0       ??_C@_0BK@OFPBKIMP@Parameter?5?8?$CFs?8?5is?5invalid?$AA@ 00000001800b0aa0     SDL_audiocvt.obj
 0002:00000abc       ??_C@_03OMAHNABO@cvt?$AA@  00000001800b0abc     SDL_audiocvt.obj
 0002:00000ac0       sdl_audio_type_filters     00000001800b0ac0     SDL_audiotypecvt.obj
 0002:00001070       sdl_audio_rate_filters     00000001800b1070     SDL_audiotypecvt.obj
 0002:00002ca8       __real@3f800000            00000001800b2ca8     SDL_audiotypecvt.obj
 0002:00002cac       __real@3c010204            00000001800b2cac     SDL_audiotypecvt.obj
 0002:00002cb0       __real@38000100            00000001800b2cb0     SDL_audiotypecvt.obj
 0002:00002cb4       __real@30000000            00000001800b2cb4     SDL_audiotypecvt.obj
 0002:00002cb8       __real@42fe0000            00000001800b2cb8     SDL_audiotypecvt.obj
 0002:00002cbc       __real@46fffe00            00000001800b2cbc     SDL_audiotypecvt.obj
 0002:00002cc0       __real@41dfffffffc00000    00000001800b2cc0     SDL_audiotypecvt.obj
 0002:00002cc8       __real@3fd0000000000000    00000001800b2cc8     SDL_audiotypecvt.obj
 0002:00002ed0       ??_C@_0CF@KCBIJDPI@SDL_MixAudio?$CI?$CJ?3?5unknown?5audio?5fo@ 00000001800b2ed0     SDL_mixer.obj
 0002:00002ef8       __real@c7efffffe0000000    00000001800b2ef8     SDL_mixer.obj
 0002:00002f00       __real@47efffffe0000000    00000001800b2f00     SDL_mixer.obj
 0002:00002f08       __real@3c000000            00000001800b2f08     SDL_mixer.obj
 0002:00002f10       ??_C@_0CF@NFKCBAOA@Unknown?5set?5of?5MS_ADPCM?5coeffici@ 00000001800b2f10     SDL_wave.obj
 0002:00002f38       ??_C@_0CO@DHPDNJHB@IMA?5ADPCM?5decoder?5can?5only?5handl@ 00000001800b2f38     SDL_wave.obj
 0002:00002f68       ??_C@_0CC@BJEGLMJD@Unrecognized?5file?5type?5?$CInot?5WAVE@ 00000001800b2f68     SDL_wave.obj
 0002:00002f90       ??_C@_0BP@ILCMBFOC@Unknown?5?$CFd?9bit?5PCM?5data?5format?$AA@ 00000001800b2f90     SDL_wave.obj
 0002:00002fb0       ??_C@_0CA@JEIHHJCP@MPEG?5Layer?53?5data?5not?5supported?$AA@ 00000001800b2fb0     SDL_wave.obj
 0002:00002fd0       ??_C@_0CB@EHGDPNNH@Unknown?5WAVE?5data?5format?3?50x?$CF?44x@ 00000001800b2fd0     SDL_wave.obj
 0002:00002ff8       ??_C@_0CB@EABBOIIL@Complex?5WAVE?5files?5not?5supported@ 00000001800b2ff8     SDL_wave.obj
 0002:00003020       ??_C@_07NBCGADJA@Unknown?$AA@ 00000001800b3020     SDL_cpuinfo.obj
 0002:00003028       ??_C@_0N@FFJGBINN@AuthenticAMD?$AA@ 00000001800b3028     SDL_cpuinfo.obj
 0002:00003038       ??_C@_0N@BDDFKIGD@GenuineIntel?$AA@ 00000001800b3038     SDL_cpuinfo.obj
 0002:00003048       ??_C@_0CA@KEFOKNGF@Event?5queue?5is?5full?5?$CI?$CFd?5events?$CJ?$AA@ 00000001800b3048     SDL_events.obj
 0002:00003068       ??_C@_0BK@HJKEJEPM@Couldn?8t?5lock?5event?5queue?$AA@ 00000001800b3068     SDL_events.obj
 0002:00003088       ??_C@_0CE@CDPBMIFK@The?5event?5system?5has?5been?5shut?5d@ 00000001800b3088     SDL_events.obj
 0002:000030b0       ??_C@_0BC@PJPPNBHC@Unknown?5gestureId?$AA@ 00000001800b30b0     SDL_gesture.obj
 0002:000030c4       __real@3c800000            00000001800b30c4     SDL_gesture.obj
 0002:000030c8       __real@3fd87221915b6dcc    00000001800b30c8     SDL_gesture.obj
 0002:000030d0       __real@3fe3c6ef3752491a    00000001800b30d0     SDL_gesture.obj
 0002:000030d8       __real@3fa1df46a2529d39    00000001800b30d8     SDL_gesture.obj
 0002:000030e0       __real@bff921fb54442d18    00000001800b30e0     SDL_gesture.obj
 0002:000030e8       __real@3e3ddb6d            00000001800b30e8     SDL_gesture.obj
 0002:000030ec       __real@be3ddb6d            00000001800b30ec     SDL_gesture.obj
 0002:000030f0       __real@3fe921fb54442d18    00000001800b30f0     SDL_gesture.obj
 0002:000030f8       __real@bfe921fb54442d18    00000001800b30f8     SDL_gesture.obj
 0002:00003100       ??_C@_0BH@INDOOHAJ@ERROR?3?5NumPoints?5?$DN?5?$CFi?6?$AA@ 00000001800b3100     SDL_gesture.obj
 0002:00003118       __real@43800000            00000001800b3118     SDL_gesture.obj
 0002:0000311c       __real@427c0000            00000001800b311c     SDL_gesture.obj
 0002:00003120       __real@461c4000            00000001800b3120     SDL_gesture.obj
 0002:00003124       ??_C@_05PFDOMJEF@Sleep?$AA@ 00000001800b3124     SDL_keyboard.obj
 0002:0000312c       ??_C@_05MPBAGENF@Eject?$AA@ 00000001800b312c     SDL_keyboard.obj
 0002:00003138       ??_C@_0L@MAOELAJE@KBDIllumUp?$AA@ 00000001800b3138     SDL_keyboard.obj
 0002:00003148       ??_C@_0N@CBHGPNHB@KBDIllumDown?$AA@ 00000001800b3148     SDL_keyboard.obj
 0002:00003158       ??_C@_0P@NGFJAOAA@KBDIllumToggle?$AA@ 00000001800b3158     SDL_keyboard.obj
 0002:00003168       ??_C@_0O@PCMNKMED@DisplaySwitch?$AA@ 00000001800b3168     SDL_keyboard.obj
 0002:00003178       ??_C@_0N@DDCICAAF@BrightnessUp?$AA@ 00000001800b3178     SDL_keyboard.obj
 0002:00003188       ??_C@_0P@LJCDCGKC@BrightnessDown?$AA@ 00000001800b3188     SDL_keyboard.obj
 0002:00003198       ??_C@_0N@FJIAAMPO@AC?5Bookmarks?$AA@ 00000001800b3198     SDL_keyboard.obj
 0002:000031a8       ??_C@_0L@BAJLEOLK@AC?5Refresh?$AA@ 00000001800b31a8     SDL_keyboard.obj
 0002:000031b8       ??_C@_07PKPPPPAM@AC?5Stop?$AA@ 00000001800b31b8     SDL_keyboard.obj
 0002:000031c0       ??_C@_0L@DOKIFDLE@AC?5Forward?$AA@ 00000001800b31c0     SDL_keyboard.obj
 0002:000031d0       ??_C@_07GAJENEGN@AC?5Back?$AA@ 00000001800b31d0     SDL_keyboard.obj
 0002:000031d8       ??_C@_07FOOGLLHL@AC?5Home?$AA@ 00000001800b31d8     SDL_keyboard.obj
 0002:000031e0       ??_C@_09LLLBGJHM@AC?5Search?$AA@ 00000001800b31e0     SDL_keyboard.obj
 0002:000031f0       ??_C@_08JABLAMKL@Computer?$AA@ 00000001800b31f0     SDL_keyboard.obj
 0002:00003200       ??_C@_0L@NOCPEFKJ@Calculator?$AA@ 00000001800b3200     SDL_keyboard.obj
 0002:0000320c       ??_C@_04JEGKNAHI@Mail?$AA@ 00000001800b320c     SDL_keyboard.obj
 0002:00003214       ??_C@_03BEGIOEFO@WWW?$AA@  00000001800b3214     SDL_keyboard.obj
 0002:00003218       ??_C@_0M@CEBELPBB@MediaSelect?$AA@ 00000001800b3218     SDL_keyboard.obj
 0002:00003228       ??_C@_09NDOEPEEN@AudioMute?$AA@ 00000001800b3228     SDL_keyboard.obj
 0002:00003238       ??_C@_09JKBPIDKN@AudioPlay?$AA@ 00000001800b3238     SDL_keyboard.obj
 0002:00003248       ??_C@_09JDEOBAEO@AudioStop?$AA@ 00000001800b3248     SDL_keyboard.obj
 0002:00003258       ??_C@_09KKEIBHBC@AudioPrev?$AA@ 00000001800b3258     SDL_keyboard.obj
 0002:00003268       ??_C@_09JOJOADHG@AudioNext?$AA@ 00000001800b3268     SDL_keyboard.obj
 0002:00003278       ??_C@_0L@KDBMEDAD@ModeSwitch?$AA@ 00000001800b3278     SDL_keyboard.obj
 0002:00003288       ??_C@_09CPFOEFGD@Right?5GUI?$AA@ 00000001800b3288     SDL_keyboard.obj
 0002:00003298       ??_C@_09ELGHIMBO@Right?5Alt?$AA@ 00000001800b3298     SDL_keyboard.obj
 0002:000032a8       ??_C@_0M@COKLDKMB@Right?5Shift?$AA@ 00000001800b32a8     SDL_keyboard.obj
 0002:000032b8       ??_C@_0L@NIOMCOOG@Right?5Ctrl?$AA@ 00000001800b32b8     SDL_keyboard.obj
 0002:000032c8       ??_C@_08ENEANEAC@Left?5GUI?$AA@ 00000001800b32c8     SDL_keyboard.obj
 0002:000032d8       ??_C@_08CJHJBNHP@Left?5Alt?$AA@ 00000001800b32d8     SDL_keyboard.obj
 0002:000032e8       ??_C@_0L@NFEFKBOL@Left?5Shift?$AA@ 00000001800b32e8     SDL_keyboard.obj
 0002:000032f8       ??_C@_09OCDLGBLJ@Left?5Ctrl?$AA@ 00000001800b32f8     SDL_keyboard.obj
 0002:00003308       ??_C@_0BD@KBIBGAAO@Keypad?5Hexadecimal?$AA@ 00000001800b3308     SDL_keyboard.obj
 0002:00003320       ??_C@_0P@MBNLDFOJ@Keypad?5Decimal?$AA@ 00000001800b3320     SDL_keyboard.obj
 0002:00003330       ??_C@_0N@PNIAGAOK@Keypad?5Octal?$AA@ 00000001800b3330     SDL_keyboard.obj
 0002:00003340       ??_C@_0O@ECHLAKEG@Keypad?5Binary?$AA@ 00000001800b3340     SDL_keyboard.obj
 0002:00003350       ??_C@_0BC@FKGMMPFP@Keypad?5ClearEntry?$AA@ 00000001800b3350     SDL_keyboard.obj
 0002:00003368       ??_C@_0N@DEPGDIGF@Keypad?5Clear?$AA@ 00000001800b3368     SDL_keyboard.obj
 0002:00003378       ??_C@_0L@LNOCKNIG@Keypad?5?$CL?1?9?$AA@ 00000001800b3378     SDL_keyboard.obj
 0002:00003388       ??_C@_0BB@LHCBCJFB@Keypad?5MemDivide?$AA@ 00000001800b3388     SDL_keyboard.obj
 0002:000033a0       ??_C@_0BD@DKCEJAEF@Keypad?5MemMultiply?$AA@ 00000001800b33a0     SDL_keyboard.obj
 0002:000033b8       ??_C@_0BD@EPHONNOC@Keypad?5MemSubtract?$AA@ 00000001800b33b8     SDL_keyboard.obj
 0002:000033d0       ??_C@_0O@MDKENMOE@Keypad?5MemAdd?$AA@ 00000001800b33d0     SDL_keyboard.obj
 0002:000033e0       ??_C@_0BA@CEGPFMHP@Keypad?5MemClear?$AA@ 00000001800b33e0     SDL_keyboard.obj
 0002:000033f0       ??_C@_0BB@HGIIJKDC@Keypad?5MemRecall?$AA@ 00000001800b33f0     SDL_keyboard.obj
 0002:00003408       ??_C@_0BA@DHHPLHM@Keypad?5MemStore?$AA@ 00000001800b3408     SDL_keyboard.obj
 0002:00003418       ??_C@_08LCMCNMH@Keypad?5?$CB?$AA@ 00000001800b3418     SDL_keyboard.obj
 0002:00003428       ??_C@_08HHMKHHCB@Keypad?5?$EA?$AA@ 00000001800b3428     SDL_keyboard.obj
 0002:00003438       ??_C@_0N@BLFFIHNC@Keypad?5Space?$AA@ 00000001800b3438     SDL_keyboard.obj
 0002:00003448       ??_C@_08DJBKEPEF@Keypad?5?$CD?$AA@ 00000001800b3448     SDL_keyboard.obj
 0002:00003458       ??_C@_08KCBKOGFN@Keypad?5?3?$AA@ 00000001800b3458     SDL_keyboard.obj
 0002:00003468       ??_C@_09OCOFPACH@Keypad?5?$HM?$HM?$AA@ 00000001800b3468     SDL_keyboard.obj
 0002:00003478       ??_C@_08EDJAONO@Keypad?5?$HM?$AA@ 00000001800b3478     SDL_keyboard.obj
 0002:00003488       ??_C@_09MDJKOOJP@Keypad?5?$CG?$CG?$AA@ 00000001800b3488     SDL_keyboard.obj
 0002:00003498       ??_C@_08EEGNLLAA@Keypad?5?$CG?$AA@ 00000001800b3498     SDL_keyboard.obj
 0002:000034a8       ??_C@_08MGHGCDFJ@Keypad?5?$DO?$AA@ 00000001800b34a8     SDL_keyboard.obj
 0002:000034b8       ??_C@_08PEEAEBNL@Keypad?5?$DM?$AA@ 00000001800b34b8     SDL_keyboard.obj
 0002:000034c8       ??_C@_08GPEAOIMD@Keypad?5?$CF?$AA@ 00000001800b34c8     SDL_keyboard.obj
 0002:000034d8       ??_C@_08KDILEIPO@Keypad?5?$FO?$AA@ 00000001800b34d8     SDL_keyboard.obj
 0002:000034e8       ??_C@_0L@CEBIAMON@Keypad?5XOR?$AA@ 00000001800b34e8     SDL_keyboard.obj
 0002:000034f8       ??_C@_08CBJANAKH@Keypad?5F?$AA@ 00000001800b34f8     SDL_keyboard.obj
 0002:00003508       ??_C@_08KLNIDGE@Keypad?5E?$AA@ 00000001800b3508     SDL_keyboard.obj
 0002:00003518       ??_C@_08BDKGLCCF@Keypad?5D?$AA@ 00000001800b3518     SDL_keyboard.obj
 0002:00003528       ??_C@_08FMOHCEOC@Keypad?5C?$AA@ 00000001800b3528     SDL_keyboard.obj
 0002:00003538       ??_C@_08EFPMBFKD@Keypad?5B?$AA@ 00000001800b3538     SDL_keyboard.obj
 0002:00003548       ??_C@_08GONBEGGA@Keypad?5A?$AA@ 00000001800b3548     SDL_keyboard.obj
 0002:00003558       ??_C@_0BB@NKEPJCKA@Keypad?5Backspace?$AA@ 00000001800b3558     SDL_keyboard.obj
 0002:00003570       ??_C@_0L@IDFLOOEM@Keypad?5Tab?$AA@ 00000001800b3570     SDL_keyboard.obj
 0002:00003580       ??_C@_08BNCCDPJP@Keypad?5?$HN?$AA@ 00000001800b3580     SDL_keyboard.obj
 0002:00003590       ??_C@_08ELHIJIBJ@Keypad?5?$HL?$AA@ 00000001800b3590     SDL_keyboard.obj
 0002:000035a0       ??_C@_08MDPFKHMP@Keypad?5?$CJ?$AA@ 00000001800b35a0     SDL_keyboard.obj
 0002:000035b0       ??_C@_08NKOOJGIO@Keypad?5?$CI?$AA@ 00000001800b35b0     SDL_keyboard.obj
 0002:000035c0       ??_C@_0BA@CDJJGJFH@CurrencySubUnit?$AA@ 00000001800b35c0     SDL_keyboard.obj
 0002:000035d0       ??_C@_0N@HKGOPMKO@CurrencyUnit?$AA@ 00000001800b35d0     SDL_keyboard.obj
 0002:000035e0       ??_C@_0BB@BHEJKAFH@DecimalSeparator?$AA@ 00000001800b35e0     SDL_keyboard.obj
 0002:000035f8       ??_C@_0BD@FBEEJGMN@ThousandsSeparator?$AA@ 00000001800b35f8     SDL_keyboard.obj
 0002:00003610       ??_C@_0L@NCOMPFEJ@Keypad?5000?$AA@ 00000001800b3610     SDL_keyboard.obj
 0002:00003620       ??_C@_09MHKJIEIK@Keypad?500?$AA@ 00000001800b3620     SDL_keyboard.obj
 0002:0000362c       ??_C@_05IGOGODKB@ExSel?$AA@ 00000001800b362c     SDL_keyboard.obj
 0002:00003634       ??_C@_05BKAPBIBN@CrSel?$AA@ 00000001800b3634     SDL_keyboard.obj
 0002:00003640       ??_C@_0O@OJCMKPED@Clear?5?1?5Again?$AA@ 00000001800b3640     SDL_keyboard.obj
 0002:00003650       ??_C@_04NLFEHFFJ@Oper?$AA@ 00000001800b3650     SDL_keyboard.obj
 0002:00003658       ??_C@_03EKFHOMB@Out?$AA@   00000001800b3658     SDL_keyboard.obj
 0002:00003660       ??_C@_09IBFEOKHN@Separator?$AA@ 00000001800b3660     SDL_keyboard.obj
 0002:0000366c       ??_C@_05NJANMKOE@Prior?$AA@ 00000001800b366c     SDL_keyboard.obj
 0002:00003674       ??_C@_05MDNHABIA@Clear?$AA@ 00000001800b3674     SDL_keyboard.obj
 0002:0000367c       ??_C@_06FMBNCPDL@Cancel?$AA@ 00000001800b367c     SDL_keyboard.obj
 0002:00003684       ??_C@_06PLMNJDOI@SysReq?$AA@ 00000001800b3684     SDL_keyboard.obj
 0002:00003690       ??_C@_08FOFMEMCE@AltErase?$AA@ 00000001800b3690     SDL_keyboard.obj
 0002:000036a0       ??_C@_0BB@OAIGOAAA@Keypad?5?$DN?5?$CIAS400?$CJ?$AA@ 00000001800b36a0     SDL_keyboard.obj
 0002:000036b8       ??_C@_08LOICFDIK@Keypad?5?0?$AA@ 00000001800b36b8     SDL_keyboard.obj
 0002:000036c8       ??_C@_0L@KMNGHJCB@VolumeDown?$AA@ 00000001800b36c8     SDL_keyboard.obj
 0002:000036d8       ??_C@_08COJOPKDJ@VolumeUp?$AA@ 00000001800b36d8     SDL_keyboard.obj
 0002:000036e4       ??_C@_04IOCNJLNK@Mute?$AA@ 00000001800b36e4     SDL_keyboard.obj
 0002:000036ec       ??_C@_04OLJIFFAL@Find?$AA@ 00000001800b36ec     SDL_keyboard.obj
 0002:000036f4       ??_C@_05NEBJFIEK@Paste?$AA@ 00000001800b36f4     SDL_keyboard.obj
 0002:000036fc       ??_C@_04OPMHGHMB@Copy?$AA@ 00000001800b36fc     SDL_keyboard.obj
 0002:00003704       ??_C@_03EOHDMBHJ@Cut?$AA@  00000001800b3704     SDL_keyboard.obj
 0002:00003708       ??_C@_04LPGMNMPN@Undo?$AA@ 00000001800b3708     SDL_keyboard.obj
 0002:00003710       ??_C@_05JOMJAKCI@Again?$AA@ 00000001800b3710     SDL_keyboard.obj
 0002:00003718       ??_C@_04MOIHHPNJ@Stop?$AA@ 00000001800b3718     SDL_keyboard.obj
 0002:00003720       ??_C@_06HJGPBJLE@Select?$AA@ 00000001800b3720     SDL_keyboard.obj
 0002:00003728       ??_C@_04IFEHPILC@Menu?$AA@ 00000001800b3728     SDL_keyboard.obj
 0002:00003730       ??_C@_04DDFEFHOJ@Help?$AA@ 00000001800b3730     SDL_keyboard.obj
 0002:00003738       ??_C@_07LFBPOOOH@Execute?$AA@ 00000001800b3738     SDL_keyboard.obj
 0002:00003740       ??_C@_03PMABOFAL@F24?$AA@  00000001800b3740     SDL_keyboard.obj
 0002:00003744       ??_C@_03LDEAHDMM@F23?$AA@  00000001800b3744     SDL_keyboard.obj
 0002:00003748       ??_C@_03KKFLECIN@F22?$AA@  00000001800b3748     SDL_keyboard.obj
 0002:0000374c       ??_C@_03IBHGBBEO@F21?$AA@  00000001800b374c     SDL_keyboard.obj
 0002:00003750       ??_C@_03JIGNCAAP@F20?$AA@  00000001800b3750     SDL_keyboard.obj
 0002:00003754       ??_C@_03ELOJCFBP@F19?$AA@  00000001800b3754     SDL_keyboard.obj
 0002:00003758       ??_C@_03FCPCBEFO@F18?$AA@  00000001800b3758     SDL_keyboard.obj
 0002:0000375c       ??_C@_03NFGKAIJB@F17?$AA@  00000001800b375c     SDL_keyboard.obj
 0002:00003760       ??_C@_03MMHBDJNA@F16?$AA@  00000001800b3760     SDL_keyboard.obj
 0002:00003764       ??_C@_03OHFMGKBD@F15?$AA@  00000001800b3764     SDL_keyboard.obj
 0002:00003768       ??_C@_03POEHFLFC@F14?$AA@  00000001800b3768     SDL_keyboard.obj
 0002:0000376c       ??_C@_03LBAGMNJF@F13?$AA@  00000001800b376c     SDL_keyboard.obj
 0002:00003770       ??_C@_08ONFLHAJK@Keypad?5?$DN?$AA@ 00000001800b3770     SDL_keyboard.obj
 0002:0000377c       ??_C@_05PMCMDMKN@Power?$AA@ 00000001800b377c     SDL_keyboard.obj
 0002:00003788       ??_C@_0M@NJALGCHB@Application?$AA@ 00000001800b3788     SDL_keyboard.obj
 0002:00003798       ??_C@_08IMLEDBAI@Keypad?5?4?$AA@ 00000001800b3798     SDL_keyboard.obj
 0002:000037a8       ??_C@_08FIPFAONH@Keypad?50?$AA@ 00000001800b37a8     SDL_keyboard.obj
 0002:000037b8       ??_C@_08IJDHLFJO@Keypad?59?$AA@ 00000001800b37b8     SDL_keyboard.obj
 0002:000037c8       ??_C@_08JACMIENP@Keypad?58?$AA@ 00000001800b37c8     SDL_keyboard.obj
 0002:000037d8       ??_C@_08BHLEJIBA@Keypad?57?$AA@ 00000001800b37d8     SDL_keyboard.obj
 0002:000037e8       ??_C@_08OKPKJFB@Keypad?56?$AA@ 00000001800b37e8     SDL_keyboard.obj
 0002:000037f8       ??_C@_08CFICPKJC@Keypad?55?$AA@ 00000001800b37f8     SDL_keyboard.obj
 0002:00003808       ??_C@_08DMJJMLND@Keypad?54?$AA@ 00000001800b3808     SDL_keyboard.obj
 0002:00003818       ??_C@_08HDNIFNBE@Keypad?53?$AA@ 00000001800b3818     SDL_keyboard.obj
 0002:00003828       ??_C@_08GKMDGMFF@Keypad?52?$AA@ 00000001800b3828     SDL_keyboard.obj
 0002:00003838       ??_C@_08EBOODPJG@Keypad?51?$AA@ 00000001800b3838     SDL_keyboard.obj
 0002:00003848       ??_C@_0N@HHMDBADO@Keypad?5Enter?$AA@ 00000001800b3848     SDL_keyboard.obj
 0002:00003858       ??_C@_08PBMDMFEN@Keypad?5?$CL?$AA@ 00000001800b3858     SDL_keyboard.obj
 0002:00003868       ??_C@_08KHJJGCML@Keypad?5?9?$AA@ 00000001800b3868     SDL_keyboard.obj
 0002:00003878       ??_C@_08OINIPEAM@Keypad?5?$CK?$AA@ 00000001800b3878     SDL_keyboard.obj
 0002:00003888       ??_C@_08JFKPAAEJ@Keypad?5?1?$AA@ 00000001800b3888     SDL_keyboard.obj
 0002:00003898       ??_C@_07FPOPKJEN@Numlock?$AA@ 00000001800b3898     SDL_keyboard.obj
 0002:000038a0       ??_C@_02EFPGLDEA@Up?$AA@   00000001800b38a0     SDL_keyboard.obj
 0002:000038a4       ??_C@_04FNCLCJMC@Down?$AA@ 00000001800b38a4     SDL_keyboard.obj
 0002:000038ac       ??_C@_04KPCPLBPL@Left?$AA@ 00000001800b38ac     SDL_keyboard.obj
 0002:000038b4       ??_C@_05DADPALEM@Right?$AA@ 00000001800b38b4     SDL_keyboard.obj
 0002:000038c0       ??_C@_08FDLMHKA@PageDown?$AA@ 00000001800b38c0     SDL_keyboard.obj
 0002:000038cc       ??_C@_03DBKJMAGF@End?$AA@  00000001800b38cc     SDL_keyboard.obj
 0002:000038d0       ??_C@_06JBKGCNBB@Delete?$AA@ 00000001800b38d0     SDL_keyboard.obj
 0002:000038d8       ??_C@_06OAEMCMAI@PageUp?$AA@ 00000001800b38d8     SDL_keyboard.obj
 0002:000038e0       ??_C@_04GKJODLKO@Home?$AA@ 00000001800b38e0     SDL_keyboard.obj
 0002:000038e8       ??_C@_06CPFCODOD@Insert?$AA@ 00000001800b38e8     SDL_keyboard.obj
 0002:000038f0       ??_C@_05PEDNBBBD@Pause?$AA@ 00000001800b38f0     SDL_keyboard.obj
 0002:000038f8       ??_C@_0L@JJJEGPLJ@ScrollLock?$AA@ 00000001800b38f8     SDL_keyboard.obj
 0002:00003908       ??_C@_0M@CJIDBHOK@PrintScreen?$AA@ 00000001800b3908     SDL_keyboard.obj
 0002:00003914       ??_C@_03KIBNPMNE@F12?$AA@  00000001800b3914     SDL_keyboard.obj
 0002:00003918       ??_C@_03IDDAKPBH@F11?$AA@  00000001800b3918     SDL_keyboard.obj
 0002:0000391c       ??_C@_03JKCLJOFG@F10?$AA@  00000001800b391c     SDL_keyboard.obj
 0002:00003920       ??_C@_02HKCNFKCF@F9?$AA@   00000001800b3920     SDL_keyboard.obj
 0002:00003924       ??_C@_02GDDGGLGE@F8?$AA@   00000001800b3924     SDL_keyboard.obj
 0002:00003928       ??_C@_02OEKOHHKL@F7?$AA@   00000001800b3928     SDL_keyboard.obj
 0002:0000392c       ??_C@_02PNLFEGOK@F6?$AA@   00000001800b392c     SDL_keyboard.obj
 0002:00003930       ??_C@_02NGJIBFCJ@F5?$AA@   00000001800b3930     SDL_keyboard.obj
 0002:00003934       ??_C@_02MPIDCEGI@F4?$AA@   00000001800b3934     SDL_keyboard.obj
 0002:00003938       ??_C@_02IAMCLCKP@F3?$AA@   00000001800b3938     SDL_keyboard.obj
 0002:0000393c       ??_C@_02JJNJIDOO@F2?$AA@   00000001800b393c     SDL_keyboard.obj
 0002:00003940       ??_C@_02LCPENACN@F1?$AA@   00000001800b3940     SDL_keyboard.obj
 0002:00003948       ??_C@_08LBKIEOPK@CapsLock?$AA@ 00000001800b3948     SDL_keyboard.obj
 0002:00003954       ??_C@_01KMDKNFGN@?1?$AA@   00000001800b3954     SDL_keyboard.obj
 0002:00003958       ??_C@_01LFCBOECM@?4?$AA@   00000001800b3958     SDL_keyboard.obj
 0002:0000395c       ??_C@_01IHBHIGKO@?0?$AA@   00000001800b395c     SDL_keyboard.obj
 0002:00003960       ??_C@_01NLNLIGKH@?$GA?$AA@ 00000001800b3960     SDL_keyboard.obj
 0002:00003964       ??_C@_01GEODFPGF@?8?$AA@   00000001800b3964     SDL_keyboard.obj
 0002:00003968       ??_C@_01ICJEACDI@?$DL?$AA@ 00000001800b3968     SDL_keyboard.obj
 0002:0000396c       ??_C@_01IPJKGB@?$CD?$AA@   00000001800b396c     SDL_keyboard.obj
 0002:00003970       ??_C@_01KICIPPFI@?2?$AA@   00000001800b3970     SDL_keyboard.obj
 0002:00003974       ??_C@_01LBDDMOBJ@?$FN?$AA@ 00000001800b3974     SDL_keyboard.obj
 0002:00003978       ??_C@_01OHGJGJJP@?$FL?$AA@ 00000001800b3978     SDL_keyboard.obj
 0002:0000397c       ??_C@_01NEMOKFLO@?$DN?$AA@ 00000001800b397c     SDL_keyboard.obj
 0002:00003980       ??_C@_01JOAMLHOP@?9?$AA@   00000001800b3980     SDL_keyboard.obj
 0002:00003984       ??_C@_05OMHELODH@Space?$AA@ 00000001800b3984     SDL_keyboard.obj
 0002:0000398c       ??_C@_03IEAKBACE@Tab?$AA@  00000001800b398c     SDL_keyboard.obj
 0002:00003990       ??_C@_09LPBCIPOJ@Backspace?$AA@ 00000001800b3990     SDL_keyboard.obj
 0002:0000399c       ??_C@_06OIGFGPHJ@Escape?$AA@ 00000001800b399c     SDL_keyboard.obj
 0002:000039a4       ??_C@_06HCFIKKEA@Return?$AA@ 00000001800b39a4     SDL_keyboard.obj
 0002:000039ac       ??_C@_01GBGANLPD@0?$AA@    00000001800b39ac     SDL_keyboard.obj
 0002:000039b0       ??_C@_01LAKCGALK@9?$AA@    00000001800b39b0     SDL_keyboard.obj
 0002:000039b4       ??_C@_01KJLJFBPL@8?$AA@    00000001800b39b4     SDL_keyboard.obj
 0002:000039b8       ??_C@_01COCBENDE@7?$AA@    00000001800b39b8     SDL_keyboard.obj
 0002:000039bc       ??_C@_01DHDKHMHF@6?$AA@    00000001800b39bc     SDL_keyboard.obj
 0002:000039c0       ??_C@_01BMBHCPLG@5?$AA@    00000001800b39c0     SDL_keyboard.obj
 0002:000039c4       ??_C@_01FAMBOPH@4?$AA@     00000001800b39c4     SDL_keyboard.obj
 0002:000039c8       ??_C@_01EKENIIDA@3?$AA@    00000001800b39c8     SDL_keyboard.obj
 0002:000039cc       ??_C@_01FDFGLJHB@2?$AA@    00000001800b39cc     SDL_keyboard.obj
 0002:000039d0       ??_C@_01HIHLOKLC@1?$AA@    00000001800b39d0     SDL_keyboard.obj
 0002:000039d4       ??_C@_01POHCFINO@Z?$AA@    00000001800b39d4     SDL_keyboard.obj
 0002:000039d8       ??_C@_01NFFPALBN@Y?$AA@    00000001800b39d8     SDL_keyboard.obj
 0002:000039dc       ??_C@_01MMEEDKFM@X?$AA@    00000001800b39dc     SDL_keyboard.obj
 0002:000039e0       ??_C@_01ELNMCGJD@W?$AA@    00000001800b39e0     SDL_keyboard.obj
 0002:000039e4       ??_C@_01FCMHBHNC@V?$AA@    00000001800b39e4     SDL_keyboard.obj
 0002:000039e8       ??_C@_01HJOKEEBB@U?$AA@    00000001800b39e8     SDL_keyboard.obj
 0002:000039ec       ??_C@_01GAPBHFFA@T?$AA@    00000001800b39ec     SDL_keyboard.obj
 0002:000039f0       ??_C@_01CPLAODJH@S?$AA@    00000001800b39f0     SDL_keyboard.obj
 0002:000039f4       ??_C@_01DGKLNCNG@R?$AA@    00000001800b39f4     SDL_keyboard.obj
 0002:000039f8       ??_C@_01BNIGIBBF@Q?$AA@    00000001800b39f8     SDL_keyboard.obj
 0002:000039fc       ??_C@_01EJNLAFE@P?$AA@     00000001800b39fc     SDL_keyboard.obj
 0002:00003a00       ??_C@_01MJMHLOMK@O?$AA@    00000001800b3a00     SDL_keyboard.obj
 0002:00003a04       ??_C@_01NANMIPIL@N?$AA@    00000001800b3a04     SDL_keyboard.obj
 0002:00003a08       ??_C@_01PLPBNMEI@M?$AA@    00000001800b3a08     SDL_keyboard.obj
 0002:00003a0c       ??_C@_01OCOKONAJ@L?$AA@    00000001800b3a0c     SDL_keyboard.obj
 0002:00003a10       ??_C@_01KNKLHLMO@K?$AA@    00000001800b3a10     SDL_keyboard.obj
 0002:00003a14       ??_C@_01LELAEKIP@J?$AA@    00000001800b3a14     SDL_keyboard.obj
 0002:00003a18       ??_C@_01JPJNBJEM@I?$AA@    00000001800b3a18     SDL_keyboard.obj
 0002:00003a1c       ??_C@_01IGIGCIAN@H?$AA@    00000001800b3a1c     SDL_keyboard.obj
 0002:00003a20       ??_C@_01BBODEMC@G?$AA@     00000001800b3a20     SDL_keyboard.obj
 0002:00003a24       ??_C@_01BIAFAFID@F?$AA@    00000001800b3a24     SDL_keyboard.obj
 0002:00003a28       ??_C@_01DDCIFGEA@E?$AA@    00000001800b3a28     SDL_keyboard.obj
 0002:00003a2c       ??_C@_01CKDDGHAB@D?$AA@    00000001800b3a2c     SDL_keyboard.obj
 0002:00003a30       ??_C@_01GFHCPBMG@C?$AA@    00000001800b3a30     SDL_keyboard.obj
 0002:00003a34       ??_C@_01HMGJMAIH@B?$AA@    00000001800b3a34     SDL_keyboard.obj
 0002:00003a38       ??_C@_01FHEEJDEE@A?$AA@    00000001800b3a38     SDL_keyboard.obj
 0002:00004240       ??_C@_08HLAAIMLE@scancode?$AA@ 00000001800b4240     SDL_keyboard.obj
 0002:00004249       ??_C@_00CNPNBAHC@?$AA@     00000001800b4249     SDL_keyboard.obj
 0002:0000424c       ??_C@_04MEMAJGDJ@name?$AA@ 00000001800b424c     SDL_keyboard.obj
 0002:00004298       ??_C@_0CK@FOGGMOIE@Cursor?5hot?5spot?5doesn?8t?5lie?5with@ 00000001800b4298     SDL_mouse.obj
 0002:000042c8       ??_C@_0CE@ONCGMING@Cursors?5are?5not?5currently?5suppor@ 00000001800b42c8     SDL_mouse.obj
 0002:000042f0       ??_C@_0BL@BGKPDNAH@Passed?5NULL?5cursor?5surface?$AA@ 00000001800b42f0     SDL_mouse.obj
 0002:00004310       ??_C@_0CO@KIADCPBM@CreateSystemCursor?5is?5not?5curren@ 00000001800b4310     SDL_mouse.obj
 0002:00004340       ??_C@_0CN@KHNBINHD@Cursor?5not?5associated?5with?5the?5c@ 00000001800b4340     SDL_mouse.obj
 0002:00004370       ??_C@_0BF@LOOJNMCH@Unknown?5touch?5device?$AA@ 00000001800b4370     SDL_touch.obj
 0002:00004388       ??_C@_0BF@OPPFFOCB@Unknown?5touch?5finger?$AA@ 00000001800b4388     SDL_touch.obj
 0002:000043a0       ??_C@_0BB@MAHHKGJO@Couldn?8t?5open?5?$CFs?$AA@ 00000001800b43a0     SDL_rwops.obj
 0002:000043b8       ??_C@_08NBDJLNFA@UTF?916LE?$AA@ 00000001800b43b8     SDL_rwops.obj
 0002:000043c4       ??_C@_05EGJIMALK@UTF?98?$AA@ 00000001800b43c4     SDL_rwops.obj
 0002:000043d0       ??_C@_0DD@BONPLNKB@windows_file_size?3?5invalid?5conte@ 00000001800b43d0     SDL_rwops.obj
 0002:00004408       ??_C@_0BC@OALHGCKK@windows_file_size?$AA@ 00000001800b4408     SDL_rwops.obj
 0002:00004420       ??_C@_0DD@GHOJGNAN@windows_file_seek?3?5invalid?5conte@ 00000001800b4420     SDL_rwops.obj
 0002:00004458       ??_C@_0BC@CDJIBENB@windows_file_seek?$AA@ 00000001800b4458     SDL_rwops.obj
 0002:00004470       ??_C@_0CO@KPOKANFC@windows_file_seek?3?5Unknown?5value@ 00000001800b4470     SDL_rwops.obj
 0002:000044a0       ??_C@_0BL@POAIIGEL@Unknown?5value?5for?5?8whence?8?$AA@ 00000001800b44a0     SDL_rwops.obj
 0002:000044c0       ??_C@_0CA@JBFLDJAJ@Can?8t?5write?5to?5read?9only?5memory?$AA@ 00000001800b44c0     SDL_rwops.obj
 0002:000044e0       ??_C@_0CE@FOOGDOAE@SDL?5not?5compiled?5with?5stdio?5supp@ 00000001800b44e0     SDL_rwops.obj
 0002:00004508       ??_C@_0CP@CEKLGBGL@SDL_RWFromFile?$CI?$CJ?3?5No?5file?5or?5no?5@ 00000001800b4508     SDL_rwops.obj
 0002:00004538       ??_C@_04IAGNFIBA@size?$AA@ 00000001800b4538     SDL_rwops.obj
 0002:00004540       ??_C@_03IJLIBDBM@mem?$AA@  00000001800b4540     SDL_rwops.obj
 0002:00004548       ??_C@_0CJ@CLGEGAH@Haptic?3?5Invalid?5haptic?5device?5id@ 00000001800b4548     SDL_haptic.obj
 0002:00004578       ??_C@_0CO@IDKAEOOL@Haptic?3?5There?5are?5?$CFd?5haptic?5devi@ 00000001800b4578     SDL_haptic.obj
 0002:000045b0       ??_C@_0EB@ICAOBCMF@Haptic?3?5Trying?5to?5add?5device?5pas@ 00000001800b45b0     SDL_haptic.obj
 0002:000045f8       ??_C@_0CI@CDHFKME@Haptic?3?5Joystick?5isn?8t?5a?5haptic?5@ 00000001800b45f8     SDL_haptic.obj
 0002:00004620       ??_C@_0BO@OPPLHOL@Haptic?3?5Joystick?5isn?8t?5valid?4?$AA@ 00000001800b4620     SDL_haptic.obj
 0002:00004640       ??_C@_0CH@ICMCFNE@Haptic?3?5Device?5has?5no?5free?5space@ 00000001800b4640     SDL_haptic.obj
 0002:00004668       ??_C@_0CP@DJECPABH@Haptic?3?5Effect?5not?5supported?5by?5@ 00000001800b4668     SDL_haptic.obj
 0002:00004698       ??_C@_0CD@IMHNJKEL@Haptic?3?5Invalid?5effect?5identifie@ 00000001800b4698     SDL_haptic.obj
 0002:000046c0       ??_C@_0CJ@MDADBPFK@Haptic?3?5Updating?5effect?5type?5is?5@ 00000001800b46c0     SDL_haptic.obj
 0002:000046f0       ??_C@_0DA@NGHOOEAB@Haptic?3?5Device?5does?5not?5support?5@ 00000001800b46f0     SDL_haptic.obj
 0002:00004720       ??_C@_0CI@HILODHLA@Haptic?3?5Gain?5must?5be?5between?50?5a@ 00000001800b4720     SDL_haptic.obj
 0002:00004748       ??_C@_0BE@FBEGKDN@SDL_HAPTIC_GAIN_MAX?$AA@ 00000001800b4748     SDL_haptic.obj
 0002:00004760       ??_C@_0CO@PILDIIIE@Haptic?3?5Device?5does?5not?5support?5@ 00000001800b4760     SDL_haptic.obj
 0002:00004790       ??_C@_0CO@HOBGEPK@Haptic?3?5Autocenter?5must?5be?5betwe@ 00000001800b4790     SDL_haptic.obj
 0002:000047c0       ??_C@_0DE@IBKOEMEL@Haptic?3?5Device?5does?5not?5support?5@ 00000001800b47c0     SDL_haptic.obj
 0002:000047f8       ??_C@_0DB@OHCMFLHG@Haptic?3?5Device?5does?5not?5support?5@ 00000001800b47f8     SDL_haptic.obj
 0002:00004830       ??_C@_0BO@DIDGIBMF@Device?5doesn?8t?5support?5rumble?$AA@ 00000001800b4830     SDL_haptic.obj
 0002:00004850       ??_C@_0DH@CCBEHCBA@Haptic?3?5Rumble?5effect?5not?5initia@ 00000001800b4850     SDL_haptic.obj
 0002:00004888       ??_C@_0CF@OLEHEDKL@Haptic?3?5Mouse?5isn?8t?5a?5haptic?5dev@ 00000001800b4888     SDL_haptic.obj
 0002:000048b0       ??_C@_07FLLKAONK@dpright?$AA@ 00000001800b48b0     SDL_gamecontroller.obj
 0002:000048b8       ??_C@_06EBHLNDKL@dpleft?$AA@ 00000001800b48b8     SDL_gamecontroller.obj
 0002:000048c0       ??_C@_06LDHPELJC@dpdown?$AA@ 00000001800b48c0     SDL_gamecontroller.obj
 0002:000048c8       ??_C@_04EDFFKKLO@dpup?$AA@ 00000001800b48c8     SDL_gamecontroller.obj
 0002:000048d0       ??_C@_0O@LCPOPKLJ@rightshoulder?$AA@ 00000001800b48d0     SDL_gamecontroller.obj
 0002:000048e0       ??_C@_0N@MEFCLEJO@leftshoulder?$AA@ 00000001800b48e0     SDL_gamecontroller.obj
 0002:000048f0       ??_C@_0L@DHLNGPDM@rightstick?$AA@ 00000001800b48f0     SDL_gamecontroller.obj
 0002:00004900       ??_C@_09MEKLKMGE@leftstick?$AA@ 00000001800b4900     SDL_gamecontroller.obj
 0002:0000490c       ??_C@_05FAGFPHJG@start?$AA@ 00000001800b490c     SDL_gamecontroller.obj
 0002:00004914       ??_C@_05HLIEEKJG@guide?$AA@ 00000001800b4914     SDL_gamecontroller.obj
 0002:0000491c       ??_C@_04JFCNHLLM@back?$AA@ 00000001800b491c     SDL_gamecontroller.obj
 0002:00004924       ??_C@_01EANLCPLP@y?$AA@    00000001800b4924     SDL_gamecontroller.obj
 0002:00004928       ??_C@_01FJMABOPO@x?$AA@    00000001800b4928     SDL_gamecontroller.obj
 0002:0000492c       ??_C@_01OJONOECF@b?$AA@    00000001800b492c     SDL_gamecontroller.obj
 0002:00004930       ??_C@_01MCMALHOG@a?$AA@    00000001800b4930     SDL_gamecontroller.obj
 0002:00004938       ??_C@_0N@CLKIAFGP@righttrigger?$AA@ 00000001800b4938     SDL_gamecontroller.obj
 0002:00004948       ??_C@_0M@FLKHLCCP@lefttrigger?$AA@ 00000001800b4948     SDL_gamecontroller.obj
 0002:00004954       ??_C@_06EOBKMJJD@righty?$AA@ 00000001800b4954     SDL_gamecontroller.obj
 0002:0000495c       ??_C@_06FHABPINC@rightx?$AA@ 00000001800b495c     SDL_gamecontroller.obj
 0002:00004964       ??_C@_05NDJBMDKM@lefty?$AA@ 00000001800b4964     SDL_gamecontroller.obj
 0002:0000496c       ??_C@_05MKIKPCON@leftx?$AA@ 00000001800b496c     SDL_gamecontroller.obj
 0002:00004980       ??_C@_0PD@JKKLOKNP@xinput?0X360?5Controller?0a?3b10?0b?3b@ 00000001800b4980     SDL_gamecontroller.obj
 0002:00004a80       ??_C@_0BAO@FMMLNAN@25090500000000000000504944564944@ 00000001800b4a80     SDL_gamecontroller.obj
 0002:00004b90       ??_C@_0BAO@DNPAEFIG@4c056802000000000000504944564944@ 00000001800b4b90     SDL_gamecontroller.obj
 0002:00004ca0       ??_C@_0BBC@GBLINCAN@88880803000000000000504944564944@ 00000001800b4ca0     SDL_gamecontroller.obj
 0002:00004dc0       ??_C@_0BAP@HGGFDEDO@6d0419c2000000000000504944564944@ 00000001800b4dc0     SDL_gamecontroller.obj
 0002:00004ed0       ??_C@_0BBI@NPKHGDHN@6d0416c2000000000000504944564944@ 00000001800b4ed0     SDL_gamecontroller.obj
 0002:00004ff0       ??_C@_0BBB@LPODHOOC@ffff0000000000000000504944564944@ 00000001800b4ff0     SDL_gamecontroller.obj
 0002:00005110       ??_C@_0BBM@ENNFIHLO@341a3608000000000000504944564944@ 00000001800b5110     SDL_gamecontroller.obj
 0002:00005230       ??_C@_0BI@HJBNAHDG@Hat?5index?5too?5large?3?5?$CFd?$AA@ 00000001800b5230     SDL_gamecontroller.obj
 0002:00005248       ??_C@_0BL@NCEBLBBK@Button?5index?5too?5large?3?5?$CFd?$AA@ 00000001800b5248     SDL_gamecontroller.obj
 0002:00005268       ??_C@_0BJ@MJGIDEEP@Axis?5index?5too?5large?3?5?$CFd?$AA@ 00000001800b5268     SDL_gamecontroller.obj
 0002:00005288       ??_C@_0CD@NANNFFFE@Joystick?5button?5name?5too?5large?3?5@ 00000001800b5288     SDL_gamecontroller.obj
 0002:000052b0       ??_C@_0BK@CCMLICPB@Button?5name?5too?5large?3?5?$CFs?$AA@ 00000001800b52b0     SDL_gamecontroller.obj
 0002:000052cc       ??_C@_06MGLLJPKG@xinput?$AA@ 00000001800b52cc     SDL_gamecontroller.obj
 0002:000052d8       ??_C@_08MCDBFJAE@?$CFs?0?$CFs?0?$CFs?$AA@ 00000001800b52d8     SDL_gamecontroller.obj
 0002:000052e8       ??_C@_0BJ@IJEKINBN@SDL_GAMECONTROLLERCONFIG?$AA@ 00000001800b52e8     SDL_gamecontroller.obj
 0002:00005308       ??_C@_0CB@KCPNOAKL@There?5are?5?$CFd?5joysticks?5available@ 00000001800b5308     SDL_gamecontroller.obj
 0002:00005330       ??_C@_0CG@GBEAHDNE@Couldn?8t?5find?5mapping?5for?5device@ 00000001800b5330     SDL_gamecontroller.obj
 0002:00005370       ??_C@_0CF@GPJAGHLN@SDL_JOYSTICK_ALLOW_BACKGROUND_EV@ 00000001800b5370     SDL_joystick.obj
 0002:00005398       ??_C@_0CA@FCHBKHPL@Joystick?5hasn?8t?5been?5opened?5yet?$AA@ 00000001800b5398     SDL_joystick.obj
 0002:000053b8       ??_C@_0BK@DOKCBDHC@Joystick?5only?5has?5?$CFd?5axes?$AA@ 00000001800b53b8     SDL_joystick.obj
 0002:000053d8       ??_C@_0BK@DEHKAFB@Joystick?5only?5has?5?$CFd?5hats?$AA@ 00000001800b53d8     SDL_joystick.obj
 0002:000053f8       ??_C@_0BL@DLDBLEKM@Joystick?5only?5has?5?$CFd?5balls?$AA@ 00000001800b53f8     SDL_joystick.obj
 0002:00005418       ??_C@_0BN@LOKOHPBB@Joystick?5only?5has?5?$CFd?5buttons?$AA@ 00000001800b5418     SDL_joystick.obj
 0002:00005468       __real@8000000000000000    00000001800b5468     e_atan2.obj
 0002:00005470       __real@c00921fb54442d18    00000001800b5470     e_atan2.obj
 0002:00005478       __real@4002d97c7f3321d2    00000001800b5478     e_atan2.obj
 0002:00005480       __real@c002d97c7f3321d2    00000001800b5480     e_atan2.obj
 0002:00005488       __real@3fd5555555555555    00000001800b5488     e_log.obj
 0002:00005490       __real@3ff0000000000000    00000001800b5490     e_log.obj
 0002:000054a0       __mask@@NegDouble@         00000001800b54a0     e_log.obj
 0002:000054b0       __real@3fd2000000000000    00000001800b54b0     k_cos.obj
 0002:000054b8       __real@4020000000000000    00000001800b54b8     k_rem_pio2.obj
 0002:000054c0       __real@3fc0000000000000    00000001800b54c0     k_rem_pio2.obj
 0002:00005578       __real@3fc999999998ebc4    00000001800b5578     s_atan.obj
 0002:00005580       __real@3fbc71c6fe231671    00000001800b5580     s_atan.obj
 0002:00005588       __real@3fb3b0f2af749a6d    00000001800b5588     s_atan.obj
 0002:00005590       __real@3fa2b4442c6a6c2f    00000001800b5590     s_atan.obj
 0002:00005598       __real@bff0000000000000    00000001800b5598     s_atan.obj
 0002:000055a0       __real@3ff8000000000000    00000001800b55a0     s_atan.obj
 0002:000055a8       __real@0000000000000000    00000001800b55a8     s_floor.obj
 0002:000055b0       ??_C@_0CF@LNPFIFJC@index?5must?5be?5in?5the?5range?5of?50?5@ 00000001800b55b0     SDL_render.obj
 0002:000055d8       ??_C@_0BG@BMDGIALD@_SDL_WindowRenderData?$AA@ 00000001800b55d8     SDL_render.obj
 0002:000055f0       ??_C@_0BB@GFPGJKPN@Invalid?5renderer?$AA@ 00000001800b55f0     SDL_render.obj
 0002:00005608       ??_C@_0BA@NLFBADFE@Invalid?5texture?$AA@ 00000001800b5608     SDL_render.obj
 0002:00005618       ??_C@_0CN@PFPBINLD@SDL_LockTexture?$CI?$CJ?3?5texture?5must?5@ 00000001800b5618     SDL_render.obj
 0002:00005648       ??_C@_0DC@GJADPECC@Texture?5not?5created?5with?5SDL_TEX@ 00000001800b5648     SDL_render.obj
 0002:00005680       ??_C@_0CL@DMDPPMKG@Texture?5was?5not?5created?5with?5thi@ 00000001800b5680     SDL_render.obj
 0002:000056b0       ??_C@_0CL@EDIJBFA@SDL_RenderDrawPoints?$CI?$CJ?3?5Passed?5N@ 00000001800b56b0     SDL_render.obj
 0002:000056e0       ??_C@_0CK@LINDOKPA@SDL_RenderDrawLines?$CI?$CJ?3?5Passed?5NU@ 00000001800b56e0     SDL_render.obj
 0002:00005710       ??_C@_0CJ@ECBHPODM@SDL_RenderDrawRects?$CI?$CJ?3?5Passed?5NU@ 00000001800b5710     SDL_render.obj
 0002:00005740       ??_C@_0CJ@NNHIGIMN@SDL_RenderFillRects?$CI?$CJ?3?5Passed?5NU@ 00000001800b5740     SDL_render.obj
 0002:00005770       ??_C@_0CH@BFFKFKID@Renderer?5does?5not?5support?5Render@ 00000001800b5770     SDL_render.obj
 0002:00005798       ??_C@_0CO@CJKFMNM@Renderer?5doesn?8t?5support?5queryin@ 00000001800b5798     SDL_render.obj
 0002:000057c8       ??_C@_0BO@KMOMBDEL@Texture?5dimensions?5can?8t?5be?50?$AA@ 00000001800b57c8     SDL_render.obj
 0002:000057e8       ??_C@_0CI@DIOFGJGK@Texture?5dimensions?5are?5limited?5t@ 00000001800b57e8     SDL_render.obj
 0002:00005810       ??_C@_0CG@LJJJCNJI@Palettized?5textures?5are?5not?5supp@ 00000001800b5810     SDL_render.obj
 0002:00005838       ??_C@_05NCNFOFLM@pitch?$AA@ 00000001800b5838     SDL_render.obj
 0002:00005840       ??_C@_06CBIFBKHG@pixels?$AA@ 00000001800b5840     SDL_render.obj
 0002:00005848       ??_C@_0CE@GPMMJMLE@Texture?5format?5must?5by?5YV12?5or?5I@ 00000001800b5848     SDL_render.obj
 0002:0000586c       ??_C@_06LOHOEHOM@Vpitch?$AA@ 00000001800b586c     SDL_render.obj
 0002:00005874       ??_C@_06KMCPICCP@Vplane?$AA@ 00000001800b5874     SDL_render.obj
 0002:0000587c       ??_C@_06IPJGFNHB@Upitch?$AA@ 00000001800b587c     SDL_render.obj
 0002:00005884       ??_C@_06JNMHJILC@Uplane?$AA@ 00000001800b5884     SDL_render.obj
 0002:0000588c       ??_C@_06EIDGDHAF@Ypitch?$AA@ 00000001800b588c     SDL_render.obj
 0002:00005894       ??_C@_06FKGHPCMG@Yplane?$AA@ 00000001800b5894     SDL_render.obj
 0002:000058a0       ??_C@_0DD@GCMDHNIP@SDL_CreateTextureFromSurface?$CI?$CJ?5p@ 00000001800b58a0     SDL_render.obj
 0002:000058d8       __real@3f1a36e2eb1c432d    00000001800b58d8     SDL_render.obj
 0002:000058e0       ??_C@_0BF@JODAKHNK@Created?5renderer?3?5?$CFs?$AA@ 00000001800b58e0     SDL_render.obj
 0002:000058f8       ??_C@_0CL@KECFMKMA@index?5must?5be?5?91?5or?5in?5the?5range@ 00000001800b58f8     SDL_render.obj
 0002:00005928       ??_C@_0CF@DLEDKEIF@Couldn?8t?5find?5matching?5render?5dr@ 00000001800b5928     SDL_render.obj
 0002:00005950       ??_C@_0BC@FOCBAEFG@SDL_RENDER_DRIVER?$AA@ 00000001800b5950     SDL_render.obj
 0002:00005968       ??_C@_0BB@BNJAOAFB@SDL_RENDER_VSYNC?$AA@ 00000001800b5968     SDL_render.obj
 0002:00005980       ??_C@_0CI@NCMHHKLK@Renderer?5already?5associated?5with@ 00000001800b5980     SDL_render.obj
 0002:000059a8       ??_C@_0P@ECEHCKEF@Invalid?5window?$AA@ 00000001800b59a8     SDL_render.obj
 0002:000059b8       ??_C@_0CD@JCHGOJPA@Unsupported?5YUV?5destination?5form@ 00000001800b59b8     SDL_yuv_sw.obj
 0002:000059e0       ??_C@_0DH@OKPODNGN@YV12?5and?5IYUV?5textures?5only?5supp@ 00000001800b59e0     SDL_yuv_sw.obj
 0002:00005a18       ??_C@_0BP@KIPHAOMO@Unsupported?5YUV?5format?5in?5copy?$AA@ 00000001800b5a18     SDL_yuv_sw.obj
 0002:00005a38       __real@3ffc5fe740317f9c    00000001800b5a38     SDL_yuv_sw.obj
 0002:00005a40       __real@bfd60ad3ea582b50    00000001800b5a40     SDL_yuv_sw.obj
 0002:00005a48       __real@bfe6d5d7ace82bfe    00000001800b5a48     SDL_yuv_sw.obj
 0002:00005a50       __real@3ff66be12d60bfc9    00000001800b5a50     SDL_yuv_sw.obj
 0002:00005a58       ??_C@_0BH@NPDOPCKC@Unsupported?5YUV?5format?$AA@ 00000001800b5a58     SDL_yuv_sw.obj
 0002:00005a70       ??_C@_0P@GKIBCCHP@UCS?94?9INTERNAL?$AA@ 00000001800b5a70     SDL_iconv.obj
 0002:00005a80       ??_C@_07MAOKKOCE@UCS?94BE?$AA@ 00000001800b5a80     SDL_iconv.obj
 0002:00005a88       ??_C@_07MKHEIDCO@UCS?94LE?$AA@ 00000001800b5a88     SDL_iconv.obj
 0002:00005a90       ??_C@_05FPCKGDIJ@UCS?94?$AA@ 00000001800b5a90     SDL_iconv.obj
 0002:00005a98       ??_C@_04JFFPNMJE@UCS4?$AA@ 00000001800b5a98     SDL_iconv.obj
 0002:00005aa0       ??_C@_0P@ICDEOIDM@UCS?92?9INTERNAL?$AA@ 00000001800b5aa0     SDL_iconv.obj
 0002:00005ab0       ??_C@_07OFIBPBPI@UCS?92BE?$AA@ 00000001800b5ab0     SDL_iconv.obj
 0002:00005ab8       ??_C@_07OPBPNMPC@UCS?92LE?$AA@ 00000001800b5ab8     SDL_iconv.obj
 0002:00005ac0       ??_C@_05JHAMEAP@UCS?92?$AA@ 00000001800b5ac0     SDL_iconv.obj
 0002:00005ac8       ??_C@_04MDAFHLBC@UCS2?$AA@ 00000001800b5ac8     SDL_iconv.obj
 0002:00005ad0       ??_C@_08CEJLHJGH@UTF?932LE?$AA@ 00000001800b5ad0     SDL_iconv.obj
 0002:00005ae0       ??_C@_07MBKNMEHJ@UTF32LE?$AA@ 00000001800b5ae0     SDL_iconv.obj
 0002:00005ae8       ??_C@_08COAFFEGN@UTF?932BE?$AA@ 00000001800b5ae8     SDL_iconv.obj
 0002:00005af8       ??_C@_07MLDDOJHD@UTF32BE?$AA@ 00000001800b5af8     SDL_iconv.obj
 0002:00005b00       ??_C@_06MKNHHJMC@UTF?932?$AA@ 00000001800b5b00     SDL_iconv.obj
 0002:00005b08       ??_C@_05KKMPKGEK@UTF32?$AA@ 00000001800b5b08     SDL_iconv.obj
 0002:00005b10       ??_C@_07DEAPAAEO@UTF16LE?$AA@ 00000001800b5b10     SDL_iconv.obj
 0002:00005b18       ??_C@_08NLKHJAFK@UTF?916BE?$AA@ 00000001800b5b18     SDL_iconv.obj
 0002:00005b28       ??_C@_07DOJBCNEE@UTF16BE?$AA@ 00000001800b5b28     SDL_iconv.obj
 0002:00005b30       ??_C@_06KNDPGIKI@UTF?916?$AA@ 00000001800b5b30     SDL_iconv.obj
 0002:00005b38       ??_C@_05MNCHLHCA@UTF16?$AA@ 00000001800b5b38     SDL_iconv.obj
 0002:00005b40       ??_C@_04OOMJJNCF@UTF8?$AA@ 00000001800b5b40     SDL_iconv.obj
 0002:00005b48       ??_C@_0L@GJIJNDEK@ISO?98859?91?$AA@ 00000001800b5b48     SDL_iconv.obj
 0002:00005b54       ??_C@_06DBMBMKI@8859?91?$AA@ 00000001800b5b54     SDL_iconv.obj
 0002:00005b60       ??_C@_08DIBGJKBD@US?9ASCII?$AA@ 00000001800b5b60     SDL_iconv.obj
 0002:00005b6c       ??_C@_05CCNLIHFO@ASCII?$AA@ 00000001800b5b6c     SDL_iconv.obj
 0002:00005b74       ??_C@_04ECEKPLPK@LANG?$AA@ 00000001800b5b74     SDL_iconv.obj
 0002:00005b80       ??_C@_0M@OEOGJAKB@LC_MESSAGES?$AA@ 00000001800b5b80     SDL_iconv.obj
 0002:00005b90       ??_C@_08EADHIDAD@LC_CTYPE?$AA@ 00000001800b5b90     SDL_iconv.obj
 0002:00005b9c       ??_C@_06NEFDFEKB@LC_ALL?$AA@ 00000001800b5b9c     SDL_iconv.obj
 0002:00005bec       ??_C@_02MDDDDAID@0x?$AA@   00000001800b5bec     SDL_string.obj
 0002:00005bf0       ??_C@_03KDGLFNIB@I64?$AA@  00000001800b5bf0     SDL_string.obj
 0002:00005bf4       ??_C@_02EGCJHIOB@id?$AA@   00000001800b5bf4     SDL_thread.obj
 0002:00005bf8       ??_C@_08OFDBCHEE@SDLTimer?$AA@ 00000001800b5bf8     SDL_timer.obj
 0002:00005c04       ??_C@_02GMHACPFF@?$CFu?$AA@ 00000001800b5c04     SDL_blit.obj
 0002:00005c08       ??_C@_0BG@FDAAEABG@SDL_BLIT_CPU_FEATURES?$AA@ 00000001800b5c08     SDL_blit.obj
 0002:00005c20       ??_C@_0BP@DOEMAMAO@Blit?5combination?5not?5supported?$AA@ 00000001800b5c20     SDL_blit.obj
 0002:00007ee0       ??_C@_0BH@MBEMJCJD@Error?5reading?5from?5BMP?$AA@ 00000001800b7ee0     SDL_bmp.obj
 0002:00007ef8       ??_C@_0CD@JAGEONDI@Compressed?5BMP?5files?5not?5support@ 00000001800b7ef8     SDL_bmp.obj
 0002:00007f20       ??_C@_0BP@KFCLDKFK@File?5is?5not?5a?5Windows?5BMP?5file?$AA@ 00000001800b7f20     SDL_bmp.obj
 0002:00007f40       ??_C@_02DGHHEOAL@BM?$AA@   00000001800b7f40     SDL_bmp.obj
 0002:00007f48       ??_C@_0CB@KFIBCIJC@Couldn?8t?5convert?5image?5to?5?$CFd?5bpp@ 00000001800b7f48     SDL_bmp.obj
 0002:00007f70       ??_C@_0BP@EDKJCFAN@?$CFd?5bpp?5BMP?5files?5not?5supported?$AA@ 00000001800b7f70     SDL_bmp.obj
 0002:00007f90       ??_C@_0CK@NBGGFHE@SDL_FillRect?$CI?$CJ?3?5You?5must?5lock?5th@ 00000001800b7f90     SDL_fillrect.obj
 0002:00007fc0       ??_C@_0CL@EEMMFBLB@SDL_FillRect?$CI?$CJ?3?5Unsupported?5surf@ 00000001800b7fc0     SDL_fillrect.obj
 0002:00007ff0       ??_C@_0CA@JMOKMMHL@Passed?5NULL?5destination?5surface?$AA@ 00000001800b7ff0     SDL_fillrect.obj
 0002:00008010       ??_C@_0CC@BHMHHMOO@SDL_FillRects?$CI?$CJ?5passed?5NULL?5rect@ 00000001800b8010     SDL_fillrect.obj
 0002:00008038       ??_C@_0BF@GMCJPMEN@SDL_PIXELFORMAT_YVYU?$AA@ 00000001800b8038     SDL_pixels.obj
 0002:00008050       ??_C@_0BF@HGJNNBDO@SDL_PIXELFORMAT_IYUV?$AA@ 00000001800b8050     SDL_pixels.obj
 0002:00008068       ??_C@_0BF@FGFDAJCL@SDL_PIXELFORMAT_UYVY?$AA@ 00000001800b8068     SDL_pixels.obj
 0002:00008080       ??_C@_0BI@BMDHPIBC@SDL_PIXELFORMAT_UNKNOWN?$AA@ 00000001800b8080     SDL_pixels.obj
 0002:00008098       ??_C@_0BF@FECAKOMD@SDL_PIXELFORMAT_YUY2?$AA@ 00000001800b8098     SDL_pixels.obj
 0002:000080b0       ??_C@_0BJ@EIAPGKHI@SDL_PIXELFORMAT_BGRA8888?$AA@ 00000001800b80b0     SDL_pixels.obj
 0002:000080d0       ??_C@_0BG@EOOMKEOM@SDL_PIXELFORMAT_RGB24?$AA@ 00000001800b80d0     SDL_pixels.obj
 0002:000080e8       ??_C@_0BG@BNCDPBOI@SDL_PIXELFORMAT_BGR24?$AA@ 00000001800b80e8     SDL_pixels.obj
 0002:00008100       ??_C@_0BF@FBJLLF@SDL_PIXELFORMAT_YV12?$AA@ 00000001800b8100     SDL_pixels.obj
 0002:00008118       ??_C@_0BJ@IJMGJLIF@SDL_PIXELFORMAT_ABGR8888?$AA@ 00000001800b8118     SDL_pixels.obj
 0002:00008138       ??_C@_0BJ@IDBBLEMH@SDL_PIXELFORMAT_RGBA8888?$AA@ 00000001800b8138     SDL_pixels.obj
 0002:00008158       ??_C@_0BH@NPPEOMEA@SDL_PIXELFORMAT_BGR888?$AA@ 00000001800b8158     SDL_pixels.obj
 0002:00008170       ??_C@_0BJ@GMNGDJCL@SDL_PIXELFORMAT_BGRX8888?$AA@ 00000001800b8170     SDL_pixels.obj
 0002:00008190       ??_C@_0BM@OKKFJDPO@SDL_PIXELFORMAT_ARGB2101010?$AA@ 00000001800b8190     SDL_pixels.obj
 0002:000081b0       ??_C@_0BJ@JLOPFOAO@SDL_PIXELFORMAT_BGRA5551?$AA@ 00000001800b81b0     SDL_pixels.obj
 0002:000081d0       ??_C@_0BH@NIMKOHAM@SDL_PIXELFORMAT_RGB888?$AA@ 00000001800b81d0     SDL_pixels.obj
 0002:000081e8       ??_C@_0BJ@KHMIOHJE@SDL_PIXELFORMAT_RGBX8888?$AA@ 00000001800b81e8     SDL_pixels.obj
 0002:00008208       ??_C@_0BJ@PGKLKIDF@SDL_PIXELFORMAT_ARGB8888?$AA@ 00000001800b8208     SDL_pixels.obj
 0002:00008228       ??_C@_0BJ@GCIGIOKJ@SDL_PIXELFORMAT_BGRA4444?$AA@ 00000001800b8228     SDL_pixels.obj
 0002:00008248       ??_C@_0BH@JCKOGHNK@SDL_PIXELFORMAT_BGR565?$AA@ 00000001800b8248     SDL_pixels.obj
 0002:00008260       ??_C@_0BJ@KDEPHPFE@SDL_PIXELFORMAT_ABGR4444?$AA@ 00000001800b8260     SDL_pixels.obj
 0002:00008280       ??_C@_0BJ@MLMKMMDH@SDL_PIXELFORMAT_ABGR1555?$AA@ 00000001800b8280     SDL_pixels.obj
 0002:000082a0       ??_C@_0BH@JAOINJID@SDL_PIXELFORMAT_BGR555?$AA@ 00000001800b82a0     SDL_pixels.obj
 0002:000082b8       ??_C@_0BJ@NMCCEMOE@SDL_PIXELFORMAT_ARGB4444?$AA@ 00000001800b82b8     SDL_pixels.obj
 0002:000082d8       ??_C@_0BJ@LEKHPPIH@SDL_PIXELFORMAT_ARGB1555?$AA@ 00000001800b82d8     SDL_pixels.obj
 0002:000082f8       ??_C@_0BJ@KJJIFABG@SDL_PIXELFORMAT_RGBA4444?$AA@ 00000001800b82f8     SDL_pixels.obj
 0002:00008318       ??_C@_0BJ@FAPBIALB@SDL_PIXELFORMAT_RGBA5551?$AA@ 00000001800b8318     SDL_pixels.obj
 0002:00008338       ??_C@_0BH@JFJAGMJG@SDL_PIXELFORMAT_RGB565?$AA@ 00000001800b8338     SDL_pixels.obj
 0002:00008350       ??_C@_0BH@PJHBGHGG@SDL_PIXELFORMAT_RGB332?$AA@ 00000001800b8350     SDL_pixels.obj
 0002:00008368       ??_C@_0BH@DHLDOONM@SDL_PIXELFORMAT_RGB444?$AA@ 00000001800b8368     SDL_pixels.obj
 0002:00008380       ??_C@_0BH@JHNGNCMP@SDL_PIXELFORMAT_RGB555?$AA@ 00000001800b8380     SDL_pixels.obj
 0002:00008398       ??_C@_0BH@MENODIDB@SDL_PIXELFORMAT_INDEX8?$AA@ 00000001800b8398     SDL_pixels.obj
 0002:000083b0       ??_C@_0BK@CDDKPENB@SDL_PIXELFORMAT_INDEX1LSB?$AA@ 00000001800b83b0     SDL_pixels.obj
 0002:000083d0       ??_C@_0BK@JLIGJDLE@SDL_PIXELFORMAT_INDEX1MSB?$AA@ 00000001800b83d0     SDL_pixels.obj
 0002:000083f0       ??_C@_0BK@OLNKHLKB@SDL_PIXELFORMAT_INDEX4LSB?$AA@ 00000001800b83f0     SDL_pixels.obj
 0002:00008410       ??_C@_0BK@FDGGBMME@SDL_PIXELFORMAT_INDEX4MSB?$AA@ 00000001800b8410     SDL_pixels.obj
 0002:00008430       ??_C@_0BF@BGLAILLL@Unknown?5pixel?5format?$AA@ 00000001800b8430     SDL_pixels.obj
 0002:00008448       ??_C@_0CH@OBIBNFFP@FOURCC?5pixel?5formats?5are?5not?5sup@ 00000001800b8448     SDL_pixels.obj
 0002:00008470       ??_C@_07HAKAJCPK@ncolors?$AA@ 00000001800b8470     SDL_pixels.obj
 0002:00008478       ??_C@_07JKIHKJOO@palette?$AA@ 00000001800b8478     SDL_pixels.obj
 0002:00008480       __real@40efffe000000000    00000001800b8480     SDL_pixels.obj
 0002:00008488       __real@3f70000000000000    00000001800b8488     SDL_pixels.obj
 0002:00008490       ??_C@_04FGGFAKKO@ramp?$AA@ 00000001800b8490     SDL_pixels.obj
 0002:00008498       ??_C@_05KDLBCAI@gamma?$AA@ 00000001800b8498     SDL_pixels.obj
 0002:000084a0       ??_C@_06DLEPGFEF@format?$AA@ 00000001800b84a0     SDL_pixels.obj
 0002:000084b0       ??_C@_0EL@BMJKHCAE@SDL_SetPixelFormatPalette?$CI?$CJ?5pass@ 00000001800b84b0     SDL_pixels.obj
 0002:00008500       ??_C@_0CP@FEFEDGPM@SDL_SetPixelFormatPalette?$CI?$CJ?5pass@ 00000001800b8500     SDL_pixels.obj
 0002:00008530       ??_C@_06KJFADLGN@result?$AA@ 00000001800b8530     SDL_rect.obj
 0002:00008538       ??_C@_05IOMEMJEC@count?$AA@ 00000001800b8538     SDL_rect.obj
 0002:00008540       ??_C@_06GPGIDCJA@points?$AA@ 00000001800b8540     SDL_rect.obj
 0002:00008548       ??_C@_02IOKDGHKD@Y2?$AA@   00000001800b8548     SDL_rect.obj
 0002:0000854c       ??_C@_02IPGBANJE@X2?$AA@   00000001800b854c     SDL_rect.obj
 0002:00008550       ??_C@_02KFIODEGA@Y1?$AA@   00000001800b8550     SDL_rect.obj
 0002:00008554       ??_C@_02KEEMFOFH@X1?$AA@   00000001800b8554     SDL_rect.obj
 0002:00008558       ??_C@_04LHPFHFPH@rect?$AA@ 00000001800b8558     SDL_rect.obj
 0002:00008560       ??_C@_08OKMHOFBF@numrects?$AA@ 00000001800b8560     SDL_rect.obj
 0002:0000856c       ??_C@_04FOPLNFFP@span?$AA@ 00000001800b856c     SDL_rect.obj
 0002:00008574       ??_C@_05CHHMLIPP@rects?$AA@ 00000001800b8574     SDL_rect.obj
 0002:0000857c       ??_C@_06LNLHEAAG@height?$AA@ 00000001800b857c     SDL_rect.obj
 0002:00008584       ??_C@_05IGKADHGO@width?$AA@ 00000001800b8584     SDL_rect.obj
 0002:000085b0       ??_C@_0BO@HEMJFNN@Unable?5to?5lock?5source?5surface?$AA@ 00000001800b85b0     SDL_stretch.obj
 0002:000085d0       ??_C@_0CD@LPFFNOGB@Unable?5to?5lock?5destination?5surfa@ 00000001800b85d0     SDL_stretch.obj
 0002:000085f8       ??_C@_0CD@JKBIJKNH@Invalid?5destination?5blit?5rectang@ 00000001800b85f8     SDL_stretch.obj
 0002:00008620       ??_C@_0BO@BIKFPOBL@Invalid?5source?5blit?5rectangle?$AA@ 00000001800b8620     SDL_stretch.obj
 0002:00008640       ??_C@_0CF@MJPDNGPI@Only?5works?5with?5same?5format?5surf@ 00000001800b8640     SDL_stretch.obj
 0002:00008670       ??_C@_0CO@NKNMDJLH@SDL_SetSurfacePalette?$CI?$CJ?5passed?5a@ 00000001800b8670     SDL_surface.obj
 0002:000086a0       ??_C@_03ICHNJLJF@key?$AA@  00000001800b86a0     SDL_surface.obj
 0002:000086a8       ??_C@_07IHELBNLD@surface?$AA@ 00000001800b86a8     SDL_surface.obj
 0002:000086b0       ??_C@_0CF@ILLBAFPC@SDL_UpperBlit?3?5passed?5a?5NULL?5sur@ 00000001800b86b0     SDL_surface.obj
 0002:000086d8       ??_C@_0CI@DBDIFOAL@Surfaces?5must?5not?5be?5locked?5duri@ 00000001800b86d8     SDL_surface.obj
 0002:00008700       ??_C@_0CE@NLKAGGOI@Indexed?5pixel?5formats?5not?5suppor@ 00000001800b8700     SDL_surface.obj
 0002:00008728       ??_C@_0BM@LNJEPOHC@Unknown?5FOURCC?5pixel?5format?$AA@ 00000001800b8728     SDL_surface.obj
 0002:00008748       ??_C@_09GMDIHBEH@dst_pitch?$AA@ 00000001800b8748     SDL_surface.obj
 0002:00008754       ??_C@_03HHBLCKEM@dst?$AA@  00000001800b8754     SDL_surface.obj
 0002:00008758       ??_C@_0CL@LLGPMFND@SDL_UpperBlitScaled?3?5passed?5a?5NU@ 00000001800b8758     SDL_surface.obj
 0002:00008788       ??_C@_0BK@EIJMFOLB@Empty?5destination?5palette?$AA@ 00000001800b8788     SDL_surface.obj
 0002:000087a8       ??_C@_0BN@HCNOJOLL@SDL_FRAMEBUFFER_ACCELERATION?$AA@ 00000001800b87a8     SDL_video.obj
 0002:000087c8       ??_C@_08CGFBBPDL@software?$AA@ 00000001800b87c8     SDL_video.obj
 0002:000087d8       ??_C@_0CJ@DHBOLPOL@Video?5subsystem?5has?5not?5been?5ini@ 00000001800b87d8     SDL_video.obj
 0002:00008808       ??_C@_0CJ@BDEGNDKI@displayIndex?5must?5be?5in?5the?5rang@ 00000001800b8808     SDL_video.obj
 0002:00008838       ??_C@_0CP@MMIDKBJN@Missing?5desired?5mode?5or?5closest?5@ 00000001800b8838     SDL_video.obj
 0002:00008868       ??_C@_0DD@BKEAPIHL@Video?5driver?5doesn?8t?5support?5cha@ 00000001800b8868     SDL_video.obj
 0002:000088a0       ??_C@_0CF@DMFBCMNF@No?5video?5mode?5large?5enough?5for?5?$CF@ 00000001800b88a0     SDL_video.obj
 0002:000088c8       ??_C@_0BL@CMDGLANO@Couldn?8t?5find?5any?5displays?$AA@ 00000001800b88c8     SDL_video.obj
 0002:000088e8       ??_C@_0CB@OHLALJML@Couldn?8t?5find?5display?5mode?5match@ 00000001800b88e8     SDL_video.obj
 0002:0000890c       ??_C@_04GMGOKAFF@mode?$AA@ 00000001800b890c     SDL_video.obj
 0002:00008920       ??_C@_0FD@MJKLOGDC@Window?5surface?5is?5invalid?0?5pleas@ 00000001800b8920     SDL_video.obj
 0002:00008978       ??_C@_0CB@HINFJDCH@SDL_VIDEO_MINIMIZE_ON_FOCUS_LOSS@ 00000001800b8978     SDL_video.obj
 0002:000089a0       ??_C@_0CG@ECAMDENE@No?5dynamic?5GL?5support?5in?5video?5d@ 00000001800b89a0     SDL_video.obj
 0002:000089c8       ??_C@_0BO@MEFFCKHK@OpenGL?5library?5already?5loaded?$AA@ 00000001800b89c8     SDL_video.obj
 0002:000089e8       ??_C@_0BN@PLLLAMKF@No?5GL?5driver?5has?5been?5loaded?$AA@ 00000001800b89e8     SDL_video.obj
 0002:00008a08       ??_C@_0O@DHHDCCLF@glGetIntegerv?$AA@ 00000001800b8a08     SDL_video.obj
 0002:00008a18       ??_C@_0N@PILJCBOD@glGetStringi?$AA@ 00000001800b8a18     SDL_video.obj
 0002:00008a28       ??_C@_0M@OPOBFDCB@glGetString?$AA@ 00000001800b8a28     SDL_video.obj
 0002:00008a38       ??_C@_0BJ@FAFAIBBO@Unknown?5OpenGL?5attribute?$AA@ 00000001800b8a38     SDL_video.obj
 0002:00008a58       ??_C@_0CC@BNDGNJM@Unknown?5OpenGL?5context?5profile?5?$CF@ 00000001800b8a58     SDL_video.obj
 0002:00008a80       ??_C@_0BP@CHJEIHOP@Unknown?5OpenGL?5context?5flag?5?$CFd?$AA@ 00000001800b8a80     SDL_video.obj
 0002:00008aa0       ??_C@_0BD@NGELPIEC@OpenGL?5error?3?5?$CF08X?$AA@ 00000001800b8aa0     SDL_video.obj
 0002:00008ab8       ??_C@_0BP@JHOJNCDH@OpenGL?5error?3?5GL_INVALID_VALUE?$AA@ 00000001800b8ab8     SDL_video.obj
 0002:00008ad8       ??_C@_0BO@NDHCPHLG@OpenGL?5error?3?5GL_INVALID_ENUM?$AA@ 00000001800b8ad8     SDL_video.obj
 0002:00008af8       ??_C@_0L@FPKAMKHB@glGetError?$AA@ 00000001800b8af8     SDL_video.obj
 0002:00008b08       ??_C@_0CM@GIPMDBFE@The?5specified?5window?5isn?8t?5an?5Op@ 00000001800b8b08     SDL_video.obj
 0002:00008b38       ??_C@_0CL@CJNDMCPL@Setting?5the?5swap?5interval?5is?5not@ 00000001800b8b38     SDL_video.obj
 0002:00008b68       ??_C@_0CI@OGHNAHBA@No?5OpenGL?5context?5has?5been?5made?5@ 00000001800b8b68     SDL_video.obj
 0002:00008b90       ??_C@_0CP@OKIGHHPL@The?5specified?5window?5has?5not?5bee@ 00000001800b8b90     SDL_video.obj
 0002:00008bc0       ??_C@_0BM@BELKCJEG@No?5message?5system?5available?$AA@ 00000001800b8bc0     SDL_video.obj
 0002:00008be0       ??_C@_0P@LGGKDEAA@messageboxdata?$AA@ 00000001800b8be0     SDL_video.obj
 0002:00008bf0       ??_C@_02GIPFHKNO@OK?$AA@   00000001800b8bf0     SDL_video.obj
 0002:00008bf8       ??_C@_0BC@FKKMJHGG@SDL_ALLOW_TOPMOST?$AA@ 00000001800b8bf8     SDL_video.obj
 0002:00008c10       ??_C@_0CM@JJFMKOBB@No?5hardware?5accelerated?5renderer@ 00000001800b8c10     SDL_video.obj
 0002:00008c40       ??_C@_0BH@IDJPBJJE@_SDL_WindowTextureData?$AA@ 00000001800b8c40     SDL_video.obj
 0002:00008c58       ??_C@_0BH@NFBPFOBG@No?5window?5texture?5data?$AA@ 00000001800b8c58     SDL_video.obj
 0002:00008c70       ??_C@_01BDACAMKP@h?$AA@    00000001800b8c70     SDL_video.obj
 0002:00008c74       ??_C@_01NOFIACDB@w?$AA@    00000001800b8c74     SDL_video.obj
 0002:00008c78       ??_C@_05HPEIFPPG@min_h?$AA@ 00000001800b8c78     SDL_video.obj
 0002:00008c80       ??_C@_05LCBCFBGI@min_w?$AA@ 00000001800b8c80     SDL_video.obj
 0002:00008c88       ??_C@_05DKEKBMHE@max_h?$AA@ 00000001800b8c88     SDL_video.obj
 0002:00008c90       ??_C@_05PHBABCOK@max_w?$AA@ 00000001800b8c90     SDL_video.obj
 0002:00008c98       ??_C@_0CC@CAKIDHIB@No?5OpenGL?5support?5in?5video?5drive@ 00000001800b8c98     SDL_video.obj
 0002:00008cc0       ??_C@_0BK@IGCJJGJH@No?5available?5video?5device?$AA@ 00000001800b8cc0     SDL_video.obj
 0002:00008ce0       ??_C@_0CK@PJKOKGCO@The?5video?5driver?5did?5not?5add?5any@ 00000001800b8ce0     SDL_video.obj
 0002:00008d10       ??_C@_0BB@PBJMHGCP@?$CFs?5not?5available?$AA@ 00000001800b8d10     SDL_video.obj
 0002:00008d28       ??_C@_0BA@MOBFFJMC@SDL_VIDEODRIVER?$AA@ 00000001800b8d28     SDL_video.obj
 0002:00008d38       ??_C@_0BL@DGHGGGKK@SDL_VIDEO_HIGHDPI_DISABLED?$AA@ 00000001800b8d38     SDL_video.obj
 0002:00008d60       ??_C@_0HA@PAHJMIFJ@Application?5didn?8t?5initialize?5pr@ 00000001800b8d60     SDL.obj
 0002:00008dd0       ??_C@_0BF@GFOHIHEC@hg?97890?3c031abe0b287?$AA@ 00000001800b8dd0     SDL.obj
 0002:00008de8       ??_C@_07LDLFNPGN@Windows?$AA@ 00000001800b8de8     SDL.obj
 0002:00008df0       ??_C@_0BB@NAGLCMLI@Assertion?5Failed?$AA@ 00000001800b8df0     SDL_assert.obj
 0002:00008e08       ??_C@_0O@CEEECBBI@always_ignore?$AA@ 00000001800b8e08     SDL_assert.obj
 0002:00008e18       ??_C@_06GDPEBLPA@ignore?$AA@ 00000001800b8e18     SDL_assert.obj
 0002:00008e20       ??_C@_05BENAEDOB@retry?$AA@ 00000001800b8e20     SDL_assert.obj
 0002:00008e28       ??_C@_05ELPHFHOI@break?$AA@ 00000001800b8e28     SDL_assert.obj
 0002:00008e30       ??_C@_05BBAEEBBH@abort?$AA@ 00000001800b8e30     SDL_assert.obj
 0002:00008e38       ??_C@_0L@FMCFDIJL@SDL_ASSERT?$AA@ 00000001800b8e38     SDL_assert.obj
 0002:00008e44       ??_C@_06OAKLJOPD@?6?6?$CFs?6?6?$AA@ 00000001800b8e44     SDL_assert.obj
 0002:00008e50       ??_C@_0DK@HEAEJLAB@Assertion?5failure?5at?5?$CFs?5?$CI?$CFs?3?$CFd?$CJ?0@ 00000001800b8e50     SDL_assert.obj
 0002:00008e8c       ??_C@_05MJOOAIJH@times?$AA@ 00000001800b8e8c     SDL_assert.obj
 0002:00008e94       ??_C@_04CLCEDBPF@time?$AA@ 00000001800b8e94     SDL_assert.obj
 0002:00008ea0       ??_C@_0O@FDONODGA@Always?5Ignore?$AA@ 00000001800b8ea0     SDL_assert.obj
 0002:00008eb0       ??_C@_06KMEJCCGM@Ignore?$AA@ 00000001800b8eb0     SDL_assert.obj
 0002:00008eb8       ??_C@_05BGKIEECB@Abort?$AA@ 00000001800b8eb8     SDL_assert.obj
 0002:00008ec0       ??_C@_05EMFLFCNO@Break?$AA@ 00000001800b8ec0     SDL_assert.obj
 0002:00008ec8       ??_C@_05BDHMEGNH@Retry?$AA@ 00000001800b8ec8     SDL_assert.obj
 0002:00008ed0       ??_C@_01EEMJAFIK@?6?$AA@   00000001800b8ed0     SDL_assert.obj
 0002:00008ee0       ??_C@_0EL@KPNIHJHB@?8?$CFs?8?6?5?5?5?5?$CK?5?$CFs?5?$CI?$CFs?3?$CFd?$CJ?6?5?5?5?5?$CK?5trig@ 00000001800b8ee0     SDL_assert.obj
 0002:00008f2c       ??_C@_01LKDEMHDF@s?$AA@    00000001800b8f2c     SDL_assert.obj
 0002:00008f30       ??_C@_02KAJCLHKP@no?$AA@   00000001800b8f30     SDL_assert.obj
 0002:00008f34       ??_C@_03ICICOMAL@yes?$AA@  00000001800b8f34     SDL_assert.obj
 0002:00008f38       ??_C@_0CN@NMLKMLNC@All?5SDL?5assertions?5between?5last?5@ 00000001800b8f38     SDL_assert.obj
 0002:00008f68       ??_C@_0BJ@EINIMBNM@?6?6SDL?5assertion?5report?4?6?$AA@ 00000001800b8f68     SDL_assert.obj
 0002:00008f84       ??_C@_02DKCKIIND@?$CFs?$AA@ 00000001800b8f84     SDL_error.obj
 0002:00008f88       ??_C@_06OJHGLDPL@?$CInull?$CJ?$AA@ 00000001800b8f88     SDL_error.obj
 0002:00008f90       ??_C@_0O@NALGGDJF@Out?5of?5memory?$AA@ 00000001800b8f90     SDL_error.obj
 0002:00008fa0       ??_C@_0BO@HOPHLHIA@Error?5reading?5from?5datastream?$AA@ 00000001800b8fa0     SDL_error.obj
 0002:00008fc0       ??_C@_0BM@HKBAIOID@Error?5writing?5to?5datastream?$AA@ 00000001800b8fc0     SDL_error.obj
 0002:00008fe0       ??_C@_0BM@ILIHIMKK@Error?5seeking?5in?5datastream?$AA@ 00000001800b8fe0     SDL_error.obj
 0002:00009000       ??_C@_0CA@FADPPBJI@That?5operation?5is?5not?5supported?$AA@ 00000001800b9000     SDL_error.obj
 0002:00009020       ??_C@_0BC@GIFKALJN@Unknown?5SDL?5error?$AA@ 00000001800b9020     SDL_error.obj
 0002:00009038       ??_C@_08PPIJGMPL@callback?$AA@ 00000001800b9038     SDL_hints.obj
 0002:00009048       ??_C@_08FOLAHAHG@CRITICAL?$AA@ 00000001800b9048     SDL_log.obj
 0002:00009054       ??_C@_05MBDEGLCK@ERROR?$AA@ 00000001800b9054     SDL_log.obj
 0002:0000905c       ??_C@_04JBIELMDE@WARN?$AA@ 00000001800b905c     SDL_log.obj
 0002:00009064       ??_C@_04BEADLPGM@INFO?$AA@ 00000001800b9064     SDL_log.obj
 0002:0000906c       ??_C@_05KOLFGEDA@DEBUG?$AA@ 00000001800b906c     SDL_log.obj
 0002:00009078       ??_C@_07FMFBEBBO@VERBOSE?$AA@ 00000001800b9078     SDL_log.obj
 0002:00009080       ??_C@_1FI@MPFEIBNO@?$AAI?$AAn?$AAs?$AAu?$AAf?$AAf?$AAi?$AAc?$AAi?$AAe?$AAn?$AAt?$AA?5?$AAh?$AAe?$AAa?$AAp?$AA?5?$AAm?$AAe?$AAm?$AAo?$AAr?$AAy?$AA?5?$AAt?$AAo?$AA?5?$AAw?$AAr?$AAi?$AAt@ 00000001800b9080     SDL_log.obj
 0002:000090d8       ??_C@_1DK@PCHLPFDO@?$AAE?$AAr?$AAr?$AAo?$AAr?$AA?5?$AAc?$AAa?$AAl?$AAl?$AAi?$AAn?$AAg?$AA?5?$AAW?$AAr?$AAi?$AAt?$AAe?$AAC?$AAo?$AAn?$AAs?$AAo?$AAl?$AAe?$AA?$AN?$AA?6?$AA?$AA@ 00000001800b90d8     SDL_log.obj
 0002:00009118       ??_C@_08HKGMJBDL@?$CFs?3?5?$CFs?$AN?6?$AA@ 00000001800b9118     SDL_log.obj
 0002:00009128       ??_C@_1DE@PLMANODD@?$AAE?$AAr?$AAr?$AAo?$AAr?$AA?5?$AAa?$AAt?$AAt?$AAa?$AAc?$AAh?$AAi?$AAn?$AAg?$AA?5?$AAc?$AAo?$AAn?$AAs?$AAo?$AAl?$AAe?$AA?$AN?$AA?6?$AA?$AA@ 00000001800b9128     SDL_log.obj
 0002:00009160       ??_C@_1GA@DGPJMCOB@?$AAC?$AAo?$AAu?$AAl?$AAd?$AA?5?$AAn?$AAo?$AAt?$AA?5?$AAa?$AAt?$AAt?$AAa?$AAc?$AAh?$AA?5?$AAt?$AAo?$AA?5?$AAc?$AAo?$AAn?$AAs?$AAo?$AAl?$AAe?$AA?5?$AAo?$AAf?$AA?5?$AAp@ 00000001800b9160     SDL_log.obj
 0002:000091c0       ??_C@_1EA@OPGHHGCB@?$AAP?$AAa?$AAr?$AAe?$AAn?$AAt?$AA?5?$AAp?$AAr?$AAo?$AAc?$AAe?$AAs?$AAs?$AA?5?$AAh?$AAa?$AAs?$AA?5?$AAn?$AAo?$AA?5?$AAc?$AAo?$AAn?$AAs?$AAo?$AAl?$AAe?$AA?$AN?$AA?6?$AA?$AA@ 00000001800b91c0     SDL_log.obj
 0002:00009200       ??_C@_0M@LAJMFNGO@DirectSound?$AA@ 00000001800b9200     SDL_directsound.obj
 0002:00009210       ??_C@_0M@KPABIDKA@directsound?$AA@ 00000001800b9210     SDL_directsound.obj
 0002:00009220       ??_C@_0DA@ELPKNKIN@DirectSound?3?5System?5doesn?8t?5appe@ 00000001800b9220     SDL_directsound.obj
 0002:00009250       ??_C@_0BN@JKJKKMPN@DirectSoundCaptureEnumerateW?$AA@ 00000001800b9250     SDL_directsound.obj
 0002:00009270       ??_C@_0BG@OJAPKKIE@DirectSoundEnumerateW?$AA@ 00000001800b9270     SDL_directsound.obj
 0002:00009288       ??_C@_0BD@PPENOOPJ@DirectSoundCreate8?$AA@ 00000001800b9288     SDL_directsound.obj
 0002:000092a0       ??_C@_0CH@NFJKGABA@DirectSound?3?5failed?5to?5load?5DSOU@ 00000001800b92a0     SDL_directsound.obj
 0002:000092c8       ??_C@_0L@HDBBEELN@DSOUND?4DLL?$AA@ 00000001800b92c8     SDL_directsound.obj
 0002:000092d4       ??_C@_06DJHOIPC@?$CFs?3?5?$CFs?$AA@ 00000001800b92d4     SDL_directsound.obj
 0002:000092e0       ??_C@_0CD@NGJIFEPO@Invalid?5call?5for?5the?5current?5sta@ 00000001800b92e0     SDL_directsound.obj
 0002:00009308       ??_C@_0BN@BIOCBOLC@Caller?5doesn?8t?5have?5priority?$AA@ 00000001800b9308     SDL_directsound.obj
 0002:00009328       ??_C@_0BJ@BCDADOAG@Unsupported?5audio?5format?$AA@ 00000001800b9328     SDL_directsound.obj
 0002:00009348       ??_C@_0BG@GAGDGGKF@No?5audio?5device?5found?$AA@ 00000001800b9348     SDL_directsound.obj
 0002:00009360       ??_C@_0BH@IKJEADGO@Mixing?5buffer?5was?5lost?$AA@ 00000001800b9360     SDL_directsound.obj
 0002:00009378       ??_C@_0CE@IOEIACHK@?$CFs?3?5Unknown?5DirectSound?5error?3?50@ 00000001800b9378     SDL_directsound.obj
 0002:000093a0       ??_C@_0CD@OGCOBAMK@Control?5requested?5is?5not?5availab@ 00000001800b93a0     SDL_directsound.obj
 0002:000093c8       ??_C@_0BH@KGLDLPJN@Function?5not?5supported?$AA@ 00000001800b93c8     SDL_directsound.obj
 0002:000093e0       ??_C@_0DM@JJOFOEI@Unsupported?5interface?5?9?9?5Is?5Dire@ 00000001800b93e0     SDL_directsound.obj
 0002:00009420       ??_C@_0BC@DBAKKFEN@Invalid?5parameter?$AA@ 00000001800b9420     SDL_directsound.obj
 0002:00009438       ??_C@_0BE@GLHDGGEN@Audio?5device?5in?5use?$AA@ 00000001800b9438     SDL_directsound.obj
 0002:00009450       ??_C@_0BP@NBENMCLC@DirectSound?5GetCurrentPosition?$AA@ 00000001800b9450     SDL_directsound.obj
 0002:00009470       ??_C@_0BB@DKNLGBEB@DirectSound?5Lock?$AA@ 00000001800b9470     SDL_directsound.obj
 0002:00009488       ??_C@_0CM@NEEALHAF@Sound?5buffer?5size?5must?5be?5betwee@ 00000001800b9488     SDL_directsound.obj
 0002:000094b8       ??_C@_0BO@CMKKFKKH@DirectSound?5CreateSoundBuffer?$AA@ 00000001800b94b8     SDL_directsound.obj
 0002:000094d8       ??_C@_0CA@GJIJLPBI@DirectSound?5SetCooperativeLevel?$AA@ 00000001800b94d8     SDL_directsound.obj
 0002:000094f8       ??_C@_0CG@EHPHCAHI@DirectSound?3?5Unsupported?5audio?5f@ 00000001800b94f8     SDL_directsound.obj
 0002:00009520       ??_C@_0BC@GKIGDBEH@DirectSoundCreate?$AA@ 00000001800b9520     SDL_directsound.obj
 0002:00009538       ??_C@_0CI@KOMNGPLK@DirectSound?3?5Requested?5device?5no@ 00000001800b9538     SDL_directsound.obj
 0002:00009560       ??_C@_0BF@LBLFPHGI@direct?9to?9disk?5audio?$AA@ 00000001800b9560     SDL_diskaudio.obj
 0002:00009578       ??_C@_04MDPPAFID@disk?$AA@ 00000001800b9578     SDL_diskaudio.obj
 0002:00009580       ??_C@_0N@CHLPLOMH@sdlaudio?4raw?$AA@ 00000001800b9580     SDL_diskaudio.obj
 0002:00009590       ??_C@_0BC@EJBICNOJ@SDL_DISKAUDIOFILE?$AA@ 00000001800b9590     SDL_diskaudio.obj
 0002:000095a4       ??_C@_02GMLFBBN@wb?$AA@    00000001800b95a4     SDL_diskaudio.obj
 0002:000095a8       ??_C@_0BD@DNNHEADK@SDL_DISKAUDIODELAY?$AA@ 00000001800b95a8     SDL_diskaudio.obj
 0002:000095c0       ??_C@_0BH@JLDIBOEB@SDL?5dummy?5audio?5driver?$AA@ 00000001800b95c0     SDL_dummyaudio.obj
 0002:000095d8       ??_C@_05JLNEMJLN@dummy?$AA@ 00000001800b95d8     SDL_dummyaudio.obj
 0002:000095e0       ??_C@_0BH@GKJPCENE@Windows?5Waveform?5Audio?$AA@ 00000001800b95e0     SDL_winmm.obj
 0002:000095f8       ??_C@_05IHJNLLLA@winmm?$AA@ 00000001800b95f8     SDL_winmm.obj
 0002:00009600       ??_C@_04PFAOODAA@?$CFs?3?5?$AA@ 00000001800b9600     SDL_winmm.obj
 0002:00009608       ??_C@_0BH@BBOCBLHN@waveOutPrepareHeader?$CI?$CJ?$AA@ 00000001800b9608     SDL_winmm.obj
 0002:00009620       ??_C@_0BK@OJANNCMP@Couldn?8t?5create?5semaphore?$AA@ 00000001800b9620     SDL_winmm.obj
 0002:00009640       ??_C@_0O@CELKDPDK@waveOutOpen?$CI?$CJ?$AA@ 00000001800b9640     SDL_winmm.obj
 0002:00009650       ??_C@_0BL@OFHOFDGG@Requested?5device?5not?5found?$AA@ 00000001800b9650     SDL_winmm.obj
 0002:00009670       ??_C@_07CBOKJLDC@XAudio2?$AA@ 00000001800b9670     SDL_xaudio2.obj
 0002:00009678       ??_C@_07BHCBMAPI@xaudio2?$AA@ 00000001800b9678     SDL_xaudio2.obj
 0002:00009680       CLSID_XAudio2              00000001800b9680     SDL_xaudio2.obj
 0002:00009690       IID_IXAudio2               00000001800b9690     SDL_xaudio2.obj
 0002:000096a0       ??_C@_0CM@JNBFMGBO@XAudio2?3?5IXAudio2?3?3GetDeviceCoun@ 00000001800b96a0     SDL_xaudio2.obj
 0002:000096d0       ??_C@_0CO@ELNBNNFO@XAudio2?3?5XAudio2Create?$CI?$CJ?5failed?5@ 00000001800b96d0     SDL_xaudio2.obj
 0002:00009700       ??_C@_0CG@BNIJJBF@XAudio2?3?5capture?5devices?5unsuppo@ 00000001800b9700     SDL_xaudio2.obj
 0002:00009728       ??_C@_0CF@JLGFHOBF@XAudio2?3?5Couldn?8t?5start?5source?5v@ 00000001800b9728     SDL_xaudio2.obj
 0002:00009750       ??_C@_0BP@OCHMIPBL@XAudio2?3?5Couldn?8t?5start?5engine?$AA@ 00000001800b9750     SDL_xaudio2.obj
 0002:00009770       ??_C@_0CG@FOKNDGEM@XAudio2?3?5Couldn?8t?5create?5source?5@ 00000001800b9770     SDL_xaudio2.obj
 0002:00009798       ??_C@_0CJ@DJKFDENO@XAudio2?3?5Couldn?8t?5create?5masteri@ 00000001800b9798     SDL_xaudio2.obj
 0002:000097c8       ??_C@_0CC@KNNHBGPH@XAudio2?3?5Unsupported?5audio?5forma@ 00000001800b97c8     SDL_xaudio2.obj
 0002:000097f0       ??_C@_0CD@DNEBDLGK@XAudio2?3?5CreateSemaphore?$CI?$CJ?5faile@ 00000001800b97f0     SDL_xaudio2.obj
 0002:00009818       ??_C@_0CF@HIAGHDDL@XAudio2?3?5Requested?5device?5not?5fo@ 00000001800b9818     SDL_xaudio2.obj
 0002:00009840       ??_C@_0CL@EDNIGOKA@XAudio2?3?5IXAudio2_GetDeviceCount@ 00000001800b9840     SDL_xaudio2.obj
 0002:00009870       ??_C@_0CJ@DCAHGNEB@XAudio2?3?5XAudio2Create?$CI?$CJ?5failed?5@ 00000001800b9870     SDL_xaudio2.obj
 0002:000098a0       ??_C@_0DC@DAMIPGFE@XAudio2?3?5XAudio2Create?$CI?$CJ?5failed?5@ 00000001800b98a0     SDL_xaudio2.obj
 0002:000098d8       ??_C@_0BP@NMMCGJNC@XAudio2?3?5CoInitialize?$CI?$CJ?5failed?$AA@ 00000001800b98d8     SDL_xaudio2.obj
 0002:000098f8       ??_C@_06DIJPEION@?$CFs?$CFs?$CFs?$AA@ 00000001800b98f8     SDL_windows.obj
 0002:00009900       ??_C@_02LMMGGCAJ@?3?5?$AA@ 00000001800b9900     SDL_windows.obj
 0002:00009908       ??_C@_0BJ@JHJFIDKK@Couldn?8t?5locate?5our?5?4exe?$AA@ 00000001800b9908     SDL_sysfilesystem.obj
 0002:00009928       ??_C@_09EECDJGEH@?$CFs?2?$CFs?2?$CFs?2?$AA@ 00000001800b9928     SDL_sysfilesystem.obj
 0002:00009938       ??_C@_0BN@GLBPFIPM@Couldn?8t?5locate?5our?5prefpath?$AA@ 00000001800b9938     SDL_sysfilesystem.obj
 0002:00009958       ??_C@_0BA@HFDONPBH@Haptic?5error?5?$CFs?$AA@ 00000001800b9958     SDL_syshaptic.obj
 0002:00009968       ??_C@_0DF@OBBOHBHK@Haptic?3?5Internal?5error?5on?5findin@ 00000001800b9968     SDL_syshaptic.obj
 0002:000099a0       ??_C@_0BO@DIPJPIHH@Enumerating?5supported?5effects?$AA@ 00000001800b99a0     SDL_syshaptic.obj
 0002:000099c0       ??_C@_0BD@NLGLKAMF@Enabling?5actuators?$AA@ 00000001800b99c0     SDL_syshaptic.obj
 0002:000099d8       ??_C@_0BB@MJNJGMLC@Resetting?5device?$AA@ 00000001800b99d8     SDL_syshaptic.obj
 0002:000099f0       ??_C@_0BN@KPNHDECB@Acquiring?5DirectInput?5device?$AA@ 00000001800b99f0     SDL_syshaptic.obj
 0002:00009a10       ??_C@_0BE@HECEPECB@Getting?5device?5axes?$AA@ 00000001800b9a10     SDL_syshaptic.obj
 0002:00009a28       ??_C@_0BE@LFMAKGDE@Setting?5data?5format?$AA@ 00000001800b9a28     SDL_syshaptic.obj
 0002:00009a40       ??_C@_0CH@CGNPPJHJ@Setting?5cooperative?5level?5to?5exc@ 00000001800b9a40     SDL_syshaptic.obj
 0002:00009a68       ??_C@_0CA@HKGKHKL@Haptic?3?5Unknown?5direction?5type?4?$AA@ 00000001800b9a68     SDL_syshaptic.obj
 0002:00009a88       ??_C@_0BN@MEGCJADB@Haptic?3?5Unknown?5effect?5type?4?$AA@ 00000001800b9a88     SDL_syshaptic.obj
 0002:00009aa8       ??_C@_0BI@GLDPHDLK@Unable?5to?5update?5effect?$AA@ 00000001800b9aa8     SDL_syshaptic.obj
 0002:00009ac0       ??_C@_0BD@GOAAEJJJ@Running?5the?5effect?$AA@ 00000001800b9ac0     SDL_syshaptic.obj
 0002:00009ad8       ??_C@_0BG@DMHHBCEP@Unable?5to?5stop?5effect?$AA@ 00000001800b9ad8     SDL_syshaptic.obj
 0002:00009af0       ??_C@_0CA@OGBNMFGN@Removing?5effect?5from?5the?5device?$AA@ 00000001800b9af0     SDL_syshaptic.obj
 0002:00009b10       ??_C@_0BG@BCMPKABI@Getting?5effect?5status?$AA@ 00000001800b9b10     SDL_syshaptic.obj
 0002:00009b28       ??_C@_0N@CNIPICNP@Setting?5gain?$AA@ 00000001800b9b28     SDL_syshaptic.obj
 0002:00009b38       ??_C@_0BD@IJBJFEHG@Setting?5autocenter?$AA@ 00000001800b9b38     SDL_syshaptic.obj
 0002:00009b50       ??_C@_0BD@CLAFEHOG@Pausing?5the?5device?$AA@ 00000001800b9b50     SDL_syshaptic.obj
 0002:00009b68       ??_C@_0BE@IPOIGCPM@Stopping?5the?5device?$AA@ 00000001800b9b68     SDL_syshaptic.obj
 0002:00009b80       ??_C@_0BG@EJANGHHD@XInput?5Controller?5?$CD?$CFu?$AA@ 00000001800b9b80     SDL_syshaptic.obj
 0002:00009b98       ??_C@_0CA@FDLBMNIL@Enumerating?5DirectInput?5devices?$AA@ 00000001800b9b98     SDL_syshaptic.obj
 0002:00009bb8       ??_C@_0CA@IAEMDCKI@Initializing?5DirectInput?5device?$AA@ 00000001800b9bb8     SDL_syshaptic.obj
 0002:00009bd8       ??_C@_0CN@IHIHLPGF@GetModuleHandle?$CI?$CJ?5failed?5with?5er@ 00000001800b9bd8     SDL_syshaptic.obj
 0002:00009c08       ??_C@_0BB@FBCNKNOO@CoCreateInstance?$AA@ 00000001800b9c08     SDL_syshaptic.obj
 0002:00009c20       ??_C@_0N@BAOBAGOC@Coinitialize?$AA@ 00000001800b9c20     SDL_syshaptic.obj
 0002:00009c30       ??_C@_0CA@OOHOCMID@Haptic?3?5SubSystem?5already?5open?4?$AA@ 00000001800b9c30     SDL_syshaptic.obj
 0002:00009c50       ??_C@_0BD@IGMJGOIE@SDL_XINPUT_ENABLED?$AA@ 00000001800b9c50     SDL_syshaptic.obj
 0002:00009c68       ??_C@_0BP@CEGFPCDM@Querying?5DirectInput?5interface?$AA@ 00000001800b9c68     SDL_syshaptic.obj
 0002:00009c88       ??_C@_0BM@ICAKHFOB@Creating?5DirectInput?5device?$AA@ 00000001800b9c88     SDL_syshaptic.obj
 0002:00009ca8       ??_C@_0CF@NJPNFGFE@Couldn?8t?5create?5XInput?5haptic?5th@ 00000001800b9ca8     SDL_syshaptic.obj
 0002:00009cd0       ??_C@_0P@CINKNAAE@SDLXInputDev?$CFd?$AA@ 00000001800b9cd0     SDL_syshaptic.obj
 0002:00009ce0       ??_C@_0CE@GDBBNLAM@Couldn?8t?5create?5XInput?5haptic?5mu@ 00000001800b9ce0     SDL_syshaptic.obj
 0002:00009d08       ??_C@_0BI@OLGPNEE@Unable?5to?5create?5effect?$AA@ 00000001800b9d08     SDL_syshaptic.obj
 0002:00009d20       CLSID_DirectInput8         00000001800b9d20     SDL_dxjoystick.obj
 0002:00009d30       IID_IDirectInput8W         00000001800b9d30     SDL_dxjoystick.obj
 0002:00009d40       IID_IDirectInputDevice8W   00000001800b9d40     SDL_dxjoystick.obj
 0002:00009d50       GUID_XAxis                 00000001800b9d50     SDL_dxjoystick.obj
 0002:00009d60       GUID_YAxis                 00000001800b9d60     SDL_dxjoystick.obj
 0002:00009d70       GUID_ZAxis                 00000001800b9d70     SDL_dxjoystick.obj
 0002:00009d80       GUID_RxAxis                00000001800b9d80     SDL_dxjoystick.obj
 0002:00009d90       GUID_RyAxis                00000001800b9d90     SDL_dxjoystick.obj
 0002:00009da0       GUID_RzAxis                00000001800b9da0     SDL_dxjoystick.obj
 0002:00009db0       GUID_Slider                00000001800b9db0     SDL_dxjoystick.obj
 0002:00009dc0       GUID_POV                   00000001800b9dc0     SDL_dxjoystick.obj
 0002:00009dd0       GUID_ConstantForce         00000001800b9dd0     SDL_dxjoystick.obj
 0002:00009de0       GUID_RampForce             00000001800b9de0     SDL_dxjoystick.obj
 0002:00009df0       GUID_Sine                  00000001800b9df0     SDL_dxjoystick.obj
 0002:00009e00       GUID_Triangle              00000001800b9e00     SDL_dxjoystick.obj
 0002:00009e10       GUID_SawtoothUp            00000001800b9e10     SDL_dxjoystick.obj
 0002:00009e20       GUID_SawtoothDown          00000001800b9e20     SDL_dxjoystick.obj
 0002:00009e30       GUID_Spring                00000001800b9e30     SDL_dxjoystick.obj
 0002:00009e40       GUID_Damper                00000001800b9e40     SDL_dxjoystick.obj
 0002:00009e50       GUID_Inertia               00000001800b9e50     SDL_dxjoystick.obj
 0002:00009e60       GUID_Friction              00000001800b9e60     SDL_dxjoystick.obj
 0002:00009e70       GUID_CustomForce           00000001800b9e70     SDL_dxjoystick.obj
 0002:00009e80       GUID_DEVINTERFACE_HID      00000001800b9e80     SDL_dxjoystick.obj
 0002:00009e90       c_dfDIJoystick2            00000001800b9e90     SDL_dxjoystick.obj
 0002:00009eb0       IID_ValveStreamingGamepad  00000001800b9eb0     SDL_dxjoystick.obj
 0002:00009ec0       IID_X360WiredGamepad       00000001800b9ec0     SDL_dxjoystick.obj
 0002:00009ed0       IID_X360WirelessGamepad    00000001800b9ed0     SDL_dxjoystick.obj
 0002:00009ee0       ??_C@_0BG@PGNDGGHJ@?$CFs?$CI?$CJ?5DirectX?5error?5?$CFd?$AA@ 00000001800b9ee0     SDL_dxjoystick.obj
 0002:00009ef8       ??_C@_03HAFBONIK@IG_?$AA@  00000001800b9ef8     SDL_dxjoystick.obj
 0002:00009f00       ??_C@_0DI@EMNBJMJJ@Failed?5to?5create?5notify?5device?5f@ 00000001800b9f00     SDL_dxjoystick.obj
 0002:00009f38       ??_C@_0DJ@EBHOBMGJ@Failed?5to?5create?5message?5window?5@ 00000001800b9f38     SDL_dxjoystick.obj
 0002:00009f78       ??_C@_0DJ@IJFBKGMA@Failed?5to?5create?5register?5class?5@ 00000001800b9f78     SDL_dxjoystick.obj
 0002:00009fb8       ??_C@_1BA@HHOMBECE@?$AAM?$AAe?$AAs?$AAs?$AAa?$AAg?$AAe?$AA?$AA@ 00000001800b9fb8     SDL_dxjoystick.obj
 0002:00009fc8       ??_C@_0BG@ELBNFOBA@XInputGetCapabilities?$AA@ 00000001800b9fc8     SDL_dxjoystick.obj
 0002:00009fe0       ??_C@_0P@KDAIIEFP@XInputSetState?$AA@ 00000001800b9fe0     SDL_dxjoystick.obj
 0002:00009ff0       ??_C@_1CE@DAJCKNBI@?$AAb?$AAi?$AAn?$AA?2?$AAX?$AAI?$AAn?$AAp?$AAu?$AAt?$AA1?$AA_?$AA3?$AA?4?$AAd?$AAl?$AAl?$AA?$AA@ 00000001800b9ff0     SDL_dxjoystick.obj
 0002:0000a018       ??_C@_1BM@EDNBBGDO@?$AAX?$AAI?$AAn?$AAp?$AAu?$AAt?$AA1?$AA_?$AA3?$AA?4?$AAd?$AAl?$AAl?$AA?$AA@ 00000001800ba018     SDL_dxjoystick.obj
 0002:0000a038       ??_C@_1BM@DHEJPPLB@?$AAX?$AAI?$AAn?$AAp?$AAu?$AAt?$AA1?$AA_?$AA4?$AA?4?$AAd?$AAl?$AAl?$AA?$AA@ 00000001800ba038     SDL_dxjoystick.obj
 0002:0000a058       ??_C@_0N@FBMHFCIJ@SDL_joystick?$AA@ 00000001800ba058     SDL_dxjoystick.obj
 0002:0000a068       ??_C@_0BJ@FLKLDKAH@IDirectInput?3?3Initialize?$AA@ 00000001800ba068     SDL_dxjoystick.obj
 0002:0000a088       ??_C@_0N@JGHNIJDF@CoInitialize?$AA@ 00000001800ba088     SDL_dxjoystick.obj
 0002:0000a098       ??_C@_0CB@KPCBBHIA@IDirectInputDevice8?3?3SetProperty@ 00000001800ba098     SDL_dxjoystick.obj
 0002:0000a0c0       ??_C@_0BP@FAFKDEAH@IDirectInputDevice8?3?3Unacquire?$AA@ 00000001800ba0c0     SDL_dxjoystick.obj
 0002:0000a0e0       ??_C@_0BN@LHLPHABN@IDirectInputDevice8?3?3Acquire?$AA@ 00000001800ba0e0     SDL_dxjoystick.obj
 0002:0000a100       ??_C@_0CF@JJNMLIHA@IDirectInputDevice8?3?3GetCapabili@ 00000001800ba100     SDL_dxjoystick.obj
 0002:0000a128       ??_C@_0CD@OHACMINP@IDirectInputDevice8?3?3SetDataForm@ 00000001800ba128     SDL_dxjoystick.obj
 0002:0000a150       ??_C@_0CJ@ONAFIIOJ@IDirectInputDevice8?3?3SetCooperat@ 00000001800ba150     SDL_dxjoystick.obj
 0002:0000a180       ??_C@_0CE@JBAFPFE@IDirectInputDevice8?3?3QueryInterf@ 00000001800ba180     SDL_dxjoystick.obj
 0002:0000a1a8       ??_C@_0BL@POPFKOJA@IDirectInput?3?3CreateDevice?$AA@ 00000001800ba1a8     SDL_dxjoystick.obj
 0002:0000a1d0       ??_C@_0EC@CBEGEJNB@Failed?5to?5obtain?5XInput?5device?5c@ 00000001800ba1d0     SDL_dxjoystick.obj
 0002:0000a218       ??_C@_0BA@KGPCPNLA@Failed?5loading?5?$AA@ 00000001800ba218     SDL_sysloadso.obj
 0002:0000a228       ??_C@_08OJGABALO@direct3d?$AA@ 00000001800ba228     SDL_render_d3d.obj
 0002:0000a238       ??_C@_07NFANNNEC@UNKNOWN?$AA@ 00000001800ba238     SDL_render_d3d.obj
 0002:0000a240       ??_C@_0BC@DCIILAAF@DRIVERINVALIDCALL?$AA@ 00000001800ba240     SDL_render_d3d.obj
 0002:0000a258       ??_C@_0M@PCOCKBEN@INVALIDCALL?$AA@ 00000001800ba258     SDL_render_d3d.obj
 0002:0000a268       ??_C@_0O@FIGMNLIE@INVALIDDEVICE?$AA@ 00000001800ba268     SDL_render_d3d.obj
 0002:0000a278       ??_C@_0N@KBHOOAEG@NOTAVAILABLE?$AA@ 00000001800ba278     SDL_render_d3d.obj
 0002:0000a288       ??_C@_0P@PDBGBNP@DEVICENOTRESET?$AA@ 00000001800ba288     SDL_render_d3d.obj
 0002:0000a298       ??_C@_0L@HJMPAIAB@DEVICELOST?$AA@ 00000001800ba298     SDL_render_d3d.obj
 0002:0000a2a8       ??_C@_08CBEFIFPI@MOREDATA?$AA@ 00000001800ba2a8     SDL_render_d3d.obj
 0002:0000a2b8       ??_C@_08DJOBNNJD@NOTFOUND?$AA@ 00000001800ba2b8     SDL_render_d3d.obj
 0002:0000a2c8       ??_C@_0BE@OJGIEDB@DRIVERINTERNALERROR?$AA@ 00000001800ba2c8     SDL_render_d3d.obj
 0002:0000a2e0       ??_C@_0BK@CCHIJEEG@CONFLICTINGTEXTUREPALETTE?$AA@ 00000001800ba2e0     SDL_render_d3d.obj
 0002:0000a300       ??_C@_0BJ@ELJJPGHB@UNSUPPORTEDTEXTUREFILTER?$AA@ 00000001800ba300     SDL_render_d3d.obj
 0002:0000a320       ??_C@_0BH@FGAAPKGF@CONFLICTINGRENDERSTATE?$AA@ 00000001800ba320     SDL_render_d3d.obj
 0002:0000a338       ??_C@_0BH@NEKKIPCN@UNSUPPORTEDFACTORVALUE?$AA@ 00000001800ba338     SDL_render_d3d.obj
 0002:0000a350       ??_C@_0BJ@DHHCDPAL@CONFLICTINGTEXTUREFILTER?$AA@ 00000001800ba350     SDL_render_d3d.obj
 0002:0000a370       ??_C@_0BC@EHAPNPON@TOOMANYOPERATIONS?$AA@ 00000001800ba370     SDL_render_d3d.obj
 0002:0000a388       ??_C@_0BE@MBMMPGHN@UNSUPPORTEDALPHAARG?$AA@ 00000001800ba388     SDL_render_d3d.obj
 0002:0000a3a0       ??_C@_0BK@OANJPOPO@UNSUPPORTEDALPHAOPERATION?$AA@ 00000001800ba3a0     SDL_render_d3d.obj
 0002:0000a3c0       ??_C@_0BE@PLIOPCEI@UNSUPPORTEDCOLORARG?$AA@ 00000001800ba3c0     SDL_render_d3d.obj
 0002:0000a3d8       ??_C@_0BK@FJAPDONA@UNSUPPORTEDCOLOROPERATION?$AA@ 00000001800ba3d8     SDL_render_d3d.obj
 0002:0000a3f8       ??_C@_0BD@DHLNJIBM@WRONGTEXTUREFORMAT?$AA@ 00000001800ba3f8     SDL_render_d3d.obj
 0002:0000a410       ??_C@_0BB@IBMCGPFC@OUTOFVIDEOMEMORY?$AA@ 00000001800ba410     SDL_render_d3d.obj
 0002:0000a428       ??_C@_0BA@OABMFANH@WASSTILLDRAWING?$AA@ 00000001800ba428     SDL_render_d3d.obj
 0002:0000a438       ??_C@_07NHJEPDMH@nearest?$AA@ 00000001800ba438     SDL_render_d3d.obj
 0002:0000a440       ??_C@_0BJ@IKKFCKKE@SDL_RENDER_SCALE_QUALITY?$AA@ 00000001800ba440     SDL_render_d3d.obj
 0002:0000a460       ??_C@_0BA@HIMDGK@CreateTexture?$CI?$CJ?$AA@ 00000001800ba460     SDL_render_d3d.obj
 0002:0000a470       ??_C@_0L@CEANEPNI@LockRect?$CI?$CJ?$AA@ 00000001800ba470     SDL_render_d3d.obj
 0002:0000a47c       __real@bf800000            00000001800ba47c     SDL_render_d3d.obj
 0002:0000a480       __real@c0000000            00000001800ba480     SDL_render_d3d.obj
 0002:0000a484       __real@40000000            00000001800ba484     SDL_render_d3d.obj
 0002:0000a488       ??_C@_0N@LKNCFGPA@SetScissor?$CI?$CJ?$AA@ 00000001800ba488     SDL_render_d3d.obj
 0002:0000a498       ??_C@_0BG@EEMBJHPM@GetRenderTargetData?$CI?$CJ?$AA@ 00000001800ba498     SDL_render_d3d.obj
 0002:0000a4b0       ??_C@_0BO@GNHHPPBF@CreateOffscreenPlainSurface?$CI?$CJ?$AA@ 00000001800ba4b0     SDL_render_d3d.obj
 0002:0000a4d0       ??_C@_09FDHJFFBD@GetDesc?$CI?$CJ?$AA@ 00000001800ba4d0     SDL_render_d3d.obj
 0002:0000a4e0       ??_C@_0BA@MENEPFO@GetBackBuffer?$CI?$CJ?$AA@ 00000001800ba4e0     SDL_render_d3d.obj
 0002:0000a4f0       ??_C@_0BP@NHLKALBC@Renderer?5is?5not?5a?5D3D?5renderer?$AA@ 00000001800ba4f0     SDL_render_d3d.obj
 0002:0000a510       ??_C@_07BOHBIPEF@Reset?$CI?$CJ?$AA@ 00000001800ba510     SDL_render_d3d.obj
 0002:0000a518       ??_C@_0N@DMDLAKKI@BeginScene?$CI?$CJ?$AA@ 00000001800ba518     SDL_render_d3d.obj
 0002:0000a528       ??_C@_0BC@NCCBNGOP@SetRenderTarget?$CI?$CJ?$AA@ 00000001800ba528     SDL_render_d3d.obj
 0002:0000a540       ??_C@_0BC@DGDHANIH@GetSurfaceLevel?$CI?$CJ?$AA@ 00000001800ba540     SDL_render_d3d.obj
 0002:0000a558       ??_C@_07DOJMODLJ@Clear?$CI?$CJ?$AA@ 00000001800ba558     SDL_render_d3d.obj
 0002:0000a560       ??_C@_0BC@JBFLDFJF@DrawPrimitiveUP?$CI?$CJ?$AA@ 00000001800ba560     SDL_render_d3d.obj
 0002:0000a578       ??_C@_0N@NNEFOEDA@SetTexture?$CI?$CJ?$AA@ 00000001800ba578     SDL_render_d3d.obj
 0002:0000a588       ??_C@_0M@FGHHKMN@SetShader?$CI?$CJ?$AA@ 00000001800ba588     SDL_render_d3d.obj
 0002:0000a598       __real@4066800000000000    00000001800ba598     SDL_render_d3d.obj
 0002:0000a5a0       __real@400921fb54442d18    00000001800ba5a0     SDL_render_d3d.obj
 0002:0000a5b0       __mask@@NegFloat@          00000001800ba5b0     SDL_render_d3d.obj
 0002:0000a5c0       ??_C@_09NGMBHGEG@Present?$CI?$CJ?$AA@ 00000001800ba5c0     SDL_render_d3d.obj
 0002:0000a5d0       ??_C@_0CE@JPMMDFFJ@Unable?5to?5create?5Direct3D?5interf@ 00000001800ba5d0     SDL_render_d3d.obj
 0002:0000a5f8       ??_C@_0BE@JJGHPJPJ@CreatePixelShader?$CI?$CJ?$AA@ 00000001800ba5f8     SDL_render_d3d.obj
 0002:0000a610       ??_C@_0BH@OACCMGIL@GetPresentParameters?$CI?$CJ?$AA@ 00000001800ba610     SDL_render_d3d.obj
 0002:0000a628       ??_C@_0P@LILPBKPC@GetSwapChain?$CI?$CJ?$AA@ 00000001800ba628     SDL_render_d3d.obj
 0002:0000a638       ??_C@_0P@DKPBPIND@CreateDevice?$CI?$CJ?$AA@ 00000001800ba638     SDL_render_d3d.obj
 0002:0000a648       ??_C@_0BP@FKMPCAOC@SDL_RENDER_DIRECT3D_THREADSAFE?$AA@ 00000001800ba648     SDL_render_d3d.obj
 0002:0000a668       ??_C@_0BG@DFLMNNHG@D3DXCreateMatrixStack?$AA@ 00000001800ba668     SDL_render_d3d.obj
 0002:0000a680       ??_C@_0P@EAGFHGIC@D3DX9_?$CF02d?4dll?$AA@ 00000001800ba680     SDL_render_d3d.obj
 0002:0000a690       ??_C@_06BKLEJAEP@opengl?$AA@ 00000001800ba690     SDL_render_gl.obj
 0002:0000a6a0       ??_C@_0BB@JMBJBKGI@GL_OUT_OF_MEMORY?$AA@ 00000001800ba6a0     SDL_render_gl.obj
 0002:0000a6b8       ??_C@_0BD@LDAMLOIE@GL_TABLE_TOO_LARGE?$AA@ 00000001800ba6b8     SDL_render_gl.obj
 0002:0000a6d0       ??_C@_0BD@KAJAFKFC@GL_STACK_UNDERFLOW?$AA@ 00000001800ba6d0     SDL_render_gl.obj
 0002:0000a6e8       ??_C@_0BB@HDIPJELP@GL_INVALID_VALUE?$AA@ 00000001800ba6e8     SDL_render_gl.obj
 0002:0000a700       ??_C@_0BF@NFNGKHIL@GL_INVALID_OPERATION?$AA@ 00000001800ba700     SDL_render_gl.obj
 0002:0000a718       ??_C@_0BC@DLCDMCHH@GL_STACK_OVERFLOW?$AA@ 00000001800ba718     SDL_render_gl.obj
 0002:0000a730       ??_C@_0BA@LLPLHEDK@GL_INVALID_ENUM?$AA@ 00000001800ba730     SDL_render_gl.obj
 0002:0000a740       ??_C@_0M@OIOFJFPO@GL_NO_ERROR?$AA@ 00000001800ba740     SDL_render_gl.obj
 0002:0000a750       ??_C@_0BK@COKHDDAG@?$CFs?3?5?$CFs?5?$CI?$CFd?$CJ?3?5?$CFs?5?$CFs?5?$CI0x?$CFX?$CJ?$AA@ 00000001800ba750     SDL_render_gl.obj
 0002:0000a770       ??_C@_07DCLBNMLN@generic?$AA@ 00000001800ba770     SDL_render_gl.obj
 0002:0000a778       ??_C@_0BD@CLGJLBBL@?$CFs?3?5?$CFs?5?$CI?$CFd?$CJ?3?5?$CFs?5?$CFs?$AA@ 00000001800ba778     SDL_render_gl.obj
 0002:0000a790       ??_C@_0L@KBLIPDFH@glViewport?$AA@ 00000001800ba790     SDL_render_gl.obj
 0002:0000a7a0       ??_C@_0BA@HAHECJNK@glVertexPointer?$AA@ 00000001800ba7a0     SDL_render_gl.obj
 0002:0000a7b0       ??_C@_0L@LPFKLMDB@glVertex2f?$AA@ 00000001800ba7b0     SDL_render_gl.obj
 0002:0000a7c0       ??_C@_0N@IFPDDBNE@glTranslatef?$AA@ 00000001800ba7c0     SDL_render_gl.obj
 0002:0000a7d0       ??_C@_0BA@NHKIJEMK@glTexSubImage2D?$AA@ 00000001800ba7d0     SDL_render_gl.obj
 0002:0000a7e0       ??_C@_0BA@KDNJAKA@glTexParameteri?$AA@ 00000001800ba7e0     SDL_render_gl.obj
 0002:0000a7f0       ??_C@_0N@JBIKHLCC@glTexImage2D?$AA@ 00000001800ba7f0     SDL_render_gl.obj
 0002:0000a800       ??_C@_09FCLLGECI@glTexEnvf?$AA@ 00000001800ba800     SDL_render_gl.obj
 0002:0000a810       ??_C@_0N@BKNBCOAE@glTexCoord2f?$AA@ 00000001800ba810     SDL_render_gl.obj
 0002:0000a820       ??_C@_09ECGPAEPL@glScissor?$AA@ 00000001800ba820     SDL_render_gl.obj
 0002:0000a830       ??_C@_09GANFLDAO@glRotated?$AA@ 00000001800ba830     SDL_render_gl.obj
 0002:0000a840       ??_C@_07FFLNKKCE@glRectf?$AA@ 00000001800ba840     SDL_render_gl.obj
 0002:0000a848       ??_C@_0N@CKFNNHOO@glReadPixels?$AA@ 00000001800ba848     SDL_render_gl.obj
 0002:0000a858       ??_C@_0N@HFKHBECK@glReadBuffer?$AA@ 00000001800ba858     SDL_render_gl.obj
 0002:0000a868       ??_C@_0O@LMHMIIIJ@glRasterPos2i?$AA@ 00000001800ba868     SDL_render_gl.obj
 0002:0000a878       ??_C@_0N@IHFNHGBL@glPushMatrix?$AA@ 00000001800ba878     SDL_render_gl.obj
 0002:0000a888       ??_C@_0M@JPEAAEEK@glPopMatrix?$AA@ 00000001800ba888     SDL_render_gl.obj
 0002:0000a898       ??_C@_0M@EEAPMMNM@glPointSize?$AA@ 00000001800ba898     SDL_render_gl.obj
 0002:0000a8a8       ??_C@_0O@JCCIGLOF@glPixelStorei?$AA@ 00000001800ba8a8     SDL_render_gl.obj
 0002:0000a8b8       ??_C@_07DBAFHOII@glOrtho?$AA@ 00000001800ba8b8     SDL_render_gl.obj
 0002:0000a8c0       ??_C@_0N@KDLNHKEJ@glMatrixMode?$AA@ 00000001800ba8c0     SDL_render_gl.obj
 0002:0000a8d0       ??_C@_0P@EJAFHEPO@glLoadIdentity?$AA@ 00000001800ba8d0     SDL_render_gl.obj
 0002:0000a8e0       ??_C@_0M@CFLGNFPG@glLineWidth?$AA@ 00000001800ba8e0     SDL_render_gl.obj
 0002:0000a8f0       ??_C@_0O@LADEDGJO@glGetPointerv?$AA@ 00000001800ba8f0     SDL_render_gl.obj
 0002:0000a900       ??_C@_0O@LLMANLNK@glGenTextures?$AA@ 00000001800ba900     SDL_render_gl.obj
 0002:0000a910       ??_C@_05OIBMBLHE@glEnd?$AA@ 00000001800ba910     SDL_render_gl.obj
 0002:0000a918       ??_C@_0BE@KECPKGNE@glEnableClientState?$AA@ 00000001800ba918     SDL_render_gl.obj
 0002:0000a930       ??_C@_08OOEHEKOP@glEnable?$AA@ 00000001800ba930     SDL_render_gl.obj
 0002:0000a940       ??_C@_0N@FLFIHFDP@glDrawPixels?$AA@ 00000001800ba940     SDL_render_gl.obj
 0002:0000a950       ??_C@_0N@CMNPPOHA@glDrawArrays?$AA@ 00000001800ba950     SDL_render_gl.obj
 0002:0000a960       ??_C@_0BF@LJDHBNBP@glDisableClientState?$AA@ 00000001800ba960     SDL_render_gl.obj
 0002:0000a978       ??_C@_09MHGMIMKN@glDisable?$AA@ 00000001800ba978     SDL_render_gl.obj
 0002:0000a988       ??_C@_0BB@KMPLFJIC@glDeleteTextures?$AA@ 00000001800ba988     SDL_render_gl.obj
 0002:0000a9a0       ??_C@_09PKFCMFPF@glColor4f?$AA@ 00000001800ba9a0     SDL_render_gl.obj
 0002:0000a9b0       ??_C@_0N@OGLMDNKC@glClearColor?$AA@ 00000001800ba9b0     SDL_render_gl.obj
 0002:0000a9c0       ??_C@_07IBAPPAHJ@glClear?$AA@ 00000001800ba9c0     SDL_render_gl.obj
 0002:0000a9c8       ??_C@_0BE@LLLCIIOO@glBlendFuncSeparate?$AA@ 00000001800ba9c8     SDL_render_gl.obj
 0002:0000a9e0       ??_C@_0M@PFBKOKOH@glBlendFunc?$AA@ 00000001800ba9e0     SDL_render_gl.obj
 0002:0000a9f0       ??_C@_0O@JKKCIBGC@glBindTexture?$AA@ 00000001800ba9f0     SDL_render_gl.obj
 0002:0000aa00       ??_C@_0CC@HOMNALC@Couldn?8t?5load?5GL?5function?5?$CFs?3?5?$CFs@ 00000001800baa00     SDL_render_gl.obj
 0002:0000aa28       ??_C@_07FCOIFMD@glBegin?$AA@ 00000001800baa28     SDL_render_gl.obj
 0002:0000aa30       ??_C@_0DI@KKCONEIB@?4?4?2?4?4?2?4?4?2depends?2SDL2?2src?2render@ 00000001800baa30     SDL_render_gl.obj
 0002:0000aa68       ??_C@_0BC@JJKHKFFK@GL_UpdateViewport?$AA@ 00000001800baa68     SDL_render_gl.obj
 0002:0000aa7c       __real@45f00800            00000001800baa7c     SDL_render_gl.obj
 0002:0000aa80       __real@46040000            00000001800baa80     SDL_render_gl.obj
 0002:0000aa88       ??_C@_0BD@CBCGLKNF@GL_DestroyRenderer?$AA@ 00000001800baa88     SDL_render_gl.obj
 0002:0000aaa0       ??_C@_0BK@IEHNBEGE@glDebugMessageCallbackARB?$AA@ 00000001800baaa0     SDL_render_gl.obj
 0002:0000aac0       ??_C@_0O@HDFGMLFM@GL_ResetState?$AA@ 00000001800baac0     SDL_render_gl.obj
 0002:0000aad0       ??_C@_0P@BCHNPHKN@glTexImage2D?$CI?$CJ?$AA@ 00000001800baad0     SDL_render_gl.obj
 0002:0000aae0       ??_C@_0P@FONCNNHG@glGenTexures?$CI?$CJ?$AA@ 00000001800baae0     SDL_render_gl.obj
 0002:0000aaf0       ??_C@_0BB@MHNLJJMD@GL_CreateTexture?$AA@ 00000001800baaf0     SDL_render_gl.obj
 0002:0000ab08       ??_C@_0CK@BEJNMJGD@Texture?5format?5?$CFs?5not?5supported?5@ 00000001800bab08     SDL_render_gl.obj
 0002:0000ab38       ??_C@_0BB@KCFCBHDN@GL_UpdateTexture?$AA@ 00000001800bab38     SDL_render_gl.obj
 0002:0000ab50       ??_C@_0BC@LEGPDHIC@glTexSubImage2D?$CI?$CJ?$AA@ 00000001800bab50     SDL_render_gl.obj
 0002:0000ab68       ??_C@_0BE@JMMGJEIO@GL_UpdateTextureYUV?$AA@ 00000001800bab68     SDL_render_gl.obj
 0002:0000ab80       ??_C@_0CD@NNDEHCIN@glFramebufferTexture2DEXT?$CI?$CJ?5fail@ 00000001800bab80     SDL_render_gl.obj
 0002:0000aba4       __real@bf000000            00000001800baba4     SDL_render_gl.obj
 0002:0000aba8       ??_C@_0BD@KIBGGFAN@GL_RenderDrawLines?$AA@ 00000001800baba8     SDL_render_gl.obj
 0002:0000abc0       ??_C@_0BD@GPAICLAJ@GL_RenderFillRects?$AA@ 00000001800babc0     SDL_render_gl.obj
 0002:0000abd8       ??_C@_0O@PNIKMJCJ@GL_RenderCopy?$AA@ 00000001800babd8     SDL_render_gl.obj
 0002:0000abe8       ??_C@_0BA@DHEJKEKA@GL_RenderCopyEx?$AA@ 00000001800babe8     SDL_render_gl.obj
 0002:0000abf8       ??_C@_0BE@FDKKJCOJ@GL_RenderReadPixels?$AA@ 00000001800babf8     SDL_render_gl.obj
 0002:0000ac10       ??_C@_0P@KKFCDLPL@glReadPixels?$CI?$CJ?$AA@ 00000001800bac10     SDL_render_gl.obj
 0002:0000ac20       ??_C@_0BM@GOHPHGGE@glCheckFramebufferStatusEXT?$AA@ 00000001800bac20     SDL_render_gl.obj
 0002:0000ac40       ??_C@_0BF@EMIECBAK@glBindFramebufferEXT?$AA@ 00000001800bac40     SDL_render_gl.obj
 0002:0000ac58       ??_C@_0BK@LFOBEPCF@glFramebufferTexture2DEXT?$AA@ 00000001800bac58     SDL_render_gl.obj
 0002:0000ac78       ??_C@_0BI@NPEJNLO@glDeleteFramebuffersEXT?$AA@ 00000001800bac78     SDL_render_gl.obj
 0002:0000ac90       ??_C@_0BF@FFIJGJAM@glGenFramebuffersEXT?$AA@ 00000001800bac90     SDL_render_gl.obj
 0002:0000aca8       ??_C@_0BK@GDONINOA@GL_EXT_framebuffer_object?$AA@ 00000001800baca8     SDL_render_gl.obj
 0002:0000acc8       ??_C@_0BD@GMFMGLNE@OpenGL?5shaders?3?5?$CFs?$AA@ 00000001800bacc8     SDL_render_gl.obj
 0002:0000ace0       ??_C@_08GLNGGDPJ@DISABLED?$AA@ 00000001800bace0     SDL_render_gl.obj
 0002:0000acf0       ??_C@_07DKCFBCHE@ENABLED?$AA@ 00000001800bacf0     SDL_render_gl.obj
 0002:0000acf8       ??_C@_0BK@NIFPALMB@SDL_RENDER_OPENGL_SHADERS?$AA@ 00000001800bacf8     SDL_render_gl.obj
 0002:0000ad18       ??_C@_0BD@IKCKKKNH@glActiveTextureARB?$AA@ 00000001800bad18     SDL_render_gl.obj
 0002:0000ad30       ??_C@_0BE@MEMOPMEA@GL_ARB_multitexture?$AA@ 00000001800bad30     SDL_render_gl.obj
 0002:0000ad48       ??_C@_0BJ@CDAOFBMC@GL_EXT_texture_rectangle?$AA@ 00000001800bad48     SDL_render_gl.obj
 0002:0000ad68       ??_C@_0BJ@NKHMPMDJ@GL_ARB_texture_rectangle?$AA@ 00000001800bad68     SDL_render_gl.obj
 0002:0000ad88       ??_C@_0BE@OHIPHHMJ@GL_ARB_debug_output?$AA@ 00000001800bad88     SDL_render_gl.obj
 0002:0000ada0       ??_C@_0DFF@IBJPCLPC@varying?5vec4?5v_color?$DL?6varying?5ve@ 00000001800bada0     SDL_shaders_gl.obj
 0002:0000b100       ??_C@_0JC@KPDEEJDO@varying?5vec4?5v_color?$DL?6varying?5ve@ 00000001800bb100     SDL_shaders_gl.obj
 0002:0000b1a0       ??_C@_0LO@CAAGHOIK@varying?5vec4?5v_color?$DL?6varying?5ve@ 00000001800bb1a0     SDL_shaders_gl.obj
 0002:0000b260       ??_C@_0ED@IIANLGMK@varying?5vec4?5v_color?$DL?6?6void?5main@ 00000001800bb260     SDL_shaders_gl.obj
 0002:0000b2b0       ??_C@_0HL@BPKNAHMN@varying?5vec4?5v_color?$DL?6?6void?5main@ 00000001800bb2b0     SDL_shaders_gl.obj
 0002:0000b330       ??_C@_0CC@FHAMENEF@Failed?5to?5compile?5shader?3?6?$CFs?$CFs?6?$CF@ 00000001800bb330     SDL_shaders_gl.obj
 0002:0000b354       ??_C@_05BOMAELGN@tex?$CFd?$AA@ 00000001800bb354     SDL_shaders_gl.obj
 0002:0000b360       ??_C@_0EB@ODCDMOAP@?$CDdefine?5sampler2D?5sampler2DRect?6@ 00000001800bb360     SDL_shaders_gl.obj
 0002:0000b3a8       ??_C@_0BG@JEOFPDIM@glUseProgramObjectARB?$AA@ 00000001800bb3a8     SDL_shaders_gl.obj
 0002:0000b3c0       ??_C@_0P@KFNIAEEC@glUniform1fARB?$AA@ 00000001800bb3c0     SDL_shaders_gl.obj
 0002:0000b3d0       ??_C@_0P@CHIIJDJD@glUniform1iARB?$AA@ 00000001800bb3d0     SDL_shaders_gl.obj
 0002:0000b3e0       ??_C@_0BC@MCCOFGJG@glShaderSourceARB?$AA@ 00000001800bb3e0     SDL_shaders_gl.obj
 0002:0000b3f8       ??_C@_0BB@HPIAOOAG@glLinkProgramARB?$AA@ 00000001800bb3f8     SDL_shaders_gl.obj
 0002:0000b410       ??_C@_0BI@CAFPPHDC@glGetUniformLocationARB?$AA@ 00000001800bb410     SDL_shaders_gl.obj
 0002:0000b428       ??_C@_0BK@IDAIKMOL@glGetObjectParameterivARB?$AA@ 00000001800bb428     SDL_shaders_gl.obj
 0002:0000b448       ??_C@_0BA@FLIOBLOG@glGetInfoLogARB?$AA@ 00000001800bb448     SDL_shaders_gl.obj
 0002:0000b458       ??_C@_0BC@MJFNICLA@glDeleteObjectARB?$AA@ 00000001800bb458     SDL_shaders_gl.obj
 0002:0000b470       ??_C@_0BI@FMNPOEGE@glCreateShaderObjectARB?$AA@ 00000001800bb470     SDL_shaders_gl.obj
 0002:0000b488       ??_C@_0BJ@KGMBEPBI@glCreateProgramObjectARB?$AA@ 00000001800bb488     SDL_shaders_gl.obj
 0002:0000b4a8       ??_C@_0BD@BEDGBOPM@glCompileShaderARB?$AA@ 00000001800bb4a8     SDL_shaders_gl.obj
 0002:0000b4c0       ??_C@_0BC@GINLBKLJ@glAttachObjectARB?$AA@ 00000001800bb4c0     SDL_shaders_gl.obj
 0002:0000b4d8       ??_C@_0BH@MOFIMEJB@GL_ARB_fragment_shader?$AA@ 00000001800bb4d8     SDL_shaders_gl.obj
 0002:0000b4f0       ??_C@_0BF@GNLBPIJF@GL_ARB_vertex_shader?$AA@ 00000001800bb4f0     SDL_shaders_gl.obj
 0002:0000b508       ??_C@_0BM@IABMMANC@GL_ARB_shading_language_100?$AA@ 00000001800bb508     SDL_shaders_gl.obj
 0002:0000b528       ??_C@_0BG@OLLFAEMA@GL_ARB_shader_objects?$AA@ 00000001800bb528     SDL_shaders_gl.obj
 0002:0000b540       ??_C@_0DA@KGLECHBH@SDL_BlendFillRect?$CI?$CJ?3?5Unsupported@ 00000001800bb540     SDL_blendfillrect.obj
 0002:0000b570       ??_C@_0DB@DMEFHBOK@SDL_BlendFillRects?$CI?$CJ?3?5Unsupporte@ 00000001800bb570     SDL_blendfillrect.obj
 0002:0000b5a8       ??_C@_0CM@NNANOBN@SDL_BlendLine?$CI?$CJ?3?5Unsupported?5sur@ 00000001800bb5a8     SDL_blendline.obj
 0002:0000b5d8       ??_C@_0DB@LCIEBDHP@SDL_BlendLine?$CI?$CJ?3?5Passed?5NULL?5des@ 00000001800bb5d8     SDL_blendline.obj
 0002:0000b610       ??_C@_0CN@NMDLPMAN@SDL_BlendLines?$CI?$CJ?3?5Unsupported?5su@ 00000001800bb610     SDL_blendline.obj
 0002:0000b640       ??_C@_0DC@OFMLCIFH@SDL_BlendLines?$CI?$CJ?3?5Passed?5NULL?5de@ 00000001800bb640     SDL_blendline.obj
 0002:0000b678       ??_C@_0CN@MJLFJIEA@SDL_BlendPoint?$CI?$CJ?3?5Unsupported?5su@ 00000001800bb678     SDL_blendpoint.obj
 0002:0000b6a8       ??_C@_0CO@MJCFLEAC@SDL_BlendPoints?$CI?$CJ?3?5Unsupported?5s@ 00000001800bb6a8     SDL_blendpoint.obj
 0002:0000b6d8       ??_C@_0CL@BILNGGJM@SDL_DrawLine?$CI?$CJ?3?5Unsupported?5surf@ 00000001800bb6d8     SDL_drawline.obj
 0002:0000b708       ??_C@_0DA@JBHOFCEP@SDL_DrawLine?$CI?$CJ?3?5Passed?5NULL?5dest@ 00000001800bb708     SDL_drawline.obj
 0002:0000b738       ??_C@_0CM@EGJBCCAD@SDL_DrawLines?$CI?$CJ?3?5Unsupported?5sur@ 00000001800bb738     SDL_drawline.obj
 0002:0000b768       ??_C@_0DB@MDDBOCLK@SDL_DrawLines?$CI?$CJ?3?5Passed?5NULL?5des@ 00000001800bb768     SDL_drawline.obj
 0002:0000b7a0       ??_C@_0CM@FDBPEGEO@SDL_DrawPoint?$CI?$CJ?3?5Unsupported?5sur@ 00000001800bb7a0     SDL_drawpoint.obj
 0002:0000b7d0       ??_C@_0CN@COAHDDNL@SDL_DrawPoints?$CI?$CJ?3?5Unsupported?5su@ 00000001800bb7d0     SDL_drawpoint.obj
 0002:0000b800       ??_C@_0BH@DNELNPHN@Unknown?5texture?5format?$AA@ 00000001800bb800     SDL_render_sw.obj
 0002:0000b818       ??_C@_0DB@MNHOFIPN@Software?5renderer?5doesn?8t?5have?5a@ 00000001800bb818     SDL_render_sw.obj
 0002:0000b850       ??_C@_0CI@BAFMCAO@Tried?5to?5read?5outside?5of?5surface@ 00000001800bb850     SDL_render_sw.obj
 0002:0000b878       ??_C@_0CH@OACHJIDA@Can?8t?5create?5renderer?5for?5NULL?5s@ 00000001800bb878     SDL_render_sw.obj
 0002:0000b8a0       __real@3f91df46a2529d39    00000001800bb8a0     SDL_rotate.obj
 0002:0000b8a8       __real@40f0000000000000    00000001800bb8a8     SDL_rotate.obj
 0002:0000b8b0       ??_C@_0BE@JKAFKGBP@Passed?5a?5NULL?5mutex?$AA@ 00000001800bb8b0     SDL_sysmutex.obj
 0002:0000b8c8       ??_C@_0BN@CBILABAM@WaitForSingleObject?$CI?$CJ?5failed?$AA@ 00000001800bb8c8     SDL_syssem.obj
 0002:0000b8e8       ??_C@_0BC@MPKHDLJP@Passed?5a?5NULL?5sem?$AA@ 00000001800bb8e8     SDL_syssem.obj
 0002:0000b900       ??_C@_0BK@PIIIPHLC@ReleaseSemaphore?$CI?$CJ?5failed?$AA@ 00000001800bb900     SDL_syssem.obj
 0002:0000b920       ??_C@_0CG@NEOFPKAN@Not?5enough?5resources?5to?5create?5t@ 00000001800bb920     SDL_systhread.obj
 0002:0000b948       ??_C@_0BE@HPNLNCEL@SetThreadPriority?$CI?$CJ?$AA@ 00000001800bb948     SDL_systhread.obj
 0002:0000b960       ??_C@_0BF@HILEIFFM@TlsSetValue?$CI?$CJ?5failed?$AA@ 00000001800bb960     SDL_systls.obj
 0002:0000b978       ??_C@_0CB@LHOHCCCA@Passed?5a?5NULL?5condition?5variable@ 00000001800bb978     SDL_syscond.obj
 0002:0000b9a0       ??_C@_0BF@NCNBHJCC@SDL_TIMER_RESOLUTION?$AA@ 00000001800bb9a0     SDL_systimer.obj
 0002:0000b9b8       ??_C@_0BC@CBICHLPL@_SDL_DummySurface?$AA@ 00000001800bb9b8     SDL_nullframebuffer.obj
 0002:0000b9d0       ??_C@_0BH@PIFAGDNK@SDL_window?$CFd?9?$CF8?48d?4bmp?$AA@ 00000001800bb9d0     SDL_nullframebuffer.obj
 0002:0000b9e8       ??_C@_0BM@HKOHMACG@SDL_VIDEO_DUMMY_SAVE_FRAMES?$AA@ 00000001800bb9e8     SDL_nullframebuffer.obj
 0002:0000ba08       ??_C@_0CH@PGFAPKOK@Couldn?8t?5find?5dummy?5surface?5for?5@ 00000001800bba08     SDL_nullframebuffer.obj
 0002:0000ba30       ??_C@_0BH@EBGCPODA@SDL?5dummy?5video?5driver?$AA@ 00000001800bba30     SDL_nullvideo.obj
 0002:0000ba48       ??_C@_0BI@FDMHAIB@Couldn?8t?5open?5clipboard?$AA@ 00000001800bba48     SDL_windowsclipboard.obj
 0002:0000ba60       ??_C@_0BM@MNLLJAOA@Couldn?8t?5set?5clipboard?5data?$AA@ 00000001800bba60     SDL_windowsclipboard.obj
 0002:0000ba80       ??_C@_0BM@DHJBKGAI@Couldn?8t?5get?5clipboard?5data?$AA@ 00000001800bba80     SDL_windowsclipboard.obj
 0002:0000bca0       ??_C@_1BO@GJPGBFDB@?$AAS?$AAD?$AAL?$AA_?$AAW?$AAi?$AAn?$AAd?$AAo?$AAw?$AAD?$AAa?$AAt?$AAa?$AA?$AA@ 00000001800bbca0     SDL_windowsevents.obj
 0002:0000bcc0       ??_C@_0CE@GEIOGHII@Couldn?8t?5register?5application?5cl@ 00000001800bbcc0     SDL_windowsevents.obj
 0002:0000bce8       ??_C@_07MLLNJGBE@SDL_app?$AA@ 00000001800bbce8     SDL_windowsevents.obj
 0002:0000bcf0       ??_C@_0BF@BCJDIJDJ@Unable?5to?5create?5DIB?$AA@ 00000001800bbcf0     SDL_windowsframebuffer.obj
 0002:0000bf20       ??_C@_0N@ONOBNHOE@MSSCIPYA?4IME?$AA@ 00000001800bbf20     SDL_windowskeyboard.obj
 0002:0000bf30       ??_C@_0N@JFHOELJF@PINTLGNT?4IME?$AA@ 00000001800bbf30     SDL_windowskeyboard.obj
 0002:0000bf40       ??_C@_0N@FHDFFBN@MSTCIPHA?4IME?$AA@ 00000001800bbf40     SDL_windowskeyboard.obj
 0002:0000bf50       ??_C@_0N@JMLDIBIB@CINTLGNT?4IME?$AA@ 00000001800bbf50     SDL_windowskeyboard.obj
 0002:0000bf60       ??_C@_0N@FFMHCBAD@TINTLGNT?4IME?$AA@ 00000001800bbf60     SDL_windowskeyboard.obj
 0002:0000bf70       ??_C@_0BC@MEELNKEC@ShowReadingWindow?$AA@ 00000001800bbf70     SDL_windowskeyboard.obj
 0002:0000bf88       ??_C@_0BB@EOIFCLLM@GetReadingString?$AA@ 00000001800bbf88     SDL_windowskeyboard.obj
 0002:0000bf9c       ??_C@_11LOCGONAA@?$AA?$AA@ 00000001800bbf9c     SDL_windowskeyboard.obj
 0002:0000bfa0       __real@3f400000            00000001800bbfa0     SDL_windowskeyboard.obj
 0002:0000bfa8       ??_C@_1CK@MHIILAEE@?$AAM?$AAi?$AAc?$AAr?$AAo?$AAs?$AAo?$AAf?$AAt?$AA?5?$AAS?$AAa?$AAn?$AAs?$AA?5?$AAS?$AAe?$AAr?$AAi?$AAf?$AA?$AA@ 00000001800bbfa8     SDL_windowskeyboard.obj
 0002:0000bfd8       ??_C@_0O@IDKBPDPO@Right?5Windows?$AA@ 00000001800bbfd8     SDL_windowskeyboard.obj
 0002:0000bfe8       ??_C@_0N@ILBHIOPE@Left?5Windows?$AA@ 00000001800bbfe8     SDL_windowskeyboard.obj
 0002:0000bff8       ??_C@_0O@GKKOACL@ImmUnlockIMCC?$AA@ 00000001800bbff8     SDL_windowskeyboard.obj
 0002:0000c008       ??_C@_0M@OKKMJOGM@ImmLockIMCC?$AA@ 00000001800bc008     SDL_windowskeyboard.obj
 0002:0000c018       ??_C@_0N@PDIACEGP@ImmUnlockIMC?$AA@ 00000001800bc018     SDL_windowskeyboard.obj
 0002:0000c028       ??_C@_0L@JGAMEFKO@ImmLockIMC?$AA@ 00000001800bc028     SDL_windowskeyboard.obj
 0002:0000c038       ??_C@_09EFEMJFBN@imm32?4dll?$AA@ 00000001800bc038     SDL_windowskeyboard.obj
 0002:0000c048       ??_C@_0BG@EEEBJAMO@No?5displays?5available?$AA@ 00000001800bc048     SDL_windowsmodes.obj
 0002:0000c060       ??_C@_0BF@NLGDBEAK@DISP_CHANGE_BADPARAM?$AA@ 00000001800bc060     SDL_windowsmodes.obj
 0002:0000c078       ??_C@_0BF@GEBMIKCB@DISP_CHANGE_BADFLAGS?$AA@ 00000001800bc078     SDL_windowsmodes.obj
 0002:0000c090       ??_C@_0BE@NENINPMB@DISP_CHANGE_BADMODE?$AA@ 00000001800bc090     SDL_windowsmodes.obj
 0002:0000c0a8       ??_C@_0CF@HODIIFDI@ChangeDisplaySettingsEx?$CI?$CJ?5failed@ 00000001800bc0a8     SDL_windowsmodes.obj
 0002:0000c0d0       ??_C@_0BD@NMKNJEGN@DISP_CHANGE_FAILED?$AA@ 00000001800bc0d0     SDL_windowsmodes.obj
 0002:0000c0e8       ??_C@_0P@GKAKGMM@Unknown?5reason?$AA@ 00000001800bc0e8     SDL_windowsmodes.obj
 0002:0000c0f8       ??_C@_0BF@FOPPOLMK@CreateIconIndirect?$CI?$CJ?$AA@ 00000001800bc0f8     SDL_windowsmouse.obj
 0002:0000c110       ??_C@_0CE@LLKDOCIF@Could?5not?5retrieve?5OpenGL?5functi@ 00000001800bc110     SDL_windowsopengl.obj
 0002:0000c138       ??_C@_0O@GCGJMHDL@wglShareLists?$AA@ 00000001800bc138     SDL_windowsopengl.obj
 0002:0000c148       ??_C@_0P@BBBFNDGG@wglMakeCurrent?$AA@ 00000001800bc148     SDL_windowsopengl.obj
 0002:0000c158       ??_C@_0BB@OGAIJNNO@wglDeleteContext?$AA@ 00000001800bc158     SDL_windowsopengl.obj
 0002:0000c170       ??_C@_0BB@GHMBNOIP@wglCreateContext?$AA@ 00000001800bc170     SDL_windowsopengl.obj
 0002:0000c188       ??_C@_0BC@FFKMKEGM@wglGetProcAddress?$AA@ 00000001800bc188     SDL_windowsopengl.obj
 0002:0000c1a0       ??_C@_0N@CKFCKPPG@OPENGL32?4DLL?$AA@ 00000001800bc1a0     SDL_windowsopengl.obj
 0002:0000c1b0       ??_C@_0BD@HJLOMBBH@SDL_OPENGL_LIBRARY?$AA@ 00000001800bc1b0     SDL_windowsopengl.obj
 0002:0000c1c8       ??_C@_0BK@EAEHPPPH@WGL_EXT_swap_control_tear?$AA@ 00000001800bc1c8     SDL_windowsopengl.obj
 0002:0000c1e8       ??_C@_0BG@EDKPJPEA@wglGetSwapIntervalEXT?$AA@ 00000001800bc1e8     SDL_windowsopengl.obj
 0002:0000c200       ??_C@_0BD@IINOPBDD@wglSwapIntervalEXT?$AA@ 00000001800bc200     SDL_windowsopengl.obj
 0002:0000c218       ??_C@_0BF@NPDKPIKE@WGL_EXT_swap_control?$AA@ 00000001800bc218     SDL_windowsopengl.obj
 0002:0000c230       ??_C@_0BN@GDKHKIAN@wglGetPixelFormatAttribivARB?$AA@ 00000001800bc230     SDL_windowsopengl.obj
 0002:0000c250       ??_C@_0BI@JPMGGILH@wglChoosePixelFormatARB?$AA@ 00000001800bc250     SDL_windowsopengl.obj
 0002:0000c268       ??_C@_0BF@OGGDOHFN@WGL_ARB_pixel_format?$AA@ 00000001800bc268     SDL_windowsopengl.obj
 0002:0000c280       ??_C@_0BK@JOBLJGNA@wglGetExtensionsStringARB?$AA@ 00000001800bc280     SDL_windowsopengl.obj
 0002:0000c2a0       ??_C@_0BB@NPBPIACN@SetPixelFormat?$CI?$CJ?$AA@ 00000001800bc2a0     SDL_windowsopengl.obj
 0002:0000c2b8       ??_C@_0CG@MJCPNACG@No?5matching?5GL?5pixel?5format?5avai@ 00000001800bc2b8     SDL_windowsopengl.obj
 0002:0000c2e0       ??_C@_0BB@FOGFNGOJ@wglMakeCurrent?$CI?$CJ?$AA@ 00000001800bc2e0     SDL_windowsopengl.obj
 0002:0000c2f8       ??_C@_0BH@HIPGPHLC@OpenGL?5not?5initialized?$AA@ 00000001800bc2f8     SDL_windowsopengl.obj
 0002:0000c310       ??_C@_0BF@EMMJKHNH@wglSwapIntervalEXT?$CI?$CJ?$AA@ 00000001800bc310     SDL_windowsopengl.obj
 0002:0000c328       ??_C@_0CO@BBIPCEKJ@Negative?5swap?5interval?5unsupport@ 00000001800bc328     SDL_windowsopengl.obj
 0002:0000c358       ??_C@_0BI@NLGKFGGC@GL?53?4x?5is?5not?5supported?$AA@ 00000001800bc358     SDL_windowsopengl.obj
 0002:0000c370       ??_C@_0BL@PDDHMPGF@wglCreateContextAttribsARB?$AA@ 00000001800bc370     SDL_windowsopengl.obj
 0002:0000c390       ??_C@_0BM@FIACDMLK@Could?5not?5create?5GL?5context?$AA@ 00000001800bc390     SDL_windowsopengl.obj
 0002:0000c3b0       ??_C@_0BJ@OPANIJGA@SDL?5Windows?5video?5driver?$AA@ 00000001800bc3b0     SDL_windowsvideo.obj
 0002:0000c3d0       ??_C@_07EKMDLNDL@windows?$AA@ 00000001800bc3d0     SDL_windowsvideo.obj
 0002:0000c3d8       ??_C@_0BA@FAFMMBOF@Direct3DCreate9?$AA@ 00000001800bc3d8     SDL_windowsvideo.obj
 0002:0000c3e8       ??_C@_08ENDAMAGJ@D3D9?4DLL?$AA@ 00000001800bc3e8     SDL_windowsvideo.obj
 0002:0000c3f8       ??_C@_0BG@KBIJBEIN@Invalid?5display?5index?$AA@ 00000001800bc3f8     SDL_windowsvideo.obj
 0002:0000c410       ??_C@_0BE@PENJIHMC@RegisterTouchWindow?$AA@ 00000001800bc410     SDL_windowsvideo.obj
 0002:0000c428       ??_C@_0BC@NHGPJPFD@GetTouchInputInfo?$AA@ 00000001800bc428     SDL_windowsvideo.obj
 0002:0000c440       ??_C@_0BG@NAJBBCHN@CloseTouchInputHandle?$AA@ 00000001800bc440     SDL_windowsvideo.obj
 0002:0000c458       ??_C@_0L@NDEGIDAG@USER32?4DLL?$AA@ 00000001800bc458     SDL_windowsvideo.obj
 0002:0000c468       ??_C@_1DM@NIAKBFKG@?$AAS?$AAD?$AAL?$AAH?$AAe?$AAl?$AAp?$AAe?$AAr?$AAW?$AAi?$AAn?$AAd?$AAo?$AAw?$AAI?$AAn?$AAp?$AAu?$AAt?$AAM?$AAs?$AAg?$AAW?$AAi?$AAn?$AAd?$AAo?$AAw?$AA?$AA@ 00000001800bc468     SDL_windowswindow.obj
 0002:0000c4a8       ??_C@_1DI@HFFBEPOK@?$AAS?$AAD?$AAL?$AAH?$AAe?$AAl?$AAp?$AAe?$AAr?$AAW?$AAi?$AAn?$AAd?$AAo?$AAw?$AAI?$AAn?$AAp?$AAu?$AAt?$AAC?$AAa?$AAt?$AAc?$AAh?$AAe?$AAr?$AA?$AA@ 00000001800bc4a8     SDL_windowswindow.obj
 0002:0000c4e0       ??_C@_0BB@LDNNKPIM@SetProp?$CI?$CJ?5failed?$AA@ 00000001800bc4e0     SDL_windowswindow.obj
 0002:0000c4f8       ??_C@_0BF@MNMPNNFF@SetDeviceGammaRamp?$CI?$CJ?$AA@ 00000001800bc4f8     SDL_windowswindow.obj
 0002:0000c510       ??_C@_0BF@JENCMLAC@GetDeviceGammaRamp?$CI?$CJ?$AA@ 00000001800bc510     SDL_windowswindow.obj
 0002:0000c528       ??_C@_0CJ@OMPJCJPJ@Application?5not?5compiled?5with?5SD@ 00000001800bc528     SDL_windowswindow.obj
 0002:0000c558       ??_C@_0BP@GLJKBNOL@Unable?5to?5create?5Helper?5Window?$AA@ 00000001800bc558     SDL_windowswindow.obj
 0002:0000c578       ??_C@_0CF@LJAACKDL@Unable?5to?5create?5Helper?5Window?5C@ 00000001800bc578     SDL_windowswindow.obj
 0002:0000c5a0       ??_C@_0CG@PMABDENB@Unable?5to?5destroy?5Helper?5Window?5@ 00000001800bc5a0     SDL_windowswindow.obj
 0002:0000c5c8       ??_C@_0CA@IDNJGKMC@Unable?5to?5destroy?5Helper?5Window?$AA@ 00000001800bc5c8     SDL_windowswindow.obj
 0002:0000c5e8       ??_C@_0BH@GEFOGILD@Couldn?8t?5create?5window?$AA@ 00000001800bc5e8     SDL_windowswindow.obj
 0002:0000c600       IID_ITfThreadMgr           00000001800bc600     uuid:msctf_i.obj
 0002:0000c610       IID_ITfThreadMgrEx         00000001800bc610     uuid:msctf_i.obj
 0002:0000c620       IID_ITfThreadMgrEventSink  00000001800bc620     uuid:msctf_i.obj
 0002:0000c630       IID_ITfConfigureSystemKeystrokeFeed 00000001800bc630     uuid:msctf_i.obj
 0002:0000c640       IID_IEnumTfDocumentMgrs    00000001800bc640     uuid:msctf_i.obj
 0002:0000c650       IID_ITfDocumentMgr         00000001800bc650     uuid:msctf_i.obj
 0002:0000c660       IID_IEnumTfContexts        00000001800bc660     uuid:msctf_i.obj
 0002:0000c670       IID_ITfCompositionView     00000001800bc670     uuid:msctf_i.obj
 0002:0000c680       IID_IEnumITfCompositionView 00000001800bc680     uuid:msctf_i.obj
 0002:0000c690       IID_ITfComposition         00000001800bc690     uuid:msctf_i.obj
 0002:0000c6a0       IID_ITfCompositionSink     00000001800bc6a0     uuid:msctf_i.obj
 0002:0000c6b0       IID_ITfContextComposition  00000001800bc6b0     uuid:msctf_i.obj
 0002:0000c6c0       IID_ITfContextOwnerCompositionServices 00000001800bc6c0     uuid:msctf_i.obj
 0002:0000c6d0       IID_ITfContextOwnerCompositionSink 00000001800bc6d0     uuid:msctf_i.obj
 0002:0000c6e0       IID_ITfContextView         00000001800bc6e0     uuid:msctf_i.obj
 0002:0000c6f0       IID_IEnumTfContextViews    00000001800bc6f0     uuid:msctf_i.obj
 0002:0000c700       IID_ITfContext             00000001800bc700     uuid:msctf_i.obj
 0002:0000c710       IID_ITfQueryEmbedded       00000001800bc710     uuid:msctf_i.obj
 0002:0000c720       IID_ITfInsertAtSelection   00000001800bc720     uuid:msctf_i.obj
 0002:0000c730       IID_ITfCleanupContextSink  00000001800bc730     uuid:msctf_i.obj
 0002:0000c740       IID_ITfCleanupContextDurationSink 00000001800bc740     uuid:msctf_i.obj
 0002:0000c750       IID_ITfReadOnlyProperty    00000001800bc750     uuid:msctf_i.obj
 0002:0000c760       IID_IEnumTfPropertyValue   00000001800bc760     uuid:msctf_i.obj
 0002:0000c770       IID_ITfMouseTracker        00000001800bc770     uuid:msctf_i.obj
 0002:0000c780       IID_ITfMouseTrackerACP     00000001800bc780     uuid:msctf_i.obj
 0002:0000c790       IID_ITfMouseSink           00000001800bc790     uuid:msctf_i.obj
 0002:0000c7a0       IID_ITfEditRecord          00000001800bc7a0     uuid:msctf_i.obj
 0002:0000c7b0       IID_ITfTextEditSink        00000001800bc7b0     uuid:msctf_i.obj
 0002:0000c7c0       IID_ITfTextLayoutSink      00000001800bc7c0     uuid:msctf_i.obj
 0002:0000c7d0       IID_ITfStatusSink          00000001800bc7d0     uuid:msctf_i.obj
 0002:0000c7e0       IID_ITfEditTransactionSink 00000001800bc7e0     uuid:msctf_i.obj
 0002:0000c7f0       IID_ITfContextOwner        00000001800bc7f0     uuid:msctf_i.obj
 0002:0000c800       IID_ITfContextOwnerServices 00000001800bc800     uuid:msctf_i.obj
 0002:0000c810       IID_ITfContextKeyEventSink 00000001800bc810     uuid:msctf_i.obj
 0002:0000c820       IID_ITfEditSession         00000001800bc820     uuid:msctf_i.obj
 0002:0000c830       IID_ITfRange               00000001800bc830     uuid:msctf_i.obj
 0002:0000c840       IID_ITfRangeACP            00000001800bc840     uuid:msctf_i.obj
 0002:0000c850       IID_ITextStoreACPServices  00000001800bc850     uuid:msctf_i.obj
 0002:0000c860       IID_ITfRangeBackup         00000001800bc860     uuid:msctf_i.obj
 0002:0000c870       IID_ITfPropertyStore       00000001800bc870     uuid:msctf_i.obj
 0002:0000c880       IID_IEnumTfRanges          00000001800bc880     uuid:msctf_i.obj
 0002:0000c890       IID_ITfCreatePropertyStore 00000001800bc890     uuid:msctf_i.obj
 0002:0000c8a0       IID_ITfPersistentPropertyLoaderACP 00000001800bc8a0     uuid:msctf_i.obj
 0002:0000c8b0       IID_ITfProperty            00000001800bc8b0     uuid:msctf_i.obj
 0002:0000c8c0       IID_IEnumTfProperties      00000001800bc8c0     uuid:msctf_i.obj
 0002:0000c8d0       IID_ITfCompartment         00000001800bc8d0     uuid:msctf_i.obj
 0002:0000c8e0       IID_ITfCompartmentEventSink 00000001800bc8e0     uuid:msctf_i.obj
 0002:0000c8f0       IID_ITfCompartmentMgr      00000001800bc8f0     uuid:msctf_i.obj
 0002:0000c900       IID_ITfFunction            00000001800bc900     uuid:msctf_i.obj
 0002:0000c910       IID_ITfFunctionProvider    00000001800bc910     uuid:msctf_i.obj
 0002:0000c920       IID_IEnumTfFunctionProviders 00000001800bc920     uuid:msctf_i.obj
 0002:0000c930       IID_ITfInputProcessorProfiles 00000001800bc930     uuid:msctf_i.obj
 0002:0000c940       IID_ITfInputProcessorProfilesEx 00000001800bc940     uuid:msctf_i.obj
 0002:0000c950       IID_ITfInputProcessorProfileSubstituteLayout 00000001800bc950     uuid:msctf_i.obj
 0002:0000c960       IID_ITfActiveLanguageProfileNotifySink 00000001800bc960     uuid:msctf_i.obj
 0002:0000c970       IID_IEnumTfLanguageProfiles 00000001800bc970     uuid:msctf_i.obj
 0002:0000c980       IID_ITfLanguageProfileNotifySink 00000001800bc980     uuid:msctf_i.obj
 0002:0000c990       IID_ITfInputProcessorProfileMgr 00000001800bc990     uuid:msctf_i.obj
 0002:0000c9a0       IID_IEnumTfInputProcessorProfiles 00000001800bc9a0     uuid:msctf_i.obj
 0002:0000c9b0       IID_ITfInputProcessorProfileActivationSink 00000001800bc9b0     uuid:msctf_i.obj
 0002:0000c9c0       IID_ITfKeystrokeMgr        00000001800bc9c0     uuid:msctf_i.obj
 0002:0000c9d0       IID_ITfKeyEventSink        00000001800bc9d0     uuid:msctf_i.obj
 0002:0000c9e0       IID_ITfKeyTraceEventSink   00000001800bc9e0     uuid:msctf_i.obj
 0002:0000c9f0       IID_ITfPreservedKeyNotifySink 00000001800bc9f0     uuid:msctf_i.obj
 0002:0000ca00       IID_ITfMessagePump         00000001800bca00     uuid:msctf_i.obj
 0002:0000ca10       IID_ITfThreadFocusSink     00000001800bca10     uuid:msctf_i.obj
 0002:0000ca20       IID_ITfTextInputProcessor  00000001800bca20     uuid:msctf_i.obj
 0002:0000ca30       IID_ITfTextInputProcessorEx 00000001800bca30     uuid:msctf_i.obj
 0002:0000ca40       IID_ITfClientId            00000001800bca40     uuid:msctf_i.obj
 0002:0000ca50       IID_ITfDisplayAttributeInfo 00000001800bca50     uuid:msctf_i.obj
 0002:0000ca60       IID_IEnumTfDisplayAttributeInfo 00000001800bca60     uuid:msctf_i.obj
 0002:0000ca70       IID_ITfDisplayAttributeProvider 00000001800bca70     uuid:msctf_i.obj
 0002:0000ca80       IID_ITfDisplayAttributeMgr 00000001800bca80     uuid:msctf_i.obj
 0002:0000ca90       IID_ITfDisplayAttributeNotifySink 00000001800bca90     uuid:msctf_i.obj
 0002:0000caa0       IID_ITfCategoryMgr         00000001800bcaa0     uuid:msctf_i.obj
 0002:0000cab0       IID_ITfSource              00000001800bcab0     uuid:msctf_i.obj
 0002:0000cac0       IID_ITfSourceSingle        00000001800bcac0     uuid:msctf_i.obj
 0002:0000cad0       IID_ITfUIElementMgr        00000001800bcad0     uuid:msctf_i.obj
 0002:0000cae0       IID_IEnumTfUIElements      00000001800bcae0     uuid:msctf_i.obj
 0002:0000caf0       IID_ITfUIElementSink       00000001800bcaf0     uuid:msctf_i.obj
 0002:0000cb00       IID_ITfUIElement           00000001800bcb00     uuid:msctf_i.obj
 0002:0000cb10       IID_ITfCandidateListUIElement 00000001800bcb10     uuid:msctf_i.obj
 0002:0000cb20       IID_ITfCandidateListUIElementBehavior 00000001800bcb20     uuid:msctf_i.obj
 0002:0000cb30       IID_ITfReadingInformationUIElement 00000001800bcb30     uuid:msctf_i.obj
 0002:0000cb40       IID_ITfTransitoryExtensionUIElement 00000001800bcb40     uuid:msctf_i.obj
 0002:0000cb50       IID_ITfTransitoryExtensionSink 00000001800bcb50     uuid:msctf_i.obj
 0002:0000cb60       IID_ITfToolTipUIElement    00000001800bcb60     uuid:msctf_i.obj
 0002:0000cb70       IID_IUnknown               00000001800bcb70     uuid:unknwn_i.obj
 0002:0000cb80       CLSID_TF_ThreadMgr         00000001800bcb80     uuid:msctf_g.obj
 0002:0000cb90       CLSID_TF_LangBarMgr        00000001800bcb90     uuid:msctf_g.obj
 0002:0000cba0       CLSID_TF_DisplayAttributeMgr 00000001800bcba0     uuid:msctf_g.obj
 0002:0000cbb0       CLSID_TF_CategoryMgr       00000001800bcbb0     uuid:msctf_g.obj
 0002:0000cbc0       CLSID_TF_InputProcessorProfiles 00000001800bcbc0     uuid:msctf_g.obj
 0002:0000cbd0       CLSID_TF_LangBarItemMgr    00000001800bcbd0     uuid:msctf_g.obj
 0002:0000cbe0       CLSID_TF_ClassicLangBar    00000001800bcbe0     uuid:msctf_g.obj
 0002:0000cbf0       CLSID_TF_TransitoryExtensionUIEntry 00000001800bcbf0     uuid:msctf_g.obj
 0002:0000cc00       GUID_PROP_TEXTOWNER        00000001800bcc00     uuid:msctf_g.obj
 0002:0000cc10       GUID_PROP_ATTRIBUTE        00000001800bcc10     uuid:msctf_g.obj
 0002:0000cc20       GUID_PROP_LANGID           00000001800bcc20     uuid:msctf_g.obj
 0002:0000cc30       GUID_PROP_READING          00000001800bcc30     uuid:msctf_g.obj
 0002:0000cc40       GUID_PROP_COMPOSING        00000001800bcc40     uuid:msctf_g.obj
 0002:0000cc50       GUID_SYSTEM_FUNCTIONPROVIDER 00000001800bcc50     uuid:msctf_g.obj
 0002:0000cc60       GUID_APP_FUNCTIONPROVIDER  00000001800bcc60     uuid:msctf_g.obj
 0002:0000cc70       GUID_TFCAT_CATEGORY_OF_TIP 00000001800bcc70     uuid:msctf_g.obj
 0002:0000cc80       GUID_TFCAT_TIP_KEYBOARD    00000001800bcc80     uuid:msctf_g.obj
 0002:0000cc90       GUID_TFCAT_TIP_SPEECH      00000001800bcc90     uuid:msctf_g.obj
 0002:0000cca0       GUID_TFCAT_TIP_HANDWRITING 00000001800bcca0     uuid:msctf_g.obj
 0002:0000ccb0       GUID_TFCAT_PROP_AUDIODATA  00000001800bccb0     uuid:msctf_g.obj
 0002:0000ccc0       GUID_TFCAT_PROP_INKDATA    00000001800bccc0     uuid:msctf_g.obj
 0002:0000ccd0       GUID_COMPARTMENT_SAPI_AUDIO 00000001800bccd0     uuid:msctf_g.obj
 0002:0000cce0       GUID_COMPARTMENT_KEYBOARD_DISABLED 00000001800bcce0     uuid:msctf_g.obj
 0002:0000ccf0       GUID_COMPARTMENT_KEYBOARD_OPENCLOSE 00000001800bccf0     uuid:msctf_g.obj
 0002:0000cd00       GUID_COMPARTMENT_HANDWRITING_OPENCLOSE 00000001800bcd00     uuid:msctf_g.obj
 0002:0000cd10       GUID_COMPARTMENT_SPEECH_DISABLED 00000001800bcd10     uuid:msctf_g.obj
 0002:0000cd20       GUID_COMPARTMENT_SPEECH_OPENCLOSE 00000001800bcd20     uuid:msctf_g.obj
 0002:0000cd30       GUID_COMPARTMENT_SPEECH_GLOBALSTATE 00000001800bcd30     uuid:msctf_g.obj
 0002:0000cd40       GUID_COMPARTMENT_CONVERSIONMODEBIAS 00000001800bcd40     uuid:msctf_g.obj
 0002:0000cd50       GUID_PROP_MODEBIAS         00000001800bcd50     uuid:msctf_g.obj
 0002:0000cd60       GUID_COMPARTMENT_KEYBOARD_INPUTMODE 00000001800bcd60     uuid:msctf_g.obj
 0002:0000cd70       GUID_MODEBIAS_NONE         00000001800bcd70     uuid:msctf_g.obj
 0002:0000cd80       GUID_MODEBIAS_URLHISTORY   00000001800bcd80     uuid:msctf_g.obj
 0002:0000cd90       GUID_MODEBIAS_FILENAME     00000001800bcd90     uuid:msctf_g.obj
 0002:0000cda0       GUID_MODEBIAS_READING      00000001800bcda0     uuid:msctf_g.obj
 0002:0000cdb0       GUID_MODEBIAS_DATETIME     00000001800bcdb0     uuid:msctf_g.obj
 0002:0000cdc0       GUID_MODEBIAS_NAME         00000001800bcdc0     uuid:msctf_g.obj
 0002:0000cdd0       GUID_MODEBIAS_CONVERSATION 00000001800bcdd0     uuid:msctf_g.obj
 0002:0000cde0       GUID_MODEBIAS_NUMERIC      00000001800bcde0     uuid:msctf_g.obj
 0002:0000cdf0       GUID_MODEBIAS_HIRAGANA     00000001800bcdf0     uuid:msctf_g.obj
 0002:0000ce00       GUID_MODEBIAS_KATAKANA     00000001800bce00     uuid:msctf_g.obj
 0002:0000ce10       GUID_MODEBIAS_HANGUL       00000001800bce10     uuid:msctf_g.obj
 0002:0000ce20       GUID_MODEBIAS_CHINESE      00000001800bce20     uuid:msctf_g.obj
 0002:0000ce30       GUID_MODEBIAS_HALFWIDTHKATAKANA 00000001800bce30     uuid:msctf_g.obj
 0002:0000ce40       GUID_MODEBIAS_FULLWIDTHALPHANUMERIC 00000001800bce40     uuid:msctf_g.obj
 0002:0000ce50       GUID_MODEBIAS_HALFWIDTHALPHANUMERIC 00000001800bce50     uuid:msctf_g.obj
 0002:0000ce60       GUID_MODEBIAS_FULLWIDTHHANGUL 00000001800bce60     uuid:msctf_g.obj
 0002:0000ce70       GUID_TFCAT_PROPSTYLE_CUSTOM 00000001800bce70     uuid:msctf_g.obj
 0002:0000ce80       GUID_TFCAT_PROPSTYLE_STATIC 00000001800bce80     uuid:msctf_g.obj
 0002:0000ce90       GUID_TFCAT_PROPSTYLE_STATICCOMPACT 00000001800bce90     uuid:msctf_g.obj
 0002:0000cea0       GUID_TFCAT_DISPLAYATTRIBUTEPROVIDER 00000001800bcea0     uuid:msctf_g.obj
 0002:0000ceb0       GUID_TFCAT_DISPLAYATTRIBUTEPROPERTY 00000001800bceb0     uuid:msctf_g.obj
 0002:0000cec0       GUID_COMPARTMENT_SPEECH_DICTATIONSTAT 00000001800bcec0     uuid:msctf_g.obj
 0002:0000ced0       GUID_COMPARTMENT_PERSISTMENUENABLED 00000001800bced0     uuid:msctf_g.obj
 0002:0000cee0       GUID_COMPARTMENT_SPEECH_UI_STATUS 00000001800bcee0     uuid:msctf_g.obj
 0002:0000cef0       GUID_COMPARTMENT_EMPTYCONTEXT 00000001800bcef0     uuid:msctf_g.obj
 0002:0000cf00       GUID_COMPARTMENT_TIPUISTATUS 00000001800bcf00     uuid:msctf_g.obj
 0002:0000cf10       GUID_COMPARTMENT_SPEECH_CFGMENU 00000001800bcf10     uuid:msctf_g.obj
 0002:0000cf20       GUID_LBI_SAPILAYR_CFGMENUBUTTON 00000001800bcf20     uuid:msctf_g.obj
 0002:0000cf30       GUID_TFCAT_TIPCAP_SECUREMODE 00000001800bcf30     uuid:msctf_g.obj
 0002:0000cf40       GUID_TFCAT_TIPCAP_UIELEMENTENABLED 00000001800bcf40     uuid:msctf_g.obj
 0002:0000cf50       GUID_TFCAT_TIPCAP_INPUTMODECOMPARTMENT 00000001800bcf50     uuid:msctf_g.obj
 0002:0000cf60       GUID_TFCAT_TIPCAP_COMLESS  00000001800bcf60     uuid:msctf_g.obj
 0002:0000cf70       GUID_TFCAT_TIPCAP_WOW16    00000001800bcf70     uuid:msctf_g.obj
 0002:0000cf80       GUID_COMPARTMENT_KEYBOARD_INPUTMODE_CONVERSION 00000001800bcf80     uuid:msctf_g.obj
 0002:0000cf90       GUID_COMPARTMENT_KEYBOARD_INPUTMODE_SENTENCE 00000001800bcf90     uuid:msctf_g.obj
 0002:0000cfa0       GUID_COMPARTMENT_TRANSITORYEXTENSION 00000001800bcfa0     uuid:msctf_g.obj
 0002:0000cfb0       GUID_COMPARTMENT_TRANSITORYEXTENSION_DOCUMENTMANAGER 00000001800bcfb0     uuid:msctf_g.obj
 0002:0000cfc0       GUID_COMPARTMENT_TRANSITORYEXTENSION_PARENT 00000001800bcfc0     uuid:msctf_g.obj
 0002:0000cfd0       GUID_TFCAT_TRANSITORYEXTENSIONUI 00000001800bcfd0     uuid:msctf_g.obj
 0002:0001af3c       __IMPORT_DESCRIPTOR_USER32 00000001800caf3c     user32:USER32.dll
 0002:0001af50       __IMPORT_DESCRIPTOR_GDI32  00000001800caf50     gdi32:GDI32.dll
 0002:0001af64       __IMPORT_DESCRIPTOR_SHELL32 00000001800caf64     shell32:SHELL32.dll
 0002:0001af78       __IMPORT_DESCRIPTOR_WINMM  00000001800caf78     winmm:WINMM.dll
 0002:0001af8c       __IMPORT_DESCRIPTOR_IMM32  00000001800caf8c     Imm32:IMM32.dll
 0002:0001afa0       __IMPORT_DESCRIPTOR_VERSION 00000001800cafa0     Version:VERSION.dll
 0002:0001afb4       __IMPORT_DESCRIPTOR_KERNEL32 00000001800cafb4     kernel32:KERNEL32.dll
 0002:0001afc8       __IMPORT_DESCRIPTOR_ole32  00000001800cafc8     ole32:ole32.dll
 0002:0001afdc       __IMPORT_DESCRIPTOR_OLEAUT32 00000001800cafdc     oleaut32:OLEAUT32.dll
 0002:0001aff0       __IMPORT_DESCRIPTOR_MSVCR90 00000001800caff0     MSVCRT:MSVCR90.dll
 0002:0001b004       __NULL_IMPORT_DESCRIPTOR   00000001800cb004     user32:USER32.dll
 0003:00001840       SDL_GeneratedBlitFuncTable 00000001800d1840     SDL_blit_auto.obj
 0003:00002630       SDL_expand_byte            00000001800d2630     SDL_pixels.obj
 0003:000026f0       DSOUND_bootstrap           00000001800d26f0     SDL_directsound.obj
 0003:00002710       DISKAUD_bootstrap          00000001800d2710     SDL_diskaudio.obj
 0003:00002730       DUMMYAUD_bootstrap         00000001800d2730     SDL_dummyaudio.obj
 0003:00002750       WINMM_bootstrap            00000001800d2750     SDL_winmm.obj
 0003:000027b0       XAUDIO2_bootstrap          00000001800d27b0     SDL_xaudio2.obj
 0003:000027f0       dfDIJoystick2              00000001800d27f0     SDL_dxjoystick.obj
 0003:00003750       D3D_RenderDriver           00000001800d3750     SDL_render_d3d.obj
 0003:000037b0       GL_RenderDriver            00000001800d37b0     SDL_render_gl.obj
 0003:00003850       SW_RenderDriver            00000001800d3850     SDL_render_sw.obj
 0003:000038b8       DUMMY_bootstrap            00000001800d38b8     SDL_nullvideo.obj
 0003:00003928       WINDOWS_bootstrap          00000001800d3928     SDL_windowsvideo.obj
 0003:000043a0       SDL_EventOK                00000001800d43a0     SDL_events.obj
 0003:000043b0       SDL_numGestureTouches      00000001800d43b0     SDL_gesture.obj
 0003:00004e88       SDL_numhaptics             00000001800d4e88     SDL_haptic.obj
 0003:00004e90       SDL_haptics                00000001800d4e90     SDL_haptic.obj
 0003:0000f1d8       SDL_XInputGetState         00000001800df1d8     SDL_dxjoystick.obj
 0003:0000f1e0       SDL_XInputSetState         00000001800df1e0     SDL_dxjoystick.obj
 0003:0000f1e8       SDL_XInputGetCapabilities  00000001800df1e8     SDL_dxjoystick.obj
 0003:0000f1f0       SDL_XInputVersion          00000001800df1f0     SDL_dxjoystick.obj
 0003:0000f25c       SDL_Appstyle               00000001800df25c     SDL_windowsevents.obj
 0003:0000f260       SDL_Appname                00000001800df260     SDL_windowsevents.obj
 0003:0000f268       SDL_Instance               00000001800df268     SDL_windowsevents.obj
 0003:0000f328       SDL_cursor                 00000001800df328     SDL_windowsmouse.obj
 0003:0000f330       SDL_HelperWindow           00000001800df330     SDL_windowswindow.obj
 0003:0000f340       SDL_gestureTouch           00000001800df340     <common>
 0003:0000f348       recordAll                  00000001800df348     <common>
 0003:0000f350       SDL_EventOKParam           00000001800df350     <common>

 entry point at        0001:0007ff30

 Static symbols

 0001:00000000       enterLock                  0000000180001000 f   SDL_atomic.obj
 0001:00000020       leaveLock                  0000000180001020 f   SDL_atomic.obj
 0001:000001b0       get_audio_device           00000001800011b0 f   SDL_audio.obj
 0001:000001f0       SDL_AudioDetectDevices_Default 00000001800011f0 f   SDL_audio.obj
 0001:00000200       SDL_AudioThreadInit_Default 0000000180001200 f   SDL_audio.obj
 0001:00000210       SDL_AudioWaitDevice_Default 0000000180001210 f   SDL_audio.obj
 0001:00000220       SDL_AudioPlayDevice_Default 0000000180001220 f   SDL_audio.obj
 0001:00000230       SDL_AudioGetDeviceBuf_Default 0000000180001230 f   SDL_audio.obj
 0001:00000240       SDL_AudioWaitDone_Default  0000000180001240 f   SDL_audio.obj
 0001:00000250       SDL_AudioCloseDevice_Default 0000000180001250 f   SDL_audio.obj
 0001:00000260       SDL_AudioDeinitialize_Default 0000000180001260 f   SDL_audio.obj
 0001:00000270       SDL_AudioOpenDevice_Default 0000000180001270 f   SDL_audio.obj
 0001:00000280       SDL_AudioLockDevice_Default 0000000180001280 f   SDL_audio.obj
 0001:000002c0       SDL_AudioUnlockDevice_Default 00000001800012c0 f   SDL_audio.obj
 0001:00000300       finalize_audio_entry_points 0000000180001300 f   SDL_audio.obj
 0001:00000440       SDL_StreamWrite            0000000180001440 f   SDL_audio.obj
 0001:00000480       SDL_StreamRead             0000000180001480 f   SDL_audio.obj
 0001:000004c0       SDL_StreamLength           00000001800014c0 f   SDL_audio.obj
 0001:000004e0       SDL_StreamDeinit           00000001800014e0 f   SDL_audio.obj
 0001:000006b0       SDL_ParseAudioFormat       00000001800016b0 f   SDL_audio.obj
 0001:000008f0       free_device_list           00000001800018f0 f   SDL_audio.obj
 0001:00000960       SDL_AddCaptureAudioDevice  0000000180001960 f   SDL_audio.obj
 0001:000009c0       SDL_AddOutputAudioDevice   00000001800019c0 f   SDL_audio.obj
 0001:00000be0       close_audio_device         0000000180001be0 f   SDL_audio.obj
 0001:00001100       prepare_audiospec          0000000180002100 f   SDL_audio.obj
 0001:00001260       open_audio_device          0000000180002260 f   SDL_audio.obj
 0001:000017b0       SDL_ConvertMono            00000001800027b0 f   SDL_audiocvt.obj
 0001:00001d10       SDL_ConvertStrip           0000000180002d10 f   SDL_audiocvt.obj
 0001:00001e50       SDL_ConvertStrip_2         0000000180002e50 f   SDL_audiocvt.obj
 0001:00001fe0       SDL_ConvertStereo          0000000180002fe0 f   SDL_audiocvt.obj
 0001:00002100       SDL_ConvertSurround        0000000180003100 f   SDL_audiocvt.obj
 0001:00002a10       SDL_ConvertSurround_4      0000000180003a10 f   SDL_audiocvt.obj
 0001:00003030       SDL_HandTunedTypeCVT       0000000180004030 f   SDL_audiocvt.obj
 0001:00003040       SDL_BuildAudioTypeCVT      0000000180004040 f   SDL_audiocvt.obj
 0001:00003170       SDL_HandTunedResampleCVT   0000000180004170 f   SDL_audiocvt.obj
 0001:00003180       SDL_FindFrequencyMultiple  0000000180004180 f   SDL_audiocvt.obj
 0001:000031b0       SDL_BuildAudioResampleCVT  00000001800041b0 f   SDL_audiocvt.obj
 0001:000036e0       SDL_Convert_U8_to_S8       00000001800046e0 f   SDL_audiotypecvt.obj
 0001:00003740       SDL_Convert_U8_to_U16LSB   0000000180004740 f   SDL_audiotypecvt.obj
 0001:000037c0       SDL_Convert_U8_to_S16LSB   00000001800047c0 f   SDL_audiotypecvt.obj
 0001:00003840       SDL_Convert_U8_to_U16MSB   0000000180004840 f   SDL_audiotypecvt.obj
 0001:000038c0       SDL_Convert_U8_to_S16MSB   00000001800048c0 f   SDL_audiotypecvt.obj
 0001:00003950       SDL_Convert_U8_to_S32LSB   0000000180004950 f   SDL_audiotypecvt.obj
 0001:000039d0       SDL_Convert_U8_to_S32MSB   00000001800049d0 f   SDL_audiotypecvt.obj
 0001:00003a80       SDL_Convert_U8_to_F32LSB   0000000180004a80 f   SDL_audiotypecvt.obj
 0001:00003b20       SDL_Convert_U8_to_F32MSB   0000000180004b20 f   SDL_audiotypecvt.obj
 0001:00003bf0       SDL_Convert_S8_to_U8       0000000180004bf0 f   SDL_audiotypecvt.obj
 0001:00003c50       SDL_Convert_S8_to_U16LSB   0000000180004c50 f   SDL_audiotypecvt.obj
 0001:00003ce0       SDL_Convert_S8_to_S16LSB   0000000180004ce0 f   SDL_audiotypecvt.obj
 0001:00003d60       SDL_Convert_S8_to_U16MSB   0000000180004d60 f   SDL_audiotypecvt.obj
 0001:00003df0       SDL_Convert_S8_to_S16MSB   0000000180004df0 f   SDL_audiotypecvt.obj
 0001:00003e70       SDL_Convert_S8_to_S32LSB   0000000180004e70 f   SDL_audiotypecvt.obj
 0001:00003ef0       SDL_Convert_S8_to_S32MSB   0000000180004ef0 f   SDL_audiotypecvt.obj
 0001:00003fa0       SDL_Convert_S8_to_F32LSB   0000000180004fa0 f   SDL_audiotypecvt.obj
 0001:00004040       SDL_Convert_S8_to_F32MSB   0000000180005040 f   SDL_audiotypecvt.obj
 0001:00004100       SDL_Convert_U16LSB_to_U8   0000000180005100 f   SDL_audiotypecvt.obj
 0001:00004170       SDL_Convert_U16LSB_to_S8   0000000180005170 f   SDL_audiotypecvt.obj
 0001:000041e0       SDL_Convert_U16LSB_to_S16LSB 00000001800051e0 f   SDL_audiotypecvt.obj
 0001:00004250       SDL_Convert_U16LSB_to_U16MSB 0000000180005250 f   SDL_audiotypecvt.obj
 0001:000042c0       SDL_Convert_U16LSB_to_S16MSB 00000001800052c0 f   SDL_audiotypecvt.obj
 0001:00004330       SDL_Convert_U16LSB_to_S32LSB 0000000180005330 f   SDL_audiotypecvt.obj
 0001:000043b0       SDL_Convert_U16LSB_to_S32MSB 00000001800053b0 f   SDL_audiotypecvt.obj
 0001:00004460       SDL_Convert_U16LSB_to_F32LSB 0000000180005460 f   SDL_audiotypecvt.obj
 0001:00004500       SDL_Convert_U16LSB_to_F32MSB 0000000180005500 f   SDL_audiotypecvt.obj
 0001:000045d0       SDL_Convert_S16LSB_to_U8   00000001800055d0 f   SDL_audiotypecvt.obj
 0001:00004640       SDL_Convert_S16LSB_to_S8   0000000180005640 f   SDL_audiotypecvt.obj
 0001:000046b0       SDL_Convert_S16LSB_to_U16LSB 00000001800056b0 f   SDL_audiotypecvt.obj
 0001:00004720       SDL_Convert_S16LSB_to_U16MSB 0000000180005720 f   SDL_audiotypecvt.obj
 0001:00004790       SDL_Convert_S16LSB_to_S16MSB 0000000180005790 f   SDL_audiotypecvt.obj
 0001:00004800       SDL_Convert_S16LSB_to_S32LSB 0000000180005800 f   SDL_audiotypecvt.obj
 0001:00004880       SDL_Convert_S16LSB_to_S32MSB 0000000180005880 f   SDL_audiotypecvt.obj
 0001:00004930       SDL_Convert_S16LSB_to_F32LSB 0000000180005930 f   SDL_audiotypecvt.obj
 0001:000049d0       SDL_Convert_S16LSB_to_F32MSB 00000001800059d0 f   SDL_audiotypecvt.obj
 0001:00004aa0       SDL_Convert_U16MSB_to_U8   0000000180005aa0 f   SDL_audiotypecvt.obj
 0001:00004b20       SDL_Convert_U16MSB_to_S8   0000000180005b20 f   SDL_audiotypecvt.obj
 0001:00004ba0       SDL_Convert_U16MSB_to_U16LSB 0000000180005ba0 f   SDL_audiotypecvt.obj
 0001:00004c10       SDL_Convert_U16MSB_to_S16LSB 0000000180005c10 f   SDL_audiotypecvt.obj
 0001:00004c80       SDL_Convert_U16MSB_to_S16MSB 0000000180005c80 f   SDL_audiotypecvt.obj
 0001:00004cf0       SDL_Convert_U16MSB_to_S32LSB 0000000180005cf0 f   SDL_audiotypecvt.obj
 0001:00004d80       SDL_Convert_U16MSB_to_S32MSB 0000000180005d80 f   SDL_audiotypecvt.obj
 0001:00004e40       SDL_Convert_U16MSB_to_F32LSB 0000000180005e40 f   SDL_audiotypecvt.obj
 0001:00004ef0       SDL_Convert_U16MSB_to_F32MSB 0000000180005ef0 f   SDL_audiotypecvt.obj
 0001:00004fd0       SDL_Convert_S16MSB_to_U8   0000000180005fd0 f   SDL_audiotypecvt.obj
 0001:00005050       SDL_Convert_S16MSB_to_S8   0000000180006050 f   SDL_audiotypecvt.obj
 0001:000050d0       SDL_Convert_S16MSB_to_U16LSB 00000001800060d0 f   SDL_audiotypecvt.obj
 0001:00005140       SDL_Convert_S16MSB_to_S16LSB 0000000180006140 f   SDL_audiotypecvt.obj
 0001:000051b0       SDL_Convert_S16MSB_to_U16MSB 00000001800061b0 f   SDL_audiotypecvt.obj
 0001:00005220       SDL_Convert_S16MSB_to_S32LSB 0000000180006220 f   SDL_audiotypecvt.obj
 0001:000052b0       SDL_Convert_S16MSB_to_S32MSB 00000001800062b0 f   SDL_audiotypecvt.obj
 0001:00005360       SDL_Convert_S16MSB_to_F32LSB 0000000180006360 f   SDL_audiotypecvt.obj
 0001:00005400       SDL_Convert_S16MSB_to_F32MSB 0000000180006400 f   SDL_audiotypecvt.obj
 0001:000054d0       SDL_Convert_S32LSB_to_U8   00000001800064d0 f   SDL_audiotypecvt.obj
 0001:00005540       SDL_Convert_S32LSB_to_S8   0000000180006540 f   SDL_audiotypecvt.obj
 0001:000055b0       SDL_Convert_S32LSB_to_U16LSB 00000001800065b0 f   SDL_audiotypecvt.obj
 0001:00005630       SDL_Convert_S32LSB_to_S16LSB 0000000180006630 f   SDL_audiotypecvt.obj
 0001:000056a0       SDL_Convert_S32LSB_to_U16MSB 00000001800066a0 f   SDL_audiotypecvt.obj
 0001:00005720       SDL_Convert_S32LSB_to_S16MSB 0000000180006720 f   SDL_audiotypecvt.obj
 0001:00005790       SDL_Convert_S32LSB_to_S32MSB 0000000180006790 f   SDL_audiotypecvt.obj
 0001:00005820       SDL_Convert_S32LSB_to_F32LSB 0000000180006820 f   SDL_audiotypecvt.obj
 0001:000058a0       SDL_Convert_S32LSB_to_F32MSB 00000001800068a0 f   SDL_audiotypecvt.obj
 0001:00005950       SDL_Convert_S32MSB_to_U8   0000000180006950 f   SDL_audiotypecvt.obj
 0001:000059c0       SDL_Convert_S32MSB_to_S8   00000001800069c0 f   SDL_audiotypecvt.obj
 0001:00005a50       SDL_Convert_S32MSB_to_U16LSB 0000000180006a50 f   SDL_audiotypecvt.obj
 0001:00005af0       SDL_Convert_S32MSB_to_S16LSB 0000000180006af0 f   SDL_audiotypecvt.obj
 0001:00005ba0       SDL_Convert_S32MSB_to_U16MSB 0000000180006ba0 f   SDL_audiotypecvt.obj
 0001:00005c40       SDL_Convert_S32MSB_to_S16MSB 0000000180006c40 f   SDL_audiotypecvt.obj
 0001:00005cf0       SDL_Convert_S32MSB_to_S32LSB 0000000180006cf0 f   SDL_audiotypecvt.obj
 0001:00005d80       SDL_Convert_S32MSB_to_F32LSB 0000000180006d80 f   SDL_audiotypecvt.obj
 0001:00005e30       SDL_Convert_S32MSB_to_F32MSB 0000000180006e30 f   SDL_audiotypecvt.obj
 0001:00005f00       SDL_Convert_F32LSB_to_U8   0000000180006f00 f   SDL_audiotypecvt.obj
 0001:00005f90       SDL_Convert_F32LSB_to_S8   0000000180006f90 f   SDL_audiotypecvt.obj
 0001:00006020       SDL_Convert_F32LSB_to_U16LSB 0000000180007020 f   SDL_audiotypecvt.obj
 0001:000060b0       SDL_Convert_F32LSB_to_S16LSB 00000001800070b0 f   SDL_audiotypecvt.obj
 0001:00006140       SDL_Convert_F32LSB_to_U16MSB 0000000180007140 f   SDL_audiotypecvt.obj
 0001:000061e0       SDL_Convert_F32LSB_to_S16MSB 00000001800071e0 f   SDL_audiotypecvt.obj
 0001:00006260       SDL_Convert_F32LSB_to_S32LSB 0000000180007260 f   SDL_audiotypecvt.obj
 0001:000062e0       SDL_Convert_F32LSB_to_S32MSB 00000001800072e0 f   SDL_audiotypecvt.obj
 0001:00006390       SDL_Convert_F32LSB_to_F32MSB 0000000180007390 f   SDL_audiotypecvt.obj
 0001:00006430       SDL_Convert_F32MSB_to_U8   0000000180007430 f   SDL_audiotypecvt.obj
 0001:00006500       SDL_Convert_F32MSB_to_S8   0000000180007500 f   SDL_audiotypecvt.obj
 0001:000065c0       SDL_Convert_F32MSB_to_U16LSB 00000001800075c0 f   SDL_audiotypecvt.obj
 0001:00006690       SDL_Convert_F32MSB_to_S16LSB 0000000180007690 f   SDL_audiotypecvt.obj
 0001:00006750       SDL_Convert_F32MSB_to_U16MSB 0000000180007750 f   SDL_audiotypecvt.obj
 0001:00006820       SDL_Convert_F32MSB_to_S16MSB 0000000180007820 f   SDL_audiotypecvt.obj
 0001:000068e0       SDL_Convert_F32MSB_to_S32LSB 00000001800078e0 f   SDL_audiotypecvt.obj
 0001:00006990       SDL_Convert_F32MSB_to_S32MSB 0000000180007990 f   SDL_audiotypecvt.obj
 0001:00006a70       SDL_Convert_F32MSB_to_F32LSB 0000000180007a70 f   SDL_audiotypecvt.obj
 0001:00006b10       SDL_Upsample_U8_1c         0000000180007b10 f   SDL_audiotypecvt.obj
 0001:00006be0       SDL_Downsample_U8_1c       0000000180007be0 f   SDL_audiotypecvt.obj
 0001:00006ca0       SDL_Upsample_U8_2c         0000000180007ca0 f   SDL_audiotypecvt.obj
 0001:00006d90       SDL_Downsample_U8_2c       0000000180007d90 f   SDL_audiotypecvt.obj
 0001:00006e80       SDL_Upsample_U8_4c         0000000180007e80 f   SDL_audiotypecvt.obj
 0001:00006fa0       SDL_Downsample_U8_4c       0000000180007fa0 f   SDL_audiotypecvt.obj
 0001:000070b0       SDL_Upsample_U8_6c         00000001800080b0 f   SDL_audiotypecvt.obj
 0001:00007210       SDL_Downsample_U8_6c       0000000180008210 f   SDL_audiotypecvt.obj
 0001:00007350       SDL_Upsample_U8_8c         0000000180008350 f   SDL_audiotypecvt.obj
 0001:000074e0       SDL_Downsample_U8_8c       00000001800084e0 f   SDL_audiotypecvt.obj
 0001:00007680       SDL_Upsample_S8_1c         0000000180008680 f   SDL_audiotypecvt.obj
 0001:00007750       SDL_Downsample_S8_1c       0000000180008750 f   SDL_audiotypecvt.obj
 0001:00007810       SDL_Upsample_S8_2c         0000000180008810 f   SDL_audiotypecvt.obj
 0001:00007900       SDL_Downsample_S8_2c       0000000180008900 f   SDL_audiotypecvt.obj
 0001:000079f0       SDL_Upsample_S8_4c         00000001800089f0 f   SDL_audiotypecvt.obj
 0001:00007b10       SDL_Downsample_S8_4c       0000000180008b10 f   SDL_audiotypecvt.obj
 0001:00007c20       SDL_Upsample_S8_6c         0000000180008c20 f   SDL_audiotypecvt.obj
 0001:00007d80       SDL_Downsample_S8_6c       0000000180008d80 f   SDL_audiotypecvt.obj
 0001:00007ec0       SDL_Upsample_S8_8c         0000000180008ec0 f   SDL_audiotypecvt.obj
 0001:00008050       SDL_Downsample_S8_8c       0000000180009050 f   SDL_audiotypecvt.obj
 0001:000081f0       SDL_Upsample_U16LSB_1c     00000001800091f0 f   SDL_audiotypecvt.obj
 0001:000082c0       SDL_Downsample_U16LSB_1c   00000001800092c0 f   SDL_audiotypecvt.obj
 0001:00008380       SDL_Upsample_U16LSB_2c     0000000180009380 f   SDL_audiotypecvt.obj
 0001:00008470       SDL_Downsample_U16LSB_2c   0000000180009470 f   SDL_audiotypecvt.obj
 0001:00008560       SDL_Upsample_U16LSB_4c     0000000180009560 f   SDL_audiotypecvt.obj
 0001:00008680       SDL_Downsample_U16LSB_4c   0000000180009680 f   SDL_audiotypecvt.obj
 0001:000087a0       SDL_Upsample_U16LSB_6c     00000001800097a0 f   SDL_audiotypecvt.obj
 0001:00008900       SDL_Downsample_U16LSB_6c   0000000180009900 f   SDL_audiotypecvt.obj
 0001:00008a60       SDL_Upsample_U16LSB_8c     0000000180009a60 f   SDL_audiotypecvt.obj
 0001:00008c00       SDL_Downsample_U16LSB_8c   0000000180009c00 f   SDL_audiotypecvt.obj
 0001:00008db0       SDL_Upsample_S16LSB_1c     0000000180009db0 f   SDL_audiotypecvt.obj
 0001:00008e80       SDL_Downsample_S16LSB_1c   0000000180009e80 f   SDL_audiotypecvt.obj
 0001:00008f40       SDL_Upsample_S16LSB_2c     0000000180009f40 f   SDL_audiotypecvt.obj
 0001:00009030       SDL_Downsample_S16LSB_2c   000000018000a030 f   SDL_audiotypecvt.obj
 0001:00009120       SDL_Upsample_S16LSB_4c     000000018000a120 f   SDL_audiotypecvt.obj
 0001:00009240       SDL_Downsample_S16LSB_4c   000000018000a240 f   SDL_audiotypecvt.obj
 0001:00009360       SDL_Upsample_S16LSB_6c     000000018000a360 f   SDL_audiotypecvt.obj
 0001:000094c0       SDL_Downsample_S16LSB_6c   000000018000a4c0 f   SDL_audiotypecvt.obj
 0001:00009620       SDL_Upsample_S16LSB_8c     000000018000a620 f   SDL_audiotypecvt.obj
 0001:000097c0       SDL_Downsample_S16LSB_8c   000000018000a7c0 f   SDL_audiotypecvt.obj
 0001:00009970       SDL_Upsample_U16MSB_1c     000000018000a970 f   SDL_audiotypecvt.obj
 0001:00009a50       SDL_Downsample_U16MSB_1c   000000018000aa50 f   SDL_audiotypecvt.obj
 0001:00009b20       SDL_Upsample_U16MSB_2c     000000018000ab20 f   SDL_audiotypecvt.obj
 0001:00009c40       SDL_Downsample_U16MSB_2c   000000018000ac40 f   SDL_audiotypecvt.obj
 0001:00009d40       SDL_Upsample_U16MSB_4c     000000018000ad40 f   SDL_audiotypecvt.obj
 0001:00009ec0       SDL_Downsample_U16MSB_4c   000000018000aec0 f   SDL_audiotypecvt.obj
 0001:0000a040       SDL_Upsample_U16MSB_6c     000000018000b040 f   SDL_audiotypecvt.obj
 0001:0000a220       SDL_Downsample_U16MSB_6c   000000018000b220 f   SDL_audiotypecvt.obj
 0001:0000a3f0       SDL_Upsample_U16MSB_8c     000000018000b3f0 f   SDL_audiotypecvt.obj
 0001:0000a630       SDL_Downsample_U16MSB_8c   000000018000b630 f   SDL_audiotypecvt.obj
 0001:0000a860       SDL_Upsample_S16MSB_1c     000000018000b860 f   SDL_audiotypecvt.obj
 0001:0000a940       SDL_Downsample_S16MSB_1c   000000018000b940 f   SDL_audiotypecvt.obj
 0001:0000aa10       SDL_Upsample_S16MSB_2c     000000018000ba10 f   SDL_audiotypecvt.obj
 0001:0000ab30       SDL_Downsample_S16MSB_2c   000000018000bb30 f   SDL_audiotypecvt.obj
 0001:0000ac30       SDL_Upsample_S16MSB_4c     000000018000bc30 f   SDL_audiotypecvt.obj
 0001:0000adb0       SDL_Downsample_S16MSB_4c   000000018000bdb0 f   SDL_audiotypecvt.obj
 0001:0000af30       SDL_Upsample_S16MSB_6c     000000018000bf30 f   SDL_audiotypecvt.obj
 0001:0000b110       SDL_Downsample_S16MSB_6c   000000018000c110 f   SDL_audiotypecvt.obj
 0001:0000b2e0       SDL_Upsample_S16MSB_8c     000000018000c2e0 f   SDL_audiotypecvt.obj
 0001:0000b520       SDL_Downsample_S16MSB_8c   000000018000c520 f   SDL_audiotypecvt.obj
 0001:0000b750       SDL_Upsample_S32LSB_1c     000000018000c750 f   SDL_audiotypecvt.obj
 0001:0000b820       SDL_Downsample_S32LSB_1c   000000018000c820 f   SDL_audiotypecvt.obj
 0001:0000b8e0       SDL_Upsample_S32LSB_2c     000000018000c8e0 f   SDL_audiotypecvt.obj
 0001:0000b9d0       SDL_Downsample_S32LSB_2c   000000018000c9d0 f   SDL_audiotypecvt.obj
 0001:0000bac0       SDL_Upsample_S32LSB_4c     000000018000cac0 f   SDL_audiotypecvt.obj
 0001:0000bbe0       SDL_Downsample_S32LSB_4c   000000018000cbe0 f   SDL_audiotypecvt.obj
 0001:0000bd00       SDL_Upsample_S32LSB_6c     000000018000cd00 f   SDL_audiotypecvt.obj
 0001:0000be50       SDL_Downsample_S32LSB_6c   000000018000ce50 f   SDL_audiotypecvt.obj
 0001:0000bf90       SDL_Upsample_S32LSB_8c     000000018000cf90 f   SDL_audiotypecvt.obj
 0001:0000c110       SDL_Downsample_S32LSB_8c   000000018000d110 f   SDL_audiotypecvt.obj
 0001:0000c2b0       SDL_Upsample_S32MSB_1c     000000018000d2b0 f   SDL_audiotypecvt.obj
 0001:0000c400       SDL_Downsample_S32MSB_1c   000000018000d400 f   SDL_audiotypecvt.obj
 0001:0000c540       SDL_Upsample_S32MSB_2c     000000018000d540 f   SDL_audiotypecvt.obj
 0001:0000c720       SDL_Downsample_S32MSB_2c   000000018000d720 f   SDL_audiotypecvt.obj
 0001:0000c8f0       SDL_Upsample_S32MSB_4c     000000018000d8f0 f   SDL_audiotypecvt.obj
 0001:0000cbf0       SDL_Downsample_S32MSB_4c   000000018000dbf0 f   SDL_audiotypecvt.obj
 0001:0000cef0       SDL_Upsample_S32MSB_6c     000000018000def0 f   SDL_audiotypecvt.obj
 0001:0000d300       SDL_Downsample_S32MSB_6c   000000018000e300 f   SDL_audiotypecvt.obj
 0001:0000d710       SDL_Upsample_S32MSB_8c     000000018000e710 f   SDL_audiotypecvt.obj
 0001:0000dc70       SDL_Downsample_S32MSB_8c   000000018000ec70 f   SDL_audiotypecvt.obj
 0001:0000e1d0       SDL_Upsample_F32LSB_1c     000000018000f1d0 f   SDL_audiotypecvt.obj
 0001:0000e2b0       SDL_Downsample_F32LSB_1c   000000018000f2b0 f   SDL_audiotypecvt.obj
 0001:0000e370       SDL_Upsample_F32LSB_2c     000000018000f370 f   SDL_audiotypecvt.obj
 0001:0000e470       SDL_Downsample_F32LSB_2c   000000018000f470 f   SDL_audiotypecvt.obj
 0001:0000e550       SDL_Upsample_F32LSB_4c     000000018000f550 f   SDL_audiotypecvt.obj
 0001:0000e6c0       SDL_Downsample_F32LSB_4c   000000018000f6c0 f   SDL_audiotypecvt.obj
 0001:0000e820       SDL_Upsample_F32LSB_6c     000000018000f820 f   SDL_audiotypecvt.obj
 0001:0000e9f0       SDL_Downsample_F32LSB_6c   000000018000f9f0 f   SDL_audiotypecvt.obj
 0001:0000ebb0       SDL_Upsample_F32LSB_8c     000000018000fbb0 f   SDL_audiotypecvt.obj
 0001:0000ee00       SDL_Downsample_F32LSB_8c   000000018000fe00 f   SDL_audiotypecvt.obj
 0001:0000f030       SDL_Upsample_F32MSB_1c     0000000180010030 f   SDL_audiotypecvt.obj
 0001:0000f1a0       SDL_Downsample_F32MSB_1c   00000001800101a0 f   SDL_audiotypecvt.obj
 0001:0000f310       SDL_Upsample_F32MSB_2c     0000000180010310 f   SDL_audiotypecvt.obj
 0001:0000f540       SDL_Downsample_F32MSB_2c   0000000180010540 f   SDL_audiotypecvt.obj
 0001:0000f770       SDL_Upsample_F32MSB_4c     0000000180010770 f   SDL_audiotypecvt.obj
 0001:0000fb60       SDL_Downsample_F32MSB_4c   0000000180010b60 f   SDL_audiotypecvt.obj
 0001:0000ff50       SDL_Upsample_F32MSB_6c     0000000180010f50 f   SDL_audiotypecvt.obj
 0001:00010520       SDL_Downsample_F32MSB_6c   0000000180011520 f   SDL_audiotypecvt.obj
 0001:00010af0       SDL_Upsample_F32MSB_8c     0000000180011af0 f   SDL_audiotypecvt.obj
 0001:00011280       SDL_Downsample_F32MSB_8c   0000000180012280 f   SDL_audiotypecvt.obj
 0001:00011a10       SDL_Upsample_U8_1c_x2      0000000180012a10 f   SDL_audiotypecvt.obj
 0001:00011ab0       SDL_Downsample_U8_1c_x2    0000000180012ab0 f   SDL_audiotypecvt.obj
 0001:00011b50       SDL_Upsample_U8_1c_x4      0000000180012b50 f   SDL_audiotypecvt.obj
 0001:00011c20       SDL_Downsample_U8_1c_x4    0000000180012c20 f   SDL_audiotypecvt.obj
 0001:00011cc0       SDL_Upsample_U8_2c_x2      0000000180012cc0 f   SDL_audiotypecvt.obj
 0001:00011d90       SDL_Downsample_U8_2c_x2    0000000180012d90 f   SDL_audiotypecvt.obj
 0001:00011e50       SDL_Upsample_U8_2c_x4      0000000180012e50 f   SDL_audiotypecvt.obj
 0001:00011f70       SDL_Downsample_U8_2c_x4    0000000180012f70 f   SDL_audiotypecvt.obj
 0001:00012030       SDL_Upsample_U8_4c_x2      0000000180013030 f   SDL_audiotypecvt.obj
 0001:00012150       SDL_Downsample_U8_4c_x2    0000000180013150 f   SDL_audiotypecvt.obj
 0001:00012250       SDL_Upsample_U8_4c_x4      0000000180013250 f   SDL_audiotypecvt.obj
 0001:00012480       SDL_Downsample_U8_4c_x4    0000000180013480 f   SDL_audiotypecvt.obj
 0001:00012590       SDL_Upsample_U8_6c_x2      0000000180013590 f   SDL_audiotypecvt.obj
 0001:00012740       SDL_Downsample_U8_6c_x2    0000000180013740 f   SDL_audiotypecvt.obj
 0001:000128e0       SDL_Upsample_U8_6c_x4      00000001800138e0 f   SDL_audiotypecvt.obj
 0001:00012bf0       SDL_Downsample_U8_6c_x4    0000000180013bf0 f   SDL_audiotypecvt.obj
 0001:00012d90       SDL_Upsample_U8_8c_x2      0000000180013d90 f   SDL_audiotypecvt.obj
 0001:00012fb0       SDL_Downsample_U8_8c_x2    0000000180013fb0 f   SDL_audiotypecvt.obj
 0001:000131b0       SDL_Upsample_U8_8c_x4      00000001800141b0 f   SDL_audiotypecvt.obj
 0001:000135b0       SDL_Downsample_U8_8c_x4    00000001800145b0 f   SDL_audiotypecvt.obj
 0001:000137c0       SDL_Upsample_S8_1c_x2      00000001800147c0 f   SDL_audiotypecvt.obj
 0001:00013860       SDL_Downsample_S8_1c_x2    0000000180014860 f   SDL_audiotypecvt.obj
 0001:00013900       SDL_Upsample_S8_1c_x4      0000000180014900 f   SDL_audiotypecvt.obj
 0001:000139d0       SDL_Downsample_S8_1c_x4    00000001800149d0 f   SDL_audiotypecvt.obj
 0001:00013a70       SDL_Upsample_S8_2c_x2      0000000180014a70 f   SDL_audiotypecvt.obj
 0001:00013b40       SDL_Downsample_S8_2c_x2    0000000180014b40 f   SDL_audiotypecvt.obj
 0001:00013c00       SDL_Upsample_S8_2c_x4      0000000180014c00 f   SDL_audiotypecvt.obj
 0001:00013d20       SDL_Downsample_S8_2c_x4    0000000180014d20 f   SDL_audiotypecvt.obj
 0001:00013de0       SDL_Upsample_S8_4c_x2      0000000180014de0 f   SDL_audiotypecvt.obj
 0001:00013f00       SDL_Downsample_S8_4c_x2    0000000180014f00 f   SDL_audiotypecvt.obj
 0001:00014000       SDL_Upsample_S8_4c_x4      0000000180015000 f   SDL_audiotypecvt.obj
 0001:00014230       SDL_Downsample_S8_4c_x4    0000000180015230 f   SDL_audiotypecvt.obj
 0001:00014340       SDL_Upsample_S8_6c_x2      0000000180015340 f   SDL_audiotypecvt.obj
 0001:000144f0       SDL_Downsample_S8_6c_x2    00000001800154f0 f   SDL_audiotypecvt.obj
 0001:00014690       SDL_Upsample_S8_6c_x4      0000000180015690 f   SDL_audiotypecvt.obj
 0001:000149a0       SDL_Downsample_S8_6c_x4    00000001800159a0 f   SDL_audiotypecvt.obj
 0001:00014b40       SDL_Upsample_S8_8c_x2      0000000180015b40 f   SDL_audiotypecvt.obj
 0001:00014d60       SDL_Downsample_S8_8c_x2    0000000180015d60 f   SDL_audiotypecvt.obj
 0001:00014f60       SDL_Upsample_S8_8c_x4      0000000180015f60 f   SDL_audiotypecvt.obj
 0001:00015360       SDL_Downsample_S8_8c_x4    0000000180016360 f   SDL_audiotypecvt.obj
 0001:00015570       SDL_Upsample_U16LSB_1c_x2  0000000180016570 f   SDL_audiotypecvt.obj
 0001:000155f0       SDL_Downsample_U16LSB_1c_x2 00000001800165f0 f   SDL_audiotypecvt.obj
 0001:00015680       SDL_Upsample_U16LSB_1c_x4  0000000180016680 f   SDL_audiotypecvt.obj
 0001:00015740       SDL_Downsample_U16LSB_1c_x4 0000000180016740 f   SDL_audiotypecvt.obj
 0001:000157e0       SDL_Upsample_U16LSB_2c_x2  00000001800167e0 f   SDL_audiotypecvt.obj
 0001:000158a0       SDL_Downsample_U16LSB_2c_x2 00000001800168a0 f   SDL_audiotypecvt.obj
 0001:00015950       SDL_Upsample_U16LSB_2c_x4  0000000180016950 f   SDL_audiotypecvt.obj
 0001:00015a60       SDL_Downsample_U16LSB_2c_x4 0000000180016a60 f   SDL_audiotypecvt.obj
 0001:00015b10       SDL_Upsample_U16LSB_4c_x2  0000000180016b10 f   SDL_audiotypecvt.obj
 0001:00015c20       SDL_Downsample_U16LSB_4c_x2 0000000180016c20 f   SDL_audiotypecvt.obj
 0001:00015d10       SDL_Upsample_U16LSB_4c_x4  0000000180016d10 f   SDL_audiotypecvt.obj
 0001:00015e90       SDL_Downsample_U16LSB_4c_x4 0000000180016e90 f   SDL_audiotypecvt.obj
 0001:00015f90       SDL_Upsample_U16LSB_6c_x2  0000000180016f90 f   SDL_audiotypecvt.obj
 0001:00016100       SDL_Downsample_U16LSB_6c_x2 0000000180017100 f   SDL_audiotypecvt.obj
 0001:00016240       SDL_Upsample_U16LSB_6c_x4  0000000180017240 f   SDL_audiotypecvt.obj
 0001:000164e0       SDL_Downsample_U16LSB_6c_x4 00000001800174e0 f   SDL_audiotypecvt.obj
 0001:00016630       SDL_Upsample_U16LSB_8c_x2  0000000180017630 f   SDL_audiotypecvt.obj
 0001:00016840       SDL_Downsample_U16LSB_8c_x2 0000000180017840 f   SDL_audiotypecvt.obj
 0001:00016a20       SDL_Upsample_U16LSB_8c_x4  0000000180017a20 f   SDL_audiotypecvt.obj
 0001:00016d60       SDL_Downsample_U16LSB_8c_x4 0000000180017d60 f   SDL_audiotypecvt.obj
 0001:00016f40       SDL_Upsample_S16LSB_1c_x2  0000000180017f40 f   SDL_audiotypecvt.obj
 0001:00016fc0       SDL_Downsample_S16LSB_1c_x2 0000000180017fc0 f   SDL_audiotypecvt.obj
 0001:00017050       SDL_Upsample_S16LSB_1c_x4  0000000180018050 f   SDL_audiotypecvt.obj
 0001:00017110       SDL_Downsample_S16LSB_1c_x4 0000000180018110 f   SDL_audiotypecvt.obj
 0001:000171b0       SDL_Upsample_S16LSB_2c_x2  00000001800181b0 f   SDL_audiotypecvt.obj
 0001:00017270       SDL_Downsample_S16LSB_2c_x2 0000000180018270 f   SDL_audiotypecvt.obj
 0001:00017320       SDL_Upsample_S16LSB_2c_x4  0000000180018320 f   SDL_audiotypecvt.obj
 0001:00017430       SDL_Downsample_S16LSB_2c_x4 0000000180018430 f   SDL_audiotypecvt.obj
 0001:000174e0       SDL_Upsample_S16LSB_4c_x2  00000001800184e0 f   SDL_audiotypecvt.obj
 0001:000175f0       SDL_Downsample_S16LSB_4c_x2 00000001800185f0 f   SDL_audiotypecvt.obj
 0001:000176e0       SDL_Upsample_S16LSB_4c_x4  00000001800186e0 f   SDL_audiotypecvt.obj
 0001:00017860       SDL_Downsample_S16LSB_4c_x4 0000000180018860 f   SDL_audiotypecvt.obj
 0001:00017960       SDL_Upsample_S16LSB_6c_x2  0000000180018960 f   SDL_audiotypecvt.obj
 0001:00017ad0       SDL_Downsample_S16LSB_6c_x2 0000000180018ad0 f   SDL_audiotypecvt.obj
 0001:00017c10       SDL_Upsample_S16LSB_6c_x4  0000000180018c10 f   SDL_audiotypecvt.obj
 0001:00017eb0       SDL_Downsample_S16LSB_6c_x4 0000000180018eb0 f   SDL_audiotypecvt.obj
 0001:00018000       SDL_Upsample_S16LSB_8c_x2  0000000180019000 f   SDL_audiotypecvt.obj
 0001:00018210       SDL_Downsample_S16LSB_8c_x2 0000000180019210 f   SDL_audiotypecvt.obj
 0001:000183f0       SDL_Upsample_S16LSB_8c_x4  00000001800193f0 f   SDL_audiotypecvt.obj
 0001:00018730       SDL_Downsample_S16LSB_8c_x4 0000000180019730 f   SDL_audiotypecvt.obj
 0001:00018910       SDL_Upsample_U16MSB_1c_x2  0000000180019910 f   SDL_audiotypecvt.obj
 0001:000189c0       SDL_Downsample_U16MSB_1c_x2 00000001800199c0 f   SDL_audiotypecvt.obj
 0001:00018a70       SDL_Upsample_U16MSB_1c_x4  0000000180019a70 f   SDL_audiotypecvt.obj
 0001:00018b40       SDL_Downsample_U16MSB_1c_x4 0000000180019b40 f   SDL_audiotypecvt.obj
 0001:00018be0       SDL_Upsample_U16MSB_2c_x2  0000000180019be0 f   SDL_audiotypecvt.obj
 0001:00018cc0       SDL_Downsample_U16MSB_2c_x2 0000000180019cc0 f   SDL_audiotypecvt.obj
 0001:00018d90       SDL_Upsample_U16MSB_2c_x4  0000000180019d90 f   SDL_audiotypecvt.obj
 0001:00018ec0       SDL_Downsample_U16MSB_2c_x4 0000000180019ec0 f   SDL_audiotypecvt.obj
 0001:00018f90       SDL_Upsample_U16MSB_4c_x2  0000000180019f90 f   SDL_audiotypecvt.obj
 0001:000190f0       SDL_Downsample_U16MSB_4c_x2 000000018001a0f0 f   SDL_audiotypecvt.obj
 0001:00019220       SDL_Upsample_U16MSB_4c_x4  000000018001a220 f   SDL_audiotypecvt.obj
 0001:000193e0       SDL_Downsample_U16MSB_4c_x4 000000018001a3e0 f   SDL_audiotypecvt.obj
 0001:00019510       SDL_Upsample_U16MSB_6c_x2  000000018001a510 f   SDL_audiotypecvt.obj
 0001:000196e0       SDL_Downsample_U16MSB_6c_x2 000000018001a6e0 f   SDL_audiotypecvt.obj
 0001:00019890       SDL_Upsample_U16MSB_6c_x4  000000018001a890 f   SDL_audiotypecvt.obj
 0001:00019b80       SDL_Downsample_U16MSB_6c_x4 000000018001ab80 f   SDL_audiotypecvt.obj
 0001:00019d30       SDL_Upsample_U16MSB_8c_x2  000000018001ad30 f   SDL_audiotypecvt.obj
 0001:00019fb0       SDL_Downsample_U16MSB_8c_x2 000000018001afb0 f   SDL_audiotypecvt.obj
 0001:0001a220       SDL_Upsample_U16MSB_8c_x4  000000018001b220 f   SDL_audiotypecvt.obj
 0001:0001a5d0       SDL_Downsample_U16MSB_8c_x4 000000018001b5d0 f   SDL_audiotypecvt.obj
 0001:0001a840       SDL_Upsample_S16MSB_1c_x2  000000018001b840 f   SDL_audiotypecvt.obj
 0001:0001a8f0       SDL_Downsample_S16MSB_1c_x2 000000018001b8f0 f   SDL_audiotypecvt.obj
 0001:0001a9a0       SDL_Upsample_S16MSB_1c_x4  000000018001b9a0 f   SDL_audiotypecvt.obj
 0001:0001aa70       SDL_Downsample_S16MSB_1c_x4 000000018001ba70 f   SDL_audiotypecvt.obj
 0001:0001ab10       SDL_Upsample_S16MSB_2c_x2  000000018001bb10 f   SDL_audiotypecvt.obj
 0001:0001abf0       SDL_Downsample_S16MSB_2c_x2 000000018001bbf0 f   SDL_audiotypecvt.obj
 0001:0001acc0       SDL_Upsample_S16MSB_2c_x4  000000018001bcc0 f   SDL_audiotypecvt.obj
 0001:0001adf0       SDL_Downsample_S16MSB_2c_x4 000000018001bdf0 f   SDL_audiotypecvt.obj
 0001:0001aec0       SDL_Upsample_S16MSB_4c_x2  000000018001bec0 f   SDL_audiotypecvt.obj
 0001:0001b020       SDL_Downsample_S16MSB_4c_x2 000000018001c020 f   SDL_audiotypecvt.obj
 0001:0001b150       SDL_Upsample_S16MSB_4c_x4  000000018001c150 f   SDL_audiotypecvt.obj
 0001:0001b310       SDL_Downsample_S16MSB_4c_x4 000000018001c310 f   SDL_audiotypecvt.obj
 0001:0001b440       SDL_Upsample_S16MSB_6c_x2  000000018001c440 f   SDL_audiotypecvt.obj
 0001:0001b610       SDL_Downsample_S16MSB_6c_x2 000000018001c610 f   SDL_audiotypecvt.obj
 0001:0001b7c0       SDL_Upsample_S16MSB_6c_x4  000000018001c7c0 f   SDL_audiotypecvt.obj
 0001:0001bab0       SDL_Downsample_S16MSB_6c_x4 000000018001cab0 f   SDL_audiotypecvt.obj
 0001:0001bc60       SDL_Upsample_S16MSB_8c_x2  000000018001cc60 f   SDL_audiotypecvt.obj
 0001:0001bee0       SDL_Downsample_S16MSB_8c_x2 000000018001cee0 f   SDL_audiotypecvt.obj
 0001:0001c140       SDL_Upsample_S16MSB_8c_x4  000000018001d140 f   SDL_audiotypecvt.obj
 0001:0001c4e0       SDL_Downsample_S16MSB_8c_x4 000000018001d4e0 f   SDL_audiotypecvt.obj
 0001:0001c740       SDL_Upsample_S32LSB_1c_x2  000000018001d740 f   SDL_audiotypecvt.obj
 0001:0001c7c0       SDL_Downsample_S32LSB_1c_x2 000000018001d7c0 f   SDL_audiotypecvt.obj
 0001:0001c850       SDL_Upsample_S32LSB_1c_x4  000000018001d850 f   SDL_audiotypecvt.obj
 0001:0001c910       SDL_Downsample_S32LSB_1c_x4 000000018001d910 f   SDL_audiotypecvt.obj
 0001:0001c9b0       SDL_Upsample_S32LSB_2c_x2  000000018001d9b0 f   SDL_audiotypecvt.obj
 0001:0001ca70       SDL_Downsample_S32LSB_2c_x2 000000018001da70 f   SDL_audiotypecvt.obj
 0001:0001cb20       SDL_Upsample_S32LSB_2c_x4  000000018001db20 f   SDL_audiotypecvt.obj
 0001:0001cc30       SDL_Downsample_S32LSB_2c_x4 000000018001dc30 f   SDL_audiotypecvt.obj
 0001:0001cce0       SDL_Upsample_S32LSB_4c_x2  000000018001dce0 f   SDL_audiotypecvt.obj
 0001:0001cdf0       SDL_Downsample_S32LSB_4c_x2 000000018001ddf0 f   SDL_audiotypecvt.obj
 0001:0001cee0       SDL_Upsample_S32LSB_4c_x4  000000018001dee0 f   SDL_audiotypecvt.obj
 0001:0001d060       SDL_Downsample_S32LSB_4c_x4 000000018001e060 f   SDL_audiotypecvt.obj
 0001:0001d160       SDL_Upsample_S32LSB_6c_x2  000000018001e160 f   SDL_audiotypecvt.obj
 0001:0001d2c0       SDL_Downsample_S32LSB_6c_x2 000000018001e2c0 f   SDL_audiotypecvt.obj
 0001:0001d410       SDL_Upsample_S32LSB_6c_x4  000000018001e410 f   SDL_audiotypecvt.obj
 0001:0001d6b0       SDL_Downsample_S32LSB_6c_x4 000000018001e6b0 f   SDL_audiotypecvt.obj
 0001:0001d800       SDL_Upsample_S32LSB_8c_x2  000000018001e800 f   SDL_audiotypecvt.obj
 0001:0001da10       SDL_Downsample_S32LSB_8c_x2 000000018001ea10 f   SDL_audiotypecvt.obj
 0001:0001dc10       SDL_Upsample_S32LSB_8c_x4  000000018001ec10 f   SDL_audiotypecvt.obj
 0001:0001df80       SDL_Downsample_S32LSB_8c_x4 000000018001ef80 f   SDL_audiotypecvt.obj
 0001:0001e180       SDL_Upsample_S32MSB_1c_x2  000000018001f180 f   SDL_audiotypecvt.obj
 0001:0001e280       SDL_Downsample_S32MSB_1c_x2 000000018001f280 f   SDL_audiotypecvt.obj
 0001:0001e360       SDL_Upsample_S32MSB_1c_x4  000000018001f360 f   SDL_audiotypecvt.obj
 0001:0001e480       SDL_Downsample_S32MSB_1c_x4 000000018001f480 f   SDL_audiotypecvt.obj
 0001:0001e570       SDL_Upsample_S32MSB_2c_x2  000000018001f570 f   SDL_audiotypecvt.obj
 0001:0001e6e0       SDL_Downsample_S32MSB_2c_x2 000000018001f6e0 f   SDL_audiotypecvt.obj
 0001:0001e850       SDL_Upsample_S32MSB_2c_x4  000000018001f850 f   SDL_audiotypecvt.obj
 0001:0001ea00       SDL_Downsample_S32MSB_2c_x4 000000018001fa00 f   SDL_audiotypecvt.obj
 0001:0001eb70       SDL_Upsample_S32MSB_4c_x2  000000018001fb70 f   SDL_audiotypecvt.obj
 0001:0001edc0       SDL_Downsample_S32MSB_4c_x2 000000018001fdc0 f   SDL_audiotypecvt.obj
 0001:0001eff0       SDL_Upsample_S32MSB_4c_x4  000000018001fff0 f   SDL_audiotypecvt.obj
 0001:0001f2c0       SDL_Downsample_S32MSB_4c_x4 00000001800202c0 f   SDL_audiotypecvt.obj
 0001:0001f4f0       SDL_Upsample_S32MSB_6c_x2  00000001800204f0 f   SDL_audiotypecvt.obj
 0001:0001f870       SDL_Downsample_S32MSB_6c_x2 0000000180020870 f   SDL_audiotypecvt.obj
 0001:0001fbd0       SDL_Upsample_S32MSB_6c_x4  0000000180020bd0 f   SDL_audiotypecvt.obj
 0001:00020040       SDL_Downsample_S32MSB_6c_x4 0000000180021040 f   SDL_audiotypecvt.obj
 0001:000203b0       SDL_Upsample_S32MSB_8c_x2  00000001800213b0 f   SDL_audiotypecvt.obj
 0001:00020860       SDL_Downsample_S32MSB_8c_x2 0000000180021860 f   SDL_audiotypecvt.obj
 0001:00020ce0       SDL_Upsample_S32MSB_8c_x4  0000000180021ce0 f   SDL_audiotypecvt.obj
 0001:000212d0       SDL_Downsample_S32MSB_8c_x4 00000001800222d0 f   SDL_audiotypecvt.obj
 0001:00021750       SDL_Upsample_F32LSB_1c_x2  0000000180022750 f   SDL_audiotypecvt.obj
 0001:000218f0       SDL_Downsample_F32LSB_1c_x2 00000001800228f0 f   SDL_audiotypecvt.obj
 0001:00021a50       SDL_Upsample_F32LSB_1c_x4  0000000180022a50 f   SDL_audiotypecvt.obj
 0001:00021d00       SDL_Downsample_F32LSB_1c_x4 0000000180022d00 f   SDL_audiotypecvt.obj
 0001:00021e70       SDL_Upsample_F32LSB_2c_x2  0000000180022e70 f   SDL_audiotypecvt.obj
 0001:000220f0       SDL_Downsample_F32LSB_2c_x2 00000001800230f0 f   SDL_audiotypecvt.obj
 0001:00022310       SDL_Upsample_F32LSB_2c_x4  0000000180023310 f   SDL_audiotypecvt.obj
 0001:00022800       SDL_Downsample_F32LSB_2c_x4 0000000180023800 f   SDL_audiotypecvt.obj
 0001:00022a20       SDL_Upsample_F32LSB_4c_x2  0000000180023a20 f   SDL_audiotypecvt.obj
 0001:00022ef0       SDL_Downsample_F32LSB_4c_x2 0000000180023ef0 f   SDL_audiotypecvt.obj
 0001:000232f0       SDL_Upsample_F32LSB_4c_x4  00000001800242f0 f   SDL_audiotypecvt.obj
 0001:000235c0       SDL_Downsample_F32LSB_4c_x4 00000001800245c0 f   SDL_audiotypecvt.obj
 0001:000239d0       SDL_Upsample_F32LSB_6c_x2  00000001800249d0 f   SDL_audiotypecvt.obj
 0001:00024120       SDL_Downsample_F32LSB_6c_x2 0000000180025120 f   SDL_audiotypecvt.obj
 0001:00024730       SDL_Upsample_F32LSB_6c_x4  0000000180025730 f   SDL_audiotypecvt.obj
 0001:00024b50       SDL_Downsample_F32LSB_6c_x4 0000000180025b50 f   SDL_audiotypecvt.obj
 0001:00025170       SDL_Upsample_F32LSB_8c_x2  0000000180026170 f   SDL_audiotypecvt.obj
 0001:00025470       SDL_Downsample_F32LSB_8c_x2 0000000180026470 f   SDL_audiotypecvt.obj
 0001:00025c80       SDL_Upsample_F32LSB_8c_x4  0000000180026c80 f   SDL_audiotypecvt.obj
 0001:000261c0       SDL_Downsample_F32LSB_8c_x4 00000001800271c0 f   SDL_audiotypecvt.obj
 0001:000269f0       SDL_Upsample_F32MSB_1c_x2  00000001800279f0 f   SDL_audiotypecvt.obj
 0001:00026cf0       SDL_Downsample_F32MSB_1c_x2 0000000180027cf0 f   SDL_audiotypecvt.obj
 0001:00026fc0       SDL_Upsample_F32MSB_1c_x4  0000000180027fc0 f   SDL_audiotypecvt.obj
 0001:000273f0       SDL_Downsample_F32MSB_1c_x4 00000001800283f0 f   SDL_audiotypecvt.obj
 0001:000276c0       SDL_Upsample_F32MSB_2c_x2  00000001800286c0 f   SDL_audiotypecvt.obj
 0001:00027bf0       SDL_Downsample_F32MSB_2c_x2 0000000180028bf0 f   SDL_audiotypecvt.obj
 0001:000280c0       SDL_Upsample_F32MSB_2c_x4  00000001800290c0 f   SDL_audiotypecvt.obj
 0001:00028900       SDL_Downsample_F32MSB_2c_x4 0000000180029900 f   SDL_audiotypecvt.obj
 0001:00028dd0       SDL_Upsample_F32MSB_4c_x2  0000000180029dd0 f   SDL_audiotypecvt.obj
 0001:000298e0       SDL_Downsample_F32MSB_4c_x2 000000018002a8e0 f   SDL_audiotypecvt.obj
 0001:0002a320       SDL_Upsample_F32MSB_4c_x4  000000018002b320 f   SDL_audiotypecvt.obj
 0001:0002a810       SDL_Downsample_F32MSB_4c_x4 000000018002b810 f   SDL_audiotypecvt.obj
 0001:0002b270       SDL_Upsample_F32MSB_6c_x2  000000018002c270 f   SDL_audiotypecvt.obj
 0001:0002b7e0       SDL_Downsample_F32MSB_6c_x2 000000018002c7e0 f   SDL_audiotypecvt.obj
 0001:0002bd10       SDL_Upsample_F32MSB_6c_x4  000000018002cd10 f   SDL_audiotypecvt.obj
 0001:0002c440       SDL_Downsample_F32MSB_6c_x4 000000018002d440 f   SDL_audiotypecvt.obj
 0001:0002c970       SDL_Upsample_F32MSB_8c_x2  000000018002d970 f   SDL_audiotypecvt.obj
 0001:0002d080       SDL_Downsample_F32MSB_8c_x2 000000018002e080 f   SDL_audiotypecvt.obj
 0001:0002d750       SDL_Upsample_F32MSB_8c_x4  000000018002e750 f   SDL_audiotypecvt.obj
 0001:0002e0b0       SDL_Downsample_F32MSB_8c_x4 000000018002f0b0 f   SDL_audiotypecvt.obj
 0001:0002ecc0       InitMS_ADPCM               000000018002fcc0 f   SDL_wave.obj
 0001:0002edb0       MS_ADPCM_nibble            000000018002fdb0 f   SDL_wave.obj
 0001:0002eed0       MS_ADPCM_decode            000000018002fed0 f   SDL_wave.obj
 0001:0002f160       InitIMA_ADPCM              0000000180030160 f   SDL_wave.obj
 0001:0002f1c0       IMA_ADPCM_nibble           00000001800301c0 f   SDL_wave.obj
 0001:0002f600       Fill_IMA_ADPCM_block       0000000180030600 f   SDL_wave.obj
 0001:0002f6a0       IMA_ADPCM_decode           00000001800306a0 f   SDL_wave.obj
 0001:0002f870       ReadChunk                  0000000180030870 f   SDL_wave.obj
 0001:0002fc70       CPU_haveCPUID              0000000180030c70 f   SDL_cpuinfo.obj
 0001:0002fc80       CPU_getCPUIDFeatures       0000000180030c80 f   SDL_cpuinfo.obj
 0001:0002fc90       CPU_haveRDTSC              0000000180030c90 f   SDL_cpuinfo.obj
 0001:0002fca0       CPU_haveAltiVec            0000000180030ca0 f   SDL_cpuinfo.obj
 0001:0002fcc0       CPU_haveMMX                0000000180030cc0 f   SDL_cpuinfo.obj
 0001:0002fcd0       CPU_have3DNow              0000000180030cd0 f   SDL_cpuinfo.obj
 0001:0002fce0       CPU_haveSSE                0000000180030ce0 f   SDL_cpuinfo.obj
 0001:0002fcf0       CPU_haveSSE2               0000000180030cf0 f   SDL_cpuinfo.obj
 0001:0002fd00       CPU_haveSSE3               0000000180030d00 f   SDL_cpuinfo.obj
 0001:0002fd10       CPU_haveSSE41              0000000180030d10 f   SDL_cpuinfo.obj
 0001:0002fd20       CPU_haveSSE42              0000000180030d20 f   SDL_cpuinfo.obj
 0001:0002fd70       SDL_GetCPUType             0000000180030d70 f   SDL_cpuinfo.obj
 0001:0002fe10       SDL_GetCPUFeatures         0000000180030e10 f   SDL_cpuinfo.obj
 0001:00030060       SDL_ShouldPollJoystick     0000000180031060 f   SDL_events.obj
 0001:00030200       SDL_AddEvent               0000000180031200 f   SDL_events.obj
 0001:00030320       SDL_CutEvent               0000000180031320 f   SDL_events.obj
 0001:00030d40       SDL_HashDollar             0000000180031d40 f   SDL_gesture.obj
 0001:00030e40       SaveTemplate               0000000180031e40 f   SDL_gesture.obj
 0001:00030fe0       SDL_AddDollarGesture_one   0000000180031fe0 f   SDL_gesture.obj
 0001:00031090       SDL_AddDollarGesture       0000000180032090 f   SDL_gesture.obj
 0001:00031260       dollarDifference           0000000180032260 f   SDL_gesture.obj
 0001:00031390       bestDollarDifference       0000000180032390 f   SDL_gesture.obj
 0001:00031560       dollarNormalize            0000000180032560 f   SDL_gesture.obj
 0001:00031a90       dollarRecognize            0000000180032a90 f   SDL_gesture.obj
 0001:00031c10       SDL_GetGestureTouch        0000000180032c10 f   SDL_gesture.obj
 0001:00031cc0       SDL_SendGestureDollar      0000000180032cc0 f   SDL_gesture.obj
 0001:00031d10       SDL_SendDollarRecord       0000000180032d10 f   SDL_gesture.obj
 0001:00032f10       SDL_PrivateSendMouseMotion 0000000180033f10 f   SDL_mouse.obj
 0001:00033510       SDL_UpdateMouseFocus       0000000180034510 f   SDL_mouse.obj
 0001:00033c10       SDL_GetTouchIndex          0000000180034c10 f   SDL_touch.obj
 0001:00033ca0       SDL_GetFingerIndex         0000000180034ca0 f   SDL_touch.obj
 0001:00033e70       SDL_AddFinger              0000000180034e70 f   SDL_touch.obj
 0001:00033f40       SDL_DelFinger              0000000180034f40 f   SDL_touch.obj
 0001:000343c0       RemovePendingResizedEvents 00000001800353c0 f   SDL_windowevents.obj
 0001:000343f0       RemovePendingSizeChangedEvents 00000001800353f0 f   SDL_windowevents.obj
 0001:00034420       RemovePendingMoveEvents    0000000180035420 f   SDL_windowevents.obj
 0001:00034730       windows_file_open          0000000180035730 f   SDL_rwops.obj
 0001:00034940       windows_file_size          0000000180035940 f   SDL_rwops.obj
 0001:000349a0       windows_file_seek          00000001800359a0 f   SDL_rwops.obj
 0001:00034a60       windows_file_read          0000000180035a60 f   SDL_rwops.obj
 0001:00034ba0       windows_file_write         0000000180035ba0 f   SDL_rwops.obj
 0001:00034c80       mem_size                   0000000180035c80 f   SDL_rwops.obj
 0001:00034c90       mem_seek                   0000000180035c90 f   SDL_rwops.obj
 0001:00034d00       mem_read                   0000000180035d00 f   SDL_rwops.obj
 0001:00034d90       mem_write                  0000000180035d90 f   SDL_rwops.obj
 0001:00034e00       mem_writeconst             0000000180035e00 f   SDL_rwops.obj
 0001:000352a0       windows_file_close         00000001800362a0 f   SDL_rwops.obj
 0001:000352f0       mem_close                  00000001800362f0 f   SDL_rwops.obj
 0001:00035620       ValidHaptic                0000000180036620 f   SDL_haptic.obj
 0001:00035bc0       ValidEffect                0000000180036bc0 f   SDL_haptic.obj
 0001:00036940       SDL_PrivateGameControllerParseControllerConfigString 0000000180037940 f   SDL_gamecontroller.obj
 0001:00037060       SDL_GameControllerLoadHints 0000000180038060 f   SDL_gamecontroller.obj
 0001:00037d30       SDL_JoystickAllowBackgroundEventsChanged 0000000180038d30 f   SDL_joystick.obj
 0001:00038250       SDL_PrivateJoystickShouldIgnoreEvent 0000000180039250 f   SDL_joystick.obj
 0001:00038900       nibble                     0000000180039900 f   SDL_joystick.obj
 0001:0003b950       IsSupportedFormat          000000018003c950 f   SDL_render.obj
 0001:0003b990       GetClosestSupportedFormat  000000018003c990 f   SDL_render.obj
 0001:0003bd60       SDL_LockTextureYUV         000000018003cd60 f   SDL_render.obj
 0001:0003bd70       SDL_LockTextureNative      000000018003cd70 f   SDL_render.obj
 0001:0003bec0       SDL_UnlockTextureYUV       000000018003cec0 f   SDL_render.obj
 0001:0003bf50       SDL_UnlockTextureNative    000000018003cf50 f   SDL_render.obj
 0001:0003c870       RenderDrawPointsWithRects  000000018003d870 f   SDL_render.obj
 0001:0003cd20       RenderDrawLinesWithRects   000000018003dd20 f   SDL_render.obj
 0001:0003e1d0       SDL_UpdateTextureYUV       000000018003f1d0 f   SDL_render.obj
 0001:0003e360       SDL_UpdateTextureNative    000000018003f360 f   SDL_render.obj
 0001:0003e5a0       SDL_UpdateTextureYUVPlanar 000000018003f5a0 f   SDL_render.obj
 0001:0003ee60       UpdateLogicalSize          000000018003fe60 f   SDL_render.obj
 0001:0003f090       SDL_RendererEventWatch     0000000180040090 f   SDL_render.obj
 0001:0003f700       Color16DitherYV12Mod1X     0000000180040700 f   SDL_yuv_sw.obj
 0001:0003f910       Color24DitherYV12Mod1X     0000000180040910 f   SDL_yuv_sw.obj
 0001:0003fb70       Color32DitherYV12Mod1X     0000000180040b70 f   SDL_yuv_sw.obj
 0001:0003fd70       Color16DitherYV12Mod2X     0000000180040d70 f   SDL_yuv_sw.obj
 0001:0003ffb0       Color24DitherYV12Mod2X     0000000180040fb0 f   SDL_yuv_sw.obj
 0001:000402b0       Color32DitherYV12Mod2X     00000001800412b0 f   SDL_yuv_sw.obj
 0001:00040500       Color16DitherYUY2Mod1X     0000000180041500 f   SDL_yuv_sw.obj
 0001:00040670       Color24DitherYUY2Mod1X     0000000180041670 f   SDL_yuv_sw.obj
 0001:000407f0       Color32DitherYUY2Mod1X     00000001800417f0 f   SDL_yuv_sw.obj
 0001:00040960       Color16DitherYUY2Mod2X     0000000180041960 f   SDL_yuv_sw.obj
 0001:00040ad0       Color24DitherYUY2Mod2X     0000000180041ad0 f   SDL_yuv_sw.obj
 0001:00040c90       Color32DitherYUY2Mod2X     0000000180041c90 f   SDL_yuv_sw.obj
 0001:00040e10       number_of_bits_set         0000000180041e10 f   SDL_yuv_sw.obj
 0001:00040e40       free_bits_at_bottom        0000000180041e40 f   SDL_yuv_sw.obj
 0001:00040e70       SDL_SW_SetupYUVDisplay     0000000180041e70 f   SDL_yuv_sw.obj
 0001:00041ff0       getlocale                  0000000180042ff0 f   SDL_iconv.obj
 0001:00042f10       win32mmap                  0000000180043f10 f   SDL_malloc.obj
 0001:00042f50       win32direct_mmap           0000000180043f50 f   SDL_malloc.obj
 0001:00042f90       win32munmap                0000000180043f90 f   SDL_malloc.obj
 0001:00043030       segment_holding            0000000180044030 f   SDL_malloc.obj
 0001:00043060       has_segment_link           0000000180044060 f   SDL_malloc.obj
 0001:000430a0       init_mparams               00000001800440a0 f   SDL_malloc.obj
 0001:00043120       change_mparam              0000000180044120 f   SDL_malloc.obj
 0001:000431b0       internal_mallinfo          00000001800441b0 f   SDL_malloc.obj
 0001:00043300       internal_malloc_stats      0000000180044300 f   SDL_malloc.obj
 0001:00043380       mmap_alloc                 0000000180044380 f   SDL_malloc.obj
 0001:00043450       mmap_resize                0000000180044450 f   SDL_malloc.obj
 0001:00043490       init_top                   0000000180044490 f   SDL_malloc.obj
 0001:000434e0       init_bins                  00000001800444e0 f   SDL_malloc.obj
 0001:00043510       prepend_alloc              0000000180044510 f   SDL_malloc.obj
 0001:00043920       add_segment                0000000180044920 f   SDL_malloc.obj
 0001:00043bf0       sys_alloc                  0000000180044bf0 f   SDL_malloc.obj
 0001:00043e50       release_unused_segments    0000000180044e50 f   SDL_malloc.obj
 0001:000441a0       sys_trim                   00000001800451a0 f   SDL_malloc.obj
 0001:000442c0       tmalloc_large              00000001800452c0 f   SDL_malloc.obj
 0001:000447a0       tmalloc_small              00000001800457a0 f   SDL_malloc.obj
 0001:00045610       internal_realloc           0000000180046610 f   SDL_malloc.obj
 0001:000457c0       internal_memalign          00000001800467c0 f   SDL_malloc.obj
 0001:00045980       ialloc                     0000000180046980 f   SDL_malloc.obj
 0001:00045cb0       pivot_big                  0000000180046cb0 f   SDL_qsort.obj
 0001:00045e40       qsort_nonaligned           0000000180046e40 f   SDL_qsort.obj
 0001:000462f0       qsort_aligned              00000001800472f0 f   SDL_qsort.obj
 0001:000467a0       qsort_words                00000001800477a0 f   SDL_qsort.obj
 0001:00046cf0       UTF8_TrailingBytes         0000000180047cf0 f   SDL_string.obj
 0001:00047670       SDL_PrintString            0000000180048670 f   SDL_string.obj
 0001:00047740       SDL_PrintLong              0000000180048740 f   SDL_string.obj
 0001:000477b0       SDL_PrintUnsignedLong      00000001800487b0 f   SDL_string.obj
 0001:00047820       SDL_PrintLongLong          0000000180048820 f   SDL_string.obj
 0001:00047890       SDL_PrintUnsignedLongLong  0000000180048890 f   SDL_string.obj
 0001:00047900       SDL_PrintFloat             0000000180048900 f   SDL_string.obj
 0001:00047b50       SDL_ScanLong               0000000180048b50 f   SDL_string.obj
 0001:00047c30       SDL_ScanUnsignedLong       0000000180048c30 f   SDL_string.obj
 0001:00047d00       SDL_ScanUintPtrT           0000000180048d00 f   SDL_string.obj
 0001:00047dd0       SDL_ScanLongLong           0000000180048dd0 f   SDL_string.obj
 0001:00047eb0       SDL_ScanUnsignedLongLong   0000000180048eb0 f   SDL_string.obj
 0001:00047f80       SDL_ScanFloat              0000000180048f80 f   SDL_string.obj
 0001:00048fb0       SDL_TLSCleanup             0000000180049fb0 f   SDL_thread.obj
 0001:00049560       SDL_AddTimerInternal       000000018004a560 f   SDL_timer.obj
 0001:000495b0       SDL_TimerThread            000000018004a5b0 f   SDL_timer.obj
 0001:00049b30       SDL_SoftBlit               000000018004ab30 f   SDL_blit.obj
 0001:00049cc0       SDL_UseAltivecPrefetch     000000018004acc0 f   SDL_blit.obj
 0001:00049cd0       SDL_ChooseBlitFunc         000000018004acd0 f   SDL_blit.obj
 0001:0004a080       BlitBto1                   000000018004b080 f   SDL_blit_0.obj
 0001:0004a180       BlitBto2                   000000018004b180 f   SDL_blit_0.obj
 0001:0004a230       BlitBto3                   000000018004b230 f   SDL_blit_0.obj
 0001:0004a2f0       BlitBto4                   000000018004b2f0 f   SDL_blit_0.obj
 0001:0004a3a0       BlitBto1Key                000000018004b3a0 f   SDL_blit_0.obj
 0001:0004a4d0       BlitBto2Key                000000018004b4d0 f   SDL_blit_0.obj
 0001:0004a5a0       BlitBto3Key                000000018004b5a0 f   SDL_blit_0.obj
 0001:0004a690       BlitBto4Key                000000018004b690 f   SDL_blit_0.obj
 0001:0004a760       BlitBtoNAlpha              000000018004b760 f   SDL_blit_0.obj
 0001:0004ac60       BlitBtoNAlphaKey           000000018004bc60 f   SDL_blit_0.obj
 0001:0004b240       Blit1to1                   000000018004c240 f   SDL_blit_1.obj
 0001:0004b3b0       Blit1to2                   000000018004c3b0 f   SDL_blit_1.obj
 0001:0004b530       Blit1to3                   000000018004c530 f   SDL_blit_1.obj
 0001:0004b7a0       Blit1to4                   000000018004c7a0 f   SDL_blit_1.obj
 0001:0004b910       Blit1to1Key                000000018004c910 f   SDL_blit_1.obj
 0001:0004bbc0       Blit1to2Key                000000018004cbc0 f   SDL_blit_1.obj
 0001:0004bd70       Blit1to3Key                000000018004cd70 f   SDL_blit_1.obj
 0001:0004c000       Blit1to4Key                000000018004d000 f   SDL_blit_1.obj
 0001:0004c1a0       Blit1toNAlpha              000000018004d1a0 f   SDL_blit_1.obj
 0001:0004cd50       Blit1toNAlphaKey           000000018004dd50 f   SDL_blit_1.obj
 0001:0004e510       BlitNto1SurfaceAlpha       000000018004f510 f   SDL_blit_A.obj
 0001:0004ebe0       BlitNto1PixelAlpha         000000018004fbe0 f   SDL_blit_A.obj
 0001:0004f320       BlitNto1SurfaceAlphaKey    0000000180050320 f   SDL_blit_A.obj
 0001:000500a0       BlitRGBtoRGBSurfaceAlpha128 00000001800510a0 f   SDL_blit_A.obj
 0001:00050240       BlitRGBtoRGBSurfaceAlpha   0000000180051240 f   SDL_blit_A.obj
 0001:00050490       BlitRGBtoRGBPixelAlpha     0000000180051490 f   SDL_blit_A.obj
 0001:000507a0       Blit16to16SurfaceAlpha128  00000001800517a0 f   SDL_blit_A.obj
 0001:00050a30       Blit565to565SurfaceAlpha   0000000180051a30 f   SDL_blit_A.obj
 0001:00050c70       Blit555to555SurfaceAlpha   0000000180051c70 f   SDL_blit_A.obj
 0001:00050eb0       BlitARGBto565PixelAlpha    0000000180051eb0 f   SDL_blit_A.obj
 0001:000511d0       BlitARGBto555PixelAlpha    00000001800521d0 f   SDL_blit_A.obj
 0001:000514f0       BlitNtoNSurfaceAlpha       00000001800524f0 f   SDL_blit_A.obj
 0001:00052a60       BlitNtoNSurfaceAlphaKey    0000000180053a60 f   SDL_blit_A.obj
 0001:000538b0       BlitNtoNPixelAlpha         00000001800548b0 f   SDL_blit_A.obj
 0001:00054950       SDL_Blit_RGB888_RGB888_Scale 0000000180055950 f   SDL_blit_auto.obj
 0001:00054a60       SDL_Blit_RGB888_RGB888_Blend 0000000180055a60 f   SDL_blit_auto.obj
 0001:00054be0       SDL_Blit_RGB888_RGB888_Blend_Scale 0000000180055be0 f   SDL_blit_auto.obj
 0001:00054df0       SDL_Blit_RGB888_RGB888_Modulate 0000000180055df0 f   SDL_blit_auto.obj
 0001:00054f10       SDL_Blit_RGB888_RGB888_Modulate_Scale 0000000180055f10 f   SDL_blit_auto.obj
 0001:000550e0       SDL_Blit_RGB888_RGB888_Modulate_Blend 00000001800560e0 f   SDL_blit_auto.obj
 0001:000553d0       SDL_Blit_RGB888_RGB888_Modulate_Blend_Scale 00000001800563d0 f   SDL_blit_auto.obj
 0001:00055780       SDL_Blit_RGB888_BGR888_Scale 0000000180056780 f   SDL_blit_auto.obj
 0001:000558b0       SDL_Blit_RGB888_BGR888_Blend 00000001800568b0 f   SDL_blit_auto.obj
 0001:00055a30       SDL_Blit_RGB888_BGR888_Blend_Scale 0000000180056a30 f   SDL_blit_auto.obj
 0001:00055c40       SDL_Blit_RGB888_BGR888_Modulate 0000000180056c40 f   SDL_blit_auto.obj
 0001:00055d60       SDL_Blit_RGB888_BGR888_Modulate_Scale 0000000180056d60 f   SDL_blit_auto.obj
 0001:00055f40       SDL_Blit_RGB888_BGR888_Modulate_Blend 0000000180056f40 f   SDL_blit_auto.obj
 0001:00056230       SDL_Blit_RGB888_BGR888_Modulate_Blend_Scale 0000000180057230 f   SDL_blit_auto.obj
 0001:000565e0       SDL_Blit_RGB888_ARGB8888_Scale 00000001800575e0 f   SDL_blit_auto.obj
 0001:00056720       SDL_Blit_RGB888_ARGB8888_Blend 0000000180057720 f   SDL_blit_auto.obj
 0001:000568d0       SDL_Blit_RGB888_ARGB8888_Blend_Scale 00000001800578d0 f   SDL_blit_auto.obj
 0001:00056b20       SDL_Blit_RGB888_ARGB8888_Modulate 0000000180057b20 f   SDL_blit_auto.obj
 0001:00056cb0       SDL_Blit_RGB888_ARGB8888_Modulate_Scale 0000000180057cb0 f   SDL_blit_auto.obj
 0001:00056ec0       SDL_Blit_RGB888_ARGB8888_Modulate_Blend 0000000180057ec0 f   SDL_blit_auto.obj
 0001:000571e0       SDL_Blit_RGB888_ARGB8888_Modulate_Blend_Scale 00000001800581e0 f   SDL_blit_auto.obj
 0001:000575b0       SDL_Blit_BGR888_RGB888_Scale 00000001800585b0 f   SDL_blit_auto.obj
 0001:000576e0       SDL_Blit_BGR888_RGB888_Blend 00000001800586e0 f   SDL_blit_auto.obj
 0001:00057860       SDL_Blit_BGR888_RGB888_Blend_Scale 0000000180058860 f   SDL_blit_auto.obj
 0001:00057a70       SDL_Blit_BGR888_RGB888_Modulate 0000000180058a70 f   SDL_blit_auto.obj
 0001:00057b90       SDL_Blit_BGR888_RGB888_Modulate_Scale 0000000180058b90 f   SDL_blit_auto.obj
 0001:00057d70       SDL_Blit_BGR888_RGB888_Modulate_Blend 0000000180058d70 f   SDL_blit_auto.obj
 0001:00058060       SDL_Blit_BGR888_RGB888_Modulate_Blend_Scale 0000000180059060 f   SDL_blit_auto.obj
 0001:00058410       SDL_Blit_BGR888_BGR888_Scale 0000000180059410 f   SDL_blit_auto.obj
 0001:00058520       SDL_Blit_BGR888_BGR888_Blend 0000000180059520 f   SDL_blit_auto.obj
 0001:000586a0       SDL_Blit_BGR888_BGR888_Blend_Scale 00000001800596a0 f   SDL_blit_auto.obj
 0001:000588b0       SDL_Blit_BGR888_BGR888_Modulate 00000001800598b0 f   SDL_blit_auto.obj
 0001:000589d0       SDL_Blit_BGR888_BGR888_Modulate_Scale 00000001800599d0 f   SDL_blit_auto.obj
 0001:00058ba0       SDL_Blit_BGR888_BGR888_Modulate_Blend 0000000180059ba0 f   SDL_blit_auto.obj
 0001:00058e90       SDL_Blit_BGR888_BGR888_Modulate_Blend_Scale 0000000180059e90 f   SDL_blit_auto.obj
 0001:00059240       SDL_Blit_BGR888_ARGB8888_Scale 000000018005a240 f   SDL_blit_auto.obj
 0001:00059380       SDL_Blit_BGR888_ARGB8888_Blend 000000018005a380 f   SDL_blit_auto.obj
 0001:00059530       SDL_Blit_BGR888_ARGB8888_Blend_Scale 000000018005a530 f   SDL_blit_auto.obj
 0001:00059780       SDL_Blit_BGR888_ARGB8888_Modulate 000000018005a780 f   SDL_blit_auto.obj
 0001:00059910       SDL_Blit_BGR888_ARGB8888_Modulate_Scale 000000018005a910 f   SDL_blit_auto.obj
 0001:00059b20       SDL_Blit_BGR888_ARGB8888_Modulate_Blend 000000018005ab20 f   SDL_blit_auto.obj
 0001:00059e40       SDL_Blit_BGR888_ARGB8888_Modulate_Blend_Scale 000000018005ae40 f   SDL_blit_auto.obj
 0001:0005a210       SDL_Blit_ARGB8888_RGB888_Scale 000000018005b210 f   SDL_blit_auto.obj
 0001:0005a350       SDL_Blit_ARGB8888_RGB888_Blend 000000018005b350 f   SDL_blit_auto.obj
 0001:0005a570       SDL_Blit_ARGB8888_RGB888_Blend_Scale 000000018005b570 f   SDL_blit_auto.obj
 0001:0005a880       SDL_Blit_ARGB8888_RGB888_Modulate 000000018005b880 f   SDL_blit_auto.obj
 0001:0005a9a0       SDL_Blit_ARGB8888_RGB888_Modulate_Scale 000000018005b9a0 f   SDL_blit_auto.obj
 0001:0005ab70       SDL_Blit_ARGB8888_RGB888_Modulate_Blend 000000018005bb70 f   SDL_blit_auto.obj
 0001:0005ae50       SDL_Blit_ARGB8888_RGB888_Modulate_Blend_Scale 000000018005be50 f   SDL_blit_auto.obj
 0001:0005b1f0       SDL_Blit_ARGB8888_BGR888_Scale 000000018005c1f0 f   SDL_blit_auto.obj
 0001:0005b320       SDL_Blit_ARGB8888_BGR888_Blend 000000018005c320 f   SDL_blit_auto.obj
 0001:0005b540       SDL_Blit_ARGB8888_BGR888_Blend_Scale 000000018005c540 f   SDL_blit_auto.obj
 0001:0005b850       SDL_Blit_ARGB8888_BGR888_Modulate 000000018005c850 f   SDL_blit_auto.obj
 0001:0005b970       SDL_Blit_ARGB8888_BGR888_Modulate_Scale 000000018005c970 f   SDL_blit_auto.obj
 0001:0005bb50       SDL_Blit_ARGB8888_BGR888_Modulate_Blend 000000018005cb50 f   SDL_blit_auto.obj
 0001:0005be30       SDL_Blit_ARGB8888_BGR888_Modulate_Blend_Scale 000000018005ce30 f   SDL_blit_auto.obj
 0001:0005c1d0       SDL_Blit_ARGB8888_ARGB8888_Scale 000000018005d1d0 f   SDL_blit_auto.obj
 0001:0005c2e0       SDL_Blit_ARGB8888_ARGB8888_Blend 000000018005d2e0 f   SDL_blit_auto.obj
 0001:0005c550       SDL_Blit_ARGB8888_ARGB8888_Blend_Scale 000000018005d550 f   SDL_blit_auto.obj
 0001:0005c890       SDL_Blit_ARGB8888_ARGB8888_Modulate 000000018005d890 f   SDL_blit_auto.obj
 0001:0005ca20       SDL_Blit_ARGB8888_ARGB8888_Modulate_Scale 000000018005da20 f   SDL_blit_auto.obj
 0001:0005cc40       SDL_Blit_ARGB8888_ARGB8888_Modulate_Blend 000000018005dc40 f   SDL_blit_auto.obj
 0001:0005cf50       SDL_Blit_ARGB8888_ARGB8888_Modulate_Blend_Scale 000000018005df50 f   SDL_blit_auto.obj
 0001:0005d310       SDL_Blit_RGBA8888_RGB888_Scale 000000018005e310 f   SDL_blit_auto.obj
 0001:0005d450       SDL_Blit_RGBA8888_RGB888_Blend 000000018005e450 f   SDL_blit_auto.obj
 0001:0005d680       SDL_Blit_RGBA8888_RGB888_Blend_Scale 000000018005e680 f   SDL_blit_auto.obj
 0001:0005d990       SDL_Blit_RGBA8888_RGB888_Modulate 000000018005e990 f   SDL_blit_auto.obj
 0001:0005dab0       SDL_Blit_RGBA8888_RGB888_Modulate_Scale 000000018005eab0 f   SDL_blit_auto.obj
 0001:0005dc80       SDL_Blit_RGBA8888_RGB888_Modulate_Blend 000000018005ec80 f   SDL_blit_auto.obj
 0001:0005df60       SDL_Blit_RGBA8888_RGB888_Modulate_Blend_Scale 000000018005ef60 f   SDL_blit_auto.obj
 0001:0005e310       SDL_Blit_RGBA8888_BGR888_Scale 000000018005f310 f   SDL_blit_auto.obj
 0001:0005e450       SDL_Blit_RGBA8888_BGR888_Blend 000000018005f450 f   SDL_blit_auto.obj
 0001:0005e680       SDL_Blit_RGBA8888_BGR888_Blend_Scale 000000018005f680 f   SDL_blit_auto.obj
 0001:0005e990       SDL_Blit_RGBA8888_BGR888_Modulate 000000018005f990 f   SDL_blit_auto.obj
 0001:0005eac0       SDL_Blit_RGBA8888_BGR888_Modulate_Scale 000000018005fac0 f   SDL_blit_auto.obj
 0001:0005eca0       SDL_Blit_RGBA8888_BGR888_Modulate_Blend 000000018005fca0 f   SDL_blit_auto.obj
 0001:0005ef80       SDL_Blit_RGBA8888_BGR888_Modulate_Blend_Scale 000000018005ff80 f   SDL_blit_auto.obj
 0001:0005f330       SDL_Blit_RGBA8888_ARGB8888_Scale 0000000180060330 f   SDL_blit_auto.obj
 0001:0005f470       SDL_Blit_RGBA8888_ARGB8888_Blend 0000000180060470 f   SDL_blit_auto.obj
 0001:0005f6e0       SDL_Blit_RGBA8888_ARGB8888_Blend_Scale 00000001800606e0 f   SDL_blit_auto.obj
 0001:0005fa30       SDL_Blit_RGBA8888_ARGB8888_Modulate 0000000180060a30 f   SDL_blit_auto.obj
 0001:0005fbc0       SDL_Blit_RGBA8888_ARGB8888_Modulate_Scale 0000000180060bc0 f   SDL_blit_auto.obj
 0001:0005fdd0       SDL_Blit_RGBA8888_ARGB8888_Modulate_Blend 0000000180060dd0 f   SDL_blit_auto.obj
 0001:000600f0       SDL_Blit_RGBA8888_ARGB8888_Modulate_Blend_Scale 00000001800610f0 f   SDL_blit_auto.obj
 0001:000604b0       SDL_Blit_ABGR8888_RGB888_Scale 00000001800614b0 f   SDL_blit_auto.obj
 0001:000605e0       SDL_Blit_ABGR8888_RGB888_Blend 00000001800615e0 f   SDL_blit_auto.obj
 0001:00060800       SDL_Blit_ABGR8888_RGB888_Blend_Scale 0000000180061800 f   SDL_blit_auto.obj
 0001:00060b10       SDL_Blit_ABGR8888_RGB888_Modulate 0000000180061b10 f   SDL_blit_auto.obj
 0001:00060c30       SDL_Blit_ABGR8888_RGB888_Modulate_Scale 0000000180061c30 f   SDL_blit_auto.obj
 0001:00060e10       SDL_Blit_ABGR8888_RGB888_Modulate_Blend 0000000180061e10 f   SDL_blit_auto.obj
 0001:000610f0       SDL_Blit_ABGR8888_RGB888_Modulate_Blend_Scale 00000001800620f0 f   SDL_blit_auto.obj
 0001:00061490       SDL_Blit_ABGR8888_BGR888_Scale 0000000180062490 f   SDL_blit_auto.obj
 0001:000615d0       SDL_Blit_ABGR8888_BGR888_Blend 00000001800625d0 f   SDL_blit_auto.obj
 0001:000617f0       SDL_Blit_ABGR8888_BGR888_Blend_Scale 00000001800627f0 f   SDL_blit_auto.obj
 0001:00061b00       SDL_Blit_ABGR8888_BGR888_Modulate 0000000180062b00 f   SDL_blit_auto.obj
 0001:00061c20       SDL_Blit_ABGR8888_BGR888_Modulate_Scale 0000000180062c20 f   SDL_blit_auto.obj
 0001:00061df0       SDL_Blit_ABGR8888_BGR888_Modulate_Blend 0000000180062df0 f   SDL_blit_auto.obj
 0001:000620d0       SDL_Blit_ABGR8888_BGR888_Modulate_Blend_Scale 00000001800630d0 f   SDL_blit_auto.obj
 0001:00062470       SDL_Blit_ABGR8888_ARGB8888_Scale 0000000180063470 f   SDL_blit_auto.obj
 0001:000625b0       SDL_Blit_ABGR8888_ARGB8888_Blend 00000001800635b0 f   SDL_blit_auto.obj
 0001:00062810       SDL_Blit_ABGR8888_ARGB8888_Blend_Scale 0000000180063810 f   SDL_blit_auto.obj
 0001:00062b50       SDL_Blit_ABGR8888_ARGB8888_Modulate 0000000180063b50 f   SDL_blit_auto.obj
 0001:00062ce0       SDL_Blit_ABGR8888_ARGB8888_Modulate_Scale 0000000180063ce0 f   SDL_blit_auto.obj
 0001:00062f00       SDL_Blit_ABGR8888_ARGB8888_Modulate_Blend 0000000180063f00 f   SDL_blit_auto.obj
 0001:00063210       SDL_Blit_ABGR8888_ARGB8888_Modulate_Blend_Scale 0000000180064210 f   SDL_blit_auto.obj
 0001:000635c0       SDL_Blit_BGRA8888_RGB888_Scale 00000001800645c0 f   SDL_blit_auto.obj
 0001:00063700       SDL_Blit_BGRA8888_RGB888_Blend 0000000180064700 f   SDL_blit_auto.obj
 0001:00063930       SDL_Blit_BGRA8888_RGB888_Blend_Scale 0000000180064930 f   SDL_blit_auto.obj
 0001:00063c40       SDL_Blit_BGRA8888_RGB888_Modulate 0000000180064c40 f   SDL_blit_auto.obj
 0001:00063d70       SDL_Blit_BGRA8888_RGB888_Modulate_Scale 0000000180064d70 f   SDL_blit_auto.obj
 0001:00063f50       SDL_Blit_BGRA8888_RGB888_Modulate_Blend 0000000180064f50 f   SDL_blit_auto.obj
 0001:00064230       SDL_Blit_BGRA8888_RGB888_Modulate_Blend_Scale 0000000180065230 f   SDL_blit_auto.obj
 0001:000645e0       SDL_Blit_BGRA8888_BGR888_Scale 00000001800655e0 f   SDL_blit_auto.obj
 0001:00064720       SDL_Blit_BGRA8888_BGR888_Blend 0000000180065720 f   SDL_blit_auto.obj
 0001:00064950       SDL_Blit_BGRA8888_BGR888_Blend_Scale 0000000180065950 f   SDL_blit_auto.obj
 0001:00064c60       SDL_Blit_BGRA8888_BGR888_Modulate 0000000180065c60 f   SDL_blit_auto.obj
 0001:00064d80       SDL_Blit_BGRA8888_BGR888_Modulate_Scale 0000000180065d80 f   SDL_blit_auto.obj
 0001:00064f50       SDL_Blit_BGRA8888_BGR888_Modulate_Blend 0000000180065f50 f   SDL_blit_auto.obj
 0001:00065230       SDL_Blit_BGRA8888_BGR888_Modulate_Blend_Scale 0000000180066230 f   SDL_blit_auto.obj
 0001:000655e0       SDL_Blit_BGRA8888_ARGB8888_Scale 00000001800665e0 f   SDL_blit_auto.obj
 0001:00065720       SDL_Blit_BGRA8888_ARGB8888_Blend 0000000180066720 f   SDL_blit_auto.obj
 0001:00065980       SDL_Blit_BGRA8888_ARGB8888_Blend_Scale 0000000180066980 f   SDL_blit_auto.obj
 0001:00065cd0       SDL_Blit_BGRA8888_ARGB8888_Modulate 0000000180066cd0 f   SDL_blit_auto.obj
 0001:00065e60       SDL_Blit_BGRA8888_ARGB8888_Modulate_Scale 0000000180066e60 f   SDL_blit_auto.obj
 0001:00066070       SDL_Blit_BGRA8888_ARGB8888_Modulate_Blend 0000000180067070 f   SDL_blit_auto.obj
 0001:00066390       SDL_Blit_BGRA8888_ARGB8888_Modulate_Blend_Scale 0000000180067390 f   SDL_blit_auto.obj
 0001:00066750       SDL_memcpySSE              0000000180067750 f   SDL_blit_copy.obj
 0001:000668f0       Blit_RGB888_index8         00000001800678f0 f   SDL_blit_N.obj
 0001:00066d10       Blit_RGB101010_index8      0000000180067d10 f   SDL_blit_N.obj
 0001:00067130       Blit_RGB888_RGB555         0000000180068130 f   SDL_blit_N.obj
 0001:00067390       Blit_RGB888_RGB565         0000000180068390 f   SDL_blit_N.obj
 0001:000675f0       Blit_RGB565_32             00000001800685f0 f   SDL_blit_N.obj
 0001:000677c0       Blit_RGB565_ARGB8888       00000001800687c0 f   SDL_blit_N.obj
 0001:000677e0       Blit_RGB565_ABGR8888       00000001800687e0 f   SDL_blit_N.obj
 0001:00067800       Blit_RGB565_RGBA8888       0000000180068800 f   SDL_blit_N.obj
 0001:00067820       Blit_RGB565_BGRA8888       0000000180068820 f   SDL_blit_N.obj
 0001:00067840       BlitNto1                   0000000180068840 f   SDL_blit_N.obj
 0001:000688b0       Blit4to4MaskAlpha          00000001800698b0 f   SDL_blit_N.obj
 0001:00068b50       BlitNtoN                   0000000180069b50 f   SDL_blit_N.obj
 0001:00069cc0       BlitNtoNCopyAlpha          000000018006acc0 f   SDL_blit_N.obj
 0001:0006a090       BlitNto1Key                000000018006b090 f   SDL_blit_N.obj
 0001:0006b130       Blit2to2Key                000000018006c130 f   SDL_blit_N.obj
 0001:0006b2f0       BlitNtoNKey                000000018006c2f0 f   SDL_blit_N.obj
 0001:0006c460       BlitNtoNKeyCopyAlpha       000000018006d460 f   SDL_blit_N.obj
 0001:0006d700       Blit2101010toN             000000018006e700 f   SDL_blit_N.obj
 0001:0006e2e0       BlitNto2101010             000000018006f2e0 f   SDL_blit_N.obj
 0001:0006feb0       CorrectAlphaChannel        0000000180070eb0 f   SDL_bmp.obj
 0001:00070be0       SDL_FillRect1SSE           0000000180071be0 f   SDL_fillrect.obj
 0001:00070ce0       SDL_FillRect2SSE           0000000180071ce0 f   SDL_fillrect.obj
 0001:00070dd0       SDL_FillRect4SSE           0000000180071dd0 f   SDL_fillrect.obj
 0001:00070ec0       SDL_FillRect1              0000000180071ec0 f   SDL_fillrect.obj
 0001:00070fe0       SDL_FillRect2              0000000180071fe0 f   SDL_fillrect.obj
 0001:000710b0       SDL_FillRect3              00000001800720b0 f   SDL_fillrect.obj
 0001:00071120       SDL_FillRect4              0000000180072120 f   SDL_fillrect.obj
 0001:000725d0       Map1to1                    00000001800735d0 f   SDL_pixels.obj
 0001:000726d0       Map1toN                    00000001800736d0 f   SDL_pixels.obj
 0001:00072980       MapNto1                    0000000180073980 f   SDL_pixels.obj
 0001:000734c0       ComputeOutCode             00000001800744c0 f   SDL_rect.obj
 0001:00073a80       RLEClipBlit                0000000180074a80 f   SDL_RLEaccel.obj
 0001:00076350       RLEAlphaClipBlit           0000000180077350 f   SDL_RLEaccel.obj
 0001:00076dd0       copy_opaque_16             0000000180077dd0 f   SDL_RLEaccel.obj
 0001:00076ee0       uncopy_opaque_16           0000000180077ee0 f   SDL_RLEaccel.obj
 0001:00077000       copy_transl_565            0000000180078000 f   SDL_RLEaccel.obj
 0001:00077100       copy_transl_555            0000000180078100 f   SDL_RLEaccel.obj
 0001:00077200       uncopy_transl_16           0000000180078200 f   SDL_RLEaccel.obj
 0001:00077330       copy_32                    0000000180078330 f   SDL_RLEaccel.obj
 0001:00077410       uncopy_32                  0000000180078410 f   SDL_RLEaccel.obj
 0001:00077520       RLEAlphaSurface            0000000180078520 f   SDL_RLEaccel.obj
 0001:00077c20       getpix_8                   0000000180078c20 f   SDL_RLEaccel.obj
 0001:00077c30       getpix_16                  0000000180078c30 f   SDL_RLEaccel.obj
 0001:00077c40       getpix_24                  0000000180078c40 f   SDL_RLEaccel.obj
 0001:00077c60       getpix_32                  0000000180078c60 f   SDL_RLEaccel.obj
 0001:00077c70       RLEColorkeySurface         0000000180078c70 f   SDL_RLEaccel.obj
 0001:00078090       UnRLEAlpha                 0000000180079090 f   SDL_RLEaccel.obj
 0001:000786d0       RecursivelyCalculateShapeTree 00000001800796d0 f   SDL_shape.obj
 0001:00078c40       SDL_WindowHasAShape        0000000180079c40 f   SDL_shape.obj
 0001:00078cc0       copy_row1                  0000000180079cc0 f   SDL_stretch.obj
 0001:00078d30       copy_row2                  0000000180079d30 f   SDL_stretch.obj
 0001:00078da0       copy_row4                  0000000180079da0 f   SDL_stretch.obj
 0001:00078e10       copy_row3                  0000000180079e10 f   SDL_stretch.obj
 0001:00079ae0       SDL_CreateSurfaceOnStack   000000018007aae0 f   SDL_surface.obj
 0001:0007a1c0       SDL_ConvertColorkeyToAlpha 000000018007b1c0 f   SDL_surface.obj
 0001:0007a870       ShouldUseTextureFramebuffer 000000018007b870 f   SDL_video.obj
 0001:0007a8f0       cmpmodes                   000000018007b8f0 f   SDL_video.obj
 0001:0007a960       SDL_UninitializedVideo     000000018007b960 f   SDL_video.obj
 0001:0007ab30       SDL_GetIndexOfDisplay      000000018007bb30 f   SDL_video.obj
 0001:0007ae20       SDL_GetNumDisplayModesForDisplay 000000018007be20 f   SDL_video.obj
 0001:0007b110       SDL_GetClosestDisplayModeForDisplay 000000018007c110 f   SDL_video.obj
 0001:0007b350       SDL_SetDisplayModeForDisplay 000000018007c350 f   SDL_video.obj
 0001:0007b930       SDL_RestoreMousePosition   000000018007c930 f   SDL_video.obj
 0001:0007c440       SDL_CreateWindowFramebuffer 000000018007d440 f   SDL_video.obj
 0001:0007ca50       ShouldMinimizeOnFocusLoss  000000018007da50 f   SDL_video.obj
 0001:0007cda0       isAtLeastGL3               000000018007dda0 f   SDL_video.obj
 0001:0007da30       SDL_MessageboxValidForDriver 000000018007ea30 f   SDL_video.obj
 0001:0007dc50       SDL_CreateWindowTexture    000000018007ec50 f   SDL_video.obj
 0001:0007df50       SDL_UpdateWindowTexture    000000018007ef50 f   SDL_video.obj
 0001:0007e030       SDL_DestroyWindowTexture   000000018007f030 f   SDL_video.obj
 0001:0007e110       SDL_UpdateFullscreenMode   000000018007f110 f   SDL_video.obj
 0001:0007ea10       SDL_FinishWindowCreation   000000018007fa10 f   SDL_video.obj
 0001:0007f770       SDL_PrivateSubsystemRefCountIncr 0000000180080770 f   SDL.obj
 0001:0007f820       SDL_PrivateSubsystemRefCountDecr 0000000180080820 f   SDL.obj
 0001:0007f8c0       SDL_PrivateShouldInitSubsystem 00000001800808c0 f   SDL.obj
 0001:0007f970       SDL_PrivateShouldQuitSubsystem 0000000180080970 f   SDL.obj
 0001:0007ff40       debug_print                0000000180080f40 f   SDL_assert.obj
 0001:0007ff80       SDL_AddAssertionToReport   0000000180080f80 f   SDL_assert.obj
 0001:0007ffb0       SDL_ExitProcess            0000000180080fb0 f   SDL_assert.obj
 0001:0007ffd0       SDL_AbortAssertion         0000000180080fd0 f   SDL_assert.obj
 0001:0007fff0       SDL_PromptAssertion        0000000180080ff0 f   SDL_assert.obj
 0001:00080450       SDL_GenerateAssertionReport 0000000180081450 f   SDL_assert.obj
 0001:00080560       SDL_LookupString           0000000180081560 f   SDL_error.obj
 0001:00080570       SDL_GetErrorMsg            0000000180081570 f   SDL_error.obj
 0001:000811b0       SDL_LogOutput              00000001800821b0 f   SDL_log.obj
 0001:00081510       DSOUND_Unload              0000000180082510 f   SDL_directsound.obj
 0001:00081560       DSOUND_Load                0000000180082560 f   SDL_directsound.obj
 0001:00081620       SetDSerror                 0000000180082620 f   SDL_directsound.obj
 0001:00081780       FindAllDevs                0000000180082780 f   SDL_directsound.obj
 0001:000817f0       DSOUND_DetectDevices       00000001800827f0 f   SDL_directsound.obj
 0001:00081810       DSOUND_WaitDevice          0000000180082810 f   SDL_directsound.obj
 0001:00081960       DSOUND_PlayDevice          0000000180082960 f   SDL_directsound.obj
 0001:000819a0       DSOUND_GetDeviceBuf        00000001800829a0 f   SDL_directsound.obj
 0001:00081b30       DSOUND_WaitDone            0000000180082b30 f   SDL_directsound.obj
 0001:00081b90       DSOUND_CloseDevice         0000000180082b90 f   SDL_directsound.obj
 0001:00081c10       CreateSecondary            0000000180082c10 f   SDL_directsound.obj
 0001:00081e90       FindDevGUID                0000000180082e90 f   SDL_directsound.obj
 0001:00081f50       DSOUND_OpenDevice          0000000180082f50 f   SDL_directsound.obj
 0001:00082100       DSOUND_Deinitialize        0000000180083100 f   SDL_directsound.obj
 0001:00082110       DSOUND_Init                0000000180083110 f   SDL_directsound.obj
 0001:00082190       DISKAUD_GetOutputFilename  0000000180083190 f   SDL_diskaudio.obj
 0001:000821d0       DISKAUD_WaitDevice         00000001800831d0 f   SDL_diskaudio.obj
 0001:000821f0       DISKAUD_PlayDevice         00000001800831f0 f   SDL_diskaudio.obj
 0001:00082240       DISKAUD_GetDeviceBuf       0000000180083240 f   SDL_diskaudio.obj
 0001:00082260       DISKAUD_CloseDevice        0000000180083260 f   SDL_diskaudio.obj
 0001:000822e0       DISKAUD_OpenDevice         00000001800832e0 f   SDL_diskaudio.obj
 0001:00082410       DISKAUD_Init               0000000180083410 f   SDL_diskaudio.obj
 0001:00082450       DUMMYAUD_OpenDevice        0000000180083450 f   SDL_dummyaudio.obj
 0001:00082460       DUMMYAUD_Init              0000000180083460 f   SDL_dummyaudio.obj
 0001:00082480       DetectWaveOutDevs          0000000180083480 f   SDL_winmm.obj
 0001:00082550       DetectWaveInDevs           0000000180083550 f   SDL_winmm.obj
 0001:00082620       WINMM_DetectDevices        0000000180083620 f   SDL_winmm.obj
 0001:00082640       CaptureSound               0000000180083640 f   SDL_winmm.obj
 0001:00082670       FillSound                  0000000180083670 f   SDL_winmm.obj
 0001:000826a0       SetMMerror                 00000001800836a0 f   SDL_winmm.obj
 0001:00082750       WINMM_WaitDevice           0000000180083750 f   SDL_winmm.obj
 0001:00082770       WINMM_GetDeviceBuf         0000000180083770 f   SDL_winmm.obj
 0001:000827a0       WINMM_PlayDevice           00000001800837a0 f   SDL_winmm.obj
 0001:00082800       WINMM_WaitDone             0000000180083800 f   SDL_winmm.obj
 0001:00082850       WINMM_CloseDevice          0000000180083850 f   SDL_winmm.obj
 0001:00082990       PrepWaveFormat             0000000180083990 f   SDL_winmm.obj
 0001:00082a60       WINMM_OpenDevice           0000000180083a60 f   SDL_winmm.obj
 0001:00082e90       WINMM_Init                 0000000180083e90 f   SDL_winmm.obj
 0001:00082ef0       XAUDIO2_DetectDevices      0000000180083ef0 f   SDL_xaudio2.obj
 0001:00083070       VoiceCBOnBufferEnd         0000000180084070 f   SDL_xaudio2.obj
 0001:00083090       VoiceCBOnVoiceError        0000000180084090 f   SDL_xaudio2.obj
 0001:000830a0       VoiceCBOnStreamEnd         00000001800840a0 f   SDL_xaudio2.obj
 0001:000830b0       VoiceCBOnVoiceProcessPassStart 00000001800840b0 f   SDL_xaudio2.obj
 0001:000830c0       VoiceCBOnVoiceProcessPassEnd 00000001800840c0 f   SDL_xaudio2.obj
 0001:000830d0       VoiceCBOnBufferStart       00000001800840d0 f   SDL_xaudio2.obj
 0001:000830e0       VoiceCBOnLoopEnd           00000001800840e0 f   SDL_xaudio2.obj
 0001:000830f0       XAUDIO2_GetDeviceBuf       00000001800840f0 f   SDL_xaudio2.obj
 0001:00083110       XAUDIO2_PlayDevice         0000000180084110 f   SDL_xaudio2.obj
 0001:000831e0       XAUDIO2_WaitDevice         00000001800841e0 f   SDL_xaudio2.obj
 0001:00083210       XAUDIO2_WaitDone           0000000180084210 f   SDL_xaudio2.obj
 0001:00083290       XAUDIO2_CloseDevice        0000000180084290 f   SDL_xaudio2.obj
 0001:00083380       XAUDIO2_OpenDevice         0000000180084380 f   SDL_xaudio2.obj
 0001:00083840       XAUDIO2_Deinitialize       0000000180084840 f   SDL_xaudio2.obj
 0001:00083850       XAUDIO2_Init               0000000180084850 f   SDL_xaudio2.obj
 0001:00083c20       DI_SetError                0000000180084c20 f   SDL_syshaptic.obj
 0001:00083c40       DI_GUIDIsSame              0000000180084c40 f   SDL_syshaptic.obj
 0001:00083c70       EnumHapticsCallback        0000000180084c70 f   SDL_syshaptic.obj
 0001:00083dc0       DI_EffectCallback          0000000180084dc0 f   SDL_syshaptic.obj
 0001:00083f00       DI_DeviceObjectCallback    0000000180084f00 f   SDL_syshaptic.obj
 0001:00083f40       SDL_SYS_HapticOpenFromDevice8 0000000180084f40 f   SDL_syshaptic.obj
 0001:00084430       DIGetTriggerButton         0000000180085430 f   SDL_syshaptic.obj
 0001:00084450       SDL_SYS_SetDirection       0000000180085450 f   SDL_syshaptic.obj
 0001:00084550       SDL_SYS_ToDIEFFECT         0000000180085550 f   SDL_syshaptic.obj
 0001:00084e60       SDL_SYS_HapticFreeDIEFFECT 0000000180085e60 f   SDL_syshaptic.obj
 0001:00084ef0       SDL_SYS_HapticEffectType   0000000180085ef0 f   SDL_syshaptic.obj
 0001:00085530       SDL_RunXInputHaptic        0000000180086530 f   SDL_syshaptic.obj
 0001:00085850       SDL_SYS_HapticOpenFromInstance 0000000180086850 f   SDL_syshaptic.obj
 0001:00085920       SDL_SYS_HapticOpenFromXInput 0000000180086920 f   SDL_syshaptic.obj
 0001:00085da0       SetDIerror                 0000000180086da0 f   SDL_dxjoystick.obj
 0001:00085dc0       SDL_IsXInputDevice         0000000180086dc0 f   SDL_dxjoystick.obj
 0001:00086020       SDL_JoystickThread         0000000180087020 f   SDL_dxjoystick.obj
 0001:000863d0       EnumJoysticksCallback      00000001800873d0 f   SDL_dxjoystick.obj
 0001:00086570       AddXInputDevice            0000000180087570 f   SDL_dxjoystick.obj
 0001:000866d0       EnumXInputDevices          00000001800876d0 f   SDL_dxjoystick.obj
 0001:000869f0       SortDevFunc                00000001800879f0 f   SDL_dxjoystick.obj
 0001:00086a10       SortDevObjects             0000000180087a10 f   SDL_dxjoystick.obj
 0001:00086ad0       EnumDevObjectsCallback     0000000180087ad0 f   SDL_dxjoystick.obj
 0001:00087250       TranslatePOV               0000000180088250 f   SDL_dxjoystick.obj
 0001:000872e0       SDL_PrivateJoystickAxis_Int 00000001800882e0 f   SDL_dxjoystick.obj
 0001:00087300       SDL_PrivateJoystickHat_Int 0000000180088300 f   SDL_dxjoystick.obj
 0001:00087320       SDL_PrivateJoystickButton_Int 0000000180088320 f   SDL_dxjoystick.obj
 0001:00088260       D3D_SetError               0000000180089260 f   SDL_render_d3d.obj
 0001:00088560       PixelFormatToD3DFMT        0000000180089560 f   SDL_render_d3d.obj
 0001:000885b0       D3DFMTToPixelFormat        00000001800895b0 f   SDL_render_d3d.obj
 0001:000885e0       D3D_InitRenderState        00000001800895e0 f   SDL_render_d3d.obj
 0001:000887f0       D3D_WindowEvent            00000001800897f0 f   SDL_render_d3d.obj
 0001:00088810       GetScaleQuality            0000000180089810 f   SDL_render_d3d.obj
 0001:00088860       D3D_CreateTexture          0000000180089860 f   SDL_render_d3d.obj
 0001:00088a40       D3D_UpdateTextureInternal  0000000180089a40 f   SDL_render_d3d.obj
 0001:00088be0       D3D_UpdateTexture          0000000180089be0 f   SDL_render_d3d.obj
 0001:00088d90       D3D_UpdateTextureYUV       0000000180089d90 f   SDL_render_d3d.obj
 0001:00088ee0       D3D_LockTexture            0000000180089ee0 f   SDL_render_d3d.obj
 0001:00089050       D3D_UnlockTexture          000000018008a050 f   SDL_render_d3d.obj
 0001:00089110       D3D_UpdateViewport         000000018008a110 f   SDL_render_d3d.obj
 0001:00089270       D3D_UpdateClipRect         000000018008a270 f   SDL_render_d3d.obj
 0001:00089330       D3D_SetBlendMode           000000018008a330 f   SDL_render_d3d.obj
 0001:00089500       D3D_UpdateTextureScaleMode 000000018008a500 f   SDL_render_d3d.obj
 0001:00089580       D3D_RenderReadPixels       000000018008a580 f   SDL_render_d3d.obj
 0001:000897b0       D3D_DestroyTexture         000000018008a7b0 f   SDL_render_d3d.obj
 0001:00089820       D3D_DestroyRenderer        000000018008a820 f   SDL_render_d3d.obj
 0001:00089940       D3D_Reset                  000000018008a940 f   SDL_render_d3d.obj
 0001:000899f0       D3D_ActivateRenderer       000000018008a9f0 f   SDL_render_d3d.obj
 0001:00089af0       D3D_SetRenderTarget        000000018008aaf0 f   SDL_render_d3d.obj
 0001:00089bd0       D3D_RenderClear            000000018008abd0 f   SDL_render_d3d.obj
 0001:00089db0       D3D_RenderDrawPoints       000000018008adb0 f   SDL_render_d3d.obj
 0001:00089f10       D3D_RenderDrawLines        000000018008af10 f   SDL_render_d3d.obj
 0001:0008a0d0       D3D_RenderFillRects        000000018008b0d0 f   SDL_render_d3d.obj
 0001:0008a2d0       D3D_RenderCopy             000000018008b2d0 f   SDL_render_d3d.obj
 0001:0008a5e0       D3D_RenderCopyEx           000000018008b5e0 f   SDL_render_d3d.obj
 0001:0008aaa0       D3D_RenderPresent          000000018008baa0 f   SDL_render_d3d.obj
 0001:0008ab30       D3D_CreateRenderer         000000018008bb30 f   SDL_render_d3d.obj
 0001:0008b520       GL_LoadFunctions           000000018008c520 f   SDL_render_gl.obj
 0001:0008be90       GL_HandleDebugMessage      000000018008ce90 f   SDL_render_gl.obj
 0001:0008bf80       GL_GetFBO                  000000018008cf80 f   SDL_render_gl.obj
 0001:0008c010       GL_WindowEvent             000000018008d010 f   SDL_render_gl.obj
 0001:0008c040       GL_GetOutputSize           000000018008d040 f   SDL_render_gl.obj
 0001:0008c060       GetScaleQuality            000000018008d060 f   SDL_render_gl.obj
 0001:0008c0b0       GL_LockTexture             000000018008d0b0 f   SDL_render_gl.obj
 0001:0008c150       GL_UpdateViewport          000000018008d150 f   SDL_render_gl.obj
 0001:0008c4a0       GL_UpdateClipRect          000000018008d4a0 f   SDL_render_gl.obj
 0001:0008c530       GL_SetShader               000000018008d530 f   SDL_render_gl.obj
 0001:0008c570       GL_SetColor                000000018008d570 f   SDL_render_gl.obj
 0001:0008c600       GL_SetBlendMode            000000018008d600 f   SDL_render_gl.obj
 0001:0008c750       GL_DestroyRenderer         000000018008d750 f   SDL_render_gl.obj
 0001:0008ca90       GL_ActivateRenderer        000000018008da90 f   SDL_render_gl.obj
 0001:0008cb70       GL_ResetState              000000018008db70 f   SDL_render_gl.obj
 0001:0008ce10       GL_CreateTexture           000000018008de10 f   SDL_render_gl.obj
 0001:0008db30       GL_UpdateTexture           000000018008eb30 f   SDL_render_gl.obj
 0001:0008df60       GL_UpdateTextureYUV        000000018008ef60 f   SDL_render_gl.obj
 0001:0008e310       GL_UnlockTexture           000000018008f310 f   SDL_render_gl.obj
 0001:0008e3b0       GL_SetRenderTarget         000000018008f3b0 f   SDL_render_gl.obj
 0001:0008e450       GL_SetDrawingState         000000018008f450 f   SDL_render_gl.obj
 0001:0008e4c0       GL_RenderClear             000000018008f4c0 f   SDL_render_gl.obj
 0001:0008e550       GL_RenderDrawPoints        000000018008f550 f   SDL_render_gl.obj
 0001:0008e5f0       GL_RenderDrawLines         000000018008f5f0 f   SDL_render_gl.obj
 0001:0008e8f0       GL_RenderFillRects         000000018008f8f0 f   SDL_render_gl.obj
 0001:0008eb90       GL_RenderCopy              000000018008fb90 f   SDL_render_gl.obj
 0001:0008eff0       GL_RenderCopyEx            000000018008fff0 f   SDL_render_gl.obj
 0001:0008f500       GL_RenderReadPixels        0000000180090500 f   SDL_render_gl.obj
 0001:0008f8f0       GL_RenderPresent           00000001800908f0 f   SDL_render_gl.obj
 0001:0008f920       GL_DestroyTexture          0000000180090920 f   SDL_render_gl.obj
 0001:0008f9b0       GL_BindTexture             00000001800909b0 f   SDL_render_gl.obj
 0001:0008fa60       GL_UnbindTexture           0000000180090a60 f   SDL_render_gl.obj
 0001:0008fae0       GL_CreateRenderer          0000000180090ae0 f   SDL_render_gl.obj
 0001:0008ffa0       CompileShader              0000000180090fa0 f   SDL_shaders_gl.obj
 0001:00090080       CompileShaderProgram       0000000180091080 f   SDL_shaders_gl.obj
 0001:000901b0       DestroyShaderProgram       00000001800911b0 f   SDL_shaders_gl.obj
 0001:000904d0       SDL_BlendFillRect_RGB555   00000001800914d0 f   SDL_blendfillrect.obj
 0001:00090f60       SDL_BlendFillRect_RGB565   0000000180091f60 f   SDL_blendfillrect.obj
 0001:00091a30       SDL_BlendFillRect_RGB888   0000000180092a30 f   SDL_blendfillrect.obj
 0001:00092170       SDL_BlendFillRect_ARGB8888 0000000180093170 f   SDL_blendfillrect.obj
 0001:00092980       SDL_BlendFillRect_RGB      0000000180093980 f   SDL_blendfillrect.obj
 0001:00094790       SDL_BlendFillRect_RGBA     0000000180095790 f   SDL_blendfillrect.obj
 0001:00095ef0       SDL_BlendLine_RGB2         0000000180096ef0 f   SDL_blendline.obj
 0001:000979f0       SDL_BlendLine_RGB555       00000001800989f0 f   SDL_blendline.obj
 0001:00098d00       SDL_BlendLine_RGB565       0000000180099d00 f   SDL_blendline.obj
 0001:0009a1b0       SDL_BlendLine_RGB4         000000018009b1b0 f   SDL_blendline.obj
 0001:0009bc70       SDL_BlendLine_RGBA4        000000018009cc70 f   SDL_blendline.obj
 0001:0009da20       SDL_BlendLine_RGB888       000000018009ea20 f   SDL_blendline.obj
 0001:0009ea10       SDL_BlendLine_ARGB8888     000000018009fa10 f   SDL_blendline.obj
 0001:0009f990       SDL_CalculateBlendLineFunc 00000001800a0990 f   SDL_blendline.obj
 0001:0009fd20       SDL_BlendPoint_RGB555      00000001800a0d20 f   SDL_blendpoint.obj
 0001:0009fff0       SDL_BlendPoint_RGB565      00000001800a0ff0 f   SDL_blendpoint.obj
 0001:000a02c0       SDL_BlendPoint_RGB888      00000001800a12c0 f   SDL_blendpoint.obj
 0001:000a04c0       SDL_BlendPoint_ARGB8888    00000001800a14c0 f   SDL_blendpoint.obj
 0001:000a06f0       SDL_BlendPoint_RGB         00000001800a16f0 f   SDL_blendpoint.obj
 0001:000a0e10       SDL_BlendPoint_RGBA        00000001800a1e10 f   SDL_blendpoint.obj
 0001:000a1770       SDL_DrawLine1              00000001800a2770 f   SDL_drawline.obj
 0001:000a1a90       SDL_DrawLine2              00000001800a2a90 f   SDL_drawline.obj
 0001:000a1fd0       SDL_DrawLine4              00000001800a2fd0 f   SDL_drawline.obj
 0001:000a2540       SDL_CalculateDrawLineFunc  00000001800a3540 f   SDL_drawline.obj
 0001:000a29d0       SW_WindowEvent             00000001800a39d0 f   SDL_render_sw.obj
 0001:000a29f0       SW_CreateTexture           00000001800a39f0 f   SDL_render_sw.obj
 0001:000a2ad0       SW_SetTextureColorMod      00000001800a3ad0 f   SDL_render_sw.obj
 0001:000a2af0       SW_SetTextureAlphaMod      00000001800a3af0 f   SDL_render_sw.obj
 0001:000a2b10       SW_SetTextureBlendMode     00000001800a3b10 f   SDL_render_sw.obj
 0001:000a2b30       SW_UpdateTexture           00000001800a3b30 f   SDL_render_sw.obj
 0001:000a2c10       SW_LockTexture             00000001800a3c10 f   SDL_render_sw.obj
 0001:000a2c50       SW_UnlockTexture           00000001800a3c50 f   SDL_render_sw.obj
 0001:000a2c60       SW_SetRenderTarget         00000001800a3c60 f   SDL_render_sw.obj
 0001:000a2c90       SW_UpdateViewport          00000001800a3c90 f   SDL_render_sw.obj
 0001:000a2cc0       SW_UpdateClipRect          00000001800a3cc0 f   SDL_render_sw.obj
 0001:000a2d10       GetScaleQuality            00000001800a3d10 f   SDL_render_sw.obj
 0001:000a2d60       SW_RenderPresent           00000001800a3d60 f   SDL_render_sw.obj
 0001:000a2d80       SW_DestroyTexture          00000001800a3d80 f   SDL_render_sw.obj
 0001:000a2d90       SW_DestroyRenderer         00000001800a3d90 f   SDL_render_sw.obj
 0001:000a2dc0       SW_ActivateRenderer        00000001800a3dc0 f   SDL_render_sw.obj
 0001:000a2e30       SW_GetOutputSize           00000001800a3e30 f   SDL_render_sw.obj
 0001:000a2e90       SW_RenderClear             00000001800a3e90 f   SDL_render_sw.obj
 0001:000a2f40       SW_RenderDrawPoints        00000001800a3f40 f   SDL_render_sw.obj
 0001:000a3270       SW_RenderDrawLines         00000001800a4270 f   SDL_render_sw.obj
 0001:000a35a0       SW_RenderFillRects         00000001800a45a0 f   SDL_render_sw.obj
 0001:000a3aa0       SW_RenderCopy              00000001800a4aa0 f   SDL_render_sw.obj
 0001:000a3b80       SW_RenderCopyEx            00000001800a4b80 f   SDL_render_sw.obj
 0001:000a40d0       SW_RenderReadPixels        00000001800a50d0 f   SDL_render_sw.obj
 0001:000a43c0       SW_CreateRenderer          00000001800a53c0 f   SDL_render_sw.obj
 0001:000a43e0       _colorkey                  00000001800a53e0 f   SDL_rotate.obj
 0001:000a4a10       _transformSurfaceRGBA      00000001800a5a10 f   SDL_rotate.obj
 0001:000a4ec0       transformSurfaceY          00000001800a5ec0 f   SDL_rotate.obj
 0001:000a5720       RunThread                  00000001800a6720 f   SDL_systhread.obj
 0001:000a5760       RunThreadViaCreateThread   00000001800a6760 f   SDL_systhread.obj
 0001:000a5770       RunThreadViaBeginThreadEx  00000001800a6770 f   SDL_systhread.obj
 0001:000a5c70       timeSetPeriod              00000001800a6c70 f   SDL_systimer.obj
 0001:000a5cb0       SDL_TimerResolutionChanged 00000001800a6cb0 f   SDL_systimer.obj
 0001:000a6070       DUMMY_Available            00000001800a7070 f   SDL_nullvideo.obj
 0001:000a60b0       DUMMY_DeleteDevice         00000001800a70b0 f   SDL_nullvideo.obj
 0001:000a60c0       DUMMY_VideoInit            00000001800a70c0 f   SDL_nullvideo.obj
 0001:000a6140       DUMMY_SetDisplayMode       00000001800a7140 f   SDL_nullvideo.obj
 0001:000a6150       DUMMY_VideoQuit            00000001800a7150 f   SDL_nullvideo.obj
 0001:000a6160       DUMMY_CreateDevice         00000001800a7160 f   SDL_nullvideo.obj
 0001:000a6200       GetWindowHandle            00000001800a7200 f   SDL_windowsclipboard.obj
 0001:000a6520       WindowsScanCodeToSDLScanCode 00000001800a7520 f   SDL_windowsevents.obj
 0001:000a8280       IME_GetId                  00000001800a9280 f   SDL_windowskeyboard.obj
 0001:000a8630       IME_SetupAPI               00000001800a9630 f   SDL_windowskeyboard.obj
 0001:000a8700       IME_SetWindow              00000001800a9700 f   SDL_windowskeyboard.obj
 0001:000a8750       IME_UpdateInputLocale      00000001800a9750 f   SDL_windowskeyboard.obj
 0001:000a87e0       IME_ClearComposition       00000001800a97e0 f   SDL_windowskeyboard.obj
 0001:000a8890       IME_GetCompositionString   00000001800a9890 f   SDL_windowskeyboard.obj
 0001:000a8950       IME_SendInputEvent         00000001800a9950 f   SDL_windowskeyboard.obj
 0001:000a89d0       IME_SendEditingEvent       00000001800a99d0 f   SDL_windowskeyboard.obj
 0001:000a8ae0       IME_AddCandidate           00000001800a9ae0 f   SDL_windowskeyboard.obj
 0001:000a8b90       IME_GetCandidateList       00000001800a9b90 f   SDL_windowskeyboard.obj
 0001:000a8f40       UILess_EnableUIUpdates     00000001800a9f40 f   SDL_windowskeyboard.obj
 0001:000a8fd0       UILess_DisableUIUpdates    00000001800a9fd0 f   SDL_windowskeyboard.obj
 0001:000a9040       UILess_SetupSinks          00000001800aa040 f   SDL_windowskeyboard.obj
 0001:000a91a0       UILess_ReleaseSinks        00000001800aa1a0 f   SDL_windowskeyboard.obj
 0001:000a9280       StartDrawToBitmap          00000001800aa280 f   SDL_windowskeyboard.obj
 0001:000a9350       StopDrawToBitmap           00000001800aa350 f   SDL_windowskeyboard.obj
 0001:000a9380       DrawRect                   00000001800aa380 f   SDL_windowskeyboard.obj
 0001:000a9410       IME_DestroyTextures        00000001800aa410 f   SDL_windowskeyboard.obj
 0001:000a9420       IME_PositionCandidateList  00000001800aa420 f   SDL_windowskeyboard.obj
 0001:000a9510       IME_RenderCandidateList    00000001800aa510 f   SDL_windowskeyboard.obj
 0001:000a9a90       IME_Render                 00000001800aaa90 f   SDL_windowskeyboard.obj
 0001:000a9c80       IME_Disable                00000001800aac80 f   SDL_windowskeyboard.obj
 0001:000a9cd0       IME_Quit                   00000001800aacd0 f   SDL_windowskeyboard.obj
 0001:000a9d60       IME_GetReadingString       00000001800aad60 f   SDL_windowskeyboard.obj
 0001:000aa010       IME_InputLangChanged       00000001800ab010 f   SDL_windowskeyboard.obj
 0001:000aa090       IME_ShowCandidateList      00000001800ab090 f   SDL_windowskeyboard.obj
 0001:000aa0b0       IME_HideCandidateList      00000001800ab0b0 f   SDL_windowskeyboard.obj
 0001:000aa3f0       IME_CloseCandidateList     00000001800ab3f0 f   SDL_windowskeyboard.obj
 0001:000aa430       UILess_GetCandidateList    00000001800ab430 f   SDL_windowskeyboard.obj
 0001:000aa950       IME_Init                   00000001800ab950 f   SDL_windowskeyboard.obj
 0001:000aaac0       IME_Enable                 00000001800abac0 f   SDL_windowskeyboard.obj
 0001:000aabe0       MessageBoxDialogProc       00000001800abbe0 f   SDL_windowsmessagebox.obj
 0001:000aac20       ExpandDialogSpace          00000001800abc20 f   SDL_windowsmessagebox.obj
 0001:000aacb0       AlignDialogData            00000001800abcb0 f   SDL_windowsmessagebox.obj
 0001:000aad00       AddDialogData              00000001800abd00 f   SDL_windowsmessagebox.obj
 0001:000aad70       AddDialogString            00000001800abd70 f   SDL_windowsmessagebox.obj
 0001:000aae20       Vec2ToDLU                  00000001800abe20 f   SDL_windowsmessagebox.obj
 0001:000aae80       AddDialogControl           00000001800abe80 f   SDL_windowsmessagebox.obj
 0001:000aafc0       AddDialogStatic            00000001800abfc0 f   SDL_windowsmessagebox.obj
 0001:000ab020       AddDialogButton            00000001800ac020 f   SDL_windowsmessagebox.obj
 0001:000ab090       FreeDialogData             00000001800ac090 f   SDL_windowsmessagebox.obj
 0001:000ab0c0       CreateDialogData           00000001800ac0c0 f   SDL_windowsmessagebox.obj
 0001:000ab540       WIN_GetDisplayMode         00000001800ac540 f   SDL_windowsmodes.obj
 0001:000ab7e0       WIN_AddDisplay             00000001800ac7e0 f   SDL_windowsmodes.obj
 0001:000abc80       WIN_CreateDefaultCursor    00000001800acc80 f   SDL_windowsmouse.obj
 0001:000abcd0       WIN_CreateCursor           00000001800accd0 f   SDL_windowsmouse.obj
 0001:000abee0       WIN_CreateSystemCursor     00000001800acee0 f   SDL_windowsmouse.obj
 0001:000abff0       WIN_FreeCursor             00000001800acff0 f   SDL_windowsmouse.obj
 0001:000ac020       WIN_ShowCursor             00000001800ad020 f   SDL_windowsmouse.obj
 0001:000ac070       WIN_WarpMouse              00000001800ad070 f   SDL_windowsmouse.obj
 0001:000ac0b0       WIN_SetRelativeMouseMode   00000001800ad0b0 f   SDL_windowsmouse.obj
 0001:000ac470       WIN_GL_SetupPixelFormat    00000001800ad470 f   SDL_windowsopengl.obj
 0001:000ac580       WIN_GL_ChoosePixelFormat   00000001800ad580 f   SDL_windowsopengl.obj
 0001:000ac8a0       HasExtension               00000001800ad8a0 f   SDL_windowsopengl.obj
 0001:000ac960       WIN_GL_InitExtensions      00000001800ad960 f   SDL_windowsopengl.obj
 0001:000acac0       WIN_GL_ChoosePixelFormatARB 00000001800adac0 f   SDL_windowsopengl.obj
 0001:000acc40       WIN_GL_SetupWindowInternal 00000001800adc40 f   SDL_windowsopengl.obj
 0001:000ad500       WIN_Available              00000001800ae500 f   SDL_windowsvideo.obj
 0001:000ad510       WIN_DeleteDevice           00000001800ae510 f   SDL_windowsvideo.obj
 0001:000ad560       WIN_VideoInit              00000001800ae560 f   SDL_windowsvideo.obj
 0001:000ad5a0       WIN_VideoQuit              00000001800ae5a0 f   SDL_windowsvideo.obj
 0001:000ad7b0       WIN_CreateDevice           00000001800ae7b0 f   SDL_windowsvideo.obj
 0001:000adb00       GetWindowStyle             00000001800aeb00 f   SDL_windowswindow.obj
 0001:000adb30       WIN_SetWindowPositionInternal 00000001800aeb30 f   SDL_windowswindow.obj
 0001:000adc30       SetupWindowData            00000001800aec30 f   SDL_windowswindow.obj

 Exports

  ordinal    name

        1    SDL_AddEventWatch
        2    SDL_AddHintCallback
        3    SDL_AddTimer
        4    SDL_AllocFormat
        5    SDL_AllocPalette
        6    SDL_AllocRW
        7    SDL_AtomicCAS
        8    SDL_AtomicCASPtr
        9    SDL_AtomicLock
       10    SDL_AtomicTryLock
       11    SDL_AtomicUnlock
       12    SDL_AudioInit
       13    SDL_AudioQuit
       14    SDL_BuildAudioCVT
       15    SDL_CalculateGammaRamp
       16    SDL_ClearError
       17    SDL_ClearHints
       18    SDL_CloseAudio
       19    SDL_CloseAudioDevice
       20    SDL_CondBroadcast
       21    SDL_CondSignal
       22    SDL_CondWait
       23    SDL_CondWaitTimeout
       24    SDL_ConvertAudio
       25    SDL_ConvertPixels
       26    SDL_ConvertSurface
       27    SDL_ConvertSurfaceFormat
       28    SDL_CreateColorCursor
       29    SDL_CreateCond
       30    SDL_CreateCursor
       31    SDL_CreateMutex
       32    SDL_CreateRGBSurface
       33    SDL_CreateRGBSurfaceFrom
       34    SDL_CreateRenderer
       35    SDL_CreateSemaphore
       36    SDL_CreateShapedWindow
       37    SDL_CreateSoftwareRenderer
       38    SDL_CreateSystemCursor
       39    SDL_CreateTexture
       40    SDL_CreateTextureFromSurface
       41    SDL_CreateThread
       42    SDL_CreateWindow
       43    SDL_CreateWindowAndRenderer
       44    SDL_CreateWindowFrom
       45    SDL_DelEventWatch
       46    SDL_DelHintCallback
       47    SDL_Delay
       48    SDL_DestroyCond
       49    SDL_DestroyMutex
       50    SDL_DestroyRenderer
       51    SDL_DestroySemaphore
       52    SDL_DestroyTexture
       53    SDL_DestroyWindow
       54    SDL_Direct3D9GetAdapterIndex
       55    SDL_DisableScreenSaver
       56    SDL_EnableScreenSaver
       57    SDL_EnclosePoints
       58    SDL_Error
       59    SDL_EventState
       60    SDL_FillRect
       61    SDL_FillRects
       62    SDL_FilterEvents
       63    SDL_FlushEvent
       64    SDL_FlushEvents
       65    SDL_FreeCursor
       66    SDL_FreeFormat
       67    SDL_FreePalette
       68    SDL_FreeRW
       69    SDL_FreeSurface
       70    SDL_FreeWAV
       71    SDL_GL_BindTexture
       72    SDL_GL_CreateContext
       73    SDL_GL_DeleteContext
       74    SDL_GL_ExtensionSupported
       75    SDL_GL_GetAttribute
       76    SDL_GL_GetCurrentContext
       77    SDL_GL_GetCurrentWindow
       78    SDL_GL_GetDrawableSize
       79    SDL_GL_GetProcAddress
       80    SDL_GL_GetSwapInterval
       81    SDL_GL_LoadLibrary
       82    SDL_GL_MakeCurrent
       83    SDL_GL_SetAttribute
       84    SDL_GL_SetSwapInterval
       85    SDL_GL_SwapWindow
       86    SDL_GL_UnbindTexture
       87    SDL_GL_UnloadLibrary
       88    SDL_GameControllerAddMapping
       89    SDL_GameControllerClose
       90    SDL_GameControllerEventState
       91    SDL_GameControllerGetAttached
       92    SDL_GameControllerGetAxis
       93    SDL_GameControllerGetAxisFromString
       94    SDL_GameControllerGetBindForAxis
       95    SDL_GameControllerGetBindForButton
       96    SDL_GameControllerGetButton
       97    SDL_GameControllerGetButtonFromString
       98    SDL_GameControllerGetJoystick
       99    SDL_GameControllerGetStringForAxis
      100    SDL_GameControllerGetStringForButton
      101    SDL_GameControllerMapping
      102    SDL_GameControllerMappingForGUID
      103    SDL_GameControllerName
      104    SDL_GameControllerNameForIndex
      105    SDL_GameControllerOpen
      106    SDL_GameControllerUpdate
      107    SDL_GetAssertionReport
      108    SDL_GetAudioDeviceName
      109    SDL_GetAudioDeviceStatus
      110    SDL_GetAudioDriver
      111    SDL_GetAudioStatus
      112    SDL_GetBasePath
      113    SDL_GetCPUCacheLineSize
      114    SDL_GetCPUCount
      115    SDL_GetClipRect
      116    SDL_GetClipboardText
      117    SDL_GetClosestDisplayMode
      118    SDL_GetColorKey
      119    SDL_GetCurrentAudioDriver
      120    SDL_GetCurrentDisplayMode
      121    SDL_GetCurrentVideoDriver
      122    SDL_GetCursor
      123    SDL_GetDefaultCursor
      124    SDL_GetDesktopDisplayMode
      125    SDL_GetDisplayBounds
      126    SDL_GetDisplayMode
      127    SDL_GetDisplayName
      128    SDL_GetError
      129    SDL_GetEventFilter
      130    SDL_GetHint
      131    SDL_GetKeyFromName
      132    SDL_GetKeyFromScancode
      133    SDL_GetKeyName
      134    SDL_GetKeyboardFocus
      135    SDL_GetKeyboardState
      136    SDL_GetModState
      137    SDL_GetMouseFocus
      138    SDL_GetMouseState
      139    SDL_GetNumAudioDevices
      140    SDL_GetNumAudioDrivers
      141    SDL_GetNumDisplayModes
      142    SDL_GetNumRenderDrivers
      143    SDL_GetNumTouchDevices
      144    SDL_GetNumTouchFingers
      145    SDL_GetNumVideoDisplays
      146    SDL_GetNumVideoDrivers
      147    SDL_GetPerformanceCounter
      148    SDL_GetPerformanceFrequency
      149    SDL_GetPixelFormatName
      150    SDL_GetPlatform
      151    SDL_GetPowerInfo
      152    SDL_GetPrefPath
      153    SDL_GetRGB
      154    SDL_GetRGBA
      155    SDL_GetRelativeMouseMode
      156    SDL_GetRelativeMouseState
      157    SDL_GetRenderDrawBlendMode
      158    SDL_GetRenderDrawColor
      159    SDL_GetRenderDriverInfo
      160    SDL_GetRenderTarget
      161    SDL_GetRenderer
      162    SDL_GetRendererInfo
      163    SDL_GetRendererOutputSize
      164    SDL_GetRevision
      165    SDL_GetRevisionNumber
      166    SDL_GetScancodeFromKey
      167    SDL_GetScancodeFromName
      168    SDL_GetScancodeName
      169    SDL_GetShapedWindowMode
      170    SDL_GetSurfaceAlphaMod
      171    SDL_GetSurfaceBlendMode
      172    SDL_GetSurfaceColorMod
      173    SDL_GetSystemRAM
      174    SDL_GetTextureAlphaMod
      175    SDL_GetTextureBlendMode
      176    SDL_GetTextureColorMod
      177    SDL_GetThreadID
      178    SDL_GetThreadName
      179    SDL_GetTicks
      180    SDL_GetTouchDevice
      181    SDL_GetTouchFinger
      182    SDL_GetVersion
      183    SDL_GetVideoDriver
      184    SDL_GetWindowBrightness
      185    SDL_GetWindowData
      186    SDL_GetWindowDisplayIndex
      187    SDL_GetWindowDisplayMode
      188    SDL_GetWindowFlags
      189    SDL_GetWindowFromID
      190    SDL_GetWindowGammaRamp
      191    SDL_GetWindowGrab
      192    SDL_GetWindowID
      193    SDL_GetWindowMaximumSize
      194    SDL_GetWindowMinimumSize
      195    SDL_GetWindowPixelFormat
      196    SDL_GetWindowPosition
      197    SDL_GetWindowSize
      198    SDL_GetWindowSurface
      199    SDL_GetWindowTitle
      200    SDL_GetWindowWMInfo
      201    SDL_HapticClose
      202    SDL_HapticDestroyEffect
      203    SDL_HapticEffectSupported
      204    SDL_HapticGetEffectStatus
      205    SDL_HapticIndex
      206    SDL_HapticName
      207    SDL_HapticNewEffect
      208    SDL_HapticNumAxes
      209    SDL_HapticNumEffects
      210    SDL_HapticNumEffectsPlaying
      211    SDL_HapticOpen
      212    SDL_HapticOpenFromJoystick
      213    SDL_HapticOpenFromMouse
      214    SDL_HapticOpened
      215    SDL_HapticPause
      216    SDL_HapticQuery
      217    SDL_HapticRumbleInit
      218    SDL_HapticRumblePlay
      219    SDL_HapticRumbleStop
      220    SDL_HapticRumbleSupported
      221    SDL_HapticRunEffect
      222    SDL_HapticSetAutocenter
      223    SDL_HapticSetGain
      224    SDL_HapticStopAll
      225    SDL_HapticStopEffect
      226    SDL_HapticUnpause
      227    SDL_HapticUpdateEffect
      228    SDL_Has3DNow
      229    SDL_HasAltiVec
      230    SDL_HasClipboardText
      231    SDL_HasEvent
      232    SDL_HasEvents
      233    SDL_HasIntersection
      234    SDL_HasMMX
      235    SDL_HasRDTSC
      236    SDL_HasSSE
      237    SDL_HasSSE2
      238    SDL_HasSSE3
      239    SDL_HasSSE41
      240    SDL_HasSSE42
      241    SDL_HasScreenKeyboardSupport
      242    SDL_HideWindow
      243    SDL_Init
      244    SDL_InitSubSystem
      245    SDL_IntersectRect
      246    SDL_IntersectRectAndLine
      247    SDL_IsGameController
      248    SDL_IsScreenKeyboardShown
      249    SDL_IsScreenSaverEnabled
      250    SDL_IsShapedWindow
      251    SDL_IsTextInputActive
      252    SDL_JoystickClose
      253    SDL_JoystickEventState
      254    SDL_JoystickGetAttached
      255    SDL_JoystickGetAxis
      256    SDL_JoystickGetBall
      257    SDL_JoystickGetButton
      258    SDL_JoystickGetDeviceGUID
      259    SDL_JoystickGetGUID
      260    SDL_JoystickGetGUIDFromString
      261    SDL_JoystickGetGUIDString
      262    SDL_JoystickGetHat
      263    SDL_JoystickInstanceID
      264    SDL_JoystickIsHaptic
      265    SDL_JoystickName
      266    SDL_JoystickNameForIndex
      267    SDL_JoystickNumAxes
      268    SDL_JoystickNumBalls
      269    SDL_JoystickNumButtons
      270    SDL_JoystickNumHats
      271    SDL_JoystickOpen
      272    SDL_JoystickUpdate
      273    SDL_LoadBMP_RW
      274    SDL_LoadDollarTemplates
      275    SDL_LoadFunction
      276    SDL_LoadObject
      277    SDL_LoadWAV_RW
      278    SDL_LockAudio
      279    SDL_LockAudioDevice
      280    SDL_LockMutex
      281    SDL_LockSurface
      282    SDL_LockTexture
      283    SDL_Log
      284    SDL_LogCritical
      285    SDL_LogDebug
      286    SDL_LogError
      287    SDL_LogGetOutputFunction
      288    SDL_LogGetPriority
      289    SDL_LogInfo
      290    SDL_LogMessage
      291    SDL_LogMessageV
      292    SDL_LogResetPriorities
      293    SDL_LogSetAllPriority
      294    SDL_LogSetOutputFunction
      295    SDL_LogSetPriority
      296    SDL_LogVerbose
      297    SDL_LogWarn
      298    SDL_LowerBlit
      299    SDL_LowerBlitScaled
      300    SDL_MapRGB
      301    SDL_MapRGBA
      302    SDL_MasksToPixelFormatEnum
      303    SDL_MaximizeWindow
      304    SDL_MinimizeWindow
      305    SDL_MixAudio
      306    SDL_MixAudioFormat
      307    SDL_MouseIsHaptic
      308    SDL_NumHaptics
      309    SDL_NumJoysticks
      310    SDL_OpenAudio
      311    SDL_OpenAudioDevice
      312    SDL_PauseAudio
      313    SDL_PauseAudioDevice
      314    SDL_PeepEvents
      315    SDL_PixelFormatEnumToMasks
      316    SDL_PollEvent
      317    SDL_PumpEvents
      318    SDL_PushEvent
      319    SDL_QueryTexture
      320    SDL_Quit
      321    SDL_QuitSubSystem
      322    SDL_RWFromConstMem
      323    SDL_RWFromFP
      324    SDL_RWFromFile
      325    SDL_RWFromMem
      326    SDL_RaiseWindow
      327    SDL_ReadBE16
      328    SDL_ReadBE32
      329    SDL_ReadBE64
      330    SDL_ReadLE16
      331    SDL_ReadLE32
      332    SDL_ReadLE64
      333    SDL_ReadU8
      334    SDL_RecordGesture
      335    SDL_RegisterEvents
      336    SDL_RemoveTimer
      337    SDL_RenderClear
      338    SDL_RenderCopy
      339    SDL_RenderCopyEx
      340    SDL_RenderDrawLine
      341    SDL_RenderDrawLines
      342    SDL_RenderDrawPoint
      343    SDL_RenderDrawPoints
      344    SDL_RenderDrawRect
      345    SDL_RenderDrawRects
      346    SDL_RenderFillRect
      347    SDL_RenderFillRects
      348    SDL_RenderGetClipRect
      349    SDL_RenderGetD3D9Device
      350    SDL_RenderGetLogicalSize
      351    SDL_RenderGetScale
      352    SDL_RenderGetViewport
      353    SDL_RenderPresent
      354    SDL_RenderReadPixels
      355    SDL_RenderSetClipRect
      356    SDL_RenderSetLogicalSize
      357    SDL_RenderSetScale
      358    SDL_RenderSetViewport
      359    SDL_RenderTargetSupported
      360    SDL_ReportAssertion
      361    SDL_ResetAssertionReport
      362    SDL_RestoreWindow
      363    SDL_SaveAllDollarTemplates
      364    SDL_SaveBMP_RW
      365    SDL_SaveDollarTemplate
      366    SDL_SemPost
      367    SDL_SemTryWait
      368    SDL_SemValue
      369    SDL_SemWait
      370    SDL_SemWaitTimeout
      371    SDL_SetAssertionHandler
      372    SDL_SetClipRect
      373    SDL_SetClipboardText
      374    SDL_SetColorKey
      375    SDL_SetCursor
      376    SDL_SetError
      377    SDL_SetEventFilter
      378    SDL_SetHint
      379    SDL_SetHintWithPriority
      380    SDL_SetMainReady
      381    SDL_SetModState
      382    SDL_SetPaletteColors
      383    SDL_SetPixelFormatPalette
      384    SDL_SetRelativeMouseMode
      385    SDL_SetRenderDrawBlendMode
      386    SDL_SetRenderDrawColor
      387    SDL_SetRenderTarget
      388    SDL_SetSurfaceAlphaMod
      389    SDL_SetSurfaceBlendMode
      390    SDL_SetSurfaceColorMod
      391    SDL_SetSurfacePalette
      392    SDL_SetSurfaceRLE
      393    SDL_SetTextInputRect
      394    SDL_SetTextureAlphaMod
      395    SDL_SetTextureBlendMode
      396    SDL_SetTextureColorMod
      397    SDL_SetThreadPriority
      398    SDL_SetWindowBordered
      399    SDL_SetWindowBrightness
      400    SDL_SetWindowData
      401    SDL_SetWindowDisplayMode
      402    SDL_SetWindowFullscreen
      403    SDL_SetWindowGammaRamp
      404    SDL_SetWindowGrab
      405    SDL_SetWindowIcon
      406    SDL_SetWindowMaximumSize
      407    SDL_SetWindowMinimumSize
      408    SDL_SetWindowPosition
      409    SDL_SetWindowShape
      410    SDL_SetWindowSize
      411    SDL_SetWindowTitle
      412    SDL_ShowCursor
      413    SDL_ShowMessageBox
      414    SDL_ShowSimpleMessageBox
      415    SDL_ShowWindow
      416    SDL_SoftStretch
      417    SDL_StartTextInput
      418    SDL_StopTextInput
      419    SDL_TLSCreate
      420    SDL_TLSGet
      421    SDL_TLSSet
      422    SDL_ThreadID
      423    SDL_TryLockMutex
      424    SDL_UnionRect
      425    SDL_UnloadObject
      426    SDL_UnlockAudio
      427    SDL_UnlockAudioDevice
      428    SDL_UnlockMutex
      429    SDL_UnlockSurface
      430    SDL_UnlockTexture
      431    SDL_UpdateTexture
      432    SDL_UpdateWindowSurface
      433    SDL_UpdateWindowSurfaceRects
      434    SDL_UpdateYUVTexture
      435    SDL_UpperBlit
      436    SDL_UpperBlitScaled
      437    SDL_VideoInit
      438    SDL_VideoQuit
      439    SDL_WaitEvent
      440    SDL_WaitEventTimeout
      441    SDL_WaitThread
      442    SDL_WarpMouseInWindow
      443    SDL_WasInit
      444    SDL_WriteBE16
      445    SDL_WriteBE32
      446    SDL_WriteBE64
      447    SDL_WriteLE16
      448    SDL_WriteLE32
      449    SDL_WriteLE64
      450    SDL_WriteU8
      451    SDL_abs
      452    SDL_atan
      453    SDL_atan2
      454    SDL_atof
      455    SDL_atoi
      456    SDL_calloc
      457    SDL_ceil
      458    SDL_copysign
      459    SDL_cos
      460    SDL_cosf
      461    SDL_fabs
      462    SDL_floor
      463    SDL_free
      464    SDL_getenv
      465    SDL_iconv
      466    SDL_iconv_close
      467    SDL_iconv_open
      468    SDL_iconv_string
      469    SDL_isdigit
      470    SDL_isspace
      471    SDL_itoa
      472    SDL_lltoa
      473    SDL_log
      474    SDL_ltoa
      475    SDL_malloc
      476    SDL_memcmp
      477    SDL_memcpy
      478    SDL_memmove
      479    SDL_memset
      480    SDL_pow
      481    SDL_qsort
      482    SDL_realloc
      483    SDL_scalbn
      484    SDL_setenv
      485    SDL_sin
      486    SDL_sinf
      487    SDL_snprintf
      488    SDL_sqrt
      489    SDL_sscanf
      490    SDL_strcasecmp
      491    SDL_strchr
      492    SDL_strcmp
      493    SDL_strdup
      494    SDL_strlcat
      495    SDL_strlcpy
      496    SDL_strlen
      497    SDL_strlwr
      498    SDL_strncasecmp
      499    SDL_strncmp
      500    SDL_strrchr
      501    SDL_strrev
      502    SDL_strstr
      503    SDL_strtod
      504    SDL_strtol
      505    SDL_strtoll
      506    SDL_strtoul
      507    SDL_strtoull
      508    SDL_strupr
      509    SDL_tolower
      510    SDL_toupper
      511    SDL_uitoa
      512    SDL_ulltoa
      513    SDL_ultoa
      514    SDL_utf8strlcpy
      515    SDL_vsnprintf
      516    SDL_wcslcat
      517    SDL_wcslcpy
      518    SDL_wcslen
