 plugin_test1

 Timestamp is 5280f515 (Mon Nov 11 18:17:41 2013)

 Preferred load address is 0000000180000000

 Start         Length     Name                   Class
 0001:00000000 00012906H .text                   CODE
 0001:00012910 0000005eH .text$00                CODE
 0001:00012970 000011d8H .text$x                 CODE
 0001:00013b50 00001312H .text$yc                CODE
 0001:00014e70 000005dcH .text$yd                CODE
 0002:00000000 000002e8H .idata$5                DATA
 0002:000002e8 00000008H .CRT$XCA                DATA
 0002:000002f0 00000b40H .CRT$XCU                DATA
 0002:00000e30 00000008H .CRT$XCZ                DATA
 0002:00000e38 00000008H .CRT$XIA                DATA
 0002:00000e40 00000008H .CRT$XIAA               DATA
 0002:00000e48 00000008H .CRT$XIZ                DATA
 0002:00000e50 00003868H .rdata                  DATA
 0002:000046c0 0000200cH .rdata$r                DATA
 0002:000066d0 00000008H .rtc$IAA                DATA
 0002:000066d8 00000008H .rtc$IZZ                DATA
 0002:000066e0 00000008H .rtc$TAA                DATA
 0002:000066e8 00000008H .rtc$TZZ                DATA
 0002:000066f0 000027b0H .xdata                  DATA
 0002:00008ea0 00000064H .idata$2                DATA
 0002:00008f04 00000014H .idata$3                DATA
 0002:00008f18 000002e8H .idata$4                DATA
 0002:00009200 000006bcH .idata$6                DATA
 0002:000098c0 00000059H .edata                  DATA
 0003:00000000 00000df0H .data                   DATA
 0003:00000df0 00000fd8H .bss                    DATA
 0004:00000000 00001d94H .pdata                  DATA

  Address         Publics by Value              Rva+Base               Lib:Object

 0000:00000000       ___safe_se_handler_count   0000000000000000     <absolute>
 0000:00000000       ___safe_se_handler_table   0000000000000000     <absolute>
 0000:00000000       __ImageBase                0000000180000000     <linker-defined>
 0001:00000000       ?suicide@RGenerator@SDL_core@ui@modules@UModSys@@UEAAXXZ 0000000180001000 f i umodsys_lib_libui:umodsys.mod.ui.SDL_core.obj
 0001:00000000       ?suicide@RGenerator@images_std@media@modules@UModSys@@UEAAXXZ 0000000180001000 f i umodsys_lib_libmedia:umodsys.mod.media.images_std.obj
 0001:00000000       ?render_box@RRenderDriver2D@SDL_core@ui@modules@UModSys@@UEAAXPEAUIImage@lib2d@5@AEBU?$TVector2@H@math3d@5@1AEBU?$TVector2@M@95@2@Z 0000000180001000 f i umodsys_lib_libui:umodsys.mod.ui.SDL_core.obj
 0001:00000000       ??3@YAXPEAX0@Z             0000000180001000 f i plugin_test1.obj
 0001:00000000       ?suicide@RGenerator@test1@test@modules@UModSys@@UEAAXXZ 0000000180001000 f i plugin_test1.obj
 0001:00000000       ?suicide@RGenerator@frames@ui@modules@UModSys@@UEAAXXZ 0000000180001000 f i umodsys_lib_libui:umodsys.mod.ui.frames.obj
 0001:00000010       ??1SMemShared@core@UModSys@@QEAA@XZ 0000000180001010 f i plugin_test1.obj
 0001:00000030       ??3IRoot@core@UModSys@@SAXPEAXAEBUSIMemAlloc@12@@Z 0000000180001030 f i plugin_test1.obj
 0001:00000040       ??_ERGenerator@SDL_core@ui@modules@UModSys@@UEAAPEAXI@Z 0000000180001040 f i  CIL library: CIL module
 0001:00000040       ??_GRGenerator@frames@ui@modules@UModSys@@UEAAPEAXI@Z 0000000180001040 f i umodsys_lib_libui:umodsys.mod.ui.frames.obj
 0001:00000040       ??_GRGenerator@SDL_core@ui@modules@UModSys@@UEAAPEAXI@Z 0000000180001040 f i umodsys_lib_libui:umodsys.mod.ui.SDL_core.obj
 0001:00000040       ??_ERGenerator@frames@ui@modules@UModSys@@UEAAPEAXI@Z 0000000180001040 f i  CIL library: CIL module
 0001:00000040       ??_GRGenerator@test1@test@modules@UModSys@@UEAAPEAXI@Z 0000000180001040 f i plugin_test1.obj
 0001:00000040       ??_ERGenerator@test1@test@modules@UModSys@@UEAAPEAXI@Z 0000000180001040 f i  CIL library: CIL module
 0001:00000040       ??_GRGenerator@images_std@media@modules@UModSys@@UEAAPEAXI@Z 0000000180001040 f i umodsys_lib_libmedia:umodsys.mod.media.images_std.obj
 0001:00000040       ??_ERGenerator@images_std@media@modules@UModSys@@UEAAPEAXI@Z 0000000180001040 f i  CIL library: CIL module
 0001:00000040       ??_GIRefObject@core@UModSys@@UEAAPEAXI@Z 0000000180001040 f i plugin_test1.obj
 0001:00000040       ??_EIRefObject@core@UModSys@@UEAAPEAXI@Z 0000000180001040 f i  CIL library: CIL module
 0001:00000070       ??_GIRoot@core@UModSys@@UEAAPEAXI@Z 0000000180001070 f i plugin_test1.obj
 0001:00000070       ??_EIRoot@core@UModSys@@UEAAPEAXI@Z 0000000180001070 f i  CIL library: CIL module
 0001:000000a0       ?root_get_interface_info@RTest1_Shell@test1@test@modules@UModSys@@UEBAAEBUSUniquePointerInfo@core@5@XZ 00000001800010a0 f i plugin_test1.obj
 0001:000000b0       ?root_get_interface_type@RTest1_Shell@test1@test@modules@UModSys@@UEBAPEBUSUniquePointerInfo@core@5@XZ 00000001800010b0 f i plugin_test1.obj
 0001:000000c0       ?root_get_other_interface@RTest1_Shell@test1@test@modules@UModSys@@UEBAPEBUIRoot@core@5@PEBUSUniquePointerInfo@75@@Z 00000001800010c0 f i plugin_test1.obj
 0001:000000c0       ?root_get_other_interface@RTest1_Shell@test1@test@modules@UModSys@@UEAAPEAUIRoot@core@5@PEBUSUniquePointerInfo@75@@Z 00000001800010c0 f i plugin_test1.obj
 0001:000000f0       ?root_is_interface_supported@RTest1_Shell@test1@test@modules@UModSys@@UEBA_NPEBUSUniquePointerInfo@core@5@@Z 00000001800010f0 f i plugin_test1.obj
 0001:00000120       ?ref_add@RTest1_Shell@test1@test@modules@UModSys@@UEBAXXZ 0000000180001120 f i plugin_test1.obj
 0001:00000130       ?ref_remove@RTest1_Shell@test1@test@modules@UModSys@@UEBAXXZ 0000000180001130 f i plugin_test1.obj
 0001:00000150       ?ref_links@RTest1_Shell@test1@test@modules@UModSys@@UEBAHXZ 0000000180001150 f i plugin_test1.obj
 0001:00000160       ?ref_weak@RTest1_Shell@test1@test@modules@UModSys@@UEBA_NAEAUWeakPointer@IRefObject@core@5@@Z 0000000180001160 f i plugin_test1.obj
 0001:00000180       ?suicide@RTest1_Shell@test1@test@modules@UModSys@@UEAAXXZ 0000000180001180 f i plugin_test1.obj
 0001:000001d0       ??0RTest1_Shell@test1@test@modules@UModSys@@QEAA@PEAUIModObject@base@4@@Z 00000001800011d0 f i plugin_test1.obj
 0001:00000310       ??1RTest1_Shell@test1@test@modules@UModSys@@UEAA@XZ 0000000180001310 f i plugin_test1.obj
 0001:000003c0       ?connect@RTest1_Shell@test1@test@modules@UModSys@@UEAA_NXZ 00000001800013c0 f i plugin_test1.obj
 0001:000003f0       ?disconnect@RTest1_Shell@test1@test@modules@UModSys@@UEAA_NXZ 00000001800013f0 f i plugin_test1.obj
 0001:00000420       ?process_tick@RTest1_Shell@test1@test@modules@UModSys@@UEAA_NAEBUSTimeMsec@core@5@@Z 0000000180001420 f i plugin_test1.obj
 0001:00000460       ?process_command@RTest1_Shell@test1@test@modules@UModSys@@UEAA_NHQEBU?$TString@U?$TSCoreConst@D@su@tl@UModSys@@U?$TComparerBinaryHash@D@234@@tl@5@@Z 0000000180001460 f i plugin_test1.obj
 0001:00000490       ??_GRTest1_Shell@test1@test@modules@UModSys@@UEAAPEAXI@Z 0000000180001490 f i plugin_test1.obj
 0001:00000490       ??_ERTest1_Shell@test1@test@modules@UModSys@@UEAAPEAXI@Z 0000000180001490 f i  CIL library: CIL module
 0001:000004c0       ??1SFrameCreateParameters@libui@UModSys@@QEAA@XZ 00000001800014c0 f i plugin_test1.obj
 0001:000004f0       ?get_generated_names@RGenerator@test1@test@modules@UModSys@@UEBAHAEAUSUniquePtrList@core@5@@Z 00000001800014f0 f i plugin_test1.obj
 0001:00000510       ?get_generated_types@RGenerator@test1@test@modules@UModSys@@UEBAHAEAUSUniquePtrList@core@5@PEBUSUniquePointerInfo@75@@Z 0000000180001510 f i plugin_test1.obj
 0001:00000570       ?generate@RGenerator@test1@test@modules@UModSys@@UEAA_NAEAU?$TRefObject@UIRefObject@core@UModSys@@U?$TRefObjectFunc@UIRefObject@core@UModSys@@@tl@3@@tl@5@PEBUSUniquePointerInfo@core@5@AEBUSParameters@95@@Z 0000000180001570 f i plugin_test1.obj
 0001:00000610       ?root_get_interface_info@RGenerator@test1@test@modules@UModSys@@UEBAAEBUSUniquePointerInfo@core@5@XZ 0000000180001610 f i plugin_test1.obj
 0001:00000620       ?root_get_interface_type@RGenerator@test1@test@modules@UModSys@@UEBAPEBUSUniquePointerInfo@core@5@XZ 0000000180001620 f i plugin_test1.obj
 0001:00000630       ?root_get_interface_types@RFrame_Edit@frames@ui@modules@UModSys@@UEBA_KAEAUSUniquePtrList@core@5@@Z 0000000180001630 f i umodsys_lib_libui:umodsys.mod.ui.frames.obj
 0001:00000630       ?root_get_interface_types@RFrame_Image@frames@ui@modules@UModSys@@UEBA_KAEAUSUniquePtrList@core@5@@Z 0000000180001630 f i umodsys_lib_libui:umodsys.mod.ui.frames.obj
 0001:00000630       ?root_get_interface_types@RGenerator@frames@ui@modules@UModSys@@UEBA_KAEAUSUniquePtrList@core@5@@Z 0000000180001630 f i umodsys_lib_libui:umodsys.mod.ui.frames.obj
 0001:00000630       ?root_get_interface_types@RMultiImage2D_SDL_ttf@SDL_core@ui@modules@UModSys@@UEBA_KAEAUSUniquePtrList@core@5@@Z 0000000180001630 f i umodsys_lib_libui:umodsys.mod.ui.SDL_core.obj
 0001:00000630       ?root_get_interface_types@RDialog@frames@ui@modules@UModSys@@UEBA_KAEAUSUniquePtrList@core@5@@Z 0000000180001630 f i umodsys_lib_libui:umodsys.mod.ui.frames.obj
 0001:00000630       ?root_get_interface_types@RCollector@frames@ui@modules@UModSys@@UEBA_KAEAUSUniquePtrList@core@5@@Z 0000000180001630 f i umodsys_lib_libui:umodsys.mod.ui.frames.obj
 0001:00000630       ?root_get_interface_types@RGenerator@test1@test@modules@UModSys@@UEBA_KAEAUSUniquePtrList@core@5@@Z 0000000180001630 f i plugin_test1.obj
 0001:00000630       ?root_get_interface_types@RMouseController@SDL_core@ui@modules@UModSys@@UEBA_KAEAUSUniquePtrList@core@5@@Z 0000000180001630 f i umodsys_lib_libui:umodsys.mod.ui.SDL_core.obj
 0001:00000630       ?root_get_interface_types@RTest1_Shell@test1@test@modules@UModSys@@UEBA_KAEAUSUniquePtrList@core@5@@Z 0000000180001630 f i plugin_test1.obj
 0001:00000630       ?root_get_interface_types@RFrame_Button@frames@ui@modules@UModSys@@UEBA_KAEAUSUniquePtrList@core@5@@Z 0000000180001630 f i umodsys_lib_libui:umodsys.mod.ui.frames.obj
 0001:00000630       ?root_get_interface_types@RGenerator@images_std@media@modules@UModSys@@UEBA_KAEAUSUniquePtrList@core@5@@Z 0000000180001630 f i umodsys_lib_libmedia:umodsys.mod.media.images_std.obj
 0001:00000630       ?root_get_interface_types@RRenderDriver2D@SDL_core@ui@modules@UModSys@@UEBA_KAEAUSUniquePtrList@core@5@@Z 0000000180001630 f i umodsys_lib_libui:umodsys.mod.ui.SDL_core.obj
 0001:00000630       ?root_get_interface_types@RKeyboardController@SDL_core@ui@modules@UModSys@@UEBA_KAEAUSUniquePtrList@core@5@@Z 0000000180001630 f i umodsys_lib_libui:umodsys.mod.ui.SDL_core.obj
 0001:00000630       ?root_get_interface_types@RFrame_Text@frames@ui@modules@UModSys@@UEBA_KAEAUSUniquePtrList@core@5@@Z 0000000180001630 f i umodsys_lib_libui:umodsys.mod.ui.frames.obj
 0001:00000630       ?root_get_interface_types@RGenerator@SDL_core@ui@modules@UModSys@@UEBA_KAEAUSUniquePtrList@core@5@@Z 0000000180001630 f i umodsys_lib_libui:umodsys.mod.ui.SDL_core.obj
 0001:00000630       ?root_get_interface_types@RMediaFilter@images_std@media@modules@UModSys@@UEBA_KAEAUSUniquePtrList@core@5@@Z 0000000180001630 f i umodsys_lib_libmedia:umodsys.mod.media.images_std.obj
 0001:00000630       ?root_get_interface_types@RFrame_List@frames@ui@modules@UModSys@@UEBA_KAEAUSUniquePtrList@core@5@@Z 0000000180001630 f i umodsys_lib_libui:umodsys.mod.ui.frames.obj
 0001:00000630       ?root_get_interface_types@RTerminal@SDL_core@ui@modules@UModSys@@UEBA_KAEAUSUniquePtrList@core@5@@Z 0000000180001630 f i umodsys_lib_libui:umodsys.mod.ui.SDL_core.obj
 0001:00000630       ?root_get_interface_types@RFrame_Frame@frames@ui@modules@UModSys@@UEBA_KAEAUSUniquePtrList@core@5@@Z 0000000180001630 f i umodsys_lib_libui:umodsys.mod.ui.frames.obj
 0001:00000640       ?root_get_other_interface@RGenerator@test1@test@modules@UModSys@@UEAAPEAUIRoot@core@5@PEBUSUniquePointerInfo@75@@Z 0000000180001640 f i plugin_test1.obj
 0001:00000640       ?root_get_other_interface@RGenerator@test1@test@modules@UModSys@@UEBAPEBUIRoot@core@5@PEBUSUniquePointerInfo@75@@Z 0000000180001640 f i plugin_test1.obj
 0001:00000680       ?root_is_interface_supported@RGenerator@test1@test@modules@UModSys@@UEBA_NPEBUSUniquePointerInfo@core@5@@Z 0000000180001680 f i plugin_test1.obj
 0001:000006c0       ?ref_remove@RMouseController@SDL_core@ui@modules@UModSys@@UEBAXXZ 00000001800016c0 f i umodsys_lib_libui:umodsys.mod.ui.SDL_core.obj
 0001:000006c0       ?ref_remove@RKeyboardController@SDL_core@ui@modules@UModSys@@UEBAXXZ 00000001800016c0 f i umodsys_lib_libui:umodsys.mod.ui.SDL_core.obj
 0001:000006c0       ?ref_remove@RMultiImage2D_SDL_ttf@SDL_core@ui@modules@UModSys@@UEBAXXZ 00000001800016c0 f i umodsys_lib_libui:umodsys.mod.ui.SDL_core.obj
 0001:000006c0       ?ref_remove@RGenerator@SDL_core@ui@modules@UModSys@@UEBAXXZ 00000001800016c0 f i umodsys_lib_libui:umodsys.mod.ui.SDL_core.obj
 0001:000006c0       ?ref_remove@RGenerator@test1@test@modules@UModSys@@UEBAXXZ 00000001800016c0 f i plugin_test1.obj
 0001:000006c0       ?ref_remove@RTerminal@SDL_core@ui@modules@UModSys@@UEBAXXZ 00000001800016c0 f i umodsys_lib_libui:umodsys.mod.ui.SDL_core.obj
 0001:000006c0       ?ref_remove@RGenerator@images_std@media@modules@UModSys@@UEBAXXZ 00000001800016c0 f i umodsys_lib_libmedia:umodsys.mod.media.images_std.obj
 0001:000006c0       ?ref_remove@RGenerator@frames@ui@modules@UModSys@@UEBAXXZ 00000001800016c0 f i umodsys_lib_libui:umodsys.mod.ui.frames.obj
 0001:000006c0       ?ref_remove@RDialog@frames@ui@modules@UModSys@@UEBAXXZ 00000001800016c0 f i umodsys_lib_libui:umodsys.mod.ui.frames.obj
 0001:000006c0       ?ref_remove@RRenderDriver2D@SDL_core@ui@modules@UModSys@@UEBAXXZ 00000001800016c0 f i umodsys_lib_libui:umodsys.mod.ui.SDL_core.obj
 0001:000006e0       ?get_uid@RGenerator@test1@test@modules@UModSys@@UEBAPEBUSUniquePointerInfo@core@5@XZ 00000001800016e0 f i plugin_test1.obj
 0001:000006f0       ?do_open@RModuleReg@test1@test@modules@UModSys@@UEAA_NXZ 00000001800016f0 f i plugin_test1.obj
 0001:00000720       ?do_close@RModuleReg@test1@test@modules@UModSys@@UEAA_NXZ 0000000180001720 f i plugin_test1.obj
 0001:00000750       ??_GRModuleReg@test1@test@modules@UModSys@@UEAAPEAXI@Z 0000000180001750 f i plugin_test1.obj
 0001:00000750       ??_ERModuleReg@test1@test@modules@UModSys@@UEAAPEAXI@Z 0000000180001750 f i  CIL library: CIL module
 0001:00000780       ?info_new@?$TSCoreShared@USIMemAlloc@core@UModSys@@D@su@tl@UModSys@@QEAA_NPEBD_K@Z 0000000180001780 f i plugin_test1.obj
 0001:00000840       ??$t_generate@UICollector@libui@UModSys@@@SModuleContext@base@UModSys@@QEAA_NAEAU?$TRefObject@UICollector@libui@UModSys@@U?$TRefObjectFunc@UICollector@libui@UModSys@@@tl@3@@tl@2@PEBUSUniquePointerInfo@core@2@AEBUSParameters@62@@Z 0000000180001840 f i plugin_test1.obj
 0001:00000900       ??$t_generate@UITerminal@libui@UModSys@@@SModuleContext@base@UModSys@@QEAA_NAEAU?$TRefObject@UITerminal@libui@UModSys@@U?$TRefObjectFunc@UITerminal@libui@UModSys@@@tl@3@@tl@2@PEBUSUniquePointerInfo@core@2@AEBUSParameters@62@@Z 0000000180001900 f i plugin_test1.obj
 0001:000009c0       ??$t_generate@UIMultiImage@lib2d@UModSys@@@SModuleContext@base@UModSys@@QEAA_NAEAU?$TRefObject@UIMultiImage@lib2d@UModSys@@U?$TRefObjectFunc@UIMultiImage@lib2d@UModSys@@@tl@3@@tl@2@PEBUSUniquePointerInfo@core@2@AEBUSParameters@62@@Z 00000001800019c0 f i plugin_test1.obj
 0001:00000a80       ??$shash@D@su@tl@UModSys@@YAHPEBD_K@Z 0000000180001a80 f i plugin_test1.obj
 0001:00000ab0       ??1?$TRefObject@UIModObject@base@UModSys@@U?$TModObjectFunc@UIModObject@base@UModSys@@@tl@3@@tl@UModSys@@QEAA@XZ 0000000180001ab0 f i plugin_test1.obj
 0001:00000ae0       ??$t_ref_get_other_interface@UIMultiImage@lib2d@UModSys@@U?$TRefObjectFunc@UIMultiImage@lib2d@UModSys@@@tl@3@@IRefObject@core@UModSys@@QEAA_NAEAU?$TRefObject@UIMultiImage@lib2d@UModSys@@U?$TRefObjectFunc@UIMultiImage@lib2d@UModSys@@@tl@3@@tl@2@@Z 0000000180001ae0 f i plugin_test1.obj
 0001:00000b30       ?utf_8to32@su@tl@UModSys@@YA_NAEAHAEAPEBDAEA_K@Z 0000000180001b30 f i umodsys_lib_libui:umodsys.mod.ui.SDL_core.obj
 0001:00000c70       ?root_get_interface_info@RMultiImage2D_SDL_ttf@SDL_core@ui@modules@UModSys@@UEBAAEBUSUniquePointerInfo@core@5@XZ 0000000180001c70 f i umodsys_lib_libui:umodsys.mod.ui.SDL_core.obj
 0001:00000c80       ?root_get_interface_type@RMultiImage2D_SDL_ttf@SDL_core@ui@modules@UModSys@@UEBAPEBUSUniquePointerInfo@core@5@XZ 0000000180001c80 f i umodsys_lib_libui:umodsys.mod.ui.SDL_core.obj
 0001:00000c90       ?root_get_other_interface@RMultiImage2D_SDL_ttf@SDL_core@ui@modules@UModSys@@UEAAPEAUIRoot@core@5@PEBUSUniquePointerInfo@75@@Z 0000000180001c90 f i umodsys_lib_libui:umodsys.mod.ui.SDL_core.obj
 0001:00000c90       ?root_get_other_interface@RMultiImage2D_SDL_ttf@SDL_core@ui@modules@UModSys@@UEBAPEBUIRoot@core@5@PEBUSUniquePointerInfo@75@@Z 0000000180001c90 f i umodsys_lib_libui:umodsys.mod.ui.SDL_core.obj
 0001:00000cc0       ?root_is_interface_supported@RMultiImage2D_SDL_ttf@SDL_core@ui@modules@UModSys@@UEBA_NPEBUSUniquePointerInfo@core@5@@Z 0000000180001cc0 f i umodsys_lib_libui:umodsys.mod.ui.SDL_core.obj
 0001:00000cf0       ?ref_add@RGenerator@images_std@media@modules@UModSys@@UEBAXXZ 0000000180001cf0 f i umodsys_lib_libmedia:umodsys.mod.media.images_std.obj
 0001:00000cf0       ?ref_add@RTerminal@SDL_core@ui@modules@UModSys@@UEBAXXZ 0000000180001cf0 f i umodsys_lib_libui:umodsys.mod.ui.SDL_core.obj
 0001:00000cf0       ?ref_add@RGenerator@SDL_core@ui@modules@UModSys@@UEBAXXZ 0000000180001cf0 f i umodsys_lib_libui:umodsys.mod.ui.SDL_core.obj
 0001:00000cf0       ?ref_add@RMultiImage2D_SDL_ttf@SDL_core@ui@modules@UModSys@@UEBAXXZ 0000000180001cf0 f i umodsys_lib_libui:umodsys.mod.ui.SDL_core.obj
 0001:00000cf0       ?ref_add@RMouseController@SDL_core@ui@modules@UModSys@@UEBAXXZ 0000000180001cf0 f i umodsys_lib_libui:umodsys.mod.ui.SDL_core.obj
 0001:00000cf0       ?ref_add@RDialog@frames@ui@modules@UModSys@@UEBAXXZ 0000000180001cf0 f i umodsys_lib_libui:umodsys.mod.ui.frames.obj
 0001:00000cf0       ?ref_add@RGenerator@test1@test@modules@UModSys@@UEBAXXZ 0000000180001cf0 f i plugin_test1.obj
 0001:00000cf0       ?ref_add@RGenerator@frames@ui@modules@UModSys@@UEBAXXZ 0000000180001cf0 f i umodsys_lib_libui:umodsys.mod.ui.frames.obj
 0001:00000cf0       ?ref_add@RRenderDriver2D@SDL_core@ui@modules@UModSys@@UEBAXXZ 0000000180001cf0 f i umodsys_lib_libui:umodsys.mod.ui.SDL_core.obj
 0001:00000cf0       ?ref_add@RKeyboardController@SDL_core@ui@modules@UModSys@@UEBAXXZ 0000000180001cf0 f i umodsys_lib_libui:umodsys.mod.ui.SDL_core.obj
 0001:00000d00       ??0RMultiImage2D_SDL_ttf@SDL_core@ui@modules@UModSys@@QEAA@PEAURRenderDriver2D@1234@AEBUSParameters@core@4@@Z 0000000180001d00 f i umodsys_lib_libui:umodsys.mod.ui.SDL_core.obj
 0001:00000da0       ?open@RMultiImage2D_SDL_ttf@SDL_core@ui@modules@UModSys@@QEAA_NAEBUSParameters@core@5@@Z 0000000180001da0 f i umodsys_lib_libui:umodsys.mod.ui.SDL_core.obj
 0001:00000ea0       ?generate_glyphs@RMultiImage2D_SDL_ttf@SDL_core@ui@modules@UModSys@@QEAA_NXZ 0000000180001ea0 f i umodsys_lib_libui:umodsys.mod.ui.SDL_core.obj
 0001:00001000       ??_GRMultiImage2D_SDL_ttf@SDL_core@ui@modules@UModSys@@UEAAPEAXI@Z 0000000180002000 f i umodsys_lib_libui:umodsys.mod.ui.SDL_core.obj
 0001:00001000       ??_ERMultiImage2D_SDL_ttf@SDL_core@ui@modules@UModSys@@UEAAPEAXI@Z 0000000180002000 f i  CIL library: CIL module
 0001:00001080       ?root_get_interface_info@RRenderDriver2D@SDL_core@ui@modules@UModSys@@UEBAAEBUSUniquePointerInfo@core@5@XZ 0000000180002080 f i umodsys_lib_libui:umodsys.mod.ui.SDL_core.obj
 0001:00001090       ?root_get_interface_type@RRenderDriver2D@SDL_core@ui@modules@UModSys@@UEBAPEBUSUniquePointerInfo@core@5@XZ 0000000180002090 f i umodsys_lib_libui:umodsys.mod.ui.SDL_core.obj
 0001:000010a0       ?root_get_other_interface@RRenderDriver2D@SDL_core@ui@modules@UModSys@@UEAAPEAUIRoot@core@5@PEBUSUniquePointerInfo@75@@Z 00000001800020a0 f i umodsys_lib_libui:umodsys.mod.ui.SDL_core.obj
 0001:000010a0       ?root_get_other_interface@RRenderDriver2D@SDL_core@ui@modules@UModSys@@UEBAPEBUIRoot@core@5@PEBUSUniquePointerInfo@75@@Z 00000001800020a0 f i umodsys_lib_libui:umodsys.mod.ui.SDL_core.obj
 0001:000010d0       ?root_is_interface_supported@RRenderDriver2D@SDL_core@ui@modules@UModSys@@UEBA_NPEBUSUniquePointerInfo@core@5@@Z 00000001800020d0 f i umodsys_lib_libui:umodsys.mod.ui.SDL_core.obj
 0001:00001100       ?ref_links@RKeyboardController@SDL_core@ui@modules@UModSys@@UEBAHXZ 0000000180002100 f i umodsys_lib_libui:umodsys.mod.ui.SDL_core.obj
 0001:00001100       ?ref_links@RMultiImage2D_SDL_ttf@SDL_core@ui@modules@UModSys@@UEBAHXZ 0000000180002100 f i umodsys_lib_libui:umodsys.mod.ui.SDL_core.obj
 0001:00001100       ?ref_links@RGenerator@test1@test@modules@UModSys@@UEBAHXZ 0000000180002100 f i plugin_test1.obj
 0001:00001100       ?ref_links@RGenerator@images_std@media@modules@UModSys@@UEBAHXZ 0000000180002100 f i umodsys_lib_libmedia:umodsys.mod.media.images_std.obj
 0001:00001100       ?ref_links@RDialog@frames@ui@modules@UModSys@@UEBAHXZ 0000000180002100 f i umodsys_lib_libui:umodsys.mod.ui.frames.obj
 0001:00001100       ?ref_links@RGenerator@SDL_core@ui@modules@UModSys@@UEBAHXZ 0000000180002100 f i umodsys_lib_libui:umodsys.mod.ui.SDL_core.obj
 0001:00001100       ?ref_links@RGenerator@frames@ui@modules@UModSys@@UEBAHXZ 0000000180002100 f i umodsys_lib_libui:umodsys.mod.ui.frames.obj
 0001:00001100       ?ref_links@RTerminal@SDL_core@ui@modules@UModSys@@UEBAHXZ 0000000180002100 f i umodsys_lib_libui:umodsys.mod.ui.SDL_core.obj
 0001:00001100       ?ref_links@RMouseController@SDL_core@ui@modules@UModSys@@UEBAHXZ 0000000180002100 f i umodsys_lib_libui:umodsys.mod.ui.SDL_core.obj
 0001:00001100       ?ref_links@RRenderDriver2D@SDL_core@ui@modules@UModSys@@UEBAHXZ 0000000180002100 f i umodsys_lib_libui:umodsys.mod.ui.SDL_core.obj
 0001:00001110       ?ref_weak@RGenerator@SDL_core@ui@modules@UModSys@@UEBA_NAEAUWeakPointer@IRefObject@core@5@@Z 0000000180002110 f i umodsys_lib_libui:umodsys.mod.ui.SDL_core.obj
 0001:00001110       ?ref_weak@RGenerator@images_std@media@modules@UModSys@@UEBA_NAEAUWeakPointer@IRefObject@core@5@@Z 0000000180002110 f i umodsys_lib_libmedia:umodsys.mod.media.images_std.obj
 0001:00001110       ?ref_weak@RRenderDriver2D@SDL_core@ui@modules@UModSys@@UEBA_NAEAUWeakPointer@IRefObject@core@5@@Z 0000000180002110 f i umodsys_lib_libui:umodsys.mod.ui.SDL_core.obj
 0001:00001110       ?ref_weak@RMouseController@SDL_core@ui@modules@UModSys@@UEBA_NAEAUWeakPointer@IRefObject@core@5@@Z 0000000180002110 f i umodsys_lib_libui:umodsys.mod.ui.SDL_core.obj
 0001:00001110       ?ref_weak@RDialog@frames@ui@modules@UModSys@@UEBA_NAEAUWeakPointer@IRefObject@core@5@@Z 0000000180002110 f i umodsys_lib_libui:umodsys.mod.ui.frames.obj
 0001:00001110       ?ref_weak@RMultiImage2D_SDL_ttf@SDL_core@ui@modules@UModSys@@UEBA_NAEAUWeakPointer@IRefObject@core@5@@Z 0000000180002110 f i umodsys_lib_libui:umodsys.mod.ui.SDL_core.obj
 0001:00001110       ?ref_weak@RTerminal@SDL_core@ui@modules@UModSys@@UEBA_NAEAUWeakPointer@IRefObject@core@5@@Z 0000000180002110 f i umodsys_lib_libui:umodsys.mod.ui.SDL_core.obj
 0001:00001110       ?ref_weak@RGenerator@frames@ui@modules@UModSys@@UEBA_NAEAUWeakPointer@IRefObject@core@5@@Z 0000000180002110 f i umodsys_lib_libui:umodsys.mod.ui.frames.obj
 0001:00001110       ?ref_weak@RKeyboardController@SDL_core@ui@modules@UModSys@@UEBA_NAEAUWeakPointer@IRefObject@core@5@@Z 0000000180002110 f i umodsys_lib_libui:umodsys.mod.ui.SDL_core.obj
 0001:00001110       ?ref_weak@RGenerator@test1@test@modules@UModSys@@UEBA_NAEAUWeakPointer@IRefObject@core@5@@Z 0000000180002110 f i plugin_test1.obj
 0001:00001130       ??0RRenderDriver2D@SDL_core@ui@modules@UModSys@@QEAA@PEAURTerminal@1234@AEBUSParameters@core@4@@Z 0000000180002130 f i umodsys_lib_libui:umodsys.mod.ui.SDL_core.obj
 0001:00001280       ??1RRenderDriver2D@SDL_core@ui@modules@UModSys@@UEAA@XZ 0000000180002280 f i umodsys_lib_libui:umodsys.mod.ui.SDL_core.obj
 0001:00001350       ?open@RRenderDriver2D@SDL_core@ui@modules@UModSys@@QEAA_NAEBUSParameters@core@5@@Z 0000000180002350 f i umodsys_lib_libui:umodsys.mod.ui.SDL_core.obj
 0001:00001570       ?set_color@RRenderDriver2D@SDL_core@ui@modules@UModSys@@QEAAXXZ 0000000180002570 f i umodsys_lib_libui:umodsys.mod.ui.SDL_core.obj
 0001:000015f0       ?begin@RRenderDriver2D@SDL_core@ui@modules@UModSys@@UEAAXXZ 00000001800025f0 f i umodsys_lib_libui:umodsys.mod.ui.SDL_core.obj
 0001:00001660       ?end@RRenderDriver2D@SDL_core@ui@modules@UModSys@@UEAAXXZ 0000000180002660 f i umodsys_lib_libui:umodsys.mod.ui.SDL_core.obj
 0001:00001680       ?get_max_values@RRenderDriver2D@SDL_core@ui@modules@UModSys@@UEBAPEBUSParameters@core@5@XZ 0000000180002680 f i umodsys_lib_libui:umodsys.mod.ui.SDL_core.obj
 0001:00001690       ?get_frame_values@RRenderDriver2D@SDL_core@ui@modules@UModSys@@UEBAPEBUSParameters@core@5@XZ 0000000180002690 f i umodsys_lib_libui:umodsys.mod.ui.SDL_core.obj
 0001:000016a0       ?setup_font@RRenderDriver2D@SDL_core@ui@modules@UModSys@@UEAA_NPEAUIMultiImage@lib2d@5@PEBU?$TVector2@M@math3d@5@@Z 00000001800026a0 f i umodsys_lib_libui:umodsys.mod.ui.SDL_core.obj
 0001:00001710       ?setup_color@RRenderDriver2D@SDL_core@ui@modules@UModSys@@UEAAXAEBU?$TVector3@M@math3d@5@@Z 0000000180002710 f i umodsys_lib_libui:umodsys.mod.ui.SDL_core.obj
 0001:00001740       ?setup_color@RRenderDriver2D@SDL_core@ui@modules@UModSys@@UEAAXAEBU?$TVector3@H@math3d@5@@Z 0000000180002740 f i umodsys_lib_libui:umodsys.mod.ui.SDL_core.obj
 0001:00001790       ?setup_coloralpha@RRenderDriver2D@SDL_core@ui@modules@UModSys@@UEAAXAEBU?$TVector4@M@math3d@5@H@Z 0000000180002790 f i umodsys_lib_libui:umodsys.mod.ui.SDL_core.obj
 0001:000017c0       ?setup_coloralpha@RRenderDriver2D@SDL_core@ui@modules@UModSys@@UEAAXAEBU?$TVector4@H@math3d@5@H@Z 00000001800027c0 f i umodsys_lib_libui:umodsys.mod.ui.SDL_core.obj
 0001:00001830       ?setup_blendcolor@RRenderDriver2D@SDL_core@ui@modules@UModSys@@UEAAXAEBUSBlendColor@lib2d@5@@Z 0000000180002830 f i umodsys_lib_libui:umodsys.mod.ui.SDL_core.obj
 0001:000018a0       ?setup_blendcolor@RRenderDriver2D@SDL_core@ui@modules@UModSys@@UEAAXAEBUSBlendColorf@lib2d@5@@Z 00000001800028a0 f i umodsys_lib_libui:umodsys.mod.ui.SDL_core.obj
 0001:00001900       ?setup_alpha@RRenderDriver2D@SDL_core@ui@modules@UModSys@@UEAAXHH@Z 0000000180002900 f i umodsys_lib_libui:umodsys.mod.ui.SDL_core.obj
 0001:00001930       ?setup_alpha@RRenderDriver2D@SDL_core@ui@modules@UModSys@@UEAAXMH@Z 0000000180002930 f i umodsys_lib_libui:umodsys.mod.ui.SDL_core.obj
 0001:00001950       ?render_text_advanced@RRenderDriver2D@SDL_core@ui@modules@UModSys@@UEAA_NAEAUTextInfo@IRenderDriver@lib2d@5@PEBHH@Z 0000000180002950 f i umodsys_lib_libui:umodsys.mod.ui.SDL_core.obj
 0001:00001ba0       ?render_box@RRenderDriver2D@SDL_core@ui@modules@UModSys@@UEAAXAEBU?$TVector2@H@math3d@5@0@Z 0000000180002ba0 f i umodsys_lib_libui:umodsys.mod.ui.SDL_core.obj
 0001:00001bf0       ?render_tri@RRenderDriver2D@SDL_core@ui@modules@UModSys@@UEAAXAEBU?$TVector2@H@math3d@5@00@Z 0000000180002bf0 f i umodsys_lib_libui:umodsys.mod.ui.SDL_core.obj
 0001:00001c70       ?render_quad@RRenderDriver2D@SDL_core@ui@modules@UModSys@@UEAAXAEBU?$TVector2@H@math3d@5@000@Z 0000000180002c70 f i umodsys_lib_libui:umodsys.mod.ui.SDL_core.obj
 0001:00001d20       ?render_line@RRenderDriver2D@SDL_core@ui@modules@UModSys@@UEAAXAEBU?$TVector2@H@math3d@5@0@Z 0000000180002d20 f i umodsys_lib_libui:umodsys.mod.ui.SDL_core.obj
 0001:00001d50       ?render_rect@RRenderDriver2D@SDL_core@ui@modules@UModSys@@UEAAXAEBU?$TVector2@H@math3d@5@0@Z 0000000180002d50 f i umodsys_lib_libui:umodsys.mod.ui.SDL_core.obj
 0001:00001da0       ??_ERRenderDriver2D@SDL_core@ui@modules@UModSys@@UEAAPEAXI@Z 0000000180002da0 f i  CIL library: CIL module
 0001:00001da0       ??_GRRenderDriver2D@SDL_core@ui@modules@UModSys@@UEAAPEAXI@Z 0000000180002da0 f i umodsys_lib_libui:umodsys.mod.ui.SDL_core.obj
 0001:00001dd0       ??1SParameters@core@UModSys@@QEAA@XZ 0000000180002dd0 f i plugin_test1.obj
 0001:00001dd0       ??1?$TParametersA@$0BAA@@core@UModSys@@QEAA@XZ 0000000180002dd0 f i umodsys_lib_libui:umodsys.mod.ui.SDL_core.obj
 0001:00001dd0       ??1?$TParametersA@$0EAA@@core@UModSys@@QEAA@XZ 0000000180002dd0 f i plugin_test1.obj
 0001:00001df0       ?root_get_interface_info@RMouseController@SDL_core@ui@modules@UModSys@@UEBAAEBUSUniquePointerInfo@core@5@XZ 0000000180002df0 f i umodsys_lib_libui:umodsys.mod.ui.SDL_core.obj
 0001:00001e00       ?root_get_interface_type@RMouseController@SDL_core@ui@modules@UModSys@@UEBAPEBUSUniquePointerInfo@core@5@XZ 0000000180002e00 f i umodsys_lib_libui:umodsys.mod.ui.SDL_core.obj
 0001:00001e10       ?root_get_other_interface@RMouseController@SDL_core@ui@modules@UModSys@@UEAAPEAUIRoot@core@5@PEBUSUniquePointerInfo@75@@Z 0000000180002e10 f i umodsys_lib_libui:umodsys.mod.ui.SDL_core.obj
 0001:00001e10       ?root_get_other_interface@RMouseController@SDL_core@ui@modules@UModSys@@UEBAPEBUIRoot@core@5@PEBUSUniquePointerInfo@75@@Z 0000000180002e10 f i umodsys_lib_libui:umodsys.mod.ui.SDL_core.obj
 0001:00001e40       ?root_is_interface_supported@RMouseController@SDL_core@ui@modules@UModSys@@UEBA_NPEBUSUniquePointerInfo@core@5@@Z 0000000180002e40 f i umodsys_lib_libui:umodsys.mod.ui.SDL_core.obj
 0001:00001e70       ?process@RMouseController@SDL_core@ui@modules@UModSys@@QEAA_NAEAUSDL_MouseMotionEvent@@@Z 0000000180002e70 f i umodsys_lib_libui:umodsys.mod.ui.SDL_core.obj
 0001:00001ff0       ?process@RMouseController@SDL_core@ui@modules@UModSys@@QEAA_NAEAUSDL_MouseButtonEvent@@@Z 0000000180002ff0 f i umodsys_lib_libui:umodsys.mod.ui.SDL_core.obj
 0001:00002140       ?process@RMouseController@SDL_core@ui@modules@UModSys@@QEAA_NAEAUSDL_MouseWheelEvent@@@Z 0000000180003140 f i umodsys_lib_libui:umodsys.mod.ui.SDL_core.obj
 0001:00002250       ?mouse_link@RMouseController@SDL_core@ui@modules@UModSys@@UEAA_NHPEAUIRefObject@core@5@PEAUIMouseClient@libui@5@H@Z 0000000180003250 f i umodsys_lib_libui:umodsys.mod.ui.SDL_core.obj
 0001:000022f0       ??_ERMouseController@SDL_core@ui@modules@UModSys@@UEAAPEAXI@Z 00000001800032f0 f i  CIL library: CIL module
 0001:000022f0       ??_GRMouseController@SDL_core@ui@modules@UModSys@@UEAAPEAXI@Z 00000001800032f0 f i umodsys_lib_libui:umodsys.mod.ui.SDL_core.obj
 0001:00002360       ?root_get_interface_info@RKeyboardController@SDL_core@ui@modules@UModSys@@UEBAAEBUSUniquePointerInfo@core@5@XZ 0000000180003360 f i umodsys_lib_libui:umodsys.mod.ui.SDL_core.obj
 0001:00002370       ?root_get_interface_type@RKeyboardController@SDL_core@ui@modules@UModSys@@UEBAPEBUSUniquePointerInfo@core@5@XZ 0000000180003370 f i umodsys_lib_libui:umodsys.mod.ui.SDL_core.obj
 0001:00002380       ?root_get_other_interface@RKeyboardController@SDL_core@ui@modules@UModSys@@UEAAPEAUIRoot@core@5@PEBUSUniquePointerInfo@75@@Z 0000000180003380 f i umodsys_lib_libui:umodsys.mod.ui.SDL_core.obj
 0001:00002380       ?root_get_other_interface@RKeyboardController@SDL_core@ui@modules@UModSys@@UEBAPEBUIRoot@core@5@PEBUSUniquePointerInfo@75@@Z 0000000180003380 f i umodsys_lib_libui:umodsys.mod.ui.SDL_core.obj
 0001:000023b0       ?root_is_interface_supported@RKeyboardController@SDL_core@ui@modules@UModSys@@UEBA_NPEBUSUniquePointerInfo@core@5@@Z 00000001800033b0 f i umodsys_lib_libui:umodsys.mod.ui.SDL_core.obj
 0001:000023e0       ?process@RKeyboardController@SDL_core@ui@modules@UModSys@@QEAA_NAEAUSDL_KeyboardEvent@@@Z 00000001800033e0 f i umodsys_lib_libui:umodsys.mod.ui.SDL_core.obj
 0001:000024f0       ?process@RKeyboardController@SDL_core@ui@modules@UModSys@@QEAA_NAEAUSDL_TextInputEvent@@@Z 00000001800034f0 f i umodsys_lib_libui:umodsys.mod.ui.SDL_core.obj
 0001:000026b0       ?map_keycode@RKeyboardController@SDL_core@ui@modules@UModSys@@QEAA?AW4eKeyCode@libui@5@H@Z 00000001800036b0 f i umodsys_lib_libui:umodsys.mod.ui.SDL_core.obj
 0001:00002c10       ?map_keyspecial@RKeyboardController@SDL_core@ui@modules@UModSys@@QEAAFG@Z 0000000180003c10 f i umodsys_lib_libui:umodsys.mod.ui.SDL_core.obj
 0001:00002cb0       ?mouse_unlink@RMouseController@SDL_core@ui@modules@UModSys@@UEAA_NH@Z 0000000180003cb0 f i umodsys_lib_libui:umodsys.mod.ui.SDL_core.obj
 0001:00002cb0       ?key_unlink@RKeyboardController@SDL_core@ui@modules@UModSys@@UEAA_NH@Z 0000000180003cb0 f i umodsys_lib_libui:umodsys.mod.ui.SDL_core.obj
 0001:00002d30       ?key_link@RKeyboardController@SDL_core@ui@modules@UModSys@@UEAA_NHPEAUIRefObject@core@5@PEAUIKeyboardClient@libui@5@@Z 0000000180003d30 f i umodsys_lib_libui:umodsys.mod.ui.SDL_core.obj
 0001:00002dc0       ?key_setvisible@RKeyboardController@SDL_core@ui@modules@UModSys@@UEAA_N_N@Z 0000000180003dc0 f i umodsys_lib_libui:umodsys.mod.ui.SDL_core.obj
 0001:00002de0       ??_GRKeyboardController@SDL_core@ui@modules@UModSys@@UEAAPEAXI@Z 0000000180003de0 f i umodsys_lib_libui:umodsys.mod.ui.SDL_core.obj
 0001:00002de0       ??_ERKeyboardController@SDL_core@ui@modules@UModSys@@UEAAPEAXI@Z 0000000180003de0 f i  CIL library: CIL module
 0001:00002e50       ?root_get_interface_info@RTerminal@SDL_core@ui@modules@UModSys@@UEBAAEBUSUniquePointerInfo@core@5@XZ 0000000180003e50 f i umodsys_lib_libui:umodsys.mod.ui.SDL_core.obj
 0001:00002e60       ?root_get_interface_type@RTerminal@SDL_core@ui@modules@UModSys@@UEBAPEBUSUniquePointerInfo@core@5@XZ 0000000180003e60 f i umodsys_lib_libui:umodsys.mod.ui.SDL_core.obj
 0001:00002e70       ?root_get_other_interface@RTerminal@SDL_core@ui@modules@UModSys@@UEAAPEAUIRoot@core@5@PEBUSUniquePointerInfo@75@@Z 0000000180003e70 f i umodsys_lib_libui:umodsys.mod.ui.SDL_core.obj
 0001:00002e70       ?root_get_other_interface@RTerminal@SDL_core@ui@modules@UModSys@@UEBAPEBUIRoot@core@5@PEBUSUniquePointerInfo@75@@Z 0000000180003e70 f i umodsys_lib_libui:umodsys.mod.ui.SDL_core.obj
 0001:00002ea0       ?root_is_interface_supported@RTerminal@SDL_core@ui@modules@UModSys@@UEBA_NPEBUSUniquePointerInfo@core@5@@Z 0000000180003ea0 f i umodsys_lib_libui:umodsys.mod.ui.SDL_core.obj
 0001:00002ed0       ?suicide@RTerminal@SDL_core@ui@modules@UModSys@@UEAAXXZ 0000000180003ed0 f i umodsys_lib_libui:umodsys.mod.ui.SDL_core.obj
 0001:00002f20       ??0RTerminal@SDL_core@ui@modules@UModSys@@QEAA@PEAUIModObject@base@4@AEBUSParameters@core@4@@Z 0000000180003f20 f i umodsys_lib_libui:umodsys.mod.ui.SDL_core.obj
 0001:00002fd0       ??1RTerminal@SDL_core@ui@modules@UModSys@@UEAA@XZ 0000000180003fd0 f i umodsys_lib_libui:umodsys.mod.ui.SDL_core.obj
 0001:00003090       ?poll_events@RTerminal@SDL_core@ui@modules@UModSys@@UEAA_NH@Z 0000000180004090 f i umodsys_lib_libui:umodsys.mod.ui.SDL_core.obj
 0001:00003200       ?get_terminal_state@RTerminal@SDL_core@ui@modules@UModSys@@UEAA_NW4eTerminalState@libui@5@@Z 0000000180004200 f i umodsys_lib_libui:umodsys.mod.ui.SDL_core.obj
 0001:00003210       ?set_terminal_state@RTerminal@SDL_core@ui@modules@UModSys@@UEAA_NW4eTerminalState@libui@5@_N@Z 0000000180004210 f i umodsys_lib_libui:umodsys.mod.ui.SDL_core.obj
 0001:000032a0       ?get_clock@RTerminal@SDL_core@ui@modules@UModSys@@UEAANXZ 00000001800042a0 f i umodsys_lib_libui:umodsys.mod.ui.SDL_core.obj
 0001:000032c0       ?wait@RTerminal@SDL_core@ui@modules@UModSys@@UEAA_NM@Z 00000001800042c0 f i umodsys_lib_libui:umodsys.mod.ui.SDL_core.obj
 0001:000032e0       ?get_count@RTerminal@SDL_core@ui@modules@UModSys@@UEBA_KPEBUSUniquePointerInfo@core@5@@Z 00000001800042e0 f i umodsys_lib_libui:umodsys.mod.ui.SDL_core.obj
 0001:00003320       ?get_handler@RTerminal@SDL_core@ui@modules@UModSys@@UEBAPEAUIRefObject@core@5@PEBUSUniquePointerInfo@75@_K@Z 0000000180004320 f i umodsys_lib_libui:umodsys.mod.ui.SDL_core.obj
 0001:00003360       ?get_ctrldata@RFrame_Image@frames@ui@modules@UModSys@@UEAAPEAUIControllerData@libui@5@XZ 0000000180004360 f i umodsys_lib_libui:umodsys.mod.ui.frames.obj
 0001:00003360       ?get_ctrldata@RFrame_Edit@frames@ui@modules@UModSys@@UEAAPEAUIControllerData@libui@5@XZ 0000000180004360 f i umodsys_lib_libui:umodsys.mod.ui.frames.obj
 0001:00003360       ?get_data@RFrame_Frame@frames@ui@modules@UModSys@@UEAAPEAUIFrameData@libui@5@XZ 0000000180004360 f i umodsys_lib_libui:umodsys.mod.ui.frames.obj
 0001:00003360       ?get_friend_handler@RTerminal@SDL_core@ui@modules@UModSys@@UEBAPEAUIRefObject@core@5@PEBUSUniquePointerInfo@75@PEAU675@@Z 0000000180004360 f i umodsys_lib_libui:umodsys.mod.ui.SDL_core.obj
 0001:00003360       ?get_list@RFrame_Edit@frames@ui@modules@UModSys@@UEAAPEAUIFrameList@libui@5@XZ 0000000180004360 f i umodsys_lib_libui:umodsys.mod.ui.frames.obj
 0001:00003360       ?get_ctrlcmd@RFrame_Edit@frames@ui@modules@UModSys@@UEAAPEAUIControllerCommand@libui@5@XZ 0000000180004360 f i umodsys_lib_libui:umodsys.mod.ui.frames.obj
 0001:00003360       ?get_ctrldata@RFrame_Frame@frames@ui@modules@UModSys@@UEAAPEAUIControllerData@libui@5@XZ 0000000180004360 f i umodsys_lib_libui:umodsys.mod.ui.frames.obj
 0001:00003360       ?get_ctrldata@RFrame_Button@frames@ui@modules@UModSys@@UEAAPEAUIControllerData@libui@5@XZ 0000000180004360 f i umodsys_lib_libui:umodsys.mod.ui.frames.obj
 0001:00003360       ?get_ctrlcmd@RFrame_Image@frames@ui@modules@UModSys@@UEAAPEAUIControllerCommand@libui@5@XZ 0000000180004360 f i umodsys_lib_libui:umodsys.mod.ui.frames.obj
 0001:00003360       ?get_handler@RTerminal@SDL_core@ui@modules@UModSys@@UEBAPEAUIRefObject@core@5@PEBUSUniquePointerInfo@75@PEBD@Z 0000000180004360 f i umodsys_lib_libui:umodsys.mod.ui.SDL_core.obj
 0001:00003360       ?get_list@RFrame_Button@frames@ui@modules@UModSys@@UEAAPEAUIFrameList@libui@5@XZ 0000000180004360 f i umodsys_lib_libui:umodsys.mod.ui.frames.obj
 0001:00003360       ?get_list@RFrame_Frame@frames@ui@modules@UModSys@@UEAAPEAUIFrameList@libui@5@XZ 0000000180004360 f i umodsys_lib_libui:umodsys.mod.ui.frames.obj
 0001:00003360       ?get_data@RFrame_Image@frames@ui@modules@UModSys@@UEAAPEAUIFrameData@libui@5@XZ 0000000180004360 f i umodsys_lib_libui:umodsys.mod.ui.frames.obj
 0001:00003360       ?get_ctrlcmd@RFrame_Text@frames@ui@modules@UModSys@@UEAAPEAUIControllerCommand@libui@5@XZ 0000000180004360 f i umodsys_lib_libui:umodsys.mod.ui.frames.obj
 0001:00003360       ?get_data@RFrame_Button@frames@ui@modules@UModSys@@UEAAPEAUIFrameData@libui@5@XZ 0000000180004360 f i umodsys_lib_libui:umodsys.mod.ui.frames.obj
 0001:00003360       ?get_layer@RMultiImage2D_SDL_ttf@SDL_core@ui@modules@UModSys@@UEAAPEAUIImage@lib2d@5@H@Z 0000000180004360 f i umodsys_lib_libui:umodsys.mod.ui.SDL_core.obj
 0001:00003360       ?get_ctrldata@RFrame_Text@frames@ui@modules@UModSys@@UEAAPEAUIControllerData@libui@5@XZ 0000000180004360 f i umodsys_lib_libui:umodsys.mod.ui.frames.obj
 0001:00003360       ?get_list@RFrame_Text@frames@ui@modules@UModSys@@UEAAPEAUIFrameList@libui@5@XZ 0000000180004360 f i umodsys_lib_libui:umodsys.mod.ui.frames.obj
 0001:00003360       ?get_ctrlcmd@RFrame_Button@frames@ui@modules@UModSys@@UEAAPEAUIControllerCommand@libui@5@XZ 0000000180004360 f i umodsys_lib_libui:umodsys.mod.ui.frames.obj
 0001:00003360       ?get_controller@RRenderDriver2D@SDL_core@ui@modules@UModSys@@UEBAPEAUIRefObject@core@5@PEBUSUniquePointerInfo@75@@Z 0000000180004360 f i umodsys_lib_libui:umodsys.mod.ui.SDL_core.obj
 0001:00003360       ?get_up_theme@RCollector@frames@ui@modules@UModSys@@UEAAPEAUICollectorTheme@libui@5@XZ 0000000180004360 f i umodsys_lib_libui:umodsys.mod.ui.frames.obj
 0001:00003360       ?get_list@RFrame_Image@frames@ui@modules@UModSys@@UEAAPEAUIFrameList@libui@5@XZ 0000000180004360 f i umodsys_lib_libui:umodsys.mod.ui.frames.obj
 0001:00003360       ?get_ctrldata@RFrame_List@frames@ui@modules@UModSys@@UEAAPEAUIControllerData@libui@5@XZ 0000000180004360 f i umodsys_lib_libui:umodsys.mod.ui.frames.obj
 0001:00003360       ?get_ctrlcmd@RFrame_List@frames@ui@modules@UModSys@@UEAAPEAUIControllerCommand@libui@5@XZ 0000000180004360 f i umodsys_lib_libui:umodsys.mod.ui.frames.obj
 0001:00003360       ?get_ctrlcmd@RFrame_Frame@frames@ui@modules@UModSys@@UEAAPEAUIControllerCommand@libui@5@XZ 0000000180004360 f i umodsys_lib_libui:umodsys.mod.ui.frames.obj
 0001:00003370       ?create_handler@RTerminal@SDL_core@ui@modules@UModSys@@UEAA_NPEBUSUniquePointerInfo@core@5@AEAU?$TRefObject@UIRefObject@core@UModSys@@U?$TRefObjectFunc@UIRefObject@core@UModSys@@@tl@3@@tl@5@PEBDPEBUSParameters@75@@Z 0000000180004370 f i umodsys_lib_libui:umodsys.mod.ui.SDL_core.obj
 0001:00003680       ??_ERTerminal@SDL_core@ui@modules@UModSys@@UEAAPEAXI@Z 0000000180004680 f i  CIL library: CIL module
 0001:00003680       ??_GRTerminal@SDL_core@ui@modules@UModSys@@UEAAPEAXI@Z 0000000180004680 f i umodsys_lib_libui:umodsys.mod.ui.SDL_core.obj
 0001:000036b0       ?get_generated_names@RGenerator@SDL_core@ui@modules@UModSys@@UEBAHAEAUSUniquePtrList@core@5@@Z 00000001800046b0 f i umodsys_lib_libui:umodsys.mod.ui.SDL_core.obj
 0001:000036d0       ?get_generated_types@RGenerator@SDL_core@ui@modules@UModSys@@UEBAHAEAUSUniquePtrList@core@5@PEBUSUniquePointerInfo@75@@Z 00000001800046d0 f i umodsys_lib_libui:umodsys.mod.ui.SDL_core.obj
 0001:00003730       ?generate@RGenerator@SDL_core@ui@modules@UModSys@@UEAA_NAEAU?$TRefObject@UIRefObject@core@UModSys@@U?$TRefObjectFunc@UIRefObject@core@UModSys@@@tl@3@@tl@5@PEBUSUniquePointerInfo@core@5@AEBUSParameters@95@@Z 0000000180004730 f i umodsys_lib_libui:umodsys.mod.ui.SDL_core.obj
 0001:000037b0       ?root_get_interface_info@RGenerator@SDL_core@ui@modules@UModSys@@UEBAAEBUSUniquePointerInfo@core@5@XZ 00000001800047b0 f i umodsys_lib_libui:umodsys.mod.ui.SDL_core.obj
 0001:000037c0       ?root_get_interface_type@RGenerator@SDL_core@ui@modules@UModSys@@UEBAPEBUSUniquePointerInfo@core@5@XZ 00000001800047c0 f i umodsys_lib_libui:umodsys.mod.ui.SDL_core.obj
 0001:000037d0       ?root_get_other_interface@RGenerator@SDL_core@ui@modules@UModSys@@UEAAPEAUIRoot@core@5@PEBUSUniquePointerInfo@75@@Z 00000001800047d0 f i umodsys_lib_libui:umodsys.mod.ui.SDL_core.obj
 0001:000037d0       ?root_get_other_interface@RGenerator@SDL_core@ui@modules@UModSys@@UEBAPEBUIRoot@core@5@PEBUSUniquePointerInfo@75@@Z 00000001800047d0 f i umodsys_lib_libui:umodsys.mod.ui.SDL_core.obj
 0001:00003810       ?root_is_interface_supported@RGenerator@SDL_core@ui@modules@UModSys@@UEBA_NPEBUSUniquePointerInfo@core@5@@Z 0000000180004810 f i umodsys_lib_libui:umodsys.mod.ui.SDL_core.obj
 0001:00003850       ?get_uid@RGenerator@SDL_core@ui@modules@UModSys@@UEBAPEBUSUniquePointerInfo@core@5@XZ 0000000180004850 f i umodsys_lib_libui:umodsys.mod.ui.SDL_core.obj
 0001:00003860       ?do_open@RModuleReg@SDL_core@ui@modules@UModSys@@UEAA_NXZ 0000000180004860 f i umodsys_lib_libui:umodsys.mod.ui.SDL_core.obj
 0001:00003870       ?do_close@RModuleReg@SDL_core@ui@modules@UModSys@@UEAA_NXZ 0000000180004870 f i umodsys_lib_libui:umodsys.mod.ui.SDL_core.obj
 0001:00003880       ??_ERModuleReg@SDL_core@ui@modules@UModSys@@UEAAPEAXI@Z 0000000180004880 f i  CIL library: CIL module
 0001:00003880       ??_GRModuleReg@SDL_core@ui@modules@UModSys@@UEAAPEAXI@Z 0000000180004880 f i umodsys_lib_libui:umodsys.mod.ui.SDL_core.obj
 0001:000038b0       ??1?$TScatterArray@UGlyph@RMultiImage2D_SDL_ttf@SDL_core@ui@modules@UModSys@@HU?$TScalarCompare@H@core@6@U?$TNodeDeleter0@U?$TScatterArrayNode@UGlyph@RMultiImage2D_SDL_ttf@SDL_core@ui@modules@UModSys@@H@tl@UModSys@@@tl@6@@tl@UModSys@@QEAA@XZ 00000001800048b0 f i umodsys_lib_libui:umodsys.mod.ui.SDL_core.obj
 0001:000038e0       ??1?$TRefObject@URMultiImage2D_SDL_ttf@SDL_core@ui@modules@UModSys@@U?$TRefObjectWeakFunc@URMultiImage2D_SDL_ttf@SDL_core@ui@modules@UModSys@@@tl@5@@tl@UModSys@@QEAA@XZ 00000001800048e0 f i umodsys_lib_libui:umodsys.mod.ui.SDL_core.obj
 0001:000038e0       ??1?$TRefObject@URRenderDriver2D@SDL_core@ui@modules@UModSys@@U?$TRefObjectWeakFunc@URRenderDriver2D@SDL_core@ui@modules@UModSys@@@tl@5@@tl@UModSys@@QEAA@XZ 00000001800048e0 f i umodsys_lib_libui:umodsys.mod.ui.SDL_core.obj
 0001:00003920       ?remove_node@?$TTreeHoldRB@U?$TScatterArrayNode@U?$TRefObjectComposite@UIKeyboardClient@libui@UModSys@@UIRefObject@core@3@U?$TRefObjectFunc@UIRefObject@core@UModSys@@@tl@3@@tl@UModSys@@H@tl@UModSys@@@tl@UModSys@@QEAAXPEAU?$TScatterArrayNode@U?$TRefObjectComposite@UIKeyboardClient@libui@UModSys@@UIRefObject@core@3@U?$TRefObjectFunc@UIRefObject@core@UModSys@@@tl@3@@tl@UModSys@@H@23@@Z 0000000180004920 f i umodsys_lib_libui:umodsys.mod.ui.SDL_core.obj
 0001:00003920       ?remove_node@?$TTreeHoldRB@U?$TScatterArrayNode@U?$TRefObjectCompositeExtra@UIMouseClient@libui@UModSys@@HUIRefObject@core@3@U?$TRefObjectFunc@UIRefObject@core@UModSys@@@tl@3@@tl@UModSys@@H@tl@UModSys@@@tl@UModSys@@QEAAXPEAU?$TScatterArrayNode@U?$TRefObjectCompositeExtra@UIMouseClient@libui@UModSys@@HUIRefObject@core@3@U?$TRefObjectFunc@UIRefObject@core@UModSys@@@tl@3@@tl@UModSys@@H@23@@Z 0000000180004920 f i umodsys_lib_libui:umodsys.mod.ui.SDL_core.obj
 0001:00003a40       ??R?$TNodeDeleter0@U?$TScatterArrayNode@U?$TRefObjectComposite@UIKeyboardClient@libui@UModSys@@UIRefObject@core@3@U?$TRefObjectFunc@UIRefObject@core@UModSys@@@tl@3@@tl@UModSys@@H@tl@UModSys@@@tl@UModSys@@QEBAHPEAU?$TScatterArrayNode@U?$TRefObjectComposite@UIKeyboardClient@libui@UModSys@@UIRefObject@core@3@U?$TRefObjectFunc@UIRefObject@core@UModSys@@@tl@3@@tl@UModSys@@H@12@@Z 0000000180004a40 f i umodsys_lib_libui:umodsys.mod.ui.SDL_core.obj
 0001:00003a40       ??R?$TNodeDeleter0@U?$TScatterArrayNode@U?$TRefObjectCompositeExtra@UIMouseClient@libui@UModSys@@HUIRefObject@core@3@U?$TRefObjectFunc@UIRefObject@core@UModSys@@@tl@3@@tl@UModSys@@H@tl@UModSys@@@tl@UModSys@@QEBAHPEAU?$TScatterArrayNode@U?$TRefObjectCompositeExtra@UIMouseClient@libui@UModSys@@HUIRefObject@core@3@U?$TRefObjectFunc@UIRefObject@core@UModSys@@@tl@3@@tl@UModSys@@H@12@@Z 0000000180004a40 f i umodsys_lib_libui:umodsys.mod.ui.SDL_core.obj
 0001:00003ac0       ??1?$TPair@HU?$TRefObjectCompositeExtra@UIMouseClient@libui@UModSys@@HUIRefObject@core@3@U?$TRefObjectFunc@UIRefObject@core@UModSys@@@tl@3@@tl@UModSys@@@tl@UModSys@@QEAA@XZ 0000000180004ac0 f i umodsys_lib_libui:umodsys.mod.ui.SDL_core.obj
 0001:00003ac0       ??1?$TPair@HU?$TRefObjectComposite@UIKeyboardClient@libui@UModSys@@UIRefObject@core@3@U?$TRefObjectFunc@UIRefObject@core@UModSys@@@tl@3@@tl@UModSys@@@tl@UModSys@@QEAA@XZ 0000000180004ac0 f i umodsys_lib_libui:umodsys.mod.ui.SDL_core.obj
 0001:00003b10       ??1?$TRefObjectCompositeExtra@UIMouseClient@libui@UModSys@@HUIRefObject@core@3@U?$TRefObjectFunc@UIRefObject@core@UModSys@@@tl@3@@tl@UModSys@@QEAA@XZ 0000000180004b10 f i umodsys_lib_libui:umodsys.mod.ui.SDL_core.obj
 0001:00003b10       ??1?$TRefObjectComposite@UIKeyboardClient@libui@UModSys@@UIRefObject@core@3@U?$TRefObjectFunc@UIRefObject@core@UModSys@@@tl@3@@tl@UModSys@@QEAA@XZ 0000000180004b10 f i umodsys_lib_libui:umodsys.mod.ui.SDL_core.obj
 0001:00003b60       ??$t_ref_get_other_interface@URMultiImage2D_SDL_ttf@SDL_core@ui@modules@UModSys@@U?$TRefObjectWeakFunc@URMultiImage2D_SDL_ttf@SDL_core@ui@modules@UModSys@@@tl@5@@IRefObject@core@UModSys@@QEAA_NAEAU?$TRefObject@URMultiImage2D_SDL_ttf@SDL_core@ui@modules@UModSys@@U?$TRefObjectWeakFunc@URMultiImage2D_SDL_ttf@SDL_core@ui@modules@UModSys@@@tl@5@@tl@2@@Z 0000000180004b60 f i umodsys_lib_libui:umodsys.mod.ui.SDL_core.obj
 0001:00003be0       ?remove_color@?$TTreeHoldRB@U?$TScatterArrayNode@U?$TRefObjectComposite@UIKeyboardClient@libui@UModSys@@UIRefObject@core@3@U?$TRefObjectFunc@UIRefObject@core@UModSys@@@tl@3@@tl@UModSys@@H@tl@UModSys@@@tl@UModSys@@IEAAXPEAU?$TScatterArrayNode@U?$TRefObjectComposite@UIKeyboardClient@libui@UModSys@@UIRefObject@core@3@U?$TRefObjectFunc@UIRefObject@core@UModSys@@@tl@3@@tl@UModSys@@H@23@0@Z 0000000180004be0 f i umodsys_lib_libui:umodsys.mod.ui.SDL_core.obj
 0001:00003be0       ?remove_color@?$TTreeHoldRB@U?$TScatterArrayNode@U?$TRefObjectCompositeExtra@UIMouseClient@libui@UModSys@@HUIRefObject@core@3@U?$TRefObjectFunc@UIRefObject@core@UModSys@@@tl@3@@tl@UModSys@@H@tl@UModSys@@@tl@UModSys@@IEAAXPEAU?$TScatterArrayNode@U?$TRefObjectCompositeExtra@UIMouseClient@libui@UModSys@@HUIRefObject@core@3@U?$TRefObjectFunc@UIRefObject@core@UModSys@@@tl@3@@tl@UModSys@@H@23@0@Z 0000000180004be0 f i umodsys_lib_libui:umodsys.mod.ui.SDL_core.obj
 0001:00003ea0       ??$t_close@U?$TRefObject@URRenderDriver2D@SDL_core@ui@modules@UModSys@@U?$TRefObjectWeakFunc@URRenderDriver2D@SDL_core@ui@modules@UModSys@@@tl@5@@tl@UModSys@@@SDL_core@ui@modules@UModSys@@YA_NAEAU?$TScatterArray@U?$TRefObject@URRenderDriver2D@SDL_core@ui@modules@UModSys@@U?$TRefObjectWeakFunc@URRenderDriver2D@SDL_core@ui@modules@UModSys@@@tl@5@@tl@UModSys@@HU?$TScalarCompare@H@core@3@U?$TNodeDeleter0@U?$TScatterArrayNode@U?$TRefObject@URRenderDriver2D@SDL_core@ui@modules@UModSys@@U?$TRefObjectWeakFunc@URRenderDriver2D@SDL_core@ui@modules@UModSys@@@tl@5@@tl@UModSys@@H@tl@UModSys@@@23@@tl@3@@Z 0000000180004ea0 f i umodsys_lib_libui:umodsys.mod.ui.SDL_core.obj
 0001:00003f90       ??$t_count@U?$TRefObject@URRenderDriver2D@SDL_core@ui@modules@UModSys@@U?$TRefObjectWeakFunc@URRenderDriver2D@SDL_core@ui@modules@UModSys@@@tl@5@@tl@UModSys@@@SDL_core@ui@modules@UModSys@@YA_KAEBU?$TScatterArray@U?$TRefObject@URRenderDriver2D@SDL_core@ui@modules@UModSys@@U?$TRefObjectWeakFunc@URRenderDriver2D@SDL_core@ui@modules@UModSys@@@tl@5@@tl@UModSys@@HU?$TScalarCompare@H@core@3@U?$TNodeDeleter0@U?$TScatterArrayNode@U?$TRefObject@URRenderDriver2D@SDL_core@ui@modules@UModSys@@U?$TRefObjectWeakFunc@URRenderDriver2D@SDL_core@ui@modules@UModSys@@@tl@5@@tl@UModSys@@H@tl@UModSys@@@23@@tl@3@@Z 0000000180004f90 f i umodsys_lib_libui:umodsys.mod.ui.SDL_core.obj
 0001:00004010       ??$t_get@U?$TRefObject@URRenderDriver2D@SDL_core@ui@modules@UModSys@@U?$TRefObjectWeakFunc@URRenderDriver2D@SDL_core@ui@modules@UModSys@@@tl@5@@tl@UModSys@@@SDL_core@ui@modules@UModSys@@YAPEAUIRefObject@core@3@AEBU?$TScatterArray@U?$TRefObject@URRenderDriver2D@SDL_core@ui@modules@UModSys@@U?$TRefObjectWeakFunc@URRenderDriver2D@SDL_core@ui@modules@UModSys@@@tl@5@@tl@UModSys@@HU?$TScalarCompare@H@core@3@U?$TNodeDeleter0@U?$TScatterArrayNode@U?$TRefObject@URRenderDriver2D@SDL_core@ui@modules@UModSys@@U?$TRefObjectWeakFunc@URRenderDriver2D@SDL_core@ui@modules@UModSys@@@tl@5@@tl@UModSys@@H@tl@UModSys@@@23@@tl@3@_K@Z 0000000180005010 f i umodsys_lib_libui:umodsys.mod.ui.SDL_core.obj
 0001:000040b0       ??$ValidateConstruction@UIRefObject@core@UModSys@@URRenderDriver2D@SDL_core@ui@modules@3@@core@UModSys@@YA_NAEAU?$TRefObject@UIRefObject@core@UModSys@@U?$TRefObjectFunc@UIRefObject@core@UModSys@@@tl@3@@tl@1@U?$TRefObject@URRenderDriver2D@SDL_core@ui@modules@UModSys@@U?$TRefObjectFunc@URRenderDriver2D@SDL_core@ui@modules@UModSys@@@tl@5@@31@@Z 00000001800050b0 f i umodsys_lib_libui:umodsys.mod.ui.SDL_core.obj
 0001:00004160       ??$t_add@U?$TRefObject@URRenderDriver2D@SDL_core@ui@modules@UModSys@@U?$TRefObjectWeakFunc@URRenderDriver2D@SDL_core@ui@modules@UModSys@@@tl@5@@tl@UModSys@@URRenderDriver2D@SDL_core@ui@modules@3@@SDL_core@ui@modules@UModSys@@YA_NAEAU?$TScatterArray@U?$TRefObject@URRenderDriver2D@SDL_core@ui@modules@UModSys@@U?$TRefObjectWeakFunc@URRenderDriver2D@SDL_core@ui@modules@UModSys@@@tl@5@@tl@UModSys@@HU?$TScalarCompare@H@core@3@U?$TNodeDeleter0@U?$TScatterArrayNode@U?$TRefObject@URRenderDriver2D@SDL_core@ui@modules@UModSys@@U?$TRefObjectWeakFunc@URRenderDriver2D@SDL_core@ui@modules@UModSys@@@tl@5@@tl@UModSys@@H@tl@UModSys@@@23@@tl@3@PEAURRenderDriver2D@0123@@Z 0000000180005160 f i umodsys_lib_libui:umodsys.mod.ui.SDL_core.obj
 0001:000041e0       ??$ValidateConstruction@UIRefObject@core@UModSys@@URMouseController@SDL_core@ui@modules@3@@core@UModSys@@YA_NAEAU?$TRefObject@UIRefObject@core@UModSys@@U?$TRefObjectFunc@UIRefObject@core@UModSys@@@tl@3@@tl@1@U?$TRefObject@URMouseController@SDL_core@ui@modules@UModSys@@U?$TRefObjectFunc@URMouseController@SDL_core@ui@modules@UModSys@@@tl@5@@31@@Z 00000001800051e0 f i umodsys_lib_libui:umodsys.mod.ui.SDL_core.obj
 0001:000041e0       ??$ValidateConstruction@UIRefObject@core@UModSys@@URKeyboardController@SDL_core@ui@modules@3@@core@UModSys@@YA_NAEAU?$TRefObject@UIRefObject@core@UModSys@@U?$TRefObjectFunc@UIRefObject@core@UModSys@@@tl@3@@tl@1@U?$TRefObject@URKeyboardController@SDL_core@ui@modules@UModSys@@U?$TRefObjectFunc@URKeyboardController@SDL_core@ui@modules@UModSys@@@tl@5@@31@@Z 00000001800051e0 f i umodsys_lib_libui:umodsys.mod.ui.SDL_core.obj
 0001:00004270       ??$ValidateConstruction@UIMultiImage@lib2d@UModSys@@URMultiImage2D_SDL_ttf@SDL_core@ui@modules@3@@core@UModSys@@YA_NAEAU?$TRefObject@UIMultiImage@lib2d@UModSys@@U?$TRefObjectFunc@UIMultiImage@lib2d@UModSys@@@tl@3@@tl@1@PEAURMultiImage2D_SDL_ttf@SDL_core@ui@modules@1@@Z 0000000180005270 f i umodsys_lib_libui:umodsys.mod.ui.SDL_core.obj
 0001:000042f0       ??$genx_node@UCmp@?$TScatterArray@UGlyph@RMultiImage2D_SDL_ttf@SDL_core@ui@modules@UModSys@@HU?$TScalarCompare@H@core@6@U?$TNodeDeleter0@U?$TScatterArrayNode@UGlyph@RMultiImage2D_SDL_ttf@SDL_core@ui@modules@UModSys@@H@tl@UModSys@@@tl@6@@tl@UModSys@@UGen0@234@@?$TTreeHoldRBD@U?$TScatterArrayNode@UGlyph@RMultiImage2D_SDL_ttf@SDL_core@ui@modules@UModSys@@H@tl@UModSys@@U?$TNodeDeleter0@U?$TScatterArrayNode@UGlyph@RMultiImage2D_SDL_ttf@SDL_core@ui@modules@UModSys@@H@tl@UModSys@@@23@@tl@UModSys@@QEAAPEAU?$TScatterArrayNode@UGlyph@RMultiImage2D_SDL_ttf@SDL_core@ui@modules@UModSys@@H@12@UCmp@?$TScatterArray@UGlyph@RMultiImage2D_SDL_ttf@SDL_core@ui@modules@UModSys@@HU?$TScalarCompare@H@core@6@U?$TNodeDeleter0@U?$TScatterArrayNode@UGlyph@RMultiImage2D_SDL_ttf@SDL_core@ui@modules@UModSys@@H@tl@UModSys@@@tl@6@@12@AEBUGen0@512@PEAPEAU312@2_N@Z 00000001800052f0 f i umodsys_lib_libui:umodsys.mod.ui.SDL_core.obj
 0001:00004480       ??$genx_node@UCmp@?$TScatterArray@U?$TRefObjectCompositeExtra@UIMouseClient@libui@UModSys@@HUIRefObject@core@3@U?$TRefObjectFunc@UIRefObject@core@UModSys@@@tl@3@@tl@UModSys@@HU?$TScalarCompare@H@core@3@U?$TNodeDeleter0@U?$TScatterArrayNode@U?$TRefObjectCompositeExtra@UIMouseClient@libui@UModSys@@HUIRefObject@core@3@U?$TRefObjectFunc@UIRefObject@core@UModSys@@@tl@3@@tl@UModSys@@H@tl@UModSys@@@23@@tl@UModSys@@UGen0@234@@?$TTreeHoldRBD@U?$TScatterArrayNode@U?$TRefObjectCompositeExtra@UIMouseClient@libui@UModSys@@HUIRefObject@core@3@U?$TRefObjectFunc@UIRefObject@core@UModSys@@@tl@3@@tl@UModSys@@H@tl@UModSys@@U?$TNodeDeleter0@U?$TScatterArrayNode@U?$TRefObjectCompositeExtra@UIMouseClient@libui@UModSys@@HUIRefObject@core@3@U?$TRefObjectFunc@UIRefObject@core@UModSys@@@tl@3@@tl@UModSys@@H@tl@UModSys@@@23@@tl@UModSys@@QEAAPEAU?$TScatterArrayNode@U?$TRefObjectCompositeExtra@UIMouseClient@libui@UModSys@@HUIRefObject@core@3@U?$TRefObjectFunc@UIRefObject@core@UModSys@@@tl@3@@tl@UModSys@@H@12@UCmp@?$TScatterArray@U?$TRefObjectCompositeExtra@UIMouseClient@libui@UModSys@@HUIRefObject@core@3@U?$TRefObjectFunc@UIRefObject@core@UModSys@@@tl@3@@tl@UModSys@@HU?$TScalarCompare@H@core@3@U?$TNodeDeleter0@U?$TScatterArrayNode@U?$TRefObjectCompositeExtra@UIMouseClient@libui@UModSys@@HUIRefObject@core@3@U?$TRefObjectFunc@UIRefObject@core@UModSys@@@tl@3@@tl@UModSys@@H@tl@UModSys@@@23@@12@AEBUGen0@512@PEAPEAU312@2_N@Z 0000000180005480 f i umodsys_lib_libui:umodsys.mod.ui.SDL_core.obj
 0001:000045d0       ??$genx_node@UCmp@?$TScatterArray@U?$TRefObjectComposite@UIKeyboardClient@libui@UModSys@@UIRefObject@core@3@U?$TRefObjectFunc@UIRefObject@core@UModSys@@@tl@3@@tl@UModSys@@HU?$TScalarCompare@H@core@3@U?$TNodeDeleter0@U?$TScatterArrayNode@U?$TRefObjectComposite@UIKeyboardClient@libui@UModSys@@UIRefObject@core@3@U?$TRefObjectFunc@UIRefObject@core@UModSys@@@tl@3@@tl@UModSys@@H@tl@UModSys@@@23@@tl@UModSys@@UGen0@234@@?$TTreeHoldRBD@U?$TScatterArrayNode@U?$TRefObjectComposite@UIKeyboardClient@libui@UModSys@@UIRefObject@core@3@U?$TRefObjectFunc@UIRefObject@core@UModSys@@@tl@3@@tl@UModSys@@H@tl@UModSys@@U?$TNodeDeleter0@U?$TScatterArrayNode@U?$TRefObjectComposite@UIKeyboardClient@libui@UModSys@@UIRefObject@core@3@U?$TRefObjectFunc@UIRefObject@core@UModSys@@@tl@3@@tl@UModSys@@H@tl@UModSys@@@23@@tl@UModSys@@QEAAPEAU?$TScatterArrayNode@U?$TRefObjectComposite@UIKeyboardClient@libui@UModSys@@UIRefObject@core@3@U?$TRefObjectFunc@UIRefObject@core@UModSys@@@tl@3@@tl@UModSys@@H@12@UCmp@?$TScatterArray@U?$TRefObjectComposite@UIKeyboardClient@libui@UModSys@@UIRefObject@core@3@U?$TRefObjectFunc@UIRefObject@core@UModSys@@@tl@3@@tl@UModSys@@HU?$TScalarCompare@H@core@3@U?$TNodeDeleter0@U?$TScatterArrayNode@U?$TRefObjectComposite@UIKeyboardClient@libui@UModSys@@UIRefObject@core@3@U?$TRefObjectFunc@UIRefObject@core@UModSys@@@tl@3@@tl@UModSys@@H@tl@UModSys@@@23@@12@AEBUGen0@512@PEAPEAU312@2_N@Z 00000001800055d0 f i umodsys_lib_libui:umodsys.mod.ui.SDL_core.obj
 0001:00004710       ??$process_nodes@U?$TNodeDeleter0@U?$TScatterArrayNode@U?$TRefObjectComposite@UIKeyboardClient@libui@UModSys@@UIRefObject@core@3@U?$TRefObjectFunc@UIRefObject@core@UModSys@@@tl@3@@tl@UModSys@@H@tl@UModSys@@@tl@UModSys@@@?$TTreeHoldRB@U?$TScatterArrayNode@U?$TRefObjectComposite@UIKeyboardClient@libui@UModSys@@UIRefObject@core@3@U?$TRefObjectFunc@UIRefObject@core@UModSys@@@tl@3@@tl@UModSys@@H@tl@UModSys@@@tl@UModSys@@QEAAHAEBU?$TNodeDeleter0@U?$TScatterArrayNode@U?$TRefObjectComposite@UIKeyboardClient@libui@UModSys@@UIRefObject@core@3@U?$TRefObjectFunc@UIRefObject@core@UModSys@@@tl@3@@tl@UModSys@@H@tl@UModSys@@@12@@Z 0000000180005710 f i umodsys_lib_libui:umodsys.mod.ui.SDL_core.obj
 0001:00004710       ??$process_nodes@U?$TNodeDeleter0@U?$TScatterArrayNode@U?$TRefObjectCompositeExtra@UIMouseClient@libui@UModSys@@HUIRefObject@core@3@U?$TRefObjectFunc@UIRefObject@core@UModSys@@@tl@3@@tl@UModSys@@H@tl@UModSys@@@tl@UModSys@@@?$TTreeHoldRB@U?$TScatterArrayNode@U?$TRefObjectCompositeExtra@UIMouseClient@libui@UModSys@@HUIRefObject@core@3@U?$TRefObjectFunc@UIRefObject@core@UModSys@@@tl@3@@tl@UModSys@@H@tl@UModSys@@@tl@UModSys@@QEAAHAEBU?$TNodeDeleter0@U?$TScatterArrayNode@U?$TRefObjectCompositeExtra@UIMouseClient@libui@UModSys@@HUIRefObject@core@3@U?$TRefObjectFunc@UIRefObject@core@UModSys@@@tl@3@@tl@UModSys@@H@tl@UModSys@@@12@@Z 0000000180005710 f i umodsys_lib_libui:umodsys.mod.ui.SDL_core.obj
 0001:00004790       ?attach@?$TRefObject@URRenderDriver2D@SDL_core@ui@modules@UModSys@@U?$TRefObjectWeakFunc@URRenderDriver2D@SDL_core@ui@modules@UModSys@@@tl@5@@tl@UModSys@@QEAAXPEAURRenderDriver2D@SDL_core@ui@modules@3@@Z 0000000180005790 f i umodsys_lib_libui:umodsys.mod.ui.SDL_core.obj
 0001:00004820       ??$process_nodes_r@U?$TNodeDeleter0@U?$TScatterArrayNode@UGlyph@RMultiImage2D_SDL_ttf@SDL_core@ui@modules@UModSys@@H@tl@UModSys@@@tl@UModSys@@@?$TTreeHoldRB@U?$TScatterArrayNode@UGlyph@RMultiImage2D_SDL_ttf@SDL_core@ui@modules@UModSys@@H@tl@UModSys@@@tl@UModSys@@KAHPEAU?$TScatterArrayNode@UGlyph@RMultiImage2D_SDL_ttf@SDL_core@ui@modules@UModSys@@H@12@AEBU?$TNodeDeleter0@U?$TScatterArrayNode@UGlyph@RMultiImage2D_SDL_ttf@SDL_core@ui@modules@UModSys@@H@tl@UModSys@@@12@@Z 0000000180005820 f i umodsys_lib_libui:umodsys.mod.ui.SDL_core.obj
 0001:000048a0       ??$process_nodes_r@U?$TNodeDeleter0@U?$TScatterArrayNode@U?$TRefObjectCompositeExtra@UIMouseClient@libui@UModSys@@HUIRefObject@core@3@U?$TRefObjectFunc@UIRefObject@core@UModSys@@@tl@3@@tl@UModSys@@H@tl@UModSys@@@tl@UModSys@@@?$TTreeHoldRB@U?$TScatterArrayNode@U?$TRefObjectCompositeExtra@UIMouseClient@libui@UModSys@@HUIRefObject@core@3@U?$TRefObjectFunc@UIRefObject@core@UModSys@@@tl@3@@tl@UModSys@@H@tl@UModSys@@@tl@UModSys@@KAHPEAU?$TScatterArrayNode@U?$TRefObjectCompositeExtra@UIMouseClient@libui@UModSys@@HUIRefObject@core@3@U?$TRefObjectFunc@UIRefObject@core@UModSys@@@tl@3@@tl@UModSys@@H@12@AEBU?$TNodeDeleter0@U?$TScatterArrayNode@U?$TRefObjectCompositeExtra@UIMouseClient@libui@UModSys@@HUIRefObject@core@3@U?$TRefObjectFunc@UIRefObject@core@UModSys@@@tl@3@@tl@UModSys@@H@tl@UModSys@@@12@@Z 00000001800058a0 f i umodsys_lib_libui:umodsys.mod.ui.SDL_core.obj
 0001:000048a0       ??$process_nodes_r@U?$TNodeDeleter0@U?$TScatterArrayNode@U?$TRefObjectComposite@UIKeyboardClient@libui@UModSys@@UIRefObject@core@3@U?$TRefObjectFunc@UIRefObject@core@UModSys@@@tl@3@@tl@UModSys@@H@tl@UModSys@@@tl@UModSys@@@?$TTreeHoldRB@U?$TScatterArrayNode@U?$TRefObjectComposite@UIKeyboardClient@libui@UModSys@@UIRefObject@core@3@U?$TRefObjectFunc@UIRefObject@core@UModSys@@@tl@3@@tl@UModSys@@H@tl@UModSys@@@tl@UModSys@@KAHPEAU?$TScatterArrayNode@U?$TRefObjectComposite@UIKeyboardClient@libui@UModSys@@UIRefObject@core@3@U?$TRefObjectFunc@UIRefObject@core@UModSys@@@tl@3@@tl@UModSys@@H@12@AEBU?$TNodeDeleter0@U?$TScatterArrayNode@U?$TRefObjectComposite@UIKeyboardClient@libui@UModSys@@UIRefObject@core@3@U?$TRefObjectFunc@UIRefObject@core@UModSys@@@tl@3@@tl@UModSys@@H@tl@UModSys@@@12@@Z 00000001800058a0 f i umodsys_lib_libui:umodsys.mod.ui.SDL_core.obj
 0001:00004910       ??$process_nodes_r@U?$TNodeDeleter0@U?$TScatterArrayNode@U?$TRefObject@URRenderDriver2D@SDL_core@ui@modules@UModSys@@U?$TRefObjectWeakFunc@URRenderDriver2D@SDL_core@ui@modules@UModSys@@@tl@5@@tl@UModSys@@H@tl@UModSys@@@tl@UModSys@@@?$TTreeHoldRB@U?$TScatterArrayNode@U?$TRefObject@URRenderDriver2D@SDL_core@ui@modules@UModSys@@U?$TRefObjectWeakFunc@URRenderDriver2D@SDL_core@ui@modules@UModSys@@@tl@5@@tl@UModSys@@H@tl@UModSys@@@tl@UModSys@@KAHPEAU?$TScatterArrayNode@U?$TRefObject@URRenderDriver2D@SDL_core@ui@modules@UModSys@@U?$TRefObjectWeakFunc@URRenderDriver2D@SDL_core@ui@modules@UModSys@@@tl@5@@tl@UModSys@@H@12@AEBU?$TNodeDeleter0@U?$TScatterArrayNode@U?$TRefObject@URRenderDriver2D@SDL_core@ui@modules@UModSys@@U?$TRefObjectWeakFunc@URRenderDriver2D@SDL_core@ui@modules@UModSys@@@tl@5@@tl@UModSys@@H@tl@UModSys@@@12@@Z 0000000180005910 f i umodsys_lib_libui:umodsys.mod.ui.SDL_core.obj
 0001:000049b0       ??$genx_node@UCmp@?$TScatterArray@U?$TRefObject@URRenderDriver2D@SDL_core@ui@modules@UModSys@@U?$TRefObjectWeakFunc@URRenderDriver2D@SDL_core@ui@modules@UModSys@@@tl@5@@tl@UModSys@@HU?$TScalarCompare@H@core@3@U?$TNodeDeleter0@U?$TScatterArrayNode@U?$TRefObject@URRenderDriver2D@SDL_core@ui@modules@UModSys@@U?$TRefObjectWeakFunc@URRenderDriver2D@SDL_core@ui@modules@UModSys@@@tl@5@@tl@UModSys@@H@tl@UModSys@@@23@@tl@UModSys@@UGen0@234@@?$TTreeHoldRBD@U?$TScatterArrayNode@U?$TRefObject@URRenderDriver2D@SDL_core@ui@modules@UModSys@@U?$TRefObjectWeakFunc@URRenderDriver2D@SDL_core@ui@modules@UModSys@@@tl@5@@tl@UModSys@@H@tl@UModSys@@U?$TNodeDeleter0@U?$TScatterArrayNode@U?$TRefObject@URRenderDriver2D@SDL_core@ui@modules@UModSys@@U?$TRefObjectWeakFunc@URRenderDriver2D@SDL_core@ui@modules@UModSys@@@tl@5@@tl@UModSys@@H@tl@UModSys@@@23@@tl@UModSys@@QEAAPEAU?$TScatterArrayNode@U?$TRefObject@URRenderDriver2D@SDL_core@ui@modules@UModSys@@U?$TRefObjectWeakFunc@URRenderDriver2D@SDL_core@ui@modules@UModSys@@@tl@5@@tl@UModSys@@H@12@UCmp@?$TScatterArray@U?$TRefObject@URRenderDriver2D@SDL_core@ui@modules@UModSys@@U?$TRefObjectWeakFunc@URRenderDriver2D@SDL_core@ui@modules@UModSys@@@tl@5@@tl@UModSys@@HU?$TScalarCompare@H@core@3@U?$TNodeDeleter0@U?$TScatterArrayNode@U?$TRefObject@URRenderDriver2D@SDL_core@ui@modules@UModSys@@U?$TRefObjectWeakFunc@URRenderDriver2D@SDL_core@ui@modules@UModSys@@@tl@5@@tl@UModSys@@H@tl@UModSys@@@23@@12@AEBUGen0@512@PEAPEAU312@2_N@Z 00000001800059b0 f i umodsys_lib_libui:umodsys.mod.ui.SDL_core.obj
 0001:00004af0       ?ss@SFrameDataOut@libui@UModSys@@QEBAXAEBU?$TString@U?$TSCoreShared@USIMemAlloc@core@UModSys@@D@su@tl@UModSys@@U?$TComparerBinaryHash@D@234@@tl@3@@Z 0000000180005af0 f i umodsys_lib_libui:umodsys.mod.ui.frames.obj
 0001:00004b60       ??1SController@libui@UModSys@@QEAA@XZ 0000000180005b60 f i umodsys_lib_libui:umodsys.mod.ui.frames.obj
 0001:00004bb0       ?db_get_i@SController@libui@UModSys@@QEAAHQEBD@Z 0000000180005bb0 f i umodsys_lib_libui:umodsys.mod.ui.frames.obj
 0001:00004c60       ?update_size@libui@UModSys@@YA_NAEAU?$TBoundBox2@H@math3d@2@AEBUSFrameSize@12@AEBU342@@Z 0000000180005c60 f i umodsys_lib_libui:umodsys.mod.ui.frames.obj
 0001:00004da0       ?command@SController@libui@UModSys@@QEAA_NHAEBUSFrameDataIn@23@@Z 0000000180005da0 f i umodsys_lib_libui:umodsys.mod.ui.frames.obj
 0001:00004e30       ?get_property@ICollectorThemeTemplate@libui@UModSys@@UEBA_NHHAEAU?$TVector4@M@math3d@3@@Z 0000000180005e30 f i umodsys_lib_libui:umodsys.mod.ui.frames.obj
 0001:00004e50       ?get_property@ICollectorThemeTemplate@libui@UModSys@@UEBA_NHHAEAU?$TVector4@H@math3d@3@@Z 0000000180005e50 f i umodsys_lib_libui:umodsys.mod.ui.frames.obj
 0001:00004e70       ?get_property@ICollectorThemeTemplate@libui@UModSys@@UEBA_NHHAEAU?$TVector2@M@math3d@3@@Z 0000000180005e70 f i umodsys_lib_libui:umodsys.mod.ui.frames.obj
 0001:00004e90       ?get_property@ICollectorThemeTemplate@libui@UModSys@@UEBA_NHHAEAU?$TVector2@H@math3d@3@@Z 0000000180005e90 f i umodsys_lib_libui:umodsys.mod.ui.frames.obj
 0001:00004eb0       ?get_property@ICollectorThemeTemplate@libui@UModSys@@UEBA_NHHAEAH@Z 0000000180005eb0 f i umodsys_lib_libui:umodsys.mod.ui.frames.obj
 0001:00004ed0       ?set_property@ICollectorThemeTemplate@libui@UModSys@@UEAA_NHHAEBU?$TVector4@M@math3d@3@@Z 0000000180005ed0 f i umodsys_lib_libui:umodsys.mod.ui.frames.obj
 0001:00004f40       ?set_property@ICollectorThemeTemplate@libui@UModSys@@UEAA_NHHAEBU?$TVector4@H@math3d@3@@Z 0000000180005f40 f i umodsys_lib_libui:umodsys.mod.ui.frames.obj
 0001:00004f60       ?set_property@ICollectorThemeTemplate@libui@UModSys@@UEAA_NHHAEBU?$TVector2@M@math3d@3@@Z 0000000180005f60 f i umodsys_lib_libui:umodsys.mod.ui.frames.obj
 0001:00004fc0       ?set_property@ICollectorThemeTemplate@libui@UModSys@@UEAA_NHHAEBU?$TVector2@H@math3d@3@@Z 0000000180005fc0 f i umodsys_lib_libui:umodsys.mod.ui.frames.obj
 0001:00005040       ?set_property@ICollectorThemeTemplate@libui@UModSys@@UEAA_NHHH@Z 0000000180006040 f i umodsys_lib_libui:umodsys.mod.ui.frames.obj
 0001:000050a0       ??1ICollectorThemeTemplate@libui@UModSys@@QEAA@XZ 00000001800060a0 f i umodsys_lib_libui:umodsys.mod.ui.frames.obj
 0001:00005110       ?set_controller@RFrame_Common@frames@ui@modules@UModSys@@UEAA_NHPEAUIController@libui@5@PEAUIRefObject@core@5@@Z 0000000180006110 f i umodsys_lib_libui:umodsys.mod.ui.frames.obj
 0001:00005190       ?get_controller@RFrame_Common@frames@ui@modules@UModSys@@UEAAPEAUIController@libui@5@XZ 0000000180006190 f i umodsys_lib_libui:umodsys.mod.ui.frames.obj
 0001:000051a0       ?get_controller_context@RFrame_Common@frames@ui@modules@UModSys@@UEAAHXZ 00000001800061a0 f i umodsys_lib_libui:umodsys.mod.ui.frames.obj
 0001:000051b0       ?get_framesize@RFrame_Common@frames@ui@modules@UModSys@@UEAAAEBUSFrameSize@libui@5@XZ 00000001800061b0 f i umodsys_lib_libui:umodsys.mod.ui.frames.obj
 0001:000051c0       ?set_framesize@RFrame_Common@frames@ui@modules@UModSys@@UEAA_NAEBUSFrameSize@libui@5@@Z 00000001800061c0 f i umodsys_lib_libui:umodsys.mod.ui.frames.obj
 0001:000051f0       ?get_insize@RFrame_Common@frames@ui@modules@UModSys@@UEAA?AU?$TVector2@H@math3d@5@XZ 00000001800061f0 f i umodsys_lib_libui:umodsys.mod.ui.frames.obj
 0001:00005210       ?get_theme@RFrame_Common@frames@ui@modules@UModSys@@UEAAPEAUICollectorTheme@libui@5@XZ 0000000180006210 f i umodsys_lib_libui:umodsys.mod.ui.frames.obj
 0001:00005220       ?mouse_setposition@RMouseController@SDL_core@ui@modules@UModSys@@UEAA_NHH@Z 0000000180006220 f i umodsys_lib_libui:umodsys.mod.ui.SDL_core.obj
 0001:00005220       ?set_hint@RMultiImage2D_SDL_ttf@SDL_core@ui@modules@UModSys@@UEAA_NPEBD0@Z 0000000180006220 f i umodsys_lib_libui:umodsys.mod.ui.SDL_core.obj
 0001:00005220       ?key_reset@RKeyboardController@SDL_core@ui@modules@UModSys@@UEAA_NXZ 0000000180006220 f i umodsys_lib_libui:umodsys.mod.ui.SDL_core.obj
 0001:00005220       ?mouse_event@RFrame_Common@frames@ui@modules@UModSys@@MEAA_NPEBUSMouseInput@libui@5@@Z 0000000180006220 f i umodsys_lib_libui:umodsys.mod.ui.frames.obj
 0001:00005220       ?key_event@RFrame_Common@frames@ui@modules@UModSys@@MEAA_NAEBUSKeyboardInputRaw@libui@5@@Z 0000000180006220 f i umodsys_lib_libui:umodsys.mod.ui.frames.obj
 0001:00005220       ?set_insize@RFrame_Common@frames@ui@modules@UModSys@@UEAA_NAEBU?$TVector2@H@math3d@5@@Z 0000000180006220 f i umodsys_lib_libui:umodsys.mod.ui.frames.obj
 0001:00005220       ?key_event@RFrame_Common@frames@ui@modules@UModSys@@MEAA_NAEBUSKeyboardInputText@libui@5@@Z 0000000180006220 f i umodsys_lib_libui:umodsys.mod.ui.frames.obj
 0001:00005220       ?mouse_reset@RMouseController@SDL_core@ui@modules@UModSys@@UEAA_NXZ 0000000180006220 f i umodsys_lib_libui:umodsys.mod.ui.SDL_core.obj
 0001:00005220       ?key_setmodifier@RKeyboardController@SDL_core@ui@modules@UModSys@@UEAA_NHHH@Z 0000000180006220 f i umodsys_lib_libui:umodsys.mod.ui.SDL_core.obj
 0001:00005220       ?set_layer_count@RMultiImage2D_SDL_ttf@SDL_core@ui@modules@UModSys@@UEAA_NH@Z 0000000180006220 f i umodsys_lib_libui:umodsys.mod.ui.SDL_core.obj
 0001:00005220       ?set_fixed_cell@RMultiImage2D_SDL_ttf@SDL_core@ui@modules@UModSys@@UEAA_NHH@Z 0000000180006220 f i umodsys_lib_libui:umodsys.mod.ui.SDL_core.obj
 0001:00005220       ?key_setrepeat@RKeyboardController@SDL_core@ui@modules@UModSys@@UEAA_NMM@Z 0000000180006220 f i umodsys_lib_libui:umodsys.mod.ui.SDL_core.obj
 0001:00005220       ?mouse_setvisible@RMouseController@SDL_core@ui@modules@UModSys@@UEAA_N_N@Z 0000000180006220 f i umodsys_lib_libui:umodsys.mod.ui.SDL_core.obj
 0001:00005220       ?set_var_cell@RMultiImage2D_SDL_ttf@SDL_core@ui@modules@UModSys@@UEAA_NPEBUSImageCellInfo@lib2d@5@HH@Z 0000000180006220 f i umodsys_lib_libui:umodsys.mod.ui.SDL_core.obj
 0001:00005220       ?get_cell_size@RMultiImage2D_SDL_ttf@SDL_core@ui@modules@UModSys@@UEAA_NHAEAU?$TVector2@H@math3d@5@PEAU675@@Z 0000000180006220 f i umodsys_lib_libui:umodsys.mod.ui.SDL_core.obj
 0001:00005220       ?get_max_cell_size@RMultiImage2D_SDL_ttf@SDL_core@ui@modules@UModSys@@UEAA_NAEAU?$TVector2@H@math3d@5@@Z 0000000180006220 f i umodsys_lib_libui:umodsys.mod.ui.SDL_core.obj
 0001:00005220       ?set_parameters@RRenderDriver2D@SDL_core@ui@modules@UModSys@@UEAA_NPEBDAEBUSParameters@core@5@@Z 0000000180006220 f i umodsys_lib_libui:umodsys.mod.ui.SDL_core.obj
 0001:00005230       ?draw_pre@RFrame_Common@frames@ui@modules@UModSys@@MEAA_NAEBUSDrawState@2345@@Z 0000000180006230 f i umodsys_lib_libui:umodsys.mod.ui.frames.obj
 0001:00005230       ?controller_update@RFrame_Common@frames@ui@modules@UModSys@@UEAA_NXZ 0000000180006230 f i umodsys_lib_libui:umodsys.mod.ui.frames.obj
 0001:00005230       ?button_cmd@RFrame_Common@frames@ui@modules@UModSys@@MEAA_NPEAUSButton@2345@HH@Z 0000000180006230 f i umodsys_lib_libui:umodsys.mod.ui.frames.obj
 0001:00005230       ?draw_post@RFrame_Common@frames@ui@modules@UModSys@@MEAA_NAEBUSDrawState@2345@@Z 0000000180006230 f i umodsys_lib_libui:umodsys.mod.ui.frames.obj
 0001:00005230       ?button_draw@RFrame_Common@frames@ui@modules@UModSys@@MEAA_NPEAUSButton@2345@AEBUSDrawState@2345@H@Z 0000000180006230 f i umodsys_lib_libui:umodsys.mod.ui.frames.obj
 0001:00005240       ??_ERFrame_Common@frames@ui@modules@UModSys@@UEAAPEAXI@Z 0000000180006240 f i  CIL library: CIL module
 0001:00005240       ??_GRFrame_Common@frames@ui@modules@UModSys@@UEAAPEAXI@Z 0000000180006240 f i umodsys_lib_libui:umodsys.mod.ui.frames.obj
 0001:00005270       ??1ITerminal@libui@UModSys@@UEAA@XZ 0000000180006270 f i umodsys_lib_libui:umodsys.mod.ui.SDL_core.obj
 0001:00005270       ??1IBinObjFilter@libmedia@UModSys@@UEAA@XZ 0000000180006270 f i plugin_test1.obj
 0001:00005270       ??1ICollector@libui@UModSys@@UEAA@XZ 0000000180006270 f i umodsys_lib_libui:umodsys.mod.ui.frames.obj
 0001:00005270       ??1IShell@base@UModSys@@UEAA@XZ 0000000180006270 f i plugin_test1.obj
 0001:00005270       ??1IMultiImage@lib2d@UModSys@@UEAA@XZ 0000000180006270 f i umodsys_lib_libui:umodsys.mod.ui.SDL_core.obj
 0001:00005270       ??1IRenderDriver@lib2d@UModSys@@UEAA@XZ 0000000180006270 f i umodsys_lib_libui:umodsys.mod.ui.SDL_core.obj
 0001:00005270       ??1IDialog@libui@UModSys@@UEAA@XZ 0000000180006270 f i umodsys_lib_libui:umodsys.mod.ui.frames.obj
 0001:00005270       ??1IMouseController@libui@UModSys@@UEAA@XZ 0000000180006270 f i umodsys_lib_libui:umodsys.mod.ui.SDL_core.obj
 0001:00005270       ??1IKeyboardController@libui@UModSys@@UEAA@XZ 0000000180006270 f i umodsys_lib_libui:umodsys.mod.ui.SDL_core.obj
 0001:00005270       ??1IFrame@libui@UModSys@@UEAA@XZ 0000000180006270 f i umodsys_lib_libui:umodsys.mod.ui.frames.obj
 0001:00005280       ?root_get_interface_info@RDialog@frames@ui@modules@UModSys@@UEBAAEBUSUniquePointerInfo@core@5@XZ 0000000180006280 f i umodsys_lib_libui:umodsys.mod.ui.frames.obj
 0001:00005290       ?root_get_interface_type@RDialog@frames@ui@modules@UModSys@@UEBAPEBUSUniquePointerInfo@core@5@XZ 0000000180006290 f i umodsys_lib_libui:umodsys.mod.ui.frames.obj
 0001:000052a0       ?root_get_other_interface@RDialog@frames@ui@modules@UModSys@@UEAAPEAUIRoot@core@5@PEBUSUniquePointerInfo@75@@Z 00000001800062a0 f i umodsys_lib_libui:umodsys.mod.ui.frames.obj
 0001:000052a0       ?root_get_other_interface@RDialog@frames@ui@modules@UModSys@@UEBAPEBUIRoot@core@5@PEBUSUniquePointerInfo@75@@Z 00000001800062a0 f i umodsys_lib_libui:umodsys.mod.ui.frames.obj
 0001:000052d0       ?root_is_interface_supported@RDialog@frames@ui@modules@UModSys@@UEBA_NPEBUSUniquePointerInfo@core@5@@Z 00000001800062d0 f i umodsys_lib_libui:umodsys.mod.ui.frames.obj
 0001:00005300       ?suicide@RMultiImage2D_SDL_ttf@SDL_core@ui@modules@UModSys@@UEAAXXZ 0000000180006300 f i umodsys_lib_libui:umodsys.mod.ui.SDL_core.obj
 0001:00005300       ?suicide@RKeyboardController@SDL_core@ui@modules@UModSys@@UEAAXXZ 0000000180006300 f i umodsys_lib_libui:umodsys.mod.ui.SDL_core.obj
 0001:00005300       ?suicide@RMouseController@SDL_core@ui@modules@UModSys@@UEAAXXZ 0000000180006300 f i umodsys_lib_libui:umodsys.mod.ui.SDL_core.obj
 0001:00005300       ?suicide@RDialog@frames@ui@modules@UModSys@@UEAAXXZ 0000000180006300 f i umodsys_lib_libui:umodsys.mod.ui.frames.obj
 0001:00005300       ?suicide@RRenderDriver2D@SDL_core@ui@modules@UModSys@@UEAAXXZ 0000000180006300 f i umodsys_lib_libui:umodsys.mod.ui.SDL_core.obj
 0001:00005350       ??_ERDialog@frames@ui@modules@UModSys@@UEAAPEAXI@Z 0000000180006350 f i  CIL library: CIL module
 0001:00005350       ??_GRDialog@frames@ui@modules@UModSys@@UEAAPEAXI@Z 0000000180006350 f i umodsys_lib_libui:umodsys.mod.ui.frames.obj
 0001:00005380       ?root_get_interface_info@RFrame_Frame@frames@ui@modules@UModSys@@UEBAAEBUSUniquePointerInfo@core@5@XZ 0000000180006380 f i umodsys_lib_libui:umodsys.mod.ui.frames.obj
 0001:00005390       ?root_get_interface_type@RFrame_Frame@frames@ui@modules@UModSys@@UEBAPEBUSUniquePointerInfo@core@5@XZ 0000000180006390 f i umodsys_lib_libui:umodsys.mod.ui.frames.obj
 0001:000053a0       ?root_get_other_interface@RFrame_Frame@frames@ui@modules@UModSys@@UEBAPEBUIRoot@core@5@PEBUSUniquePointerInfo@75@@Z 00000001800063a0 f i umodsys_lib_libui:umodsys.mod.ui.frames.obj
 0001:000053a0       ?root_get_other_interface@RFrame_Frame@frames@ui@modules@UModSys@@UEAAPEAUIRoot@core@5@PEBUSUniquePointerInfo@75@@Z 00000001800063a0 f i umodsys_lib_libui:umodsys.mod.ui.frames.obj
 0001:000053e0       ?root_is_interface_supported@RFrame_Frame@frames@ui@modules@UModSys@@UEBA_NPEBUSUniquePointerInfo@core@5@@Z 00000001800063e0 f i umodsys_lib_libui:umodsys.mod.ui.frames.obj
 0001:00005420       ?ref_add@RFrame_Image@frames@ui@modules@UModSys@@UEBAXXZ 0000000180006420 f i umodsys_lib_libui:umodsys.mod.ui.frames.obj
 0001:00005420       ?ref_add@RFrame_Button@frames@ui@modules@UModSys@@UEBAXXZ 0000000180006420 f i umodsys_lib_libui:umodsys.mod.ui.frames.obj
 0001:00005420       ?ref_add@RFrame_Frame@frames@ui@modules@UModSys@@UEBAXXZ 0000000180006420 f i umodsys_lib_libui:umodsys.mod.ui.frames.obj
 0001:00005430       ?ref_weak@RFrame_Image@frames@ui@modules@UModSys@@UEBA_NAEAUWeakPointer@IRefObject@core@5@@Z 0000000180006430 f i umodsys_lib_libui:umodsys.mod.ui.frames.obj
 0001:00005430       ?ref_weak@RFrame_Frame@frames@ui@modules@UModSys@@UEBA_NAEAUWeakPointer@IRefObject@core@5@@Z 0000000180006430 f i umodsys_lib_libui:umodsys.mod.ui.frames.obj
 0001:00005430       ?ref_weak@RFrame_Button@frames@ui@modules@UModSys@@UEBA_NAEAUWeakPointer@IRefObject@core@5@@Z 0000000180006430 f i umodsys_lib_libui:umodsys.mod.ui.frames.obj
 0001:00005460       ?get_cids@RFrame_Frame@frames@ui@modules@UModSys@@UEAA?AU?$TString@U?$TSCoreConst@D@su@tl@UModSys@@U?$TComparerBinaryHash@D@234@@tl@5@XZ 0000000180006460 f i umodsys_lib_libui:umodsys.mod.ui.frames.obj
 0001:000054b0       ?get_cidn@RFrame_Frame@frames@ui@modules@UModSys@@UEAAHXZ 00000001800064b0 f i umodsys_lib_libui:umodsys.mod.ui.frames.obj
 0001:000054c0       ?root_get_interface_info@RFrame_Image@frames@ui@modules@UModSys@@UEBAAEBUSUniquePointerInfo@core@5@XZ 00000001800064c0 f i umodsys_lib_libui:umodsys.mod.ui.frames.obj
 0001:000054d0       ?root_get_interface_type@RFrame_Image@frames@ui@modules@UModSys@@UEBAPEBUSUniquePointerInfo@core@5@XZ 00000001800064d0 f i umodsys_lib_libui:umodsys.mod.ui.frames.obj
 0001:000054e0       ?root_get_other_interface@RFrame_Image@frames@ui@modules@UModSys@@UEBAPEBUIRoot@core@5@PEBUSUniquePointerInfo@75@@Z 00000001800064e0 f i umodsys_lib_libui:umodsys.mod.ui.frames.obj
 0001:000054e0       ?root_get_other_interface@RFrame_Image@frames@ui@modules@UModSys@@UEAAPEAUIRoot@core@5@PEBUSUniquePointerInfo@75@@Z 00000001800064e0 f i umodsys_lib_libui:umodsys.mod.ui.frames.obj
 0001:00005520       ?root_is_interface_supported@RFrame_Image@frames@ui@modules@UModSys@@UEBA_NPEBUSUniquePointerInfo@core@5@@Z 0000000180006520 f i umodsys_lib_libui:umodsys.mod.ui.frames.obj
 0001:00005560       ?ref_links@RFrame_Button@frames@ui@modules@UModSys@@UEBAHXZ 0000000180006560 f i umodsys_lib_libui:umodsys.mod.ui.frames.obj
 0001:00005560       ?ref_links@RFrame_Frame@frames@ui@modules@UModSys@@UEBAHXZ 0000000180006560 f i umodsys_lib_libui:umodsys.mod.ui.frames.obj
 0001:00005560       ?ref_links@RFrame_Image@frames@ui@modules@UModSys@@UEBAHXZ 0000000180006560 f i umodsys_lib_libui:umodsys.mod.ui.frames.obj
 0001:00005570       ?get_cids@RFrame_Image@frames@ui@modules@UModSys@@UEAA?AU?$TString@U?$TSCoreConst@D@su@tl@UModSys@@U?$TComparerBinaryHash@D@234@@tl@5@XZ 0000000180006570 f i umodsys_lib_libui:umodsys.mod.ui.frames.obj
 0001:000055c0       ?get_cidn@RFrame_Image@frames@ui@modules@UModSys@@UEAAHXZ 00000001800065c0 f i umodsys_lib_libui:umodsys.mod.ui.frames.obj
 0001:000055d0       ?root_get_interface_info@RFrame_Text@frames@ui@modules@UModSys@@UEBAAEBUSUniquePointerInfo@core@5@XZ 00000001800065d0 f i umodsys_lib_libui:umodsys.mod.ui.frames.obj
 0001:000055e0       ?root_get_interface_type@RFrame_Text@frames@ui@modules@UModSys@@UEBAPEBUSUniquePointerInfo@core@5@XZ 00000001800065e0 f i umodsys_lib_libui:umodsys.mod.ui.frames.obj
 0001:000055f0       ?root_get_other_interface@RFrame_Text@frames@ui@modules@UModSys@@UEBAPEBUIRoot@core@5@PEBUSUniquePointerInfo@75@@Z 00000001800065f0 f i umodsys_lib_libui:umodsys.mod.ui.frames.obj
 0001:000055f0       ?root_get_other_interface@RFrame_Text@frames@ui@modules@UModSys@@UEAAPEAUIRoot@core@5@PEBUSUniquePointerInfo@75@@Z 00000001800065f0 f i umodsys_lib_libui:umodsys.mod.ui.frames.obj
 0001:00005630       ?root_is_interface_supported@RFrame_Text@frames@ui@modules@UModSys@@UEBA_NPEBUSUniquePointerInfo@core@5@@Z 0000000180006630 f i umodsys_lib_libui:umodsys.mod.ui.frames.obj
 0001:00005670       ?ref_links@RFrame_Edit@frames@ui@modules@UModSys@@UEBAHXZ 0000000180006670 f i umodsys_lib_libui:umodsys.mod.ui.frames.obj
 0001:00005670       ?ref_links@RFrame_Text@frames@ui@modules@UModSys@@UEBAHXZ 0000000180006670 f i umodsys_lib_libui:umodsys.mod.ui.frames.obj
 0001:00005680       ?suicide@RFrame_Text@frames@ui@modules@UModSys@@UEAAXXZ 0000000180006680 f i umodsys_lib_libui:umodsys.mod.ui.frames.obj
 0001:00005680       ?suicide@RFrame_Edit@frames@ui@modules@UModSys@@UEAAXXZ 0000000180006680 f i umodsys_lib_libui:umodsys.mod.ui.frames.obj
 0001:000056d0       ?get_cids@RFrame_List@frames@ui@modules@UModSys@@UEAA?AU?$TString@U?$TSCoreConst@D@su@tl@UModSys@@U?$TComparerBinaryHash@D@234@@tl@5@XZ 00000001800066d0 f i umodsys_lib_libui:umodsys.mod.ui.frames.obj
 0001:000056d0       ?get_cids@RFrame_Text@frames@ui@modules@UModSys@@UEAA?AU?$TString@U?$TSCoreConst@D@su@tl@UModSys@@U?$TComparerBinaryHash@D@234@@tl@5@XZ 00000001800066d0 f i umodsys_lib_libui:umodsys.mod.ui.frames.obj
 0001:000056d0       ?get_cids@RFrame_Button@frames@ui@modules@UModSys@@UEAA?AU?$TString@U?$TSCoreConst@D@su@tl@UModSys@@U?$TComparerBinaryHash@D@234@@tl@5@XZ 00000001800066d0 f i umodsys_lib_libui:umodsys.mod.ui.frames.obj
 0001:00005720       ?get_cidn@RFrame_Button@frames@ui@modules@UModSys@@UEAAHXZ 0000000180006720 f i umodsys_lib_libui:umodsys.mod.ui.frames.obj
 0001:00005720       ?get_cidn@RFrame_Text@frames@ui@modules@UModSys@@UEAAHXZ 0000000180006720 f i umodsys_lib_libui:umodsys.mod.ui.frames.obj
 0001:00005720       ?get_cidn@RFrame_List@frames@ui@modules@UModSys@@UEAAHXZ 0000000180006720 f i umodsys_lib_libui:umodsys.mod.ui.frames.obj
 0001:00005730       ?get_data@RFrame_Text@frames@ui@modules@UModSys@@UEAAPEAUIFrameData@libui@5@XZ 0000000180006730 f i umodsys_lib_libui:umodsys.mod.ui.frames.obj
 0001:00005730       ?get_data@RFrame_Edit@frames@ui@modules@UModSys@@UEAAPEAUIFrameData@libui@5@XZ 0000000180006730 f i umodsys_lib_libui:umodsys.mod.ui.frames.obj
 0001:00005730       ?get_list@RFrame_List@frames@ui@modules@UModSys@@UEAAPEAUIFrameList@libui@5@XZ 0000000180006730 f i umodsys_lib_libui:umodsys.mod.ui.frames.obj
 0001:00005740       ??_GRFrame_Frame@frames@ui@modules@UModSys@@UEAAPEAXI@Z 0000000180006740 f i umodsys_lib_libui:umodsys.mod.ui.frames.obj
 0001:00005740       ??_ERFrame_Frame@frames@ui@modules@UModSys@@UEAAPEAXI@Z 0000000180006740 f i  CIL library: CIL module
 0001:00005770       ??_ERFrame_Text@frames@ui@modules@UModSys@@UEAAPEAXI@Z 0000000180006770 f i  CIL library: CIL module
 0001:00005770       ??_GRFrame_Text@frames@ui@modules@UModSys@@UEAAPEAXI@Z 0000000180006770 f i umodsys_lib_libui:umodsys.mod.ui.frames.obj
 0001:000057a0       ??_ERFrame_Image@frames@ui@modules@UModSys@@UEAAPEAXI@Z 00000001800067a0 f i  CIL library: CIL module
 0001:000057a0       ??_GRFrame_Image@frames@ui@modules@UModSys@@UEAAPEAXI@Z 00000001800067a0 f i umodsys_lib_libui:umodsys.mod.ui.frames.obj
 0001:000057d0       ?root_get_interface_info@RFrame_Button@frames@ui@modules@UModSys@@UEBAAEBUSUniquePointerInfo@core@5@XZ 00000001800067d0 f i umodsys_lib_libui:umodsys.mod.ui.frames.obj
 0001:000057e0       ?root_get_interface_type@RFrame_Button@frames@ui@modules@UModSys@@UEBAPEBUSUniquePointerInfo@core@5@XZ 00000001800067e0 f i umodsys_lib_libui:umodsys.mod.ui.frames.obj
 0001:000057f0       ?root_get_other_interface@RFrame_Button@frames@ui@modules@UModSys@@UEBAPEBUIRoot@core@5@PEBUSUniquePointerInfo@75@@Z 00000001800067f0 f i umodsys_lib_libui:umodsys.mod.ui.frames.obj
 0001:000057f0       ?root_get_other_interface@RFrame_Button@frames@ui@modules@UModSys@@UEAAPEAUIRoot@core@5@PEBUSUniquePointerInfo@75@@Z 00000001800067f0 f i umodsys_lib_libui:umodsys.mod.ui.frames.obj
 0001:00005830       ?root_is_interface_supported@RFrame_Button@frames@ui@modules@UModSys@@UEBA_NPEBUSUniquePointerInfo@core@5@@Z 0000000180006830 f i umodsys_lib_libui:umodsys.mod.ui.frames.obj
 0001:00005870       ?ref_remove@RFrame_Image@frames@ui@modules@UModSys@@UEBAXXZ 0000000180006870 f i umodsys_lib_libui:umodsys.mod.ui.frames.obj
 0001:00005870       ?ref_remove@RFrame_Button@frames@ui@modules@UModSys@@UEBAXXZ 0000000180006870 f i umodsys_lib_libui:umodsys.mod.ui.frames.obj
 0001:00005870       ?ref_remove@RFrame_Frame@frames@ui@modules@UModSys@@UEBAXXZ 0000000180006870 f i umodsys_lib_libui:umodsys.mod.ui.frames.obj
 0001:00005890       ?suicide@RFrame_Image@frames@ui@modules@UModSys@@UEAAXXZ 0000000180006890 f i umodsys_lib_libui:umodsys.mod.ui.frames.obj
 0001:00005890       ?suicide@RFrame_Frame@frames@ui@modules@UModSys@@UEAAXXZ 0000000180006890 f i umodsys_lib_libui:umodsys.mod.ui.frames.obj
 0001:00005890       ?suicide@RFrame_Button@frames@ui@modules@UModSys@@UEAAXXZ 0000000180006890 f i umodsys_lib_libui:umodsys.mod.ui.frames.obj
 0001:000058e0       ??_ERFrame_Button@frames@ui@modules@UModSys@@UEAAPEAXI@Z 00000001800068e0 f i  CIL library: CIL module
 0001:000058e0       ??_GRFrame_Button@frames@ui@modules@UModSys@@UEAAPEAXI@Z 00000001800068e0 f i umodsys_lib_libui:umodsys.mod.ui.frames.obj
 0001:00005910       ?root_get_interface_info@RFrame_Edit@frames@ui@modules@UModSys@@UEBAAEBUSUniquePointerInfo@core@5@XZ 0000000180006910 f i umodsys_lib_libui:umodsys.mod.ui.frames.obj
 0001:00005920       ?root_get_interface_type@RFrame_Edit@frames@ui@modules@UModSys@@UEBAPEBUSUniquePointerInfo@core@5@XZ 0000000180006920 f i umodsys_lib_libui:umodsys.mod.ui.frames.obj
 0001:00005930       ?root_get_other_interface@RFrame_Edit@frames@ui@modules@UModSys@@UEAAPEAUIRoot@core@5@PEBUSUniquePointerInfo@75@@Z 0000000180006930 f i umodsys_lib_libui:umodsys.mod.ui.frames.obj
 0001:00005930       ?root_get_other_interface@RFrame_Edit@frames@ui@modules@UModSys@@UEBAPEBUIRoot@core@5@PEBUSUniquePointerInfo@75@@Z 0000000180006930 f i umodsys_lib_libui:umodsys.mod.ui.frames.obj
 0001:00005970       ?root_is_interface_supported@RFrame_Edit@frames@ui@modules@UModSys@@UEBA_NPEBUSUniquePointerInfo@core@5@@Z 0000000180006970 f i umodsys_lib_libui:umodsys.mod.ui.frames.obj
 0001:000059b0       ?ref_add@RFrame_Text@frames@ui@modules@UModSys@@UEBAXXZ 00000001800069b0 f i umodsys_lib_libui:umodsys.mod.ui.frames.obj
 0001:000059b0       ?ref_add@RFrame_Edit@frames@ui@modules@UModSys@@UEBAXXZ 00000001800069b0 f i umodsys_lib_libui:umodsys.mod.ui.frames.obj
 0001:000059c0       ?ref_remove@RFrame_Edit@frames@ui@modules@UModSys@@UEBAXXZ 00000001800069c0 f i umodsys_lib_libui:umodsys.mod.ui.frames.obj
 0001:000059c0       ?ref_remove@RFrame_Text@frames@ui@modules@UModSys@@UEBAXXZ 00000001800069c0 f i umodsys_lib_libui:umodsys.mod.ui.frames.obj
 0001:000059e0       ?ref_weak@RFrame_Text@frames@ui@modules@UModSys@@UEBA_NAEAUWeakPointer@IRefObject@core@5@@Z 00000001800069e0 f i umodsys_lib_libui:umodsys.mod.ui.frames.obj
 0001:000059e0       ?ref_weak@RFrame_Edit@frames@ui@modules@UModSys@@UEBA_NAEAUWeakPointer@IRefObject@core@5@@Z 00000001800069e0 f i umodsys_lib_libui:umodsys.mod.ui.frames.obj
 0001:00005a10       ?get_cids@RFrame_Edit@frames@ui@modules@UModSys@@UEAA?AU?$TString@U?$TSCoreConst@D@su@tl@UModSys@@U?$TComparerBinaryHash@D@234@@tl@5@XZ 0000000180006a10 f i umodsys_lib_libui:umodsys.mod.ui.frames.obj
 0001:00005a60       ?get_cidn@RFrame_Edit@frames@ui@modules@UModSys@@UEAAHXZ 0000000180006a60 f i umodsys_lib_libui:umodsys.mod.ui.frames.obj
 0001:00005a70       ??_ERFrame_Edit@frames@ui@modules@UModSys@@UEAAPEAXI@Z 0000000180006a70 f i  CIL library: CIL module
 0001:00005a70       ??_GRFrame_Edit@frames@ui@modules@UModSys@@UEAAPEAXI@Z 0000000180006a70 f i umodsys_lib_libui:umodsys.mod.ui.frames.obj
 0001:00005aa0       ??1?$TStringBuf@U?$TSCoreShared@USIMemAlloc@core@UModSys@@D@su@tl@UModSys@@U?$TComparerBinaryHash@D@234@@tl@UModSys@@QEAA@XZ 0000000180006aa0 f i umodsys_lib_libui:umodsys.mod.ui.frames.obj
 0001:00005af0       ?root_get_interface_info@RFrame_List@frames@ui@modules@UModSys@@UEBAAEBUSUniquePointerInfo@core@5@XZ 0000000180006af0 f i umodsys_lib_libui:umodsys.mod.ui.frames.obj
 0001:00005b00       ?root_get_interface_type@RFrame_List@frames@ui@modules@UModSys@@UEBAPEBUSUniquePointerInfo@core@5@XZ 0000000180006b00 f i umodsys_lib_libui:umodsys.mod.ui.frames.obj
 0001:00005b10       ?root_get_other_interface@RFrame_List@frames@ui@modules@UModSys@@UEBAPEBUIRoot@core@5@PEBUSUniquePointerInfo@75@@Z 0000000180006b10 f i umodsys_lib_libui:umodsys.mod.ui.frames.obj
 0001:00005b10       ?root_get_other_interface@RFrame_List@frames@ui@modules@UModSys@@UEAAPEAUIRoot@core@5@PEBUSUniquePointerInfo@75@@Z 0000000180006b10 f i umodsys_lib_libui:umodsys.mod.ui.frames.obj
 0001:00005b50       ?root_is_interface_supported@RFrame_List@frames@ui@modules@UModSys@@UEBA_NPEBUSUniquePointerInfo@core@5@@Z 0000000180006b50 f i umodsys_lib_libui:umodsys.mod.ui.frames.obj
 0001:00005b90       ?ref_add@RFrame_List@frames@ui@modules@UModSys@@UEBAXXZ 0000000180006b90 f i umodsys_lib_libui:umodsys.mod.ui.frames.obj
 0001:00005ba0       ?ref_remove@RFrame_List@frames@ui@modules@UModSys@@UEBAXXZ 0000000180006ba0 f i umodsys_lib_libui:umodsys.mod.ui.frames.obj
 0001:00005bc0       ?ref_links@RFrame_List@frames@ui@modules@UModSys@@UEBAHXZ 0000000180006bc0 f i umodsys_lib_libui:umodsys.mod.ui.frames.obj
 0001:00005bd0       ?ref_weak@RFrame_List@frames@ui@modules@UModSys@@UEBA_NAEAUWeakPointer@IRefObject@core@5@@Z 0000000180006bd0 f i umodsys_lib_libui:umodsys.mod.ui.frames.obj
 0001:00005c00       ?suicide@RFrame_List@frames@ui@modules@UModSys@@UEAAXXZ 0000000180006c00 f i umodsys_lib_libui:umodsys.mod.ui.frames.obj
 0001:00005c50       ?get_data@RFrame_List@frames@ui@modules@UModSys@@UEAAPEAUIFrameData@libui@5@XZ 0000000180006c50 f i umodsys_lib_libui:umodsys.mod.ui.frames.obj
 0001:00005c60       ??_GRFrame_List@frames@ui@modules@UModSys@@UEAAPEAXI@Z 0000000180006c60 f i umodsys_lib_libui:umodsys.mod.ui.frames.obj
 0001:00005c60       ??_ERFrame_List@frames@ui@modules@UModSys@@UEAAPEAXI@Z 0000000180006c60 f i  CIL library: CIL module
 0001:00005c90       ?root_get_interface_info@RCollector@frames@ui@modules@UModSys@@UEBAAEBUSUniquePointerInfo@core@5@XZ 0000000180006c90 f i umodsys_lib_libui:umodsys.mod.ui.frames.obj
 0001:00005ca0       ?root_get_interface_type@RCollector@frames@ui@modules@UModSys@@UEBAPEBUSUniquePointerInfo@core@5@XZ 0000000180006ca0 f i umodsys_lib_libui:umodsys.mod.ui.frames.obj
 0001:00005cb0       ?root_get_other_interface@RCollector@frames@ui@modules@UModSys@@UEBAPEBUIRoot@core@5@PEBUSUniquePointerInfo@75@@Z 0000000180006cb0 f i umodsys_lib_libui:umodsys.mod.ui.frames.obj
 0001:00005cb0       ?root_get_other_interface@RCollector@frames@ui@modules@UModSys@@UEAAPEAUIRoot@core@5@PEBUSUniquePointerInfo@75@@Z 0000000180006cb0 f i umodsys_lib_libui:umodsys.mod.ui.frames.obj
 0001:00005ce0       ?root_is_interface_supported@RCollector@frames@ui@modules@UModSys@@UEBA_NPEBUSUniquePointerInfo@core@5@@Z 0000000180006ce0 f i umodsys_lib_libui:umodsys.mod.ui.frames.obj
 0001:00005d10       ?ref_add@RCollector@frames@ui@modules@UModSys@@UEBAXXZ 0000000180006d10 f i umodsys_lib_libui:umodsys.mod.ui.frames.obj
 0001:00005d20       ?ref_remove@RCollector@frames@ui@modules@UModSys@@UEBAXXZ 0000000180006d20 f i umodsys_lib_libui:umodsys.mod.ui.frames.obj
 0001:00005d40       ?ref_links@RCollector@frames@ui@modules@UModSys@@UEBAHXZ 0000000180006d40 f i umodsys_lib_libui:umodsys.mod.ui.frames.obj
 0001:00005d50       ?ref_weak@RCollector@frames@ui@modules@UModSys@@UEBA_NAEAUWeakPointer@IRefObject@core@5@@Z 0000000180006d50 f i umodsys_lib_libui:umodsys.mod.ui.frames.obj
 0001:00005d70       ?suicide@RCollector@frames@ui@modules@UModSys@@UEAAXXZ 0000000180006d70 f i umodsys_lib_libui:umodsys.mod.ui.frames.obj
 0001:00005dc0       ?broadcast@RCollector@frames@ui@modules@UModSys@@UEAAHHAEBUSFrameDataIn@libui@5@H@Z 0000000180006dc0 f i umodsys_lib_libui:umodsys.mod.ui.frames.obj
 0001:00005df0       ?get_box@RFrame_Common@frames@ui@modules@UModSys@@UEAAAEBU?$TBoundBox2@H@math3d@5@XZ 0000000180006df0 f i umodsys_lib_libui:umodsys.mod.ui.frames.obj
 0001:00005df0       ?get_theme@RCollector@frames@ui@modules@UModSys@@UEAAPEAUICollectorTheme@libui@5@XZ 0000000180006df0 f i umodsys_lib_libui:umodsys.mod.ui.frames.obj
 0001:00005e00       ??_ERCollector@frames@ui@modules@UModSys@@UEAAPEAXI@Z 0000000180006e00 f i  CIL library: CIL module
 0001:00005e00       ??_GRCollector@frames@ui@modules@UModSys@@UEAAPEAXI@Z 0000000180006e00 f i umodsys_lib_libui:umodsys.mod.ui.frames.obj
 0001:00005e30       ?get_up_theme@RFrame_Common@frames@ui@modules@UModSys@@UEAAPEAUICollectorTheme@libui@5@XZ 0000000180006e30 f i umodsys_lib_libui:umodsys.mod.ui.frames.obj
 0001:00005e50       ?draw_button@SButton@frames@ui@modules@UModSys@@QEAA_NAEBUSDrawState@2345@HH@Z 0000000180006e50 f i umodsys_lib_libui:umodsys.mod.ui.frames.obj
 0001:00005ee0       ?draw_text@SButton@frames@ui@modules@UModSys@@QEAA_NAEBUSDrawState@2345@AEBU?$TString@U?$TSCoreConst@D@su@tl@UModSys@@U?$TComparerBinaryHash@D@234@@tl@5@HH@Z 0000000180006ee0 f i umodsys_lib_libui:umodsys.mod.ui.frames.obj
 0001:00006050       ?get_generated_names@RGenerator@frames@ui@modules@UModSys@@UEBAHAEAUSUniquePtrList@core@5@@Z 0000000180007050 f i umodsys_lib_libui:umodsys.mod.ui.frames.obj
 0001:00006070       ?get_generated_types@RGenerator@frames@ui@modules@UModSys@@UEBAHAEAUSUniquePtrList@core@5@PEBUSUniquePointerInfo@75@@Z 0000000180007070 f i umodsys_lib_libui:umodsys.mod.ui.frames.obj
 0001:000060d0       ?generate@RGenerator@frames@ui@modules@UModSys@@UEAA_NAEAU?$TRefObject@UIRefObject@core@UModSys@@U?$TRefObjectFunc@UIRefObject@core@UModSys@@@tl@3@@tl@5@PEBUSUniquePointerInfo@core@5@AEBUSParameters@95@@Z 00000001800070d0 f i umodsys_lib_libui:umodsys.mod.ui.frames.obj
 0001:00006150       ?root_get_interface_info@RGenerator@frames@ui@modules@UModSys@@UEBAAEBUSUniquePointerInfo@core@5@XZ 0000000180007150 f i umodsys_lib_libui:umodsys.mod.ui.frames.obj
 0001:00006160       ?root_get_interface_type@RGenerator@frames@ui@modules@UModSys@@UEBAPEBUSUniquePointerInfo@core@5@XZ 0000000180007160 f i umodsys_lib_libui:umodsys.mod.ui.frames.obj
 0001:00006170       ?root_get_other_interface@RGenerator@frames@ui@modules@UModSys@@UEAAPEAUIRoot@core@5@PEBUSUniquePointerInfo@75@@Z 0000000180007170 f i umodsys_lib_libui:umodsys.mod.ui.frames.obj
 0001:00006170       ?root_get_other_interface@RGenerator@frames@ui@modules@UModSys@@UEBAPEBUIRoot@core@5@PEBUSUniquePointerInfo@75@@Z 0000000180007170 f i umodsys_lib_libui:umodsys.mod.ui.frames.obj
 0001:000061b0       ?root_is_interface_supported@RGenerator@frames@ui@modules@UModSys@@UEBA_NPEBUSUniquePointerInfo@core@5@@Z 00000001800071b0 f i umodsys_lib_libui:umodsys.mod.ui.frames.obj
 0001:000061f0       ?get_uid@RGenerator@frames@ui@modules@UModSys@@UEBAPEBUSUniquePointerInfo@core@5@XZ 00000001800071f0 f i umodsys_lib_libui:umodsys.mod.ui.frames.obj
 0001:00006200       ?do_open@RModuleReg@frames@ui@modules@UModSys@@UEAA_NXZ 0000000180007200 f i umodsys_lib_libui:umodsys.mod.ui.frames.obj
 0001:00006210       ?do_close@RModuleReg@frames@ui@modules@UModSys@@UEAA_NXZ 0000000180007210 f i umodsys_lib_libui:umodsys.mod.ui.frames.obj
 0001:00006220       ??_GRModuleReg@frames@ui@modules@UModSys@@UEAAPEAXI@Z 0000000180007220 f i umodsys_lib_libui:umodsys.mod.ui.frames.obj
 0001:00006220       ??_ERModuleReg@frames@ui@modules@UModSys@@UEAAPEAXI@Z 0000000180007220 f i  CIL library: CIL module
 0001:00006250       ??4?$TString@U?$TSCoreShared@USIMemAlloc@core@UModSys@@D@su@tl@UModSys@@U?$TComparerBinaryHash@D@234@@tl@UModSys@@QEAAAEBU012@AEBU012@@Z 0000000180007250 f i umodsys_lib_libui:umodsys.mod.ui.frames.obj
 0001:000062c0       ??1?$TScatterArray@U?$TVector4@M@math3d@UModSys@@HU?$TScalarCompare@H@core@3@U?$TNodeDeleter0@U?$TScatterArrayNode@U?$TVector4@M@math3d@UModSys@@H@tl@UModSys@@@tl@3@@tl@UModSys@@QEAA@XZ 00000001800072c0 f i umodsys_lib_libui:umodsys.mod.ui.frames.obj
 0001:000062c0       ??1?$TScatterArray@U?$TVector2@M@math3d@UModSys@@HU?$TScalarCompare@H@core@3@U?$TNodeDeleter0@U?$TScatterArrayNode@U?$TVector2@M@math3d@UModSys@@H@tl@UModSys@@@tl@3@@tl@UModSys@@QEAA@XZ 00000001800072c0 f i umodsys_lib_libui:umodsys.mod.ui.frames.obj
 0001:000062e0       ??1?$TDynarrayDynamic@U?$TRefObject@URDialog@frames@ui@modules@UModSys@@U?$TRefObjectFunc@URDialog@frames@ui@modules@UModSys@@@tl@5@@tl@UModSys@@U?$TAllocator@USIMemAlloc@core@UModSys@@USCountCalcPower2@23@@23@@tl@UModSys@@QEAA@XZ 00000001800072e0 f i umodsys_lib_libui:umodsys.mod.ui.frames.obj
 0001:000062e0       ??1?$TDynarrayDynamic@U?$TRefObject@URFrame_Common@frames@ui@modules@UModSys@@U?$TRefObjectFunc@URFrame_Common@frames@ui@modules@UModSys@@@tl@5@@tl@UModSys@@U?$TAllocator@USIMemAlloc@core@UModSys@@USCountCalcPower2@23@@23@@tl@UModSys@@QEAA@XZ 00000001800072e0 f i umodsys_lib_libui:umodsys.mod.ui.frames.obj
 0001:000062f0       ??1?$TRefObject@URMultiImage2D_SDL_ttf@SDL_core@ui@modules@UModSys@@U?$TRefObjectFunc@URMultiImage2D_SDL_ttf@SDL_core@ui@modules@UModSys@@@tl@5@@tl@UModSys@@QEAA@XZ 00000001800072f0 f i umodsys_lib_libui:umodsys.mod.ui.SDL_core.obj
 0001:000062f0       ??1?$TRefObject@URKeyboardController@SDL_core@ui@modules@UModSys@@U?$TRefObjectFunc@URKeyboardController@SDL_core@ui@modules@UModSys@@@tl@5@@tl@UModSys@@QEAA@XZ 00000001800072f0 f i umodsys_lib_libui:umodsys.mod.ui.SDL_core.obj
 0001:000062f0       ??1?$TRefObject@UIMultiImage@lib2d@UModSys@@U?$TRefObjectFunc@UIMultiImage@lib2d@UModSys@@@tl@3@@tl@UModSys@@QEAA@XZ 00000001800072f0 f i plugin_test1.obj
 0001:000062f0       ??1?$TRefObject@UIMouseController@libui@UModSys@@U?$TRefObjectFunc@UIMouseController@libui@UModSys@@@tl@3@@tl@UModSys@@QEAA@XZ 00000001800072f0 f i plugin_test1.obj
 0001:000062f0       ??1?$TRefObject@UITerminal@libui@UModSys@@U?$TRefObjectFunc@UITerminal@libui@UModSys@@@tl@3@@tl@UModSys@@QEAA@XZ 00000001800072f0 f i plugin_test1.obj
 0001:000062f0       ??1?$TRefObject@URFrame_Common@frames@ui@modules@UModSys@@U?$TRefObjectFunc@URFrame_Common@frames@ui@modules@UModSys@@@tl@5@@tl@UModSys@@QEAA@XZ 00000001800072f0 f i umodsys_lib_libui:umodsys.mod.ui.frames.obj
 0001:000062f0       ??1?$TRefObject@UIFrame@libui@UModSys@@U?$TRefObjectFunc@UIFrame@libui@UModSys@@@tl@3@@tl@UModSys@@QEAA@XZ 00000001800072f0 f i umodsys_lib_libui:umodsys.mod.ui.frames.obj
 0001:000062f0       ??1?$TRefObject@UIKeyboardController@libui@UModSys@@U?$TRefObjectFunc@UIKeyboardController@libui@UModSys@@@tl@3@@tl@UModSys@@QEAA@XZ 00000001800072f0 f i plugin_test1.obj
 0001:000062f0       ??1?$TRefObject@URDialog@frames@ui@modules@UModSys@@U?$TRefObjectFunc@URDialog@frames@ui@modules@UModSys@@@tl@5@@tl@UModSys@@QEAA@XZ 00000001800072f0 f i umodsys_lib_libui:umodsys.mod.ui.frames.obj
 0001:000062f0       ??1?$TRefObject@URTerminal@SDL_core@ui@modules@UModSys@@U?$TRefObjectFunc@URTerminal@SDL_core@ui@modules@UModSys@@@tl@5@@tl@UModSys@@QEAA@XZ 00000001800072f0 f i umodsys_lib_libui:umodsys.mod.ui.SDL_core.obj
 0001:000062f0       ??1?$TRefObject@URCollector@frames@ui@modules@UModSys@@U?$TRefObjectFunc@URCollector@frames@ui@modules@UModSys@@@tl@5@@tl@UModSys@@QEAA@XZ 00000001800072f0 f i umodsys_lib_libui:umodsys.mod.ui.frames.obj
 0001:000062f0       ??1?$TRefObject@UICollector@libui@UModSys@@U?$TRefObjectFunc@UICollector@libui@UModSys@@@tl@3@@tl@UModSys@@QEAA@XZ 00000001800072f0 f i plugin_test1.obj
 0001:000062f0       ??1?$TRefObject@URMediaFilter@images_std@media@modules@UModSys@@U?$TRefObjectFunc@URMediaFilter@images_std@media@modules@UModSys@@@tl@5@@tl@UModSys@@QEAA@XZ 00000001800072f0 f i umodsys_lib_libmedia:umodsys.mod.media.images_std.obj
 0001:000062f0       ??1?$TRefObject@UIRenderDriver@lib2d@UModSys@@U?$TRefObjectFunc@UIRenderDriver@lib2d@UModSys@@@tl@3@@tl@UModSys@@QEAA@XZ 00000001800072f0 f i plugin_test1.obj
 0001:000062f0       ??1?$TRefObject@URMouseController@SDL_core@ui@modules@UModSys@@U?$TRefObjectFunc@URMouseController@SDL_core@ui@modules@UModSys@@@tl@5@@tl@UModSys@@QEAA@XZ 00000001800072f0 f i umodsys_lib_libui:umodsys.mod.ui.SDL_core.obj
 0001:000062f0       ??1?$TRefObject@UIRefObject@core@UModSys@@U?$TRefObjectFunc@UIRefObject@core@UModSys@@@tl@3@@tl@UModSys@@QEAA@XZ 00000001800072f0 f i plugin_test1.obj
 0001:000062f0       ??1?$TRefObject@URRenderDriver2D@SDL_core@ui@modules@UModSys@@U?$TRefObjectFunc@URRenderDriver2D@SDL_core@ui@modules@UModSys@@@tl@5@@tl@UModSys@@QEAA@XZ 00000001800072f0 f i umodsys_lib_libui:umodsys.mod.ui.SDL_core.obj
 0001:00006320       ?Push@?$TDynarray@U?$TDynarrayHolderDynamic@U?$TRefObject@URDialog@frames@ui@modules@UModSys@@U?$TRefObjectFunc@URDialog@frames@ui@modules@UModSys@@@tl@5@@tl@UModSys@@U?$TAllocator@USIMemAlloc@core@UModSys@@USCountCalcPower2@23@@23@@tl@UModSys@@@tl@UModSys@@QEAA_NXZ 0000000180007320 f i umodsys_lib_libui:umodsys.mod.ui.frames.obj
 0001:00006320       ?Push@?$TDynarray@U?$TDynarrayHolderDynamic@U?$TRefObject@URFrame_Common@frames@ui@modules@UModSys@@U?$TRefObjectFunc@URFrame_Common@frames@ui@modules@UModSys@@@tl@5@@tl@UModSys@@U?$TAllocator@USIMemAlloc@core@UModSys@@USCountCalcPower2@23@@23@@tl@UModSys@@@tl@UModSys@@QEAA_NXZ 0000000180007320 f i umodsys_lib_libui:umodsys.mod.ui.frames.obj
 0001:000063d0       ?Pop@?$TDynarray@U?$TDynarrayHolderDynamic@U?$TRefObject@URDialog@frames@ui@modules@UModSys@@U?$TRefObjectFunc@URDialog@frames@ui@modules@UModSys@@@tl@5@@tl@UModSys@@U?$TAllocator@USIMemAlloc@core@UModSys@@USCountCalcPower2@23@@23@@tl@UModSys@@@tl@UModSys@@QEAA_NXZ 00000001800073d0 f i umodsys_lib_libui:umodsys.mod.ui.frames.obj
 0001:00006420       ??1?$TDynarray@U?$TDynarrayHolderDynamic@U?$TRefObject@URFrame_Common@frames@ui@modules@UModSys@@U?$TRefObjectFunc@URFrame_Common@frames@ui@modules@UModSys@@@tl@5@@tl@UModSys@@U?$TAllocator@USIMemAlloc@core@UModSys@@USCountCalcPower2@23@@23@@tl@UModSys@@@tl@UModSys@@QEAA@XZ 0000000180007420 f i umodsys_lib_libui:umodsys.mod.ui.frames.obj
 0001:00006420       ??1?$TDynarray@U?$TDynarrayHolderDynamic@U?$TRefObject@URDialog@frames@ui@modules@UModSys@@U?$TRefObjectFunc@URDialog@frames@ui@modules@UModSys@@@tl@5@@tl@UModSys@@U?$TAllocator@USIMemAlloc@core@UModSys@@USCountCalcPower2@23@@23@@tl@UModSys@@@tl@UModSys@@QEAA@XZ 0000000180007420 f i umodsys_lib_libui:umodsys.mod.ui.frames.obj
 0001:00006490       ??1?$TDynarray@U?$TDynarrayHolderDynamic@UListItem@RFrame_List@frames@ui@modules@UModSys@@U?$TAllocator@USIMemAlloc@core@UModSys@@USCountCalcPower2@23@@tl@6@@tl@UModSys@@@tl@UModSys@@QEAA@XZ 0000000180007490 f i umodsys_lib_libui:umodsys.mod.ui.frames.obj
 0001:00006500       ??$t_get@U?$TScatterArray@U?$TVector4@M@math3d@UModSys@@HU?$TScalarCompare@H@core@3@U?$TNodeDeleter0@U?$TScatterArrayNode@U?$TVector4@M@math3d@UModSys@@H@tl@UModSys@@@tl@3@@tl@UModSys@@U?$TVector4@M@math3d@3@@ICollectorThemeTemplate@libui@UModSys@@IEBA_NAEBU?$TScatterArray@U?$TVector4@M@math3d@UModSys@@HU?$TScalarCompare@H@core@3@U?$TNodeDeleter0@U?$TScatterArrayNode@U?$TVector4@M@math3d@UModSys@@H@tl@UModSys@@@tl@3@@tl@2@HHAEAU?$TVector4@M@math3d@2@@Z 0000000180007500 f i umodsys_lib_libui:umodsys.mod.ui.frames.obj
 0001:000065d0       ??$t_get@U?$TScatterArray@U?$TVector4@M@math3d@UModSys@@HU?$TScalarCompare@H@core@3@U?$TNodeDeleter0@U?$TScatterArrayNode@U?$TVector4@M@math3d@UModSys@@H@tl@UModSys@@@tl@3@@tl@UModSys@@U?$TVector4@H@math3d@3@@ICollectorThemeTemplate@libui@UModSys@@IEBA_NAEBU?$TScatterArray@U?$TVector4@M@math3d@UModSys@@HU?$TScalarCompare@H@core@3@U?$TNodeDeleter0@U?$TScatterArrayNode@U?$TVector4@M@math3d@UModSys@@H@tl@UModSys@@@tl@3@@tl@2@HHAEAU?$TVector4@H@math3d@2@@Z 00000001800075d0 f i umodsys_lib_libui:umodsys.mod.ui.frames.obj
 0001:000066f0       ??$t_get@U?$TScatterArray@U?$TVector2@M@math3d@UModSys@@HU?$TScalarCompare@H@core@3@U?$TNodeDeleter0@U?$TScatterArrayNode@U?$TVector2@M@math3d@UModSys@@H@tl@UModSys@@@tl@3@@tl@UModSys@@U?$TVector2@M@math3d@3@@ICollectorThemeTemplate@libui@UModSys@@IEBA_NAEBU?$TScatterArray@U?$TVector2@M@math3d@UModSys@@HU?$TScalarCompare@H@core@3@U?$TNodeDeleter0@U?$TScatterArrayNode@U?$TVector2@M@math3d@UModSys@@H@tl@UModSys@@@tl@3@@tl@2@HHAEAU?$TVector2@M@math3d@2@@Z 00000001800076f0 f i umodsys_lib_libui:umodsys.mod.ui.frames.obj
 0001:000067b0       ??$t_get@U?$TScatterArray@U?$TVector2@M@math3d@UModSys@@HU?$TScalarCompare@H@core@3@U?$TNodeDeleter0@U?$TScatterArrayNode@U?$TVector2@M@math3d@UModSys@@H@tl@UModSys@@@tl@3@@tl@UModSys@@U?$TVector2@H@math3d@3@@ICollectorThemeTemplate@libui@UModSys@@IEBA_NAEBU?$TScatterArray@U?$TVector2@M@math3d@UModSys@@HU?$TScalarCompare@H@core@3@U?$TNodeDeleter0@U?$TScatterArrayNode@U?$TVector2@M@math3d@UModSys@@H@tl@UModSys@@@tl@3@@tl@2@HHAEAU?$TVector2@H@math3d@2@@Z 00000001800077b0 f i umodsys_lib_libui:umodsys.mod.ui.frames.obj
 0001:00006880       ??$t_get@U?$TScatterArray@HHU?$TScalarCompare@H@core@UModSys@@U?$TNodeDeleter0@U?$TScatterArrayNode@HH@tl@UModSys@@@tl@3@@tl@UModSys@@H@ICollectorThemeTemplate@libui@UModSys@@IEBA_NAEBU?$TScatterArray@HHU?$TScalarCompare@H@core@UModSys@@U?$TNodeDeleter0@U?$TScatterArrayNode@HH@tl@UModSys@@@tl@3@@tl@2@HHAEAH@Z 0000000180007880 f i umodsys_lib_libui:umodsys.mod.ui.frames.obj
 0001:00006940       ??$t_set@U?$TScatterArray@U?$TVector4@M@math3d@UModSys@@HU?$TScalarCompare@H@core@3@U?$TNodeDeleter0@U?$TScatterArrayNode@U?$TVector4@M@math3d@UModSys@@H@tl@UModSys@@@tl@3@@tl@UModSys@@U?$TVector4@H@math3d@3@@ICollectorThemeTemplate@libui@UModSys@@IEAA_NAEAU?$TScatterArray@U?$TVector4@M@math3d@UModSys@@HU?$TScalarCompare@H@core@3@U?$TNodeDeleter0@U?$TScatterArrayNode@U?$TVector4@M@math3d@UModSys@@H@tl@UModSys@@@tl@3@@tl@2@HHAEBU?$TVector4@H@math3d@2@@Z 0000000180007940 f i umodsys_lib_libui:umodsys.mod.ui.frames.obj
 0001:00006a20       ??$smemmove@H@su@tl@UModSys@@YAXPEAHPEBH_K@Z 0000000180007a20 f i umodsys_lib_libui:umodsys.mod.ui.frames.obj
 0001:00006a30       ?ResizeRel@?$TDynarray@U?$TDynarrayHolderDynamic@UListItem@RFrame_List@frames@ui@modules@UModSys@@U?$TAllocator@USIMemAlloc@core@UModSys@@USCountCalcPower2@23@@tl@6@@tl@UModSys@@@tl@UModSys@@QEAA_N_J@Z 0000000180007a30 f i umodsys_lib_libui:umodsys.mod.ui.frames.obj
 0001:00006b40       ?ResizeRel@?$TDynarray@U?$TDynarrayHolderDynamic@U?$TRefObject@URDialog@frames@ui@modules@UModSys@@U?$TRefObjectFunc@URDialog@frames@ui@modules@UModSys@@@tl@5@@tl@UModSys@@U?$TAllocator@USIMemAlloc@core@UModSys@@USCountCalcPower2@23@@23@@tl@UModSys@@@tl@UModSys@@QEAA_N_J@Z 0000000180007b40 f i umodsys_lib_libui:umodsys.mod.ui.frames.obj
 0001:00006b40       ?ResizeRel@?$TDynarray@U?$TDynarrayHolderDynamic@U?$TRefObject@URFrame_Common@frames@ui@modules@UModSys@@U?$TRefObjectFunc@URFrame_Common@frames@ui@modules@UModSys@@@tl@5@@tl@UModSys@@U?$TAllocator@USIMemAlloc@core@UModSys@@USCountCalcPower2@23@@23@@tl@UModSys@@@tl@UModSys@@QEAA_N_J@Z 0000000180007b40 f i umodsys_lib_libui:umodsys.mod.ui.frames.obj
 0001:00006c50       ??$process_nodes@U?$TNodeDeleter0@U?$TScatterArrayNode@U?$TVector2@M@math3d@UModSys@@H@tl@UModSys@@@tl@UModSys@@@?$TTreeHoldRB@U?$TScatterArrayNode@U?$TVector2@M@math3d@UModSys@@H@tl@UModSys@@@tl@UModSys@@QEAAHAEBU?$TNodeDeleter0@U?$TScatterArrayNode@U?$TVector2@M@math3d@UModSys@@H@tl@UModSys@@@12@@Z 0000000180007c50 f i umodsys_lib_libui:umodsys.mod.ui.frames.obj
 0001:00006c50       ??$process_nodes@U?$TNodeDeleter0@U?$TScatterArrayNode@HH@tl@UModSys@@@tl@UModSys@@@?$TTreeHoldRB@U?$TScatterArrayNode@HH@tl@UModSys@@@tl@UModSys@@QEAAHAEBU?$TNodeDeleter0@U?$TScatterArrayNode@HH@tl@UModSys@@@12@@Z 0000000180007c50 f i umodsys_lib_libui:umodsys.mod.ui.frames.obj
 0001:00006c50       ??$process_nodes@U?$TNodeDeleter0@U?$TScatterArrayNode@U?$TVector4@M@math3d@UModSys@@H@tl@UModSys@@@tl@UModSys@@@?$TTreeHoldRB@U?$TScatterArrayNode@U?$TVector4@M@math3d@UModSys@@H@tl@UModSys@@@tl@UModSys@@QEAAHAEBU?$TNodeDeleter0@U?$TScatterArrayNode@U?$TVector4@M@math3d@UModSys@@H@tl@UModSys@@@12@@Z 0000000180007c50 f i umodsys_lib_libui:umodsys.mod.ui.frames.obj
 0001:00006cd0       ?adestruct@?$TTypeConstructor@UListItem@RFrame_List@frames@ui@modules@UModSys@@@tl@UModSys@@SAXPEAUListItem@RFrame_List@frames@ui@modules@3@_K@Z 0000000180007cd0 f i umodsys_lib_libui:umodsys.mod.ui.frames.obj
 0001:00006d60       ??$ValidateConstruction@UIRefObject@core@UModSys@@URCollector@frames@ui@modules@3@@core@UModSys@@YA_NAEAU?$TRefObject@UIRefObject@core@UModSys@@U?$TRefObjectFunc@UIRefObject@core@UModSys@@@tl@3@@tl@1@PEAURCollector@frames@ui@modules@1@@Z 0000000180007d60 f i umodsys_lib_libui:umodsys.mod.ui.frames.obj
 0001:00006de0       ??$process_nodes_r@U?$TNodeDeleter0@U?$TScatterArrayNode@U?$TVector4@M@math3d@UModSys@@H@tl@UModSys@@@tl@UModSys@@@?$TTreeHoldRB@U?$TScatterArrayNode@U?$TVector4@M@math3d@UModSys@@H@tl@UModSys@@@tl@UModSys@@KAHPEAU?$TScatterArrayNode@U?$TVector4@M@math3d@UModSys@@H@12@AEBU?$TNodeDeleter0@U?$TScatterArrayNode@U?$TVector4@M@math3d@UModSys@@H@tl@UModSys@@@12@@Z 0000000180007de0 f i umodsys_lib_libui:umodsys.mod.ui.frames.obj
 0001:00006de0       ??$process_nodes_r@U?$TNodeDeleter0@U?$TScatterArrayNode@U?$TVector2@M@math3d@UModSys@@H@tl@UModSys@@@tl@UModSys@@@?$TTreeHoldRB@U?$TScatterArrayNode@U?$TVector2@M@math3d@UModSys@@H@tl@UModSys@@@tl@UModSys@@KAHPEAU?$TScatterArrayNode@U?$TVector2@M@math3d@UModSys@@H@12@AEBU?$TNodeDeleter0@U?$TScatterArrayNode@U?$TVector2@M@math3d@UModSys@@H@tl@UModSys@@@12@@Z 0000000180007de0 f i umodsys_lib_libui:umodsys.mod.ui.frames.obj
 0001:00006de0       ??$process_nodes_r@U?$TNodeDeleter0@U?$TScatterArrayNode@HH@tl@UModSys@@@tl@UModSys@@@?$TTreeHoldRB@U?$TScatterArrayNode@HH@tl@UModSys@@@tl@UModSys@@KAHPEAU?$TScatterArrayNode@HH@12@AEBU?$TNodeDeleter0@U?$TScatterArrayNode@HH@tl@UModSys@@@12@@Z 0000000180007de0 f i umodsys_lib_libui:umodsys.mod.ui.frames.obj
 0001:00006e50       ??$genx_node@UCmp@?$TScatterArray@U?$TVector4@M@math3d@UModSys@@HU?$TScalarCompare@H@core@3@U?$TNodeDeleter0@U?$TScatterArrayNode@U?$TVector4@M@math3d@UModSys@@H@tl@UModSys@@@tl@3@@tl@UModSys@@UGen0@234@@?$TTreeHoldRBD@U?$TScatterArrayNode@U?$TVector4@M@math3d@UModSys@@H@tl@UModSys@@U?$TNodeDeleter0@U?$TScatterArrayNode@U?$TVector4@M@math3d@UModSys@@H@tl@UModSys@@@23@@tl@UModSys@@QEAAPEAU?$TScatterArrayNode@U?$TVector4@M@math3d@UModSys@@H@12@UCmp@?$TScatterArray@U?$TVector4@M@math3d@UModSys@@HU?$TScalarCompare@H@core@3@U?$TNodeDeleter0@U?$TScatterArrayNode@U?$TVector4@M@math3d@UModSys@@H@tl@UModSys@@@tl@3@@12@AEBUGen0@512@PEAPEAU312@2_N@Z 0000000180007e50 f i umodsys_lib_libui:umodsys.mod.ui.frames.obj
 0001:00006fc0       ??$genx_node@UCmp@?$TScatterArray@U?$TVector2@M@math3d@UModSys@@HU?$TScalarCompare@H@core@3@U?$TNodeDeleter0@U?$TScatterArrayNode@U?$TVector2@M@math3d@UModSys@@H@tl@UModSys@@@tl@3@@tl@UModSys@@UGen0@234@@?$TTreeHoldRBD@U?$TScatterArrayNode@U?$TVector2@M@math3d@UModSys@@H@tl@UModSys@@U?$TNodeDeleter0@U?$TScatterArrayNode@U?$TVector2@M@math3d@UModSys@@H@tl@UModSys@@@23@@tl@UModSys@@QEAAPEAU?$TScatterArrayNode@U?$TVector2@M@math3d@UModSys@@H@12@UCmp@?$TScatterArray@U?$TVector2@M@math3d@UModSys@@HU?$TScalarCompare@H@core@3@U?$TNodeDeleter0@U?$TScatterArrayNode@U?$TVector2@M@math3d@UModSys@@H@tl@UModSys@@@tl@3@@12@AEBUGen0@512@PEAPEAU312@2_N@Z 0000000180007fc0 f i umodsys_lib_libui:umodsys.mod.ui.frames.obj
 0001:00007110       ??$genx_node@UCmp@?$TScatterArray@HHU?$TScalarCompare@H@core@UModSys@@U?$TNodeDeleter0@U?$TScatterArrayNode@HH@tl@UModSys@@@tl@3@@tl@UModSys@@UGen0@234@@?$TTreeHoldRBD@U?$TScatterArrayNode@HH@tl@UModSys@@U?$TNodeDeleter0@U?$TScatterArrayNode@HH@tl@UModSys@@@23@@tl@UModSys@@QEAAPEAU?$TScatterArrayNode@HH@12@UCmp@?$TScatterArray@HHU?$TScalarCompare@H@core@UModSys@@U?$TNodeDeleter0@U?$TScatterArrayNode@HH@tl@UModSys@@@tl@3@@12@AEBUGen0@512@PEAPEAU312@2_N@Z 0000000180008110 f i umodsys_lib_libui:umodsys.mod.ui.frames.obj
 0001:00007260       ?insert_color@?$TTreeHoldRB@U?$TScatterArrayNode@U?$TRefObjectComposite@UIKeyboardClient@libui@UModSys@@UIRefObject@core@3@U?$TRefObjectFunc@UIRefObject@core@UModSys@@@tl@3@@tl@UModSys@@H@tl@UModSys@@@tl@UModSys@@IEAAXPEAU?$TScatterArrayNode@U?$TRefObjectComposite@UIKeyboardClient@libui@UModSys@@UIRefObject@core@3@U?$TRefObjectFunc@UIRefObject@core@UModSys@@@tl@3@@tl@UModSys@@H@23@@Z 0000000180008260 f i umodsys_lib_libui:umodsys.mod.ui.SDL_core.obj
 0001:00007260       ?insert_color@?$TTreeHoldRB@U?$TScatterArrayNode@U?$TVector4@M@math3d@UModSys@@H@tl@UModSys@@@tl@UModSys@@IEAAXPEAU?$TScatterArrayNode@U?$TVector4@M@math3d@UModSys@@H@23@@Z 0000000180008260 f i umodsys_lib_libui:umodsys.mod.ui.frames.obj
 0001:00007260       ?insert_color@?$TTreeHoldRB@U?$TScatterArrayNode@U?$TRefObject@URRenderDriver2D@SDL_core@ui@modules@UModSys@@U?$TRefObjectWeakFunc@URRenderDriver2D@SDL_core@ui@modules@UModSys@@@tl@5@@tl@UModSys@@H@tl@UModSys@@@tl@UModSys@@IEAAXPEAU?$TScatterArrayNode@U?$TRefObject@URRenderDriver2D@SDL_core@ui@modules@UModSys@@U?$TRefObjectWeakFunc@URRenderDriver2D@SDL_core@ui@modules@UModSys@@@tl@5@@tl@UModSys@@H@23@@Z 0000000180008260 f i umodsys_lib_libui:umodsys.mod.ui.SDL_core.obj
 0001:00007260       ?insert_color@?$TTreeHoldRB@U?$TScatterArrayNode@U?$TRefObjectCompositeExtra@UIMouseClient@libui@UModSys@@HUIRefObject@core@3@U?$TRefObjectFunc@UIRefObject@core@UModSys@@@tl@3@@tl@UModSys@@H@tl@UModSys@@@tl@UModSys@@IEAAXPEAU?$TScatterArrayNode@U?$TRefObjectCompositeExtra@UIMouseClient@libui@UModSys@@HUIRefObject@core@3@U?$TRefObjectFunc@UIRefObject@core@UModSys@@@tl@3@@tl@UModSys@@H@23@@Z 0000000180008260 f i umodsys_lib_libui:umodsys.mod.ui.SDL_core.obj
 0001:00007260       ?insert_color@?$TTreeHoldRB@U?$TScatterArrayNode@U?$TVector2@M@math3d@UModSys@@H@tl@UModSys@@@tl@UModSys@@IEAAXPEAU?$TScatterArrayNode@U?$TVector2@M@math3d@UModSys@@H@23@@Z 0000000180008260 f i umodsys_lib_libui:umodsys.mod.ui.frames.obj
 0001:00007260       ?insert_color@?$TTreeHoldRB@U?$TScatterArrayNode@UGlyph@RMultiImage2D_SDL_ttf@SDL_core@ui@modules@UModSys@@H@tl@UModSys@@@tl@UModSys@@IEAAXPEAU?$TScatterArrayNode@UGlyph@RMultiImage2D_SDL_ttf@SDL_core@ui@modules@UModSys@@H@23@@Z 0000000180008260 f i umodsys_lib_libui:umodsys.mod.ui.SDL_core.obj
 0001:00007260       ?insert_color@?$TTreeHoldRB@U?$TScatterArrayNode@HH@tl@UModSys@@@tl@UModSys@@IEAAXPEAU?$TScatterArrayNode@HH@23@@Z 0000000180008260 f i umodsys_lib_libui:umodsys.mod.ui.frames.obj
 0001:00007410       ?root_get_interface_info@RMediaFilter@images_std@media@modules@UModSys@@UEBAAEBUSUniquePointerInfo@core@5@XZ 0000000180008410 f i umodsys_lib_libmedia:umodsys.mod.media.images_std.obj
 0001:00007420       ?root_get_interface_type@RMediaFilter@images_std@media@modules@UModSys@@UEBAPEBUSUniquePointerInfo@core@5@XZ 0000000180008420 f i umodsys_lib_libmedia:umodsys.mod.media.images_std.obj
 0001:00007430       ?root_get_other_interface@RMediaFilter@images_std@media@modules@UModSys@@UEBAPEBUIRoot@core@5@PEBUSUniquePointerInfo@75@@Z 0000000180008430 f i umodsys_lib_libmedia:umodsys.mod.media.images_std.obj
 0001:00007430       ?root_get_other_interface@RMediaFilter@images_std@media@modules@UModSys@@UEAAPEAUIRoot@core@5@PEBUSUniquePointerInfo@75@@Z 0000000180008430 f i umodsys_lib_libmedia:umodsys.mod.media.images_std.obj
 0001:00007460       ?root_is_interface_supported@RMediaFilter@images_std@media@modules@UModSys@@UEBA_NPEBUSUniquePointerInfo@core@5@@Z 0000000180008460 f i umodsys_lib_libmedia:umodsys.mod.media.images_std.obj
 0001:00007490       ?ref_add@RMediaFilter@images_std@media@modules@UModSys@@UEBAXXZ 0000000180008490 f i umodsys_lib_libmedia:umodsys.mod.media.images_std.obj
 0001:000074a0       ?ref_remove@RMediaFilter@images_std@media@modules@UModSys@@UEBAXXZ 00000001800084a0 f i umodsys_lib_libmedia:umodsys.mod.media.images_std.obj
 0001:000074c0       ?ref_links@RMediaFilter@images_std@media@modules@UModSys@@UEBAHXZ 00000001800084c0 f i umodsys_lib_libmedia:umodsys.mod.media.images_std.obj
 0001:000074d0       ?ref_weak@RMediaFilter@images_std@media@modules@UModSys@@UEBA_NAEAUWeakPointer@IRefObject@core@5@@Z 00000001800084d0 f i umodsys_lib_libmedia:umodsys.mod.media.images_std.obj
 0001:000074f0       ?suicide@RMediaFilter@images_std@media@modules@UModSys@@UEAAXXZ 00000001800084f0 f i umodsys_lib_libmedia:umodsys.mod.media.images_std.obj
 0001:00007540       ?get_flag@RMediaFilter@images_std@media@modules@UModSys@@UEBA?AW4eStates@?$TFlags4State@USMediaFlagUid@libmedia@UModSys@@I@tl@5@H@Z 0000000180008540 f i umodsys_lib_libmedia:umodsys.mod.media.images_std.obj
 0001:00007550       ?get_flags_auto@RMediaFilter@images_std@media@modules@UModSys@@UEBA?AU?$TFlags4State@USMediaFlagUid@libmedia@UModSys@@I@tl@5@XZ 0000000180008550 f i umodsys_lib_libmedia:umodsys.mod.media.images_std.obj
 0001:00007560       ?set_flag@RMediaFilter@images_std@media@modules@UModSys@@UEAA?AW4eStates@?$TFlags4State@USMediaFlagUid@libmedia@UModSys@@I@tl@5@HW46785@@Z 0000000180008560 f i umodsys_lib_libmedia:umodsys.mod.media.images_std.obj
 0001:00007590       ??0RMediaFilter@images_std@media@modules@UModSys@@QEAA@PEAUIModObject@base@4@AEBUSParameters@core@4@@Z 0000000180008590 f i umodsys_lib_libmedia:umodsys.mod.media.images_std.obj
 0001:00007680       ??_ERMediaFilter@images_std@media@modules@UModSys@@UEAAPEAXI@Z 0000000180008680 f i  CIL library: CIL module
 0001:00007680       ??_GRMediaFilter@images_std@media@modules@UModSys@@UEAAPEAXI@Z 0000000180008680 f i umodsys_lib_libmedia:umodsys.mod.media.images_std.obj
 0001:00007700       ?get_generated_names@RGenerator@images_std@media@modules@UModSys@@UEBAHAEAUSUniquePtrList@core@5@@Z 0000000180008700 f i umodsys_lib_libmedia:umodsys.mod.media.images_std.obj
 0001:00007720       ?get_generated_types@RGenerator@images_std@media@modules@UModSys@@UEBAHAEAUSUniquePtrList@core@5@PEBUSUniquePointerInfo@75@@Z 0000000180008720 f i umodsys_lib_libmedia:umodsys.mod.media.images_std.obj
 0001:00007780       ?generate@RGenerator@images_std@media@modules@UModSys@@UEAA_NAEAU?$TRefObject@UIRefObject@core@UModSys@@U?$TRefObjectFunc@UIRefObject@core@UModSys@@@tl@3@@tl@5@PEBUSUniquePointerInfo@core@5@AEBUSParameters@95@@Z 0000000180008780 f i umodsys_lib_libmedia:umodsys.mod.media.images_std.obj
 0001:00007800       ?root_get_interface_info@RGenerator@images_std@media@modules@UModSys@@UEBAAEBUSUniquePointerInfo@core@5@XZ 0000000180008800 f i umodsys_lib_libmedia:umodsys.mod.media.images_std.obj
 0001:00007810       ?root_get_interface_type@RGenerator@images_std@media@modules@UModSys@@UEBAPEBUSUniquePointerInfo@core@5@XZ 0000000180008810 f i umodsys_lib_libmedia:umodsys.mod.media.images_std.obj
 0001:00007820       ?root_get_other_interface@RGenerator@images_std@media@modules@UModSys@@UEBAPEBUIRoot@core@5@PEBUSUniquePointerInfo@75@@Z 0000000180008820 f i umodsys_lib_libmedia:umodsys.mod.media.images_std.obj
 0001:00007820       ?root_get_other_interface@RGenerator@images_std@media@modules@UModSys@@UEAAPEAUIRoot@core@5@PEBUSUniquePointerInfo@75@@Z 0000000180008820 f i umodsys_lib_libmedia:umodsys.mod.media.images_std.obj
 0001:00007860       ?root_is_interface_supported@RGenerator@images_std@media@modules@UModSys@@UEBA_NPEBUSUniquePointerInfo@core@5@@Z 0000000180008860 f i umodsys_lib_libmedia:umodsys.mod.media.images_std.obj
 0001:000078a0       ?get_uid@RGenerator@images_std@media@modules@UModSys@@UEBAPEBUSUniquePointerInfo@core@5@XZ 00000001800088a0 f i umodsys_lib_libmedia:umodsys.mod.media.images_std.obj
 0001:000078b0       ?do_open@RModuleReg@images_std@media@modules@UModSys@@UEAA_NXZ 00000001800088b0 f i umodsys_lib_libmedia:umodsys.mod.media.images_std.obj
 0001:000078c0       ?do_close@RModuleReg@images_std@media@modules@UModSys@@UEAA_NXZ 00000001800088c0 f i umodsys_lib_libmedia:umodsys.mod.media.images_std.obj
 0001:000078d0       ??_ERModuleReg@images_std@media@modules@UModSys@@UEAAPEAXI@Z 00000001800088d0 f i  CIL library: CIL module
 0001:000078d0       ??_GRModuleReg@images_std@media@modules@UModSys@@UEAAPEAXI@Z 00000001800088d0 f i umodsys_lib_libmedia:umodsys.mod.media.images_std.obj
 0001:00007900       ??$ValidateConstruction@UIRefObject@core@UModSys@@URTerminal@SDL_core@ui@modules@3@@core@UModSys@@YA_NAEAU?$TRefObject@UIRefObject@core@UModSys@@U?$TRefObjectFunc@UIRefObject@core@UModSys@@@tl@3@@tl@1@PEAURTerminal@SDL_core@ui@modules@1@@Z 0000000180008900 f i umodsys_lib_libui:umodsys.mod.ui.SDL_core.obj
 0001:00007900       ??$ValidateConstruction@UIRefObject@core@UModSys@@URMediaFilter@images_std@media@modules@3@@core@UModSys@@YA_NAEAU?$TRefObject@UIRefObject@core@UModSys@@U?$TRefObjectFunc@UIRefObject@core@UModSys@@@tl@3@@tl@1@PEAURMediaFilter@images_std@media@modules@1@@Z 0000000180008900 f i umodsys_lib_libmedia:umodsys.mod.media.images_std.obj
 0001:00007970       ??_ERModuleLibraryReg_Chain@base@UModSys@@UEAAPEAXI@Z 0000000180008970 f i  CIL library: CIL module
 0001:00007970       ??_GRModuleLibraryReg_Chain@base@UModSys@@UEAAPEAXI@Z 0000000180008970 f i umodsys_lib_base:umodsys.base.moduleregchain.obj
 0001:000079a0       ??_EIModuleReg@base@UModSys@@UEAAPEAXI@Z 00000001800089a0 f i  CIL library: CIL module
 0001:000079a0       ??_GIModuleReg@base@UModSys@@UEAAPEAXI@Z 00000001800089a0 f i umodsys_lib_base:umodsys.base.modulereg.obj
 0001:000079d0       ??_EIModuleLibraryReg@base@UModSys@@UEAAPEAXI@Z 00000001800089d0 f i  CIL library: CIL module
 0001:000079d0       ??_GIModuleLibraryReg@base@UModSys@@UEAAPEAXI@Z 00000001800089d0 f i umodsys_lib_base:umodsys.base.modulereg.obj
 0001:00007a00       ?utf_32to8@su@tl@UModSys@@YA_KPEAD_KH@Z 0000000180008a00 f i umodsys_lib_core:umodsys.tl.utf.obj
 0001:00007b00       ?Find@?$TSet@U?$TArray@PEBUSUniquePointerInfo@core@UModSys@@@tl@UModSys@@U?$TScalarCompare@PEBUSUniquePointerInfo@core@UModSys@@@core@3@@tl@UModSys@@QEBAPEBQEBUSUniquePointerInfo@core@3@AEBQEBU453@@Z 0000000180008b00 f i umodsys_lib_core:umodsys.core.uniqueptrlist.obj
 0001:00007b9c       _onexit                    0000000180008b9c f   MSVCRT:atonexit.obj
 0001:00007c4c       atexit                     0000000180008c4c f   MSVCRT:atonexit.obj
 0001:00007c64       _purecall                  0000000180008c64 f   MSVCRT:MSVCR90.dll
 0001:00007c6a       ??3@YAXPEAX@Z              0000000180008c6a f   MSVCRT:MSVCR90.dll
 0001:00007c70       ??_Etype_info@@UEAAPEAXI@Z 0000000180008c70 f i MSVCRT:ti_inst.obj
 0001:00007d3c       _CRT_INIT                  0000000180008d3c f   MSVCRT:crtdll.obj
 0001:000080d0       _DllMainCRTStartup         00000001800090d0 f   MSVCRT:crtdll.obj
 0001:0000810e       ??2@YAPEAX_K@Z             000000018000910e f   MSVCRT:MSVCR90.dll
 0001:00008114       __C_specific_handler       0000000180009114 f   MSVCRT:MSVCR90.dll
 0001:0000811a       _unlock                    000000018000911a f   MSVCRT:MSVCR90.dll
 0001:00008120       __dllonexit                0000000180009120 f   MSVCRT:MSVCR90.dll
 0001:00008126       _lock                      0000000180009126 f   MSVCRT:MSVCR90.dll
 0001:0000812c       ?__ArrayUnwind@@YAXPEAX_KHP6AX0@Z@Z 000000018000912c f   MSVCRT:ehvecdtr.obj
 0001:00008178       ??_M@YAXPEAX_KHP6AX0@Z@Z   0000000180009178 f   MSVCRT:ehvecdtr.obj
 0001:000081d8       __clean_type_info_names    00000001800091d8 f   MSVCRT:tncleanup.obj
 0001:000081e4       _RTC_Initialize            00000001800091e4 f   MSVCRT:_initsect_.obj
 0001:0000821c       _RTC_Terminate             000000018000921c f   MSVCRT:_initsect_.obj
 0001:00008260       _ValidateImageBase         0000000180009260 f   MSVCRT:pesect.obj
 0001:00008290       _FindPESection             0000000180009290 f   MSVCRT:pesect.obj
 0001:000082e0       _IsNonwritableInCurrentImage 00000001800092e0 f   MSVCRT:pesect.obj
 0001:00008322       _initterm                  0000000180009322 f   MSVCRT:MSVCR90.dll
 0001:00008328       _initterm_e                0000000180009328 f   MSVCRT:MSVCR90.dll
 0001:0000832e       _amsg_exit                 000000018000932e f   MSVCRT:MSVCR90.dll
 0001:00008334       __CppXcptFilter            0000000180009334 f   MSVCRT:MSVCR90.dll
 0001:0000833c       DllMain                    000000018000933c f   MSVCRT:dllmain.obj
 0001:00008360       __security_init_cookie     0000000180009360 f   MSVCRT:gs_support.obj
 0001:00008414       ?terminate@@YAXXZ          0000000180009414 f   MSVCRT:MSVCR90.dll
 0001:0000841a       ??1type_info@@UEAA@XZ      000000018000941a f   MSVCRT:MSVCR90.dll
 0001:0000841a       ?_type_info_dtor_internal_method@type_info@@QEAAXXZ 000000018000941a f   MSVCRT:MSVCR90.dll
 0001:00008420       __clean_type_info_names_internal 0000000180009420 f   MSVCRT:MSVCR90.dll
 0001:00008426       png_get_IHDR               0000000180009426 f   lib_libpng:lib_libpng.dll
 0001:0000842c       png_read_info              000000018000942c f   lib_libpng:lib_libpng.dll
 0001:00008432       png_sig_cmp                0000000180009432 f   lib_libpng:lib_libpng.dll
 0001:00008438       png_create_read_struct     0000000180009438 f   lib_libpng:lib_libpng.dll
 0001:0000843e       png_get_io_ptr             000000018000943e f   lib_libpng:lib_libpng.dll
 0001:00008444       png_create_info_struct     0000000180009444 f   lib_libpng:lib_libpng.dll
 0001:0000844a       png_set_read_fn            000000018000944a f   lib_libpng:lib_libpng.dll
 0001:00008450       png_read_update_info       0000000180009450 f   lib_libpng:lib_libpng.dll
 0001:00008456       png_set_sig_bytes          0000000180009456 f   lib_libpng:lib_libpng.dll
 0001:0000845c       png_read_row               000000018000945c f   lib_libpng:lib_libpng.dll
 0001:00008462       png_error                  0000000180009462 f   lib_libpng:lib_libpng.dll
 0001:00008468       png_destroy_read_struct    0000000180009468 f   lib_libpng:lib_libpng.dll
 0001:0000846e       SDL_StopTextInput          000000018000946e f   lib_SDL2:lib_SDL2.dll
 0001:00008474       SDL_RenderDrawLine         0000000180009474 f   lib_SDL2:lib_SDL2.dll
 0001:0000847a       SDL_RenderDrawLines        000000018000947a f   lib_SDL2:lib_SDL2.dll
 0001:00008480       SDL_Init                   0000000180009480 f   lib_SDL2:lib_SDL2.dll
 0001:00008486       SDL_DestroyWindow          0000000180009486 f   lib_SDL2:lib_SDL2.dll
 0001:0000848c       TTF_GlyphMetrics           000000018000948c f   lib_SDL2:lib_SDL2.dll
 0001:00008492       SDL_CreateWindow           0000000180009492 f   lib_SDL2:lib_SDL2.dll
 0001:00008498       SDL_RenderCopy             0000000180009498 f   lib_SDL2:lib_SDL2.dll
 0001:0000849e       SDL_DestroyRenderer        000000018000949e f   lib_SDL2:lib_SDL2.dll
 0001:000084a4       SDL_DestroyTexture         00000001800094a4 f   lib_SDL2:lib_SDL2.dll
 0001:000084aa       SDL_CreateTextureFromSurface 00000001800094aa f   lib_SDL2:lib_SDL2.dll
 0001:000084b0       SDL_RenderPresent          00000001800094b0 f   lib_SDL2:lib_SDL2.dll
 0001:000084b6       SDL_SetRenderDrawBlendMode 00000001800094b6 f   lib_SDL2:lib_SDL2.dll
 0001:000084bc       SDL_SetRenderDrawColor     00000001800094bc f   lib_SDL2:lib_SDL2.dll
 0001:000084c2       TTF_OpenFont               00000001800094c2 f   lib_SDL2:lib_SDL2.dll
 0001:000084c8       TTF_CloseFont              00000001800094c8 f   lib_SDL2:lib_SDL2.dll
 0001:000084ce       TTF_Init                   00000001800094ce f   lib_SDL2:lib_SDL2.dll
 0001:000084d4       SDL_PumpEvents             00000001800094d4 f   lib_SDL2:lib_SDL2.dll
 0001:000084da       TTF_RenderGlyph_Shaded     00000001800094da f   lib_SDL2:lib_SDL2.dll
 0001:000084e0       SDL_Delay                  00000001800094e0 f   lib_SDL2:lib_SDL2.dll
 0001:000084e6       SDL_RenderClear            00000001800094e6 f   lib_SDL2:lib_SDL2.dll
 0001:000084ec       SDL_CreateRenderer         00000001800094ec f   lib_SDL2:lib_SDL2.dll
 0001:000084f2       SDL_SetTextureColorMod     00000001800094f2 f   lib_SDL2:lib_SDL2.dll
 0001:000084f8       SDL_StartTextInput         00000001800094f8 f   lib_SDL2:lib_SDL2.dll
 0001:000084fe       SDL_PeepEvents             00000001800094fe f   lib_SDL2:lib_SDL2.dll
 0001:00008504       SDL_GetTicks               0000000180009504 f   lib_SDL2:lib_SDL2.dll
 0001:0000850a       SDL_RenderFillRect         000000018000950a f   lib_SDL2:lib_SDL2.dll
 0001:00008510       SDL_RenderDrawRect         0000000180009510 f   lib_SDL2:lib_SDL2.dll
 0001:00008516       TTF_Quit                   0000000180009516 f   lib_SDL2:lib_SDL2.dll
 0001:0000851c       SDL_Quit                   000000018000951c f   lib_SDL2:lib_SDL2.dll
 0001:00008522       SDL_FreeSurface            0000000180009522 f   lib_SDL2:lib_SDL2.dll
 0001:00008530       ??3IRoot@core@UModSys@@SAXPEAX@Z 0000000180009530 f   umodsys_lib_core:umodsys.core.objects.obj
 0001:00008570       ??3IRoot@core@UModSys@@SAXPEAXPEAUIMemAlloc@12@@Z 0000000180009570 f   umodsys_lib_core:umodsys.core.objects.obj
 0001:000085b0       ??2IRoot@core@UModSys@@SAPEAX_KPEAUIMemAlloc@12@@Z 00000001800095b0 f   umodsys_lib_core:umodsys.core.objects.obj
 0001:000085f0       ?suicide@IRoot@core@UModSys@@UEAAXXZ 00000001800095f0 f   umodsys_lib_core:umodsys.core.objects.obj
 0001:00008610       ??1IRoot@core@UModSys@@UEAA@XZ 0000000180009610 f   umodsys_lib_core:umodsys.core.objects.obj
 0001:00008630       ??1IRefObject@core@UModSys@@UEAA@XZ 0000000180009630 f   umodsys_lib_core:umodsys.core.objects.obj
 0001:00008640       ?lost@core@UModSys@@YAEPEBX@Z 0000000180009640 f   umodsys_lib_core:umodsys.core.stdtypedefs.obj
 0001:00008650       ?s_unresolve@SUniquePointer@core@UModSys@@SAXPEAUIUniquePointerResolver@23@@Z 0000000180009650 f   umodsys_lib_core:umodsys.core.uniqueptr.obj
 0001:000086c0       ?s_resolve@SUniquePointer@core@UModSys@@SAXPEAUIUniquePointerResolver@23@@Z 00000001800096c0 f   umodsys_lib_core:umodsys.core.uniqueptr.obj
 0001:00008740       ??1SUniquePointer@core@UModSys@@QEAA@XZ 0000000180009740 f   umodsys_lib_core:umodsys.core.uniqueptr.obj
 0001:00008770       ??0SUniquePointer@core@UModSys@@QEAA@H@Z 0000000180009770 f   umodsys_lib_core:umodsys.core.uniqueptr.obj
 0001:000087a0       ??0SUniquePointer@core@UModSys@@QEAA@PEBD0H@Z 00000001800097a0 f   umodsys_lib_core:umodsys.core.uniqueptr.obj
 0001:000087f0       ?utf8_cmp_nocase@su@tl@UModSys@@YAHPEBD0_K@Z 00000001800097f0 f   umodsys_lib_core:umodsys.tl.utf.obj
 0001:00008800       ?utf_8to32_len@su@tl@UModSys@@YA_KPEBD_K@Z 0000000180009800 f   umodsys_lib_core:umodsys.tl.utf.obj
 0001:00008860       ?utf_8to32@su@tl@UModSys@@YA_KPEAH_KPEBD1_N@Z 0000000180009860 f   umodsys_lib_core:umodsys.tl.utf.obj
 0001:000088e0       ?utf_32to8_len@su@tl@UModSys@@YA_KPEBH_K@Z 00000001800098e0 f   umodsys_lib_core:umodsys.tl.utf.obj
 0001:00008970       ?utf_32to8@su@tl@UModSys@@YA_KPEAD_KPEBH1_N@Z 0000000180009970 f   umodsys_lib_core:umodsys.tl.utf.obj
 0001:000089f0       ??1SModuleInfo@base@UModSys@@QEAA@XZ 00000001800099f0 f   umodsys_lib_base:umodsys.base.moduleinfo.obj
 0001:00008a00       ??0SModuleInfo@base@UModSys@@QEAA@PEBDHH0@Z 0000000180009a00 f   umodsys_lib_base:umodsys.base.moduleinfo.obj
 0001:00008ac0       ??1IModuleLibraryReg@base@UModSys@@UEAA@XZ 0000000180009ac0 f   umodsys_lib_base:umodsys.base.modulereg.obj
 0001:00008ae0       ??0IModuleLibraryReg@base@UModSys@@QEAA@XZ 0000000180009ae0 f   umodsys_lib_base:umodsys.base.modulereg.obj
 0001:00008b00       ?mr_close@IModuleReg@base@UModSys@@UEAA_NXZ 0000000180009b00 f   umodsys_lib_base:umodsys.base.modulereg.obj
 0001:00008b20       ?mr_open@IModuleReg@base@UModSys@@UEAA_NXZ 0000000180009b20 f   umodsys_lib_base:umodsys.base.modulereg.obj
 0001:00008b50       ?mr_isopen@IModuleReg@base@UModSys@@UEBA_NXZ 0000000180009b50 f   umodsys_lib_base:umodsys.base.modulereg.obj
 0001:00008b60       ??1IModuleReg@base@UModSys@@UEAA@XZ 0000000180009b60 f   umodsys_lib_base:umodsys.base.modulereg.obj
 0001:00008b80       ??0IModuleReg@base@UModSys@@QEAA@PEBDHH0@Z 0000000180009b80 f   umodsys_lib_base:umodsys.base.modulereg.obj
 0001:00008bc0       UModSys_Plugin_Entry2      0000000180009bc0 f   umodsys_lib_base:umodsys.so_main.win32.obj
 0001:00008bd0       ??1RModuleLibraryReg_Chain@base@UModSys@@UEAA@XZ 0000000180009bd0 f   umodsys_lib_base:umodsys.base.moduleregchain.obj
 0001:00008bf0       ??0RModuleLibraryReg_Chain@base@UModSys@@QEAA@XZ 0000000180009bf0 f   umodsys_lib_base:umodsys.base.moduleregchain.obj
 0001:00008c20       ?s_get@SModuleRegChain@base@UModSys@@SAPEAUIModuleReg@23@_K@Z 0000000180009c20 f   umodsys_lib_base:umodsys.base.moduleregchain.obj
 0001:00008c60       ??1SModuleRegChain@base@UModSys@@QEAA@XZ 0000000180009c60 f   umodsys_lib_base:umodsys.base.moduleregchain.obj
 0001:00008c90       ??0SModuleRegChain@base@UModSys@@QEAA@AEAUIModuleReg@12@@Z 0000000180009c90 f   umodsys_lib_base:umodsys.base.moduleregchain.obj
 0001:00008ce0       ?mlr_isopen@RModuleLibraryReg_Chain@base@UModSys@@UEBA_NXZ 0000000180009ce0 f   umodsys_lib_base:umodsys.base.moduleregchain.obj
 0001:00008d00       ?mlr_close@RModuleLibraryReg_Chain@base@UModSys@@UEAA_NXZ 0000000180009d00 f   umodsys_lib_base:umodsys.base.moduleregchain.obj
 0001:00008d40       ?mlr_open@RModuleLibraryReg_Chain@base@UModSys@@UEAA_NPEAUISystem@23@PEAUIMemAlloc@core@3@@Z 0000000180009d40 f   umodsys_lib_base:umodsys.base.moduleregchain.obj
 0001:00008d80       ?mlr_get@RModuleLibraryReg_Chain@base@UModSys@@UEBAPEAUIModuleReg@23@_K@Z 0000000180009d80 f   umodsys_lib_base:umodsys.base.moduleregchain.obj
 0001:00008d90       ?mlr_count@RModuleLibraryReg_Chain@base@UModSys@@UEBA_KXZ 0000000180009d90 f   umodsys_lib_base:umodsys.base.moduleregchain.obj
 0001:00008dd0       ??0SModuleRegChain@base@UModSys@@QEAA@H@Z 0000000180009dd0 f   umodsys_lib_base:umodsys.base.moduleregchain.obj
 0001:00008df0       ?unlink@SMemorySharedData@core@UModSys@@QEAAXPEBUSSourceContext@23@@Z 0000000180009df0 f   umodsys_lib_base:umodsys.base.modulecontext.obj
 0001:00008e20       ?link@SMemorySharedData@core@UModSys@@QEAAXPEBUSSourceContext@23@@Z 0000000180009e20 f   umodsys_lib_base:umodsys.base.modulecontext.obj
 0001:00008e30       ?Link@SModuleContext@base@UModSys@@QEAAXPEAUISystem@23@PEAUIMemAlloc@core@3@@Z 0000000180009e30 f   umodsys_lib_base:umodsys.base.modulecontext.obj
 0001:00008ed0       ??1SModuleContext@base@UModSys@@QEAA@XZ 0000000180009ed0 f   umodsys_lib_base:umodsys.base.modulecontext.obj
 0001:00008ee0       ?new_data@SMemorySharedData@core@UModSys@@SAPEAU123@PEAUIMemAlloc@23@_KPEBUSSourceContext@23@@Z 0000000180009ee0 f   umodsys_lib_base:umodsys.base.modulecontext.obj
 0001:00008f30       ?get_paramworker@SParameters@core@UModSys@@KAPEAUIParameters@23@XZ 0000000180009f30 f   umodsys_lib_base:umodsys.base.modulecontext.obj
 0001:00008f50       ?shared_memory@UModSys@@YAAEBUSIMemAlloc@core@1@XZ 0000000180009f50 f   umodsys_lib_base:umodsys.base.modulecontext.obj
 0001:00008f60       ?local_memory@UModSys@@YAAEBUSIMemAlloc@core@1@XZ 0000000180009f60 f   umodsys_lib_base:umodsys.base.modulecontext.obj
 0001:00008f70       ??0SModuleContext@base@UModSys@@QEAA@XZ 0000000180009f70 f   umodsys_lib_base:umodsys.base.modulecontext.obj
 0001:00008fa0       ?mod_dec@RGenerator@images_std@media@modules@UModSys@@UEBA_NXZ 0000000180009fa0 f   umodsys_lib_libmedia:umodsys.mod.media.images_std.obj
 0001:00008fc0       ?mod_inc@RGenerator@images_std@media@modules@UModSys@@UEBA_NXZ 0000000180009fc0 f   umodsys_lib_libmedia:umodsys.mod.media.images_std.obj
 0001:00008fe0       ?get_module@RGenerator@images_std@media@modules@UModSys@@UEBAPEAUIModule@base@5@XZ 0000000180009fe0 f   umodsys_lib_libmedia:umodsys.mod.media.images_std.obj
 0001:00009080       ?filter_save@RMediaFilter@images_std@media@modules@UModSys@@UEAA_NAEAUSInfo@IBinObjFilter@libmedia@5@PEBUIRefObject@core@5@@Z 000000018000a080 f   umodsys_lib_libmedia:umodsys.mod.media.images_std.obj
 0001:00009090       ?filter_load@RMediaFilter@images_std@media@modules@UModSys@@UEAA_NAEBUSInfo@IBinObjFilter@libmedia@5@AEAU?$TRefObject@UIRefObject@core@UModSys@@U?$TRefObjectFunc@UIRefObject@core@UModSys@@@tl@3@@tl@5@@Z 000000018000a090 f   umodsys_lib_libmedia:umodsys.mod.media.images_std.obj
 0001:000090a0       ?s_holder@RGenerator@images_std@media@modules@UModSys@@SAAEAU?$TTypeStaticHolder@URGenerator@images_std@media@modules@UModSys@@@tl@5@XZ 000000018000a0a0 f   umodsys_lib_libmedia:umodsys.mod.media.images_std.obj
 0001:000090f0       ?png_read@RMediaFilter@images_std@media@modules@UModSys@@KAXPEAUpng_struct_def@@PEAE_K@Z 000000018000a0f0 f   umodsys_lib_libmedia:umodsys.mod.media.images_std.obj
 0001:00009160       ?png_err@RMediaFilter@images_std@media@modules@UModSys@@KAXPEAUpng_struct_def@@PEBD@Z 000000018000a160 f   umodsys_lib_libmedia:umodsys.mod.media.images_std.obj
 0001:00009190       ?s_unreg@RGenerator@images_std@media@modules@UModSys@@SA_NPEAUIModuleReg@base@5@@Z 000000018000a190 f   umodsys_lib_libmedia:umodsys.mod.media.images_std.obj
 0001:00009200       ?s_reg@RGenerator@images_std@media@modules@UModSys@@SA_NPEAUIModuleReg@base@5@@Z 000000018000a200 f   umodsys_lib_libmedia:umodsys.mod.media.images_std.obj
 0001:00009280       ?loader_png@RMediaFilter@images_std@media@modules@UModSys@@QEAA_NPEAUIImage@lib2d@5@AEBUSInfo@IBinObjFilter@libmedia@5@AEBUSParameters@core@5@HPEBD_N@Z 000000018000a280 f   umodsys_lib_libmedia:umodsys.mod.media.images_std.obj
 0001:00009690       ?loader_jpeg@RMediaFilter@images_std@media@modules@UModSys@@QEAA_NPEAUIImage@lib2d@5@AEBUSInfo@IBinObjFilter@libmedia@5@AEBUSParameters@core@5@HPEBD_N@Z 000000018000a690 f   umodsys_lib_libmedia:umodsys.mod.media.images_std.obj
 0001:000099f0       ?filter_load@RMediaFilter@images_std@media@modules@UModSys@@UEAA_NAEBUSInfo@IBinObjFilter@libmedia@5@PEAUIRefObject@core@5@@Z 000000018000a9f0 f   umodsys_lib_libmedia:umodsys.mod.media.images_std.obj
 0001:00009d40       ?mod_dec@RGenerator@frames@ui@modules@UModSys@@UEBA_NXZ 000000018000ad40 f   umodsys_lib_libui:umodsys.mod.ui.frames.obj
 0001:00009d60       ?mod_inc@RGenerator@frames@ui@modules@UModSys@@UEBA_NXZ 000000018000ad60 f   umodsys_lib_libui:umodsys.mod.ui.frames.obj
 0001:00009d80       ?get_module@RGenerator@frames@ui@modules@UModSys@@UEBAPEAUIModule@base@5@XZ 000000018000ad80 f   umodsys_lib_libui:umodsys.mod.ui.frames.obj
 0001:00009d90       ??1SButton@frames@ui@modules@UModSys@@QEAA@XZ 000000018000ad90 f   umodsys_lib_libui:umodsys.mod.ui.frames.obj
 0001:00009da0       ?close@RDialog@frames@ui@modules@UModSys@@UEAA_NXZ 000000018000ada0 f   umodsys_lib_libui:umodsys.mod.ui.frames.obj
 0001:00009de0       ?cont_next@RFrame_Common@frames@ui@modules@UModSys@@IEAAPEAU12345@PEAU12345@@Z 000000018000ade0 f   umodsys_lib_libui:umodsys.mod.ui.frames.obj
 0001:00009ea0       ?cont_prev@RFrame_Common@frames@ui@modules@UModSys@@IEAAPEAU12345@PEAU12345@@Z 000000018000aea0 f   umodsys_lib_libui:umodsys.mod.ui.frames.obj
 0001:00009f60       ?get_collector@RFrame_Common@frames@ui@modules@UModSys@@UEAAPEAUICollector@libui@5@XZ 000000018000af60 f   umodsys_lib_libui:umodsys.mod.ui.frames.obj
 0001:00009f70       ?dialog_get@RCollector@frames@ui@modules@UModSys@@UEAAPEAUIDialog@libui@5@XZ 000000018000af70 f   umodsys_lib_libui:umodsys.mod.ui.frames.obj
 0001:00009fa0       ?cont_last@RCollector@frames@ui@modules@UModSys@@IEAAPEAURFrame_Common@2345@PEAU62345@@Z 000000018000afa0 f   umodsys_lib_libui:umodsys.mod.ui.frames.obj
 0001:00009ff0       ?cont_first@RCollector@frames@ui@modules@UModSys@@IEAAPEAURFrame_Common@2345@PEAU62345@@Z 000000018000aff0 f   umodsys_lib_libui:umodsys.mod.ui.frames.obj
 0001:0000a060       ?set_focused@RCollector@frames@ui@modules@UModSys@@IEAA_NPEAUIFrame@libui@5@@Z 000000018000b060 f   umodsys_lib_libui:umodsys.mod.ui.frames.obj
 0001:0000a0f0       ?update_size@RCollector@frames@ui@modules@UModSys@@IEAA_NAEBU?$TBoundBox2@H@math3d@5@AEBU?$TDynarrayDynamic@U?$TRefObject@URFrame_Common@frames@ui@modules@UModSys@@U?$TRefObjectFunc@URFrame_Common@frames@ui@modules@UModSys@@@tl@5@@tl@UModSys@@U?$TAllocator@USIMemAlloc@core@UModSys@@USCountCalcPower2@23@@23@@tl@5@_N@Z 000000018000b0f0 f   umodsys_lib_libui:umodsys.mod.ui.frames.obj
 0001:0000a1b0       ?evmouse@RCollector@frames@ui@modules@UModSys@@IEAA_NAEBU?$TDynarrayDynamic@U?$TRefObject@URFrame_Common@frames@ui@modules@UModSys@@U?$TRefObjectFunc@URFrame_Common@frames@ui@modules@UModSys@@@tl@5@@tl@UModSys@@U?$TAllocator@USIMemAlloc@core@UModSys@@USCountCalcPower2@23@@23@@tl@5@@Z 000000018000b1b0 f   umodsys_lib_libui:umodsys.mod.ui.frames.obj
 0001:0000a260       ?output_attach_3d@RCollector@frames@ui@modules@UModSys@@UEAA_NPEAUIRenderDriver@lib3d@5@H@Z 000000018000b260 f   umodsys_lib_libui:umodsys.mod.ui.frames.obj
 0001:0000a270       ?get_minsize@RCollector@frames@ui@modules@UModSys@@UEAA_NAEAU?$TVector2@H@math3d@5@@Z 000000018000b270 f   umodsys_lib_libui:umodsys.mod.ui.frames.obj
 0001:0000a280       ?get_maxbox@RCollector@frames@ui@modules@UModSys@@UEAA_NAEAU?$TBoundBox2@H@math3d@5@@Z 000000018000b280 f   umodsys_lib_libui:umodsys.mod.ui.frames.obj
 0001:0000a290       ?frame_remove@RCollector@frames@ui@modules@UModSys@@UEAA_NPEAUIFrame@libui@5@@Z 000000018000b290 f   umodsys_lib_libui:umodsys.mod.ui.frames.obj
 0001:0000a2a0       ?get_lcount@RFrame_List@frames@ui@modules@UModSys@@UEAAHXZ 000000018000b2a0 f   umodsys_lib_libui:umodsys.mod.ui.frames.obj
 0001:0000a2c0       ?sselect@RFrame_Edit@frames@ui@modules@UModSys@@IEAA_NH@Z 000000018000b2c0 f   umodsys_lib_libui:umodsys.mod.ui.frames.obj
 0001:0000a2f0       ?mouse_event@RFrame_Edit@frames@ui@modules@UModSys@@MEAA_NPEBUSMouseInput@libui@5@@Z 000000018000b2f0 f   umodsys_lib_libui:umodsys.mod.ui.frames.obj
 0001:0000a370       ?dpause@RDialog@frames@ui@modules@UModSys@@QEAA_N_N@Z 000000018000b370 f   umodsys_lib_libui:umodsys.mod.ui.frames.obj
 0001:0000a3a0       ?dclose@RDialog@frames@ui@modules@UModSys@@QEAA_NXZ 000000018000b3a0 f   umodsys_lib_libui:umodsys.mod.ui.frames.obj
 0001:0000a3e0       ?set_focused@RDialog@frames@ui@modules@UModSys@@UEAA_NPEAUIFrame@libui@5@@Z 000000018000b3e0 f   umodsys_lib_libui:umodsys.mod.ui.frames.obj
 0001:0000a460       ?get_focused@RDialog@frames@ui@modules@UModSys@@UEAAPEAUIFrame@libui@5@XZ 000000018000b460 f   umodsys_lib_libui:umodsys.mod.ui.frames.obj
 0001:0000a470       ?get_root@RDialog@frames@ui@modules@UModSys@@UEAAPEAUIFrame@libui@5@XZ 000000018000b470 f   umodsys_lib_libui:umodsys.mod.ui.frames.obj
 0001:0000a480       ?is_enabled@RFrame_Common@frames@ui@modules@UModSys@@MEAA_NXZ 000000018000b480 f   umodsys_lib_libui:umodsys.mod.ui.frames.obj
 0001:0000a4d0       ?draw@RFrame_Common@frames@ui@modules@UModSys@@MEAA_NAEBUSDrawState@2345@@Z 000000018000b4d0 f   umodsys_lib_libui:umodsys.mod.ui.frames.obj
 0001:0000a570       ?find_context@RFrame_Common@frames@ui@modules@UModSys@@UEAAPEAUIFrame@libui@5@HPEAUIController@75@@Z 000000018000b570 f   umodsys_lib_libui:umodsys.mod.ui.frames.obj
 0001:0000a620       ?get_sub@RFrame_Common@frames@ui@modules@UModSys@@UEAAPEAUIFrame@libui@5@PEAU675@H@Z 000000018000b620 f   umodsys_lib_libui:umodsys.mod.ui.frames.obj
 0001:0000a630       ?get_parent@RFrame_Common@frames@ui@modules@UModSys@@UEAAPEAUIFrame@libui@5@XZ 000000018000b630 f   umodsys_lib_libui:umodsys.mod.ui.frames.obj
 0001:0000a640       ?set_repeater@RFrame_Common@frames@ui@modules@UModSys@@UEAA_NHH@Z 000000018000b640 f   umodsys_lib_libui:umodsys.mod.ui.frames.obj
 0001:0000a650       ?get_flag@RFrame_Common@frames@ui@modules@UModSys@@UEAA_NH@Z 000000018000b650 f   umodsys_lib_libui:umodsys.mod.ui.frames.obj
 0001:0000a6c0       ?set_flag@RFrame_Common@frames@ui@modules@UModSys@@UEAA_NH_N@Z 000000018000b6c0 f   umodsys_lib_libui:umodsys.mod.ui.frames.obj
 0001:0000a7b0       ?s_holder@RGenerator@frames@ui@modules@UModSys@@SAAEAU?$TTypeStaticHolder@URGenerator@frames@ui@modules@UModSys@@@tl@5@XZ 000000018000b7b0 f   umodsys_lib_libui:umodsys.mod.ui.frames.obj
 0001:0000a800       ?mouse@SButton@frames@ui@modules@UModSys@@QEAA_NPEBUSMouseInput@libui@5@@Z 000000018000b800 f   umodsys_lib_libui:umodsys.mod.ui.frames.obj
 0001:0000a9b0       ??0SButton@frames@ui@modules@UModSys@@QEAA@PEAURFrame_Common@1234@HAEBUSFrameSize@libui@4@@Z 000000018000b9b0 f   umodsys_lib_libui:umodsys.mod.ui.frames.obj
 0001:0000aa10       ?dialog_close_all@RCollector@frames@ui@modules@UModSys@@UEAA_NXZ 000000018000ba10 f   umodsys_lib_libui:umodsys.mod.ui.frames.obj
 0001:0000aae0       ?dialog_close@RCollector@frames@ui@modules@UModSys@@UEAA_NXZ 000000018000bae0 f   umodsys_lib_libui:umodsys.mod.ui.frames.obj
 0001:0000ac00       ?find_next_focused@RCollector@frames@ui@modules@UModSys@@IEAAPEAURFrame_Common@2345@PEAU62345@0_N@Z 000000018000bc00 f   umodsys_lib_libui:umodsys.mod.ui.frames.obj
 0001:0000ae20       ?broadcast@RCollector@frames@ui@modules@UModSys@@IEAAHAEBU?$TDynarrayDynamic@U?$TRefObject@URFrame_Common@frames@ui@modules@UModSys@@U?$TRefObjectFunc@URFrame_Common@frames@ui@modules@UModSys@@@tl@5@@tl@UModSys@@U?$TAllocator@USIMemAlloc@core@UModSys@@USCountCalcPower2@23@@23@@tl@5@HAEBUSFrameDataIn@libui@5@H@Z 000000018000be20 f   umodsys_lib_libui:umodsys.mod.ui.frames.obj
 0001:0000af20       ?evmouse@RCollector@frames@ui@modules@UModSys@@IEAA_NAEBU?$TBoundBox2@H@math3d@5@AEBU?$TDynarrayDynamic@U?$TRefObject@URFrame_Common@frames@ui@modules@UModSys@@U?$TRefObjectFunc@URFrame_Common@frames@ui@modules@UModSys@@@tl@5@@tl@UModSys@@U?$TAllocator@USIMemAlloc@core@UModSys@@USCountCalcPower2@23@@23@@tl@5@AEBUSMouseInput@libui@5@PEAURFrame_Common@2345@@Z 000000018000bf20 f   umodsys_lib_libui:umodsys.mod.ui.frames.obj
 0001:0000b100       ?insert@RCollector@frames@ui@modules@UModSys@@IEAA_NPEAURFrame_Common@2345@0@Z 000000018000c100 f   umodsys_lib_libui:umodsys.mod.ui.frames.obj
 0001:0000b190       ?shutdown@RCollector@frames@ui@modules@UModSys@@UEAA_NXZ 000000018000c190 f   umodsys_lib_libui:umodsys.mod.ui.frames.obj
 0001:0000b260       ?input_attach_k@RCollector@frames@ui@modules@UModSys@@UEAA_NPEAUIKeyboardController@libui@5@H@Z 000000018000c260 f   umodsys_lib_libui:umodsys.mod.ui.frames.obj
 0001:0000b2f0       ?input_attach_m@RCollector@frames@ui@modules@UModSys@@UEAA_NPEAUIMouseController@libui@5@H@Z 000000018000c2f0 f   umodsys_lib_libui:umodsys.mod.ui.frames.obj
 0001:0000b390       ?input_process@RCollector@frames@ui@modules@UModSys@@UEAA_NH@Z 000000018000c390 f   umodsys_lib_libui:umodsys.mod.ui.frames.obj
 0001:0000b3c0       ?output_attach_2d@RCollector@frames@ui@modules@UModSys@@UEAA_NPEAUIRenderDriver@lib2d@5@H@Z 000000018000c3c0 f   umodsys_lib_libui:umodsys.mod.ui.frames.obj
 0001:0000b410       ?sselect@RFrame_List@frames@ui@modules@UModSys@@IEAA_NH@Z 000000018000c410 f   umodsys_lib_libui:umodsys.mod.ui.frames.obj
 0001:0000b4e0       ?get_value@RFrame_List@frames@ui@modules@UModSys@@UEAA_NHAEBUSFrameDataOut@libui@5@@Z 000000018000c4e0 f   umodsys_lib_libui:umodsys.mod.ui.frames.obj
 0001:0000b510       ?set_value@RFrame_List@frames@ui@modules@UModSys@@UEAA_NHAEBUSFrameDataIn@libui@5@@Z 000000018000c510 f   umodsys_lib_libui:umodsys.mod.ui.frames.obj
 0001:0000b540       ?mouse_event@RFrame_List@frames@ui@modules@UModSys@@MEAA_NPEBUSMouseInput@libui@5@@Z 000000018000c540 f   umodsys_lib_libui:umodsys.mod.ui.frames.obj
 0001:0000b6e0       ?key_event@RFrame_List@frames@ui@modules@UModSys@@MEAA_NAEBUSKeyboardInputRaw@libui@5@@Z 000000018000c6e0 f   umodsys_lib_libui:umodsys.mod.ui.frames.obj
 0001:0000b7f0       ?button_cmd@RFrame_List@frames@ui@modules@UModSys@@MEAA_NPEAUSButton@2345@HH@Z 000000018000c7f0 f   umodsys_lib_libui:umodsys.mod.ui.frames.obj
 0001:0000b910       ?sinsert@RFrame_Edit@frames@ui@modules@UModSys@@IEAA_NHPEBHH@Z 000000018000c910 f   umodsys_lib_libui:umodsys.mod.ui.frames.obj
 0001:0000ba60       ?sdelete@RFrame_Edit@frames@ui@modules@UModSys@@IEAA_NHH@Z 000000018000ca60 f   umodsys_lib_libui:umodsys.mod.ui.frames.obj
 0001:0000bb80       ?key_event@RFrame_Edit@frames@ui@modules@UModSys@@MEAA_NAEBUSKeyboardInputRaw@libui@5@@Z 000000018000cb80 f   umodsys_lib_libui:umodsys.mod.ui.frames.obj
 0001:0000bc50       ?mouse_event@RFrame_Button@frames@ui@modules@UModSys@@MEAA_NPEBUSMouseInput@libui@5@@Z 000000018000cc50 f   umodsys_lib_libui:umodsys.mod.ui.frames.obj
 0001:0000bc70       ?key_event@RFrame_Button@frames@ui@modules@UModSys@@MEAA_NAEBUSKeyboardInputRaw@libui@5@@Z 000000018000cc70 f   umodsys_lib_libui:umodsys.mod.ui.frames.obj
 0001:0000bd40       ?button_cmd@RFrame_Button@frames@ui@modules@UModSys@@MEAA_NPEAUSButton@2345@HH@Z 000000018000cd40 f   umodsys_lib_libui:umodsys.mod.ui.frames.obj
 0001:0000bde0       ??0RDialog@frames@ui@modules@UModSys@@QEAA@PEAURCollector@1234@PEAURFrame_Common@1234@@Z 000000018000cde0 f   umodsys_lib_libui:umodsys.mod.ui.frames.obj
 0001:0000be80       ?configure@RFrame_Common@frames@ui@modules@UModSys@@UEAA_NPEBD0AEBUSParameters@core@5@@Z 000000018000ce80 f   umodsys_lib_libui:umodsys.mod.ui.frames.obj
 0001:0000bf40       ??1RCollectorTheme@frames@ui@modules@UModSys@@QEAA@XZ 000000018000cf40 f   umodsys_lib_libui:umodsys.mod.ui.frames.obj
 0001:0000bf60       ??0RCollectorTheme@frames@ui@modules@UModSys@@QEAA@PEAUICollectorThemeTree@libui@4@@Z 000000018000cf60 f   umodsys_lib_libui:umodsys.mod.ui.frames.obj
 0001:0000bf90       ?get_elem_index@RCollectorTheme@frames@ui@modules@UModSys@@UEAAHPEBD@Z 000000018000cf90 f   umodsys_lib_libui:umodsys.mod.ui.frames.obj
 0001:0000c160       ?get_group_index@RCollectorTheme@frames@ui@modules@UModSys@@UEAAHPEBD@Z 000000018000d160 f   umodsys_lib_libui:umodsys.mod.ui.frames.obj
 0001:0000c270       ?s_unreg@RGenerator@frames@ui@modules@UModSys@@SA_NPEAUIModuleReg@base@5@@Z 000000018000d270 f   umodsys_lib_libui:umodsys.mod.ui.frames.obj
 0001:0000c2e0       ?s_reg@RGenerator@frames@ui@modules@UModSys@@SA_NPEAUIModuleReg@base@5@@Z 000000018000d2e0 f   umodsys_lib_libui:umodsys.mod.ui.frames.obj
 0001:0000c360       ?draw_progress@SButton@frames@ui@modules@UModSys@@QEAA_NAEBUSDrawState@2345@MHHH@Z 000000018000d360 f   umodsys_lib_libui:umodsys.mod.ui.frames.obj
 0001:0000c450       ?draw_arrow@SButton@frames@ui@modules@UModSys@@QEAA_NAEBUSDrawState@2345@HHH@Z 000000018000d450 f   umodsys_lib_libui:umodsys.mod.ui.frames.obj
 0001:0000c590       ?draw@SButton@frames@ui@modules@UModSys@@QEAA_NAEBUSDrawState@2345@@Z 000000018000d590 f   umodsys_lib_libui:umodsys.mod.ui.frames.obj
 0001:0000c680       ?dopen@RDialog@frames@ui@modules@UModSys@@QEAA_NXZ 000000018000d680 f   umodsys_lib_libui:umodsys.mod.ui.frames.obj
 0001:0000c6f0       ?set_focus@RFrame_Common@frames@ui@modules@UModSys@@MEAA_N_N@Z 000000018000d6f0 f   umodsys_lib_libui:umodsys.mod.ui.frames.obj
 0001:0000c7a0       ?dialog_open@RCollector@frames@ui@modules@UModSys@@UEAAPEAUIDialog@libui@5@PEAUIFrame@75@@Z 000000018000d7a0 f   umodsys_lib_libui:umodsys.mod.ui.frames.obj
 0001:0000c910       ??1RCollector@frames@ui@modules@UModSys@@UEAA@XZ 000000018000d910 f   umodsys_lib_libui:umodsys.mod.ui.frames.obj
 0001:0000ca30       ?get_focused@RCollector@frames@ui@modules@UModSys@@IEAAPEAURFrame_Common@2345@XZ 000000018000da30 f   umodsys_lib_libui:umodsys.mod.ui.frames.obj
 0001:0000ca80       ?update_size@RCollector@frames@ui@modules@UModSys@@IEAA_NXZ 000000018000da80 f   umodsys_lib_libui:umodsys.mod.ui.frames.obj
 0001:0000ccc0       ?draw@RCollector@frames@ui@modules@UModSys@@IEAA_NAEBUSDrawState@2345@AEBU?$TDynarrayDynamic@U?$TRefObject@URFrame_Common@frames@ui@modules@UModSys@@U?$TRefObjectFunc@URFrame_Common@frames@ui@modules@UModSys@@@tl@5@@tl@UModSys@@U?$TAllocator@USIMemAlloc@core@UModSys@@USCountCalcPower2@23@@23@@tl@5@@Z 000000018000dcc0 f   umodsys_lib_libui:umodsys.mod.ui.frames.obj
 0001:0000cdc0       ?key_text@RCollector@frames@ui@modules@UModSys@@UEAA_NAEBUSKeyboardInputText@libui@5@@Z 000000018000ddc0 f   umodsys_lib_libui:umodsys.mod.ui.frames.obj
 0001:0000ce10       ?mouse_event@RCollector@frames@ui@modules@UModSys@@UEAA_NAEBUSMouseInput@libui@5@@Z 000000018000de10 f   umodsys_lib_libui:umodsys.mod.ui.frames.obj
 0001:0000cec0       ?output_process@RCollector@frames@ui@modules@UModSys@@UEAA_NXZ 000000018000dec0 f   umodsys_lib_libui:umodsys.mod.ui.frames.obj
 0001:0000d040       ?button_draw@RFrame_List@frames@ui@modules@UModSys@@MEAA_NPEAUSButton@2345@AEBUSDrawState@2345@H@Z 000000018000e040 f   umodsys_lib_libui:umodsys.mod.ui.frames.obj
 0001:0000d110       ?key_event@RFrame_Edit@frames@ui@modules@UModSys@@MEAA_NAEBUSKeyboardInputText@libui@5@@Z 000000018000e110 f   umodsys_lib_libui:umodsys.mod.ui.frames.obj
 0001:0000d140       ?draw_post@RFrame_Button@frames@ui@modules@UModSys@@MEAA_NAEBUSDrawState@2345@@Z 000000018000e140 f   umodsys_lib_libui:umodsys.mod.ui.frames.obj
 0001:0000d160       ?draw_pre@RFrame_Image@frames@ui@modules@UModSys@@MEAA_NAEBUSDrawState@2345@@Z 000000018000e160 f   umodsys_lib_libui:umodsys.mod.ui.frames.obj
 0001:0000d2c0       ??1RDialog@frames@ui@modules@UModSys@@UEAA@XZ 000000018000e2c0 f   umodsys_lib_libui:umodsys.mod.ui.frames.obj
 0001:0000d330       ??1RFrame_Common@frames@ui@modules@UModSys@@UEAA@XZ 000000018000e330 f   umodsys_lib_libui:umodsys.mod.ui.frames.obj
 0001:0000d3f0       ?update_size@RFrame_Common@frames@ui@modules@UModSys@@MEAA_NAEBU?$TBoundBox2@H@math3d@5@@Z 000000018000e3f0 f   umodsys_lib_libui:umodsys.mod.ui.frames.obj
 0001:0000d430       ?draw_focus@RFrame_Common@frames@ui@modules@UModSys@@MEAA_NAEBUSDrawState@2345@@Z 000000018000e430 f   umodsys_lib_libui:umodsys.mod.ui.frames.obj
 0001:0000d4d0       ?draw_sub@RFrame_Common@frames@ui@modules@UModSys@@MEAA_NAEBUSDrawState@2345@@Z 000000018000e4d0 f   umodsys_lib_libui:umodsys.mod.ui.frames.obj
 0001:0000d4f0       ??0RCollector@frames@ui@modules@UModSys@@QEAA@PEAUIModObject@base@4@AEBUSParameters@core@4@@Z 000000018000e4f0 f   umodsys_lib_libui:umodsys.mod.ui.frames.obj
 0001:0000dbd0       ?master_key_pressed@RCollector@frames@ui@modules@UModSys@@IEAA_NAEBUSKeyboardInputRaw@libui@5@@Z 000000018000ebd0 f   umodsys_lib_libui:umodsys.mod.ui.frames.obj
 0001:0000dcd0       ?key_pressed@RCollector@frames@ui@modules@UModSys@@UEAA_NAEBUSKeyboardInputRaw@libui@5@@Z 000000018000ecd0 f   umodsys_lib_libui:umodsys.mod.ui.frames.obj
 0001:0000dd30       ?set_lvalue@RFrame_List@frames@ui@modules@UModSys@@UEAA_NHHAEBUSFrameDataIn@libui@5@@Z 000000018000ed30 f   umodsys_lib_libui:umodsys.mod.ui.frames.obj
 0001:0000ddd0       ?update_size@RFrame_List@frames@ui@modules@UModSys@@MEAA_NAEBU?$TBoundBox2@H@math3d@5@@Z 000000018000edd0 f   umodsys_lib_libui:umodsys.mod.ui.frames.obj
 0001:0000de40       ?draw_post@RFrame_List@frames@ui@modules@UModSys@@MEAA_NAEBUSDrawState@2345@@Z 000000018000ee40 f   umodsys_lib_libui:umodsys.mod.ui.frames.obj
 0001:0000e4e0       ??1RFrame_Edit@frames@ui@modules@UModSys@@UEAA@XZ 000000018000f4e0 f   umodsys_lib_libui:umodsys.mod.ui.frames.obj
 0001:0000e590       ?set_buf@RFrame_Edit@frames@ui@modules@UModSys@@IEAA_NPEBDH@Z 000000018000f590 f   umodsys_lib_libui:umodsys.mod.ui.frames.obj
 0001:0000e740       ?update_last@RFrame_Edit@frames@ui@modules@UModSys@@IEAA_NXZ 000000018000f740 f   umodsys_lib_libui:umodsys.mod.ui.frames.obj
 0001:0000e820       ?set_value@RFrame_Edit@frames@ui@modules@UModSys@@UEAA_NHAEBUSFrameDataIn@libui@5@@Z 000000018000f820 f   umodsys_lib_libui:umodsys.mod.ui.frames.obj
 0001:0000e8b0       ?draw_post@RFrame_Edit@frames@ui@modules@UModSys@@MEAA_NAEBUSDrawState@2345@@Z 000000018000f8b0 f   umodsys_lib_libui:umodsys.mod.ui.frames.obj
 0001:0000eaf0       ??1RFrame_Button@frames@ui@modules@UModSys@@UEAA@XZ 000000018000faf0 f   umodsys_lib_libui:umodsys.mod.ui.frames.obj
 0001:0000eb80       ?update_size@RFrame_Button@frames@ui@modules@UModSys@@MEAA_NAEBU?$TBoundBox2@H@math3d@5@@Z 000000018000fb80 f   umodsys_lib_libui:umodsys.mod.ui.frames.obj
 0001:0000ebc0       ??1RFrame_Image@frames@ui@modules@UModSys@@UEAA@XZ 000000018000fbc0 f   umodsys_lib_libui:umodsys.mod.ui.frames.obj
 0001:0000ec20       ??1RFrame_Text@frames@ui@modules@UModSys@@UEAA@XZ 000000018000fc20 f   umodsys_lib_libui:umodsys.mod.ui.frames.obj
 0001:0000ecc0       ?set_value@RFrame_Text@frames@ui@modules@UModSys@@UEAA_NHAEBUSFrameDataIn@libui@5@@Z 000000018000fcc0 f   umodsys_lib_libui:umodsys.mod.ui.frames.obj
 0001:0000ed40       ??1RFrame_Frame@frames@ui@modules@UModSys@@UEAA@XZ 000000018000fd40 f   umodsys_lib_libui:umodsys.mod.ui.frames.obj
 0001:0000ed60       ??0RFrame_Common@frames@ui@modules@UModSys@@QEAA@PEAURCollector@1234@PEAU01234@@Z 000000018000fd60 f   umodsys_lib_libui:umodsys.mod.ui.frames.obj
 0001:0000ee80       ?set_fcp@RFrame_Common@frames@ui@modules@UModSys@@MEAA_NAEBUSFrameCreateParameters@libui@5@PEBUSParameters@core@5@@Z 000000018000fe80 f   umodsys_lib_libui:umodsys.mod.ui.frames.obj
 0001:0000ef60       ?get_lvalue@RFrame_List@frames@ui@modules@UModSys@@UEAA_NHHAEBUSFrameDataOut@libui@5@@Z 000000018000ff60 f   umodsys_lib_libui:umodsys.mod.ui.frames.obj
 0001:0000f010       ?set_lcount@RFrame_List@frames@ui@modules@UModSys@@UEAA_NH@Z 0000000180010010 f   umodsys_lib_libui:umodsys.mod.ui.frames.obj
 0001:0000f060       ?controller_update@RFrame_List@frames@ui@modules@UModSys@@UEAA_NXZ 0000000180010060 f   umodsys_lib_libui:umodsys.mod.ui.frames.obj
 0001:0000f190       ?set_fcp@RFrame_List@frames@ui@modules@UModSys@@MEAA_NAEBUSFrameCreateParameters@libui@5@PEBUSParameters@core@5@@Z 0000000180010190 f   umodsys_lib_libui:umodsys.mod.ui.frames.obj
 0001:0000f2d0       ??0RFrame_Edit@frames@ui@modules@UModSys@@QEAA@PEAURCollector@1234@PEAURFrame_Common@1234@@Z 00000001800102d0 f   umodsys_lib_libui:umodsys.mod.ui.frames.obj
 0001:0000f3c0       ?get_value@RFrame_Edit@frames@ui@modules@UModSys@@UEAA_NHAEBUSFrameDataOut@libui@5@@Z 00000001800103c0 f   umodsys_lib_libui:umodsys.mod.ui.frames.obj
 0001:0000f4d0       ?set_fcp@RFrame_Edit@frames@ui@modules@UModSys@@MEAA_NAEBUSFrameCreateParameters@libui@5@PEBUSParameters@core@5@@Z 00000001800104d0 f   umodsys_lib_libui:umodsys.mod.ui.frames.obj
 0001:0000f570       ??0RFrame_Button@frames@ui@modules@UModSys@@QEAA@PEAURCollector@1234@PEAURFrame_Common@1234@@Z 0000000180010570 f   umodsys_lib_libui:umodsys.mod.ui.frames.obj
 0001:0000f680       ?set_fcp@RFrame_Button@frames@ui@modules@UModSys@@MEAA_NAEBUSFrameCreateParameters@libui@5@PEBUSParameters@core@5@@Z 0000000180010680 f   umodsys_lib_libui:umodsys.mod.ui.frames.obj
 0001:0000f740       ?button_draw@RFrame_Button@frames@ui@modules@UModSys@@MEAA_NPEAUSButton@2345@AEBUSDrawState@2345@H@Z 0000000180010740 f   umodsys_lib_libui:umodsys.mod.ui.frames.obj
 0001:0000f8a0       ??0RFrame_Image@frames@ui@modules@UModSys@@QEAA@PEAURCollector@1234@PEAURFrame_Common@1234@@Z 00000001800108a0 f   umodsys_lib_libui:umodsys.mod.ui.frames.obj
 0001:0000f940       ?set_fcp@RFrame_Image@frames@ui@modules@UModSys@@MEAA_NAEBUSFrameCreateParameters@libui@5@PEBUSParameters@core@5@@Z 0000000180010940 f   umodsys_lib_libui:umodsys.mod.ui.frames.obj
 0001:0000f9e0       ??0RFrame_Text@frames@ui@modules@UModSys@@QEAA@PEAURCollector@1234@PEAURFrame_Common@1234@@Z 00000001800109e0 f   umodsys_lib_libui:umodsys.mod.ui.frames.obj
 0001:0000faa0       ?get_value@RFrame_Text@frames@ui@modules@UModSys@@UEAA_NHAEBUSFrameDataOut@libui@5@@Z 0000000180010aa0 f   umodsys_lib_libui:umodsys.mod.ui.frames.obj
 0001:0000fb30       ?set_fcp@RFrame_Text@frames@ui@modules@UModSys@@MEAA_NAEBUSFrameCreateParameters@libui@5@PEBUSParameters@core@5@@Z 0000000180010b30 f   umodsys_lib_libui:umodsys.mod.ui.frames.obj
 0001:0000fbf0       ?draw_post@RFrame_Text@frames@ui@modules@UModSys@@MEAA_NAEBUSDrawState@2345@@Z 0000000180010bf0 f   umodsys_lib_libui:umodsys.mod.ui.frames.obj
 0001:0000fe50       ??0RFrame_Frame@frames@ui@modules@UModSys@@QEAA@PEAURCollector@1234@PEAURFrame_Common@1234@@Z 0000000180010e50 f   umodsys_lib_libui:umodsys.mod.ui.frames.obj
 0001:0000fee0       ??1RFrame_List@frames@ui@modules@UModSys@@UEAA@XZ 0000000180010ee0 f   umodsys_lib_libui:umodsys.mod.ui.frames.obj
 0001:0000ff40       ??0RFrame_List@frames@ui@modules@UModSys@@QEAA@PEAURCollector@1234@PEAURFrame_Common@1234@@Z 0000000180010f40 f   umodsys_lib_libui:umodsys.mod.ui.frames.obj
 0001:00010150       ?frame_create_s@RCollector@frames@ui@modules@UModSys@@UEAAPEAUIFrame@libui@5@AEBU?$TString@U?$TSCoreConst@D@su@tl@UModSys@@U?$TComparerBinaryHash@D@234@@tl@5@AEBUSFrameCreateParameters@75@PEBUSParameters@core@5@@Z 0000000180011150 f   umodsys_lib_libui:umodsys.mod.ui.frames.obj
 0001:00010520       ?frame_create_n@RCollector@frames@ui@modules@UModSys@@UEAAPEAUIFrame@libui@5@HAEBUSFrameCreateParameters@75@PEBUSParameters@core@5@@Z 0000000180011520 f   umodsys_lib_libui:umodsys.mod.ui.frames.obj
 0001:000107d0       ?mod_dec@RGenerator@SDL_core@ui@modules@UModSys@@UEBA_NXZ 00000001800117d0 f   umodsys_lib_libui:umodsys.mod.ui.SDL_core.obj
 0001:000107f0       ?mod_inc@RGenerator@SDL_core@ui@modules@UModSys@@UEBA_NXZ 00000001800117f0 f   umodsys_lib_libui:umodsys.mod.ui.SDL_core.obj
 0001:00010810       ?get_module@RGenerator@SDL_core@ui@modules@UModSys@@UEBAPEAUIModule@base@5@XZ 0000000180011810 f   umodsys_lib_libui:umodsys.mod.ui.SDL_core.obj
 0001:00010820       ?new_picture@RRenderDriver2D@SDL_core@ui@modules@UModSys@@UEAA?AU?$TRefObject@UIImage@lib2d@UModSys@@U?$TRefObjectFunc@UIImage@lib2d@UModSys@@@tl@3@@tl@5@AEBUSParameters@core@5@AEBU?$TString@U?$TSCoreConst@D@su@tl@UModSys@@U?$TComparerBinaryHash@D@234@@75@@Z 0000000180011820 f   umodsys_lib_libui:umodsys.mod.ui.SDL_core.obj
 0001:00010840       ?get_terminal@RRenderDriver2D@SDL_core@ui@modules@UModSys@@UEBAPEAUITerminal@libui@5@XZ 0000000180011840 f   umodsys_lib_libui:umodsys.mod.ui.SDL_core.obj
 0001:00010850       ?s_holder@RGenerator@SDL_core@ui@modules@UModSys@@SAAEAU?$TTypeStaticHolder@URGenerator@SDL_core@ui@modules@UModSys@@@tl@5@XZ 0000000180011850 f   umodsys_lib_libui:umodsys.mod.ui.SDL_core.obj
 0001:000108a0       ?as_texture@RMultiImage2D_SDL_ttf@SDL_core@ui@modules@UModSys@@QEBAPEAUSDL_Texture@@PEAUSDL_Surface@@@Z 00000001800118a0 f   umodsys_lib_libui:umodsys.mod.ui.SDL_core.obj
 0001:000108c0       ?s_unreg@RGenerator@SDL_core@ui@modules@UModSys@@SA_NPEAUIModuleReg@base@5@@Z 00000001800118c0 f   umodsys_lib_libui:umodsys.mod.ui.SDL_core.obj
 0001:00010930       ?s_reg@RGenerator@SDL_core@ui@modules@UModSys@@SA_NPEAUIModuleReg@base@5@@Z 0000000180011930 f   umodsys_lib_libui:umodsys.mod.ui.SDL_core.obj
 0001:000109b0       ?new_font@RRenderDriver2D@SDL_core@ui@modules@UModSys@@UEAA?AU?$TRefObject@UIMultiImage@lib2d@UModSys@@U?$TRefObjectFunc@UIMultiImage@lib2d@UModSys@@@tl@3@@tl@5@AEBUSParameters@core@5@AEBU?$TString@U?$TSCoreConst@D@su@tl@UModSys@@U?$TComparerBinaryHash@D@234@@75@@Z 00000001800119b0 f   umodsys_lib_libui:umodsys.mod.ui.SDL_core.obj
 0001:00010a90       ?mod_dec@RGenerator@test1@test@modules@UModSys@@UEBA_NXZ 0000000180011a90 f   plugin_test1.obj
 0001:00010ab0       ?mod_inc@RGenerator@test1@test@modules@UModSys@@UEBA_NXZ 0000000180011ab0 f   plugin_test1.obj
 0001:00010ad0       ?get_module@RGenerator@test1@test@modules@UModSys@@UEBAPEAUIModule@base@5@XZ 0000000180011ad0 f   plugin_test1.obj
 0001:00010ae0       ?command_draw@RTest1_Shell@test1@test@modules@UModSys@@UEAA_NAEBUSController@libui@5@PEAUIRenderDriver@lib2d@5@AEBU?$TBoundBox2@H@math3d@5@@Z 0000000180011ae0 f   plugin_test1.obj
 0001:00010b00       ?s_holder@RGenerator@test1@test@modules@UModSys@@SAAEAU?$TTypeStaticHolder@URGenerator@test1@test@modules@UModSys@@@tl@5@XZ 0000000180011b00 f   plugin_test1.obj
 0001:00010b50       ?db_get@RTest1_Shell@test1@test@modules@UModSys@@UEAA_NAEBUSController@libui@5@QEBDAEBUSFrameDataOut@75@@Z 0000000180011b50 f   plugin_test1.obj
 0001:00010be0       ?command@RTest1_Shell@test1@test@modules@UModSys@@UEAA_NAEBUSController@libui@5@HAEBUSFrameDataIn@75@@Z 0000000180011be0 f   plugin_test1.obj
 0001:00010c30       ?mouse_event@RTest1_Shell@test1@test@modules@UModSys@@UEAA_NAEBUSMouseInput@libui@5@@Z 0000000180011c30 f   plugin_test1.obj
 0001:00010cd0       ?key_text@RTest1_Shell@test1@test@modules@UModSys@@UEAA_NAEBUSKeyboardInputText@libui@5@@Z 0000000180011cd0 f   plugin_test1.obj
 0001:00010d20       ?key_pressed@RTest1_Shell@test1@test@modules@UModSys@@UEAA_NAEBUSKeyboardInputRaw@libui@5@@Z 0000000180011d20 f   plugin_test1.obj
 0001:00010d90       ?s_unreg@RGenerator@test1@test@modules@UModSys@@SA_NPEAUIModuleReg@base@5@@Z 0000000180011d90 f   plugin_test1.obj
 0001:00010e00       ?s_reg@RGenerator@test1@test@modules@UModSys@@SA_NPEAUIModuleReg@base@5@@Z 0000000180011e00 f   plugin_test1.obj
 0001:00010e80       ?db_get@RTest1_Shell@test1@test@modules@UModSys@@UEAA_NAEBUSController@libui@5@QEBDHAEBUSFrameDataOut@75@@Z 0000000180011e80 f   plugin_test1.obj
 0001:00010f30       ?ui_newfont@RTest1_Shell@test1@test@modules@UModSys@@QEAA?AU?$TRefObject@UIMultiImage@lib2d@UModSys@@U?$TRefObjectFunc@UIMultiImage@lib2d@UModSys@@@tl@3@@tl@5@AEBU?$TString@U?$TSCoreConst@D@su@tl@UModSys@@U?$TComparerBinaryHash@D@234@@75@AEBUSParameters@core@5@@Z 0000000180011f30 f   plugin_test1.obj
 0001:00011070       ?ui_newterm@RTest1_Shell@test1@test@modules@UModSys@@QEAA?AU?$TRefObject@UITerminal@libui@UModSys@@U?$TRefObjectFunc@UITerminal@libui@UModSys@@@tl@3@@tl@5@AEBU?$TString@U?$TSCoreConst@D@su@tl@UModSys@@U?$TComparerBinaryHash@D@234@@75@AEBUSParameters@core@5@@Z 0000000180012070 f   plugin_test1.obj
 0001:000111b0       ?ui_newframes@RTest1_Shell@test1@test@modules@UModSys@@QEAA?AU?$TRefObject@UICollector@libui@UModSys@@U?$TRefObjectFunc@UICollector@libui@UModSys@@@tl@3@@tl@5@AEBU?$TString@U?$TSCoreConst@D@su@tl@UModSys@@U?$TComparerBinaryHash@D@234@@75@AEBUSParameters@core@5@@Z 00000001800121b0 f   plugin_test1.obj
 0001:000112f0       ?ui_test1@RTest1_Shell@test1@test@modules@UModSys@@QEAAXXZ 00000001800122f0 f   plugin_test1.obj
 0001:00012890       ?add@SUniquePtrList@core@UModSys@@QEAA_NPEBUSUniquePointerInfo@23@@Z 0000000180013890 f   umodsys_lib_core:umodsys.core.uniqueptrlist.obj
 0001:000128ec       memcpy                     00000001800138ec f   MSVCRT:MSVCR90.dll
 0001:000128f2       __CxxFrameHandler3         00000001800138f2 f   MSVCRT:MSVCR90.dll
 0001:00012900       _setjmp                    0000000180013900 f   MSVCRT:MSVCR90.dll
 0001:00012920       __chkstk                   0000000180013920 f   MSVCRT:chkstk.obj
 0001:00012920       _alloca_probe              0000000180013920     MSVCRT:chkstk.obj
 0002:00000000       __imp_Sleep                0000000180017000     kernel32:KERNEL32.dll
 0002:00000008       __imp_QueryPerformanceCounter 0000000180017008     kernel32:KERNEL32.dll
 0002:00000010       __imp_GetTickCount         0000000180017010     kernel32:KERNEL32.dll
 0002:00000018       __imp_GetCurrentThreadId   0000000180017018     kernel32:KERNEL32.dll
 0002:00000020       __imp_GetCurrentProcessId  0000000180017020     kernel32:KERNEL32.dll
 0002:00000028       __imp_GetSystemTimeAsFileTime 0000000180017028     kernel32:KERNEL32.dll
 0002:00000030       __imp_DisableThreadLibraryCalls 0000000180017030     kernel32:KERNEL32.dll
 0002:00000038       \177KERNEL32_NULL_THUNK_DATA 0000000180017038     kernel32:KERNEL32.dll
 0002:00000040       __imp_longjmp              0000000180017040     MSVCRT:MSVCR90.dll
 0002:00000048       __imp___C_specific_handler 0000000180017048     MSVCRT:MSVCR90.dll
 0002:00000050       __imp__unlock              0000000180017050     MSVCRT:MSVCR90.dll
 0002:00000058       __imp___dllonexit          0000000180017058     MSVCRT:MSVCR90.dll
 0002:00000060       __imp__encode_pointer      0000000180017060     MSVCRT:MSVCR90.dll
 0002:00000068       __imp__lock                0000000180017068     MSVCRT:MSVCR90.dll
 0002:00000070       __imp__onexit              0000000180017070     MSVCRT:MSVCR90.dll
 0002:00000078       __imp__decode_pointer      0000000180017078     MSVCRT:MSVCR90.dll
 0002:00000080       __imp__malloc_crt          0000000180017080     MSVCRT:MSVCR90.dll
 0002:00000088       __imp__initterm            0000000180017088     MSVCRT:MSVCR90.dll
 0002:00000090       __imp_memchr               0000000180017090     MSVCRT:MSVCR90.dll
 0002:00000098       __imp_free                 0000000180017098     MSVCRT:MSVCR90.dll
 0002:000000a0       __imp__encoded_null        00000001800170a0     MSVCRT:MSVCR90.dll
 0002:000000a8       __imp__amsg_exit           00000001800170a8     MSVCRT:MSVCR90.dll
 0002:000000b0       __imp___CppXcptFilter      00000001800170b0     MSVCRT:MSVCR90.dll
 0002:000000b8       __imp_?terminate@@YAXXZ    00000001800170b8     MSVCRT:MSVCR90.dll
 0002:000000c0       __imp_?_type_info_dtor_internal_method@type_info@@QEAAXXZ 00000001800170c0     MSVCRT:MSVCR90.dll
 0002:000000c8       __imp___clean_type_info_names_internal 00000001800170c8     MSVCRT:MSVCR90.dll
 0002:000000d0       __imp___CxxFrameHandler3   00000001800170d0     MSVCRT:MSVCR90.dll
 0002:000000d8       __imp_memcpy               00000001800170d8     MSVCRT:MSVCR90.dll
 0002:000000e0       __imp_strstr               00000001800170e0     MSVCRT:MSVCR90.dll
 0002:000000e8       __imp_memmove              00000001800170e8     MSVCRT:MSVCR90.dll
 0002:000000f0       __imp_??2@YAPEAX_K@Z       00000001800170f0     MSVCRT:MSVCR90.dll
 0002:000000f8       __imp_??3@YAXPEAX@Z        00000001800170f8     MSVCRT:MSVCR90.dll
 0002:00000100       __imp__purecall            0000000180017100     MSVCRT:MSVCR90.dll
 0002:00000108       __imp_strncmp              0000000180017108     MSVCRT:MSVCR90.dll
 0002:00000110       __imp__initterm_e          0000000180017110     MSVCRT:MSVCR90.dll
 0002:00000118       __imp_sprintf              0000000180017118     MSVCRT:MSVCR90.dll
 0002:00000120       __imp__setjmp              0000000180017120     MSVCRT:MSVCR90.dll
 0002:00000128       \177MSVCR90_NULL_THUNK_DATA 0000000180017128     MSVCRT:MSVCR90.dll
 0002:00000130       __imp_TTF_CloseFont        0000000180017130     lib_SDL2:lib_SDL2.dll
 0002:00000138       __imp_TTF_Quit             0000000180017138     lib_SDL2:lib_SDL2.dll
 0002:00000140       __imp_SDL_RenderDrawRect   0000000180017140     lib_SDL2:lib_SDL2.dll
 0002:00000148       __imp_SDL_RenderFillRect   0000000180017148     lib_SDL2:lib_SDL2.dll
 0002:00000150       __imp_SDL_GetTicks         0000000180017150     lib_SDL2:lib_SDL2.dll
 0002:00000158       __imp_SDL_PeepEvents       0000000180017158     lib_SDL2:lib_SDL2.dll
 0002:00000160       __imp_SDL_StartTextInput   0000000180017160     lib_SDL2:lib_SDL2.dll
 0002:00000168       __imp_SDL_FreeSurface      0000000180017168     lib_SDL2:lib_SDL2.dll
 0002:00000170       __imp_SDL_SetTextureColorMod 0000000180017170     lib_SDL2:lib_SDL2.dll
 0002:00000178       __imp_SDL_CreateRenderer   0000000180017178     lib_SDL2:lib_SDL2.dll
 0002:00000180       __imp_SDL_RenderClear      0000000180017180     lib_SDL2:lib_SDL2.dll
 0002:00000188       __imp_SDL_StopTextInput    0000000180017188     lib_SDL2:lib_SDL2.dll
 0002:00000190       __imp_SDL_RenderDrawLine   0000000180017190     lib_SDL2:lib_SDL2.dll
 0002:00000198       __imp_SDL_RenderDrawLines  0000000180017198     lib_SDL2:lib_SDL2.dll
 0002:000001a0       __imp_SDL_Init             00000001800171a0     lib_SDL2:lib_SDL2.dll
 0002:000001a8       __imp_SDL_DestroyWindow    00000001800171a8     lib_SDL2:lib_SDL2.dll
 0002:000001b0       __imp_TTF_GlyphMetrics     00000001800171b0     lib_SDL2:lib_SDL2.dll
 0002:000001b8       __imp_SDL_CreateWindow     00000001800171b8     lib_SDL2:lib_SDL2.dll
 0002:000001c0       __imp_SDL_RenderCopy       00000001800171c0     lib_SDL2:lib_SDL2.dll
 0002:000001c8       __imp_SDL_DestroyRenderer  00000001800171c8     lib_SDL2:lib_SDL2.dll
 0002:000001d0       __imp_SDL_DestroyTexture   00000001800171d0     lib_SDL2:lib_SDL2.dll
 0002:000001d8       __imp_SDL_CreateTextureFromSurface 00000001800171d8     lib_SDL2:lib_SDL2.dll
 0002:000001e0       __imp_SDL_RenderPresent    00000001800171e0     lib_SDL2:lib_SDL2.dll
 0002:000001e8       __imp_SDL_SetRenderDrawBlendMode 00000001800171e8     lib_SDL2:lib_SDL2.dll
 0002:000001f0       __imp_SDL_SetRenderDrawColor 00000001800171f0     lib_SDL2:lib_SDL2.dll
 0002:000001f8       __imp_TTF_OpenFont         00000001800171f8     lib_SDL2:lib_SDL2.dll
 0002:00000200       __imp_SDL_Delay            0000000180017200     lib_SDL2:lib_SDL2.dll
 0002:00000208       __imp_TTF_Init             0000000180017208     lib_SDL2:lib_SDL2.dll
 0002:00000210       __imp_SDL_PumpEvents       0000000180017210     lib_SDL2:lib_SDL2.dll
 0002:00000218       __imp_TTF_RenderGlyph_Shaded 0000000180017218     lib_SDL2:lib_SDL2.dll
 0002:00000220       __imp_SDL_Quit             0000000180017220     lib_SDL2:lib_SDL2.dll
 0002:00000228       \177lib_SDL2_NULL_THUNK_DATA 0000000180017228     lib_SDL2:lib_SDL2.dll
 0002:00000230       __imp_jpeg_std_error       0000000180017230     lib_jpeglib:lib_jpeglib.dll
 0002:00000238       __imp_jpeg_read_scanlines  0000000180017238     lib_jpeglib:lib_jpeglib.dll
 0002:00000240       __imp_jpeg_read_header     0000000180017240     lib_jpeglib:lib_jpeglib.dll
 0002:00000248       __imp_jpeg_resync_to_restart 0000000180017248     lib_jpeglib:lib_jpeglib.dll
 0002:00000250       __imp_jpeg_destroy_decompress 0000000180017250     lib_jpeglib:lib_jpeglib.dll
 0002:00000258       __imp_jpeg_CreateDecompress 0000000180017258     lib_jpeglib:lib_jpeglib.dll
 0002:00000260       __imp_jpeg_start_decompress 0000000180017260     lib_jpeglib:lib_jpeglib.dll
 0002:00000268       __imp_jpeg_destroy         0000000180017268     lib_jpeglib:lib_jpeglib.dll
 0002:00000270       __imp_jpeg_finish_decompress 0000000180017270     lib_jpeglib:lib_jpeglib.dll
 0002:00000278       \177lib_jpeglib_NULL_THUNK_DATA 0000000180017278     lib_jpeglib:lib_jpeglib.dll
 0002:00000280       __imp_png_error            0000000180017280     lib_libpng:lib_libpng.dll
 0002:00000288       __imp_png_read_row         0000000180017288     lib_libpng:lib_libpng.dll
 0002:00000290       __imp_png_set_sig_bytes    0000000180017290     lib_libpng:lib_libpng.dll
 0002:00000298       __imp_png_read_update_info 0000000180017298     lib_libpng:lib_libpng.dll
 0002:000002a0       __imp_png_set_read_fn      00000001800172a0     lib_libpng:lib_libpng.dll
 0002:000002a8       __imp_png_create_info_struct 00000001800172a8     lib_libpng:lib_libpng.dll
 0002:000002b0       __imp_png_get_io_ptr       00000001800172b0     lib_libpng:lib_libpng.dll
 0002:000002b8       __imp_png_create_read_struct 00000001800172b8     lib_libpng:lib_libpng.dll
 0002:000002c0       __imp_png_sig_cmp          00000001800172c0     lib_libpng:lib_libpng.dll
 0002:000002c8       __imp_png_read_info        00000001800172c8     lib_libpng:lib_libpng.dll
 0002:000002d0       __imp_png_get_IHDR         00000001800172d0     lib_libpng:lib_libpng.dll
 0002:000002d8       __imp_png_destroy_read_struct 00000001800172d8     lib_libpng:lib_libpng.dll
 0002:000002e0       \177lib_libpng_NULL_THUNK_DATA 00000001800172e0     lib_libpng:lib_libpng.dll
 0002:000002e8       __xc_a                     00000001800172e8     MSVCRT:cinitexe.obj
 0002:00000e30       __xc_z                     0000000180017e30     MSVCRT:cinitexe.obj
 0002:00000e38       __xi_a                     0000000180017e38     MSVCRT:cinitexe.obj
 0002:00000e48       __xi_z                     0000000180017e48     MSVCRT:cinitexe.obj
 0002:00000e58       ??_7type_info@@6B@         0000000180017e58     MSVCRT:ti_inst.obj
 0002:00000e60       _pDefaultRawDllMain        0000000180017e60     MSVCRT:crtdll.obj
 0002:00000e60       _pRawDllMain               0000000180017e60     MSVCRT:crtdll.obj
 0002:00000e68       ??_C@_0P@GHFPNOJB@bad?5allocation?$AA@ 0000000180017e68     plugin_test1.obj
 0002:00000e78       ??_C@_0BF@OCNNAADO@UModSys?3?3core?3?3IRoot?$AA@ 0000000180017e78     plugin_test1.obj
 0002:00000e90       ??_C@_0BK@EMIJFOPA@UModSys?3?3core?3?3IRefObject?$AA@ 0000000180017e90     plugin_test1.obj
 0002:00000eb0       ??_C@_0BL@IOMMHELF@UModSys?3?3core?3?3IParameters?$AA@ 0000000180017eb0     plugin_test1.obj
 0002:00000ed0       ??_C@_0BH@LKDEEPPM@UModSys?3?3base?3?3IModule?$AA@ 0000000180017ed0     plugin_test1.obj
 0002:00000ee8       ??_C@_0BO@PHJOHFCB@UModSys?3?3base?3?3IModuleLibrary?$AA@ 0000000180017ee8     plugin_test1.obj
 0002:00000f08       ??_C@_0BK@FDPIOPHG@UModSys?3?3base?3?3IModObject?$AA@ 0000000180017f08     plugin_test1.obj
 0002:00000f28       ??_C@_0BK@OIBKNCKJ@UModSys?3?3base?3?3IGenerator?$AA@ 0000000180017f28     plugin_test1.obj
 0002:00000f48       ??_C@_0BG@PJBGCMEC@UModSys?3?3base?3?3IShell?$AA@ 0000000180017f48     plugin_test1.obj
 0002:00000f60       ??_C@_0BI@IKAOEFAP@UModSys?3?3base?3?3IConsole?$AA@ 0000000180017f60     plugin_test1.obj
 0002:00000f78       ??_C@_0BH@PFCONEJJ@UModSys?3?3base?3?3ISystem?$AA@ 0000000180017f78     plugin_test1.obj
 0002:00000f90       ??_C@_0CB@CLGNFEGF@UModSys?3?3libmedia?3?3IStreamReader@ 0000000180017f90     plugin_test1.obj
 0002:00000fb8       ??_C@_0CB@HOPFFLP@UModSys?3?3libmedia?3?3IStreamWriter@ 0000000180017fb8     plugin_test1.obj
 0002:00000fe0       ??_C@_0BP@KCJMEDNO@UModSys?3?3libmedia?3?3IBinArchive?$AA@ 0000000180017fe0     plugin_test1.obj
 0002:00001000       ??_C@_0CB@FDEKNMGJ@UModSys?3?3libmedia?3?3IBinObjFilter@ 0000000180018000     plugin_test1.obj
 0002:00001028       ??_C@_0BM@DPCMOAPM@UModSys?3?3libmedia?3?3ILibrary?$AA@ 0000000180018028     plugin_test1.obj
 0002:00001048       ??_C@_0CD@ELIFEGE@UModSys?3?3libmedia?3?3ILibraryBinTr@ 0000000180018048     plugin_test1.obj
 0002:00001070       ??_C@_0CE@EGHBJBAJ@UModSys?3?3libmedia?3?3ILibraryBinCa@ 0000000180018070     plugin_test1.obj
 0002:00001098       ??_C@_0CF@LBIGBLOK@UModSys?3?3libmedia?3?3ILibraryObjFi@ 0000000180018098     plugin_test1.obj
 0002:000010c0       ??_C@_0CE@BOBLEOBL@UModSys?3?3libmedia?3?3ILibraryObjCa@ 00000001800180c0     plugin_test1.obj
 0002:000010e8       ??_C@_0CD@LJFEJKGF@UModSys?3?3libmedia?3?3ILibraryLayer@ 00000001800180e8     plugin_test1.obj
 0002:00001110       ?utf_bytesFromUTF8@su@tl@UModSys@@3QBEB 0000000180018110     umodsys_lib_core:umodsys.tl.utf.obj
 0002:00001210       ?utf_firstByteMark@su@tl@UModSys@@3QBEB 0000000180018210     umodsys_lib_core:umodsys.tl.utf.obj
 0002:00001218       ?utf_offsetsFromUTF8@su@tl@UModSys@@3QBHB 0000000180018218     umodsys_lib_core:umodsys.tl.utf.obj
 0002:00001700       ??_C@_0BL@NMJBPMOF@UModSys?3?3base?3?3IConsoleExt?$AA@ 0000000180018700     plugin_test1.obj
 0002:00001720       ??_C@_0BO@CGANABBB@UModSys?3?3base?3?3IConsoleHelper?$AA@ 0000000180018720     plugin_test1.obj
 0002:00001740       ??_C@_0CF@NIEDAAFG@UModSys?3?3base?3?3IConsoleHelperHis@ 0000000180018740     plugin_test1.obj
 0002:00001768       ??_C@_0CD@FCDJONHN@UModSys?3?3base?3?3IConsoleHelperInp@ 0000000180018768     plugin_test1.obj
 0002:00001790       ??_C@_0CE@KMOIHDDJ@UModSys?3?3base?3?3IConsoleHelperOut@ 0000000180018790     plugin_test1.obj
 0002:000017b8       ??_C@_0CH@NMEMKECD@UModSys?3?3base?3?3IConsoleHelperOut@ 00000001800187b8     plugin_test1.obj
 0002:000017e0       ??_C@_0CE@DIFILHID@UModSys?3?3libui?3?3IKeyboardControl@ 00000001800187e0     plugin_test1.obj
 0002:00001808       ??_C@_0CB@MBIJAGJE@UModSys?3?3libui?3?3IMouseController@ 0000000180018808     plugin_test1.obj
 0002:00001830       ??_C@_0CE@HLKJKPC@UModSys?3?3libui?3?3IJoystickControl@ 0000000180018830     plugin_test1.obj
 0002:00001858       ??_C@_0BK@GJJNKGGD@UModSys?3?3libui?3?3ITerminal?$AA@ 0000000180018858     plugin_test1.obj
 0002:00001878       ??_C@_0CK@HENOKNKH@UModSys?3?3libui?3?3IConsoleHelperIn@ 0000000180018878     plugin_test1.obj
 0002:000018a8       ??_C@_0BL@LMBCJDKM@UModSys?3?3libui?3?3ICollector?$AA@ 00000001800188a8     plugin_test1.obj
 0002:000018c8       ??_C@_0CB@FBNPBBJO@UModSys?3?3libui?3?3IAsyncController@ 00000001800188c8     plugin_test1.obj
 0002:000018f0       ??_C@_0CA@OAEFPLGI@UModSys?3?3libui?3?3IAsyncCollector?$AA@ 00000001800188f0     plugin_test1.obj
 0002:00001910       ??_C@_0BH@IHOOLPEB@UModSys?3?3libui?3?3IFrame?$AA@ 0000000180018910     plugin_test1.obj
 0002:00001928       ??_C@_0BI@GAEFGDBL@UModSys?3?3libui?3?3IDialog?$AA@ 0000000180018928     plugin_test1.obj
 0002:00001940       ??_C@_0BH@JDBCAPMN@UModSys?3?3lib2d?3?3IImage?$AA@ 0000000180018940     plugin_test1.obj
 0002:00001958       ??_C@_0BM@NDCOKBPH@UModSys?3?3lib2d?3?3IMultiImage?$AA@ 0000000180018958     plugin_test1.obj
 0002:00001978       ??_C@_0BO@FFPMHFPK@UModSys?3?3lib2d?3?3IRenderDriver?$AA@ 0000000180018978     plugin_test1.obj
 0002:00001998       ??_C@_0CG@DNABKNDD@UModSys?3?3modules?3?3test?3?3test1?3?3I@ 0000000180018998     plugin_test1.obj
 0002:000019c0       ??_C@_0CG@FINIGFAH@UModSys?3?3modules?3?3test?3?3test1?3?3R@ 00000001800189c0     plugin_test1.obj
 0002:000019e8       ??_C@_0CN@EFAOPDDB@UModSys?3?3modules?3?3test?3?3test1?3?3R@ 00000001800189e8     plugin_test1.obj
 0002:00001a18       ??_C@_0CM@LNHNHIJB@UModSys?3?3modules?3?3test?3?3test1?3?3R@ 0000000180018a18     plugin_test1.obj
 0002:00001a48       ??_C@_0BC@NIGGCDMG@RTest1_Shell?$CI?$CJ?5?$HL?6?$AA@ 0000000180018a48     plugin_test1.obj
 0002:00001a60       ??_C@_0DK@JIEMIEKA@UModSys?3?3modules?3?3test?3?3test1?3?3R@ 0000000180018a60     plugin_test1.obj
 0002:00001aa0       ??_C@_0CK@OICDGBDJ@?4?4?2?4?4?2?4?4?2src?2plugin?2test?2plugin_@ 0000000180018aa0     plugin_test1.obj
 0002:00001ad0       ??_C@_0BF@BMCPNMPN@?$HN?5?1?1?5RTest1_Shell?$CI?$CJ?6?$AA@ 0000000180018ad0     plugin_test1.obj
 0002:00001ae8       ??_C@_0DL@OIAHAJF@UModSys?3?3modules?3?3test?3?3test1?3?3R@ 0000000180018ae8     plugin_test1.obj
 0002:00001b28       ??_C@_0BB@MLDFLEML@?$HORTest1_Shell?$CI?$CJ?6?$AA@ 0000000180018b28     plugin_test1.obj
 0002:00001b40       ??_C@_0BJ@CCPCJEPP@RTest1_Shell?3?3connect?$CI?$CJ?6?$AA@ 0000000180018b40     plugin_test1.obj
 0002:00001b60       ??_C@_0BM@KBDBHLN@RTest1_Shell?3?3disconnect?$CI?$CJ?6?$AA@ 0000000180018b60     plugin_test1.obj
 0002:00001b80       ??_C@_0BI@PGLACHLJ@RTest1_Shell?3?3tick?$CI?$CFg?$CJ?6?$AA@ 0000000180018b80     plugin_test1.obj
 0002:00001b98       ??_C@_0BM@JFIEEBE@RTest1_Shell?3?3command?$CI?$CD?$CFd?$CJ?6?$AA@ 0000000180018b98     plugin_test1.obj
 0002:00001bb8       ??_C@_08BABJIOEM@filename?$AA@ 0000000180018bb8     plugin_test1.obj
 0002:00001bc8       ??_C@_0BN@CJGAEPFE@?5?5found?5frames?5?$CFs?3?5?$CFs?5?$DN?$DO?5?$CFp?6?$AA@ 0000000180018bc8     plugin_test1.obj
 0002:00001be8       ??_C@_0BC@DAIBHDNB@?5?5fail?5frames?5?$CFs?6?$AA@ 0000000180018be8     plugin_test1.obj
 0002:00001c00       ??_C@_0BP@CAPONCLM@?5?5found?5terminal?5?$CFs?3?5?$CFs?5?$DN?$DO?5?$CFp?6?$AA@ 0000000180018c00     plugin_test1.obj
 0002:00001c20       ??_C@_0BE@CKPLJHAG@?5?5fail?5terminal?5?$CFs?6?$AA@ 0000000180018c20     plugin_test1.obj
 0002:00001c38       ??_C@_0BL@EFEBHOB@?5?5found?5font?5?$CFs?3?5?$CFs?5?$DN?$DO?5?$CFp?6?$AA@ 0000000180018c38     plugin_test1.obj
 0002:00001c58       ??_C@_0BA@BMFBBLGG@?5?5fail?5font?5?$CFs?6?$AA@ 0000000180018c58     plugin_test1.obj
 0002:00001c68       ??_C@_0BH@GMHJDKHE@?$FLKEY?4KEY?5?$CFd?0?$CFd?0?$CFd?0?$CFd?$FN?6?$AA@ 0000000180018c68     plugin_test1.obj
 0002:00001c80       ??_C@_0P@DPHFCOMI@?$FLKEY?4TEXT?5?$CFs?$FN?6?$AA@ 0000000180018c80     plugin_test1.obj
 0002:00001c90       ??_C@_0CO@KGBDJAHA@?$FLMOUSE?5?$CFx?5B?$CFx?3?$CFd?5A?$CI?$CFd?0?$CFd?$CJ?5R?$CI?$CFd?0?$CF@ 0000000180018c90     plugin_test1.obj
 0002:00001cc0       ??_C@_0BJ@OKPGIKIP@?$FLCOMMAND?5?$CFd?$EA?$CFp?5C?$CFd?5D?$CFd?$FN?6?$AA@ 0000000180018cc0     plugin_test1.obj
 0002:00001cdc       ??_C@_05IOMEMJEC@count?$AA@ 0000000180018cdc     plugin_test1.obj
 0002:00001ce4       ??_C@_02LBJNIHKO@dy?$AA@   0000000180018ce4     plugin_test1.obj
 0002:00001ce8       ??_C@_04CIMGMMMG@text?$AA@ 0000000180018ce8     plugin_test1.obj
 0002:00001cf0       ??_C@_08GCGILLNN@Item?5?$CD?$CFd?$AA@ 0000000180018cf0     plugin_test1.obj
 0002:00001d00       ??_C@_0L@DPNPMJNC@Neocyr?4ttf?$AA@ 0000000180018d00     plugin_test1.obj
 0002:00001d0c       ??_C@_06NCODBMHO@driver?$AA@ 0000000180018d0c     plugin_test1.obj
 0002:00001d14       ??_C@_04EFPADHIC@font?$AA@ 0000000180018d14     plugin_test1.obj
 0002:00001d20       ??_C@_0P@GKJLFKKG@?$CK?3?3SDL_core?3?3?$CK?$AA@ 0000000180018d20     plugin_test1.obj
 0002:00001d30       ??_C@_07EPLPNHLN@Test?5?$CD1?$AA@ 0000000180018d30     plugin_test1.obj
 0002:00001d38       ??_C@_07BANDPJOM@caption?$AA@ 0000000180018d38     plugin_test1.obj
 0002:00001d40       ??_C@_00CNPNBAHC@?$AA@     0000000180018d40     plugin_test1.obj
 0002:00001d48       ??_C@_0CE@HACAKFFL@?5?5not?5created?5lib2d?3?3IRenderDriv@ 0000000180018d48     plugin_test1.obj
 0002:00001d70       ??_C@_0CK@INONFMOM@?5?5created?5lib2d?3?3IRenderDriver?3?5@ 0000000180018d70     plugin_test1.obj
 0002:00001da0       ??_C@_09HPINFNJC@max_glyph?$AA@ 0000000180018da0     plugin_test1.obj
 0002:00001db0       ??_C@_0BF@OHNOFNLO@?5?5error?5create?5font?6?$AA@ 0000000180018db0     plugin_test1.obj
 0002:00001dc8       ??_C@_0BK@EIEBINCJ@?5?5created?5font?3?5?$CFs?5?$DN?$DO?5?$CFp?6?$AA@ 0000000180018dc8     plugin_test1.obj
 0002:00001de8       ??_C@_0CE@KNEEOFOA@?5?5error?5create?5IKeyboardControll@ 0000000180018de8     plugin_test1.obj
 0002:00001e10       ??_C@_0CJ@OEBBFEFK@?5?5created?5IKeyboardController?3?5?$CF@ 0000000180018e10     plugin_test1.obj
 0002:00001e40       ??_C@_0CB@NHAHJFLI@?5?5error?5create?5IMouseController?6@ 0000000180018e40     plugin_test1.obj
 0002:00001e68       ??_C@_0CG@IKOBAIJ@?5?5created?5IMouseController?3?5?$CFs?5?$DN@ 0000000180018e68     plugin_test1.obj
 0002:00001e90       ??_C@_0N@IGLHPLGK@?$CK?3?3frames?3?3?$CK?$AA@ 0000000180018e90     plugin_test1.obj
 0002:00001ea0       ??_C@_05MIJNFGED@frame?$AA@ 0000000180018ea0     plugin_test1.obj
 0002:00001ea8       ??_C@_07OJKFJLLK@Caption?$AA@ 0000000180018ea8     plugin_test1.obj
 0002:00001eb0       ??_C@_08LLDNMFDF@Button?51?$AA@ 0000000180018eb0     plugin_test1.obj
 0002:00001ebc       ??_C@_06HFKPFKMP@button?$AA@ 0000000180018ebc     plugin_test1.obj
 0002:00001ec8       ??_C@_08JABAJGPG@Button?52?$AA@ 0000000180018ec8     plugin_test1.obj
 0002:00001ed8       ??_C@_08IJALKHLH@Button?53?$AA@ 0000000180018ed8     plugin_test1.obj
 0002:00001ee4       ??_C@_05MFEJDJP@value?$AA@ 0000000180018ee4     plugin_test1.obj
 0002:00001ef0       ??_C@_07GFFCACEC@max_len?$AA@ 0000000180018ef0     plugin_test1.obj
 0002:00001ef8       ??_C@_04NABONMNG@edit?$AA@ 0000000180018ef8     plugin_test1.obj
 0002:00001f00       ??_C@_07PDLNCNLP@user_db?$AA@ 0000000180018f00     plugin_test1.obj
 0002:00001f08       ??_C@_04DONFEANM@list?$AA@ 0000000180018f08     plugin_test1.obj
 0002:00001f28       ??_C@_0CK@DEJPICLK@UModSys?3?3modules?3?3test?3?3test1?3?3R@ 0000000180018f28     plugin_test1.obj
 0002:00001f58       ??_C@_0DD@HMBJLEH@UMODSYS_MODULE_NAME?$CItest?0test1?$CJ?3@ 0000000180018f58     plugin_test1.obj
 0002:00001f90       ??_C@_0BA@NMEBLMNE@Test?51?5?9?5module?$AA@ 0000000180018f90     plugin_test1.obj
 0002:00001fa0       ??_C@_0N@FOCLJAHI@tests?3?3test1?$AA@ 0000000180018fa0     plugin_test1.obj
 0002:00001fb0       ??_C@_0BE@HJEBHPIG@RModuleReg?3?3open?$CI?$CJ?6?$AA@ 0000000180018fb0     plugin_test1.obj
 0002:00001fc8       ??_C@_0BF@KIBBFLP@RModuleReg?3?3close?$CI?$CJ?6?$AA@ 0000000180018fc8     plugin_test1.obj
 0002:00001fe0       ??_C@_09JGNMLHG@modobject?$AA@ 0000000180018fe0     plugin_test1.obj
 0002:00001ff0       ??_C@_08FCBDOIAH@typeinfo?$AA@ 0000000180018ff0     plugin_test1.obj
 0002:00002008       ??_7IRoot@core@UModSys@@6B@ 0000000180019008     plugin_test1.obj
 0002:00002058       ??_7IRefObject@core@UModSys@@6B@ 0000000180019058     plugin_test1.obj
 0002:000020c8       ??_7RTest1_Shell@test1@test@modules@UModSys@@6BIShell@base@4@@ 00000001800190c8     plugin_test1.obj
 0002:00002150       ??_7RTest1_Shell@test1@test@modules@UModSys@@6BIKeyboardClient@libui@4@@ 0000000180019150     plugin_test1.obj
 0002:00002168       ??_7RTest1_Shell@test1@test@modules@UModSys@@6BIMouseClient@libui@4@@ 0000000180019168     plugin_test1.obj
 0002:00002178       ??_7RTest1_Shell@test1@test@modules@UModSys@@6BIControllerCommand@libui@4@@ 0000000180019178     plugin_test1.obj
 0002:00002190       ??_7RTest1_Shell@test1@test@modules@UModSys@@6BIControllerData@libui@4@@ 0000000180019190     plugin_test1.obj
 0002:000021a8       ??_7RGenerator@test1@test@modules@UModSys@@6B@ 00000001800191a8     plugin_test1.obj
 0002:00002248       ??_7RModuleReg@test1@test@modules@UModSys@@6B@ 0000000180019248     plugin_test1.obj
 0002:00002278       ??_C@_0DG@EGPKIIPE@UModSys?3?3modules?3?3ui?3?3SDL_core?3?3@ 0000000180019278     umodsys_lib_libui:umodsys.mod.ui.SDL_core.obj
 0002:000022b0       ??_C@_04IAGNFIBA@size?$AA@ 00000001800192b0     umodsys_lib_libui:umodsys.mod.ui.SDL_core.obj
 0002:000022b8       ??_C@_0DA@ONKEJKMF@UModSys?3?3modules?3?3ui?3?3SDL_core?3?3@ 00000001800192b8     umodsys_lib_libui:umodsys.mod.ui.SDL_core.obj
 0002:000022e8       ??_C@_04MGOIFCEG@SDL2?$AA@ 00000001800192e8     umodsys_lib_libui:umodsys.mod.ui.SDL_core.obj
 0002:000022f0       ??_C@_01FJMABOPO@x?$AA@    00000001800192f0     umodsys_lib_libui:umodsys.mod.ui.SDL_core.obj
 0002:000022f4       ??_C@_01EANLCPLP@y?$AA@    00000001800192f4     umodsys_lib_libui:umodsys.mod.ui.SDL_core.obj
 0002:000022f8       ??_C@_02KIIGLGOP@dx?$AA@   00000001800192f8     umodsys_lib_libui:umodsys.mod.ui.SDL_core.obj
 0002:00002300       ??_C@_07CMIMECFO@xoffset?$AA@ 0000000180019300     umodsys_lib_libui:umodsys.mod.ui.SDL_core.obj
 0002:00002308       ??_C@_07OACGECMA@yoffset?$AA@ 0000000180019308     umodsys_lib_libui:umodsys.mod.ui.SDL_core.obj
 0002:00002310       ??_C@_05IGKADHGO@width?$AA@ 0000000180019310     umodsys_lib_libui:umodsys.mod.ui.SDL_core.obj
 0002:00002318       ??_C@_06LNLHEAAG@height?$AA@ 0000000180019318     umodsys_lib_libui:umodsys.mod.ui.SDL_core.obj
 0002:00002320       ??_C@_0DB@HCJMIJNE@UModSys?3?3modules?3?3ui?3?3SDL_core?3?3@ 0000000180019320     umodsys_lib_libui:umodsys.mod.ui.SDL_core.obj
 0002:00002358       ??_C@_0DE@JJAEFKJP@UModSys?3?3modules?3?3ui?3?3SDL_core?3?3@ 0000000180019358     umodsys_lib_libui:umodsys.mod.ui.SDL_core.obj
 0002:00002390       ??_C@_0CK@DOEIPGL@UModSys?3?3modules?3?3ui?3?3SDL_core?3?3@ 0000000180019390     umodsys_lib_libui:umodsys.mod.ui.SDL_core.obj
 0002:000023c0       ??_C@_0CL@JNMIGLLO@UModSys?3?3modules?3?3ui?3?3SDL_core?3?3@ 00000001800193c0     umodsys_lib_libui:umodsys.mod.ui.SDL_core.obj
 0002:000023f0       ??_C@_0DE@GHIHDIMC@UMODSYS_MODULE_NAME?$CIui?0SDL_core?$CJ@ 00000001800193f0     umodsys_lib_libui:umodsys.mod.ui.SDL_core.obj
 0002:00002428       ??_C@_0N@DNOMPMIF@ui?3?3SDL_core?$AA@ 0000000180019428     umodsys_lib_libui:umodsys.mod.ui.SDL_core.obj
 0002:00002448       ??_7RGenerator@SDL_core@ui@modules@UModSys@@6B@ 0000000180019448     umodsys_lib_libui:umodsys.mod.ui.SDL_core.obj
 0002:000024e8       ??_7RTerminal@SDL_core@ui@modules@UModSys@@6B@ 00000001800194e8     umodsys_lib_libui:umodsys.mod.ui.SDL_core.obj
 0002:000025a8       ??_7RRenderDriver2D@SDL_core@ui@modules@UModSys@@6B@ 00000001800195a8     umodsys_lib_libui:umodsys.mod.ui.SDL_core.obj
 0002:000026d8       ??_7RMultiImage2D_SDL_ttf@SDL_core@ui@modules@UModSys@@6B@ 00000001800196d8     umodsys_lib_libui:umodsys.mod.ui.SDL_core.obj
 0002:00002778       ??_7RMouseController@SDL_core@ui@modules@UModSys@@6B@ 0000000180019778     umodsys_lib_libui:umodsys.mod.ui.SDL_core.obj
 0002:00002808       ??_7RKeyboardController@SDL_core@ui@modules@UModSys@@6B@ 0000000180019808     umodsys_lib_libui:umodsys.mod.ui.SDL_core.obj
 0002:000028a0       ??_7RModuleReg@SDL_core@ui@modules@UModSys@@6B@ 00000001800198a0     umodsys_lib_libui:umodsys.mod.ui.SDL_core.obj
 0002:000028d0       ??_C@_07LLDKJBMK@general?$AA@ 00000001800198d0     umodsys_lib_libui:umodsys.mod.ui.frames.obj
 0002:000028d8       ??_C@_06DBHEJNGA@common?$AA@ 00000001800198d8     umodsys_lib_libui:umodsys.mod.ui.frames.obj
 0002:000028e0       ??_C@_05NGOMGBBD@image?$AA@ 00000001800198e0     umodsys_lib_libui:umodsys.mod.ui.frames.obj
 0002:000028e8       ??_C@_07LJIPPALJ@picture?$AA@ 00000001800198e8     umodsys_lib_libui:umodsys.mod.ui.frames.obj
 0002:000028f0       ??_C@_05FEAGNAPL@edge1?$AA@ 00000001800198f0     umodsys_lib_libui:umodsys.mod.ui.frames.obj
 0002:000028f8       ??_C@_05HPCLIDDI@edge2?$AA@ 00000001800198f8     umodsys_lib_libui:umodsys.mod.ui.frames.obj
 0002:00002900       ??_C@_05JGEJPNHM@edges?$AA@ 0000000180019900     umodsys_lib_libui:umodsys.mod.ui.frames.obj
 0002:00002908       ??_C@_05KAHGKAHL@caret?$AA@ 0000000180019908     umodsys_lib_libui:umodsys.mod.ui.frames.obj
 0002:00002910       ??_C@_04JFCNHLLM@back?$AA@ 0000000180019910     umodsys_lib_libui:umodsys.mod.ui.frames.obj
 0002:00002918       ??_C@_04DBFEOIG@fore?$AA@  0000000180019918     umodsys_lib_libui:umodsys.mod.ui.frames.obj
 0002:00002920       ??_C@_06LGNCCACI@select?$AA@ 0000000180019920     umodsys_lib_libui:umodsys.mod.ui.frames.obj
 0002:00002928       ??_C@_08CJLOJPNI@selected?$AA@ 0000000180019928     umodsys_lib_libui:umodsys.mod.ui.frames.obj
 0002:00002934       ??_C@_05PEEJIKOE@focus?$AA@ 0000000180019934     umodsys_lib_libui:umodsys.mod.ui.frames.obj
 0002:00002940       ??_C@_07HIPCAPPH@focused?$AA@ 0000000180019940     umodsys_lib_libui:umodsys.mod.ui.frames.obj
 0002:00002948       ??_C@_06MDLIGPKC@active?$AA@ 0000000180019948     umodsys_lib_libui:umodsys.mod.ui.frames.obj
 0002:00002950       ??_C@_08BEHKFNNO@disabled?$AA@ 0000000180019950     umodsys_lib_libui:umodsys.mod.ui.frames.obj
 0002:00002960       ??_C@_0CM@PKBIIKNO@UModSys?3?3modules?3?3ui?3?3frames?3?3RF@ 0000000180019960     umodsys_lib_libui:umodsys.mod.ui.frames.obj
 0002:0000298c       ??_C@_04CHADEDPO@view?$AA@ 000000018001998c     umodsys_lib_libui:umodsys.mod.ui.frames.obj
 0002:00002994       ??_C@_06ICIJKACG@valign?$AA@ 0000000180019994     umodsys_lib_libui:umodsys.mod.ui.frames.obj
 0002:0000299c       ??_C@_06LFGIEHLF@halign?$AA@ 000000018001999c     umodsys_lib_libui:umodsys.mod.ui.frames.obj
 0002:000029a8       ??_C@_0CG@IKFOGHCN@UModSys?3?3modules?3?3ui?3?3frames?3?3RD@ 00000001800199a8     umodsys_lib_libui:umodsys.mod.ui.frames.obj
 0002:000029d0       ??_C@_0CL@MFDJGEPD@UModSys?3?3modules?3?3ui?3?3frames?3?3RF@ 00000001800199d0     umodsys_lib_libui:umodsys.mod.ui.frames.obj
 0002:00002a00       ??_C@_0CL@NLEIFDKD@UModSys?3?3modules?3?3ui?3?3frames?3?3RF@ 0000000180019a00     umodsys_lib_libui:umodsys.mod.ui.frames.obj
 0002:00002a30       ??_C@_0CK@OBJOECEM@UModSys?3?3modules?3?3ui?3?3frames?3?3RF@ 0000000180019a30     umodsys_lib_libui:umodsys.mod.ui.frames.obj
 0002:00002a60       ??_C@_0CM@LOMDENHB@UModSys?3?3modules?3?3ui?3?3frames?3?3RF@ 0000000180019a60     umodsys_lib_libui:umodsys.mod.ui.frames.obj
 0002:00002a90       ??_C@_0CK@BJEGFCFM@UModSys?3?3modules?3?3ui?3?3frames?3?3RF@ 0000000180019a90     umodsys_lib_libui:umodsys.mod.ui.frames.obj
 0002:00002ac0       ??_C@_0CK@PHINMOFG@UModSys?3?3modules?3?3ui?3?3frames?3?3RF@ 0000000180019ac0     umodsys_lib_libui:umodsys.mod.ui.frames.obj
 0002:00002af0       ??_C@_07IIAPCFMK@scrollx?$AA@ 0000000180019af0     umodsys_lib_libui:umodsys.mod.ui.frames.obj
 0002:00002af8       ??_C@_07JBBEBEIL@scrolly?$AA@ 0000000180019af8     umodsys_lib_libui:umodsys.mod.ui.frames.obj
 0002:00002b00       ??_C@_0CJ@HCPNAGIM@UModSys?3?3modules?3?3ui?3?3frames?3?3RC@ 0000000180019b00     umodsys_lib_libui:umodsys.mod.ui.frames.obj
 0002:00002b2c       ??_C@_05MGJOOGAJ@group?$AA@ 0000000180019b2c     umodsys_lib_libui:umodsys.mod.ui.frames.obj
 0002:00002b38       ??_C@_0CJ@FNJGAPIF@UModSys?3?3modules?3?3ui?3?3frames?3?3RG@ 0000000180019b38     umodsys_lib_libui:umodsys.mod.ui.frames.obj
 0002:00002b68       ??_C@_0DC@GGDMGKMH@UMODSYS_MODULE_NAME?$CIui?0frames?$CJ?3?3@ 0000000180019b68     umodsys_lib_libui:umodsys.mod.ui.frames.obj
 0002:00002ba0       ??_C@_0L@BAHBBNCJ@ui?3?3frames?$AA@ 0000000180019ba0     umodsys_lib_libui:umodsys.mod.ui.frames.obj
 0002:00002bb8       ??_7ICollectorThemeTemplate@libui@UModSys@@6B@ 0000000180019bb8     umodsys_lib_libui:umodsys.mod.ui.frames.obj
 0002:00002c28       ??_7RGenerator@frames@ui@modules@UModSys@@6B@ 0000000180019c28     umodsys_lib_libui:umodsys.mod.ui.frames.obj
 0002:00002cc8       ??_7RCollector@frames@ui@modules@UModSys@@6BIRefObject@core@4@@ 0000000180019cc8     umodsys_lib_libui:umodsys.mod.ui.frames.obj
 0002:00002dc0       ??_7RCollector@frames@ui@modules@UModSys@@6BICollectorThemeTree@libui@4@@ 0000000180019dc0     umodsys_lib_libui:umodsys.mod.ui.frames.obj
 0002:00002dd0       ??_7RCollector@frames@ui@modules@UModSys@@6BIKeyboardClient@libui@4@@ 0000000180019dd0     umodsys_lib_libui:umodsys.mod.ui.frames.obj
 0002:00002de8       ??_7RCollector@frames@ui@modules@UModSys@@6BIMouseClient@libui@4@@ 0000000180019de8     umodsys_lib_libui:umodsys.mod.ui.frames.obj
 0002:00002df8       ??_7RDialog@frames@ui@modules@UModSys@@6B@ 0000000180019df8     umodsys_lib_libui:umodsys.mod.ui.frames.obj
 0002:00002e88       ??_7RFrame_Common@frames@ui@modules@UModSys@@6BIRefObject@core@4@@ 0000000180019e88     umodsys_lib_libui:umodsys.mod.ui.frames.obj
 0002:00003020       ??_7RFrame_Common@frames@ui@modules@UModSys@@6BICollectorThemeTree@libui@4@@ 000000018001a020     umodsys_lib_libui:umodsys.mod.ui.frames.obj
 0002:00003038       ??_7RCollectorTheme@frames@ui@modules@UModSys@@6B@ 000000018001a038     umodsys_lib_libui:umodsys.mod.ui.frames.obj
 0002:000030a8       ??_7RFrame_Frame@frames@ui@modules@UModSys@@6BIRefObject@core@4@@ 000000018001a0a8     umodsys_lib_libui:umodsys.mod.ui.frames.obj
 0002:00003240       ??_7RFrame_Frame@frames@ui@modules@UModSys@@6BICollectorThemeTree@libui@4@@ 000000018001a240     umodsys_lib_libui:umodsys.mod.ui.frames.obj
 0002:00003258       ??_7RFrame_Image@frames@ui@modules@UModSys@@6BIRefObject@core@4@@ 000000018001a258     umodsys_lib_libui:umodsys.mod.ui.frames.obj
 0002:000033f0       ??_7RFrame_Image@frames@ui@modules@UModSys@@6BICollectorThemeTree@libui@4@@ 000000018001a3f0     umodsys_lib_libui:umodsys.mod.ui.frames.obj
 0002:00003408       ??_7RFrame_Text@frames@ui@modules@UModSys@@6BIRefObject@core@4@@ 000000018001a408     umodsys_lib_libui:umodsys.mod.ui.frames.obj
 0002:000035a0       ??_7RFrame_Text@frames@ui@modules@UModSys@@6BICollectorThemeTree@libui@4@@ 000000018001a5a0     umodsys_lib_libui:umodsys.mod.ui.frames.obj
 0002:000035b0       ??_7RFrame_Text@frames@ui@modules@UModSys@@6B@ 000000018001a5b0     umodsys_lib_libui:umodsys.mod.ui.frames.obj
 0002:000035c8       ??_7RFrame_Button@frames@ui@modules@UModSys@@6BIRefObject@core@4@@ 000000018001a5c8     umodsys_lib_libui:umodsys.mod.ui.frames.obj
 0002:00003760       ??_7RFrame_Button@frames@ui@modules@UModSys@@6BICollectorThemeTree@libui@4@@ 000000018001a760     umodsys_lib_libui:umodsys.mod.ui.frames.obj
 0002:00003778       ??_7RFrame_Edit@frames@ui@modules@UModSys@@6BIRefObject@core@4@@ 000000018001a778     umodsys_lib_libui:umodsys.mod.ui.frames.obj
 0002:00003910       ??_7RFrame_Edit@frames@ui@modules@UModSys@@6BICollectorThemeTree@libui@4@@ 000000018001a910     umodsys_lib_libui:umodsys.mod.ui.frames.obj
 0002:00003920       ??_7RFrame_Edit@frames@ui@modules@UModSys@@6B@ 000000018001a920     umodsys_lib_libui:umodsys.mod.ui.frames.obj
 0002:00003938       ??_7RFrame_List@frames@ui@modules@UModSys@@6BIRefObject@core@4@@ 000000018001a938     umodsys_lib_libui:umodsys.mod.ui.frames.obj
 0002:00003ad0       ??_7RFrame_List@frames@ui@modules@UModSys@@6BICollectorThemeTree@libui@4@@ 000000018001aad0     umodsys_lib_libui:umodsys.mod.ui.frames.obj
 0002:00003ae0       ??_7RFrame_List@frames@ui@modules@UModSys@@6BIFrameList@libui@4@@ 000000018001aae0     umodsys_lib_libui:umodsys.mod.ui.frames.obj
 0002:00003b08       ??_7RFrame_List@frames@ui@modules@UModSys@@6BIFrameData@libui@4@@ 000000018001ab08     umodsys_lib_libui:umodsys.mod.ui.frames.obj
 0002:00003b20       ??_7RModuleReg@frames@ui@modules@UModSys@@6B@ 000000018001ab20     umodsys_lib_libui:umodsys.mod.ui.frames.obj
 0002:00003b50       ??_C@_0DC@OJAOGACO@UModSys?3?3modules?3?3media?3?3images_@ 000000018001ab50     umodsys_lib_libmedia:umodsys.mod.media.images_std.obj
 0002:00003b88       ??_C@_0O@IMJFODOA@lib2d?3?3IImage?$AA@ 000000018001ab88     umodsys_lib_libmedia:umodsys.mod.media.images_std.obj
 0002:00003b98       ??_C@_0BH@FAPHCJAO@image_palette_alphakey?$AA@ 000000018001ab98     umodsys_lib_libmedia:umodsys.mod.media.images_std.obj
 0002:00003bb0       ??_C@_0L@MIOOFCJG@image_hint?$AA@ 000000018001abb0     umodsys_lib_libmedia:umodsys.mod.media.images_std.obj
 0002:00003bc0       ??_C@_0M@CPFHCGMF@image_alpha?$AA@ 000000018001abc0     umodsys_lib_libmedia:umodsys.mod.media.images_std.obj
 0002:00003bcc       ??_C@_04GNPKBLNA@?4jpg?$AA@ 000000018001abcc     umodsys_lib_libmedia:umodsys.mod.media.images_std.obj
 0002:00003bd4       ??_C@_05KPIGABMB@?4jpeg?$AA@ 000000018001abd4     umodsys_lib_libmedia:umodsys.mod.media.images_std.obj
 0002:00003bdc       ??_C@_04EEOGCCFB@?4png?$AA@ 000000018001abdc     umodsys_lib_libmedia:umodsys.mod.media.images_std.obj
 0002:00003be8       ??_C@_0CB@LKENOGAK@PNG?5FATAL?5ERROR?3?5png?5error?5?9?5?$CFs?6@ 000000018001abe8     umodsys_lib_libmedia:umodsys.mod.media.images_std.obj
 0002:00003c10       ??_C@_0L@BAFDDAPG@Read?5Error?$AA@ 000000018001ac10     umodsys_lib_libmedia:umodsys.mod.media.images_std.obj
 0002:00003c20       ??_C@_0M@PMDCBFIO@1?47?40beta06?$AA@ 000000018001ac20     umodsys_lib_libmedia:umodsys.mod.media.images_std.obj
 0002:00003c30       ??_C@_0DA@GEKJILHJ@UModSys?3?3modules?3?3media?3?3images_@ 000000018001ac30     umodsys_lib_libmedia:umodsys.mod.media.images_std.obj
 0002:00003c60       ??_C@_0DJ@PEFKPECF@UMODSYS_MODULE_NAME?$CImedia?0images@ 000000018001ac60     umodsys_lib_libmedia:umodsys.mod.media.images_std.obj
 0002:00003ca0       ??_C@_0BC@FLDHBKGG@media?3?3images_std?$AA@ 000000018001aca0     umodsys_lib_libmedia:umodsys.mod.media.images_std.obj
 0002:00003cc8       ??_7RGenerator@images_std@media@modules@UModSys@@6B@ 000000018001acc8     umodsys_lib_libmedia:umodsys.mod.media.images_std.obj
 0002:00003d68       ??_7RMediaFilter@images_std@media@modules@UModSys@@6BIRefObject@core@4@@ 000000018001ad68     umodsys_lib_libmedia:umodsys.mod.media.images_std.obj
 0002:00003de8       ??_7RMediaFilter@images_std@media@modules@UModSys@@6BISetter@SFlags@libmedia@4@@ 000000018001ade8     umodsys_lib_libmedia:umodsys.mod.media.images_std.obj
 0002:00003e08       ??_7RModuleReg@images_std@media@modules@UModSys@@6B@ 000000018001ae08     umodsys_lib_libmedia:umodsys.mod.media.images_std.obj
 0002:00003e40       ??_7RModuleLibraryReg_Chain@base@UModSys@@6B@ 000000018001ae40     umodsys_lib_base:umodsys.base.moduleregchain.obj
 0002:00003e78       ??_7IModuleReg@base@UModSys@@6B@ 000000018001ae78     umodsys_lib_base:umodsys.base.modulereg.obj
 0002:00003eb0       ??_7IModuleLibraryReg@base@UModSys@@6B@ 000000018001aeb0     umodsys_lib_base:umodsys.base.modulereg.obj
 0002:00003f08       __real@437f0000            000000018001af08      CIL library: CIL module
 0002:00003f10       __real@406fe00000000000    000000018001af10      CIL library: CIL module
 0002:00003f18       __real@447a0000            000000018001af18      CIL library: CIL module
 0002:00003f20       __real@3f50624dd2f1a9fc    000000018001af20      CIL library: CIL module
 0002:00003fe8       __real@3fe0000000000000    000000018001afe8      CIL library: CIL module
 0002:00004288       __real@3f800000            000000018001b288      CIL library: CIL module
 0002:00004468       __real@3f19999a            000000018001b468      CIL library: CIL module
 0002:0000446c       __real@3f333333            000000018001b46c      CIL library: CIL module
 0002:00004470       __real@3f000000            000000018001b470      CIL library: CIL module
 0002:000045f8       __real@3c23d70a            000000018001b5f8      CIL library: CIL module
 0002:000046c0       ??_R4type_info@@6B@        000000018001b6c0     MSVCRT:ti_inst.obj
 0002:000046e8       ??_R3type_info@@8          000000018001b6e8     MSVCRT:ti_inst.obj
 0002:00004700       ??_R2type_info@@8          000000018001b700     MSVCRT:ti_inst.obj
 0002:00004710       ??_R1A@?0A@EA@type_info@@8 000000018001b710     MSVCRT:ti_inst.obj
 0002:00004738       ??_R4RModuleReg@test1@test@modules@UModSys@@6B@ 000000018001b738     plugin_test1.obj
 0002:00004760       ??_R3RModuleReg@test1@test@modules@UModSys@@8 000000018001b760     plugin_test1.obj
 0002:00004778       ??_R2RModuleReg@test1@test@modules@UModSys@@8 000000018001b778     plugin_test1.obj
 0002:00004790       ??_R1A@?0A@EA@IModuleReg@base@UModSys@@8 000000018001b790     plugin_test1.obj
 0002:000047b8       ??_R3IModuleReg@base@UModSys@@8 000000018001b7b8     plugin_test1.obj
 0002:000047d0       ??_R2IModuleReg@base@UModSys@@8 000000018001b7d0     plugin_test1.obj
 0002:000047e0       ??_R1A@?0A@EA@RModuleReg@test1@test@modules@UModSys@@8 000000018001b7e0     plugin_test1.obj
 0002:00004808       ??_R4RGenerator@test1@test@modules@UModSys@@6B@ 000000018001b808     plugin_test1.obj
 0002:00004830       ??_R3RGenerator@test1@test@modules@UModSys@@8 000000018001b830     plugin_test1.obj
 0002:00004848       ??_R2RGenerator@test1@test@modules@UModSys@@8 000000018001b848     plugin_test1.obj
 0002:00004878       ??_R1A@?0A@EA@RGenerator@test1@test@modules@UModSys@@8 000000018001b878     plugin_test1.obj
 0002:000048a0       ??_R4RTest1_Shell@test1@test@modules@UModSys@@6BIControllerData@libui@4@@ 000000018001b8a0     plugin_test1.obj
 0002:000048c8       ??_R4RTest1_Shell@test1@test@modules@UModSys@@6BIControllerCommand@libui@4@@ 000000018001b8c8     plugin_test1.obj
 0002:000048f0       ??_R4RTest1_Shell@test1@test@modules@UModSys@@6BIMouseClient@libui@4@@ 000000018001b8f0     plugin_test1.obj
 0002:00004918       ??_R4RTest1_Shell@test1@test@modules@UModSys@@6BIKeyboardClient@libui@4@@ 000000018001b918     plugin_test1.obj
 0002:00004940       ??_R4RTest1_Shell@test1@test@modules@UModSys@@6BIShell@base@4@@ 000000018001b940     plugin_test1.obj
 0002:00004968       ??_R3RTest1_Shell@test1@test@modules@UModSys@@8 000000018001b968     plugin_test1.obj
 0002:00004980       ??_R2RTest1_Shell@test1@test@modules@UModSys@@8 000000018001b980     plugin_test1.obj
 0002:000049d0       ??_R1CA@?0A@EA@IControllerData@libui@UModSys@@8 000000018001b9d0     plugin_test1.obj
 0002:000049f8       ??_R1BI@?0A@EA@IControllerCommand@libui@UModSys@@8 000000018001b9f8     plugin_test1.obj
 0002:00004a20       ??_R1BI@?0A@EA@IController@libui@UModSys@@8 000000018001ba20     plugin_test1.obj
 0002:00004a48       ??_R1BA@?0A@EA@IMouseClient@libui@UModSys@@8 000000018001ba48     plugin_test1.obj
 0002:00004a70       ??_R17?0A@EA@IKeyboardClient@libui@UModSys@@8 000000018001ba70     plugin_test1.obj
 0002:00004a98       ??_R1A@?0A@EA@RTest1_Shell@test1@test@modules@UModSys@@8 000000018001ba98     plugin_test1.obj
 0002:00004ac0       ??_R3IController@libui@UModSys@@8 000000018001bac0     plugin_test1.obj
 0002:00004ad8       ??_R2IController@libui@UModSys@@8 000000018001bad8     plugin_test1.obj
 0002:00004af8       ??_R17?0A@EA@IControllerData@libui@UModSys@@8 000000018001baf8     plugin_test1.obj
 0002:00004b20       ??_R1A@?0A@EA@IController@libui@UModSys@@8 000000018001bb20     plugin_test1.obj
 0002:00004b48       ??_R3IControllerData@libui@UModSys@@8 000000018001bb48     plugin_test1.obj
 0002:00004b60       ??_R2IControllerData@libui@UModSys@@8 000000018001bb60     plugin_test1.obj
 0002:00004b70       ??_R1A@?0A@EA@IControllerData@libui@UModSys@@8 000000018001bb70     plugin_test1.obj
 0002:00004b98       ??_R3IControllerCommand@libui@UModSys@@8 000000018001bb98     plugin_test1.obj
 0002:00004bb0       ??_R2IControllerCommand@libui@UModSys@@8 000000018001bbb0     plugin_test1.obj
 0002:00004bc0       ??_R1A@?0A@EA@IControllerCommand@libui@UModSys@@8 000000018001bbc0     plugin_test1.obj
 0002:00004be8       ??_R3IMouseClient@libui@UModSys@@8 000000018001bbe8     plugin_test1.obj
 0002:00004c00       ??_R2IMouseClient@libui@UModSys@@8 000000018001bc00     plugin_test1.obj
 0002:00004c10       ??_R1A@?0A@EA@IMouseClient@libui@UModSys@@8 000000018001bc10     plugin_test1.obj
 0002:00004c38       ??_R3IKeyboardClient@libui@UModSys@@8 000000018001bc38     plugin_test1.obj
 0002:00004c50       ??_R2IKeyboardClient@libui@UModSys@@8 000000018001bc50     plugin_test1.obj
 0002:00004c60       ??_R1A@?0A@EA@IKeyboardClient@libui@UModSys@@8 000000018001bc60     plugin_test1.obj
 0002:00004c88       ??_R3IBinObjFilter@libmedia@UModSys@@8 000000018001bc88     plugin_test1.obj
 0002:00004ca0       ??_R2IBinObjFilter@libmedia@UModSys@@8 000000018001bca0     plugin_test1.obj
 0002:00004cd8       ??_R17?0A@EA@IResolver@SFlags@libmedia@UModSys@@8 000000018001bcd8     plugin_test1.obj
 0002:00004d00       ??_R17?0A@EA@IResolverAuto@SFlags@libmedia@UModSys@@8 000000018001bd00     plugin_test1.obj
 0002:00004d28       ??_R17?0A@EA@ISetter@SFlags@libmedia@UModSys@@8 000000018001bd28     plugin_test1.obj
 0002:00004d50       ??_R3ISetter@SFlags@libmedia@UModSys@@8 000000018001bd50     plugin_test1.obj
 0002:00004d68       ??_R2ISetter@SFlags@libmedia@UModSys@@8 000000018001bd68     plugin_test1.obj
 0002:00004d88       ??_R1A@?0A@EA@IResolverAuto@SFlags@libmedia@UModSys@@8 000000018001bd88     plugin_test1.obj
 0002:00004db0       ??_R3IResolverAuto@SFlags@libmedia@UModSys@@8 000000018001bdb0     plugin_test1.obj
 0002:00004dc8       ??_R2IResolverAuto@SFlags@libmedia@UModSys@@8 000000018001bdc8     plugin_test1.obj
 0002:00004de0       ??_R1A@?0A@EA@IResolver@SFlags@libmedia@UModSys@@8 000000018001bde0     plugin_test1.obj
 0002:00004e08       ??_R3IResolver@SFlags@libmedia@UModSys@@8 000000018001be08     plugin_test1.obj
 0002:00004e20       ??_R2IResolver@SFlags@libmedia@UModSys@@8 000000018001be20     plugin_test1.obj
 0002:00004e30       ??_R1A@?0A@EA@ISetter@SFlags@libmedia@UModSys@@8 000000018001be30     plugin_test1.obj
 0002:00004e58       ??_R1A@?0A@EA@IBinObjFilter@libmedia@UModSys@@8 000000018001be58     plugin_test1.obj
 0002:00004e80       ??_R3IShell@base@UModSys@@8 000000018001be80     plugin_test1.obj
 0002:00004e98       ??_R2IShell@base@UModSys@@8 000000018001be98     plugin_test1.obj
 0002:00004eb8       ??_R1A@?0A@EA@IShell@base@UModSys@@8 000000018001beb8     plugin_test1.obj
 0002:00004ee0       ??_R3IGenerator@base@UModSys@@8 000000018001bee0     plugin_test1.obj
 0002:00004ef8       ??_R2IGenerator@base@UModSys@@8 000000018001bef8     plugin_test1.obj
 0002:00004f20       ??_R1A@?0A@EA@IGenerator@base@UModSys@@8 000000018001bf20     plugin_test1.obj
 0002:00004f48       ??_R3IModObject@base@UModSys@@8 000000018001bf48     plugin_test1.obj
 0002:00004f60       ??_R2IModObject@base@UModSys@@8 000000018001bf60     plugin_test1.obj
 0002:00004f80       ??_R1A@?0A@EA@IModObject@base@UModSys@@8 000000018001bf80     plugin_test1.obj
 0002:00004fa8       ??_R4IRefObject@core@UModSys@@6B@ 000000018001bfa8     plugin_test1.obj
 0002:00004fd0       ??_R3IRefObject@core@UModSys@@8 000000018001bfd0     plugin_test1.obj
 0002:00004fe8       ??_R2IRefObject@core@UModSys@@8 000000018001bfe8     plugin_test1.obj
 0002:00005000       ??_R1A@?0A@EA@IRefObject@core@UModSys@@8 000000018001c000     plugin_test1.obj
 0002:00005028       ??_R4IRoot@core@UModSys@@6B@ 000000018001c028     plugin_test1.obj
 0002:00005050       ??_R3IRoot@core@UModSys@@8 000000018001c050     plugin_test1.obj
 0002:00005068       ??_R2IRoot@core@UModSys@@8 000000018001c068     plugin_test1.obj
 0002:00005078       ??_R1A@?0A@EA@IRoot@core@UModSys@@8 000000018001c078     plugin_test1.obj
 0002:000050a0       ??_R4RModuleReg@SDL_core@ui@modules@UModSys@@6B@ 000000018001c0a0     umodsys_lib_libui:umodsys.mod.ui.SDL_core.obj
 0002:000050c8       ??_R3RModuleReg@SDL_core@ui@modules@UModSys@@8 000000018001c0c8     umodsys_lib_libui:umodsys.mod.ui.SDL_core.obj
 0002:000050e0       ??_R2RModuleReg@SDL_core@ui@modules@UModSys@@8 000000018001c0e0     umodsys_lib_libui:umodsys.mod.ui.SDL_core.obj
 0002:000050f8       ??_R1A@?0A@EA@RModuleReg@SDL_core@ui@modules@UModSys@@8 000000018001c0f8     umodsys_lib_libui:umodsys.mod.ui.SDL_core.obj
 0002:00005120       ??_R4RKeyboardController@SDL_core@ui@modules@UModSys@@6B@ 000000018001c120     umodsys_lib_libui:umodsys.mod.ui.SDL_core.obj
 0002:00005148       ??_R3RKeyboardController@SDL_core@ui@modules@UModSys@@8 000000018001c148     umodsys_lib_libui:umodsys.mod.ui.SDL_core.obj
 0002:00005160       ??_R2RKeyboardController@SDL_core@ui@modules@UModSys@@8 000000018001c160     umodsys_lib_libui:umodsys.mod.ui.SDL_core.obj
 0002:00005188       ??_R1A@?0A@EA@RKeyboardController@SDL_core@ui@modules@UModSys@@8 000000018001c188     umodsys_lib_libui:umodsys.mod.ui.SDL_core.obj
 0002:000051b0       ??_R4RMouseController@SDL_core@ui@modules@UModSys@@6B@ 000000018001c1b0     umodsys_lib_libui:umodsys.mod.ui.SDL_core.obj
 0002:000051d8       ??_R3RMouseController@SDL_core@ui@modules@UModSys@@8 000000018001c1d8     umodsys_lib_libui:umodsys.mod.ui.SDL_core.obj
 0002:000051f0       ??_R2RMouseController@SDL_core@ui@modules@UModSys@@8 000000018001c1f0     umodsys_lib_libui:umodsys.mod.ui.SDL_core.obj
 0002:00005218       ??_R1A@?0A@EA@RMouseController@SDL_core@ui@modules@UModSys@@8 000000018001c218     umodsys_lib_libui:umodsys.mod.ui.SDL_core.obj
 0002:00005240       ??_R4RMultiImage2D_SDL_ttf@SDL_core@ui@modules@UModSys@@6B@ 000000018001c240     umodsys_lib_libui:umodsys.mod.ui.SDL_core.obj
 0002:00005268       ??_R3RMultiImage2D_SDL_ttf@SDL_core@ui@modules@UModSys@@8 000000018001c268     umodsys_lib_libui:umodsys.mod.ui.SDL_core.obj
 0002:00005280       ??_R2RMultiImage2D_SDL_ttf@SDL_core@ui@modules@UModSys@@8 000000018001c280     umodsys_lib_libui:umodsys.mod.ui.SDL_core.obj
 0002:000052a8       ??_R1A@?0A@EA@RMultiImage2D_SDL_ttf@SDL_core@ui@modules@UModSys@@8 000000018001c2a8     umodsys_lib_libui:umodsys.mod.ui.SDL_core.obj
 0002:000052d0       ??_R4RRenderDriver2D@SDL_core@ui@modules@UModSys@@6B@ 000000018001c2d0     umodsys_lib_libui:umodsys.mod.ui.SDL_core.obj
 0002:000052f8       ??_R3RRenderDriver2D@SDL_core@ui@modules@UModSys@@8 000000018001c2f8     umodsys_lib_libui:umodsys.mod.ui.SDL_core.obj
 0002:00005310       ??_R2RRenderDriver2D@SDL_core@ui@modules@UModSys@@8 000000018001c310     umodsys_lib_libui:umodsys.mod.ui.SDL_core.obj
 0002:00005338       ??_R1A@?0A@EA@RRenderDriver2D@SDL_core@ui@modules@UModSys@@8 000000018001c338     umodsys_lib_libui:umodsys.mod.ui.SDL_core.obj
 0002:00005360       ??_R4RTerminal@SDL_core@ui@modules@UModSys@@6B@ 000000018001c360     umodsys_lib_libui:umodsys.mod.ui.SDL_core.obj
 0002:00005388       ??_R3RTerminal@SDL_core@ui@modules@UModSys@@8 000000018001c388     umodsys_lib_libui:umodsys.mod.ui.SDL_core.obj
 0002:000053a0       ??_R2RTerminal@SDL_core@ui@modules@UModSys@@8 000000018001c3a0     umodsys_lib_libui:umodsys.mod.ui.SDL_core.obj
 0002:000053c8       ??_R1A@?0A@EA@RTerminal@SDL_core@ui@modules@UModSys@@8 000000018001c3c8     umodsys_lib_libui:umodsys.mod.ui.SDL_core.obj
 0002:000053f0       ??_R4RGenerator@SDL_core@ui@modules@UModSys@@6B@ 000000018001c3f0     umodsys_lib_libui:umodsys.mod.ui.SDL_core.obj
 0002:00005418       ??_R3RGenerator@SDL_core@ui@modules@UModSys@@8 000000018001c418     umodsys_lib_libui:umodsys.mod.ui.SDL_core.obj
 0002:00005430       ??_R2RGenerator@SDL_core@ui@modules@UModSys@@8 000000018001c430     umodsys_lib_libui:umodsys.mod.ui.SDL_core.obj
 0002:00005460       ??_R1A@?0A@EA@RGenerator@SDL_core@ui@modules@UModSys@@8 000000018001c460     umodsys_lib_libui:umodsys.mod.ui.SDL_core.obj
 0002:00005488       ??_R3IMouseController@libui@UModSys@@8 000000018001c488     umodsys_lib_libui:umodsys.mod.ui.SDL_core.obj
 0002:000054a0       ??_R2IMouseController@libui@UModSys@@8 000000018001c4a0     umodsys_lib_libui:umodsys.mod.ui.SDL_core.obj
 0002:000054c0       ??_R1A@?0A@EA@IMouseController@libui@UModSys@@8 000000018001c4c0     umodsys_lib_libui:umodsys.mod.ui.SDL_core.obj
 0002:000054e8       ??_R3IKeyboardController@libui@UModSys@@8 000000018001c4e8     umodsys_lib_libui:umodsys.mod.ui.SDL_core.obj
 0002:00005500       ??_R2IKeyboardController@libui@UModSys@@8 000000018001c500     umodsys_lib_libui:umodsys.mod.ui.SDL_core.obj
 0002:00005520       ??_R1A@?0A@EA@IKeyboardController@libui@UModSys@@8 000000018001c520     umodsys_lib_libui:umodsys.mod.ui.SDL_core.obj
 0002:00005548       ??_R3ITerminal@libui@UModSys@@8 000000018001c548     umodsys_lib_libui:umodsys.mod.ui.SDL_core.obj
 0002:00005560       ??_R2ITerminal@libui@UModSys@@8 000000018001c560     umodsys_lib_libui:umodsys.mod.ui.SDL_core.obj
 0002:00005580       ??_R1A@?0A@EA@ITerminal@libui@UModSys@@8 000000018001c580     umodsys_lib_libui:umodsys.mod.ui.SDL_core.obj
 0002:000055a8       ??_R3IMultiImage@lib2d@UModSys@@8 000000018001c5a8     umodsys_lib_libui:umodsys.mod.ui.SDL_core.obj
 0002:000055c0       ??_R2IMultiImage@lib2d@UModSys@@8 000000018001c5c0     umodsys_lib_libui:umodsys.mod.ui.SDL_core.obj
 0002:000055e0       ??_R1A@?0A@EA@IMultiImage@lib2d@UModSys@@8 000000018001c5e0     umodsys_lib_libui:umodsys.mod.ui.SDL_core.obj
 0002:00005608       ??_R3IRenderDriver@lib2d@UModSys@@8 000000018001c608     umodsys_lib_libui:umodsys.mod.ui.SDL_core.obj
 0002:00005620       ??_R2IRenderDriver@lib2d@UModSys@@8 000000018001c620     umodsys_lib_libui:umodsys.mod.ui.SDL_core.obj
 0002:00005640       ??_R1A@?0A@EA@IRenderDriver@lib2d@UModSys@@8 000000018001c640     umodsys_lib_libui:umodsys.mod.ui.SDL_core.obj
 0002:00005668       ??_R4RModuleReg@frames@ui@modules@UModSys@@6B@ 000000018001c668     umodsys_lib_libui:umodsys.mod.ui.frames.obj
 0002:00005690       ??_R3RModuleReg@frames@ui@modules@UModSys@@8 000000018001c690     umodsys_lib_libui:umodsys.mod.ui.frames.obj
 0002:000056a8       ??_R2RModuleReg@frames@ui@modules@UModSys@@8 000000018001c6a8     umodsys_lib_libui:umodsys.mod.ui.frames.obj
 0002:000056c0       ??_R1A@?0A@EA@RModuleReg@frames@ui@modules@UModSys@@8 000000018001c6c0     umodsys_lib_libui:umodsys.mod.ui.frames.obj
 0002:000056e8       ??_R4RFrame_List@frames@ui@modules@UModSys@@6BIFrameData@libui@4@@ 000000018001c6e8     umodsys_lib_libui:umodsys.mod.ui.frames.obj
 0002:00005710       ??_R4RFrame_List@frames@ui@modules@UModSys@@6BIFrameList@libui@4@@ 000000018001c710     umodsys_lib_libui:umodsys.mod.ui.frames.obj
 0002:00005738       ??_R4RFrame_List@frames@ui@modules@UModSys@@6BICollectorThemeTree@libui@4@@ 000000018001c738     umodsys_lib_libui:umodsys.mod.ui.frames.obj
 0002:00005760       ??_R4RFrame_List@frames@ui@modules@UModSys@@6BIRefObject@core@4@@ 000000018001c760     umodsys_lib_libui:umodsys.mod.ui.frames.obj
 0002:00005788       ??_R3RFrame_List@frames@ui@modules@UModSys@@8 000000018001c788     umodsys_lib_libui:umodsys.mod.ui.frames.obj
 0002:000057a0       ??_R2RFrame_List@frames@ui@modules@UModSys@@8 000000018001c7a0     umodsys_lib_libui:umodsys.mod.ui.frames.obj
 0002:000057e8       ??_R1BAA@?0A@EA@IFrameData@libui@UModSys@@8 000000018001c7e8     umodsys_lib_libui:umodsys.mod.ui.frames.obj
 0002:00005810       ??_R1PI@?0A@EA@IFrameList@libui@UModSys@@8 000000018001c810     umodsys_lib_libui:umodsys.mod.ui.frames.obj
 0002:00005838       ??_R1A@?0A@EA@RFrame_List@frames@ui@modules@UModSys@@8 000000018001c838     umodsys_lib_libui:umodsys.mod.ui.frames.obj
 0002:00005860       ??_R4RFrame_Edit@frames@ui@modules@UModSys@@6B@ 000000018001c860     umodsys_lib_libui:umodsys.mod.ui.frames.obj
 0002:00005888       ??_R4RFrame_Edit@frames@ui@modules@UModSys@@6BICollectorThemeTree@libui@4@@ 000000018001c888     umodsys_lib_libui:umodsys.mod.ui.frames.obj
 0002:000058b0       ??_R4RFrame_Edit@frames@ui@modules@UModSys@@6BIRefObject@core@4@@ 000000018001c8b0     umodsys_lib_libui:umodsys.mod.ui.frames.obj
 0002:000058d8       ??_R3RFrame_Edit@frames@ui@modules@UModSys@@8 000000018001c8d8     umodsys_lib_libui:umodsys.mod.ui.frames.obj
 0002:000058f0       ??_R2RFrame_Edit@frames@ui@modules@UModSys@@8 000000018001c8f0     umodsys_lib_libui:umodsys.mod.ui.frames.obj
 0002:00005930       ??_R1A@?0A@EA@RFrame_Edit@frames@ui@modules@UModSys@@8 000000018001c930     umodsys_lib_libui:umodsys.mod.ui.frames.obj
 0002:00005958       ??_R4RFrame_Button@frames@ui@modules@UModSys@@6BICollectorThemeTree@libui@4@@ 000000018001c958     umodsys_lib_libui:umodsys.mod.ui.frames.obj
 0002:00005980       ??_R4RFrame_Button@frames@ui@modules@UModSys@@6BIRefObject@core@4@@ 000000018001c980     umodsys_lib_libui:umodsys.mod.ui.frames.obj
 0002:000059a8       ??_R3RFrame_Button@frames@ui@modules@UModSys@@8 000000018001c9a8     umodsys_lib_libui:umodsys.mod.ui.frames.obj
 0002:000059c0       ??_R2RFrame_Button@frames@ui@modules@UModSys@@8 000000018001c9c0     umodsys_lib_libui:umodsys.mod.ui.frames.obj
 0002:000059f8       ??_R1A@?0A@EA@RFrame_Button@frames@ui@modules@UModSys@@8 000000018001c9f8     umodsys_lib_libui:umodsys.mod.ui.frames.obj
 0002:00005a20       ??_R4RFrame_Text@frames@ui@modules@UModSys@@6B@ 000000018001ca20     umodsys_lib_libui:umodsys.mod.ui.frames.obj
 0002:00005a48       ??_R4RFrame_Text@frames@ui@modules@UModSys@@6BICollectorThemeTree@libui@4@@ 000000018001ca48     umodsys_lib_libui:umodsys.mod.ui.frames.obj
 0002:00005a70       ??_R4RFrame_Text@frames@ui@modules@UModSys@@6BIRefObject@core@4@@ 000000018001ca70     umodsys_lib_libui:umodsys.mod.ui.frames.obj
 0002:00005a98       ??_R3RFrame_Text@frames@ui@modules@UModSys@@8 000000018001ca98     umodsys_lib_libui:umodsys.mod.ui.frames.obj
 0002:00005ab0       ??_R2RFrame_Text@frames@ui@modules@UModSys@@8 000000018001cab0     umodsys_lib_libui:umodsys.mod.ui.frames.obj
 0002:00005af0       ??_R1PI@?0A@EA@IFrameData@libui@UModSys@@8 000000018001caf0     umodsys_lib_libui:umodsys.mod.ui.frames.obj
 0002:00005b18       ??_R1A@?0A@EA@RFrame_Text@frames@ui@modules@UModSys@@8 000000018001cb18     umodsys_lib_libui:umodsys.mod.ui.frames.obj
 0002:00005b40       ??_R4RFrame_Image@frames@ui@modules@UModSys@@6BICollectorThemeTree@libui@4@@ 000000018001cb40     umodsys_lib_libui:umodsys.mod.ui.frames.obj
 0002:00005b68       ??_R4RFrame_Image@frames@ui@modules@UModSys@@6BIRefObject@core@4@@ 000000018001cb68     umodsys_lib_libui:umodsys.mod.ui.frames.obj
 0002:00005b90       ??_R3RFrame_Image@frames@ui@modules@UModSys@@8 000000018001cb90     umodsys_lib_libui:umodsys.mod.ui.frames.obj
 0002:00005ba8       ??_R2RFrame_Image@frames@ui@modules@UModSys@@8 000000018001cba8     umodsys_lib_libui:umodsys.mod.ui.frames.obj
 0002:00005be0       ??_R1A@?0A@EA@RFrame_Image@frames@ui@modules@UModSys@@8 000000018001cbe0     umodsys_lib_libui:umodsys.mod.ui.frames.obj
 0002:00005c08       ??_R4RFrame_Frame@frames@ui@modules@UModSys@@6BICollectorThemeTree@libui@4@@ 000000018001cc08     umodsys_lib_libui:umodsys.mod.ui.frames.obj
 0002:00005c30       ??_R4RFrame_Frame@frames@ui@modules@UModSys@@6BIRefObject@core@4@@ 000000018001cc30     umodsys_lib_libui:umodsys.mod.ui.frames.obj
 0002:00005c58       ??_R3RFrame_Frame@frames@ui@modules@UModSys@@8 000000018001cc58     umodsys_lib_libui:umodsys.mod.ui.frames.obj
 0002:00005c70       ??_R2RFrame_Frame@frames@ui@modules@UModSys@@8 000000018001cc70     umodsys_lib_libui:umodsys.mod.ui.frames.obj
 0002:00005ca8       ??_R1A@?0A@EA@RFrame_Frame@frames@ui@modules@UModSys@@8 000000018001cca8     umodsys_lib_libui:umodsys.mod.ui.frames.obj
 0002:00005cd0       ??_R4RCollectorTheme@frames@ui@modules@UModSys@@6B@ 000000018001ccd0     umodsys_lib_libui:umodsys.mod.ui.frames.obj
 0002:00005cf8       ??_R3RCollectorTheme@frames@ui@modules@UModSys@@8 000000018001ccf8     umodsys_lib_libui:umodsys.mod.ui.frames.obj
 0002:00005d10       ??_R2RCollectorTheme@frames@ui@modules@UModSys@@8 000000018001cd10     umodsys_lib_libui:umodsys.mod.ui.frames.obj
 0002:00005d30       ??_R1A@?0A@EA@RCollectorTheme@frames@ui@modules@UModSys@@8 000000018001cd30     umodsys_lib_libui:umodsys.mod.ui.frames.obj
 0002:00005d58       ??_R4RFrame_Common@frames@ui@modules@UModSys@@6BICollectorThemeTree@libui@4@@ 000000018001cd58     umodsys_lib_libui:umodsys.mod.ui.frames.obj
 0002:00005d80       ??_R4RFrame_Common@frames@ui@modules@UModSys@@6BIRefObject@core@4@@ 000000018001cd80     umodsys_lib_libui:umodsys.mod.ui.frames.obj
 0002:00005da8       ??_R3RFrame_Common@frames@ui@modules@UModSys@@8 000000018001cda8     umodsys_lib_libui:umodsys.mod.ui.frames.obj
 0002:00005dc0       ??_R2RFrame_Common@frames@ui@modules@UModSys@@8 000000018001cdc0     umodsys_lib_libui:umodsys.mod.ui.frames.obj
 0002:00005df0       ??_R1A@?0A@EA@RFrame_Common@frames@ui@modules@UModSys@@8 000000018001cdf0     umodsys_lib_libui:umodsys.mod.ui.frames.obj
 0002:00005e18       ??_R4RDialog@frames@ui@modules@UModSys@@6B@ 000000018001ce18     umodsys_lib_libui:umodsys.mod.ui.frames.obj
 0002:00005e40       ??_R3RDialog@frames@ui@modules@UModSys@@8 000000018001ce40     umodsys_lib_libui:umodsys.mod.ui.frames.obj
 0002:00005e58       ??_R2RDialog@frames@ui@modules@UModSys@@8 000000018001ce58     umodsys_lib_libui:umodsys.mod.ui.frames.obj
 0002:00005e80       ??_R1A@?0A@EA@RDialog@frames@ui@modules@UModSys@@8 000000018001ce80     umodsys_lib_libui:umodsys.mod.ui.frames.obj
 0002:00005ea8       ??_R4RCollector@frames@ui@modules@UModSys@@6BIMouseClient@libui@4@@ 000000018001cea8     umodsys_lib_libui:umodsys.mod.ui.frames.obj
 0002:00005ed0       ??_R4RCollector@frames@ui@modules@UModSys@@6BIKeyboardClient@libui@4@@ 000000018001ced0     umodsys_lib_libui:umodsys.mod.ui.frames.obj
 0002:00005ef8       ??_R4RCollector@frames@ui@modules@UModSys@@6BICollectorThemeTree@libui@4@@ 000000018001cef8     umodsys_lib_libui:umodsys.mod.ui.frames.obj
 0002:00005f20       ??_R4RCollector@frames@ui@modules@UModSys@@6BIRefObject@core@4@@ 000000018001cf20     umodsys_lib_libui:umodsys.mod.ui.frames.obj
 0002:00005f48       ??_R3RCollector@frames@ui@modules@UModSys@@8 000000018001cf48     umodsys_lib_libui:umodsys.mod.ui.frames.obj
 0002:00005f60       ??_R2RCollector@frames@ui@modules@UModSys@@8 000000018001cf60     umodsys_lib_libui:umodsys.mod.ui.frames.obj
 0002:00005fa0       ??_R1BI@?0A@EA@IMouseClient@libui@UModSys@@8 000000018001cfa0     umodsys_lib_libui:umodsys.mod.ui.frames.obj
 0002:00005fc8       ??_R1BA@?0A@EA@IKeyboardClient@libui@UModSys@@8 000000018001cfc8     umodsys_lib_libui:umodsys.mod.ui.frames.obj
 0002:00005ff0       ??_R1A@?0A@EA@RCollector@frames@ui@modules@UModSys@@8 000000018001cff0     umodsys_lib_libui:umodsys.mod.ui.frames.obj
 0002:00006018       ??_R4RGenerator@frames@ui@modules@UModSys@@6B@ 000000018001d018     umodsys_lib_libui:umodsys.mod.ui.frames.obj
 0002:00006040       ??_R3RGenerator@frames@ui@modules@UModSys@@8 000000018001d040     umodsys_lib_libui:umodsys.mod.ui.frames.obj
 0002:00006058       ??_R2RGenerator@frames@ui@modules@UModSys@@8 000000018001d058     umodsys_lib_libui:umodsys.mod.ui.frames.obj
 0002:00006088       ??_R1A@?0A@EA@RGenerator@frames@ui@modules@UModSys@@8 000000018001d088     umodsys_lib_libui:umodsys.mod.ui.frames.obj
 0002:000060b0       ??_R4ICollectorThemeTemplate@libui@UModSys@@6B@ 000000018001d0b0     umodsys_lib_libui:umodsys.mod.ui.frames.obj
 0002:000060d8       ??_R3ICollectorThemeTemplate@libui@UModSys@@8 000000018001d0d8     umodsys_lib_libui:umodsys.mod.ui.frames.obj
 0002:000060f0       ??_R2ICollectorThemeTemplate@libui@UModSys@@8 000000018001d0f0     umodsys_lib_libui:umodsys.mod.ui.frames.obj
 0002:00006108       ??_R1A@?0A@EA@ICollectorThemeTemplate@libui@UModSys@@8 000000018001d108     umodsys_lib_libui:umodsys.mod.ui.frames.obj
 0002:00006130       ??_R3IFrameList@libui@UModSys@@8 000000018001d130     umodsys_lib_libui:umodsys.mod.ui.frames.obj
 0002:00006148       ??_R2IFrameList@libui@UModSys@@8 000000018001d148     umodsys_lib_libui:umodsys.mod.ui.frames.obj
 0002:00006158       ??_R1A@?0A@EA@IFrameList@libui@UModSys@@8 000000018001d158     umodsys_lib_libui:umodsys.mod.ui.frames.obj
 0002:00006180       ??_R3IFrameData@libui@UModSys@@8 000000018001d180     umodsys_lib_libui:umodsys.mod.ui.frames.obj
 0002:00006198       ??_R2IFrameData@libui@UModSys@@8 000000018001d198     umodsys_lib_libui:umodsys.mod.ui.frames.obj
 0002:000061a8       ??_R1A@?0A@EA@IFrameData@libui@UModSys@@8 000000018001d1a8     umodsys_lib_libui:umodsys.mod.ui.frames.obj
 0002:000061d0       ??_R3IDialog@libui@UModSys@@8 000000018001d1d0     umodsys_lib_libui:umodsys.mod.ui.frames.obj
 0002:000061e8       ??_R2IDialog@libui@UModSys@@8 000000018001d1e8     umodsys_lib_libui:umodsys.mod.ui.frames.obj
 0002:00006208       ??_R1A@?0A@EA@IDialog@libui@UModSys@@8 000000018001d208     umodsys_lib_libui:umodsys.mod.ui.frames.obj
 0002:00006230       ??_R3IFrame@libui@UModSys@@8 000000018001d230     umodsys_lib_libui:umodsys.mod.ui.frames.obj
 0002:00006248       ??_R2IFrame@libui@UModSys@@8 000000018001d248     umodsys_lib_libui:umodsys.mod.ui.frames.obj
 0002:00006270       ??_R1A@?0A@EA@IFrame@libui@UModSys@@8 000000018001d270     umodsys_lib_libui:umodsys.mod.ui.frames.obj
 0002:00006298       ??_R3ICollectorTheme@libui@UModSys@@8 000000018001d298     umodsys_lib_libui:umodsys.mod.ui.frames.obj
 0002:000062b0       ??_R2ICollectorTheme@libui@UModSys@@8 000000018001d2b0     umodsys_lib_libui:umodsys.mod.ui.frames.obj
 0002:000062c0       ??_R1A@?0A@EA@ICollectorTheme@libui@UModSys@@8 000000018001d2c0     umodsys_lib_libui:umodsys.mod.ui.frames.obj
 0002:000062e8       ??_R3ICollector@libui@UModSys@@8 000000018001d2e8     umodsys_lib_libui:umodsys.mod.ui.frames.obj
 0002:00006300       ??_R2ICollector@libui@UModSys@@8 000000018001d300     umodsys_lib_libui:umodsys.mod.ui.frames.obj
 0002:00006328       ??_R17?0A@EA@ICollectorThemeTree@libui@UModSys@@8 000000018001d328     umodsys_lib_libui:umodsys.mod.ui.frames.obj
 0002:00006350       ??_R3ICollectorThemeTree@libui@UModSys@@8 000000018001d350     umodsys_lib_libui:umodsys.mod.ui.frames.obj
 0002:00006368       ??_R2ICollectorThemeTree@libui@UModSys@@8 000000018001d368     umodsys_lib_libui:umodsys.mod.ui.frames.obj
 0002:00006378       ??_R1A@?0A@EA@ICollectorThemeTree@libui@UModSys@@8 000000018001d378     umodsys_lib_libui:umodsys.mod.ui.frames.obj
 0002:000063a0       ??_R1A@?0A@EA@ICollector@libui@UModSys@@8 000000018001d3a0     umodsys_lib_libui:umodsys.mod.ui.frames.obj
 0002:000063c8       ??_R4RModuleReg@images_std@media@modules@UModSys@@6B@ 000000018001d3c8     umodsys_lib_libmedia:umodsys.mod.media.images_std.obj
 0002:000063f0       ??_R3RModuleReg@images_std@media@modules@UModSys@@8 000000018001d3f0     umodsys_lib_libmedia:umodsys.mod.media.images_std.obj
 0002:00006408       ??_R2RModuleReg@images_std@media@modules@UModSys@@8 000000018001d408     umodsys_lib_libmedia:umodsys.mod.media.images_std.obj
 0002:00006420       ??_R1A@?0A@EA@RModuleReg@images_std@media@modules@UModSys@@8 000000018001d420     umodsys_lib_libmedia:umodsys.mod.media.images_std.obj
 0002:00006448       ??_R4RMediaFilter@images_std@media@modules@UModSys@@6BISetter@SFlags@libmedia@4@@ 000000018001d448     umodsys_lib_libmedia:umodsys.mod.media.images_std.obj
 0002:00006470       ??_R4RMediaFilter@images_std@media@modules@UModSys@@6BIRefObject@core@4@@ 000000018001d470     umodsys_lib_libmedia:umodsys.mod.media.images_std.obj
 0002:00006498       ??_R3RMediaFilter@images_std@media@modules@UModSys@@8 000000018001d498     umodsys_lib_libmedia:umodsys.mod.media.images_std.obj
 0002:000064b0       ??_R2RMediaFilter@images_std@media@modules@UModSys@@8 000000018001d4b0     umodsys_lib_libmedia:umodsys.mod.media.images_std.obj
 0002:000064f0       ??_R1A@?0A@EA@RMediaFilter@images_std@media@modules@UModSys@@8 000000018001d4f0     umodsys_lib_libmedia:umodsys.mod.media.images_std.obj
 0002:00006518       ??_R4RGenerator@images_std@media@modules@UModSys@@6B@ 000000018001d518     umodsys_lib_libmedia:umodsys.mod.media.images_std.obj
 0002:00006540       ??_R3RGenerator@images_std@media@modules@UModSys@@8 000000018001d540     umodsys_lib_libmedia:umodsys.mod.media.images_std.obj
 0002:00006558       ??_R2RGenerator@images_std@media@modules@UModSys@@8 000000018001d558     umodsys_lib_libmedia:umodsys.mod.media.images_std.obj
 0002:00006588       ??_R1A@?0A@EA@RGenerator@images_std@media@modules@UModSys@@8 000000018001d588     umodsys_lib_libmedia:umodsys.mod.media.images_std.obj
 0002:000065b0       ??_R4RModuleLibraryReg_Chain@base@UModSys@@6B@ 000000018001d5b0     umodsys_lib_base:umodsys.base.moduleregchain.obj
 0002:000065d8       ??_R3RModuleLibraryReg_Chain@base@UModSys@@8 000000018001d5d8     umodsys_lib_base:umodsys.base.moduleregchain.obj
 0002:000065f0       ??_R2RModuleLibraryReg_Chain@base@UModSys@@8 000000018001d5f0     umodsys_lib_base:umodsys.base.moduleregchain.obj
 0002:00006608       ??_R1A@?0A@EA@IModuleLibraryReg@base@UModSys@@8 000000018001d608     umodsys_lib_base:umodsys.base.moduleregchain.obj
 0002:00006630       ??_R3IModuleLibraryReg@base@UModSys@@8 000000018001d630     umodsys_lib_base:umodsys.base.moduleregchain.obj
 0002:00006648       ??_R2IModuleLibraryReg@base@UModSys@@8 000000018001d648     umodsys_lib_base:umodsys.base.moduleregchain.obj
 0002:00006658       ??_R1A@?0A@EA@RModuleLibraryReg_Chain@base@UModSys@@8 000000018001d658     umodsys_lib_base:umodsys.base.moduleregchain.obj
 0002:00006680       ??_R4IModuleLibraryReg@base@UModSys@@6B@ 000000018001d680     umodsys_lib_base:umodsys.base.modulereg.obj
 0002:000066a8       ??_R4IModuleReg@base@UModSys@@6B@ 000000018001d6a8     umodsys_lib_base:umodsys.base.modulereg.obj
 0002:000066d0       __rtc_iaa                  000000018001d6d0     MSVCRT:_initsect_.obj
 0002:000066d8       __rtc_izz                  000000018001d6d8     MSVCRT:_initsect_.obj
 0002:000066e0       __rtc_taa                  000000018001d6e0     MSVCRT:_initsect_.obj
 0002:000066e8       __rtc_tzz                  000000018001d6e8     MSVCRT:_initsect_.obj
 0002:00008ea0       __IMPORT_DESCRIPTOR_MSVCR90 000000018001fea0     MSVCRT:MSVCR90.dll
 0002:00008eb4       __IMPORT_DESCRIPTOR_lib_libpng 000000018001feb4     lib_libpng:lib_libpng.dll
 0002:00008ec8       __IMPORT_DESCRIPTOR_lib_jpeglib 000000018001fec8     lib_jpeglib:lib_jpeglib.dll
 0002:00008edc       __IMPORT_DESCRIPTOR_lib_SDL2 000000018001fedc     lib_SDL2:lib_SDL2.dll
 0002:00008ef0       __IMPORT_DESCRIPTOR_KERNEL32 000000018001fef0     kernel32:KERNEL32.dll
 0002:00008f04       __NULL_IMPORT_DESCRIPTOR   000000018001ff04     MSVCRT:MSVCR90.dll
 0003:00000000       ??_R0?AVtype_info@@@8      0000000180021000     MSVCRT:ti_inst.obj
 0003:00000020       __native_dllmain_reason    0000000180021020     MSVCRT:natstart.obj
 0003:00000024       __native_vcclrit_reason    0000000180021024     MSVCRT:natstart.obj
 0003:00000028       __security_cookie          0000000180021028     MSVCRT:gs_cookie.obj
 0003:00000030       __security_cookie_complement 0000000180021030     MSVCRT:gs_cookie.obj
 0003:00000038       ??_R0?AUIModuleReg@base@UModSys@@@8 0000000180021038     plugin_test1.obj
 0003:00000068       ??_R0?AURModuleReg@test1@test@modules@UModSys@@@8 0000000180021068     plugin_test1.obj
 0003:000000a8       ??_R0?AURGenerator@test1@test@modules@UModSys@@@8 00000001800210a8     plugin_test1.obj
 0003:000000e8       ??_R0?AURTest1_Shell@test1@test@modules@UModSys@@@8 00000001800210e8     plugin_test1.obj
 0003:00000128       ??_R0?AUIController@libui@UModSys@@@8 0000000180021128     plugin_test1.obj
 0003:00000158       ??_R0?AUIControllerData@libui@UModSys@@@8 0000000180021158     plugin_test1.obj
 0003:00000190       ??_R0?AUIControllerCommand@libui@UModSys@@@8 0000000180021190     plugin_test1.obj
 0003:000001c8       ??_R0?AUIMouseClient@libui@UModSys@@@8 00000001800211c8     plugin_test1.obj
 0003:00000200       ??_R0?AUIKeyboardClient@libui@UModSys@@@8 0000000180021200     plugin_test1.obj
 0003:00000238       ??_R0?AUIResolver@SFlags@libmedia@UModSys@@@8 0000000180021238     plugin_test1.obj
 0003:00000270       ??_R0?AUIResolverAuto@SFlags@libmedia@UModSys@@@8 0000000180021270     plugin_test1.obj
 0003:000002b0       ??_R0?AUISetter@SFlags@libmedia@UModSys@@@8 00000001800212b0     plugin_test1.obj
 0003:000002e8       ??_R0?AUIBinObjFilter@libmedia@UModSys@@@8 00000001800212e8     plugin_test1.obj
 0003:00000320       ??_R0?AUIShell@base@UModSys@@@8 0000000180021320     plugin_test1.obj
 0003:00000350       ??_R0?AUIGenerator@base@UModSys@@@8 0000000180021350     plugin_test1.obj
 0003:00000380       ??_R0?AUIModObject@base@UModSys@@@8 0000000180021380     plugin_test1.obj
 0003:000003b0       ??_R0?AUIRefObject@core@UModSys@@@8 00000001800213b0     plugin_test1.obj
 0003:000003e0       ??_R0?AUIRoot@core@UModSys@@@8 00000001800213e0     plugin_test1.obj
 0003:00000450       ?so_entry_enabled_flag@base@UModSys@@3HA 0000000180021450     umodsys_lib_base:umodsys.so_main.win32.obj
 0003:00000498       ?auto_flags@RLines_Filter@test1@test@modules@UModSys@@2U?$TFlags4State@USMediaFlagUid@libmedia@UModSys@@I@tl@5@A 0000000180021498     plugin_test1.obj
 0003:000004d0       ?s_null@?1??get_null@?$TSCoreShared@USIMemAlloc@core@UModSys@@D@su@tl@UModSys@@SAPEAU?$TSharedStringInfo@D@345@XZ@4U6345@A 00000001800214d0     plugin_test1.obj
 0003:000004f0       ??_R0?AURModuleReg@SDL_core@ui@modules@UModSys@@@8 00000001800214f0     umodsys_lib_libui:umodsys.mod.ui.SDL_core.obj
 0003:00000530       ??_R0?AURKeyboardController@SDL_core@ui@modules@UModSys@@@8 0000000180021530     umodsys_lib_libui:umodsys.mod.ui.SDL_core.obj
 0003:00000580       ??_R0?AURMouseController@SDL_core@ui@modules@UModSys@@@8 0000000180021580     umodsys_lib_libui:umodsys.mod.ui.SDL_core.obj
 0003:000005d0       ??_R0?AURMultiImage2D_SDL_ttf@SDL_core@ui@modules@UModSys@@@8 00000001800215d0     umodsys_lib_libui:umodsys.mod.ui.SDL_core.obj
 0003:00000620       ??_R0?AURRenderDriver2D@SDL_core@ui@modules@UModSys@@@8 0000000180021620     umodsys_lib_libui:umodsys.mod.ui.SDL_core.obj
 0003:00000668       ??_R0?AURTerminal@SDL_core@ui@modules@UModSys@@@8 0000000180021668     umodsys_lib_libui:umodsys.mod.ui.SDL_core.obj
 0003:000006a8       ??_R0?AURGenerator@SDL_core@ui@modules@UModSys@@@8 00000001800216a8     umodsys_lib_libui:umodsys.mod.ui.SDL_core.obj
 0003:000006e8       ??_R0?AUIMouseController@libui@UModSys@@@8 00000001800216e8     umodsys_lib_libui:umodsys.mod.ui.SDL_core.obj
 0003:00000720       ??_R0?AUIKeyboardController@libui@UModSys@@@8 0000000180021720     umodsys_lib_libui:umodsys.mod.ui.SDL_core.obj
 0003:00000758       ??_R0?AUITerminal@libui@UModSys@@@8 0000000180021758     umodsys_lib_libui:umodsys.mod.ui.SDL_core.obj
 0003:00000788       ??_R0?AUIMultiImage@lib2d@UModSys@@@8 0000000180021788     umodsys_lib_libui:umodsys.mod.ui.SDL_core.obj
 0003:000007b8       ??_R0?AUIRenderDriver@lib2d@UModSys@@@8 00000001800217b8     umodsys_lib_libui:umodsys.mod.ui.SDL_core.obj
 0003:000007f0       ??_R0?AURModuleReg@frames@ui@modules@UModSys@@@8 00000001800217f0     umodsys_lib_libui:umodsys.mod.ui.frames.obj
 0003:00000830       ??_R0?AURFrame_List@frames@ui@modules@UModSys@@@8 0000000180021830     umodsys_lib_libui:umodsys.mod.ui.frames.obj
 0003:00000870       ??_R0?AURFrame_Edit@frames@ui@modules@UModSys@@@8 0000000180021870     umodsys_lib_libui:umodsys.mod.ui.frames.obj
 0003:000008b0       ??_R0?AURFrame_Button@frames@ui@modules@UModSys@@@8 00000001800218b0     umodsys_lib_libui:umodsys.mod.ui.frames.obj
 0003:000008f0       ??_R0?AURFrame_Text@frames@ui@modules@UModSys@@@8 00000001800218f0     umodsys_lib_libui:umodsys.mod.ui.frames.obj
 0003:00000930       ??_R0?AURFrame_Image@frames@ui@modules@UModSys@@@8 0000000180021930     umodsys_lib_libui:umodsys.mod.ui.frames.obj
 0003:00000970       ??_R0?AURFrame_Frame@frames@ui@modules@UModSys@@@8 0000000180021970     umodsys_lib_libui:umodsys.mod.ui.frames.obj
 0003:000009b0       ??_R0?AURCollectorTheme@frames@ui@modules@UModSys@@@8 00000001800219b0     umodsys_lib_libui:umodsys.mod.ui.frames.obj
 0003:000009f0       ??_R0?AURFrame_Common@frames@ui@modules@UModSys@@@8 00000001800219f0     umodsys_lib_libui:umodsys.mod.ui.frames.obj
 0003:00000a30       ??_R0?AURDialog@frames@ui@modules@UModSys@@@8 0000000180021a30     umodsys_lib_libui:umodsys.mod.ui.frames.obj
 0003:00000a68       ??_R0?AURCollector@frames@ui@modules@UModSys@@@8 0000000180021a68     umodsys_lib_libui:umodsys.mod.ui.frames.obj
 0003:00000aa8       ??_R0?AURGenerator@frames@ui@modules@UModSys@@@8 0000000180021aa8     umodsys_lib_libui:umodsys.mod.ui.frames.obj
 0003:00000ae8       ??_R0?AUICollectorThemeTemplate@libui@UModSys@@@8 0000000180021ae8     umodsys_lib_libui:umodsys.mod.ui.frames.obj
 0003:00000b28       ??_R0?AUIFrameList@libui@UModSys@@@8 0000000180021b28     umodsys_lib_libui:umodsys.mod.ui.frames.obj
 0003:00000b58       ??_R0?AUIFrameData@libui@UModSys@@@8 0000000180021b58     umodsys_lib_libui:umodsys.mod.ui.frames.obj
 0003:00000b88       ??_R0?AUIDialog@libui@UModSys@@@8 0000000180021b88     umodsys_lib_libui:umodsys.mod.ui.frames.obj
 0003:00000bb8       ??_R0?AUIFrame@libui@UModSys@@@8 0000000180021bb8     umodsys_lib_libui:umodsys.mod.ui.frames.obj
 0003:00000be8       ??_R0?AUICollectorTheme@libui@UModSys@@@8 0000000180021be8     umodsys_lib_libui:umodsys.mod.ui.frames.obj
 0003:00000c20       ??_R0?AUICollectorThemeTree@libui@UModSys@@@8 0000000180021c20     umodsys_lib_libui:umodsys.mod.ui.frames.obj
 0003:00000c58       ??_R0?AUICollector@libui@UModSys@@@8 0000000180021c58     umodsys_lib_libui:umodsys.mod.ui.frames.obj
 0003:00000c90       ??_R0?AURModuleReg@images_std@media@modules@UModSys@@@8 0000000180021c90     umodsys_lib_libmedia:umodsys.mod.media.images_std.obj
 0003:00000ce0       ??_R0?AURMediaFilter@images_std@media@modules@UModSys@@@8 0000000180021ce0     umodsys_lib_libmedia:umodsys.mod.media.images_std.obj
 0003:00000d30       ??_R0?AURGenerator@images_std@media@modules@UModSys@@@8 0000000180021d30     umodsys_lib_libmedia:umodsys.mod.media.images_std.obj
 0003:00000d78       ??_R0?AUIModuleLibraryReg@base@UModSys@@@8 0000000180021d78     umodsys_lib_base:umodsys.base.moduleregchain.obj
 0003:00000db0       ??_R0?AURModuleLibraryReg_Chain@base@UModSys@@@8 0000000180021db0     umodsys_lib_base:umodsys.base.moduleregchain.obj
 0003:00000dec       _fltused                   0000000180021dec     MSVCRT:dllsupp.obj
 0003:00000df4       _forceCRTManifestRTM       0000000180021df4     MSVCRT:crtmanifestrtm.obj
 0003:00000df8       ?__type_info_root_node@@3U__type_info_node@@A 0000000180021df8     MSVCRT:tncleanup.obj
 0003:00000e10       ?fmodule@SDL_core@ui@modules@UModSys@@3DA 0000000180021e10     umodsys_lib_libui:umodsys.mod.ui.SDL_core.obj
 0003:00000e11       ?fmodule@frames@ui@modules@UModSys@@3DA 0000000180021e11     umodsys_lib_libui:umodsys.mod.ui.frames.obj
 0003:00000e12       ?fmodule@images_std@media@modules@UModSys@@3DA 0000000180021e12     umodsys_lib_libmedia:umodsys.mod.media.images_std.obj
 0003:00000e20       ?s_modreg@RModuleReg@test1@test@modules@UModSys@@2U12345@A 0000000180021e20     plugin_test1.obj
 0003:00000e70       ?s_modreg_chain@RModuleReg@test1@test@modules@UModSys@@2USModuleRegChain@base@5@A 0000000180021e70     plugin_test1.obj
 0003:00000e88       ?s_uid@RGenerator@test1@test@modules@UModSys@@2USUniquePointer@core@5@A 0000000180021e88     plugin_test1.obj
 0003:00000eb8       ?s_modreg_chain@RModuleReg@SDL_core@ui@modules@UModSys@@2USModuleRegChain@base@5@A 0000000180021eb8     umodsys_lib_libui:umodsys.mod.ui.SDL_core.obj
 0003:00000ed0       ?s_modreg@RModuleReg@SDL_core@ui@modules@UModSys@@2U12345@A 0000000180021ed0     umodsys_lib_libui:umodsys.mod.ui.SDL_core.obj
 0003:00000f20       ?s_uid@RGenerator@SDL_core@ui@modules@UModSys@@2USUniquePointer@core@5@A 0000000180021f20     umodsys_lib_libui:umodsys.mod.ui.SDL_core.obj
 0003:00000f50       ?s_uid@RGenerator@frames@ui@modules@UModSys@@2USUniquePointer@core@5@A 0000000180021f50     umodsys_lib_libui:umodsys.mod.ui.frames.obj
 0003:00000f80       ?s_modreg_chain@RModuleReg@frames@ui@modules@UModSys@@2USModuleRegChain@base@5@A 0000000180021f80     umodsys_lib_libui:umodsys.mod.ui.frames.obj
 0003:00000fa0       ?s_modreg@RModuleReg@frames@ui@modules@UModSys@@2U12345@A 0000000180021fa0     umodsys_lib_libui:umodsys.mod.ui.frames.obj
 0003:00000ff0       ?auto_flags@RMediaFilter@images_std@media@modules@UModSys@@1U?$TFlags4State@USMediaFlagUid@libmedia@UModSys@@I@tl@5@A 0000000180021ff0     umodsys_lib_libmedia:umodsys.mod.media.images_std.obj
 0003:00000ff8       ?s_uid@RGenerator@images_std@media@modules@UModSys@@2USUniquePointer@core@5@A 0000000180021ff8     umodsys_lib_libmedia:umodsys.mod.media.images_std.obj
 0003:00001030       ?s_modreg@RModuleReg@images_std@media@modules@UModSys@@2U12345@A 0000000180022030     umodsys_lib_libmedia:umodsys.mod.media.images_std.obj
 0003:00001080       ?s_modreg_chain@RModuleReg@images_std@media@modules@UModSys@@2USModuleRegChain@base@5@A 0000000180022080     umodsys_lib_libmedia:umodsys.mod.media.images_std.obj
 0003:00001098       ?M@UModSys@@3USModuleContext@base@1@A 0000000180022098     umodsys_lib_base:umodsys.base.modulecontext.obj
 0003:000010c0       ?s_library@RModuleLibraryReg_Chain@base@UModSys@@2U123@A 00000001800220c0     umodsys_lib_base:umodsys.base.moduleregchain.obj
 0003:000010c8       ?root@SModuleRegChain@base@UModSys@@2U123@A 00000001800220c8     umodsys_lib_base:umodsys.base.moduleregchain.obj
 0003:000010e0       ?root@SUniquePointer@core@UModSys@@2U123@A 00000001800220e0     umodsys_lib_core:umodsys.core.uniqueptr.obj
 0003:00001200       ?s_id@?$TObjectUniqueID@UIBinObjFilter@libmedia@UModSys@@@tl@UModSys@@2USUniquePointer@core@3@A 0000000180022200     plugin_test1.obj
 0003:00001230       ?s_id@?$TObjectUniqueID@UIAsyncController@libui@UModSys@@@tl@UModSys@@2USUniquePointer@core@3@A 0000000180022230     plugin_test1.obj
 0003:00001260       ?s_id@?$TObjectUniqueID@UICollector@libui@UModSys@@@tl@UModSys@@2USUniquePointer@core@3@A 0000000180022260     plugin_test1.obj
 0003:00001290       ?s_id@?$TObjectUniqueID@UIMouseController@libui@UModSys@@@tl@UModSys@@2USUniquePointer@core@3@A 0000000180022290     plugin_test1.obj
 0003:000012c0       ?s_id@?$TObjectUniqueID@UILibraryBinTree@libmedia@UModSys@@@tl@UModSys@@2USUniquePointer@core@3@A 00000001800222c0     plugin_test1.obj
 0003:000012f0       ?s_id@?$TObjectUniqueID@UIModObject@base@UModSys@@@tl@UModSys@@2USUniquePointer@core@3@A 00000001800222f0     plugin_test1.obj
 0003:00001320       ?s_id@?$TObjectUniqueID@UIConsoleHelperOutputFCS@base@UModSys@@@tl@UModSys@@2USUniquePointer@core@3@A 0000000180022320     plugin_test1.obj
 0003:00001350       ?s_id@?$TObjectUniqueID@UILines@test1@test@modules@UModSys@@@tl@UModSys@@2USUniquePointer@core@3@A 0000000180022350     plugin_test1.obj
 0003:00001380       ?s_id@?$TObjectUniqueID@UIMultiImage@lib2d@UModSys@@@tl@UModSys@@2USUniquePointer@core@3@A 0000000180022380     plugin_test1.obj
 0003:000013b0       ?s_id@?$TObjectUniqueID@URLines_Filter@test1@test@modules@UModSys@@@tl@UModSys@@2USUniquePointer@core@3@A 00000001800223b0     plugin_test1.obj
 0003:000013e0       ?s_id@?$TObjectUniqueID@UIConsoleHelper@base@UModSys@@@tl@UModSys@@2USUniquePointer@core@3@A 00000001800223e0     plugin_test1.obj
 0003:00001410       ?s_id@?$TObjectUniqueID@UIGenerator@base@UModSys@@@tl@UModSys@@2USUniquePointer@core@3@A 0000000180022410     plugin_test1.obj
 0003:00001440       ?s_id@?$TObjectUniqueID@UIModule@base@UModSys@@@tl@UModSys@@2USUniquePointer@core@3@A 0000000180022440     plugin_test1.obj
 0003:00001470       ?s_id@?$TObjectUniqueID@UITerminal@libui@UModSys@@@tl@UModSys@@2USUniquePointer@core@3@A 0000000180022470     plugin_test1.obj
 0003:000014a0       ?s_id@?$TObjectUniqueID@UIJoystickController@libui@UModSys@@@tl@UModSys@@2USUniquePointer@core@3@A 00000001800224a0     plugin_test1.obj
 0003:000014d0       ?s_id@?$TObjectUniqueID@UIDialog@libui@UModSys@@@tl@UModSys@@2USUniquePointer@core@3@A 00000001800224d0     plugin_test1.obj
 0003:00001500       ?s_id@?$TObjectUniqueID@UIRenderDriver@lib2d@UModSys@@@tl@UModSys@@2USUniquePointer@core@3@A 0000000180022500     plugin_test1.obj
 0003:00001530       ?s_id@?$TObjectUniqueID@UIBinArchive@libmedia@UModSys@@@tl@UModSys@@2USUniquePointer@core@3@A 0000000180022530     plugin_test1.obj
 0003:00001560       ?s_id@?$TObjectUniqueID@UIRoot@core@UModSys@@@tl@UModSys@@2USUniquePointer@core@3@A 0000000180022560     plugin_test1.obj
 0003:00001590       ?s_id@?$TObjectUniqueID@UILibraryObjCache@libmedia@UModSys@@@tl@UModSys@@2USUniquePointer@core@3@A 0000000180022590     plugin_test1.obj
 0003:000015c0       ?s_id@?$TObjectUniqueID@UIStreamWriter@libmedia@UModSys@@@tl@UModSys@@2USUniquePointer@core@3@A 00000001800225c0     plugin_test1.obj
 0003:000015f0       ?s_id@?$TObjectUniqueID@UISystem@base@UModSys@@@tl@UModSys@@2USUniquePointer@core@3@A 00000001800225f0     plugin_test1.obj
 0003:00001620       ?s_id@?$TObjectUniqueID@URTest1_Shell@test1@test@modules@UModSys@@@tl@UModSys@@2USUniquePointer@core@3@A 0000000180022620     plugin_test1.obj
 0003:00001650       ?s_id@?$TObjectUniqueID@UIRefObject@core@UModSys@@@tl@UModSys@@2USUniquePointer@core@3@A 0000000180022650     plugin_test1.obj
 0003:00001680       ?s_id@?$TObjectUniqueID@UILibraryLayered@libmedia@UModSys@@@tl@UModSys@@2USUniquePointer@core@3@A 0000000180022680     plugin_test1.obj
 0003:000016b0       ?s_id@?$TObjectUniqueID@UIShell@base@UModSys@@@tl@UModSys@@2USUniquePointer@core@3@A 00000001800226b0     plugin_test1.obj
 0003:000016e0       ?s_id@?$TObjectUniqueID@URLines@test1@test@modules@UModSys@@@tl@UModSys@@2USUniquePointer@core@3@A 00000001800226e0     plugin_test1.obj
 0003:00001710       ?s_id@?$TObjectUniqueID@UILibraryBinCache@libmedia@UModSys@@@tl@UModSys@@2USUniquePointer@core@3@A 0000000180022710     plugin_test1.obj
 0003:00001740       ?s_id@?$TObjectUniqueID@UIConsole@base@UModSys@@@tl@UModSys@@2USUniquePointer@core@3@A 0000000180022740     plugin_test1.obj
 0003:00001770       ?s_id@?$TObjectUniqueID@UIFrame@libui@UModSys@@@tl@UModSys@@2USUniquePointer@core@3@A 0000000180022770     plugin_test1.obj
 0003:000017a0       ?s_id@?$TObjectUniqueID@URGenerator@test1@test@modules@UModSys@@@tl@UModSys@@2USUniquePointer@core@3@A 00000001800227a0     plugin_test1.obj
 0003:000017d0       ?s_id@?$TObjectUniqueID@UIConsoleHelperInput_UIKey@libui@UModSys@@@tl@UModSys@@2USUniquePointer@core@3@A 00000001800227d0     plugin_test1.obj
 0003:00001800       ?s_id@?$TObjectUniqueID@UIConsoleHelperHistory@base@UModSys@@@tl@UModSys@@2USUniquePointer@core@3@A 0000000180022800     plugin_test1.obj
 0003:00001830       ?s_id@?$TObjectUniqueID@UIModuleLibrary@base@UModSys@@@tl@UModSys@@2USUniquePointer@core@3@A 0000000180022830     plugin_test1.obj
 0003:00001860       ?s_id@?$TObjectUniqueID@UILibraryObjFilter@libmedia@UModSys@@@tl@UModSys@@2USUniquePointer@core@3@A 0000000180022860     plugin_test1.obj
 0003:00001890       ?s_id@?$TObjectUniqueID@UILibrary@libmedia@UModSys@@@tl@UModSys@@2USUniquePointer@core@3@A 0000000180022890     plugin_test1.obj
 0003:000018c0       ?s_id@?$TObjectUniqueID@UIImage@lib2d@UModSys@@@tl@UModSys@@2USUniquePointer@core@3@A 00000001800228c0     plugin_test1.obj
 0003:000018f0       ?s_id@?$TObjectUniqueID@UIKeyboardController@libui@UModSys@@@tl@UModSys@@2USUniquePointer@core@3@A 00000001800228f0     plugin_test1.obj
 0003:00001920       ?s_id@?$TObjectUniqueID@UIStreamReader@libmedia@UModSys@@@tl@UModSys@@2USUniquePointer@core@3@A 0000000180022920     plugin_test1.obj
 0003:00001950       ?s_id@?$TObjectUniqueID@UIParameters@core@UModSys@@@tl@UModSys@@2USUniquePointer@core@3@A 0000000180022950     plugin_test1.obj
 0003:00001980       ?s_id@?$TObjectUniqueID@UIConsoleHelperOutput@base@UModSys@@@tl@UModSys@@2USUniquePointer@core@3@A 0000000180022980     plugin_test1.obj
 0003:000019b0       ?s_id@?$TObjectUniqueID@UIConsoleExt@base@UModSys@@@tl@UModSys@@2USUniquePointer@core@3@A 00000001800229b0     plugin_test1.obj
 0003:000019e0       ?s_id@?$TObjectUniqueID@UIConsoleHelperInput@base@UModSys@@@tl@UModSys@@2USUniquePointer@core@3@A 00000001800229e0     plugin_test1.obj
 0003:00001a10       ?s_id@?$TObjectUniqueID@UIAsyncCollector@libui@UModSys@@@tl@UModSys@@2USUniquePointer@core@3@A 0000000180022a10     plugin_test1.obj
 0003:00001a40       ?s_id@?$TObjectUniqueID@URKeyboardController@SDL_core@ui@modules@UModSys@@@tl@UModSys@@2USUniquePointer@core@3@A 0000000180022a40     umodsys_lib_libui:umodsys.mod.ui.SDL_core.obj
 0003:00001a70       ?s_id@?$TObjectUniqueID@URMouseController@SDL_core@ui@modules@UModSys@@@tl@UModSys@@2USUniquePointer@core@3@A 0000000180022a70     umodsys_lib_libui:umodsys.mod.ui.SDL_core.obj
 0003:00001aa0       ?s_id@?$TObjectUniqueID@URGenerator@SDL_core@ui@modules@UModSys@@@tl@UModSys@@2USUniquePointer@core@3@A 0000000180022aa0     umodsys_lib_libui:umodsys.mod.ui.SDL_core.obj
 0003:00001ad0       ?s_id@?$TObjectUniqueID@URTerminal@SDL_core@ui@modules@UModSys@@@tl@UModSys@@2USUniquePointer@core@3@A 0000000180022ad0     umodsys_lib_libui:umodsys.mod.ui.SDL_core.obj
 0003:00001b00       ?s_id@?$TObjectUniqueID@URRenderDriver2D@SDL_core@ui@modules@UModSys@@@tl@UModSys@@2USUniquePointer@core@3@A 0000000180022b00     umodsys_lib_libui:umodsys.mod.ui.SDL_core.obj
 0003:00001b30       ?s_id@?$TObjectUniqueID@URMultiImage2D_SDL_ttf@SDL_core@ui@modules@UModSys@@@tl@UModSys@@2USUniquePointer@core@3@A 0000000180022b30     umodsys_lib_libui:umodsys.mod.ui.SDL_core.obj
 0003:00001b60       ?s_id@?$TObjectUniqueID@URFrame_Button@frames@ui@modules@UModSys@@@tl@UModSys@@2USUniquePointer@core@3@A 0000000180022b60     umodsys_lib_libui:umodsys.mod.ui.frames.obj
 0003:00001b90       ?s_id@?$TObjectUniqueID@URFrame_Edit@frames@ui@modules@UModSys@@@tl@UModSys@@2USUniquePointer@core@3@A 0000000180022b90     umodsys_lib_libui:umodsys.mod.ui.frames.obj
 0003:00001bc0       ?s_id@?$TObjectUniqueID@URFrame_Text@frames@ui@modules@UModSys@@@tl@UModSys@@2USUniquePointer@core@3@A 0000000180022bc0     umodsys_lib_libui:umodsys.mod.ui.frames.obj
 0003:00001bf0       ?s_id@?$TObjectUniqueID@URFrame_List@frames@ui@modules@UModSys@@@tl@UModSys@@2USUniquePointer@core@3@A 0000000180022bf0     umodsys_lib_libui:umodsys.mod.ui.frames.obj
 0003:00001c20       ?s_id@?$TObjectUniqueID@URFrame_Image@frames@ui@modules@UModSys@@@tl@UModSys@@2USUniquePointer@core@3@A 0000000180022c20     umodsys_lib_libui:umodsys.mod.ui.frames.obj
 0003:00001c50       ?s_id@?$TObjectUniqueID@URFrame_Common@frames@ui@modules@UModSys@@@tl@UModSys@@2USUniquePointer@core@3@A 0000000180022c50     umodsys_lib_libui:umodsys.mod.ui.frames.obj
 0003:00001c80       ?s_id@?$TObjectUniqueID@URCollector@frames@ui@modules@UModSys@@@tl@UModSys@@2USUniquePointer@core@3@A 0000000180022c80     umodsys_lib_libui:umodsys.mod.ui.frames.obj
 0003:00001cb0       ?s_id@?$TObjectUniqueID@URFrame_Frame@frames@ui@modules@UModSys@@@tl@UModSys@@2USUniquePointer@core@3@A 0000000180022cb0     umodsys_lib_libui:umodsys.mod.ui.frames.obj
 0003:00001ce0       ?s_id@?$TObjectUniqueID@URGenerator@frames@ui@modules@UModSys@@@tl@UModSys@@2USUniquePointer@core@3@A 0000000180022ce0     umodsys_lib_libui:umodsys.mod.ui.frames.obj
 0003:00001d10       ?s_id@?$TObjectUniqueID@URDialog@frames@ui@modules@UModSys@@@tl@UModSys@@2USUniquePointer@core@3@A 0000000180022d10     umodsys_lib_libui:umodsys.mod.ui.frames.obj
 0003:00001d40       ?s_id@?$TObjectUniqueID@URMediaFilter@images_std@media@modules@UModSys@@@tl@UModSys@@2USUniquePointer@core@3@A 0000000180022d40     umodsys_lib_libmedia:umodsys.mod.media.images_std.obj
 0003:00001d70       ?s_id@?$TObjectUniqueID@URGenerator@images_std@media@modules@UModSys@@@tl@UModSys@@2USUniquePointer@core@3@A 0000000180022d70     umodsys_lib_libmedia:umodsys.mod.media.images_std.obj
 0003:00001da0       __native_startup_state     0000000180022da0     <common>
 0003:00001da8       __native_startup_lock      0000000180022da8     <common>
 0003:00001db0       __dyn_tls_init_callback    0000000180022db0     <common>
 0003:00001db8       __onexitend                0000000180022db8     <common>
 0003:00001dc0       __onexitbegin              0000000180022dc0     <common>

 entry point at        0001:000080d0

 Static symbols

 0001:00007cdc       pre_c_init                 0000000180008cdc f   MSVCRT:crtdll.obj
 0001:00007f98       __DllMainCRTStartup        0000000180008f98 f   MSVCRT:crtdll.obj
 0001:00008ff0       ?term_source@images_std@media@modules@UModSys@@YAXPEAUjpeg_decompress_struct@@@Z 0000000180009ff0 f    CIL library: CIL module
 0001:00009000       ?skip_input_data@images_std@media@modules@UModSys@@YAXPEAUjpeg_decompress_struct@@J@Z 000000018000a000 f    CIL library: CIL module
 0001:00009020       ?fill_input_buffer@images_std@media@modules@UModSys@@YAEPEAUjpeg_decompress_struct@@@Z 000000018000a020 f    CIL library: CIL module
 0001:00009030       ?init_source@images_std@media@modules@UModSys@@YAXPEAUjpeg_decompress_struct@@@Z 000000018000a030 f    CIL library: CIL module
 0001:00009040       ?error_exit@images_std@media@modules@UModSys@@YAXPEAUjpeg_common_struct@@@Z 000000018000a040 f    CIL library: CIL module
 0001:00010af0       ?refer@@YAXXZ              0000000180011af0 f    CIL library: CIL module
 0001:00012970       _onexit$fin$0              0000000180013970 f   MSVCRT:atonexit.obj
 0001:00012989       __DllMainCRTStartup$filt$0 0000000180013989 f   MSVCRT:crtdll.obj
 0001:000129b9       __DllMainCRTStartup$fin$1  00000001800139b9 f   MSVCRT:crtdll.obj
 0001:000129d2       ?filt$0@?0??__ArrayUnwind@@YAXPEAX_KHP6AX0@Z@Z@4HA 00000001800139d2 f   MSVCRT:ehvecdtr.obj
 0001:00012a11       ?fin$0@?0???_M@YAXPEAX_KHP6AX0@Z@Z@4HA 0000000180013a11 f   MSVCRT:ehvecdtr.obj
 0001:00012a40       _IsNonwritableInCurrentImage$filt$0 0000000180013a40 f   MSVCRT:pesect.obj
 0001:00012a70       ?dtor$0@?0???1ICollectorThemeTemplate@libui@UModSys@@QEAA@XZ@4HA 0000000180013a70 f    CIL library: CIL module
 0001:00012a90       ?dtor$1@?0???1ICollectorThemeTemplate@libui@UModSys@@QEAA@XZ@4HA 0000000180013a90 f    CIL library: CIL module
 0001:00012ab0       ?dtor$0@?0???$ValidateConstruction@UIRefObject@core@UModSys@@URMediaFilter@images_std@media@modules@3@@core@UModSys@@YA_NAEAU?$TRefObject@UIRefObject@core@UModSys@@U?$TRefObjectFunc@UIRefObject@core@UModSys@@@tl@3@@tl@1@PEAURMediaFilter@images_std@media@modules@1@@Z@4HA 0000000180013ab0 f    CIL library: CIL module
 0001:00012ab0       ?dtor$0@?0???$ValidateConstruction@UIRefObject@core@UModSys@@URCollector@frames@ui@modules@3@@core@UModSys@@YA_NAEAU?$TRefObject@UIRefObject@core@UModSys@@U?$TRefObjectFunc@UIRefObject@core@UModSys@@@tl@3@@tl@1@PEAURCollector@frames@ui@modules@1@@Z@4HA 0000000180013ab0 f    CIL library: CIL module
 0001:00012ab0       ?dtor$0@?0???$ValidateConstruction@UIRefObject@core@UModSys@@URTerminal@SDL_core@ui@modules@3@@core@UModSys@@YA_NAEAU?$TRefObject@UIRefObject@core@UModSys@@U?$TRefObjectFunc@UIRefObject@core@UModSys@@@tl@3@@tl@1@PEAURTerminal@SDL_core@ui@modules@1@@Z@4HA 0000000180013ab0 f    CIL library: CIL module
 0001:00012ab0       ?dtor$0@?0???$ValidateConstruction@UIMultiImage@lib2d@UModSys@@URMultiImage2D_SDL_ttf@SDL_core@ui@modules@3@@core@UModSys@@YA_NAEAU?$TRefObject@UIMultiImage@lib2d@UModSys@@U?$TRefObjectFunc@UIMultiImage@lib2d@UModSys@@@tl@3@@tl@1@PEAURMultiImage2D_SDL_ttf@SDL_core@ui@modules@1@@Z@4HA 0000000180013ab0 f    CIL library: CIL module
 0001:00012ad0       ?dtor$0@?0??dialog_close_all@RCollector@frames@ui@modules@UModSys@@UEAA_NXZ@4HA 0000000180013ad0 f    CIL library: CIL module
 0001:00012af0       ?dtor$0@?0??dialog_close@RCollector@frames@ui@modules@UModSys@@UEAA_NXZ@4HA 0000000180013af0 f    CIL library: CIL module
 0001:00012b10       ?dtor$0@?0???0RDialog@frames@ui@modules@UModSys@@QEAA@PEAURCollector@1234@PEAURFrame_Common@1234@@Z@4HA 0000000180013b10 f    CIL library: CIL module
 0001:00012b30       ?dtor$1@?0??dialog_open@RCollector@frames@ui@modules@UModSys@@UEAAPEAUIDialog@libui@5@PEAUIFrame@75@@Z@4HA 0000000180013b30 f    CIL library: CIL module
 0001:00012b50       ?dtor$2@?0??dialog_open@RCollector@frames@ui@modules@UModSys@@UEAAPEAUIDialog@libui@5@PEAUIFrame@75@@Z@4HA 0000000180013b50 f    CIL library: CIL module
 0001:00012b70       ?dtor$0@?0???1RCollector@frames@ui@modules@UModSys@@UEAA@XZ@4HA 0000000180013b70 f    CIL library: CIL module
 0001:00012b90       ?dtor$1@?0???1RCollector@frames@ui@modules@UModSys@@UEAA@XZ@4HA 0000000180013b90 f    CIL library: CIL module
 0001:00012bb0       ?dtor$2@?0???1RCollector@frames@ui@modules@UModSys@@UEAA@XZ@4HA 0000000180013bb0 f    CIL library: CIL module
 0001:00012bd0       ?dtor$3@?0???1RCollector@frames@ui@modules@UModSys@@UEAA@XZ@4HA 0000000180013bd0 f    CIL library: CIL module
 0001:00012bf0       ?dtor$4@?0???1RCollector@frames@ui@modules@UModSys@@UEAA@XZ@4HA 0000000180013bf0 f    CIL library: CIL module
 0001:00012c10       ?dtor$5@?0???1RCollector@frames@ui@modules@UModSys@@UEAA@XZ@4HA 0000000180013c10 f    CIL library: CIL module
 0001:00012c30       ?dtor$6@?0???1RCollector@frames@ui@modules@UModSys@@UEAA@XZ@4HA 0000000180013c30 f    CIL library: CIL module
 0001:00012c50       ?dtor$7@?0???1RCollector@frames@ui@modules@UModSys@@UEAA@XZ@4HA 0000000180013c50 f    CIL library: CIL module
 0001:00012c80       ?dtor$0@?0???1RDialog@frames@ui@modules@UModSys@@UEAA@XZ@4HA 0000000180013c80 f    CIL library: CIL module
 0001:00012ca0       ?dtor$1@?0???1RDialog@frames@ui@modules@UModSys@@UEAA@XZ@4HA 0000000180013ca0 f    CIL library: CIL module
 0001:00012cd0       ?dtor$0@?0???1RFrame_Common@frames@ui@modules@UModSys@@UEAA@XZ@4HA 0000000180013cd0 f    CIL library: CIL module
 0001:00012cf0       ?dtor$1@?0???1RFrame_Common@frames@ui@modules@UModSys@@UEAA@XZ@4HA 0000000180013cf0 f    CIL library: CIL module
 0001:00012d10       ?dtor$2@?0???1RFrame_Common@frames@ui@modules@UModSys@@UEAA@XZ@4HA 0000000180013d10 f    CIL library: CIL module
 0001:00012d30       ?dtor$3@?0???1RFrame_Common@frames@ui@modules@UModSys@@UEAA@XZ@4HA 0000000180013d30 f    CIL library: CIL module
 0001:00012d50       ?dtor$6@?0???1RFrame_Common@frames@ui@modules@UModSys@@UEAA@XZ@4HA 0000000180013d50 f    CIL library: CIL module
 0001:00012d70       ?dtor$0@?0??ui_newfont@RTest1_Shell@test1@test@modules@UModSys@@QEAA?AU?$TRefObject@UIMultiImage@lib2d@UModSys@@U?$TRefObjectFunc@UIMultiImage@lib2d@UModSys@@@tl@3@@tl@5@AEBU?$TString@U?$TSCoreConst@D@su@tl@UModSys@@U?$TComparerBinaryHash@D@234@@75@AEBUSParameters@core@5@@Z@4HA 0000000180013d70 f    CIL library: CIL module
 0001:00012d90       ?dtor$0@?0??ui_newterm@RTest1_Shell@test1@test@modules@UModSys@@QEAA?AU?$TRefObject@UITerminal@libui@UModSys@@U?$TRefObjectFunc@UITerminal@libui@UModSys@@@tl@3@@tl@5@AEBU?$TString@U?$TSCoreConst@D@su@tl@UModSys@@U?$TComparerBinaryHash@D@234@@75@AEBUSParameters@core@5@@Z@4HA 0000000180013d90 f    CIL library: CIL module
 0001:00012db0       ?dtor$0@?0??ui_newframes@RTest1_Shell@test1@test@modules@UModSys@@QEAA?AU?$TRefObject@UICollector@libui@UModSys@@U?$TRefObjectFunc@UICollector@libui@UModSys@@@tl@3@@tl@5@AEBU?$TString@U?$TSCoreConst@D@su@tl@UModSys@@U?$TComparerBinaryHash@D@234@@75@AEBUSParameters@core@5@@Z@4HA 0000000180013db0 f    CIL library: CIL module
 0001:00012dd0       ?dtor$0@?0??loader_png@RMediaFilter@images_std@media@modules@UModSys@@QEAA_NPEAUIImage@lib2d@5@AEBUSInfo@IBinObjFilter@libmedia@5@AEBUSParameters@core@5@HPEBD_N@Z@4HA 0000000180013dd0 f    CIL library: CIL module
 0001:00012e00       ?dtor$0@?0??loader_jpeg@RMediaFilter@images_std@media@modules@UModSys@@QEAA_NPEAUIImage@lib2d@5@AEBUSInfo@IBinObjFilter@libmedia@5@AEBUSParameters@core@5@HPEBD_N@Z@4HA 0000000180013e00 f    CIL library: CIL module
 0001:00012e20       ?dtor$0@?0???0RCollector@frames@ui@modules@UModSys@@QEAA@PEAUIModObject@base@4@AEBUSParameters@core@4@@Z@4HA 0000000180013e20 f    CIL library: CIL module
 0001:00012e40       ?dtor$1@?0???0RCollector@frames@ui@modules@UModSys@@QEAA@PEAUIModObject@base@4@AEBUSParameters@core@4@@Z@4HA 0000000180013e40 f    CIL library: CIL module
 0001:00012e60       ?dtor$2@?0???0RCollector@frames@ui@modules@UModSys@@QEAA@PEAUIModObject@base@4@AEBUSParameters@core@4@@Z@4HA 0000000180013e60 f    CIL library: CIL module
 0001:00012e90       ?dtor$3@?0???0RCollector@frames@ui@modules@UModSys@@QEAA@PEAUIModObject@base@4@AEBUSParameters@core@4@@Z@4HA 0000000180013e90 f    CIL library: CIL module
 0001:00012ec0       ?dtor$4@?0???0RCollector@frames@ui@modules@UModSys@@QEAA@PEAUIModObject@base@4@AEBUSParameters@core@4@@Z@4HA 0000000180013ec0 f    CIL library: CIL module
 0001:00012ef0       ?dtor$5@?0???0RCollector@frames@ui@modules@UModSys@@QEAA@PEAUIModObject@base@4@AEBUSParameters@core@4@@Z@4HA 0000000180013ef0 f    CIL library: CIL module
 0001:00012f20       ?dtor$6@?0???0RCollector@frames@ui@modules@UModSys@@QEAA@PEAUIModObject@base@4@AEBUSParameters@core@4@@Z@4HA 0000000180013f20 f    CIL library: CIL module
 0001:00012f50       ?dtor$7@?0???0RCollector@frames@ui@modules@UModSys@@QEAA@PEAUIModObject@base@4@AEBUSParameters@core@4@@Z@4HA 0000000180013f50 f    CIL library: CIL module
 0001:00012f80       ?dtor$8@?0???0RCollector@frames@ui@modules@UModSys@@QEAA@PEAUIModObject@base@4@AEBUSParameters@core@4@@Z@4HA 0000000180013f80 f    CIL library: CIL module
 0001:00012fb0       ?dtor$9@?0???0RCollector@frames@ui@modules@UModSys@@QEAA@PEAUIModObject@base@4@AEBUSParameters@core@4@@Z@4HA 0000000180013fb0 f    CIL library: CIL module
 0001:00012fe0       ?dtor$0@?0??master_key_pressed@RCollector@frames@ui@modules@UModSys@@IEAA_NAEBUSKeyboardInputRaw@libui@5@@Z@4HA 0000000180013fe0 f    CIL library: CIL module
 0001:00013010       ?dtor$0@?0???1RFrame_Edit@frames@ui@modules@UModSys@@UEAA@XZ@4HA 0000000180014010 f    CIL library: CIL module
 0001:00013030       ?dtor$1@?0???1RFrame_Edit@frames@ui@modules@UModSys@@UEAA@XZ@4HA 0000000180014030 f    CIL library: CIL module
 0001:00013060       ?dtor$0@?0??set_buf@RFrame_Edit@frames@ui@modules@UModSys@@IEAA_NPEBDH@Z@4HA 0000000180014060 f    CIL library: CIL module
 0001:00013080       ?dtor$0@?0???1RFrame_Button@frames@ui@modules@UModSys@@UEAA@XZ@4HA 0000000180014080 f    CIL library: CIL module
 0001:000130a0       ?dtor$0@?0???1RFrame_Image@frames@ui@modules@UModSys@@UEAA@XZ@4HA 00000001800140a0 f    CIL library: CIL module
 0001:000130c0       ?dtor$0@?0???1RFrame_Text@frames@ui@modules@UModSys@@UEAA@XZ@4HA 00000001800140c0 f    CIL library: CIL module
 0001:000130e0       ?dtor$0@?0???0RFrame_Common@frames@ui@modules@UModSys@@QEAA@PEAURCollector@1234@PEAU01234@@Z@4HA 00000001800140e0 f    CIL library: CIL module
 0001:00013100       ?dtor$1@?0???0RFrame_Common@frames@ui@modules@UModSys@@QEAA@PEAURCollector@1234@PEAU01234@@Z@4HA 0000000180014100 f    CIL library: CIL module
 0001:00013130       ?dtor$0@?0??new_font@RRenderDriver2D@SDL_core@ui@modules@UModSys@@UEAA?AU?$TRefObject@UIMultiImage@lib2d@UModSys@@U?$TRefObjectFunc@UIMultiImage@lib2d@UModSys@@@tl@3@@tl@5@AEBUSParameters@core@5@AEBU?$TString@U?$TSCoreConst@D@su@tl@UModSys@@U?$TComparerBinaryHash@D@234@@75@@Z@4HA 0000000180014130 f    CIL library: CIL module
 0001:00013150       ?dtor$1@?0??new_font@RRenderDriver2D@SDL_core@ui@modules@UModSys@@UEAA?AU?$TRefObject@UIMultiImage@lib2d@UModSys@@U?$TRefObjectFunc@UIMultiImage@lib2d@UModSys@@@tl@3@@tl@5@AEBUSParameters@core@5@AEBU?$TString@U?$TSCoreConst@D@su@tl@UModSys@@U?$TComparerBinaryHash@D@234@@75@@Z@4HA 0000000180014150 f    CIL library: CIL module
 0001:00013170       ?dtor$2@?0??new_font@RRenderDriver2D@SDL_core@ui@modules@UModSys@@UEAA?AU?$TRefObject@UIMultiImage@lib2d@UModSys@@U?$TRefObjectFunc@UIMultiImage@lib2d@UModSys@@@tl@3@@tl@5@AEBUSParameters@core@5@AEBU?$TString@U?$TSCoreConst@D@su@tl@UModSys@@U?$TComparerBinaryHash@D@234@@75@@Z@4HA 0000000180014170 f    CIL library: CIL module
 0001:000131a0       ?dtor$0@?0???0RFrame_Edit@frames@ui@modules@UModSys@@QEAA@PEAURCollector@1234@PEAURFrame_Common@1234@@Z@4HA 00000001800141a0 f    CIL library: CIL module
 0001:000131c0       ?dtor$0@?0???0RFrame_Button@frames@ui@modules@UModSys@@QEAA@PEAURCollector@1234@PEAURFrame_Common@1234@@Z@4HA 00000001800141c0 f    CIL library: CIL module
 0001:000131e0       ?dtor$0@?0???0RFrame_Image@frames@ui@modules@UModSys@@QEAA@PEAURCollector@1234@PEAURFrame_Common@1234@@Z@4HA 00000001800141e0 f    CIL library: CIL module
 0001:00013200       ?dtor$0@?0???0RFrame_Text@frames@ui@modules@UModSys@@QEAA@PEAURCollector@1234@PEAURFrame_Common@1234@@Z@4HA 0000000180014200 f    CIL library: CIL module
 0001:00013220       ?dtor$0@?0???0RFrame_Frame@frames@ui@modules@UModSys@@QEAA@PEAURCollector@1234@PEAURFrame_Common@1234@@Z@4HA 0000000180014220 f    CIL library: CIL module
 0001:00013240       ?dtor$0@?0??ui_test1@RTest1_Shell@test1@test@modules@UModSys@@QEAAXXZ@4HA 0000000180014240 f    CIL library: CIL module
 0001:00013260       ?dtor$1@?0??ui_test1@RTest1_Shell@test1@test@modules@UModSys@@QEAAXXZ@4HA 0000000180014260 f    CIL library: CIL module
 0001:00013280       ?dtor$2@?0??ui_test1@RTest1_Shell@test1@test@modules@UModSys@@QEAAXXZ@4HA 0000000180014280 f    CIL library: CIL module
 0001:000132a0       ?dtor$3@?0??ui_test1@RTest1_Shell@test1@test@modules@UModSys@@QEAAXXZ@4HA 00000001800142a0 f    CIL library: CIL module
 0001:000132c0       ?dtor$4@?0??ui_test1@RTest1_Shell@test1@test@modules@UModSys@@QEAAXXZ@4HA 00000001800142c0 f    CIL library: CIL module
 0001:000132e0       ?dtor$5@?0??ui_test1@RTest1_Shell@test1@test@modules@UModSys@@QEAAXXZ@4HA 00000001800142e0 f    CIL library: CIL module
 0001:00013300       ?dtor$8@?0??ui_test1@RTest1_Shell@test1@test@modules@UModSys@@QEAAXXZ@4HA 0000000180014300 f    CIL library: CIL module
 0001:00013320       ?dtor$9@?0??ui_test1@RTest1_Shell@test1@test@modules@UModSys@@QEAAXXZ@4HA 0000000180014320 f    CIL library: CIL module
 0001:00013340       ?dtor$10@?0??ui_test1@RTest1_Shell@test1@test@modules@UModSys@@QEAAXXZ@4HA 0000000180014340 f    CIL library: CIL module
 0001:00013360       ?dtor$27@?0??ui_test1@RTest1_Shell@test1@test@modules@UModSys@@QEAAXXZ@4HA 0000000180014360 f    CIL library: CIL module
 0001:00013380       ?dtor$11@?0??ui_test1@RTest1_Shell@test1@test@modules@UModSys@@QEAAXXZ@4HA 0000000180014380 f    CIL library: CIL module
 0001:000133a0       ?dtor$12@?0??ui_test1@RTest1_Shell@test1@test@modules@UModSys@@QEAAXXZ@4HA 00000001800143a0 f    CIL library: CIL module
 0001:000133c0       ?dtor$13@?0??ui_test1@RTest1_Shell@test1@test@modules@UModSys@@QEAAXXZ@4HA 00000001800143c0 f    CIL library: CIL module
 0001:000133e0       ?dtor$34@?0??ui_test1@RTest1_Shell@test1@test@modules@UModSys@@QEAAXXZ@4HA 00000001800143e0 f    CIL library: CIL module
 0001:00013400       ?dtor$14@?0??ui_test1@RTest1_Shell@test1@test@modules@UModSys@@QEAAXXZ@4HA 0000000180014400 f    CIL library: CIL module
 0001:00013420       ?dtor$38@?0??ui_test1@RTest1_Shell@test1@test@modules@UModSys@@QEAAXXZ@4HA 0000000180014420 f    CIL library: CIL module
 0001:00013440       ?dtor$15@?0??ui_test1@RTest1_Shell@test1@test@modules@UModSys@@QEAAXXZ@4HA 0000000180014440 f    CIL library: CIL module
 0001:00013460       ?dtor$16@?0??ui_test1@RTest1_Shell@test1@test@modules@UModSys@@QEAAXXZ@4HA 0000000180014460 f    CIL library: CIL module
 0001:00013480       ?dtor$17@?0??ui_test1@RTest1_Shell@test1@test@modules@UModSys@@QEAAXXZ@4HA 0000000180014480 f    CIL library: CIL module
 0001:000134a0       ?dtor$18@?0??ui_test1@RTest1_Shell@test1@test@modules@UModSys@@QEAAXXZ@4HA 00000001800144a0 f    CIL library: CIL module
 0001:000134c0       ?dtor$19@?0??ui_test1@RTest1_Shell@test1@test@modules@UModSys@@QEAAXXZ@4HA 00000001800144c0 f    CIL library: CIL module
 0001:000134f0       ?dtor$0@?0???0RFrame_List@frames@ui@modules@UModSys@@QEAA@PEAURCollector@1234@PEAURFrame_Common@1234@@Z@4HA 00000001800144f0 f    CIL library: CIL module
 0001:00013510       ?dtor$0@?0??frame_create_s@RCollector@frames@ui@modules@UModSys@@UEAAPEAUIFrame@libui@5@AEBU?$TString@U?$TSCoreConst@D@su@tl@UModSys@@U?$TComparerBinaryHash@D@234@@tl@5@AEBUSFrameCreateParameters@75@PEBUSParameters@core@5@@Z@4HA 0000000180014510 f    CIL library: CIL module
 0001:00013530       ?dtor$1@?0??frame_create_s@RCollector@frames@ui@modules@UModSys@@UEAAPEAUIFrame@libui@5@AEBU?$TString@U?$TSCoreConst@D@su@tl@UModSys@@U?$TComparerBinaryHash@D@234@@tl@5@AEBUSFrameCreateParameters@75@PEBUSParameters@core@5@@Z@4HA 0000000180014530 f    CIL library: CIL module
 0001:00013550       ?dtor$2@?0??frame_create_s@RCollector@frames@ui@modules@UModSys@@UEAAPEAUIFrame@libui@5@AEBU?$TString@U?$TSCoreConst@D@su@tl@UModSys@@U?$TComparerBinaryHash@D@234@@tl@5@AEBUSFrameCreateParameters@75@PEBUSParameters@core@5@@Z@4HA 0000000180014550 f    CIL library: CIL module
 0001:00013570       ?dtor$3@?0??frame_create_s@RCollector@frames@ui@modules@UModSys@@UEAAPEAUIFrame@libui@5@AEBU?$TString@U?$TSCoreConst@D@su@tl@UModSys@@U?$TComparerBinaryHash@D@234@@tl@5@AEBUSFrameCreateParameters@75@PEBUSParameters@core@5@@Z@4HA 0000000180014570 f    CIL library: CIL module
 0001:00013590       ?dtor$4@?0??frame_create_s@RCollector@frames@ui@modules@UModSys@@UEAAPEAUIFrame@libui@5@AEBU?$TString@U?$TSCoreConst@D@su@tl@UModSys@@U?$TComparerBinaryHash@D@234@@tl@5@AEBUSFrameCreateParameters@75@PEBUSParameters@core@5@@Z@4HA 0000000180014590 f    CIL library: CIL module
 0001:000135b0       ?dtor$5@?0??frame_create_s@RCollector@frames@ui@modules@UModSys@@UEAAPEAUIFrame@libui@5@AEBU?$TString@U?$TSCoreConst@D@su@tl@UModSys@@U?$TComparerBinaryHash@D@234@@tl@5@AEBUSFrameCreateParameters@75@PEBUSParameters@core@5@@Z@4HA 00000001800145b0 f    CIL library: CIL module
 0001:000135d0       ?dtor$6@?0??frame_create_s@RCollector@frames@ui@modules@UModSys@@UEAAPEAUIFrame@libui@5@AEBU?$TString@U?$TSCoreConst@D@su@tl@UModSys@@U?$TComparerBinaryHash@D@234@@tl@5@AEBUSFrameCreateParameters@75@PEBUSParameters@core@5@@Z@4HA 00000001800145d0 f    CIL library: CIL module
 0001:000135f0       ?dtor$0@?0??frame_create_n@RCollector@frames@ui@modules@UModSys@@UEAAPEAUIFrame@libui@5@HAEBUSFrameCreateParameters@75@PEBUSParameters@core@5@@Z@4HA 00000001800145f0 f    CIL library: CIL module
 0001:00013610       ?dtor$1@?0??frame_create_n@RCollector@frames@ui@modules@UModSys@@UEAAPEAUIFrame@libui@5@HAEBUSFrameCreateParameters@75@PEBUSParameters@core@5@@Z@4HA 0000000180014610 f    CIL library: CIL module
 0001:00013630       ?dtor$2@?0??frame_create_n@RCollector@frames@ui@modules@UModSys@@UEAAPEAUIFrame@libui@5@HAEBUSFrameCreateParameters@75@PEBUSParameters@core@5@@Z@4HA 0000000180014630 f    CIL library: CIL module
 0001:00013650       ?dtor$3@?0??frame_create_n@RCollector@frames@ui@modules@UModSys@@UEAAPEAUIFrame@libui@5@HAEBUSFrameCreateParameters@75@PEBUSParameters@core@5@@Z@4HA 0000000180014650 f    CIL library: CIL module
 0001:00013670       ?dtor$4@?0??frame_create_n@RCollector@frames@ui@modules@UModSys@@UEAAPEAUIFrame@libui@5@HAEBUSFrameCreateParameters@75@PEBUSParameters@core@5@@Z@4HA 0000000180014670 f    CIL library: CIL module
 0001:00013690       ?dtor$5@?0??frame_create_n@RCollector@frames@ui@modules@UModSys@@UEAAPEAUIFrame@libui@5@HAEBUSFrameCreateParameters@75@PEBUSParameters@core@5@@Z@4HA 0000000180014690 f    CIL library: CIL module
 0001:000136b0       ?dtor$6@?0??frame_create_n@RCollector@frames@ui@modules@UModSys@@UEAAPEAUIFrame@libui@5@HAEBUSFrameCreateParameters@75@PEBUSParameters@core@5@@Z@4HA 00000001800146b0 f    CIL library: CIL module
 0001:000136d0       ?dtor$0@?0??suicide@RCollector@frames@ui@modules@UModSys@@UEAAXXZ@4HA 00000001800146d0 f    CIL library: CIL module
 0001:000136d0       ?dtor$0@?0??suicide@RTest1_Shell@test1@test@modules@UModSys@@UEAAXXZ@4HA 00000001800146d0 f    CIL library: CIL module
 0001:000136d0       ?dtor$0@?0??suicide@RTerminal@SDL_core@ui@modules@UModSys@@UEAAXXZ@4HA 00000001800146d0 f    CIL library: CIL module
 0001:000136d0       ?dtor$0@?0??suicide@RMediaFilter@images_std@media@modules@UModSys@@UEAAXXZ@4HA 00000001800146d0 f    CIL library: CIL module
 0001:000136f0       ?dtor$0@?0??suicide@RKeyboardController@SDL_core@ui@modules@UModSys@@UEAAXXZ@4HA 00000001800146f0 f    CIL library: CIL module
 0001:000136f0       ?dtor$0@?0??suicide@RMultiImage2D_SDL_ttf@SDL_core@ui@modules@UModSys@@UEAAXXZ@4HA 00000001800146f0 f    CIL library: CIL module
 0001:000136f0       ?dtor$0@?0??suicide@RFrame_List@frames@ui@modules@UModSys@@UEAAXXZ@4HA 00000001800146f0 f    CIL library: CIL module
 0001:000136f0       ?dtor$0@?0??suicide@RRenderDriver2D@SDL_core@ui@modules@UModSys@@UEAAXXZ@4HA 00000001800146f0 f    CIL library: CIL module
 0001:000136f0       ?dtor$0@?0??suicide@RDialog@frames@ui@modules@UModSys@@UEAAXXZ@4HA 00000001800146f0 f    CIL library: CIL module
 0001:000136f0       ?dtor$0@?0??suicide@RFrame_Frame@frames@ui@modules@UModSys@@UEAAXXZ@4HA 00000001800146f0 f    CIL library: CIL module
 0001:000136f0       ?dtor$0@?0??suicide@RFrame_Image@frames@ui@modules@UModSys@@UEAAXXZ@4HA 00000001800146f0 f    CIL library: CIL module
 0001:000136f0       ?dtor$0@?0??suicide@RFrame_Text@frames@ui@modules@UModSys@@UEAAXXZ@4HA 00000001800146f0 f    CIL library: CIL module
 0001:000136f0       ?dtor$0@?0??suicide@RFrame_Button@frames@ui@modules@UModSys@@UEAAXXZ@4HA 00000001800146f0 f    CIL library: CIL module
 0001:000136f0       ?dtor$0@?0??suicide@RFrame_Edit@frames@ui@modules@UModSys@@UEAAXXZ@4HA 00000001800146f0 f    CIL library: CIL module
 0001:000136f0       ?dtor$0@?0??suicide@RMouseController@SDL_core@ui@modules@UModSys@@UEAAXXZ@4HA 00000001800146f0 f    CIL library: CIL module
 0001:00013710       ?dtor$2@?0???R?$TNodeDeleter0@U?$TScatterArrayNode@U?$TRefObjectCompositeExtra@UIMouseClient@libui@UModSys@@HUIRefObject@core@3@U?$TRefObjectFunc@UIRefObject@core@UModSys@@@tl@3@@tl@UModSys@@H@tl@UModSys@@@tl@UModSys@@QEBAHPEAU?$TScatterArrayNode@U?$TRefObjectCompositeExtra@UIMouseClient@libui@UModSys@@HUIRefObject@core@3@U?$TRefObjectFunc@UIRefObject@core@UModSys@@@tl@3@@tl@UModSys@@H@12@@Z@4HA 0000000180014710 f    CIL library: CIL module
 0001:00013710       ?dtor$2@?0???R?$TNodeDeleter0@U?$TScatterArrayNode@U?$TRefObjectComposite@UIKeyboardClient@libui@UModSys@@UIRefObject@core@3@U?$TRefObjectFunc@UIRefObject@core@UModSys@@@tl@3@@tl@UModSys@@H@tl@UModSys@@@tl@UModSys@@QEBAHPEAU?$TScatterArrayNode@U?$TRefObjectComposite@UIKeyboardClient@libui@UModSys@@UIRefObject@core@3@U?$TRefObjectFunc@UIRefObject@core@UModSys@@@tl@3@@tl@UModSys@@H@12@@Z@4HA 0000000180014710 f    CIL library: CIL module
 0001:00013710       ?dtor$0@?0???$ValidateConstruction@UIRefObject@core@UModSys@@URRenderDriver2D@SDL_core@ui@modules@3@@core@UModSys@@YA_NAEAU?$TRefObject@UIRefObject@core@UModSys@@U?$TRefObjectFunc@UIRefObject@core@UModSys@@@tl@3@@tl@1@U?$TRefObject@URRenderDriver2D@SDL_core@ui@modules@UModSys@@U?$TRefObjectFunc@URRenderDriver2D@SDL_core@ui@modules@UModSys@@@tl@5@@31@@Z@4HA 0000000180014710 f    CIL library: CIL module
 0001:00013710       ?dtor$0@?0???$ValidateConstruction@UIRefObject@core@UModSys@@URKeyboardController@SDL_core@ui@modules@3@@core@UModSys@@YA_NAEAU?$TRefObject@UIRefObject@core@UModSys@@U?$TRefObjectFunc@UIRefObject@core@UModSys@@@tl@3@@tl@1@U?$TRefObject@URKeyboardController@SDL_core@ui@modules@UModSys@@U?$TRefObjectFunc@URKeyboardController@SDL_core@ui@modules@UModSys@@@tl@5@@31@@Z@4HA 0000000180014710 f    CIL library: CIL module
 0001:00013710       ?dtor$0@?0???$ValidateConstruction@UIRefObject@core@UModSys@@URMouseController@SDL_core@ui@modules@3@@core@UModSys@@YA_NAEAU?$TRefObject@UIRefObject@core@UModSys@@U?$TRefObjectFunc@UIRefObject@core@UModSys@@@tl@3@@tl@1@U?$TRefObject@URMouseController@SDL_core@ui@modules@UModSys@@U?$TRefObjectFunc@URMouseController@SDL_core@ui@modules@UModSys@@@tl@5@@31@@Z@4HA 0000000180014710 f    CIL library: CIL module
 0001:00013730       ?dtor$1@?0???1?$TPair@HU?$TRefObjectComposite@UIKeyboardClient@libui@UModSys@@UIRefObject@core@3@U?$TRefObjectFunc@UIRefObject@core@UModSys@@@tl@3@@tl@UModSys@@@tl@UModSys@@QEAA@XZ@4HA 0000000180014730 f    CIL library: CIL module
 0001:00013730       ?dtor$1@?0???1SController@libui@UModSys@@QEAA@XZ@4HA 0000000180014730 f    CIL library: CIL module
 0001:00013730       ?dtor$1@?0???1?$TPair@HU?$TRefObjectCompositeExtra@UIMouseClient@libui@UModSys@@HUIRefObject@core@3@U?$TRefObjectFunc@UIRefObject@core@UModSys@@@tl@3@@tl@UModSys@@@tl@UModSys@@QEAA@XZ@4HA 0000000180014730 f    CIL library: CIL module
 0001:00013730       ?dtor$0@?0???1?$TRefObjectComposite@UIKeyboardClient@libui@UModSys@@UIRefObject@core@3@U?$TRefObjectFunc@UIRefObject@core@UModSys@@@tl@3@@tl@UModSys@@QEAA@XZ@4HA 0000000180014730 f    CIL library: CIL module
 0001:00013730       ?dtor$0@?0???1?$TRefObjectCompositeExtra@UIMouseClient@libui@UModSys@@HUIRefObject@core@3@U?$TRefObjectFunc@UIRefObject@core@UModSys@@@tl@3@@tl@UModSys@@QEAA@XZ@4HA 0000000180014730 f    CIL library: CIL module
 0001:00013750       ?dtor$0@?0???1RRenderDriver2D@SDL_core@ui@modules@UModSys@@UEAA@XZ@4HA 0000000180014750 f    CIL library: CIL module
 0001:00013770       ?dtor$1@?0???1RRenderDriver2D@SDL_core@ui@modules@UModSys@@UEAA@XZ@4HA 0000000180014770 f    CIL library: CIL module
 0001:00013790       ?dtor$0@?0???$genx_node@UCmp@?$TScatterArray@U?$TRefObjectComposite@UIKeyboardClient@libui@UModSys@@UIRefObject@core@3@U?$TRefObjectFunc@UIRefObject@core@UModSys@@@tl@3@@tl@UModSys@@HU?$TScalarCompare@H@core@3@U?$TNodeDeleter0@U?$TScatterArrayNode@U?$TRefObjectComposite@UIKeyboardClient@libui@UModSys@@UIRefObject@core@3@U?$TRefObjectFunc@UIRefObject@core@UModSys@@@tl@3@@tl@UModSys@@H@tl@UModSys@@@23@@tl@UModSys@@UGen0@234@@?$TTreeHoldRBD@U?$TScatterArrayNode@U?$TRefObjectComposite@UIKeyboardClient@libui@UModSys@@UIRefObject@core@3@U?$TRefObjectFunc@UIRefObject@core@UModSys@@@tl@3@@tl@UModSys@@H@tl@UModSys@@U?$TNodeDeleter0@U?$TScatterArrayNode@U?$TRefObjectComposite@UIKeyboardClient@libui@UModSys@@UIRefObject@core@3@U?$TRefObjectFunc@UIRefObject@core@UModSys@@@tl@3@@tl@UModSys@@H@tl@UModSys@@@23@@tl@UModSys@@QEAAPEAU?$TScatterArrayNode@U?$TRefObjectComposite@UIKeyboardClient@libui@UModSys@@UIRefObject@core@3@U?$TRefObjectFunc@UIRefObject@core@UModSys@@@tl@3@@tl@UModSys@@H@12@UCmp@?$TScatterArray@U?$TRefObjectComposite@UIKeyboardClient@libui@UModSys@@UIRefObject@core@3@U?$TRefObjectFunc@UIRefObject@core@UModSys@@@tl@3@@tl@UModSys@@HU?$TScalarCompare@H@core@3@U?$TNodeDeleter0@U?$TScatterArrayNode@U?$TRefObjectComposite@UIKeyboardClient@libui@UModSys@@UIRefObject@core@3@U?$TRefObjectFunc@UIRefObject@core@UModSys@@@tl@3@@tl@UModSys@@H@tl@UModSys@@@23@@12@AEBUGen0@512@PEAPEAU312@2_N@Z@4HA 0000000180014790 f    CIL library: CIL module
 0001:000137b0       ?dtor$1@?0???$genx_node@UCmp@?$TScatterArray@U?$TRefObjectComposite@UIKeyboardClient@libui@UModSys@@UIRefObject@core@3@U?$TRefObjectFunc@UIRefObject@core@UModSys@@@tl@3@@tl@UModSys@@HU?$TScalarCompare@H@core@3@U?$TNodeDeleter0@U?$TScatterArrayNode@U?$TRefObjectComposite@UIKeyboardClient@libui@UModSys@@UIRefObject@core@3@U?$TRefObjectFunc@UIRefObject@core@UModSys@@@tl@3@@tl@UModSys@@H@tl@UModSys@@@23@@tl@UModSys@@UGen0@234@@?$TTreeHoldRBD@U?$TScatterArrayNode@U?$TRefObjectComposite@UIKeyboardClient@libui@UModSys@@UIRefObject@core@3@U?$TRefObjectFunc@UIRefObject@core@UModSys@@@tl@3@@tl@UModSys@@H@tl@UModSys@@U?$TNodeDeleter0@U?$TScatterArrayNode@U?$TRefObjectComposite@UIKeyboardClient@libui@UModSys@@UIRefObject@core@3@U?$TRefObjectFunc@UIRefObject@core@UModSys@@@tl@3@@tl@UModSys@@H@tl@UModSys@@@23@@tl@UModSys@@QEAAPEAU?$TScatterArrayNode@U?$TRefObjectComposite@UIKeyboardClient@libui@UModSys@@UIRefObject@core@3@U?$TRefObjectFunc@UIRefObject@core@UModSys@@@tl@3@@tl@UModSys@@H@12@UCmp@?$TScatterArray@U?$TRefObjectComposite@UIKeyboardClient@libui@UModSys@@UIRefObject@core@3@U?$TRefObjectFunc@UIRefObject@core@UModSys@@@tl@3@@tl@UModSys@@HU?$TScalarCompare@H@core@3@U?$TNodeDeleter0@U?$TScatterArrayNode@U?$TRefObjectComposite@UIKeyboardClient@libui@UModSys@@UIRefObject@core@3@U?$TRefObjectFunc@UIRefObject@core@UModSys@@@tl@3@@tl@UModSys@@H@tl@UModSys@@@23@@12@AEBUGen0@512@PEAPEAU312@2_N@Z@4HA 00000001800147b0 f    CIL library: CIL module
 0001:000137d0       ?dtor$2@?0???$genx_node@UCmp@?$TScatterArray@U?$TRefObjectComposite@UIKeyboardClient@libui@UModSys@@UIRefObject@core@3@U?$TRefObjectFunc@UIRefObject@core@UModSys@@@tl@3@@tl@UModSys@@HU?$TScalarCompare@H@core@3@U?$TNodeDeleter0@U?$TScatterArrayNode@U?$TRefObjectComposite@UIKeyboardClient@libui@UModSys@@UIRefObject@core@3@U?$TRefObjectFunc@UIRefObject@core@UModSys@@@tl@3@@tl@UModSys@@H@tl@UModSys@@@23@@tl@UModSys@@UGen0@234@@?$TTreeHoldRBD@U?$TScatterArrayNode@U?$TRefObjectComposite@UIKeyboardClient@libui@UModSys@@UIRefObject@core@3@U?$TRefObjectFunc@UIRefObject@core@UModSys@@@tl@3@@tl@UModSys@@H@tl@UModSys@@U?$TNodeDeleter0@U?$TScatterArrayNode@U?$TRefObjectComposite@UIKeyboardClient@libui@UModSys@@UIRefObject@core@3@U?$TRefObjectFunc@UIRefObject@core@UModSys@@@tl@3@@tl@UModSys@@H@tl@UModSys@@@23@@tl@UModSys@@QEAAPEAU?$TScatterArrayNode@U?$TRefObjectComposite@UIKeyboardClient@libui@UModSys@@UIRefObject@core@3@U?$TRefObjectFunc@UIRefObject@core@UModSys@@@tl@3@@tl@UModSys@@H@12@UCmp@?$TScatterArray@U?$TRefObjectComposite@UIKeyboardClient@libui@UModSys@@UIRefObject@core@3@U?$TRefObjectFunc@UIRefObject@core@UModSys@@@tl@3@@tl@UModSys@@HU?$TScalarCompare@H@core@3@U?$TNodeDeleter0@U?$TScatterArrayNode@U?$TRefObjectComposite@UIKeyboardClient@libui@UModSys@@UIRefObject@core@3@U?$TRefObjectFunc@UIRefObject@core@UModSys@@@tl@3@@tl@UModSys@@H@tl@UModSys@@@23@@12@AEBUGen0@512@PEAPEAU312@2_N@Z@4HA 00000001800147d0 f    CIL library: CIL module
 0001:000137f0       ?dtor$6@?0???$genx_node@UCmp@?$TScatterArray@U?$TRefObjectComposite@UIKeyboardClient@libui@UModSys@@UIRefObject@core@3@U?$TRefObjectFunc@UIRefObject@core@UModSys@@@tl@3@@tl@UModSys@@HU?$TScalarCompare@H@core@3@U?$TNodeDeleter0@U?$TScatterArrayNode@U?$TRefObjectComposite@UIKeyboardClient@libui@UModSys@@UIRefObject@core@3@U?$TRefObjectFunc@UIRefObject@core@UModSys@@@tl@3@@tl@UModSys@@H@tl@UModSys@@@23@@tl@UModSys@@UGen0@234@@?$TTreeHoldRBD@U?$TScatterArrayNode@U?$TRefObjectComposite@UIKeyboardClient@libui@UModSys@@UIRefObject@core@3@U?$TRefObjectFunc@UIRefObject@core@UModSys@@@tl@3@@tl@UModSys@@H@tl@UModSys@@U?$TNodeDeleter0@U?$TScatterArrayNode@U?$TRefObjectComposite@UIKeyboardClient@libui@UModSys@@UIRefObject@core@3@U?$TRefObjectFunc@UIRefObject@core@UModSys@@@tl@3@@tl@UModSys@@H@tl@UModSys@@@23@@tl@UModSys@@QEAAPEAU?$TScatterArrayNode@U?$TRefObjectComposite@UIKeyboardClient@libui@UModSys@@UIRefObject@core@3@U?$TRefObjectFunc@UIRefObject@core@UModSys@@@tl@3@@tl@UModSys@@H@12@UCmp@?$TScatterArray@U?$TRefObjectComposite@UIKeyboardClient@libui@UModSys@@UIRefObject@core@3@U?$TRefObjectFunc@UIRefObject@core@UModSys@@@tl@3@@tl@UModSys@@HU?$TScalarCompare@H@core@3@U?$TNodeDeleter0@U?$TScatterArrayNode@U?$TRefObjectComposite@UIKeyboardClient@libui@UModSys@@UIRefObject@core@3@U?$TRefObjectFunc@UIRefObject@core@UModSys@@@tl@3@@tl@UModSys@@H@tl@UModSys@@@23@@12@AEBUGen0@512@PEAPEAU312@2_N@Z@4HA 00000001800147f0 f    CIL library: CIL module
 0001:00013810       ?dtor$0@?0???$genx_node@UCmp@?$TScatterArray@U?$TRefObjectCompositeExtra@UIMouseClient@libui@UModSys@@HUIRefObject@core@3@U?$TRefObjectFunc@UIRefObject@core@UModSys@@@tl@3@@tl@UModSys@@HU?$TScalarCompare@H@core@3@U?$TNodeDeleter0@U?$TScatterArrayNode@U?$TRefObjectCompositeExtra@UIMouseClient@libui@UModSys@@HUIRefObject@core@3@U?$TRefObjectFunc@UIRefObject@core@UModSys@@@tl@3@@tl@UModSys@@H@tl@UModSys@@@23@@tl@UModSys@@UGen0@234@@?$TTreeHoldRBD@U?$TScatterArrayNode@U?$TRefObjectCompositeExtra@UIMouseClient@libui@UModSys@@HUIRefObject@core@3@U?$TRefObjectFunc@UIRefObject@core@UModSys@@@tl@3@@tl@UModSys@@H@tl@UModSys@@U?$TNodeDeleter0@U?$TScatterArrayNode@U?$TRefObjectCompositeExtra@UIMouseClient@libui@UModSys@@HUIRefObject@core@3@U?$TRefObjectFunc@UIRefObject@core@UModSys@@@tl@3@@tl@UModSys@@H@tl@UModSys@@@23@@tl@UModSys@@QEAAPEAU?$TScatterArrayNode@U?$TRefObjectCompositeExtra@UIMouseClient@libui@UModSys@@HUIRefObject@core@3@U?$TRefObjectFunc@UIRefObject@core@UModSys@@@tl@3@@tl@UModSys@@H@12@UCmp@?$TScatterArray@U?$TRefObjectCompositeExtra@UIMouseClient@libui@UModSys@@HUIRefObject@core@3@U?$TRefObjectFunc@UIRefObject@core@UModSys@@@tl@3@@tl@UModSys@@HU?$TScalarCompare@H@core@3@U?$TNodeDeleter0@U?$TScatterArrayNode@U?$TRefObjectCompositeExtra@UIMouseClient@libui@UModSys@@HUIRefObject@core@3@U?$TRefObjectFunc@UIRefObject@core@UModSys@@@tl@3@@tl@UModSys@@H@tl@UModSys@@@23@@12@AEBUGen0@512@PEAPEAU312@2_N@Z@4HA 0000000180014810 f    CIL library: CIL module
 0001:00013830       ?dtor$1@?0???$genx_node@UCmp@?$TScatterArray@U?$TRefObjectCompositeExtra@UIMouseClient@libui@UModSys@@HUIRefObject@core@3@U?$TRefObjectFunc@UIRefObject@core@UModSys@@@tl@3@@tl@UModSys@@HU?$TScalarCompare@H@core@3@U?$TNodeDeleter0@U?$TScatterArrayNode@U?$TRefObjectCompositeExtra@UIMouseClient@libui@UModSys@@HUIRefObject@core@3@U?$TRefObjectFunc@UIRefObject@core@UModSys@@@tl@3@@tl@UModSys@@H@tl@UModSys@@@23@@tl@UModSys@@UGen0@234@@?$TTreeHoldRBD@U?$TScatterArrayNode@U?$TRefObjectCompositeExtra@UIMouseClient@libui@UModSys@@HUIRefObject@core@3@U?$TRefObjectFunc@UIRefObject@core@UModSys@@@tl@3@@tl@UModSys@@H@tl@UModSys@@U?$TNodeDeleter0@U?$TScatterArrayNode@U?$TRefObjectCompositeExtra@UIMouseClient@libui@UModSys@@HUIRefObject@core@3@U?$TRefObjectFunc@UIRefObject@core@UModSys@@@tl@3@@tl@UModSys@@H@tl@UModSys@@@23@@tl@UModSys@@QEAAPEAU?$TScatterArrayNode@U?$TRefObjectCompositeExtra@UIMouseClient@libui@UModSys@@HUIRefObject@core@3@U?$TRefObjectFunc@UIRefObject@core@UModSys@@@tl@3@@tl@UModSys@@H@12@UCmp@?$TScatterArray@U?$TRefObjectCompositeExtra@UIMouseClient@libui@UModSys@@HUIRefObject@core@3@U?$TRefObjectFunc@UIRefObject@core@UModSys@@@tl@3@@tl@UModSys@@HU?$TScalarCompare@H@core@3@U?$TNodeDeleter0@U?$TScatterArrayNode@U?$TRefObjectCompositeExtra@UIMouseClient@libui@UModSys@@HUIRefObject@core@3@U?$TRefObjectFunc@UIRefObject@core@UModSys@@@tl@3@@tl@UModSys@@H@tl@UModSys@@@23@@12@AEBUGen0@512@PEAPEAU312@2_N@Z@4HA 0000000180014830 f    CIL library: CIL module
 0001:00013850       ?dtor$2@?0???$genx_node@UCmp@?$TScatterArray@U?$TRefObjectCompositeExtra@UIMouseClient@libui@UModSys@@HUIRefObject@core@3@U?$TRefObjectFunc@UIRefObject@core@UModSys@@@tl@3@@tl@UModSys@@HU?$TScalarCompare@H@core@3@U?$TNodeDeleter0@U?$TScatterArrayNode@U?$TRefObjectCompositeExtra@UIMouseClient@libui@UModSys@@HUIRefObject@core@3@U?$TRefObjectFunc@UIRefObject@core@UModSys@@@tl@3@@tl@UModSys@@H@tl@UModSys@@@23@@tl@UModSys@@UGen0@234@@?$TTreeHoldRBD@U?$TScatterArrayNode@U?$TRefObjectCompositeExtra@UIMouseClient@libui@UModSys@@HUIRefObject@core@3@U?$TRefObjectFunc@UIRefObject@core@UModSys@@@tl@3@@tl@UModSys@@H@tl@UModSys@@U?$TNodeDeleter0@U?$TScatterArrayNode@U?$TRefObjectCompositeExtra@UIMouseClient@libui@UModSys@@HUIRefObject@core@3@U?$TRefObjectFunc@UIRefObject@core@UModSys@@@tl@3@@tl@UModSys@@H@tl@UModSys@@@23@@tl@UModSys@@QEAAPEAU?$TScatterArrayNode@U?$TRefObjectCompositeExtra@UIMouseClient@libui@UModSys@@HUIRefObject@core@3@U?$TRefObjectFunc@UIRefObject@core@UModSys@@@tl@3@@tl@UModSys@@H@12@UCmp@?$TScatterArray@U?$TRefObjectCompositeExtra@UIMouseClient@libui@UModSys@@HUIRefObject@core@3@U?$TRefObjectFunc@UIRefObject@core@UModSys@@@tl@3@@tl@UModSys@@HU?$TScalarCompare@H@core@3@U?$TNodeDeleter0@U?$TScatterArrayNode@U?$TRefObjectCompositeExtra@UIMouseClient@libui@UModSys@@HUIRefObject@core@3@U?$TRefObjectFunc@UIRefObject@core@UModSys@@@tl@3@@tl@UModSys@@H@tl@UModSys@@@23@@12@AEBUGen0@512@PEAPEAU312@2_N@Z@4HA 0000000180014850 f    CIL library: CIL module
 0001:00013870       ?dtor$6@?0???$genx_node@UCmp@?$TScatterArray@U?$TRefObjectCompositeExtra@UIMouseClient@libui@UModSys@@HUIRefObject@core@3@U?$TRefObjectFunc@UIRefObject@core@UModSys@@@tl@3@@tl@UModSys@@HU?$TScalarCompare@H@core@3@U?$TNodeDeleter0@U?$TScatterArrayNode@U?$TRefObjectCompositeExtra@UIMouseClient@libui@UModSys@@HUIRefObject@core@3@U?$TRefObjectFunc@UIRefObject@core@UModSys@@@tl@3@@tl@UModSys@@H@tl@UModSys@@@23@@tl@UModSys@@UGen0@234@@?$TTreeHoldRBD@U?$TScatterArrayNode@U?$TRefObjectCompositeExtra@UIMouseClient@libui@UModSys@@HUIRefObject@core@3@U?$TRefObjectFunc@UIRefObject@core@UModSys@@@tl@3@@tl@UModSys@@H@tl@UModSys@@U?$TNodeDeleter0@U?$TScatterArrayNode@U?$TRefObjectCompositeExtra@UIMouseClient@libui@UModSys@@HUIRefObject@core@3@U?$TRefObjectFunc@UIRefObject@core@UModSys@@@tl@3@@tl@UModSys@@H@tl@UModSys@@@23@@tl@UModSys@@QEAAPEAU?$TScatterArrayNode@U?$TRefObjectCompositeExtra@UIMouseClient@libui@UModSys@@HUIRefObject@core@3@U?$TRefObjectFunc@UIRefObject@core@UModSys@@@tl@3@@tl@UModSys@@H@12@UCmp@?$TScatterArray@U?$TRefObjectCompositeExtra@UIMouseClient@libui@UModSys@@HUIRefObject@core@3@U?$TRefObjectFunc@UIRefObject@core@UModSys@@@tl@3@@tl@UModSys@@HU?$TScalarCompare@H@core@3@U?$TNodeDeleter0@U?$TScatterArrayNode@U?$TRefObjectCompositeExtra@UIMouseClient@libui@UModSys@@HUIRefObject@core@3@U?$TRefObjectFunc@UIRefObject@core@UModSys@@@tl@3@@tl@UModSys@@H@tl@UModSys@@@23@@12@AEBUGen0@512@PEAPEAU312@2_N@Z@4HA 0000000180014870 f    CIL library: CIL module
 0001:00013890       ?dtor$0@?0???_GRMultiImage2D_SDL_ttf@SDL_core@ui@modules@UModSys@@UEAAPEAXI@Z@4HA 0000000180014890 f    CIL library: CIL module
 0001:00013890       ?dtor$0@?0???0RTerminal@SDL_core@ui@modules@UModSys@@QEAA@PEAUIModObject@base@4@AEBUSParameters@core@4@@Z@4HA 0000000180014890 f    CIL library: CIL module
 0001:00013890       ?dtor$0@?0???_GRKeyboardController@SDL_core@ui@modules@UModSys@@UEAAPEAXI@Z@4HA 0000000180014890 f    CIL library: CIL module
 0001:00013890       ?dtor$0@?0???_GRMouseController@SDL_core@ui@modules@UModSys@@UEAAPEAXI@Z@4HA 0000000180014890 f    CIL library: CIL module
 0001:00013890       ?dtor$0@?0???1RTerminal@SDL_core@ui@modules@UModSys@@UEAA@XZ@4HA 0000000180014890 f    CIL library: CIL module
 0001:000138b0       ?dtor$0@?0???0RMultiImage2D_SDL_ttf@SDL_core@ui@modules@UModSys@@QEAA@PEAURRenderDriver2D@1234@AEBUSParameters@core@4@@Z@4HA 00000001800148b0 f    CIL library: CIL module
 0001:000138d0       ?dtor$1@?0???0RMultiImage2D_SDL_ttf@SDL_core@ui@modules@UModSys@@QEAA@PEAURRenderDriver2D@1234@AEBUSParameters@core@4@@Z@4HA 00000001800148d0 f    CIL library: CIL module
 0001:000138f0       ?dtor$0@?0???$t_generate@UITerminal@libui@UModSys@@@SModuleContext@base@UModSys@@QEAA_NAEAU?$TRefObject@UITerminal@libui@UModSys@@U?$TRefObjectFunc@UITerminal@libui@UModSys@@@tl@3@@tl@2@PEBUSUniquePointerInfo@core@2@AEBUSParameters@62@@Z@4HA 00000001800148f0 f    CIL library: CIL module
 0001:000138f0       ?dtor$0@?0???$t_generate@UICollector@libui@UModSys@@@SModuleContext@base@UModSys@@QEAA_NAEAU?$TRefObject@UICollector@libui@UModSys@@U?$TRefObjectFunc@UICollector@libui@UModSys@@@tl@3@@tl@2@PEBUSUniquePointerInfo@core@2@AEBUSParameters@62@@Z@4HA 00000001800148f0 f    CIL library: CIL module
 0001:000138f0       ?dtor$0@?0???$t_generate@UIMultiImage@lib2d@UModSys@@@SModuleContext@base@UModSys@@QEAA_NAEAU?$TRefObject@UIMultiImage@lib2d@UModSys@@U?$TRefObjectFunc@UIMultiImage@lib2d@UModSys@@@tl@3@@tl@2@PEBUSUniquePointerInfo@core@2@AEBUSParameters@62@@Z@4HA 00000001800148f0 f    CIL library: CIL module
 0001:00013910       ?dtor$0@?0???$genx_node@UCmp@?$TScatterArray@U?$TRefObject@URRenderDriver2D@SDL_core@ui@modules@UModSys@@U?$TRefObjectWeakFunc@URRenderDriver2D@SDL_core@ui@modules@UModSys@@@tl@5@@tl@UModSys@@HU?$TScalarCompare@H@core@3@U?$TNodeDeleter0@U?$TScatterArrayNode@U?$TRefObject@URRenderDriver2D@SDL_core@ui@modules@UModSys@@U?$TRefObjectWeakFunc@URRenderDriver2D@SDL_core@ui@modules@UModSys@@@tl@5@@tl@UModSys@@H@tl@UModSys@@@23@@tl@UModSys@@UGen0@234@@?$TTreeHoldRBD@U?$TScatterArrayNode@U?$TRefObject@URRenderDriver2D@SDL_core@ui@modules@UModSys@@U?$TRefObjectWeakFunc@URRenderDriver2D@SDL_core@ui@modules@UModSys@@@tl@5@@tl@UModSys@@H@tl@UModSys@@U?$TNodeDeleter0@U?$TScatterArrayNode@U?$TRefObject@URRenderDriver2D@SDL_core@ui@modules@UModSys@@U?$TRefObjectWeakFunc@URRenderDriver2D@SDL_core@ui@modules@UModSys@@@tl@5@@tl@UModSys@@H@tl@UModSys@@@23@@tl@UModSys@@QEAAPEAU?$TScatterArrayNode@U?$TRefObject@URRenderDriver2D@SDL_core@ui@modules@UModSys@@U?$TRefObjectWeakFunc@URRenderDriver2D@SDL_core@ui@modules@UModSys@@@tl@5@@tl@UModSys@@H@12@UCmp@?$TScatterArray@U?$TRefObject@URRenderDriver2D@SDL_core@ui@modules@UModSys@@U?$TRefObjectWeakFunc@URRenderDriver2D@SDL_core@ui@modules@UModSys@@@tl@5@@tl@UModSys@@HU?$TScalarCompare@H@core@3@U?$TNodeDeleter0@U?$TScatterArrayNode@U?$TRefObject@URRenderDriver2D@SDL_core@ui@modules@UModSys@@U?$TRefObjectWeakFunc@URRenderDriver2D@SDL_core@ui@modules@UModSys@@@tl@5@@tl@UModSys@@H@tl@UModSys@@@23@@12@AEBUGen0@512@PEAPEAU312@2_N@Z@4HA 0000000180014910 f    CIL library: CIL module
 0001:00013930       ?dtor$1@?0???$genx_node@UCmp@?$TScatterArray@U?$TRefObject@URRenderDriver2D@SDL_core@ui@modules@UModSys@@U?$TRefObjectWeakFunc@URRenderDriver2D@SDL_core@ui@modules@UModSys@@@tl@5@@tl@UModSys@@HU?$TScalarCompare@H@core@3@U?$TNodeDeleter0@U?$TScatterArrayNode@U?$TRefObject@URRenderDriver2D@SDL_core@ui@modules@UModSys@@U?$TRefObjectWeakFunc@URRenderDriver2D@SDL_core@ui@modules@UModSys@@@tl@5@@tl@UModSys@@H@tl@UModSys@@@23@@tl@UModSys@@UGen0@234@@?$TTreeHoldRBD@U?$TScatterArrayNode@U?$TRefObject@URRenderDriver2D@SDL_core@ui@modules@UModSys@@U?$TRefObjectWeakFunc@URRenderDriver2D@SDL_core@ui@modules@UModSys@@@tl@5@@tl@UModSys@@H@tl@UModSys@@U?$TNodeDeleter0@U?$TScatterArrayNode@U?$TRefObject@URRenderDriver2D@SDL_core@ui@modules@UModSys@@U?$TRefObjectWeakFunc@URRenderDriver2D@SDL_core@ui@modules@UModSys@@@tl@5@@tl@UModSys@@H@tl@UModSys@@@23@@tl@UModSys@@QEAAPEAU?$TScatterArrayNode@U?$TRefObject@URRenderDriver2D@SDL_core@ui@modules@UModSys@@U?$TRefObjectWeakFunc@URRenderDriver2D@SDL_core@ui@modules@UModSys@@@tl@5@@tl@UModSys@@H@12@UCmp@?$TScatterArray@U?$TRefObject@URRenderDriver2D@SDL_core@ui@modules@UModSys@@U?$TRefObjectWeakFunc@URRenderDriver2D@SDL_core@ui@modules@UModSys@@@tl@5@@tl@UModSys@@HU?$TScalarCompare@H@core@3@U?$TNodeDeleter0@U?$TScatterArrayNode@U?$TRefObject@URRenderDriver2D@SDL_core@ui@modules@UModSys@@U?$TRefObjectWeakFunc@URRenderDriver2D@SDL_core@ui@modules@UModSys@@@tl@5@@tl@UModSys@@H@tl@UModSys@@@23@@12@AEBUGen0@512@PEAPEAU312@2_N@Z@4HA 0000000180014930 f    CIL library: CIL module
 0001:00013950       ?dtor$0@?0??generate@RGenerator@test1@test@modules@UModSys@@UEAA_NAEAU?$TRefObject@UIRefObject@core@UModSys@@U?$TRefObjectFunc@UIRefObject@core@UModSys@@@tl@3@@tl@5@PEBUSUniquePointerInfo@core@5@AEBUSParameters@95@@Z@4HA 0000000180014950 f    CIL library: CIL module
 0001:00013950       ?dtor$0@?0??generate@RGenerator@SDL_core@ui@modules@UModSys@@UEAA_NAEAU?$TRefObject@UIRefObject@core@UModSys@@U?$TRefObjectFunc@UIRefObject@core@UModSys@@@tl@3@@tl@5@PEBUSUniquePointerInfo@core@5@AEBUSParameters@95@@Z@4HA 0000000180014950 f    CIL library: CIL module
 0001:00013950       ?dtor$0@?0??generate@RGenerator@images_std@media@modules@UModSys@@UEAA_NAEAU?$TRefObject@UIRefObject@core@UModSys@@U?$TRefObjectFunc@UIRefObject@core@UModSys@@@tl@3@@tl@5@PEBUSUniquePointerInfo@core@5@AEBUSParameters@95@@Z@4HA 0000000180014950 f    CIL library: CIL module
 0001:00013950       ?dtor$0@?0??generate@RGenerator@frames@ui@modules@UModSys@@UEAA_NAEAU?$TRefObject@UIRefObject@core@UModSys@@U?$TRefObjectFunc@UIRefObject@core@UModSys@@@tl@3@@tl@5@PEBUSUniquePointerInfo@core@5@AEBUSParameters@95@@Z@4HA 0000000180014950 f    CIL library: CIL module
 0001:00013970       ?dtor$0@?0???0RMediaFilter@images_std@media@modules@UModSys@@QEAA@PEAUIModObject@base@4@AEBUSParameters@core@4@@Z@4HA 0000000180014970 f    CIL library: CIL module
 0001:00013970       ?dtor$0@?0???_GRMediaFilter@images_std@media@modules@UModSys@@UEAAPEAXI@Z@4HA 0000000180014970 f    CIL library: CIL module
 0001:00013990       ?dtor$1@?0???_GRMediaFilter@images_std@media@modules@UModSys@@UEAAPEAXI@Z@4HA 0000000180014990 f    CIL library: CIL module
 0001:00013990       ?dtor$1@?0???0RMediaFilter@images_std@media@modules@UModSys@@QEAA@PEAUIModObject@base@4@AEBUSParameters@core@4@@Z@4HA 0000000180014990 f    CIL library: CIL module
 0001:000139b0       ?dtor$0@?0???0RRenderDriver2D@SDL_core@ui@modules@UModSys@@QEAA@PEAURTerminal@1234@AEBUSParameters@core@4@@Z@4HA 00000001800149b0 f    CIL library: CIL module
 0001:000139d0       ?dtor$1@?0???0RRenderDriver2D@SDL_core@ui@modules@UModSys@@QEAA@PEAURTerminal@1234@AEBUSParameters@core@4@@Z@4HA 00000001800149d0 f    CIL library: CIL module
 0001:000139f0       ?dtor$2@?0???0RRenderDriver2D@SDL_core@ui@modules@UModSys@@QEAA@PEAURTerminal@1234@AEBUSParameters@core@4@@Z@4HA 00000001800149f0 f    CIL library: CIL module
 0001:00013a10       ?dtor$3@?0???0RRenderDriver2D@SDL_core@ui@modules@UModSys@@QEAA@PEAURTerminal@1234@AEBUSParameters@core@4@@Z@4HA 0000000180014a10 f    CIL library: CIL module
 0001:00013a30       ?dtor$0@?0???0RTest1_Shell@test1@test@modules@UModSys@@QEAA@PEAUIModObject@base@4@@Z@4HA 0000000180014a30 f    CIL library: CIL module
 0001:00013a30       ?dtor$0@?0???1RTest1_Shell@test1@test@modules@UModSys@@UEAA@XZ@4HA 0000000180014a30 f    CIL library: CIL module
 0001:00013a50       ?dtor$0@?0??create_handler@RTerminal@SDL_core@ui@modules@UModSys@@UEAA_NPEBUSUniquePointerInfo@core@5@AEAU?$TRefObject@UIRefObject@core@UModSys@@U?$TRefObjectFunc@UIRefObject@core@UModSys@@@tl@3@@tl@5@PEBDPEBUSParameters@75@@Z@4HA 0000000180014a50 f    CIL library: CIL module
 0001:00013a70       ?dtor$1@?0??create_handler@RTerminal@SDL_core@ui@modules@UModSys@@UEAA_NPEBUSUniquePointerInfo@core@5@AEAU?$TRefObject@UIRefObject@core@UModSys@@U?$TRefObjectFunc@UIRefObject@core@UModSys@@@tl@3@@tl@5@PEBDPEBUSParameters@75@@Z@4HA 0000000180014a70 f    CIL library: CIL module
 0001:00013a90       ?dtor$3@?0??create_handler@RTerminal@SDL_core@ui@modules@UModSys@@UEAA_NPEBUSUniquePointerInfo@core@5@AEAU?$TRefObject@UIRefObject@core@UModSys@@U?$TRefObjectFunc@UIRefObject@core@UModSys@@@tl@3@@tl@5@PEBDPEBUSParameters@75@@Z@4HA 0000000180014a90 f    CIL library: CIL module
 0001:00013ab0       ?dtor$9@?0??create_handler@RTerminal@SDL_core@ui@modules@UModSys@@UEAA_NPEBUSUniquePointerInfo@core@5@AEAU?$TRefObject@UIRefObject@core@UModSys@@U?$TRefObjectFunc@UIRefObject@core@UModSys@@@tl@3@@tl@5@PEBDPEBUSParameters@75@@Z@4HA 0000000180014ab0 f    CIL library: CIL module
 0001:00013ad0       ?dtor$4@?0??create_handler@RTerminal@SDL_core@ui@modules@UModSys@@UEAA_NPEBUSUniquePointerInfo@core@5@AEAU?$TRefObject@UIRefObject@core@UModSys@@U?$TRefObjectFunc@UIRefObject@core@UModSys@@@tl@3@@tl@5@PEBDPEBUSParameters@75@@Z@4HA 0000000180014ad0 f    CIL library: CIL module
 0001:00013af0       ?dtor$6@?0??create_handler@RTerminal@SDL_core@ui@modules@UModSys@@UEAA_NPEBUSUniquePointerInfo@core@5@AEAU?$TRefObject@UIRefObject@core@UModSys@@U?$TRefObjectFunc@UIRefObject@core@UModSys@@@tl@3@@tl@5@PEBDPEBUSParameters@75@@Z@4HA 0000000180014af0 f    CIL library: CIL module
 0001:00013b10       ?dtor$11@?0??create_handler@RTerminal@SDL_core@ui@modules@UModSys@@UEAA_NPEBUSUniquePointerInfo@core@5@AEAU?$TRefObject@UIRefObject@core@UModSys@@U?$TRefObjectFunc@UIRefObject@core@UModSys@@@tl@3@@tl@5@PEBDPEBUSParameters@75@@Z@4HA 0000000180014b10 f    CIL library: CIL module
 0001:00013b30       ?dtor$7@?0??create_handler@RTerminal@SDL_core@ui@modules@UModSys@@UEAA_NPEBUSUniquePointerInfo@core@5@AEAU?$TRefObject@UIRefObject@core@UModSys@@U?$TRefObjectFunc@UIRefObject@core@UModSys@@@tl@3@@tl@5@PEBDPEBUSParameters@75@@Z@4HA 0000000180014b30 f    CIL library: CIL module
 0001:00013b50       ??__E?s_modreg@RModuleReg@test1@test@modules@UModSys@@2U12345@A@@YAXXZ 0000000180014b50 f    CIL library: CIL module
 0001:00013ba0       ??__E?s_modreg_chain@RModuleReg@test1@test@modules@UModSys@@2USModuleRegChain@base@5@A@@YAXXZ 0000000180014ba0 f    CIL library: CIL module
 0001:00013bd0       ??__E?s_uid@RGenerator@test1@test@modules@UModSys@@2USUniquePointer@core@5@A@@YAXXZ 0000000180014bd0 f    CIL library: CIL module
 0001:00013c10       ??__E?s_id@?$TObjectUniqueID@UIRoot@core@UModSys@@@tl@UModSys@@2USUniquePointer@core@3@A@@YAXXZ 0000000180014c10 f    CIL library: CIL module
 0001:00013c50       ??__E?s_id@?$TObjectUniqueID@UIRefObject@core@UModSys@@@tl@UModSys@@2USUniquePointer@core@3@A@@YAXXZ 0000000180014c50 f    CIL library: CIL module
 0001:00013c90       ??__E?s_id@?$TObjectUniqueID@UIParameters@core@UModSys@@@tl@UModSys@@2USUniquePointer@core@3@A@@YAXXZ 0000000180014c90 f    CIL library: CIL module
 0001:00013cd0       ??__E?s_id@?$TObjectUniqueID@UIModule@base@UModSys@@@tl@UModSys@@2USUniquePointer@core@3@A@@YAXXZ 0000000180014cd0 f    CIL library: CIL module
 0001:00013d10       ??__E?s_id@?$TObjectUniqueID@UIModuleLibrary@base@UModSys@@@tl@UModSys@@2USUniquePointer@core@3@A@@YAXXZ 0000000180014d10 f    CIL library: CIL module
 0001:00013d50       ??__E?s_id@?$TObjectUniqueID@UIModObject@base@UModSys@@@tl@UModSys@@2USUniquePointer@core@3@A@@YAXXZ 0000000180014d50 f    CIL library: CIL module
 0001:00013d90       ??__E?s_id@?$TObjectUniqueID@UIGenerator@base@UModSys@@@tl@UModSys@@2USUniquePointer@core@3@A@@YAXXZ 0000000180014d90 f    CIL library: CIL module
 0001:00013dd0       ??__E?s_id@?$TObjectUniqueID@UIShell@base@UModSys@@@tl@UModSys@@2USUniquePointer@core@3@A@@YAXXZ 0000000180014dd0 f    CIL library: CIL module
 0001:00013e10       ??__E?s_id@?$TObjectUniqueID@UIConsole@base@UModSys@@@tl@UModSys@@2USUniquePointer@core@3@A@@YAXXZ 0000000180014e10 f    CIL library: CIL module
 0001:00013e50       ??__E?s_id@?$TObjectUniqueID@UISystem@base@UModSys@@@tl@UModSys@@2USUniquePointer@core@3@A@@YAXXZ 0000000180014e50 f    CIL library: CIL module
 0001:00013e90       ??__E?s_id@?$TObjectUniqueID@UIStreamReader@libmedia@UModSys@@@tl@UModSys@@2USUniquePointer@core@3@A@@YAXXZ 0000000180014e90 f    CIL library: CIL module
 0001:00013ed0       ??__E?s_id@?$TObjectUniqueID@UIStreamWriter@libmedia@UModSys@@@tl@UModSys@@2USUniquePointer@core@3@A@@YAXXZ 0000000180014ed0 f    CIL library: CIL module
 0001:00013f10       ??__E?s_id@?$TObjectUniqueID@UIBinArchive@libmedia@UModSys@@@tl@UModSys@@2USUniquePointer@core@3@A@@YAXXZ 0000000180014f10 f    CIL library: CIL module
 0001:00013f50       ??__E?s_id@?$TObjectUniqueID@UIBinObjFilter@libmedia@UModSys@@@tl@UModSys@@2USUniquePointer@core@3@A@@YAXXZ 0000000180014f50 f    CIL library: CIL module
 0001:00013f90       ??__E?s_id@?$TObjectUniqueID@UILibrary@libmedia@UModSys@@@tl@UModSys@@2USUniquePointer@core@3@A@@YAXXZ 0000000180014f90 f    CIL library: CIL module
 0001:00013fd0       ??__E?s_id@?$TObjectUniqueID@UILibraryBinTree@libmedia@UModSys@@@tl@UModSys@@2USUniquePointer@core@3@A@@YAXXZ 0000000180014fd0 f    CIL library: CIL module
 0001:00014010       ??__E?s_id@?$TObjectUniqueID@UILibraryBinCache@libmedia@UModSys@@@tl@UModSys@@2USUniquePointer@core@3@A@@YAXXZ 0000000180015010 f    CIL library: CIL module
 0001:00014050       ??__E?s_id@?$TObjectUniqueID@UILibraryObjFilter@libmedia@UModSys@@@tl@UModSys@@2USUniquePointer@core@3@A@@YAXXZ 0000000180015050 f    CIL library: CIL module
 0001:00014090       ??__E?s_id@?$TObjectUniqueID@UILibraryObjCache@libmedia@UModSys@@@tl@UModSys@@2USUniquePointer@core@3@A@@YAXXZ 0000000180015090 f    CIL library: CIL module
 0001:000140d0       ??__E?s_id@?$TObjectUniqueID@UILibraryLayered@libmedia@UModSys@@@tl@UModSys@@2USUniquePointer@core@3@A@@YAXXZ 00000001800150d0 f    CIL library: CIL module
 0001:00014110       ??__E?s_id@?$TObjectUniqueID@UIConsoleExt@base@UModSys@@@tl@UModSys@@2USUniquePointer@core@3@A@@YAXXZ 0000000180015110 f    CIL library: CIL module
 0001:00014150       ??__E?s_id@?$TObjectUniqueID@UIConsoleHelper@base@UModSys@@@tl@UModSys@@2USUniquePointer@core@3@A@@YAXXZ 0000000180015150 f    CIL library: CIL module
 0001:00014190       ??__E?s_id@?$TObjectUniqueID@UIConsoleHelperHistory@base@UModSys@@@tl@UModSys@@2USUniquePointer@core@3@A@@YAXXZ 0000000180015190 f    CIL library: CIL module
 0001:000141d0       ??__E?s_id@?$TObjectUniqueID@UIConsoleHelperInput@base@UModSys@@@tl@UModSys@@2USUniquePointer@core@3@A@@YAXXZ 00000001800151d0 f    CIL library: CIL module
 0001:00014210       ??__E?s_id@?$TObjectUniqueID@UIConsoleHelperOutput@base@UModSys@@@tl@UModSys@@2USUniquePointer@core@3@A@@YAXXZ 0000000180015210 f    CIL library: CIL module
 0001:00014250       ??__E?s_id@?$TObjectUniqueID@UIConsoleHelperOutputFCS@base@UModSys@@@tl@UModSys@@2USUniquePointer@core@3@A@@YAXXZ 0000000180015250 f    CIL library: CIL module
 0001:00014290       ??__E?s_id@?$TObjectUniqueID@UIKeyboardController@libui@UModSys@@@tl@UModSys@@2USUniquePointer@core@3@A@@YAXXZ 0000000180015290 f    CIL library: CIL module
 0001:000142d0       ??__E?s_id@?$TObjectUniqueID@UIMouseController@libui@UModSys@@@tl@UModSys@@2USUniquePointer@core@3@A@@YAXXZ 00000001800152d0 f    CIL library: CIL module
 0001:00014310       ??__E?s_id@?$TObjectUniqueID@UIJoystickController@libui@UModSys@@@tl@UModSys@@2USUniquePointer@core@3@A@@YAXXZ 0000000180015310 f    CIL library: CIL module
 0001:00014350       ??__E?s_id@?$TObjectUniqueID@UITerminal@libui@UModSys@@@tl@UModSys@@2USUniquePointer@core@3@A@@YAXXZ 0000000180015350 f    CIL library: CIL module
 0001:00014390       ??__E?s_id@?$TObjectUniqueID@UIConsoleHelperInput_UIKey@libui@UModSys@@@tl@UModSys@@2USUniquePointer@core@3@A@@YAXXZ 0000000180015390 f    CIL library: CIL module
 0001:000143d0       ??__E?s_id@?$TObjectUniqueID@UICollector@libui@UModSys@@@tl@UModSys@@2USUniquePointer@core@3@A@@YAXXZ 00000001800153d0 f    CIL library: CIL module
 0001:00014410       ??__E?s_id@?$TObjectUniqueID@UIAsyncController@libui@UModSys@@@tl@UModSys@@2USUniquePointer@core@3@A@@YAXXZ 0000000180015410 f    CIL library: CIL module
 0001:00014450       ??__E?s_id@?$TObjectUniqueID@UIAsyncCollector@libui@UModSys@@@tl@UModSys@@2USUniquePointer@core@3@A@@YAXXZ 0000000180015450 f    CIL library: CIL module
 0001:00014490       ??__E?s_id@?$TObjectUniqueID@UIFrame@libui@UModSys@@@tl@UModSys@@2USUniquePointer@core@3@A@@YAXXZ 0000000180015490 f    CIL library: CIL module
 0001:000144d0       ??__E?s_id@?$TObjectUniqueID@UIDialog@libui@UModSys@@@tl@UModSys@@2USUniquePointer@core@3@A@@YAXXZ 00000001800154d0 f    CIL library: CIL module
 0001:00014510       ??__E?s_id@?$TObjectUniqueID@UIImage@lib2d@UModSys@@@tl@UModSys@@2USUniquePointer@core@3@A@@YAXXZ 0000000180015510 f    CIL library: CIL module
 0001:00014550       ??__E?s_id@?$TObjectUniqueID@UIMultiImage@lib2d@UModSys@@@tl@UModSys@@2USUniquePointer@core@3@A@@YAXXZ 0000000180015550 f    CIL library: CIL module
 0001:00014590       ??__E?s_id@?$TObjectUniqueID@UIRenderDriver@lib2d@UModSys@@@tl@UModSys@@2USUniquePointer@core@3@A@@YAXXZ 0000000180015590 f    CIL library: CIL module
 0001:000145d0       ??__E?s_id@?$TObjectUniqueID@UILines@test1@test@modules@UModSys@@@tl@UModSys@@2USUniquePointer@core@3@A@@YAXXZ 00000001800155d0 f    CIL library: CIL module
 0001:00014610       ??__E?s_id@?$TObjectUniqueID@URLines@test1@test@modules@UModSys@@@tl@UModSys@@2USUniquePointer@core@3@A@@YAXXZ 0000000180015610 f    CIL library: CIL module
 0001:00014650       ??__E?s_id@?$TObjectUniqueID@URLines_Filter@test1@test@modules@UModSys@@@tl@UModSys@@2USUniquePointer@core@3@A@@YAXXZ 0000000180015650 f    CIL library: CIL module
 0001:00014690       ??__E?s_id@?$TObjectUniqueID@URTest1_Shell@test1@test@modules@UModSys@@@tl@UModSys@@2USUniquePointer@core@3@A@@YAXXZ 0000000180015690 f    CIL library: CIL module
 0001:000146d0       ??__E?s_id@?$TObjectUniqueID@URGenerator@test1@test@modules@UModSys@@@tl@UModSys@@2USUniquePointer@core@3@A@@YAXXZ 00000001800156d0 f    CIL library: CIL module
 0001:00014710       ??__E?s_modreg@RModuleReg@SDL_core@ui@modules@UModSys@@2U12345@A@@YAXXZ 0000000180015710 f    CIL library: CIL module
 0001:00014760       ??__E?s_modreg_chain@RModuleReg@SDL_core@ui@modules@UModSys@@2USModuleRegChain@base@5@A@@YAXXZ 0000000180015760 f    CIL library: CIL module
 0001:00014790       ??__E?s_uid@RGenerator@SDL_core@ui@modules@UModSys@@2USUniquePointer@core@5@A@@YAXXZ 0000000180015790 f    CIL library: CIL module
 0001:000147d0       ??__E?s_id@?$TObjectUniqueID@URMultiImage2D_SDL_ttf@SDL_core@ui@modules@UModSys@@@tl@UModSys@@2USUniquePointer@core@3@A@@YAXXZ 00000001800157d0 f    CIL library: CIL module
 0001:00014810       ??__E?s_id@?$TObjectUniqueID@URRenderDriver2D@SDL_core@ui@modules@UModSys@@@tl@UModSys@@2USUniquePointer@core@3@A@@YAXXZ 0000000180015810 f    CIL library: CIL module
 0001:00014850       ??__E?s_id@?$TObjectUniqueID@URMouseController@SDL_core@ui@modules@UModSys@@@tl@UModSys@@2USUniquePointer@core@3@A@@YAXXZ 0000000180015850 f    CIL library: CIL module
 0001:00014890       ??__E?s_id@?$TObjectUniqueID@URKeyboardController@SDL_core@ui@modules@UModSys@@@tl@UModSys@@2USUniquePointer@core@3@A@@YAXXZ 0000000180015890 f    CIL library: CIL module
 0001:000148d0       ??__E?s_id@?$TObjectUniqueID@URTerminal@SDL_core@ui@modules@UModSys@@@tl@UModSys@@2USUniquePointer@core@3@A@@YAXXZ 00000001800158d0 f    CIL library: CIL module
 0001:00014910       ??__E?s_id@?$TObjectUniqueID@URGenerator@SDL_core@ui@modules@UModSys@@@tl@UModSys@@2USUniquePointer@core@3@A@@YAXXZ 0000000180015910 f    CIL library: CIL module
 0001:00014950       ??__E?s_modreg@RModuleReg@frames@ui@modules@UModSys@@2U12345@A@@YAXXZ 0000000180015950 f    CIL library: CIL module
 0001:000149a0       ??__E?s_modreg_chain@RModuleReg@frames@ui@modules@UModSys@@2USModuleRegChain@base@5@A@@YAXXZ 00000001800159a0 f    CIL library: CIL module
 0001:000149d0       ??__E?s_uid@RGenerator@frames@ui@modules@UModSys@@2USUniquePointer@core@5@A@@YAXXZ 00000001800159d0 f    CIL library: CIL module
 0001:00014a10       ??__E?s_id@?$TObjectUniqueID@URFrame_Common@frames@ui@modules@UModSys@@@tl@UModSys@@2USUniquePointer@core@3@A@@YAXXZ 0000000180015a10 f    CIL library: CIL module
 0001:00014a50       ??__E?s_id@?$TObjectUniqueID@URDialog@frames@ui@modules@UModSys@@@tl@UModSys@@2USUniquePointer@core@3@A@@YAXXZ 0000000180015a50 f    CIL library: CIL module
 0001:00014a90       ??__E?s_id@?$TObjectUniqueID@URFrame_Frame@frames@ui@modules@UModSys@@@tl@UModSys@@2USUniquePointer@core@3@A@@YAXXZ 0000000180015a90 f    CIL library: CIL module
 0001:00014ad0       ??__E?s_id@?$TObjectUniqueID@URFrame_Image@frames@ui@modules@UModSys@@@tl@UModSys@@2USUniquePointer@core@3@A@@YAXXZ 0000000180015ad0 f    CIL library: CIL module
 0001:00014b10       ??__E?s_id@?$TObjectUniqueID@URFrame_Text@frames@ui@modules@UModSys@@@tl@UModSys@@2USUniquePointer@core@3@A@@YAXXZ 0000000180015b10 f    CIL library: CIL module
 0001:00014b50       ??__E?s_id@?$TObjectUniqueID@URFrame_Button@frames@ui@modules@UModSys@@@tl@UModSys@@2USUniquePointer@core@3@A@@YAXXZ 0000000180015b50 f    CIL library: CIL module
 0001:00014b90       ??__E?s_id@?$TObjectUniqueID@URFrame_Edit@frames@ui@modules@UModSys@@@tl@UModSys@@2USUniquePointer@core@3@A@@YAXXZ 0000000180015b90 f    CIL library: CIL module
 0001:00014bd0       ??__E?s_id@?$TObjectUniqueID@URFrame_List@frames@ui@modules@UModSys@@@tl@UModSys@@2USUniquePointer@core@3@A@@YAXXZ 0000000180015bd0 f    CIL library: CIL module
 0001:00014c10       ??__E?s_id@?$TObjectUniqueID@URCollector@frames@ui@modules@UModSys@@@tl@UModSys@@2USUniquePointer@core@3@A@@YAXXZ 0000000180015c10 f    CIL library: CIL module
 0001:00014c50       ??__E?s_id@?$TObjectUniqueID@URGenerator@frames@ui@modules@UModSys@@@tl@UModSys@@2USUniquePointer@core@3@A@@YAXXZ 0000000180015c50 f    CIL library: CIL module
 0001:00014c90       ??__E?s_modreg@RModuleReg@images_std@media@modules@UModSys@@2U12345@A@@YAXXZ 0000000180015c90 f    CIL library: CIL module
 0001:00014ce0       ??__E?s_modreg_chain@RModuleReg@images_std@media@modules@UModSys@@2USModuleRegChain@base@5@A@@YAXXZ 0000000180015ce0 f    CIL library: CIL module
 0001:00014d10       ??__E?s_uid@RGenerator@images_std@media@modules@UModSys@@2USUniquePointer@core@5@A@@YAXXZ 0000000180015d10 f    CIL library: CIL module
 0001:00014d50       ??__E?s_id@?$TObjectUniqueID@URMediaFilter@images_std@media@modules@UModSys@@@tl@UModSys@@2USUniquePointer@core@3@A@@YAXXZ 0000000180015d50 f    CIL library: CIL module
 0001:00014d90       ??__E?s_id@?$TObjectUniqueID@URGenerator@images_std@media@modules@UModSys@@@tl@UModSys@@2USUniquePointer@core@3@A@@YAXXZ 0000000180015d90 f    CIL library: CIL module
 0001:00014dd0       ??__EM@UModSys@@YAXXZ      0000000180015dd0 f    CIL library: CIL module
 0001:00014df0       ??__E?root@SModuleRegChain@base@UModSys@@2U123@A@@YAXXZ 0000000180015df0 f    CIL library: CIL module
 0001:00014e20       ??__E?s_library@RModuleLibraryReg_Chain@base@UModSys@@2U123@A@@YAXXZ 0000000180015e20 f    CIL library: CIL module
 0001:00014e40       ??__E?root@SUniquePointer@core@UModSys@@2U123@A@@YAXXZ 0000000180015e40 f    CIL library: CIL module
 0001:00014e70       ??__F?s_modreg@RModuleReg@test1@test@modules@UModSys@@2U12345@A@@YAXXZ 0000000180015e70 f    CIL library: CIL module
 0001:00014e90       ??__F?s_modreg_chain@RModuleReg@test1@test@modules@UModSys@@2USModuleRegChain@base@5@A@@YAXXZ 0000000180015e90 f    CIL library: CIL module
 0001:00014ea0       ??__F?s_uid@RGenerator@test1@test@modules@UModSys@@2USUniquePointer@core@5@A@@YAXXZ 0000000180015ea0 f    CIL library: CIL module
 0001:00014eb0       ??__Fh@?1??s_holder@RGenerator@test1@test@modules@UModSys@@SAAEAU?$TTypeStaticHolder@URGenerator@test1@test@modules@UModSys@@@tl@5@XZ@YAXXZ 0000000180015eb0 f    CIL library: CIL module
 0001:00014ee0       ??__F?s_id@?$TObjectUniqueID@URGenerator@test1@test@modules@UModSys@@@tl@UModSys@@2USUniquePointer@core@3@A@@YAXXZ 0000000180015ee0 f    CIL library: CIL module
 0001:00014ef0       ??__F?s_id@?$TObjectUniqueID@URTest1_Shell@test1@test@modules@UModSys@@@tl@UModSys@@2USUniquePointer@core@3@A@@YAXXZ 0000000180015ef0 f    CIL library: CIL module
 0001:00014f00       ??__F?s_id@?$TObjectUniqueID@URLines_Filter@test1@test@modules@UModSys@@@tl@UModSys@@2USUniquePointer@core@3@A@@YAXXZ 0000000180015f00 f    CIL library: CIL module
 0001:00014f10       ??__F?s_id@?$TObjectUniqueID@URLines@test1@test@modules@UModSys@@@tl@UModSys@@2USUniquePointer@core@3@A@@YAXXZ 0000000180015f10 f    CIL library: CIL module
 0001:00014f20       ??__F?s_id@?$TObjectUniqueID@UILines@test1@test@modules@UModSys@@@tl@UModSys@@2USUniquePointer@core@3@A@@YAXXZ 0000000180015f20 f    CIL library: CIL module
 0001:00014f30       ??__F?s_id@?$TObjectUniqueID@UIRenderDriver@lib2d@UModSys@@@tl@UModSys@@2USUniquePointer@core@3@A@@YAXXZ 0000000180015f30 f    CIL library: CIL module
 0001:00014f40       ??__F?s_id@?$TObjectUniqueID@UIMultiImage@lib2d@UModSys@@@tl@UModSys@@2USUniquePointer@core@3@A@@YAXXZ 0000000180015f40 f    CIL library: CIL module
 0001:00014f50       ??__F?s_id@?$TObjectUniqueID@UIImage@lib2d@UModSys@@@tl@UModSys@@2USUniquePointer@core@3@A@@YAXXZ 0000000180015f50 f    CIL library: CIL module
 0001:00014f60       ??__F?s_id@?$TObjectUniqueID@UIDialog@libui@UModSys@@@tl@UModSys@@2USUniquePointer@core@3@A@@YAXXZ 0000000180015f60 f    CIL library: CIL module
 0001:00014f70       ??__F?s_id@?$TObjectUniqueID@UIFrame@libui@UModSys@@@tl@UModSys@@2USUniquePointer@core@3@A@@YAXXZ 0000000180015f70 f    CIL library: CIL module
 0001:00014f80       ??__F?s_id@?$TObjectUniqueID@UIAsyncCollector@libui@UModSys@@@tl@UModSys@@2USUniquePointer@core@3@A@@YAXXZ 0000000180015f80 f    CIL library: CIL module
 0001:00014f90       ??__F?s_id@?$TObjectUniqueID@UIAsyncController@libui@UModSys@@@tl@UModSys@@2USUniquePointer@core@3@A@@YAXXZ 0000000180015f90 f    CIL library: CIL module
 0001:00014fa0       ??__F?s_id@?$TObjectUniqueID@UICollector@libui@UModSys@@@tl@UModSys@@2USUniquePointer@core@3@A@@YAXXZ 0000000180015fa0 f    CIL library: CIL module
 0001:00014fb0       ??__F?s_id@?$TObjectUniqueID@UIConsoleHelperInput_UIKey@libui@UModSys@@@tl@UModSys@@2USUniquePointer@core@3@A@@YAXXZ 0000000180015fb0 f    CIL library: CIL module
 0001:00014fc0       ??__F?s_id@?$TObjectUniqueID@UITerminal@libui@UModSys@@@tl@UModSys@@2USUniquePointer@core@3@A@@YAXXZ 0000000180015fc0 f    CIL library: CIL module
 0001:00014fd0       ??__F?s_id@?$TObjectUniqueID@UIJoystickController@libui@UModSys@@@tl@UModSys@@2USUniquePointer@core@3@A@@YAXXZ 0000000180015fd0 f    CIL library: CIL module
 0001:00014fe0       ??__F?s_id@?$TObjectUniqueID@UIMouseController@libui@UModSys@@@tl@UModSys@@2USUniquePointer@core@3@A@@YAXXZ 0000000180015fe0 f    CIL library: CIL module
 0001:00014ff0       ??__F?s_id@?$TObjectUniqueID@UIKeyboardController@libui@UModSys@@@tl@UModSys@@2USUniquePointer@core@3@A@@YAXXZ 0000000180015ff0 f    CIL library: CIL module
 0001:00015000       ??__F?s_id@?$TObjectUniqueID@UIConsoleHelperOutputFCS@base@UModSys@@@tl@UModSys@@2USUniquePointer@core@3@A@@YAXXZ 0000000180016000 f    CIL library: CIL module
 0001:00015010       ??__F?s_id@?$TObjectUniqueID@UIConsoleHelperOutput@base@UModSys@@@tl@UModSys@@2USUniquePointer@core@3@A@@YAXXZ 0000000180016010 f    CIL library: CIL module
 0001:00015020       ??__F?s_id@?$TObjectUniqueID@UIConsoleHelperInput@base@UModSys@@@tl@UModSys@@2USUniquePointer@core@3@A@@YAXXZ 0000000180016020 f    CIL library: CIL module
 0001:00015030       ??__F?s_id@?$TObjectUniqueID@UIConsoleHelperHistory@base@UModSys@@@tl@UModSys@@2USUniquePointer@core@3@A@@YAXXZ 0000000180016030 f    CIL library: CIL module
 0001:00015040       ??__F?s_id@?$TObjectUniqueID@UIConsoleHelper@base@UModSys@@@tl@UModSys@@2USUniquePointer@core@3@A@@YAXXZ 0000000180016040 f    CIL library: CIL module
 0001:00015050       ??__F?s_id@?$TObjectUniqueID@UIConsoleExt@base@UModSys@@@tl@UModSys@@2USUniquePointer@core@3@A@@YAXXZ 0000000180016050 f    CIL library: CIL module
 0001:00015060       ??__F?s_id@?$TObjectUniqueID@UILibraryLayered@libmedia@UModSys@@@tl@UModSys@@2USUniquePointer@core@3@A@@YAXXZ 0000000180016060 f    CIL library: CIL module
 0001:00015070       ??__F?s_id@?$TObjectUniqueID@UILibraryObjCache@libmedia@UModSys@@@tl@UModSys@@2USUniquePointer@core@3@A@@YAXXZ 0000000180016070 f    CIL library: CIL module
 0001:00015080       ??__F?s_id@?$TObjectUniqueID@UILibraryObjFilter@libmedia@UModSys@@@tl@UModSys@@2USUniquePointer@core@3@A@@YAXXZ 0000000180016080 f    CIL library: CIL module
 0001:00015090       ??__F?s_id@?$TObjectUniqueID@UILibraryBinCache@libmedia@UModSys@@@tl@UModSys@@2USUniquePointer@core@3@A@@YAXXZ 0000000180016090 f    CIL library: CIL module
 0001:000150a0       ??__F?s_id@?$TObjectUniqueID@UILibraryBinTree@libmedia@UModSys@@@tl@UModSys@@2USUniquePointer@core@3@A@@YAXXZ 00000001800160a0 f    CIL library: CIL module
 0001:000150b0       ??__F?s_id@?$TObjectUniqueID@UILibrary@libmedia@UModSys@@@tl@UModSys@@2USUniquePointer@core@3@A@@YAXXZ 00000001800160b0 f    CIL library: CIL module
 0001:000150c0       ??__F?s_id@?$TObjectUniqueID@UIBinObjFilter@libmedia@UModSys@@@tl@UModSys@@2USUniquePointer@core@3@A@@YAXXZ 00000001800160c0 f    CIL library: CIL module
 0001:000150d0       ??__F?s_id@?$TObjectUniqueID@UIBinArchive@libmedia@UModSys@@@tl@UModSys@@2USUniquePointer@core@3@A@@YAXXZ 00000001800160d0 f    CIL library: CIL module
 0001:000150e0       ??__F?s_id@?$TObjectUniqueID@UIStreamWriter@libmedia@UModSys@@@tl@UModSys@@2USUniquePointer@core@3@A@@YAXXZ 00000001800160e0 f    CIL library: CIL module
 0001:000150f0       ??__F?s_id@?$TObjectUniqueID@UIStreamReader@libmedia@UModSys@@@tl@UModSys@@2USUniquePointer@core@3@A@@YAXXZ 00000001800160f0 f    CIL library: CIL module
 0001:00015100       ??__F?s_id@?$TObjectUniqueID@UISystem@base@UModSys@@@tl@UModSys@@2USUniquePointer@core@3@A@@YAXXZ 0000000180016100 f    CIL library: CIL module
 0001:00015110       ??__F?s_id@?$TObjectUniqueID@UIConsole@base@UModSys@@@tl@UModSys@@2USUniquePointer@core@3@A@@YAXXZ 0000000180016110 f    CIL library: CIL module
 0001:00015120       ??__F?s_id@?$TObjectUniqueID@UIShell@base@UModSys@@@tl@UModSys@@2USUniquePointer@core@3@A@@YAXXZ 0000000180016120 f    CIL library: CIL module
 0001:00015130       ??__F?s_id@?$TObjectUniqueID@UIGenerator@base@UModSys@@@tl@UModSys@@2USUniquePointer@core@3@A@@YAXXZ 0000000180016130 f    CIL library: CIL module
 0001:00015140       ??__F?s_id@?$TObjectUniqueID@UIModObject@base@UModSys@@@tl@UModSys@@2USUniquePointer@core@3@A@@YAXXZ 0000000180016140 f    CIL library: CIL module
 0001:00015150       ??__F?s_id@?$TObjectUniqueID@UIModuleLibrary@base@UModSys@@@tl@UModSys@@2USUniquePointer@core@3@A@@YAXXZ 0000000180016150 f    CIL library: CIL module
 0001:00015160       ??__F?s_id@?$TObjectUniqueID@UIModule@base@UModSys@@@tl@UModSys@@2USUniquePointer@core@3@A@@YAXXZ 0000000180016160 f    CIL library: CIL module
 0001:00015170       ??__F?s_id@?$TObjectUniqueID@UIParameters@core@UModSys@@@tl@UModSys@@2USUniquePointer@core@3@A@@YAXXZ 0000000180016170 f    CIL library: CIL module
 0001:00015180       ??__F?s_id@?$TObjectUniqueID@UIRefObject@core@UModSys@@@tl@UModSys@@2USUniquePointer@core@3@A@@YAXXZ 0000000180016180 f    CIL library: CIL module
 0001:00015190       ??__F?s_id@?$TObjectUniqueID@UIRoot@core@UModSys@@@tl@UModSys@@2USUniquePointer@core@3@A@@YAXXZ 0000000180016190 f    CIL library: CIL module
 0001:000151a0       ??__F?s_modreg@RModuleReg@SDL_core@ui@modules@UModSys@@2U12345@A@@YAXXZ 00000001800161a0 f    CIL library: CIL module
 0001:000151c0       ??__F?s_modreg_chain@RModuleReg@SDL_core@ui@modules@UModSys@@2USModuleRegChain@base@5@A@@YAXXZ 00000001800161c0 f    CIL library: CIL module
 0001:000151d0       ??__F?s_uid@RGenerator@SDL_core@ui@modules@UModSys@@2USUniquePointer@core@5@A@@YAXXZ 00000001800161d0 f    CIL library: CIL module
 0001:000151e0       ??__Fh@?1??s_holder@RGenerator@SDL_core@ui@modules@UModSys@@SAAEAU?$TTypeStaticHolder@URGenerator@SDL_core@ui@modules@UModSys@@@tl@5@XZ@YAXXZ 00000001800161e0 f    CIL library: CIL module
 0001:00015210       ??__F?s_id@?$TObjectUniqueID@URGenerator@SDL_core@ui@modules@UModSys@@@tl@UModSys@@2USUniquePointer@core@3@A@@YAXXZ 0000000180016210 f    CIL library: CIL module
 0001:00015220       ??__F?s_id@?$TObjectUniqueID@URTerminal@SDL_core@ui@modules@UModSys@@@tl@UModSys@@2USUniquePointer@core@3@A@@YAXXZ 0000000180016220 f    CIL library: CIL module
 0001:00015230       ??__F?s_id@?$TObjectUniqueID@URKeyboardController@SDL_core@ui@modules@UModSys@@@tl@UModSys@@2USUniquePointer@core@3@A@@YAXXZ 0000000180016230 f    CIL library: CIL module
 0001:00015240       ??__F?s_id@?$TObjectUniqueID@URMouseController@SDL_core@ui@modules@UModSys@@@tl@UModSys@@2USUniquePointer@core@3@A@@YAXXZ 0000000180016240 f    CIL library: CIL module
 0001:00015250       ??__F?s_id@?$TObjectUniqueID@URRenderDriver2D@SDL_core@ui@modules@UModSys@@@tl@UModSys@@2USUniquePointer@core@3@A@@YAXXZ 0000000180016250 f    CIL library: CIL module
 0001:00015260       ??__F?s_id@?$TObjectUniqueID@URMultiImage2D_SDL_ttf@SDL_core@ui@modules@UModSys@@@tl@UModSys@@2USUniquePointer@core@3@A@@YAXXZ 0000000180016260 f    CIL library: CIL module
 0001:00015270       ??__F?s_modreg@RModuleReg@frames@ui@modules@UModSys@@2U12345@A@@YAXXZ 0000000180016270 f    CIL library: CIL module
 0001:00015290       ??__F?s_modreg_chain@RModuleReg@frames@ui@modules@UModSys@@2USModuleRegChain@base@5@A@@YAXXZ 0000000180016290 f    CIL library: CIL module
 0001:000152a0       ??__F?s_uid@RGenerator@frames@ui@modules@UModSys@@2USUniquePointer@core@5@A@@YAXXZ 00000001800162a0 f    CIL library: CIL module
 0001:000152b0       ??__Fh@?1??s_holder@RGenerator@frames@ui@modules@UModSys@@SAAEAU?$TTypeStaticHolder@URGenerator@frames@ui@modules@UModSys@@@tl@5@XZ@YAXXZ 00000001800162b0 f    CIL library: CIL module
 0001:000152e0       ??__F?s_id@?$TObjectUniqueID@URGenerator@frames@ui@modules@UModSys@@@tl@UModSys@@2USUniquePointer@core@3@A@@YAXXZ 00000001800162e0 f    CIL library: CIL module
 0001:000152f0       ??__F?s_id@?$TObjectUniqueID@URCollector@frames@ui@modules@UModSys@@@tl@UModSys@@2USUniquePointer@core@3@A@@YAXXZ 00000001800162f0 f    CIL library: CIL module
 0001:00015300       ??__F?s_id@?$TObjectUniqueID@URFrame_List@frames@ui@modules@UModSys@@@tl@UModSys@@2USUniquePointer@core@3@A@@YAXXZ 0000000180016300 f    CIL library: CIL module
 0001:00015310       ??__F?s_id@?$TObjectUniqueID@URFrame_Edit@frames@ui@modules@UModSys@@@tl@UModSys@@2USUniquePointer@core@3@A@@YAXXZ 0000000180016310 f    CIL library: CIL module
 0001:00015320       ??__F?s_id@?$TObjectUniqueID@URFrame_Button@frames@ui@modules@UModSys@@@tl@UModSys@@2USUniquePointer@core@3@A@@YAXXZ 0000000180016320 f    CIL library: CIL module
 0001:00015330       ??__F?s_id@?$TObjectUniqueID@URFrame_Text@frames@ui@modules@UModSys@@@tl@UModSys@@2USUniquePointer@core@3@A@@YAXXZ 0000000180016330 f    CIL library: CIL module
 0001:00015340       ??__F?s_id@?$TObjectUniqueID@URFrame_Image@frames@ui@modules@UModSys@@@tl@UModSys@@2USUniquePointer@core@3@A@@YAXXZ 0000000180016340 f    CIL library: CIL module
 0001:00015350       ??__F?s_id@?$TObjectUniqueID@URFrame_Frame@frames@ui@modules@UModSys@@@tl@UModSys@@2USUniquePointer@core@3@A@@YAXXZ 0000000180016350 f    CIL library: CIL module
 0001:00015360       ??__F?s_id@?$TObjectUniqueID@URDialog@frames@ui@modules@UModSys@@@tl@UModSys@@2USUniquePointer@core@3@A@@YAXXZ 0000000180016360 f    CIL library: CIL module
 0001:00015370       ??__F?s_id@?$TObjectUniqueID@URFrame_Common@frames@ui@modules@UModSys@@@tl@UModSys@@2USUniquePointer@core@3@A@@YAXXZ 0000000180016370 f    CIL library: CIL module
 0001:00015380       ??__F?s_modreg@RModuleReg@images_std@media@modules@UModSys@@2U12345@A@@YAXXZ 0000000180016380 f    CIL library: CIL module
 0001:000153a0       ??__F?s_modreg_chain@RModuleReg@images_std@media@modules@UModSys@@2USModuleRegChain@base@5@A@@YAXXZ 00000001800163a0 f    CIL library: CIL module
 0001:000153b0       ??__F?s_uid@RGenerator@images_std@media@modules@UModSys@@2USUniquePointer@core@5@A@@YAXXZ 00000001800163b0 f    CIL library: CIL module
 0001:000153c0       ??__Fh@?1??s_holder@RGenerator@images_std@media@modules@UModSys@@SAAEAU?$TTypeStaticHolder@URGenerator@images_std@media@modules@UModSys@@@tl@5@XZ@YAXXZ 00000001800163c0 f    CIL library: CIL module
 0001:000153f0       ??__F?s_id@?$TObjectUniqueID@URGenerator@images_std@media@modules@UModSys@@@tl@UModSys@@2USUniquePointer@core@3@A@@YAXXZ 00000001800163f0 f    CIL library: CIL module
 0001:00015400       ??__F?s_id@?$TObjectUniqueID@URMediaFilter@images_std@media@modules@UModSys@@@tl@UModSys@@2USUniquePointer@core@3@A@@YAXXZ 0000000180016400 f    CIL library: CIL module
 0001:00015410       ??__FM@UModSys@@YAXXZ      0000000180016410 f    CIL library: CIL module
 0001:00015420       ??__F?root@SModuleRegChain@base@UModSys@@2U123@A@@YAXXZ 0000000180016420 f    CIL library: CIL module
 0001:00015430       ??__F?s_library@RModuleLibraryReg_Chain@base@UModSys@@2U123@A@@YAXXZ 0000000180016430 f    CIL library: CIL module
 0001:00015440       ??__F?root@SUniquePointer@core@UModSys@@2U123@A@@YAXXZ 0000000180016440 f    CIL library: CIL module

 Exports

  ordinal    name

        1    UModSys_Plugin_Entry2
