 plugin_test1

 Timestamp is 52a71f19 (Tue Dec 10 17:03:05 2013)

 Preferred load address is 0000000180000000

 Start         Length     Name                   Class
 0001:00000000 00018790H .text                   CODE
 0001:00018790 0000005eH .text$00                CODE
 0001:000187f0 00001768H .text$x                 CODE
 0001:00019f60 00001652H .text$yc                CODE
 0001:0001b5c0 0000072cH .text$yd                CODE
 0002:00000000 00000350H .idata$5                DATA
 0002:00000350 00000008H .CRT$XCA                DATA
 0002:00000358 00000f98H .CRT$XCU                DATA
 0002:000012f0 00000008H .CRT$XCZ                DATA
 0002:000012f8 00000008H .CRT$XIA                DATA
 0002:00001300 00000008H .CRT$XIAA               DATA
 0002:00001308 00000008H .CRT$XIZ                DATA
 0002:00001310 000043b8H .rdata                  DATA
 0002:000056d0 000025c4H .rdata$r                DATA
 0002:00007c98 00000008H .rtc$IAA                DATA
 0002:00007ca0 00000008H .rtc$IZZ                DATA
 0002:00007ca8 00000008H .rtc$TAA                DATA
 0002:00007cb0 00000008H .rtc$TZZ                DATA
 0002:00007cb8 000035c0H .xdata                  DATA
 0002:0000b278 00000064H .idata$2                DATA
 0002:0000b2dc 00000014H .idata$3                DATA
 0002:0000b2f0 00000350H .idata$4                DATA
 0002:0000b640 00000798H .idata$6                DATA
 0002:0000bde0 00000059H .edata                  DATA
 0003:00000000 00001100H .data                   DATA
 0003:00001100 00001ac8H .bss                    DATA
 0004:00000000 00002574H .pdata                  DATA

  Address         Publics by Value              Rva+Base               Lib:Object

 0000:00000000       ___safe_se_handler_count   0000000000000000     <absolute>
 0000:00000000       ___safe_se_handler_table   0000000000000000     <absolute>
 0000:00000000       __ImageBase                0000000180000000     <linker-defined>
 0001:00000000       ??3IRoot@core@UModSys@@SAXPEAXAEBUSIMemAlloc@12@@Z 0000000180001000 f i plugin_test1.obj
 0001:00000010       ??1?$TParametersA@$0BAA@@core@UModSys@@QEAA@XZ 0000000180001010 f i umodsys_lib_libui:umodsys.mod.ui.SDL_core.obj
 0001:00000010       ??1SParameters@core@UModSys@@QEAA@XZ 0000000180001010 f i plugin_test1.obj
 0001:00000010       ??1?$TParametersA@$0EAA@@core@UModSys@@QEAA@XZ 0000000180001010 f i plugin_test1.obj
 0001:00000030       ?bin_reader@ILibrary@libmedia@UModSys@@QEAA?AU?$TRefObject@UIStreamReader@libmedia@UModSys@@U?$TRefObjectFunc@UIStreamReader@libmedia@UModSys@@@tl@3@@tl@3@AEBU?$TString@U?$TSCoreConst@D@su@tl@UModSys@@U?$TComparerBinaryHash@D@234@@53@AEBU?$TFlags4State@USMediaFlagUid@libmedia@UModSys@@I@53@@Z 0000000180001030 f i plugin_test1.obj
 0001:00000070       ?bin_writer@ILibrary@libmedia@UModSys@@QEAA?AU?$TRefObject@UIStreamWriter@libmedia@UModSys@@U?$TRefObjectFunc@UIStreamWriter@libmedia@UModSys@@@tl@3@@tl@3@AEBU?$TString@U?$TSCoreConst@D@su@tl@UModSys@@U?$TComparerBinaryHash@D@234@@53@AEBU?$TFlags4State@USMediaFlagUid@libmedia@UModSys@@I@53@@Z 0000000180001070 f i plugin_test1.obj
 0001:000000b0       ?mount_add@ILibraryBinTree@libmedia@UModSys@@QEAA_NAEBU?$TString@U?$TSCoreConst@D@su@tl@UModSys@@U?$TComparerBinaryHash@D@234@@tl@3@PEAUIBinArchive@23@H@Z 00000001800010b0 f i plugin_test1.obj
 0001:00000150       ?mount_add@ILibraryBinTree@libmedia@UModSys@@QEAA_NAEBU?$TString@U?$TSCoreConst@D@su@tl@UModSys@@U?$TComparerBinaryHash@D@234@@tl@3@HPEAUIBinArchive@23@H@Z 0000000180001150 f i plugin_test1.obj
 0001:000001f0       ??1SLayer@ILibraryLayered@libmedia@UModSys@@QEAA@XZ 00000001800011f0 f i plugin_test1.obj
 0001:000001f0       ??1SPoint@ILibraryBinTree@libmedia@UModSys@@QEAA@XZ 00000001800011f0 f i plugin_test1.obj
 0001:00000220       ?layer_push@ILibraryLayered@libmedia@UModSys@@QEAA_NPEAUILibrary@23@HAEBU?$TString@U?$TSCoreConst@D@su@tl@UModSys@@U?$TComparerBinaryHash@D@234@@tl@3@@Z 0000000180001220 f i plugin_test1.obj
 0001:000002c0       ??_GIRoot@core@UModSys@@UEAAPEAXI@Z 00000001800012c0 f i plugin_test1.obj
 0001:000002c0       ??_EIRoot@core@UModSys@@UEAAPEAXI@Z 00000001800012c0 f i  CIL library: CIL module
 0001:000002f0       ?root_get_interface_info@RTest1_Shell@test1@test@modules@UModSys@@UEBAAEBUSUniquePointerInfo@core@5@XZ 00000001800012f0 f i plugin_test1.obj
 0001:00000300       ?root_get_interface_type@RTest1_Shell@test1@test@modules@UModSys@@UEBAPEBUSUniquePointerInfo@core@5@XZ 0000000180001300 f i plugin_test1.obj
 0001:00000310       ?root_get_other_interface@RTest1_Shell@test1@test@modules@UModSys@@UEAAPEAUIRoot@core@5@PEBUSUniquePointerInfo@75@@Z 0000000180001310 f i plugin_test1.obj
 0001:00000310       ?root_get_other_interface@RTest1_Shell@test1@test@modules@UModSys@@UEBAPEBUIRoot@core@5@PEBUSUniquePointerInfo@75@@Z 0000000180001310 f i plugin_test1.obj
 0001:00000340       ?root_is_interface_supported@RTest1_Shell@test1@test@modules@UModSys@@UEBA_NPEBUSUniquePointerInfo@core@5@@Z 0000000180001340 f i plugin_test1.obj
 0001:00000370       ?ref_add@RTest1_Shell@test1@test@modules@UModSys@@UEBAXXZ 0000000180001370 f i plugin_test1.obj
 0001:00000380       ?ref_remove@RTest1_Shell@test1@test@modules@UModSys@@UEBAXXZ 0000000180001380 f i plugin_test1.obj
 0001:000003a0       ?ref_links@RTest1_Shell@test1@test@modules@UModSys@@UEBAHXZ 00000001800013a0 f i plugin_test1.obj
 0001:000003b0       ?ref_weak@RTest1_Shell@test1@test@modules@UModSys@@UEBA_NAEAUWeakPointer@IRefObject@core@5@@Z 00000001800013b0 f i plugin_test1.obj
 0001:000003d0       ?suicide@RTest1_Shell@test1@test@modules@UModSys@@UEAAXXZ 00000001800013d0 f i plugin_test1.obj
 0001:00000420       ??0RTest1_Shell@test1@test@modules@UModSys@@QEAA@PEAUIModObject@base@4@@Z 0000000180001420 f i plugin_test1.obj
 0001:00000560       ??1RTest1_Shell@test1@test@modules@UModSys@@UEAA@XZ 0000000180001560 f i plugin_test1.obj
 0001:00000610       ?connect@RTest1_Shell@test1@test@modules@UModSys@@UEAA_NXZ 0000000180001610 f i plugin_test1.obj
 0001:00000640       ?disconnect@RTest1_Shell@test1@test@modules@UModSys@@UEAA_NXZ 0000000180001640 f i plugin_test1.obj
 0001:00000670       ?process_tick@RTest1_Shell@test1@test@modules@UModSys@@UEAA_NAEBUSTimeMsec@core@5@@Z 0000000180001670 f i plugin_test1.obj
 0001:000006b0       ?process_command@RTest1_Shell@test1@test@modules@UModSys@@UEAA_NHQEBU?$TString@U?$TSCoreConst@D@su@tl@UModSys@@U?$TComparerBinaryHash@D@234@@tl@5@@Z 00000001800016b0 f i plugin_test1.obj
 0001:000006e0       ??_ERTest1_Shell@test1@test@modules@UModSys@@UEAAPEAXI@Z 00000001800016e0 f i  CIL library: CIL module
 0001:000006e0       ??_GRTest1_Shell@test1@test@modules@UModSys@@UEAAPEAXI@Z 00000001800016e0 f i plugin_test1.obj
 0001:00000710       ??1IMouseController@libui@UModSys@@UEAA@XZ 0000000180001710 f i umodsys_lib_libui:umodsys.mod.ui.SDL_core.obj
 0001:00000710       ??1IFrame@libui@UModSys@@UEAA@XZ 0000000180001710 f i umodsys_lib_libui:umodsys.mod.ui.frames.obj
 0001:00000710       ??1ISerializeReader@libmedia@UModSys@@UEAA@XZ 0000000180001710 f i umodsys_lib_libmedia:umodsys.mod.media.serialize_json.obj
 0001:00000710       ??1IImage@lib2d@UModSys@@UEAA@XZ 0000000180001710 f i umodsys_lib_lib2d:umodsys.mod.2d.stdlib.obj
 0001:00000710       ??1IRenderDriver@lib2d@UModSys@@UEAA@XZ 0000000180001710 f i umodsys_lib_libui:umodsys.mod.ui.SDL_core.obj
 0001:00000710       ??1IMultiImage@lib2d@UModSys@@UEAA@XZ 0000000180001710 f i umodsys_lib_libui:umodsys.mod.ui.SDL_core.obj
 0001:00000710       ??1ISerializeWriter@libmedia@UModSys@@UEAA@XZ 0000000180001710 f i umodsys_lib_libmedia:umodsys.mod.media.serialize_json.obj
 0001:00000710       ??1ITerminal@libui@UModSys@@UEAA@XZ 0000000180001710 f i umodsys_lib_libui:umodsys.mod.ui.SDL_core.obj
 0001:00000710       ??1ICollector@libui@UModSys@@UEAA@XZ 0000000180001710 f i umodsys_lib_libui:umodsys.mod.ui.frames.obj
 0001:00000710       ??1IShell@base@UModSys@@UEAA@XZ 0000000180001710 f i plugin_test1.obj
 0001:00000710       ??1IDialog@libui@UModSys@@UEAA@XZ 0000000180001710 f i umodsys_lib_libui:umodsys.mod.ui.frames.obj
 0001:00000710       ??1IKeyboardController@libui@UModSys@@UEAA@XZ 0000000180001710 f i umodsys_lib_libui:umodsys.mod.ui.SDL_core.obj
 0001:00000710       ??1IBinObjFilter@libmedia@UModSys@@UEAA@XZ 0000000180001710 f i plugin_test1.obj
 0001:00000720       ?get_generated_names@RGenerator@test1@test@modules@UModSys@@UEBAHAEAUSUniquePtrList@core@5@@Z 0000000180001720 f i plugin_test1.obj
 0001:00000740       ?get_generated_types@RGenerator@test1@test@modules@UModSys@@UEBAHAEAUSUniquePtrList@core@5@PEBUSUniquePointerInfo@75@@Z 0000000180001740 f i plugin_test1.obj
 0001:000007a0       ?generate@RGenerator@test1@test@modules@UModSys@@UEAA_NAEAU?$TRefObject@UIRefObject@core@UModSys@@U?$TRefObjectFunc@UIRefObject@core@UModSys@@@tl@3@@tl@5@PEBUSUniquePointerInfo@core@5@AEBUSParameters@95@@Z 00000001800017a0 f i plugin_test1.obj
 0001:00000840       ?root_get_interface_info@RGenerator@test1@test@modules@UModSys@@UEBAAEBUSUniquePointerInfo@core@5@XZ 0000000180001840 f i plugin_test1.obj
 0001:00000850       ?root_get_interface_type@RGenerator@test1@test@modules@UModSys@@UEBAPEBUSUniquePointerInfo@core@5@XZ 0000000180001850 f i plugin_test1.obj
 0001:00000860       ?root_get_other_interface@RGenerator@test1@test@modules@UModSys@@UEBAPEBUIRoot@core@5@PEBUSUniquePointerInfo@75@@Z 0000000180001860 f i plugin_test1.obj
 0001:00000860       ?root_get_other_interface@RGenerator@test1@test@modules@UModSys@@UEAAPEAUIRoot@core@5@PEBUSUniquePointerInfo@75@@Z 0000000180001860 f i plugin_test1.obj
 0001:000008a0       ?root_is_interface_supported@RGenerator@test1@test@modules@UModSys@@UEBA_NPEBUSUniquePointerInfo@core@5@@Z 00000001800018a0 f i plugin_test1.obj
 0001:000008e0       ?get_uid@RGenerator@test1@test@modules@UModSys@@UEBAPEBUSUniquePointerInfo@core@5@XZ 00000001800018e0 f i plugin_test1.obj
 0001:000008f0       ?do_open@RModuleReg@test1@test@modules@UModSys@@UEAA_NXZ 00000001800018f0 f i plugin_test1.obj
 0001:00000920       ?do_close@RModuleReg@test1@test@modules@UModSys@@UEAA_NXZ 0000000180001920 f i plugin_test1.obj
 0001:00000950       ??_ERModuleReg@test1@test@modules@UModSys@@UEAAPEAXI@Z 0000000180001950 f i  CIL library: CIL module
 0001:00000950       ??_GRModuleReg@test1@test@modules@UModSys@@UEAAPEAXI@Z 0000000180001950 f i plugin_test1.obj
 0001:00000980       ??1?$TRefObject@UIMouseController@libui@UModSys@@U?$TRefObjectFunc@UIMouseController@libui@UModSys@@@tl@3@@tl@UModSys@@QEAA@XZ 0000000180001980 f i plugin_test1.obj
 0001:00000980       ??1?$TRefObject@UIStreamWriter@libmedia@UModSys@@U?$TRefObjectFunc@UIStreamWriter@libmedia@UModSys@@@tl@3@@tl@UModSys@@QEAA@XZ 0000000180001980 f i plugin_test1.obj
 0001:00000980       ??1?$TRefObject@UITerminal@libui@UModSys@@U?$TRefObjectFunc@UITerminal@libui@UModSys@@@tl@3@@tl@UModSys@@QEAA@XZ 0000000180001980 f i plugin_test1.obj
 0001:00000980       ??1?$TRefObject@UIBinObjFilter@libmedia@UModSys@@U?$TRefObjectFunc@UIBinObjFilter@libmedia@UModSys@@@tl@3@@tl@UModSys@@QEAA@XZ 0000000180001980 f i plugin_test1.obj
 0001:00000980       ??1?$TRefObject@URRenderDriver2D@SDL_core@ui@modules@UModSys@@U?$TRefObjectFunc@URRenderDriver2D@SDL_core@ui@modules@UModSys@@@tl@5@@tl@UModSys@@QEAA@XZ 0000000180001980 f i umodsys_lib_libui:umodsys.mod.ui.SDL_core.obj
 0001:00000980       ??1?$TRefObject@UISerializeReader@libmedia@UModSys@@U?$TRefObjectFunc@UISerializeReader@libmedia@UModSys@@@tl@3@@tl@UModSys@@QEAA@XZ 0000000180001980 f i plugin_test1.obj
 0001:00000980       ??1?$TRefObject@URSerializeReader@serialize_json@media@modules@UModSys@@U?$TRefObjectFunc@URSerializeReader@serialize_json@media@modules@UModSys@@@tl@5@@tl@UModSys@@QEAA@XZ 0000000180001980 f i umodsys_lib_libmedia:umodsys.mod.media.serialize_json.obj
 0001:00000980       ??1?$TRefObject@URMouseController@SDL_core@ui@modules@UModSys@@U?$TRefObjectFunc@URMouseController@SDL_core@ui@modules@UModSys@@@tl@5@@tl@UModSys@@QEAA@XZ 0000000180001980 f i umodsys_lib_libui:umodsys.mod.ui.SDL_core.obj
 0001:00000980       ??1?$TRefObject@UIRefObject@core@UModSys@@U?$TRefObjectFunc@UIRefObject@core@UModSys@@@tl@3@@tl@UModSys@@QEAA@XZ 0000000180001980 f i plugin_test1.obj
 0001:00000980       ??1?$TRefObject@URSerializeWriter@serialize_json@media@modules@UModSys@@U?$TRefObjectFunc@URSerializeWriter@serialize_json@media@modules@UModSys@@@tl@5@@tl@UModSys@@QEAA@XZ 0000000180001980 f i umodsys_lib_libmedia:umodsys.mod.media.serialize_json.obj
 0001:00000980       ??1?$TRefObject@URCollector@frames@ui@modules@UModSys@@U?$TRefObjectFunc@URCollector@frames@ui@modules@UModSys@@@tl@5@@tl@UModSys@@QEAA@XZ 0000000180001980 f i umodsys_lib_libui:umodsys.mod.ui.frames.obj
 0001:00000980       ??1?$TRefObject@UIRenderDriver@lib2d@UModSys@@U?$TRefObjectFunc@UIRenderDriver@lib2d@UModSys@@@tl@3@@tl@UModSys@@QEAA@XZ 0000000180001980 f i plugin_test1.obj
 0001:00000980       ??1?$TRefObject@UISerializeWriter@libmedia@UModSys@@U?$TRefObjectFunc@UISerializeWriter@libmedia@UModSys@@@tl@3@@tl@UModSys@@QEAA@XZ 0000000180001980 f i plugin_test1.obj
 0001:00000980       ??1?$TRefObject@UILibraryLayered@libmedia@UModSys@@U?$TRefObjectFunc@UILibraryLayered@libmedia@UModSys@@@tl@3@@tl@UModSys@@QEAA@XZ 0000000180001980 f i plugin_test1.obj
 0001:00000980       ??1?$TRefObject@UIBinArchive@libmedia@UModSys@@U?$TRefObjectFunc@UIBinArchive@libmedia@UModSys@@@tl@3@@tl@UModSys@@QEAA@XZ 0000000180001980 f i plugin_test1.obj
 0001:00000980       ??1?$TRefObject@URMediaFilter@images_std@media@modules@UModSys@@U?$TRefObjectFunc@URMediaFilter@images_std@media@modules@UModSys@@@tl@5@@tl@UModSys@@QEAA@XZ 0000000180001980 f i umodsys_lib_libmedia:umodsys.mod.media.images_std.obj
 0001:00000980       ??1?$TRefObject@UIStreamReader@libmedia@UModSys@@U?$TRefObjectFunc@UIStreamReader@libmedia@UModSys@@@tl@3@@tl@UModSys@@QEAA@XZ 0000000180001980 f i plugin_test1.obj
 0001:00000980       ??1?$TRefObject@UILibrary@libmedia@UModSys@@U?$TRefObjectFunc@UILibrary@libmedia@UModSys@@@tl@3@@tl@UModSys@@QEAA@XZ 0000000180001980 f i plugin_test1.obj
 0001:00000980       ??1?$TRefObject@UILibraryObjCache@libmedia@UModSys@@U?$TRefObjectFunc@UILibraryObjCache@libmedia@UModSys@@@tl@3@@tl@UModSys@@QEAA@XZ 0000000180001980 f i plugin_test1.obj
 0001:00000980       ??1?$TRefObject@UILibraryObjFilter@libmedia@UModSys@@U?$TRefObjectFunc@UILibraryObjFilter@libmedia@UModSys@@@tl@3@@tl@UModSys@@QEAA@XZ 0000000180001980 f i plugin_test1.obj
 0001:00000980       ??1?$TRefObject@UIMultiImage@lib2d@UModSys@@U?$TRefObjectFunc@UIMultiImage@lib2d@UModSys@@@tl@3@@tl@UModSys@@QEAA@XZ 0000000180001980 f i plugin_test1.obj
 0001:00000980       ??1?$TRefObject@UIImage@lib2d@UModSys@@U?$TRefObjectFunc@UIImage@lib2d@UModSys@@@tl@3@@tl@UModSys@@QEAA@XZ 0000000180001980 f i plugin_test1.obj
 0001:00000980       ??1?$TRefObject@URImage_Memory@stdlib@lib2d@modules@UModSys@@U?$TRefObjectFunc@URImage_Memory@stdlib@lib2d@modules@UModSys@@@tl@5@@tl@UModSys@@QEAA@XZ 0000000180001980 f i umodsys_lib_lib2d:umodsys.mod.2d.stdlib.obj
 0001:00000980       ??1?$TRefObject@URTerminal@SDL_core@ui@modules@UModSys@@U?$TRefObjectFunc@URTerminal@SDL_core@ui@modules@UModSys@@@tl@5@@tl@UModSys@@QEAA@XZ 0000000180001980 f i umodsys_lib_libui:umodsys.mod.ui.SDL_core.obj
 0001:00000980       ??1?$TRefObject@URMultiImage2D_SDL_ttf@SDL_core@ui@modules@UModSys@@U?$TRefObjectFunc@URMultiImage2D_SDL_ttf@SDL_core@ui@modules@UModSys@@@tl@5@@tl@UModSys@@QEAA@XZ 0000000180001980 f i umodsys_lib_libui:umodsys.mod.ui.SDL_core.obj
 0001:00000980       ??1?$TRefObject@URDialog@frames@ui@modules@UModSys@@U?$TRefObjectFunc@URDialog@frames@ui@modules@UModSys@@@tl@5@@tl@UModSys@@QEAA@XZ 0000000180001980 f i umodsys_lib_libui:umodsys.mod.ui.frames.obj
 0001:00000980       ??1?$TRefObject@UIKeyboardController@libui@UModSys@@U?$TRefObjectFunc@UIKeyboardController@libui@UModSys@@@tl@3@@tl@UModSys@@QEAA@XZ 0000000180001980 f i plugin_test1.obj
 0001:00000980       ??1?$TRefObject@UIFrame@libui@UModSys@@U?$TRefObjectFunc@UIFrame@libui@UModSys@@@tl@3@@tl@UModSys@@QEAA@XZ 0000000180001980 f i umodsys_lib_libui:umodsys.mod.ui.frames.obj
 0001:00000980       ??1?$TRefObject@URKeyboardController@SDL_core@ui@modules@UModSys@@U?$TRefObjectFunc@URKeyboardController@SDL_core@ui@modules@UModSys@@@tl@5@@tl@UModSys@@QEAA@XZ 0000000180001980 f i umodsys_lib_libui:umodsys.mod.ui.SDL_core.obj
 0001:00000980       ??1?$TRefObject@UILibraryBinCache@libmedia@UModSys@@U?$TRefObjectFunc@UILibraryBinCache@libmedia@UModSys@@@tl@3@@tl@UModSys@@QEAA@XZ 0000000180001980 f i plugin_test1.obj
 0001:00000980       ??1?$TRefObject@URFrame_Common@frames@ui@modules@UModSys@@U?$TRefObjectFunc@URFrame_Common@frames@ui@modules@UModSys@@@tl@5@@tl@UModSys@@QEAA@XZ 0000000180001980 f i umodsys_lib_libui:umodsys.mod.ui.frames.obj
 0001:00000980       ??1?$TRefObject@UILibraryBinTree@libmedia@UModSys@@U?$TRefObjectFunc@UILibraryBinTree@libmedia@UModSys@@@tl@3@@tl@UModSys@@QEAA@XZ 0000000180001980 f i plugin_test1.obj
 0001:000009b0       ?info_new@?$TSCoreShared@USIMemAlloc@core@UModSys@@D@su@tl@UModSys@@QEAA_NPEBD_K@Z 00000001800019b0 f i plugin_test1.obj
 0001:00000a70       ??$generate_type@UIImage@lib2d@UModSys@@@RTest1_Shell@test1@test@modules@UModSys@@QEAA?AU?$TRefObject@UIImage@lib2d@UModSys@@U?$TRefObjectFunc@UIImage@lib2d@UModSys@@@tl@3@@tl@4@AEBU?$TString@U?$TSCoreConst@D@su@tl@UModSys@@U?$TComparerBinaryHash@D@234@@64@AEBUSParameters@core@4@PEBD@Z 0000000180001a70 f i plugin_test1.obj
 0001:00000c60       ??$generate_type@UIBinArchive@libmedia@UModSys@@@RTest1_Shell@test1@test@modules@UModSys@@QEAA?AU?$TRefObject@UIBinArchive@libmedia@UModSys@@U?$TRefObjectFunc@UIBinArchive@libmedia@UModSys@@@tl@3@@tl@4@AEBU?$TString@U?$TSCoreConst@D@su@tl@UModSys@@U?$TComparerBinaryHash@D@234@@64@AEBUSParameters@core@4@PEBD@Z 0000000180001c60 f i plugin_test1.obj
 0001:00000e00       ??$generate_type@UIBinObjFilter@libmedia@UModSys@@@RTest1_Shell@test1@test@modules@UModSys@@QEAA?AU?$TRefObject@UIBinObjFilter@libmedia@UModSys@@U?$TRefObjectFunc@UIBinObjFilter@libmedia@UModSys@@@tl@3@@tl@4@AEBU?$TString@U?$TSCoreConst@D@su@tl@UModSys@@U?$TComparerBinaryHash@D@234@@64@AEBUSParameters@core@4@PEBD@Z 0000000180001e00 f i plugin_test1.obj
 0001:00000fa0       ??$generate_type@UILibraryBinTree@libmedia@UModSys@@@RTest1_Shell@test1@test@modules@UModSys@@QEAA?AU?$TRefObject@UILibraryBinTree@libmedia@UModSys@@U?$TRefObjectFunc@UILibraryBinTree@libmedia@UModSys@@@tl@3@@tl@4@AEBU?$TString@U?$TSCoreConst@D@su@tl@UModSys@@U?$TComparerBinaryHash@D@234@@64@AEBUSParameters@core@4@PEBD@Z 0000000180001fa0 f i plugin_test1.obj
 0001:00001140       ??$generate_type@UILibraryObjFilter@libmedia@UModSys@@@RTest1_Shell@test1@test@modules@UModSys@@QEAA?AU?$TRefObject@UILibraryObjFilter@libmedia@UModSys@@U?$TRefObjectFunc@UILibraryObjFilter@libmedia@UModSys@@@tl@3@@tl@4@AEBU?$TString@U?$TSCoreConst@D@su@tl@UModSys@@U?$TComparerBinaryHash@D@234@@64@AEBUSParameters@core@4@PEBD@Z 0000000180002140 f i plugin_test1.obj
 0001:000012e0       ??$generate_type@UILibraryLayered@libmedia@UModSys@@@RTest1_Shell@test1@test@modules@UModSys@@QEAA?AU?$TRefObject@UILibraryLayered@libmedia@UModSys@@U?$TRefObjectFunc@UILibraryLayered@libmedia@UModSys@@@tl@3@@tl@4@AEBU?$TString@U?$TSCoreConst@D@su@tl@UModSys@@U?$TComparerBinaryHash@D@234@@64@AEBUSParameters@core@4@PEBD@Z 00000001800022e0 f i plugin_test1.obj
 0001:00001480       ??$generate_type@UILibraryObjCache@libmedia@UModSys@@@RTest1_Shell@test1@test@modules@UModSys@@QEAA?AU?$TRefObject@UILibraryObjCache@libmedia@UModSys@@U?$TRefObjectFunc@UILibraryObjCache@libmedia@UModSys@@@tl@3@@tl@4@AEBU?$TString@U?$TSCoreConst@D@su@tl@UModSys@@U?$TComparerBinaryHash@D@234@@64@AEBUSParameters@core@4@PEBD@Z 0000000180002480 f i plugin_test1.obj
 0001:00001620       ??$generate_type@UILibraryBinCache@libmedia@UModSys@@@RTest1_Shell@test1@test@modules@UModSys@@QEAA?AU?$TRefObject@UILibraryBinCache@libmedia@UModSys@@U?$TRefObjectFunc@UILibraryBinCache@libmedia@UModSys@@@tl@3@@tl@4@AEBU?$TString@U?$TSCoreConst@D@su@tl@UModSys@@U?$TComparerBinaryHash@D@234@@64@AEBUSParameters@core@4@PEBD@Z 0000000180002620 f i plugin_test1.obj
 0001:000017c0       ??$generate_type@UISerializeWriter@libmedia@UModSys@@@RTest1_Shell@test1@test@modules@UModSys@@QEAA?AU?$TRefObject@UISerializeWriter@libmedia@UModSys@@U?$TRefObjectFunc@UISerializeWriter@libmedia@UModSys@@@tl@3@@tl@4@AEBU?$TString@U?$TSCoreConst@D@su@tl@UModSys@@U?$TComparerBinaryHash@D@234@@64@AEBUSParameters@core@4@PEBD@Z 00000001800027c0 f i plugin_test1.obj
 0001:00001960       ??$generate_type@UISerializeReader@libmedia@UModSys@@@RTest1_Shell@test1@test@modules@UModSys@@QEAA?AU?$TRefObject@UISerializeReader@libmedia@UModSys@@U?$TRefObjectFunc@UISerializeReader@libmedia@UModSys@@@tl@3@@tl@4@AEBU?$TString@U?$TSCoreConst@D@su@tl@UModSys@@U?$TComparerBinaryHash@D@234@@64@AEBUSParameters@core@4@PEBD@Z 0000000180002960 f i plugin_test1.obj
 0001:00001b00       ??$shash@D@su@tl@UModSys@@YAHPEBD_K@Z 0000000180002b00 f i plugin_test1.obj
 0001:00001b30       ??1?$TRefObject@UIModObject@base@UModSys@@U?$TModObjectFunc@UIModObject@base@UModSys@@@tl@3@@tl@UModSys@@QEAA@XZ 0000000180002b30 f i plugin_test1.obj
 0001:00001b60       ??$t_ref_get_other_interface@UIStreamReader@libmedia@UModSys@@U?$TRefObjectFunc@UIStreamReader@libmedia@UModSys@@@tl@3@@IRefObject@core@UModSys@@QEAA_NAEAU?$TRefObject@UIStreamReader@libmedia@UModSys@@U?$TRefObjectFunc@UIStreamReader@libmedia@UModSys@@@tl@3@@tl@2@@Z 0000000180002b60 f i plugin_test1.obj
 0001:00001bb0       ??$t_ref_get_other_interface@UIStreamWriter@libmedia@UModSys@@U?$TRefObjectFunc@UIStreamWriter@libmedia@UModSys@@@tl@3@@IRefObject@core@UModSys@@QEAA_NAEAU?$TRefObject@UIStreamWriter@libmedia@UModSys@@U?$TRefObjectFunc@UIStreamWriter@libmedia@UModSys@@@tl@3@@tl@2@@Z 0000000180002bb0 f i plugin_test1.obj
 0001:00001c00       ??$t_ref_get_other_interface@UIMultiImage@lib2d@UModSys@@U?$TRefObjectFunc@UIMultiImage@lib2d@UModSys@@@tl@3@@IRefObject@core@UModSys@@QEAA_NAEAU?$TRefObject@UIMultiImage@lib2d@UModSys@@U?$TRefObjectFunc@UIMultiImage@lib2d@UModSys@@@tl@3@@tl@2@@Z 0000000180002c00 f i plugin_test1.obj
 0001:00001c50       ??$t_generate@UIBinArchive@libmedia@UModSys@@@SModuleContext@base@UModSys@@QEAA_NAEAU?$TRefObject@UIBinArchive@libmedia@UModSys@@U?$TRefObjectFunc@UIBinArchive@libmedia@UModSys@@@tl@3@@tl@2@PEBUSUniquePointerInfo@core@2@AEBUSParameters@62@@Z 0000000180002c50 f i plugin_test1.obj
 0001:00001d20       ??$t_generate@UIBinObjFilter@libmedia@UModSys@@@SModuleContext@base@UModSys@@QEAA_NAEAU?$TRefObject@UIBinObjFilter@libmedia@UModSys@@U?$TRefObjectFunc@UIBinObjFilter@libmedia@UModSys@@@tl@3@@tl@2@PEBUSUniquePointerInfo@core@2@AEBUSParameters@62@@Z 0000000180002d20 f i plugin_test1.obj
 0001:00001df0       ??$t_generate@UILibraryBinTree@libmedia@UModSys@@@SModuleContext@base@UModSys@@QEAA_NAEAU?$TRefObject@UILibraryBinTree@libmedia@UModSys@@U?$TRefObjectFunc@UILibraryBinTree@libmedia@UModSys@@@tl@3@@tl@2@PEBUSUniquePointerInfo@core@2@AEBUSParameters@62@@Z 0000000180002df0 f i plugin_test1.obj
 0001:00001ec0       ??$t_generate@UILibraryObjFilter@libmedia@UModSys@@@SModuleContext@base@UModSys@@QEAA_NAEAU?$TRefObject@UILibraryObjFilter@libmedia@UModSys@@U?$TRefObjectFunc@UILibraryObjFilter@libmedia@UModSys@@@tl@3@@tl@2@PEBUSUniquePointerInfo@core@2@AEBUSParameters@62@@Z 0000000180002ec0 f i plugin_test1.obj
 0001:00001f90       ??$t_generate@UILibraryLayered@libmedia@UModSys@@@SModuleContext@base@UModSys@@QEAA_NAEAU?$TRefObject@UILibraryLayered@libmedia@UModSys@@U?$TRefObjectFunc@UILibraryLayered@libmedia@UModSys@@@tl@3@@tl@2@PEBUSUniquePointerInfo@core@2@AEBUSParameters@62@@Z 0000000180002f90 f i plugin_test1.obj
 0001:00002060       ??$t_generate@UILibraryObjCache@libmedia@UModSys@@@SModuleContext@base@UModSys@@QEAA_NAEAU?$TRefObject@UILibraryObjCache@libmedia@UModSys@@U?$TRefObjectFunc@UILibraryObjCache@libmedia@UModSys@@@tl@3@@tl@2@PEBUSUniquePointerInfo@core@2@AEBUSParameters@62@@Z 0000000180003060 f i plugin_test1.obj
 0001:00002130       ??$t_generate@UILibraryBinCache@libmedia@UModSys@@@SModuleContext@base@UModSys@@QEAA_NAEAU?$TRefObject@UILibraryBinCache@libmedia@UModSys@@U?$TRefObjectFunc@UILibraryBinCache@libmedia@UModSys@@@tl@3@@tl@2@PEBUSUniquePointerInfo@core@2@AEBUSParameters@62@@Z 0000000180003130 f i plugin_test1.obj
 0001:00002200       ??$t_generate@UISerializeWriter@libmedia@UModSys@@@SModuleContext@base@UModSys@@QEAA_NAEAU?$TRefObject@UISerializeWriter@libmedia@UModSys@@U?$TRefObjectFunc@UISerializeWriter@libmedia@UModSys@@@tl@3@@tl@2@PEBUSUniquePointerInfo@core@2@AEBUSParameters@62@@Z 0000000180003200 f i plugin_test1.obj
 0001:000022d0       ??$t_generate@UISerializeReader@libmedia@UModSys@@@SModuleContext@base@UModSys@@QEAA_NAEAU?$TRefObject@UISerializeReader@libmedia@UModSys@@U?$TRefObjectFunc@UISerializeReader@libmedia@UModSys@@@tl@3@@tl@2@PEBUSUniquePointerInfo@core@2@AEBUSParameters@62@@Z 00000001800032d0 f i plugin_test1.obj
 0001:000023a0       ??$t_ref_get_other_interface@UIImage@lib2d@UModSys@@U?$TRefObjectFunc@UIImage@lib2d@UModSys@@@tl@3@@IRefObject@core@UModSys@@QEAA_NAEAU?$TRefObject@UIImage@lib2d@UModSys@@U?$TRefObjectFunc@UIImage@lib2d@UModSys@@@tl@3@@tl@2@@Z 00000001800033a0 f i plugin_test1.obj
 0001:000023f0       ?root_get_interface_info@RImage_Memory@stdlib@lib2d@modules@UModSys@@UEBAAEBUSUniquePointerInfo@core@5@XZ 00000001800033f0 f i umodsys_lib_lib2d:umodsys.mod.2d.stdlib.obj
 0001:00002400       ?root_get_interface_type@RImage_Memory@stdlib@lib2d@modules@UModSys@@UEBAPEBUSUniquePointerInfo@core@5@XZ 0000000180003400 f i umodsys_lib_lib2d:umodsys.mod.2d.stdlib.obj
 0001:00002410       ?root_get_other_interface@RImage_Memory@stdlib@lib2d@modules@UModSys@@UEAAPEAUIRoot@core@5@PEBUSUniquePointerInfo@75@@Z 0000000180003410 f i umodsys_lib_lib2d:umodsys.mod.2d.stdlib.obj
 0001:00002410       ?root_get_other_interface@RImage_Memory@stdlib@lib2d@modules@UModSys@@UEBAPEBUIRoot@core@5@PEBUSUniquePointerInfo@75@@Z 0000000180003410 f i umodsys_lib_lib2d:umodsys.mod.2d.stdlib.obj
 0001:00002440       ?root_is_interface_supported@RImage_Memory@stdlib@lib2d@modules@UModSys@@UEBA_NPEBUSUniquePointerInfo@core@5@@Z 0000000180003440 f i umodsys_lib_lib2d:umodsys.mod.2d.stdlib.obj
 0001:00002470       ?set_info@RImage_Memory@stdlib@lib2d@modules@UModSys@@UEAA_NAEBUSImagePatchInfo@35@PEBD@Z 0000000180003470 f i umodsys_lib_lib2d:umodsys.mod.2d.stdlib.obj
 0001:00002630       ?set_data@RImage_Memory@stdlib@lib2d@modules@UModSys@@UEAA_NAEBUSImagePatchInfo@35@AEBUSCMem@core@5@H@Z 0000000180003630 f i umodsys_lib_lib2d:umodsys.mod.2d.stdlib.obj
 0001:00002800       ?get_info@RImage_Memory@stdlib@lib2d@modules@UModSys@@UEBAAEBUSImageInfo@35@XZ 0000000180003800 f i umodsys_lib_lib2d:umodsys.mod.2d.stdlib.obj
 0001:00002810       ?get_data@RImage_Memory@stdlib@lib2d@modules@UModSys@@UEBA_NAEBUSImagePatchInfo@35@AEBUSMem@core@5@H@Z 0000000180003810 f i umodsys_lib_lib2d:umodsys.mod.2d.stdlib.obj
 0001:000029f0       ??0RImage_Memory@stdlib@lib2d@modules@UModSys@@QEAA@PEAUIModObject@base@4@AEBUSParameters@core@4@@Z 00000001800039f0 f i umodsys_lib_lib2d:umodsys.mod.2d.stdlib.obj
 0001:00002ab0       ??1State@RImage_Memory@stdlib@lib2d@modules@UModSys@@QEAA@XZ 0000000180003ab0 f i umodsys_lib_lib2d:umodsys.mod.2d.stdlib.obj
 0001:00002ab0       ??1SMemShared@core@UModSys@@QEAA@XZ 0000000180003ab0 f i plugin_test1.obj
 0001:00002ae0       ??4State@RImage_Memory@stdlib@lib2d@modules@UModSys@@QEAAAEAU012345@AEBU012345@@Z 0000000180003ae0 f i umodsys_lib_lib2d:umodsys.mod.2d.stdlib.obj
 0001:00002bc0       ??_GRImage_Memory@stdlib@lib2d@modules@UModSys@@UEAAPEAXI@Z 0000000180003bc0 f i umodsys_lib_lib2d:umodsys.mod.2d.stdlib.obj
 0001:00002bc0       ??_ERImage_Memory@stdlib@lib2d@modules@UModSys@@UEAAPEAXI@Z 0000000180003bc0 f i  CIL library: CIL module
 0001:00002c20       ?get_generated_names@RGenerator@stdlib@lib2d@modules@UModSys@@UEBAHAEAUSUniquePtrList@core@5@@Z 0000000180003c20 f i umodsys_lib_lib2d:umodsys.mod.2d.stdlib.obj
 0001:00002c40       ?get_generated_types@RGenerator@stdlib@lib2d@modules@UModSys@@UEBAHAEAUSUniquePtrList@core@5@PEBUSUniquePointerInfo@75@@Z 0000000180003c40 f i umodsys_lib_lib2d:umodsys.mod.2d.stdlib.obj
 0001:00002ca0       ?generate@RGenerator@stdlib@lib2d@modules@UModSys@@UEAA_NAEAU?$TRefObject@UIRefObject@core@UModSys@@U?$TRefObjectFunc@UIRefObject@core@UModSys@@@tl@3@@tl@5@PEBUSUniquePointerInfo@core@5@AEBUSParameters@95@@Z 0000000180003ca0 f i umodsys_lib_lib2d:umodsys.mod.2d.stdlib.obj
 0001:00002d20       ?root_get_interface_info@RGenerator@stdlib@lib2d@modules@UModSys@@UEBAAEBUSUniquePointerInfo@core@5@XZ 0000000180003d20 f i umodsys_lib_lib2d:umodsys.mod.2d.stdlib.obj
 0001:00002d30       ?root_get_interface_type@RGenerator@stdlib@lib2d@modules@UModSys@@UEBAPEBUSUniquePointerInfo@core@5@XZ 0000000180003d30 f i umodsys_lib_lib2d:umodsys.mod.2d.stdlib.obj
 0001:00002d40       ?root_get_other_interface@RGenerator@stdlib@lib2d@modules@UModSys@@UEAAPEAUIRoot@core@5@PEBUSUniquePointerInfo@75@@Z 0000000180003d40 f i umodsys_lib_lib2d:umodsys.mod.2d.stdlib.obj
 0001:00002d40       ?root_get_other_interface@RGenerator@stdlib@lib2d@modules@UModSys@@UEBAPEBUIRoot@core@5@PEBUSUniquePointerInfo@75@@Z 0000000180003d40 f i umodsys_lib_lib2d:umodsys.mod.2d.stdlib.obj
 0001:00002d80       ?root_is_interface_supported@RGenerator@stdlib@lib2d@modules@UModSys@@UEBA_NPEBUSUniquePointerInfo@core@5@@Z 0000000180003d80 f i umodsys_lib_lib2d:umodsys.mod.2d.stdlib.obj
 0001:00002dc0       ?ref_add@RRenderDriver2D@SDL_core@ui@modules@UModSys@@UEBAXXZ 0000000180003dc0 f i umodsys_lib_libui:umodsys.mod.ui.SDL_core.obj
 0001:00002dc0       ?ref_add@RSerializeReader@serialize_json@media@modules@UModSys@@UEBAXXZ 0000000180003dc0 f i umodsys_lib_libmedia:umodsys.mod.media.serialize_json.obj
 0001:00002dc0       ?ref_add@RTerminal@SDL_core@ui@modules@UModSys@@UEBAXXZ 0000000180003dc0 f i umodsys_lib_libui:umodsys.mod.ui.SDL_core.obj
 0001:00002dc0       ?ref_add@RGenerator@stdlib@lib2d@modules@UModSys@@UEBAXXZ 0000000180003dc0 f i umodsys_lib_lib2d:umodsys.mod.2d.stdlib.obj
 0001:00002dc0       ?ref_add@RGenerator@frames@ui@modules@UModSys@@UEBAXXZ 0000000180003dc0 f i umodsys_lib_libui:umodsys.mod.ui.frames.obj
 0001:00002dc0       ?ref_add@RImage_Memory@stdlib@lib2d@modules@UModSys@@UEBAXXZ 0000000180003dc0 f i umodsys_lib_lib2d:umodsys.mod.2d.stdlib.obj
 0001:00002dc0       ?ref_add@RDialog@frames@ui@modules@UModSys@@UEBAXXZ 0000000180003dc0 f i umodsys_lib_libui:umodsys.mod.ui.frames.obj
 0001:00002dc0       ?ref_add@RGenerator@SDL_core@ui@modules@UModSys@@UEBAXXZ 0000000180003dc0 f i umodsys_lib_libui:umodsys.mod.ui.SDL_core.obj
 0001:00002dc0       ?ref_add@RKeyboardController@SDL_core@ui@modules@UModSys@@UEBAXXZ 0000000180003dc0 f i umodsys_lib_libui:umodsys.mod.ui.SDL_core.obj
 0001:00002dc0       ?ref_add@RMouseController@SDL_core@ui@modules@UModSys@@UEBAXXZ 0000000180003dc0 f i umodsys_lib_libui:umodsys.mod.ui.SDL_core.obj
 0001:00002dc0       ?ref_add@RGenerator@test1@test@modules@UModSys@@UEBAXXZ 0000000180003dc0 f i plugin_test1.obj
 0001:00002dc0       ?ref_add@RMultiImage2D_SDL_ttf@SDL_core@ui@modules@UModSys@@UEBAXXZ 0000000180003dc0 f i umodsys_lib_libui:umodsys.mod.ui.SDL_core.obj
 0001:00002dc0       ?ref_add@RGenerator@images_std@media@modules@UModSys@@UEBAXXZ 0000000180003dc0 f i umodsys_lib_libmedia:umodsys.mod.media.images_std.obj
 0001:00002dc0       ?ref_add@RGenerator@serialize_json@media@modules@UModSys@@UEBAXXZ 0000000180003dc0 f i umodsys_lib_libmedia:umodsys.mod.media.serialize_json.obj
 0001:00002dd0       ?suicide@RGenerator@SDL_core@ui@modules@UModSys@@UEAAXXZ 0000000180003dd0 f i umodsys_lib_libui:umodsys.mod.ui.SDL_core.obj
 0001:00002dd0       ?suicide@RGenerator@images_std@media@modules@UModSys@@UEAAXXZ 0000000180003dd0 f i umodsys_lib_libmedia:umodsys.mod.media.images_std.obj
 0001:00002dd0       ?render_box@RRenderDriver2D@SDL_core@ui@modules@UModSys@@UEAAXPEAUIImage@lib2d@5@AEBU?$TVector2@H@math3d@5@1AEBU?$TVector2@M@95@2@Z 0000000180003dd0 f i umodsys_lib_libui:umodsys.mod.ui.SDL_core.obj
 0001:00002dd0       ?suicide@RGenerator@frames@ui@modules@UModSys@@UEAAXXZ 0000000180003dd0 f i umodsys_lib_libui:umodsys.mod.ui.frames.obj
 0001:00002dd0       ?suicide@RGenerator@test1@test@modules@UModSys@@UEAAXXZ 0000000180003dd0 f i plugin_test1.obj
 0001:00002dd0       ?suicide@RGenerator@serialize_json@media@modules@UModSys@@UEAAXXZ 0000000180003dd0 f i umodsys_lib_libmedia:umodsys.mod.media.serialize_json.obj
 0001:00002dd0       ?suicide@RGenerator@stdlib@lib2d@modules@UModSys@@UEAAXXZ 0000000180003dd0 f i umodsys_lib_lib2d:umodsys.mod.2d.stdlib.obj
 0001:00002dd0       ??3@YAXPEAX0@Z             0000000180003dd0 f i plugin_test1.obj
 0001:00002de0       ?get_uid@RGenerator@stdlib@lib2d@modules@UModSys@@UEBAPEBUSUniquePointerInfo@core@5@XZ 0000000180003de0 f i umodsys_lib_lib2d:umodsys.mod.2d.stdlib.obj
 0001:00002df0       ?do_open@RModuleReg@stdlib@lib2d@modules@UModSys@@UEAA_NXZ 0000000180003df0 f i umodsys_lib_lib2d:umodsys.mod.2d.stdlib.obj
 0001:00002e00       ?do_close@RModuleReg@stdlib@lib2d@modules@UModSys@@UEAA_NXZ 0000000180003e00 f i umodsys_lib_lib2d:umodsys.mod.2d.stdlib.obj
 0001:00002e10       ??_GRModuleReg@stdlib@lib2d@modules@UModSys@@UEAAPEAXI@Z 0000000180003e10 f i umodsys_lib_lib2d:umodsys.mod.2d.stdlib.obj
 0001:00002e10       ??_ERModuleReg@stdlib@lib2d@modules@UModSys@@UEAAPEAXI@Z 0000000180003e10 f i  CIL library: CIL module
 0001:00002e40       ??_GRGenerator@SDL_core@ui@modules@UModSys@@UEAAPEAXI@Z 0000000180003e40 f i umodsys_lib_libui:umodsys.mod.ui.SDL_core.obj
 0001:00002e40       ??_GIRefObject@core@UModSys@@UEAAPEAXI@Z 0000000180003e40 f i plugin_test1.obj
 0001:00002e40       ??_ERGenerator@test1@test@modules@UModSys@@UEAAPEAXI@Z 0000000180003e40 f i  CIL library: CIL module
 0001:00002e40       ??_GRGenerator@stdlib@lib2d@modules@UModSys@@UEAAPEAXI@Z 0000000180003e40 f i umodsys_lib_lib2d:umodsys.mod.2d.stdlib.obj
 0001:00002e40       ??_ERGenerator@serialize_json@media@modules@UModSys@@UEAAPEAXI@Z 0000000180003e40 f i  CIL library: CIL module
 0001:00002e40       ??_GRGenerator@images_std@media@modules@UModSys@@UEAAPEAXI@Z 0000000180003e40 f i umodsys_lib_libmedia:umodsys.mod.media.images_std.obj
 0001:00002e40       ??_GRGenerator@serialize_json@media@modules@UModSys@@UEAAPEAXI@Z 0000000180003e40 f i umodsys_lib_libmedia:umodsys.mod.media.serialize_json.obj
 0001:00002e40       ??_EIRefObject@core@UModSys@@UEAAPEAXI@Z 0000000180003e40 f i  CIL library: CIL module
 0001:00002e40       ??_GRGenerator@frames@ui@modules@UModSys@@UEAAPEAXI@Z 0000000180003e40 f i umodsys_lib_libui:umodsys.mod.ui.frames.obj
 0001:00002e40       ??_GRGenerator@test1@test@modules@UModSys@@UEAAPEAXI@Z 0000000180003e40 f i plugin_test1.obj
 0001:00002e40       ??_ERGenerator@frames@ui@modules@UModSys@@UEAAPEAXI@Z 0000000180003e40 f i  CIL library: CIL module
 0001:00002e40       ??_ERGenerator@SDL_core@ui@modules@UModSys@@UEAAPEAXI@Z 0000000180003e40 f i  CIL library: CIL module
 0001:00002e40       ??_ERGenerator@images_std@media@modules@UModSys@@UEAAPEAXI@Z 0000000180003e40 f i  CIL library: CIL module
 0001:00002e40       ??_ERGenerator@stdlib@lib2d@modules@UModSys@@UEAAPEAXI@Z 0000000180003e40 f i  CIL library: CIL module
 0001:00002e70       ?utf_8to32@su@tl@UModSys@@YA_NAEAHAEAPEBDAEA_K@Z 0000000180003e70 f i umodsys_lib_libui:umodsys.mod.ui.SDL_core.obj
 0001:00002fb0       ?root_get_interface_info@RMultiImage2D_SDL_ttf@SDL_core@ui@modules@UModSys@@UEBAAEBUSUniquePointerInfo@core@5@XZ 0000000180003fb0 f i umodsys_lib_libui:umodsys.mod.ui.SDL_core.obj
 0001:00002fc0       ?root_get_interface_type@RMultiImage2D_SDL_ttf@SDL_core@ui@modules@UModSys@@UEBAPEBUSUniquePointerInfo@core@5@XZ 0000000180003fc0 f i umodsys_lib_libui:umodsys.mod.ui.SDL_core.obj
 0001:00002fd0       ?root_get_other_interface@RMultiImage2D_SDL_ttf@SDL_core@ui@modules@UModSys@@UEAAPEAUIRoot@core@5@PEBUSUniquePointerInfo@75@@Z 0000000180003fd0 f i umodsys_lib_libui:umodsys.mod.ui.SDL_core.obj
 0001:00002fd0       ?root_get_other_interface@RMultiImage2D_SDL_ttf@SDL_core@ui@modules@UModSys@@UEBAPEBUIRoot@core@5@PEBUSUniquePointerInfo@75@@Z 0000000180003fd0 f i umodsys_lib_libui:umodsys.mod.ui.SDL_core.obj
 0001:00003000       ?root_is_interface_supported@RMultiImage2D_SDL_ttf@SDL_core@ui@modules@UModSys@@UEBA_NPEBUSUniquePointerInfo@core@5@@Z 0000000180004000 f i umodsys_lib_libui:umodsys.mod.ui.SDL_core.obj
 0001:00003030       ?suicide@RMouseController@SDL_core@ui@modules@UModSys@@UEAAXXZ 0000000180004030 f i umodsys_lib_libui:umodsys.mod.ui.SDL_core.obj
 0001:00003030       ?suicide@RKeyboardController@SDL_core@ui@modules@UModSys@@UEAAXXZ 0000000180004030 f i umodsys_lib_libui:umodsys.mod.ui.SDL_core.obj
 0001:00003030       ?suicide@RDialog@frames@ui@modules@UModSys@@UEAAXXZ 0000000180004030 f i umodsys_lib_libui:umodsys.mod.ui.frames.obj
 0001:00003030       ?suicide@RMultiImage2D_SDL_ttf@SDL_core@ui@modules@UModSys@@UEAAXXZ 0000000180004030 f i umodsys_lib_libui:umodsys.mod.ui.SDL_core.obj
 0001:00003030       ?suicide@RRenderDriver2D@SDL_core@ui@modules@UModSys@@UEAAXXZ 0000000180004030 f i umodsys_lib_libui:umodsys.mod.ui.SDL_core.obj
 0001:00003080       ??0RMultiImage2D_SDL_ttf@SDL_core@ui@modules@UModSys@@QEAA@PEAURRenderDriver2D@1234@AEBUSParameters@core@4@@Z 0000000180004080 f i umodsys_lib_libui:umodsys.mod.ui.SDL_core.obj
 0001:00003120       ?open@RMultiImage2D_SDL_ttf@SDL_core@ui@modules@UModSys@@QEAA_NAEBUSParameters@core@5@@Z 0000000180004120 f i umodsys_lib_libui:umodsys.mod.ui.SDL_core.obj
 0001:00003220       ?generate_glyphs@RMultiImage2D_SDL_ttf@SDL_core@ui@modules@UModSys@@QEAA_NXZ 0000000180004220 f i umodsys_lib_libui:umodsys.mod.ui.SDL_core.obj
 0001:00003380       ?set_parameters@RRenderDriver2D@SDL_core@ui@modules@UModSys@@UEAA_NPEBDAEBUSParameters@core@5@@Z 0000000180004380 f i umodsys_lib_libui:umodsys.mod.ui.SDL_core.obj
 0001:00003380       ?mouse_setposition@RMouseController@SDL_core@ui@modules@UModSys@@UEAA_NHH@Z 0000000180004380 f i umodsys_lib_libui:umodsys.mod.ui.SDL_core.obj
 0001:00003380       ?set_layer_count@RMultiImage2D_SDL_ttf@SDL_core@ui@modules@UModSys@@UEAA_NH@Z 0000000180004380 f i umodsys_lib_libui:umodsys.mod.ui.SDL_core.obj
 0001:00003380       ?key_event@RFrame_Common@frames@ui@modules@UModSys@@MEAA_NAEBUSKeyboardInputText@libui@5@@Z 0000000180004380 f i umodsys_lib_libui:umodsys.mod.ui.frames.obj
 0001:00003380       ?set_fixed_cell@RMultiImage2D_SDL_ttf@SDL_core@ui@modules@UModSys@@UEAA_NHH@Z 0000000180004380 f i umodsys_lib_libui:umodsys.mod.ui.SDL_core.obj
 0001:00003380       ?mouse_setvisible@RMouseController@SDL_core@ui@modules@UModSys@@UEAA_N_N@Z 0000000180004380 f i umodsys_lib_libui:umodsys.mod.ui.SDL_core.obj
 0001:00003380       ?key_setrepeat@RKeyboardController@SDL_core@ui@modules@UModSys@@UEAA_NMM@Z 0000000180004380 f i umodsys_lib_libui:umodsys.mod.ui.SDL_core.obj
 0001:00003380       ?key_reset@RKeyboardController@SDL_core@ui@modules@UModSys@@UEAA_NXZ 0000000180004380 f i umodsys_lib_libui:umodsys.mod.ui.SDL_core.obj
 0001:00003380       ?key_setmodifier@RKeyboardController@SDL_core@ui@modules@UModSys@@UEAA_NHHH@Z 0000000180004380 f i umodsys_lib_libui:umodsys.mod.ui.SDL_core.obj
 0001:00003380       ?mouse_reset@RMouseController@SDL_core@ui@modules@UModSys@@UEAA_NXZ 0000000180004380 f i umodsys_lib_libui:umodsys.mod.ui.SDL_core.obj
 0001:00003380       ?mouse_event@RFrame_Common@frames@ui@modules@UModSys@@MEAA_NPEBUSMouseInput@libui@5@@Z 0000000180004380 f i umodsys_lib_libui:umodsys.mod.ui.frames.obj
 0001:00003380       ?set_var_cell@RMultiImage2D_SDL_ttf@SDL_core@ui@modules@UModSys@@UEAA_NPEBUSImageCellInfo@lib2d@5@HH@Z 0000000180004380 f i umodsys_lib_libui:umodsys.mod.ui.SDL_core.obj
 0001:00003380       ?get_cell_size@RMultiImage2D_SDL_ttf@SDL_core@ui@modules@UModSys@@UEAA_NHAEAU?$TVector2@H@math3d@5@PEAU675@@Z 0000000180004380 f i umodsys_lib_libui:umodsys.mod.ui.SDL_core.obj
 0001:00003380       ?set_insize@RFrame_Common@frames@ui@modules@UModSys@@UEAA_NAEBU?$TVector2@H@math3d@5@@Z 0000000180004380 f i umodsys_lib_libui:umodsys.mod.ui.frames.obj
 0001:00003380       ?key_event@RFrame_Common@frames@ui@modules@UModSys@@MEAA_NAEBUSKeyboardInputRaw@libui@5@@Z 0000000180004380 f i umodsys_lib_libui:umodsys.mod.ui.frames.obj
 0001:00003380       ?set_hint@RMultiImage2D_SDL_ttf@SDL_core@ui@modules@UModSys@@UEAA_NPEBD0@Z 0000000180004380 f i umodsys_lib_libui:umodsys.mod.ui.SDL_core.obj
 0001:00003380       ?get_max_cell_size@RMultiImage2D_SDL_ttf@SDL_core@ui@modules@UModSys@@UEAA_NAEAU?$TVector2@H@math3d@5@@Z 0000000180004380 f i umodsys_lib_libui:umodsys.mod.ui.SDL_core.obj
 0001:00003390       ??_GRMultiImage2D_SDL_ttf@SDL_core@ui@modules@UModSys@@UEAAPEAXI@Z 0000000180004390 f i umodsys_lib_libui:umodsys.mod.ui.SDL_core.obj
 0001:00003390       ??_ERMultiImage2D_SDL_ttf@SDL_core@ui@modules@UModSys@@UEAAPEAXI@Z 0000000180004390 f i  CIL library: CIL module
 0001:00003410       ?root_get_interface_info@RRenderDriver2D@SDL_core@ui@modules@UModSys@@UEBAAEBUSUniquePointerInfo@core@5@XZ 0000000180004410 f i umodsys_lib_libui:umodsys.mod.ui.SDL_core.obj
 0001:00003420       ?root_get_interface_type@RRenderDriver2D@SDL_core@ui@modules@UModSys@@UEBAPEBUSUniquePointerInfo@core@5@XZ 0000000180004420 f i umodsys_lib_libui:umodsys.mod.ui.SDL_core.obj
 0001:00003430       ?root_get_other_interface@RRenderDriver2D@SDL_core@ui@modules@UModSys@@UEAAPEAUIRoot@core@5@PEBUSUniquePointerInfo@75@@Z 0000000180004430 f i umodsys_lib_libui:umodsys.mod.ui.SDL_core.obj
 0001:00003430       ?root_get_other_interface@RRenderDriver2D@SDL_core@ui@modules@UModSys@@UEBAPEBUIRoot@core@5@PEBUSUniquePointerInfo@75@@Z 0000000180004430 f i umodsys_lib_libui:umodsys.mod.ui.SDL_core.obj
 0001:00003460       ?root_is_interface_supported@RRenderDriver2D@SDL_core@ui@modules@UModSys@@UEBA_NPEBUSUniquePointerInfo@core@5@@Z 0000000180004460 f i umodsys_lib_libui:umodsys.mod.ui.SDL_core.obj
 0001:00003490       ??0RRenderDriver2D@SDL_core@ui@modules@UModSys@@QEAA@PEAURTerminal@1234@AEBUSParameters@core@4@@Z 0000000180004490 f i umodsys_lib_libui:umodsys.mod.ui.SDL_core.obj
 0001:000035e0       ??1RRenderDriver2D@SDL_core@ui@modules@UModSys@@UEAA@XZ 00000001800045e0 f i umodsys_lib_libui:umodsys.mod.ui.SDL_core.obj
 0001:000036b0       ?open@RRenderDriver2D@SDL_core@ui@modules@UModSys@@QEAA_NAEBUSParameters@core@5@@Z 00000001800046b0 f i umodsys_lib_libui:umodsys.mod.ui.SDL_core.obj
 0001:000038d0       ?set_color@RRenderDriver2D@SDL_core@ui@modules@UModSys@@QEAAXXZ 00000001800048d0 f i umodsys_lib_libui:umodsys.mod.ui.SDL_core.obj
 0001:00003950       ?begin@RRenderDriver2D@SDL_core@ui@modules@UModSys@@UEAAXXZ 0000000180004950 f i umodsys_lib_libui:umodsys.mod.ui.SDL_core.obj
 0001:000039c0       ?end@RRenderDriver2D@SDL_core@ui@modules@UModSys@@UEAAXXZ 00000001800049c0 f i umodsys_lib_libui:umodsys.mod.ui.SDL_core.obj
 0001:000039e0       ?get_max_values@RRenderDriver2D@SDL_core@ui@modules@UModSys@@UEBAPEBUSParameters@core@5@XZ 00000001800049e0 f i umodsys_lib_libui:umodsys.mod.ui.SDL_core.obj
 0001:000039f0       ?get_frame_values@RRenderDriver2D@SDL_core@ui@modules@UModSys@@UEBAPEBUSParameters@core@5@XZ 00000001800049f0 f i umodsys_lib_libui:umodsys.mod.ui.SDL_core.obj
 0001:00003a00       ?setup_font@RRenderDriver2D@SDL_core@ui@modules@UModSys@@UEAA_NPEAUIMultiImage@lib2d@5@PEBU?$TVector2@M@math3d@5@@Z 0000000180004a00 f i umodsys_lib_libui:umodsys.mod.ui.SDL_core.obj
 0001:00003a70       ?setup_color@RRenderDriver2D@SDL_core@ui@modules@UModSys@@UEAAXAEBU?$TVector3@M@math3d@5@@Z 0000000180004a70 f i umodsys_lib_libui:umodsys.mod.ui.SDL_core.obj
 0001:00003aa0       ?setup_color@RRenderDriver2D@SDL_core@ui@modules@UModSys@@UEAAXAEBU?$TVector3@H@math3d@5@@Z 0000000180004aa0 f i umodsys_lib_libui:umodsys.mod.ui.SDL_core.obj
 0001:00003af0       ?setup_coloralpha@RRenderDriver2D@SDL_core@ui@modules@UModSys@@UEAAXAEBU?$TVector4@M@math3d@5@H@Z 0000000180004af0 f i umodsys_lib_libui:umodsys.mod.ui.SDL_core.obj
 0001:00003b20       ?setup_coloralpha@RRenderDriver2D@SDL_core@ui@modules@UModSys@@UEAAXAEBU?$TVector4@H@math3d@5@H@Z 0000000180004b20 f i umodsys_lib_libui:umodsys.mod.ui.SDL_core.obj
 0001:00003b90       ?setup_blendcolor@RRenderDriver2D@SDL_core@ui@modules@UModSys@@UEAAXAEBUSBlendColor@lib2d@5@@Z 0000000180004b90 f i umodsys_lib_libui:umodsys.mod.ui.SDL_core.obj
 0001:00003c00       ?setup_blendcolor@RRenderDriver2D@SDL_core@ui@modules@UModSys@@UEAAXAEBUSBlendColorf@lib2d@5@@Z 0000000180004c00 f i umodsys_lib_libui:umodsys.mod.ui.SDL_core.obj
 0001:00003c60       ?setup_alpha@RRenderDriver2D@SDL_core@ui@modules@UModSys@@UEAAXHH@Z 0000000180004c60 f i umodsys_lib_libui:umodsys.mod.ui.SDL_core.obj
 0001:00003c90       ?setup_alpha@RRenderDriver2D@SDL_core@ui@modules@UModSys@@UEAAXMH@Z 0000000180004c90 f i umodsys_lib_libui:umodsys.mod.ui.SDL_core.obj
 0001:00003cb0       ?render_text_advanced@RRenderDriver2D@SDL_core@ui@modules@UModSys@@UEAA_NAEAUTextInfo@IRenderDriver@lib2d@5@PEBHH@Z 0000000180004cb0 f i umodsys_lib_libui:umodsys.mod.ui.SDL_core.obj
 0001:00003f00       ?render_box@RRenderDriver2D@SDL_core@ui@modules@UModSys@@UEAAXAEBU?$TVector2@H@math3d@5@0@Z 0000000180004f00 f i umodsys_lib_libui:umodsys.mod.ui.SDL_core.obj
 0001:00003f50       ?render_tri@RRenderDriver2D@SDL_core@ui@modules@UModSys@@UEAAXAEBU?$TVector2@H@math3d@5@00@Z 0000000180004f50 f i umodsys_lib_libui:umodsys.mod.ui.SDL_core.obj
 0001:00003fd0       ?render_quad@RRenderDriver2D@SDL_core@ui@modules@UModSys@@UEAAXAEBU?$TVector2@H@math3d@5@000@Z 0000000180004fd0 f i umodsys_lib_libui:umodsys.mod.ui.SDL_core.obj
 0001:00004080       ?render_line@RRenderDriver2D@SDL_core@ui@modules@UModSys@@UEAAXAEBU?$TVector2@H@math3d@5@0@Z 0000000180005080 f i umodsys_lib_libui:umodsys.mod.ui.SDL_core.obj
 0001:000040b0       ?render_rect@RRenderDriver2D@SDL_core@ui@modules@UModSys@@UEAAXAEBU?$TVector2@H@math3d@5@0@Z 00000001800050b0 f i umodsys_lib_libui:umodsys.mod.ui.SDL_core.obj
 0001:00004100       ??_ERRenderDriver2D@SDL_core@ui@modules@UModSys@@UEAAPEAXI@Z 0000000180005100 f i  CIL library: CIL module
 0001:00004100       ??_GRRenderDriver2D@SDL_core@ui@modules@UModSys@@UEAAPEAXI@Z 0000000180005100 f i umodsys_lib_libui:umodsys.mod.ui.SDL_core.obj
 0001:00004130       ?root_get_interface_info@RMouseController@SDL_core@ui@modules@UModSys@@UEBAAEBUSUniquePointerInfo@core@5@XZ 0000000180005130 f i umodsys_lib_libui:umodsys.mod.ui.SDL_core.obj
 0001:00004140       ?root_get_interface_type@RMouseController@SDL_core@ui@modules@UModSys@@UEBAPEBUSUniquePointerInfo@core@5@XZ 0000000180005140 f i umodsys_lib_libui:umodsys.mod.ui.SDL_core.obj
 0001:00004150       ?root_get_other_interface@RMouseController@SDL_core@ui@modules@UModSys@@UEBAPEBUIRoot@core@5@PEBUSUniquePointerInfo@75@@Z 0000000180005150 f i umodsys_lib_libui:umodsys.mod.ui.SDL_core.obj
 0001:00004150       ?root_get_other_interface@RMouseController@SDL_core@ui@modules@UModSys@@UEAAPEAUIRoot@core@5@PEBUSUniquePointerInfo@75@@Z 0000000180005150 f i umodsys_lib_libui:umodsys.mod.ui.SDL_core.obj
 0001:00004180       ?root_is_interface_supported@RMouseController@SDL_core@ui@modules@UModSys@@UEBA_NPEBUSUniquePointerInfo@core@5@@Z 0000000180005180 f i umodsys_lib_libui:umodsys.mod.ui.SDL_core.obj
 0001:000041b0       ?process@RMouseController@SDL_core@ui@modules@UModSys@@QEAA_NAEAUSDL_MouseMotionEvent@@@Z 00000001800051b0 f i umodsys_lib_libui:umodsys.mod.ui.SDL_core.obj
 0001:00004330       ?process@RMouseController@SDL_core@ui@modules@UModSys@@QEAA_NAEAUSDL_MouseButtonEvent@@@Z 0000000180005330 f i umodsys_lib_libui:umodsys.mod.ui.SDL_core.obj
 0001:00004480       ?process@RMouseController@SDL_core@ui@modules@UModSys@@QEAA_NAEAUSDL_MouseWheelEvent@@@Z 0000000180005480 f i umodsys_lib_libui:umodsys.mod.ui.SDL_core.obj
 0001:00004590       ?mouse_link@RMouseController@SDL_core@ui@modules@UModSys@@UEAA_NHPEAUIRefObject@core@5@PEAUIMouseClient@libui@5@H@Z 0000000180005590 f i umodsys_lib_libui:umodsys.mod.ui.SDL_core.obj
 0001:00004630       ??_GRMouseController@SDL_core@ui@modules@UModSys@@UEAAPEAXI@Z 0000000180005630 f i umodsys_lib_libui:umodsys.mod.ui.SDL_core.obj
 0001:00004630       ??_ERMouseController@SDL_core@ui@modules@UModSys@@UEAAPEAXI@Z 0000000180005630 f i  CIL library: CIL module
 0001:000046a0       ?root_get_interface_info@RKeyboardController@SDL_core@ui@modules@UModSys@@UEBAAEBUSUniquePointerInfo@core@5@XZ 00000001800056a0 f i umodsys_lib_libui:umodsys.mod.ui.SDL_core.obj
 0001:000046b0       ?root_get_interface_type@RKeyboardController@SDL_core@ui@modules@UModSys@@UEBAPEBUSUniquePointerInfo@core@5@XZ 00000001800056b0 f i umodsys_lib_libui:umodsys.mod.ui.SDL_core.obj
 0001:000046c0       ?root_get_interface_types@RFrame_Frame@frames@ui@modules@UModSys@@UEBA_KAEAUSUniquePtrList@core@5@@Z 00000001800056c0 f i umodsys_lib_libui:umodsys.mod.ui.frames.obj
 0001:000046c0       ?root_get_interface_types@RTest1_Shell@test1@test@modules@UModSys@@UEBA_KAEAUSUniquePtrList@core@5@@Z 00000001800056c0 f i plugin_test1.obj
 0001:000046c0       ?root_get_interface_types@RTerminal@SDL_core@ui@modules@UModSys@@UEBA_KAEAUSUniquePtrList@core@5@@Z 00000001800056c0 f i umodsys_lib_libui:umodsys.mod.ui.SDL_core.obj
 0001:000046c0       ?root_get_interface_types@RImage_Memory@stdlib@lib2d@modules@UModSys@@UEBA_KAEAUSUniquePtrList@core@5@@Z 00000001800056c0 f i umodsys_lib_lib2d:umodsys.mod.2d.stdlib.obj
 0001:000046c0       ?root_get_interface_types@RRenderDriver2D@SDL_core@ui@modules@UModSys@@UEBA_KAEAUSUniquePtrList@core@5@@Z 00000001800056c0 f i umodsys_lib_libui:umodsys.mod.ui.SDL_core.obj
 0001:000046c0       ?root_get_interface_types@RFrame_Edit@frames@ui@modules@UModSys@@UEBA_KAEAUSUniquePtrList@core@5@@Z 00000001800056c0 f i umodsys_lib_libui:umodsys.mod.ui.frames.obj
 0001:000046c0       ?root_get_interface_types@RFrame_Button@frames@ui@modules@UModSys@@UEBA_KAEAUSUniquePtrList@core@5@@Z 00000001800056c0 f i umodsys_lib_libui:umodsys.mod.ui.frames.obj
 0001:000046c0       ?root_get_interface_types@RMultiImage2D_SDL_ttf@SDL_core@ui@modules@UModSys@@UEBA_KAEAUSUniquePtrList@core@5@@Z 00000001800056c0 f i umodsys_lib_libui:umodsys.mod.ui.SDL_core.obj
 0001:000046c0       ?root_get_interface_types@RGenerator@images_std@media@modules@UModSys@@UEBA_KAEAUSUniquePtrList@core@5@@Z 00000001800056c0 f i umodsys_lib_libmedia:umodsys.mod.media.images_std.obj
 0001:000046c0       ?root_get_interface_types@RFrame_List@frames@ui@modules@UModSys@@UEBA_KAEAUSUniquePtrList@core@5@@Z 00000001800056c0 f i umodsys_lib_libui:umodsys.mod.ui.frames.obj
 0001:000046c0       ?root_get_interface_types@RSerializeWriter@serialize_json@media@modules@UModSys@@UEBA_KAEAUSUniquePtrList@core@5@@Z 00000001800056c0 f i umodsys_lib_libmedia:umodsys.mod.media.serialize_json.obj
 0001:000046c0       ?root_get_interface_types@RGenerator@SDL_core@ui@modules@UModSys@@UEBA_KAEAUSUniquePtrList@core@5@@Z 00000001800056c0 f i umodsys_lib_libui:umodsys.mod.ui.SDL_core.obj
 0001:000046c0       ?root_get_interface_types@RDialog@frames@ui@modules@UModSys@@UEBA_KAEAUSUniquePtrList@core@5@@Z 00000001800056c0 f i umodsys_lib_libui:umodsys.mod.ui.frames.obj
 0001:000046c0       ?root_get_interface_types@RGenerator@test1@test@modules@UModSys@@UEBA_KAEAUSUniquePtrList@core@5@@Z 00000001800056c0 f i plugin_test1.obj
 0001:000046c0       ?root_get_interface_types@RSerializeReader@serialize_json@media@modules@UModSys@@UEBA_KAEAUSUniquePtrList@core@5@@Z 00000001800056c0 f i umodsys_lib_libmedia:umodsys.mod.media.serialize_json.obj
 0001:000046c0       ?root_get_interface_types@RGenerator@frames@ui@modules@UModSys@@UEBA_KAEAUSUniquePtrList@core@5@@Z 00000001800056c0 f i umodsys_lib_libui:umodsys.mod.ui.frames.obj
 0001:000046c0       ?root_get_interface_types@RMouseController@SDL_core@ui@modules@UModSys@@UEBA_KAEAUSUniquePtrList@core@5@@Z 00000001800056c0 f i umodsys_lib_libui:umodsys.mod.ui.SDL_core.obj
 0001:000046c0       ?root_get_interface_types@RFrame_Text@frames@ui@modules@UModSys@@UEBA_KAEAUSUniquePtrList@core@5@@Z 00000001800056c0 f i umodsys_lib_libui:umodsys.mod.ui.frames.obj
 0001:000046c0       ?root_get_interface_types@RCollector@frames@ui@modules@UModSys@@UEBA_KAEAUSUniquePtrList@core@5@@Z 00000001800056c0 f i umodsys_lib_libui:umodsys.mod.ui.frames.obj
 0001:000046c0       ?root_get_interface_types@RGenerator@serialize_json@media@modules@UModSys@@UEBA_KAEAUSUniquePtrList@core@5@@Z 00000001800056c0 f i umodsys_lib_libmedia:umodsys.mod.media.serialize_json.obj
 0001:000046c0       ?root_get_interface_types@RGenerator@stdlib@lib2d@modules@UModSys@@UEBA_KAEAUSUniquePtrList@core@5@@Z 00000001800056c0 f i umodsys_lib_lib2d:umodsys.mod.2d.stdlib.obj
 0001:000046c0       ?root_get_interface_types@RKeyboardController@SDL_core@ui@modules@UModSys@@UEBA_KAEAUSUniquePtrList@core@5@@Z 00000001800056c0 f i umodsys_lib_libui:umodsys.mod.ui.SDL_core.obj
 0001:000046c0       ?root_get_interface_types@RMediaFilter@images_std@media@modules@UModSys@@UEBA_KAEAUSUniquePtrList@core@5@@Z 00000001800056c0 f i umodsys_lib_libmedia:umodsys.mod.media.images_std.obj
 0001:000046c0       ?root_get_interface_types@RFrame_Image@frames@ui@modules@UModSys@@UEBA_KAEAUSUniquePtrList@core@5@@Z 00000001800056c0 f i umodsys_lib_libui:umodsys.mod.ui.frames.obj
 0001:000046d0       ?root_get_other_interface@RKeyboardController@SDL_core@ui@modules@UModSys@@UEBAPEBUIRoot@core@5@PEBUSUniquePointerInfo@75@@Z 00000001800056d0 f i umodsys_lib_libui:umodsys.mod.ui.SDL_core.obj
 0001:000046d0       ?root_get_other_interface@RKeyboardController@SDL_core@ui@modules@UModSys@@UEAAPEAUIRoot@core@5@PEBUSUniquePointerInfo@75@@Z 00000001800056d0 f i umodsys_lib_libui:umodsys.mod.ui.SDL_core.obj
 0001:00004700       ?root_is_interface_supported@RKeyboardController@SDL_core@ui@modules@UModSys@@UEBA_NPEBUSUniquePointerInfo@core@5@@Z 0000000180005700 f i umodsys_lib_libui:umodsys.mod.ui.SDL_core.obj
 0001:00004730       ?process@RKeyboardController@SDL_core@ui@modules@UModSys@@QEAA_NAEAUSDL_KeyboardEvent@@@Z 0000000180005730 f i umodsys_lib_libui:umodsys.mod.ui.SDL_core.obj
 0001:00004840       ?process@RKeyboardController@SDL_core@ui@modules@UModSys@@QEAA_NAEAUSDL_TextInputEvent@@@Z 0000000180005840 f i umodsys_lib_libui:umodsys.mod.ui.SDL_core.obj
 0001:00004a00       ?map_keycode@RKeyboardController@SDL_core@ui@modules@UModSys@@QEAA?AW4eKeyCode@libui@5@H@Z 0000000180005a00 f i umodsys_lib_libui:umodsys.mod.ui.SDL_core.obj
 0001:00004f60       ?map_keyspecial@RKeyboardController@SDL_core@ui@modules@UModSys@@QEAAFG@Z 0000000180005f60 f i umodsys_lib_libui:umodsys.mod.ui.SDL_core.obj
 0001:00005000       ?mouse_unlink@RMouseController@SDL_core@ui@modules@UModSys@@UEAA_NH@Z 0000000180006000 f i umodsys_lib_libui:umodsys.mod.ui.SDL_core.obj
 0001:00005000       ?key_unlink@RKeyboardController@SDL_core@ui@modules@UModSys@@UEAA_NH@Z 0000000180006000 f i umodsys_lib_libui:umodsys.mod.ui.SDL_core.obj
 0001:00005080       ?key_link@RKeyboardController@SDL_core@ui@modules@UModSys@@UEAA_NHPEAUIRefObject@core@5@PEAUIKeyboardClient@libui@5@@Z 0000000180006080 f i umodsys_lib_libui:umodsys.mod.ui.SDL_core.obj
 0001:00005110       ?key_setvisible@RKeyboardController@SDL_core@ui@modules@UModSys@@UEAA_N_N@Z 0000000180006110 f i umodsys_lib_libui:umodsys.mod.ui.SDL_core.obj
 0001:00005130       ??_ERKeyboardController@SDL_core@ui@modules@UModSys@@UEAAPEAXI@Z 0000000180006130 f i  CIL library: CIL module
 0001:00005130       ??_GRKeyboardController@SDL_core@ui@modules@UModSys@@UEAAPEAXI@Z 0000000180006130 f i umodsys_lib_libui:umodsys.mod.ui.SDL_core.obj
 0001:000051a0       ?root_get_interface_info@RTerminal@SDL_core@ui@modules@UModSys@@UEBAAEBUSUniquePointerInfo@core@5@XZ 00000001800061a0 f i umodsys_lib_libui:umodsys.mod.ui.SDL_core.obj
 0001:000051b0       ?root_get_interface_type@RTerminal@SDL_core@ui@modules@UModSys@@UEBAPEBUSUniquePointerInfo@core@5@XZ 00000001800061b0 f i umodsys_lib_libui:umodsys.mod.ui.SDL_core.obj
 0001:000051c0       ?root_get_other_interface@RTerminal@SDL_core@ui@modules@UModSys@@UEAAPEAUIRoot@core@5@PEBUSUniquePointerInfo@75@@Z 00000001800061c0 f i umodsys_lib_libui:umodsys.mod.ui.SDL_core.obj
 0001:000051c0       ?root_get_other_interface@RTerminal@SDL_core@ui@modules@UModSys@@UEBAPEBUIRoot@core@5@PEBUSUniquePointerInfo@75@@Z 00000001800061c0 f i umodsys_lib_libui:umodsys.mod.ui.SDL_core.obj
 0001:000051f0       ?root_is_interface_supported@RTerminal@SDL_core@ui@modules@UModSys@@UEBA_NPEBUSUniquePointerInfo@core@5@@Z 00000001800061f0 f i umodsys_lib_libui:umodsys.mod.ui.SDL_core.obj
 0001:00005220       ?ref_remove@RRenderDriver2D@SDL_core@ui@modules@UModSys@@UEBAXXZ 0000000180006220 f i umodsys_lib_libui:umodsys.mod.ui.SDL_core.obj
 0001:00005220       ?ref_remove@RDialog@frames@ui@modules@UModSys@@UEBAXXZ 0000000180006220 f i umodsys_lib_libui:umodsys.mod.ui.frames.obj
 0001:00005220       ?ref_remove@RGenerator@stdlib@lib2d@modules@UModSys@@UEBAXXZ 0000000180006220 f i umodsys_lib_lib2d:umodsys.mod.2d.stdlib.obj
 0001:00005220       ?ref_remove@RGenerator@SDL_core@ui@modules@UModSys@@UEBAXXZ 0000000180006220 f i umodsys_lib_libui:umodsys.mod.ui.SDL_core.obj
 0001:00005220       ?ref_remove@RGenerator@test1@test@modules@UModSys@@UEBAXXZ 0000000180006220 f i plugin_test1.obj
 0001:00005220       ?ref_remove@RMouseController@SDL_core@ui@modules@UModSys@@UEBAXXZ 0000000180006220 f i umodsys_lib_libui:umodsys.mod.ui.SDL_core.obj
 0001:00005220       ?ref_remove@RSerializeReader@serialize_json@media@modules@UModSys@@UEBAXXZ 0000000180006220 f i umodsys_lib_libmedia:umodsys.mod.media.serialize_json.obj
 0001:00005220       ?ref_remove@RGenerator@frames@ui@modules@UModSys@@UEBAXXZ 0000000180006220 f i umodsys_lib_libui:umodsys.mod.ui.frames.obj
 0001:00005220       ?ref_remove@RImage_Memory@stdlib@lib2d@modules@UModSys@@UEBAXXZ 0000000180006220 f i umodsys_lib_lib2d:umodsys.mod.2d.stdlib.obj
 0001:00005220       ?ref_remove@RTerminal@SDL_core@ui@modules@UModSys@@UEBAXXZ 0000000180006220 f i umodsys_lib_libui:umodsys.mod.ui.SDL_core.obj
 0001:00005220       ?ref_remove@RMultiImage2D_SDL_ttf@SDL_core@ui@modules@UModSys@@UEBAXXZ 0000000180006220 f i umodsys_lib_libui:umodsys.mod.ui.SDL_core.obj
 0001:00005220       ?ref_remove@RKeyboardController@SDL_core@ui@modules@UModSys@@UEBAXXZ 0000000180006220 f i umodsys_lib_libui:umodsys.mod.ui.SDL_core.obj
 0001:00005220       ?ref_remove@RGenerator@serialize_json@media@modules@UModSys@@UEBAXXZ 0000000180006220 f i umodsys_lib_libmedia:umodsys.mod.media.serialize_json.obj
 0001:00005220       ?ref_remove@RGenerator@images_std@media@modules@UModSys@@UEBAXXZ 0000000180006220 f i umodsys_lib_libmedia:umodsys.mod.media.images_std.obj
 0001:00005240       ?ref_links@RImage_Memory@stdlib@lib2d@modules@UModSys@@UEBAHXZ 0000000180006240 f i umodsys_lib_lib2d:umodsys.mod.2d.stdlib.obj
 0001:00005240       ?ref_links@RRenderDriver2D@SDL_core@ui@modules@UModSys@@UEBAHXZ 0000000180006240 f i umodsys_lib_libui:umodsys.mod.ui.SDL_core.obj
 0001:00005240       ?ref_links@RGenerator@images_std@media@modules@UModSys@@UEBAHXZ 0000000180006240 f i umodsys_lib_libmedia:umodsys.mod.media.images_std.obj
 0001:00005240       ?ref_links@RDialog@frames@ui@modules@UModSys@@UEBAHXZ 0000000180006240 f i umodsys_lib_libui:umodsys.mod.ui.frames.obj
 0001:00005240       ?ref_links@RGenerator@stdlib@lib2d@modules@UModSys@@UEBAHXZ 0000000180006240 f i umodsys_lib_lib2d:umodsys.mod.2d.stdlib.obj
 0001:00005240       ?ref_links@RTerminal@SDL_core@ui@modules@UModSys@@UEBAHXZ 0000000180006240 f i umodsys_lib_libui:umodsys.mod.ui.SDL_core.obj
 0001:00005240       ?ref_links@RSerializeReader@serialize_json@media@modules@UModSys@@UEBAHXZ 0000000180006240 f i umodsys_lib_libmedia:umodsys.mod.media.serialize_json.obj
 0001:00005240       ?ref_links@RGenerator@serialize_json@media@modules@UModSys@@UEBAHXZ 0000000180006240 f i umodsys_lib_libmedia:umodsys.mod.media.serialize_json.obj
 0001:00005240       ?ref_links@RGenerator@SDL_core@ui@modules@UModSys@@UEBAHXZ 0000000180006240 f i umodsys_lib_libui:umodsys.mod.ui.SDL_core.obj
 0001:00005240       ?ref_links@RGenerator@frames@ui@modules@UModSys@@UEBAHXZ 0000000180006240 f i umodsys_lib_libui:umodsys.mod.ui.frames.obj
 0001:00005240       ?ref_links@RMouseController@SDL_core@ui@modules@UModSys@@UEBAHXZ 0000000180006240 f i umodsys_lib_libui:umodsys.mod.ui.SDL_core.obj
 0001:00005240       ?ref_links@RKeyboardController@SDL_core@ui@modules@UModSys@@UEBAHXZ 0000000180006240 f i umodsys_lib_libui:umodsys.mod.ui.SDL_core.obj
 0001:00005240       ?ref_links@RGenerator@test1@test@modules@UModSys@@UEBAHXZ 0000000180006240 f i plugin_test1.obj
 0001:00005240       ?ref_links@RMultiImage2D_SDL_ttf@SDL_core@ui@modules@UModSys@@UEBAHXZ 0000000180006240 f i umodsys_lib_libui:umodsys.mod.ui.SDL_core.obj
 0001:00005250       ??0RTerminal@SDL_core@ui@modules@UModSys@@QEAA@PEAUIModObject@base@4@AEBUSParameters@core@4@@Z 0000000180006250 f i umodsys_lib_libui:umodsys.mod.ui.SDL_core.obj
 0001:00005300       ??1RTerminal@SDL_core@ui@modules@UModSys@@UEAA@XZ 0000000180006300 f i umodsys_lib_libui:umodsys.mod.ui.SDL_core.obj
 0001:000053c0       ?poll_events@RTerminal@SDL_core@ui@modules@UModSys@@UEAA_NH@Z 00000001800063c0 f i umodsys_lib_libui:umodsys.mod.ui.SDL_core.obj
 0001:00005530       ?get_terminal_state@RTerminal@SDL_core@ui@modules@UModSys@@UEAA_NW4eTerminalState@libui@5@@Z 0000000180006530 f i umodsys_lib_libui:umodsys.mod.ui.SDL_core.obj
 0001:00005540       ?set_terminal_state@RTerminal@SDL_core@ui@modules@UModSys@@UEAA_NW4eTerminalState@libui@5@_N@Z 0000000180006540 f i umodsys_lib_libui:umodsys.mod.ui.SDL_core.obj
 0001:000055d0       ?get_clock@RTerminal@SDL_core@ui@modules@UModSys@@UEAANXZ 00000001800065d0 f i umodsys_lib_libui:umodsys.mod.ui.SDL_core.obj
 0001:000055f0       ?wait@RTerminal@SDL_core@ui@modules@UModSys@@UEAA_NM@Z 00000001800065f0 f i umodsys_lib_libui:umodsys.mod.ui.SDL_core.obj
 0001:00005610       ?get_count@RTerminal@SDL_core@ui@modules@UModSys@@UEBA_KPEBUSUniquePointerInfo@core@5@@Z 0000000180006610 f i umodsys_lib_libui:umodsys.mod.ui.SDL_core.obj
 0001:00005650       ?get_handler@RTerminal@SDL_core@ui@modules@UModSys@@UEBAPEAUIRefObject@core@5@PEBUSUniquePointerInfo@75@_K@Z 0000000180006650 f i umodsys_lib_libui:umodsys.mod.ui.SDL_core.obj
 0001:00005690       ?create_handler@RTerminal@SDL_core@ui@modules@UModSys@@UEAA_NPEBUSUniquePointerInfo@core@5@AEAU?$TRefObject@UIRefObject@core@UModSys@@U?$TRefObjectFunc@UIRefObject@core@UModSys@@@tl@3@@tl@5@PEBDPEBUSParameters@75@@Z 0000000180006690 f i umodsys_lib_libui:umodsys.mod.ui.SDL_core.obj
 0001:000059a0       ??_ERTerminal@SDL_core@ui@modules@UModSys@@UEAAPEAXI@Z 00000001800069a0 f i  CIL library: CIL module
 0001:000059a0       ??_GRTerminal@SDL_core@ui@modules@UModSys@@UEAAPEAXI@Z 00000001800069a0 f i umodsys_lib_libui:umodsys.mod.ui.SDL_core.obj
 0001:000059d0       ?get_generated_names@RGenerator@SDL_core@ui@modules@UModSys@@UEBAHAEAUSUniquePtrList@core@5@@Z 00000001800069d0 f i umodsys_lib_libui:umodsys.mod.ui.SDL_core.obj
 0001:000059f0       ?get_generated_types@RGenerator@SDL_core@ui@modules@UModSys@@UEBAHAEAUSUniquePtrList@core@5@PEBUSUniquePointerInfo@75@@Z 00000001800069f0 f i umodsys_lib_libui:umodsys.mod.ui.SDL_core.obj
 0001:00005a50       ?generate@RGenerator@SDL_core@ui@modules@UModSys@@UEAA_NAEAU?$TRefObject@UIRefObject@core@UModSys@@U?$TRefObjectFunc@UIRefObject@core@UModSys@@@tl@3@@tl@5@PEBUSUniquePointerInfo@core@5@AEBUSParameters@95@@Z 0000000180006a50 f i umodsys_lib_libui:umodsys.mod.ui.SDL_core.obj
 0001:00005ad0       ?root_get_interface_info@RGenerator@SDL_core@ui@modules@UModSys@@UEBAAEBUSUniquePointerInfo@core@5@XZ 0000000180006ad0 f i umodsys_lib_libui:umodsys.mod.ui.SDL_core.obj
 0001:00005ae0       ?root_get_interface_type@RGenerator@SDL_core@ui@modules@UModSys@@UEBAPEBUSUniquePointerInfo@core@5@XZ 0000000180006ae0 f i umodsys_lib_libui:umodsys.mod.ui.SDL_core.obj
 0001:00005af0       ?root_get_other_interface@RGenerator@SDL_core@ui@modules@UModSys@@UEAAPEAUIRoot@core@5@PEBUSUniquePointerInfo@75@@Z 0000000180006af0 f i umodsys_lib_libui:umodsys.mod.ui.SDL_core.obj
 0001:00005af0       ?root_get_other_interface@RGenerator@SDL_core@ui@modules@UModSys@@UEBAPEBUIRoot@core@5@PEBUSUniquePointerInfo@75@@Z 0000000180006af0 f i umodsys_lib_libui:umodsys.mod.ui.SDL_core.obj
 0001:00005b30       ?root_is_interface_supported@RGenerator@SDL_core@ui@modules@UModSys@@UEBA_NPEBUSUniquePointerInfo@core@5@@Z 0000000180006b30 f i umodsys_lib_libui:umodsys.mod.ui.SDL_core.obj
 0001:00005b70       ?ref_weak@RDialog@frames@ui@modules@UModSys@@UEBA_NAEAUWeakPointer@IRefObject@core@5@@Z 0000000180006b70 f i umodsys_lib_libui:umodsys.mod.ui.frames.obj
 0001:00005b70       ?ref_weak@RImage_Memory@stdlib@lib2d@modules@UModSys@@UEBA_NAEAUWeakPointer@IRefObject@core@5@@Z 0000000180006b70 f i umodsys_lib_lib2d:umodsys.mod.2d.stdlib.obj
 0001:00005b70       ?ref_weak@RGenerator@test1@test@modules@UModSys@@UEBA_NAEAUWeakPointer@IRefObject@core@5@@Z 0000000180006b70 f i plugin_test1.obj
 0001:00005b70       ?ref_weak@RMultiImage2D_SDL_ttf@SDL_core@ui@modules@UModSys@@UEBA_NAEAUWeakPointer@IRefObject@core@5@@Z 0000000180006b70 f i umodsys_lib_libui:umodsys.mod.ui.SDL_core.obj
 0001:00005b70       ?ref_weak@RGenerator@images_std@media@modules@UModSys@@UEBA_NAEAUWeakPointer@IRefObject@core@5@@Z 0000000180006b70 f i umodsys_lib_libmedia:umodsys.mod.media.images_std.obj
 0001:00005b70       ?ref_weak@RKeyboardController@SDL_core@ui@modules@UModSys@@UEBA_NAEAUWeakPointer@IRefObject@core@5@@Z 0000000180006b70 f i umodsys_lib_libui:umodsys.mod.ui.SDL_core.obj
 0001:00005b70       ?ref_weak@RTerminal@SDL_core@ui@modules@UModSys@@UEBA_NAEAUWeakPointer@IRefObject@core@5@@Z 0000000180006b70 f i umodsys_lib_libui:umodsys.mod.ui.SDL_core.obj
 0001:00005b70       ?ref_weak@RRenderDriver2D@SDL_core@ui@modules@UModSys@@UEBA_NAEAUWeakPointer@IRefObject@core@5@@Z 0000000180006b70 f i umodsys_lib_libui:umodsys.mod.ui.SDL_core.obj
 0001:00005b70       ?ref_weak@RGenerator@stdlib@lib2d@modules@UModSys@@UEBA_NAEAUWeakPointer@IRefObject@core@5@@Z 0000000180006b70 f i umodsys_lib_lib2d:umodsys.mod.2d.stdlib.obj
 0001:00005b70       ?ref_weak@RGenerator@SDL_core@ui@modules@UModSys@@UEBA_NAEAUWeakPointer@IRefObject@core@5@@Z 0000000180006b70 f i umodsys_lib_libui:umodsys.mod.ui.SDL_core.obj
 0001:00005b70       ?ref_weak@RGenerator@serialize_json@media@modules@UModSys@@UEBA_NAEAUWeakPointer@IRefObject@core@5@@Z 0000000180006b70 f i umodsys_lib_libmedia:umodsys.mod.media.serialize_json.obj
 0001:00005b70       ?ref_weak@RGenerator@frames@ui@modules@UModSys@@UEBA_NAEAUWeakPointer@IRefObject@core@5@@Z 0000000180006b70 f i umodsys_lib_libui:umodsys.mod.ui.frames.obj
 0001:00005b70       ?ref_weak@RSerializeReader@serialize_json@media@modules@UModSys@@UEBA_NAEAUWeakPointer@IRefObject@core@5@@Z 0000000180006b70 f i umodsys_lib_libmedia:umodsys.mod.media.serialize_json.obj
 0001:00005b70       ?ref_weak@RMouseController@SDL_core@ui@modules@UModSys@@UEBA_NAEAUWeakPointer@IRefObject@core@5@@Z 0000000180006b70 f i umodsys_lib_libui:umodsys.mod.ui.SDL_core.obj
 0001:00005b90       ?get_uid@RGenerator@SDL_core@ui@modules@UModSys@@UEBAPEBUSUniquePointerInfo@core@5@XZ 0000000180006b90 f i umodsys_lib_libui:umodsys.mod.ui.SDL_core.obj
 0001:00005ba0       ?do_open@RModuleReg@SDL_core@ui@modules@UModSys@@UEAA_NXZ 0000000180006ba0 f i umodsys_lib_libui:umodsys.mod.ui.SDL_core.obj
 0001:00005bb0       ?do_close@RModuleReg@SDL_core@ui@modules@UModSys@@UEAA_NXZ 0000000180006bb0 f i umodsys_lib_libui:umodsys.mod.ui.SDL_core.obj
 0001:00005bc0       ??_ERModuleReg@SDL_core@ui@modules@UModSys@@UEAAPEAXI@Z 0000000180006bc0 f i  CIL library: CIL module
 0001:00005bc0       ??_GRModuleReg@SDL_core@ui@modules@UModSys@@UEAAPEAXI@Z 0000000180006bc0 f i umodsys_lib_libui:umodsys.mod.ui.SDL_core.obj
 0001:00005bf0       ??1?$TScatterArray@UGlyph@RMultiImage2D_SDL_ttf@SDL_core@ui@modules@UModSys@@HU?$TScalarCompare@H@core@6@U?$TNodeDeleter0@U?$TScatterArrayNode@UGlyph@RMultiImage2D_SDL_ttf@SDL_core@ui@modules@UModSys@@H@tl@UModSys@@@tl@6@@tl@UModSys@@QEAA@XZ 0000000180006bf0 f i umodsys_lib_libui:umodsys.mod.ui.SDL_core.obj
 0001:00005c20       ??1?$TRefObject@URMultiImage2D_SDL_ttf@SDL_core@ui@modules@UModSys@@U?$TRefObjectWeakFunc@URMultiImage2D_SDL_ttf@SDL_core@ui@modules@UModSys@@@tl@5@@tl@UModSys@@QEAA@XZ 0000000180006c20 f i umodsys_lib_libui:umodsys.mod.ui.SDL_core.obj
 0001:00005c20       ??1?$TRefObject@URRenderDriver2D@SDL_core@ui@modules@UModSys@@U?$TRefObjectWeakFunc@URRenderDriver2D@SDL_core@ui@modules@UModSys@@@tl@5@@tl@UModSys@@QEAA@XZ 0000000180006c20 f i umodsys_lib_libui:umodsys.mod.ui.SDL_core.obj
 0001:00005c60       ??R?$TNodeDeleter0@U?$TScatterArrayNode@U?$TRefObjectCompositeExtra@UIMouseClient@libui@UModSys@@HUIRefObject@core@3@U?$TRefObjectFunc@UIRefObject@core@UModSys@@@tl@3@@tl@UModSys@@H@tl@UModSys@@@tl@UModSys@@QEBAHPEAU?$TScatterArrayNode@U?$TRefObjectCompositeExtra@UIMouseClient@libui@UModSys@@HUIRefObject@core@3@U?$TRefObjectFunc@UIRefObject@core@UModSys@@@tl@3@@tl@UModSys@@H@12@@Z 0000000180006c60 f i umodsys_lib_libui:umodsys.mod.ui.SDL_core.obj
 0001:00005c60       ??R?$TNodeDeleter0@U?$TScatterArrayNode@U?$TRefObjectComposite@UIKeyboardClient@libui@UModSys@@UIRefObject@core@3@U?$TRefObjectFunc@UIRefObject@core@UModSys@@@tl@3@@tl@UModSys@@H@tl@UModSys@@@tl@UModSys@@QEBAHPEAU?$TScatterArrayNode@U?$TRefObjectComposite@UIKeyboardClient@libui@UModSys@@UIRefObject@core@3@U?$TRefObjectFunc@UIRefObject@core@UModSys@@@tl@3@@tl@UModSys@@H@12@@Z 0000000180006c60 f i umodsys_lib_libui:umodsys.mod.ui.SDL_core.obj
 0001:00005ce0       ?remove_node@?$TTreeHoldRB@U?$TScatterArrayNode@U?$TRefObjectCompositeExtra@UIMouseClient@libui@UModSys@@HUIRefObject@core@3@U?$TRefObjectFunc@UIRefObject@core@UModSys@@@tl@3@@tl@UModSys@@H@tl@UModSys@@@tl@UModSys@@QEAAXPEAU?$TScatterArrayNode@U?$TRefObjectCompositeExtra@UIMouseClient@libui@UModSys@@HUIRefObject@core@3@U?$TRefObjectFunc@UIRefObject@core@UModSys@@@tl@3@@tl@UModSys@@H@23@@Z 0000000180006ce0 f i umodsys_lib_libui:umodsys.mod.ui.SDL_core.obj
 0001:00005ce0       ?remove_node@?$TTreeHoldRB@U?$TScatterArrayNode@U?$TRefObjectComposite@UIKeyboardClient@libui@UModSys@@UIRefObject@core@3@U?$TRefObjectFunc@UIRefObject@core@UModSys@@@tl@3@@tl@UModSys@@H@tl@UModSys@@@tl@UModSys@@QEAAXPEAU?$TScatterArrayNode@U?$TRefObjectComposite@UIKeyboardClient@libui@UModSys@@UIRefObject@core@3@U?$TRefObjectFunc@UIRefObject@core@UModSys@@@tl@3@@tl@UModSys@@H@23@@Z 0000000180006ce0 f i umodsys_lib_libui:umodsys.mod.ui.SDL_core.obj
 0001:00005e00       ??1?$TPair@HU?$TRefObjectComposite@UIKeyboardClient@libui@UModSys@@UIRefObject@core@3@U?$TRefObjectFunc@UIRefObject@core@UModSys@@@tl@3@@tl@UModSys@@@tl@UModSys@@QEAA@XZ 0000000180006e00 f i umodsys_lib_libui:umodsys.mod.ui.SDL_core.obj
 0001:00005e00       ??1?$TPair@HU?$TRefObjectCompositeExtra@UIMouseClient@libui@UModSys@@HUIRefObject@core@3@U?$TRefObjectFunc@UIRefObject@core@UModSys@@@tl@3@@tl@UModSys@@@tl@UModSys@@QEAA@XZ 0000000180006e00 f i umodsys_lib_libui:umodsys.mod.ui.SDL_core.obj
 0001:00005e50       ??1?$TRefObjectComposite@UIKeyboardClient@libui@UModSys@@UIRefObject@core@3@U?$TRefObjectFunc@UIRefObject@core@UModSys@@@tl@3@@tl@UModSys@@QEAA@XZ 0000000180006e50 f i umodsys_lib_libui:umodsys.mod.ui.SDL_core.obj
 0001:00005e50       ??1?$TRefObjectCompositeExtra@UIMouseClient@libui@UModSys@@HUIRefObject@core@3@U?$TRefObjectFunc@UIRefObject@core@UModSys@@@tl@3@@tl@UModSys@@QEAA@XZ 0000000180006e50 f i umodsys_lib_libui:umodsys.mod.ui.SDL_core.obj
 0001:00005ea0       ??$t_ref_get_other_interface@URMultiImage2D_SDL_ttf@SDL_core@ui@modules@UModSys@@U?$TRefObjectWeakFunc@URMultiImage2D_SDL_ttf@SDL_core@ui@modules@UModSys@@@tl@5@@IRefObject@core@UModSys@@QEAA_NAEAU?$TRefObject@URMultiImage2D_SDL_ttf@SDL_core@ui@modules@UModSys@@U?$TRefObjectWeakFunc@URMultiImage2D_SDL_ttf@SDL_core@ui@modules@UModSys@@@tl@5@@tl@2@@Z 0000000180006ea0 f i umodsys_lib_libui:umodsys.mod.ui.SDL_core.obj
 0001:00005f20       ?remove_color@?$TTreeHoldRB@U?$TScatterArrayNode@U?$TRefObjectCompositeExtra@UIMouseClient@libui@UModSys@@HUIRefObject@core@3@U?$TRefObjectFunc@UIRefObject@core@UModSys@@@tl@3@@tl@UModSys@@H@tl@UModSys@@@tl@UModSys@@IEAAXPEAU?$TScatterArrayNode@U?$TRefObjectCompositeExtra@UIMouseClient@libui@UModSys@@HUIRefObject@core@3@U?$TRefObjectFunc@UIRefObject@core@UModSys@@@tl@3@@tl@UModSys@@H@23@0@Z 0000000180006f20 f i umodsys_lib_libui:umodsys.mod.ui.SDL_core.obj
 0001:00005f20       ?remove_color@?$TTreeHoldRB@U?$TScatterArrayNode@U?$TRefObjectComposite@UIKeyboardClient@libui@UModSys@@UIRefObject@core@3@U?$TRefObjectFunc@UIRefObject@core@UModSys@@@tl@3@@tl@UModSys@@H@tl@UModSys@@@tl@UModSys@@IEAAXPEAU?$TScatterArrayNode@U?$TRefObjectComposite@UIKeyboardClient@libui@UModSys@@UIRefObject@core@3@U?$TRefObjectFunc@UIRefObject@core@UModSys@@@tl@3@@tl@UModSys@@H@23@0@Z 0000000180006f20 f i umodsys_lib_libui:umodsys.mod.ui.SDL_core.obj
 0001:000061e0       ??$t_close@U?$TRefObject@URRenderDriver2D@SDL_core@ui@modules@UModSys@@U?$TRefObjectWeakFunc@URRenderDriver2D@SDL_core@ui@modules@UModSys@@@tl@5@@tl@UModSys@@@SDL_core@ui@modules@UModSys@@YA_NAEAU?$TScatterArray@U?$TRefObject@URRenderDriver2D@SDL_core@ui@modules@UModSys@@U?$TRefObjectWeakFunc@URRenderDriver2D@SDL_core@ui@modules@UModSys@@@tl@5@@tl@UModSys@@HU?$TScalarCompare@H@core@3@U?$TNodeDeleter0@U?$TScatterArrayNode@U?$TRefObject@URRenderDriver2D@SDL_core@ui@modules@UModSys@@U?$TRefObjectWeakFunc@URRenderDriver2D@SDL_core@ui@modules@UModSys@@@tl@5@@tl@UModSys@@H@tl@UModSys@@@23@@tl@3@@Z 00000001800071e0 f i umodsys_lib_libui:umodsys.mod.ui.SDL_core.obj
 0001:000062d0       ??$t_count@U?$TRefObject@URRenderDriver2D@SDL_core@ui@modules@UModSys@@U?$TRefObjectWeakFunc@URRenderDriver2D@SDL_core@ui@modules@UModSys@@@tl@5@@tl@UModSys@@@SDL_core@ui@modules@UModSys@@YA_KAEBU?$TScatterArray@U?$TRefObject@URRenderDriver2D@SDL_core@ui@modules@UModSys@@U?$TRefObjectWeakFunc@URRenderDriver2D@SDL_core@ui@modules@UModSys@@@tl@5@@tl@UModSys@@HU?$TScalarCompare@H@core@3@U?$TNodeDeleter0@U?$TScatterArrayNode@U?$TRefObject@URRenderDriver2D@SDL_core@ui@modules@UModSys@@U?$TRefObjectWeakFunc@URRenderDriver2D@SDL_core@ui@modules@UModSys@@@tl@5@@tl@UModSys@@H@tl@UModSys@@@23@@tl@3@@Z 00000001800072d0 f i umodsys_lib_libui:umodsys.mod.ui.SDL_core.obj
 0001:00006350       ??$t_get@U?$TRefObject@URRenderDriver2D@SDL_core@ui@modules@UModSys@@U?$TRefObjectWeakFunc@URRenderDriver2D@SDL_core@ui@modules@UModSys@@@tl@5@@tl@UModSys@@@SDL_core@ui@modules@UModSys@@YAPEAUIRefObject@core@3@AEBU?$TScatterArray@U?$TRefObject@URRenderDriver2D@SDL_core@ui@modules@UModSys@@U?$TRefObjectWeakFunc@URRenderDriver2D@SDL_core@ui@modules@UModSys@@@tl@5@@tl@UModSys@@HU?$TScalarCompare@H@core@3@U?$TNodeDeleter0@U?$TScatterArrayNode@U?$TRefObject@URRenderDriver2D@SDL_core@ui@modules@UModSys@@U?$TRefObjectWeakFunc@URRenderDriver2D@SDL_core@ui@modules@UModSys@@@tl@5@@tl@UModSys@@H@tl@UModSys@@@23@@tl@3@_K@Z 0000000180007350 f i umodsys_lib_libui:umodsys.mod.ui.SDL_core.obj
 0001:000063f0       ??$ValidateConstruction@UIRefObject@core@UModSys@@URRenderDriver2D@SDL_core@ui@modules@3@@core@UModSys@@YA_NAEAU?$TRefObject@UIRefObject@core@UModSys@@U?$TRefObjectFunc@UIRefObject@core@UModSys@@@tl@3@@tl@1@U?$TRefObject@URRenderDriver2D@SDL_core@ui@modules@UModSys@@U?$TRefObjectFunc@URRenderDriver2D@SDL_core@ui@modules@UModSys@@@tl@5@@31@@Z 00000001800073f0 f i umodsys_lib_libui:umodsys.mod.ui.SDL_core.obj
 0001:000064a0       ??$t_add@U?$TRefObject@URRenderDriver2D@SDL_core@ui@modules@UModSys@@U?$TRefObjectWeakFunc@URRenderDriver2D@SDL_core@ui@modules@UModSys@@@tl@5@@tl@UModSys@@URRenderDriver2D@SDL_core@ui@modules@3@@SDL_core@ui@modules@UModSys@@YA_NAEAU?$TScatterArray@U?$TRefObject@URRenderDriver2D@SDL_core@ui@modules@UModSys@@U?$TRefObjectWeakFunc@URRenderDriver2D@SDL_core@ui@modules@UModSys@@@tl@5@@tl@UModSys@@HU?$TScalarCompare@H@core@3@U?$TNodeDeleter0@U?$TScatterArrayNode@U?$TRefObject@URRenderDriver2D@SDL_core@ui@modules@UModSys@@U?$TRefObjectWeakFunc@URRenderDriver2D@SDL_core@ui@modules@UModSys@@@tl@5@@tl@UModSys@@H@tl@UModSys@@@23@@tl@3@PEAURRenderDriver2D@0123@@Z 00000001800074a0 f i umodsys_lib_libui:umodsys.mod.ui.SDL_core.obj
 0001:00006520       ??$ValidateConstruction@UIRefObject@core@UModSys@@URKeyboardController@SDL_core@ui@modules@3@@core@UModSys@@YA_NAEAU?$TRefObject@UIRefObject@core@UModSys@@U?$TRefObjectFunc@UIRefObject@core@UModSys@@@tl@3@@tl@1@U?$TRefObject@URKeyboardController@SDL_core@ui@modules@UModSys@@U?$TRefObjectFunc@URKeyboardController@SDL_core@ui@modules@UModSys@@@tl@5@@31@@Z 0000000180007520 f i umodsys_lib_libui:umodsys.mod.ui.SDL_core.obj
 0001:00006520       ??$ValidateConstruction@UIRefObject@core@UModSys@@URMouseController@SDL_core@ui@modules@3@@core@UModSys@@YA_NAEAU?$TRefObject@UIRefObject@core@UModSys@@U?$TRefObjectFunc@UIRefObject@core@UModSys@@@tl@3@@tl@1@U?$TRefObject@URMouseController@SDL_core@ui@modules@UModSys@@U?$TRefObjectFunc@URMouseController@SDL_core@ui@modules@UModSys@@@tl@5@@31@@Z 0000000180007520 f i umodsys_lib_libui:umodsys.mod.ui.SDL_core.obj
 0001:000065b0       ??$ValidateConstruction@UIMultiImage@lib2d@UModSys@@URMultiImage2D_SDL_ttf@SDL_core@ui@modules@3@@core@UModSys@@YA_NAEAU?$TRefObject@UIMultiImage@lib2d@UModSys@@U?$TRefObjectFunc@UIMultiImage@lib2d@UModSys@@@tl@3@@tl@1@PEAURMultiImage2D_SDL_ttf@SDL_core@ui@modules@1@@Z 00000001800075b0 f i umodsys_lib_libui:umodsys.mod.ui.SDL_core.obj
 0001:00006630       ??$genx_node@UCmp@?$TScatterArray@UGlyph@RMultiImage2D_SDL_ttf@SDL_core@ui@modules@UModSys@@HU?$TScalarCompare@H@core@6@U?$TNodeDeleter0@U?$TScatterArrayNode@UGlyph@RMultiImage2D_SDL_ttf@SDL_core@ui@modules@UModSys@@H@tl@UModSys@@@tl@6@@tl@UModSys@@UGen0@234@@?$TTreeHoldRBD@U?$TScatterArrayNode@UGlyph@RMultiImage2D_SDL_ttf@SDL_core@ui@modules@UModSys@@H@tl@UModSys@@U?$TNodeDeleter0@U?$TScatterArrayNode@UGlyph@RMultiImage2D_SDL_ttf@SDL_core@ui@modules@UModSys@@H@tl@UModSys@@@23@@tl@UModSys@@QEAAPEAU?$TScatterArrayNode@UGlyph@RMultiImage2D_SDL_ttf@SDL_core@ui@modules@UModSys@@H@12@UCmp@?$TScatterArray@UGlyph@RMultiImage2D_SDL_ttf@SDL_core@ui@modules@UModSys@@HU?$TScalarCompare@H@core@6@U?$TNodeDeleter0@U?$TScatterArrayNode@UGlyph@RMultiImage2D_SDL_ttf@SDL_core@ui@modules@UModSys@@H@tl@UModSys@@@tl@6@@12@AEBUGen0@512@PEAPEAU312@2_N@Z 0000000180007630 f i umodsys_lib_libui:umodsys.mod.ui.SDL_core.obj
 0001:000067c0       ??$genx_node@UCmp@?$TScatterArray@U?$TRefObjectCompositeExtra@UIMouseClient@libui@UModSys@@HUIRefObject@core@3@U?$TRefObjectFunc@UIRefObject@core@UModSys@@@tl@3@@tl@UModSys@@HU?$TScalarCompare@H@core@3@U?$TNodeDeleter0@U?$TScatterArrayNode@U?$TRefObjectCompositeExtra@UIMouseClient@libui@UModSys@@HUIRefObject@core@3@U?$TRefObjectFunc@UIRefObject@core@UModSys@@@tl@3@@tl@UModSys@@H@tl@UModSys@@@23@@tl@UModSys@@UGen0@234@@?$TTreeHoldRBD@U?$TScatterArrayNode@U?$TRefObjectCompositeExtra@UIMouseClient@libui@UModSys@@HUIRefObject@core@3@U?$TRefObjectFunc@UIRefObject@core@UModSys@@@tl@3@@tl@UModSys@@H@tl@UModSys@@U?$TNodeDeleter0@U?$TScatterArrayNode@U?$TRefObjectCompositeExtra@UIMouseClient@libui@UModSys@@HUIRefObject@core@3@U?$TRefObjectFunc@UIRefObject@core@UModSys@@@tl@3@@tl@UModSys@@H@tl@UModSys@@@23@@tl@UModSys@@QEAAPEAU?$TScatterArrayNode@U?$TRefObjectCompositeExtra@UIMouseClient@libui@UModSys@@HUIRefObject@core@3@U?$TRefObjectFunc@UIRefObject@core@UModSys@@@tl@3@@tl@UModSys@@H@12@UCmp@?$TScatterArray@U?$TRefObjectCompositeExtra@UIMouseClient@libui@UModSys@@HUIRefObject@core@3@U?$TRefObjectFunc@UIRefObject@core@UModSys@@@tl@3@@tl@UModSys@@HU?$TScalarCompare@H@core@3@U?$TNodeDeleter0@U?$TScatterArrayNode@U?$TRefObjectCompositeExtra@UIMouseClient@libui@UModSys@@HUIRefObject@core@3@U?$TRefObjectFunc@UIRefObject@core@UModSys@@@tl@3@@tl@UModSys@@H@tl@UModSys@@@23@@12@AEBUGen0@512@PEAPEAU312@2_N@Z 00000001800077c0 f i umodsys_lib_libui:umodsys.mod.ui.SDL_core.obj
 0001:00006910       ??$genx_node@UCmp@?$TScatterArray@U?$TRefObjectComposite@UIKeyboardClient@libui@UModSys@@UIRefObject@core@3@U?$TRefObjectFunc@UIRefObject@core@UModSys@@@tl@3@@tl@UModSys@@HU?$TScalarCompare@H@core@3@U?$TNodeDeleter0@U?$TScatterArrayNode@U?$TRefObjectComposite@UIKeyboardClient@libui@UModSys@@UIRefObject@core@3@U?$TRefObjectFunc@UIRefObject@core@UModSys@@@tl@3@@tl@UModSys@@H@tl@UModSys@@@23@@tl@UModSys@@UGen0@234@@?$TTreeHoldRBD@U?$TScatterArrayNode@U?$TRefObjectComposite@UIKeyboardClient@libui@UModSys@@UIRefObject@core@3@U?$TRefObjectFunc@UIRefObject@core@UModSys@@@tl@3@@tl@UModSys@@H@tl@UModSys@@U?$TNodeDeleter0@U?$TScatterArrayNode@U?$TRefObjectComposite@UIKeyboardClient@libui@UModSys@@UIRefObject@core@3@U?$TRefObjectFunc@UIRefObject@core@UModSys@@@tl@3@@tl@UModSys@@H@tl@UModSys@@@23@@tl@UModSys@@QEAAPEAU?$TScatterArrayNode@U?$TRefObjectComposite@UIKeyboardClient@libui@UModSys@@UIRefObject@core@3@U?$TRefObjectFunc@UIRefObject@core@UModSys@@@tl@3@@tl@UModSys@@H@12@UCmp@?$TScatterArray@U?$TRefObjectComposite@UIKeyboardClient@libui@UModSys@@UIRefObject@core@3@U?$TRefObjectFunc@UIRefObject@core@UModSys@@@tl@3@@tl@UModSys@@HU?$TScalarCompare@H@core@3@U?$TNodeDeleter0@U?$TScatterArrayNode@U?$TRefObjectComposite@UIKeyboardClient@libui@UModSys@@UIRefObject@core@3@U?$TRefObjectFunc@UIRefObject@core@UModSys@@@tl@3@@tl@UModSys@@H@tl@UModSys@@@23@@12@AEBUGen0@512@PEAPEAU312@2_N@Z 0000000180007910 f i umodsys_lib_libui:umodsys.mod.ui.SDL_core.obj
 0001:00006a50       ??$process_nodes@U?$TNodeDeleter0@U?$TScatterArrayNode@U?$TRefObjectComposite@UIKeyboardClient@libui@UModSys@@UIRefObject@core@3@U?$TRefObjectFunc@UIRefObject@core@UModSys@@@tl@3@@tl@UModSys@@H@tl@UModSys@@@tl@UModSys@@@?$TTreeHoldRB@U?$TScatterArrayNode@U?$TRefObjectComposite@UIKeyboardClient@libui@UModSys@@UIRefObject@core@3@U?$TRefObjectFunc@UIRefObject@core@UModSys@@@tl@3@@tl@UModSys@@H@tl@UModSys@@@tl@UModSys@@QEAAHAEBU?$TNodeDeleter0@U?$TScatterArrayNode@U?$TRefObjectComposite@UIKeyboardClient@libui@UModSys@@UIRefObject@core@3@U?$TRefObjectFunc@UIRefObject@core@UModSys@@@tl@3@@tl@UModSys@@H@tl@UModSys@@@12@@Z 0000000180007a50 f i umodsys_lib_libui:umodsys.mod.ui.SDL_core.obj
 0001:00006a50       ??$process_nodes@U?$TNodeDeleter0@U?$TScatterArrayNode@U?$TRefObjectCompositeExtra@UIMouseClient@libui@UModSys@@HUIRefObject@core@3@U?$TRefObjectFunc@UIRefObject@core@UModSys@@@tl@3@@tl@UModSys@@H@tl@UModSys@@@tl@UModSys@@@?$TTreeHoldRB@U?$TScatterArrayNode@U?$TRefObjectCompositeExtra@UIMouseClient@libui@UModSys@@HUIRefObject@core@3@U?$TRefObjectFunc@UIRefObject@core@UModSys@@@tl@3@@tl@UModSys@@H@tl@UModSys@@@tl@UModSys@@QEAAHAEBU?$TNodeDeleter0@U?$TScatterArrayNode@U?$TRefObjectCompositeExtra@UIMouseClient@libui@UModSys@@HUIRefObject@core@3@U?$TRefObjectFunc@UIRefObject@core@UModSys@@@tl@3@@tl@UModSys@@H@tl@UModSys@@@12@@Z 0000000180007a50 f i umodsys_lib_libui:umodsys.mod.ui.SDL_core.obj
 0001:00006ad0       ?attach@?$TRefObject@URRenderDriver2D@SDL_core@ui@modules@UModSys@@U?$TRefObjectWeakFunc@URRenderDriver2D@SDL_core@ui@modules@UModSys@@@tl@5@@tl@UModSys@@QEAAXPEAURRenderDriver2D@SDL_core@ui@modules@3@@Z 0000000180007ad0 f i umodsys_lib_libui:umodsys.mod.ui.SDL_core.obj
 0001:00006b60       ?insert_color@?$TTreeHoldRB@U?$TScatterArrayNode@U?$TVector2@M@math3d@UModSys@@H@tl@UModSys@@@tl@UModSys@@IEAAXPEAU?$TScatterArrayNode@U?$TVector2@M@math3d@UModSys@@H@23@@Z 0000000180007b60 f i umodsys_lib_libui:umodsys.mod.ui.frames.obj
 0001:00006b60       ?insert_color@?$TTreeHoldRB@U?$TScatterArrayNode@U?$TVector4@M@math3d@UModSys@@H@tl@UModSys@@@tl@UModSys@@IEAAXPEAU?$TScatterArrayNode@U?$TVector4@M@math3d@UModSys@@H@23@@Z 0000000180007b60 f i umodsys_lib_libui:umodsys.mod.ui.frames.obj
 0001:00006b60       ?insert_color@?$TTreeHoldRB@U?$TScatterArrayNode@U?$TRefObject@URRenderDriver2D@SDL_core@ui@modules@UModSys@@U?$TRefObjectWeakFunc@URRenderDriver2D@SDL_core@ui@modules@UModSys@@@tl@5@@tl@UModSys@@H@tl@UModSys@@@tl@UModSys@@IEAAXPEAU?$TScatterArrayNode@U?$TRefObject@URRenderDriver2D@SDL_core@ui@modules@UModSys@@U?$TRefObjectWeakFunc@URRenderDriver2D@SDL_core@ui@modules@UModSys@@@tl@5@@tl@UModSys@@H@23@@Z 0000000180007b60 f i umodsys_lib_libui:umodsys.mod.ui.SDL_core.obj
 0001:00006b60       ?insert_color@?$TTreeHoldRB@U?$TScatterArrayNode@HH@tl@UModSys@@@tl@UModSys@@IEAAXPEAU?$TScatterArrayNode@HH@23@@Z 0000000180007b60 f i umodsys_lib_libui:umodsys.mod.ui.frames.obj
 0001:00006b60       ?insert_color@?$TTreeHoldRB@U?$TScatterArrayNode@U?$TRefObjectCompositeExtra@UIMouseClient@libui@UModSys@@HUIRefObject@core@3@U?$TRefObjectFunc@UIRefObject@core@UModSys@@@tl@3@@tl@UModSys@@H@tl@UModSys@@@tl@UModSys@@IEAAXPEAU?$TScatterArrayNode@U?$TRefObjectCompositeExtra@UIMouseClient@libui@UModSys@@HUIRefObject@core@3@U?$TRefObjectFunc@UIRefObject@core@UModSys@@@tl@3@@tl@UModSys@@H@23@@Z 0000000180007b60 f i umodsys_lib_libui:umodsys.mod.ui.SDL_core.obj
 0001:00006b60       ?insert_color@?$TTreeHoldRB@U?$TScatterArrayNode@U?$TRefObjectComposite@UIKeyboardClient@libui@UModSys@@UIRefObject@core@3@U?$TRefObjectFunc@UIRefObject@core@UModSys@@@tl@3@@tl@UModSys@@H@tl@UModSys@@@tl@UModSys@@IEAAXPEAU?$TScatterArrayNode@U?$TRefObjectComposite@UIKeyboardClient@libui@UModSys@@UIRefObject@core@3@U?$TRefObjectFunc@UIRefObject@core@UModSys@@@tl@3@@tl@UModSys@@H@23@@Z 0000000180007b60 f i umodsys_lib_libui:umodsys.mod.ui.SDL_core.obj
 0001:00006b60       ?insert_color@?$TTreeHoldRB@U?$TScatterArrayNode@UGlyph@RMultiImage2D_SDL_ttf@SDL_core@ui@modules@UModSys@@H@tl@UModSys@@@tl@UModSys@@IEAAXPEAU?$TScatterArrayNode@UGlyph@RMultiImage2D_SDL_ttf@SDL_core@ui@modules@UModSys@@H@23@@Z 0000000180007b60 f i umodsys_lib_libui:umodsys.mod.ui.SDL_core.obj
 0001:00006d10       ??$process_nodes_r@U?$TNodeDeleter0@U?$TScatterArrayNode@UGlyph@RMultiImage2D_SDL_ttf@SDL_core@ui@modules@UModSys@@H@tl@UModSys@@@tl@UModSys@@@?$TTreeHoldRB@U?$TScatterArrayNode@UGlyph@RMultiImage2D_SDL_ttf@SDL_core@ui@modules@UModSys@@H@tl@UModSys@@@tl@UModSys@@KAHPEAU?$TScatterArrayNode@UGlyph@RMultiImage2D_SDL_ttf@SDL_core@ui@modules@UModSys@@H@12@AEBU?$TNodeDeleter0@U?$TScatterArrayNode@UGlyph@RMultiImage2D_SDL_ttf@SDL_core@ui@modules@UModSys@@H@tl@UModSys@@@12@@Z 0000000180007d10 f i umodsys_lib_libui:umodsys.mod.ui.SDL_core.obj
 0001:00006d90       ??$process_nodes_r@U?$TNodeDeleter0@U?$TScatterArrayNode@U?$TRefObjectComposite@UIKeyboardClient@libui@UModSys@@UIRefObject@core@3@U?$TRefObjectFunc@UIRefObject@core@UModSys@@@tl@3@@tl@UModSys@@H@tl@UModSys@@@tl@UModSys@@@?$TTreeHoldRB@U?$TScatterArrayNode@U?$TRefObjectComposite@UIKeyboardClient@libui@UModSys@@UIRefObject@core@3@U?$TRefObjectFunc@UIRefObject@core@UModSys@@@tl@3@@tl@UModSys@@H@tl@UModSys@@@tl@UModSys@@KAHPEAU?$TScatterArrayNode@U?$TRefObjectComposite@UIKeyboardClient@libui@UModSys@@UIRefObject@core@3@U?$TRefObjectFunc@UIRefObject@core@UModSys@@@tl@3@@tl@UModSys@@H@12@AEBU?$TNodeDeleter0@U?$TScatterArrayNode@U?$TRefObjectComposite@UIKeyboardClient@libui@UModSys@@UIRefObject@core@3@U?$TRefObjectFunc@UIRefObject@core@UModSys@@@tl@3@@tl@UModSys@@H@tl@UModSys@@@12@@Z 0000000180007d90 f i umodsys_lib_libui:umodsys.mod.ui.SDL_core.obj
 0001:00006d90       ??$process_nodes_r@U?$TNodeDeleter0@U?$TScatterArrayNode@U?$TRefObjectCompositeExtra@UIMouseClient@libui@UModSys@@HUIRefObject@core@3@U?$TRefObjectFunc@UIRefObject@core@UModSys@@@tl@3@@tl@UModSys@@H@tl@UModSys@@@tl@UModSys@@@?$TTreeHoldRB@U?$TScatterArrayNode@U?$TRefObjectCompositeExtra@UIMouseClient@libui@UModSys@@HUIRefObject@core@3@U?$TRefObjectFunc@UIRefObject@core@UModSys@@@tl@3@@tl@UModSys@@H@tl@UModSys@@@tl@UModSys@@KAHPEAU?$TScatterArrayNode@U?$TRefObjectCompositeExtra@UIMouseClient@libui@UModSys@@HUIRefObject@core@3@U?$TRefObjectFunc@UIRefObject@core@UModSys@@@tl@3@@tl@UModSys@@H@12@AEBU?$TNodeDeleter0@U?$TScatterArrayNode@U?$TRefObjectCompositeExtra@UIMouseClient@libui@UModSys@@HUIRefObject@core@3@U?$TRefObjectFunc@UIRefObject@core@UModSys@@@tl@3@@tl@UModSys@@H@tl@UModSys@@@12@@Z 0000000180007d90 f i umodsys_lib_libui:umodsys.mod.ui.SDL_core.obj
 0001:00006e00       ??$process_nodes_r@U?$TNodeDeleter0@U?$TScatterArrayNode@U?$TRefObject@URRenderDriver2D@SDL_core@ui@modules@UModSys@@U?$TRefObjectWeakFunc@URRenderDriver2D@SDL_core@ui@modules@UModSys@@@tl@5@@tl@UModSys@@H@tl@UModSys@@@tl@UModSys@@@?$TTreeHoldRB@U?$TScatterArrayNode@U?$TRefObject@URRenderDriver2D@SDL_core@ui@modules@UModSys@@U?$TRefObjectWeakFunc@URRenderDriver2D@SDL_core@ui@modules@UModSys@@@tl@5@@tl@UModSys@@H@tl@UModSys@@@tl@UModSys@@KAHPEAU?$TScatterArrayNode@U?$TRefObject@URRenderDriver2D@SDL_core@ui@modules@UModSys@@U?$TRefObjectWeakFunc@URRenderDriver2D@SDL_core@ui@modules@UModSys@@@tl@5@@tl@UModSys@@H@12@AEBU?$TNodeDeleter0@U?$TScatterArrayNode@U?$TRefObject@URRenderDriver2D@SDL_core@ui@modules@UModSys@@U?$TRefObjectWeakFunc@URRenderDriver2D@SDL_core@ui@modules@UModSys@@@tl@5@@tl@UModSys@@H@tl@UModSys@@@12@@Z 0000000180007e00 f i umodsys_lib_libui:umodsys.mod.ui.SDL_core.obj
 0001:00006ea0       ??$genx_node@UCmp@?$TScatterArray@U?$TRefObject@URRenderDriver2D@SDL_core@ui@modules@UModSys@@U?$TRefObjectWeakFunc@URRenderDriver2D@SDL_core@ui@modules@UModSys@@@tl@5@@tl@UModSys@@HU?$TScalarCompare@H@core@3@U?$TNodeDeleter0@U?$TScatterArrayNode@U?$TRefObject@URRenderDriver2D@SDL_core@ui@modules@UModSys@@U?$TRefObjectWeakFunc@URRenderDriver2D@SDL_core@ui@modules@UModSys@@@tl@5@@tl@UModSys@@H@tl@UModSys@@@23@@tl@UModSys@@UGen0@234@@?$TTreeHoldRBD@U?$TScatterArrayNode@U?$TRefObject@URRenderDriver2D@SDL_core@ui@modules@UModSys@@U?$TRefObjectWeakFunc@URRenderDriver2D@SDL_core@ui@modules@UModSys@@@tl@5@@tl@UModSys@@H@tl@UModSys@@U?$TNodeDeleter0@U?$TScatterArrayNode@U?$TRefObject@URRenderDriver2D@SDL_core@ui@modules@UModSys@@U?$TRefObjectWeakFunc@URRenderDriver2D@SDL_core@ui@modules@UModSys@@@tl@5@@tl@UModSys@@H@tl@UModSys@@@23@@tl@UModSys@@QEAAPEAU?$TScatterArrayNode@U?$TRefObject@URRenderDriver2D@SDL_core@ui@modules@UModSys@@U?$TRefObjectWeakFunc@URRenderDriver2D@SDL_core@ui@modules@UModSys@@@tl@5@@tl@UModSys@@H@12@UCmp@?$TScatterArray@U?$TRefObject@URRenderDriver2D@SDL_core@ui@modules@UModSys@@U?$TRefObjectWeakFunc@URRenderDriver2D@SDL_core@ui@modules@UModSys@@@tl@5@@tl@UModSys@@HU?$TScalarCompare@H@core@3@U?$TNodeDeleter0@U?$TScatterArrayNode@U?$TRefObject@URRenderDriver2D@SDL_core@ui@modules@UModSys@@U?$TRefObjectWeakFunc@URRenderDriver2D@SDL_core@ui@modules@UModSys@@@tl@5@@tl@UModSys@@H@tl@UModSys@@@23@@12@AEBUGen0@512@PEAPEAU312@2_N@Z 0000000180007ea0 f i umodsys_lib_libui:umodsys.mod.ui.SDL_core.obj
 0001:00006fe0       ?ss@SFrameDataOut@libui@UModSys@@QEBAXAEBU?$TString@U?$TSCoreShared@USIMemAlloc@core@UModSys@@D@su@tl@UModSys@@U?$TComparerBinaryHash@D@234@@tl@3@@Z 0000000180007fe0 f i umodsys_lib_libui:umodsys.mod.ui.frames.obj
 0001:00007050       ??1SController@libui@UModSys@@QEAA@XZ 0000000180008050 f i umodsys_lib_libui:umodsys.mod.ui.frames.obj
 0001:000070a0       ?db_get_i@SController@libui@UModSys@@QEAAHQEBD@Z 00000001800080a0 f i umodsys_lib_libui:umodsys.mod.ui.frames.obj
 0001:00007150       ?update_size@libui@UModSys@@YA_NAEAU?$TBoundBox2@H@math3d@2@AEBUSFrameSize@12@AEBU342@@Z 0000000180008150 f i umodsys_lib_libui:umodsys.mod.ui.frames.obj
 0001:00007290       ?command@SController@libui@UModSys@@QEAA_NHAEBUSFrameDataIn@23@@Z 0000000180008290 f i umodsys_lib_libui:umodsys.mod.ui.frames.obj
 0001:00007320       ?get_property@ICollectorThemeTemplate@libui@UModSys@@UEBA_NHHAEAU?$TVector4@M@math3d@3@@Z 0000000180008320 f i umodsys_lib_libui:umodsys.mod.ui.frames.obj
 0001:00007340       ?get_property@ICollectorThemeTemplate@libui@UModSys@@UEBA_NHHAEAU?$TVector4@H@math3d@3@@Z 0000000180008340 f i umodsys_lib_libui:umodsys.mod.ui.frames.obj
 0001:00007360       ?get_property@ICollectorThemeTemplate@libui@UModSys@@UEBA_NHHAEAU?$TVector2@M@math3d@3@@Z 0000000180008360 f i umodsys_lib_libui:umodsys.mod.ui.frames.obj
 0001:00007380       ?get_property@ICollectorThemeTemplate@libui@UModSys@@UEBA_NHHAEAU?$TVector2@H@math3d@3@@Z 0000000180008380 f i umodsys_lib_libui:umodsys.mod.ui.frames.obj
 0001:000073a0       ?get_property@ICollectorThemeTemplate@libui@UModSys@@UEBA_NHHAEAH@Z 00000001800083a0 f i umodsys_lib_libui:umodsys.mod.ui.frames.obj
 0001:000073c0       ?set_property@ICollectorThemeTemplate@libui@UModSys@@UEAA_NHHAEBU?$TVector4@M@math3d@3@@Z 00000001800083c0 f i umodsys_lib_libui:umodsys.mod.ui.frames.obj
 0001:00007430       ?set_property@ICollectorThemeTemplate@libui@UModSys@@UEAA_NHHAEBU?$TVector4@H@math3d@3@@Z 0000000180008430 f i umodsys_lib_libui:umodsys.mod.ui.frames.obj
 0001:00007450       ?set_property@ICollectorThemeTemplate@libui@UModSys@@UEAA_NHHAEBU?$TVector2@M@math3d@3@@Z 0000000180008450 f i umodsys_lib_libui:umodsys.mod.ui.frames.obj
 0001:000074b0       ?set_property@ICollectorThemeTemplate@libui@UModSys@@UEAA_NHHAEBU?$TVector2@H@math3d@3@@Z 00000001800084b0 f i umodsys_lib_libui:umodsys.mod.ui.frames.obj
 0001:00007530       ?set_property@ICollectorThemeTemplate@libui@UModSys@@UEAA_NHHH@Z 0000000180008530 f i umodsys_lib_libui:umodsys.mod.ui.frames.obj
 0001:00007590       ??1ICollectorThemeTemplate@libui@UModSys@@QEAA@XZ 0000000180008590 f i umodsys_lib_libui:umodsys.mod.ui.frames.obj
 0001:00007600       ?set_controller@RFrame_Common@frames@ui@modules@UModSys@@UEAA_NHPEAUIController@libui@5@PEAUIRefObject@core@5@@Z 0000000180008600 f i umodsys_lib_libui:umodsys.mod.ui.frames.obj
 0001:00007680       ?get_controller@RFrame_Common@frames@ui@modules@UModSys@@UEAAPEAUIController@libui@5@XZ 0000000180008680 f i umodsys_lib_libui:umodsys.mod.ui.frames.obj
 0001:00007690       ?get_controller_context@RFrame_Common@frames@ui@modules@UModSys@@UEAAHXZ 0000000180008690 f i umodsys_lib_libui:umodsys.mod.ui.frames.obj
 0001:000076a0       ?get_box@RFrame_Common@frames@ui@modules@UModSys@@UEAAAEBU?$TBoundBox2@H@math3d@5@XZ 00000001800086a0 f i umodsys_lib_libui:umodsys.mod.ui.frames.obj
 0001:000076a0       ?get_theme@RCollector@frames@ui@modules@UModSys@@UEAAPEAUICollectorTheme@libui@5@XZ 00000001800086a0 f i umodsys_lib_libui:umodsys.mod.ui.frames.obj
 0001:000076b0       ?get_framesize@RFrame_Common@frames@ui@modules@UModSys@@UEAAAEBUSFrameSize@libui@5@XZ 00000001800086b0 f i umodsys_lib_libui:umodsys.mod.ui.frames.obj
 0001:000076c0       ?set_framesize@RFrame_Common@frames@ui@modules@UModSys@@UEAA_NAEBUSFrameSize@libui@5@@Z 00000001800086c0 f i umodsys_lib_libui:umodsys.mod.ui.frames.obj
 0001:000076f0       ?get_insize@RFrame_Common@frames@ui@modules@UModSys@@UEAA?AU?$TVector2@H@math3d@5@XZ 00000001800086f0 f i umodsys_lib_libui:umodsys.mod.ui.frames.obj
 0001:00007710       ?get_theme@RFrame_Common@frames@ui@modules@UModSys@@UEAAPEAUICollectorTheme@libui@5@XZ 0000000180008710 f i umodsys_lib_libui:umodsys.mod.ui.frames.obj
 0001:00007720       ?button_draw@RFrame_Common@frames@ui@modules@UModSys@@MEAA_NPEAUSButton@2345@AEBUSDrawState@2345@H@Z 0000000180008720 f i umodsys_lib_libui:umodsys.mod.ui.frames.obj
 0001:00007720       ?button_cmd@RFrame_Common@frames@ui@modules@UModSys@@MEAA_NPEAUSButton@2345@HH@Z 0000000180008720 f i umodsys_lib_libui:umodsys.mod.ui.frames.obj
 0001:00007720       ?draw_post@RFrame_Common@frames@ui@modules@UModSys@@MEAA_NAEBUSDrawState@2345@@Z 0000000180008720 f i umodsys_lib_libui:umodsys.mod.ui.frames.obj
 0001:00007720       ?controller_update@RFrame_Common@frames@ui@modules@UModSys@@UEAA_NXZ 0000000180008720 f i umodsys_lib_libui:umodsys.mod.ui.frames.obj
 0001:00007720       ?draw_pre@RFrame_Common@frames@ui@modules@UModSys@@MEAA_NAEBUSDrawState@2345@@Z 0000000180008720 f i umodsys_lib_libui:umodsys.mod.ui.frames.obj
 0001:00007730       ??_GRFrame_Common@frames@ui@modules@UModSys@@UEAAPEAXI@Z 0000000180008730 f i umodsys_lib_libui:umodsys.mod.ui.frames.obj
 0001:00007730       ??_ERFrame_Common@frames@ui@modules@UModSys@@UEAAPEAXI@Z 0000000180008730 f i  CIL library: CIL module
 0001:00007760       ?root_get_interface_info@RDialog@frames@ui@modules@UModSys@@UEBAAEBUSUniquePointerInfo@core@5@XZ 0000000180008760 f i umodsys_lib_libui:umodsys.mod.ui.frames.obj
 0001:00007770       ?root_get_interface_type@RDialog@frames@ui@modules@UModSys@@UEBAPEBUSUniquePointerInfo@core@5@XZ 0000000180008770 f i umodsys_lib_libui:umodsys.mod.ui.frames.obj
 0001:00007780       ?root_get_other_interface@RDialog@frames@ui@modules@UModSys@@UEBAPEBUIRoot@core@5@PEBUSUniquePointerInfo@75@@Z 0000000180008780 f i umodsys_lib_libui:umodsys.mod.ui.frames.obj
 0001:00007780       ?root_get_other_interface@RDialog@frames@ui@modules@UModSys@@UEAAPEAUIRoot@core@5@PEBUSUniquePointerInfo@75@@Z 0000000180008780 f i umodsys_lib_libui:umodsys.mod.ui.frames.obj
 0001:000077b0       ?root_is_interface_supported@RDialog@frames@ui@modules@UModSys@@UEBA_NPEBUSUniquePointerInfo@core@5@@Z 00000001800087b0 f i umodsys_lib_libui:umodsys.mod.ui.frames.obj
 0001:000077e0       ??_GRDialog@frames@ui@modules@UModSys@@UEAAPEAXI@Z 00000001800087e0 f i umodsys_lib_libui:umodsys.mod.ui.frames.obj
 0001:000077e0       ??_ERDialog@frames@ui@modules@UModSys@@UEAAPEAXI@Z 00000001800087e0 f i  CIL library: CIL module
 0001:00007810       ?root_get_interface_info@RFrame_Frame@frames@ui@modules@UModSys@@UEBAAEBUSUniquePointerInfo@core@5@XZ 0000000180008810 f i umodsys_lib_libui:umodsys.mod.ui.frames.obj
 0001:00007820       ?root_get_interface_type@RFrame_Frame@frames@ui@modules@UModSys@@UEBAPEBUSUniquePointerInfo@core@5@XZ 0000000180008820 f i umodsys_lib_libui:umodsys.mod.ui.frames.obj
 0001:00007830       ?root_get_other_interface@RFrame_Frame@frames@ui@modules@UModSys@@UEAAPEAUIRoot@core@5@PEBUSUniquePointerInfo@75@@Z 0000000180008830 f i umodsys_lib_libui:umodsys.mod.ui.frames.obj
 0001:00007830       ?root_get_other_interface@RFrame_Frame@frames@ui@modules@UModSys@@UEBAPEBUIRoot@core@5@PEBUSUniquePointerInfo@75@@Z 0000000180008830 f i umodsys_lib_libui:umodsys.mod.ui.frames.obj
 0001:00007870       ?root_is_interface_supported@RFrame_Frame@frames@ui@modules@UModSys@@UEBA_NPEBUSUniquePointerInfo@core@5@@Z 0000000180008870 f i umodsys_lib_libui:umodsys.mod.ui.frames.obj
 0001:000078b0       ?suicide@RFrame_Frame@frames@ui@modules@UModSys@@UEAAXXZ 00000001800088b0 f i umodsys_lib_libui:umodsys.mod.ui.frames.obj
 0001:000078b0       ?suicide@RFrame_Button@frames@ui@modules@UModSys@@UEAAXXZ 00000001800088b0 f i umodsys_lib_libui:umodsys.mod.ui.frames.obj
 0001:000078b0       ?suicide@RFrame_Image@frames@ui@modules@UModSys@@UEAAXXZ 00000001800088b0 f i umodsys_lib_libui:umodsys.mod.ui.frames.obj
 0001:00007900       ?get_cids@RFrame_Frame@frames@ui@modules@UModSys@@UEAA?AU?$TString@U?$TSCoreConst@D@su@tl@UModSys@@U?$TComparerBinaryHash@D@234@@tl@5@XZ 0000000180008900 f i umodsys_lib_libui:umodsys.mod.ui.frames.obj
 0001:00007950       ?get_cidn@RFrame_Frame@frames@ui@modules@UModSys@@UEAAHXZ 0000000180008950 f i umodsys_lib_libui:umodsys.mod.ui.frames.obj
 0001:00007960       ?get_list@RFrame_Frame@frames@ui@modules@UModSys@@UEAAPEAUIFrameList@libui@5@XZ 0000000180008960 f i umodsys_lib_libui:umodsys.mod.ui.frames.obj
 0001:00007960       ?get_list@RFrame_Image@frames@ui@modules@UModSys@@UEAAPEAUIFrameList@libui@5@XZ 0000000180008960 f i umodsys_lib_libui:umodsys.mod.ui.frames.obj
 0001:00007960       ?get_ctrlcmd@RFrame_Edit@frames@ui@modules@UModSys@@UEAAPEAUIControllerCommand@libui@5@XZ 0000000180008960 f i umodsys_lib_libui:umodsys.mod.ui.frames.obj
 0001:00007960       ?get_ctrlcmd@RFrame_Frame@frames@ui@modules@UModSys@@UEAAPEAUIControllerCommand@libui@5@XZ 0000000180008960 f i umodsys_lib_libui:umodsys.mod.ui.frames.obj
 0001:00007960       ?get_ctrldata@RFrame_Text@frames@ui@modules@UModSys@@UEAAPEAUIControllerData@libui@5@XZ 0000000180008960 f i umodsys_lib_libui:umodsys.mod.ui.frames.obj
 0001:00007960       ?get_ctrldata@RFrame_Image@frames@ui@modules@UModSys@@UEAAPEAUIControllerData@libui@5@XZ 0000000180008960 f i umodsys_lib_libui:umodsys.mod.ui.frames.obj
 0001:00007960       ?get_list@RFrame_Text@frames@ui@modules@UModSys@@UEAAPEAUIFrameList@libui@5@XZ 0000000180008960 f i umodsys_lib_libui:umodsys.mod.ui.frames.obj
 0001:00007960       ?get_data@RFrame_Image@frames@ui@modules@UModSys@@UEAAPEAUIFrameData@libui@5@XZ 0000000180008960 f i umodsys_lib_libui:umodsys.mod.ui.frames.obj
 0001:00007960       ?get_ctrldata@RFrame_List@frames@ui@modules@UModSys@@UEAAPEAUIControllerData@libui@5@XZ 0000000180008960 f i umodsys_lib_libui:umodsys.mod.ui.frames.obj
 0001:00007960       ?get_ctrlcmd@RFrame_Image@frames@ui@modules@UModSys@@UEAAPEAUIControllerCommand@libui@5@XZ 0000000180008960 f i umodsys_lib_libui:umodsys.mod.ui.frames.obj
 0001:00007960       ?get_ctrlcmd@RFrame_Text@frames@ui@modules@UModSys@@UEAAPEAUIControllerCommand@libui@5@XZ 0000000180008960 f i umodsys_lib_libui:umodsys.mod.ui.frames.obj
 0001:00007960       ?get_ctrldata@RFrame_Button@frames@ui@modules@UModSys@@UEAAPEAUIControllerData@libui@5@XZ 0000000180008960 f i umodsys_lib_libui:umodsys.mod.ui.frames.obj
 0001:00007960       ?get_controller@RRenderDriver2D@SDL_core@ui@modules@UModSys@@UEBAPEAUIRefObject@core@5@PEBUSUniquePointerInfo@75@@Z 0000000180008960 f i umodsys_lib_libui:umodsys.mod.ui.SDL_core.obj
 0001:00007960       ?get_ctrldata@RFrame_Edit@frames@ui@modules@UModSys@@UEAAPEAUIControllerData@libui@5@XZ 0000000180008960 f i umodsys_lib_libui:umodsys.mod.ui.frames.obj
 0001:00007960       ?get_up_theme@RCollector@frames@ui@modules@UModSys@@UEAAPEAUICollectorTheme@libui@5@XZ 0000000180008960 f i umodsys_lib_libui:umodsys.mod.ui.frames.obj
 0001:00007960       ?get_list@RFrame_Button@frames@ui@modules@UModSys@@UEAAPEAUIFrameList@libui@5@XZ 0000000180008960 f i umodsys_lib_libui:umodsys.mod.ui.frames.obj
 0001:00007960       ?get_list@RFrame_Edit@frames@ui@modules@UModSys@@UEAAPEAUIFrameList@libui@5@XZ 0000000180008960 f i umodsys_lib_libui:umodsys.mod.ui.frames.obj
 0001:00007960       ?get_layer@RMultiImage2D_SDL_ttf@SDL_core@ui@modules@UModSys@@UEAAPEAUIImage@lib2d@5@H@Z 0000000180008960 f i umodsys_lib_libui:umodsys.mod.ui.SDL_core.obj
 0001:00007960       ?get_handler@RTerminal@SDL_core@ui@modules@UModSys@@UEBAPEAUIRefObject@core@5@PEBUSUniquePointerInfo@75@PEBD@Z 0000000180008960 f i umodsys_lib_libui:umodsys.mod.ui.SDL_core.obj
 0001:00007960       ?get_ctrlcmd@RFrame_List@frames@ui@modules@UModSys@@UEAAPEAUIControllerCommand@libui@5@XZ 0000000180008960 f i umodsys_lib_libui:umodsys.mod.ui.frames.obj
 0001:00007960       ?get_friend_handler@RTerminal@SDL_core@ui@modules@UModSys@@UEBAPEAUIRefObject@core@5@PEBUSUniquePointerInfo@75@PEAU675@@Z 0000000180008960 f i umodsys_lib_libui:umodsys.mod.ui.SDL_core.obj
 0001:00007960       ?get_ctrlcmd@RFrame_Button@frames@ui@modules@UModSys@@UEAAPEAUIControllerCommand@libui@5@XZ 0000000180008960 f i umodsys_lib_libui:umodsys.mod.ui.frames.obj
 0001:00007960       ?get_data@RFrame_Button@frames@ui@modules@UModSys@@UEAAPEAUIFrameData@libui@5@XZ 0000000180008960 f i umodsys_lib_libui:umodsys.mod.ui.frames.obj
 0001:00007960       ?get_hwinfo@RImage_Memory@stdlib@lib2d@modules@UModSys@@UEAAPEAXPEBUSUniquePointerInfo@core@5@@Z 0000000180008960 f i umodsys_lib_lib2d:umodsys.mod.2d.stdlib.obj
 0001:00007960       ?get_data@RFrame_Frame@frames@ui@modules@UModSys@@UEAAPEAUIFrameData@libui@5@XZ 0000000180008960 f i umodsys_lib_libui:umodsys.mod.ui.frames.obj
 0001:00007960       ?get_hwcinfo@RImage_Memory@stdlib@lib2d@modules@UModSys@@UEBAPEBXPEBUSUniquePointerInfo@core@5@@Z 0000000180008960 f i umodsys_lib_lib2d:umodsys.mod.2d.stdlib.obj
 0001:00007960       ?get_ctrldata@RFrame_Frame@frames@ui@modules@UModSys@@UEAAPEAUIControllerData@libui@5@XZ 0000000180008960 f i umodsys_lib_libui:umodsys.mod.ui.frames.obj
 0001:00007970       ?root_get_interface_info@RFrame_Image@frames@ui@modules@UModSys@@UEBAAEBUSUniquePointerInfo@core@5@XZ 0000000180008970 f i umodsys_lib_libui:umodsys.mod.ui.frames.obj
 0001:00007980       ?root_get_interface_type@RFrame_Image@frames@ui@modules@UModSys@@UEBAPEBUSUniquePointerInfo@core@5@XZ 0000000180008980 f i umodsys_lib_libui:umodsys.mod.ui.frames.obj
 0001:00007990       ?root_get_other_interface@RFrame_Image@frames@ui@modules@UModSys@@UEBAPEBUIRoot@core@5@PEBUSUniquePointerInfo@75@@Z 0000000180008990 f i umodsys_lib_libui:umodsys.mod.ui.frames.obj
 0001:00007990       ?root_get_other_interface@RFrame_Image@frames@ui@modules@UModSys@@UEAAPEAUIRoot@core@5@PEBUSUniquePointerInfo@75@@Z 0000000180008990 f i umodsys_lib_libui:umodsys.mod.ui.frames.obj
 0001:000079d0       ?root_is_interface_supported@RFrame_Image@frames@ui@modules@UModSys@@UEBA_NPEBUSUniquePointerInfo@core@5@@Z 00000001800089d0 f i umodsys_lib_libui:umodsys.mod.ui.frames.obj
 0001:00007a10       ?ref_add@RFrame_Button@frames@ui@modules@UModSys@@UEBAXXZ 0000000180008a10 f i umodsys_lib_libui:umodsys.mod.ui.frames.obj
 0001:00007a10       ?ref_add@RFrame_Frame@frames@ui@modules@UModSys@@UEBAXXZ 0000000180008a10 f i umodsys_lib_libui:umodsys.mod.ui.frames.obj
 0001:00007a10       ?ref_add@RFrame_Image@frames@ui@modules@UModSys@@UEBAXXZ 0000000180008a10 f i umodsys_lib_libui:umodsys.mod.ui.frames.obj
 0001:00007a20       ?ref_links@RFrame_Frame@frames@ui@modules@UModSys@@UEBAHXZ 0000000180008a20 f i umodsys_lib_libui:umodsys.mod.ui.frames.obj
 0001:00007a20       ?ref_links@RFrame_Button@frames@ui@modules@UModSys@@UEBAHXZ 0000000180008a20 f i umodsys_lib_libui:umodsys.mod.ui.frames.obj
 0001:00007a20       ?ref_links@RFrame_Image@frames@ui@modules@UModSys@@UEBAHXZ 0000000180008a20 f i umodsys_lib_libui:umodsys.mod.ui.frames.obj
 0001:00007a30       ?get_cids@RFrame_Image@frames@ui@modules@UModSys@@UEAA?AU?$TString@U?$TSCoreConst@D@su@tl@UModSys@@U?$TComparerBinaryHash@D@234@@tl@5@XZ 0000000180008a30 f i umodsys_lib_libui:umodsys.mod.ui.frames.obj
 0001:00007a80       ?get_cidn@RFrame_Image@frames@ui@modules@UModSys@@UEAAHXZ 0000000180008a80 f i umodsys_lib_libui:umodsys.mod.ui.frames.obj
 0001:00007a90       ?root_get_interface_info@RFrame_Text@frames@ui@modules@UModSys@@UEBAAEBUSUniquePointerInfo@core@5@XZ 0000000180008a90 f i umodsys_lib_libui:umodsys.mod.ui.frames.obj
 0001:00007aa0       ?root_get_interface_type@RFrame_Text@frames@ui@modules@UModSys@@UEBAPEBUSUniquePointerInfo@core@5@XZ 0000000180008aa0 f i umodsys_lib_libui:umodsys.mod.ui.frames.obj
 0001:00007ab0       ?root_get_other_interface@RFrame_Text@frames@ui@modules@UModSys@@UEBAPEBUIRoot@core@5@PEBUSUniquePointerInfo@75@@Z 0000000180008ab0 f i umodsys_lib_libui:umodsys.mod.ui.frames.obj
 0001:00007ab0       ?root_get_other_interface@RFrame_Text@frames@ui@modules@UModSys@@UEAAPEAUIRoot@core@5@PEBUSUniquePointerInfo@75@@Z 0000000180008ab0 f i umodsys_lib_libui:umodsys.mod.ui.frames.obj
 0001:00007af0       ?root_is_interface_supported@RFrame_Text@frames@ui@modules@UModSys@@UEBA_NPEBUSUniquePointerInfo@core@5@@Z 0000000180008af0 f i umodsys_lib_libui:umodsys.mod.ui.frames.obj
 0001:00007b30       ?ref_links@RFrame_Edit@frames@ui@modules@UModSys@@UEBAHXZ 0000000180008b30 f i umodsys_lib_libui:umodsys.mod.ui.frames.obj
 0001:00007b30       ?ref_links@RFrame_Text@frames@ui@modules@UModSys@@UEBAHXZ 0000000180008b30 f i umodsys_lib_libui:umodsys.mod.ui.frames.obj
 0001:00007b40       ?ref_weak@RFrame_Edit@frames@ui@modules@UModSys@@UEBA_NAEAUWeakPointer@IRefObject@core@5@@Z 0000000180008b40 f i umodsys_lib_libui:umodsys.mod.ui.frames.obj
 0001:00007b40       ?ref_weak@RFrame_Text@frames@ui@modules@UModSys@@UEBA_NAEAUWeakPointer@IRefObject@core@5@@Z 0000000180008b40 f i umodsys_lib_libui:umodsys.mod.ui.frames.obj
 0001:00007b70       ?get_cids@RFrame_Text@frames@ui@modules@UModSys@@UEAA?AU?$TString@U?$TSCoreConst@D@su@tl@UModSys@@U?$TComparerBinaryHash@D@234@@tl@5@XZ 0000000180008b70 f i umodsys_lib_libui:umodsys.mod.ui.frames.obj
 0001:00007b70       ?get_cids@RFrame_Button@frames@ui@modules@UModSys@@UEAA?AU?$TString@U?$TSCoreConst@D@su@tl@UModSys@@U?$TComparerBinaryHash@D@234@@tl@5@XZ 0000000180008b70 f i umodsys_lib_libui:umodsys.mod.ui.frames.obj
 0001:00007b70       ?get_cids@RFrame_List@frames@ui@modules@UModSys@@UEAA?AU?$TString@U?$TSCoreConst@D@su@tl@UModSys@@U?$TComparerBinaryHash@D@234@@tl@5@XZ 0000000180008b70 f i umodsys_lib_libui:umodsys.mod.ui.frames.obj
 0001:00007bc0       ??_GRFrame_Frame@frames@ui@modules@UModSys@@UEAAPEAXI@Z 0000000180008bc0 f i umodsys_lib_libui:umodsys.mod.ui.frames.obj
 0001:00007bc0       ??_ERFrame_Frame@frames@ui@modules@UModSys@@UEAAPEAXI@Z 0000000180008bc0 f i  CIL library: CIL module
 0001:00007bf0       ??_ERFrame_Text@frames@ui@modules@UModSys@@UEAAPEAXI@Z 0000000180008bf0 f i  CIL library: CIL module
 0001:00007bf0       ??_GRFrame_Text@frames@ui@modules@UModSys@@UEAAPEAXI@Z 0000000180008bf0 f i umodsys_lib_libui:umodsys.mod.ui.frames.obj
 0001:00007c20       ??_GRFrame_Image@frames@ui@modules@UModSys@@UEAAPEAXI@Z 0000000180008c20 f i umodsys_lib_libui:umodsys.mod.ui.frames.obj
 0001:00007c20       ??_ERFrame_Image@frames@ui@modules@UModSys@@UEAAPEAXI@Z 0000000180008c20 f i  CIL library: CIL module
 0001:00007c50       ?root_get_interface_info@RFrame_Button@frames@ui@modules@UModSys@@UEBAAEBUSUniquePointerInfo@core@5@XZ 0000000180008c50 f i umodsys_lib_libui:umodsys.mod.ui.frames.obj
 0001:00007c60       ?root_get_interface_type@RFrame_Button@frames@ui@modules@UModSys@@UEBAPEBUSUniquePointerInfo@core@5@XZ 0000000180008c60 f i umodsys_lib_libui:umodsys.mod.ui.frames.obj
 0001:00007c70       ?root_get_other_interface@RFrame_Button@frames@ui@modules@UModSys@@UEAAPEAUIRoot@core@5@PEBUSUniquePointerInfo@75@@Z 0000000180008c70 f i umodsys_lib_libui:umodsys.mod.ui.frames.obj
 0001:00007c70       ?root_get_other_interface@RFrame_Button@frames@ui@modules@UModSys@@UEBAPEBUIRoot@core@5@PEBUSUniquePointerInfo@75@@Z 0000000180008c70 f i umodsys_lib_libui:umodsys.mod.ui.frames.obj
 0001:00007cb0       ?root_is_interface_supported@RFrame_Button@frames@ui@modules@UModSys@@UEBA_NPEBUSUniquePointerInfo@core@5@@Z 0000000180008cb0 f i umodsys_lib_libui:umodsys.mod.ui.frames.obj
 0001:00007cf0       ?ref_remove@RFrame_Image@frames@ui@modules@UModSys@@UEBAXXZ 0000000180008cf0 f i umodsys_lib_libui:umodsys.mod.ui.frames.obj
 0001:00007cf0       ?ref_remove@RFrame_Button@frames@ui@modules@UModSys@@UEBAXXZ 0000000180008cf0 f i umodsys_lib_libui:umodsys.mod.ui.frames.obj
 0001:00007cf0       ?ref_remove@RFrame_Frame@frames@ui@modules@UModSys@@UEBAXXZ 0000000180008cf0 f i umodsys_lib_libui:umodsys.mod.ui.frames.obj
 0001:00007d10       ?ref_weak@RFrame_Frame@frames@ui@modules@UModSys@@UEBA_NAEAUWeakPointer@IRefObject@core@5@@Z 0000000180008d10 f i umodsys_lib_libui:umodsys.mod.ui.frames.obj
 0001:00007d10       ?ref_weak@RFrame_Button@frames@ui@modules@UModSys@@UEBA_NAEAUWeakPointer@IRefObject@core@5@@Z 0000000180008d10 f i umodsys_lib_libui:umodsys.mod.ui.frames.obj
 0001:00007d10       ?ref_weak@RFrame_Image@frames@ui@modules@UModSys@@UEBA_NAEAUWeakPointer@IRefObject@core@5@@Z 0000000180008d10 f i umodsys_lib_libui:umodsys.mod.ui.frames.obj
 0001:00007d40       ??_GRFrame_Button@frames@ui@modules@UModSys@@UEAAPEAXI@Z 0000000180008d40 f i umodsys_lib_libui:umodsys.mod.ui.frames.obj
 0001:00007d40       ??_ERFrame_Button@frames@ui@modules@UModSys@@UEAAPEAXI@Z 0000000180008d40 f i  CIL library: CIL module
 0001:00007d70       ?root_get_interface_info@RFrame_Edit@frames@ui@modules@UModSys@@UEBAAEBUSUniquePointerInfo@core@5@XZ 0000000180008d70 f i umodsys_lib_libui:umodsys.mod.ui.frames.obj
 0001:00007d80       ?root_get_interface_type@RFrame_Edit@frames@ui@modules@UModSys@@UEBAPEBUSUniquePointerInfo@core@5@XZ 0000000180008d80 f i umodsys_lib_libui:umodsys.mod.ui.frames.obj
 0001:00007d90       ?root_get_other_interface@RFrame_Edit@frames@ui@modules@UModSys@@UEBAPEBUIRoot@core@5@PEBUSUniquePointerInfo@75@@Z 0000000180008d90 f i umodsys_lib_libui:umodsys.mod.ui.frames.obj
 0001:00007d90       ?root_get_other_interface@RFrame_Edit@frames@ui@modules@UModSys@@UEAAPEAUIRoot@core@5@PEBUSUniquePointerInfo@75@@Z 0000000180008d90 f i umodsys_lib_libui:umodsys.mod.ui.frames.obj
 0001:00007dd0       ?root_is_interface_supported@RFrame_Edit@frames@ui@modules@UModSys@@UEBA_NPEBUSUniquePointerInfo@core@5@@Z 0000000180008dd0 f i umodsys_lib_libui:umodsys.mod.ui.frames.obj
 0001:00007e10       ?ref_add@RFrame_Edit@frames@ui@modules@UModSys@@UEBAXXZ 0000000180008e10 f i umodsys_lib_libui:umodsys.mod.ui.frames.obj
 0001:00007e10       ?ref_add@RFrame_Text@frames@ui@modules@UModSys@@UEBAXXZ 0000000180008e10 f i umodsys_lib_libui:umodsys.mod.ui.frames.obj
 0001:00007e20       ?ref_remove@RFrame_Edit@frames@ui@modules@UModSys@@UEBAXXZ 0000000180008e20 f i umodsys_lib_libui:umodsys.mod.ui.frames.obj
 0001:00007e20       ?ref_remove@RFrame_Text@frames@ui@modules@UModSys@@UEBAXXZ 0000000180008e20 f i umodsys_lib_libui:umodsys.mod.ui.frames.obj
 0001:00007e40       ?suicide@RFrame_Edit@frames@ui@modules@UModSys@@UEAAXXZ 0000000180008e40 f i umodsys_lib_libui:umodsys.mod.ui.frames.obj
 0001:00007e40       ?suicide@RFrame_Text@frames@ui@modules@UModSys@@UEAAXXZ 0000000180008e40 f i umodsys_lib_libui:umodsys.mod.ui.frames.obj
 0001:00007e90       ?get_cids@RFrame_Edit@frames@ui@modules@UModSys@@UEAA?AU?$TString@U?$TSCoreConst@D@su@tl@UModSys@@U?$TComparerBinaryHash@D@234@@tl@5@XZ 0000000180008e90 f i umodsys_lib_libui:umodsys.mod.ui.frames.obj
 0001:00007ee0       ?get_cidn@RFrame_Edit@frames@ui@modules@UModSys@@UEAAHXZ 0000000180008ee0 f i umodsys_lib_libui:umodsys.mod.ui.frames.obj
 0001:00007ef0       ??_GRFrame_Edit@frames@ui@modules@UModSys@@UEAAPEAXI@Z 0000000180008ef0 f i umodsys_lib_libui:umodsys.mod.ui.frames.obj
 0001:00007ef0       ??_ERFrame_Edit@frames@ui@modules@UModSys@@UEAAPEAXI@Z 0000000180008ef0 f i  CIL library: CIL module
 0001:00007f20       ??1?$TStringBuf@U?$TSCoreShared@USIMemAlloc@core@UModSys@@D@su@tl@UModSys@@U?$TComparerBinaryHash@D@234@@tl@UModSys@@QEAA@XZ 0000000180008f20 f i umodsys_lib_libui:umodsys.mod.ui.frames.obj
 0001:00007f70       ?root_get_interface_info@RFrame_List@frames@ui@modules@UModSys@@UEBAAEBUSUniquePointerInfo@core@5@XZ 0000000180008f70 f i umodsys_lib_libui:umodsys.mod.ui.frames.obj
 0001:00007f80       ?root_get_interface_type@RFrame_List@frames@ui@modules@UModSys@@UEBAPEBUSUniquePointerInfo@core@5@XZ 0000000180008f80 f i umodsys_lib_libui:umodsys.mod.ui.frames.obj
 0001:00007f90       ?root_get_other_interface@RFrame_List@frames@ui@modules@UModSys@@UEAAPEAUIRoot@core@5@PEBUSUniquePointerInfo@75@@Z 0000000180008f90 f i umodsys_lib_libui:umodsys.mod.ui.frames.obj
 0001:00007f90       ?root_get_other_interface@RFrame_List@frames@ui@modules@UModSys@@UEBAPEBUIRoot@core@5@PEBUSUniquePointerInfo@75@@Z 0000000180008f90 f i umodsys_lib_libui:umodsys.mod.ui.frames.obj
 0001:00007fd0       ?root_is_interface_supported@RFrame_List@frames@ui@modules@UModSys@@UEBA_NPEBUSUniquePointerInfo@core@5@@Z 0000000180008fd0 f i umodsys_lib_libui:umodsys.mod.ui.frames.obj
 0001:00008010       ?ref_add@RFrame_List@frames@ui@modules@UModSys@@UEBAXXZ 0000000180009010 f i umodsys_lib_libui:umodsys.mod.ui.frames.obj
 0001:00008020       ?ref_remove@RFrame_List@frames@ui@modules@UModSys@@UEBAXXZ 0000000180009020 f i umodsys_lib_libui:umodsys.mod.ui.frames.obj
 0001:00008040       ?ref_links@RFrame_List@frames@ui@modules@UModSys@@UEBAHXZ 0000000180009040 f i umodsys_lib_libui:umodsys.mod.ui.frames.obj
 0001:00008050       ?ref_weak@RFrame_List@frames@ui@modules@UModSys@@UEBA_NAEAUWeakPointer@IRefObject@core@5@@Z 0000000180009050 f i umodsys_lib_libui:umodsys.mod.ui.frames.obj
 0001:00008080       ?suicide@RFrame_List@frames@ui@modules@UModSys@@UEAAXXZ 0000000180009080 f i umodsys_lib_libui:umodsys.mod.ui.frames.obj
 0001:000080d0       ?get_cidn@RFrame_Text@frames@ui@modules@UModSys@@UEAAHXZ 00000001800090d0 f i umodsys_lib_libui:umodsys.mod.ui.frames.obj
 0001:000080d0       ?get_cidn@RFrame_List@frames@ui@modules@UModSys@@UEAAHXZ 00000001800090d0 f i umodsys_lib_libui:umodsys.mod.ui.frames.obj
 0001:000080d0       ?get_cidn@RFrame_Button@frames@ui@modules@UModSys@@UEAAHXZ 00000001800090d0 f i umodsys_lib_libui:umodsys.mod.ui.frames.obj
 0001:000080e0       ?get_data@RFrame_Edit@frames@ui@modules@UModSys@@UEAAPEAUIFrameData@libui@5@XZ 00000001800090e0 f i umodsys_lib_libui:umodsys.mod.ui.frames.obj
 0001:000080e0       ?get_list@RFrame_List@frames@ui@modules@UModSys@@UEAAPEAUIFrameList@libui@5@XZ 00000001800090e0 f i umodsys_lib_libui:umodsys.mod.ui.frames.obj
 0001:000080e0       ?get_data@RFrame_Text@frames@ui@modules@UModSys@@UEAAPEAUIFrameData@libui@5@XZ 00000001800090e0 f i umodsys_lib_libui:umodsys.mod.ui.frames.obj
 0001:000080f0       ?get_data@RFrame_List@frames@ui@modules@UModSys@@UEAAPEAUIFrameData@libui@5@XZ 00000001800090f0 f i umodsys_lib_libui:umodsys.mod.ui.frames.obj
 0001:00008100       ??_ERFrame_List@frames@ui@modules@UModSys@@UEAAPEAXI@Z 0000000180009100 f i  CIL library: CIL module
 0001:00008100       ??_GRFrame_List@frames@ui@modules@UModSys@@UEAAPEAXI@Z 0000000180009100 f i umodsys_lib_libui:umodsys.mod.ui.frames.obj
 0001:00008130       ?root_get_interface_info@RCollector@frames@ui@modules@UModSys@@UEBAAEBUSUniquePointerInfo@core@5@XZ 0000000180009130 f i umodsys_lib_libui:umodsys.mod.ui.frames.obj
 0001:00008140       ?root_get_interface_type@RCollector@frames@ui@modules@UModSys@@UEBAPEBUSUniquePointerInfo@core@5@XZ 0000000180009140 f i umodsys_lib_libui:umodsys.mod.ui.frames.obj
 0001:00008150       ?root_get_other_interface@RCollector@frames@ui@modules@UModSys@@UEAAPEAUIRoot@core@5@PEBUSUniquePointerInfo@75@@Z 0000000180009150 f i umodsys_lib_libui:umodsys.mod.ui.frames.obj
 0001:00008150       ?root_get_other_interface@RCollector@frames@ui@modules@UModSys@@UEBAPEBUIRoot@core@5@PEBUSUniquePointerInfo@75@@Z 0000000180009150 f i umodsys_lib_libui:umodsys.mod.ui.frames.obj
 0001:00008180       ?root_is_interface_supported@RCollector@frames@ui@modules@UModSys@@UEBA_NPEBUSUniquePointerInfo@core@5@@Z 0000000180009180 f i umodsys_lib_libui:umodsys.mod.ui.frames.obj
 0001:000081b0       ?ref_add@RCollector@frames@ui@modules@UModSys@@UEBAXXZ 00000001800091b0 f i umodsys_lib_libui:umodsys.mod.ui.frames.obj
 0001:000081c0       ?ref_remove@RCollector@frames@ui@modules@UModSys@@UEBAXXZ 00000001800091c0 f i umodsys_lib_libui:umodsys.mod.ui.frames.obj
 0001:000081e0       ?ref_links@RCollector@frames@ui@modules@UModSys@@UEBAHXZ 00000001800091e0 f i umodsys_lib_libui:umodsys.mod.ui.frames.obj
 0001:000081f0       ?ref_weak@RCollector@frames@ui@modules@UModSys@@UEBA_NAEAUWeakPointer@IRefObject@core@5@@Z 00000001800091f0 f i umodsys_lib_libui:umodsys.mod.ui.frames.obj
 0001:00008210       ?suicide@RCollector@frames@ui@modules@UModSys@@UEAAXXZ 0000000180009210 f i umodsys_lib_libui:umodsys.mod.ui.frames.obj
 0001:00008260       ?broadcast@RCollector@frames@ui@modules@UModSys@@UEAAHHAEBUSFrameDataIn@libui@5@H@Z 0000000180009260 f i umodsys_lib_libui:umodsys.mod.ui.frames.obj
 0001:00008290       ??_ERCollector@frames@ui@modules@UModSys@@UEAAPEAXI@Z 0000000180009290 f i  CIL library: CIL module
 0001:00008290       ??_GRCollector@frames@ui@modules@UModSys@@UEAAPEAXI@Z 0000000180009290 f i umodsys_lib_libui:umodsys.mod.ui.frames.obj
 0001:000082c0       ?get_up_theme@RFrame_Common@frames@ui@modules@UModSys@@UEAAPEAUICollectorTheme@libui@5@XZ 00000001800092c0 f i umodsys_lib_libui:umodsys.mod.ui.frames.obj
 0001:000082e0       ?draw_button@SButton@frames@ui@modules@UModSys@@QEAA_NAEBUSDrawState@2345@HH@Z 00000001800092e0 f i umodsys_lib_libui:umodsys.mod.ui.frames.obj
 0001:00008370       ?draw_text@SButton@frames@ui@modules@UModSys@@QEAA_NAEBUSDrawState@2345@AEBU?$TString@U?$TSCoreConst@D@su@tl@UModSys@@U?$TComparerBinaryHash@D@234@@tl@5@HH@Z 0000000180009370 f i umodsys_lib_libui:umodsys.mod.ui.frames.obj
 0001:000084e0       ?get_generated_names@RGenerator@frames@ui@modules@UModSys@@UEBAHAEAUSUniquePtrList@core@5@@Z 00000001800094e0 f i umodsys_lib_libui:umodsys.mod.ui.frames.obj
 0001:00008500       ?get_generated_types@RGenerator@frames@ui@modules@UModSys@@UEBAHAEAUSUniquePtrList@core@5@PEBUSUniquePointerInfo@75@@Z 0000000180009500 f i umodsys_lib_libui:umodsys.mod.ui.frames.obj
 0001:00008560       ?generate@RGenerator@frames@ui@modules@UModSys@@UEAA_NAEAU?$TRefObject@UIRefObject@core@UModSys@@U?$TRefObjectFunc@UIRefObject@core@UModSys@@@tl@3@@tl@5@PEBUSUniquePointerInfo@core@5@AEBUSParameters@95@@Z 0000000180009560 f i umodsys_lib_libui:umodsys.mod.ui.frames.obj
 0001:000085e0       ?root_get_interface_info@RGenerator@frames@ui@modules@UModSys@@UEBAAEBUSUniquePointerInfo@core@5@XZ 00000001800095e0 f i umodsys_lib_libui:umodsys.mod.ui.frames.obj
 0001:000085f0       ?root_get_interface_type@RGenerator@frames@ui@modules@UModSys@@UEBAPEBUSUniquePointerInfo@core@5@XZ 00000001800095f0 f i umodsys_lib_libui:umodsys.mod.ui.frames.obj
 0001:00008600       ?root_get_other_interface@RGenerator@frames@ui@modules@UModSys@@UEBAPEBUIRoot@core@5@PEBUSUniquePointerInfo@75@@Z 0000000180009600 f i umodsys_lib_libui:umodsys.mod.ui.frames.obj
 0001:00008600       ?root_get_other_interface@RGenerator@frames@ui@modules@UModSys@@UEAAPEAUIRoot@core@5@PEBUSUniquePointerInfo@75@@Z 0000000180009600 f i umodsys_lib_libui:umodsys.mod.ui.frames.obj
 0001:00008640       ?root_is_interface_supported@RGenerator@frames@ui@modules@UModSys@@UEBA_NPEBUSUniquePointerInfo@core@5@@Z 0000000180009640 f i umodsys_lib_libui:umodsys.mod.ui.frames.obj
 0001:00008680       ?get_uid@RGenerator@frames@ui@modules@UModSys@@UEBAPEBUSUniquePointerInfo@core@5@XZ 0000000180009680 f i umodsys_lib_libui:umodsys.mod.ui.frames.obj
 0001:00008690       ?do_open@RModuleReg@frames@ui@modules@UModSys@@UEAA_NXZ 0000000180009690 f i umodsys_lib_libui:umodsys.mod.ui.frames.obj
 0001:000086a0       ?do_close@RModuleReg@frames@ui@modules@UModSys@@UEAA_NXZ 00000001800096a0 f i umodsys_lib_libui:umodsys.mod.ui.frames.obj
 0001:000086b0       ??_GRModuleReg@frames@ui@modules@UModSys@@UEAAPEAXI@Z 00000001800096b0 f i umodsys_lib_libui:umodsys.mod.ui.frames.obj
 0001:000086b0       ??_ERModuleReg@frames@ui@modules@UModSys@@UEAAPEAXI@Z 00000001800096b0 f i  CIL library: CIL module
 0001:000086e0       ??4?$TString@U?$TSCoreShared@USIMemAlloc@core@UModSys@@D@su@tl@UModSys@@U?$TComparerBinaryHash@D@234@@tl@UModSys@@QEAAAEBU012@AEBU012@@Z 00000001800096e0 f i umodsys_lib_libui:umodsys.mod.ui.frames.obj
 0001:00008750       ??1?$TScatterArray@U?$TVector4@M@math3d@UModSys@@HU?$TScalarCompare@H@core@3@U?$TNodeDeleter0@U?$TScatterArrayNode@U?$TVector4@M@math3d@UModSys@@H@tl@UModSys@@@tl@3@@tl@UModSys@@QEAA@XZ 0000000180009750 f i umodsys_lib_libui:umodsys.mod.ui.frames.obj
 0001:00008750       ??1?$TScatterArray@U?$TVector2@M@math3d@UModSys@@HU?$TScalarCompare@H@core@3@U?$TNodeDeleter0@U?$TScatterArrayNode@U?$TVector2@M@math3d@UModSys@@H@tl@UModSys@@@tl@3@@tl@UModSys@@QEAA@XZ 0000000180009750 f i umodsys_lib_libui:umodsys.mod.ui.frames.obj
 0001:00008770       ??1?$TDynarrayDynamic@U?$TRefObject@URFrame_Common@frames@ui@modules@UModSys@@U?$TRefObjectFunc@URFrame_Common@frames@ui@modules@UModSys@@@tl@5@@tl@UModSys@@U?$TAllocator@USIMemAlloc@core@UModSys@@USCountCalcPower2@23@@23@@tl@UModSys@@QEAA@XZ 0000000180009770 f i umodsys_lib_libui:umodsys.mod.ui.frames.obj
 0001:00008770       ??1?$TDynarrayDynamic@U?$TRefObject@URDialog@frames@ui@modules@UModSys@@U?$TRefObjectFunc@URDialog@frames@ui@modules@UModSys@@@tl@5@@tl@UModSys@@U?$TAllocator@USIMemAlloc@core@UModSys@@USCountCalcPower2@23@@23@@tl@UModSys@@QEAA@XZ 0000000180009770 f i umodsys_lib_libui:umodsys.mod.ui.frames.obj
 0001:00008780       ?Push@?$TDynarray@U?$TDynarrayHolderDynamic@U?$TRefObject@URFrame_Common@frames@ui@modules@UModSys@@U?$TRefObjectFunc@URFrame_Common@frames@ui@modules@UModSys@@@tl@5@@tl@UModSys@@U?$TAllocator@USIMemAlloc@core@UModSys@@USCountCalcPower2@23@@23@@tl@UModSys@@@tl@UModSys@@QEAA_NXZ 0000000180009780 f i umodsys_lib_libui:umodsys.mod.ui.frames.obj
 0001:00008780       ?Push@?$TDynarray@U?$TDynarrayHolderDynamic@U?$TRefObject@URDialog@frames@ui@modules@UModSys@@U?$TRefObjectFunc@URDialog@frames@ui@modules@UModSys@@@tl@5@@tl@UModSys@@U?$TAllocator@USIMemAlloc@core@UModSys@@USCountCalcPower2@23@@23@@tl@UModSys@@@tl@UModSys@@QEAA_NXZ 0000000180009780 f i umodsys_lib_libui:umodsys.mod.ui.frames.obj
 0001:00008830       ?Pop@?$TDynarray@U?$TDynarrayHolderDynamic@U?$TRefObject@URDialog@frames@ui@modules@UModSys@@U?$TRefObjectFunc@URDialog@frames@ui@modules@UModSys@@@tl@5@@tl@UModSys@@U?$TAllocator@USIMemAlloc@core@UModSys@@USCountCalcPower2@23@@23@@tl@UModSys@@@tl@UModSys@@QEAA_NXZ 0000000180009830 f i umodsys_lib_libui:umodsys.mod.ui.frames.obj
 0001:00008880       ??1?$TDynarray@U?$TDynarrayHolderDynamic@U?$TRefObject@URDialog@frames@ui@modules@UModSys@@U?$TRefObjectFunc@URDialog@frames@ui@modules@UModSys@@@tl@5@@tl@UModSys@@U?$TAllocator@USIMemAlloc@core@UModSys@@USCountCalcPower2@23@@23@@tl@UModSys@@@tl@UModSys@@QEAA@XZ 0000000180009880 f i umodsys_lib_libui:umodsys.mod.ui.frames.obj
 0001:00008880       ??1?$TDynarray@U?$TDynarrayHolderDynamic@U?$TRefObject@URFrame_Common@frames@ui@modules@UModSys@@U?$TRefObjectFunc@URFrame_Common@frames@ui@modules@UModSys@@@tl@5@@tl@UModSys@@U?$TAllocator@USIMemAlloc@core@UModSys@@USCountCalcPower2@23@@23@@tl@UModSys@@@tl@UModSys@@QEAA@XZ 0000000180009880 f i umodsys_lib_libui:umodsys.mod.ui.frames.obj
 0001:000088f0       ??1?$TDynarray@U?$TDynarrayHolderDynamic@UListItem@RFrame_List@frames@ui@modules@UModSys@@U?$TAllocator@USIMemAlloc@core@UModSys@@USCountCalcPower2@23@@tl@6@@tl@UModSys@@@tl@UModSys@@QEAA@XZ 00000001800098f0 f i umodsys_lib_libui:umodsys.mod.ui.frames.obj
 0001:00008960       ??$t_get@U?$TScatterArray@U?$TVector4@M@math3d@UModSys@@HU?$TScalarCompare@H@core@3@U?$TNodeDeleter0@U?$TScatterArrayNode@U?$TVector4@M@math3d@UModSys@@H@tl@UModSys@@@tl@3@@tl@UModSys@@U?$TVector4@M@math3d@3@@ICollectorThemeTemplate@libui@UModSys@@IEBA_NAEBU?$TScatterArray@U?$TVector4@M@math3d@UModSys@@HU?$TScalarCompare@H@core@3@U?$TNodeDeleter0@U?$TScatterArrayNode@U?$TVector4@M@math3d@UModSys@@H@tl@UModSys@@@tl@3@@tl@2@HHAEAU?$TVector4@M@math3d@2@@Z 0000000180009960 f i umodsys_lib_libui:umodsys.mod.ui.frames.obj
 0001:00008a30       ??$t_get@U?$TScatterArray@U?$TVector4@M@math3d@UModSys@@HU?$TScalarCompare@H@core@3@U?$TNodeDeleter0@U?$TScatterArrayNode@U?$TVector4@M@math3d@UModSys@@H@tl@UModSys@@@tl@3@@tl@UModSys@@U?$TVector4@H@math3d@3@@ICollectorThemeTemplate@libui@UModSys@@IEBA_NAEBU?$TScatterArray@U?$TVector4@M@math3d@UModSys@@HU?$TScalarCompare@H@core@3@U?$TNodeDeleter0@U?$TScatterArrayNode@U?$TVector4@M@math3d@UModSys@@H@tl@UModSys@@@tl@3@@tl@2@HHAEAU?$TVector4@H@math3d@2@@Z 0000000180009a30 f i umodsys_lib_libui:umodsys.mod.ui.frames.obj
 0001:00008b50       ??$t_get@U?$TScatterArray@U?$TVector2@M@math3d@UModSys@@HU?$TScalarCompare@H@core@3@U?$TNodeDeleter0@U?$TScatterArrayNode@U?$TVector2@M@math3d@UModSys@@H@tl@UModSys@@@tl@3@@tl@UModSys@@U?$TVector2@M@math3d@3@@ICollectorThemeTemplate@libui@UModSys@@IEBA_NAEBU?$TScatterArray@U?$TVector2@M@math3d@UModSys@@HU?$TScalarCompare@H@core@3@U?$TNodeDeleter0@U?$TScatterArrayNode@U?$TVector2@M@math3d@UModSys@@H@tl@UModSys@@@tl@3@@tl@2@HHAEAU?$TVector2@M@math3d@2@@Z 0000000180009b50 f i umodsys_lib_libui:umodsys.mod.ui.frames.obj
 0001:00008c10       ??$t_get@U?$TScatterArray@U?$TVector2@M@math3d@UModSys@@HU?$TScalarCompare@H@core@3@U?$TNodeDeleter0@U?$TScatterArrayNode@U?$TVector2@M@math3d@UModSys@@H@tl@UModSys@@@tl@3@@tl@UModSys@@U?$TVector2@H@math3d@3@@ICollectorThemeTemplate@libui@UModSys@@IEBA_NAEBU?$TScatterArray@U?$TVector2@M@math3d@UModSys@@HU?$TScalarCompare@H@core@3@U?$TNodeDeleter0@U?$TScatterArrayNode@U?$TVector2@M@math3d@UModSys@@H@tl@UModSys@@@tl@3@@tl@2@HHAEAU?$TVector2@H@math3d@2@@Z 0000000180009c10 f i umodsys_lib_libui:umodsys.mod.ui.frames.obj
 0001:00008ce0       ??$t_get@U?$TScatterArray@HHU?$TScalarCompare@H@core@UModSys@@U?$TNodeDeleter0@U?$TScatterArrayNode@HH@tl@UModSys@@@tl@3@@tl@UModSys@@H@ICollectorThemeTemplate@libui@UModSys@@IEBA_NAEBU?$TScatterArray@HHU?$TScalarCompare@H@core@UModSys@@U?$TNodeDeleter0@U?$TScatterArrayNode@HH@tl@UModSys@@@tl@3@@tl@2@HHAEAH@Z 0000000180009ce0 f i umodsys_lib_libui:umodsys.mod.ui.frames.obj
 0001:00008da0       ??$t_set@U?$TScatterArray@U?$TVector4@M@math3d@UModSys@@HU?$TScalarCompare@H@core@3@U?$TNodeDeleter0@U?$TScatterArrayNode@U?$TVector4@M@math3d@UModSys@@H@tl@UModSys@@@tl@3@@tl@UModSys@@U?$TVector4@H@math3d@3@@ICollectorThemeTemplate@libui@UModSys@@IEAA_NAEAU?$TScatterArray@U?$TVector4@M@math3d@UModSys@@HU?$TScalarCompare@H@core@3@U?$TNodeDeleter0@U?$TScatterArrayNode@U?$TVector4@M@math3d@UModSys@@H@tl@UModSys@@@tl@3@@tl@2@HHAEBU?$TVector4@H@math3d@2@@Z 0000000180009da0 f i umodsys_lib_libui:umodsys.mod.ui.frames.obj
 0001:00008e80       ??$smemmove@H@su@tl@UModSys@@YAXPEAHPEBH_K@Z 0000000180009e80 f i umodsys_lib_libui:umodsys.mod.ui.frames.obj
 0001:00008e90       ?ResizeRel@?$TDynarray@U?$TDynarrayHolderDynamic@UListItem@RFrame_List@frames@ui@modules@UModSys@@U?$TAllocator@USIMemAlloc@core@UModSys@@USCountCalcPower2@23@@tl@6@@tl@UModSys@@@tl@UModSys@@QEAA_N_J@Z 0000000180009e90 f i umodsys_lib_libui:umodsys.mod.ui.frames.obj
 0001:00008fa0       ?ResizeRel@?$TDynarray@U?$TDynarrayHolderDynamic@U?$TRefObject@URDialog@frames@ui@modules@UModSys@@U?$TRefObjectFunc@URDialog@frames@ui@modules@UModSys@@@tl@5@@tl@UModSys@@U?$TAllocator@USIMemAlloc@core@UModSys@@USCountCalcPower2@23@@23@@tl@UModSys@@@tl@UModSys@@QEAA_N_J@Z 0000000180009fa0 f i umodsys_lib_libui:umodsys.mod.ui.frames.obj
 0001:00008fa0       ?ResizeRel@?$TDynarray@U?$TDynarrayHolderDynamic@U?$TRefObject@URFrame_Common@frames@ui@modules@UModSys@@U?$TRefObjectFunc@URFrame_Common@frames@ui@modules@UModSys@@@tl@5@@tl@UModSys@@U?$TAllocator@USIMemAlloc@core@UModSys@@USCountCalcPower2@23@@23@@tl@UModSys@@@tl@UModSys@@QEAA_N_J@Z 0000000180009fa0 f i umodsys_lib_libui:umodsys.mod.ui.frames.obj
 0001:000090b0       ??$process_nodes@U?$TNodeDeleter0@U?$TScatterArrayNode@U?$TVector4@M@math3d@UModSys@@H@tl@UModSys@@@tl@UModSys@@@?$TTreeHoldRB@U?$TScatterArrayNode@U?$TVector4@M@math3d@UModSys@@H@tl@UModSys@@@tl@UModSys@@QEAAHAEBU?$TNodeDeleter0@U?$TScatterArrayNode@U?$TVector4@M@math3d@UModSys@@H@tl@UModSys@@@12@@Z 000000018000a0b0 f i umodsys_lib_libui:umodsys.mod.ui.frames.obj
 0001:000090b0       ??$process_nodes@U?$TNodeDeleter0@U?$TScatterArrayNode@U?$TVector2@M@math3d@UModSys@@H@tl@UModSys@@@tl@UModSys@@@?$TTreeHoldRB@U?$TScatterArrayNode@U?$TVector2@M@math3d@UModSys@@H@tl@UModSys@@@tl@UModSys@@QEAAHAEBU?$TNodeDeleter0@U?$TScatterArrayNode@U?$TVector2@M@math3d@UModSys@@H@tl@UModSys@@@12@@Z 000000018000a0b0 f i umodsys_lib_libui:umodsys.mod.ui.frames.obj
 0001:000090b0       ??$process_nodes@U?$TNodeDeleter0@U?$TScatterArrayNode@HH@tl@UModSys@@@tl@UModSys@@@?$TTreeHoldRB@U?$TScatterArrayNode@HH@tl@UModSys@@@tl@UModSys@@QEAAHAEBU?$TNodeDeleter0@U?$TScatterArrayNode@HH@tl@UModSys@@@12@@Z 000000018000a0b0 f i umodsys_lib_libui:umodsys.mod.ui.frames.obj
 0001:00009130       ?adestruct@?$TTypeConstructor@UListItem@RFrame_List@frames@ui@modules@UModSys@@@tl@UModSys@@SAXPEAUListItem@RFrame_List@frames@ui@modules@3@_K@Z 000000018000a130 f i umodsys_lib_libui:umodsys.mod.ui.frames.obj
 0001:000091c0       ??$ValidateConstruction@UIRefObject@core@UModSys@@URCollector@frames@ui@modules@3@@core@UModSys@@YA_NAEAU?$TRefObject@UIRefObject@core@UModSys@@U?$TRefObjectFunc@UIRefObject@core@UModSys@@@tl@3@@tl@1@PEAURCollector@frames@ui@modules@1@@Z 000000018000a1c0 f i umodsys_lib_libui:umodsys.mod.ui.frames.obj
 0001:00009240       ??$process_nodes_r@U?$TNodeDeleter0@U?$TScatterArrayNode@U?$TVector4@M@math3d@UModSys@@H@tl@UModSys@@@tl@UModSys@@@?$TTreeHoldRB@U?$TScatterArrayNode@U?$TVector4@M@math3d@UModSys@@H@tl@UModSys@@@tl@UModSys@@KAHPEAU?$TScatterArrayNode@U?$TVector4@M@math3d@UModSys@@H@12@AEBU?$TNodeDeleter0@U?$TScatterArrayNode@U?$TVector4@M@math3d@UModSys@@H@tl@UModSys@@@12@@Z 000000018000a240 f i umodsys_lib_libui:umodsys.mod.ui.frames.obj
 0001:00009240       ??$process_nodes_r@U?$TNodeDeleter0@U?$TScatterArrayNode@U?$TVector2@M@math3d@UModSys@@H@tl@UModSys@@@tl@UModSys@@@?$TTreeHoldRB@U?$TScatterArrayNode@U?$TVector2@M@math3d@UModSys@@H@tl@UModSys@@@tl@UModSys@@KAHPEAU?$TScatterArrayNode@U?$TVector2@M@math3d@UModSys@@H@12@AEBU?$TNodeDeleter0@U?$TScatterArrayNode@U?$TVector2@M@math3d@UModSys@@H@tl@UModSys@@@12@@Z 000000018000a240 f i umodsys_lib_libui:umodsys.mod.ui.frames.obj
 0001:00009240       ??$process_nodes_r@U?$TNodeDeleter0@U?$TScatterArrayNode@HH@tl@UModSys@@@tl@UModSys@@@?$TTreeHoldRB@U?$TScatterArrayNode@HH@tl@UModSys@@@tl@UModSys@@KAHPEAU?$TScatterArrayNode@HH@12@AEBU?$TNodeDeleter0@U?$TScatterArrayNode@HH@tl@UModSys@@@12@@Z 000000018000a240 f i umodsys_lib_libui:umodsys.mod.ui.frames.obj
 0001:000092b0       ??$genx_node@UCmp@?$TScatterArray@U?$TVector4@M@math3d@UModSys@@HU?$TScalarCompare@H@core@3@U?$TNodeDeleter0@U?$TScatterArrayNode@U?$TVector4@M@math3d@UModSys@@H@tl@UModSys@@@tl@3@@tl@UModSys@@UGen0@234@@?$TTreeHoldRBD@U?$TScatterArrayNode@U?$TVector4@M@math3d@UModSys@@H@tl@UModSys@@U?$TNodeDeleter0@U?$TScatterArrayNode@U?$TVector4@M@math3d@UModSys@@H@tl@UModSys@@@23@@tl@UModSys@@QEAAPEAU?$TScatterArrayNode@U?$TVector4@M@math3d@UModSys@@H@12@UCmp@?$TScatterArray@U?$TVector4@M@math3d@UModSys@@HU?$TScalarCompare@H@core@3@U?$TNodeDeleter0@U?$TScatterArrayNode@U?$TVector4@M@math3d@UModSys@@H@tl@UModSys@@@tl@3@@12@AEBUGen0@512@PEAPEAU312@2_N@Z 000000018000a2b0 f i umodsys_lib_libui:umodsys.mod.ui.frames.obj
 0001:00009420       ??$genx_node@UCmp@?$TScatterArray@U?$TVector2@M@math3d@UModSys@@HU?$TScalarCompare@H@core@3@U?$TNodeDeleter0@U?$TScatterArrayNode@U?$TVector2@M@math3d@UModSys@@H@tl@UModSys@@@tl@3@@tl@UModSys@@UGen0@234@@?$TTreeHoldRBD@U?$TScatterArrayNode@U?$TVector2@M@math3d@UModSys@@H@tl@UModSys@@U?$TNodeDeleter0@U?$TScatterArrayNode@U?$TVector2@M@math3d@UModSys@@H@tl@UModSys@@@23@@tl@UModSys@@QEAAPEAU?$TScatterArrayNode@U?$TVector2@M@math3d@UModSys@@H@12@UCmp@?$TScatterArray@U?$TVector2@M@math3d@UModSys@@HU?$TScalarCompare@H@core@3@U?$TNodeDeleter0@U?$TScatterArrayNode@U?$TVector2@M@math3d@UModSys@@H@tl@UModSys@@@tl@3@@12@AEBUGen0@512@PEAPEAU312@2_N@Z 000000018000a420 f i umodsys_lib_libui:umodsys.mod.ui.frames.obj
 0001:00009570       ??$genx_node@UCmp@?$TScatterArray@HHU?$TScalarCompare@H@core@UModSys@@U?$TNodeDeleter0@U?$TScatterArrayNode@HH@tl@UModSys@@@tl@3@@tl@UModSys@@UGen0@234@@?$TTreeHoldRBD@U?$TScatterArrayNode@HH@tl@UModSys@@U?$TNodeDeleter0@U?$TScatterArrayNode@HH@tl@UModSys@@@23@@tl@UModSys@@QEAAPEAU?$TScatterArrayNode@HH@12@UCmp@?$TScatterArray@HHU?$TScalarCompare@H@core@UModSys@@U?$TNodeDeleter0@U?$TScatterArrayNode@HH@tl@UModSys@@@tl@3@@12@AEBUGen0@512@PEAPEAU312@2_N@Z 000000018000a570 f i umodsys_lib_libui:umodsys.mod.ui.frames.obj
 0001:000096c0       ?root_get_interface_info@RMediaFilter@images_std@media@modules@UModSys@@UEBAAEBUSUniquePointerInfo@core@5@XZ 000000018000a6c0 f i umodsys_lib_libmedia:umodsys.mod.media.images_std.obj
 0001:000096d0       ?root_get_interface_type@RMediaFilter@images_std@media@modules@UModSys@@UEBAPEBUSUniquePointerInfo@core@5@XZ 000000018000a6d0 f i umodsys_lib_libmedia:umodsys.mod.media.images_std.obj
 0001:000096e0       ?root_get_other_interface@RMediaFilter@images_std@media@modules@UModSys@@UEAAPEAUIRoot@core@5@PEBUSUniquePointerInfo@75@@Z 000000018000a6e0 f i umodsys_lib_libmedia:umodsys.mod.media.images_std.obj
 0001:000096e0       ?root_get_other_interface@RMediaFilter@images_std@media@modules@UModSys@@UEBAPEBUIRoot@core@5@PEBUSUniquePointerInfo@75@@Z 000000018000a6e0 f i umodsys_lib_libmedia:umodsys.mod.media.images_std.obj
 0001:00009710       ?root_is_interface_supported@RMediaFilter@images_std@media@modules@UModSys@@UEBA_NPEBUSUniquePointerInfo@core@5@@Z 000000018000a710 f i umodsys_lib_libmedia:umodsys.mod.media.images_std.obj
 0001:00009740       ?ref_remove@RSerializeWriter@serialize_json@media@modules@UModSys@@UEBAXXZ 000000018000a740 f i umodsys_lib_libmedia:umodsys.mod.media.serialize_json.obj
 0001:00009740       ?ref_remove@RMediaFilter@images_std@media@modules@UModSys@@UEBAXXZ 000000018000a740 f i umodsys_lib_libmedia:umodsys.mod.media.images_std.obj
 0001:00009760       ?suicide@RSerializeWriter@serialize_json@media@modules@UModSys@@UEAAXXZ 000000018000a760 f i umodsys_lib_libmedia:umodsys.mod.media.serialize_json.obj
 0001:00009760       ?suicide@RMediaFilter@images_std@media@modules@UModSys@@UEAAXXZ 000000018000a760 f i umodsys_lib_libmedia:umodsys.mod.media.images_std.obj
 0001:000097b0       ?get_flag@RMediaFilter@images_std@media@modules@UModSys@@UEBA?AW4eStates@?$TFlags4State@USMediaFlagUid@libmedia@UModSys@@I@tl@5@H@Z 000000018000a7b0 f i umodsys_lib_libmedia:umodsys.mod.media.images_std.obj
 0001:000097c0       ?get_flags_auto@RMediaFilter@images_std@media@modules@UModSys@@UEBA?AU?$TFlags4State@USMediaFlagUid@libmedia@UModSys@@I@tl@5@XZ 000000018000a7c0 f i umodsys_lib_libmedia:umodsys.mod.media.images_std.obj
 0001:000097d0       ?set_flag@RMediaFilter@images_std@media@modules@UModSys@@UEAA?AW4eStates@?$TFlags4State@USMediaFlagUid@libmedia@UModSys@@I@tl@5@HW46785@@Z 000000018000a7d0 f i umodsys_lib_libmedia:umodsys.mod.media.images_std.obj
 0001:00009800       ??0RMediaFilter@images_std@media@modules@UModSys@@QEAA@PEAUIModObject@base@4@AEBUSParameters@core@4@@Z 000000018000a800 f i umodsys_lib_libmedia:umodsys.mod.media.images_std.obj
 0001:000098f0       ??_GRMediaFilter@images_std@media@modules@UModSys@@UEAAPEAXI@Z 000000018000a8f0 f i umodsys_lib_libmedia:umodsys.mod.media.images_std.obj
 0001:000098f0       ??_ERMediaFilter@images_std@media@modules@UModSys@@UEAAPEAXI@Z 000000018000a8f0 f i  CIL library: CIL module
 0001:00009970       ?get_generated_names@RGenerator@images_std@media@modules@UModSys@@UEBAHAEAUSUniquePtrList@core@5@@Z 000000018000a970 f i umodsys_lib_libmedia:umodsys.mod.media.images_std.obj
 0001:00009990       ?get_generated_types@RGenerator@images_std@media@modules@UModSys@@UEBAHAEAUSUniquePtrList@core@5@PEBUSUniquePointerInfo@75@@Z 000000018000a990 f i umodsys_lib_libmedia:umodsys.mod.media.images_std.obj
 0001:000099f0       ?generate@RGenerator@images_std@media@modules@UModSys@@UEAA_NAEAU?$TRefObject@UIRefObject@core@UModSys@@U?$TRefObjectFunc@UIRefObject@core@UModSys@@@tl@3@@tl@5@PEBUSUniquePointerInfo@core@5@AEBUSParameters@95@@Z 000000018000a9f0 f i umodsys_lib_libmedia:umodsys.mod.media.images_std.obj
 0001:00009a70       ?root_get_interface_info@RGenerator@images_std@media@modules@UModSys@@UEBAAEBUSUniquePointerInfo@core@5@XZ 000000018000aa70 f i umodsys_lib_libmedia:umodsys.mod.media.images_std.obj
 0001:00009a80       ?root_get_interface_type@RGenerator@images_std@media@modules@UModSys@@UEBAPEBUSUniquePointerInfo@core@5@XZ 000000018000aa80 f i umodsys_lib_libmedia:umodsys.mod.media.images_std.obj
 0001:00009a90       ?root_get_other_interface@RGenerator@images_std@media@modules@UModSys@@UEBAPEBUIRoot@core@5@PEBUSUniquePointerInfo@75@@Z 000000018000aa90 f i umodsys_lib_libmedia:umodsys.mod.media.images_std.obj
 0001:00009a90       ?root_get_other_interface@RGenerator@images_std@media@modules@UModSys@@UEAAPEAUIRoot@core@5@PEBUSUniquePointerInfo@75@@Z 000000018000aa90 f i umodsys_lib_libmedia:umodsys.mod.media.images_std.obj
 0001:00009ad0       ?root_is_interface_supported@RGenerator@images_std@media@modules@UModSys@@UEBA_NPEBUSUniquePointerInfo@core@5@@Z 000000018000aad0 f i umodsys_lib_libmedia:umodsys.mod.media.images_std.obj
 0001:00009b10       ?get_uid@RGenerator@images_std@media@modules@UModSys@@UEBAPEBUSUniquePointerInfo@core@5@XZ 000000018000ab10 f i umodsys_lib_libmedia:umodsys.mod.media.images_std.obj
 0001:00009b20       ?do_open@RModuleReg@images_std@media@modules@UModSys@@UEAA_NXZ 000000018000ab20 f i umodsys_lib_libmedia:umodsys.mod.media.images_std.obj
 0001:00009b30       ?do_close@RModuleReg@images_std@media@modules@UModSys@@UEAA_NXZ 000000018000ab30 f i umodsys_lib_libmedia:umodsys.mod.media.images_std.obj
 0001:00009b40       ??_GRModuleReg@images_std@media@modules@UModSys@@UEAAPEAXI@Z 000000018000ab40 f i umodsys_lib_libmedia:umodsys.mod.media.images_std.obj
 0001:00009b40       ??_ERModuleReg@images_std@media@modules@UModSys@@UEAAPEAXI@Z 000000018000ab40 f i  CIL library: CIL module
 0001:00009b70       ??$ValidateConstruction@UIRefObject@core@UModSys@@URMediaFilter@images_std@media@modules@3@@core@UModSys@@YA_NAEAU?$TRefObject@UIRefObject@core@UModSys@@U?$TRefObjectFunc@UIRefObject@core@UModSys@@@tl@3@@tl@1@PEAURMediaFilter@images_std@media@modules@1@@Z 000000018000ab70 f i umodsys_lib_libmedia:umodsys.mod.media.images_std.obj
 0001:00009b70       ??$ValidateConstruction@UIRefObject@core@UModSys@@URImage_Memory@stdlib@lib2d@modules@3@@core@UModSys@@YA_NAEAU?$TRefObject@UIRefObject@core@UModSys@@U?$TRefObjectFunc@UIRefObject@core@UModSys@@@tl@3@@tl@1@PEAURImage_Memory@stdlib@lib2d@modules@1@@Z 000000018000ab70 f i umodsys_lib_lib2d:umodsys.mod.2d.stdlib.obj
 0001:00009b70       ??$ValidateConstruction@UIRefObject@core@UModSys@@URTerminal@SDL_core@ui@modules@3@@core@UModSys@@YA_NAEAU?$TRefObject@UIRefObject@core@UModSys@@U?$TRefObjectFunc@UIRefObject@core@UModSys@@@tl@3@@tl@1@PEAURTerminal@SDL_core@ui@modules@1@@Z 000000018000ab70 f i umodsys_lib_libui:umodsys.mod.ui.SDL_core.obj
 0001:00009be0       ?utf_32to8@su@tl@UModSys@@YA_KPEAD_KH@Z 000000018000abe0 f i umodsys_lib_libmedia:umodsys.mod.media.serialize_json.obj
 0001:00009ce0       ?init_escapes@serialize_json@media@modules@UModSys@@YAXXZ 000000018000ace0 f i umodsys_lib_libmedia:umodsys.mod.media.serialize_json.obj
 0001:00009e50       ?root_get_interface_info@RSerializeReader@serialize_json@media@modules@UModSys@@UEBAAEBUSUniquePointerInfo@core@5@XZ 000000018000ae50 f i umodsys_lib_libmedia:umodsys.mod.media.serialize_json.obj
 0001:00009e60       ?root_get_interface_type@RSerializeReader@serialize_json@media@modules@UModSys@@UEBAPEBUSUniquePointerInfo@core@5@XZ 000000018000ae60 f i umodsys_lib_libmedia:umodsys.mod.media.serialize_json.obj
 0001:00009e70       ?root_get_other_interface@RSerializeReader@serialize_json@media@modules@UModSys@@UEBAPEBUIRoot@core@5@PEBUSUniquePointerInfo@75@@Z 000000018000ae70 f i umodsys_lib_libmedia:umodsys.mod.media.serialize_json.obj
 0001:00009e70       ?root_get_other_interface@RSerializeReader@serialize_json@media@modules@UModSys@@UEAAPEAUIRoot@core@5@PEBUSUniquePointerInfo@75@@Z 000000018000ae70 f i umodsys_lib_libmedia:umodsys.mod.media.serialize_json.obj
 0001:00009ea0       ?root_is_interface_supported@RSerializeReader@serialize_json@media@modules@UModSys@@UEBA_NPEBUSUniquePointerInfo@core@5@@Z 000000018000aea0 f i umodsys_lib_libmedia:umodsys.mod.media.serialize_json.obj
 0001:00009ed0       ?suicide@RSerializeReader@serialize_json@media@modules@UModSys@@UEAAXXZ 000000018000aed0 f i umodsys_lib_libmedia:umodsys.mod.media.serialize_json.obj
 0001:00009ed0       ?suicide@RImage_Memory@stdlib@lib2d@modules@UModSys@@UEAAXXZ 000000018000aed0 f i umodsys_lib_lib2d:umodsys.mod.2d.stdlib.obj
 0001:00009ed0       ?suicide@RTerminal@SDL_core@ui@modules@UModSys@@UEAAXXZ 000000018000aed0 f i umodsys_lib_libui:umodsys.mod.ui.SDL_core.obj
 0001:00009f20       ?reader_lasterror@RSerializeReader@serialize_json@media@modules@UModSys@@UEBAPEBDXZ 000000018000af20 f i umodsys_lib_libmedia:umodsys.mod.media.serialize_json.obj
 0001:00009f30       ?reader_parse@RSerializeReader@serialize_json@media@modules@UModSys@@UEAA_NPEAUISerializeParser@libmedia@5@@Z 000000018000af30 f i umodsys_lib_libmedia:umodsys.mod.media.serialize_json.obj
 0001:0000af90       ?uni@RSerializeReader@serialize_json@media@modules@UModSys@@IEAA_NHAEAH@Z 000000018000bf90 f i umodsys_lib_libmedia:umodsys.mod.media.serialize_json.obj
 0001:0000b060       ?emit@RSerializeReader@serialize_json@media@modules@UModSys@@IEAA_NPEAUISerializeParser@libmedia@5@PEAUNode@12345@_N@Z 000000018000c060 f i umodsys_lib_libmedia:umodsys.mod.media.serialize_json.obj
 0001:0000b4a0       ??0RSerializeReader@serialize_json@media@modules@UModSys@@QEAA@PEAUIModObject@base@4@AEBUSParameters@core@4@@Z 000000018000c4a0 f i umodsys_lib_libmedia:umodsys.mod.media.serialize_json.obj
 0001:0000b5f0       ??1RSerializeReader@serialize_json@media@modules@UModSys@@UEAA@XZ 000000018000c5f0 f i umodsys_lib_libmedia:umodsys.mod.media.serialize_json.obj
 0001:0000b690       ??_GRSerializeReader@serialize_json@media@modules@UModSys@@UEAAPEAXI@Z 000000018000c690 f i umodsys_lib_libmedia:umodsys.mod.media.serialize_json.obj
 0001:0000b690       ??_ERSerializeReader@serialize_json@media@modules@UModSys@@UEAAPEAXI@Z 000000018000c690 f i  CIL library: CIL module
 0001:0000b6c0       ?root_get_interface_info@RSerializeWriter@serialize_json@media@modules@UModSys@@UEBAAEBUSUniquePointerInfo@core@5@XZ 000000018000c6c0 f i umodsys_lib_libmedia:umodsys.mod.media.serialize_json.obj
 0001:0000b6d0       ?root_get_interface_type@RSerializeWriter@serialize_json@media@modules@UModSys@@UEBAPEBUSUniquePointerInfo@core@5@XZ 000000018000c6d0 f i umodsys_lib_libmedia:umodsys.mod.media.serialize_json.obj
 0001:0000b6e0       ?root_get_other_interface@RSerializeWriter@serialize_json@media@modules@UModSys@@UEBAPEBUIRoot@core@5@PEBUSUniquePointerInfo@75@@Z 000000018000c6e0 f i umodsys_lib_libmedia:umodsys.mod.media.serialize_json.obj
 0001:0000b6e0       ?root_get_other_interface@RSerializeWriter@serialize_json@media@modules@UModSys@@UEAAPEAUIRoot@core@5@PEBUSUniquePointerInfo@75@@Z 000000018000c6e0 f i umodsys_lib_libmedia:umodsys.mod.media.serialize_json.obj
 0001:0000b710       ?root_is_interface_supported@RSerializeWriter@serialize_json@media@modules@UModSys@@UEBA_NPEBUSUniquePointerInfo@core@5@@Z 000000018000c710 f i umodsys_lib_libmedia:umodsys.mod.media.serialize_json.obj
 0001:0000b740       ?ref_add@RMediaFilter@images_std@media@modules@UModSys@@UEBAXXZ 000000018000c740 f i umodsys_lib_libmedia:umodsys.mod.media.images_std.obj
 0001:0000b740       ?ref_add@RSerializeWriter@serialize_json@media@modules@UModSys@@UEBAXXZ 000000018000c740 f i umodsys_lib_libmedia:umodsys.mod.media.serialize_json.obj
 0001:0000b750       ?ref_links@RMediaFilter@images_std@media@modules@UModSys@@UEBAHXZ 000000018000c750 f i umodsys_lib_libmedia:umodsys.mod.media.images_std.obj
 0001:0000b750       ?ref_links@RSerializeWriter@serialize_json@media@modules@UModSys@@UEBAHXZ 000000018000c750 f i umodsys_lib_libmedia:umodsys.mod.media.serialize_json.obj
 0001:0000b760       ?ref_weak@RMediaFilter@images_std@media@modules@UModSys@@UEBA_NAEAUWeakPointer@IRefObject@core@5@@Z 000000018000c760 f i umodsys_lib_libmedia:umodsys.mod.media.images_std.obj
 0001:0000b760       ?ref_weak@RSerializeWriter@serialize_json@media@modules@UModSys@@UEBA_NAEAUWeakPointer@IRefObject@core@5@@Z 000000018000c760 f i umodsys_lib_libmedia:umodsys.mod.media.serialize_json.obj
 0001:0000b780       ?writer_lasterror@RSerializeWriter@serialize_json@media@modules@UModSys@@UEBAPEBDXZ 000000018000c780 f i umodsys_lib_libmedia:umodsys.mod.media.serialize_json.obj
 0001:0000b790       ?put_value@RSerializeWriter@serialize_json@media@modules@UModSys@@UEAA_NAEBU?$TString@U?$TSCoreConst@D@su@tl@UModSys@@U?$TComparerBinaryHash@D@234@@tl@5@AEBUSSerializeValue@libmedia@5@H@Z 000000018000c790 f i umodsys_lib_libmedia:umodsys.mod.media.serialize_json.obj
 0001:0000bb00       ?put_key@RSerializeWriter@serialize_json@media@modules@UModSys@@UEAA_NAEBU?$TString@U?$TSCoreConst@D@su@tl@UModSys@@U?$TComparerBinaryHash@D@234@@tl@5@AEBUSSerializeValue@libmedia@5@H@Z 000000018000cb00 f i umodsys_lib_libmedia:umodsys.mod.media.serialize_json.obj
 0001:0000bbc0       ?put_begin@RSerializeWriter@serialize_json@media@modules@UModSys@@UEAA_NAEBU?$TString@U?$TSCoreConst@D@su@tl@UModSys@@U?$TComparerBinaryHash@D@234@@tl@5@W4eType@SSerializeValue@libmedia@5@H@Z 000000018000cbc0 f i umodsys_lib_libmedia:umodsys.mod.media.serialize_json.obj
 0001:0000bd40       ?put_end@RSerializeWriter@serialize_json@media@modules@UModSys@@UEAA_NXZ 000000018000cd40 f i umodsys_lib_libmedia:umodsys.mod.media.serialize_json.obj
 0001:0000be10       ?write_s@RSerializeWriter@serialize_json@media@modules@UModSys@@IEAA_NAEBUStr@SSerializeValue@libmedia@5@@Z 000000018000ce10 f i umodsys_lib_libmedia:umodsys.mod.media.serialize_json.obj
 0001:0000bef0       ?delim@RSerializeWriter@serialize_json@media@modules@UModSys@@IEAA_NAEAUNode@12345@H@Z 000000018000cef0 f i umodsys_lib_libmedia:umodsys.mod.media.serialize_json.obj
 0001:0000bf70       ?writef@RSerializeWriter@serialize_json@media@modules@UModSys@@IEAA_NPEBDZZ 000000018000cf70 f i umodsys_lib_libmedia:umodsys.mod.media.serialize_json.obj
 0001:0000bfe0       ??0RSerializeWriter@serialize_json@media@modules@UModSys@@QEAA@PEAUIModObject@base@4@AEBUSParameters@core@4@@Z 000000018000cfe0 f i umodsys_lib_libmedia:umodsys.mod.media.serialize_json.obj
 0001:0000c130       ??1RSerializeWriter@serialize_json@media@modules@UModSys@@UEAA@XZ 000000018000d130 f i umodsys_lib_libmedia:umodsys.mod.media.serialize_json.obj
 0001:0000c230       ??_ERSerializeWriter@serialize_json@media@modules@UModSys@@UEAAPEAXI@Z 000000018000d230 f i  CIL library: CIL module
 0001:0000c230       ??_GRSerializeWriter@serialize_json@media@modules@UModSys@@UEAAPEAXI@Z 000000018000d230 f i umodsys_lib_libmedia:umodsys.mod.media.serialize_json.obj
 0001:0000c260       ?get_generated_names@RGenerator@serialize_json@media@modules@UModSys@@UEBAHAEAUSUniquePtrList@core@5@@Z 000000018000d260 f i umodsys_lib_libmedia:umodsys.mod.media.serialize_json.obj
 0001:0000c2a0       ?get_generated_types@RGenerator@serialize_json@media@modules@UModSys@@UEBAHAEAUSUniquePtrList@core@5@PEBUSUniquePointerInfo@75@@Z 000000018000d2a0 f i umodsys_lib_libmedia:umodsys.mod.media.serialize_json.obj
 0001:0000c320       ?generate@RGenerator@serialize_json@media@modules@UModSys@@UEAA_NAEAU?$TRefObject@UIRefObject@core@UModSys@@U?$TRefObjectFunc@UIRefObject@core@UModSys@@@tl@3@@tl@5@PEBUSUniquePointerInfo@core@5@AEBUSParameters@95@@Z 000000018000d320 f i umodsys_lib_libmedia:umodsys.mod.media.serialize_json.obj
 0001:0000c400       ?root_get_interface_info@RGenerator@serialize_json@media@modules@UModSys@@UEBAAEBUSUniquePointerInfo@core@5@XZ 000000018000d400 f i umodsys_lib_libmedia:umodsys.mod.media.serialize_json.obj
 0001:0000c410       ?root_get_interface_type@RGenerator@serialize_json@media@modules@UModSys@@UEBAPEBUSUniquePointerInfo@core@5@XZ 000000018000d410 f i umodsys_lib_libmedia:umodsys.mod.media.serialize_json.obj
 0001:0000c420       ?root_get_other_interface@RGenerator@serialize_json@media@modules@UModSys@@UEAAPEAUIRoot@core@5@PEBUSUniquePointerInfo@75@@Z 000000018000d420 f i umodsys_lib_libmedia:umodsys.mod.media.serialize_json.obj
 0001:0000c420       ?root_get_other_interface@RGenerator@serialize_json@media@modules@UModSys@@UEBAPEBUIRoot@core@5@PEBUSUniquePointerInfo@75@@Z 000000018000d420 f i umodsys_lib_libmedia:umodsys.mod.media.serialize_json.obj
 0001:0000c460       ?root_is_interface_supported@RGenerator@serialize_json@media@modules@UModSys@@UEBA_NPEBUSUniquePointerInfo@core@5@@Z 000000018000d460 f i umodsys_lib_libmedia:umodsys.mod.media.serialize_json.obj
 0001:0000c4a0       ?get_uid@RGenerator@serialize_json@media@modules@UModSys@@UEBAPEBUSUniquePointerInfo@core@5@XZ 000000018000d4a0 f i umodsys_lib_libmedia:umodsys.mod.media.serialize_json.obj
 0001:0000c4b0       ?do_open@RModuleReg@serialize_json@media@modules@UModSys@@UEAA_NXZ 000000018000d4b0 f i umodsys_lib_libmedia:umodsys.mod.media.serialize_json.obj
 0001:0000c4c0       ?do_close@RModuleReg@serialize_json@media@modules@UModSys@@UEAA_NXZ 000000018000d4c0 f i umodsys_lib_libmedia:umodsys.mod.media.serialize_json.obj
 0001:0000c4d0       ??_ERModuleReg@serialize_json@media@modules@UModSys@@UEAAPEAXI@Z 000000018000d4d0 f i  CIL library: CIL module
 0001:0000c4d0       ??_GRModuleReg@serialize_json@media@modules@UModSys@@UEAAPEAXI@Z 000000018000d4d0 f i umodsys_lib_libmedia:umodsys.mod.media.serialize_json.obj
 0001:0000c500       ??1?$TTextStreamReaderBuf@D$0BAAA@@libmedia@UModSys@@QEAA@XZ 000000018000d500 f i umodsys_lib_libmedia:umodsys.mod.media.serialize_json.obj
 0001:0000c530       ??1?$TDynarrayDynamic@DU?$TAllocator@USIMemAlloc@core@UModSys@@USCountCalcPower2@23@@tl@UModSys@@@tl@UModSys@@QEAA@XZ 000000018000d530 f i umodsys_lib_libmedia:umodsys.mod.media.serialize_json.obj
 0001:0000c570       ?Clear@?$TDynarray@U?$TDynarrayHolderDynamic@DU?$TAllocator@USIMemAlloc@core@UModSys@@USCountCalcPower2@23@@tl@UModSys@@@tl@UModSys@@@tl@UModSys@@QEAA_NXZ 000000018000d570 f i umodsys_lib_libmedia:umodsys.mod.media.serialize_json.obj
 0001:0000c5d0       ??1?$TDynarrayDynamic@UNode@RSerializeReader@serialize_json@media@modules@UModSys@@U?$TAllocator@USIMemAlloc@core@UModSys@@USCountCalcPower2@23@@tl@6@@tl@UModSys@@QEAA@XZ 000000018000d5d0 f i umodsys_lib_libmedia:umodsys.mod.media.serialize_json.obj
 0001:0000c5e0       ??1?$TDynarrayDynamic@UNode@RSerializeWriter@serialize_json@media@modules@UModSys@@U?$TAllocator@USIMemAlloc@core@UModSys@@USCountCalcPower2@23@@tl@6@@tl@UModSys@@QEAA@XZ 000000018000d5e0 f i umodsys_lib_libmedia:umodsys.mod.media.serialize_json.obj
 0001:0000c5f0       ??1?$TTextStreamWriterBuf@D$0BAAA@@libmedia@UModSys@@QEAA@XZ 000000018000d5f0 f i umodsys_lib_libmedia:umodsys.mod.media.serialize_json.obj
 0001:0000c650       ?put_c@?$TTextStreamWriter@D@libmedia@UModSys@@QEAA_ND@Z 000000018000d650 f i umodsys_lib_libmedia:umodsys.mod.media.serialize_json.obj
 0001:0000c710       ?put_z@?$TTextStreamWriter@D@libmedia@UModSys@@QEAA_NPEBD@Z 000000018000d710 f i umodsys_lib_libmedia:umodsys.mod.media.serialize_json.obj
 0001:0000c760       ?check@?$TTextStreamReader@D@libmedia@UModSys@@IEAA_N_K@Z 000000018000d760 f i umodsys_lib_libmedia:umodsys.mod.media.serialize_json.obj
 0001:0000c840       ??1?$TDynarray@U?$TDynarrayHolderDynamic@UNode@RSerializeReader@serialize_json@media@modules@UModSys@@U?$TAllocator@USIMemAlloc@core@UModSys@@USCountCalcPower2@23@@tl@6@@tl@UModSys@@@tl@UModSys@@QEAA@XZ 000000018000d840 f i umodsys_lib_libmedia:umodsys.mod.media.serialize_json.obj
 0001:0000c8b0       ??1?$TDynarray@U?$TDynarrayHolderDynamic@UNode@RSerializeWriter@serialize_json@media@modules@UModSys@@U?$TAllocator@USIMemAlloc@core@UModSys@@USCountCalcPower2@23@@tl@6@@tl@UModSys@@@tl@UModSys@@QEAA@XZ 000000018000d8b0 f i umodsys_lib_libmedia:umodsys.mod.media.serialize_json.obj
 0001:0000c920       ?put_chars@?$TTextStreamWriter@D@libmedia@UModSys@@QEAA_NPEBD_K@Z 000000018000d920 f i umodsys_lib_libmedia:umodsys.mod.media.serialize_json.obj
 0001:0000c9e0       ?Free@?$TDynarray@U?$TDynarrayHolderDynamic@DU?$TAllocator@USIMemAlloc@core@UModSys@@USCountCalcPower2@23@@tl@UModSys@@@tl@UModSys@@@tl@UModSys@@QEAA_NXZ 000000018000d9e0 f i umodsys_lib_libmedia:umodsys.mod.media.serialize_json.obj
 0001:0000ca60       ?Push@?$TDynarray@U?$TDynarrayHolderDynamic@DU?$TAllocator@USIMemAlloc@core@UModSys@@USCountCalcPower2@23@@tl@UModSys@@@tl@UModSys@@@tl@UModSys@@QEAA_NAEBD@Z 000000018000da60 f i umodsys_lib_libmedia:umodsys.mod.media.serialize_json.obj
 0001:0000cab0       ?ResizeRel@?$TDynarray@U?$TDynarrayHolderDynamic@UNode@RSerializeReader@serialize_json@media@modules@UModSys@@U?$TAllocator@USIMemAlloc@core@UModSys@@USCountCalcPower2@23@@tl@6@@tl@UModSys@@@tl@UModSys@@QEAA_N_J@Z 000000018000dab0 f i umodsys_lib_libmedia:umodsys.mod.media.serialize_json.obj
 0001:0000cb60       ?ResizeRel@?$TDynarray@U?$TDynarrayHolderDynamic@UNode@RSerializeWriter@serialize_json@media@modules@UModSys@@U?$TAllocator@USIMemAlloc@core@UModSys@@USCountCalcPower2@23@@tl@6@@tl@UModSys@@@tl@UModSys@@QEAA_N_J@Z 000000018000db60 f i umodsys_lib_libmedia:umodsys.mod.media.serialize_json.obj
 0001:0000cc20       ??$smemmove@D@su@tl@UModSys@@YAXPEADPEBD_K@Z 000000018000dc20 f i umodsys_lib_libmedia:umodsys.mod.media.serialize_json.obj
 0001:0000cc30       ?ReLink@?$TDynarray@U?$TDynarrayHolderDynamic@DU?$TAllocator@USIMemAlloc@core@UModSys@@USCountCalcPower2@23@@tl@UModSys@@@tl@UModSys@@@tl@UModSys@@IEAA_N_K@Z 000000018000dc30 f i umodsys_lib_libmedia:umodsys.mod.media.serialize_json.obj
 0001:0000cca0       ?ReLink@?$TDynarray@U?$TDynarrayHolderDynamic@UNode@RSerializeReader@serialize_json@media@modules@UModSys@@U?$TAllocator@USIMemAlloc@core@UModSys@@USCountCalcPower2@23@@tl@6@@tl@UModSys@@@tl@UModSys@@IEAA_N_K@Z 000000018000dca0 f i umodsys_lib_libmedia:umodsys.mod.media.serialize_json.obj
 0001:0000cd20       ?ReLink@?$TDynarray@U?$TDynarrayHolderDynamic@UNode@RSerializeWriter@serialize_json@media@modules@UModSys@@U?$TAllocator@USIMemAlloc@core@UModSys@@USCountCalcPower2@23@@tl@6@@tl@UModSys@@@tl@UModSys@@IEAA_N_K@Z 000000018000dd20 f i umodsys_lib_libmedia:umodsys.mod.media.serialize_json.obj
 0001:0000cda0       ??$ValidateConstruction@UIRefObject@core@UModSys@@URSerializeReader@serialize_json@media@modules@3@@core@UModSys@@YA_NAEAU?$TRefObject@UIRefObject@core@UModSys@@U?$TRefObjectFunc@UIRefObject@core@UModSys@@@tl@3@@tl@1@PEAURSerializeReader@serialize_json@media@modules@1@@Z 000000018000dda0 f i umodsys_lib_libmedia:umodsys.mod.media.serialize_json.obj
 0001:0000ce20       ??$ValidateConstruction@UIRefObject@core@UModSys@@URSerializeWriter@serialize_json@media@modules@3@@core@UModSys@@YA_NAEAU?$TRefObject@UIRefObject@core@UModSys@@U?$TRefObjectFunc@UIRefObject@core@UModSys@@@tl@3@@tl@1@PEAURSerializeWriter@serialize_json@media@modules@1@@Z 000000018000de20 f i umodsys_lib_libmedia:umodsys.mod.media.serialize_json.obj
 0001:0000cea0       ??_ERModuleLibraryReg_Chain@base@UModSys@@UEAAPEAXI@Z 000000018000dea0 f i  CIL library: CIL module
 0001:0000cea0       ??_GRModuleLibraryReg_Chain@base@UModSys@@UEAAPEAXI@Z 000000018000dea0 f i umodsys_lib_base:umodsys.base.moduleregchain.obj
 0001:0000ced0       ??_GIModuleReg@base@UModSys@@UEAAPEAXI@Z 000000018000ded0 f i umodsys_lib_base:umodsys.base.modulereg.obj
 0001:0000ced0       ??_EIModuleReg@base@UModSys@@UEAAPEAXI@Z 000000018000ded0 f i  CIL library: CIL module
 0001:0000cf00       ??_EIModuleLibraryReg@base@UModSys@@UEAAPEAXI@Z 000000018000df00 f i  CIL library: CIL module
 0001:0000cf00       ??_GIModuleLibraryReg@base@UModSys@@UEAAPEAXI@Z 000000018000df00 f i umodsys_lib_base:umodsys.base.modulereg.obj
 0001:0000cf30       ?Find@?$TSet@U?$TArray@PEBUSUniquePointerInfo@core@UModSys@@@tl@UModSys@@U?$TScalarCompare@PEBUSUniquePointerInfo@core@UModSys@@@core@3@@tl@UModSys@@QEBAPEBQEBUSUniquePointerInfo@core@3@AEBQEBU453@@Z 000000018000df30 f i umodsys_lib_core:umodsys.core.uniqueptrlist.obj
 0001:0000cfcc       _onexit                    000000018000dfcc f   MSVCRT:atonexit.obj
 0001:0000d07c       atexit                     000000018000e07c f   MSVCRT:atonexit.obj
 0001:0000d094       _purecall                  000000018000e094 f   MSVCRT:MSVCR90.dll
 0001:0000d09a       ??3@YAXPEAX@Z              000000018000e09a f   MSVCRT:MSVCR90.dll
 0001:0000d0a0       ??_Etype_info@@UEAAPEAXI@Z 000000018000e0a0 f i MSVCRT:ti_inst.obj
 0001:0000d16c       _CRT_INIT                  000000018000e16c f   MSVCRT:crtdll.obj
 0001:0000d500       _DllMainCRTStartup         000000018000e500 f   MSVCRT:crtdll.obj
 0001:0000d53e       ??2@YAPEAX_K@Z             000000018000e53e f   MSVCRT:MSVCR90.dll
 0001:0000d544       __C_specific_handler       000000018000e544 f   MSVCRT:MSVCR90.dll
 0001:0000d54a       _unlock                    000000018000e54a f   MSVCRT:MSVCR90.dll
 0001:0000d550       __dllonexit                000000018000e550 f   MSVCRT:MSVCR90.dll
 0001:0000d556       _lock                      000000018000e556 f   MSVCRT:MSVCR90.dll
 0001:0000d55c       ?__ArrayUnwind@@YAXPEAX_KHP6AX0@Z@Z 000000018000e55c f   MSVCRT:ehvecdtr.obj
 0001:0000d5a8       ??_M@YAXPEAX_KHP6AX0@Z@Z   000000018000e5a8 f   MSVCRT:ehvecdtr.obj
 0001:0000d608       __clean_type_info_names    000000018000e608 f   MSVCRT:tncleanup.obj
 0001:0000d614       _RTC_Initialize            000000018000e614 f   MSVCRT:_initsect_.obj
 0001:0000d64c       _RTC_Terminate             000000018000e64c f   MSVCRT:_initsect_.obj
 0001:0000d690       _ValidateImageBase         000000018000e690 f   MSVCRT:pesect.obj
 0001:0000d6c0       _FindPESection             000000018000e6c0 f   MSVCRT:pesect.obj
 0001:0000d710       _IsNonwritableInCurrentImage 000000018000e710 f   MSVCRT:pesect.obj
 0001:0000d752       _initterm                  000000018000e752 f   MSVCRT:MSVCR90.dll
 0001:0000d758       _initterm_e                000000018000e758 f   MSVCRT:MSVCR90.dll
 0001:0000d75e       _amsg_exit                 000000018000e75e f   MSVCRT:MSVCR90.dll
 0001:0000d764       __CppXcptFilter            000000018000e764 f   MSVCRT:MSVCR90.dll
 0001:0000d76c       DllMain                    000000018000e76c f   MSVCRT:dllmain.obj
 0001:0000d790       __security_init_cookie     000000018000e790 f   MSVCRT:gs_support.obj
 0001:0000d844       ?terminate@@YAXXZ          000000018000e844 f   MSVCRT:MSVCR90.dll
 0001:0000d84a       ?_type_info_dtor_internal_method@type_info@@QEAAXXZ 000000018000e84a f   MSVCRT:MSVCR90.dll
 0001:0000d84a       ??1type_info@@UEAA@XZ      000000018000e84a f   MSVCRT:MSVCR90.dll
 0001:0000d850       __clean_type_info_names_internal 000000018000e850 f   MSVCRT:MSVCR90.dll
 0001:0000d856       png_get_IHDR               000000018000e856 f   lib_libpng:lib_libpng.dll
 0001:0000d85c       png_write_info             000000018000e85c f   lib_libpng:lib_libpng.dll
 0001:0000d862       png_destroy_write_struct   000000018000e862 f   lib_libpng:lib_libpng.dll
 0001:0000d868       png_set_write_fn           000000018000e868 f   lib_libpng:lib_libpng.dll
 0001:0000d86e       png_read_info              000000018000e86e f   lib_libpng:lib_libpng.dll
 0001:0000d874       png_sig_cmp                000000018000e874 f   lib_libpng:lib_libpng.dll
 0001:0000d87a       png_write_rows             000000018000e87a f   lib_libpng:lib_libpng.dll
 0001:0000d880       png_create_read_struct     000000018000e880 f   lib_libpng:lib_libpng.dll
 0001:0000d886       png_write_end              000000018000e886 f   lib_libpng:lib_libpng.dll
 0001:0000d88c       png_get_io_ptr             000000018000e88c f   lib_libpng:lib_libpng.dll
 0001:0000d892       png_create_info_struct     000000018000e892 f   lib_libpng:lib_libpng.dll
 0001:0000d898       png_set_read_fn            000000018000e898 f   lib_libpng:lib_libpng.dll
 0001:0000d89e       png_read_update_info       000000018000e89e f   lib_libpng:lib_libpng.dll
 0001:0000d8a4       png_set_sig_bytes          000000018000e8a4 f   lib_libpng:lib_libpng.dll
 0001:0000d8aa       png_set_longjmp_fn         000000018000e8aa f   lib_libpng:lib_libpng.dll
 0001:0000d8b0       png_create_write_struct    000000018000e8b0 f   lib_libpng:lib_libpng.dll
 0001:0000d8b6       png_read_row               000000018000e8b6 f   lib_libpng:lib_libpng.dll
 0001:0000d8bc       png_error                  000000018000e8bc f   lib_libpng:lib_libpng.dll
 0001:0000d8c2       png_set_IHDR               000000018000e8c2 f   lib_libpng:lib_libpng.dll
 0001:0000d8c8       png_destroy_read_struct    000000018000e8c8 f   lib_libpng:lib_libpng.dll
 0001:0000d8ce       SDL_StopTextInput          000000018000e8ce f   lib_SDL2:lib_SDL2.dll
 0001:0000d8d4       SDL_RenderDrawLine         000000018000e8d4 f   lib_SDL2:lib_SDL2.dll
 0001:0000d8da       SDL_RenderDrawLines        000000018000e8da f   lib_SDL2:lib_SDL2.dll
 0001:0000d8e0       SDL_Init                   000000018000e8e0 f   lib_SDL2:lib_SDL2.dll
 0001:0000d8e6       SDL_DestroyWindow          000000018000e8e6 f   lib_SDL2:lib_SDL2.dll
 0001:0000d8ec       TTF_GlyphMetrics           000000018000e8ec f   lib_SDL2:lib_SDL2.dll
 0001:0000d8f2       SDL_CreateWindow           000000018000e8f2 f   lib_SDL2:lib_SDL2.dll
 0001:0000d8f8       SDL_RenderCopy             000000018000e8f8 f   lib_SDL2:lib_SDL2.dll
 0001:0000d8fe       SDL_DestroyRenderer        000000018000e8fe f   lib_SDL2:lib_SDL2.dll
 0001:0000d904       SDL_DestroyTexture         000000018000e904 f   lib_SDL2:lib_SDL2.dll
 0001:0000d90a       SDL_CreateTextureFromSurface 000000018000e90a f   lib_SDL2:lib_SDL2.dll
 0001:0000d910       SDL_RenderPresent          000000018000e910 f   lib_SDL2:lib_SDL2.dll
 0001:0000d916       SDL_SetRenderDrawBlendMode 000000018000e916 f   lib_SDL2:lib_SDL2.dll
 0001:0000d91c       SDL_SetRenderDrawColor     000000018000e91c f   lib_SDL2:lib_SDL2.dll
 0001:0000d922       TTF_OpenFont               000000018000e922 f   lib_SDL2:lib_SDL2.dll
 0001:0000d928       TTF_CloseFont              000000018000e928 f   lib_SDL2:lib_SDL2.dll
 0001:0000d92e       TTF_Init                   000000018000e92e f   lib_SDL2:lib_SDL2.dll
 0001:0000d934       SDL_PumpEvents             000000018000e934 f   lib_SDL2:lib_SDL2.dll
 0001:0000d93a       TTF_RenderGlyph_Shaded     000000018000e93a f   lib_SDL2:lib_SDL2.dll
 0001:0000d940       SDL_Delay                  000000018000e940 f   lib_SDL2:lib_SDL2.dll
 0001:0000d946       SDL_RenderClear            000000018000e946 f   lib_SDL2:lib_SDL2.dll
 0001:0000d94c       SDL_CreateRenderer         000000018000e94c f   lib_SDL2:lib_SDL2.dll
 0001:0000d952       SDL_SetTextureColorMod     000000018000e952 f   lib_SDL2:lib_SDL2.dll
 0001:0000d958       SDL_StartTextInput         000000018000e958 f   lib_SDL2:lib_SDL2.dll
 0001:0000d95e       SDL_PeepEvents             000000018000e95e f   lib_SDL2:lib_SDL2.dll
 0001:0000d964       SDL_GetTicks               000000018000e964 f   lib_SDL2:lib_SDL2.dll
 0001:0000d96a       SDL_RenderFillRect         000000018000e96a f   lib_SDL2:lib_SDL2.dll
 0001:0000d970       SDL_RenderDrawRect         000000018000e970 f   lib_SDL2:lib_SDL2.dll
 0001:0000d976       TTF_Quit                   000000018000e976 f   lib_SDL2:lib_SDL2.dll
 0001:0000d97c       SDL_Quit                   000000018000e97c f   lib_SDL2:lib_SDL2.dll
 0001:0000d982       SDL_FreeSurface            000000018000e982 f   lib_SDL2:lib_SDL2.dll
 0001:0000d990       ??3IRoot@core@UModSys@@SAXPEAX@Z 000000018000e990 f   umodsys_lib_core:umodsys.core.objects.obj
 0001:0000d9d0       ??3IRoot@core@UModSys@@SAXPEAXPEAUIMemAlloc@12@@Z 000000018000e9d0 f   umodsys_lib_core:umodsys.core.objects.obj
 0001:0000da10       ??2IRoot@core@UModSys@@SAPEAX_KPEAUIMemAlloc@12@@Z 000000018000ea10 f   umodsys_lib_core:umodsys.core.objects.obj
 0001:0000da50       ?suicide@IRoot@core@UModSys@@UEAAXXZ 000000018000ea50 f   umodsys_lib_core:umodsys.core.objects.obj
 0001:0000da70       ??1IRoot@core@UModSys@@UEAA@XZ 000000018000ea70 f   umodsys_lib_core:umodsys.core.objects.obj
 0001:0000da90       ??1IRefObject@core@UModSys@@UEAA@XZ 000000018000ea90 f   umodsys_lib_core:umodsys.core.objects.obj
 0001:0000daa0       ?lost@core@UModSys@@YAEPEBX@Z 000000018000eaa0 f   umodsys_lib_core:umodsys.core.stdtypedefs.obj
 0001:0000dab0       ?s_unresolve@SUniquePointer@core@UModSys@@SAXPEAUIUniquePointerResolver@23@@Z 000000018000eab0 f   umodsys_lib_core:umodsys.core.uniqueptr.obj
 0001:0000db20       ?s_resolve@SUniquePointer@core@UModSys@@SAXPEAUIUniquePointerResolver@23@@Z 000000018000eb20 f   umodsys_lib_core:umodsys.core.uniqueptr.obj
 0001:0000dba0       ??1SUniquePointer@core@UModSys@@QEAA@XZ 000000018000eba0 f   umodsys_lib_core:umodsys.core.uniqueptr.obj
 0001:0000dbd0       ??0SUniquePointer@core@UModSys@@QEAA@H@Z 000000018000ebd0 f   umodsys_lib_core:umodsys.core.uniqueptr.obj
 0001:0000dc00       ??0SUniquePointer@core@UModSys@@QEAA@PEBD0H@Z 000000018000ec00 f   umodsys_lib_core:umodsys.core.uniqueptr.obj
 0001:0000dc50       ?utf8_cmp_nocase@su@tl@UModSys@@YAHPEBD0_K@Z 000000018000ec50 f   umodsys_lib_core:umodsys.tl.utf.obj
 0001:0000dc60       ?utf_8to32_len@su@tl@UModSys@@YA_KPEBD_K@Z 000000018000ec60 f   umodsys_lib_core:umodsys.tl.utf.obj
 0001:0000dcc0       ?utf_8to32@su@tl@UModSys@@YA_KPEAH_KPEBD1_N@Z 000000018000ecc0 f   umodsys_lib_core:umodsys.tl.utf.obj
 0001:0000dd40       ?utf_32to8_len@su@tl@UModSys@@YA_KPEBH_K@Z 000000018000ed40 f   umodsys_lib_core:umodsys.tl.utf.obj
 0001:0000ddd0       ?utf_32to8@su@tl@UModSys@@YA_KPEAD_KPEBH1_N@Z 000000018000edd0 f   umodsys_lib_core:umodsys.tl.utf.obj
 0001:0000de50       ??1SModuleInfo@base@UModSys@@QEAA@XZ 000000018000ee50 f   umodsys_lib_base:umodsys.base.moduleinfo.obj
 0001:0000de60       ??0SModuleInfo@base@UModSys@@QEAA@PEBDHH0@Z 000000018000ee60 f   umodsys_lib_base:umodsys.base.moduleinfo.obj
 0001:0000df20       ??1IModuleLibraryReg@base@UModSys@@UEAA@XZ 000000018000ef20 f   umodsys_lib_base:umodsys.base.modulereg.obj
 0001:0000df40       ??0IModuleLibraryReg@base@UModSys@@QEAA@XZ 000000018000ef40 f   umodsys_lib_base:umodsys.base.modulereg.obj
 0001:0000df60       ?mr_close@IModuleReg@base@UModSys@@UEAA_NXZ 000000018000ef60 f   umodsys_lib_base:umodsys.base.modulereg.obj
 0001:0000df80       ?mr_open@IModuleReg@base@UModSys@@UEAA_NXZ 000000018000ef80 f   umodsys_lib_base:umodsys.base.modulereg.obj
 0001:0000dfb0       ?mr_isopen@IModuleReg@base@UModSys@@UEBA_NXZ 000000018000efb0 f   umodsys_lib_base:umodsys.base.modulereg.obj
 0001:0000dfc0       ??1IModuleReg@base@UModSys@@UEAA@XZ 000000018000efc0 f   umodsys_lib_base:umodsys.base.modulereg.obj
 0001:0000dfe0       ??0IModuleReg@base@UModSys@@QEAA@PEBDHH0@Z 000000018000efe0 f   umodsys_lib_base:umodsys.base.modulereg.obj
 0001:0000e020       UModSys_Plugin_Entry2      000000018000f020 f   umodsys_lib_base:umodsys.so_main.win32.obj
 0001:0000e030       ??1RModuleLibraryReg_Chain@base@UModSys@@UEAA@XZ 000000018000f030 f   umodsys_lib_base:umodsys.base.moduleregchain.obj
 0001:0000e050       ??0RModuleLibraryReg_Chain@base@UModSys@@QEAA@XZ 000000018000f050 f   umodsys_lib_base:umodsys.base.moduleregchain.obj
 0001:0000e080       ?s_get@SModuleRegChain@base@UModSys@@SAPEAUIModuleReg@23@_K@Z 000000018000f080 f   umodsys_lib_base:umodsys.base.moduleregchain.obj
 0001:0000e0c0       ??1SModuleRegChain@base@UModSys@@QEAA@XZ 000000018000f0c0 f   umodsys_lib_base:umodsys.base.moduleregchain.obj
 0001:0000e0f0       ??0SModuleRegChain@base@UModSys@@QEAA@AEAUIModuleReg@12@@Z 000000018000f0f0 f   umodsys_lib_base:umodsys.base.moduleregchain.obj
 0001:0000e140       ?mlr_isopen@RModuleLibraryReg_Chain@base@UModSys@@UEBA_NXZ 000000018000f140 f   umodsys_lib_base:umodsys.base.moduleregchain.obj
 0001:0000e160       ?mlr_close@RModuleLibraryReg_Chain@base@UModSys@@UEAA_NXZ 000000018000f160 f   umodsys_lib_base:umodsys.base.moduleregchain.obj
 0001:0000e1a0       ?mlr_open@RModuleLibraryReg_Chain@base@UModSys@@UEAA_NPEAUISystem@23@PEAUIMemAlloc@core@3@@Z 000000018000f1a0 f   umodsys_lib_base:umodsys.base.moduleregchain.obj
 0001:0000e1e0       ?mlr_get@RModuleLibraryReg_Chain@base@UModSys@@UEBAPEAUIModuleReg@23@_K@Z 000000018000f1e0 f   umodsys_lib_base:umodsys.base.moduleregchain.obj
 0001:0000e1f0       ?mlr_count@RModuleLibraryReg_Chain@base@UModSys@@UEBA_KXZ 000000018000f1f0 f   umodsys_lib_base:umodsys.base.moduleregchain.obj
 0001:0000e230       ??0SModuleRegChain@base@UModSys@@QEAA@H@Z 000000018000f230 f   umodsys_lib_base:umodsys.base.moduleregchain.obj
 0001:0000e250       ?unlink@SMemorySharedData@core@UModSys@@QEAAXPEBUSSourceContext@23@@Z 000000018000f250 f   umodsys_lib_base:umodsys.base.modulecontext.obj
 0001:0000e280       ?link@SMemorySharedData@core@UModSys@@QEAAXPEBUSSourceContext@23@@Z 000000018000f280 f   umodsys_lib_base:umodsys.base.modulecontext.obj
 0001:0000e290       ?Link@SModuleContext@base@UModSys@@QEAAXPEAUISystem@23@PEAUIMemAlloc@core@3@@Z 000000018000f290 f   umodsys_lib_base:umodsys.base.modulecontext.obj
 0001:0000e330       ??1SModuleContext@base@UModSys@@QEAA@XZ 000000018000f330 f   umodsys_lib_base:umodsys.base.modulecontext.obj
 0001:0000e340       ?new_data@SMemorySharedData@core@UModSys@@SAPEAU123@PEAUIMemAlloc@23@_KPEBUSSourceContext@23@@Z 000000018000f340 f   umodsys_lib_base:umodsys.base.modulecontext.obj
 0001:0000e390       ?get_paramworker@SParameters@core@UModSys@@KAPEAUIParameters@23@XZ 000000018000f390 f   umodsys_lib_base:umodsys.base.modulecontext.obj
 0001:0000e3b0       ?shared_memory@UModSys@@YAAEBUSIMemAlloc@core@1@XZ 000000018000f3b0 f   umodsys_lib_base:umodsys.base.modulecontext.obj
 0001:0000e3c0       ?local_memory@UModSys@@YAAEBUSIMemAlloc@core@1@XZ 000000018000f3c0 f   umodsys_lib_base:umodsys.base.modulecontext.obj
 0001:0000e3d0       ??0SModuleContext@base@UModSys@@QEAA@XZ 000000018000f3d0 f   umodsys_lib_base:umodsys.base.modulecontext.obj
 0001:0000e400       ?mod_dec@RGenerator@serialize_json@media@modules@UModSys@@UEBA_NXZ 000000018000f400 f   umodsys_lib_libmedia:umodsys.mod.media.serialize_json.obj
 0001:0000e420       ?mod_inc@RGenerator@serialize_json@media@modules@UModSys@@UEBA_NXZ 000000018000f420 f   umodsys_lib_libmedia:umodsys.mod.media.serialize_json.obj
 0001:0000e440       ?get_module@RGenerator@serialize_json@media@modules@UModSys@@UEBAPEAUIModule@base@5@XZ 000000018000f440 f   umodsys_lib_libmedia:umodsys.mod.media.serialize_json.obj
 0001:0000e450       ?s_holder@RGenerator@serialize_json@media@modules@UModSys@@SAAEAU?$TTypeStaticHolder@URGenerator@serialize_json@media@modules@UModSys@@@tl@5@XZ 000000018000f450 f   umodsys_lib_libmedia:umodsys.mod.media.serialize_json.obj
 0001:0000e4a0       ?s_unreg@RGenerator@serialize_json@media@modules@UModSys@@SA_NPEAUIModuleReg@base@5@@Z 000000018000f4a0 f   umodsys_lib_libmedia:umodsys.mod.media.serialize_json.obj
 0001:0000e510       ?s_reg@RGenerator@serialize_json@media@modules@UModSys@@SA_NPEAUIModuleReg@base@5@@Z 000000018000f510 f   umodsys_lib_libmedia:umodsys.mod.media.serialize_json.obj
 0001:0000e580       ?mod_dec@RGenerator@images_std@media@modules@UModSys@@UEBA_NXZ 000000018000f580 f   umodsys_lib_libmedia:umodsys.mod.media.images_std.obj
 0001:0000e5a0       ?mod_inc@RGenerator@images_std@media@modules@UModSys@@UEBA_NXZ 000000018000f5a0 f   umodsys_lib_libmedia:umodsys.mod.media.images_std.obj
 0001:0000e5c0       ?get_module@RGenerator@images_std@media@modules@UModSys@@UEBAPEAUIModule@base@5@XZ 000000018000f5c0 f   umodsys_lib_libmedia:umodsys.mod.media.images_std.obj
 0001:0000e5d0       ?saver_jpeg@RMediaFilter@images_std@media@modules@UModSys@@QEAA_NPEBUIImage@lib2d@5@AEAUSInfo@IBinObjFilter@libmedia@5@AEBUSParameters@core@5@PEBD_N@Z 000000018000f5d0 f   umodsys_lib_libmedia:umodsys.mod.media.images_std.obj
 0001:0000e670       ?filter_load@RMediaFilter@images_std@media@modules@UModSys@@UEAA_NAEBUSInfo@IBinObjFilter@libmedia@5@AEAU?$TRefObject@UIRefObject@core@UModSys@@U?$TRefObjectFunc@UIRefObject@core@UModSys@@@tl@3@@tl@5@@Z 000000018000f670 f   umodsys_lib_libmedia:umodsys.mod.media.images_std.obj
 0001:0000e680       ?s_holder@RGenerator@images_std@media@modules@UModSys@@SAAEAU?$TTypeStaticHolder@URGenerator@images_std@media@modules@UModSys@@@tl@5@XZ 000000018000f680 f   umodsys_lib_libmedia:umodsys.mod.media.images_std.obj
 0001:0000e6d0       ?png_write@RMediaFilter@images_std@media@modules@UModSys@@KAXPEAUpng_struct_def@@PEAE_K@Z 000000018000f6d0 f   umodsys_lib_libmedia:umodsys.mod.media.images_std.obj
 0001:0000e740       ?png_read@RMediaFilter@images_std@media@modules@UModSys@@KAXPEAUpng_struct_def@@PEAE_K@Z 000000018000f740 f   umodsys_lib_libmedia:umodsys.mod.media.images_std.obj
 0001:0000e7b0       ?png_err@RMediaFilter@images_std@media@modules@UModSys@@KAXPEAUpng_struct_def@@PEBD@Z 000000018000f7b0 f   umodsys_lib_libmedia:umodsys.mod.media.images_std.obj
 0001:0000e7e0       ?s_unreg@RGenerator@images_std@media@modules@UModSys@@SA_NPEAUIModuleReg@base@5@@Z 000000018000f7e0 f   umodsys_lib_libmedia:umodsys.mod.media.images_std.obj
 0001:0000e850       ?s_reg@RGenerator@images_std@media@modules@UModSys@@SA_NPEAUIModuleReg@base@5@@Z 000000018000f850 f   umodsys_lib_libmedia:umodsys.mod.media.images_std.obj
 0001:0000e8d0       ?saver_png@RMediaFilter@images_std@media@modules@UModSys@@QEAA_NPEBUIImage@lib2d@5@AEAUSInfo@IBinObjFilter@libmedia@5@AEBUSParameters@core@5@PEBD_N@Z 000000018000f8d0 f   umodsys_lib_libmedia:umodsys.mod.media.images_std.obj
 0001:0000ed30       ?filter_save@RMediaFilter@images_std@media@modules@UModSys@@UEAA_NAEAUSInfo@IBinObjFilter@libmedia@5@PEBUIRefObject@core@5@@Z 000000018000fd30 f   umodsys_lib_libmedia:umodsys.mod.media.images_std.obj
 0001:0000f000       ?loader_png@RMediaFilter@images_std@media@modules@UModSys@@QEAA_NPEAUIImage@lib2d@5@AEBUSInfo@IBinObjFilter@libmedia@5@AEBUSParameters@core@5@HPEBD_N@Z 0000000180010000 f   umodsys_lib_libmedia:umodsys.mod.media.images_std.obj
 0001:0000f450       ?loader_jpeg@RMediaFilter@images_std@media@modules@UModSys@@QEAA_NPEAUIImage@lib2d@5@AEBUSInfo@IBinObjFilter@libmedia@5@AEBUSParameters@core@5@HPEBD_N@Z 0000000180010450 f   umodsys_lib_libmedia:umodsys.mod.media.images_std.obj
 0001:0000f7d0       ?filter_load@RMediaFilter@images_std@media@modules@UModSys@@UEAA_NAEBUSInfo@IBinObjFilter@libmedia@5@PEAUIRefObject@core@5@@Z 00000001800107d0 f   umodsys_lib_libmedia:umodsys.mod.media.images_std.obj
 0001:0000fb20       ?mod_dec@RGenerator@frames@ui@modules@UModSys@@UEBA_NXZ 0000000180010b20 f   umodsys_lib_libui:umodsys.mod.ui.frames.obj
 0001:0000fb40       ?mod_inc@RGenerator@frames@ui@modules@UModSys@@UEBA_NXZ 0000000180010b40 f   umodsys_lib_libui:umodsys.mod.ui.frames.obj
 0001:0000fb60       ?get_module@RGenerator@frames@ui@modules@UModSys@@UEBAPEAUIModule@base@5@XZ 0000000180010b60 f   umodsys_lib_libui:umodsys.mod.ui.frames.obj
 0001:0000fb70       ??1SButton@frames@ui@modules@UModSys@@QEAA@XZ 0000000180010b70 f   umodsys_lib_libui:umodsys.mod.ui.frames.obj
 0001:0000fb80       ?close@RDialog@frames@ui@modules@UModSys@@UEAA_NXZ 0000000180010b80 f   umodsys_lib_libui:umodsys.mod.ui.frames.obj
 0001:0000fbc0       ?cont_next@RFrame_Common@frames@ui@modules@UModSys@@IEAAPEAU12345@PEAU12345@@Z 0000000180010bc0 f   umodsys_lib_libui:umodsys.mod.ui.frames.obj
 0001:0000fc80       ?cont_prev@RFrame_Common@frames@ui@modules@UModSys@@IEAAPEAU12345@PEAU12345@@Z 0000000180010c80 f   umodsys_lib_libui:umodsys.mod.ui.frames.obj
 0001:0000fd40       ?get_collector@RFrame_Common@frames@ui@modules@UModSys@@UEAAPEAUICollector@libui@5@XZ 0000000180010d40 f   umodsys_lib_libui:umodsys.mod.ui.frames.obj
 0001:0000fd50       ?dialog_get@RCollector@frames@ui@modules@UModSys@@UEAAPEAUIDialog@libui@5@XZ 0000000180010d50 f   umodsys_lib_libui:umodsys.mod.ui.frames.obj
 0001:0000fd80       ?cont_last@RCollector@frames@ui@modules@UModSys@@IEAAPEAURFrame_Common@2345@PEAU62345@@Z 0000000180010d80 f   umodsys_lib_libui:umodsys.mod.ui.frames.obj
 0001:0000fdd0       ?cont_first@RCollector@frames@ui@modules@UModSys@@IEAAPEAURFrame_Common@2345@PEAU62345@@Z 0000000180010dd0 f   umodsys_lib_libui:umodsys.mod.ui.frames.obj
 0001:0000fe40       ?set_focused@RCollector@frames@ui@modules@UModSys@@IEAA_NPEAUIFrame@libui@5@@Z 0000000180010e40 f   umodsys_lib_libui:umodsys.mod.ui.frames.obj
 0001:0000fed0       ?update_size@RCollector@frames@ui@modules@UModSys@@IEAA_NAEBU?$TBoundBox2@H@math3d@5@AEBU?$TDynarrayDynamic@U?$TRefObject@URFrame_Common@frames@ui@modules@UModSys@@U?$TRefObjectFunc@URFrame_Common@frames@ui@modules@UModSys@@@tl@5@@tl@UModSys@@U?$TAllocator@USIMemAlloc@core@UModSys@@USCountCalcPower2@23@@23@@tl@5@_N@Z 0000000180010ed0 f   umodsys_lib_libui:umodsys.mod.ui.frames.obj
 0001:0000ff90       ?evmouse@RCollector@frames@ui@modules@UModSys@@IEAA_NAEBU?$TDynarrayDynamic@U?$TRefObject@URFrame_Common@frames@ui@modules@UModSys@@U?$TRefObjectFunc@URFrame_Common@frames@ui@modules@UModSys@@@tl@5@@tl@UModSys@@U?$TAllocator@USIMemAlloc@core@UModSys@@USCountCalcPower2@23@@23@@tl@5@@Z 0000000180010f90 f   umodsys_lib_libui:umodsys.mod.ui.frames.obj
 0001:00010040       ?output_attach_3d@RCollector@frames@ui@modules@UModSys@@UEAA_NPEAUIRenderDriver@lib3d@5@H@Z 0000000180011040 f   umodsys_lib_libui:umodsys.mod.ui.frames.obj
 0001:00010050       ?get_minsize@RCollector@frames@ui@modules@UModSys@@UEAA_NAEAU?$TVector2@H@math3d@5@@Z 0000000180011050 f   umodsys_lib_libui:umodsys.mod.ui.frames.obj
 0001:00010060       ?get_maxbox@RCollector@frames@ui@modules@UModSys@@UEAA_NAEAU?$TBoundBox2@H@math3d@5@@Z 0000000180011060 f   umodsys_lib_libui:umodsys.mod.ui.frames.obj
 0001:00010070       ?frame_remove@RCollector@frames@ui@modules@UModSys@@UEAA_NPEAUIFrame@libui@5@@Z 0000000180011070 f   umodsys_lib_libui:umodsys.mod.ui.frames.obj
 0001:00010080       ?get_lcount@RFrame_List@frames@ui@modules@UModSys@@UEAAHXZ 0000000180011080 f   umodsys_lib_libui:umodsys.mod.ui.frames.obj
 0001:000100a0       ?sselect@RFrame_Edit@frames@ui@modules@UModSys@@IEAA_NH@Z 00000001800110a0 f   umodsys_lib_libui:umodsys.mod.ui.frames.obj
 0001:000100d0       ?mouse_event@RFrame_Edit@frames@ui@modules@UModSys@@MEAA_NPEBUSMouseInput@libui@5@@Z 00000001800110d0 f   umodsys_lib_libui:umodsys.mod.ui.frames.obj
 0001:00010150       ?dpause@RDialog@frames@ui@modules@UModSys@@QEAA_N_N@Z 0000000180011150 f   umodsys_lib_libui:umodsys.mod.ui.frames.obj
 0001:00010180       ?dclose@RDialog@frames@ui@modules@UModSys@@QEAA_NXZ 0000000180011180 f   umodsys_lib_libui:umodsys.mod.ui.frames.obj
 0001:000101c0       ?set_focused@RDialog@frames@ui@modules@UModSys@@UEAA_NPEAUIFrame@libui@5@@Z 00000001800111c0 f   umodsys_lib_libui:umodsys.mod.ui.frames.obj
 0001:00010240       ?get_focused@RDialog@frames@ui@modules@UModSys@@UEAAPEAUIFrame@libui@5@XZ 0000000180011240 f   umodsys_lib_libui:umodsys.mod.ui.frames.obj
 0001:00010250       ?get_root@RDialog@frames@ui@modules@UModSys@@UEAAPEAUIFrame@libui@5@XZ 0000000180011250 f   umodsys_lib_libui:umodsys.mod.ui.frames.obj
 0001:00010260       ?is_enabled@RFrame_Common@frames@ui@modules@UModSys@@MEAA_NXZ 0000000180011260 f   umodsys_lib_libui:umodsys.mod.ui.frames.obj
 0001:000102b0       ?draw@RFrame_Common@frames@ui@modules@UModSys@@MEAA_NAEBUSDrawState@2345@@Z 00000001800112b0 f   umodsys_lib_libui:umodsys.mod.ui.frames.obj
 0001:00010350       ?find_context@RFrame_Common@frames@ui@modules@UModSys@@UEAAPEAUIFrame@libui@5@HPEAUIController@75@@Z 0000000180011350 f   umodsys_lib_libui:umodsys.mod.ui.frames.obj
 0001:00010400       ?get_sub@RFrame_Common@frames@ui@modules@UModSys@@UEAAPEAUIFrame@libui@5@PEAU675@H@Z 0000000180011400 f   umodsys_lib_libui:umodsys.mod.ui.frames.obj
 0001:00010410       ?get_parent@RFrame_Common@frames@ui@modules@UModSys@@UEAAPEAUIFrame@libui@5@XZ 0000000180011410 f   umodsys_lib_libui:umodsys.mod.ui.frames.obj
 0001:00010420       ?set_repeater@RFrame_Common@frames@ui@modules@UModSys@@UEAA_NHH@Z 0000000180011420 f   umodsys_lib_libui:umodsys.mod.ui.frames.obj
 0001:00010430       ?get_flag@RFrame_Common@frames@ui@modules@UModSys@@UEAA_NH@Z 0000000180011430 f   umodsys_lib_libui:umodsys.mod.ui.frames.obj
 0001:000104a0       ?set_flag@RFrame_Common@frames@ui@modules@UModSys@@UEAA_NH_N@Z 00000001800114a0 f   umodsys_lib_libui:umodsys.mod.ui.frames.obj
 0001:00010590       ?s_holder@RGenerator@frames@ui@modules@UModSys@@SAAEAU?$TTypeStaticHolder@URGenerator@frames@ui@modules@UModSys@@@tl@5@XZ 0000000180011590 f   umodsys_lib_libui:umodsys.mod.ui.frames.obj
 0001:000105e0       ?mouse@SButton@frames@ui@modules@UModSys@@QEAA_NPEBUSMouseInput@libui@5@@Z 00000001800115e0 f   umodsys_lib_libui:umodsys.mod.ui.frames.obj
 0001:00010790       ?dialog_close_all@RCollector@frames@ui@modules@UModSys@@UEAA_NXZ 0000000180011790 f   umodsys_lib_libui:umodsys.mod.ui.frames.obj
 0001:00010860       ?dialog_close@RCollector@frames@ui@modules@UModSys@@UEAA_NXZ 0000000180011860 f   umodsys_lib_libui:umodsys.mod.ui.frames.obj
 0001:00010980       ?find_next_focused@RCollector@frames@ui@modules@UModSys@@IEAAPEAURFrame_Common@2345@PEAU62345@0_N@Z 0000000180011980 f   umodsys_lib_libui:umodsys.mod.ui.frames.obj
 0001:00010ba0       ?broadcast@RCollector@frames@ui@modules@UModSys@@IEAAHAEBU?$TDynarrayDynamic@U?$TRefObject@URFrame_Common@frames@ui@modules@UModSys@@U?$TRefObjectFunc@URFrame_Common@frames@ui@modules@UModSys@@@tl@5@@tl@UModSys@@U?$TAllocator@USIMemAlloc@core@UModSys@@USCountCalcPower2@23@@23@@tl@5@HAEBUSFrameDataIn@libui@5@H@Z 0000000180011ba0 f   umodsys_lib_libui:umodsys.mod.ui.frames.obj
 0001:00010ca0       ?evmouse@RCollector@frames@ui@modules@UModSys@@IEAA_NAEBU?$TBoundBox2@H@math3d@5@AEBU?$TDynarrayDynamic@U?$TRefObject@URFrame_Common@frames@ui@modules@UModSys@@U?$TRefObjectFunc@URFrame_Common@frames@ui@modules@UModSys@@@tl@5@@tl@UModSys@@U?$TAllocator@USIMemAlloc@core@UModSys@@USCountCalcPower2@23@@23@@tl@5@AEBUSMouseInput@libui@5@PEAURFrame_Common@2345@@Z 0000000180011ca0 f   umodsys_lib_libui:umodsys.mod.ui.frames.obj
 0001:00010e80       ?insert@RCollector@frames@ui@modules@UModSys@@IEAA_NPEAURFrame_Common@2345@0@Z 0000000180011e80 f   umodsys_lib_libui:umodsys.mod.ui.frames.obj
 0001:00010f10       ?shutdown@RCollector@frames@ui@modules@UModSys@@UEAA_NXZ 0000000180011f10 f   umodsys_lib_libui:umodsys.mod.ui.frames.obj
 0001:00010fe0       ?input_attach_k@RCollector@frames@ui@modules@UModSys@@UEAA_NPEAUIKeyboardController@libui@5@H@Z 0000000180011fe0 f   umodsys_lib_libui:umodsys.mod.ui.frames.obj
 0001:00011070       ?input_attach_m@RCollector@frames@ui@modules@UModSys@@UEAA_NPEAUIMouseController@libui@5@H@Z 0000000180012070 f   umodsys_lib_libui:umodsys.mod.ui.frames.obj
 0001:00011110       ?input_process@RCollector@frames@ui@modules@UModSys@@UEAA_NH@Z 0000000180012110 f   umodsys_lib_libui:umodsys.mod.ui.frames.obj
 0001:00011140       ?output_attach_2d@RCollector@frames@ui@modules@UModSys@@UEAA_NPEAUIRenderDriver@lib2d@5@H@Z 0000000180012140 f   umodsys_lib_libui:umodsys.mod.ui.frames.obj
 0001:00011190       ?sselect@RFrame_List@frames@ui@modules@UModSys@@IEAA_NH@Z 0000000180012190 f   umodsys_lib_libui:umodsys.mod.ui.frames.obj
 0001:00011260       ?get_value@RFrame_List@frames@ui@modules@UModSys@@UEAA_NHAEBUSFrameDataOut@libui@5@@Z 0000000180012260 f   umodsys_lib_libui:umodsys.mod.ui.frames.obj
 0001:00011290       ?set_value@RFrame_List@frames@ui@modules@UModSys@@UEAA_NHAEBUSFrameDataIn@libui@5@@Z 0000000180012290 f   umodsys_lib_libui:umodsys.mod.ui.frames.obj
 0001:000112c0       ?mouse_event@RFrame_List@frames@ui@modules@UModSys@@MEAA_NPEBUSMouseInput@libui@5@@Z 00000001800122c0 f   umodsys_lib_libui:umodsys.mod.ui.frames.obj
 0001:00011460       ?key_event@RFrame_List@frames@ui@modules@UModSys@@MEAA_NAEBUSKeyboardInputRaw@libui@5@@Z 0000000180012460 f   umodsys_lib_libui:umodsys.mod.ui.frames.obj
 0001:00011570       ?button_cmd@RFrame_List@frames@ui@modules@UModSys@@MEAA_NPEAUSButton@2345@HH@Z 0000000180012570 f   umodsys_lib_libui:umodsys.mod.ui.frames.obj
 0001:00011690       ?sinsert@RFrame_Edit@frames@ui@modules@UModSys@@IEAA_NHPEBHH@Z 0000000180012690 f   umodsys_lib_libui:umodsys.mod.ui.frames.obj
 0001:000117e0       ?sdelete@RFrame_Edit@frames@ui@modules@UModSys@@IEAA_NHH@Z 00000001800127e0 f   umodsys_lib_libui:umodsys.mod.ui.frames.obj
 0001:00011900       ?key_event@RFrame_Edit@frames@ui@modules@UModSys@@MEAA_NAEBUSKeyboardInputRaw@libui@5@@Z 0000000180012900 f   umodsys_lib_libui:umodsys.mod.ui.frames.obj
 0001:000119d0       ?mouse_event@RFrame_Button@frames@ui@modules@UModSys@@MEAA_NPEBUSMouseInput@libui@5@@Z 00000001800129d0 f   umodsys_lib_libui:umodsys.mod.ui.frames.obj
 0001:000119f0       ?key_event@RFrame_Button@frames@ui@modules@UModSys@@MEAA_NAEBUSKeyboardInputRaw@libui@5@@Z 00000001800129f0 f   umodsys_lib_libui:umodsys.mod.ui.frames.obj
 0001:00011ac0       ?button_cmd@RFrame_Button@frames@ui@modules@UModSys@@MEAA_NPEAUSButton@2345@HH@Z 0000000180012ac0 f   umodsys_lib_libui:umodsys.mod.ui.frames.obj
 0001:00011b60       ??0RDialog@frames@ui@modules@UModSys@@QEAA@PEAURCollector@1234@PEAURFrame_Common@1234@@Z 0000000180012b60 f   umodsys_lib_libui:umodsys.mod.ui.frames.obj
 0001:00011c00       ?configure@RFrame_Common@frames@ui@modules@UModSys@@UEAA_NPEBD0AEBUSParameters@core@5@@Z 0000000180012c00 f   umodsys_lib_libui:umodsys.mod.ui.frames.obj
 0001:00011cc0       ??1RCollectorTheme@frames@ui@modules@UModSys@@QEAA@XZ 0000000180012cc0 f   umodsys_lib_libui:umodsys.mod.ui.frames.obj
 0001:00011ce0       ??0RCollectorTheme@frames@ui@modules@UModSys@@QEAA@PEAUICollectorThemeTree@libui@4@@Z 0000000180012ce0 f   umodsys_lib_libui:umodsys.mod.ui.frames.obj
 0001:00011d10       ?get_elem_index@RCollectorTheme@frames@ui@modules@UModSys@@UEAAHPEBD@Z 0000000180012d10 f   umodsys_lib_libui:umodsys.mod.ui.frames.obj
 0001:00011ee0       ?get_group_index@RCollectorTheme@frames@ui@modules@UModSys@@UEAAHPEBD@Z 0000000180012ee0 f   umodsys_lib_libui:umodsys.mod.ui.frames.obj
 0001:00011ff0       ?s_unreg@RGenerator@frames@ui@modules@UModSys@@SA_NPEAUIModuleReg@base@5@@Z 0000000180012ff0 f   umodsys_lib_libui:umodsys.mod.ui.frames.obj
 0001:00012060       ?s_reg@RGenerator@frames@ui@modules@UModSys@@SA_NPEAUIModuleReg@base@5@@Z 0000000180013060 f   umodsys_lib_libui:umodsys.mod.ui.frames.obj
 0001:000120e0       ?draw_progress@SButton@frames@ui@modules@UModSys@@QEAA_NAEBUSDrawState@2345@MHHH@Z 00000001800130e0 f   umodsys_lib_libui:umodsys.mod.ui.frames.obj
 0001:000121d0       ?draw_arrow@SButton@frames@ui@modules@UModSys@@QEAA_NAEBUSDrawState@2345@HHH@Z 00000001800131d0 f   umodsys_lib_libui:umodsys.mod.ui.frames.obj
 0001:00012310       ?draw@SButton@frames@ui@modules@UModSys@@QEAA_NAEBUSDrawState@2345@@Z 0000000180013310 f   umodsys_lib_libui:umodsys.mod.ui.frames.obj
 0001:00012400       ??0SButton@frames@ui@modules@UModSys@@QEAA@PEAURFrame_Common@1234@HAEBUSFrameSize@libui@4@@Z 0000000180013400 f   umodsys_lib_libui:umodsys.mod.ui.frames.obj
 0001:00012460       ?dopen@RDialog@frames@ui@modules@UModSys@@QEAA_NXZ 0000000180013460 f   umodsys_lib_libui:umodsys.mod.ui.frames.obj
 0001:000124d0       ?set_focus@RFrame_Common@frames@ui@modules@UModSys@@MEAA_N_N@Z 00000001800134d0 f   umodsys_lib_libui:umodsys.mod.ui.frames.obj
 0001:00012580       ?dialog_open@RCollector@frames@ui@modules@UModSys@@UEAAPEAUIDialog@libui@5@PEAUIFrame@75@@Z 0000000180013580 f   umodsys_lib_libui:umodsys.mod.ui.frames.obj
 0001:000126f0       ??1RCollector@frames@ui@modules@UModSys@@UEAA@XZ 00000001800136f0 f   umodsys_lib_libui:umodsys.mod.ui.frames.obj
 0001:00012810       ?get_focused@RCollector@frames@ui@modules@UModSys@@IEAAPEAURFrame_Common@2345@XZ 0000000180013810 f   umodsys_lib_libui:umodsys.mod.ui.frames.obj
 0001:00012860       ?update_size@RCollector@frames@ui@modules@UModSys@@IEAA_NXZ 0000000180013860 f   umodsys_lib_libui:umodsys.mod.ui.frames.obj
 0001:00012aa0       ?draw@RCollector@frames@ui@modules@UModSys@@IEAA_NAEBUSDrawState@2345@AEBU?$TDynarrayDynamic@U?$TRefObject@URFrame_Common@frames@ui@modules@UModSys@@U?$TRefObjectFunc@URFrame_Common@frames@ui@modules@UModSys@@@tl@5@@tl@UModSys@@U?$TAllocator@USIMemAlloc@core@UModSys@@USCountCalcPower2@23@@23@@tl@5@@Z 0000000180013aa0 f   umodsys_lib_libui:umodsys.mod.ui.frames.obj
 0001:00012ba0       ?key_text@RCollector@frames@ui@modules@UModSys@@UEAA_NAEBUSKeyboardInputText@libui@5@@Z 0000000180013ba0 f   umodsys_lib_libui:umodsys.mod.ui.frames.obj
 0001:00012bf0       ?mouse_event@RCollector@frames@ui@modules@UModSys@@UEAA_NAEBUSMouseInput@libui@5@@Z 0000000180013bf0 f   umodsys_lib_libui:umodsys.mod.ui.frames.obj
 0001:00012ca0       ?output_process@RCollector@frames@ui@modules@UModSys@@UEAA_NXZ 0000000180013ca0 f   umodsys_lib_libui:umodsys.mod.ui.frames.obj
 0001:00012e20       ?button_draw@RFrame_List@frames@ui@modules@UModSys@@MEAA_NPEAUSButton@2345@AEBUSDrawState@2345@H@Z 0000000180013e20 f   umodsys_lib_libui:umodsys.mod.ui.frames.obj
 0001:00012ef0       ?key_event@RFrame_Edit@frames@ui@modules@UModSys@@MEAA_NAEBUSKeyboardInputText@libui@5@@Z 0000000180013ef0 f   umodsys_lib_libui:umodsys.mod.ui.frames.obj
 0001:00012f20       ?draw_post@RFrame_Button@frames@ui@modules@UModSys@@MEAA_NAEBUSDrawState@2345@@Z 0000000180013f20 f   umodsys_lib_libui:umodsys.mod.ui.frames.obj
 0001:00012f40       ?draw_pre@RFrame_Image@frames@ui@modules@UModSys@@MEAA_NAEBUSDrawState@2345@@Z 0000000180013f40 f   umodsys_lib_libui:umodsys.mod.ui.frames.obj
 0001:00013090       ??1RDialog@frames@ui@modules@UModSys@@UEAA@XZ 0000000180014090 f   umodsys_lib_libui:umodsys.mod.ui.frames.obj
 0001:00013100       ??1RFrame_Common@frames@ui@modules@UModSys@@UEAA@XZ 0000000180014100 f   umodsys_lib_libui:umodsys.mod.ui.frames.obj
 0001:000131c0       ?update_size@RFrame_Common@frames@ui@modules@UModSys@@MEAA_NAEBU?$TBoundBox2@H@math3d@5@@Z 00000001800141c0 f   umodsys_lib_libui:umodsys.mod.ui.frames.obj
 0001:00013200       ?draw_focus@RFrame_Common@frames@ui@modules@UModSys@@MEAA_NAEBUSDrawState@2345@@Z 0000000180014200 f   umodsys_lib_libui:umodsys.mod.ui.frames.obj
 0001:000132a0       ?draw_sub@RFrame_Common@frames@ui@modules@UModSys@@MEAA_NAEBUSDrawState@2345@@Z 00000001800142a0 f   umodsys_lib_libui:umodsys.mod.ui.frames.obj
 0001:000132c0       ??0RCollector@frames@ui@modules@UModSys@@QEAA@PEAUIModObject@base@4@AEBUSParameters@core@4@@Z 00000001800142c0 f   umodsys_lib_libui:umodsys.mod.ui.frames.obj
 0001:000139a0       ?master_key_pressed@RCollector@frames@ui@modules@UModSys@@IEAA_NAEBUSKeyboardInputRaw@libui@5@@Z 00000001800149a0 f   umodsys_lib_libui:umodsys.mod.ui.frames.obj
 0001:00013aa0       ?key_pressed@RCollector@frames@ui@modules@UModSys@@UEAA_NAEBUSKeyboardInputRaw@libui@5@@Z 0000000180014aa0 f   umodsys_lib_libui:umodsys.mod.ui.frames.obj
 0001:00013b00       ?set_lvalue@RFrame_List@frames@ui@modules@UModSys@@UEAA_NHHAEBUSFrameDataIn@libui@5@@Z 0000000180014b00 f   umodsys_lib_libui:umodsys.mod.ui.frames.obj
 0001:00013ba0       ?update_size@RFrame_List@frames@ui@modules@UModSys@@MEAA_NAEBU?$TBoundBox2@H@math3d@5@@Z 0000000180014ba0 f   umodsys_lib_libui:umodsys.mod.ui.frames.obj
 0001:00013c10       ?draw_post@RFrame_List@frames@ui@modules@UModSys@@MEAA_NAEBUSDrawState@2345@@Z 0000000180014c10 f   umodsys_lib_libui:umodsys.mod.ui.frames.obj
 0001:000142b0       ??1RFrame_Edit@frames@ui@modules@UModSys@@UEAA@XZ 00000001800152b0 f   umodsys_lib_libui:umodsys.mod.ui.frames.obj
 0001:00014370       ?set_buf@RFrame_Edit@frames@ui@modules@UModSys@@IEAA_NPEBDH@Z 0000000180015370 f   umodsys_lib_libui:umodsys.mod.ui.frames.obj
 0001:00014520       ?update_last@RFrame_Edit@frames@ui@modules@UModSys@@IEAA_NXZ 0000000180015520 f   umodsys_lib_libui:umodsys.mod.ui.frames.obj
 0001:00014600       ?set_value@RFrame_Edit@frames@ui@modules@UModSys@@UEAA_NHAEBUSFrameDataIn@libui@5@@Z 0000000180015600 f   umodsys_lib_libui:umodsys.mod.ui.frames.obj
 0001:00014690       ?draw_post@RFrame_Edit@frames@ui@modules@UModSys@@MEAA_NAEBUSDrawState@2345@@Z 0000000180015690 f   umodsys_lib_libui:umodsys.mod.ui.frames.obj
 0001:000148d0       ??1RFrame_Button@frames@ui@modules@UModSys@@UEAA@XZ 00000001800158d0 f   umodsys_lib_libui:umodsys.mod.ui.frames.obj
 0001:00014960       ?update_size@RFrame_Button@frames@ui@modules@UModSys@@MEAA_NAEBU?$TBoundBox2@H@math3d@5@@Z 0000000180015960 f   umodsys_lib_libui:umodsys.mod.ui.frames.obj
 0001:000149a0       ??1RFrame_Image@frames@ui@modules@UModSys@@UEAA@XZ 00000001800159a0 f   umodsys_lib_libui:umodsys.mod.ui.frames.obj
 0001:00014a00       ??1RFrame_Text@frames@ui@modules@UModSys@@UEAA@XZ 0000000180015a00 f   umodsys_lib_libui:umodsys.mod.ui.frames.obj
 0001:00014aa0       ?set_value@RFrame_Text@frames@ui@modules@UModSys@@UEAA_NHAEBUSFrameDataIn@libui@5@@Z 0000000180015aa0 f   umodsys_lib_libui:umodsys.mod.ui.frames.obj
 0001:00014b20       ??1RFrame_Frame@frames@ui@modules@UModSys@@UEAA@XZ 0000000180015b20 f   umodsys_lib_libui:umodsys.mod.ui.frames.obj
 0001:00014b40       ??0RFrame_Common@frames@ui@modules@UModSys@@QEAA@PEAURCollector@1234@PEAU01234@@Z 0000000180015b40 f   umodsys_lib_libui:umodsys.mod.ui.frames.obj
 0001:00014c60       ?set_fcp@RFrame_Common@frames@ui@modules@UModSys@@MEAA_NAEBUSFrameCreateParameters@libui@5@PEBUSParameters@core@5@@Z 0000000180015c60 f   umodsys_lib_libui:umodsys.mod.ui.frames.obj
 0001:00014d40       ?get_lvalue@RFrame_List@frames@ui@modules@UModSys@@UEAA_NHHAEBUSFrameDataOut@libui@5@@Z 0000000180015d40 f   umodsys_lib_libui:umodsys.mod.ui.frames.obj
 0001:00014df0       ?set_lcount@RFrame_List@frames@ui@modules@UModSys@@UEAA_NH@Z 0000000180015df0 f   umodsys_lib_libui:umodsys.mod.ui.frames.obj
 0001:00014e40       ?controller_update@RFrame_List@frames@ui@modules@UModSys@@UEAA_NXZ 0000000180015e40 f   umodsys_lib_libui:umodsys.mod.ui.frames.obj
 0001:00014f70       ?set_fcp@RFrame_List@frames@ui@modules@UModSys@@MEAA_NAEBUSFrameCreateParameters@libui@5@PEBUSParameters@core@5@@Z 0000000180015f70 f   umodsys_lib_libui:umodsys.mod.ui.frames.obj
 0001:000150b0       ??0RFrame_Edit@frames@ui@modules@UModSys@@QEAA@PEAURCollector@1234@PEAURFrame_Common@1234@@Z 00000001800160b0 f   umodsys_lib_libui:umodsys.mod.ui.frames.obj
 0001:000151a0       ?get_value@RFrame_Edit@frames@ui@modules@UModSys@@UEAA_NHAEBUSFrameDataOut@libui@5@@Z 00000001800161a0 f   umodsys_lib_libui:umodsys.mod.ui.frames.obj
 0001:000152b0       ?set_fcp@RFrame_Edit@frames@ui@modules@UModSys@@MEAA_NAEBUSFrameCreateParameters@libui@5@PEBUSParameters@core@5@@Z 00000001800162b0 f   umodsys_lib_libui:umodsys.mod.ui.frames.obj
 0001:00015350       ??0RFrame_Button@frames@ui@modules@UModSys@@QEAA@PEAURCollector@1234@PEAURFrame_Common@1234@@Z 0000000180016350 f   umodsys_lib_libui:umodsys.mod.ui.frames.obj
 0001:00015460       ?set_fcp@RFrame_Button@frames@ui@modules@UModSys@@MEAA_NAEBUSFrameCreateParameters@libui@5@PEBUSParameters@core@5@@Z 0000000180016460 f   umodsys_lib_libui:umodsys.mod.ui.frames.obj
 0001:00015520       ?button_draw@RFrame_Button@frames@ui@modules@UModSys@@MEAA_NPEAUSButton@2345@AEBUSDrawState@2345@H@Z 0000000180016520 f   umodsys_lib_libui:umodsys.mod.ui.frames.obj
 0001:00015680       ??0RFrame_Image@frames@ui@modules@UModSys@@QEAA@PEAURCollector@1234@PEAURFrame_Common@1234@@Z 0000000180016680 f   umodsys_lib_libui:umodsys.mod.ui.frames.obj
 0001:00015720       ?set_fcp@RFrame_Image@frames@ui@modules@UModSys@@MEAA_NAEBUSFrameCreateParameters@libui@5@PEBUSParameters@core@5@@Z 0000000180016720 f   umodsys_lib_libui:umodsys.mod.ui.frames.obj
 0001:000157a0       ??0RFrame_Text@frames@ui@modules@UModSys@@QEAA@PEAURCollector@1234@PEAURFrame_Common@1234@@Z 00000001800167a0 f   umodsys_lib_libui:umodsys.mod.ui.frames.obj
 0001:00015860       ?get_value@RFrame_Text@frames@ui@modules@UModSys@@UEAA_NHAEBUSFrameDataOut@libui@5@@Z 0000000180016860 f   umodsys_lib_libui:umodsys.mod.ui.frames.obj
 0001:000158f0       ?set_fcp@RFrame_Text@frames@ui@modules@UModSys@@MEAA_NAEBUSFrameCreateParameters@libui@5@PEBUSParameters@core@5@@Z 00000001800168f0 f   umodsys_lib_libui:umodsys.mod.ui.frames.obj
 0001:000159b0       ?draw_post@RFrame_Text@frames@ui@modules@UModSys@@MEAA_NAEBUSDrawState@2345@@Z 00000001800169b0 f   umodsys_lib_libui:umodsys.mod.ui.frames.obj
 0001:00015c10       ??0RFrame_Frame@frames@ui@modules@UModSys@@QEAA@PEAURCollector@1234@PEAURFrame_Common@1234@@Z 0000000180016c10 f   umodsys_lib_libui:umodsys.mod.ui.frames.obj
 0001:00015ca0       ??1RFrame_List@frames@ui@modules@UModSys@@UEAA@XZ 0000000180016ca0 f   umodsys_lib_libui:umodsys.mod.ui.frames.obj
 0001:00015d00       ??0RFrame_List@frames@ui@modules@UModSys@@QEAA@PEAURCollector@1234@PEAURFrame_Common@1234@@Z 0000000180016d00 f   umodsys_lib_libui:umodsys.mod.ui.frames.obj
 0001:00015f10       ?frame_create_s@RCollector@frames@ui@modules@UModSys@@UEAAPEAUIFrame@libui@5@AEBU?$TString@U?$TSCoreConst@D@su@tl@UModSys@@U?$TComparerBinaryHash@D@234@@tl@5@AEBUSFrameCreateParameters@75@PEBUSParameters@core@5@@Z 0000000180016f10 f   umodsys_lib_libui:umodsys.mod.ui.frames.obj
 0001:000162e0       ?frame_create_n@RCollector@frames@ui@modules@UModSys@@UEAAPEAUIFrame@libui@5@HAEBUSFrameCreateParameters@75@PEBUSParameters@core@5@@Z 00000001800172e0 f   umodsys_lib_libui:umodsys.mod.ui.frames.obj
 0001:00016590       ?mod_dec@RGenerator@SDL_core@ui@modules@UModSys@@UEBA_NXZ 0000000180017590 f   umodsys_lib_libui:umodsys.mod.ui.SDL_core.obj
 0001:000165b0       ?mod_inc@RGenerator@SDL_core@ui@modules@UModSys@@UEBA_NXZ 00000001800175b0 f   umodsys_lib_libui:umodsys.mod.ui.SDL_core.obj
 0001:000165d0       ?get_module@RGenerator@SDL_core@ui@modules@UModSys@@UEBAPEAUIModule@base@5@XZ 00000001800175d0 f   umodsys_lib_libui:umodsys.mod.ui.SDL_core.obj
 0001:000165e0       ?get_terminal@RRenderDriver2D@SDL_core@ui@modules@UModSys@@UEBAPEAUITerminal@libui@5@XZ 00000001800175e0 f   umodsys_lib_libui:umodsys.mod.ui.SDL_core.obj
 0001:000165f0       ?s_holder@RGenerator@SDL_core@ui@modules@UModSys@@SAAEAU?$TTypeStaticHolder@URGenerator@SDL_core@ui@modules@UModSys@@@tl@5@XZ 00000001800175f0 f   umodsys_lib_libui:umodsys.mod.ui.SDL_core.obj
 0001:00016640       ?as_texture@RMultiImage2D_SDL_ttf@SDL_core@ui@modules@UModSys@@QEBAPEAUSDL_Texture@@PEAUSDL_Surface@@@Z 0000000180017640 f   umodsys_lib_libui:umodsys.mod.ui.SDL_core.obj
 0001:00016660       ?new_picture@RRenderDriver2D@SDL_core@ui@modules@UModSys@@UEAA?AU?$TRefObject@UIImage@lib2d@UModSys@@U?$TRefObjectFunc@UIImage@lib2d@UModSys@@@tl@3@@tl@5@AEBUSParameters@core@5@AEBU?$TString@U?$TSCoreConst@D@su@tl@UModSys@@U?$TComparerBinaryHash@D@234@@75@@Z 0000000180017660 f   umodsys_lib_libui:umodsys.mod.ui.SDL_core.obj
 0001:00016680       ?s_unreg@RGenerator@SDL_core@ui@modules@UModSys@@SA_NPEAUIModuleReg@base@5@@Z 0000000180017680 f   umodsys_lib_libui:umodsys.mod.ui.SDL_core.obj
 0001:000166f0       ?s_reg@RGenerator@SDL_core@ui@modules@UModSys@@SA_NPEAUIModuleReg@base@5@@Z 00000001800176f0 f   umodsys_lib_libui:umodsys.mod.ui.SDL_core.obj
 0001:00016770       ?new_font@RRenderDriver2D@SDL_core@ui@modules@UModSys@@UEAA?AU?$TRefObject@UIMultiImage@lib2d@UModSys@@U?$TRefObjectFunc@UIMultiImage@lib2d@UModSys@@@tl@3@@tl@5@AEBUSParameters@core@5@AEBU?$TString@U?$TSCoreConst@D@su@tl@UModSys@@U?$TComparerBinaryHash@D@234@@75@@Z 0000000180017770 f   umodsys_lib_libui:umodsys.mod.ui.SDL_core.obj
 0001:00016850       ?mod_dec@RGenerator@stdlib@lib2d@modules@UModSys@@UEBA_NXZ 0000000180017850 f   umodsys_lib_lib2d:umodsys.mod.2d.stdlib.obj
 0001:00016870       ?mod_inc@RGenerator@stdlib@lib2d@modules@UModSys@@UEBA_NXZ 0000000180017870 f   umodsys_lib_lib2d:umodsys.mod.2d.stdlib.obj
 0001:00016890       ?get_module@RGenerator@stdlib@lib2d@modules@UModSys@@UEBAPEAUIModule@base@5@XZ 0000000180017890 f   umodsys_lib_lib2d:umodsys.mod.2d.stdlib.obj
 0001:000168a0       ?s_holder@RGenerator@stdlib@lib2d@modules@UModSys@@SAAEAU?$TTypeStaticHolder@URGenerator@stdlib@lib2d@modules@UModSys@@@tl@5@XZ 00000001800178a0 f   umodsys_lib_lib2d:umodsys.mod.2d.stdlib.obj
 0001:000168f0       ?s_unreg@RGenerator@stdlib@lib2d@modules@UModSys@@SA_NPEAUIModuleReg@base@5@@Z 00000001800178f0 f   umodsys_lib_lib2d:umodsys.mod.2d.stdlib.obj
 0001:00016960       ?s_reg@RGenerator@stdlib@lib2d@modules@UModSys@@SA_NPEAUIModuleReg@base@5@@Z 0000000180017960 f   umodsys_lib_lib2d:umodsys.mod.2d.stdlib.obj
 0001:000169e0       ?mod_dec@RGenerator@test1@test@modules@UModSys@@UEBA_NXZ 00000001800179e0 f   plugin_test1.obj
 0001:00016a00       ?mod_inc@RGenerator@test1@test@modules@UModSys@@UEBA_NXZ 0000000180017a00 f   plugin_test1.obj
 0001:00016a20       ?get_module@RGenerator@test1@test@modules@UModSys@@UEBAPEAUIModule@base@5@XZ 0000000180017a20 f   plugin_test1.obj
 0001:00016a30       ?command_draw@RTest1_Shell@test1@test@modules@UModSys@@UEAA_NAEBUSController@libui@5@PEAUIRenderDriver@lib2d@5@AEBU?$TBoundBox2@H@math3d@5@@Z 0000000180017a30 f   plugin_test1.obj
 0001:00016a40       ?s_holder@RGenerator@test1@test@modules@UModSys@@SAAEAU?$TTypeStaticHolder@URGenerator@test1@test@modules@UModSys@@@tl@5@XZ 0000000180017a40 f   plugin_test1.obj
 0001:00016a90       ?db_get@RTest1_Shell@test1@test@modules@UModSys@@UEAA_NAEBUSController@libui@5@QEBDAEBUSFrameDataOut@75@@Z 0000000180017a90 f   plugin_test1.obj
 0001:00016b20       ?command@RTest1_Shell@test1@test@modules@UModSys@@UEAA_NAEBUSController@libui@5@HAEBUSFrameDataIn@75@@Z 0000000180017b20 f   plugin_test1.obj
 0001:00016b70       ?mouse_event@RTest1_Shell@test1@test@modules@UModSys@@UEAA_NAEBUSMouseInput@libui@5@@Z 0000000180017b70 f   plugin_test1.obj
 0001:00016c10       ?key_text@RTest1_Shell@test1@test@modules@UModSys@@UEAA_NAEBUSKeyboardInputText@libui@5@@Z 0000000180017c10 f   plugin_test1.obj
 0001:00016c60       ?key_pressed@RTest1_Shell@test1@test@modules@UModSys@@UEAA_NAEBUSKeyboardInputRaw@libui@5@@Z 0000000180017c60 f   plugin_test1.obj
 0001:00016cd0       ?s_unreg@RGenerator@test1@test@modules@UModSys@@SA_NPEAUIModuleReg@base@5@@Z 0000000180017cd0 f   plugin_test1.obj
 0001:00016d40       ?s_reg@RGenerator@test1@test@modules@UModSys@@SA_NPEAUIModuleReg@base@5@@Z 0000000180017d40 f   plugin_test1.obj
 0001:00016dc0       ?db_get@RTest1_Shell@test1@test@modules@UModSys@@UEAA_NAEBUSController@libui@5@QEBDHAEBUSFrameDataOut@75@@Z 0000000180017dc0 f   plugin_test1.obj
 0001:00016e70       ?media_cache@RTest1_Shell@test1@test@modules@UModSys@@QEAA?AU?$TRefObject@UILibrary@libmedia@UModSys@@U?$TRefObjectFunc@UILibrary@libmedia@UModSys@@@tl@3@@tl@5@_N@Z 0000000180017e70 f   plugin_test1.obj
 0001:00017060       ?media_lay@RTest1_Shell@test1@test@modules@UModSys@@QEAA?AU?$TRefObject@UILibraryLayered@libmedia@UModSys@@U?$TRefObjectFunc@UILibraryLayered@libmedia@UModSys@@@tl@3@@tl@5@XZ 0000000180018060 f   plugin_test1.obj
 0001:00017160       ?media_flt@RTest1_Shell@test1@test@modules@UModSys@@QEAA?AU?$TRefObject@UILibraryObjFilter@libmedia@UModSys@@U?$TRefObjectFunc@UILibraryObjFilter@libmedia@UModSys@@@tl@3@@tl@5@XZ 0000000180018160 f   plugin_test1.obj
 0001:00017260       ?media_vfs@RTest1_Shell@test1@test@modules@UModSys@@QEAA?AU?$TRefObject@UILibraryBinTree@libmedia@UModSys@@U?$TRefObjectFunc@UILibraryBinTree@libmedia@UModSys@@@tl@3@@tl@5@XZ 0000000180018260 f   plugin_test1.obj
 0001:00017360       ?media_filter_new@RTest1_Shell@test1@test@modules@UModSys@@QEAA?AU?$TRefObject@UIBinObjFilter@libmedia@UModSys@@U?$TRefObjectFunc@UIBinObjFilter@libmedia@UModSys@@@tl@3@@tl@5@AEBU?$TString@U?$TSCoreConst@D@su@tl@UModSys@@U?$TComparerBinaryHash@D@234@@75@AEBUSParameters@core@5@@Z 0000000180018360 f   plugin_test1.obj
 0001:00017450       ?media_arch_stdio@RTest1_Shell@test1@test@modules@UModSys@@QEAA?AU?$TRefObject@UIBinArchive@libmedia@UModSys@@U?$TRefObjectFunc@UIBinArchive@libmedia@UModSys@@@tl@3@@tl@5@AEBU?$TString@U?$TSCoreConst@D@su@tl@UModSys@@U?$TComparerBinaryHash@D@234@@75@@Z 0000000180018450 f   plugin_test1.obj
 0001:00017570       ?new_mem_image@RTest1_Shell@test1@test@modules@UModSys@@QEAA?AU?$TRefObject@UIImage@lib2d@UModSys@@U?$TRefObjectFunc@UIImage@lib2d@UModSys@@@tl@3@@tl@5@XZ 0000000180018570 f   plugin_test1.obj
 0001:00017670       ?file_test6@RTest1_Shell@test1@test@modules@UModSys@@QEAAXXZ 0000000180018670 f   plugin_test1.obj
 0001:00018720       ?add@SUniquePtrList@core@UModSys@@QEAA_NPEBUSUniquePointerInfo@23@@Z 0000000180019720 f   umodsys_lib_core:umodsys.core.uniqueptrlist.obj
 0001:0001877c       memcpy                     000000018001977c f   MSVCRT:MSVCR90.dll
 0001:00018782       __CxxFrameHandler3         0000000180019782 f   MSVCRT:MSVCR90.dll
 0001:00018788       _setjmp                    0000000180019788 f   MSVCRT:MSVCR90.dll
 0001:000187a0       _alloca_probe              00000001800197a0     MSVCRT:chkstk.obj
 0001:000187a0       __chkstk                   00000001800197a0 f   MSVCRT:chkstk.obj
 0002:00000000       __imp_Sleep                000000018001d000     kernel32:KERNEL32.dll
 0002:00000008       __imp_QueryPerformanceCounter 000000018001d008     kernel32:KERNEL32.dll
 0002:00000010       __imp_GetTickCount         000000018001d010     kernel32:KERNEL32.dll
 0002:00000018       __imp_GetCurrentThreadId   000000018001d018     kernel32:KERNEL32.dll
 0002:00000020       __imp_GetCurrentProcessId  000000018001d020     kernel32:KERNEL32.dll
 0002:00000028       __imp_GetSystemTimeAsFileTime 000000018001d028     kernel32:KERNEL32.dll
 0002:00000030       __imp_DisableThreadLibraryCalls 000000018001d030     kernel32:KERNEL32.dll
 0002:00000038       \177KERNEL32_NULL_THUNK_DATA 000000018001d038     kernel32:KERNEL32.dll
 0002:00000040       __imp_longjmp              000000018001d040     MSVCRT:MSVCR90.dll
 0002:00000048       __imp_strtod               000000018001d048     MSVCRT:MSVCR90.dll
 0002:00000050       __imp__snprintf            000000018001d050     MSVCRT:MSVCR90.dll
 0002:00000058       __imp_strtol               000000018001d058     MSVCRT:MSVCR90.dll
 0002:00000060       __imp_strncpy              000000018001d060     MSVCRT:MSVCR90.dll
 0002:00000068       __imp___C_specific_handler 000000018001d068     MSVCRT:MSVCR90.dll
 0002:00000070       __imp__unlock              000000018001d070     MSVCRT:MSVCR90.dll
 0002:00000078       __imp___dllonexit          000000018001d078     MSVCRT:MSVCR90.dll
 0002:00000080       __imp__encode_pointer      000000018001d080     MSVCRT:MSVCR90.dll
 0002:00000088       __imp__lock                000000018001d088     MSVCRT:MSVCR90.dll
 0002:00000090       __imp__onexit              000000018001d090     MSVCRT:MSVCR90.dll
 0002:00000098       __imp__decode_pointer      000000018001d098     MSVCRT:MSVCR90.dll
 0002:000000a0       __imp_memchr               000000018001d0a0     MSVCRT:MSVCR90.dll
 0002:000000a8       __imp__initterm            000000018001d0a8     MSVCRT:MSVCR90.dll
 0002:000000b0       __imp__initterm_e          000000018001d0b0     MSVCRT:MSVCR90.dll
 0002:000000b8       __imp_free                 000000018001d0b8     MSVCRT:MSVCR90.dll
 0002:000000c0       __imp__encoded_null        000000018001d0c0     MSVCRT:MSVCR90.dll
 0002:000000c8       __imp__amsg_exit           000000018001d0c8     MSVCRT:MSVCR90.dll
 0002:000000d0       __imp___CppXcptFilter      000000018001d0d0     MSVCRT:MSVCR90.dll
 0002:000000d8       __imp__vsnprintf           000000018001d0d8     MSVCRT:MSVCR90.dll
 0002:000000d8       __imp_vsnprintf            000000018001d0d8     MSVCRT:MSVCR90.dll
 0002:000000e0       __imp_?terminate@@YAXXZ    000000018001d0e0     MSVCRT:MSVCR90.dll
 0002:000000e8       __imp_?_type_info_dtor_internal_method@type_info@@QEAAXXZ 000000018001d0e8     MSVCRT:MSVCR90.dll
 0002:000000f0       __imp___clean_type_info_names_internal 000000018001d0f0     MSVCRT:MSVCR90.dll
 0002:000000f8       __imp___CxxFrameHandler3   000000018001d0f8     MSVCRT:MSVCR90.dll
 0002:00000100       __imp_memcpy               000000018001d100     MSVCRT:MSVCR90.dll
 0002:00000108       __imp_strstr               000000018001d108     MSVCRT:MSVCR90.dll
 0002:00000110       __imp_memmove              000000018001d110     MSVCRT:MSVCR90.dll
 0002:00000118       __imp_??2@YAPEAX_K@Z       000000018001d118     MSVCRT:MSVCR90.dll
 0002:00000120       __imp_??3@YAXPEAX@Z        000000018001d120     MSVCRT:MSVCR90.dll
 0002:00000128       __imp__purecall            000000018001d128     MSVCRT:MSVCR90.dll
 0002:00000130       __imp_strncmp              000000018001d130     MSVCRT:MSVCR90.dll
 0002:00000138       __imp__malloc_crt          000000018001d138     MSVCRT:MSVCR90.dll
 0002:00000140       __imp_sprintf              000000018001d140     MSVCRT:MSVCR90.dll
 0002:00000148       __imp__setjmp              000000018001d148     MSVCRT:MSVCR90.dll
 0002:00000150       \177MSVCR90_NULL_THUNK_DATA 000000018001d150     MSVCRT:MSVCR90.dll
 0002:00000158       __imp_SDL_RenderPresent    000000018001d158     lib_SDL2:lib_SDL2.dll
 0002:00000160       __imp_SDL_FreeSurface      000000018001d160     lib_SDL2:lib_SDL2.dll
 0002:00000168       __imp_SDL_Quit             000000018001d168     lib_SDL2:lib_SDL2.dll
 0002:00000170       __imp_TTF_Quit             000000018001d170     lib_SDL2:lib_SDL2.dll
 0002:00000178       __imp_SDL_RenderDrawRect   000000018001d178     lib_SDL2:lib_SDL2.dll
 0002:00000180       __imp_SDL_RenderFillRect   000000018001d180     lib_SDL2:lib_SDL2.dll
 0002:00000188       __imp_SDL_GetTicks         000000018001d188     lib_SDL2:lib_SDL2.dll
 0002:00000190       __imp_SDL_PeepEvents       000000018001d190     lib_SDL2:lib_SDL2.dll
 0002:00000198       __imp_SDL_StartTextInput   000000018001d198     lib_SDL2:lib_SDL2.dll
 0002:000001a0       __imp_SDL_SetTextureColorMod 000000018001d1a0     lib_SDL2:lib_SDL2.dll
 0002:000001a8       __imp_SDL_RenderClear      000000018001d1a8     lib_SDL2:lib_SDL2.dll
 0002:000001b0       __imp_SDL_Delay            000000018001d1b0     lib_SDL2:lib_SDL2.dll
 0002:000001b8       __imp_TTF_RenderGlyph_Shaded 000000018001d1b8     lib_SDL2:lib_SDL2.dll
 0002:000001c0       __imp_SDL_PumpEvents       000000018001d1c0     lib_SDL2:lib_SDL2.dll
 0002:000001c8       __imp_TTF_Init             000000018001d1c8     lib_SDL2:lib_SDL2.dll
 0002:000001d0       __imp_TTF_CloseFont        000000018001d1d0     lib_SDL2:lib_SDL2.dll
 0002:000001d8       __imp_TTF_OpenFont         000000018001d1d8     lib_SDL2:lib_SDL2.dll
 0002:000001e0       __imp_SDL_SetRenderDrawColor 000000018001d1e0     lib_SDL2:lib_SDL2.dll
 0002:000001e8       __imp_SDL_SetRenderDrawBlendMode 000000018001d1e8     lib_SDL2:lib_SDL2.dll
 0002:000001f0       __imp_SDL_StopTextInput    000000018001d1f0     lib_SDL2:lib_SDL2.dll
 0002:000001f8       __imp_SDL_RenderDrawLine   000000018001d1f8     lib_SDL2:lib_SDL2.dll
 0002:00000200       __imp_SDL_RenderDrawLines  000000018001d200     lib_SDL2:lib_SDL2.dll
 0002:00000208       __imp_SDL_Init             000000018001d208     lib_SDL2:lib_SDL2.dll
 0002:00000210       __imp_SDL_DestroyWindow    000000018001d210     lib_SDL2:lib_SDL2.dll
 0002:00000218       __imp_TTF_GlyphMetrics     000000018001d218     lib_SDL2:lib_SDL2.dll
 0002:00000220       __imp_SDL_CreateWindow     000000018001d220     lib_SDL2:lib_SDL2.dll
 0002:00000228       __imp_SDL_RenderCopy       000000018001d228     lib_SDL2:lib_SDL2.dll
 0002:00000230       __imp_SDL_DestroyRenderer  000000018001d230     lib_SDL2:lib_SDL2.dll
 0002:00000238       __imp_SDL_DestroyTexture   000000018001d238     lib_SDL2:lib_SDL2.dll
 0002:00000240       __imp_SDL_CreateTextureFromSurface 000000018001d240     lib_SDL2:lib_SDL2.dll
 0002:00000248       __imp_SDL_CreateRenderer   000000018001d248     lib_SDL2:lib_SDL2.dll
 0002:00000250       \177lib_SDL2_NULL_THUNK_DATA 000000018001d250     lib_SDL2:lib_SDL2.dll
 0002:00000258       __imp_jpeg_std_error       000000018001d258     lib_jpeglib:lib_jpeglib.dll
 0002:00000260       __imp_jpeg_read_scanlines  000000018001d260     lib_jpeglib:lib_jpeglib.dll
 0002:00000268       __imp_jpeg_finish_decompress 000000018001d268     lib_jpeglib:lib_jpeglib.dll
 0002:00000270       __imp_jpeg_read_header     000000018001d270     lib_jpeglib:lib_jpeglib.dll
 0002:00000278       __imp_jpeg_resync_to_restart 000000018001d278     lib_jpeglib:lib_jpeglib.dll
 0002:00000280       __imp_jpeg_destroy_decompress 000000018001d280     lib_jpeglib:lib_jpeglib.dll
 0002:00000288       __imp_jpeg_CreateDecompress 000000018001d288     lib_jpeglib:lib_jpeglib.dll
 0002:00000290       __imp_jpeg_start_decompress 000000018001d290     lib_jpeglib:lib_jpeglib.dll
 0002:00000298       __imp_jpeg_destroy         000000018001d298     lib_jpeglib:lib_jpeglib.dll
 0002:000002a0       \177lib_jpeglib_NULL_THUNK_DATA 000000018001d2a0     lib_jpeglib:lib_jpeglib.dll
 0002:000002a8       __imp_png_create_info_struct 000000018001d2a8     lib_libpng:lib_libpng.dll
 0002:000002b0       __imp_png_destroy_read_struct 000000018001d2b0     lib_libpng:lib_libpng.dll
 0002:000002b8       __imp_png_set_IHDR         000000018001d2b8     lib_libpng:lib_libpng.dll
 0002:000002c0       __imp_png_error            000000018001d2c0     lib_libpng:lib_libpng.dll
 0002:000002c8       __imp_png_read_row         000000018001d2c8     lib_libpng:lib_libpng.dll
 0002:000002d0       __imp_png_create_write_struct 000000018001d2d0     lib_libpng:lib_libpng.dll
 0002:000002d8       __imp_png_set_longjmp_fn   000000018001d2d8     lib_libpng:lib_libpng.dll
 0002:000002e0       __imp_png_set_sig_bytes    000000018001d2e0     lib_libpng:lib_libpng.dll
 0002:000002e8       __imp_png_read_update_info 000000018001d2e8     lib_libpng:lib_libpng.dll
 0002:000002f0       __imp_png_get_io_ptr       000000018001d2f0     lib_libpng:lib_libpng.dll
 0002:000002f8       __imp_png_write_end        000000018001d2f8     lib_libpng:lib_libpng.dll
 0002:00000300       __imp_png_create_read_struct 000000018001d300     lib_libpng:lib_libpng.dll
 0002:00000308       __imp_png_write_rows       000000018001d308     lib_libpng:lib_libpng.dll
 0002:00000310       __imp_png_sig_cmp          000000018001d310     lib_libpng:lib_libpng.dll
 0002:00000318       __imp_png_read_info        000000018001d318     lib_libpng:lib_libpng.dll
 0002:00000320       __imp_png_set_write_fn     000000018001d320     lib_libpng:lib_libpng.dll
 0002:00000328       __imp_png_destroy_write_struct 000000018001d328     lib_libpng:lib_libpng.dll
 0002:00000330       __imp_png_write_info       000000018001d330     lib_libpng:lib_libpng.dll
 0002:00000338       __imp_png_get_IHDR         000000018001d338     lib_libpng:lib_libpng.dll
 0002:00000340       __imp_png_set_read_fn      000000018001d340     lib_libpng:lib_libpng.dll
 0002:00000348       \177lib_libpng_NULL_THUNK_DATA 000000018001d348     lib_libpng:lib_libpng.dll
 0002:00000350       __xc_a                     000000018001d350     MSVCRT:cinitexe.obj
 0002:000012f0       __xc_z                     000000018001e2f0     MSVCRT:cinitexe.obj
 0002:000012f8       __xi_a                     000000018001e2f8     MSVCRT:cinitexe.obj
 0002:00001308       __xi_z                     000000018001e308     MSVCRT:cinitexe.obj
 0002:00001318       ??_7type_info@@6B@         000000018001e318     MSVCRT:ti_inst.obj
 0002:00001320       _pDefaultRawDllMain        000000018001e320     MSVCRT:crtdll.obj
 0002:00001320       _pRawDllMain               000000018001e320     MSVCRT:crtdll.obj
 0002:00001328       ??_C@_0P@GHFPNOJB@bad?5allocation?$AA@ 000000018001e328     plugin_test1.obj
 0002:00001338       ??_C@_0BF@OCNNAADO@UModSys?3?3core?3?3IRoot?$AA@ 000000018001e338     plugin_test1.obj
 0002:00001350       ??_C@_0BK@EMIJFOPA@UModSys?3?3core?3?3IRefObject?$AA@ 000000018001e350     plugin_test1.obj
 0002:00001370       ??_C@_0BL@IOMMHELF@UModSys?3?3core?3?3IParameters?$AA@ 000000018001e370     plugin_test1.obj
 0002:00001390       ??_C@_0BH@LKDEEPPM@UModSys?3?3base?3?3IModule?$AA@ 000000018001e390     plugin_test1.obj
 0002:000013a8       ??_C@_0BO@PHJOHFCB@UModSys?3?3base?3?3IModuleLibrary?$AA@ 000000018001e3a8     plugin_test1.obj
 0002:000013c8       ??_C@_0BK@FDPIOPHG@UModSys?3?3base?3?3IModObject?$AA@ 000000018001e3c8     plugin_test1.obj
 0002:000013e8       ??_C@_0BK@OIBKNCKJ@UModSys?3?3base?3?3IGenerator?$AA@ 000000018001e3e8     plugin_test1.obj
 0002:00001408       ??_C@_0BG@PJBGCMEC@UModSys?3?3base?3?3IShell?$AA@ 000000018001e408     plugin_test1.obj
 0002:00001420       ??_C@_0BI@IKAOEFAP@UModSys?3?3base?3?3IConsole?$AA@ 000000018001e420     plugin_test1.obj
 0002:00001438       ??_C@_0BH@PFCONEJJ@UModSys?3?3base?3?3ISystem?$AA@ 000000018001e438     plugin_test1.obj
 0002:00001450       ??_C@_0CB@CLGNFEGF@UModSys?3?3libmedia?3?3IStreamReader@ 000000018001e450     plugin_test1.obj
 0002:00001478       ??_C@_0CB@HOPFFLP@UModSys?3?3libmedia?3?3IStreamWriter@ 000000018001e478     plugin_test1.obj
 0002:000014a0       ??_C@_0BP@KCJMEDNO@UModSys?3?3libmedia?3?3IBinArchive?$AA@ 000000018001e4a0     plugin_test1.obj
 0002:000014c0       ??_C@_0CB@FDEKNMGJ@UModSys?3?3libmedia?3?3IBinObjFilter@ 000000018001e4c0     plugin_test1.obj
 0002:000014e8       ??_C@_0BM@DPCMOAPM@UModSys?3?3libmedia?3?3ILibrary?$AA@ 000000018001e4e8     plugin_test1.obj
 0002:00001508       ??_C@_0CD@ELIFEGE@UModSys?3?3libmedia?3?3ILibraryBinTr@ 000000018001e508     plugin_test1.obj
 0002:00001530       ??_C@_0CE@EGHBJBAJ@UModSys?3?3libmedia?3?3ILibraryBinCa@ 000000018001e530     plugin_test1.obj
 0002:00001558       ??_C@_0CF@LBIGBLOK@UModSys?3?3libmedia?3?3ILibraryObjFi@ 000000018001e558     plugin_test1.obj
 0002:00001580       ??_C@_0CE@BOBLEOBL@UModSys?3?3libmedia?3?3ILibraryObjCa@ 000000018001e580     plugin_test1.obj
 0002:000015a8       ??_C@_0CD@LJFEJKGF@UModSys?3?3libmedia?3?3ILibraryLayer@ 000000018001e5a8     plugin_test1.obj
 0002:000015d0       ??_C@_0CE@GJOHFLIN@UModSys?3?3libmedia?3?3ISerializeRea@ 000000018001e5d0     plugin_test1.obj
 0002:000015f8       ??_C@_0CE@EFGFFKFH@UModSys?3?3libmedia?3?3ISerializeWri@ 000000018001e5f8     plugin_test1.obj
 0002:00001620       ?utf_bytesFromUTF8@su@tl@UModSys@@3QBEB 000000018001e620     umodsys_lib_core:umodsys.tl.utf.obj
 0002:00001720       ?utf_firstByteMark@su@tl@UModSys@@3QBEB 000000018001e720     umodsys_lib_core:umodsys.tl.utf.obj
 0002:00001728       ?utf_offsetsFromUTF8@su@tl@UModSys@@3QBHB 000000018001e728     umodsys_lib_core:umodsys.tl.utf.obj
 0002:00001ce0       ??_C@_0BL@NMJBPMOF@UModSys?3?3base?3?3IConsoleExt?$AA@ 000000018001ece0     plugin_test1.obj
 0002:00001d00       ??_C@_0BO@CGANABBB@UModSys?3?3base?3?3IConsoleHelper?$AA@ 000000018001ed00     plugin_test1.obj
 0002:00001d20       ??_C@_0CF@NIEDAAFG@UModSys?3?3base?3?3IConsoleHelperHis@ 000000018001ed20     plugin_test1.obj
 0002:00001d48       ??_C@_0CD@FCDJONHN@UModSys?3?3base?3?3IConsoleHelperInp@ 000000018001ed48     plugin_test1.obj
 0002:00001d70       ??_C@_0CE@KMOIHDDJ@UModSys?3?3base?3?3IConsoleHelperOut@ 000000018001ed70     plugin_test1.obj
 0002:00001d98       ??_C@_0CH@NMEMKECD@UModSys?3?3base?3?3IConsoleHelperOut@ 000000018001ed98     plugin_test1.obj
 0002:00001dc0       ??_C@_0CE@DIFILHID@UModSys?3?3libui?3?3IKeyboardControl@ 000000018001edc0     plugin_test1.obj
 0002:00001de8       ??_C@_0CB@MBIJAGJE@UModSys?3?3libui?3?3IMouseController@ 000000018001ede8     plugin_test1.obj
 0002:00001e10       ??_C@_0CE@HLKJKPC@UModSys?3?3libui?3?3IJoystickControl@ 000000018001ee10     plugin_test1.obj
 0002:00001e38       ??_C@_0BK@GJJNKGGD@UModSys?3?3libui?3?3ITerminal?$AA@ 000000018001ee38     plugin_test1.obj
 0002:00001e58       ??_C@_0CK@HENOKNKH@UModSys?3?3libui?3?3IConsoleHelperIn@ 000000018001ee58     plugin_test1.obj
 0002:00001e88       ??_C@_0BL@LMBCJDKM@UModSys?3?3libui?3?3ICollector?$AA@ 000000018001ee88     plugin_test1.obj
 0002:00001ea8       ??_C@_0CB@FBNPBBJO@UModSys?3?3libui?3?3IAsyncController@ 000000018001eea8     plugin_test1.obj
 0002:00001ed0       ??_C@_0CA@OAEFPLGI@UModSys?3?3libui?3?3IAsyncCollector?$AA@ 000000018001eed0     plugin_test1.obj
 0002:00001ef0       ??_C@_0BH@IHOOLPEB@UModSys?3?3libui?3?3IFrame?$AA@ 000000018001eef0     plugin_test1.obj
 0002:00001f08       ??_C@_0BI@GAEFGDBL@UModSys?3?3libui?3?3IDialog?$AA@ 000000018001ef08     plugin_test1.obj
 0002:00001f20       ??_C@_0BH@JDBCAPMN@UModSys?3?3lib2d?3?3IImage?$AA@ 000000018001ef20     plugin_test1.obj
 0002:00001f38       ??_C@_0BM@NDCOKBPH@UModSys?3?3lib2d?3?3IMultiImage?$AA@ 000000018001ef38     plugin_test1.obj
 0002:00001f58       ??_C@_0BO@FFPMHFPK@UModSys?3?3lib2d?3?3IRenderDriver?$AA@ 000000018001ef58     plugin_test1.obj
 0002:00001f78       ??_C@_0CG@DNABKNDD@UModSys?3?3modules?3?3test?3?3test1?3?3I@ 000000018001ef78     plugin_test1.obj
 0002:00001fa0       ??_C@_0CG@FINIGFAH@UModSys?3?3modules?3?3test?3?3test1?3?3R@ 000000018001efa0     plugin_test1.obj
 0002:00001fc8       ??_C@_0CN@EFAOPDDB@UModSys?3?3modules?3?3test?3?3test1?3?3R@ 000000018001efc8     plugin_test1.obj
 0002:00001ff8       ??_C@_0CM@LNHNHIJB@UModSys?3?3modules?3?3test?3?3test1?3?3R@ 000000018001eff8     plugin_test1.obj
 0002:00002028       ??_C@_0BC@NIGGCDMG@RTest1_Shell?$CI?$CJ?5?$HL?6?$AA@ 000000018001f028     plugin_test1.obj
 0002:00002040       ??_C@_0DK@JIEMIEKA@UModSys?3?3modules?3?3test?3?3test1?3?3R@ 000000018001f040     plugin_test1.obj
 0002:00002080       ??_C@_0CK@OICDGBDJ@?4?4?2?4?4?2?4?4?2src?2plugin?2test?2plugin_@ 000000018001f080     plugin_test1.obj
 0002:000020b0       ??_C@_0BF@BMCPNMPN@?$HN?5?1?1?5RTest1_Shell?$CI?$CJ?6?$AA@ 000000018001f0b0     plugin_test1.obj
 0002:000020c8       ??_C@_0DL@OIAHAJF@UModSys?3?3modules?3?3test?3?3test1?3?3R@ 000000018001f0c8     plugin_test1.obj
 0002:00002108       ??_C@_0BB@MLDFLEML@?$HORTest1_Shell?$CI?$CJ?6?$AA@ 000000018001f108     plugin_test1.obj
 0002:00002120       ??_C@_0BJ@CCPCJEPP@RTest1_Shell?3?3connect?$CI?$CJ?6?$AA@ 000000018001f120     plugin_test1.obj
 0002:00002140       ??_C@_0BM@KBDBHLN@RTest1_Shell?3?3disconnect?$CI?$CJ?6?$AA@ 000000018001f140     plugin_test1.obj
 0002:00002160       ??_C@_0BI@PGLACHLJ@RTest1_Shell?3?3tick?$CI?$CFg?$CJ?6?$AA@ 000000018001f160     plugin_test1.obj
 0002:00002178       ??_C@_0BM@JFIEEBE@RTest1_Shell?3?3command?$CI?$CD?$CFd?$CJ?6?$AA@ 000000018001f178     plugin_test1.obj
 0002:00002194       ??_C@_00CNPNBAHC@?$AA@     000000018001f194     plugin_test1.obj
 0002:00002198       ??_C@_0BJ@BHDLGLFN@?$CK?3?3stdlib?3?3?$CKImage_Memory?$AA@ 000000018001f198     plugin_test1.obj
 0002:000021b8       ??_C@_08PEIJGPHF@pathname?$AA@ 000000018001f1b8     plugin_test1.obj
 0002:000021c8       ??_C@_0M@LAGNAJEJ@?$CK?3?3stdio?3?3?$CK?$AA@ 000000018001f1c8     plugin_test1.obj
 0002:000021d8       ??_C@_09BDJIOBCO@?$CK?3?3std?3?3?$CK?$AA@ 000000018001f1d8     plugin_test1.obj
 0002:000021e8       ??_C@_08BABJIOEM@filename?$AA@ 000000018001f1e8     plugin_test1.obj
 0002:000021f4       ??_C@_01LFCBOECM@?4?$AA@   000000018001f1f4     plugin_test1.obj
 0002:000021f8       ??_C@_01KMDKNFGN@?1?$AA@   000000018001f1f8     plugin_test1.obj
 0002:00002200       ??_C@_0M@PCCOIOKO@?4?1write?9dir?$AA@ 000000018001f200     plugin_test1.obj
 0002:00002210       ??_C@_0BG@GEOFOIGL@?$CK?$CK?$CK?$CK?$CK?$CK?$CK?$CK?5file?5test?56?6?$AA@ 000000018001f210     plugin_test1.obj
 0002:00002228       ??_C@_0L@HNOJHIKM@?1test?4json?$AA@ 000000018001f228     plugin_test1.obj
 0002:00002234       ??_C@_06DJAMKFID@stream?$AA@ 000000018001f234     plugin_test1.obj
 0002:0000223c       ??_C@_06FACEDNCH@?$CKjson?$CK?$AA@ 000000018001f23c     plugin_test1.obj
 0002:00002248       ??_C@_0BA@ENPPHMK@12?5?$AN?5?7?5?2?5?$CC?$FL?$FN?$CC?5?$AD?$AA@ 000000018001f248     plugin_test1.obj
 0002:00002258       ??_C@_01MCMALHOG@a?$AA@    000000018001f258     plugin_test1.obj
 0002:00002260       ??_C@_0M@GGCJIJLB@?1test2?4json?$AA@ 000000018001f260     plugin_test1.obj
 0002:00002270       ??_C@_0BB@NGHGAOOI@parse?5error?3?5?$CFs?6?$AA@ 000000018001f270     plugin_test1.obj
 0002:00002288       ??_C@_0BG@BEOCPHNK@configuration?5parsed?6?$AA@ 000000018001f288     plugin_test1.obj
 0002:000022a0       ??_C@_0O@IMJFODOA@lib2d?3?3IImage?$AA@ 000000018001f2a0     plugin_test1.obj
 0002:000022b0       ??_C@_0BI@OOGBIMJJ@?1minecraft_textures?4png?$AA@ 000000018001f2b0     plugin_test1.obj
 0002:000022c8       ??_C@_0L@FIBEPLMH@loaded?5?$CFd?6?$AA@ 000000018001f2c8     plugin_test1.obj
 0002:000022d8       ??_C@_0BM@OBDAFBAO@?1minecraft_textures_new?4png?$AA@ 000000018001f2d8     plugin_test1.obj
 0002:000022f8       ??_C@_09IJNLHBJC@saved?5?$CFd?6?$AA@ 000000018001f2f8     plugin_test1.obj
 0002:00002308       ??_C@_0BH@GMHJDKHE@?$FLKEY?4KEY?5?$CFd?0?$CFd?0?$CFd?0?$CFd?$FN?6?$AA@ 000000018001f308     plugin_test1.obj
 0002:00002320       ??_C@_0P@DPHFCOMI@?$FLKEY?4TEXT?5?$CFs?$FN?6?$AA@ 000000018001f320     plugin_test1.obj
 0002:00002330       ??_C@_0CO@KGBDJAHA@?$FLMOUSE?5?$CFx?5B?$CFx?3?$CFd?5A?$CI?$CFd?0?$CFd?$CJ?5R?$CI?$CFd?0?$CF@ 000000018001f330     plugin_test1.obj
 0002:00002360       ??_C@_0BJ@OKPGIKIP@?$FLCOMMAND?5?$CFd?$EA?$CFp?5C?$CFd?5D?$CFd?$FN?6?$AA@ 000000018001f360     plugin_test1.obj
 0002:0000237c       ??_C@_05IOMEMJEC@count?$AA@ 000000018001f37c     plugin_test1.obj
 0002:00002384       ??_C@_02LBJNIHKO@dy?$AA@   000000018001f384     plugin_test1.obj
 0002:00002388       ??_C@_04CIMGMMMG@text?$AA@ 000000018001f388     plugin_test1.obj
 0002:00002390       ??_C@_08GCGILLNN@Item?5?$CD?$CFd?$AA@ 000000018001f390     plugin_test1.obj
 0002:0000239c       ??_C@_06NCODBMHO@driver?$AA@ 000000018001f39c     plugin_test1.obj
 0002:000023a4       ??_C@_04EFPADHIC@font?$AA@ 000000018001f3a4     plugin_test1.obj
 0002:000023b0       ??_C@_07BANDPJOM@caption?$AA@ 000000018001f3b0     plugin_test1.obj
 0002:000023b8       ??_C@_09HPINFNJC@max_glyph?$AA@ 000000018001f3b8     plugin_test1.obj
 0002:000023c4       ??_C@_05MIJNFGED@frame?$AA@ 000000018001f3c4     plugin_test1.obj
 0002:000023cc       ??_C@_06HFKPFKMP@button?$AA@ 000000018001f3cc     plugin_test1.obj
 0002:000023d8       ??_C@_07GFFCACEC@max_len?$AA@ 000000018001f3d8     plugin_test1.obj
 0002:000023e0       ??_C@_04NABONMNG@edit?$AA@ 000000018001f3e0     plugin_test1.obj
 0002:000023e8       ??_C@_07PDLNCNLP@user_db?$AA@ 000000018001f3e8     plugin_test1.obj
 0002:000023f0       ??_C@_04DONFEANM@list?$AA@ 000000018001f3f0     plugin_test1.obj
 0002:000023f8       ??_C@_0CK@DEJPICLK@UModSys?3?3modules?3?3test?3?3test1?3?3R@ 000000018001f3f8     plugin_test1.obj
 0002:00002428       ??_C@_0BJ@NOFIIAEK@U_MOD?3?3RGenerator?3unique?$AA@ 000000018001f428     plugin_test1.obj
 0002:00002448       ??_C@_0BA@NMEBLMNE@Test?51?5?9?5module?$AA@ 000000018001f448     plugin_test1.obj
 0002:00002458       ??_C@_0N@FOCLJAHI@tests?3?3test1?$AA@ 000000018001f458     plugin_test1.obj
 0002:00002468       ??_C@_0BE@HJEBHPIG@RModuleReg?3?3open?$CI?$CJ?6?$AA@ 000000018001f468     plugin_test1.obj
 0002:00002480       ??_C@_0BF@KIBBFLP@RModuleReg?3?3close?$CI?$CJ?6?$AA@ 000000018001f480     plugin_test1.obj
 0002:00002498       ??_C@_09JGNMLHG@modobject?$AA@ 000000018001f498     plugin_test1.obj
 0002:000024a8       ??_C@_08FCBDOIAH@typeinfo?$AA@ 000000018001f4a8     plugin_test1.obj
 0002:000024b8       ??_C@_0BI@HCJDLBPI@?5?5fail?5generate?5?$CFs?$CI?$CFs?$CJ?6?$AA@ 000000018001f4b8     plugin_test1.obj
 0002:000024d0       ??_C@_0BE@IGLAGOMC@?5?5fail?5find?5?$CFs?$CI?$CFs?$CJ?6?$AA@ 000000018001f4d0     plugin_test1.obj
 0002:000024e8       ??_C@_0BK@IGGNHCDJ@?5?5generated?5?$CFs?$CI?$CFs?$CJ?5?$DN?$DO?5?$CFp?6?$AA@ 000000018001f4e8     plugin_test1.obj
 0002:00002518       ??_7IRoot@core@UModSys@@6B@ 000000018001f518     plugin_test1.obj
 0002:00002568       ??_7IRefObject@core@UModSys@@6B@ 000000018001f568     plugin_test1.obj
 0002:000025d8       ??_7RTest1_Shell@test1@test@modules@UModSys@@6BIShell@base@4@@ 000000018001f5d8     plugin_test1.obj
 0002:00002660       ??_7RTest1_Shell@test1@test@modules@UModSys@@6BIKeyboardClient@libui@4@@ 000000018001f660     plugin_test1.obj
 0002:00002678       ??_7RTest1_Shell@test1@test@modules@UModSys@@6BIMouseClient@libui@4@@ 000000018001f678     plugin_test1.obj
 0002:00002688       ??_7RTest1_Shell@test1@test@modules@UModSys@@6BIControllerCommand@libui@4@@ 000000018001f688     plugin_test1.obj
 0002:000026a0       ??_7RTest1_Shell@test1@test@modules@UModSys@@6BIControllerData@libui@4@@ 000000018001f6a0     plugin_test1.obj
 0002:000026b8       ??_7RGenerator@test1@test@modules@UModSys@@6B@ 000000018001f6b8     plugin_test1.obj
 0002:00002758       ??_7RModuleReg@test1@test@modules@UModSys@@6B@ 000000018001f758     plugin_test1.obj
 0002:00002788       ??_C@_0CP@CHDLGDD@UModSys?3?3modules?3?3lib2d?3?3stdlib?3@ 000000018001f788     umodsys_lib_lib2d:umodsys.mod.2d.stdlib.obj
 0002:000027b8       ??_C@_0CM@EIHKIMB@UModSys?3?3modules?3?3lib2d?3?3stdlib?3@ 000000018001f7b8     umodsys_lib_lib2d:umodsys.mod.2d.stdlib.obj
 0002:000027e8       ??_C@_0O@ICMHAMOO@lib2d?3?3stdlib?$AA@ 000000018001f7e8     umodsys_lib_lib2d:umodsys.mod.2d.stdlib.obj
 0002:00002808       ??_7RGenerator@stdlib@lib2d@modules@UModSys@@6B@ 000000018001f808     umodsys_lib_lib2d:umodsys.mod.2d.stdlib.obj
 0002:000028a8       ??_7RImage_Memory@stdlib@lib2d@modules@UModSys@@6B@ 000000018001f8a8     umodsys_lib_lib2d:umodsys.mod.2d.stdlib.obj
 0002:00002940       ??_7RModuleReg@stdlib@lib2d@modules@UModSys@@6B@ 000000018001f940     umodsys_lib_lib2d:umodsys.mod.2d.stdlib.obj
 0002:00002970       ??_C@_0DG@EGPKIIPE@UModSys?3?3modules?3?3ui?3?3SDL_core?3?3@ 000000018001f970     umodsys_lib_libui:umodsys.mod.ui.SDL_core.obj
 0002:000029a8       ??_C@_04IAGNFIBA@size?$AA@ 000000018001f9a8     umodsys_lib_libui:umodsys.mod.ui.SDL_core.obj
 0002:000029b0       ??_C@_0DA@ONKEJKMF@UModSys?3?3modules?3?3ui?3?3SDL_core?3?3@ 000000018001f9b0     umodsys_lib_libui:umodsys.mod.ui.SDL_core.obj
 0002:000029e0       ??_C@_04MGOIFCEG@SDL2?$AA@ 000000018001f9e0     umodsys_lib_libui:umodsys.mod.ui.SDL_core.obj
 0002:000029e8       ??_C@_01FJMABOPO@x?$AA@    000000018001f9e8     umodsys_lib_libui:umodsys.mod.ui.SDL_core.obj
 0002:000029ec       ??_C@_01EANLCPLP@y?$AA@    000000018001f9ec     umodsys_lib_libui:umodsys.mod.ui.SDL_core.obj
 0002:000029f0       ??_C@_02KIIGLGOP@dx?$AA@   000000018001f9f0     umodsys_lib_libui:umodsys.mod.ui.SDL_core.obj
 0002:000029f8       ??_C@_07CMIMECFO@xoffset?$AA@ 000000018001f9f8     umodsys_lib_libui:umodsys.mod.ui.SDL_core.obj
 0002:00002a00       ??_C@_07OACGECMA@yoffset?$AA@ 000000018001fa00     umodsys_lib_libui:umodsys.mod.ui.SDL_core.obj
 0002:00002a08       ??_C@_05IGKADHGO@width?$AA@ 000000018001fa08     umodsys_lib_libui:umodsys.mod.ui.SDL_core.obj
 0002:00002a10       ??_C@_06LNLHEAAG@height?$AA@ 000000018001fa10     umodsys_lib_libui:umodsys.mod.ui.SDL_core.obj
 0002:00002a18       ??_C@_0DB@HCJMIJNE@UModSys?3?3modules?3?3ui?3?3SDL_core?3?3@ 000000018001fa18     umodsys_lib_libui:umodsys.mod.ui.SDL_core.obj
 0002:00002a50       ??_C@_0DE@JJAEFKJP@UModSys?3?3modules?3?3ui?3?3SDL_core?3?3@ 000000018001fa50     umodsys_lib_libui:umodsys.mod.ui.SDL_core.obj
 0002:00002a88       ??_C@_0CK@DOEIPGL@UModSys?3?3modules?3?3ui?3?3SDL_core?3?3@ 000000018001fa88     umodsys_lib_libui:umodsys.mod.ui.SDL_core.obj
 0002:00002ab8       ??_C@_0CL@JNMIGLLO@UModSys?3?3modules?3?3ui?3?3SDL_core?3?3@ 000000018001fab8     umodsys_lib_libui:umodsys.mod.ui.SDL_core.obj
 0002:00002ae8       ??_C@_0N@DNOMPMIF@ui?3?3SDL_core?$AA@ 000000018001fae8     umodsys_lib_libui:umodsys.mod.ui.SDL_core.obj
 0002:00002b08       ??_7RGenerator@SDL_core@ui@modules@UModSys@@6B@ 000000018001fb08     umodsys_lib_libui:umodsys.mod.ui.SDL_core.obj
 0002:00002ba8       ??_7RTerminal@SDL_core@ui@modules@UModSys@@6B@ 000000018001fba8     umodsys_lib_libui:umodsys.mod.ui.SDL_core.obj
 0002:00002c68       ??_7RRenderDriver2D@SDL_core@ui@modules@UModSys@@6B@ 000000018001fc68     umodsys_lib_libui:umodsys.mod.ui.SDL_core.obj
 0002:00002d98       ??_7RMultiImage2D_SDL_ttf@SDL_core@ui@modules@UModSys@@6B@ 000000018001fd98     umodsys_lib_libui:umodsys.mod.ui.SDL_core.obj
 0002:00002e38       ??_7RMouseController@SDL_core@ui@modules@UModSys@@6B@ 000000018001fe38     umodsys_lib_libui:umodsys.mod.ui.SDL_core.obj
 0002:00002ec8       ??_7RKeyboardController@SDL_core@ui@modules@UModSys@@6B@ 000000018001fec8     umodsys_lib_libui:umodsys.mod.ui.SDL_core.obj
 0002:00002f60       ??_7RModuleReg@SDL_core@ui@modules@UModSys@@6B@ 000000018001ff60     umodsys_lib_libui:umodsys.mod.ui.SDL_core.obj
 0002:00002f90       ??_C@_07LLDKJBMK@general?$AA@ 000000018001ff90     umodsys_lib_libui:umodsys.mod.ui.frames.obj
 0002:00002f98       ??_C@_06DBHEJNGA@common?$AA@ 000000018001ff98     umodsys_lib_libui:umodsys.mod.ui.frames.obj
 0002:00002fa0       ??_C@_05NGOMGBBD@image?$AA@ 000000018001ffa0     umodsys_lib_libui:umodsys.mod.ui.frames.obj
 0002:00002fa8       ??_C@_07LJIPPALJ@picture?$AA@ 000000018001ffa8     umodsys_lib_libui:umodsys.mod.ui.frames.obj
 0002:00002fb0       ??_C@_05FEAGNAPL@edge1?$AA@ 000000018001ffb0     umodsys_lib_libui:umodsys.mod.ui.frames.obj
 0002:00002fb8       ??_C@_05HPCLIDDI@edge2?$AA@ 000000018001ffb8     umodsys_lib_libui:umodsys.mod.ui.frames.obj
 0002:00002fc0       ??_C@_05JGEJPNHM@edges?$AA@ 000000018001ffc0     umodsys_lib_libui:umodsys.mod.ui.frames.obj
 0002:00002fc8       ??_C@_05KAHGKAHL@caret?$AA@ 000000018001ffc8     umodsys_lib_libui:umodsys.mod.ui.frames.obj
 0002:00002fd0       ??_C@_04JFCNHLLM@back?$AA@ 000000018001ffd0     umodsys_lib_libui:umodsys.mod.ui.frames.obj
 0002:00002fd8       ??_C@_04DBFEOIG@fore?$AA@  000000018001ffd8     umodsys_lib_libui:umodsys.mod.ui.frames.obj
 0002:00002fe0       ??_C@_06LGNCCACI@select?$AA@ 000000018001ffe0     umodsys_lib_libui:umodsys.mod.ui.frames.obj
 0002:00002fe8       ??_C@_08CJLOJPNI@selected?$AA@ 000000018001ffe8     umodsys_lib_libui:umodsys.mod.ui.frames.obj
 0002:00002ff4       ??_C@_05PEEJIKOE@focus?$AA@ 000000018001fff4     umodsys_lib_libui:umodsys.mod.ui.frames.obj
 0002:00003000       ??_C@_07HIPCAPPH@focused?$AA@ 0000000180020000     umodsys_lib_libui:umodsys.mod.ui.frames.obj
 0002:00003008       ??_C@_06MDLIGPKC@active?$AA@ 0000000180020008     umodsys_lib_libui:umodsys.mod.ui.frames.obj
 0002:00003010       ??_C@_08BEHKFNNO@disabled?$AA@ 0000000180020010     umodsys_lib_libui:umodsys.mod.ui.frames.obj
 0002:00003020       ??_C@_0CM@PKBIIKNO@UModSys?3?3modules?3?3ui?3?3frames?3?3RF@ 0000000180020020     umodsys_lib_libui:umodsys.mod.ui.frames.obj
 0002:0000304c       ??_C@_04CHADEDPO@view?$AA@ 000000018002004c     umodsys_lib_libui:umodsys.mod.ui.frames.obj
 0002:00003054       ??_C@_06ICIJKACG@valign?$AA@ 0000000180020054     umodsys_lib_libui:umodsys.mod.ui.frames.obj
 0002:0000305c       ??_C@_06LFGIEHLF@halign?$AA@ 000000018002005c     umodsys_lib_libui:umodsys.mod.ui.frames.obj
 0002:00003068       ??_C@_0CG@IKFOGHCN@UModSys?3?3modules?3?3ui?3?3frames?3?3RD@ 0000000180020068     umodsys_lib_libui:umodsys.mod.ui.frames.obj
 0002:00003090       ??_C@_0CL@MFDJGEPD@UModSys?3?3modules?3?3ui?3?3frames?3?3RF@ 0000000180020090     umodsys_lib_libui:umodsys.mod.ui.frames.obj
 0002:000030c0       ??_C@_0CL@NLEIFDKD@UModSys?3?3modules?3?3ui?3?3frames?3?3RF@ 00000001800200c0     umodsys_lib_libui:umodsys.mod.ui.frames.obj
 0002:000030f0       ??_C@_0CK@OBJOECEM@UModSys?3?3modules?3?3ui?3?3frames?3?3RF@ 00000001800200f0     umodsys_lib_libui:umodsys.mod.ui.frames.obj
 0002:00003120       ??_C@_0CM@LOMDENHB@UModSys?3?3modules?3?3ui?3?3frames?3?3RF@ 0000000180020120     umodsys_lib_libui:umodsys.mod.ui.frames.obj
 0002:00003150       ??_C@_0CK@BJEGFCFM@UModSys?3?3modules?3?3ui?3?3frames?3?3RF@ 0000000180020150     umodsys_lib_libui:umodsys.mod.ui.frames.obj
 0002:00003180       ??_C@_0CK@PHINMOFG@UModSys?3?3modules?3?3ui?3?3frames?3?3RF@ 0000000180020180     umodsys_lib_libui:umodsys.mod.ui.frames.obj
 0002:000031b0       ??_C@_07IIAPCFMK@scrollx?$AA@ 00000001800201b0     umodsys_lib_libui:umodsys.mod.ui.frames.obj
 0002:000031b8       ??_C@_07JBBEBEIL@scrolly?$AA@ 00000001800201b8     umodsys_lib_libui:umodsys.mod.ui.frames.obj
 0002:000031c0       ??_C@_0CJ@HCPNAGIM@UModSys?3?3modules?3?3ui?3?3frames?3?3RC@ 00000001800201c0     umodsys_lib_libui:umodsys.mod.ui.frames.obj
 0002:000031ec       ??_C@_05MGJOOGAJ@group?$AA@ 00000001800201ec     umodsys_lib_libui:umodsys.mod.ui.frames.obj
 0002:000031f8       ??_C@_0CJ@FNJGAPIF@UModSys?3?3modules?3?3ui?3?3frames?3?3RG@ 00000001800201f8     umodsys_lib_libui:umodsys.mod.ui.frames.obj
 0002:00003228       ??_C@_0L@BAHBBNCJ@ui?3?3frames?$AA@ 0000000180020228     umodsys_lib_libui:umodsys.mod.ui.frames.obj
 0002:00003248       ??_7ICollectorThemeTemplate@libui@UModSys@@6B@ 0000000180020248     umodsys_lib_libui:umodsys.mod.ui.frames.obj
 0002:000032b8       ??_7RGenerator@frames@ui@modules@UModSys@@6B@ 00000001800202b8     umodsys_lib_libui:umodsys.mod.ui.frames.obj
 0002:00003358       ??_7RCollector@frames@ui@modules@UModSys@@6BIRefObject@core@4@@ 0000000180020358     umodsys_lib_libui:umodsys.mod.ui.frames.obj
 0002:00003450       ??_7RCollector@frames@ui@modules@UModSys@@6BICollectorThemeTree@libui@4@@ 0000000180020450     umodsys_lib_libui:umodsys.mod.ui.frames.obj
 0002:00003460       ??_7RCollector@frames@ui@modules@UModSys@@6BIKeyboardClient@libui@4@@ 0000000180020460     umodsys_lib_libui:umodsys.mod.ui.frames.obj
 0002:00003478       ??_7RCollector@frames@ui@modules@UModSys@@6BIMouseClient@libui@4@@ 0000000180020478     umodsys_lib_libui:umodsys.mod.ui.frames.obj
 0002:00003488       ??_7RDialog@frames@ui@modules@UModSys@@6B@ 0000000180020488     umodsys_lib_libui:umodsys.mod.ui.frames.obj
 0002:00003518       ??_7RFrame_Common@frames@ui@modules@UModSys@@6BIRefObject@core@4@@ 0000000180020518     umodsys_lib_libui:umodsys.mod.ui.frames.obj
 0002:000036b0       ??_7RFrame_Common@frames@ui@modules@UModSys@@6BICollectorThemeTree@libui@4@@ 00000001800206b0     umodsys_lib_libui:umodsys.mod.ui.frames.obj
 0002:000036c8       ??_7RCollectorTheme@frames@ui@modules@UModSys@@6B@ 00000001800206c8     umodsys_lib_libui:umodsys.mod.ui.frames.obj
 0002:00003738       ??_7RFrame_Frame@frames@ui@modules@UModSys@@6BIRefObject@core@4@@ 0000000180020738     umodsys_lib_libui:umodsys.mod.ui.frames.obj
 0002:000038d0       ??_7RFrame_Frame@frames@ui@modules@UModSys@@6BICollectorThemeTree@libui@4@@ 00000001800208d0     umodsys_lib_libui:umodsys.mod.ui.frames.obj
 0002:000038e8       ??_7RFrame_Image@frames@ui@modules@UModSys@@6BIRefObject@core@4@@ 00000001800208e8     umodsys_lib_libui:umodsys.mod.ui.frames.obj
 0002:00003a80       ??_7RFrame_Image@frames@ui@modules@UModSys@@6BICollectorThemeTree@libui@4@@ 0000000180020a80     umodsys_lib_libui:umodsys.mod.ui.frames.obj
 0002:00003a98       ??_7RFrame_Text@frames@ui@modules@UModSys@@6BIRefObject@core@4@@ 0000000180020a98     umodsys_lib_libui:umodsys.mod.ui.frames.obj
 0002:00003c30       ??_7RFrame_Text@frames@ui@modules@UModSys@@6BICollectorThemeTree@libui@4@@ 0000000180020c30     umodsys_lib_libui:umodsys.mod.ui.frames.obj
 0002:00003c40       ??_7RFrame_Text@frames@ui@modules@UModSys@@6B@ 0000000180020c40     umodsys_lib_libui:umodsys.mod.ui.frames.obj
 0002:00003c58       ??_7RFrame_Button@frames@ui@modules@UModSys@@6BIRefObject@core@4@@ 0000000180020c58     umodsys_lib_libui:umodsys.mod.ui.frames.obj
 0002:00003df0       ??_7RFrame_Button@frames@ui@modules@UModSys@@6BICollectorThemeTree@libui@4@@ 0000000180020df0     umodsys_lib_libui:umodsys.mod.ui.frames.obj
 0002:00003e08       ??_7RFrame_Edit@frames@ui@modules@UModSys@@6BIRefObject@core@4@@ 0000000180020e08     umodsys_lib_libui:umodsys.mod.ui.frames.obj
 0002:00003fa0       ??_7RFrame_Edit@frames@ui@modules@UModSys@@6BICollectorThemeTree@libui@4@@ 0000000180020fa0     umodsys_lib_libui:umodsys.mod.ui.frames.obj
 0002:00003fb0       ??_7RFrame_Edit@frames@ui@modules@UModSys@@6B@ 0000000180020fb0     umodsys_lib_libui:umodsys.mod.ui.frames.obj
 0002:00003fc8       ??_7RFrame_List@frames@ui@modules@UModSys@@6BIRefObject@core@4@@ 0000000180020fc8     umodsys_lib_libui:umodsys.mod.ui.frames.obj
 0002:00004160       ??_7RFrame_List@frames@ui@modules@UModSys@@6BICollectorThemeTree@libui@4@@ 0000000180021160     umodsys_lib_libui:umodsys.mod.ui.frames.obj
 0002:00004170       ??_7RFrame_List@frames@ui@modules@UModSys@@6BIFrameList@libui@4@@ 0000000180021170     umodsys_lib_libui:umodsys.mod.ui.frames.obj
 0002:00004198       ??_7RFrame_List@frames@ui@modules@UModSys@@6BIFrameData@libui@4@@ 0000000180021198     umodsys_lib_libui:umodsys.mod.ui.frames.obj
 0002:000041b0       ??_7RModuleReg@frames@ui@modules@UModSys@@6B@ 00000001800211b0     umodsys_lib_libui:umodsys.mod.ui.frames.obj
 0002:000041e0       ??_C@_0DC@OJAOGACO@UModSys?3?3modules?3?3media?3?3images_@ 00000001800211e0     umodsys_lib_libmedia:umodsys.mod.media.images_std.obj
 0002:00004218       ??_C@_0BH@FAPHCJAO@image_palette_alphakey?$AA@ 0000000180021218     umodsys_lib_libmedia:umodsys.mod.media.images_std.obj
 0002:00004230       ??_C@_0L@MIOOFCJG@image_hint?$AA@ 0000000180021230     umodsys_lib_libmedia:umodsys.mod.media.images_std.obj
 0002:00004240       ??_C@_0M@CPFHCGMF@image_alpha?$AA@ 0000000180021240     umodsys_lib_libmedia:umodsys.mod.media.images_std.obj
 0002:0000424c       ??_C@_04GNPKBLNA@?4jpg?$AA@ 000000018002124c     umodsys_lib_libmedia:umodsys.mod.media.images_std.obj
 0002:00004254       ??_C@_05KPIGABMB@?4jpeg?$AA@ 0000000180021254     umodsys_lib_libmedia:umodsys.mod.media.images_std.obj
 0002:0000425c       ??_C@_04EEOGCCFB@?4png?$AA@ 000000018002125c     umodsys_lib_libmedia:umodsys.mod.media.images_std.obj
 0002:00004268       ??_C@_0CB@LKENOGAK@PNG?5FATAL?5ERROR?3?5png?5error?5?9?5?$CFs?6@ 0000000180021268     umodsys_lib_libmedia:umodsys.mod.media.images_std.obj
 0002:00004290       ??_C@_0L@BAFDDAPG@Read?5Error?$AA@ 0000000180021290     umodsys_lib_libmedia:umodsys.mod.media.images_std.obj
 0002:000042a0       ??_C@_0M@POLPJMAP@Write?5Error?$AA@ 00000001800212a0     umodsys_lib_libmedia:umodsys.mod.media.images_std.obj
 0002:000042b0       ??_C@_0M@PMDCBFIO@1?47?40beta06?$AA@ 00000001800212b0     umodsys_lib_libmedia:umodsys.mod.media.images_std.obj
 0002:000042c0       ??_C@_0DA@GEKJILHJ@UModSys?3?3modules?3?3media?3?3images_@ 00000001800212c0     umodsys_lib_libmedia:umodsys.mod.media.images_std.obj
 0002:000042f0       ??_C@_0BC@FLDHBKGG@media?3?3images_std?$AA@ 00000001800212f0     umodsys_lib_libmedia:umodsys.mod.media.images_std.obj
 0002:00004318       ??_7RGenerator@images_std@media@modules@UModSys@@6B@ 0000000180021318     umodsys_lib_libmedia:umodsys.mod.media.images_std.obj
 0002:000043b8       ??_7RMediaFilter@images_std@media@modules@UModSys@@6BIRefObject@core@4@@ 00000001800213b8     umodsys_lib_libmedia:umodsys.mod.media.images_std.obj
 0002:00004438       ??_7RMediaFilter@images_std@media@modules@UModSys@@6BISetter@SFlags@libmedia@4@@ 0000000180021438     umodsys_lib_libmedia:umodsys.mod.media.images_std.obj
 0002:00004458       ??_7RModuleReg@images_std@media@modules@UModSys@@6B@ 0000000180021458     umodsys_lib_libmedia:umodsys.mod.media.images_std.obj
 0002:00004488       ??_C@_02MCKKLHBJ@?2?$CC?$AA@ 0000000180021488     umodsys_lib_libmedia:umodsys.mod.media.serialize_json.obj
 0002:0000448c       ??_C@_02HDBGODGB@?2?2?$AA@ 000000018002148c     umodsys_lib_libmedia:umodsys.mod.media.serialize_json.obj
 0002:00004490       ??_C@_02HHAEMJFE@?2?1?$AA@ 0000000180021490     umodsys_lib_libmedia:umodsys.mod.media.serialize_json.obj
 0002:00004494       ??_C@_02DCNDPIBM@?2b?$AA@  0000000180021494     umodsys_lib_libmedia:umodsys.mod.media.serialize_json.obj
 0002:00004498       ??_C@_02FGLPDNBI@?2f?$AA@  0000000180021498     umodsys_lib_libmedia:umodsys.mod.media.serialize_json.obj
 0002:0000449c       ??_C@_02JOGGLHBA@?2n?$AA@  000000018002149c     umodsys_lib_libmedia:umodsys.mod.media.serialize_json.obj
 0002:000044a0       ??_C@_02HIBBOKEN@?2r?$AA@  00000001800214a0     umodsys_lib_libmedia:umodsys.mod.media.serialize_json.obj
 0002:000044a4       ??_C@_02COELENML@?2t?$AA@  00000001800214a4     umodsys_lib_libmedia:umodsys.mod.media.serialize_json.obj
 0002:000044a8       ??_C@_06OAIHNJFH@?2u?$CF04x?$AA@ 00000001800214a8     umodsys_lib_libmedia:umodsys.mod.media.serialize_json.obj
 0002:000044b0       ??_C@_0DK@FEBMMGOH@UModSys?3?3modules?3?3media?3?3seriali@ 00000001800214b0     umodsys_lib_libmedia:umodsys.mod.media.serialize_json.obj
 0002:000044f0       ??_C@_09GAOHCOAP@No?5parser?$AA@ 00000001800214f0     umodsys_lib_libmedia:umodsys.mod.media.serialize_json.obj
 0002:00004500       ??_C@_0N@OHBPFNDO@Memory?5error?$AA@ 0000000180021500     umodsys_lib_libmedia:umodsys.mod.media.serialize_json.obj
 0002:00004510       ??_C@_0BE@NECDPAKH@Bad?5escape?5sequence?$AA@ 0000000180021510     umodsys_lib_libmedia:umodsys.mod.media.serialize_json.obj
 0002:00004528       ??_C@_0BA@BOAELAPB@Structure?5error?$AA@ 0000000180021528     umodsys_lib_libmedia:umodsys.mod.media.serialize_json.obj
 0002:00004538       ??_C@_0N@ICGFMCGA@Parser?5error?$AA@ 0000000180021538     umodsys_lib_libmedia:umodsys.mod.media.serialize_json.obj
 0002:00004548       ??_C@_04LOAJBDKD@true?$AA@ 0000000180021548     umodsys_lib_libmedia:umodsys.mod.media.serialize_json.obj
 0002:00004550       ??_C@_05LAPONLG@false?$AA@ 0000000180021550     umodsys_lib_libmedia:umodsys.mod.media.serialize_json.obj
 0002:00004558       ??_C@_04MLLLIHIP@null?$AA@ 0000000180021558     umodsys_lib_libmedia:umodsys.mod.media.serialize_json.obj
 0002:00004560       ??_C@_0M@KEPAKIJL@Value?5error?$AA@ 0000000180021560     umodsys_lib_libmedia:umodsys.mod.media.serialize_json.obj
 0002:00004570       ??_C@_0M@JLCCDMKC@buffer_size?$AA@ 0000000180021570     umodsys_lib_libmedia:umodsys.mod.media.serialize_json.obj
 0002:00004580       ??_C@_0DK@HIJOMHDN@UModSys?3?3modules?3?3media?3?3seriali@ 0000000180021580     umodsys_lib_libmedia:umodsys.mod.media.serialize_json.obj
 0002:000045bc       ??_C@_04PFHMOCHH@?$HL?$CFd?$HN?$AA@ 00000001800215bc     umodsys_lib_libmedia:umodsys.mod.media.serialize_json.obj
 0002:000045c8       ??_C@_09BONHALO@?$HL?$CFu?6?$CC?$CFs?$CC?$HN?$AA@ 00000001800215c8     umodsys_lib_libmedia:umodsys.mod.media.serialize_json.obj
 0002:000045d4       ??_C@_03JALODAI@?$CFld?$AA@ 00000001800215d4     umodsys_lib_libmedia:umodsys.mod.media.serialize_json.obj
 0002:000045d8       ??_C@_02CGLCDNAE@?$CFe?$AA@ 00000001800215d8     umodsys_lib_libmedia:umodsys.mod.media.serialize_json.obj
 0002:000045e0       ??_C@_09DKCFLKBL@skip_step?$AA@ 00000001800215e0     umodsys_lib_libmedia:umodsys.mod.media.serialize_json.obj
 0002:000045f0       ??_C@_0L@BBIOCPNN@?$HLSIZE?5?$CFld?$HN?$AA@ 00000001800215f0     umodsys_lib_libmedia:umodsys.mod.media.serialize_json.obj
 0002:00004600       ??_C@_0DE@EGKBDJOG@UModSys?3?3modules?3?3media?3?3seriali@ 0000000180021600     umodsys_lib_libmedia:umodsys.mod.media.serialize_json.obj
 0002:00004648       ??_7RGenerator@serialize_json@media@modules@UModSys@@6B@ 0000000180021648     umodsys_lib_libmedia:umodsys.mod.media.serialize_json.obj
 0002:000046e8       ??_7RSerializeReader@serialize_json@media@modules@UModSys@@6B@ 00000001800216e8     umodsys_lib_libmedia:umodsys.mod.media.serialize_json.obj
 0002:00004768       ??_7RSerializeWriter@serialize_json@media@modules@UModSys@@6BIRefObject@core@4@@ 0000000180021768     umodsys_lib_libmedia:umodsys.mod.media.serialize_json.obj
 0002:000047d8       ??_7RSerializeWriter@serialize_json@media@modules@UModSys@@6BISerializeParser@libmedia@4@@ 00000001800217d8     umodsys_lib_libmedia:umodsys.mod.media.serialize_json.obj
 0002:00004800       ??_7RModuleReg@serialize_json@media@modules@UModSys@@6B@ 0000000180021800     umodsys_lib_libmedia:umodsys.mod.media.serialize_json.obj
 0002:00004838       ??_7RModuleLibraryReg_Chain@base@UModSys@@6B@ 0000000180021838     umodsys_lib_base:umodsys.base.moduleregchain.obj
 0002:00004870       ??_7IModuleReg@base@UModSys@@6B@ 0000000180021870     umodsys_lib_base:umodsys.base.modulereg.obj
 0002:000048a8       ??_7IModuleLibraryReg@base@UModSys@@6B@ 00000001800218a8     umodsys_lib_base:umodsys.base.modulereg.obj
 0002:00004908       __real@437f0000            0000000180021908      CIL library: CIL module
 0002:00004910       __real@406fe00000000000    0000000180021910      CIL library: CIL module
 0002:00004918       __real@447a0000            0000000180021918      CIL library: CIL module
 0002:00004920       __real@3f50624dd2f1a9fc    0000000180021920      CIL library: CIL module
 0002:00004a78       __real@3fe0000000000000    0000000180021a78      CIL library: CIL module
 0002:00004e08       __real@3f800000            0000000180021e08      CIL library: CIL module
 0002:000053a8       __real@3f19999a            00000001800223a8      CIL library: CIL module
 0002:000053ac       __real@3f333333            00000001800223ac      CIL library: CIL module
 0002:000053b0       __real@3f000000            00000001800223b0      CIL library: CIL module
 0002:00005658       __real@404099999999999a    0000000180022658      CIL library: CIL module
 0002:00005660       __real@3ff0000000000000    0000000180022660      CIL library: CIL module
 0002:000056d0       ??_R4type_info@@6B@        00000001800226d0     MSVCRT:ti_inst.obj
 0002:000056f8       ??_R3type_info@@8          00000001800226f8     MSVCRT:ti_inst.obj
 0002:00005710       ??_R2type_info@@8          0000000180022710     MSVCRT:ti_inst.obj
 0002:00005720       ??_R1A@?0A@EA@type_info@@8 0000000180022720     MSVCRT:ti_inst.obj
 0002:00005748       ??_R4RModuleReg@test1@test@modules@UModSys@@6B@ 0000000180022748     plugin_test1.obj
 0002:00005770       ??_R3RModuleReg@test1@test@modules@UModSys@@8 0000000180022770     plugin_test1.obj
 0002:00005788       ??_R2RModuleReg@test1@test@modules@UModSys@@8 0000000180022788     plugin_test1.obj
 0002:000057a0       ??_R1A@?0A@EA@IModuleReg@base@UModSys@@8 00000001800227a0     plugin_test1.obj
 0002:000057c8       ??_R3IModuleReg@base@UModSys@@8 00000001800227c8     plugin_test1.obj
 0002:000057e0       ??_R2IModuleReg@base@UModSys@@8 00000001800227e0     plugin_test1.obj
 0002:000057f0       ??_R1A@?0A@EA@RModuleReg@test1@test@modules@UModSys@@8 00000001800227f0     plugin_test1.obj
 0002:00005818       ??_R4RGenerator@test1@test@modules@UModSys@@6B@ 0000000180022818     plugin_test1.obj
 0002:00005840       ??_R3RGenerator@test1@test@modules@UModSys@@8 0000000180022840     plugin_test1.obj
 0002:00005858       ??_R2RGenerator@test1@test@modules@UModSys@@8 0000000180022858     plugin_test1.obj
 0002:00005888       ??_R1A@?0A@EA@RGenerator@test1@test@modules@UModSys@@8 0000000180022888     plugin_test1.obj
 0002:000058b0       ??_R4RTest1_Shell@test1@test@modules@UModSys@@6BIControllerData@libui@4@@ 00000001800228b0     plugin_test1.obj
 0002:000058d8       ??_R4RTest1_Shell@test1@test@modules@UModSys@@6BIControllerCommand@libui@4@@ 00000001800228d8     plugin_test1.obj
 0002:00005900       ??_R4RTest1_Shell@test1@test@modules@UModSys@@6BIMouseClient@libui@4@@ 0000000180022900     plugin_test1.obj
 0002:00005928       ??_R4RTest1_Shell@test1@test@modules@UModSys@@6BIKeyboardClient@libui@4@@ 0000000180022928     plugin_test1.obj
 0002:00005950       ??_R4RTest1_Shell@test1@test@modules@UModSys@@6BIShell@base@4@@ 0000000180022950     plugin_test1.obj
 0002:00005978       ??_R3RTest1_Shell@test1@test@modules@UModSys@@8 0000000180022978     plugin_test1.obj
 0002:00005990       ??_R2RTest1_Shell@test1@test@modules@UModSys@@8 0000000180022990     plugin_test1.obj
 0002:000059e0       ??_R1CA@?0A@EA@IControllerData@libui@UModSys@@8 00000001800229e0     plugin_test1.obj
 0002:00005a08       ??_R1BI@?0A@EA@IControllerCommand@libui@UModSys@@8 0000000180022a08     plugin_test1.obj
 0002:00005a30       ??_R1BI@?0A@EA@IController@libui@UModSys@@8 0000000180022a30     plugin_test1.obj
 0002:00005a58       ??_R1BA@?0A@EA@IMouseClient@libui@UModSys@@8 0000000180022a58     plugin_test1.obj
 0002:00005a80       ??_R17?0A@EA@IKeyboardClient@libui@UModSys@@8 0000000180022a80     plugin_test1.obj
 0002:00005aa8       ??_R1A@?0A@EA@RTest1_Shell@test1@test@modules@UModSys@@8 0000000180022aa8     plugin_test1.obj
 0002:00005ad0       ??_R3IController@libui@UModSys@@8 0000000180022ad0     plugin_test1.obj
 0002:00005ae8       ??_R2IController@libui@UModSys@@8 0000000180022ae8     plugin_test1.obj
 0002:00005b08       ??_R17?0A@EA@IControllerData@libui@UModSys@@8 0000000180022b08     plugin_test1.obj
 0002:00005b30       ??_R1A@?0A@EA@IController@libui@UModSys@@8 0000000180022b30     plugin_test1.obj
 0002:00005b58       ??_R3IControllerData@libui@UModSys@@8 0000000180022b58     plugin_test1.obj
 0002:00005b70       ??_R2IControllerData@libui@UModSys@@8 0000000180022b70     plugin_test1.obj
 0002:00005b80       ??_R1A@?0A@EA@IControllerData@libui@UModSys@@8 0000000180022b80     plugin_test1.obj
 0002:00005ba8       ??_R3IControllerCommand@libui@UModSys@@8 0000000180022ba8     plugin_test1.obj
 0002:00005bc0       ??_R2IControllerCommand@libui@UModSys@@8 0000000180022bc0     plugin_test1.obj
 0002:00005bd0       ??_R1A@?0A@EA@IControllerCommand@libui@UModSys@@8 0000000180022bd0     plugin_test1.obj
 0002:00005bf8       ??_R3IMouseClient@libui@UModSys@@8 0000000180022bf8     plugin_test1.obj
 0002:00005c10       ??_R2IMouseClient@libui@UModSys@@8 0000000180022c10     plugin_test1.obj
 0002:00005c20       ??_R1A@?0A@EA@IMouseClient@libui@UModSys@@8 0000000180022c20     plugin_test1.obj
 0002:00005c48       ??_R3IKeyboardClient@libui@UModSys@@8 0000000180022c48     plugin_test1.obj
 0002:00005c60       ??_R2IKeyboardClient@libui@UModSys@@8 0000000180022c60     plugin_test1.obj
 0002:00005c70       ??_R1A@?0A@EA@IKeyboardClient@libui@UModSys@@8 0000000180022c70     plugin_test1.obj
 0002:00005c98       ??_R3IBinObjFilter@libmedia@UModSys@@8 0000000180022c98     plugin_test1.obj
 0002:00005cb0       ??_R2IBinObjFilter@libmedia@UModSys@@8 0000000180022cb0     plugin_test1.obj
 0002:00005ce8       ??_R17?0A@EA@IResolver@SFlags@libmedia@UModSys@@8 0000000180022ce8     plugin_test1.obj
 0002:00005d10       ??_R17?0A@EA@IResolverAuto@SFlags@libmedia@UModSys@@8 0000000180022d10     plugin_test1.obj
 0002:00005d38       ??_R17?0A@EA@ISetter@SFlags@libmedia@UModSys@@8 0000000180022d38     plugin_test1.obj
 0002:00005d60       ??_R3ISetter@SFlags@libmedia@UModSys@@8 0000000180022d60     plugin_test1.obj
 0002:00005d78       ??_R2ISetter@SFlags@libmedia@UModSys@@8 0000000180022d78     plugin_test1.obj
 0002:00005d98       ??_R1A@?0A@EA@IResolverAuto@SFlags@libmedia@UModSys@@8 0000000180022d98     plugin_test1.obj
 0002:00005dc0       ??_R3IResolverAuto@SFlags@libmedia@UModSys@@8 0000000180022dc0     plugin_test1.obj
 0002:00005dd8       ??_R2IResolverAuto@SFlags@libmedia@UModSys@@8 0000000180022dd8     plugin_test1.obj
 0002:00005df0       ??_R1A@?0A@EA@IResolver@SFlags@libmedia@UModSys@@8 0000000180022df0     plugin_test1.obj
 0002:00005e18       ??_R3IResolver@SFlags@libmedia@UModSys@@8 0000000180022e18     plugin_test1.obj
 0002:00005e30       ??_R2IResolver@SFlags@libmedia@UModSys@@8 0000000180022e30     plugin_test1.obj
 0002:00005e40       ??_R1A@?0A@EA@ISetter@SFlags@libmedia@UModSys@@8 0000000180022e40     plugin_test1.obj
 0002:00005e68       ??_R1A@?0A@EA@IBinObjFilter@libmedia@UModSys@@8 0000000180022e68     plugin_test1.obj
 0002:00005e90       ??_R3IShell@base@UModSys@@8 0000000180022e90     plugin_test1.obj
 0002:00005ea8       ??_R2IShell@base@UModSys@@8 0000000180022ea8     plugin_test1.obj
 0002:00005ec8       ??_R1A@?0A@EA@IShell@base@UModSys@@8 0000000180022ec8     plugin_test1.obj
 0002:00005ef0       ??_R3IGenerator@base@UModSys@@8 0000000180022ef0     plugin_test1.obj
 0002:00005f08       ??_R2IGenerator@base@UModSys@@8 0000000180022f08     plugin_test1.obj
 0002:00005f30       ??_R1A@?0A@EA@IGenerator@base@UModSys@@8 0000000180022f30     plugin_test1.obj
 0002:00005f58       ??_R3IModObject@base@UModSys@@8 0000000180022f58     plugin_test1.obj
 0002:00005f70       ??_R2IModObject@base@UModSys@@8 0000000180022f70     plugin_test1.obj
 0002:00005f90       ??_R1A@?0A@EA@IModObject@base@UModSys@@8 0000000180022f90     plugin_test1.obj
 0002:00005fb8       ??_R4IRefObject@core@UModSys@@6B@ 0000000180022fb8     plugin_test1.obj
 0002:00005fe0       ??_R3IRefObject@core@UModSys@@8 0000000180022fe0     plugin_test1.obj
 0002:00005ff8       ??_R2IRefObject@core@UModSys@@8 0000000180022ff8     plugin_test1.obj
 0002:00006010       ??_R1A@?0A@EA@IRefObject@core@UModSys@@8 0000000180023010     plugin_test1.obj
 0002:00006038       ??_R4IRoot@core@UModSys@@6B@ 0000000180023038     plugin_test1.obj
 0002:00006060       ??_R3IRoot@core@UModSys@@8 0000000180023060     plugin_test1.obj
 0002:00006078       ??_R2IRoot@core@UModSys@@8 0000000180023078     plugin_test1.obj
 0002:00006088       ??_R1A@?0A@EA@IRoot@core@UModSys@@8 0000000180023088     plugin_test1.obj
 0002:000060b0       ??_R4RModuleReg@stdlib@lib2d@modules@UModSys@@6B@ 00000001800230b0     umodsys_lib_lib2d:umodsys.mod.2d.stdlib.obj
 0002:000060d8       ??_R3RModuleReg@stdlib@lib2d@modules@UModSys@@8 00000001800230d8     umodsys_lib_lib2d:umodsys.mod.2d.stdlib.obj
 0002:000060f0       ??_R2RModuleReg@stdlib@lib2d@modules@UModSys@@8 00000001800230f0     umodsys_lib_lib2d:umodsys.mod.2d.stdlib.obj
 0002:00006108       ??_R1A@?0A@EA@RModuleReg@stdlib@lib2d@modules@UModSys@@8 0000000180023108     umodsys_lib_lib2d:umodsys.mod.2d.stdlib.obj
 0002:00006130       ??_R4RImage_Memory@stdlib@lib2d@modules@UModSys@@6B@ 0000000180023130     umodsys_lib_lib2d:umodsys.mod.2d.stdlib.obj
 0002:00006158       ??_R3RImage_Memory@stdlib@lib2d@modules@UModSys@@8 0000000180023158     umodsys_lib_lib2d:umodsys.mod.2d.stdlib.obj
 0002:00006170       ??_R2RImage_Memory@stdlib@lib2d@modules@UModSys@@8 0000000180023170     umodsys_lib_lib2d:umodsys.mod.2d.stdlib.obj
 0002:00006198       ??_R1A@?0A@EA@RImage_Memory@stdlib@lib2d@modules@UModSys@@8 0000000180023198     umodsys_lib_lib2d:umodsys.mod.2d.stdlib.obj
 0002:000061c0       ??_R4RGenerator@stdlib@lib2d@modules@UModSys@@6B@ 00000001800231c0     umodsys_lib_lib2d:umodsys.mod.2d.stdlib.obj
 0002:000061e8       ??_R3RGenerator@stdlib@lib2d@modules@UModSys@@8 00000001800231e8     umodsys_lib_lib2d:umodsys.mod.2d.stdlib.obj
 0002:00006200       ??_R2RGenerator@stdlib@lib2d@modules@UModSys@@8 0000000180023200     umodsys_lib_lib2d:umodsys.mod.2d.stdlib.obj
 0002:00006230       ??_R1A@?0A@EA@RGenerator@stdlib@lib2d@modules@UModSys@@8 0000000180023230     umodsys_lib_lib2d:umodsys.mod.2d.stdlib.obj
 0002:00006258       ??_R3IImage@lib2d@UModSys@@8 0000000180023258     umodsys_lib_lib2d:umodsys.mod.2d.stdlib.obj
 0002:00006270       ??_R2IImage@lib2d@UModSys@@8 0000000180023270     umodsys_lib_lib2d:umodsys.mod.2d.stdlib.obj
 0002:00006290       ??_R1A@?0A@EA@IImage@lib2d@UModSys@@8 0000000180023290     umodsys_lib_lib2d:umodsys.mod.2d.stdlib.obj
 0002:000062b8       ??_R4RModuleReg@SDL_core@ui@modules@UModSys@@6B@ 00000001800232b8     umodsys_lib_libui:umodsys.mod.ui.SDL_core.obj
 0002:000062e0       ??_R3RModuleReg@SDL_core@ui@modules@UModSys@@8 00000001800232e0     umodsys_lib_libui:umodsys.mod.ui.SDL_core.obj
 0002:000062f8       ??_R2RModuleReg@SDL_core@ui@modules@UModSys@@8 00000001800232f8     umodsys_lib_libui:umodsys.mod.ui.SDL_core.obj
 0002:00006310       ??_R1A@?0A@EA@RModuleReg@SDL_core@ui@modules@UModSys@@8 0000000180023310     umodsys_lib_libui:umodsys.mod.ui.SDL_core.obj
 0002:00006338       ??_R4RKeyboardController@SDL_core@ui@modules@UModSys@@6B@ 0000000180023338     umodsys_lib_libui:umodsys.mod.ui.SDL_core.obj
 0002:00006360       ??_R3RKeyboardController@SDL_core@ui@modules@UModSys@@8 0000000180023360     umodsys_lib_libui:umodsys.mod.ui.SDL_core.obj
 0002:00006378       ??_R2RKeyboardController@SDL_core@ui@modules@UModSys@@8 0000000180023378     umodsys_lib_libui:umodsys.mod.ui.SDL_core.obj
 0002:000063a0       ??_R1A@?0A@EA@RKeyboardController@SDL_core@ui@modules@UModSys@@8 00000001800233a0     umodsys_lib_libui:umodsys.mod.ui.SDL_core.obj
 0002:000063c8       ??_R4RMouseController@SDL_core@ui@modules@UModSys@@6B@ 00000001800233c8     umodsys_lib_libui:umodsys.mod.ui.SDL_core.obj
 0002:000063f0       ??_R3RMouseController@SDL_core@ui@modules@UModSys@@8 00000001800233f0     umodsys_lib_libui:umodsys.mod.ui.SDL_core.obj
 0002:00006408       ??_R2RMouseController@SDL_core@ui@modules@UModSys@@8 0000000180023408     umodsys_lib_libui:umodsys.mod.ui.SDL_core.obj
 0002:00006430       ??_R1A@?0A@EA@RMouseController@SDL_core@ui@modules@UModSys@@8 0000000180023430     umodsys_lib_libui:umodsys.mod.ui.SDL_core.obj
 0002:00006458       ??_R4RMultiImage2D_SDL_ttf@SDL_core@ui@modules@UModSys@@6B@ 0000000180023458     umodsys_lib_libui:umodsys.mod.ui.SDL_core.obj
 0002:00006480       ??_R3RMultiImage2D_SDL_ttf@SDL_core@ui@modules@UModSys@@8 0000000180023480     umodsys_lib_libui:umodsys.mod.ui.SDL_core.obj
 0002:00006498       ??_R2RMultiImage2D_SDL_ttf@SDL_core@ui@modules@UModSys@@8 0000000180023498     umodsys_lib_libui:umodsys.mod.ui.SDL_core.obj
 0002:000064c0       ??_R1A@?0A@EA@RMultiImage2D_SDL_ttf@SDL_core@ui@modules@UModSys@@8 00000001800234c0     umodsys_lib_libui:umodsys.mod.ui.SDL_core.obj
 0002:000064e8       ??_R4RRenderDriver2D@SDL_core@ui@modules@UModSys@@6B@ 00000001800234e8     umodsys_lib_libui:umodsys.mod.ui.SDL_core.obj
 0002:00006510       ??_R3RRenderDriver2D@SDL_core@ui@modules@UModSys@@8 0000000180023510     umodsys_lib_libui:umodsys.mod.ui.SDL_core.obj
 0002:00006528       ??_R2RRenderDriver2D@SDL_core@ui@modules@UModSys@@8 0000000180023528     umodsys_lib_libui:umodsys.mod.ui.SDL_core.obj
 0002:00006550       ??_R1A@?0A@EA@RRenderDriver2D@SDL_core@ui@modules@UModSys@@8 0000000180023550     umodsys_lib_libui:umodsys.mod.ui.SDL_core.obj
 0002:00006578       ??_R4RTerminal@SDL_core@ui@modules@UModSys@@6B@ 0000000180023578     umodsys_lib_libui:umodsys.mod.ui.SDL_core.obj
 0002:000065a0       ??_R3RTerminal@SDL_core@ui@modules@UModSys@@8 00000001800235a0     umodsys_lib_libui:umodsys.mod.ui.SDL_core.obj
 0002:000065b8       ??_R2RTerminal@SDL_core@ui@modules@UModSys@@8 00000001800235b8     umodsys_lib_libui:umodsys.mod.ui.SDL_core.obj
 0002:000065e0       ??_R1A@?0A@EA@RTerminal@SDL_core@ui@modules@UModSys@@8 00000001800235e0     umodsys_lib_libui:umodsys.mod.ui.SDL_core.obj
 0002:00006608       ??_R4RGenerator@SDL_core@ui@modules@UModSys@@6B@ 0000000180023608     umodsys_lib_libui:umodsys.mod.ui.SDL_core.obj
 0002:00006630       ??_R3RGenerator@SDL_core@ui@modules@UModSys@@8 0000000180023630     umodsys_lib_libui:umodsys.mod.ui.SDL_core.obj
 0002:00006648       ??_R2RGenerator@SDL_core@ui@modules@UModSys@@8 0000000180023648     umodsys_lib_libui:umodsys.mod.ui.SDL_core.obj
 0002:00006678       ??_R1A@?0A@EA@RGenerator@SDL_core@ui@modules@UModSys@@8 0000000180023678     umodsys_lib_libui:umodsys.mod.ui.SDL_core.obj
 0002:000066a0       ??_R3IMouseController@libui@UModSys@@8 00000001800236a0     umodsys_lib_libui:umodsys.mod.ui.SDL_core.obj
 0002:000066b8       ??_R2IMouseController@libui@UModSys@@8 00000001800236b8     umodsys_lib_libui:umodsys.mod.ui.SDL_core.obj
 0002:000066d8       ??_R1A@?0A@EA@IMouseController@libui@UModSys@@8 00000001800236d8     umodsys_lib_libui:umodsys.mod.ui.SDL_core.obj
 0002:00006700       ??_R3IKeyboardController@libui@UModSys@@8 0000000180023700     umodsys_lib_libui:umodsys.mod.ui.SDL_core.obj
 0002:00006718       ??_R2IKeyboardController@libui@UModSys@@8 0000000180023718     umodsys_lib_libui:umodsys.mod.ui.SDL_core.obj
 0002:00006738       ??_R1A@?0A@EA@IKeyboardController@libui@UModSys@@8 0000000180023738     umodsys_lib_libui:umodsys.mod.ui.SDL_core.obj
 0002:00006760       ??_R3ITerminal@libui@UModSys@@8 0000000180023760     umodsys_lib_libui:umodsys.mod.ui.SDL_core.obj
 0002:00006778       ??_R2ITerminal@libui@UModSys@@8 0000000180023778     umodsys_lib_libui:umodsys.mod.ui.SDL_core.obj
 0002:00006798       ??_R1A@?0A@EA@ITerminal@libui@UModSys@@8 0000000180023798     umodsys_lib_libui:umodsys.mod.ui.SDL_core.obj
 0002:000067c0       ??_R3IMultiImage@lib2d@UModSys@@8 00000001800237c0     umodsys_lib_libui:umodsys.mod.ui.SDL_core.obj
 0002:000067d8       ??_R2IMultiImage@lib2d@UModSys@@8 00000001800237d8     umodsys_lib_libui:umodsys.mod.ui.SDL_core.obj
 0002:000067f8       ??_R1A@?0A@EA@IMultiImage@lib2d@UModSys@@8 00000001800237f8     umodsys_lib_libui:umodsys.mod.ui.SDL_core.obj
 0002:00006820       ??_R3IRenderDriver@lib2d@UModSys@@8 0000000180023820     umodsys_lib_libui:umodsys.mod.ui.SDL_core.obj
 0002:00006838       ??_R2IRenderDriver@lib2d@UModSys@@8 0000000180023838     umodsys_lib_libui:umodsys.mod.ui.SDL_core.obj
 0002:00006858       ??_R1A@?0A@EA@IRenderDriver@lib2d@UModSys@@8 0000000180023858     umodsys_lib_libui:umodsys.mod.ui.SDL_core.obj
 0002:00006880       ??_R4RModuleReg@frames@ui@modules@UModSys@@6B@ 0000000180023880     umodsys_lib_libui:umodsys.mod.ui.frames.obj
 0002:000068a8       ??_R3RModuleReg@frames@ui@modules@UModSys@@8 00000001800238a8     umodsys_lib_libui:umodsys.mod.ui.frames.obj
 0002:000068c0       ??_R2RModuleReg@frames@ui@modules@UModSys@@8 00000001800238c0     umodsys_lib_libui:umodsys.mod.ui.frames.obj
 0002:000068d8       ??_R1A@?0A@EA@RModuleReg@frames@ui@modules@UModSys@@8 00000001800238d8     umodsys_lib_libui:umodsys.mod.ui.frames.obj
 0002:00006900       ??_R4RFrame_List@frames@ui@modules@UModSys@@6BIFrameData@libui@4@@ 0000000180023900     umodsys_lib_libui:umodsys.mod.ui.frames.obj
 0002:00006928       ??_R4RFrame_List@frames@ui@modules@UModSys@@6BIFrameList@libui@4@@ 0000000180023928     umodsys_lib_libui:umodsys.mod.ui.frames.obj
 0002:00006950       ??_R4RFrame_List@frames@ui@modules@UModSys@@6BICollectorThemeTree@libui@4@@ 0000000180023950     umodsys_lib_libui:umodsys.mod.ui.frames.obj
 0002:00006978       ??_R4RFrame_List@frames@ui@modules@UModSys@@6BIRefObject@core@4@@ 0000000180023978     umodsys_lib_libui:umodsys.mod.ui.frames.obj
 0002:000069a0       ??_R3RFrame_List@frames@ui@modules@UModSys@@8 00000001800239a0     umodsys_lib_libui:umodsys.mod.ui.frames.obj
 0002:000069c0       ??_R2RFrame_List@frames@ui@modules@UModSys@@8 00000001800239c0     umodsys_lib_libui:umodsys.mod.ui.frames.obj
 0002:00006a08       ??_R1BAA@?0A@EA@IFrameData@libui@UModSys@@8 0000000180023a08     umodsys_lib_libui:umodsys.mod.ui.frames.obj
 0002:00006a30       ??_R1PI@?0A@EA@IFrameList@libui@UModSys@@8 0000000180023a30     umodsys_lib_libui:umodsys.mod.ui.frames.obj
 0002:00006a58       ??_R1A@?0A@EA@RFrame_List@frames@ui@modules@UModSys@@8 0000000180023a58     umodsys_lib_libui:umodsys.mod.ui.frames.obj
 0002:00006a80       ??_R4RFrame_Edit@frames@ui@modules@UModSys@@6B@ 0000000180023a80     umodsys_lib_libui:umodsys.mod.ui.frames.obj
 0002:00006aa8       ??_R4RFrame_Edit@frames@ui@modules@UModSys@@6BICollectorThemeTree@libui@4@@ 0000000180023aa8     umodsys_lib_libui:umodsys.mod.ui.frames.obj
 0002:00006ad0       ??_R4RFrame_Edit@frames@ui@modules@UModSys@@6BIRefObject@core@4@@ 0000000180023ad0     umodsys_lib_libui:umodsys.mod.ui.frames.obj
 0002:00006af8       ??_R3RFrame_Edit@frames@ui@modules@UModSys@@8 0000000180023af8     umodsys_lib_libui:umodsys.mod.ui.frames.obj
 0002:00006b10       ??_R2RFrame_Edit@frames@ui@modules@UModSys@@8 0000000180023b10     umodsys_lib_libui:umodsys.mod.ui.frames.obj
 0002:00006b50       ??_R1A@?0A@EA@RFrame_Edit@frames@ui@modules@UModSys@@8 0000000180023b50     umodsys_lib_libui:umodsys.mod.ui.frames.obj
 0002:00006b78       ??_R4RFrame_Button@frames@ui@modules@UModSys@@6BICollectorThemeTree@libui@4@@ 0000000180023b78     umodsys_lib_libui:umodsys.mod.ui.frames.obj
 0002:00006ba0       ??_R4RFrame_Button@frames@ui@modules@UModSys@@6BIRefObject@core@4@@ 0000000180023ba0     umodsys_lib_libui:umodsys.mod.ui.frames.obj
 0002:00006bc8       ??_R3RFrame_Button@frames@ui@modules@UModSys@@8 0000000180023bc8     umodsys_lib_libui:umodsys.mod.ui.frames.obj
 0002:00006be0       ??_R2RFrame_Button@frames@ui@modules@UModSys@@8 0000000180023be0     umodsys_lib_libui:umodsys.mod.ui.frames.obj
 0002:00006c18       ??_R1A@?0A@EA@RFrame_Button@frames@ui@modules@UModSys@@8 0000000180023c18     umodsys_lib_libui:umodsys.mod.ui.frames.obj
 0002:00006c40       ??_R4RFrame_Text@frames@ui@modules@UModSys@@6B@ 0000000180023c40     umodsys_lib_libui:umodsys.mod.ui.frames.obj
 0002:00006c68       ??_R4RFrame_Text@frames@ui@modules@UModSys@@6BICollectorThemeTree@libui@4@@ 0000000180023c68     umodsys_lib_libui:umodsys.mod.ui.frames.obj
 0002:00006c90       ??_R4RFrame_Text@frames@ui@modules@UModSys@@6BIRefObject@core@4@@ 0000000180023c90     umodsys_lib_libui:umodsys.mod.ui.frames.obj
 0002:00006cb8       ??_R3RFrame_Text@frames@ui@modules@UModSys@@8 0000000180023cb8     umodsys_lib_libui:umodsys.mod.ui.frames.obj
 0002:00006cd0       ??_R2RFrame_Text@frames@ui@modules@UModSys@@8 0000000180023cd0     umodsys_lib_libui:umodsys.mod.ui.frames.obj
 0002:00006d10       ??_R1PI@?0A@EA@IFrameData@libui@UModSys@@8 0000000180023d10     umodsys_lib_libui:umodsys.mod.ui.frames.obj
 0002:00006d38       ??_R1A@?0A@EA@RFrame_Text@frames@ui@modules@UModSys@@8 0000000180023d38     umodsys_lib_libui:umodsys.mod.ui.frames.obj
 0002:00006d60       ??_R4RFrame_Image@frames@ui@modules@UModSys@@6BICollectorThemeTree@libui@4@@ 0000000180023d60     umodsys_lib_libui:umodsys.mod.ui.frames.obj
 0002:00006d88       ??_R4RFrame_Image@frames@ui@modules@UModSys@@6BIRefObject@core@4@@ 0000000180023d88     umodsys_lib_libui:umodsys.mod.ui.frames.obj
 0002:00006db0       ??_R3RFrame_Image@frames@ui@modules@UModSys@@8 0000000180023db0     umodsys_lib_libui:umodsys.mod.ui.frames.obj
 0002:00006dc8       ??_R2RFrame_Image@frames@ui@modules@UModSys@@8 0000000180023dc8     umodsys_lib_libui:umodsys.mod.ui.frames.obj
 0002:00006e00       ??_R1A@?0A@EA@RFrame_Image@frames@ui@modules@UModSys@@8 0000000180023e00     umodsys_lib_libui:umodsys.mod.ui.frames.obj
 0002:00006e28       ??_R4RFrame_Frame@frames@ui@modules@UModSys@@6BICollectorThemeTree@libui@4@@ 0000000180023e28     umodsys_lib_libui:umodsys.mod.ui.frames.obj
 0002:00006e50       ??_R4RFrame_Frame@frames@ui@modules@UModSys@@6BIRefObject@core@4@@ 0000000180023e50     umodsys_lib_libui:umodsys.mod.ui.frames.obj
 0002:00006e78       ??_R3RFrame_Frame@frames@ui@modules@UModSys@@8 0000000180023e78     umodsys_lib_libui:umodsys.mod.ui.frames.obj
 0002:00006e90       ??_R2RFrame_Frame@frames@ui@modules@UModSys@@8 0000000180023e90     umodsys_lib_libui:umodsys.mod.ui.frames.obj
 0002:00006ec8       ??_R1A@?0A@EA@RFrame_Frame@frames@ui@modules@UModSys@@8 0000000180023ec8     umodsys_lib_libui:umodsys.mod.ui.frames.obj
 0002:00006ef0       ??_R4RCollectorTheme@frames@ui@modules@UModSys@@6B@ 0000000180023ef0     umodsys_lib_libui:umodsys.mod.ui.frames.obj
 0002:00006f18       ??_R3RCollectorTheme@frames@ui@modules@UModSys@@8 0000000180023f18     umodsys_lib_libui:umodsys.mod.ui.frames.obj
 0002:00006f30       ??_R2RCollectorTheme@frames@ui@modules@UModSys@@8 0000000180023f30     umodsys_lib_libui:umodsys.mod.ui.frames.obj
 0002:00006f50       ??_R1A@?0A@EA@RCollectorTheme@frames@ui@modules@UModSys@@8 0000000180023f50     umodsys_lib_libui:umodsys.mod.ui.frames.obj
 0002:00006f78       ??_R4RFrame_Common@frames@ui@modules@UModSys@@6BICollectorThemeTree@libui@4@@ 0000000180023f78     umodsys_lib_libui:umodsys.mod.ui.frames.obj
 0002:00006fa0       ??_R4RFrame_Common@frames@ui@modules@UModSys@@6BIRefObject@core@4@@ 0000000180023fa0     umodsys_lib_libui:umodsys.mod.ui.frames.obj
 0002:00006fc8       ??_R3RFrame_Common@frames@ui@modules@UModSys@@8 0000000180023fc8     umodsys_lib_libui:umodsys.mod.ui.frames.obj
 0002:00006fe0       ??_R2RFrame_Common@frames@ui@modules@UModSys@@8 0000000180023fe0     umodsys_lib_libui:umodsys.mod.ui.frames.obj
 0002:00007010       ??_R1A@?0A@EA@RFrame_Common@frames@ui@modules@UModSys@@8 0000000180024010     umodsys_lib_libui:umodsys.mod.ui.frames.obj
 0002:00007038       ??_R4RDialog@frames@ui@modules@UModSys@@6B@ 0000000180024038     umodsys_lib_libui:umodsys.mod.ui.frames.obj
 0002:00007060       ??_R3RDialog@frames@ui@modules@UModSys@@8 0000000180024060     umodsys_lib_libui:umodsys.mod.ui.frames.obj
 0002:00007078       ??_R2RDialog@frames@ui@modules@UModSys@@8 0000000180024078     umodsys_lib_libui:umodsys.mod.ui.frames.obj
 0002:000070a0       ??_R1A@?0A@EA@RDialog@frames@ui@modules@UModSys@@8 00000001800240a0     umodsys_lib_libui:umodsys.mod.ui.frames.obj
 0002:000070c8       ??_R4RCollector@frames@ui@modules@UModSys@@6BIMouseClient@libui@4@@ 00000001800240c8     umodsys_lib_libui:umodsys.mod.ui.frames.obj
 0002:000070f0       ??_R4RCollector@frames@ui@modules@UModSys@@6BIKeyboardClient@libui@4@@ 00000001800240f0     umodsys_lib_libui:umodsys.mod.ui.frames.obj
 0002:00007118       ??_R4RCollector@frames@ui@modules@UModSys@@6BICollectorThemeTree@libui@4@@ 0000000180024118     umodsys_lib_libui:umodsys.mod.ui.frames.obj
 0002:00007140       ??_R4RCollector@frames@ui@modules@UModSys@@6BIRefObject@core@4@@ 0000000180024140     umodsys_lib_libui:umodsys.mod.ui.frames.obj
 0002:00007168       ??_R3RCollector@frames@ui@modules@UModSys@@8 0000000180024168     umodsys_lib_libui:umodsys.mod.ui.frames.obj
 0002:00007180       ??_R2RCollector@frames@ui@modules@UModSys@@8 0000000180024180     umodsys_lib_libui:umodsys.mod.ui.frames.obj
 0002:000071c0       ??_R1BI@?0A@EA@IMouseClient@libui@UModSys@@8 00000001800241c0     umodsys_lib_libui:umodsys.mod.ui.frames.obj
 0002:000071e8       ??_R1BA@?0A@EA@IKeyboardClient@libui@UModSys@@8 00000001800241e8     umodsys_lib_libui:umodsys.mod.ui.frames.obj
 0002:00007210       ??_R1A@?0A@EA@RCollector@frames@ui@modules@UModSys@@8 0000000180024210     umodsys_lib_libui:umodsys.mod.ui.frames.obj
 0002:00007238       ??_R4RGenerator@frames@ui@modules@UModSys@@6B@ 0000000180024238     umodsys_lib_libui:umodsys.mod.ui.frames.obj
 0002:00007260       ??_R3RGenerator@frames@ui@modules@UModSys@@8 0000000180024260     umodsys_lib_libui:umodsys.mod.ui.frames.obj
 0002:00007278       ??_R2RGenerator@frames@ui@modules@UModSys@@8 0000000180024278     umodsys_lib_libui:umodsys.mod.ui.frames.obj
 0002:000072a8       ??_R1A@?0A@EA@RGenerator@frames@ui@modules@UModSys@@8 00000001800242a8     umodsys_lib_libui:umodsys.mod.ui.frames.obj
 0002:000072d0       ??_R4ICollectorThemeTemplate@libui@UModSys@@6B@ 00000001800242d0     umodsys_lib_libui:umodsys.mod.ui.frames.obj
 0002:000072f8       ??_R3ICollectorThemeTemplate@libui@UModSys@@8 00000001800242f8     umodsys_lib_libui:umodsys.mod.ui.frames.obj
 0002:00007310       ??_R2ICollectorThemeTemplate@libui@UModSys@@8 0000000180024310     umodsys_lib_libui:umodsys.mod.ui.frames.obj
 0002:00007328       ??_R1A@?0A@EA@ICollectorThemeTemplate@libui@UModSys@@8 0000000180024328     umodsys_lib_libui:umodsys.mod.ui.frames.obj
 0002:00007350       ??_R3IFrameList@libui@UModSys@@8 0000000180024350     umodsys_lib_libui:umodsys.mod.ui.frames.obj
 0002:00007368       ??_R2IFrameList@libui@UModSys@@8 0000000180024368     umodsys_lib_libui:umodsys.mod.ui.frames.obj
 0002:00007378       ??_R1A@?0A@EA@IFrameList@libui@UModSys@@8 0000000180024378     umodsys_lib_libui:umodsys.mod.ui.frames.obj
 0002:000073a0       ??_R3IFrameData@libui@UModSys@@8 00000001800243a0     umodsys_lib_libui:umodsys.mod.ui.frames.obj
 0002:000073b8       ??_R2IFrameData@libui@UModSys@@8 00000001800243b8     umodsys_lib_libui:umodsys.mod.ui.frames.obj
 0002:000073c8       ??_R1A@?0A@EA@IFrameData@libui@UModSys@@8 00000001800243c8     umodsys_lib_libui:umodsys.mod.ui.frames.obj
 0002:000073f0       ??_R3IDialog@libui@UModSys@@8 00000001800243f0     umodsys_lib_libui:umodsys.mod.ui.frames.obj
 0002:00007408       ??_R2IDialog@libui@UModSys@@8 0000000180024408     umodsys_lib_libui:umodsys.mod.ui.frames.obj
 0002:00007428       ??_R1A@?0A@EA@IDialog@libui@UModSys@@8 0000000180024428     umodsys_lib_libui:umodsys.mod.ui.frames.obj
 0002:00007450       ??_R3IFrame@libui@UModSys@@8 0000000180024450     umodsys_lib_libui:umodsys.mod.ui.frames.obj
 0002:00007468       ??_R2IFrame@libui@UModSys@@8 0000000180024468     umodsys_lib_libui:umodsys.mod.ui.frames.obj
 0002:00007490       ??_R1A@?0A@EA@IFrame@libui@UModSys@@8 0000000180024490     umodsys_lib_libui:umodsys.mod.ui.frames.obj
 0002:000074b8       ??_R3ICollectorTheme@libui@UModSys@@8 00000001800244b8     umodsys_lib_libui:umodsys.mod.ui.frames.obj
 0002:000074d0       ??_R2ICollectorTheme@libui@UModSys@@8 00000001800244d0     umodsys_lib_libui:umodsys.mod.ui.frames.obj
 0002:000074e0       ??_R1A@?0A@EA@ICollectorTheme@libui@UModSys@@8 00000001800244e0     umodsys_lib_libui:umodsys.mod.ui.frames.obj
 0002:00007508       ??_R3ICollector@libui@UModSys@@8 0000000180024508     umodsys_lib_libui:umodsys.mod.ui.frames.obj
 0002:00007520       ??_R2ICollector@libui@UModSys@@8 0000000180024520     umodsys_lib_libui:umodsys.mod.ui.frames.obj
 0002:00007548       ??_R17?0A@EA@ICollectorThemeTree@libui@UModSys@@8 0000000180024548     umodsys_lib_libui:umodsys.mod.ui.frames.obj
 0002:00007570       ??_R3ICollectorThemeTree@libui@UModSys@@8 0000000180024570     umodsys_lib_libui:umodsys.mod.ui.frames.obj
 0002:00007588       ??_R2ICollectorThemeTree@libui@UModSys@@8 0000000180024588     umodsys_lib_libui:umodsys.mod.ui.frames.obj
 0002:00007598       ??_R1A@?0A@EA@ICollectorThemeTree@libui@UModSys@@8 0000000180024598     umodsys_lib_libui:umodsys.mod.ui.frames.obj
 0002:000075c0       ??_R1A@?0A@EA@ICollector@libui@UModSys@@8 00000001800245c0     umodsys_lib_libui:umodsys.mod.ui.frames.obj
 0002:000075e8       ??_R4RModuleReg@images_std@media@modules@UModSys@@6B@ 00000001800245e8     umodsys_lib_libmedia:umodsys.mod.media.images_std.obj
 0002:00007610       ??_R3RModuleReg@images_std@media@modules@UModSys@@8 0000000180024610     umodsys_lib_libmedia:umodsys.mod.media.images_std.obj
 0002:00007628       ??_R2RModuleReg@images_std@media@modules@UModSys@@8 0000000180024628     umodsys_lib_libmedia:umodsys.mod.media.images_std.obj
 0002:00007640       ??_R1A@?0A@EA@RModuleReg@images_std@media@modules@UModSys@@8 0000000180024640     umodsys_lib_libmedia:umodsys.mod.media.images_std.obj
 0002:00007668       ??_R4RMediaFilter@images_std@media@modules@UModSys@@6BISetter@SFlags@libmedia@4@@ 0000000180024668     umodsys_lib_libmedia:umodsys.mod.media.images_std.obj
 0002:00007690       ??_R4RMediaFilter@images_std@media@modules@UModSys@@6BIRefObject@core@4@@ 0000000180024690     umodsys_lib_libmedia:umodsys.mod.media.images_std.obj
 0002:000076b8       ??_R3RMediaFilter@images_std@media@modules@UModSys@@8 00000001800246b8     umodsys_lib_libmedia:umodsys.mod.media.images_std.obj
 0002:000076d0       ??_R2RMediaFilter@images_std@media@modules@UModSys@@8 00000001800246d0     umodsys_lib_libmedia:umodsys.mod.media.images_std.obj
 0002:00007710       ??_R1A@?0A@EA@RMediaFilter@images_std@media@modules@UModSys@@8 0000000180024710     umodsys_lib_libmedia:umodsys.mod.media.images_std.obj
 0002:00007738       ??_R4RGenerator@images_std@media@modules@UModSys@@6B@ 0000000180024738     umodsys_lib_libmedia:umodsys.mod.media.images_std.obj
 0002:00007760       ??_R3RGenerator@images_std@media@modules@UModSys@@8 0000000180024760     umodsys_lib_libmedia:umodsys.mod.media.images_std.obj
 0002:00007778       ??_R2RGenerator@images_std@media@modules@UModSys@@8 0000000180024778     umodsys_lib_libmedia:umodsys.mod.media.images_std.obj
 0002:000077a8       ??_R1A@?0A@EA@RGenerator@images_std@media@modules@UModSys@@8 00000001800247a8     umodsys_lib_libmedia:umodsys.mod.media.images_std.obj
 0002:000077d0       ??_R4RModuleReg@serialize_json@media@modules@UModSys@@6B@ 00000001800247d0     umodsys_lib_libmedia:umodsys.mod.media.serialize_json.obj
 0002:000077f8       ??_R3RModuleReg@serialize_json@media@modules@UModSys@@8 00000001800247f8     umodsys_lib_libmedia:umodsys.mod.media.serialize_json.obj
 0002:00007810       ??_R2RModuleReg@serialize_json@media@modules@UModSys@@8 0000000180024810     umodsys_lib_libmedia:umodsys.mod.media.serialize_json.obj
 0002:00007828       ??_R1A@?0A@EA@RModuleReg@serialize_json@media@modules@UModSys@@8 0000000180024828     umodsys_lib_libmedia:umodsys.mod.media.serialize_json.obj
 0002:00007850       ??_R4RSerializeWriter@serialize_json@media@modules@UModSys@@6BISerializeParser@libmedia@4@@ 0000000180024850     umodsys_lib_libmedia:umodsys.mod.media.serialize_json.obj
 0002:00007878       ??_R4RSerializeWriter@serialize_json@media@modules@UModSys@@6BIRefObject@core@4@@ 0000000180024878     umodsys_lib_libmedia:umodsys.mod.media.serialize_json.obj
 0002:000078a0       ??_R3RSerializeWriter@serialize_json@media@modules@UModSys@@8 00000001800248a0     umodsys_lib_libmedia:umodsys.mod.media.serialize_json.obj
 0002:000078b8       ??_R2RSerializeWriter@serialize_json@media@modules@UModSys@@8 00000001800248b8     umodsys_lib_libmedia:umodsys.mod.media.serialize_json.obj
 0002:000078e8       ??_R1A@?0A@EA@RSerializeWriter@serialize_json@media@modules@UModSys@@8 00000001800248e8     umodsys_lib_libmedia:umodsys.mod.media.serialize_json.obj
 0002:00007910       ??_R4RSerializeReader@serialize_json@media@modules@UModSys@@6B@ 0000000180024910     umodsys_lib_libmedia:umodsys.mod.media.serialize_json.obj
 0002:00007938       ??_R3RSerializeReader@serialize_json@media@modules@UModSys@@8 0000000180024938     umodsys_lib_libmedia:umodsys.mod.media.serialize_json.obj
 0002:00007950       ??_R2RSerializeReader@serialize_json@media@modules@UModSys@@8 0000000180024950     umodsys_lib_libmedia:umodsys.mod.media.serialize_json.obj
 0002:00007978       ??_R1A@?0A@EA@RSerializeReader@serialize_json@media@modules@UModSys@@8 0000000180024978     umodsys_lib_libmedia:umodsys.mod.media.serialize_json.obj
 0002:000079a0       ??_R4RGenerator@serialize_json@media@modules@UModSys@@6B@ 00000001800249a0     umodsys_lib_libmedia:umodsys.mod.media.serialize_json.obj
 0002:000079c8       ??_R3RGenerator@serialize_json@media@modules@UModSys@@8 00000001800249c8     umodsys_lib_libmedia:umodsys.mod.media.serialize_json.obj
 0002:000079e0       ??_R2RGenerator@serialize_json@media@modules@UModSys@@8 00000001800249e0     umodsys_lib_libmedia:umodsys.mod.media.serialize_json.obj
 0002:00007a10       ??_R1A@?0A@EA@RGenerator@serialize_json@media@modules@UModSys@@8 0000000180024a10     umodsys_lib_libmedia:umodsys.mod.media.serialize_json.obj
 0002:00007a38       ??_R3ISerializeWriter@libmedia@UModSys@@8 0000000180024a38     umodsys_lib_libmedia:umodsys.mod.media.serialize_json.obj
 0002:00007a50       ??_R2ISerializeWriter@libmedia@UModSys@@8 0000000180024a50     umodsys_lib_libmedia:umodsys.mod.media.serialize_json.obj
 0002:00007a78       ??_R17?0A@EA@ISerializeParser@libmedia@UModSys@@8 0000000180024a78     umodsys_lib_libmedia:umodsys.mod.media.serialize_json.obj
 0002:00007aa0       ??_R3ISerializeParser@libmedia@UModSys@@8 0000000180024aa0     umodsys_lib_libmedia:umodsys.mod.media.serialize_json.obj
 0002:00007ab8       ??_R2ISerializeParser@libmedia@UModSys@@8 0000000180024ab8     umodsys_lib_libmedia:umodsys.mod.media.serialize_json.obj
 0002:00007ac8       ??_R1A@?0A@EA@ISerializeParser@libmedia@UModSys@@8 0000000180024ac8     umodsys_lib_libmedia:umodsys.mod.media.serialize_json.obj
 0002:00007af0       ??_R1A@?0A@EA@ISerializeWriter@libmedia@UModSys@@8 0000000180024af0     umodsys_lib_libmedia:umodsys.mod.media.serialize_json.obj
 0002:00007b18       ??_R3ISerializeReader@libmedia@UModSys@@8 0000000180024b18     umodsys_lib_libmedia:umodsys.mod.media.serialize_json.obj
 0002:00007b30       ??_R2ISerializeReader@libmedia@UModSys@@8 0000000180024b30     umodsys_lib_libmedia:umodsys.mod.media.serialize_json.obj
 0002:00007b50       ??_R1A@?0A@EA@ISerializeReader@libmedia@UModSys@@8 0000000180024b50     umodsys_lib_libmedia:umodsys.mod.media.serialize_json.obj
 0002:00007b78       ??_R4RModuleLibraryReg_Chain@base@UModSys@@6B@ 0000000180024b78     umodsys_lib_base:umodsys.base.moduleregchain.obj
 0002:00007ba0       ??_R3RModuleLibraryReg_Chain@base@UModSys@@8 0000000180024ba0     umodsys_lib_base:umodsys.base.moduleregchain.obj
 0002:00007bb8       ??_R2RModuleLibraryReg_Chain@base@UModSys@@8 0000000180024bb8     umodsys_lib_base:umodsys.base.moduleregchain.obj
 0002:00007bd0       ??_R1A@?0A@EA@IModuleLibraryReg@base@UModSys@@8 0000000180024bd0     umodsys_lib_base:umodsys.base.moduleregchain.obj
 0002:00007bf8       ??_R3IModuleLibraryReg@base@UModSys@@8 0000000180024bf8     umodsys_lib_base:umodsys.base.moduleregchain.obj
 0002:00007c10       ??_R2IModuleLibraryReg@base@UModSys@@8 0000000180024c10     umodsys_lib_base:umodsys.base.moduleregchain.obj
 0002:00007c20       ??_R1A@?0A@EA@RModuleLibraryReg_Chain@base@UModSys@@8 0000000180024c20     umodsys_lib_base:umodsys.base.moduleregchain.obj
 0002:00007c48       ??_R4IModuleLibraryReg@base@UModSys@@6B@ 0000000180024c48     umodsys_lib_base:umodsys.base.modulereg.obj
 0002:00007c70       ??_R4IModuleReg@base@UModSys@@6B@ 0000000180024c70     umodsys_lib_base:umodsys.base.modulereg.obj
 0002:00007c98       __rtc_iaa                  0000000180024c98     MSVCRT:_initsect_.obj
 0002:00007ca0       __rtc_izz                  0000000180024ca0     MSVCRT:_initsect_.obj
 0002:00007ca8       __rtc_taa                  0000000180024ca8     MSVCRT:_initsect_.obj
 0002:00007cb0       __rtc_tzz                  0000000180024cb0     MSVCRT:_initsect_.obj
 0002:0000b278       __IMPORT_DESCRIPTOR_MSVCR90 0000000180028278     MSVCRT:MSVCR90.dll
 0002:0000b28c       __IMPORT_DESCRIPTOR_lib_libpng 000000018002828c     lib_libpng:lib_libpng.dll
 0002:0000b2a0       __IMPORT_DESCRIPTOR_lib_jpeglib 00000001800282a0     lib_jpeglib:lib_jpeglib.dll
 0002:0000b2b4       __IMPORT_DESCRIPTOR_lib_SDL2 00000001800282b4     lib_SDL2:lib_SDL2.dll
 0002:0000b2c8       __IMPORT_DESCRIPTOR_KERNEL32 00000001800282c8     kernel32:KERNEL32.dll
 0002:0000b2dc       __NULL_IMPORT_DESCRIPTOR   00000001800282dc     MSVCRT:MSVCR90.dll
 0003:00000000       ??_R0?AVtype_info@@@8      0000000180029000     MSVCRT:ti_inst.obj
 0003:00000020       __native_dllmain_reason    0000000180029020     MSVCRT:natstart.obj
 0003:00000024       __native_vcclrit_reason    0000000180029024     MSVCRT:natstart.obj
 0003:00000028       __security_cookie          0000000180029028     MSVCRT:gs_cookie.obj
 0003:00000030       __security_cookie_complement 0000000180029030     MSVCRT:gs_cookie.obj
 0003:00000038       ??_R0?AUIModuleReg@base@UModSys@@@8 0000000180029038     plugin_test1.obj
 0003:00000068       ??_R0?AURModuleReg@test1@test@modules@UModSys@@@8 0000000180029068     plugin_test1.obj
 0003:000000a8       ??_R0?AURGenerator@test1@test@modules@UModSys@@@8 00000001800290a8     plugin_test1.obj
 0003:000000e8       ??_R0?AURTest1_Shell@test1@test@modules@UModSys@@@8 00000001800290e8     plugin_test1.obj
 0003:00000128       ??_R0?AUIController@libui@UModSys@@@8 0000000180029128     plugin_test1.obj
 0003:00000158       ??_R0?AUIControllerData@libui@UModSys@@@8 0000000180029158     plugin_test1.obj
 0003:00000190       ??_R0?AUIControllerCommand@libui@UModSys@@@8 0000000180029190     plugin_test1.obj
 0003:000001c8       ??_R0?AUIMouseClient@libui@UModSys@@@8 00000001800291c8     plugin_test1.obj
 0003:00000200       ??_R0?AUIKeyboardClient@libui@UModSys@@@8 0000000180029200     plugin_test1.obj
 0003:00000238       ??_R0?AUIResolver@SFlags@libmedia@UModSys@@@8 0000000180029238     plugin_test1.obj
 0003:00000270       ??_R0?AUIResolverAuto@SFlags@libmedia@UModSys@@@8 0000000180029270     plugin_test1.obj
 0003:000002b0       ??_R0?AUISetter@SFlags@libmedia@UModSys@@@8 00000001800292b0     plugin_test1.obj
 0003:000002e8       ??_R0?AUIBinObjFilter@libmedia@UModSys@@@8 00000001800292e8     plugin_test1.obj
 0003:00000320       ??_R0?AUIShell@base@UModSys@@@8 0000000180029320     plugin_test1.obj
 0003:00000350       ??_R0?AUIGenerator@base@UModSys@@@8 0000000180029350     plugin_test1.obj
 0003:00000380       ??_R0?AUIModObject@base@UModSys@@@8 0000000180029380     plugin_test1.obj
 0003:000003b0       ??_R0?AUIRefObject@core@UModSys@@@8 00000001800293b0     plugin_test1.obj
 0003:000003e0       ??_R0?AUIRoot@core@UModSys@@@8 00000001800293e0     plugin_test1.obj
 0003:00000450       ?so_entry_enabled_flag@base@UModSys@@3HA 0000000180029450     umodsys_lib_base:umodsys.so_main.win32.obj
 0003:000004a8       ?auto_flags@RLines_Filter@test1@test@modules@UModSys@@2U?$TFlags4State@USMediaFlagUid@libmedia@UModSys@@I@tl@5@A 00000001800294a8     plugin_test1.obj
 0003:000004f0       ?s_null@?1??get_null@?$TSCoreShared@USIMemAlloc@core@UModSys@@D@su@tl@UModSys@@SAPEAU?$TSharedStringInfo@D@345@XZ@4U6345@A 00000001800294f0     plugin_test1.obj
 0003:00000510       ??_R0?AURModuleReg@stdlib@lib2d@modules@UModSys@@@8 0000000180029510     umodsys_lib_lib2d:umodsys.mod.2d.stdlib.obj
 0003:00000550       ??_R0?AURImage_Memory@stdlib@lib2d@modules@UModSys@@@8 0000000180029550     umodsys_lib_lib2d:umodsys.mod.2d.stdlib.obj
 0003:00000598       ??_R0?AURGenerator@stdlib@lib2d@modules@UModSys@@@8 0000000180029598     umodsys_lib_lib2d:umodsys.mod.2d.stdlib.obj
 0003:000005d8       ??_R0?AUIImage@lib2d@UModSys@@@8 00000001800295d8     umodsys_lib_lib2d:umodsys.mod.2d.stdlib.obj
 0003:00000608       ??_R0?AURModuleReg@SDL_core@ui@modules@UModSys@@@8 0000000180029608     umodsys_lib_libui:umodsys.mod.ui.SDL_core.obj
 0003:00000650       ??_R0?AURKeyboardController@SDL_core@ui@modules@UModSys@@@8 0000000180029650     umodsys_lib_libui:umodsys.mod.ui.SDL_core.obj
 0003:000006a0       ??_R0?AURMouseController@SDL_core@ui@modules@UModSys@@@8 00000001800296a0     umodsys_lib_libui:umodsys.mod.ui.SDL_core.obj
 0003:000006f0       ??_R0?AURMultiImage2D_SDL_ttf@SDL_core@ui@modules@UModSys@@@8 00000001800296f0     umodsys_lib_libui:umodsys.mod.ui.SDL_core.obj
 0003:00000740       ??_R0?AURRenderDriver2D@SDL_core@ui@modules@UModSys@@@8 0000000180029740     umodsys_lib_libui:umodsys.mod.ui.SDL_core.obj
 0003:00000788       ??_R0?AURTerminal@SDL_core@ui@modules@UModSys@@@8 0000000180029788     umodsys_lib_libui:umodsys.mod.ui.SDL_core.obj
 0003:000007c8       ??_R0?AURGenerator@SDL_core@ui@modules@UModSys@@@8 00000001800297c8     umodsys_lib_libui:umodsys.mod.ui.SDL_core.obj
 0003:00000808       ??_R0?AUIMouseController@libui@UModSys@@@8 0000000180029808     umodsys_lib_libui:umodsys.mod.ui.SDL_core.obj
 0003:00000840       ??_R0?AUIKeyboardController@libui@UModSys@@@8 0000000180029840     umodsys_lib_libui:umodsys.mod.ui.SDL_core.obj
 0003:00000878       ??_R0?AUITerminal@libui@UModSys@@@8 0000000180029878     umodsys_lib_libui:umodsys.mod.ui.SDL_core.obj
 0003:000008a8       ??_R0?AUIMultiImage@lib2d@UModSys@@@8 00000001800298a8     umodsys_lib_libui:umodsys.mod.ui.SDL_core.obj
 0003:000008d8       ??_R0?AUIRenderDriver@lib2d@UModSys@@@8 00000001800298d8     umodsys_lib_libui:umodsys.mod.ui.SDL_core.obj
 0003:00000910       ??_R0?AURModuleReg@frames@ui@modules@UModSys@@@8 0000000180029910     umodsys_lib_libui:umodsys.mod.ui.frames.obj
 0003:00000950       ??_R0?AURFrame_List@frames@ui@modules@UModSys@@@8 0000000180029950     umodsys_lib_libui:umodsys.mod.ui.frames.obj
 0003:00000990       ??_R0?AURFrame_Edit@frames@ui@modules@UModSys@@@8 0000000180029990     umodsys_lib_libui:umodsys.mod.ui.frames.obj
 0003:000009d0       ??_R0?AURFrame_Button@frames@ui@modules@UModSys@@@8 00000001800299d0     umodsys_lib_libui:umodsys.mod.ui.frames.obj
 0003:00000a10       ??_R0?AURFrame_Text@frames@ui@modules@UModSys@@@8 0000000180029a10     umodsys_lib_libui:umodsys.mod.ui.frames.obj
 0003:00000a50       ??_R0?AURFrame_Image@frames@ui@modules@UModSys@@@8 0000000180029a50     umodsys_lib_libui:umodsys.mod.ui.frames.obj
 0003:00000a90       ??_R0?AURFrame_Frame@frames@ui@modules@UModSys@@@8 0000000180029a90     umodsys_lib_libui:umodsys.mod.ui.frames.obj
 0003:00000ad0       ??_R0?AURCollectorTheme@frames@ui@modules@UModSys@@@8 0000000180029ad0     umodsys_lib_libui:umodsys.mod.ui.frames.obj
 0003:00000b10       ??_R0?AURFrame_Common@frames@ui@modules@UModSys@@@8 0000000180029b10     umodsys_lib_libui:umodsys.mod.ui.frames.obj
 0003:00000b50       ??_R0?AURDialog@frames@ui@modules@UModSys@@@8 0000000180029b50     umodsys_lib_libui:umodsys.mod.ui.frames.obj
 0003:00000b88       ??_R0?AURCollector@frames@ui@modules@UModSys@@@8 0000000180029b88     umodsys_lib_libui:umodsys.mod.ui.frames.obj
 0003:00000bc8       ??_R0?AURGenerator@frames@ui@modules@UModSys@@@8 0000000180029bc8     umodsys_lib_libui:umodsys.mod.ui.frames.obj
 0003:00000c08       ??_R0?AUICollectorThemeTemplate@libui@UModSys@@@8 0000000180029c08     umodsys_lib_libui:umodsys.mod.ui.frames.obj
 0003:00000c48       ??_R0?AUIFrameList@libui@UModSys@@@8 0000000180029c48     umodsys_lib_libui:umodsys.mod.ui.frames.obj
 0003:00000c78       ??_R0?AUIFrameData@libui@UModSys@@@8 0000000180029c78     umodsys_lib_libui:umodsys.mod.ui.frames.obj
 0003:00000ca8       ??_R0?AUIDialog@libui@UModSys@@@8 0000000180029ca8     umodsys_lib_libui:umodsys.mod.ui.frames.obj
 0003:00000cd8       ??_R0?AUIFrame@libui@UModSys@@@8 0000000180029cd8     umodsys_lib_libui:umodsys.mod.ui.frames.obj
 0003:00000d08       ??_R0?AUICollectorTheme@libui@UModSys@@@8 0000000180029d08     umodsys_lib_libui:umodsys.mod.ui.frames.obj
 0003:00000d40       ??_R0?AUICollectorThemeTree@libui@UModSys@@@8 0000000180029d40     umodsys_lib_libui:umodsys.mod.ui.frames.obj
 0003:00000d78       ??_R0?AUICollector@libui@UModSys@@@8 0000000180029d78     umodsys_lib_libui:umodsys.mod.ui.frames.obj
 0003:00000db0       ??_R0?AURModuleReg@images_std@media@modules@UModSys@@@8 0000000180029db0     umodsys_lib_libmedia:umodsys.mod.media.images_std.obj
 0003:00000e00       ??_R0?AURMediaFilter@images_std@media@modules@UModSys@@@8 0000000180029e00     umodsys_lib_libmedia:umodsys.mod.media.images_std.obj
 0003:00000e50       ??_R0?AURGenerator@images_std@media@modules@UModSys@@@8 0000000180029e50     umodsys_lib_libmedia:umodsys.mod.media.images_std.obj
 0003:00000ea0       ??_R0?AURModuleReg@serialize_json@media@modules@UModSys@@@8 0000000180029ea0     umodsys_lib_libmedia:umodsys.mod.media.serialize_json.obj
 0003:00000ef0       ??_R0?AURSerializeWriter@serialize_json@media@modules@UModSys@@@8 0000000180029ef0     umodsys_lib_libmedia:umodsys.mod.media.serialize_json.obj
 0003:00000f40       ??_R0?AURSerializeReader@serialize_json@media@modules@UModSys@@@8 0000000180029f40     umodsys_lib_libmedia:umodsys.mod.media.serialize_json.obj
 0003:00000f90       ??_R0?AURGenerator@serialize_json@media@modules@UModSys@@@8 0000000180029f90     umodsys_lib_libmedia:umodsys.mod.media.serialize_json.obj
 0003:00000fd8       ??_R0?AUISerializeParser@libmedia@UModSys@@@8 0000000180029fd8     umodsys_lib_libmedia:umodsys.mod.media.serialize_json.obj
 0003:00001010       ??_R0?AUISerializeWriter@libmedia@UModSys@@@8 000000018002a010     umodsys_lib_libmedia:umodsys.mod.media.serialize_json.obj
 0003:00001048       ??_R0?AUISerializeReader@libmedia@UModSys@@@8 000000018002a048     umodsys_lib_libmedia:umodsys.mod.media.serialize_json.obj
 0003:00001080       ??_R0?AUIModuleLibraryReg@base@UModSys@@@8 000000018002a080     umodsys_lib_base:umodsys.base.moduleregchain.obj
 0003:000010b8       ??_R0?AURModuleLibraryReg_Chain@base@UModSys@@@8 000000018002a0b8     umodsys_lib_base:umodsys.base.moduleregchain.obj
 0003:000010f4       _fltused                   000000018002a0f4     MSVCRT:dllsupp.obj
 0003:00001104       _forceCRTManifestRTM       000000018002a104     MSVCRT:crtmanifestrtm.obj
 0003:00001108       ?__type_info_root_node@@3U__type_info_node@@A 000000018002a108     MSVCRT:tncleanup.obj
 0003:00001120       ?s_escapes@serialize_json@media@modules@UModSys@@3PAY07DA 000000018002a120     umodsys_lib_libmedia:umodsys.mod.media.serialize_json.obj
 0003:00001920       ?fmodule@stdlib@lib2d@modules@UModSys@@3DA 000000018002a920     umodsys_lib_lib2d:umodsys.mod.2d.stdlib.obj
 0003:00001921       ?fmodule@SDL_core@ui@modules@UModSys@@3DA 000000018002a921     umodsys_lib_libui:umodsys.mod.ui.SDL_core.obj
 0003:00001922       ?fmodule@frames@ui@modules@UModSys@@3DA 000000018002a922     umodsys_lib_libui:umodsys.mod.ui.frames.obj
 0003:00001923       ?fmodule@images_std@media@modules@UModSys@@3DA 000000018002a923     umodsys_lib_libmedia:umodsys.mod.media.images_std.obj
 0003:00001924       ?fmodule@serialize_json@media@modules@UModSys@@3DA 000000018002a924     umodsys_lib_libmedia:umodsys.mod.media.serialize_json.obj
 0003:00001930       ?s_modreg@RModuleReg@test1@test@modules@UModSys@@2U12345@A 000000018002a930     plugin_test1.obj
 0003:00001980       ?s_modreg_chain@RModuleReg@test1@test@modules@UModSys@@2USModuleRegChain@base@5@A 000000018002a980     plugin_test1.obj
 0003:00001998       ?s_uid@RGenerator@test1@test@modules@UModSys@@2USUniquePointer@core@5@A 000000018002a998     plugin_test1.obj
 0003:000019c8       ?s_modreg_chain@RModuleReg@stdlib@lib2d@modules@UModSys@@2USModuleRegChain@base@5@A 000000018002a9c8     umodsys_lib_lib2d:umodsys.mod.2d.stdlib.obj
 0003:000019e0       ?s_modreg@RModuleReg@stdlib@lib2d@modules@UModSys@@2U12345@A 000000018002a9e0     umodsys_lib_lib2d:umodsys.mod.2d.stdlib.obj
 0003:00001a30       ?s_uid@RGenerator@stdlib@lib2d@modules@UModSys@@2USUniquePointer@core@5@A 000000018002aa30     umodsys_lib_lib2d:umodsys.mod.2d.stdlib.obj
 0003:00001a60       ?s_modreg@RModuleReg@SDL_core@ui@modules@UModSys@@2U12345@A 000000018002aa60     umodsys_lib_libui:umodsys.mod.ui.SDL_core.obj
 0003:00001ab0       ?s_modreg_chain@RModuleReg@SDL_core@ui@modules@UModSys@@2USModuleRegChain@base@5@A 000000018002aab0     umodsys_lib_libui:umodsys.mod.ui.SDL_core.obj
 0003:00001ac8       ?s_uid@RGenerator@SDL_core@ui@modules@UModSys@@2USUniquePointer@core@5@A 000000018002aac8     umodsys_lib_libui:umodsys.mod.ui.SDL_core.obj
 0003:00001af8       ?s_uid@RGenerator@frames@ui@modules@UModSys@@2USUniquePointer@core@5@A 000000018002aaf8     umodsys_lib_libui:umodsys.mod.ui.frames.obj
 0003:00001b28       ?s_modreg_chain@RModuleReg@frames@ui@modules@UModSys@@2USModuleRegChain@base@5@A 000000018002ab28     umodsys_lib_libui:umodsys.mod.ui.frames.obj
 0003:00001b40       ?s_modreg@RModuleReg@frames@ui@modules@UModSys@@2U12345@A 000000018002ab40     umodsys_lib_libui:umodsys.mod.ui.frames.obj
 0003:00001b90       ?auto_flags@RMediaFilter@images_std@media@modules@UModSys@@1U?$TFlags4State@USMediaFlagUid@libmedia@UModSys@@I@tl@5@A 000000018002ab90     umodsys_lib_libmedia:umodsys.mod.media.images_std.obj
 0003:00001b98       ?s_uid@RGenerator@images_std@media@modules@UModSys@@2USUniquePointer@core@5@A 000000018002ab98     umodsys_lib_libmedia:umodsys.mod.media.images_std.obj
 0003:00001bd0       ?s_modreg@RModuleReg@images_std@media@modules@UModSys@@2U12345@A 000000018002abd0     umodsys_lib_libmedia:umodsys.mod.media.images_std.obj
 0003:00001c20       ?s_modreg_chain@RModuleReg@images_std@media@modules@UModSys@@2USModuleRegChain@base@5@A 000000018002ac20     umodsys_lib_libmedia:umodsys.mod.media.images_std.obj
 0003:00001c38       ?s_modreg_chain@RModuleReg@serialize_json@media@modules@UModSys@@2USModuleRegChain@base@5@A 000000018002ac38     umodsys_lib_libmedia:umodsys.mod.media.serialize_json.obj
 0003:00001c50       ?s_uid@RGenerator@serialize_json@media@modules@UModSys@@2USUniquePointer@core@5@A 000000018002ac50     umodsys_lib_libmedia:umodsys.mod.media.serialize_json.obj
 0003:00001c80       ?s_modreg@RModuleReg@serialize_json@media@modules@UModSys@@2U12345@A 000000018002ac80     umodsys_lib_libmedia:umodsys.mod.media.serialize_json.obj
 0003:00001cd0       ?M@UModSys@@3USModuleContext@base@1@A 000000018002acd0     umodsys_lib_base:umodsys.base.modulecontext.obj
 0003:00001cf8       ?s_library@RModuleLibraryReg_Chain@base@UModSys@@2U123@A 000000018002acf8     umodsys_lib_base:umodsys.base.moduleregchain.obj
 0003:00001d00       ?root@SModuleRegChain@base@UModSys@@2U123@A 000000018002ad00     umodsys_lib_base:umodsys.base.moduleregchain.obj
 0003:00001d18       ?root@SUniquePointer@core@UModSys@@2U123@A 000000018002ad18     umodsys_lib_core:umodsys.core.uniqueptr.obj
 0003:00001eb0       ?s_id@?$TObjectUniqueID@UIBinObjFilter@libmedia@UModSys@@@tl@UModSys@@2USUniquePointer@core@3@A 000000018002aeb0     plugin_test1.obj
 0003:00001ee0       ?s_id@?$TObjectUniqueID@UIAsyncController@libui@UModSys@@@tl@UModSys@@2USUniquePointer@core@3@A 000000018002aee0     plugin_test1.obj
 0003:00001f10       ?s_id@?$TObjectUniqueID@UICollector@libui@UModSys@@@tl@UModSys@@2USUniquePointer@core@3@A 000000018002af10     plugin_test1.obj
 0003:00001f40       ?s_id@?$TObjectUniqueID@UIMouseController@libui@UModSys@@@tl@UModSys@@2USUniquePointer@core@3@A 000000018002af40     plugin_test1.obj
 0003:00001f70       ?s_id@?$TObjectUniqueID@UILibraryBinTree@libmedia@UModSys@@@tl@UModSys@@2USUniquePointer@core@3@A 000000018002af70     plugin_test1.obj
 0003:00001fa0       ?s_id@?$TObjectUniqueID@UIModObject@base@UModSys@@@tl@UModSys@@2USUniquePointer@core@3@A 000000018002afa0     plugin_test1.obj
 0003:00001fd0       ?s_id@?$TObjectUniqueID@UIConsoleHelperOutputFCS@base@UModSys@@@tl@UModSys@@2USUniquePointer@core@3@A 000000018002afd0     plugin_test1.obj
 0003:00002000       ?s_id@?$TObjectUniqueID@UILines@test1@test@modules@UModSys@@@tl@UModSys@@2USUniquePointer@core@3@A 000000018002b000     plugin_test1.obj
 0003:00002030       ?s_id@?$TObjectUniqueID@UIMultiImage@lib2d@UModSys@@@tl@UModSys@@2USUniquePointer@core@3@A 000000018002b030     plugin_test1.obj
 0003:00002060       ?s_id@?$TObjectUniqueID@URLines_Filter@test1@test@modules@UModSys@@@tl@UModSys@@2USUniquePointer@core@3@A 000000018002b060     plugin_test1.obj
 0003:00002090       ?s_id@?$TObjectUniqueID@UIConsoleHelper@base@UModSys@@@tl@UModSys@@2USUniquePointer@core@3@A 000000018002b090     plugin_test1.obj
 0003:000020c0       ?s_id@?$TObjectUniqueID@UIGenerator@base@UModSys@@@tl@UModSys@@2USUniquePointer@core@3@A 000000018002b0c0     plugin_test1.obj
 0003:000020f0       ?s_id@?$TObjectUniqueID@UIModule@base@UModSys@@@tl@UModSys@@2USUniquePointer@core@3@A 000000018002b0f0     plugin_test1.obj
 0003:00002120       ?s_id@?$TObjectUniqueID@UITerminal@libui@UModSys@@@tl@UModSys@@2USUniquePointer@core@3@A 000000018002b120     plugin_test1.obj
 0003:00002150       ?s_id@?$TObjectUniqueID@UIJoystickController@libui@UModSys@@@tl@UModSys@@2USUniquePointer@core@3@A 000000018002b150     plugin_test1.obj
 0003:00002180       ?s_id@?$TObjectUniqueID@UIDialog@libui@UModSys@@@tl@UModSys@@2USUniquePointer@core@3@A 000000018002b180     plugin_test1.obj
 0003:000021b0       ?s_id@?$TObjectUniqueID@UIRenderDriver@lib2d@UModSys@@@tl@UModSys@@2USUniquePointer@core@3@A 000000018002b1b0     plugin_test1.obj
 0003:000021e0       ?s_id@?$TObjectUniqueID@UIBinArchive@libmedia@UModSys@@@tl@UModSys@@2USUniquePointer@core@3@A 000000018002b1e0     plugin_test1.obj
 0003:00002210       ?s_id@?$TObjectUniqueID@UIRoot@core@UModSys@@@tl@UModSys@@2USUniquePointer@core@3@A 000000018002b210     plugin_test1.obj
 0003:00002240       ?s_id@?$TObjectUniqueID@UILibraryObjCache@libmedia@UModSys@@@tl@UModSys@@2USUniquePointer@core@3@A 000000018002b240     plugin_test1.obj
 0003:00002270       ?s_id@?$TObjectUniqueID@UIStreamWriter@libmedia@UModSys@@@tl@UModSys@@2USUniquePointer@core@3@A 000000018002b270     plugin_test1.obj
 0003:000022a0       ?s_id@?$TObjectUniqueID@UISystem@base@UModSys@@@tl@UModSys@@2USUniquePointer@core@3@A 000000018002b2a0     plugin_test1.obj
 0003:000022d0       ?s_id@?$TObjectUniqueID@URTest1_Shell@test1@test@modules@UModSys@@@tl@UModSys@@2USUniquePointer@core@3@A 000000018002b2d0     plugin_test1.obj
 0003:00002300       ?s_id@?$TObjectUniqueID@UIRefObject@core@UModSys@@@tl@UModSys@@2USUniquePointer@core@3@A 000000018002b300     plugin_test1.obj
 0003:00002330       ?s_id@?$TObjectUniqueID@UILibraryLayered@libmedia@UModSys@@@tl@UModSys@@2USUniquePointer@core@3@A 000000018002b330     plugin_test1.obj
 0003:00002360       ?s_id@?$TObjectUniqueID@UIShell@base@UModSys@@@tl@UModSys@@2USUniquePointer@core@3@A 000000018002b360     plugin_test1.obj
 0003:00002390       ?s_id@?$TObjectUniqueID@URLines@test1@test@modules@UModSys@@@tl@UModSys@@2USUniquePointer@core@3@A 000000018002b390     plugin_test1.obj
 0003:000023c0       ?s_id@?$TObjectUniqueID@UISerializeReader@libmedia@UModSys@@@tl@UModSys@@2USUniquePointer@core@3@A 000000018002b3c0     plugin_test1.obj
 0003:000023f0       ?s_id@?$TObjectUniqueID@UILibraryBinCache@libmedia@UModSys@@@tl@UModSys@@2USUniquePointer@core@3@A 000000018002b3f0     plugin_test1.obj
 0003:00002420       ?s_id@?$TObjectUniqueID@UIConsole@base@UModSys@@@tl@UModSys@@2USUniquePointer@core@3@A 000000018002b420     plugin_test1.obj
 0003:00002450       ?s_id@?$TObjectUniqueID@UIFrame@libui@UModSys@@@tl@UModSys@@2USUniquePointer@core@3@A 000000018002b450     plugin_test1.obj
 0003:00002480       ?s_id@?$TObjectUniqueID@URGenerator@test1@test@modules@UModSys@@@tl@UModSys@@2USUniquePointer@core@3@A 000000018002b480     plugin_test1.obj
 0003:000024b0       ?s_id@?$TObjectUniqueID@UIConsoleHelperInput_UIKey@libui@UModSys@@@tl@UModSys@@2USUniquePointer@core@3@A 000000018002b4b0     plugin_test1.obj
 0003:000024e0       ?s_id@?$TObjectUniqueID@UIConsoleHelperHistory@base@UModSys@@@tl@UModSys@@2USUniquePointer@core@3@A 000000018002b4e0     plugin_test1.obj
 0003:00002510       ?s_id@?$TObjectUniqueID@UIModuleLibrary@base@UModSys@@@tl@UModSys@@2USUniquePointer@core@3@A 000000018002b510     plugin_test1.obj
 0003:00002540       ?s_id@?$TObjectUniqueID@UILibraryObjFilter@libmedia@UModSys@@@tl@UModSys@@2USUniquePointer@core@3@A 000000018002b540     plugin_test1.obj
 0003:00002570       ?s_id@?$TObjectUniqueID@UILibrary@libmedia@UModSys@@@tl@UModSys@@2USUniquePointer@core@3@A 000000018002b570     plugin_test1.obj
 0003:000025a0       ?s_id@?$TObjectUniqueID@UIImage@lib2d@UModSys@@@tl@UModSys@@2USUniquePointer@core@3@A 000000018002b5a0     plugin_test1.obj
 0003:000025d0       ?s_id@?$TObjectUniqueID@UIKeyboardController@libui@UModSys@@@tl@UModSys@@2USUniquePointer@core@3@A 000000018002b5d0     plugin_test1.obj
 0003:00002600       ?s_id@?$TObjectUniqueID@UIStreamReader@libmedia@UModSys@@@tl@UModSys@@2USUniquePointer@core@3@A 000000018002b600     plugin_test1.obj
 0003:00002630       ?s_id@?$TObjectUniqueID@UIParameters@core@UModSys@@@tl@UModSys@@2USUniquePointer@core@3@A 000000018002b630     plugin_test1.obj
 0003:00002660       ?s_id@?$TObjectUniqueID@UIConsoleHelperOutput@base@UModSys@@@tl@UModSys@@2USUniquePointer@core@3@A 000000018002b660     plugin_test1.obj
 0003:00002690       ?s_id@?$TObjectUniqueID@UIConsoleExt@base@UModSys@@@tl@UModSys@@2USUniquePointer@core@3@A 000000018002b690     plugin_test1.obj
 0003:000026c0       ?s_id@?$TObjectUniqueID@UIConsoleHelperInput@base@UModSys@@@tl@UModSys@@2USUniquePointer@core@3@A 000000018002b6c0     plugin_test1.obj
 0003:000026f0       ?s_id@?$TObjectUniqueID@UIAsyncCollector@libui@UModSys@@@tl@UModSys@@2USUniquePointer@core@3@A 000000018002b6f0     plugin_test1.obj
 0003:00002720       ?s_id@?$TObjectUniqueID@UISerializeWriter@libmedia@UModSys@@@tl@UModSys@@2USUniquePointer@core@3@A 000000018002b720     plugin_test1.obj
 0003:00002750       ?s_id@?$TObjectUniqueID@URGenerator@stdlib@lib2d@modules@UModSys@@@tl@UModSys@@2USUniquePointer@core@3@A 000000018002b750     umodsys_lib_lib2d:umodsys.mod.2d.stdlib.obj
 0003:00002780       ?s_id@?$TObjectUniqueID@URImage_Memory@stdlib@lib2d@modules@UModSys@@@tl@UModSys@@2USUniquePointer@core@3@A 000000018002b780     umodsys_lib_lib2d:umodsys.mod.2d.stdlib.obj
 0003:000027b0       ?s_id@?$TObjectUniqueID@URKeyboardController@SDL_core@ui@modules@UModSys@@@tl@UModSys@@2USUniquePointer@core@3@A 000000018002b7b0     umodsys_lib_libui:umodsys.mod.ui.SDL_core.obj
 0003:000027e0       ?s_id@?$TObjectUniqueID@URMouseController@SDL_core@ui@modules@UModSys@@@tl@UModSys@@2USUniquePointer@core@3@A 000000018002b7e0     umodsys_lib_libui:umodsys.mod.ui.SDL_core.obj
 0003:00002810       ?s_id@?$TObjectUniqueID@URGenerator@SDL_core@ui@modules@UModSys@@@tl@UModSys@@2USUniquePointer@core@3@A 000000018002b810     umodsys_lib_libui:umodsys.mod.ui.SDL_core.obj
 0003:00002840       ?s_id@?$TObjectUniqueID@URTerminal@SDL_core@ui@modules@UModSys@@@tl@UModSys@@2USUniquePointer@core@3@A 000000018002b840     umodsys_lib_libui:umodsys.mod.ui.SDL_core.obj
 0003:00002870       ?s_id@?$TObjectUniqueID@URRenderDriver2D@SDL_core@ui@modules@UModSys@@@tl@UModSys@@2USUniquePointer@core@3@A 000000018002b870     umodsys_lib_libui:umodsys.mod.ui.SDL_core.obj
 0003:000028a0       ?s_id@?$TObjectUniqueID@URMultiImage2D_SDL_ttf@SDL_core@ui@modules@UModSys@@@tl@UModSys@@2USUniquePointer@core@3@A 000000018002b8a0     umodsys_lib_libui:umodsys.mod.ui.SDL_core.obj
 0003:000028d0       ?s_id@?$TObjectUniqueID@URFrame_Button@frames@ui@modules@UModSys@@@tl@UModSys@@2USUniquePointer@core@3@A 000000018002b8d0     umodsys_lib_libui:umodsys.mod.ui.frames.obj
 0003:00002900       ?s_id@?$TObjectUniqueID@URFrame_Edit@frames@ui@modules@UModSys@@@tl@UModSys@@2USUniquePointer@core@3@A 000000018002b900     umodsys_lib_libui:umodsys.mod.ui.frames.obj
 0003:00002930       ?s_id@?$TObjectUniqueID@URFrame_Text@frames@ui@modules@UModSys@@@tl@UModSys@@2USUniquePointer@core@3@A 000000018002b930     umodsys_lib_libui:umodsys.mod.ui.frames.obj
 0003:00002960       ?s_id@?$TObjectUniqueID@URFrame_List@frames@ui@modules@UModSys@@@tl@UModSys@@2USUniquePointer@core@3@A 000000018002b960     umodsys_lib_libui:umodsys.mod.ui.frames.obj
 0003:00002990       ?s_id@?$TObjectUniqueID@URFrame_Image@frames@ui@modules@UModSys@@@tl@UModSys@@2USUniquePointer@core@3@A 000000018002b990     umodsys_lib_libui:umodsys.mod.ui.frames.obj
 0003:000029c0       ?s_id@?$TObjectUniqueID@URFrame_Common@frames@ui@modules@UModSys@@@tl@UModSys@@2USUniquePointer@core@3@A 000000018002b9c0     umodsys_lib_libui:umodsys.mod.ui.frames.obj
 0003:000029f0       ?s_id@?$TObjectUniqueID@URCollector@frames@ui@modules@UModSys@@@tl@UModSys@@2USUniquePointer@core@3@A 000000018002b9f0     umodsys_lib_libui:umodsys.mod.ui.frames.obj
 0003:00002a20       ?s_id@?$TObjectUniqueID@URFrame_Frame@frames@ui@modules@UModSys@@@tl@UModSys@@2USUniquePointer@core@3@A 000000018002ba20     umodsys_lib_libui:umodsys.mod.ui.frames.obj
 0003:00002a50       ?s_id@?$TObjectUniqueID@URGenerator@frames@ui@modules@UModSys@@@tl@UModSys@@2USUniquePointer@core@3@A 000000018002ba50     umodsys_lib_libui:umodsys.mod.ui.frames.obj
 0003:00002a80       ?s_id@?$TObjectUniqueID@URDialog@frames@ui@modules@UModSys@@@tl@UModSys@@2USUniquePointer@core@3@A 000000018002ba80     umodsys_lib_libui:umodsys.mod.ui.frames.obj
 0003:00002ab0       ?s_id@?$TObjectUniqueID@URMediaFilter@images_std@media@modules@UModSys@@@tl@UModSys@@2USUniquePointer@core@3@A 000000018002bab0     umodsys_lib_libmedia:umodsys.mod.media.images_std.obj
 0003:00002ae0       ?s_id@?$TObjectUniqueID@URGenerator@images_std@media@modules@UModSys@@@tl@UModSys@@2USUniquePointer@core@3@A 000000018002bae0     umodsys_lib_libmedia:umodsys.mod.media.images_std.obj
 0003:00002b10       ?s_id@?$TObjectUniqueID@URGenerator@serialize_json@media@modules@UModSys@@@tl@UModSys@@2USUniquePointer@core@3@A 000000018002bb10     umodsys_lib_libmedia:umodsys.mod.media.serialize_json.obj
 0003:00002b40       ?s_id@?$TObjectUniqueID@URSerializeReader@serialize_json@media@modules@UModSys@@@tl@UModSys@@2USUniquePointer@core@3@A 000000018002bb40     umodsys_lib_libmedia:umodsys.mod.media.serialize_json.obj
 0003:00002b70       ?s_id@?$TObjectUniqueID@URSerializeWriter@serialize_json@media@modules@UModSys@@@tl@UModSys@@2USUniquePointer@core@3@A 000000018002bb70     umodsys_lib_libmedia:umodsys.mod.media.serialize_json.obj
 0003:00002ba0       __native_startup_state     000000018002bba0     <common>
 0003:00002ba8       __native_startup_lock      000000018002bba8     <common>
 0003:00002bb0       __dyn_tls_init_callback    000000018002bbb0     <common>
 0003:00002bb8       __onexitend                000000018002bbb8     <common>
 0003:00002bc0       __onexitbegin              000000018002bbc0     <common>

 entry point at        0001:0000d500

 Static symbols

 0001:0000d10c       pre_c_init                 000000018000e10c f   MSVCRT:crtdll.obj
 0001:0000d3c8       __DllMainCRTStartup        000000018000e3c8 f   MSVCRT:crtdll.obj
 0001:0000e5e0       ?term_source@images_std@media@modules@UModSys@@YAXPEAUjpeg_decompress_struct@@@Z 000000018000f5e0 f    CIL library: CIL module
 0001:0000e5f0       ?skip_input_data@images_std@media@modules@UModSys@@YAXPEAUjpeg_decompress_struct@@J@Z 000000018000f5f0 f    CIL library: CIL module
 0001:0000e610       ?fill_input_buffer@images_std@media@modules@UModSys@@YAEPEAUjpeg_decompress_struct@@@Z 000000018000f610 f    CIL library: CIL module
 0001:0000e620       ?init_source@images_std@media@modules@UModSys@@YAXPEAUjpeg_decompress_struct@@@Z 000000018000f620 f    CIL library: CIL module
 0001:0000e630       ?error_exit@images_std@media@modules@UModSys@@YAXPEAUjpeg_common_struct@@@Z 000000018000f630 f    CIL library: CIL module
 0001:000169d0       ?refer@@YAXXZ              00000001800179d0 f    CIL library: CIL module
 0001:000187f0       _onexit$fin$0              00000001800197f0 f   MSVCRT:atonexit.obj
 0001:00018809       __DllMainCRTStartup$filt$0 0000000180019809 f   MSVCRT:crtdll.obj
 0001:00018839       __DllMainCRTStartup$fin$1  0000000180019839 f   MSVCRT:crtdll.obj
 0001:00018852       ?filt$0@?0??__ArrayUnwind@@YAXPEAX_KHP6AX0@Z@Z@4HA 0000000180019852 f   MSVCRT:ehvecdtr.obj
 0001:00018891       ?fin$0@?0???_M@YAXPEAX_KHP6AX0@Z@Z@4HA 0000000180019891 f   MSVCRT:ehvecdtr.obj
 0001:000188c0       _IsNonwritableInCurrentImage$filt$0 00000001800198c0 f   MSVCRT:pesect.obj
 0001:000188f0       ?dtor$0@?0???1ICollectorThemeTemplate@libui@UModSys@@QEAA@XZ@4HA 00000001800198f0 f    CIL library: CIL module
 0001:00018910       ?dtor$1@?0???1ICollectorThemeTemplate@libui@UModSys@@QEAA@XZ@4HA 0000000180019910 f    CIL library: CIL module
 0001:00018930       ?dtor$1@?0???1?$TTextStreamWriterBuf@D$0BAAA@@libmedia@UModSys@@QEAA@XZ@4HA 0000000180019930 f    CIL library: CIL module
 0001:00018950       ?dtor$0@?0???1RSerializeWriter@serialize_json@media@modules@UModSys@@UEAA@XZ@4HA 0000000180019950 f    CIL library: CIL module
 0001:00018970       ?dtor$1@?0???1RSerializeWriter@serialize_json@media@modules@UModSys@@UEAA@XZ@4HA 0000000180019970 f    CIL library: CIL module
 0001:00018990       ?dtor$2@?0???1RSerializeWriter@serialize_json@media@modules@UModSys@@UEAA@XZ@4HA 0000000180019990 f    CIL library: CIL module
 0001:000189b0       ?dtor$4@?0???1RSerializeWriter@serialize_json@media@modules@UModSys@@UEAA@XZ@4HA 00000001800199b0 f    CIL library: CIL module
 0001:000189d0       ?dtor$0@?0??dialog_close_all@RCollector@frames@ui@modules@UModSys@@UEAA_NXZ@4HA 00000001800199d0 f    CIL library: CIL module
 0001:000189f0       ?dtor$0@?0??dialog_close@RCollector@frames@ui@modules@UModSys@@UEAA_NXZ@4HA 00000001800199f0 f    CIL library: CIL module
 0001:00018a10       ?dtor$0@?0???0RDialog@frames@ui@modules@UModSys@@QEAA@PEAURCollector@1234@PEAURFrame_Common@1234@@Z@4HA 0000000180019a10 f    CIL library: CIL module
 0001:00018a30       ?dtor$1@?0??dialog_open@RCollector@frames@ui@modules@UModSys@@UEAAPEAUIDialog@libui@5@PEAUIFrame@75@@Z@4HA 0000000180019a30 f    CIL library: CIL module
 0001:00018a50       ?dtor$2@?0??dialog_open@RCollector@frames@ui@modules@UModSys@@UEAAPEAUIDialog@libui@5@PEAUIFrame@75@@Z@4HA 0000000180019a50 f    CIL library: CIL module
 0001:00018a70       ?dtor$0@?0???1RCollector@frames@ui@modules@UModSys@@UEAA@XZ@4HA 0000000180019a70 f    CIL library: CIL module
 0001:00018a90       ?dtor$1@?0???1RCollector@frames@ui@modules@UModSys@@UEAA@XZ@4HA 0000000180019a90 f    CIL library: CIL module
 0001:00018ab0       ?dtor$2@?0???1RCollector@frames@ui@modules@UModSys@@UEAA@XZ@4HA 0000000180019ab0 f    CIL library: CIL module
 0001:00018ad0       ?dtor$3@?0???1RCollector@frames@ui@modules@UModSys@@UEAA@XZ@4HA 0000000180019ad0 f    CIL library: CIL module
 0001:00018af0       ?dtor$4@?0???1RCollector@frames@ui@modules@UModSys@@UEAA@XZ@4HA 0000000180019af0 f    CIL library: CIL module
 0001:00018b10       ?dtor$5@?0???1RCollector@frames@ui@modules@UModSys@@UEAA@XZ@4HA 0000000180019b10 f    CIL library: CIL module
 0001:00018b30       ?dtor$6@?0???1RCollector@frames@ui@modules@UModSys@@UEAA@XZ@4HA 0000000180019b30 f    CIL library: CIL module
 0001:00018b50       ?dtor$7@?0???1RCollector@frames@ui@modules@UModSys@@UEAA@XZ@4HA 0000000180019b50 f    CIL library: CIL module
 0001:00018b80       ?dtor$0@?0???1RDialog@frames@ui@modules@UModSys@@UEAA@XZ@4HA 0000000180019b80 f    CIL library: CIL module
 0001:00018ba0       ?dtor$1@?0???1RDialog@frames@ui@modules@UModSys@@UEAA@XZ@4HA 0000000180019ba0 f    CIL library: CIL module
 0001:00018bd0       ?dtor$0@?0???1RFrame_Common@frames@ui@modules@UModSys@@UEAA@XZ@4HA 0000000180019bd0 f    CIL library: CIL module
 0001:00018bf0       ?dtor$1@?0???1RFrame_Common@frames@ui@modules@UModSys@@UEAA@XZ@4HA 0000000180019bf0 f    CIL library: CIL module
 0001:00018c10       ?dtor$2@?0???1RFrame_Common@frames@ui@modules@UModSys@@UEAA@XZ@4HA 0000000180019c10 f    CIL library: CIL module
 0001:00018c30       ?dtor$3@?0???1RFrame_Common@frames@ui@modules@UModSys@@UEAA@XZ@4HA 0000000180019c30 f    CIL library: CIL module
 0001:00018c50       ?dtor$6@?0???1RFrame_Common@frames@ui@modules@UModSys@@UEAA@XZ@4HA 0000000180019c50 f    CIL library: CIL module
 0001:00018c70       ?dtor$0@?0??saver_png@RMediaFilter@images_std@media@modules@UModSys@@QEAA_NPEBUIImage@lib2d@5@AEAUSInfo@IBinObjFilter@libmedia@5@AEBUSParameters@core@5@PEBD_N@Z@4HA 0000000180019c70 f    CIL library: CIL module
 0001:00018c90       ?dtor$1@?0??saver_png@RMediaFilter@images_std@media@modules@UModSys@@QEAA_NPEBUIImage@lib2d@5@AEAUSInfo@IBinObjFilter@libmedia@5@AEBUSParameters@core@5@PEBD_N@Z@4HA 0000000180019c90 f    CIL library: CIL module
 0001:00018cb0       ?dtor$0@?0???0RCollector@frames@ui@modules@UModSys@@QEAA@PEAUIModObject@base@4@AEBUSParameters@core@4@@Z@4HA 0000000180019cb0 f    CIL library: CIL module
 0001:00018cd0       ?dtor$1@?0???0RCollector@frames@ui@modules@UModSys@@QEAA@PEAUIModObject@base@4@AEBUSParameters@core@4@@Z@4HA 0000000180019cd0 f    CIL library: CIL module
 0001:00018cf0       ?dtor$2@?0???0RCollector@frames@ui@modules@UModSys@@QEAA@PEAUIModObject@base@4@AEBUSParameters@core@4@@Z@4HA 0000000180019cf0 f    CIL library: CIL module
 0001:00018d20       ?dtor$3@?0???0RCollector@frames@ui@modules@UModSys@@QEAA@PEAUIModObject@base@4@AEBUSParameters@core@4@@Z@4HA 0000000180019d20 f    CIL library: CIL module
 0001:00018d50       ?dtor$4@?0???0RCollector@frames@ui@modules@UModSys@@QEAA@PEAUIModObject@base@4@AEBUSParameters@core@4@@Z@4HA 0000000180019d50 f    CIL library: CIL module
 0001:00018d80       ?dtor$5@?0???0RCollector@frames@ui@modules@UModSys@@QEAA@PEAUIModObject@base@4@AEBUSParameters@core@4@@Z@4HA 0000000180019d80 f    CIL library: CIL module
 0001:00018db0       ?dtor$6@?0???0RCollector@frames@ui@modules@UModSys@@QEAA@PEAUIModObject@base@4@AEBUSParameters@core@4@@Z@4HA 0000000180019db0 f    CIL library: CIL module
 0001:00018de0       ?dtor$7@?0???0RCollector@frames@ui@modules@UModSys@@QEAA@PEAUIModObject@base@4@AEBUSParameters@core@4@@Z@4HA 0000000180019de0 f    CIL library: CIL module
 0001:00018e10       ?dtor$8@?0???0RCollector@frames@ui@modules@UModSys@@QEAA@PEAUIModObject@base@4@AEBUSParameters@core@4@@Z@4HA 0000000180019e10 f    CIL library: CIL module
 0001:00018e40       ?dtor$9@?0???0RCollector@frames@ui@modules@UModSys@@QEAA@PEAUIModObject@base@4@AEBUSParameters@core@4@@Z@4HA 0000000180019e40 f    CIL library: CIL module
 0001:00018e70       ?dtor$0@?0??master_key_pressed@RCollector@frames@ui@modules@UModSys@@IEAA_NAEBUSKeyboardInputRaw@libui@5@@Z@4HA 0000000180019e70 f    CIL library: CIL module
 0001:00018ea0       ?dtor$0@?0???1RFrame_Edit@frames@ui@modules@UModSys@@UEAA@XZ@4HA 0000000180019ea0 f    CIL library: CIL module
 0001:00018ec0       ?dtor$1@?0???1RFrame_Edit@frames@ui@modules@UModSys@@UEAA@XZ@4HA 0000000180019ec0 f    CIL library: CIL module
 0001:00018ef0       ?dtor$0@?0??set_buf@RFrame_Edit@frames@ui@modules@UModSys@@IEAA_NPEBDH@Z@4HA 0000000180019ef0 f    CIL library: CIL module
 0001:00018f10       ?dtor$0@?0???1RFrame_Button@frames@ui@modules@UModSys@@UEAA@XZ@4HA 0000000180019f10 f    CIL library: CIL module
 0001:00018f30       ?dtor$0@?0???1RFrame_Image@frames@ui@modules@UModSys@@UEAA@XZ@4HA 0000000180019f30 f    CIL library: CIL module
 0001:00018f50       ?dtor$0@?0???1RFrame_Text@frames@ui@modules@UModSys@@UEAA@XZ@4HA 0000000180019f50 f    CIL library: CIL module
 0001:00018f70       ?dtor$0@?0???0RFrame_Common@frames@ui@modules@UModSys@@QEAA@PEAURCollector@1234@PEAU01234@@Z@4HA 0000000180019f70 f    CIL library: CIL module
 0001:00018f90       ?dtor$1@?0???0RFrame_Common@frames@ui@modules@UModSys@@QEAA@PEAURCollector@1234@PEAU01234@@Z@4HA 0000000180019f90 f    CIL library: CIL module
 0001:00018fc0       ?dtor$0@?0??new_font@RRenderDriver2D@SDL_core@ui@modules@UModSys@@UEAA?AU?$TRefObject@UIMultiImage@lib2d@UModSys@@U?$TRefObjectFunc@UIMultiImage@lib2d@UModSys@@@tl@3@@tl@5@AEBUSParameters@core@5@AEBU?$TString@U?$TSCoreConst@D@su@tl@UModSys@@U?$TComparerBinaryHash@D@234@@75@@Z@4HA 0000000180019fc0 f    CIL library: CIL module
 0001:00018fe0       ?dtor$1@?0??new_font@RRenderDriver2D@SDL_core@ui@modules@UModSys@@UEAA?AU?$TRefObject@UIMultiImage@lib2d@UModSys@@U?$TRefObjectFunc@UIMultiImage@lib2d@UModSys@@@tl@3@@tl@5@AEBUSParameters@core@5@AEBU?$TString@U?$TSCoreConst@D@su@tl@UModSys@@U?$TComparerBinaryHash@D@234@@75@@Z@4HA 0000000180019fe0 f    CIL library: CIL module
 0001:00019000       ?dtor$2@?0??new_font@RRenderDriver2D@SDL_core@ui@modules@UModSys@@UEAA?AU?$TRefObject@UIMultiImage@lib2d@UModSys@@U?$TRefObjectFunc@UIMultiImage@lib2d@UModSys@@@tl@3@@tl@5@AEBUSParameters@core@5@AEBU?$TString@U?$TSCoreConst@D@su@tl@UModSys@@U?$TComparerBinaryHash@D@234@@75@@Z@4HA 000000018001a000 f    CIL library: CIL module
 0001:00019030       ?dtor$0@?0??loader_png@RMediaFilter@images_std@media@modules@UModSys@@QEAA_NPEAUIImage@lib2d@5@AEBUSInfo@IBinObjFilter@libmedia@5@AEBUSParameters@core@5@HPEBD_N@Z@4HA 000000018001a030 f    CIL library: CIL module
 0001:00019060       ?dtor$0@?0??loader_jpeg@RMediaFilter@images_std@media@modules@UModSys@@QEAA_NPEAUIImage@lib2d@5@AEBUSInfo@IBinObjFilter@libmedia@5@AEBUSParameters@core@5@HPEBD_N@Z@4HA 000000018001a060 f    CIL library: CIL module
 0001:00019080       ?dtor$0@?0???0RFrame_Edit@frames@ui@modules@UModSys@@QEAA@PEAURCollector@1234@PEAURFrame_Common@1234@@Z@4HA 000000018001a080 f    CIL library: CIL module
 0001:000190a0       ?dtor$0@?0???0RFrame_Button@frames@ui@modules@UModSys@@QEAA@PEAURCollector@1234@PEAURFrame_Common@1234@@Z@4HA 000000018001a0a0 f    CIL library: CIL module
 0001:000190c0       ?dtor$0@?0???0RFrame_Image@frames@ui@modules@UModSys@@QEAA@PEAURCollector@1234@PEAURFrame_Common@1234@@Z@4HA 000000018001a0c0 f    CIL library: CIL module
 0001:000190e0       ?dtor$0@?0???0RFrame_Text@frames@ui@modules@UModSys@@QEAA@PEAURCollector@1234@PEAURFrame_Common@1234@@Z@4HA 000000018001a0e0 f    CIL library: CIL module
 0001:00019100       ?dtor$0@?0???0RFrame_Frame@frames@ui@modules@UModSys@@QEAA@PEAURCollector@1234@PEAURFrame_Common@1234@@Z@4HA 000000018001a100 f    CIL library: CIL module
 0001:00019120       ?dtor$0@?0??media_cache@RTest1_Shell@test1@test@modules@UModSys@@QEAA?AU?$TRefObject@UILibrary@libmedia@UModSys@@U?$TRefObjectFunc@UILibrary@libmedia@UModSys@@@tl@3@@tl@5@_N@Z@4HA 000000018001a120 f    CIL library: CIL module
 0001:00019140       ?dtor$1@?0??media_cache@RTest1_Shell@test1@test@modules@UModSys@@QEAA?AU?$TRefObject@UILibrary@libmedia@UModSys@@U?$TRefObjectFunc@UILibrary@libmedia@UModSys@@@tl@3@@tl@5@_N@Z@4HA 000000018001a140 f    CIL library: CIL module
 0001:00019160       ?dtor$2@?0??media_cache@RTest1_Shell@test1@test@modules@UModSys@@QEAA?AU?$TRefObject@UILibrary@libmedia@UModSys@@U?$TRefObjectFunc@UILibrary@libmedia@UModSys@@@tl@3@@tl@5@_N@Z@4HA 000000018001a160 f    CIL library: CIL module
 0001:00019190       ?dtor$3@?0??media_cache@RTest1_Shell@test1@test@modules@UModSys@@QEAA?AU?$TRefObject@UILibrary@libmedia@UModSys@@U?$TRefObjectFunc@UILibrary@libmedia@UModSys@@@tl@3@@tl@5@_N@Z@4HA 000000018001a190 f    CIL library: CIL module
 0001:000191c0       ?dtor$0@?0??media_lay@RTest1_Shell@test1@test@modules@UModSys@@QEAA?AU?$TRefObject@UILibraryLayered@libmedia@UModSys@@U?$TRefObjectFunc@UILibraryLayered@libmedia@UModSys@@@tl@3@@tl@5@XZ@4HA 000000018001a1c0 f    CIL library: CIL module
 0001:000191e0       ?dtor$1@?0??media_lay@RTest1_Shell@test1@test@modules@UModSys@@QEAA?AU?$TRefObject@UILibraryLayered@libmedia@UModSys@@U?$TRefObjectFunc@UILibraryLayered@libmedia@UModSys@@@tl@3@@tl@5@XZ@4HA 000000018001a1e0 f    CIL library: CIL module
 0001:00019220       ?dtor$0@?0??media_flt@RTest1_Shell@test1@test@modules@UModSys@@QEAA?AU?$TRefObject@UILibraryObjFilter@libmedia@UModSys@@U?$TRefObjectFunc@UILibraryObjFilter@libmedia@UModSys@@@tl@3@@tl@5@XZ@4HA 000000018001a220 f    CIL library: CIL module
 0001:00019240       ?dtor$1@?0??media_flt@RTest1_Shell@test1@test@modules@UModSys@@QEAA?AU?$TRefObject@UILibraryObjFilter@libmedia@UModSys@@U?$TRefObjectFunc@UILibraryObjFilter@libmedia@UModSys@@@tl@3@@tl@5@XZ@4HA 000000018001a240 f    CIL library: CIL module
 0001:00019280       ?dtor$0@?0??media_vfs@RTest1_Shell@test1@test@modules@UModSys@@QEAA?AU?$TRefObject@UILibraryBinTree@libmedia@UModSys@@U?$TRefObjectFunc@UILibraryBinTree@libmedia@UModSys@@@tl@3@@tl@5@XZ@4HA 000000018001a280 f    CIL library: CIL module
 0001:000192a0       ?dtor$1@?0??media_vfs@RTest1_Shell@test1@test@modules@UModSys@@QEAA?AU?$TRefObject@UILibraryBinTree@libmedia@UModSys@@U?$TRefObjectFunc@UILibraryBinTree@libmedia@UModSys@@@tl@3@@tl@5@XZ@4HA 000000018001a2a0 f    CIL library: CIL module
 0001:000192e0       ?dtor$0@?0??media_filter_new@RTest1_Shell@test1@test@modules@UModSys@@QEAA?AU?$TRefObject@UIBinObjFilter@libmedia@UModSys@@U?$TRefObjectFunc@UIBinObjFilter@libmedia@UModSys@@@tl@3@@tl@5@AEBU?$TString@U?$TSCoreConst@D@su@tl@UModSys@@U?$TComparerBinaryHash@D@234@@75@AEBUSParameters@core@5@@Z@4HA 000000018001a2e0 f    CIL library: CIL module
 0001:00019300       ?dtor$1@?0??media_filter_new@RTest1_Shell@test1@test@modules@UModSys@@QEAA?AU?$TRefObject@UIBinObjFilter@libmedia@UModSys@@U?$TRefObjectFunc@UIBinObjFilter@libmedia@UModSys@@@tl@3@@tl@5@AEBU?$TString@U?$TSCoreConst@D@su@tl@UModSys@@U?$TComparerBinaryHash@D@234@@75@AEBUSParameters@core@5@@Z@4HA 000000018001a300 f    CIL library: CIL module
 0001:00019330       ?dtor$0@?0??media_arch_stdio@RTest1_Shell@test1@test@modules@UModSys@@QEAA?AU?$TRefObject@UIBinArchive@libmedia@UModSys@@U?$TRefObjectFunc@UIBinArchive@libmedia@UModSys@@@tl@3@@tl@5@AEBU?$TString@U?$TSCoreConst@D@su@tl@UModSys@@U?$TComparerBinaryHash@D@234@@75@@Z@4HA 000000018001a330 f    CIL library: CIL module
 0001:00019350       ?dtor$1@?0??media_arch_stdio@RTest1_Shell@test1@test@modules@UModSys@@QEAA?AU?$TRefObject@UIBinArchive@libmedia@UModSys@@U?$TRefObjectFunc@UIBinArchive@libmedia@UModSys@@@tl@3@@tl@5@AEBU?$TString@U?$TSCoreConst@D@su@tl@UModSys@@U?$TComparerBinaryHash@D@234@@75@@Z@4HA 000000018001a350 f    CIL library: CIL module
 0001:00019390       ?dtor$0@?0??new_mem_image@RTest1_Shell@test1@test@modules@UModSys@@QEAA?AU?$TRefObject@UIImage@lib2d@UModSys@@U?$TRefObjectFunc@UIImage@lib2d@UModSys@@@tl@3@@tl@5@XZ@4HA 000000018001a390 f    CIL library: CIL module
 0001:000193b0       ?dtor$1@?0??new_mem_image@RTest1_Shell@test1@test@modules@UModSys@@QEAA?AU?$TRefObject@UIImage@lib2d@UModSys@@U?$TRefObjectFunc@UIImage@lib2d@UModSys@@@tl@3@@tl@5@XZ@4HA 000000018001a3b0 f    CIL library: CIL module
 0001:000193f0       ?dtor$0@?0???0RFrame_List@frames@ui@modules@UModSys@@QEAA@PEAURCollector@1234@PEAURFrame_Common@1234@@Z@4HA 000000018001a3f0 f    CIL library: CIL module
 0001:00019410       ?dtor$0@?0??file_test6@RTest1_Shell@test1@test@modules@UModSys@@QEAAXXZ@4HA 000000018001a410 f    CIL library: CIL module
 0001:00019430       ?dtor$1@?0??file_test6@RTest1_Shell@test1@test@modules@UModSys@@QEAAXXZ@4HA 000000018001a430 f    CIL library: CIL module
 0001:00019450       ?dtor$2@?0??file_test6@RTest1_Shell@test1@test@modules@UModSys@@QEAAXXZ@4HA 000000018001a450 f    CIL library: CIL module
 0001:00019470       ?dtor$3@?0??file_test6@RTest1_Shell@test1@test@modules@UModSys@@QEAAXXZ@4HA 000000018001a470 f    CIL library: CIL module
 0001:00019490       ?dtor$23@?0??file_test6@RTest1_Shell@test1@test@modules@UModSys@@QEAAXXZ@4HA 000000018001a490 f    CIL library: CIL module
 0001:000194b0       ?dtor$4@?0??file_test6@RTest1_Shell@test1@test@modules@UModSys@@QEAAXXZ@4HA 000000018001a4b0 f    CIL library: CIL module
 0001:000194d0       ?dtor$5@?0??file_test6@RTest1_Shell@test1@test@modules@UModSys@@QEAAXXZ@4HA 000000018001a4d0 f    CIL library: CIL module
 0001:000194f0       ?dtor$6@?0??file_test6@RTest1_Shell@test1@test@modules@UModSys@@QEAAXXZ@4HA 000000018001a4f0 f    CIL library: CIL module
 0001:00019510       ?dtor$8@?0??file_test6@RTest1_Shell@test1@test@modules@UModSys@@QEAAXXZ@4HA 000000018001a510 f    CIL library: CIL module
 0001:00019530       ?dtor$9@?0??file_test6@RTest1_Shell@test1@test@modules@UModSys@@QEAAXXZ@4HA 000000018001a530 f    CIL library: CIL module
 0001:00019550       ?dtor$10@?0??file_test6@RTest1_Shell@test1@test@modules@UModSys@@QEAAXXZ@4HA 000000018001a550 f    CIL library: CIL module
 0001:00019570       ?dtor$11@?0??file_test6@RTest1_Shell@test1@test@modules@UModSys@@QEAAXXZ@4HA 000000018001a570 f    CIL library: CIL module
 0001:00019590       ?dtor$12@?0??file_test6@RTest1_Shell@test1@test@modules@UModSys@@QEAAXXZ@4HA 000000018001a590 f    CIL library: CIL module
 0001:000195b0       ?dtor$13@?0??file_test6@RTest1_Shell@test1@test@modules@UModSys@@QEAAXXZ@4HA 000000018001a5b0 f    CIL library: CIL module
 0001:000195d0       ?dtor$14@?0??file_test6@RTest1_Shell@test1@test@modules@UModSys@@QEAAXXZ@4HA 000000018001a5d0 f    CIL library: CIL module
 0001:000195f0       ?dtor$15@?0??file_test6@RTest1_Shell@test1@test@modules@UModSys@@QEAAXXZ@4HA 000000018001a5f0 f    CIL library: CIL module
 0001:00019610       ?dtor$16@?0??file_test6@RTest1_Shell@test1@test@modules@UModSys@@QEAAXXZ@4HA 000000018001a610 f    CIL library: CIL module
 0001:00019630       ?dtor$17@?0??file_test6@RTest1_Shell@test1@test@modules@UModSys@@QEAAXXZ@4HA 000000018001a630 f    CIL library: CIL module
 0001:00019650       ?dtor$18@?0??file_test6@RTest1_Shell@test1@test@modules@UModSys@@QEAAXXZ@4HA 000000018001a650 f    CIL library: CIL module
 0001:00019670       ?dtor$19@?0??file_test6@RTest1_Shell@test1@test@modules@UModSys@@QEAAXXZ@4HA 000000018001a670 f    CIL library: CIL module
 0001:00019690       ?dtor$20@?0??file_test6@RTest1_Shell@test1@test@modules@UModSys@@QEAAXXZ@4HA 000000018001a690 f    CIL library: CIL module
 0001:000196b0       ?dtor$21@?0??file_test6@RTest1_Shell@test1@test@modules@UModSys@@QEAAXXZ@4HA 000000018001a6b0 f    CIL library: CIL module
 0001:000196d0       ?dtor$22@?0??file_test6@RTest1_Shell@test1@test@modules@UModSys@@QEAAXXZ@4HA 000000018001a6d0 f    CIL library: CIL module
 0001:00019700       ?dtor$0@?0??frame_create_s@RCollector@frames@ui@modules@UModSys@@UEAAPEAUIFrame@libui@5@AEBU?$TString@U?$TSCoreConst@D@su@tl@UModSys@@U?$TComparerBinaryHash@D@234@@tl@5@AEBUSFrameCreateParameters@75@PEBUSParameters@core@5@@Z@4HA 000000018001a700 f    CIL library: CIL module
 0001:00019720       ?dtor$1@?0??frame_create_s@RCollector@frames@ui@modules@UModSys@@UEAAPEAUIFrame@libui@5@AEBU?$TString@U?$TSCoreConst@D@su@tl@UModSys@@U?$TComparerBinaryHash@D@234@@tl@5@AEBUSFrameCreateParameters@75@PEBUSParameters@core@5@@Z@4HA 000000018001a720 f    CIL library: CIL module
 0001:00019740       ?dtor$2@?0??frame_create_s@RCollector@frames@ui@modules@UModSys@@UEAAPEAUIFrame@libui@5@AEBU?$TString@U?$TSCoreConst@D@su@tl@UModSys@@U?$TComparerBinaryHash@D@234@@tl@5@AEBUSFrameCreateParameters@75@PEBUSParameters@core@5@@Z@4HA 000000018001a740 f    CIL library: CIL module
 0001:00019760       ?dtor$3@?0??frame_create_s@RCollector@frames@ui@modules@UModSys@@UEAAPEAUIFrame@libui@5@AEBU?$TString@U?$TSCoreConst@D@su@tl@UModSys@@U?$TComparerBinaryHash@D@234@@tl@5@AEBUSFrameCreateParameters@75@PEBUSParameters@core@5@@Z@4HA 000000018001a760 f    CIL library: CIL module
 0001:00019780       ?dtor$4@?0??frame_create_s@RCollector@frames@ui@modules@UModSys@@UEAAPEAUIFrame@libui@5@AEBU?$TString@U?$TSCoreConst@D@su@tl@UModSys@@U?$TComparerBinaryHash@D@234@@tl@5@AEBUSFrameCreateParameters@75@PEBUSParameters@core@5@@Z@4HA 000000018001a780 f    CIL library: CIL module
 0001:000197a0       ?dtor$5@?0??frame_create_s@RCollector@frames@ui@modules@UModSys@@UEAAPEAUIFrame@libui@5@AEBU?$TString@U?$TSCoreConst@D@su@tl@UModSys@@U?$TComparerBinaryHash@D@234@@tl@5@AEBUSFrameCreateParameters@75@PEBUSParameters@core@5@@Z@4HA 000000018001a7a0 f    CIL library: CIL module
 0001:000197c0       ?dtor$6@?0??frame_create_s@RCollector@frames@ui@modules@UModSys@@UEAAPEAUIFrame@libui@5@AEBU?$TString@U?$TSCoreConst@D@su@tl@UModSys@@U?$TComparerBinaryHash@D@234@@tl@5@AEBUSFrameCreateParameters@75@PEBUSParameters@core@5@@Z@4HA 000000018001a7c0 f    CIL library: CIL module
 0001:000197e0       ?dtor$0@?0??frame_create_n@RCollector@frames@ui@modules@UModSys@@UEAAPEAUIFrame@libui@5@HAEBUSFrameCreateParameters@75@PEBUSParameters@core@5@@Z@4HA 000000018001a7e0 f    CIL library: CIL module
 0001:00019800       ?dtor$1@?0??frame_create_n@RCollector@frames@ui@modules@UModSys@@UEAAPEAUIFrame@libui@5@HAEBUSFrameCreateParameters@75@PEBUSParameters@core@5@@Z@4HA 000000018001a800 f    CIL library: CIL module
 0001:00019820       ?dtor$2@?0??frame_create_n@RCollector@frames@ui@modules@UModSys@@UEAAPEAUIFrame@libui@5@HAEBUSFrameCreateParameters@75@PEBUSParameters@core@5@@Z@4HA 000000018001a820 f    CIL library: CIL module
 0001:00019840       ?dtor$3@?0??frame_create_n@RCollector@frames@ui@modules@UModSys@@UEAAPEAUIFrame@libui@5@HAEBUSFrameCreateParameters@75@PEBUSParameters@core@5@@Z@4HA 000000018001a840 f    CIL library: CIL module
 0001:00019860       ?dtor$4@?0??frame_create_n@RCollector@frames@ui@modules@UModSys@@UEAAPEAUIFrame@libui@5@HAEBUSFrameCreateParameters@75@PEBUSParameters@core@5@@Z@4HA 000000018001a860 f    CIL library: CIL module
 0001:00019880       ?dtor$5@?0??frame_create_n@RCollector@frames@ui@modules@UModSys@@UEAAPEAUIFrame@libui@5@HAEBUSFrameCreateParameters@75@PEBUSParameters@core@5@@Z@4HA 000000018001a880 f    CIL library: CIL module
 0001:000198a0       ?dtor$6@?0??frame_create_n@RCollector@frames@ui@modules@UModSys@@UEAAPEAUIFrame@libui@5@HAEBUSFrameCreateParameters@75@PEBUSParameters@core@5@@Z@4HA 000000018001a8a0 f    CIL library: CIL module
 0001:000198c0       ?dtor$0@?0???$t_generate@UILibraryBinCache@libmedia@UModSys@@@SModuleContext@base@UModSys@@QEAA_NAEAU?$TRefObject@UILibraryBinCache@libmedia@UModSys@@U?$TRefObjectFunc@UILibraryBinCache@libmedia@UModSys@@@tl@3@@tl@2@PEBUSUniquePointerInfo@core@2@AEBUSParameters@62@@Z@4HA 000000018001a8c0 f    CIL library: CIL module
 0001:000198c0       ?dtor$0@?0???$t_generate@UILibraryObjCache@libmedia@UModSys@@@SModuleContext@base@UModSys@@QEAA_NAEAU?$TRefObject@UILibraryObjCache@libmedia@UModSys@@U?$TRefObjectFunc@UILibraryObjCache@libmedia@UModSys@@@tl@3@@tl@2@PEBUSUniquePointerInfo@core@2@AEBUSParameters@62@@Z@4HA 000000018001a8c0 f    CIL library: CIL module
 0001:000198c0       ?dtor$0@?0???$t_generate@UISerializeReader@libmedia@UModSys@@@SModuleContext@base@UModSys@@QEAA_NAEAU?$TRefObject@UISerializeReader@libmedia@UModSys@@U?$TRefObjectFunc@UISerializeReader@libmedia@UModSys@@@tl@3@@tl@2@PEBUSUniquePointerInfo@core@2@AEBUSParameters@62@@Z@4HA 000000018001a8c0 f    CIL library: CIL module
 0001:000198c0       ?dtor$0@?0???$t_generate@UILibraryObjFilter@libmedia@UModSys@@@SModuleContext@base@UModSys@@QEAA_NAEAU?$TRefObject@UILibraryObjFilter@libmedia@UModSys@@U?$TRefObjectFunc@UILibraryObjFilter@libmedia@UModSys@@@tl@3@@tl@2@PEBUSUniquePointerInfo@core@2@AEBUSParameters@62@@Z@4HA 000000018001a8c0 f    CIL library: CIL module
 0001:000198c0       ?dtor$0@?0???$t_generate@UILibraryBinTree@libmedia@UModSys@@@SModuleContext@base@UModSys@@QEAA_NAEAU?$TRefObject@UILibraryBinTree@libmedia@UModSys@@U?$TRefObjectFunc@UILibraryBinTree@libmedia@UModSys@@@tl@3@@tl@2@PEBUSUniquePointerInfo@core@2@AEBUSParameters@62@@Z@4HA 000000018001a8c0 f    CIL library: CIL module
 0001:000198c0       ?dtor$0@?0???$t_generate@UIBinObjFilter@libmedia@UModSys@@@SModuleContext@base@UModSys@@QEAA_NAEAU?$TRefObject@UIBinObjFilter@libmedia@UModSys@@U?$TRefObjectFunc@UIBinObjFilter@libmedia@UModSys@@@tl@3@@tl@2@PEBUSUniquePointerInfo@core@2@AEBUSParameters@62@@Z@4HA 000000018001a8c0 f    CIL library: CIL module
 0001:000198c0       ?dtor$0@?0???$t_generate@UILibraryLayered@libmedia@UModSys@@@SModuleContext@base@UModSys@@QEAA_NAEAU?$TRefObject@UILibraryLayered@libmedia@UModSys@@U?$TRefObjectFunc@UILibraryLayered@libmedia@UModSys@@@tl@3@@tl@2@PEBUSUniquePointerInfo@core@2@AEBUSParameters@62@@Z@4HA 000000018001a8c0 f    CIL library: CIL module
 0001:000198c0       ?dtor$0@?0???$t_generate@UISerializeWriter@libmedia@UModSys@@@SModuleContext@base@UModSys@@QEAA_NAEAU?$TRefObject@UISerializeWriter@libmedia@UModSys@@U?$TRefObjectFunc@UISerializeWriter@libmedia@UModSys@@@tl@3@@tl@2@PEBUSUniquePointerInfo@core@2@AEBUSParameters@62@@Z@4HA 000000018001a8c0 f    CIL library: CIL module
 0001:000198c0       ?dtor$0@?0??suicide@RFrame_List@frames@ui@modules@UModSys@@UEAAXXZ@4HA 000000018001a8c0 f    CIL library: CIL module
 0001:000198c0       ?dtor$0@?0???$t_generate@UIBinArchive@libmedia@UModSys@@@SModuleContext@base@UModSys@@QEAA_NAEAU?$TRefObject@UIBinArchive@libmedia@UModSys@@U?$TRefObjectFunc@UIBinArchive@libmedia@UModSys@@@tl@3@@tl@2@PEBUSUniquePointerInfo@core@2@AEBUSParameters@62@@Z@4HA 000000018001a8c0 f    CIL library: CIL module
 0001:000198c0       ?dtor$0@?0??suicide@RMultiImage2D_SDL_ttf@SDL_core@ui@modules@UModSys@@UEAAXXZ@4HA 000000018001a8c0 f    CIL library: CIL module
 0001:000198c0       ?dtor$0@?0??suicide@RRenderDriver2D@SDL_core@ui@modules@UModSys@@UEAAXXZ@4HA 000000018001a8c0 f    CIL library: CIL module
 0001:000198c0       ?dtor$0@?0??suicide@RFrame_Edit@frames@ui@modules@UModSys@@UEAAXXZ@4HA 000000018001a8c0 f    CIL library: CIL module
 0001:000198c0       ?dtor$0@?0??suicide@RFrame_Button@frames@ui@modules@UModSys@@UEAAXXZ@4HA 000000018001a8c0 f    CIL library: CIL module
 0001:000198c0       ?dtor$0@?0??suicide@RMouseController@SDL_core@ui@modules@UModSys@@UEAAXXZ@4HA 000000018001a8c0 f    CIL library: CIL module
 0001:000198c0       ?dtor$0@?0??suicide@RKeyboardController@SDL_core@ui@modules@UModSys@@UEAAXXZ@4HA 000000018001a8c0 f    CIL library: CIL module
 0001:000198c0       ?dtor$0@?0??suicide@RFrame_Image@frames@ui@modules@UModSys@@UEAAXXZ@4HA 000000018001a8c0 f    CIL library: CIL module
 0001:000198c0       ?dtor$0@?0??suicide@RFrame_Frame@frames@ui@modules@UModSys@@UEAAXXZ@4HA 000000018001a8c0 f    CIL library: CIL module
 0001:000198c0       ?dtor$0@?0??suicide@RDialog@frames@ui@modules@UModSys@@UEAAXXZ@4HA 000000018001a8c0 f    CIL library: CIL module
 0001:000198c0       ?dtor$0@?0??suicide@RFrame_Text@frames@ui@modules@UModSys@@UEAAXXZ@4HA 000000018001a8c0 f    CIL library: CIL module
 0001:000198e0       ?dtor$0@?0???1?$TRefObjectCompositeExtra@UIMouseClient@libui@UModSys@@HUIRefObject@core@3@U?$TRefObjectFunc@UIRefObject@core@UModSys@@@tl@3@@tl@UModSys@@QEAA@XZ@4HA 000000018001a8e0 f    CIL library: CIL module
 0001:000198e0       ?dtor$0@?0???1?$TRefObjectComposite@UIKeyboardClient@libui@UModSys@@UIRefObject@core@3@U?$TRefObjectFunc@UIRefObject@core@UModSys@@@tl@3@@tl@UModSys@@QEAA@XZ@4HA 000000018001a8e0 f    CIL library: CIL module
 0001:000198e0       ?dtor$1@?0???1?$TPair@HU?$TRefObjectCompositeExtra@UIMouseClient@libui@UModSys@@HUIRefObject@core@3@U?$TRefObjectFunc@UIRefObject@core@UModSys@@@tl@3@@tl@UModSys@@@tl@UModSys@@QEAA@XZ@4HA 000000018001a8e0 f    CIL library: CIL module
 0001:000198e0       ?dtor$1@?0???1SController@libui@UModSys@@QEAA@XZ@4HA 000000018001a8e0 f    CIL library: CIL module
 0001:000198e0       ?dtor$1@?0???1?$TPair@HU?$TRefObjectComposite@UIKeyboardClient@libui@UModSys@@UIRefObject@core@3@U?$TRefObjectFunc@UIRefObject@core@UModSys@@@tl@3@@tl@UModSys@@@tl@UModSys@@QEAA@XZ@4HA 000000018001a8e0 f    CIL library: CIL module
 0001:00019900       ?dtor$0@?0???$ValidateConstruction@UIRefObject@core@UModSys@@URRenderDriver2D@SDL_core@ui@modules@3@@core@UModSys@@YA_NAEAU?$TRefObject@UIRefObject@core@UModSys@@U?$TRefObjectFunc@UIRefObject@core@UModSys@@@tl@3@@tl@1@U?$TRefObject@URRenderDriver2D@SDL_core@ui@modules@UModSys@@U?$TRefObjectFunc@URRenderDriver2D@SDL_core@ui@modules@UModSys@@@tl@5@@31@@Z@4HA 000000018001a900 f    CIL library: CIL module
 0001:00019900       ?dtor$2@?0???R?$TNodeDeleter0@U?$TScatterArrayNode@U?$TRefObjectComposite@UIKeyboardClient@libui@UModSys@@UIRefObject@core@3@U?$TRefObjectFunc@UIRefObject@core@UModSys@@@tl@3@@tl@UModSys@@H@tl@UModSys@@@tl@UModSys@@QEBAHPEAU?$TScatterArrayNode@U?$TRefObjectComposite@UIKeyboardClient@libui@UModSys@@UIRefObject@core@3@U?$TRefObjectFunc@UIRefObject@core@UModSys@@@tl@3@@tl@UModSys@@H@12@@Z@4HA 000000018001a900 f    CIL library: CIL module
 0001:00019900       ?dtor$2@?0???R?$TNodeDeleter0@U?$TScatterArrayNode@U?$TRefObjectCompositeExtra@UIMouseClient@libui@UModSys@@HUIRefObject@core@3@U?$TRefObjectFunc@UIRefObject@core@UModSys@@@tl@3@@tl@UModSys@@H@tl@UModSys@@@tl@UModSys@@QEBAHPEAU?$TScatterArrayNode@U?$TRefObjectCompositeExtra@UIMouseClient@libui@UModSys@@HUIRefObject@core@3@U?$TRefObjectFunc@UIRefObject@core@UModSys@@@tl@3@@tl@UModSys@@H@12@@Z@4HA 000000018001a900 f    CIL library: CIL module
 0001:00019900       ?dtor$0@?0???$ValidateConstruction@UIRefObject@core@UModSys@@URMouseController@SDL_core@ui@modules@3@@core@UModSys@@YA_NAEAU?$TRefObject@UIRefObject@core@UModSys@@U?$TRefObjectFunc@UIRefObject@core@UModSys@@@tl@3@@tl@1@U?$TRefObject@URMouseController@SDL_core@ui@modules@UModSys@@U?$TRefObjectFunc@URMouseController@SDL_core@ui@modules@UModSys@@@tl@5@@31@@Z@4HA 000000018001a900 f    CIL library: CIL module
 0001:00019900       ?dtor$0@?0???$ValidateConstruction@UIRefObject@core@UModSys@@URKeyboardController@SDL_core@ui@modules@3@@core@UModSys@@YA_NAEAU?$TRefObject@UIRefObject@core@UModSys@@U?$TRefObjectFunc@UIRefObject@core@UModSys@@@tl@3@@tl@1@U?$TRefObject@URKeyboardController@SDL_core@ui@modules@UModSys@@U?$TRefObjectFunc@URKeyboardController@SDL_core@ui@modules@UModSys@@@tl@5@@31@@Z@4HA 000000018001a900 f    CIL library: CIL module
 0001:00019920       ?dtor$0@?0???1RRenderDriver2D@SDL_core@ui@modules@UModSys@@UEAA@XZ@4HA 000000018001a920 f    CIL library: CIL module
 0001:00019940       ?dtor$1@?0???1RRenderDriver2D@SDL_core@ui@modules@UModSys@@UEAA@XZ@4HA 000000018001a940 f    CIL library: CIL module
 0001:00019960       ?dtor$0@?0???0RTest1_Shell@test1@test@modules@UModSys@@QEAA@PEAUIModObject@base@4@@Z@4HA 000000018001a960 f    CIL library: CIL module
 0001:00019960       ?dtor$0@?0???1RTest1_Shell@test1@test@modules@UModSys@@UEAA@XZ@4HA 000000018001a960 f    CIL library: CIL module
 0001:00019980       ?dtor$0@?0??suicide@RSerializeReader@serialize_json@media@modules@UModSys@@UEAAXXZ@4HA 000000018001a980 f    CIL library: CIL module
 0001:00019980       ?dtor$0@?0??suicide@RSerializeWriter@serialize_json@media@modules@UModSys@@UEAAXXZ@4HA 000000018001a980 f    CIL library: CIL module
 0001:00019980       ?dtor$0@?0??suicide@RTerminal@SDL_core@ui@modules@UModSys@@UEAAXXZ@4HA 000000018001a980 f    CIL library: CIL module
 0001:00019980       ?dtor$0@?0??suicide@RImage_Memory@stdlib@lib2d@modules@UModSys@@UEAAXXZ@4HA 000000018001a980 f    CIL library: CIL module
 0001:00019980       ?dtor$0@?0??suicide@RMediaFilter@images_std@media@modules@UModSys@@UEAAXXZ@4HA 000000018001a980 f    CIL library: CIL module
 0001:00019980       ?dtor$0@?0??suicide@RCollector@frames@ui@modules@UModSys@@UEAAXXZ@4HA 000000018001a980 f    CIL library: CIL module
 0001:00019980       ?dtor$0@?0??suicide@RTest1_Shell@test1@test@modules@UModSys@@UEAAXXZ@4HA 000000018001a980 f    CIL library: CIL module
 0001:000199a0       ?dtor$0@?0??mount_add@ILibraryBinTree@libmedia@UModSys@@QEAA_NAEBU?$TString@U?$TSCoreConst@D@su@tl@UModSys@@U?$TComparerBinaryHash@D@234@@tl@3@PEAUIBinArchive@23@H@Z@4HA 000000018001a9a0 f    CIL library: CIL module
 0001:000199a0       ?dtor$0@?0??layer_push@ILibraryLayered@libmedia@UModSys@@QEAA_NPEAUILibrary@23@HAEBU?$TString@U?$TSCoreConst@D@su@tl@UModSys@@U?$TComparerBinaryHash@D@234@@tl@3@@Z@4HA 000000018001a9a0 f    CIL library: CIL module
 0001:000199a0       ?dtor$0@?0??mount_add@ILibraryBinTree@libmedia@UModSys@@QEAA_NAEBU?$TString@U?$TSCoreConst@D@su@tl@UModSys@@U?$TComparerBinaryHash@D@234@@tl@3@HPEAUIBinArchive@23@H@Z@4HA 000000018001a9a0 f    CIL library: CIL module
 0001:000199c0       ?dtor$0@?0???$ValidateConstruction@UIRefObject@core@UModSys@@URMediaFilter@images_std@media@modules@3@@core@UModSys@@YA_NAEAU?$TRefObject@UIRefObject@core@UModSys@@U?$TRefObjectFunc@UIRefObject@core@UModSys@@@tl@3@@tl@1@PEAURMediaFilter@images_std@media@modules@1@@Z@4HA 000000018001a9c0 f    CIL library: CIL module
 0001:000199c0       ?dtor$0@?0???$ValidateConstruction@UIRefObject@core@UModSys@@URTerminal@SDL_core@ui@modules@3@@core@UModSys@@YA_NAEAU?$TRefObject@UIRefObject@core@UModSys@@U?$TRefObjectFunc@UIRefObject@core@UModSys@@@tl@3@@tl@1@PEAURTerminal@SDL_core@ui@modules@1@@Z@4HA 000000018001a9c0 f    CIL library: CIL module
 0001:000199c0       ?dtor$0@?0???$ValidateConstruction@UIMultiImage@lib2d@UModSys@@URMultiImage2D_SDL_ttf@SDL_core@ui@modules@3@@core@UModSys@@YA_NAEAU?$TRefObject@UIMultiImage@lib2d@UModSys@@U?$TRefObjectFunc@UIMultiImage@lib2d@UModSys@@@tl@3@@tl@1@PEAURMultiImage2D_SDL_ttf@SDL_core@ui@modules@1@@Z@4HA 000000018001a9c0 f    CIL library: CIL module
 0001:000199c0       ?dtor$0@?0???$ValidateConstruction@UIRefObject@core@UModSys@@URImage_Memory@stdlib@lib2d@modules@3@@core@UModSys@@YA_NAEAU?$TRefObject@UIRefObject@core@UModSys@@U?$TRefObjectFunc@UIRefObject@core@UModSys@@@tl@3@@tl@1@PEAURImage_Memory@stdlib@lib2d@modules@1@@Z@4HA 000000018001a9c0 f    CIL library: CIL module
 0001:000199c0       ?dtor$0@?0???$ValidateConstruction@UIRefObject@core@UModSys@@URSerializeWriter@serialize_json@media@modules@3@@core@UModSys@@YA_NAEAU?$TRefObject@UIRefObject@core@UModSys@@U?$TRefObjectFunc@UIRefObject@core@UModSys@@@tl@3@@tl@1@PEAURSerializeWriter@serialize_json@media@modules@1@@Z@4HA 000000018001a9c0 f    CIL library: CIL module
 0001:000199c0       ?dtor$0@?0???$ValidateConstruction@UIRefObject@core@UModSys@@URCollector@frames@ui@modules@3@@core@UModSys@@YA_NAEAU?$TRefObject@UIRefObject@core@UModSys@@U?$TRefObjectFunc@UIRefObject@core@UModSys@@@tl@3@@tl@1@PEAURCollector@frames@ui@modules@1@@Z@4HA 000000018001a9c0 f    CIL library: CIL module
 0001:000199c0       ?dtor$0@?0???$ValidateConstruction@UIRefObject@core@UModSys@@URSerializeReader@serialize_json@media@modules@3@@core@UModSys@@YA_NAEAU?$TRefObject@UIRefObject@core@UModSys@@U?$TRefObjectFunc@UIRefObject@core@UModSys@@@tl@3@@tl@1@PEAURSerializeReader@serialize_json@media@modules@1@@Z@4HA 000000018001a9c0 f    CIL library: CIL module
 0001:000199e0       ?dtor$0@?0???$genx_node@UCmp@?$TScatterArray@U?$TRefObjectComposite@UIKeyboardClient@libui@UModSys@@UIRefObject@core@3@U?$TRefObjectFunc@UIRefObject@core@UModSys@@@tl@3@@tl@UModSys@@HU?$TScalarCompare@H@core@3@U?$TNodeDeleter0@U?$TScatterArrayNode@U?$TRefObjectComposite@UIKeyboardClient@libui@UModSys@@UIRefObject@core@3@U?$TRefObjectFunc@UIRefObject@core@UModSys@@@tl@3@@tl@UModSys@@H@tl@UModSys@@@23@@tl@UModSys@@UGen0@234@@?$TTreeHoldRBD@U?$TScatterArrayNode@U?$TRefObjectComposite@UIKeyboardClient@libui@UModSys@@UIRefObject@core@3@U?$TRefObjectFunc@UIRefObject@core@UModSys@@@tl@3@@tl@UModSys@@H@tl@UModSys@@U?$TNodeDeleter0@U?$TScatterArrayNode@U?$TRefObjectComposite@UIKeyboardClient@libui@UModSys@@UIRefObject@core@3@U?$TRefObjectFunc@UIRefObject@core@UModSys@@@tl@3@@tl@UModSys@@H@tl@UModSys@@@23@@tl@UModSys@@QEAAPEAU?$TScatterArrayNode@U?$TRefObjectComposite@UIKeyboardClient@libui@UModSys@@UIRefObject@core@3@U?$TRefObjectFunc@UIRefObject@core@UModSys@@@tl@3@@tl@UModSys@@H@12@UCmp@?$TScatterArray@U?$TRefObjectComposite@UIKeyboardClient@libui@UModSys@@UIRefObject@core@3@U?$TRefObjectFunc@UIRefObject@core@UModSys@@@tl@3@@tl@UModSys@@HU?$TScalarCompare@H@core@3@U?$TNodeDeleter0@U?$TScatterArrayNode@U?$TRefObjectComposite@UIKeyboardClient@libui@UModSys@@UIRefObject@core@3@U?$TRefObjectFunc@UIRefObject@core@UModSys@@@tl@3@@tl@UModSys@@H@tl@UModSys@@@23@@12@AEBUGen0@512@PEAPEAU312@2_N@Z@4HA 000000018001a9e0 f    CIL library: CIL module
 0001:00019a00       ?dtor$1@?0???$genx_node@UCmp@?$TScatterArray@U?$TRefObjectComposite@UIKeyboardClient@libui@UModSys@@UIRefObject@core@3@U?$TRefObjectFunc@UIRefObject@core@UModSys@@@tl@3@@tl@UModSys@@HU?$TScalarCompare@H@core@3@U?$TNodeDeleter0@U?$TScatterArrayNode@U?$TRefObjectComposite@UIKeyboardClient@libui@UModSys@@UIRefObject@core@3@U?$TRefObjectFunc@UIRefObject@core@UModSys@@@tl@3@@tl@UModSys@@H@tl@UModSys@@@23@@tl@UModSys@@UGen0@234@@?$TTreeHoldRBD@U?$TScatterArrayNode@U?$TRefObjectComposite@UIKeyboardClient@libui@UModSys@@UIRefObject@core@3@U?$TRefObjectFunc@UIRefObject@core@UModSys@@@tl@3@@tl@UModSys@@H@tl@UModSys@@U?$TNodeDeleter0@U?$TScatterArrayNode@U?$TRefObjectComposite@UIKeyboardClient@libui@UModSys@@UIRefObject@core@3@U?$TRefObjectFunc@UIRefObject@core@UModSys@@@tl@3@@tl@UModSys@@H@tl@UModSys@@@23@@tl@UModSys@@QEAAPEAU?$TScatterArrayNode@U?$TRefObjectComposite@UIKeyboardClient@libui@UModSys@@UIRefObject@core@3@U?$TRefObjectFunc@UIRefObject@core@UModSys@@@tl@3@@tl@UModSys@@H@12@UCmp@?$TScatterArray@U?$TRefObjectComposite@UIKeyboardClient@libui@UModSys@@UIRefObject@core@3@U?$TRefObjectFunc@UIRefObject@core@UModSys@@@tl@3@@tl@UModSys@@HU?$TScalarCompare@H@core@3@U?$TNodeDeleter0@U?$TScatterArrayNode@U?$TRefObjectComposite@UIKeyboardClient@libui@UModSys@@UIRefObject@core@3@U?$TRefObjectFunc@UIRefObject@core@UModSys@@@tl@3@@tl@UModSys@@H@tl@UModSys@@@23@@12@AEBUGen0@512@PEAPEAU312@2_N@Z@4HA 000000018001aa00 f    CIL library: CIL module
 0001:00019a20       ?dtor$2@?0???$genx_node@UCmp@?$TScatterArray@U?$TRefObjectComposite@UIKeyboardClient@libui@UModSys@@UIRefObject@core@3@U?$TRefObjectFunc@UIRefObject@core@UModSys@@@tl@3@@tl@UModSys@@HU?$TScalarCompare@H@core@3@U?$TNodeDeleter0@U?$TScatterArrayNode@U?$TRefObjectComposite@UIKeyboardClient@libui@UModSys@@UIRefObject@core@3@U?$TRefObjectFunc@UIRefObject@core@UModSys@@@tl@3@@tl@UModSys@@H@tl@UModSys@@@23@@tl@UModSys@@UGen0@234@@?$TTreeHoldRBD@U?$TScatterArrayNode@U?$TRefObjectComposite@UIKeyboardClient@libui@UModSys@@UIRefObject@core@3@U?$TRefObjectFunc@UIRefObject@core@UModSys@@@tl@3@@tl@UModSys@@H@tl@UModSys@@U?$TNodeDeleter0@U?$TScatterArrayNode@U?$TRefObjectComposite@UIKeyboardClient@libui@UModSys@@UIRefObject@core@3@U?$TRefObjectFunc@UIRefObject@core@UModSys@@@tl@3@@tl@UModSys@@H@tl@UModSys@@@23@@tl@UModSys@@QEAAPEAU?$TScatterArrayNode@U?$TRefObjectComposite@UIKeyboardClient@libui@UModSys@@UIRefObject@core@3@U?$TRefObjectFunc@UIRefObject@core@UModSys@@@tl@3@@tl@UModSys@@H@12@UCmp@?$TScatterArray@U?$TRefObjectComposite@UIKeyboardClient@libui@UModSys@@UIRefObject@core@3@U?$TRefObjectFunc@UIRefObject@core@UModSys@@@tl@3@@tl@UModSys@@HU?$TScalarCompare@H@core@3@U?$TNodeDeleter0@U?$TScatterArrayNode@U?$TRefObjectComposite@UIKeyboardClient@libui@UModSys@@UIRefObject@core@3@U?$TRefObjectFunc@UIRefObject@core@UModSys@@@tl@3@@tl@UModSys@@H@tl@UModSys@@@23@@12@AEBUGen0@512@PEAPEAU312@2_N@Z@4HA 000000018001aa20 f    CIL library: CIL module
 0001:00019a40       ?dtor$6@?0???$genx_node@UCmp@?$TScatterArray@U?$TRefObjectComposite@UIKeyboardClient@libui@UModSys@@UIRefObject@core@3@U?$TRefObjectFunc@UIRefObject@core@UModSys@@@tl@3@@tl@UModSys@@HU?$TScalarCompare@H@core@3@U?$TNodeDeleter0@U?$TScatterArrayNode@U?$TRefObjectComposite@UIKeyboardClient@libui@UModSys@@UIRefObject@core@3@U?$TRefObjectFunc@UIRefObject@core@UModSys@@@tl@3@@tl@UModSys@@H@tl@UModSys@@@23@@tl@UModSys@@UGen0@234@@?$TTreeHoldRBD@U?$TScatterArrayNode@U?$TRefObjectComposite@UIKeyboardClient@libui@UModSys@@UIRefObject@core@3@U?$TRefObjectFunc@UIRefObject@core@UModSys@@@tl@3@@tl@UModSys@@H@tl@UModSys@@U?$TNodeDeleter0@U?$TScatterArrayNode@U?$TRefObjectComposite@UIKeyboardClient@libui@UModSys@@UIRefObject@core@3@U?$TRefObjectFunc@UIRefObject@core@UModSys@@@tl@3@@tl@UModSys@@H@tl@UModSys@@@23@@tl@UModSys@@QEAAPEAU?$TScatterArrayNode@U?$TRefObjectComposite@UIKeyboardClient@libui@UModSys@@UIRefObject@core@3@U?$TRefObjectFunc@UIRefObject@core@UModSys@@@tl@3@@tl@UModSys@@H@12@UCmp@?$TScatterArray@U?$TRefObjectComposite@UIKeyboardClient@libui@UModSys@@UIRefObject@core@3@U?$TRefObjectFunc@UIRefObject@core@UModSys@@@tl@3@@tl@UModSys@@HU?$TScalarCompare@H@core@3@U?$TNodeDeleter0@U?$TScatterArrayNode@U?$TRefObjectComposite@UIKeyboardClient@libui@UModSys@@UIRefObject@core@3@U?$TRefObjectFunc@UIRefObject@core@UModSys@@@tl@3@@tl@UModSys@@H@tl@UModSys@@@23@@12@AEBUGen0@512@PEAPEAU312@2_N@Z@4HA 000000018001aa40 f    CIL library: CIL module
 0001:00019a60       ?dtor$0@?0???$genx_node@UCmp@?$TScatterArray@U?$TRefObjectCompositeExtra@UIMouseClient@libui@UModSys@@HUIRefObject@core@3@U?$TRefObjectFunc@UIRefObject@core@UModSys@@@tl@3@@tl@UModSys@@HU?$TScalarCompare@H@core@3@U?$TNodeDeleter0@U?$TScatterArrayNode@U?$TRefObjectCompositeExtra@UIMouseClient@libui@UModSys@@HUIRefObject@core@3@U?$TRefObjectFunc@UIRefObject@core@UModSys@@@tl@3@@tl@UModSys@@H@tl@UModSys@@@23@@tl@UModSys@@UGen0@234@@?$TTreeHoldRBD@U?$TScatterArrayNode@U?$TRefObjectCompositeExtra@UIMouseClient@libui@UModSys@@HUIRefObject@core@3@U?$TRefObjectFunc@UIRefObject@core@UModSys@@@tl@3@@tl@UModSys@@H@tl@UModSys@@U?$TNodeDeleter0@U?$TScatterArrayNode@U?$TRefObjectCompositeExtra@UIMouseClient@libui@UModSys@@HUIRefObject@core@3@U?$TRefObjectFunc@UIRefObject@core@UModSys@@@tl@3@@tl@UModSys@@H@tl@UModSys@@@23@@tl@UModSys@@QEAAPEAU?$TScatterArrayNode@U?$TRefObjectCompositeExtra@UIMouseClient@libui@UModSys@@HUIRefObject@core@3@U?$TRefObjectFunc@UIRefObject@core@UModSys@@@tl@3@@tl@UModSys@@H@12@UCmp@?$TScatterArray@U?$TRefObjectCompositeExtra@UIMouseClient@libui@UModSys@@HUIRefObject@core@3@U?$TRefObjectFunc@UIRefObject@core@UModSys@@@tl@3@@tl@UModSys@@HU?$TScalarCompare@H@core@3@U?$TNodeDeleter0@U?$TScatterArrayNode@U?$TRefObjectCompositeExtra@UIMouseClient@libui@UModSys@@HUIRefObject@core@3@U?$TRefObjectFunc@UIRefObject@core@UModSys@@@tl@3@@tl@UModSys@@H@tl@UModSys@@@23@@12@AEBUGen0@512@PEAPEAU312@2_N@Z@4HA 000000018001aa60 f    CIL library: CIL module
 0001:00019a80       ?dtor$1@?0???$genx_node@UCmp@?$TScatterArray@U?$TRefObjectCompositeExtra@UIMouseClient@libui@UModSys@@HUIRefObject@core@3@U?$TRefObjectFunc@UIRefObject@core@UModSys@@@tl@3@@tl@UModSys@@HU?$TScalarCompare@H@core@3@U?$TNodeDeleter0@U?$TScatterArrayNode@U?$TRefObjectCompositeExtra@UIMouseClient@libui@UModSys@@HUIRefObject@core@3@U?$TRefObjectFunc@UIRefObject@core@UModSys@@@tl@3@@tl@UModSys@@H@tl@UModSys@@@23@@tl@UModSys@@UGen0@234@@?$TTreeHoldRBD@U?$TScatterArrayNode@U?$TRefObjectCompositeExtra@UIMouseClient@libui@UModSys@@HUIRefObject@core@3@U?$TRefObjectFunc@UIRefObject@core@UModSys@@@tl@3@@tl@UModSys@@H@tl@UModSys@@U?$TNodeDeleter0@U?$TScatterArrayNode@U?$TRefObjectCompositeExtra@UIMouseClient@libui@UModSys@@HUIRefObject@core@3@U?$TRefObjectFunc@UIRefObject@core@UModSys@@@tl@3@@tl@UModSys@@H@tl@UModSys@@@23@@tl@UModSys@@QEAAPEAU?$TScatterArrayNode@U?$TRefObjectCompositeExtra@UIMouseClient@libui@UModSys@@HUIRefObject@core@3@U?$TRefObjectFunc@UIRefObject@core@UModSys@@@tl@3@@tl@UModSys@@H@12@UCmp@?$TScatterArray@U?$TRefObjectCompositeExtra@UIMouseClient@libui@UModSys@@HUIRefObject@core@3@U?$TRefObjectFunc@UIRefObject@core@UModSys@@@tl@3@@tl@UModSys@@HU?$TScalarCompare@H@core@3@U?$TNodeDeleter0@U?$TScatterArrayNode@U?$TRefObjectCompositeExtra@UIMouseClient@libui@UModSys@@HUIRefObject@core@3@U?$TRefObjectFunc@UIRefObject@core@UModSys@@@tl@3@@tl@UModSys@@H@tl@UModSys@@@23@@12@AEBUGen0@512@PEAPEAU312@2_N@Z@4HA 000000018001aa80 f    CIL library: CIL module
 0001:00019aa0       ?dtor$2@?0???$genx_node@UCmp@?$TScatterArray@U?$TRefObjectCompositeExtra@UIMouseClient@libui@UModSys@@HUIRefObject@core@3@U?$TRefObjectFunc@UIRefObject@core@UModSys@@@tl@3@@tl@UModSys@@HU?$TScalarCompare@H@core@3@U?$TNodeDeleter0@U?$TScatterArrayNode@U?$TRefObjectCompositeExtra@UIMouseClient@libui@UModSys@@HUIRefObject@core@3@U?$TRefObjectFunc@UIRefObject@core@UModSys@@@tl@3@@tl@UModSys@@H@tl@UModSys@@@23@@tl@UModSys@@UGen0@234@@?$TTreeHoldRBD@U?$TScatterArrayNode@U?$TRefObjectCompositeExtra@UIMouseClient@libui@UModSys@@HUIRefObject@core@3@U?$TRefObjectFunc@UIRefObject@core@UModSys@@@tl@3@@tl@UModSys@@H@tl@UModSys@@U?$TNodeDeleter0@U?$TScatterArrayNode@U?$TRefObjectCompositeExtra@UIMouseClient@libui@UModSys@@HUIRefObject@core@3@U?$TRefObjectFunc@UIRefObject@core@UModSys@@@tl@3@@tl@UModSys@@H@tl@UModSys@@@23@@tl@UModSys@@QEAAPEAU?$TScatterArrayNode@U?$TRefObjectCompositeExtra@UIMouseClient@libui@UModSys@@HUIRefObject@core@3@U?$TRefObjectFunc@UIRefObject@core@UModSys@@@tl@3@@tl@UModSys@@H@12@UCmp@?$TScatterArray@U?$TRefObjectCompositeExtra@UIMouseClient@libui@UModSys@@HUIRefObject@core@3@U?$TRefObjectFunc@UIRefObject@core@UModSys@@@tl@3@@tl@UModSys@@HU?$TScalarCompare@H@core@3@U?$TNodeDeleter0@U?$TScatterArrayNode@U?$TRefObjectCompositeExtra@UIMouseClient@libui@UModSys@@HUIRefObject@core@3@U?$TRefObjectFunc@UIRefObject@core@UModSys@@@tl@3@@tl@UModSys@@H@tl@UModSys@@@23@@12@AEBUGen0@512@PEAPEAU312@2_N@Z@4HA 000000018001aaa0 f    CIL library: CIL module
 0001:00019ac0       ?dtor$6@?0???$genx_node@UCmp@?$TScatterArray@U?$TRefObjectCompositeExtra@UIMouseClient@libui@UModSys@@HUIRefObject@core@3@U?$TRefObjectFunc@UIRefObject@core@UModSys@@@tl@3@@tl@UModSys@@HU?$TScalarCompare@H@core@3@U?$TNodeDeleter0@U?$TScatterArrayNode@U?$TRefObjectCompositeExtra@UIMouseClient@libui@UModSys@@HUIRefObject@core@3@U?$TRefObjectFunc@UIRefObject@core@UModSys@@@tl@3@@tl@UModSys@@H@tl@UModSys@@@23@@tl@UModSys@@UGen0@234@@?$TTreeHoldRBD@U?$TScatterArrayNode@U?$TRefObjectCompositeExtra@UIMouseClient@libui@UModSys@@HUIRefObject@core@3@U?$TRefObjectFunc@UIRefObject@core@UModSys@@@tl@3@@tl@UModSys@@H@tl@UModSys@@U?$TNodeDeleter0@U?$TScatterArrayNode@U?$TRefObjectCompositeExtra@UIMouseClient@libui@UModSys@@HUIRefObject@core@3@U?$TRefObjectFunc@UIRefObject@core@UModSys@@@tl@3@@tl@UModSys@@H@tl@UModSys@@@23@@tl@UModSys@@QEAAPEAU?$TScatterArrayNode@U?$TRefObjectCompositeExtra@UIMouseClient@libui@UModSys@@HUIRefObject@core@3@U?$TRefObjectFunc@UIRefObject@core@UModSys@@@tl@3@@tl@UModSys@@H@12@UCmp@?$TScatterArray@U?$TRefObjectCompositeExtra@UIMouseClient@libui@UModSys@@HUIRefObject@core@3@U?$TRefObjectFunc@UIRefObject@core@UModSys@@@tl@3@@tl@UModSys@@HU?$TScalarCompare@H@core@3@U?$TNodeDeleter0@U?$TScatterArrayNode@U?$TRefObjectCompositeExtra@UIMouseClient@libui@UModSys@@HUIRefObject@core@3@U?$TRefObjectFunc@UIRefObject@core@UModSys@@@tl@3@@tl@UModSys@@H@tl@UModSys@@@23@@12@AEBUGen0@512@PEAPEAU312@2_N@Z@4HA 000000018001aac0 f    CIL library: CIL module
 0001:00019ae0       ?dtor$0@?0???0RMultiImage2D_SDL_ttf@SDL_core@ui@modules@UModSys@@QEAA@PEAURRenderDriver2D@1234@AEBUSParameters@core@4@@Z@4HA 000000018001aae0 f    CIL library: CIL module
 0001:00019b00       ?dtor$1@?0???0RMultiImage2D_SDL_ttf@SDL_core@ui@modules@UModSys@@QEAA@PEAURRenderDriver2D@1234@AEBUSParameters@core@4@@Z@4HA 000000018001ab00 f    CIL library: CIL module
 0001:00019b20       ?dtor$0@?0???$generate_type@UIBinObjFilter@libmedia@UModSys@@@RTest1_Shell@test1@test@modules@UModSys@@QEAA?AU?$TRefObject@UIBinObjFilter@libmedia@UModSys@@U?$TRefObjectFunc@UIBinObjFilter@libmedia@UModSys@@@tl@3@@tl@4@AEBU?$TString@U?$TSCoreConst@D@su@tl@UModSys@@U?$TComparerBinaryHash@D@234@@64@AEBUSParameters@core@4@PEBD@Z@4HA 000000018001ab20 f    CIL library: CIL module
 0001:00019b20       ?dtor$0@?0???$generate_type@UISerializeWriter@libmedia@UModSys@@@RTest1_Shell@test1@test@modules@UModSys@@QEAA?AU?$TRefObject@UISerializeWriter@libmedia@UModSys@@U?$TRefObjectFunc@UISerializeWriter@libmedia@UModSys@@@tl@3@@tl@4@AEBU?$TString@U?$TSCoreConst@D@su@tl@UModSys@@U?$TComparerBinaryHash@D@234@@64@AEBUSParameters@core@4@PEBD@Z@4HA 000000018001ab20 f    CIL library: CIL module
 0001:00019b20       ?dtor$0@?0???$generate_type@UILibraryBinTree@libmedia@UModSys@@@RTest1_Shell@test1@test@modules@UModSys@@QEAA?AU?$TRefObject@UILibraryBinTree@libmedia@UModSys@@U?$TRefObjectFunc@UILibraryBinTree@libmedia@UModSys@@@tl@3@@tl@4@AEBU?$TString@U?$TSCoreConst@D@su@tl@UModSys@@U?$TComparerBinaryHash@D@234@@64@AEBUSParameters@core@4@PEBD@Z@4HA 000000018001ab20 f    CIL library: CIL module
 0001:00019b20       ?dtor$0@?0???$generate_type@UILibraryBinCache@libmedia@UModSys@@@RTest1_Shell@test1@test@modules@UModSys@@QEAA?AU?$TRefObject@UILibraryBinCache@libmedia@UModSys@@U?$TRefObjectFunc@UILibraryBinCache@libmedia@UModSys@@@tl@3@@tl@4@AEBU?$TString@U?$TSCoreConst@D@su@tl@UModSys@@U?$TComparerBinaryHash@D@234@@64@AEBUSParameters@core@4@PEBD@Z@4HA 000000018001ab20 f    CIL library: CIL module
 0001:00019b20       ?dtor$0@?0???$generate_type@UIBinArchive@libmedia@UModSys@@@RTest1_Shell@test1@test@modules@UModSys@@QEAA?AU?$TRefObject@UIBinArchive@libmedia@UModSys@@U?$TRefObjectFunc@UIBinArchive@libmedia@UModSys@@@tl@3@@tl@4@AEBU?$TString@U?$TSCoreConst@D@su@tl@UModSys@@U?$TComparerBinaryHash@D@234@@64@AEBUSParameters@core@4@PEBD@Z@4HA 000000018001ab20 f    CIL library: CIL module
 0001:00019b20       ?dtor$0@?0???$generate_type@UILibraryObjFilter@libmedia@UModSys@@@RTest1_Shell@test1@test@modules@UModSys@@QEAA?AU?$TRefObject@UILibraryObjFilter@libmedia@UModSys@@U?$TRefObjectFunc@UILibraryObjFilter@libmedia@UModSys@@@tl@3@@tl@4@AEBU?$TString@U?$TSCoreConst@D@su@tl@UModSys@@U?$TComparerBinaryHash@D@234@@64@AEBUSParameters@core@4@PEBD@Z@4HA 000000018001ab20 f    CIL library: CIL module
 0001:00019b20       ?dtor$0@?0???$generate_type@UILibraryLayered@libmedia@UModSys@@@RTest1_Shell@test1@test@modules@UModSys@@QEAA?AU?$TRefObject@UILibraryLayered@libmedia@UModSys@@U?$TRefObjectFunc@UILibraryLayered@libmedia@UModSys@@@tl@3@@tl@4@AEBU?$TString@U?$TSCoreConst@D@su@tl@UModSys@@U?$TComparerBinaryHash@D@234@@64@AEBUSParameters@core@4@PEBD@Z@4HA 000000018001ab20 f    CIL library: CIL module
 0001:00019b20       ?dtor$0@?0???$generate_type@UILibraryObjCache@libmedia@UModSys@@@RTest1_Shell@test1@test@modules@UModSys@@QEAA?AU?$TRefObject@UILibraryObjCache@libmedia@UModSys@@U?$TRefObjectFunc@UILibraryObjCache@libmedia@UModSys@@@tl@3@@tl@4@AEBU?$TString@U?$TSCoreConst@D@su@tl@UModSys@@U?$TComparerBinaryHash@D@234@@64@AEBUSParameters@core@4@PEBD@Z@4HA 000000018001ab20 f    CIL library: CIL module
 0001:00019b20       ?dtor$0@?0???$generate_type@UISerializeReader@libmedia@UModSys@@@RTest1_Shell@test1@test@modules@UModSys@@QEAA?AU?$TRefObject@UISerializeReader@libmedia@UModSys@@U?$TRefObjectFunc@UISerializeReader@libmedia@UModSys@@@tl@3@@tl@4@AEBU?$TString@U?$TSCoreConst@D@su@tl@UModSys@@U?$TComparerBinaryHash@D@234@@64@AEBUSParameters@core@4@PEBD@Z@4HA 000000018001ab20 f    CIL library: CIL module
 0001:00019b40       ?dtor$1@?0???$generate_type@UIBinObjFilter@libmedia@UModSys@@@RTest1_Shell@test1@test@modules@UModSys@@QEAA?AU?$TRefObject@UIBinObjFilter@libmedia@UModSys@@U?$TRefObjectFunc@UIBinObjFilter@libmedia@UModSys@@@tl@3@@tl@4@AEBU?$TString@U?$TSCoreConst@D@su@tl@UModSys@@U?$TComparerBinaryHash@D@234@@64@AEBUSParameters@core@4@PEBD@Z@4HA 000000018001ab40 f    CIL library: CIL module
 0001:00019b40       ?dtor$1@?0???$generate_type@UIBinArchive@libmedia@UModSys@@@RTest1_Shell@test1@test@modules@UModSys@@QEAA?AU?$TRefObject@UIBinArchive@libmedia@UModSys@@U?$TRefObjectFunc@UIBinArchive@libmedia@UModSys@@@tl@3@@tl@4@AEBU?$TString@U?$TSCoreConst@D@su@tl@UModSys@@U?$TComparerBinaryHash@D@234@@64@AEBUSParameters@core@4@PEBD@Z@4HA 000000018001ab40 f    CIL library: CIL module
 0001:00019b40       ?dtor$1@?0???$generate_type@UILibraryBinCache@libmedia@UModSys@@@RTest1_Shell@test1@test@modules@UModSys@@QEAA?AU?$TRefObject@UILibraryBinCache@libmedia@UModSys@@U?$TRefObjectFunc@UILibraryBinCache@libmedia@UModSys@@@tl@3@@tl@4@AEBU?$TString@U?$TSCoreConst@D@su@tl@UModSys@@U?$TComparerBinaryHash@D@234@@64@AEBUSParameters@core@4@PEBD@Z@4HA 000000018001ab40 f    CIL library: CIL module
 0001:00019b40       ?dtor$1@?0???$generate_type@UISerializeReader@libmedia@UModSys@@@RTest1_Shell@test1@test@modules@UModSys@@QEAA?AU?$TRefObject@UISerializeReader@libmedia@UModSys@@U?$TRefObjectFunc@UISerializeReader@libmedia@UModSys@@@tl@3@@tl@4@AEBU?$TString@U?$TSCoreConst@D@su@tl@UModSys@@U?$TComparerBinaryHash@D@234@@64@AEBUSParameters@core@4@PEBD@Z@4HA 000000018001ab40 f    CIL library: CIL module
 0001:00019b40       ?dtor$1@?0???$generate_type@UILibraryObjCache@libmedia@UModSys@@@RTest1_Shell@test1@test@modules@UModSys@@QEAA?AU?$TRefObject@UILibraryObjCache@libmedia@UModSys@@U?$TRefObjectFunc@UILibraryObjCache@libmedia@UModSys@@@tl@3@@tl@4@AEBU?$TString@U?$TSCoreConst@D@su@tl@UModSys@@U?$TComparerBinaryHash@D@234@@64@AEBUSParameters@core@4@PEBD@Z@4HA 000000018001ab40 f    CIL library: CIL module
 0001:00019b40       ?dtor$1@?0???$generate_type@UISerializeWriter@libmedia@UModSys@@@RTest1_Shell@test1@test@modules@UModSys@@QEAA?AU?$TRefObject@UISerializeWriter@libmedia@UModSys@@U?$TRefObjectFunc@UISerializeWriter@libmedia@UModSys@@@tl@3@@tl@4@AEBU?$TString@U?$TSCoreConst@D@su@tl@UModSys@@U?$TComparerBinaryHash@D@234@@64@AEBUSParameters@core@4@PEBD@Z@4HA 000000018001ab40 f    CIL library: CIL module
 0001:00019b40       ?dtor$1@?0???$generate_type@UILibraryLayered@libmedia@UModSys@@@RTest1_Shell@test1@test@modules@UModSys@@QEAA?AU?$TRefObject@UILibraryLayered@libmedia@UModSys@@U?$TRefObjectFunc@UILibraryLayered@libmedia@UModSys@@@tl@3@@tl@4@AEBU?$TString@U?$TSCoreConst@D@su@tl@UModSys@@U?$TComparerBinaryHash@D@234@@64@AEBUSParameters@core@4@PEBD@Z@4HA 000000018001ab40 f    CIL library: CIL module
 0001:00019b40       ?dtor$1@?0???$generate_type@UILibraryBinTree@libmedia@UModSys@@@RTest1_Shell@test1@test@modules@UModSys@@QEAA?AU?$TRefObject@UILibraryBinTree@libmedia@UModSys@@U?$TRefObjectFunc@UILibraryBinTree@libmedia@UModSys@@@tl@3@@tl@4@AEBU?$TString@U?$TSCoreConst@D@su@tl@UModSys@@U?$TComparerBinaryHash@D@234@@64@AEBUSParameters@core@4@PEBD@Z@4HA 000000018001ab40 f    CIL library: CIL module
 0001:00019b40       ?dtor$1@?0???$generate_type@UILibraryObjFilter@libmedia@UModSys@@@RTest1_Shell@test1@test@modules@UModSys@@QEAA?AU?$TRefObject@UILibraryObjFilter@libmedia@UModSys@@U?$TRefObjectFunc@UILibraryObjFilter@libmedia@UModSys@@@tl@3@@tl@4@AEBU?$TString@U?$TSCoreConst@D@su@tl@UModSys@@U?$TComparerBinaryHash@D@234@@64@AEBUSParameters@core@4@PEBD@Z@4HA 000000018001ab40 f    CIL library: CIL module
 0001:00019b70       ?dtor$0@?0???$generate_type@UIImage@lib2d@UModSys@@@RTest1_Shell@test1@test@modules@UModSys@@QEAA?AU?$TRefObject@UIImage@lib2d@UModSys@@U?$TRefObjectFunc@UIImage@lib2d@UModSys@@@tl@3@@tl@4@AEBU?$TString@U?$TSCoreConst@D@su@tl@UModSys@@U?$TComparerBinaryHash@D@234@@64@AEBUSParameters@core@4@PEBD@Z@4HA 000000018001ab70 f    CIL library: CIL module
 0001:00019b90       ?dtor$2@?0???$generate_type@UIImage@lib2d@UModSys@@@RTest1_Shell@test1@test@modules@UModSys@@QEAA?AU?$TRefObject@UIImage@lib2d@UModSys@@U?$TRefObjectFunc@UIImage@lib2d@UModSys@@@tl@3@@tl@4@AEBU?$TString@U?$TSCoreConst@D@su@tl@UModSys@@U?$TComparerBinaryHash@D@234@@64@AEBUSParameters@core@4@PEBD@Z@4HA 000000018001ab90 f    CIL library: CIL module
 0001:00019bb0       ?dtor$1@?0???$generate_type@UIImage@lib2d@UModSys@@@RTest1_Shell@test1@test@modules@UModSys@@QEAA?AU?$TRefObject@UIImage@lib2d@UModSys@@U?$TRefObjectFunc@UIImage@lib2d@UModSys@@@tl@3@@tl@4@AEBU?$TString@U?$TSCoreConst@D@su@tl@UModSys@@U?$TComparerBinaryHash@D@234@@64@AEBUSParameters@core@4@PEBD@Z@4HA 000000018001abb0 f    CIL library: CIL module
 0001:00019be0       ?dtor$0@?0???0RSerializeWriter@serialize_json@media@modules@UModSys@@QEAA@PEAUIModObject@base@4@AEBUSParameters@core@4@@Z@4HA 000000018001abe0 f    CIL library: CIL module
 0001:00019c00       ?dtor$1@?0???0RSerializeWriter@serialize_json@media@modules@UModSys@@QEAA@PEAUIModObject@base@4@AEBUSParameters@core@4@@Z@4HA 000000018001ac00 f    CIL library: CIL module
 0001:00019c20       ?dtor$2@?0???0RSerializeWriter@serialize_json@media@modules@UModSys@@QEAA@PEAUIModObject@base@4@AEBUSParameters@core@4@@Z@4HA 000000018001ac20 f    CIL library: CIL module
 0001:00019c40       ?dtor$0@?0???0RSerializeReader@serialize_json@media@modules@UModSys@@QEAA@PEAUIModObject@base@4@AEBUSParameters@core@4@@Z@4HA 000000018001ac40 f    CIL library: CIL module
 0001:00019c60       ?dtor$1@?0???0RSerializeReader@serialize_json@media@modules@UModSys@@QEAA@PEAUIModObject@base@4@AEBUSParameters@core@4@@Z@4HA 000000018001ac60 f    CIL library: CIL module
 0001:00019c80       ?dtor$2@?0???0RSerializeReader@serialize_json@media@modules@UModSys@@QEAA@PEAUIModObject@base@4@AEBUSParameters@core@4@@Z@4HA 000000018001ac80 f    CIL library: CIL module
 0001:00019ca0       ?dtor$0@?0??reader_parse@RSerializeReader@serialize_json@media@modules@UModSys@@UEAA_NPEAUISerializeParser@libmedia@5@@Z@4HA 000000018001aca0 f    CIL library: CIL module
 0001:00019cc0       ?dtor$0@?0???$genx_node@UCmp@?$TScatterArray@U?$TRefObject@URRenderDriver2D@SDL_core@ui@modules@UModSys@@U?$TRefObjectWeakFunc@URRenderDriver2D@SDL_core@ui@modules@UModSys@@@tl@5@@tl@UModSys@@HU?$TScalarCompare@H@core@3@U?$TNodeDeleter0@U?$TScatterArrayNode@U?$TRefObject@URRenderDriver2D@SDL_core@ui@modules@UModSys@@U?$TRefObjectWeakFunc@URRenderDriver2D@SDL_core@ui@modules@UModSys@@@tl@5@@tl@UModSys@@H@tl@UModSys@@@23@@tl@UModSys@@UGen0@234@@?$TTreeHoldRBD@U?$TScatterArrayNode@U?$TRefObject@URRenderDriver2D@SDL_core@ui@modules@UModSys@@U?$TRefObjectWeakFunc@URRenderDriver2D@SDL_core@ui@modules@UModSys@@@tl@5@@tl@UModSys@@H@tl@UModSys@@U?$TNodeDeleter0@U?$TScatterArrayNode@U?$TRefObject@URRenderDriver2D@SDL_core@ui@modules@UModSys@@U?$TRefObjectWeakFunc@URRenderDriver2D@SDL_core@ui@modules@UModSys@@@tl@5@@tl@UModSys@@H@tl@UModSys@@@23@@tl@UModSys@@QEAAPEAU?$TScatterArrayNode@U?$TRefObject@URRenderDriver2D@SDL_core@ui@modules@UModSys@@U?$TRefObjectWeakFunc@URRenderDriver2D@SDL_core@ui@modules@UModSys@@@tl@5@@tl@UModSys@@H@12@UCmp@?$TScatterArray@U?$TRefObject@URRenderDriver2D@SDL_core@ui@modules@UModSys@@U?$TRefObjectWeakFunc@URRenderDriver2D@SDL_core@ui@modules@UModSys@@@tl@5@@tl@UModSys@@HU?$TScalarCompare@H@core@3@U?$TNodeDeleter0@U?$TScatterArrayNode@U?$TRefObject@URRenderDriver2D@SDL_core@ui@modules@UModSys@@U?$TRefObjectWeakFunc@URRenderDriver2D@SDL_core@ui@modules@UModSys@@@tl@5@@tl@UModSys@@H@tl@UModSys@@@23@@12@AEBUGen0@512@PEAPEAU312@2_N@Z@4HA 000000018001acc0 f    CIL library: CIL module
 0001:00019ce0       ?dtor$1@?0???$genx_node@UCmp@?$TScatterArray@U?$TRefObject@URRenderDriver2D@SDL_core@ui@modules@UModSys@@U?$TRefObjectWeakFunc@URRenderDriver2D@SDL_core@ui@modules@UModSys@@@tl@5@@tl@UModSys@@HU?$TScalarCompare@H@core@3@U?$TNodeDeleter0@U?$TScatterArrayNode@U?$TRefObject@URRenderDriver2D@SDL_core@ui@modules@UModSys@@U?$TRefObjectWeakFunc@URRenderDriver2D@SDL_core@ui@modules@UModSys@@@tl@5@@tl@UModSys@@H@tl@UModSys@@@23@@tl@UModSys@@UGen0@234@@?$TTreeHoldRBD@U?$TScatterArrayNode@U?$TRefObject@URRenderDriver2D@SDL_core@ui@modules@UModSys@@U?$TRefObjectWeakFunc@URRenderDriver2D@SDL_core@ui@modules@UModSys@@@tl@5@@tl@UModSys@@H@tl@UModSys@@U?$TNodeDeleter0@U?$TScatterArrayNode@U?$TRefObject@URRenderDriver2D@SDL_core@ui@modules@UModSys@@U?$TRefObjectWeakFunc@URRenderDriver2D@SDL_core@ui@modules@UModSys@@@tl@5@@tl@UModSys@@H@tl@UModSys@@@23@@tl@UModSys@@QEAAPEAU?$TScatterArrayNode@U?$TRefObject@URRenderDriver2D@SDL_core@ui@modules@UModSys@@U?$TRefObjectWeakFunc@URRenderDriver2D@SDL_core@ui@modules@UModSys@@@tl@5@@tl@UModSys@@H@12@UCmp@?$TScatterArray@U?$TRefObject@URRenderDriver2D@SDL_core@ui@modules@UModSys@@U?$TRefObjectWeakFunc@URRenderDriver2D@SDL_core@ui@modules@UModSys@@@tl@5@@tl@UModSys@@HU?$TScalarCompare@H@core@3@U?$TNodeDeleter0@U?$TScatterArrayNode@U?$TRefObject@URRenderDriver2D@SDL_core@ui@modules@UModSys@@U?$TRefObjectWeakFunc@URRenderDriver2D@SDL_core@ui@modules@UModSys@@@tl@5@@tl@UModSys@@H@tl@UModSys@@@23@@12@AEBUGen0@512@PEAPEAU312@2_N@Z@4HA 000000018001ace0 f    CIL library: CIL module
 0001:00019d00       ?dtor$0@?0???_GRImage_Memory@stdlib@lib2d@modules@UModSys@@UEAAPEAXI@Z@4HA 000000018001ad00 f    CIL library: CIL module
 0001:00019d00       ?dtor$0@?0???_GRMultiImage2D_SDL_ttf@SDL_core@ui@modules@UModSys@@UEAAPEAXI@Z@4HA 000000018001ad00 f    CIL library: CIL module
 0001:00019d00       ?dtor$0@?0???1RSerializeReader@serialize_json@media@modules@UModSys@@UEAA@XZ@4HA 000000018001ad00 f    CIL library: CIL module
 0001:00019d00       ?dtor$0@?0???_GRKeyboardController@SDL_core@ui@modules@UModSys@@UEAAPEAXI@Z@4HA 000000018001ad00 f    CIL library: CIL module
 0001:00019d00       ?dtor$0@?0???0RTerminal@SDL_core@ui@modules@UModSys@@QEAA@PEAUIModObject@base@4@AEBUSParameters@core@4@@Z@4HA 000000018001ad00 f    CIL library: CIL module
 0001:00019d00       ?dtor$0@?0???1RTerminal@SDL_core@ui@modules@UModSys@@UEAA@XZ@4HA 000000018001ad00 f    CIL library: CIL module
 0001:00019d00       ?dtor$0@?0???_GRMouseController@SDL_core@ui@modules@UModSys@@UEAAPEAXI@Z@4HA 000000018001ad00 f    CIL library: CIL module
 0001:00019d00       ?dtor$0@?0???0RImage_Memory@stdlib@lib2d@modules@UModSys@@QEAA@PEAUIModObject@base@4@AEBUSParameters@core@4@@Z@4HA 000000018001ad00 f    CIL library: CIL module
 0001:00019d20       ?dtor$0@?0??set_info@RImage_Memory@stdlib@lib2d@modules@UModSys@@UEAA_NAEBUSImagePatchInfo@35@PEBD@Z@4HA 000000018001ad20 f    CIL library: CIL module
 0001:00019d40       ?dtor$0@?0??generate@RGenerator@serialize_json@media@modules@UModSys@@UEAA_NAEAU?$TRefObject@UIRefObject@core@UModSys@@U?$TRefObjectFunc@UIRefObject@core@UModSys@@@tl@3@@tl@5@PEBUSUniquePointerInfo@core@5@AEBUSParameters@95@@Z@4HA 000000018001ad40 f    CIL library: CIL module
 0001:00019d60       ?dtor$1@?0??generate@RGenerator@serialize_json@media@modules@UModSys@@UEAA_NAEAU?$TRefObject@UIRefObject@core@UModSys@@U?$TRefObjectFunc@UIRefObject@core@UModSys@@@tl@3@@tl@5@PEBUSUniquePointerInfo@core@5@AEBUSParameters@95@@Z@4HA 000000018001ad60 f    CIL library: CIL module
 0001:00019d80       ?dtor$0@?0???0RMediaFilter@images_std@media@modules@UModSys@@QEAA@PEAUIModObject@base@4@AEBUSParameters@core@4@@Z@4HA 000000018001ad80 f    CIL library: CIL module
 0001:00019d80       ?dtor$0@?0???_GRMediaFilter@images_std@media@modules@UModSys@@UEAAPEAXI@Z@4HA 000000018001ad80 f    CIL library: CIL module
 0001:00019da0       ?dtor$1@?0???0RMediaFilter@images_std@media@modules@UModSys@@QEAA@PEAUIModObject@base@4@AEBUSParameters@core@4@@Z@4HA 000000018001ada0 f    CIL library: CIL module
 0001:00019da0       ?dtor$1@?0???_GRMediaFilter@images_std@media@modules@UModSys@@UEAAPEAXI@Z@4HA 000000018001ada0 f    CIL library: CIL module
 0001:00019dc0       ?dtor$0@?0??generate@RGenerator@SDL_core@ui@modules@UModSys@@UEAA_NAEAU?$TRefObject@UIRefObject@core@UModSys@@U?$TRefObjectFunc@UIRefObject@core@UModSys@@@tl@3@@tl@5@PEBUSUniquePointerInfo@core@5@AEBUSParameters@95@@Z@4HA 000000018001adc0 f    CIL library: CIL module
 0001:00019dc0       ?dtor$0@?0??generate@RGenerator@frames@ui@modules@UModSys@@UEAA_NAEAU?$TRefObject@UIRefObject@core@UModSys@@U?$TRefObjectFunc@UIRefObject@core@UModSys@@@tl@3@@tl@5@PEBUSUniquePointerInfo@core@5@AEBUSParameters@95@@Z@4HA 000000018001adc0 f    CIL library: CIL module
 0001:00019dc0       ?dtor$0@?0??generate@RGenerator@stdlib@lib2d@modules@UModSys@@UEAA_NAEAU?$TRefObject@UIRefObject@core@UModSys@@U?$TRefObjectFunc@UIRefObject@core@UModSys@@@tl@3@@tl@5@PEBUSUniquePointerInfo@core@5@AEBUSParameters@95@@Z@4HA 000000018001adc0 f    CIL library: CIL module
 0001:00019dc0       ?dtor$0@?0??generate@RGenerator@test1@test@modules@UModSys@@UEAA_NAEAU?$TRefObject@UIRefObject@core@UModSys@@U?$TRefObjectFunc@UIRefObject@core@UModSys@@@tl@3@@tl@5@PEBUSUniquePointerInfo@core@5@AEBUSParameters@95@@Z@4HA 000000018001adc0 f    CIL library: CIL module
 0001:00019dc0       ?dtor$0@?0??generate@RGenerator@images_std@media@modules@UModSys@@UEAA_NAEAU?$TRefObject@UIRefObject@core@UModSys@@U?$TRefObjectFunc@UIRefObject@core@UModSys@@@tl@3@@tl@5@PEBUSUniquePointerInfo@core@5@AEBUSParameters@95@@Z@4HA 000000018001adc0 f    CIL library: CIL module
 0001:00019de0       ?dtor$0@?0???0RRenderDriver2D@SDL_core@ui@modules@UModSys@@QEAA@PEAURTerminal@1234@AEBUSParameters@core@4@@Z@4HA 000000018001ade0 f    CIL library: CIL module
 0001:00019e00       ?dtor$1@?0???0RRenderDriver2D@SDL_core@ui@modules@UModSys@@QEAA@PEAURTerminal@1234@AEBUSParameters@core@4@@Z@4HA 000000018001ae00 f    CIL library: CIL module
 0001:00019e20       ?dtor$2@?0???0RRenderDriver2D@SDL_core@ui@modules@UModSys@@QEAA@PEAURTerminal@1234@AEBUSParameters@core@4@@Z@4HA 000000018001ae20 f    CIL library: CIL module
 0001:00019e40       ?dtor$3@?0???0RRenderDriver2D@SDL_core@ui@modules@UModSys@@QEAA@PEAURTerminal@1234@AEBUSParameters@core@4@@Z@4HA 000000018001ae40 f    CIL library: CIL module
 0001:00019e60       ?dtor$0@?0??create_handler@RTerminal@SDL_core@ui@modules@UModSys@@UEAA_NPEBUSUniquePointerInfo@core@5@AEAU?$TRefObject@UIRefObject@core@UModSys@@U?$TRefObjectFunc@UIRefObject@core@UModSys@@@tl@3@@tl@5@PEBDPEBUSParameters@75@@Z@4HA 000000018001ae60 f    CIL library: CIL module
 0001:00019e80       ?dtor$1@?0??create_handler@RTerminal@SDL_core@ui@modules@UModSys@@UEAA_NPEBUSUniquePointerInfo@core@5@AEAU?$TRefObject@UIRefObject@core@UModSys@@U?$TRefObjectFunc@UIRefObject@core@UModSys@@@tl@3@@tl@5@PEBDPEBUSParameters@75@@Z@4HA 000000018001ae80 f    CIL library: CIL module
 0001:00019ea0       ?dtor$3@?0??create_handler@RTerminal@SDL_core@ui@modules@UModSys@@UEAA_NPEBUSUniquePointerInfo@core@5@AEAU?$TRefObject@UIRefObject@core@UModSys@@U?$TRefObjectFunc@UIRefObject@core@UModSys@@@tl@3@@tl@5@PEBDPEBUSParameters@75@@Z@4HA 000000018001aea0 f    CIL library: CIL module
 0001:00019ec0       ?dtor$9@?0??create_handler@RTerminal@SDL_core@ui@modules@UModSys@@UEAA_NPEBUSUniquePointerInfo@core@5@AEAU?$TRefObject@UIRefObject@core@UModSys@@U?$TRefObjectFunc@UIRefObject@core@UModSys@@@tl@3@@tl@5@PEBDPEBUSParameters@75@@Z@4HA 000000018001aec0 f    CIL library: CIL module
 0001:00019ee0       ?dtor$4@?0??create_handler@RTerminal@SDL_core@ui@modules@UModSys@@UEAA_NPEBUSUniquePointerInfo@core@5@AEAU?$TRefObject@UIRefObject@core@UModSys@@U?$TRefObjectFunc@UIRefObject@core@UModSys@@@tl@3@@tl@5@PEBDPEBUSParameters@75@@Z@4HA 000000018001aee0 f    CIL library: CIL module
 0001:00019f00       ?dtor$6@?0??create_handler@RTerminal@SDL_core@ui@modules@UModSys@@UEAA_NPEBUSUniquePointerInfo@core@5@AEAU?$TRefObject@UIRefObject@core@UModSys@@U?$TRefObjectFunc@UIRefObject@core@UModSys@@@tl@3@@tl@5@PEBDPEBUSParameters@75@@Z@4HA 000000018001af00 f    CIL library: CIL module
 0001:00019f20       ?dtor$11@?0??create_handler@RTerminal@SDL_core@ui@modules@UModSys@@UEAA_NPEBUSUniquePointerInfo@core@5@AEAU?$TRefObject@UIRefObject@core@UModSys@@U?$TRefObjectFunc@UIRefObject@core@UModSys@@@tl@3@@tl@5@PEBDPEBUSParameters@75@@Z@4HA 000000018001af20 f    CIL library: CIL module
 0001:00019f40       ?dtor$7@?0??create_handler@RTerminal@SDL_core@ui@modules@UModSys@@UEAA_NPEBUSUniquePointerInfo@core@5@AEAU?$TRefObject@UIRefObject@core@UModSys@@U?$TRefObjectFunc@UIRefObject@core@UModSys@@@tl@3@@tl@5@PEBDPEBUSParameters@75@@Z@4HA 000000018001af40 f    CIL library: CIL module
 0001:00019f60       ??__E?s_modreg@RModuleReg@test1@test@modules@UModSys@@2U12345@A@@YAXXZ 000000018001af60 f    CIL library: CIL module
 0001:00019fb0       ??__E?s_modreg_chain@RModuleReg@test1@test@modules@UModSys@@2USModuleRegChain@base@5@A@@YAXXZ 000000018001afb0 f    CIL library: CIL module
 0001:00019fe0       ??__E?s_uid@RGenerator@test1@test@modules@UModSys@@2USUniquePointer@core@5@A@@YAXXZ 000000018001afe0 f    CIL library: CIL module
 0001:0001a020       ??__E?s_id@?$TObjectUniqueID@UIRoot@core@UModSys@@@tl@UModSys@@2USUniquePointer@core@3@A@@YAXXZ 000000018001b020 f    CIL library: CIL module
 0001:0001a060       ??__E?s_id@?$TObjectUniqueID@UIRefObject@core@UModSys@@@tl@UModSys@@2USUniquePointer@core@3@A@@YAXXZ 000000018001b060 f    CIL library: CIL module
 0001:0001a0a0       ??__E?s_id@?$TObjectUniqueID@UIParameters@core@UModSys@@@tl@UModSys@@2USUniquePointer@core@3@A@@YAXXZ 000000018001b0a0 f    CIL library: CIL module
 0001:0001a0e0       ??__E?s_id@?$TObjectUniqueID@UIModule@base@UModSys@@@tl@UModSys@@2USUniquePointer@core@3@A@@YAXXZ 000000018001b0e0 f    CIL library: CIL module
 0001:0001a120       ??__E?s_id@?$TObjectUniqueID@UIModuleLibrary@base@UModSys@@@tl@UModSys@@2USUniquePointer@core@3@A@@YAXXZ 000000018001b120 f    CIL library: CIL module
 0001:0001a160       ??__E?s_id@?$TObjectUniqueID@UIModObject@base@UModSys@@@tl@UModSys@@2USUniquePointer@core@3@A@@YAXXZ 000000018001b160 f    CIL library: CIL module
 0001:0001a1a0       ??__E?s_id@?$TObjectUniqueID@UIGenerator@base@UModSys@@@tl@UModSys@@2USUniquePointer@core@3@A@@YAXXZ 000000018001b1a0 f    CIL library: CIL module
 0001:0001a1e0       ??__E?s_id@?$TObjectUniqueID@UIShell@base@UModSys@@@tl@UModSys@@2USUniquePointer@core@3@A@@YAXXZ 000000018001b1e0 f    CIL library: CIL module
 0001:0001a220       ??__E?s_id@?$TObjectUniqueID@UIConsole@base@UModSys@@@tl@UModSys@@2USUniquePointer@core@3@A@@YAXXZ 000000018001b220 f    CIL library: CIL module
 0001:0001a260       ??__E?s_id@?$TObjectUniqueID@UISystem@base@UModSys@@@tl@UModSys@@2USUniquePointer@core@3@A@@YAXXZ 000000018001b260 f    CIL library: CIL module
 0001:0001a2a0       ??__E?s_id@?$TObjectUniqueID@UIStreamReader@libmedia@UModSys@@@tl@UModSys@@2USUniquePointer@core@3@A@@YAXXZ 000000018001b2a0 f    CIL library: CIL module
 0001:0001a2e0       ??__E?s_id@?$TObjectUniqueID@UIStreamWriter@libmedia@UModSys@@@tl@UModSys@@2USUniquePointer@core@3@A@@YAXXZ 000000018001b2e0 f    CIL library: CIL module
 0001:0001a320       ??__E?s_id@?$TObjectUniqueID@UIBinArchive@libmedia@UModSys@@@tl@UModSys@@2USUniquePointer@core@3@A@@YAXXZ 000000018001b320 f    CIL library: CIL module
 0001:0001a360       ??__E?s_id@?$TObjectUniqueID@UIBinObjFilter@libmedia@UModSys@@@tl@UModSys@@2USUniquePointer@core@3@A@@YAXXZ 000000018001b360 f    CIL library: CIL module
 0001:0001a3a0       ??__E?s_id@?$TObjectUniqueID@UILibrary@libmedia@UModSys@@@tl@UModSys@@2USUniquePointer@core@3@A@@YAXXZ 000000018001b3a0 f    CIL library: CIL module
 0001:0001a3e0       ??__E?s_id@?$TObjectUniqueID@UILibraryBinTree@libmedia@UModSys@@@tl@UModSys@@2USUniquePointer@core@3@A@@YAXXZ 000000018001b3e0 f    CIL library: CIL module
 0001:0001a420       ??__E?s_id@?$TObjectUniqueID@UILibraryBinCache@libmedia@UModSys@@@tl@UModSys@@2USUniquePointer@core@3@A@@YAXXZ 000000018001b420 f    CIL library: CIL module
 0001:0001a460       ??__E?s_id@?$TObjectUniqueID@UILibraryObjFilter@libmedia@UModSys@@@tl@UModSys@@2USUniquePointer@core@3@A@@YAXXZ 000000018001b460 f    CIL library: CIL module
 0001:0001a4a0       ??__E?s_id@?$TObjectUniqueID@UILibraryObjCache@libmedia@UModSys@@@tl@UModSys@@2USUniquePointer@core@3@A@@YAXXZ 000000018001b4a0 f    CIL library: CIL module
 0001:0001a4e0       ??__E?s_id@?$TObjectUniqueID@UILibraryLayered@libmedia@UModSys@@@tl@UModSys@@2USUniquePointer@core@3@A@@YAXXZ 000000018001b4e0 f    CIL library: CIL module
 0001:0001a520       ??__E?s_id@?$TObjectUniqueID@UISerializeReader@libmedia@UModSys@@@tl@UModSys@@2USUniquePointer@core@3@A@@YAXXZ 000000018001b520 f    CIL library: CIL module
 0001:0001a560       ??__E?s_id@?$TObjectUniqueID@UISerializeWriter@libmedia@UModSys@@@tl@UModSys@@2USUniquePointer@core@3@A@@YAXXZ 000000018001b560 f    CIL library: CIL module
 0001:0001a5a0       ??__E?s_id@?$TObjectUniqueID@UIConsoleExt@base@UModSys@@@tl@UModSys@@2USUniquePointer@core@3@A@@YAXXZ 000000018001b5a0 f    CIL library: CIL module
 0001:0001a5e0       ??__E?s_id@?$TObjectUniqueID@UIConsoleHelper@base@UModSys@@@tl@UModSys@@2USUniquePointer@core@3@A@@YAXXZ 000000018001b5e0 f    CIL library: CIL module
 0001:0001a620       ??__E?s_id@?$TObjectUniqueID@UIConsoleHelperHistory@base@UModSys@@@tl@UModSys@@2USUniquePointer@core@3@A@@YAXXZ 000000018001b620 f    CIL library: CIL module
 0001:0001a660       ??__E?s_id@?$TObjectUniqueID@UIConsoleHelperInput@base@UModSys@@@tl@UModSys@@2USUniquePointer@core@3@A@@YAXXZ 000000018001b660 f    CIL library: CIL module
 0001:0001a6a0       ??__E?s_id@?$TObjectUniqueID@UIConsoleHelperOutput@base@UModSys@@@tl@UModSys@@2USUniquePointer@core@3@A@@YAXXZ 000000018001b6a0 f    CIL library: CIL module
 0001:0001a6e0       ??__E?s_id@?$TObjectUniqueID@UIConsoleHelperOutputFCS@base@UModSys@@@tl@UModSys@@2USUniquePointer@core@3@A@@YAXXZ 000000018001b6e0 f    CIL library: CIL module
 0001:0001a720       ??__E?s_id@?$TObjectUniqueID@UIKeyboardController@libui@UModSys@@@tl@UModSys@@2USUniquePointer@core@3@A@@YAXXZ 000000018001b720 f    CIL library: CIL module
 0001:0001a760       ??__E?s_id@?$TObjectUniqueID@UIMouseController@libui@UModSys@@@tl@UModSys@@2USUniquePointer@core@3@A@@YAXXZ 000000018001b760 f    CIL library: CIL module
 0001:0001a7a0       ??__E?s_id@?$TObjectUniqueID@UIJoystickController@libui@UModSys@@@tl@UModSys@@2USUniquePointer@core@3@A@@YAXXZ 000000018001b7a0 f    CIL library: CIL module
 0001:0001a7e0       ??__E?s_id@?$TObjectUniqueID@UITerminal@libui@UModSys@@@tl@UModSys@@2USUniquePointer@core@3@A@@YAXXZ 000000018001b7e0 f    CIL library: CIL module
 0001:0001a820       ??__E?s_id@?$TObjectUniqueID@UIConsoleHelperInput_UIKey@libui@UModSys@@@tl@UModSys@@2USUniquePointer@core@3@A@@YAXXZ 000000018001b820 f    CIL library: CIL module
 0001:0001a860       ??__E?s_id@?$TObjectUniqueID@UICollector@libui@UModSys@@@tl@UModSys@@2USUniquePointer@core@3@A@@YAXXZ 000000018001b860 f    CIL library: CIL module
 0001:0001a8a0       ??__E?s_id@?$TObjectUniqueID@UIAsyncController@libui@UModSys@@@tl@UModSys@@2USUniquePointer@core@3@A@@YAXXZ 000000018001b8a0 f    CIL library: CIL module
 0001:0001a8e0       ??__E?s_id@?$TObjectUniqueID@UIAsyncCollector@libui@UModSys@@@tl@UModSys@@2USUniquePointer@core@3@A@@YAXXZ 000000018001b8e0 f    CIL library: CIL module
 0001:0001a920       ??__E?s_id@?$TObjectUniqueID@UIFrame@libui@UModSys@@@tl@UModSys@@2USUniquePointer@core@3@A@@YAXXZ 000000018001b920 f    CIL library: CIL module
 0001:0001a960       ??__E?s_id@?$TObjectUniqueID@UIDialog@libui@UModSys@@@tl@UModSys@@2USUniquePointer@core@3@A@@YAXXZ 000000018001b960 f    CIL library: CIL module
 0001:0001a9a0       ??__E?s_id@?$TObjectUniqueID@UIImage@lib2d@UModSys@@@tl@UModSys@@2USUniquePointer@core@3@A@@YAXXZ 000000018001b9a0 f    CIL library: CIL module
 0001:0001a9e0       ??__E?s_id@?$TObjectUniqueID@UIMultiImage@lib2d@UModSys@@@tl@UModSys@@2USUniquePointer@core@3@A@@YAXXZ 000000018001b9e0 f    CIL library: CIL module
 0001:0001aa20       ??__E?s_id@?$TObjectUniqueID@UIRenderDriver@lib2d@UModSys@@@tl@UModSys@@2USUniquePointer@core@3@A@@YAXXZ 000000018001ba20 f    CIL library: CIL module
 0001:0001aa60       ??__E?s_id@?$TObjectUniqueID@UILines@test1@test@modules@UModSys@@@tl@UModSys@@2USUniquePointer@core@3@A@@YAXXZ 000000018001ba60 f    CIL library: CIL module
 0001:0001aaa0       ??__E?s_id@?$TObjectUniqueID@URLines@test1@test@modules@UModSys@@@tl@UModSys@@2USUniquePointer@core@3@A@@YAXXZ 000000018001baa0 f    CIL library: CIL module
 0001:0001aae0       ??__E?s_id@?$TObjectUniqueID@URLines_Filter@test1@test@modules@UModSys@@@tl@UModSys@@2USUniquePointer@core@3@A@@YAXXZ 000000018001bae0 f    CIL library: CIL module
 0001:0001ab20       ??__E?s_id@?$TObjectUniqueID@URTest1_Shell@test1@test@modules@UModSys@@@tl@UModSys@@2USUniquePointer@core@3@A@@YAXXZ 000000018001bb20 f    CIL library: CIL module
 0001:0001ab60       ??__E?s_id@?$TObjectUniqueID@URGenerator@test1@test@modules@UModSys@@@tl@UModSys@@2USUniquePointer@core@3@A@@YAXXZ 000000018001bb60 f    CIL library: CIL module
 0001:0001aba0       ??__E?s_modreg@RModuleReg@stdlib@lib2d@modules@UModSys@@2U12345@A@@YAXXZ 000000018001bba0 f    CIL library: CIL module
 0001:0001abf0       ??__E?s_modreg_chain@RModuleReg@stdlib@lib2d@modules@UModSys@@2USModuleRegChain@base@5@A@@YAXXZ 000000018001bbf0 f    CIL library: CIL module
 0001:0001ac20       ??__E?s_uid@RGenerator@stdlib@lib2d@modules@UModSys@@2USUniquePointer@core@5@A@@YAXXZ 000000018001bc20 f    CIL library: CIL module
 0001:0001ac60       ??__E?s_id@?$TObjectUniqueID@URImage_Memory@stdlib@lib2d@modules@UModSys@@@tl@UModSys@@2USUniquePointer@core@3@A@@YAXXZ 000000018001bc60 f    CIL library: CIL module
 0001:0001aca0       ??__E?s_id@?$TObjectUniqueID@URGenerator@stdlib@lib2d@modules@UModSys@@@tl@UModSys@@2USUniquePointer@core@3@A@@YAXXZ 000000018001bca0 f    CIL library: CIL module
 0001:0001ace0       ??__E?s_modreg@RModuleReg@SDL_core@ui@modules@UModSys@@2U12345@A@@YAXXZ 000000018001bce0 f    CIL library: CIL module
 0001:0001ad30       ??__E?s_modreg_chain@RModuleReg@SDL_core@ui@modules@UModSys@@2USModuleRegChain@base@5@A@@YAXXZ 000000018001bd30 f    CIL library: CIL module
 0001:0001ad60       ??__E?s_uid@RGenerator@SDL_core@ui@modules@UModSys@@2USUniquePointer@core@5@A@@YAXXZ 000000018001bd60 f    CIL library: CIL module
 0001:0001ada0       ??__E?s_id@?$TObjectUniqueID@URMultiImage2D_SDL_ttf@SDL_core@ui@modules@UModSys@@@tl@UModSys@@2USUniquePointer@core@3@A@@YAXXZ 000000018001bda0 f    CIL library: CIL module
 0001:0001ade0       ??__E?s_id@?$TObjectUniqueID@URRenderDriver2D@SDL_core@ui@modules@UModSys@@@tl@UModSys@@2USUniquePointer@core@3@A@@YAXXZ 000000018001bde0 f    CIL library: CIL module
 0001:0001ae20       ??__E?s_id@?$TObjectUniqueID@URMouseController@SDL_core@ui@modules@UModSys@@@tl@UModSys@@2USUniquePointer@core@3@A@@YAXXZ 000000018001be20 f    CIL library: CIL module
 0001:0001ae60       ??__E?s_id@?$TObjectUniqueID@URKeyboardController@SDL_core@ui@modules@UModSys@@@tl@UModSys@@2USUniquePointer@core@3@A@@YAXXZ 000000018001be60 f    CIL library: CIL module
 0001:0001aea0       ??__E?s_id@?$TObjectUniqueID@URTerminal@SDL_core@ui@modules@UModSys@@@tl@UModSys@@2USUniquePointer@core@3@A@@YAXXZ 000000018001bea0 f    CIL library: CIL module
 0001:0001aee0       ??__E?s_id@?$TObjectUniqueID@URGenerator@SDL_core@ui@modules@UModSys@@@tl@UModSys@@2USUniquePointer@core@3@A@@YAXXZ 000000018001bee0 f    CIL library: CIL module
 0001:0001af20       ??__E?s_modreg@RModuleReg@frames@ui@modules@UModSys@@2U12345@A@@YAXXZ 000000018001bf20 f    CIL library: CIL module
 0001:0001af70       ??__E?s_modreg_chain@RModuleReg@frames@ui@modules@UModSys@@2USModuleRegChain@base@5@A@@YAXXZ 000000018001bf70 f    CIL library: CIL module
 0001:0001afa0       ??__E?s_uid@RGenerator@frames@ui@modules@UModSys@@2USUniquePointer@core@5@A@@YAXXZ 000000018001bfa0 f    CIL library: CIL module
 0001:0001afe0       ??__E?s_id@?$TObjectUniqueID@URFrame_Common@frames@ui@modules@UModSys@@@tl@UModSys@@2USUniquePointer@core@3@A@@YAXXZ 000000018001bfe0 f    CIL library: CIL module
 0001:0001b020       ??__E?s_id@?$TObjectUniqueID@URDialog@frames@ui@modules@UModSys@@@tl@UModSys@@2USUniquePointer@core@3@A@@YAXXZ 000000018001c020 f    CIL library: CIL module
 0001:0001b060       ??__E?s_id@?$TObjectUniqueID@URFrame_Frame@frames@ui@modules@UModSys@@@tl@UModSys@@2USUniquePointer@core@3@A@@YAXXZ 000000018001c060 f    CIL library: CIL module
 0001:0001b0a0       ??__E?s_id@?$TObjectUniqueID@URFrame_Image@frames@ui@modules@UModSys@@@tl@UModSys@@2USUniquePointer@core@3@A@@YAXXZ 000000018001c0a0 f    CIL library: CIL module
 0001:0001b0e0       ??__E?s_id@?$TObjectUniqueID@URFrame_Text@frames@ui@modules@UModSys@@@tl@UModSys@@2USUniquePointer@core@3@A@@YAXXZ 000000018001c0e0 f    CIL library: CIL module
 0001:0001b120       ??__E?s_id@?$TObjectUniqueID@URFrame_Button@frames@ui@modules@UModSys@@@tl@UModSys@@2USUniquePointer@core@3@A@@YAXXZ 000000018001c120 f    CIL library: CIL module
 0001:0001b160       ??__E?s_id@?$TObjectUniqueID@URFrame_Edit@frames@ui@modules@UModSys@@@tl@UModSys@@2USUniquePointer@core@3@A@@YAXXZ 000000018001c160 f    CIL library: CIL module
 0001:0001b1a0       ??__E?s_id@?$TObjectUniqueID@URFrame_List@frames@ui@modules@UModSys@@@tl@UModSys@@2USUniquePointer@core@3@A@@YAXXZ 000000018001c1a0 f    CIL library: CIL module
 0001:0001b1e0       ??__E?s_id@?$TObjectUniqueID@URCollector@frames@ui@modules@UModSys@@@tl@UModSys@@2USUniquePointer@core@3@A@@YAXXZ 000000018001c1e0 f    CIL library: CIL module
 0001:0001b220       ??__E?s_id@?$TObjectUniqueID@URGenerator@frames@ui@modules@UModSys@@@tl@UModSys@@2USUniquePointer@core@3@A@@YAXXZ 000000018001c220 f    CIL library: CIL module
 0001:0001b260       ??__E?s_modreg@RModuleReg@images_std@media@modules@UModSys@@2U12345@A@@YAXXZ 000000018001c260 f    CIL library: CIL module
 0001:0001b2b0       ??__E?s_modreg_chain@RModuleReg@images_std@media@modules@UModSys@@2USModuleRegChain@base@5@A@@YAXXZ 000000018001c2b0 f    CIL library: CIL module
 0001:0001b2e0       ??__E?s_uid@RGenerator@images_std@media@modules@UModSys@@2USUniquePointer@core@5@A@@YAXXZ 000000018001c2e0 f    CIL library: CIL module
 0001:0001b320       ??__E?s_id@?$TObjectUniqueID@URMediaFilter@images_std@media@modules@UModSys@@@tl@UModSys@@2USUniquePointer@core@3@A@@YAXXZ 000000018001c320 f    CIL library: CIL module
 0001:0001b360       ??__E?s_id@?$TObjectUniqueID@URGenerator@images_std@media@modules@UModSys@@@tl@UModSys@@2USUniquePointer@core@3@A@@YAXXZ 000000018001c360 f    CIL library: CIL module
 0001:0001b3a0       ??__E?s_modreg@RModuleReg@serialize_json@media@modules@UModSys@@2U12345@A@@YAXXZ 000000018001c3a0 f    CIL library: CIL module
 0001:0001b3f0       ??__E?s_modreg_chain@RModuleReg@serialize_json@media@modules@UModSys@@2USModuleRegChain@base@5@A@@YAXXZ 000000018001c3f0 f    CIL library: CIL module
 0001:0001b420       ??__E?s_uid@RGenerator@serialize_json@media@modules@UModSys@@2USUniquePointer@core@5@A@@YAXXZ 000000018001c420 f    CIL library: CIL module
 0001:0001b460       ??__E?s_id@?$TObjectUniqueID@URSerializeReader@serialize_json@media@modules@UModSys@@@tl@UModSys@@2USUniquePointer@core@3@A@@YAXXZ 000000018001c460 f    CIL library: CIL module
 0001:0001b4a0       ??__E?s_id@?$TObjectUniqueID@URSerializeWriter@serialize_json@media@modules@UModSys@@@tl@UModSys@@2USUniquePointer@core@3@A@@YAXXZ 000000018001c4a0 f    CIL library: CIL module
 0001:0001b4e0       ??__E?s_id@?$TObjectUniqueID@URGenerator@serialize_json@media@modules@UModSys@@@tl@UModSys@@2USUniquePointer@core@3@A@@YAXXZ 000000018001c4e0 f    CIL library: CIL module
 0001:0001b520       ??__EM@UModSys@@YAXXZ      000000018001c520 f    CIL library: CIL module
 0001:0001b540       ??__E?root@SModuleRegChain@base@UModSys@@2U123@A@@YAXXZ 000000018001c540 f    CIL library: CIL module
 0001:0001b570       ??__E?s_library@RModuleLibraryReg_Chain@base@UModSys@@2U123@A@@YAXXZ 000000018001c570 f    CIL library: CIL module
 0001:0001b590       ??__E?root@SUniquePointer@core@UModSys@@2U123@A@@YAXXZ 000000018001c590 f    CIL library: CIL module
 0001:0001b5c0       ??__F?s_modreg@RModuleReg@test1@test@modules@UModSys@@2U12345@A@@YAXXZ 000000018001c5c0 f    CIL library: CIL module
 0001:0001b5e0       ??__F?s_modreg_chain@RModuleReg@test1@test@modules@UModSys@@2USModuleRegChain@base@5@A@@YAXXZ 000000018001c5e0 f    CIL library: CIL module
 0001:0001b5f0       ??__F?s_uid@RGenerator@test1@test@modules@UModSys@@2USUniquePointer@core@5@A@@YAXXZ 000000018001c5f0 f    CIL library: CIL module
 0001:0001b600       ??__Fh@?1??s_holder@RGenerator@test1@test@modules@UModSys@@SAAEAU?$TTypeStaticHolder@URGenerator@test1@test@modules@UModSys@@@tl@5@XZ@YAXXZ 000000018001c600 f    CIL library: CIL module
 0001:0001b630       ??__F?s_id@?$TObjectUniqueID@URGenerator@test1@test@modules@UModSys@@@tl@UModSys@@2USUniquePointer@core@3@A@@YAXXZ 000000018001c630 f    CIL library: CIL module
 0001:0001b640       ??__F?s_id@?$TObjectUniqueID@URTest1_Shell@test1@test@modules@UModSys@@@tl@UModSys@@2USUniquePointer@core@3@A@@YAXXZ 000000018001c640 f    CIL library: CIL module
 0001:0001b650       ??__F?s_id@?$TObjectUniqueID@URLines_Filter@test1@test@modules@UModSys@@@tl@UModSys@@2USUniquePointer@core@3@A@@YAXXZ 000000018001c650 f    CIL library: CIL module
 0001:0001b660       ??__F?s_id@?$TObjectUniqueID@URLines@test1@test@modules@UModSys@@@tl@UModSys@@2USUniquePointer@core@3@A@@YAXXZ 000000018001c660 f    CIL library: CIL module
 0001:0001b670       ??__F?s_id@?$TObjectUniqueID@UILines@test1@test@modules@UModSys@@@tl@UModSys@@2USUniquePointer@core@3@A@@YAXXZ 000000018001c670 f    CIL library: CIL module
 0001:0001b680       ??__F?s_id@?$TObjectUniqueID@UIRenderDriver@lib2d@UModSys@@@tl@UModSys@@2USUniquePointer@core@3@A@@YAXXZ 000000018001c680 f    CIL library: CIL module
 0001:0001b690       ??__F?s_id@?$TObjectUniqueID@UIMultiImage@lib2d@UModSys@@@tl@UModSys@@2USUniquePointer@core@3@A@@YAXXZ 000000018001c690 f    CIL library: CIL module
 0001:0001b6a0       ??__F?s_id@?$TObjectUniqueID@UIImage@lib2d@UModSys@@@tl@UModSys@@2USUniquePointer@core@3@A@@YAXXZ 000000018001c6a0 f    CIL library: CIL module
 0001:0001b6b0       ??__F?s_id@?$TObjectUniqueID@UIDialog@libui@UModSys@@@tl@UModSys@@2USUniquePointer@core@3@A@@YAXXZ 000000018001c6b0 f    CIL library: CIL module
 0001:0001b6c0       ??__F?s_id@?$TObjectUniqueID@UIFrame@libui@UModSys@@@tl@UModSys@@2USUniquePointer@core@3@A@@YAXXZ 000000018001c6c0 f    CIL library: CIL module
 0001:0001b6d0       ??__F?s_id@?$TObjectUniqueID@UIAsyncCollector@libui@UModSys@@@tl@UModSys@@2USUniquePointer@core@3@A@@YAXXZ 000000018001c6d0 f    CIL library: CIL module
 0001:0001b6e0       ??__F?s_id@?$TObjectUniqueID@UIAsyncController@libui@UModSys@@@tl@UModSys@@2USUniquePointer@core@3@A@@YAXXZ 000000018001c6e0 f    CIL library: CIL module
 0001:0001b6f0       ??__F?s_id@?$TObjectUniqueID@UICollector@libui@UModSys@@@tl@UModSys@@2USUniquePointer@core@3@A@@YAXXZ 000000018001c6f0 f    CIL library: CIL module
 0001:0001b700       ??__F?s_id@?$TObjectUniqueID@UIConsoleHelperInput_UIKey@libui@UModSys@@@tl@UModSys@@2USUniquePointer@core@3@A@@YAXXZ 000000018001c700 f    CIL library: CIL module
 0001:0001b710       ??__F?s_id@?$TObjectUniqueID@UITerminal@libui@UModSys@@@tl@UModSys@@2USUniquePointer@core@3@A@@YAXXZ 000000018001c710 f    CIL library: CIL module
 0001:0001b720       ??__F?s_id@?$TObjectUniqueID@UIJoystickController@libui@UModSys@@@tl@UModSys@@2USUniquePointer@core@3@A@@YAXXZ 000000018001c720 f    CIL library: CIL module
 0001:0001b730       ??__F?s_id@?$TObjectUniqueID@UIMouseController@libui@UModSys@@@tl@UModSys@@2USUniquePointer@core@3@A@@YAXXZ 000000018001c730 f    CIL library: CIL module
 0001:0001b740       ??__F?s_id@?$TObjectUniqueID@UIKeyboardController@libui@UModSys@@@tl@UModSys@@2USUniquePointer@core@3@A@@YAXXZ 000000018001c740 f    CIL library: CIL module
 0001:0001b750       ??__F?s_id@?$TObjectUniqueID@UIConsoleHelperOutputFCS@base@UModSys@@@tl@UModSys@@2USUniquePointer@core@3@A@@YAXXZ 000000018001c750 f    CIL library: CIL module
 0001:0001b760       ??__F?s_id@?$TObjectUniqueID@UIConsoleHelperOutput@base@UModSys@@@tl@UModSys@@2USUniquePointer@core@3@A@@YAXXZ 000000018001c760 f    CIL library: CIL module
 0001:0001b770       ??__F?s_id@?$TObjectUniqueID@UIConsoleHelperInput@base@UModSys@@@tl@UModSys@@2USUniquePointer@core@3@A@@YAXXZ 000000018001c770 f    CIL library: CIL module
 0001:0001b780       ??__F?s_id@?$TObjectUniqueID@UIConsoleHelperHistory@base@UModSys@@@tl@UModSys@@2USUniquePointer@core@3@A@@YAXXZ 000000018001c780 f    CIL library: CIL module
 0001:0001b790       ??__F?s_id@?$TObjectUniqueID@UIConsoleHelper@base@UModSys@@@tl@UModSys@@2USUniquePointer@core@3@A@@YAXXZ 000000018001c790 f    CIL library: CIL module
 0001:0001b7a0       ??__F?s_id@?$TObjectUniqueID@UIConsoleExt@base@UModSys@@@tl@UModSys@@2USUniquePointer@core@3@A@@YAXXZ 000000018001c7a0 f    CIL library: CIL module
 0001:0001b7b0       ??__F?s_id@?$TObjectUniqueID@UISerializeWriter@libmedia@UModSys@@@tl@UModSys@@2USUniquePointer@core@3@A@@YAXXZ 000000018001c7b0 f    CIL library: CIL module
 0001:0001b7c0       ??__F?s_id@?$TObjectUniqueID@UISerializeReader@libmedia@UModSys@@@tl@UModSys@@2USUniquePointer@core@3@A@@YAXXZ 000000018001c7c0 f    CIL library: CIL module
 0001:0001b7d0       ??__F?s_id@?$TObjectUniqueID@UILibraryLayered@libmedia@UModSys@@@tl@UModSys@@2USUniquePointer@core@3@A@@YAXXZ 000000018001c7d0 f    CIL library: CIL module
 0001:0001b7e0       ??__F?s_id@?$TObjectUniqueID@UILibraryObjCache@libmedia@UModSys@@@tl@UModSys@@2USUniquePointer@core@3@A@@YAXXZ 000000018001c7e0 f    CIL library: CIL module
 0001:0001b7f0       ??__F?s_id@?$TObjectUniqueID@UILibraryObjFilter@libmedia@UModSys@@@tl@UModSys@@2USUniquePointer@core@3@A@@YAXXZ 000000018001c7f0 f    CIL library: CIL module
 0001:0001b800       ??__F?s_id@?$TObjectUniqueID@UILibraryBinCache@libmedia@UModSys@@@tl@UModSys@@2USUniquePointer@core@3@A@@YAXXZ 000000018001c800 f    CIL library: CIL module
 0001:0001b810       ??__F?s_id@?$TObjectUniqueID@UILibraryBinTree@libmedia@UModSys@@@tl@UModSys@@2USUniquePointer@core@3@A@@YAXXZ 000000018001c810 f    CIL library: CIL module
 0001:0001b820       ??__F?s_id@?$TObjectUniqueID@UILibrary@libmedia@UModSys@@@tl@UModSys@@2USUniquePointer@core@3@A@@YAXXZ 000000018001c820 f    CIL library: CIL module
 0001:0001b830       ??__F?s_id@?$TObjectUniqueID@UIBinObjFilter@libmedia@UModSys@@@tl@UModSys@@2USUniquePointer@core@3@A@@YAXXZ 000000018001c830 f    CIL library: CIL module
 0001:0001b840       ??__F?s_id@?$TObjectUniqueID@UIBinArchive@libmedia@UModSys@@@tl@UModSys@@2USUniquePointer@core@3@A@@YAXXZ 000000018001c840 f    CIL library: CIL module
 0001:0001b850       ??__F?s_id@?$TObjectUniqueID@UIStreamWriter@libmedia@UModSys@@@tl@UModSys@@2USUniquePointer@core@3@A@@YAXXZ 000000018001c850 f    CIL library: CIL module
 0001:0001b860       ??__F?s_id@?$TObjectUniqueID@UIStreamReader@libmedia@UModSys@@@tl@UModSys@@2USUniquePointer@core@3@A@@YAXXZ 000000018001c860 f    CIL library: CIL module
 0001:0001b870       ??__F?s_id@?$TObjectUniqueID@UISystem@base@UModSys@@@tl@UModSys@@2USUniquePointer@core@3@A@@YAXXZ 000000018001c870 f    CIL library: CIL module
 0001:0001b880       ??__F?s_id@?$TObjectUniqueID@UIConsole@base@UModSys@@@tl@UModSys@@2USUniquePointer@core@3@A@@YAXXZ 000000018001c880 f    CIL library: CIL module
 0001:0001b890       ??__F?s_id@?$TObjectUniqueID@UIShell@base@UModSys@@@tl@UModSys@@2USUniquePointer@core@3@A@@YAXXZ 000000018001c890 f    CIL library: CIL module
 0001:0001b8a0       ??__F?s_id@?$TObjectUniqueID@UIGenerator@base@UModSys@@@tl@UModSys@@2USUniquePointer@core@3@A@@YAXXZ 000000018001c8a0 f    CIL library: CIL module
 0001:0001b8b0       ??__F?s_id@?$TObjectUniqueID@UIModObject@base@UModSys@@@tl@UModSys@@2USUniquePointer@core@3@A@@YAXXZ 000000018001c8b0 f    CIL library: CIL module
 0001:0001b8c0       ??__F?s_id@?$TObjectUniqueID@UIModuleLibrary@base@UModSys@@@tl@UModSys@@2USUniquePointer@core@3@A@@YAXXZ 000000018001c8c0 f    CIL library: CIL module
 0001:0001b8d0       ??__F?s_id@?$TObjectUniqueID@UIModule@base@UModSys@@@tl@UModSys@@2USUniquePointer@core@3@A@@YAXXZ 000000018001c8d0 f    CIL library: CIL module
 0001:0001b8e0       ??__F?s_id@?$TObjectUniqueID@UIParameters@core@UModSys@@@tl@UModSys@@2USUniquePointer@core@3@A@@YAXXZ 000000018001c8e0 f    CIL library: CIL module
 0001:0001b8f0       ??__F?s_id@?$TObjectUniqueID@UIRefObject@core@UModSys@@@tl@UModSys@@2USUniquePointer@core@3@A@@YAXXZ 000000018001c8f0 f    CIL library: CIL module
 0001:0001b900       ??__F?s_id@?$TObjectUniqueID@UIRoot@core@UModSys@@@tl@UModSys@@2USUniquePointer@core@3@A@@YAXXZ 000000018001c900 f    CIL library: CIL module
 0001:0001b910       ??__F?s_modreg@RModuleReg@stdlib@lib2d@modules@UModSys@@2U12345@A@@YAXXZ 000000018001c910 f    CIL library: CIL module
 0001:0001b930       ??__F?s_modreg_chain@RModuleReg@stdlib@lib2d@modules@UModSys@@2USModuleRegChain@base@5@A@@YAXXZ 000000018001c930 f    CIL library: CIL module
 0001:0001b940       ??__F?s_uid@RGenerator@stdlib@lib2d@modules@UModSys@@2USUniquePointer@core@5@A@@YAXXZ 000000018001c940 f    CIL library: CIL module
 0001:0001b950       ??__Fh@?1??s_holder@RGenerator@stdlib@lib2d@modules@UModSys@@SAAEAU?$TTypeStaticHolder@URGenerator@stdlib@lib2d@modules@UModSys@@@tl@5@XZ@YAXXZ 000000018001c950 f    CIL library: CIL module
 0001:0001b980       ??__F?s_id@?$TObjectUniqueID@URGenerator@stdlib@lib2d@modules@UModSys@@@tl@UModSys@@2USUniquePointer@core@3@A@@YAXXZ 000000018001c980 f    CIL library: CIL module
 0001:0001b990       ??__F?s_id@?$TObjectUniqueID@URImage_Memory@stdlib@lib2d@modules@UModSys@@@tl@UModSys@@2USUniquePointer@core@3@A@@YAXXZ 000000018001c990 f    CIL library: CIL module
 0001:0001b9a0       ??__F?s_modreg@RModuleReg@SDL_core@ui@modules@UModSys@@2U12345@A@@YAXXZ 000000018001c9a0 f    CIL library: CIL module
 0001:0001b9c0       ??__F?s_modreg_chain@RModuleReg@SDL_core@ui@modules@UModSys@@2USModuleRegChain@base@5@A@@YAXXZ 000000018001c9c0 f    CIL library: CIL module
 0001:0001b9d0       ??__F?s_uid@RGenerator@SDL_core@ui@modules@UModSys@@2USUniquePointer@core@5@A@@YAXXZ 000000018001c9d0 f    CIL library: CIL module
 0001:0001b9e0       ??__Fh@?1??s_holder@RGenerator@SDL_core@ui@modules@UModSys@@SAAEAU?$TTypeStaticHolder@URGenerator@SDL_core@ui@modules@UModSys@@@tl@5@XZ@YAXXZ 000000018001c9e0 f    CIL library: CIL module
 0001:0001ba10       ??__F?s_id@?$TObjectUniqueID@URGenerator@SDL_core@ui@modules@UModSys@@@tl@UModSys@@2USUniquePointer@core@3@A@@YAXXZ 000000018001ca10 f    CIL library: CIL module
 0001:0001ba20       ??__F?s_id@?$TObjectUniqueID@URTerminal@SDL_core@ui@modules@UModSys@@@tl@UModSys@@2USUniquePointer@core@3@A@@YAXXZ 000000018001ca20 f    CIL library: CIL module
 0001:0001ba30       ??__F?s_id@?$TObjectUniqueID@URKeyboardController@SDL_core@ui@modules@UModSys@@@tl@UModSys@@2USUniquePointer@core@3@A@@YAXXZ 000000018001ca30 f    CIL library: CIL module
 0001:0001ba40       ??__F?s_id@?$TObjectUniqueID@URMouseController@SDL_core@ui@modules@UModSys@@@tl@UModSys@@2USUniquePointer@core@3@A@@YAXXZ 000000018001ca40 f    CIL library: CIL module
 0001:0001ba50       ??__F?s_id@?$TObjectUniqueID@URRenderDriver2D@SDL_core@ui@modules@UModSys@@@tl@UModSys@@2USUniquePointer@core@3@A@@YAXXZ 000000018001ca50 f    CIL library: CIL module
 0001:0001ba60       ??__F?s_id@?$TObjectUniqueID@URMultiImage2D_SDL_ttf@SDL_core@ui@modules@UModSys@@@tl@UModSys@@2USUniquePointer@core@3@A@@YAXXZ 000000018001ca60 f    CIL library: CIL module
 0001:0001ba70       ??__F?s_modreg@RModuleReg@frames@ui@modules@UModSys@@2U12345@A@@YAXXZ 000000018001ca70 f    CIL library: CIL module
 0001:0001ba90       ??__F?s_modreg_chain@RModuleReg@frames@ui@modules@UModSys@@2USModuleRegChain@base@5@A@@YAXXZ 000000018001ca90 f    CIL library: CIL module
 0001:0001baa0       ??__F?s_uid@RGenerator@frames@ui@modules@UModSys@@2USUniquePointer@core@5@A@@YAXXZ 000000018001caa0 f    CIL library: CIL module
 0001:0001bab0       ??__Fh@?1??s_holder@RGenerator@frames@ui@modules@UModSys@@SAAEAU?$TTypeStaticHolder@URGenerator@frames@ui@modules@UModSys@@@tl@5@XZ@YAXXZ 000000018001cab0 f    CIL library: CIL module
 0001:0001bae0       ??__F?s_id@?$TObjectUniqueID@URGenerator@frames@ui@modules@UModSys@@@tl@UModSys@@2USUniquePointer@core@3@A@@YAXXZ 000000018001cae0 f    CIL library: CIL module
 0001:0001baf0       ??__F?s_id@?$TObjectUniqueID@URCollector@frames@ui@modules@UModSys@@@tl@UModSys@@2USUniquePointer@core@3@A@@YAXXZ 000000018001caf0 f    CIL library: CIL module
 0001:0001bb00       ??__F?s_id@?$TObjectUniqueID@URFrame_List@frames@ui@modules@UModSys@@@tl@UModSys@@2USUniquePointer@core@3@A@@YAXXZ 000000018001cb00 f    CIL library: CIL module
 0001:0001bb10       ??__F?s_id@?$TObjectUniqueID@URFrame_Edit@frames@ui@modules@UModSys@@@tl@UModSys@@2USUniquePointer@core@3@A@@YAXXZ 000000018001cb10 f    CIL library: CIL module
 0001:0001bb20       ??__F?s_id@?$TObjectUniqueID@URFrame_Button@frames@ui@modules@UModSys@@@tl@UModSys@@2USUniquePointer@core@3@A@@YAXXZ 000000018001cb20 f    CIL library: CIL module
 0001:0001bb30       ??__F?s_id@?$TObjectUniqueID@URFrame_Text@frames@ui@modules@UModSys@@@tl@UModSys@@2USUniquePointer@core@3@A@@YAXXZ 000000018001cb30 f    CIL library: CIL module
 0001:0001bb40       ??__F?s_id@?$TObjectUniqueID@URFrame_Image@frames@ui@modules@UModSys@@@tl@UModSys@@2USUniquePointer@core@3@A@@YAXXZ 000000018001cb40 f    CIL library: CIL module
 0001:0001bb50       ??__F?s_id@?$TObjectUniqueID@URFrame_Frame@frames@ui@modules@UModSys@@@tl@UModSys@@2USUniquePointer@core@3@A@@YAXXZ 000000018001cb50 f    CIL library: CIL module
 0001:0001bb60       ??__F?s_id@?$TObjectUniqueID@URDialog@frames@ui@modules@UModSys@@@tl@UModSys@@2USUniquePointer@core@3@A@@YAXXZ 000000018001cb60 f    CIL library: CIL module
 0001:0001bb70       ??__F?s_id@?$TObjectUniqueID@URFrame_Common@frames@ui@modules@UModSys@@@tl@UModSys@@2USUniquePointer@core@3@A@@YAXXZ 000000018001cb70 f    CIL library: CIL module
 0001:0001bb80       ??__F?s_modreg@RModuleReg@images_std@media@modules@UModSys@@2U12345@A@@YAXXZ 000000018001cb80 f    CIL library: CIL module
 0001:0001bba0       ??__F?s_modreg_chain@RModuleReg@images_std@media@modules@UModSys@@2USModuleRegChain@base@5@A@@YAXXZ 000000018001cba0 f    CIL library: CIL module
 0001:0001bbb0       ??__F?s_uid@RGenerator@images_std@media@modules@UModSys@@2USUniquePointer@core@5@A@@YAXXZ 000000018001cbb0 f    CIL library: CIL module
 0001:0001bbc0       ??__Fh@?1??s_holder@RGenerator@images_std@media@modules@UModSys@@SAAEAU?$TTypeStaticHolder@URGenerator@images_std@media@modules@UModSys@@@tl@5@XZ@YAXXZ 000000018001cbc0 f    CIL library: CIL module
 0001:0001bbf0       ??__F?s_id@?$TObjectUniqueID@URGenerator@images_std@media@modules@UModSys@@@tl@UModSys@@2USUniquePointer@core@3@A@@YAXXZ 000000018001cbf0 f    CIL library: CIL module
 0001:0001bc00       ??__F?s_id@?$TObjectUniqueID@URMediaFilter@images_std@media@modules@UModSys@@@tl@UModSys@@2USUniquePointer@core@3@A@@YAXXZ 000000018001cc00 f    CIL library: CIL module
 0001:0001bc10       ??__F?s_modreg@RModuleReg@serialize_json@media@modules@UModSys@@2U12345@A@@YAXXZ 000000018001cc10 f    CIL library: CIL module
 0001:0001bc30       ??__F?s_modreg_chain@RModuleReg@serialize_json@media@modules@UModSys@@2USModuleRegChain@base@5@A@@YAXXZ 000000018001cc30 f    CIL library: CIL module
 0001:0001bc40       ??__F?s_uid@RGenerator@serialize_json@media@modules@UModSys@@2USUniquePointer@core@5@A@@YAXXZ 000000018001cc40 f    CIL library: CIL module
 0001:0001bc50       ??__Fh@?1??s_holder@RGenerator@serialize_json@media@modules@UModSys@@SAAEAU?$TTypeStaticHolder@URGenerator@serialize_json@media@modules@UModSys@@@tl@5@XZ@YAXXZ 000000018001cc50 f    CIL library: CIL module
 0001:0001bc80       ??__F?s_id@?$TObjectUniqueID@URGenerator@serialize_json@media@modules@UModSys@@@tl@UModSys@@2USUniquePointer@core@3@A@@YAXXZ 000000018001cc80 f    CIL library: CIL module
 0001:0001bc90       ??__F?s_id@?$TObjectUniqueID@URSerializeWriter@serialize_json@media@modules@UModSys@@@tl@UModSys@@2USUniquePointer@core@3@A@@YAXXZ 000000018001cc90 f    CIL library: CIL module
 0001:0001bca0       ??__F?s_id@?$TObjectUniqueID@URSerializeReader@serialize_json@media@modules@UModSys@@@tl@UModSys@@2USUniquePointer@core@3@A@@YAXXZ 000000018001cca0 f    CIL library: CIL module
 0001:0001bcb0       ??__FM@UModSys@@YAXXZ      000000018001ccb0 f    CIL library: CIL module
 0001:0001bcc0       ??__F?root@SModuleRegChain@base@UModSys@@2U123@A@@YAXXZ 000000018001ccc0 f    CIL library: CIL module
 0001:0001bcd0       ??__F?s_library@RModuleLibraryReg_Chain@base@UModSys@@2U123@A@@YAXXZ 000000018001ccd0 f    CIL library: CIL module
 0001:0001bce0       ??__F?root@SUniquePointer@core@UModSys@@2U123@A@@YAXXZ 000000018001cce0 f    CIL library: CIL module

 Exports

  ordinal    name

        1    UModSys_Plugin_Entry2
