 plugin_test1

 Timestamp is 5329b459 (Wed Mar 19 18:14:33 2014)

 Preferred load address is 0000000180000000

 Start         Length     Name                   Class
 0001:00000000 000457e6H .text                   CODE
 0001:000457f0 0000005eH .text$00                CODE
 0001:00045850 00001f68H .text$x                 CODE
 0001:000477c0 00002112H .text$yc                CODE
 0001:000498e0 00000a3cH .text$yd                CODE
 0002:00000000 000003e0H .idata$5                DATA
 0002:000003e0 00000008H .CRT$XCA                DATA
 0002:000003e8 00001f80H .CRT$XCU                DATA
 0002:00002368 00000008H .CRT$XCZ                DATA
 0002:00002370 00000008H .CRT$XIA                DATA
 0002:00002378 00000008H .CRT$XIAA               DATA
 0002:00002380 00000008H .CRT$XIZ                DATA
 0002:00002390 000105c8H .rdata                  DATA
 0002:00012960 000031c4H .rdata$r                DATA
 0002:00015b28 00000008H .rtc$IAA                DATA
 0002:00015b30 00000008H .rtc$IZZ                DATA
 0002:00015b38 00000008H .rtc$TAA                DATA
 0002:00015b40 00000008H .rtc$TZZ                DATA
 0002:00015b48 00004ae8H .xdata                  DATA
 0002:0001a630 00000078H .idata$2                DATA
 0002:0001a6a8 00000014H .idata$3                DATA
 0002:0001a6c0 000003e0H .idata$4                DATA
 0002:0001aaa0 000008beH .idata$6                DATA
 0002:0001b360 00000059H .edata                  DATA
 0003:00000000 000018a0H .data                   DATA
 0003:000018a0 00002318H .bss                    DATA
 0004:00000000 000035f4H .pdata                  DATA

  Address         Publics by Value              Rva+Base               Lib:Object

 0000:00000000       ___safe_se_handler_count   0000000000000000     <absolute>
 0000:00000000       ___safe_se_handler_table   0000000000000000     <absolute>
 0000:00000000       __ImageBase                0000000180000000     <linker-defined>
 0001:00000000       ??1SCMemShared@core@UModSys@@QEAA@XZ 0000000180001000 f i plugin_test1.obj
 0001:00000000       ??1SMemShared@core@UModSys@@QEAA@XZ 0000000180001000 f i plugin_test1.obj
 0001:00000000       ??1State@RImage_Memory@stdlib@lib2d@modules@UModSys@@QEAA@XZ 0000000180001000 f i umodsys_lib_lib2d:umodsys.mod.2d.stdlib.obj
 0001:00000030       ??3IRoot@core@UModSys@@SAXPEAXAEBUSIMemAlloc@12@@Z 0000000180001030 f i plugin_test1.obj
 0001:00000040       ??_EIRoot@core@UModSys@@UEAAPEAXI@Z 0000000180001040 f i  CIL library: CIL module
 0001:00000040       ??_GIRoot@core@UModSys@@UEAAPEAXI@Z 0000000180001040 f i plugin_test1.obj
 0001:00000070       ??1IBinObjFilter@libmedia@UModSys@@UEAA@XZ 0000000180001070 f i plugin_test1.obj
 0001:000000b0       ?root_get_interface_info@RTest1_Shell@test1@test@modules@UModSys@@UEBAAEBUSUniquePointerInfo@core@5@XZ 00000001800010b0 f i plugin_test1.obj
 0001:000000c0       ?root_get_interface_type@RTest1_Shell@test1@test@modules@UModSys@@UEBAPEBUSUniquePointerInfo@core@5@XZ 00000001800010c0 f i plugin_test1.obj
 0001:000000d0       ?root_get_other_interface@RTest1_Shell@test1@test@modules@UModSys@@UEBAPEBUIRoot@core@5@PEBUSUniquePointerInfo@75@@Z 00000001800010d0 f i plugin_test1.obj
 0001:000000d0       ?root_get_other_interface@RTest1_Shell@test1@test@modules@UModSys@@UEAAPEAUIRoot@core@5@PEBUSUniquePointerInfo@75@@Z 00000001800010d0 f i plugin_test1.obj
 0001:00000100       ?root_is_interface_supported@RTest1_Shell@test1@test@modules@UModSys@@UEBA_NPEBUSUniquePointerInfo@core@5@@Z 0000000180001100 f i plugin_test1.obj
 0001:00000130       ?ref_add@RTest1_Shell@test1@test@modules@UModSys@@UEBAXXZ 0000000180001130 f i plugin_test1.obj
 0001:00000140       ?ref_remove@RTest1_Shell@test1@test@modules@UModSys@@UEBAXXZ 0000000180001140 f i plugin_test1.obj
 0001:00000160       ?ref_links@RTest1_Shell@test1@test@modules@UModSys@@UEBAHXZ 0000000180001160 f i plugin_test1.obj
 0001:00000170       ?ref_weak@RTest1_Shell@test1@test@modules@UModSys@@UEBA_NAEAUWeakPointer@IRefObject@core@5@@Z 0000000180001170 f i plugin_test1.obj
 0001:00000190       ?suicide@RTest1_Shell@test1@test@modules@UModSys@@UEAAXXZ 0000000180001190 f i plugin_test1.obj
 0001:000001e0       ??0RTest1_Shell@test1@test@modules@UModSys@@QEAA@PEAUIModObject@base@4@@Z 00000001800011e0 f i plugin_test1.obj
 0001:00000330       ??1RTest1_Shell@test1@test@modules@UModSys@@UEAA@XZ 0000000180001330 f i plugin_test1.obj
 0001:000003e0       ?connect@RTest1_Shell@test1@test@modules@UModSys@@UEAA_NXZ 00000001800013e0 f i plugin_test1.obj
 0001:00000410       ?disconnect@RTest1_Shell@test1@test@modules@UModSys@@UEAA_NXZ 0000000180001410 f i plugin_test1.obj
 0001:00000440       ?process_tick@RTest1_Shell@test1@test@modules@UModSys@@UEAA_NAEBUSTimeMsec@core@5@@Z 0000000180001440 f i plugin_test1.obj
 0001:00000480       ?process_command@RTest1_Shell@test1@test@modules@UModSys@@UEAA_NHQEBU?$TString@U?$TSCoreConst@D@su@tl@UModSys@@U?$TComparerBinaryHash@D@234@@tl@5@@Z 0000000180001480 f i plugin_test1.obj
 0001:000004b0       ??_GRTest1_Shell@test1@test@modules@UModSys@@UEAAPEAXI@Z 00000001800014b0 f i plugin_test1.obj
 0001:000004b0       ??_ERTest1_Shell@test1@test@modules@UModSys@@UEAAPEAXI@Z 00000001800014b0 f i  CIL library: CIL module
 0001:000004e0       ??1?$TParametersA@$0BAL@@core@UModSys@@QEAA@XZ 00000001800014e0 f i umodsys_lib_lib2d:umodsys.mod.2d.stdlib.obj
 0001:000004e0       ??1SParameters@core@UModSys@@QEAA@XZ 00000001800014e0 f i plugin_test1.obj
 0001:000004e0       ??1?$TParametersA@$0EAA@@core@UModSys@@QEAA@XZ 00000001800014e0 f i plugin_test1.obj
 0001:000004e0       ??1?$TParametersA@$0BAA@@core@UModSys@@QEAA@XZ 00000001800014e0 f i umodsys_lib_libui:umodsys.mod.ui.SDL_core.obj
 0001:00000500       ??1SFrameCreateParameters@libui@UModSys@@QEAA@XZ 0000000180001500 f i plugin_test1.obj
 0001:00000530       ??1UI_Info@RTest1_Shell@test1@test@modules@UModSys@@QEAA@XZ 0000000180001530 f i plugin_test1.obj
 0001:000005f0       ?get_generated_names@RGenerator@test1@test@modules@UModSys@@UEBAHAEAUSUniquePtrList@core@5@@Z 00000001800015f0 f i plugin_test1.obj
 0001:00000610       ?get_generated_types@RGenerator@test1@test@modules@UModSys@@UEBAHAEAUSUniquePtrList@core@5@PEBUSUniquePointerInfo@75@@Z 0000000180001610 f i plugin_test1.obj
 0001:00000670       ?generate@RGenerator@test1@test@modules@UModSys@@UEAA_NAEAU?$TRefObject@UIRefObject@core@UModSys@@U?$TRefObjectFunc@UIRefObject@core@UModSys@@@tl@3@@tl@5@PEBUSUniquePointerInfo@core@5@AEBUSParameters@95@@Z 0000000180001670 f i plugin_test1.obj
 0001:00000710       ?root_get_interface_info@RGenerator@test1@test@modules@UModSys@@UEBAAEBUSUniquePointerInfo@core@5@XZ 0000000180001710 f i plugin_test1.obj
 0001:00000720       ?root_get_interface_type@RGenerator@test1@test@modules@UModSys@@UEBAPEBUSUniquePointerInfo@core@5@XZ 0000000180001720 f i plugin_test1.obj
 0001:00000730       ?root_get_other_interface@RGenerator@test1@test@modules@UModSys@@UEBAPEBUIRoot@core@5@PEBUSUniquePointerInfo@75@@Z 0000000180001730 f i plugin_test1.obj
 0001:00000730       ?root_get_other_interface@RGenerator@test1@test@modules@UModSys@@UEAAPEAUIRoot@core@5@PEBUSUniquePointerInfo@75@@Z 0000000180001730 f i plugin_test1.obj
 0001:00000770       ?root_is_interface_supported@RGenerator@test1@test@modules@UModSys@@UEBA_NPEBUSUniquePointerInfo@core@5@@Z 0000000180001770 f i plugin_test1.obj
 0001:000007b0       ?ref_links@RGenerator@test1@test@modules@UModSys@@UEBAHXZ 00000001800017b0 f i plugin_test1.obj
 0001:000007b0       ?ref_links@RGenerator@SDL_core@ui@modules@UModSys@@UEBAHXZ 00000001800017b0 f i umodsys_lib_libui:umodsys.mod.ui.SDL_core.obj
 0001:000007b0       ?ref_links@RBinArchiveFrameClient_ZIP@zlib@media@modules@UModSys@@UEBAHXZ 00000001800017b0 f i umodsys_lib_libmedia:umodsys.mod.media.zlib.obj
 0001:000007b0       ?ref_links@RGenerator@SDL_GL@ui@modules@UModSys@@UEBAHXZ 00000001800017b0 f i umodsys_lib_libui:umodsys.mod.ui.SDL_GL.obj
 0001:000007b0       ?ref_links@RGenerator@serialize_json@media@modules@UModSys@@UEBAHXZ 00000001800017b0 f i umodsys_lib_libmedia:umodsys.mod.media.serialize_json.obj
 0001:000007b0       ?ref_links@RMultiImage2D_SDL_ttf@SDL_GL@ui@modules@UModSys@@UEBAHXZ 00000001800017b0 f i umodsys_lib_libui:umodsys.mod.ui.SDL_GL.obj
 0001:000007b0       ?ref_links@RDialog@frames@ui@modules@UModSys@@UEBAHXZ 00000001800017b0 f i umodsys_lib_libui:umodsys.mod.ui.frames.obj
 0001:000007b0       ?ref_links@RGenerator@images_std@media@modules@UModSys@@UEBAHXZ 00000001800017b0 f i umodsys_lib_libmedia:umodsys.mod.media.images_std.obj
 0001:000007b0       ?ref_links@RGenerator@stdlib@lib2d@modules@UModSys@@UEBAHXZ 00000001800017b0 f i umodsys_lib_lib2d:umodsys.mod.2d.stdlib.obj
 0001:000007b0       ?ref_links@RImage_Memory@stdlib@lib2d@modules@UModSys@@UEBAHXZ 00000001800017b0 f i umodsys_lib_lib2d:umodsys.mod.2d.stdlib.obj
 0001:000007b0       ?ref_links@RGenerator@frames@ui@modules@UModSys@@UEBAHXZ 00000001800017b0 f i umodsys_lib_libui:umodsys.mod.ui.frames.obj
 0001:000007b0       ?ref_links@RTerminal@SDL_core@ui@modules@UModSys@@UEBAHXZ 00000001800017b0 f i umodsys_lib_libui:umodsys.mod.ui.SDL_core.obj
 0001:000007b0       ?ref_links@RTerminal@SDL_GL@ui@modules@UModSys@@UEBAHXZ 00000001800017b0 f i umodsys_lib_libui:umodsys.mod.ui.SDL_GL.obj
 0001:000007b0       ?ref_links@RGenerator@zlib@media@modules@UModSys@@UEBAHXZ 00000001800017b0 f i umodsys_lib_libmedia:umodsys.mod.media.zlib.obj
 0001:000007b0       ?ref_links@RMultiImage@stdlib@lib2d@modules@UModSys@@UEBAHXZ 00000001800017b0 f i umodsys_lib_lib2d:umodsys.mod.2d.stdlib.obj
 0001:000007b0       ?ref_links@RVertexArray@SDL_GL@ui@modules@UModSys@@UEBAHXZ 00000001800017b0 f i umodsys_lib_libui:umodsys.mod.ui.SDL_GL.obj
 0001:000007b0       ?ref_links@RMultiImage2D_SDL_ttf@SDL_core@ui@modules@UModSys@@UEBAHXZ 00000001800017b0 f i umodsys_lib_libui:umodsys.mod.ui.SDL_core.obj
 0001:000007b0       ?ref_links@RImageFactory_Memory@stdlib@lib2d@modules@UModSys@@UEBAHXZ 00000001800017b0 f i umodsys_lib_lib2d:umodsys.mod.2d.stdlib.obj
 0001:000007b0       ?ref_links@RSerializeReader@serialize_json@media@modules@UModSys@@UEBAHXZ 00000001800017b0 f i umodsys_lib_libmedia:umodsys.mod.media.serialize_json.obj
 0001:000007c0       ?get_uid@RGenerator@test1@test@modules@UModSys@@UEBAPEBUSUniquePointerInfo@core@5@XZ 00000001800017c0 f i plugin_test1.obj
 0001:000007d0       ?do_open@RModuleReg@test1@test@modules@UModSys@@UEAA_NXZ 00000001800017d0 f i plugin_test1.obj
 0001:00000810       ?do_close@RModuleReg@test1@test@modules@UModSys@@UEAA_NXZ 0000000180001810 f i plugin_test1.obj
 0001:00000850       ??_GRModuleReg@test1@test@modules@UModSys@@UEAAPEAXI@Z 0000000180001850 f i plugin_test1.obj
 0001:00000850       ??_ERModuleReg@test1@test@modules@UModSys@@UEAAPEAXI@Z 0000000180001850 f i  CIL library: CIL module
 0001:00000880       ??4?$TString@U?$TSCoreShared@USIMemAlloc@core@UModSys@@D@su@tl@UModSys@@U?$TComparerBinaryHash@D@234@@tl@UModSys@@QEAAAEBU012@AEBU012@@Z 0000000180001880 f i plugin_test1.obj
 0001:000008d0       ??4?$TRefObject@UIRefObject@core@UModSys@@U?$TRefObjectFunc@UIRefObject@core@UModSys@@@tl@3@@tl@UModSys@@QEAAAEBU012@PEAUIRefObject@core@2@@Z 00000001800018d0 f i plugin_test1.obj
 0001:00000910       ?info_release@?$TSCoreShared@USIMemAlloc@core@UModSys@@D@su@tl@UModSys@@QEAAXXZ 0000000180001910 f i plugin_test1.obj
 0001:000009b0       ?info_new@?$TSCoreShared@USIMemAlloc@core@UModSys@@D@su@tl@UModSys@@QEAA_NPEBD_K@Z 00000001800019b0 f i plugin_test1.obj
 0001:00000aa0       ?get_null@?$TSCoreShared@USIMemAlloc@core@UModSys@@D@su@tl@UModSys@@SAPEAU?$TSharedStringInfo@DUSIMemAlloc@core@UModSys@@@234@XZ 0000000180001aa0 f i plugin_test1.obj
 0001:00000af0       ??$generate_type@UICollector@libui@UModSys@@@RTest1_Shell@test1@test@modules@UModSys@@SA?AU?$TRefObject@UICollector@libui@UModSys@@U?$TRefObjectFunc@UICollector@libui@UModSys@@@tl@3@@tl@4@AEBU?$TString@U?$TSCoreConst@D@su@tl@UModSys@@U?$TComparerBinaryHash@D@234@@64@AEBUSParameters@core@4@PEBD@Z 0000000180001af0 f i plugin_test1.obj
 0001:00000ca0       ??$generate_type@UITerminal@libui@UModSys@@@RTest1_Shell@test1@test@modules@UModSys@@SA?AU?$TRefObject@UITerminal@libui@UModSys@@U?$TRefObjectFunc@UITerminal@libui@UModSys@@@tl@3@@tl@4@AEBU?$TString@U?$TSCoreConst@D@su@tl@UModSys@@U?$TComparerBinaryHash@D@234@@64@AEBUSParameters@core@4@PEBD@Z 0000000180001ca0 f i plugin_test1.obj
 0001:00000e50       ??$shash@D@su@tl@UModSys@@YA_KPEBD_K@Z 0000000180001e50 f i plugin_test1.obj
 0001:00000e90       ??1?$TRefObject@UIModObject@base@UModSys@@U?$TModObjectFunc@UIModObject@base@UModSys@@@tl@3@@tl@UModSys@@QEAA@XZ 0000000180001e90 f i plugin_test1.obj
 0001:00000ec0       ??$t_ref_get_other_interface@UIStreamReader@libmedia@UModSys@@U?$TRefObjectFunc@UIStreamReader@libmedia@UModSys@@@tl@3@@IRefObject@core@UModSys@@QEAA_NAEAU?$TRefObject@UIStreamReader@libmedia@UModSys@@U?$TRefObjectFunc@UIStreamReader@libmedia@UModSys@@@tl@3@@tl@2@@Z 0000000180001ec0 f i plugin_test1.obj
 0001:00000f10       ??$t_ref_get_other_interface@UIStreamWriter@libmedia@UModSys@@U?$TRefObjectFunc@UIStreamWriter@libmedia@UModSys@@@tl@3@@IRefObject@core@UModSys@@QEAA_NAEAU?$TRefObject@UIStreamWriter@libmedia@UModSys@@U?$TRefObjectFunc@UIStreamWriter@libmedia@UModSys@@@tl@3@@tl@2@@Z 0000000180001f10 f i plugin_test1.obj
 0001:00000f60       ??$t_generate@UICollector@libui@UModSys@@@SModuleContext@base@UModSys@@QEAA_NAEAU?$TRefObject@UICollector@libui@UModSys@@U?$TRefObjectFunc@UICollector@libui@UModSys@@@tl@3@@tl@2@PEBUSUniquePointerInfo@core@2@AEBUSParameters@62@@Z 0000000180001f60 f i plugin_test1.obj
 0001:00001030       ??$t_generate@UITerminal@libui@UModSys@@@SModuleContext@base@UModSys@@QEAA_NAEAU?$TRefObject@UITerminal@libui@UModSys@@U?$TRefObjectFunc@UITerminal@libui@UModSys@@@tl@3@@tl@2@PEBUSUniquePointerInfo@core@2@AEBUSParameters@62@@Z 0000000180002030 f i plugin_test1.obj
 0001:00001100       ??$t_ref_get_other_interface@UIImage@lib2d@UModSys@@U?$TRefObjectFunc@UIImage@lib2d@UModSys@@@tl@3@@IRefObject@core@UModSys@@QEAA_NAEAU?$TRefObject@UIImage@lib2d@UModSys@@U?$TRefObjectFunc@UIImage@lib2d@UModSys@@@tl@3@@tl@2@@Z 0000000180002100 f i plugin_test1.obj
 0001:00001150       ??$t_ref_get_other_interface@UIImageFactory@lib2d@UModSys@@U?$TRefObjectFunc@UIImageFactory@lib2d@UModSys@@@tl@3@@IRefObject@core@UModSys@@QEAA_NAEAU?$TRefObject@UIImageFactory@lib2d@UModSys@@U?$TRefObjectFunc@UIImageFactory@lib2d@UModSys@@@tl@3@@tl@2@@Z 0000000180002150 f i plugin_test1.obj
 0001:000011a0       ??$t_ref_get_other_interface@UIMultiImage@lib2d@UModSys@@U?$TRefObjectFunc@UIMultiImage@lib2d@UModSys@@@tl@3@@IRefObject@core@UModSys@@QEAA_NAEAU?$TRefObject@UIMultiImage@lib2d@UModSys@@U?$TRefObjectFunc@UIMultiImage@lib2d@UModSys@@@tl@3@@tl@2@@Z 00000001800021a0 f i plugin_test1.obj
 0001:000011f0       ?root_get_interface_info@RImage_Memory@stdlib@lib2d@modules@UModSys@@UEBAAEBUSUniquePointerInfo@core@5@XZ 00000001800021f0 f i umodsys_lib_lib2d:umodsys.mod.2d.stdlib.obj
 0001:00001200       ?root_get_interface_type@RImage_Memory@stdlib@lib2d@modules@UModSys@@UEBAPEBUSUniquePointerInfo@core@5@XZ 0000000180002200 f i umodsys_lib_lib2d:umodsys.mod.2d.stdlib.obj
 0001:00001210       ?root_get_other_interface@RImage_Memory@stdlib@lib2d@modules@UModSys@@UEBAPEBUIRoot@core@5@PEBUSUniquePointerInfo@75@@Z 0000000180002210 f i umodsys_lib_lib2d:umodsys.mod.2d.stdlib.obj
 0001:00001210       ?root_get_other_interface@RImage_Memory@stdlib@lib2d@modules@UModSys@@UEAAPEAUIRoot@core@5@PEBUSUniquePointerInfo@75@@Z 0000000180002210 f i umodsys_lib_lib2d:umodsys.mod.2d.stdlib.obj
 0001:00001240       ?root_is_interface_supported@RImage_Memory@stdlib@lib2d@modules@UModSys@@UEBA_NPEBUSUniquePointerInfo@core@5@@Z 0000000180002240 f i umodsys_lib_lib2d:umodsys.mod.2d.stdlib.obj
 0001:00001270       ?root_get_interface_info@RImageFactory_Memory@stdlib@lib2d@modules@UModSys@@UEBAAEBUSUniquePointerInfo@core@5@XZ 0000000180002270 f i umodsys_lib_lib2d:umodsys.mod.2d.stdlib.obj
 0001:00001280       ?root_get_interface_type@RImageFactory_Memory@stdlib@lib2d@modules@UModSys@@UEBAPEBUSUniquePointerInfo@core@5@XZ 0000000180002280 f i umodsys_lib_lib2d:umodsys.mod.2d.stdlib.obj
 0001:00001290       ?root_get_other_interface@RImageFactory_Memory@stdlib@lib2d@modules@UModSys@@UEBAPEBUIRoot@core@5@PEBUSUniquePointerInfo@75@@Z 0000000180002290 f i umodsys_lib_lib2d:umodsys.mod.2d.stdlib.obj
 0001:00001290       ?root_get_other_interface@RImageFactory_Memory@stdlib@lib2d@modules@UModSys@@UEAAPEAUIRoot@core@5@PEBUSUniquePointerInfo@75@@Z 0000000180002290 f i umodsys_lib_lib2d:umodsys.mod.2d.stdlib.obj
 0001:000012c0       ?root_is_interface_supported@RImageFactory_Memory@stdlib@lib2d@modules@UModSys@@UEBA_NPEBUSUniquePointerInfo@core@5@@Z 00000001800022c0 f i umodsys_lib_lib2d:umodsys.mod.2d.stdlib.obj
 0001:000012f0       ?root_get_interface_info@RMultiImage@stdlib@lib2d@modules@UModSys@@UEBAAEBUSUniquePointerInfo@core@5@XZ 00000001800022f0 f i umodsys_lib_lib2d:umodsys.mod.2d.stdlib.obj
 0001:00001300       ?root_get_interface_type@RMultiImage@stdlib@lib2d@modules@UModSys@@UEBAPEBUSUniquePointerInfo@core@5@XZ 0000000180002300 f i umodsys_lib_lib2d:umodsys.mod.2d.stdlib.obj
 0001:00001310       ?root_get_other_interface@RMultiImage@stdlib@lib2d@modules@UModSys@@UEAAPEAUIRoot@core@5@PEBUSUniquePointerInfo@75@@Z 0000000180002310 f i umodsys_lib_lib2d:umodsys.mod.2d.stdlib.obj
 0001:00001310       ?root_get_other_interface@RMultiImage@stdlib@lib2d@modules@UModSys@@UEBAPEBUIRoot@core@5@PEBUSUniquePointerInfo@75@@Z 0000000180002310 f i umodsys_lib_lib2d:umodsys.mod.2d.stdlib.obj
 0001:00001340       ?root_is_interface_supported@RMultiImage@stdlib@lib2d@modules@UModSys@@UEBA_NPEBUSUniquePointerInfo@core@5@@Z 0000000180002340 f i umodsys_lib_lib2d:umodsys.mod.2d.stdlib.obj
 0001:00001370       ?suicide@RImageFactory_Memory@stdlib@lib2d@modules@UModSys@@UEAAXXZ 0000000180002370 f i umodsys_lib_lib2d:umodsys.mod.2d.stdlib.obj
 0001:00001370       ?suicide@RTerminal@SDL_GL@ui@modules@UModSys@@UEAAXXZ 0000000180002370 f i umodsys_lib_libui:umodsys.mod.ui.SDL_GL.obj
 0001:00001370       ?suicide@RSerializeReader@serialize_json@media@modules@UModSys@@UEAAXXZ 0000000180002370 f i umodsys_lib_libmedia:umodsys.mod.media.serialize_json.obj
 0001:00001370       ?suicide@RMultiImage@stdlib@lib2d@modules@UModSys@@UEAAXXZ 0000000180002370 f i umodsys_lib_lib2d:umodsys.mod.2d.stdlib.obj
 0001:00001370       ?suicide@RBinArchiveFrameClient_ZIP@zlib@media@modules@UModSys@@UEAAXXZ 0000000180002370 f i umodsys_lib_libmedia:umodsys.mod.media.zlib.obj
 0001:00001370       ?suicide@RImage_Memory@stdlib@lib2d@modules@UModSys@@UEAAXXZ 0000000180002370 f i umodsys_lib_lib2d:umodsys.mod.2d.stdlib.obj
 0001:00001370       ?suicide@RTerminal@SDL_core@ui@modules@UModSys@@UEAAXXZ 0000000180002370 f i umodsys_lib_libui:umodsys.mod.ui.SDL_core.obj
 0001:000013c0       ?get_generated_names@RGenerator@stdlib@lib2d@modules@UModSys@@UEBAHAEAUSUniquePtrList@core@5@@Z 00000001800023c0 f i umodsys_lib_lib2d:umodsys.mod.2d.stdlib.obj
 0001:00001410       ?get_generated_types@RGenerator@stdlib@lib2d@modules@UModSys@@UEBAHAEAUSUniquePtrList@core@5@PEBUSUniquePointerInfo@75@@Z 0000000180002410 f i umodsys_lib_lib2d:umodsys.mod.2d.stdlib.obj
 0001:000014b0       ?generate@RGenerator@stdlib@lib2d@modules@UModSys@@UEAA_NAEAU?$TRefObject@UIRefObject@core@UModSys@@U?$TRefObjectFunc@UIRefObject@core@UModSys@@@tl@3@@tl@5@PEBUSUniquePointerInfo@core@5@AEBUSParameters@95@@Z 00000001800024b0 f i umodsys_lib_lib2d:umodsys.mod.2d.stdlib.obj
 0001:000015e0       ?root_get_interface_info@RGenerator@stdlib@lib2d@modules@UModSys@@UEBAAEBUSUniquePointerInfo@core@5@XZ 00000001800025e0 f i umodsys_lib_lib2d:umodsys.mod.2d.stdlib.obj
 0001:000015f0       ?root_get_interface_type@RGenerator@stdlib@lib2d@modules@UModSys@@UEBAPEBUSUniquePointerInfo@core@5@XZ 00000001800025f0 f i umodsys_lib_lib2d:umodsys.mod.2d.stdlib.obj
 0001:00001600       ?root_get_other_interface@RGenerator@stdlib@lib2d@modules@UModSys@@UEBAPEBUIRoot@core@5@PEBUSUniquePointerInfo@75@@Z 0000000180002600 f i umodsys_lib_lib2d:umodsys.mod.2d.stdlib.obj
 0001:00001600       ?root_get_other_interface@RGenerator@stdlib@lib2d@modules@UModSys@@UEAAPEAUIRoot@core@5@PEBUSUniquePointerInfo@75@@Z 0000000180002600 f i umodsys_lib_lib2d:umodsys.mod.2d.stdlib.obj
 0001:00001640       ?root_is_interface_supported@RGenerator@stdlib@lib2d@modules@UModSys@@UEBA_NPEBUSUniquePointerInfo@core@5@@Z 0000000180002640 f i umodsys_lib_lib2d:umodsys.mod.2d.stdlib.obj
 0001:00001680       ?get_uid@RGenerator@stdlib@lib2d@modules@UModSys@@UEBAPEBUSUniquePointerInfo@core@5@XZ 0000000180002680 f i umodsys_lib_lib2d:umodsys.mod.2d.stdlib.obj
 0001:00001690       ??4State@RImage_Memory@stdlib@lib2d@modules@UModSys@@QEAAAEAU012345@AEBU012345@@Z 0000000180002690 f i umodsys_lib_lib2d:umodsys.mod.2d.stdlib.obj
 0001:00001770       ??_GRImage_Memory@stdlib@lib2d@modules@UModSys@@UEAAPEAXI@Z 0000000180002770 f i umodsys_lib_lib2d:umodsys.mod.2d.stdlib.obj
 0001:00001770       ??_ERImage_Memory@stdlib@lib2d@modules@UModSys@@UEAAPEAXI@Z 0000000180002770 f i  CIL library: CIL module
 0001:000017a0       ??_ERImageFactory_Memory@stdlib@lib2d@modules@UModSys@@UEAAPEAXI@Z 00000001800027a0 f i  CIL library: CIL module
 0001:000017a0       ??_GRImageFactory_Memory@stdlib@lib2d@modules@UModSys@@UEAAPEAXI@Z 00000001800027a0 f i umodsys_lib_lib2d:umodsys.mod.2d.stdlib.obj
 0001:000017d0       ??_ERMultiImage@stdlib@lib2d@modules@UModSys@@UEAAPEAXI@Z 00000001800027d0 f i  CIL library: CIL module
 0001:000017d0       ??_GRMultiImage@stdlib@lib2d@modules@UModSys@@UEAAPEAXI@Z 00000001800027d0 f i umodsys_lib_lib2d:umodsys.mod.2d.stdlib.obj
 0001:00001800       ?do_open@RModuleReg@stdlib@lib2d@modules@UModSys@@UEAA_NXZ 0000000180002800 f i umodsys_lib_lib2d:umodsys.mod.2d.stdlib.obj
 0001:00001810       ?do_close@RModuleReg@stdlib@lib2d@modules@UModSys@@UEAA_NXZ 0000000180002810 f i umodsys_lib_lib2d:umodsys.mod.2d.stdlib.obj
 0001:00001820       ??_ERModuleReg@stdlib@lib2d@modules@UModSys@@UEAAPEAXI@Z 0000000180002820 f i  CIL library: CIL module
 0001:00001820       ??_GRModuleReg@stdlib@lib2d@modules@UModSys@@UEAAPEAXI@Z 0000000180002820 f i umodsys_lib_lib2d:umodsys.mod.2d.stdlib.obj
 0001:00001850       ??1?$TDynarrayDynamic@USImageCellInfo@lib2d@UModSys@@U?$TAllocator@USIMemAlloc@core@UModSys@@USCountCalcPower2@23@@tl@3@@tl@UModSys@@QEAA@XZ 0000000180002850 f i umodsys_lib_lib2d:umodsys.mod.2d.stdlib.obj
 0001:00001860       ??1?$TDynarrayDynamic@U?$TRefObject@UIImage@lib2d@UModSys@@U?$TRefObjectFunc@UIImage@lib2d@UModSys@@@tl@3@@tl@UModSys@@U?$TAllocator@USIMemAlloc@core@UModSys@@USCountCalcPower2@23@@23@@tl@UModSys@@QEAA@XZ 0000000180002860 f i umodsys_lib_lib2d:umodsys.mod.2d.stdlib.obj
 0001:00001870       ??1?$TDynarray@U?$TDynarrayHolderDynamic@USImageCellInfo@lib2d@UModSys@@U?$TAllocator@USIMemAlloc@core@UModSys@@USCountCalcPower2@23@@tl@3@@tl@UModSys@@@tl@UModSys@@QEAA@XZ 0000000180002870 f i umodsys_lib_lib2d:umodsys.mod.2d.stdlib.obj
 0001:000018e0       ??1?$TDynarray@U?$TDynarrayHolderDynamic@U?$TRefObject@UIImage@lib2d@UModSys@@U?$TRefObjectFunc@UIImage@lib2d@UModSys@@@tl@3@@tl@UModSys@@U?$TAllocator@USIMemAlloc@core@UModSys@@USCountCalcPower2@23@@23@@tl@UModSys@@@tl@UModSys@@QEAA@XZ 00000001800028e0 f i umodsys_lib_lib2d:umodsys.mod.2d.stdlib.obj
 0001:00001950       ?ResizeRel@?$TDynarray@U?$TDynarrayHolderDynamic@USImageCellInfo@lib2d@UModSys@@U?$TAllocator@USIMemAlloc@core@UModSys@@USCountCalcPower2@23@@tl@3@@tl@UModSys@@@tl@UModSys@@QEAA_N_J@Z 0000000180002950 f i umodsys_lib_lib2d:umodsys.mod.2d.stdlib.obj
 0001:00001a10       ?ResizeRel@?$TDynarray@U?$TDynarrayHolderDynamic@U?$TRefObject@UIImage@lib2d@UModSys@@U?$TRefObjectFunc@UIImage@lib2d@UModSys@@@tl@3@@tl@UModSys@@U?$TAllocator@USIMemAlloc@core@UModSys@@USCountCalcPower2@23@@23@@tl@UModSys@@@tl@UModSys@@QEAA_N_J@Z 0000000180002a10 f i umodsys_lib_lib2d:umodsys.mod.2d.stdlib.obj
 0001:00001b40       ??$ValidateConstruction@UIRefObject@core@UModSys@@URMultiImage@stdlib@lib2d@modules@3@@core@UModSys@@YA_NAEAU?$TRefObject@UIRefObject@core@UModSys@@U?$TRefObjectFunc@UIRefObject@core@UModSys@@@tl@3@@tl@1@PEAURMultiImage@stdlib@lib2d@modules@1@@Z 0000000180002b40 f i umodsys_lib_lib2d:umodsys.mod.2d.stdlib.obj
 0001:00001bc0       ?set_stage@SGLFuncs@SDL_GL@ui@modules@UModSys@@QEBAXH@Z 0000000180002bc0 f i umodsys_lib_libui:umodsys.mod.ui.SDL_GL.obj
 0001:00001c20       ?set_composite_all@SGLFuncsLegacy@SDL_GL@ui@modules@UModSys@@QEBAXH@Z 0000000180002c20 f i umodsys_lib_libui:umodsys.mod.ui.SDL_GL.obj
 0001:00001cf0       ?crebind@STextureGL@SDL_GL@ui@modules@UModSys@@QEAAX_N@Z 0000000180002cf0 f i umodsys_lib_libui:umodsys.mod.ui.SDL_GL.obj
 0001:00001d30       ?root_get_interface_info@RKeyboardController@SDL_GL@ui@modules@UModSys@@UEBAAEBUSUniquePointerInfo@core@5@XZ 0000000180002d30 f i umodsys_lib_libui:umodsys.mod.ui.SDL_GL.obj
 0001:00001d40       ?root_get_interface_type@RKeyboardController@SDL_GL@ui@modules@UModSys@@UEBAPEBUSUniquePointerInfo@core@5@XZ 0000000180002d40 f i umodsys_lib_libui:umodsys.mod.ui.SDL_GL.obj
 0001:00001d50       ?root_get_other_interface@RKeyboardController@SDL_GL@ui@modules@UModSys@@UEAAPEAUIRoot@core@5@PEBUSUniquePointerInfo@75@@Z 0000000180002d50 f i umodsys_lib_libui:umodsys.mod.ui.SDL_GL.obj
 0001:00001d50       ?root_get_other_interface@RKeyboardController@SDL_GL@ui@modules@UModSys@@UEBAPEBUIRoot@core@5@PEBUSUniquePointerInfo@75@@Z 0000000180002d50 f i umodsys_lib_libui:umodsys.mod.ui.SDL_GL.obj
 0001:00001d80       ?root_is_interface_supported@RKeyboardController@SDL_GL@ui@modules@UModSys@@UEBA_NPEBUSUniquePointerInfo@core@5@@Z 0000000180002d80 f i umodsys_lib_libui:umodsys.mod.ui.SDL_GL.obj
 0001:00001db0       ?ref_weak@RRenderDriver2D@SDL_core@ui@modules@UModSys@@UEBA_NAEAUWeakPointer@IRefObject@core@5@@Z 0000000180002db0 f i umodsys_lib_libui:umodsys.mod.ui.SDL_core.obj
 0001:00001db0       ?ref_weak@RMouseController@SDL_core@ui@modules@UModSys@@UEBA_NAEAUWeakPointer@IRefObject@core@5@@Z 0000000180002db0 f i umodsys_lib_libui:umodsys.mod.ui.SDL_core.obj
 0001:00001db0       ?ref_weak@RRenderDriver3D@SDL_GL@ui@modules@UModSys@@UEBA_NAEAUWeakPointer@IRefObject@core@5@@Z 0000000180002db0 f i umodsys_lib_libui:umodsys.mod.ui.SDL_GL.obj
 0001:00001db0       ?ref_weak@RMouseController@SDL_GL@ui@modules@UModSys@@UEBA_NAEAUWeakPointer@IRefObject@core@5@@Z 0000000180002db0 f i umodsys_lib_libui:umodsys.mod.ui.SDL_GL.obj
 0001:00001db0       ?ref_weak@RKeyboardController@SDL_GL@ui@modules@UModSys@@UEBA_NAEAUWeakPointer@IRefObject@core@5@@Z 0000000180002db0 f i umodsys_lib_libui:umodsys.mod.ui.SDL_GL.obj
 0001:00001db0       ?ref_weak@RKeyboardController@SDL_core@ui@modules@UModSys@@UEBA_NAEAUWeakPointer@IRefObject@core@5@@Z 0000000180002db0 f i umodsys_lib_libui:umodsys.mod.ui.SDL_core.obj
 0001:00001dd0       ?root_get_interface_info@RMouseController@SDL_GL@ui@modules@UModSys@@UEBAAEBUSUniquePointerInfo@core@5@XZ 0000000180002dd0 f i umodsys_lib_libui:umodsys.mod.ui.SDL_GL.obj
 0001:00001de0       ?root_get_interface_type@RMouseController@SDL_GL@ui@modules@UModSys@@UEBAPEBUSUniquePointerInfo@core@5@XZ 0000000180002de0 f i umodsys_lib_libui:umodsys.mod.ui.SDL_GL.obj
 0001:00001df0       ?root_get_other_interface@RMouseController@SDL_GL@ui@modules@UModSys@@UEAAPEAUIRoot@core@5@PEBUSUniquePointerInfo@75@@Z 0000000180002df0 f i umodsys_lib_libui:umodsys.mod.ui.SDL_GL.obj
 0001:00001df0       ?root_get_other_interface@RMouseController@SDL_GL@ui@modules@UModSys@@UEBAPEBUIRoot@core@5@PEBUSUniquePointerInfo@75@@Z 0000000180002df0 f i umodsys_lib_libui:umodsys.mod.ui.SDL_GL.obj
 0001:00001e20       ?root_is_interface_supported@RMouseController@SDL_GL@ui@modules@UModSys@@UEBA_NPEBUSUniquePointerInfo@core@5@@Z 0000000180002e20 f i umodsys_lib_libui:umodsys.mod.ui.SDL_GL.obj
 0001:00001e50       ?ref_remove@RMouseController@SDL_GL@ui@modules@UModSys@@UEBAXXZ 0000000180002e50 f i umodsys_lib_libui:umodsys.mod.ui.SDL_GL.obj
 0001:00001e50       ?ref_remove@RKeyboardController@SDL_GL@ui@modules@UModSys@@UEBAXXZ 0000000180002e50 f i umodsys_lib_libui:umodsys.mod.ui.SDL_GL.obj
 0001:00001e50       ?ref_remove@RRenderDriver2D@SDL_core@ui@modules@UModSys@@UEBAXXZ 0000000180002e50 f i umodsys_lib_libui:umodsys.mod.ui.SDL_core.obj
 0001:00001e50       ?ref_remove@RKeyboardController@SDL_core@ui@modules@UModSys@@UEBAXXZ 0000000180002e50 f i umodsys_lib_libui:umodsys.mod.ui.SDL_core.obj
 0001:00001e50       ?ref_remove@RMouseController@SDL_core@ui@modules@UModSys@@UEBAXXZ 0000000180002e50 f i umodsys_lib_libui:umodsys.mod.ui.SDL_core.obj
 0001:00001e50       ?ref_remove@RRenderDriver3D@SDL_GL@ui@modules@UModSys@@UEBAXXZ 0000000180002e50 f i umodsys_lib_libui:umodsys.mod.ui.SDL_GL.obj
 0001:00001e60       ?root_get_interface_info@RTerminal@SDL_GL@ui@modules@UModSys@@UEBAAEBUSUniquePointerInfo@core@5@XZ 0000000180002e60 f i umodsys_lib_libui:umodsys.mod.ui.SDL_GL.obj
 0001:00001e70       ?root_get_interface_type@RTerminal@SDL_GL@ui@modules@UModSys@@UEBAPEBUSUniquePointerInfo@core@5@XZ 0000000180002e70 f i umodsys_lib_libui:umodsys.mod.ui.SDL_GL.obj
 0001:00001e80       ?root_get_other_interface@RTerminal@SDL_GL@ui@modules@UModSys@@UEAAPEAUIRoot@core@5@PEBUSUniquePointerInfo@75@@Z 0000000180002e80 f i umodsys_lib_libui:umodsys.mod.ui.SDL_GL.obj
 0001:00001e80       ?root_get_other_interface@RTerminal@SDL_GL@ui@modules@UModSys@@UEBAPEBUIRoot@core@5@PEBUSUniquePointerInfo@75@@Z 0000000180002e80 f i umodsys_lib_libui:umodsys.mod.ui.SDL_GL.obj
 0001:00001eb0       ?root_is_interface_supported@RTerminal@SDL_GL@ui@modules@UModSys@@UEBA_NPEBUSUniquePointerInfo@core@5@@Z 0000000180002eb0 f i umodsys_lib_libui:umodsys.mod.ui.SDL_GL.obj
 0001:00001ee0       ?root_get_interface_info@RMultiImage2D_SDL_ttf@SDL_GL@ui@modules@UModSys@@UEBAAEBUSUniquePointerInfo@core@5@XZ 0000000180002ee0 f i umodsys_lib_libui:umodsys.mod.ui.SDL_GL.obj
 0001:00001ef0       ?root_get_interface_type@RMultiImage2D_SDL_ttf@SDL_GL@ui@modules@UModSys@@UEBAPEBUSUniquePointerInfo@core@5@XZ 0000000180002ef0 f i umodsys_lib_libui:umodsys.mod.ui.SDL_GL.obj
 0001:00001f00       ?root_get_other_interface@RMultiImage2D_SDL_ttf@SDL_GL@ui@modules@UModSys@@UEAAPEAUIRoot@core@5@PEBUSUniquePointerInfo@75@@Z 0000000180002f00 f i umodsys_lib_libui:umodsys.mod.ui.SDL_GL.obj
 0001:00001f00       ?root_get_other_interface@RMultiImage2D_SDL_ttf@SDL_GL@ui@modules@UModSys@@UEBAPEBUIRoot@core@5@PEBUSUniquePointerInfo@75@@Z 0000000180002f00 f i umodsys_lib_libui:umodsys.mod.ui.SDL_GL.obj
 0001:00001f30       ?root_is_interface_supported@RMultiImage2D_SDL_ttf@SDL_GL@ui@modules@UModSys@@UEBA_NPEBUSUniquePointerInfo@core@5@@Z 0000000180002f30 f i umodsys_lib_libui:umodsys.mod.ui.SDL_GL.obj
 0001:00001f60       ?suicide@RMultiImage2D_SDL_ttf@SDL_core@ui@modules@UModSys@@UEAAXXZ 0000000180002f60 f i umodsys_lib_libui:umodsys.mod.ui.SDL_core.obj
 0001:00001f60       ?suicide@RVertexArray@SDL_GL@ui@modules@UModSys@@UEAAXXZ 0000000180002f60 f i umodsys_lib_libui:umodsys.mod.ui.SDL_GL.obj
 0001:00001f60       ?suicide@RMultiImage2D_SDL_ttf@SDL_GL@ui@modules@UModSys@@UEAAXXZ 0000000180002f60 f i umodsys_lib_libui:umodsys.mod.ui.SDL_GL.obj
 0001:00001f60       ?suicide@RDialog@frames@ui@modules@UModSys@@UEAAXXZ 0000000180002f60 f i umodsys_lib_libui:umodsys.mod.ui.frames.obj
 0001:00001fb0       ??1Glyph@RMultiImage2D_SDL_ttf@SDL_GL@ui@modules@UModSys@@QEAA@XZ 0000000180002fb0 f i umodsys_lib_libui:umodsys.mod.ui.SDL_GL.obj
 0001:00001fe0       ?get_list@RFrame_Button@frames@ui@modules@UModSys@@UEAAPEAUIFrameList@libui@5@XZ 0000000180002fe0 f i umodsys_lib_libui:umodsys.mod.ui.frames.obj
 0001:00001fe0       ?get_ctrlcmd@RFrame_Image@frames@ui@modules@UModSys@@UEAAPEAUIControllerCommand@libui@5@XZ 0000000180002fe0 f i umodsys_lib_libui:umodsys.mod.ui.frames.obj
 0001:00001fe0       ?get_ctrldata@RFrame_Text@frames@ui@modules@UModSys@@UEAAPEAUIControllerData@libui@5@XZ 0000000180002fe0 f i umodsys_lib_libui:umodsys.mod.ui.frames.obj
 0001:00001fe0       ?get_list@RFrame_Edit@frames@ui@modules@UModSys@@UEAAPEAUIFrameList@libui@5@XZ 0000000180002fe0 f i umodsys_lib_libui:umodsys.mod.ui.frames.obj
 0001:00001fe0       ?get_ctrlcmd@RFrame_Text@frames@ui@modules@UModSys@@UEAAPEAUIControllerCommand@libui@5@XZ 0000000180002fe0 f i umodsys_lib_libui:umodsys.mod.ui.frames.obj
 0001:00001fe0       ?get_cell_count@RMultiImage2D_SDL_ttf@SDL_core@ui@modules@UModSys@@UEBAIXZ 0000000180002fe0 f i umodsys_lib_libui:umodsys.mod.ui.SDL_core.obj
 0001:00001fe0       ?get_list@RFrame_Image@frames@ui@modules@UModSys@@UEAAPEAUIFrameList@libui@5@XZ 0000000180002fe0 f i umodsys_lib_libui:umodsys.mod.ui.frames.obj
 0001:00001fe0       ?get_layer_count@RMultiImage2D_SDL_ttf@SDL_core@ui@modules@UModSys@@UEBAGXZ 0000000180002fe0 f i umodsys_lib_libui:umodsys.mod.ui.SDL_core.obj
 0001:00001fe0       ?get_ctrldata@RFrame_List@frames@ui@modules@UModSys@@UEAAPEAUIControllerData@libui@5@XZ 0000000180002fe0 f i umodsys_lib_libui:umodsys.mod.ui.frames.obj
 0001:00001fe0       ?get_ctrlcmd@RFrame_Edit@frames@ui@modules@UModSys@@UEAAPEAUIControllerCommand@libui@5@XZ 0000000180002fe0 f i umodsys_lib_libui:umodsys.mod.ui.frames.obj
 0001:00001fe0       ?get_up_theme@RCollector@frames@ui@modules@UModSys@@UEAAPEAUICollectorTheme@libui@5@XZ 0000000180002fe0 f i umodsys_lib_libui:umodsys.mod.ui.frames.obj
 0001:00001fe0       ?get_ctrldata@RFrame_Edit@frames@ui@modules@UModSys@@UEAAPEAUIControllerData@libui@5@XZ 0000000180002fe0 f i umodsys_lib_libui:umodsys.mod.ui.frames.obj
 0001:00001fe0       ?get_ctrldata@RFrame_Button@frames@ui@modules@UModSys@@UEAAPEAUIControllerData@libui@5@XZ 0000000180002fe0 f i umodsys_lib_libui:umodsys.mod.ui.frames.obj
 0001:00001fe0       ?get_layer@RMultiImage2D_SDL_ttf@SDL_core@ui@modules@UModSys@@UEBAPEAUIImage@lib2d@5@G@Z 0000000180002fe0 f i umodsys_lib_libui:umodsys.mod.ui.SDL_core.obj
 0001:00001fe0       ?get_ctrldata@RFrame_Frame@frames@ui@modules@UModSys@@UEAAPEAUIControllerData@libui@5@XZ 0000000180002fe0 f i umodsys_lib_libui:umodsys.mod.ui.frames.obj
 0001:00001fe0       ?get_data@RFrame_Frame@frames@ui@modules@UModSys@@UEAAPEAUIFrameData@libui@5@XZ 0000000180002fe0 f i umodsys_lib_libui:umodsys.mod.ui.frames.obj
 0001:00001fe0       ?get_ctrlcmd@RFrame_Button@frames@ui@modules@UModSys@@UEAAPEAUIControllerCommand@libui@5@XZ 0000000180002fe0 f i umodsys_lib_libui:umodsys.mod.ui.frames.obj
 0001:00001fe0       ?get_ctrldata@RFrame_Image@frames@ui@modules@UModSys@@UEAAPEAUIControllerData@libui@5@XZ 0000000180002fe0 f i umodsys_lib_libui:umodsys.mod.ui.frames.obj
 0001:00001fe0       ?get_ctrlcmd@RFrame_List@frames@ui@modules@UModSys@@UEAAPEAUIControllerCommand@libui@5@XZ 0000000180002fe0 f i umodsys_lib_libui:umodsys.mod.ui.frames.obj
 0001:00001fe0       ?get_layer@RMultiImage2D_SDL_ttf@SDL_GL@ui@modules@UModSys@@UEBAPEAUIImage@lib2d@5@G@Z 0000000180002fe0 f i umodsys_lib_libui:umodsys.mod.ui.SDL_GL.obj
 0001:00001fe0       ?get_ctrlcmd@RFrame_Frame@frames@ui@modules@UModSys@@UEAAPEAUIControllerCommand@libui@5@XZ 0000000180002fe0 f i umodsys_lib_libui:umodsys.mod.ui.frames.obj
 0001:00001fe0       ?get_cell_count@RMultiImage2D_SDL_ttf@SDL_GL@ui@modules@UModSys@@UEBAIXZ 0000000180002fe0 f i umodsys_lib_libui:umodsys.mod.ui.SDL_GL.obj
 0001:00001fe0       ?get_list@RFrame_Frame@frames@ui@modules@UModSys@@UEAAPEAUIFrameList@libui@5@XZ 0000000180002fe0 f i umodsys_lib_libui:umodsys.mod.ui.frames.obj
 0001:00001fe0       ?get_data@RFrame_Image@frames@ui@modules@UModSys@@UEAAPEAUIFrameData@libui@5@XZ 0000000180002fe0 f i umodsys_lib_libui:umodsys.mod.ui.frames.obj
 0001:00001fe0       ?get_layer_count@RMultiImage2D_SDL_ttf@SDL_GL@ui@modules@UModSys@@UEBAGXZ 0000000180002fe0 f i umodsys_lib_libui:umodsys.mod.ui.SDL_GL.obj
 0001:00001fe0       ?get_data@RFrame_Button@frames@ui@modules@UModSys@@UEAAPEAUIFrameData@libui@5@XZ 0000000180002fe0 f i umodsys_lib_libui:umodsys.mod.ui.frames.obj
 0001:00001fe0       ?get_list@RFrame_Text@frames@ui@modules@UModSys@@UEAAPEAUIFrameList@libui@5@XZ 0000000180002fe0 f i umodsys_lib_libui:umodsys.mod.ui.frames.obj
 0001:00001ff0       ?root_get_interface_info@RRenderDriver3D@SDL_GL@ui@modules@UModSys@@UEBAAEBUSUniquePointerInfo@core@5@XZ 0000000180002ff0 f i umodsys_lib_libui:umodsys.mod.ui.SDL_GL.obj
 0001:00002000       ?root_get_interface_type@RRenderDriver3D@SDL_GL@ui@modules@UModSys@@UEBAPEBUSUniquePointerInfo@core@5@XZ 0000000180003000 f i umodsys_lib_libui:umodsys.mod.ui.SDL_GL.obj
 0001:00002010       ?root_get_other_interface@RRenderDriver3D@SDL_GL@ui@modules@UModSys@@UEBAPEBUIRoot@core@5@PEBUSUniquePointerInfo@75@@Z 0000000180003010 f i umodsys_lib_libui:umodsys.mod.ui.SDL_GL.obj
 0001:00002010       ?root_get_other_interface@RRenderDriver3D@SDL_GL@ui@modules@UModSys@@UEAAPEAUIRoot@core@5@PEBUSUniquePointerInfo@75@@Z 0000000180003010 f i umodsys_lib_libui:umodsys.mod.ui.SDL_GL.obj
 0001:00002050       ?root_is_interface_supported@RRenderDriver3D@SDL_GL@ui@modules@UModSys@@UEBA_NPEBUSUniquePointerInfo@core@5@@Z 0000000180003050 f i umodsys_lib_libui:umodsys.mod.ui.SDL_GL.obj
 0001:00002090       ?ref_add@RKeyboardController@SDL_core@ui@modules@UModSys@@UEBAXXZ 0000000180003090 f i umodsys_lib_libui:umodsys.mod.ui.SDL_core.obj
 0001:00002090       ?ref_add@RMouseController@SDL_core@ui@modules@UModSys@@UEBAXXZ 0000000180003090 f i umodsys_lib_libui:umodsys.mod.ui.SDL_core.obj
 0001:00002090       ?ref_add@RKeyboardController@SDL_GL@ui@modules@UModSys@@UEBAXXZ 0000000180003090 f i umodsys_lib_libui:umodsys.mod.ui.SDL_GL.obj
 0001:00002090       ?ref_add@RMouseController@SDL_GL@ui@modules@UModSys@@UEBAXXZ 0000000180003090 f i umodsys_lib_libui:umodsys.mod.ui.SDL_GL.obj
 0001:00002090       ?ref_add@RRenderDriver3D@SDL_GL@ui@modules@UModSys@@UEBAXXZ 0000000180003090 f i umodsys_lib_libui:umodsys.mod.ui.SDL_GL.obj
 0001:00002090       ?ref_add@RRenderDriver2D@SDL_core@ui@modules@UModSys@@UEBAXXZ 0000000180003090 f i umodsys_lib_libui:umodsys.mod.ui.SDL_core.obj
 0001:000020a0       ?root_get_interface_info@RTerminalX@SDL_GL@ui@modules@UModSys@@UEBAAEBUSUniquePointerInfo@core@5@XZ 00000001800030a0 f i umodsys_lib_libui:umodsys.mod.ui.SDL_GL.obj
 0001:000020b0       ?root_get_interface_type@RTerminalX@SDL_GL@ui@modules@UModSys@@UEBAPEBUSUniquePointerInfo@core@5@XZ 00000001800030b0 f i umodsys_lib_libui:umodsys.mod.ui.SDL_GL.obj
 0001:000020c0       ?root_get_other_interface@RTerminalX@SDL_GL@ui@modules@UModSys@@UEBAPEBUIRoot@core@5@PEBUSUniquePointerInfo@75@@Z 00000001800030c0 f i umodsys_lib_libui:umodsys.mod.ui.SDL_GL.obj
 0001:000020c0       ?root_get_other_interface@RTerminalX@SDL_GL@ui@modules@UModSys@@UEAAPEAUIRoot@core@5@PEBUSUniquePointerInfo@75@@Z 00000001800030c0 f i umodsys_lib_libui:umodsys.mod.ui.SDL_GL.obj
 0001:000020f0       ?root_is_interface_supported@RTerminalX@SDL_GL@ui@modules@UModSys@@UEBA_NPEBUSUniquePointerInfo@core@5@@Z 00000001800030f0 f i umodsys_lib_libui:umodsys.mod.ui.SDL_GL.obj
 0001:00002130       ?root_get_interface_info@RVertexArray@SDL_GL@ui@modules@UModSys@@UEBAAEBUSUniquePointerInfo@core@5@XZ 0000000180003130 f i umodsys_lib_libui:umodsys.mod.ui.SDL_GL.obj
 0001:00002140       ?root_get_interface_type@RVertexArray@SDL_GL@ui@modules@UModSys@@UEBAPEBUSUniquePointerInfo@core@5@XZ 0000000180003140 f i umodsys_lib_libui:umodsys.mod.ui.SDL_GL.obj
 0001:00002150       ?root_get_other_interface@RVertexArray@SDL_GL@ui@modules@UModSys@@UEBAPEBUIRoot@core@5@PEBUSUniquePointerInfo@75@@Z 0000000180003150 f i umodsys_lib_libui:umodsys.mod.ui.SDL_GL.obj
 0001:00002150       ?root_get_other_interface@RVertexArray@SDL_GL@ui@modules@UModSys@@UEAAPEAUIRoot@core@5@PEBUSUniquePointerInfo@75@@Z 0000000180003150 f i umodsys_lib_libui:umodsys.mod.ui.SDL_GL.obj
 0001:00002180       ?root_is_interface_supported@RVertexArray@SDL_GL@ui@modules@UModSys@@UEBA_NPEBUSUniquePointerInfo@core@5@@Z 0000000180003180 f i umodsys_lib_libui:umodsys.mod.ui.SDL_GL.obj
 0001:000021b0       ?ref_remove@RMultiImage2D_SDL_ttf@SDL_GL@ui@modules@UModSys@@UEBAXXZ 00000001800031b0 f i umodsys_lib_libui:umodsys.mod.ui.SDL_GL.obj
 0001:000021b0       ?ref_remove@RDialog@frames@ui@modules@UModSys@@UEBAXXZ 00000001800031b0 f i umodsys_lib_libui:umodsys.mod.ui.frames.obj
 0001:000021b0       ?ref_remove@RGenerator@SDL_core@ui@modules@UModSys@@UEBAXXZ 00000001800031b0 f i umodsys_lib_libui:umodsys.mod.ui.SDL_core.obj
 0001:000021b0       ?ref_remove@RTerminal@SDL_GL@ui@modules@UModSys@@UEBAXXZ 00000001800031b0 f i umodsys_lib_libui:umodsys.mod.ui.SDL_GL.obj
 0001:000021b0       ?ref_remove@RGenerator@serialize_json@media@modules@UModSys@@UEBAXXZ 00000001800031b0 f i umodsys_lib_libmedia:umodsys.mod.media.serialize_json.obj
 0001:000021b0       ?ref_remove@RImage_Memory@stdlib@lib2d@modules@UModSys@@UEBAXXZ 00000001800031b0 f i umodsys_lib_lib2d:umodsys.mod.2d.stdlib.obj
 0001:000021b0       ?ref_remove@RGenerator@zlib@media@modules@UModSys@@UEBAXXZ 00000001800031b0 f i umodsys_lib_libmedia:umodsys.mod.media.zlib.obj
 0001:000021b0       ?ref_remove@RImageFactory_Memory@stdlib@lib2d@modules@UModSys@@UEBAXXZ 00000001800031b0 f i umodsys_lib_lib2d:umodsys.mod.2d.stdlib.obj
 0001:000021b0       ?ref_remove@RGenerator@stdlib@lib2d@modules@UModSys@@UEBAXXZ 00000001800031b0 f i umodsys_lib_lib2d:umodsys.mod.2d.stdlib.obj
 0001:000021b0       ?ref_remove@RTerminal@SDL_core@ui@modules@UModSys@@UEBAXXZ 00000001800031b0 f i umodsys_lib_libui:umodsys.mod.ui.SDL_core.obj
 0001:000021b0       ?ref_remove@RBinArchiveFrameClient_ZIP@zlib@media@modules@UModSys@@UEBAXXZ 00000001800031b0 f i umodsys_lib_libmedia:umodsys.mod.media.zlib.obj
 0001:000021b0       ?ref_remove@RMultiImage@stdlib@lib2d@modules@UModSys@@UEBAXXZ 00000001800031b0 f i umodsys_lib_lib2d:umodsys.mod.2d.stdlib.obj
 0001:000021b0       ?ref_remove@RSerializeReader@serialize_json@media@modules@UModSys@@UEBAXXZ 00000001800031b0 f i umodsys_lib_libmedia:umodsys.mod.media.serialize_json.obj
 0001:000021b0       ?ref_remove@RGenerator@frames@ui@modules@UModSys@@UEBAXXZ 00000001800031b0 f i umodsys_lib_libui:umodsys.mod.ui.frames.obj
 0001:000021b0       ?ref_remove@RGenerator@images_std@media@modules@UModSys@@UEBAXXZ 00000001800031b0 f i umodsys_lib_libmedia:umodsys.mod.media.images_std.obj
 0001:000021b0       ?ref_remove@RGenerator@SDL_GL@ui@modules@UModSys@@UEBAXXZ 00000001800031b0 f i umodsys_lib_libui:umodsys.mod.ui.SDL_GL.obj
 0001:000021b0       ?ref_remove@RVertexArray@SDL_GL@ui@modules@UModSys@@UEBAXXZ 00000001800031b0 f i umodsys_lib_libui:umodsys.mod.ui.SDL_GL.obj
 0001:000021b0       ?ref_remove@RMultiImage2D_SDL_ttf@SDL_core@ui@modules@UModSys@@UEBAXXZ 00000001800031b0 f i umodsys_lib_libui:umodsys.mod.ui.SDL_core.obj
 0001:000021b0       ?ref_remove@RGenerator@test1@test@modules@UModSys@@UEBAXXZ 00000001800031b0 f i plugin_test1.obj
 0001:000021d0       ?get_generated_names@RGenerator@SDL_GL@ui@modules@UModSys@@UEBAHAEAUSUniquePtrList@core@5@@Z 00000001800031d0 f i umodsys_lib_libui:umodsys.mod.ui.SDL_GL.obj
 0001:000021f0       ?get_generated_types@RGenerator@SDL_GL@ui@modules@UModSys@@UEBAHAEAUSUniquePtrList@core@5@PEBUSUniquePointerInfo@75@@Z 00000001800031f0 f i umodsys_lib_libui:umodsys.mod.ui.SDL_GL.obj
 0001:00002260       ?generate@RGenerator@SDL_GL@ui@modules@UModSys@@UEAA_NAEAU?$TRefObject@UIRefObject@core@UModSys@@U?$TRefObjectFunc@UIRefObject@core@UModSys@@@tl@3@@tl@5@PEBUSUniquePointerInfo@core@5@AEBUSParameters@95@@Z 0000000180003260 f i umodsys_lib_libui:umodsys.mod.ui.SDL_GL.obj
 0001:000022e0       ?root_get_interface_info@RGenerator@SDL_GL@ui@modules@UModSys@@UEBAAEBUSUniquePointerInfo@core@5@XZ 00000001800032e0 f i umodsys_lib_libui:umodsys.mod.ui.SDL_GL.obj
 0001:000022f0       ?root_get_interface_type@RGenerator@SDL_GL@ui@modules@UModSys@@UEBAPEBUSUniquePointerInfo@core@5@XZ 00000001800032f0 f i umodsys_lib_libui:umodsys.mod.ui.SDL_GL.obj
 0001:00002300       ?root_get_other_interface@RGenerator@SDL_GL@ui@modules@UModSys@@UEBAPEBUIRoot@core@5@PEBUSUniquePointerInfo@75@@Z 0000000180003300 f i umodsys_lib_libui:umodsys.mod.ui.SDL_GL.obj
 0001:00002300       ?root_get_other_interface@RGenerator@SDL_GL@ui@modules@UModSys@@UEAAPEAUIRoot@core@5@PEBUSUniquePointerInfo@75@@Z 0000000180003300 f i umodsys_lib_libui:umodsys.mod.ui.SDL_GL.obj
 0001:00002340       ?root_is_interface_supported@RGenerator@SDL_GL@ui@modules@UModSys@@UEBA_NPEBUSUniquePointerInfo@core@5@@Z 0000000180003340 f i umodsys_lib_libui:umodsys.mod.ui.SDL_GL.obj
 0001:00002380       ?get_uid@RGenerator@SDL_GL@ui@modules@UModSys@@UEBAPEBUSUniquePointerInfo@core@5@XZ 0000000180003380 f i umodsys_lib_libui:umodsys.mod.ui.SDL_GL.obj
 0001:00002390       ??_GRKeyboardController@SDL_GL@ui@modules@UModSys@@UEAAPEAXI@Z 0000000180003390 f i umodsys_lib_libui:umodsys.mod.ui.SDL_GL.obj
 0001:00002390       ??_ERKeyboardController@SDL_GL@ui@modules@UModSys@@UEAAPEAXI@Z 0000000180003390 f i  CIL library: CIL module
 0001:000023c0       ??_ERMouseController@SDL_GL@ui@modules@UModSys@@UEAAPEAXI@Z 00000001800033c0 f i  CIL library: CIL module
 0001:000023c0       ??_GRMouseController@SDL_GL@ui@modules@UModSys@@UEAAPEAXI@Z 00000001800033c0 f i umodsys_lib_libui:umodsys.mod.ui.SDL_GL.obj
 0001:000023f0       ??_GRTerminal@SDL_GL@ui@modules@UModSys@@UEAAPEAXI@Z 00000001800033f0 f i umodsys_lib_libui:umodsys.mod.ui.SDL_GL.obj
 0001:000023f0       ??_ERTerminal@SDL_GL@ui@modules@UModSys@@UEAAPEAXI@Z 00000001800033f0 f i  CIL library: CIL module
 0001:00002420       ??_ERMultiImage2D_SDL_ttf@SDL_GL@ui@modules@UModSys@@UEAAPEAXI@Z 0000000180003420 f i  CIL library: CIL module
 0001:00002420       ??_GRMultiImage2D_SDL_ttf@SDL_GL@ui@modules@UModSys@@UEAAPEAXI@Z 0000000180003420 f i umodsys_lib_libui:umodsys.mod.ui.SDL_GL.obj
 0001:00002450       ?set_flags@SGLFuncs@SDL_GL@ui@modules@UModSys@@QEBAXPEBUTextureInfo@12345@AEBUSRenderMapFlags@lib3d@5@@Z 0000000180003450 f i umodsys_lib_libui:umodsys.mod.ui.SDL_GL.obj
 0001:00002550       ??_GRRenderDriver3D@SDL_GL@ui@modules@UModSys@@UEAAPEAXI@Z 0000000180003550 f i umodsys_lib_libui:umodsys.mod.ui.SDL_GL.obj
 0001:00002550       ??_ERRenderDriver3D@SDL_GL@ui@modules@UModSys@@UEAAPEAXI@Z 0000000180003550 f i  CIL library: CIL module
 0001:00002580       ??_GRVertexArray@SDL_GL@ui@modules@UModSys@@UEAAPEAXI@Z 0000000180003580 f i umodsys_lib_libui:umodsys.mod.ui.SDL_GL.obj
 0001:00002580       ??_ERVertexArray@SDL_GL@ui@modules@UModSys@@UEAAPEAXI@Z 0000000180003580 f i  CIL library: CIL module
 0001:000025b0       ??_GRTerminalX@SDL_GL@ui@modules@UModSys@@UEAAPEAXI@Z 00000001800035b0 f i umodsys_lib_libui:umodsys.mod.ui.SDL_GL.obj
 0001:000025b0       ??_ERTerminalX@SDL_GL@ui@modules@UModSys@@UEAAPEAXI@Z 00000001800035b0 f i  CIL library: CIL module
 0001:000025e0       ?do_open@RModuleReg@SDL_GL@ui@modules@UModSys@@UEAA_NXZ 00000001800035e0 f i umodsys_lib_libui:umodsys.mod.ui.SDL_GL.obj
 0001:000025f0       ?do_close@RModuleReg@SDL_GL@ui@modules@UModSys@@UEAA_NXZ 00000001800035f0 f i umodsys_lib_libui:umodsys.mod.ui.SDL_GL.obj
 0001:00002600       ??_ERModuleReg@SDL_GL@ui@modules@UModSys@@UEAAPEAXI@Z 0000000180003600 f i  CIL library: CIL module
 0001:00002600       ??_GRModuleReg@SDL_GL@ui@modules@UModSys@@UEAAPEAXI@Z 0000000180003600 f i umodsys_lib_libui:umodsys.mod.ui.SDL_GL.obj
 0001:00002630       ??1?$TScatterArray@UGlyph@RMultiImage2D_SDL_ttf@SDL_GL@ui@modules@UModSys@@HU?$TScalarCompare@H@core@6@U?$TNodeDeleter0@U?$TScatterArrayNode@UGlyph@RMultiImage2D_SDL_ttf@SDL_GL@ui@modules@UModSys@@H@tl@UModSys@@@tl@6@@tl@UModSys@@QEAA@XZ 0000000180003630 f i umodsys_lib_libui:umodsys.mod.ui.SDL_GL.obj
 0001:00002660       ??1?$TDynarrayDynamic@USLayInfo@RVertexArray@SDL_GL@ui@modules@UModSys@@U?$TAllocator@USIMemAlloc@core@UModSys@@USCountCalcExact@23@@tl@6@@tl@UModSys@@QEAA@XZ 0000000180003660 f i umodsys_lib_libui:umodsys.mod.ui.SDL_GL.obj
 0001:00002670       ??1?$TDynarray@U?$TDynarrayHolderDynamic@USLayInfo@RVertexArray@SDL_GL@ui@modules@UModSys@@U?$TAllocator@USIMemAlloc@core@UModSys@@USCountCalcExact@23@@tl@6@@tl@UModSys@@@tl@UModSys@@QEAA@XZ 0000000180003670 f i umodsys_lib_libui:umodsys.mod.ui.SDL_GL.obj
 0001:000026e0       ??_GRGenerator@frames@ui@modules@UModSys@@UEAAPEAXI@Z 00000001800036e0 f i umodsys_lib_libui:umodsys.mod.ui.frames.obj
 0001:000026e0       ??_ERGenerator@serialize_json@media@modules@UModSys@@UEAAPEAXI@Z 00000001800036e0 f i  CIL library: CIL module
 0001:000026e0       ??_GRGenerator@test1@test@modules@UModSys@@UEAAPEAXI@Z 00000001800036e0 f i plugin_test1.obj
 0001:000026e0       ??_ERGenerator@stdlib@lib2d@modules@UModSys@@UEAAPEAXI@Z 00000001800036e0 f i  CIL library: CIL module
 0001:000026e0       ??_GRGenerator@SDL_GL@ui@modules@UModSys@@UEAAPEAXI@Z 00000001800036e0 f i umodsys_lib_libui:umodsys.mod.ui.SDL_GL.obj
 0001:000026e0       ??_ERGenerator@frames@ui@modules@UModSys@@UEAAPEAXI@Z 00000001800036e0 f i  CIL library: CIL module
 0001:000026e0       ??_GRGenerator@serialize_json@media@modules@UModSys@@UEAAPEAXI@Z 00000001800036e0 f i umodsys_lib_libmedia:umodsys.mod.media.serialize_json.obj
 0001:000026e0       ??_EIRefObject@core@UModSys@@UEAAPEAXI@Z 00000001800036e0 f i  CIL library: CIL module
 0001:000026e0       ??_GRGenerator@zlib@media@modules@UModSys@@UEAAPEAXI@Z 00000001800036e0 f i umodsys_lib_libmedia:umodsys.mod.media.zlib.obj
 0001:000026e0       ??_ERGenerator@SDL_core@ui@modules@UModSys@@UEAAPEAXI@Z 00000001800036e0 f i  CIL library: CIL module
 0001:000026e0       ??_ERGenerator@test1@test@modules@UModSys@@UEAAPEAXI@Z 00000001800036e0 f i  CIL library: CIL module
 0001:000026e0       ??_GRGenerator@SDL_core@ui@modules@UModSys@@UEAAPEAXI@Z 00000001800036e0 f i umodsys_lib_libui:umodsys.mod.ui.SDL_core.obj
 0001:000026e0       ??_ERGenerator@zlib@media@modules@UModSys@@UEAAPEAXI@Z 00000001800036e0 f i  CIL library: CIL module
 0001:000026e0       ??_GIRefObject@core@UModSys@@UEAAPEAXI@Z 00000001800036e0 f i plugin_test1.obj
 0001:000026e0       ??_ERGenerator@images_std@media@modules@UModSys@@UEAAPEAXI@Z 00000001800036e0 f i  CIL library: CIL module
 0001:000026e0       ??_GRGenerator@images_std@media@modules@UModSys@@UEAAPEAXI@Z 00000001800036e0 f i umodsys_lib_libmedia:umodsys.mod.media.images_std.obj
 0001:000026e0       ??_GRGenerator@stdlib@lib2d@modules@UModSys@@UEAAPEAXI@Z 00000001800036e0 f i umodsys_lib_lib2d:umodsys.mod.2d.stdlib.obj
 0001:000026e0       ??_ERGenerator@SDL_GL@ui@modules@UModSys@@UEAAPEAXI@Z 00000001800036e0 f i  CIL library: CIL module
 0001:00002710       ?remove_node@?$TTreeHoldRB@U?$TScatterArrayNode@U?$TRefObjectComposite@UIKeyboardClient@libui@UModSys@@UIRefObject@core@3@U?$TRefObjectFunc@UIRefObject@core@UModSys@@@tl@3@@tl@UModSys@@H@tl@UModSys@@@tl@UModSys@@QEAAXPEAU?$TScatterArrayNode@U?$TRefObjectComposite@UIKeyboardClient@libui@UModSys@@UIRefObject@core@3@U?$TRefObjectFunc@UIRefObject@core@UModSys@@@tl@3@@tl@UModSys@@H@23@@Z 0000000180003710 f i umodsys_lib_libui:umodsys.mod.ui.SDL_GL.obj
 0001:00002710       ?remove_node@?$TTreeHoldRB@U?$TScatterArrayNode@U?$TRefObjectCompositeExtra@UIMouseClient@libui@UModSys@@HUIRefObject@core@3@U?$TRefObjectFunc@UIRefObject@core@UModSys@@@tl@3@@tl@UModSys@@H@tl@UModSys@@@tl@UModSys@@QEAAXPEAU?$TScatterArrayNode@U?$TRefObjectCompositeExtra@UIMouseClient@libui@UModSys@@HUIRefObject@core@3@U?$TRefObjectFunc@UIRefObject@core@UModSys@@@tl@3@@tl@UModSys@@H@23@@Z 0000000180003710 f i umodsys_lib_libui:umodsys.mod.ui.SDL_GL.obj
 0001:00002830       ??R?$TNodeDeleter0@U?$TScatterArrayNode@U?$TRefObjectComposite@UIKeyboardClient@libui@UModSys@@UIRefObject@core@3@U?$TRefObjectFunc@UIRefObject@core@UModSys@@@tl@3@@tl@UModSys@@H@tl@UModSys@@@tl@UModSys@@QEBAHPEAU?$TScatterArrayNode@U?$TRefObjectComposite@UIKeyboardClient@libui@UModSys@@UIRefObject@core@3@U?$TRefObjectFunc@UIRefObject@core@UModSys@@@tl@3@@tl@UModSys@@H@12@@Z 0000000180003830 f i umodsys_lib_libui:umodsys.mod.ui.SDL_GL.obj
 0001:00002830       ??R?$TNodeDeleter0@U?$TScatterArrayNode@U?$TRefObjectCompositeExtra@UIMouseClient@libui@UModSys@@HUIRefObject@core@3@U?$TRefObjectFunc@UIRefObject@core@UModSys@@@tl@3@@tl@UModSys@@H@tl@UModSys@@@tl@UModSys@@QEBAHPEAU?$TScatterArrayNode@U?$TRefObjectCompositeExtra@UIMouseClient@libui@UModSys@@HUIRefObject@core@3@U?$TRefObjectFunc@UIRefObject@core@UModSys@@@tl@3@@tl@UModSys@@H@12@@Z 0000000180003830 f i umodsys_lib_libui:umodsys.mod.ui.SDL_GL.obj
 0001:000028b0       ??1?$TPair@HU?$TRefObjectComposite@UIKeyboardClient@libui@UModSys@@UIRefObject@core@3@U?$TRefObjectFunc@UIRefObject@core@UModSys@@@tl@3@@tl@UModSys@@@tl@UModSys@@QEAA@XZ 00000001800038b0 f i umodsys_lib_libui:umodsys.mod.ui.SDL_GL.obj
 0001:000028b0       ??1?$TPair@HU?$TRefObjectCompositeExtra@UIMouseClient@libui@UModSys@@HUIRefObject@core@3@U?$TRefObjectFunc@UIRefObject@core@UModSys@@@tl@3@@tl@UModSys@@@tl@UModSys@@QEAA@XZ 00000001800038b0 f i umodsys_lib_libui:umodsys.mod.ui.SDL_GL.obj
 0001:00002900       ??1?$TRefObjectComposite@UIKeyboardClient@libui@UModSys@@UIRefObject@core@3@U?$TRefObjectFunc@UIRefObject@core@UModSys@@@tl@3@@tl@UModSys@@QEAA@XZ 0000000180003900 f i umodsys_lib_libui:umodsys.mod.ui.SDL_GL.obj
 0001:00002900       ??1?$TRefObjectCompositeExtra@UIMouseClient@libui@UModSys@@HUIRefObject@core@3@U?$TRefObjectFunc@UIRefObject@core@UModSys@@@tl@3@@tl@UModSys@@QEAA@XZ 0000000180003900 f i umodsys_lib_libui:umodsys.mod.ui.SDL_GL.obj
 0001:00002950       ?remove_color@?$TTreeHoldRB@U?$TScatterArrayNode@U?$TRefObjectComposite@UIKeyboardClient@libui@UModSys@@UIRefObject@core@3@U?$TRefObjectFunc@UIRefObject@core@UModSys@@@tl@3@@tl@UModSys@@H@tl@UModSys@@@tl@UModSys@@IEAAXPEAU?$TScatterArrayNode@U?$TRefObjectComposite@UIKeyboardClient@libui@UModSys@@UIRefObject@core@3@U?$TRefObjectFunc@UIRefObject@core@UModSys@@@tl@3@@tl@UModSys@@H@23@0@Z 0000000180003950 f i umodsys_lib_libui:umodsys.mod.ui.SDL_GL.obj
 0001:00002950       ?remove_color@?$TTreeHoldRB@U?$TScatterArrayNode@U?$TRefObjectCompositeExtra@UIMouseClient@libui@UModSys@@HUIRefObject@core@3@U?$TRefObjectFunc@UIRefObject@core@UModSys@@@tl@3@@tl@UModSys@@H@tl@UModSys@@@tl@UModSys@@IEAAXPEAU?$TScatterArrayNode@U?$TRefObjectCompositeExtra@UIMouseClient@libui@UModSys@@HUIRefObject@core@3@U?$TRefObjectFunc@UIRefObject@core@UModSys@@@tl@3@@tl@UModSys@@H@23@0@Z 0000000180003950 f i umodsys_lib_libui:umodsys.mod.ui.SDL_GL.obj
 0001:00002c10       ?ResizeRel@?$TDynarray@U?$TDynarrayHolderDynamic@USLayInfo@RVertexArray@SDL_GL@ui@modules@UModSys@@U?$TAllocator@USIMemAlloc@core@UModSys@@USCountCalcExact@23@@tl@6@@tl@UModSys@@@tl@UModSys@@QEAA_N_J@Z 0000000180003c10 f i umodsys_lib_libui:umodsys.mod.ui.SDL_GL.obj
 0001:00002cf0       ??$t_ref_get_other_interface@URMultiImage2D_SDL_ttf@SDL_GL@ui@modules@UModSys@@U?$TRefObjectWeakFunc@URMultiImage2D_SDL_ttf@SDL_GL@ui@modules@UModSys@@@tl@5@@IRefObject@core@UModSys@@QEAA_NAEAU?$TRefObject@URMultiImage2D_SDL_ttf@SDL_GL@ui@modules@UModSys@@U?$TRefObjectWeakFunc@URMultiImage2D_SDL_ttf@SDL_GL@ui@modules@UModSys@@@tl@5@@tl@2@@Z 0000000180003cf0 f i umodsys_lib_libui:umodsys.mod.ui.SDL_GL.obj
 0001:00002d70       ??$genx_node@UCmp@?$TScatterArray@U?$TRefObjectComposite@UIKeyboardClient@libui@UModSys@@UIRefObject@core@3@U?$TRefObjectFunc@UIRefObject@core@UModSys@@@tl@3@@tl@UModSys@@HU?$TScalarCompare@H@core@3@U?$TNodeDeleter0@U?$TScatterArrayNode@U?$TRefObjectComposite@UIKeyboardClient@libui@UModSys@@UIRefObject@core@3@U?$TRefObjectFunc@UIRefObject@core@UModSys@@@tl@3@@tl@UModSys@@H@tl@UModSys@@@23@@tl@UModSys@@UGen0@234@@?$TTreeHoldRBD@U?$TScatterArrayNode@U?$TRefObjectComposite@UIKeyboardClient@libui@UModSys@@UIRefObject@core@3@U?$TRefObjectFunc@UIRefObject@core@UModSys@@@tl@3@@tl@UModSys@@H@tl@UModSys@@U?$TNodeDeleter0@U?$TScatterArrayNode@U?$TRefObjectComposite@UIKeyboardClient@libui@UModSys@@UIRefObject@core@3@U?$TRefObjectFunc@UIRefObject@core@UModSys@@@tl@3@@tl@UModSys@@H@tl@UModSys@@@23@@tl@UModSys@@QEAAPEAU?$TScatterArrayNode@U?$TRefObjectComposite@UIKeyboardClient@libui@UModSys@@UIRefObject@core@3@U?$TRefObjectFunc@UIRefObject@core@UModSys@@@tl@3@@tl@UModSys@@H@12@UCmp@?$TScatterArray@U?$TRefObjectComposite@UIKeyboardClient@libui@UModSys@@UIRefObject@core@3@U?$TRefObjectFunc@UIRefObject@core@UModSys@@@tl@3@@tl@UModSys@@HU?$TScalarCompare@H@core@3@U?$TNodeDeleter0@U?$TScatterArrayNode@U?$TRefObjectComposite@UIKeyboardClient@libui@UModSys@@UIRefObject@core@3@U?$TRefObjectFunc@UIRefObject@core@UModSys@@@tl@3@@tl@UModSys@@H@tl@UModSys@@@23@@12@AEBUGen0@512@PEAPEAU312@2_N@Z 0000000180003d70 f i umodsys_lib_libui:umodsys.mod.ui.SDL_GL.obj
 0001:00002eb0       ??$genx_node@UCmp@?$TScatterArray@U?$TRefObjectCompositeExtra@UIMouseClient@libui@UModSys@@HUIRefObject@core@3@U?$TRefObjectFunc@UIRefObject@core@UModSys@@@tl@3@@tl@UModSys@@HU?$TScalarCompare@H@core@3@U?$TNodeDeleter0@U?$TScatterArrayNode@U?$TRefObjectCompositeExtra@UIMouseClient@libui@UModSys@@HUIRefObject@core@3@U?$TRefObjectFunc@UIRefObject@core@UModSys@@@tl@3@@tl@UModSys@@H@tl@UModSys@@@23@@tl@UModSys@@UGen0@234@@?$TTreeHoldRBD@U?$TScatterArrayNode@U?$TRefObjectCompositeExtra@UIMouseClient@libui@UModSys@@HUIRefObject@core@3@U?$TRefObjectFunc@UIRefObject@core@UModSys@@@tl@3@@tl@UModSys@@H@tl@UModSys@@U?$TNodeDeleter0@U?$TScatterArrayNode@U?$TRefObjectCompositeExtra@UIMouseClient@libui@UModSys@@HUIRefObject@core@3@U?$TRefObjectFunc@UIRefObject@core@UModSys@@@tl@3@@tl@UModSys@@H@tl@UModSys@@@23@@tl@UModSys@@QEAAPEAU?$TScatterArrayNode@U?$TRefObjectCompositeExtra@UIMouseClient@libui@UModSys@@HUIRefObject@core@3@U?$TRefObjectFunc@UIRefObject@core@UModSys@@@tl@3@@tl@UModSys@@H@12@UCmp@?$TScatterArray@U?$TRefObjectCompositeExtra@UIMouseClient@libui@UModSys@@HUIRefObject@core@3@U?$TRefObjectFunc@UIRefObject@core@UModSys@@@tl@3@@tl@UModSys@@HU?$TScalarCompare@H@core@3@U?$TNodeDeleter0@U?$TScatterArrayNode@U?$TRefObjectCompositeExtra@UIMouseClient@libui@UModSys@@HUIRefObject@core@3@U?$TRefObjectFunc@UIRefObject@core@UModSys@@@tl@3@@tl@UModSys@@H@tl@UModSys@@@23@@12@AEBUGen0@512@PEAPEAU312@2_N@Z 0000000180003eb0 f i umodsys_lib_libui:umodsys.mod.ui.SDL_GL.obj
 0001:00003000       ??$genx_node@UCmp@?$TScatterArray@UGlyph@RMultiImage2D_SDL_ttf@SDL_GL@ui@modules@UModSys@@HU?$TScalarCompare@H@core@6@U?$TNodeDeleter0@U?$TScatterArrayNode@UGlyph@RMultiImage2D_SDL_ttf@SDL_GL@ui@modules@UModSys@@H@tl@UModSys@@@tl@6@@tl@UModSys@@UGen0@234@@?$TTreeHoldRBD@U?$TScatterArrayNode@UGlyph@RMultiImage2D_SDL_ttf@SDL_GL@ui@modules@UModSys@@H@tl@UModSys@@U?$TNodeDeleter0@U?$TScatterArrayNode@UGlyph@RMultiImage2D_SDL_ttf@SDL_GL@ui@modules@UModSys@@H@tl@UModSys@@@23@@tl@UModSys@@QEAAPEAU?$TScatterArrayNode@UGlyph@RMultiImage2D_SDL_ttf@SDL_GL@ui@modules@UModSys@@H@12@UCmp@?$TScatterArray@UGlyph@RMultiImage2D_SDL_ttf@SDL_GL@ui@modules@UModSys@@HU?$TScalarCompare@H@core@6@U?$TNodeDeleter0@U?$TScatterArrayNode@UGlyph@RMultiImage2D_SDL_ttf@SDL_GL@ui@modules@UModSys@@H@tl@UModSys@@@tl@6@@12@AEBUGen0@512@PEAPEAU312@2_N@Z 0000000180004000 f i umodsys_lib_libui:umodsys.mod.ui.SDL_GL.obj
 0001:00003130       ??$process_nodes@U?$TNodeDeleter0@U?$TScatterArrayNode@U?$TRefObjectCompositeExtra@UIMouseClient@libui@UModSys@@HUIRefObject@core@3@U?$TRefObjectFunc@UIRefObject@core@UModSys@@@tl@3@@tl@UModSys@@H@tl@UModSys@@@tl@UModSys@@@?$TTreeHoldRB@U?$TScatterArrayNode@U?$TRefObjectCompositeExtra@UIMouseClient@libui@UModSys@@HUIRefObject@core@3@U?$TRefObjectFunc@UIRefObject@core@UModSys@@@tl@3@@tl@UModSys@@H@tl@UModSys@@@tl@UModSys@@QEAAHAEBU?$TNodeDeleter0@U?$TScatterArrayNode@U?$TRefObjectCompositeExtra@UIMouseClient@libui@UModSys@@HUIRefObject@core@3@U?$TRefObjectFunc@UIRefObject@core@UModSys@@@tl@3@@tl@UModSys@@H@tl@UModSys@@@12@@Z 0000000180004130 f i umodsys_lib_libui:umodsys.mod.ui.SDL_GL.obj
 0001:00003130       ??$process_nodes@U?$TNodeDeleter0@U?$TScatterArrayNode@U?$TRefObjectComposite@UIKeyboardClient@libui@UModSys@@UIRefObject@core@3@U?$TRefObjectFunc@UIRefObject@core@UModSys@@@tl@3@@tl@UModSys@@H@tl@UModSys@@@tl@UModSys@@@?$TTreeHoldRB@U?$TScatterArrayNode@U?$TRefObjectComposite@UIKeyboardClient@libui@UModSys@@UIRefObject@core@3@U?$TRefObjectFunc@UIRefObject@core@UModSys@@@tl@3@@tl@UModSys@@H@tl@UModSys@@@tl@UModSys@@QEAAHAEBU?$TNodeDeleter0@U?$TScatterArrayNode@U?$TRefObjectComposite@UIKeyboardClient@libui@UModSys@@UIRefObject@core@3@U?$TRefObjectFunc@UIRefObject@core@UModSys@@@tl@3@@tl@UModSys@@H@tl@UModSys@@@12@@Z 0000000180004130 f i umodsys_lib_libui:umodsys.mod.ui.SDL_GL.obj
 0001:000031b0       ??0?$TScatterArrayNode@UGlyph@RMultiImage2D_SDL_ttf@SDL_GL@ui@modules@UModSys@@H@tl@UModSys@@QEAA@AEBH@Z 00000001800041b0 f i umodsys_lib_libui:umodsys.mod.ui.SDL_GL.obj
 0001:000032a0       ??1?$TPair@HUGlyph@RMultiImage2D_SDL_ttf@SDL_GL@ui@modules@UModSys@@@tl@UModSys@@QEAA@XZ 00000001800042a0 f i umodsys_lib_libui:umodsys.mod.ui.SDL_GL.obj
 0001:000032d0       ??0STextureGL@SDL_GL@ui@modules@UModSys@@QEAA@AEBU01234@@Z 00000001800042d0 f i umodsys_lib_libui:umodsys.mod.ui.SDL_GL.obj
 0001:00003410       ??$process_nodes_r@U?$TNodeDeleter0@U?$TScatterArrayNode@U?$TRefObjectCompositeExtra@UIMouseClient@libui@UModSys@@HUIRefObject@core@3@U?$TRefObjectFunc@UIRefObject@core@UModSys@@@tl@3@@tl@UModSys@@H@tl@UModSys@@@tl@UModSys@@@?$TTreeHoldRB@U?$TScatterArrayNode@U?$TRefObjectCompositeExtra@UIMouseClient@libui@UModSys@@HUIRefObject@core@3@U?$TRefObjectFunc@UIRefObject@core@UModSys@@@tl@3@@tl@UModSys@@H@tl@UModSys@@@tl@UModSys@@KAHPEAU?$TScatterArrayNode@U?$TRefObjectCompositeExtra@UIMouseClient@libui@UModSys@@HUIRefObject@core@3@U?$TRefObjectFunc@UIRefObject@core@UModSys@@@tl@3@@tl@UModSys@@H@12@AEBU?$TNodeDeleter0@U?$TScatterArrayNode@U?$TRefObjectCompositeExtra@UIMouseClient@libui@UModSys@@HUIRefObject@core@3@U?$TRefObjectFunc@UIRefObject@core@UModSys@@@tl@3@@tl@UModSys@@H@tl@UModSys@@@12@@Z 0000000180004410 f i umodsys_lib_libui:umodsys.mod.ui.SDL_GL.obj
 0001:00003410       ??$process_nodes_r@U?$TNodeDeleter0@U?$TScatterArrayNode@U?$TRefObjectComposite@UIKeyboardClient@libui@UModSys@@UIRefObject@core@3@U?$TRefObjectFunc@UIRefObject@core@UModSys@@@tl@3@@tl@UModSys@@H@tl@UModSys@@@tl@UModSys@@@?$TTreeHoldRB@U?$TScatterArrayNode@U?$TRefObjectComposite@UIKeyboardClient@libui@UModSys@@UIRefObject@core@3@U?$TRefObjectFunc@UIRefObject@core@UModSys@@@tl@3@@tl@UModSys@@H@tl@UModSys@@@tl@UModSys@@KAHPEAU?$TScatterArrayNode@U?$TRefObjectComposite@UIKeyboardClient@libui@UModSys@@UIRefObject@core@3@U?$TRefObjectFunc@UIRefObject@core@UModSys@@@tl@3@@tl@UModSys@@H@12@AEBU?$TNodeDeleter0@U?$TScatterArrayNode@U?$TRefObjectComposite@UIKeyboardClient@libui@UModSys@@UIRefObject@core@3@U?$TRefObjectFunc@UIRefObject@core@UModSys@@@tl@3@@tl@UModSys@@H@tl@UModSys@@@12@@Z 0000000180004410 f i umodsys_lib_libui:umodsys.mod.ui.SDL_GL.obj
 0001:00003480       ??$process_nodes_r@U?$TNodeDeleter0@U?$TScatterArrayNode@UGlyph@RMultiImage2D_SDL_ttf@SDL_GL@ui@modules@UModSys@@H@tl@UModSys@@@tl@UModSys@@@?$TTreeHoldRB@U?$TScatterArrayNode@UGlyph@RMultiImage2D_SDL_ttf@SDL_GL@ui@modules@UModSys@@H@tl@UModSys@@@tl@UModSys@@KAHPEAU?$TScatterArrayNode@UGlyph@RMultiImage2D_SDL_ttf@SDL_GL@ui@modules@UModSys@@H@12@AEBU?$TNodeDeleter0@U?$TScatterArrayNode@UGlyph@RMultiImage2D_SDL_ttf@SDL_GL@ui@modules@UModSys@@H@tl@UModSys@@@12@@Z 0000000180004480 f i umodsys_lib_libui:umodsys.mod.ui.SDL_GL.obj
 0001:00003510       ?root_get_interface_info@RKeyboardController@SDL_core@ui@modules@UModSys@@UEBAAEBUSUniquePointerInfo@core@5@XZ 0000000180004510 f i umodsys_lib_libui:umodsys.mod.ui.SDL_core.obj
 0001:00003520       ?root_get_interface_type@RKeyboardController@SDL_core@ui@modules@UModSys@@UEBAPEBUSUniquePointerInfo@core@5@XZ 0000000180004520 f i umodsys_lib_libui:umodsys.mod.ui.SDL_core.obj
 0001:00003530       ?root_get_other_interface@RKeyboardController@SDL_core@ui@modules@UModSys@@UEBAPEBUIRoot@core@5@PEBUSUniquePointerInfo@75@@Z 0000000180004530 f i umodsys_lib_libui:umodsys.mod.ui.SDL_core.obj
 0001:00003530       ?root_get_other_interface@RKeyboardController@SDL_core@ui@modules@UModSys@@UEAAPEAUIRoot@core@5@PEBUSUniquePointerInfo@75@@Z 0000000180004530 f i umodsys_lib_libui:umodsys.mod.ui.SDL_core.obj
 0001:00003560       ?root_is_interface_supported@RKeyboardController@SDL_core@ui@modules@UModSys@@UEBA_NPEBUSUniquePointerInfo@core@5@@Z 0000000180004560 f i umodsys_lib_libui:umodsys.mod.ui.SDL_core.obj
 0001:00003590       ?root_get_interface_info@RMouseController@SDL_core@ui@modules@UModSys@@UEBAAEBUSUniquePointerInfo@core@5@XZ 0000000180004590 f i umodsys_lib_libui:umodsys.mod.ui.SDL_core.obj
 0001:000035a0       ?root_get_interface_type@RMouseController@SDL_core@ui@modules@UModSys@@UEBAPEBUSUniquePointerInfo@core@5@XZ 00000001800045a0 f i umodsys_lib_libui:umodsys.mod.ui.SDL_core.obj
 0001:000035b0       ?root_get_interface_types@RGenerator@zlib@media@modules@UModSys@@UEBA_KAEAUSUniquePtrList@core@5@@Z 00000001800045b0 f i umodsys_lib_libmedia:umodsys.mod.media.zlib.obj
 0001:000035b0       ?root_get_interface_types@RGenerator@stdlib@lib2d@modules@UModSys@@UEBA_KAEAUSUniquePtrList@core@5@@Z 00000001800045b0 f i umodsys_lib_lib2d:umodsys.mod.2d.stdlib.obj
 0001:000035b0       ?root_get_interface_types@RRenderDriver3D@SDL_GL@ui@modules@UModSys@@UEBA_KAEAUSUniquePtrList@core@5@@Z 00000001800045b0 f i umodsys_lib_libui:umodsys.mod.ui.SDL_GL.obj
 0001:000035b0       ?root_get_interface_types@RKeyboardController@SDL_core@ui@modules@UModSys@@UEBA_KAEAUSUniquePtrList@core@5@@Z 00000001800045b0 f i umodsys_lib_libui:umodsys.mod.ui.SDL_core.obj
 0001:000035b0       ?root_get_interface_types@RTerminal@SDL_GL@ui@modules@UModSys@@UEBA_KAEAUSUniquePtrList@core@5@@Z 00000001800045b0 f i umodsys_lib_libui:umodsys.mod.ui.SDL_GL.obj
 0001:000035b0       ?root_get_interface_types@RSerializeReader@serialize_json@media@modules@UModSys@@UEBA_KAEAUSUniquePtrList@core@5@@Z 00000001800045b0 f i umodsys_lib_libmedia:umodsys.mod.media.serialize_json.obj
 0001:000035b0       ?root_get_interface_types@RGenerator@test1@test@modules@UModSys@@UEBA_KAEAUSUniquePtrList@core@5@@Z 00000001800045b0 f i plugin_test1.obj
 0001:000035b0       ?root_get_interface_types@RImage_Memory@stdlib@lib2d@modules@UModSys@@UEBA_KAEAUSUniquePtrList@core@5@@Z 00000001800045b0 f i umodsys_lib_lib2d:umodsys.mod.2d.stdlib.obj
 0001:000035b0       ?root_get_interface_types@RMultiImage2D_SDL_ttf@SDL_core@ui@modules@UModSys@@UEBA_KAEAUSUniquePtrList@core@5@@Z 00000001800045b0 f i umodsys_lib_libui:umodsys.mod.ui.SDL_core.obj
 0001:000035b0       ?root_get_interface_types@RFrame_List@frames@ui@modules@UModSys@@UEBA_KAEAUSUniquePtrList@core@5@@Z 00000001800045b0 f i umodsys_lib_libui:umodsys.mod.ui.frames.obj
 0001:000035b0       ?root_get_interface_types@RFrame_Text@frames@ui@modules@UModSys@@UEBA_KAEAUSUniquePtrList@core@5@@Z 00000001800045b0 f i umodsys_lib_libui:umodsys.mod.ui.frames.obj
 0001:000035b0       ?root_get_interface_types@RFrame_Button@frames@ui@modules@UModSys@@UEBA_KAEAUSUniquePtrList@core@5@@Z 00000001800045b0 f i umodsys_lib_libui:umodsys.mod.ui.frames.obj
 0001:000035b0       ?root_get_interface_types@RSerializeWriter@serialize_json@media@modules@UModSys@@UEBA_KAEAUSUniquePtrList@core@5@@Z 00000001800045b0 f i umodsys_lib_libmedia:umodsys.mod.media.serialize_json.obj
 0001:000035b0       ?root_get_interface_types@RImageFactory_Memory@stdlib@lib2d@modules@UModSys@@UEBA_KAEAUSUniquePtrList@core@5@@Z 00000001800045b0 f i umodsys_lib_lib2d:umodsys.mod.2d.stdlib.obj
 0001:000035b0       ?root_get_interface_types@RVertexArray@SDL_GL@ui@modules@UModSys@@UEBA_KAEAUSUniquePtrList@core@5@@Z 00000001800045b0 f i umodsys_lib_libui:umodsys.mod.ui.SDL_GL.obj
 0001:000035b0       ?root_get_interface_types@RGenerator@SDL_GL@ui@modules@UModSys@@UEBA_KAEAUSUniquePtrList@core@5@@Z 00000001800045b0 f i umodsys_lib_libui:umodsys.mod.ui.SDL_GL.obj
 0001:000035b0       ?root_get_interface_types@RFrame_Frame@frames@ui@modules@UModSys@@UEBA_KAEAUSUniquePtrList@core@5@@Z 00000001800045b0 f i umodsys_lib_libui:umodsys.mod.ui.frames.obj
 0001:000035b0       ?root_get_interface_types@RMultiImage@stdlib@lib2d@modules@UModSys@@UEBA_KAEAUSUniquePtrList@core@5@@Z 00000001800045b0 f i umodsys_lib_lib2d:umodsys.mod.2d.stdlib.obj
 0001:000035b0       ?root_get_interface_types@RBinArchiveFrameClient_ZIP@zlib@media@modules@UModSys@@UEBA_KAEAUSUniquePtrList@core@5@@Z 00000001800045b0 f i umodsys_lib_libmedia:umodsys.mod.media.zlib.obj
 0001:000035b0       ?root_get_interface_types@RGenerator@SDL_core@ui@modules@UModSys@@UEBA_KAEAUSUniquePtrList@core@5@@Z 00000001800045b0 f i umodsys_lib_libui:umodsys.mod.ui.SDL_core.obj
 0001:000035b0       ?root_get_interface_types@RTest1_Shell@test1@test@modules@UModSys@@UEBA_KAEAUSUniquePtrList@core@5@@Z 00000001800045b0 f i plugin_test1.obj
 0001:000035b0       ?root_get_interface_types@RKeyboardController@SDL_GL@ui@modules@UModSys@@UEBA_KAEAUSUniquePtrList@core@5@@Z 00000001800045b0 f i umodsys_lib_libui:umodsys.mod.ui.SDL_GL.obj
 0001:000035b0       ?root_get_interface_types@RDialog@frames@ui@modules@UModSys@@UEBA_KAEAUSUniquePtrList@core@5@@Z 00000001800045b0 f i umodsys_lib_libui:umodsys.mod.ui.frames.obj
 0001:000035b0       ?root_get_interface_types@RTerminalX@SDL_core@ui@modules@UModSys@@UEBA_KAEAUSUniquePtrList@core@5@@Z 00000001800045b0 f i umodsys_lib_libui:umodsys.mod.ui.SDL_core.obj
 0001:000035b0       ?root_get_interface_types@RGenerator@images_std@media@modules@UModSys@@UEBA_KAEAUSUniquePtrList@core@5@@Z 00000001800045b0 f i umodsys_lib_libmedia:umodsys.mod.media.images_std.obj
 0001:000035b0       ?root_get_interface_types@RFrame_Image@frames@ui@modules@UModSys@@UEBA_KAEAUSUniquePtrList@core@5@@Z 00000001800045b0 f i umodsys_lib_libui:umodsys.mod.ui.frames.obj
 0001:000035b0       ?root_get_interface_types@RGenerator@serialize_json@media@modules@UModSys@@UEBA_KAEAUSUniquePtrList@core@5@@Z 00000001800045b0 f i umodsys_lib_libmedia:umodsys.mod.media.serialize_json.obj
 0001:000035b0       ?root_get_interface_types@RTerminal@SDL_core@ui@modules@UModSys@@UEBA_KAEAUSUniquePtrList@core@5@@Z 00000001800045b0 f i umodsys_lib_libui:umodsys.mod.ui.SDL_core.obj
 0001:000035b0       ?root_get_interface_types@RRenderDriver2D@SDL_core@ui@modules@UModSys@@UEBA_KAEAUSUniquePtrList@core@5@@Z 00000001800045b0 f i umodsys_lib_libui:umodsys.mod.ui.SDL_core.obj
 0001:000035b0       ?root_get_interface_types@RGenerator@frames@ui@modules@UModSys@@UEBA_KAEAUSUniquePtrList@core@5@@Z 00000001800045b0 f i umodsys_lib_libui:umodsys.mod.ui.frames.obj
 0001:000035b0       ?root_get_interface_types@RFrame_Edit@frames@ui@modules@UModSys@@UEBA_KAEAUSUniquePtrList@core@5@@Z 00000001800045b0 f i umodsys_lib_libui:umodsys.mod.ui.frames.obj
 0001:000035b0       ?root_get_interface_types@RMouseController@SDL_GL@ui@modules@UModSys@@UEBA_KAEAUSUniquePtrList@core@5@@Z 00000001800045b0 f i umodsys_lib_libui:umodsys.mod.ui.SDL_GL.obj
 0001:000035b0       ?root_get_interface_types@RCollector@frames@ui@modules@UModSys@@UEBA_KAEAUSUniquePtrList@core@5@@Z 00000001800045b0 f i umodsys_lib_libui:umodsys.mod.ui.frames.obj
 0001:000035b0       ?root_get_interface_types@RMouseController@SDL_core@ui@modules@UModSys@@UEBA_KAEAUSUniquePtrList@core@5@@Z 00000001800045b0 f i umodsys_lib_libui:umodsys.mod.ui.SDL_core.obj
 0001:000035b0       ?root_get_interface_types@RTerminalX@SDL_GL@ui@modules@UModSys@@UEBA_KAEAUSUniquePtrList@core@5@@Z 00000001800045b0 f i umodsys_lib_libui:umodsys.mod.ui.SDL_GL.obj
 0001:000035b0       ?root_get_interface_types@RMultiImage2D_SDL_ttf@SDL_GL@ui@modules@UModSys@@UEBA_KAEAUSUniquePtrList@core@5@@Z 00000001800045b0 f i umodsys_lib_libui:umodsys.mod.ui.SDL_GL.obj
 0001:000035b0       ?root_get_interface_types@RMediaFilter@images_std@media@modules@UModSys@@UEBA_KAEAUSUniquePtrList@core@5@@Z 00000001800045b0 f i umodsys_lib_libmedia:umodsys.mod.media.images_std.obj
 0001:000035c0       ?root_get_other_interface@RMouseController@SDL_core@ui@modules@UModSys@@UEAAPEAUIRoot@core@5@PEBUSUniquePointerInfo@75@@Z 00000001800045c0 f i umodsys_lib_libui:umodsys.mod.ui.SDL_core.obj
 0001:000035c0       ?root_get_other_interface@RMouseController@SDL_core@ui@modules@UModSys@@UEBAPEBUIRoot@core@5@PEBUSUniquePointerInfo@75@@Z 00000001800045c0 f i umodsys_lib_libui:umodsys.mod.ui.SDL_core.obj
 0001:000035f0       ?root_is_interface_supported@RMouseController@SDL_core@ui@modules@UModSys@@UEBA_NPEBUSUniquePointerInfo@core@5@@Z 00000001800045f0 f i umodsys_lib_libui:umodsys.mod.ui.SDL_core.obj
 0001:00003620       ?ref_links@RMouseController@SDL_core@ui@modules@UModSys@@UEBAHXZ 0000000180004620 f i umodsys_lib_libui:umodsys.mod.ui.SDL_core.obj
 0001:00003620       ?ref_links@RKeyboardController@SDL_GL@ui@modules@UModSys@@UEBAHXZ 0000000180004620 f i umodsys_lib_libui:umodsys.mod.ui.SDL_GL.obj
 0001:00003620       ?ref_links@RKeyboardController@SDL_core@ui@modules@UModSys@@UEBAHXZ 0000000180004620 f i umodsys_lib_libui:umodsys.mod.ui.SDL_core.obj
 0001:00003620       ?ref_links@RRenderDriver3D@SDL_GL@ui@modules@UModSys@@UEBAHXZ 0000000180004620 f i umodsys_lib_libui:umodsys.mod.ui.SDL_GL.obj
 0001:00003620       ?ref_links@RRenderDriver2D@SDL_core@ui@modules@UModSys@@UEBAHXZ 0000000180004620 f i umodsys_lib_libui:umodsys.mod.ui.SDL_core.obj
 0001:00003620       ?ref_links@RMouseController@SDL_GL@ui@modules@UModSys@@UEBAHXZ 0000000180004620 f i umodsys_lib_libui:umodsys.mod.ui.SDL_GL.obj
 0001:00003630       ?suicide@RMouseController@SDL_core@ui@modules@UModSys@@UEAAXXZ 0000000180004630 f i umodsys_lib_libui:umodsys.mod.ui.SDL_core.obj
 0001:00003630       ?suicide@RKeyboardController@SDL_GL@ui@modules@UModSys@@UEAAXXZ 0000000180004630 f i umodsys_lib_libui:umodsys.mod.ui.SDL_GL.obj
 0001:00003630       ?suicide@RMouseController@SDL_GL@ui@modules@UModSys@@UEAAXXZ 0000000180004630 f i umodsys_lib_libui:umodsys.mod.ui.SDL_GL.obj
 0001:00003630       ?suicide@RRenderDriver2D@SDL_core@ui@modules@UModSys@@UEAAXXZ 0000000180004630 f i umodsys_lib_libui:umodsys.mod.ui.SDL_core.obj
 0001:00003630       ?suicide@RKeyboardController@SDL_core@ui@modules@UModSys@@UEAAXXZ 0000000180004630 f i umodsys_lib_libui:umodsys.mod.ui.SDL_core.obj
 0001:00003630       ?suicide@RRenderDriver3D@SDL_GL@ui@modules@UModSys@@UEAAXXZ 0000000180004630 f i umodsys_lib_libui:umodsys.mod.ui.SDL_GL.obj
 0001:00003650       ?root_get_interface_info@RTerminal@SDL_core@ui@modules@UModSys@@UEBAAEBUSUniquePointerInfo@core@5@XZ 0000000180004650 f i umodsys_lib_libui:umodsys.mod.ui.SDL_core.obj
 0001:00003660       ?root_get_interface_type@RTerminal@SDL_core@ui@modules@UModSys@@UEBAPEBUSUniquePointerInfo@core@5@XZ 0000000180004660 f i umodsys_lib_libui:umodsys.mod.ui.SDL_core.obj
 0001:00003670       ?root_get_other_interface@RTerminal@SDL_core@ui@modules@UModSys@@UEAAPEAUIRoot@core@5@PEBUSUniquePointerInfo@75@@Z 0000000180004670 f i umodsys_lib_libui:umodsys.mod.ui.SDL_core.obj
 0001:00003670       ?root_get_other_interface@RTerminal@SDL_core@ui@modules@UModSys@@UEBAPEBUIRoot@core@5@PEBUSUniquePointerInfo@75@@Z 0000000180004670 f i umodsys_lib_libui:umodsys.mod.ui.SDL_core.obj
 0001:000036a0       ?root_is_interface_supported@RTerminal@SDL_core@ui@modules@UModSys@@UEBA_NPEBUSUniquePointerInfo@core@5@@Z 00000001800046a0 f i umodsys_lib_libui:umodsys.mod.ui.SDL_core.obj
 0001:000036d0       ?root_get_interface_info@RMultiImage2D_SDL_ttf@SDL_core@ui@modules@UModSys@@UEBAAEBUSUniquePointerInfo@core@5@XZ 00000001800046d0 f i umodsys_lib_libui:umodsys.mod.ui.SDL_core.obj
 0001:000036e0       ?root_get_interface_type@RMultiImage2D_SDL_ttf@SDL_core@ui@modules@UModSys@@UEBAPEBUSUniquePointerInfo@core@5@XZ 00000001800046e0 f i umodsys_lib_libui:umodsys.mod.ui.SDL_core.obj
 0001:000036f0       ?root_get_other_interface@RMultiImage2D_SDL_ttf@SDL_core@ui@modules@UModSys@@UEBAPEBUIRoot@core@5@PEBUSUniquePointerInfo@75@@Z 00000001800046f0 f i umodsys_lib_libui:umodsys.mod.ui.SDL_core.obj
 0001:000036f0       ?root_get_other_interface@RMultiImage2D_SDL_ttf@SDL_core@ui@modules@UModSys@@UEAAPEAUIRoot@core@5@PEBUSUniquePointerInfo@75@@Z 00000001800046f0 f i umodsys_lib_libui:umodsys.mod.ui.SDL_core.obj
 0001:00003720       ?root_is_interface_supported@RMultiImage2D_SDL_ttf@SDL_core@ui@modules@UModSys@@UEBA_NPEBUSUniquePointerInfo@core@5@@Z 0000000180004720 f i umodsys_lib_libui:umodsys.mod.ui.SDL_core.obj
 0001:00003750       ?get_fixed_cell_size@RMultiImage2D_SDL_ttf@SDL_core@ui@modules@UModSys@@UEBA?AU?$TVector2@H@math3d@5@XZ 0000000180004750 f i umodsys_lib_libui:umodsys.mod.ui.SDL_core.obj
 0001:00003750       ?get_fixed_cell_size@RMultiImage2D_SDL_ttf@SDL_GL@ui@modules@UModSys@@UEBA?AU?$TVector2@H@math3d@5@XZ 0000000180004750 f i umodsys_lib_libui:umodsys.mod.ui.SDL_GL.obj
 0001:00003750       ?get_max_layer_size@RMultiImage2D_SDL_ttf@SDL_GL@ui@modules@UModSys@@UEBA?AU?$TVector2@H@math3d@5@XZ 0000000180004750 f i umodsys_lib_libui:umodsys.mod.ui.SDL_GL.obj
 0001:00003750       ?get_max_cell_size@RMultiImage2D_SDL_ttf@SDL_core@ui@modules@UModSys@@UEBA?AU?$TVector2@H@math3d@5@XZ 0000000180004750 f i umodsys_lib_libui:umodsys.mod.ui.SDL_core.obj
 0001:00003750       ?get_max_cell_size@RMultiImage2D_SDL_ttf@SDL_GL@ui@modules@UModSys@@UEBA?AU?$TVector2@H@math3d@5@XZ 0000000180004750 f i umodsys_lib_libui:umodsys.mod.ui.SDL_GL.obj
 0001:00003750       ?get_max_layer_size@RMultiImage2D_SDL_ttf@SDL_core@ui@modules@UModSys@@UEBA?AU?$TVector2@H@math3d@5@XZ 0000000180004750 f i umodsys_lib_libui:umodsys.mod.ui.SDL_core.obj
 0001:00003760       ?mouse_event@RFrame_Common@frames@ui@modules@UModSys@@MEAA_NPEBUSMouseInput@libui@5@@Z 0000000180004760 f i umodsys_lib_libui:umodsys.mod.ui.frames.obj
 0001:00003760       ?get_cell@RMultiImage2D_SDL_ttf@SDL_core@ui@modules@UModSys@@UEBA_NIAEAU?$TVector2@H@math3d@5@PEAU675@PEAG@Z 0000000180004760 f i umodsys_lib_libui:umodsys.mod.ui.SDL_core.obj
 0001:00003760       ?setup_variable_cell@RMultiImage2D_SDL_ttf@SDL_core@ui@modules@UModSys@@UEAA_NPEBUSImageCellInfo@lib2d@5@KK@Z 0000000180004760 f i umodsys_lib_libui:umodsys.mod.ui.SDL_core.obj
 0001:00003760       ?set_hint@RMultiImage2D_SDL_ttf@SDL_core@ui@modules@UModSys@@UEAA_NPEBD0@Z 0000000180004760 f i umodsys_lib_libui:umodsys.mod.ui.SDL_core.obj
 0001:00003760       ?get_cell@RMultiImage2D_SDL_ttf@SDL_core@ui@modules@UModSys@@UEBA_NIAEAUSImageCellInfo@lib2d@5@@Z 0000000180004760 f i umodsys_lib_libui:umodsys.mod.ui.SDL_core.obj
 0001:00003760       ?get_cell@RMultiImage2D_SDL_ttf@SDL_GL@ui@modules@UModSys@@UEBA_NIAEAU?$TVector2@H@math3d@5@PEAU675@PEAG@Z 0000000180004760 f i umodsys_lib_libui:umodsys.mod.ui.SDL_GL.obj
 0001:00003760       ?key_event@RFrame_Common@frames@ui@modules@UModSys@@MEAA_NAEBUSKeyboardInputRaw@libui@5@@Z 0000000180004760 f i umodsys_lib_libui:umodsys.mod.ui.frames.obj
 0001:00003760       ?get_cell@RMultiImage2D_SDL_ttf@SDL_GL@ui@modules@UModSys@@UEBA_NIAEAUSImageCellInfo@lib2d@5@@Z 0000000180004760 f i umodsys_lib_libui:umodsys.mod.ui.SDL_GL.obj
 0001:00003760       ?setup_fixed_cell@RMultiImage2D_SDL_ttf@SDL_core@ui@modules@UModSys@@UEAA_NHH@Z 0000000180004760 f i umodsys_lib_libui:umodsys.mod.ui.SDL_core.obj
 0001:00003760       ?set_hint@RMultiImage2D_SDL_ttf@SDL_GL@ui@modules@UModSys@@UEAA_NPEBD0@Z 0000000180004760 f i umodsys_lib_libui:umodsys.mod.ui.SDL_GL.obj
 0001:00003760       ?setup_fixed_cell@RMultiImage2D_SDL_ttf@SDL_GL@ui@modules@UModSys@@UEAA_NHH@Z 0000000180004760 f i umodsys_lib_libui:umodsys.mod.ui.SDL_GL.obj
 0001:00003760       ?key_event@RFrame_Common@frames@ui@modules@UModSys@@MEAA_NAEBUSKeyboardInputText@libui@5@@Z 0000000180004760 f i umodsys_lib_libui:umodsys.mod.ui.frames.obj
 0001:00003760       ?set_insize@RFrame_Common@frames@ui@modules@UModSys@@UEAA_NAEBU?$TVector2@H@math3d@5@@Z 0000000180004760 f i umodsys_lib_libui:umodsys.mod.ui.frames.obj
 0001:00003760       ?set_layer_count@RMultiImage2D_SDL_ttf@SDL_core@ui@modules@UModSys@@UEAA_NG@Z 0000000180004760 f i umodsys_lib_libui:umodsys.mod.ui.SDL_core.obj
 0001:00003760       ?set_layer_count@RMultiImage2D_SDL_ttf@SDL_GL@ui@modules@UModSys@@UEAA_NG@Z 0000000180004760 f i umodsys_lib_libui:umodsys.mod.ui.SDL_GL.obj
 0001:00003760       ?setup_variable_cell@RMultiImage2D_SDL_ttf@SDL_GL@ui@modules@UModSys@@UEAA_NPEBUSImageCellInfo@lib2d@5@KK@Z 0000000180004760 f i umodsys_lib_libui:umodsys.mod.ui.SDL_GL.obj
 0001:00003770       ?root_get_interface_info@RRenderDriver2D@SDL_core@ui@modules@UModSys@@UEBAAEBUSUniquePointerInfo@core@5@XZ 0000000180004770 f i umodsys_lib_libui:umodsys.mod.ui.SDL_core.obj
 0001:00003780       ?root_get_interface_type@RRenderDriver2D@SDL_core@ui@modules@UModSys@@UEBAPEBUSUniquePointerInfo@core@5@XZ 0000000180004780 f i umodsys_lib_libui:umodsys.mod.ui.SDL_core.obj
 0001:00003790       ?root_get_other_interface@RRenderDriver2D@SDL_core@ui@modules@UModSys@@UEBAPEBUIRoot@core@5@PEBUSUniquePointerInfo@75@@Z 0000000180004790 f i umodsys_lib_libui:umodsys.mod.ui.SDL_core.obj
 0001:00003790       ?root_get_other_interface@RRenderDriver2D@SDL_core@ui@modules@UModSys@@UEAAPEAUIRoot@core@5@PEBUSUniquePointerInfo@75@@Z 0000000180004790 f i umodsys_lib_libui:umodsys.mod.ui.SDL_core.obj
 0001:000037c0       ?root_is_interface_supported@RRenderDriver2D@SDL_core@ui@modules@UModSys@@UEBA_NPEBUSUniquePointerInfo@core@5@@Z 00000001800047c0 f i umodsys_lib_libui:umodsys.mod.ui.SDL_core.obj
 0001:000037f0       ?root_get_interface_info@RTerminalX@SDL_core@ui@modules@UModSys@@UEBAAEBUSUniquePointerInfo@core@5@XZ 00000001800047f0 f i umodsys_lib_libui:umodsys.mod.ui.SDL_core.obj
 0001:00003800       ?root_get_interface_type@RTerminalX@SDL_core@ui@modules@UModSys@@UEBAPEBUSUniquePointerInfo@core@5@XZ 0000000180004800 f i umodsys_lib_libui:umodsys.mod.ui.SDL_core.obj
 0001:00003810       ?root_get_other_interface@RTerminalX@SDL_core@ui@modules@UModSys@@UEBAPEBUIRoot@core@5@PEBUSUniquePointerInfo@75@@Z 0000000180004810 f i umodsys_lib_libui:umodsys.mod.ui.SDL_core.obj
 0001:00003810       ?root_get_other_interface@RTerminalX@SDL_core@ui@modules@UModSys@@UEAAPEAUIRoot@core@5@PEBUSUniquePointerInfo@75@@Z 0000000180004810 f i umodsys_lib_libui:umodsys.mod.ui.SDL_core.obj
 0001:00003840       ?root_is_interface_supported@RTerminalX@SDL_core@ui@modules@UModSys@@UEBA_NPEBUSUniquePointerInfo@core@5@@Z 0000000180004840 f i umodsys_lib_libui:umodsys.mod.ui.SDL_core.obj
 0001:00003880       ?get_generated_names@RGenerator@SDL_core@ui@modules@UModSys@@UEBAHAEAUSUniquePtrList@core@5@@Z 0000000180004880 f i umodsys_lib_libui:umodsys.mod.ui.SDL_core.obj
 0001:000038a0       ?get_generated_types@RGenerator@SDL_core@ui@modules@UModSys@@UEBAHAEAUSUniquePtrList@core@5@PEBUSUniquePointerInfo@75@@Z 00000001800048a0 f i umodsys_lib_libui:umodsys.mod.ui.SDL_core.obj
 0001:00003910       ?generate@RGenerator@SDL_core@ui@modules@UModSys@@UEAA_NAEAU?$TRefObject@UIRefObject@core@UModSys@@U?$TRefObjectFunc@UIRefObject@core@UModSys@@@tl@3@@tl@5@PEBUSUniquePointerInfo@core@5@AEBUSParameters@95@@Z 0000000180004910 f i umodsys_lib_libui:umodsys.mod.ui.SDL_core.obj
 0001:00003990       ?root_get_interface_info@RGenerator@SDL_core@ui@modules@UModSys@@UEBAAEBUSUniquePointerInfo@core@5@XZ 0000000180004990 f i umodsys_lib_libui:umodsys.mod.ui.SDL_core.obj
 0001:000039a0       ?root_get_interface_type@RGenerator@SDL_core@ui@modules@UModSys@@UEBAPEBUSUniquePointerInfo@core@5@XZ 00000001800049a0 f i umodsys_lib_libui:umodsys.mod.ui.SDL_core.obj
 0001:000039b0       ?root_get_other_interface@RGenerator@SDL_core@ui@modules@UModSys@@UEAAPEAUIRoot@core@5@PEBUSUniquePointerInfo@75@@Z 00000001800049b0 f i umodsys_lib_libui:umodsys.mod.ui.SDL_core.obj
 0001:000039b0       ?root_get_other_interface@RGenerator@SDL_core@ui@modules@UModSys@@UEBAPEBUIRoot@core@5@PEBUSUniquePointerInfo@75@@Z 00000001800049b0 f i umodsys_lib_libui:umodsys.mod.ui.SDL_core.obj
 0001:000039f0       ?root_is_interface_supported@RGenerator@SDL_core@ui@modules@UModSys@@UEBA_NPEBUSUniquePointerInfo@core@5@@Z 00000001800049f0 f i umodsys_lib_libui:umodsys.mod.ui.SDL_core.obj
 0001:00003a30       ?get_uid@RGenerator@SDL_core@ui@modules@UModSys@@UEBAPEBUSUniquePointerInfo@core@5@XZ 0000000180004a30 f i umodsys_lib_libui:umodsys.mod.ui.SDL_core.obj
 0001:00003a40       ??_GRMultiImage2D_SDL_ttf@SDL_core@ui@modules@UModSys@@UEAAPEAXI@Z 0000000180004a40 f i umodsys_lib_libui:umodsys.mod.ui.SDL_core.obj
 0001:00003a40       ??_ERMultiImage2D_SDL_ttf@SDL_core@ui@modules@UModSys@@UEAAPEAXI@Z 0000000180004a40 f i  CIL library: CIL module
 0001:00003a70       ??_ERRenderDriver2D@SDL_core@ui@modules@UModSys@@UEAAPEAXI@Z 0000000180004a70 f i  CIL library: CIL module
 0001:00003a70       ??_GRRenderDriver2D@SDL_core@ui@modules@UModSys@@UEAAPEAXI@Z 0000000180004a70 f i umodsys_lib_libui:umodsys.mod.ui.SDL_core.obj
 0001:00003aa0       ??_GRMouseController@SDL_core@ui@modules@UModSys@@UEAAPEAXI@Z 0000000180004aa0 f i umodsys_lib_libui:umodsys.mod.ui.SDL_core.obj
 0001:00003aa0       ??_ERMouseController@SDL_core@ui@modules@UModSys@@UEAAPEAXI@Z 0000000180004aa0 f i  CIL library: CIL module
 0001:00003ad0       ??_GRKeyboardController@SDL_core@ui@modules@UModSys@@UEAAPEAXI@Z 0000000180004ad0 f i umodsys_lib_libui:umodsys.mod.ui.SDL_core.obj
 0001:00003ad0       ??_ERKeyboardController@SDL_core@ui@modules@UModSys@@UEAAPEAXI@Z 0000000180004ad0 f i  CIL library: CIL module
 0001:00003b00       ??_ERTerminal@SDL_core@ui@modules@UModSys@@UEAAPEAXI@Z 0000000180004b00 f i  CIL library: CIL module
 0001:00003b00       ??_GRTerminal@SDL_core@ui@modules@UModSys@@UEAAPEAXI@Z 0000000180004b00 f i umodsys_lib_libui:umodsys.mod.ui.SDL_core.obj
 0001:00003b30       ??_GRTerminalX@SDL_core@ui@modules@UModSys@@UEAAPEAXI@Z 0000000180004b30 f i umodsys_lib_libui:umodsys.mod.ui.SDL_core.obj
 0001:00003b30       ??_ERTerminalX@SDL_core@ui@modules@UModSys@@UEAAPEAXI@Z 0000000180004b30 f i  CIL library: CIL module
 0001:00003b60       ?do_open@RModuleReg@SDL_core@ui@modules@UModSys@@UEAA_NXZ 0000000180004b60 f i umodsys_lib_libui:umodsys.mod.ui.SDL_core.obj
 0001:00003b70       ?do_close@RModuleReg@SDL_core@ui@modules@UModSys@@UEAA_NXZ 0000000180004b70 f i umodsys_lib_libui:umodsys.mod.ui.SDL_core.obj
 0001:00003b80       ??_GRModuleReg@SDL_core@ui@modules@UModSys@@UEAAPEAXI@Z 0000000180004b80 f i umodsys_lib_libui:umodsys.mod.ui.SDL_core.obj
 0001:00003b80       ??_ERModuleReg@SDL_core@ui@modules@UModSys@@UEAAPEAXI@Z 0000000180004b80 f i  CIL library: CIL module
 0001:00003bb0       ??1?$TScatterArray@UGlyph@RMultiImage2D_SDL_ttf@SDL_core@ui@modules@UModSys@@HU?$TScalarCompare@H@core@6@U?$TNodeDeleter0@U?$TScatterArrayNode@UGlyph@RMultiImage2D_SDL_ttf@SDL_core@ui@modules@UModSys@@H@tl@UModSys@@@tl@6@@tl@UModSys@@QEAA@XZ 0000000180004bb0 f i umodsys_lib_libui:umodsys.mod.ui.SDL_core.obj
 0001:00003be0       ?ref_weak@?$TRefObjectLinksComposite@URRenderDriver2D@SDL_core@ui@modules@UModSys@@URTerminalX@2345@@tl@UModSys@@QEBA_NPEAURRenderDriver2D@SDL_core@ui@modules@3@AEAUWeakPointer@IRefObject@core@3@@Z 0000000180004be0 f i umodsys_lib_libui:umodsys.mod.ui.SDL_core.obj
 0001:00003be0       ?ref_weak@?$TRefObjectLinksComposite@URMouseController@SDL_core@ui@modules@UModSys@@URTerminal@2345@@tl@UModSys@@QEBA_NPEAURMouseController@SDL_core@ui@modules@3@AEAUWeakPointer@IRefObject@core@3@@Z 0000000180004be0 f i umodsys_lib_libui:umodsys.mod.ui.SDL_core.obj
 0001:00003be0       ?ref_weak@?$TRefObjectLinksComposite@URKeyboardController@SDL_core@ui@modules@UModSys@@URTerminal@2345@@tl@UModSys@@QEBA_NPEAURKeyboardController@SDL_core@ui@modules@3@AEAUWeakPointer@IRefObject@core@3@@Z 0000000180004be0 f i umodsys_lib_libui:umodsys.mod.ui.SDL_core.obj
 0001:00003be0       ?ref_weak@?$TRefObjectLinksComposite@URMouseController@SDL_GL@ui@modules@UModSys@@URTerminal@2345@@tl@UModSys@@QEBA_NPEAURMouseController@SDL_GL@ui@modules@3@AEAUWeakPointer@IRefObject@core@3@@Z 0000000180004be0 f i umodsys_lib_libui:umodsys.mod.ui.SDL_GL.obj
 0001:00003be0       ?ref_weak@?$TRefObjectLinksComposite@URRenderDriver3D@SDL_GL@ui@modules@UModSys@@URTerminalX@2345@@tl@UModSys@@QEBA_NPEAURRenderDriver3D@SDL_GL@ui@modules@3@AEAUWeakPointer@IRefObject@core@3@@Z 0000000180004be0 f i umodsys_lib_libui:umodsys.mod.ui.SDL_GL.obj
 0001:00003be0       ?ref_weak@?$TRefObjectLinksComposite@URKeyboardController@SDL_GL@ui@modules@UModSys@@URTerminal@2345@@tl@UModSys@@QEBA_NPEAURKeyboardController@SDL_GL@ui@modules@3@AEAUWeakPointer@IRefObject@core@3@@Z 0000000180004be0 f i umodsys_lib_libui:umodsys.mod.ui.SDL_GL.obj
 0001:00003c00       ??$ValidateConstruction@UIMultiImage@lib2d@UModSys@@URMultiImage2D_SDL_ttf@SDL_GL@ui@modules@3@@core@UModSys@@YA_NAEAU?$TRefObject@UIMultiImage@lib2d@UModSys@@U?$TRefObjectFunc@UIMultiImage@lib2d@UModSys@@@tl@3@@tl@1@PEAURMultiImage2D_SDL_ttf@SDL_GL@ui@modules@1@@Z 0000000180004c00 f i umodsys_lib_libui:umodsys.mod.ui.SDL_GL.obj
 0001:00003c00       ??$ValidateConstruction@UIMultiImage@lib2d@UModSys@@URMultiImage2D_SDL_ttf@SDL_core@ui@modules@3@@core@UModSys@@YA_NAEAU?$TRefObject@UIMultiImage@lib2d@UModSys@@U?$TRefObjectFunc@UIMultiImage@lib2d@UModSys@@@tl@3@@tl@1@PEAURMultiImage2D_SDL_ttf@SDL_core@ui@modules@1@@Z 0000000180004c00 f i umodsys_lib_libui:umodsys.mod.ui.SDL_core.obj
 0001:00003c80       ??$t_ref_get_other_interface@URMultiImage2D_SDL_ttf@SDL_core@ui@modules@UModSys@@U?$TRefObjectWeakFunc@URMultiImage2D_SDL_ttf@SDL_core@ui@modules@UModSys@@@tl@5@@IRefObject@core@UModSys@@QEAA_NAEAU?$TRefObject@URMultiImage2D_SDL_ttf@SDL_core@ui@modules@UModSys@@U?$TRefObjectWeakFunc@URMultiImage2D_SDL_ttf@SDL_core@ui@modules@UModSys@@@tl@5@@tl@2@@Z 0000000180004c80 f i umodsys_lib_libui:umodsys.mod.ui.SDL_core.obj
 0001:00003d00       ??$genx_node@UCmp@?$TScatterArray@UGlyph@RMultiImage2D_SDL_ttf@SDL_core@ui@modules@UModSys@@HU?$TScalarCompare@H@core@6@U?$TNodeDeleter0@U?$TScatterArrayNode@UGlyph@RMultiImage2D_SDL_ttf@SDL_core@ui@modules@UModSys@@H@tl@UModSys@@@tl@6@@tl@UModSys@@UGen0@234@@?$TTreeHoldRBD@U?$TScatterArrayNode@UGlyph@RMultiImage2D_SDL_ttf@SDL_core@ui@modules@UModSys@@H@tl@UModSys@@U?$TNodeDeleter0@U?$TScatterArrayNode@UGlyph@RMultiImage2D_SDL_ttf@SDL_core@ui@modules@UModSys@@H@tl@UModSys@@@23@@tl@UModSys@@QEAAPEAU?$TScatterArrayNode@UGlyph@RMultiImage2D_SDL_ttf@SDL_core@ui@modules@UModSys@@H@12@UCmp@?$TScatterArray@UGlyph@RMultiImage2D_SDL_ttf@SDL_core@ui@modules@UModSys@@HU?$TScalarCompare@H@core@6@U?$TNodeDeleter0@U?$TScatterArrayNode@UGlyph@RMultiImage2D_SDL_ttf@SDL_core@ui@modules@UModSys@@H@tl@UModSys@@@tl@6@@12@AEBUGen0@512@PEAPEAU312@2_N@Z 0000000180004d00 f i umodsys_lib_libui:umodsys.mod.ui.SDL_core.obj
 0001:00003e10       ??RGen0@?$TScatterArray@UGlyph@RMultiImage2D_SDL_ttf@SDL_core@ui@modules@UModSys@@HU?$TScalarCompare@H@core@6@U?$TNodeDeleter0@U?$TScatterArrayNode@UGlyph@RMultiImage2D_SDL_ttf@SDL_core@ui@modules@UModSys@@H@tl@UModSys@@@tl@6@@tl@UModSys@@QEBAPEAU?$TScatterArrayNode@UGlyph@RMultiImage2D_SDL_ttf@SDL_core@ui@modules@UModSys@@H@23@AEBUCmp@123@AEBU?$TTreeHoldRBD@U?$TScatterArrayNode@UGlyph@RMultiImage2D_SDL_ttf@SDL_core@ui@modules@UModSys@@H@tl@UModSys@@U?$TNodeDeleter0@U?$TScatterArrayNode@UGlyph@RMultiImage2D_SDL_ttf@SDL_core@ui@modules@UModSys@@H@tl@UModSys@@@23@@23@@Z 0000000180004e10 f i umodsys_lib_libui:umodsys.mod.ui.SDL_core.obj
 0001:00003eb0       ??$process_nodes_r@U?$TNodeDeleter0@U?$TScatterArrayNode@UGlyph@RMultiImage2D_SDL_ttf@SDL_core@ui@modules@UModSys@@H@tl@UModSys@@@tl@UModSys@@@?$TTreeHoldRB@U?$TScatterArrayNode@UGlyph@RMultiImage2D_SDL_ttf@SDL_core@ui@modules@UModSys@@H@tl@UModSys@@@tl@UModSys@@KAHPEAU?$TScatterArrayNode@UGlyph@RMultiImage2D_SDL_ttf@SDL_core@ui@modules@UModSys@@H@12@AEBU?$TNodeDeleter0@U?$TScatterArrayNode@UGlyph@RMultiImage2D_SDL_ttf@SDL_core@ui@modules@UModSys@@H@tl@UModSys@@@12@@Z 0000000180004eb0 f i umodsys_lib_libui:umodsys.mod.ui.SDL_core.obj
 0001:00003f20       ??1?$TRefObject@URVertexArray@SDL_GL@ui@modules@UModSys@@U?$TRefObjectFunc@URVertexArray@SDL_GL@ui@modules@UModSys@@@tl@5@@tl@UModSys@@QEAA@XZ 0000000180004f20 f i umodsys_lib_libui:umodsys.mod.ui.SDL_GL.obj
 0001:00003f20       ??1?$TRefObject@URSerializeWriter@serialize_json@media@modules@UModSys@@U?$TRefObjectFunc@URSerializeWriter@serialize_json@media@modules@UModSys@@@tl@5@@tl@UModSys@@QEAA@XZ 0000000180004f20 f i umodsys_lib_libmedia:umodsys.mod.media.serialize_json.obj
 0001:00003f20       ??1?$TRefObject@UIMultiImage@lib2d@UModSys@@U?$TRefObjectFunc@UIMultiImage@lib2d@UModSys@@@tl@3@@tl@UModSys@@QEAA@XZ 0000000180004f20 f i plugin_test1.obj
 0001:00003f20       ??1?$TRefObject@UITerminal@libui@UModSys@@U?$TRefObjectFunc@UITerminal@libui@UModSys@@@tl@3@@tl@UModSys@@QEAA@XZ 0000000180004f20 f i plugin_test1.obj
 0001:00003f20       ??1?$TRefObject@UIRenderDriver@lib2d@UModSys@@U?$TRefObjectFunc@UIRenderDriver@lib2d@UModSys@@@tl@3@@tl@UModSys@@QEAA@XZ 0000000180004f20 f i plugin_test1.obj
 0001:00003f20       ??1?$TRefObject@UIUtilities@libmedia@UModSys@@U?$TRefObjectFunc@UIUtilities@libmedia@UModSys@@@tl@3@@tl@UModSys@@QEAA@XZ 0000000180004f20 f i plugin_test1.obj
 0001:00003f20       ??1?$TRefObject@URSerializeReader@serialize_json@media@modules@UModSys@@U?$TRefObjectFunc@URSerializeReader@serialize_json@media@modules@UModSys@@@tl@5@@tl@UModSys@@QEAA@XZ 0000000180004f20 f i umodsys_lib_libmedia:umodsys.mod.media.serialize_json.obj
 0001:00003f20       ??1?$TRefObject@UIImageFactory@lib2d@UModSys@@U?$TRefObjectFunc@UIImageFactory@lib2d@UModSys@@@tl@3@@tl@UModSys@@QEAA@XZ 0000000180004f20 f i plugin_test1.obj
 0001:00003f20       ??1?$TRefObject@UIFrame@libui@UModSys@@U?$TRefObjectFunc@UIFrame@libui@UModSys@@@tl@3@@tl@UModSys@@QEAA@XZ 0000000180004f20 f i umodsys_lib_libui:umodsys.mod.ui.frames.obj
 0001:00003f20       ??1?$TRefObject@UIRenderDriver@lib3d@UModSys@@U?$TRefObjectFunc@UIRenderDriver@lib3d@UModSys@@@tl@3@@tl@UModSys@@QEAA@XZ 0000000180004f20 f i plugin_test1.obj
 0001:00003f20       ??1?$TRefObject@UICollector@libui@UModSys@@U?$TRefObjectFunc@UICollector@libui@UModSys@@@tl@3@@tl@UModSys@@QEAA@XZ 0000000180004f20 f i plugin_test1.obj
 0001:00003f20       ??1?$TRefObject@UIRefObject@core@UModSys@@U?$TRefObjectFunc@UIRefObject@core@UModSys@@@tl@3@@tl@UModSys@@QEAA@XZ 0000000180004f20 f i plugin_test1.obj
 0001:00003f20       ??1?$TRefObject@UIImage@lib2d@UModSys@@U?$TRefObjectFunc@UIImage@lib2d@UModSys@@@tl@3@@tl@UModSys@@QEAA@XZ 0000000180004f20 f i plugin_test1.obj
 0001:00003f20       ??1?$TRefObject@UIVertexArray@lib3d@UModSys@@U?$TRefObjectFunc@UIVertexArray@lib3d@UModSys@@@tl@3@@tl@UModSys@@QEAA@XZ 0000000180004f20 f i plugin_test1.obj
 0001:00003f20       ??1?$TRefObject@UIStreamWriter@libmedia@UModSys@@U?$TRefObjectFunc@UIStreamWriter@libmedia@UModSys@@@tl@3@@tl@UModSys@@QEAA@XZ 0000000180004f20 f i plugin_test1.obj
 0001:00003f20       ??1?$TRefObject@URFrame_Common@frames@ui@modules@UModSys@@U?$TRefObjectFunc@URFrame_Common@frames@ui@modules@UModSys@@@tl@5@@tl@UModSys@@QEAA@XZ 0000000180004f20 f i umodsys_lib_libui:umodsys.mod.ui.frames.obj
 0001:00003f20       ??1?$TRefObject@URRenderDriver3D@SDL_GL@ui@modules@UModSys@@U?$TRefObjectFunc@URRenderDriver3D@SDL_GL@ui@modules@UModSys@@@tl@5@@tl@UModSys@@QEAA@XZ 0000000180004f20 f i umodsys_lib_libui:umodsys.mod.ui.SDL_GL.obj
 0001:00003f20       ??1?$TRefObject@UIKeyboardController@libui@UModSys@@U?$TRefObjectFunc@UIKeyboardController@libui@UModSys@@@tl@3@@tl@UModSys@@QEAA@XZ 0000000180004f20 f i plugin_test1.obj
 0001:00003f20       ??1?$TRefObject@URCollector@frames@ui@modules@UModSys@@U?$TRefObjectFunc@URCollector@frames@ui@modules@UModSys@@@tl@5@@tl@UModSys@@QEAA@XZ 0000000180004f20 f i umodsys_lib_libui:umodsys.mod.ui.frames.obj
 0001:00003f20       ??1?$TRefObject@URRenderDriver2D@SDL_core@ui@modules@UModSys@@U?$TRefObjectFunc@URRenderDriver2D@SDL_core@ui@modules@UModSys@@@tl@5@@tl@UModSys@@QEAA@XZ 0000000180004f20 f i umodsys_lib_libui:umodsys.mod.ui.SDL_core.obj
 0001:00003f20       ??1?$TRefObject@URImageFactory_Memory@stdlib@lib2d@modules@UModSys@@U?$TRefObjectFunc@URImageFactory_Memory@stdlib@lib2d@modules@UModSys@@@tl@5@@tl@UModSys@@QEAA@XZ 0000000180004f20 f i umodsys_lib_lib2d:umodsys.mod.2d.stdlib.obj
 0001:00003f20       ??1?$TRefObject@UIMouseController@libui@UModSys@@U?$TRefObjectFunc@UIMouseController@libui@UModSys@@@tl@3@@tl@UModSys@@QEAA@XZ 0000000180004f20 f i plugin_test1.obj
 0001:00003f20       ??1?$TRefObject@URMediaFilter@images_std@media@modules@UModSys@@U?$TRefObjectFunc@URMediaFilter@images_std@media@modules@UModSys@@@tl@5@@tl@UModSys@@QEAA@XZ 0000000180004f20 f i umodsys_lib_libmedia:umodsys.mod.media.images_std.obj
 0001:00003f20       ??1?$TRefObject@URBinArchiveFrameClient_ZIP@zlib@media@modules@UModSys@@U?$TRefObjectFunc@URBinArchiveFrameClient_ZIP@zlib@media@modules@UModSys@@@tl@5@@tl@UModSys@@QEAA@XZ 0000000180004f20 f i umodsys_lib_libmedia:umodsys.mod.media.zlib.obj
 0001:00003f20       ??1?$TRefObject@URMultiImage2D_SDL_ttf@SDL_core@ui@modules@UModSys@@U?$TRefObjectFunc@URMultiImage2D_SDL_ttf@SDL_core@ui@modules@UModSys@@@tl@5@@tl@UModSys@@QEAA@XZ 0000000180004f20 f i umodsys_lib_libui:umodsys.mod.ui.SDL_core.obj
 0001:00003f20       ??1?$TRefObject@URMultiImage2D_SDL_ttf@SDL_GL@ui@modules@UModSys@@U?$TRefObjectFunc@URMultiImage2D_SDL_ttf@SDL_GL@ui@modules@UModSys@@@tl@5@@tl@UModSys@@QEAA@XZ 0000000180004f20 f i umodsys_lib_libui:umodsys.mod.ui.SDL_GL.obj
 0001:00003f20       ??1?$TRefObject@UIStreamReader@libmedia@UModSys@@U?$TRefObjectFunc@UIStreamReader@libmedia@UModSys@@@tl@3@@tl@UModSys@@QEAA@XZ 0000000180004f20 f i plugin_test1.obj
 0001:00003f20       ??1?$TRefObject@URTerminalX@SDL_core@ui@modules@UModSys@@U?$TRefObjectFunc@URTerminalX@SDL_core@ui@modules@UModSys@@@tl@5@@tl@UModSys@@QEAA@XZ 0000000180004f20 f i umodsys_lib_libui:umodsys.mod.ui.SDL_core.obj
 0001:00003f20       ??1?$TRefObject@URImage_Memory@stdlib@lib2d@modules@UModSys@@U?$TRefObjectFunc@URImage_Memory@stdlib@lib2d@modules@UModSys@@@tl@5@@tl@UModSys@@QEAA@XZ 0000000180004f20 f i umodsys_lib_lib2d:umodsys.mod.2d.stdlib.obj
 0001:00003f20       ??1?$TRefObject@URMultiImage@stdlib@lib2d@modules@UModSys@@U?$TRefObjectFunc@URMultiImage@stdlib@lib2d@modules@UModSys@@@tl@5@@tl@UModSys@@QEAA@XZ 0000000180004f20 f i umodsys_lib_lib2d:umodsys.mod.2d.stdlib.obj
 0001:00003f20       ??1?$TRefObject@URTerminalX@SDL_GL@ui@modules@UModSys@@U?$TRefObjectFunc@URTerminalX@SDL_GL@ui@modules@UModSys@@@tl@5@@tl@UModSys@@QEAA@XZ 0000000180004f20 f i umodsys_lib_libui:umodsys.mod.ui.SDL_GL.obj
 0001:00003f20       ??1?$TRefObject@URDialog@frames@ui@modules@UModSys@@U?$TRefObjectFunc@URDialog@frames@ui@modules@UModSys@@@tl@5@@tl@UModSys@@QEAA@XZ 0000000180004f20 f i umodsys_lib_libui:umodsys.mod.ui.frames.obj
 0001:00003f50       ?ss@SFrameDataOut@libui@UModSys@@QEBAXAEBU?$TString@U?$TSCoreShared@USIMemAlloc@core@UModSys@@D@su@tl@UModSys@@U?$TComparerBinaryHash@D@234@@tl@3@@Z 0000000180004f50 f i umodsys_lib_libui:umodsys.mod.ui.frames.obj
 0001:00003fa0       ??1SController@libui@UModSys@@QEAA@XZ 0000000180004fa0 f i umodsys_lib_libui:umodsys.mod.ui.frames.obj
 0001:00003ff0       ?db_get_i@SController@libui@UModSys@@QEAAHQEBD@Z 0000000180004ff0 f i umodsys_lib_libui:umodsys.mod.ui.frames.obj
 0001:000040a0       ?update_size@libui@UModSys@@YA_NAEAU?$TBoundBox2@H@math3d@2@AEBUSFrameSize@12@AEBU342@@Z 00000001800050a0 f i umodsys_lib_libui:umodsys.mod.ui.frames.obj
 0001:000041e0       ?command@SController@libui@UModSys@@QEAA_NHAEBUSFrameDataIn@23@@Z 00000001800051e0 f i umodsys_lib_libui:umodsys.mod.ui.frames.obj
 0001:00004270       ?get_property@ICollectorThemeTemplate@libui@UModSys@@UEBA_NHHAEAU?$TVector4@M@math3d@3@@Z 0000000180005270 f i umodsys_lib_libui:umodsys.mod.ui.frames.obj
 0001:00004290       ?get_property@ICollectorThemeTemplate@libui@UModSys@@UEBA_NHHAEAU?$TVector4@H@math3d@3@@Z 0000000180005290 f i umodsys_lib_libui:umodsys.mod.ui.frames.obj
 0001:000042b0       ?get_property@ICollectorThemeTemplate@libui@UModSys@@UEBA_NHHAEAU?$TVector2@M@math3d@3@@Z 00000001800052b0 f i umodsys_lib_libui:umodsys.mod.ui.frames.obj
 0001:000042d0       ?get_property@ICollectorThemeTemplate@libui@UModSys@@UEBA_NHHAEAU?$TVector2@H@math3d@3@@Z 00000001800052d0 f i umodsys_lib_libui:umodsys.mod.ui.frames.obj
 0001:000042f0       ?get_property@ICollectorThemeTemplate@libui@UModSys@@UEBA_NHHAEAH@Z 00000001800052f0 f i umodsys_lib_libui:umodsys.mod.ui.frames.obj
 0001:00004310       ?set_property@ICollectorThemeTemplate@libui@UModSys@@UEAA_NHHAEBU?$TVector4@M@math3d@3@@Z 0000000180005310 f i umodsys_lib_libui:umodsys.mod.ui.frames.obj
 0001:00004380       ?set_property@ICollectorThemeTemplate@libui@UModSys@@UEAA_NHHAEBU?$TVector4@H@math3d@3@@Z 0000000180005380 f i umodsys_lib_libui:umodsys.mod.ui.frames.obj
 0001:000043a0       ?set_property@ICollectorThemeTemplate@libui@UModSys@@UEAA_NHHAEBU?$TVector2@M@math3d@3@@Z 00000001800053a0 f i umodsys_lib_libui:umodsys.mod.ui.frames.obj
 0001:00004400       ?set_property@ICollectorThemeTemplate@libui@UModSys@@UEAA_NHHAEBU?$TVector2@H@math3d@3@@Z 0000000180005400 f i umodsys_lib_libui:umodsys.mod.ui.frames.obj
 0001:00004480       ?set_property@ICollectorThemeTemplate@libui@UModSys@@UEAA_NHHH@Z 0000000180005480 f i umodsys_lib_libui:umodsys.mod.ui.frames.obj
 0001:000044e0       ??1ICollectorThemeTemplate@libui@UModSys@@QEAA@XZ 00000001800054e0 f i umodsys_lib_libui:umodsys.mod.ui.frames.obj
 0001:00004550       ?set_controller@RFrame_Common@frames@ui@modules@UModSys@@UEAA_NHPEAUIController@libui@5@PEAUIRefObject@core@5@@Z 0000000180005550 f i umodsys_lib_libui:umodsys.mod.ui.frames.obj
 0001:000045d0       ?get_controller@RFrame_Common@frames@ui@modules@UModSys@@UEAAPEAUIController@libui@5@XZ 00000001800055d0 f i umodsys_lib_libui:umodsys.mod.ui.frames.obj
 0001:000045e0       ?get_controller_context@RFrame_Common@frames@ui@modules@UModSys@@UEAAHXZ 00000001800055e0 f i umodsys_lib_libui:umodsys.mod.ui.frames.obj
 0001:000045f0       ?get_box@RFrame_Common@frames@ui@modules@UModSys@@UEAAAEBU?$TBoundBox2@H@math3d@5@XZ 00000001800055f0 f i umodsys_lib_libui:umodsys.mod.ui.frames.obj
 0001:000045f0       ?get_theme@RCollector@frames@ui@modules@UModSys@@UEAAPEAUICollectorTheme@libui@5@XZ 00000001800055f0 f i umodsys_lib_libui:umodsys.mod.ui.frames.obj
 0001:00004600       ?get_framesize@RFrame_Common@frames@ui@modules@UModSys@@UEAAAEBUSFrameSize@libui@5@XZ 0000000180005600 f i umodsys_lib_libui:umodsys.mod.ui.frames.obj
 0001:00004610       ?set_framesize@RFrame_Common@frames@ui@modules@UModSys@@UEAA_NAEBUSFrameSize@libui@5@@Z 0000000180005610 f i umodsys_lib_libui:umodsys.mod.ui.frames.obj
 0001:00004640       ?get_insize@RFrame_Common@frames@ui@modules@UModSys@@UEAA?AU?$TVector2@H@math3d@5@XZ 0000000180005640 f i umodsys_lib_libui:umodsys.mod.ui.frames.obj
 0001:00004660       ?get_theme@RFrame_Common@frames@ui@modules@UModSys@@UEAAPEAUICollectorTheme@libui@5@XZ 0000000180005660 f i umodsys_lib_libui:umodsys.mod.ui.frames.obj
 0001:00004670       ?draw_pre@RFrame_Common@frames@ui@modules@UModSys@@MEAA_NAEBUSDrawState@2345@@Z 0000000180005670 f i umodsys_lib_libui:umodsys.mod.ui.frames.obj
 0001:00004670       ?draw_post@RFrame_Common@frames@ui@modules@UModSys@@MEAA_NAEBUSDrawState@2345@@Z 0000000180005670 f i umodsys_lib_libui:umodsys.mod.ui.frames.obj
 0001:00004670       ?controller_update@RFrame_Common@frames@ui@modules@UModSys@@UEAA_NXZ 0000000180005670 f i umodsys_lib_libui:umodsys.mod.ui.frames.obj
 0001:00004670       ?button_draw@RFrame_Common@frames@ui@modules@UModSys@@MEAA_NPEAUSButton@2345@AEBUSDrawState@2345@H@Z 0000000180005670 f i umodsys_lib_libui:umodsys.mod.ui.frames.obj
 0001:00004670       ?button_cmd@RFrame_Common@frames@ui@modules@UModSys@@MEAA_NPEAUSButton@2345@HH@Z 0000000180005670 f i umodsys_lib_libui:umodsys.mod.ui.frames.obj
 0001:00004680       ??_ERFrame_Common@frames@ui@modules@UModSys@@UEAAPEAXI@Z 0000000180005680 f i  CIL library: CIL module
 0001:00004680       ??_GRFrame_Common@frames@ui@modules@UModSys@@UEAAPEAXI@Z 0000000180005680 f i umodsys_lib_libui:umodsys.mod.ui.frames.obj
 0001:000046b0       ??1IVertexArray@lib3d@UModSys@@UEAA@XZ 00000001800056b0 f i umodsys_lib_libui:umodsys.mod.ui.SDL_GL.obj
 0001:000046b0       ??1ISerializeReader@libmedia@UModSys@@UEAA@XZ 00000001800056b0 f i umodsys_lib_libmedia:umodsys.mod.media.serialize_json.obj
 0001:000046b0       ??1IImageFactory@lib2d@UModSys@@UEAA@XZ 00000001800056b0 f i umodsys_lib_lib2d:umodsys.mod.2d.stdlib.obj
 0001:000046b0       ??1IRenderDriver@lib3d@UModSys@@UEAA@XZ 00000001800056b0 f i umodsys_lib_libui:umodsys.mod.ui.SDL_GL.obj
 0001:000046b0       ??1IKeyboardController@libui@UModSys@@UEAA@XZ 00000001800056b0 f i umodsys_lib_libui:umodsys.mod.ui.SDL_GL.obj
 0001:000046b0       ??1ICollector@libui@UModSys@@UEAA@XZ 00000001800056b0 f i umodsys_lib_libui:umodsys.mod.ui.frames.obj
 0001:000046b0       ??1ITerminal@libui@UModSys@@UEAA@XZ 00000001800056b0 f i umodsys_lib_libui:umodsys.mod.ui.SDL_GL.obj
 0001:000046b0       ??1IDialog@libui@UModSys@@UEAA@XZ 00000001800056b0 f i umodsys_lib_libui:umodsys.mod.ui.frames.obj
 0001:000046b0       ??1IClient@IBinArchiveFrame@libmedia@UModSys@@UEAA@XZ 00000001800056b0 f i umodsys_lib_libmedia:umodsys.mod.media.zlib.obj
 0001:000046b0       ??1IFrame@libui@UModSys@@UEAA@XZ 00000001800056b0 f i umodsys_lib_libui:umodsys.mod.ui.frames.obj
 0001:000046b0       ??1IMultiImage@lib2d@UModSys@@UEAA@XZ 00000001800056b0 f i umodsys_lib_lib2d:umodsys.mod.2d.stdlib.obj
 0001:000046b0       ??1ISerializeWriter@libmedia@UModSys@@UEAA@XZ 00000001800056b0 f i umodsys_lib_libmedia:umodsys.mod.media.serialize_json.obj
 0001:000046b0       ??1IRenderDriver@lib2d@UModSys@@UEAA@XZ 00000001800056b0 f i umodsys_lib_libui:umodsys.mod.ui.SDL_GL.obj
 0001:000046b0       ??1IImage@lib2d@UModSys@@UEAA@XZ 00000001800056b0 f i umodsys_lib_lib2d:umodsys.mod.2d.stdlib.obj
 0001:000046b0       ??1IShell@base@UModSys@@UEAA@XZ 00000001800056b0 f i plugin_test1.obj
 0001:000046b0       ??1IMouseController@libui@UModSys@@UEAA@XZ 00000001800056b0 f i umodsys_lib_libui:umodsys.mod.ui.SDL_GL.obj
 0001:000046c0       ?root_get_interface_info@RDialog@frames@ui@modules@UModSys@@UEBAAEBUSUniquePointerInfo@core@5@XZ 00000001800056c0 f i umodsys_lib_libui:umodsys.mod.ui.frames.obj
 0001:000046d0       ?root_get_interface_type@RDialog@frames@ui@modules@UModSys@@UEBAPEBUSUniquePointerInfo@core@5@XZ 00000001800056d0 f i umodsys_lib_libui:umodsys.mod.ui.frames.obj
 0001:000046e0       ?root_get_other_interface@RDialog@frames@ui@modules@UModSys@@UEBAPEBUIRoot@core@5@PEBUSUniquePointerInfo@75@@Z 00000001800056e0 f i umodsys_lib_libui:umodsys.mod.ui.frames.obj
 0001:000046e0       ?root_get_other_interface@RDialog@frames@ui@modules@UModSys@@UEAAPEAUIRoot@core@5@PEBUSUniquePointerInfo@75@@Z 00000001800056e0 f i umodsys_lib_libui:umodsys.mod.ui.frames.obj
 0001:00004710       ?root_is_interface_supported@RDialog@frames@ui@modules@UModSys@@UEBA_NPEBUSUniquePointerInfo@core@5@@Z 0000000180005710 f i umodsys_lib_libui:umodsys.mod.ui.frames.obj
 0001:00004740       ??_ERDialog@frames@ui@modules@UModSys@@UEAAPEAXI@Z 0000000180005740 f i  CIL library: CIL module
 0001:00004740       ??_GRDialog@frames@ui@modules@UModSys@@UEAAPEAXI@Z 0000000180005740 f i umodsys_lib_libui:umodsys.mod.ui.frames.obj
 0001:00004770       ?root_get_interface_info@RFrame_Frame@frames@ui@modules@UModSys@@UEBAAEBUSUniquePointerInfo@core@5@XZ 0000000180005770 f i umodsys_lib_libui:umodsys.mod.ui.frames.obj
 0001:00004780       ?root_get_interface_type@RFrame_Frame@frames@ui@modules@UModSys@@UEBAPEBUSUniquePointerInfo@core@5@XZ 0000000180005780 f i umodsys_lib_libui:umodsys.mod.ui.frames.obj
 0001:00004790       ?root_get_other_interface@RFrame_Frame@frames@ui@modules@UModSys@@UEBAPEBUIRoot@core@5@PEBUSUniquePointerInfo@75@@Z 0000000180005790 f i umodsys_lib_libui:umodsys.mod.ui.frames.obj
 0001:00004790       ?root_get_other_interface@RFrame_Frame@frames@ui@modules@UModSys@@UEAAPEAUIRoot@core@5@PEBUSUniquePointerInfo@75@@Z 0000000180005790 f i umodsys_lib_libui:umodsys.mod.ui.frames.obj
 0001:000047d0       ?root_is_interface_supported@RFrame_Frame@frames@ui@modules@UModSys@@UEBA_NPEBUSUniquePointerInfo@core@5@@Z 00000001800057d0 f i umodsys_lib_libui:umodsys.mod.ui.frames.obj
 0001:00004810       ?ref_remove@RFrame_Frame@frames@ui@modules@UModSys@@UEBAXXZ 0000000180005810 f i umodsys_lib_libui:umodsys.mod.ui.frames.obj
 0001:00004810       ?ref_remove@RFrame_Button@frames@ui@modules@UModSys@@UEBAXXZ 0000000180005810 f i umodsys_lib_libui:umodsys.mod.ui.frames.obj
 0001:00004810       ?ref_remove@RFrame_Image@frames@ui@modules@UModSys@@UEBAXXZ 0000000180005810 f i umodsys_lib_libui:umodsys.mod.ui.frames.obj
 0001:00004830       ?suicide@RFrame_Button@frames@ui@modules@UModSys@@UEAAXXZ 0000000180005830 f i umodsys_lib_libui:umodsys.mod.ui.frames.obj
 0001:00004830       ?suicide@RFrame_Image@frames@ui@modules@UModSys@@UEAAXXZ 0000000180005830 f i umodsys_lib_libui:umodsys.mod.ui.frames.obj
 0001:00004830       ?suicide@RFrame_Frame@frames@ui@modules@UModSys@@UEAAXXZ 0000000180005830 f i umodsys_lib_libui:umodsys.mod.ui.frames.obj
 0001:00004880       ?get_cids@RFrame_Frame@frames@ui@modules@UModSys@@UEAA?AU?$TString@U?$TSCoreConst@D@su@tl@UModSys@@U?$TComparerBinaryHash@D@234@@tl@5@XZ 0000000180005880 f i umodsys_lib_libui:umodsys.mod.ui.frames.obj
 0001:000048e0       ?get_cidn@RFrame_Frame@frames@ui@modules@UModSys@@UEAAHXZ 00000001800058e0 f i umodsys_lib_libui:umodsys.mod.ui.frames.obj
 0001:000048f0       ?root_get_interface_info@RFrame_Image@frames@ui@modules@UModSys@@UEBAAEBUSUniquePointerInfo@core@5@XZ 00000001800058f0 f i umodsys_lib_libui:umodsys.mod.ui.frames.obj
 0001:00004900       ?root_get_interface_type@RFrame_Image@frames@ui@modules@UModSys@@UEBAPEBUSUniquePointerInfo@core@5@XZ 0000000180005900 f i umodsys_lib_libui:umodsys.mod.ui.frames.obj
 0001:00004910       ?root_get_other_interface@RFrame_Image@frames@ui@modules@UModSys@@UEBAPEBUIRoot@core@5@PEBUSUniquePointerInfo@75@@Z 0000000180005910 f i umodsys_lib_libui:umodsys.mod.ui.frames.obj
 0001:00004910       ?root_get_other_interface@RFrame_Image@frames@ui@modules@UModSys@@UEAAPEAUIRoot@core@5@PEBUSUniquePointerInfo@75@@Z 0000000180005910 f i umodsys_lib_libui:umodsys.mod.ui.frames.obj
 0001:00004950       ?root_is_interface_supported@RFrame_Image@frames@ui@modules@UModSys@@UEBA_NPEBUSUniquePointerInfo@core@5@@Z 0000000180005950 f i umodsys_lib_libui:umodsys.mod.ui.frames.obj
 0001:00004990       ?ref_links@RFrame_Image@frames@ui@modules@UModSys@@UEBAHXZ 0000000180005990 f i umodsys_lib_libui:umodsys.mod.ui.frames.obj
 0001:00004990       ?ref_links@RFrame_Button@frames@ui@modules@UModSys@@UEBAHXZ 0000000180005990 f i umodsys_lib_libui:umodsys.mod.ui.frames.obj
 0001:00004990       ?ref_links@RFrame_Frame@frames@ui@modules@UModSys@@UEBAHXZ 0000000180005990 f i umodsys_lib_libui:umodsys.mod.ui.frames.obj
 0001:000049a0       ?ref_weak@RFrame_Image@frames@ui@modules@UModSys@@UEBA_NAEAUWeakPointer@IRefObject@core@5@@Z 00000001800059a0 f i umodsys_lib_libui:umodsys.mod.ui.frames.obj
 0001:000049a0       ?ref_weak@RFrame_Button@frames@ui@modules@UModSys@@UEBA_NAEAUWeakPointer@IRefObject@core@5@@Z 00000001800059a0 f i umodsys_lib_libui:umodsys.mod.ui.frames.obj
 0001:000049a0       ?ref_weak@RFrame_Frame@frames@ui@modules@UModSys@@UEBA_NAEAUWeakPointer@IRefObject@core@5@@Z 00000001800059a0 f i umodsys_lib_libui:umodsys.mod.ui.frames.obj
 0001:000049d0       ?get_cids@RFrame_Image@frames@ui@modules@UModSys@@UEAA?AU?$TString@U?$TSCoreConst@D@su@tl@UModSys@@U?$TComparerBinaryHash@D@234@@tl@5@XZ 00000001800059d0 f i umodsys_lib_libui:umodsys.mod.ui.frames.obj
 0001:00004a30       ?get_cidn@RFrame_Image@frames@ui@modules@UModSys@@UEAAHXZ 0000000180005a30 f i umodsys_lib_libui:umodsys.mod.ui.frames.obj
 0001:00004a40       ?root_get_interface_info@RFrame_Text@frames@ui@modules@UModSys@@UEBAAEBUSUniquePointerInfo@core@5@XZ 0000000180005a40 f i umodsys_lib_libui:umodsys.mod.ui.frames.obj
 0001:00004a50       ?root_get_interface_type@RFrame_Text@frames@ui@modules@UModSys@@UEBAPEBUSUniquePointerInfo@core@5@XZ 0000000180005a50 f i umodsys_lib_libui:umodsys.mod.ui.frames.obj
 0001:00004a60       ?root_get_other_interface@RFrame_Text@frames@ui@modules@UModSys@@UEAAPEAUIRoot@core@5@PEBUSUniquePointerInfo@75@@Z 0000000180005a60 f i umodsys_lib_libui:umodsys.mod.ui.frames.obj
 0001:00004a60       ?root_get_other_interface@RFrame_Text@frames@ui@modules@UModSys@@UEBAPEBUIRoot@core@5@PEBUSUniquePointerInfo@75@@Z 0000000180005a60 f i umodsys_lib_libui:umodsys.mod.ui.frames.obj
 0001:00004aa0       ?root_is_interface_supported@RFrame_Text@frames@ui@modules@UModSys@@UEBA_NPEBUSUniquePointerInfo@core@5@@Z 0000000180005aa0 f i umodsys_lib_libui:umodsys.mod.ui.frames.obj
 0001:00004ae0       ?ref_add@RFrame_Text@frames@ui@modules@UModSys@@UEBAXXZ 0000000180005ae0 f i umodsys_lib_libui:umodsys.mod.ui.frames.obj
 0001:00004ae0       ?ref_add@RFrame_Edit@frames@ui@modules@UModSys@@UEBAXXZ 0000000180005ae0 f i umodsys_lib_libui:umodsys.mod.ui.frames.obj
 0001:00004af0       ??_GRFrame_Frame@frames@ui@modules@UModSys@@UEAAPEAXI@Z 0000000180005af0 f i umodsys_lib_libui:umodsys.mod.ui.frames.obj
 0001:00004af0       ??_ERFrame_Frame@frames@ui@modules@UModSys@@UEAAPEAXI@Z 0000000180005af0 f i  CIL library: CIL module
 0001:00004b20       ??_GRFrame_Text@frames@ui@modules@UModSys@@UEAAPEAXI@Z 0000000180005b20 f i umodsys_lib_libui:umodsys.mod.ui.frames.obj
 0001:00004b20       ??_ERFrame_Text@frames@ui@modules@UModSys@@UEAAPEAXI@Z 0000000180005b20 f i  CIL library: CIL module
 0001:00004b50       ??_ERFrame_Image@frames@ui@modules@UModSys@@UEAAPEAXI@Z 0000000180005b50 f i  CIL library: CIL module
 0001:00004b50       ??_GRFrame_Image@frames@ui@modules@UModSys@@UEAAPEAXI@Z 0000000180005b50 f i umodsys_lib_libui:umodsys.mod.ui.frames.obj
 0001:00004b80       ?root_get_interface_info@RFrame_Button@frames@ui@modules@UModSys@@UEBAAEBUSUniquePointerInfo@core@5@XZ 0000000180005b80 f i umodsys_lib_libui:umodsys.mod.ui.frames.obj
 0001:00004b90       ?root_get_interface_type@RFrame_Button@frames@ui@modules@UModSys@@UEBAPEBUSUniquePointerInfo@core@5@XZ 0000000180005b90 f i umodsys_lib_libui:umodsys.mod.ui.frames.obj
 0001:00004ba0       ?root_get_other_interface@RFrame_Button@frames@ui@modules@UModSys@@UEBAPEBUIRoot@core@5@PEBUSUniquePointerInfo@75@@Z 0000000180005ba0 f i umodsys_lib_libui:umodsys.mod.ui.frames.obj
 0001:00004ba0       ?root_get_other_interface@RFrame_Button@frames@ui@modules@UModSys@@UEAAPEAUIRoot@core@5@PEBUSUniquePointerInfo@75@@Z 0000000180005ba0 f i umodsys_lib_libui:umodsys.mod.ui.frames.obj
 0001:00004be0       ?root_is_interface_supported@RFrame_Button@frames@ui@modules@UModSys@@UEBA_NPEBUSUniquePointerInfo@core@5@@Z 0000000180005be0 f i umodsys_lib_libui:umodsys.mod.ui.frames.obj
 0001:00004c20       ?ref_add@RFrame_Button@frames@ui@modules@UModSys@@UEBAXXZ 0000000180005c20 f i umodsys_lib_libui:umodsys.mod.ui.frames.obj
 0001:00004c20       ?ref_add@RFrame_Frame@frames@ui@modules@UModSys@@UEBAXXZ 0000000180005c20 f i umodsys_lib_libui:umodsys.mod.ui.frames.obj
 0001:00004c20       ?ref_add@RFrame_Image@frames@ui@modules@UModSys@@UEBAXXZ 0000000180005c20 f i umodsys_lib_libui:umodsys.mod.ui.frames.obj
 0001:00004c30       ?get_cids@RFrame_Text@frames@ui@modules@UModSys@@UEAA?AU?$TString@U?$TSCoreConst@D@su@tl@UModSys@@U?$TComparerBinaryHash@D@234@@tl@5@XZ 0000000180005c30 f i umodsys_lib_libui:umodsys.mod.ui.frames.obj
 0001:00004c30       ?get_cids@RFrame_Button@frames@ui@modules@UModSys@@UEAA?AU?$TString@U?$TSCoreConst@D@su@tl@UModSys@@U?$TComparerBinaryHash@D@234@@tl@5@XZ 0000000180005c30 f i umodsys_lib_libui:umodsys.mod.ui.frames.obj
 0001:00004c30       ?get_cids@RFrame_List@frames@ui@modules@UModSys@@UEAA?AU?$TString@U?$TSCoreConst@D@su@tl@UModSys@@U?$TComparerBinaryHash@D@234@@tl@5@XZ 0000000180005c30 f i umodsys_lib_libui:umodsys.mod.ui.frames.obj
 0001:00004c90       ?get_cidn@RFrame_Text@frames@ui@modules@UModSys@@UEAAHXZ 0000000180005c90 f i umodsys_lib_libui:umodsys.mod.ui.frames.obj
 0001:00004c90       ?get_cidn@RFrame_Button@frames@ui@modules@UModSys@@UEAAHXZ 0000000180005c90 f i umodsys_lib_libui:umodsys.mod.ui.frames.obj
 0001:00004c90       ?get_cidn@RFrame_List@frames@ui@modules@UModSys@@UEAAHXZ 0000000180005c90 f i umodsys_lib_libui:umodsys.mod.ui.frames.obj
 0001:00004ca0       ??_GRFrame_Button@frames@ui@modules@UModSys@@UEAAPEAXI@Z 0000000180005ca0 f i umodsys_lib_libui:umodsys.mod.ui.frames.obj
 0001:00004ca0       ??_ERFrame_Button@frames@ui@modules@UModSys@@UEAAPEAXI@Z 0000000180005ca0 f i  CIL library: CIL module
 0001:00004cd0       ?root_get_interface_info@RFrame_Edit@frames@ui@modules@UModSys@@UEBAAEBUSUniquePointerInfo@core@5@XZ 0000000180005cd0 f i umodsys_lib_libui:umodsys.mod.ui.frames.obj
 0001:00004ce0       ?root_get_interface_type@RFrame_Edit@frames@ui@modules@UModSys@@UEBAPEBUSUniquePointerInfo@core@5@XZ 0000000180005ce0 f i umodsys_lib_libui:umodsys.mod.ui.frames.obj
 0001:00004cf0       ?root_get_other_interface@RFrame_Edit@frames@ui@modules@UModSys@@UEAAPEAUIRoot@core@5@PEBUSUniquePointerInfo@75@@Z 0000000180005cf0 f i umodsys_lib_libui:umodsys.mod.ui.frames.obj
 0001:00004cf0       ?root_get_other_interface@RFrame_Edit@frames@ui@modules@UModSys@@UEBAPEBUIRoot@core@5@PEBUSUniquePointerInfo@75@@Z 0000000180005cf0 f i umodsys_lib_libui:umodsys.mod.ui.frames.obj
 0001:00004d30       ?root_is_interface_supported@RFrame_Edit@frames@ui@modules@UModSys@@UEBA_NPEBUSUniquePointerInfo@core@5@@Z 0000000180005d30 f i umodsys_lib_libui:umodsys.mod.ui.frames.obj
 0001:00004d70       ?ref_remove@RFrame_Text@frames@ui@modules@UModSys@@UEBAXXZ 0000000180005d70 f i umodsys_lib_libui:umodsys.mod.ui.frames.obj
 0001:00004d70       ?ref_remove@RFrame_Edit@frames@ui@modules@UModSys@@UEBAXXZ 0000000180005d70 f i umodsys_lib_libui:umodsys.mod.ui.frames.obj
 0001:00004d90       ?ref_links@RFrame_Text@frames@ui@modules@UModSys@@UEBAHXZ 0000000180005d90 f i umodsys_lib_libui:umodsys.mod.ui.frames.obj
 0001:00004d90       ?ref_links@RFrame_Edit@frames@ui@modules@UModSys@@UEBAHXZ 0000000180005d90 f i umodsys_lib_libui:umodsys.mod.ui.frames.obj
 0001:00004da0       ?ref_weak@RFrame_Edit@frames@ui@modules@UModSys@@UEBA_NAEAUWeakPointer@IRefObject@core@5@@Z 0000000180005da0 f i umodsys_lib_libui:umodsys.mod.ui.frames.obj
 0001:00004da0       ?ref_weak@RFrame_Text@frames@ui@modules@UModSys@@UEBA_NAEAUWeakPointer@IRefObject@core@5@@Z 0000000180005da0 f i umodsys_lib_libui:umodsys.mod.ui.frames.obj
 0001:00004dd0       ?suicide@RFrame_Edit@frames@ui@modules@UModSys@@UEAAXXZ 0000000180005dd0 f i umodsys_lib_libui:umodsys.mod.ui.frames.obj
 0001:00004dd0       ?suicide@RFrame_Text@frames@ui@modules@UModSys@@UEAAXXZ 0000000180005dd0 f i umodsys_lib_libui:umodsys.mod.ui.frames.obj
 0001:00004e20       ?get_cids@RFrame_Edit@frames@ui@modules@UModSys@@UEAA?AU?$TString@U?$TSCoreConst@D@su@tl@UModSys@@U?$TComparerBinaryHash@D@234@@tl@5@XZ 0000000180005e20 f i umodsys_lib_libui:umodsys.mod.ui.frames.obj
 0001:00004e80       ?get_cidn@RFrame_Edit@frames@ui@modules@UModSys@@UEAAHXZ 0000000180005e80 f i umodsys_lib_libui:umodsys.mod.ui.frames.obj
 0001:00004e90       ?get_data@RFrame_Edit@frames@ui@modules@UModSys@@UEAAPEAUIFrameData@libui@5@XZ 0000000180005e90 f i umodsys_lib_libui:umodsys.mod.ui.frames.obj
 0001:00004e90       ?get_data@RFrame_Text@frames@ui@modules@UModSys@@UEAAPEAUIFrameData@libui@5@XZ 0000000180005e90 f i umodsys_lib_libui:umodsys.mod.ui.frames.obj
 0001:00004e90       ?get_list@RFrame_List@frames@ui@modules@UModSys@@UEAAPEAUIFrameList@libui@5@XZ 0000000180005e90 f i umodsys_lib_libui:umodsys.mod.ui.frames.obj
 0001:00004ea0       ??_GRFrame_Edit@frames@ui@modules@UModSys@@UEAAPEAXI@Z 0000000180005ea0 f i umodsys_lib_libui:umodsys.mod.ui.frames.obj
 0001:00004ea0       ??_ERFrame_Edit@frames@ui@modules@UModSys@@UEAAPEAXI@Z 0000000180005ea0 f i  CIL library: CIL module
 0001:00004ed0       ??1?$TStringBuf@U?$TSCoreShared@USIMemAlloc@core@UModSys@@D@su@tl@UModSys@@U?$TComparerBinaryHash@D@234@@tl@UModSys@@QEAA@XZ 0000000180005ed0 f i umodsys_lib_libui:umodsys.mod.ui.frames.obj
 0001:00004ee0       ?root_get_interface_info@RFrame_List@frames@ui@modules@UModSys@@UEBAAEBUSUniquePointerInfo@core@5@XZ 0000000180005ee0 f i umodsys_lib_libui:umodsys.mod.ui.frames.obj
 0001:00004ef0       ?root_get_interface_type@RFrame_List@frames@ui@modules@UModSys@@UEBAPEBUSUniquePointerInfo@core@5@XZ 0000000180005ef0 f i umodsys_lib_libui:umodsys.mod.ui.frames.obj
 0001:00004f00       ?root_get_other_interface@RFrame_List@frames@ui@modules@UModSys@@UEAAPEAUIRoot@core@5@PEBUSUniquePointerInfo@75@@Z 0000000180005f00 f i umodsys_lib_libui:umodsys.mod.ui.frames.obj
 0001:00004f00       ?root_get_other_interface@RFrame_List@frames@ui@modules@UModSys@@UEBAPEBUIRoot@core@5@PEBUSUniquePointerInfo@75@@Z 0000000180005f00 f i umodsys_lib_libui:umodsys.mod.ui.frames.obj
 0001:00004f40       ?root_is_interface_supported@RFrame_List@frames@ui@modules@UModSys@@UEBA_NPEBUSUniquePointerInfo@core@5@@Z 0000000180005f40 f i umodsys_lib_libui:umodsys.mod.ui.frames.obj
 0001:00004f80       ?ref_add@RFrame_List@frames@ui@modules@UModSys@@UEBAXXZ 0000000180005f80 f i umodsys_lib_libui:umodsys.mod.ui.frames.obj
 0001:00004f90       ?ref_remove@RFrame_List@frames@ui@modules@UModSys@@UEBAXXZ 0000000180005f90 f i umodsys_lib_libui:umodsys.mod.ui.frames.obj
 0001:00004fb0       ?ref_links@RFrame_List@frames@ui@modules@UModSys@@UEBAHXZ 0000000180005fb0 f i umodsys_lib_libui:umodsys.mod.ui.frames.obj
 0001:00004fc0       ?ref_weak@RFrame_List@frames@ui@modules@UModSys@@UEBA_NAEAUWeakPointer@IRefObject@core@5@@Z 0000000180005fc0 f i umodsys_lib_libui:umodsys.mod.ui.frames.obj
 0001:00004ff0       ?suicide@RFrame_List@frames@ui@modules@UModSys@@UEAAXXZ 0000000180005ff0 f i umodsys_lib_libui:umodsys.mod.ui.frames.obj
 0001:00005040       ?get_data@RFrame_List@frames@ui@modules@UModSys@@UEAAPEAUIFrameData@libui@5@XZ 0000000180006040 f i umodsys_lib_libui:umodsys.mod.ui.frames.obj
 0001:00005050       ??_ERFrame_List@frames@ui@modules@UModSys@@UEAAPEAXI@Z 0000000180006050 f i  CIL library: CIL module
 0001:00005050       ??_GRFrame_List@frames@ui@modules@UModSys@@UEAAPEAXI@Z 0000000180006050 f i umodsys_lib_libui:umodsys.mod.ui.frames.obj
 0001:00005080       ?root_get_interface_info@RCollector@frames@ui@modules@UModSys@@UEBAAEBUSUniquePointerInfo@core@5@XZ 0000000180006080 f i umodsys_lib_libui:umodsys.mod.ui.frames.obj
 0001:00005090       ?root_get_interface_type@RCollector@frames@ui@modules@UModSys@@UEBAPEBUSUniquePointerInfo@core@5@XZ 0000000180006090 f i umodsys_lib_libui:umodsys.mod.ui.frames.obj
 0001:000050a0       ?root_get_other_interface@RCollector@frames@ui@modules@UModSys@@UEBAPEBUIRoot@core@5@PEBUSUniquePointerInfo@75@@Z 00000001800060a0 f i umodsys_lib_libui:umodsys.mod.ui.frames.obj
 0001:000050a0       ?root_get_other_interface@RCollector@frames@ui@modules@UModSys@@UEAAPEAUIRoot@core@5@PEBUSUniquePointerInfo@75@@Z 00000001800060a0 f i umodsys_lib_libui:umodsys.mod.ui.frames.obj
 0001:000050d0       ?root_is_interface_supported@RCollector@frames@ui@modules@UModSys@@UEBA_NPEBUSUniquePointerInfo@core@5@@Z 00000001800060d0 f i umodsys_lib_libui:umodsys.mod.ui.frames.obj
 0001:00005100       ?ref_add@RCollector@frames@ui@modules@UModSys@@UEBAXXZ 0000000180006100 f i umodsys_lib_libui:umodsys.mod.ui.frames.obj
 0001:00005110       ?ref_remove@RCollector@frames@ui@modules@UModSys@@UEBAXXZ 0000000180006110 f i umodsys_lib_libui:umodsys.mod.ui.frames.obj
 0001:00005130       ?ref_links@RCollector@frames@ui@modules@UModSys@@UEBAHXZ 0000000180006130 f i umodsys_lib_libui:umodsys.mod.ui.frames.obj
 0001:00005140       ?ref_weak@RCollector@frames@ui@modules@UModSys@@UEBA_NAEAUWeakPointer@IRefObject@core@5@@Z 0000000180006140 f i umodsys_lib_libui:umodsys.mod.ui.frames.obj
 0001:00005160       ?suicide@RCollector@frames@ui@modules@UModSys@@UEAAXXZ 0000000180006160 f i umodsys_lib_libui:umodsys.mod.ui.frames.obj
 0001:000051b0       ?broadcast@RCollector@frames@ui@modules@UModSys@@UEAAHHAEBUSFrameDataIn@libui@5@H@Z 00000001800061b0 f i umodsys_lib_libui:umodsys.mod.ui.frames.obj
 0001:000051e0       ??_GRCollector@frames@ui@modules@UModSys@@UEAAPEAXI@Z 00000001800061e0 f i umodsys_lib_libui:umodsys.mod.ui.frames.obj
 0001:000051e0       ??_ERCollector@frames@ui@modules@UModSys@@UEAAPEAXI@Z 00000001800061e0 f i  CIL library: CIL module
 0001:00005210       ?get_up_theme@RFrame_Common@frames@ui@modules@UModSys@@UEAAPEAUICollectorTheme@libui@5@XZ 0000000180006210 f i umodsys_lib_libui:umodsys.mod.ui.frames.obj
 0001:00005230       ?draw_button@SButton@frames@ui@modules@UModSys@@QEAA_NAEBUSDrawState@2345@HH@Z 0000000180006230 f i umodsys_lib_libui:umodsys.mod.ui.frames.obj
 0001:000052c0       ?draw_text@SButton@frames@ui@modules@UModSys@@QEAA_NAEBUSDrawState@2345@AEBU?$TString@U?$TSCoreConst@D@su@tl@UModSys@@U?$TComparerBinaryHash@D@234@@tl@5@HH@Z 00000001800062c0 f i umodsys_lib_libui:umodsys.mod.ui.frames.obj
 0001:00005430       ?get_generated_names@RGenerator@frames@ui@modules@UModSys@@UEBAHAEAUSUniquePtrList@core@5@@Z 0000000180006430 f i umodsys_lib_libui:umodsys.mod.ui.frames.obj
 0001:00005450       ?get_generated_types@RGenerator@frames@ui@modules@UModSys@@UEBAHAEAUSUniquePtrList@core@5@PEBUSUniquePointerInfo@75@@Z 0000000180006450 f i umodsys_lib_libui:umodsys.mod.ui.frames.obj
 0001:000054b0       ?generate@RGenerator@frames@ui@modules@UModSys@@UEAA_NAEAU?$TRefObject@UIRefObject@core@UModSys@@U?$TRefObjectFunc@UIRefObject@core@UModSys@@@tl@3@@tl@5@PEBUSUniquePointerInfo@core@5@AEBUSParameters@95@@Z 00000001800064b0 f i umodsys_lib_libui:umodsys.mod.ui.frames.obj
 0001:00005530       ?root_get_interface_info@RGenerator@frames@ui@modules@UModSys@@UEBAAEBUSUniquePointerInfo@core@5@XZ 0000000180006530 f i umodsys_lib_libui:umodsys.mod.ui.frames.obj
 0001:00005540       ?root_get_interface_type@RGenerator@frames@ui@modules@UModSys@@UEBAPEBUSUniquePointerInfo@core@5@XZ 0000000180006540 f i umodsys_lib_libui:umodsys.mod.ui.frames.obj
 0001:00005550       ?root_get_other_interface@RGenerator@frames@ui@modules@UModSys@@UEBAPEBUIRoot@core@5@PEBUSUniquePointerInfo@75@@Z 0000000180006550 f i umodsys_lib_libui:umodsys.mod.ui.frames.obj
 0001:00005550       ?root_get_other_interface@RGenerator@frames@ui@modules@UModSys@@UEAAPEAUIRoot@core@5@PEBUSUniquePointerInfo@75@@Z 0000000180006550 f i umodsys_lib_libui:umodsys.mod.ui.frames.obj
 0001:00005590       ?root_is_interface_supported@RGenerator@frames@ui@modules@UModSys@@UEBA_NPEBUSUniquePointerInfo@core@5@@Z 0000000180006590 f i umodsys_lib_libui:umodsys.mod.ui.frames.obj
 0001:000055d0       ?get_uid@RGenerator@frames@ui@modules@UModSys@@UEBAPEBUSUniquePointerInfo@core@5@XZ 00000001800065d0 f i umodsys_lib_libui:umodsys.mod.ui.frames.obj
 0001:000055e0       ?do_open@RModuleReg@frames@ui@modules@UModSys@@UEAA_NXZ 00000001800065e0 f i umodsys_lib_libui:umodsys.mod.ui.frames.obj
 0001:000055f0       ?do_close@RModuleReg@frames@ui@modules@UModSys@@UEAA_NXZ 00000001800065f0 f i umodsys_lib_libui:umodsys.mod.ui.frames.obj
 0001:00005600       ??_GRModuleReg@frames@ui@modules@UModSys@@UEAAPEAXI@Z 0000000180006600 f i umodsys_lib_libui:umodsys.mod.ui.frames.obj
 0001:00005600       ??_ERModuleReg@frames@ui@modules@UModSys@@UEAAPEAXI@Z 0000000180006600 f i  CIL library: CIL module
 0001:00005630       ?set_length@?$TStringBuf@U?$TSCoreShared@USIMemAlloc@core@UModSys@@D@su@tl@UModSys@@U?$TComparerBinaryHash@D@234@@tl@UModSys@@QEAAX_K@Z 0000000180006630 f i umodsys_lib_libui:umodsys.mod.ui.frames.obj
 0001:000056b0       ??1?$TScatterArray@U?$TVector2@M@math3d@UModSys@@HU?$TScalarCompare@H@core@3@U?$TNodeDeleter0@U?$TScatterArrayNode@U?$TVector2@M@math3d@UModSys@@H@tl@UModSys@@@tl@3@@tl@UModSys@@QEAA@XZ 00000001800066b0 f i umodsys_lib_libui:umodsys.mod.ui.frames.obj
 0001:000056b0       ??1?$TScatterArray@U?$TVector4@M@math3d@UModSys@@HU?$TScalarCompare@H@core@3@U?$TNodeDeleter0@U?$TScatterArrayNode@U?$TVector4@M@math3d@UModSys@@H@tl@UModSys@@@tl@3@@tl@UModSys@@QEAA@XZ 00000001800066b0 f i umodsys_lib_libui:umodsys.mod.ui.frames.obj
 0001:000056d0       ??1?$TDynarrayDynamic@U?$TRefObject@URFrame_Common@frames@ui@modules@UModSys@@U?$TRefObjectFunc@URFrame_Common@frames@ui@modules@UModSys@@@tl@5@@tl@UModSys@@U?$TAllocator@USIMemAlloc@core@UModSys@@USCountCalcPower2@23@@23@@tl@UModSys@@QEAA@XZ 00000001800066d0 f i umodsys_lib_libui:umodsys.mod.ui.frames.obj
 0001:000056d0       ??1?$TDynarrayDynamic@U?$TRefObject@URDialog@frames@ui@modules@UModSys@@U?$TRefObjectFunc@URDialog@frames@ui@modules@UModSys@@@tl@5@@tl@UModSys@@U?$TAllocator@USIMemAlloc@core@UModSys@@USCountCalcPower2@23@@23@@tl@UModSys@@QEAA@XZ 00000001800066d0 f i umodsys_lib_libui:umodsys.mod.ui.frames.obj
 0001:000056e0       ?Push@?$TDynarray@U?$TDynarrayHolderDynamic@U?$TRefObject@URDialog@frames@ui@modules@UModSys@@U?$TRefObjectFunc@URDialog@frames@ui@modules@UModSys@@@tl@5@@tl@UModSys@@U?$TAllocator@USIMemAlloc@core@UModSys@@USCountCalcPower2@23@@23@@tl@UModSys@@@tl@UModSys@@QEAA_NXZ 00000001800066e0 f i umodsys_lib_libui:umodsys.mod.ui.frames.obj
 0001:000056e0       ?Push@?$TDynarray@U?$TDynarrayHolderDynamic@U?$TRefObject@URFrame_Common@frames@ui@modules@UModSys@@U?$TRefObjectFunc@URFrame_Common@frames@ui@modules@UModSys@@@tl@5@@tl@UModSys@@U?$TAllocator@USIMemAlloc@core@UModSys@@USCountCalcPower2@23@@23@@tl@UModSys@@@tl@UModSys@@QEAA_NXZ 00000001800066e0 f i umodsys_lib_libui:umodsys.mod.ui.frames.obj
 0001:00005790       ?Pop@?$TDynarray@U?$TDynarrayHolderDynamic@U?$TRefObject@URDialog@frames@ui@modules@UModSys@@U?$TRefObjectFunc@URDialog@frames@ui@modules@UModSys@@@tl@5@@tl@UModSys@@U?$TAllocator@USIMemAlloc@core@UModSys@@USCountCalcPower2@23@@23@@tl@UModSys@@@tl@UModSys@@QEAA_NXZ 0000000180006790 f i umodsys_lib_libui:umodsys.mod.ui.frames.obj
 0001:000057e0       ??1?$TDynarray@U?$TDynarrayHolderDynamic@U?$TRefObject@URFrame_Common@frames@ui@modules@UModSys@@U?$TRefObjectFunc@URFrame_Common@frames@ui@modules@UModSys@@@tl@5@@tl@UModSys@@U?$TAllocator@USIMemAlloc@core@UModSys@@USCountCalcPower2@23@@23@@tl@UModSys@@@tl@UModSys@@QEAA@XZ 00000001800067e0 f i umodsys_lib_libui:umodsys.mod.ui.frames.obj
 0001:000057e0       ??1?$TDynarray@U?$TDynarrayHolderDynamic@U?$TRefObject@URDialog@frames@ui@modules@UModSys@@U?$TRefObjectFunc@URDialog@frames@ui@modules@UModSys@@@tl@5@@tl@UModSys@@U?$TAllocator@USIMemAlloc@core@UModSys@@USCountCalcPower2@23@@23@@tl@UModSys@@@tl@UModSys@@QEAA@XZ 00000001800067e0 f i umodsys_lib_libui:umodsys.mod.ui.frames.obj
 0001:00005850       ??1?$TDynarray@U?$TDynarrayHolderDynamic@UListItem@RFrame_List@frames@ui@modules@UModSys@@U?$TAllocator@USIMemAlloc@core@UModSys@@USCountCalcPower2@23@@tl@6@@tl@UModSys@@@tl@UModSys@@QEAA@XZ 0000000180006850 f i umodsys_lib_libui:umodsys.mod.ui.frames.obj
 0001:000058c0       ??$t_get@U?$TScatterArray@U?$TVector4@M@math3d@UModSys@@HU?$TScalarCompare@H@core@3@U?$TNodeDeleter0@U?$TScatterArrayNode@U?$TVector4@M@math3d@UModSys@@H@tl@UModSys@@@tl@3@@tl@UModSys@@U?$TVector4@M@math3d@3@@ICollectorThemeTemplate@libui@UModSys@@IEBA_NAEBU?$TScatterArray@U?$TVector4@M@math3d@UModSys@@HU?$TScalarCompare@H@core@3@U?$TNodeDeleter0@U?$TScatterArrayNode@U?$TVector4@M@math3d@UModSys@@H@tl@UModSys@@@tl@3@@tl@2@HHAEAU?$TVector4@M@math3d@2@@Z 00000001800068c0 f i umodsys_lib_libui:umodsys.mod.ui.frames.obj
 0001:00005990       ??$t_get@U?$TScatterArray@U?$TVector4@M@math3d@UModSys@@HU?$TScalarCompare@H@core@3@U?$TNodeDeleter0@U?$TScatterArrayNode@U?$TVector4@M@math3d@UModSys@@H@tl@UModSys@@@tl@3@@tl@UModSys@@U?$TVector4@H@math3d@3@@ICollectorThemeTemplate@libui@UModSys@@IEBA_NAEBU?$TScatterArray@U?$TVector4@M@math3d@UModSys@@HU?$TScalarCompare@H@core@3@U?$TNodeDeleter0@U?$TScatterArrayNode@U?$TVector4@M@math3d@UModSys@@H@tl@UModSys@@@tl@3@@tl@2@HHAEAU?$TVector4@H@math3d@2@@Z 0000000180006990 f i umodsys_lib_libui:umodsys.mod.ui.frames.obj
 0001:00005ab0       ??$t_get@U?$TScatterArray@U?$TVector2@M@math3d@UModSys@@HU?$TScalarCompare@H@core@3@U?$TNodeDeleter0@U?$TScatterArrayNode@U?$TVector2@M@math3d@UModSys@@H@tl@UModSys@@@tl@3@@tl@UModSys@@U?$TVector2@M@math3d@3@@ICollectorThemeTemplate@libui@UModSys@@IEBA_NAEBU?$TScatterArray@U?$TVector2@M@math3d@UModSys@@HU?$TScalarCompare@H@core@3@U?$TNodeDeleter0@U?$TScatterArrayNode@U?$TVector2@M@math3d@UModSys@@H@tl@UModSys@@@tl@3@@tl@2@HHAEAU?$TVector2@M@math3d@2@@Z 0000000180006ab0 f i umodsys_lib_libui:umodsys.mod.ui.frames.obj
 0001:00005b70       ??$t_get@U?$TScatterArray@U?$TVector2@M@math3d@UModSys@@HU?$TScalarCompare@H@core@3@U?$TNodeDeleter0@U?$TScatterArrayNode@U?$TVector2@M@math3d@UModSys@@H@tl@UModSys@@@tl@3@@tl@UModSys@@U?$TVector2@H@math3d@3@@ICollectorThemeTemplate@libui@UModSys@@IEBA_NAEBU?$TScatterArray@U?$TVector2@M@math3d@UModSys@@HU?$TScalarCompare@H@core@3@U?$TNodeDeleter0@U?$TScatterArrayNode@U?$TVector2@M@math3d@UModSys@@H@tl@UModSys@@@tl@3@@tl@2@HHAEAU?$TVector2@H@math3d@2@@Z 0000000180006b70 f i umodsys_lib_libui:umodsys.mod.ui.frames.obj
 0001:00005c40       ??$t_get@U?$TScatterArray@HHU?$TScalarCompare@H@core@UModSys@@U?$TNodeDeleter0@U?$TScatterArrayNode@HH@tl@UModSys@@@tl@3@@tl@UModSys@@H@ICollectorThemeTemplate@libui@UModSys@@IEBA_NAEBU?$TScatterArray@HHU?$TScalarCompare@H@core@UModSys@@U?$TNodeDeleter0@U?$TScatterArrayNode@HH@tl@UModSys@@@tl@3@@tl@2@HHAEAH@Z 0000000180006c40 f i umodsys_lib_libui:umodsys.mod.ui.frames.obj
 0001:00005d00       ??$t_set@U?$TScatterArray@U?$TVector4@M@math3d@UModSys@@HU?$TScalarCompare@H@core@3@U?$TNodeDeleter0@U?$TScatterArrayNode@U?$TVector4@M@math3d@UModSys@@H@tl@UModSys@@@tl@3@@tl@UModSys@@U?$TVector4@H@math3d@3@@ICollectorThemeTemplate@libui@UModSys@@IEAA_NAEAU?$TScatterArray@U?$TVector4@M@math3d@UModSys@@HU?$TScalarCompare@H@core@3@U?$TNodeDeleter0@U?$TScatterArrayNode@U?$TVector4@M@math3d@UModSys@@H@tl@UModSys@@@tl@3@@tl@2@HHAEBU?$TVector4@H@math3d@2@@Z 0000000180006d00 f i umodsys_lib_libui:umodsys.mod.ui.frames.obj
 0001:00005de0       ?ResizeRel@?$TDynarray@U?$TDynarrayHolderDynamic@U?$TRefObject@URDialog@frames@ui@modules@UModSys@@U?$TRefObjectFunc@URDialog@frames@ui@modules@UModSys@@@tl@5@@tl@UModSys@@U?$TAllocator@USIMemAlloc@core@UModSys@@USCountCalcPower2@23@@23@@tl@UModSys@@@tl@UModSys@@QEAA_N_J@Z 0000000180006de0 f i umodsys_lib_libui:umodsys.mod.ui.frames.obj
 0001:00005de0       ?ResizeRel@?$TDynarray@U?$TDynarrayHolderDynamic@U?$TRefObject@URFrame_Common@frames@ui@modules@UModSys@@U?$TRefObjectFunc@URFrame_Common@frames@ui@modules@UModSys@@@tl@5@@tl@UModSys@@U?$TAllocator@USIMemAlloc@core@UModSys@@USCountCalcPower2@23@@23@@tl@UModSys@@@tl@UModSys@@QEAA_N_J@Z 0000000180006de0 f i umodsys_lib_libui:umodsys.mod.ui.frames.obj
 0001:00005ef0       ??$smemmove@H@su@tl@UModSys@@YAXPEAHPEBH_K@Z 0000000180006ef0 f i umodsys_lib_libui:umodsys.mod.ui.frames.obj
 0001:00005f00       ?ResizeRel@?$TDynarray@U?$TDynarrayHolderDynamic@UListItem@RFrame_List@frames@ui@modules@UModSys@@U?$TAllocator@USIMemAlloc@core@UModSys@@USCountCalcPower2@23@@tl@6@@tl@UModSys@@@tl@UModSys@@QEAA_N_J@Z 0000000180006f00 f i umodsys_lib_libui:umodsys.mod.ui.frames.obj
 0001:00005ff0       ??$process_nodes@U?$TNodeDeleter0@U?$TScatterArrayNode@U?$TVector2@M@math3d@UModSys@@H@tl@UModSys@@@tl@UModSys@@@?$TTreeHoldRB@U?$TScatterArrayNode@U?$TVector2@M@math3d@UModSys@@H@tl@UModSys@@@tl@UModSys@@QEAAHAEBU?$TNodeDeleter0@U?$TScatterArrayNode@U?$TVector2@M@math3d@UModSys@@H@tl@UModSys@@@12@@Z 0000000180006ff0 f i umodsys_lib_libui:umodsys.mod.ui.frames.obj
 0001:00005ff0       ??$process_nodes@U?$TNodeDeleter0@U?$TScatterArrayNode@U?$TVector4@M@math3d@UModSys@@H@tl@UModSys@@@tl@UModSys@@@?$TTreeHoldRB@U?$TScatterArrayNode@U?$TVector4@M@math3d@UModSys@@H@tl@UModSys@@@tl@UModSys@@QEAAHAEBU?$TNodeDeleter0@U?$TScatterArrayNode@U?$TVector4@M@math3d@UModSys@@H@tl@UModSys@@@12@@Z 0000000180006ff0 f i umodsys_lib_libui:umodsys.mod.ui.frames.obj
 0001:00005ff0       ??$process_nodes@U?$TNodeDeleter0@U?$TScatterArrayNode@HH@tl@UModSys@@@tl@UModSys@@@?$TTreeHoldRB@U?$TScatterArrayNode@HH@tl@UModSys@@@tl@UModSys@@QEAAHAEBU?$TNodeDeleter0@U?$TScatterArrayNode@HH@tl@UModSys@@@12@@Z 0000000180006ff0 f i umodsys_lib_libui:umodsys.mod.ui.frames.obj
 0001:00006070       ?aconstruct@?$TTypeConstructor@UListItem@RFrame_List@frames@ui@modules@UModSys@@@tl@UModSys@@SAXPEAUListItem@RFrame_List@frames@ui@modules@3@_K@Z 0000000180007070 f i umodsys_lib_libui:umodsys.mod.ui.frames.obj
 0001:00006100       ??$ValidateConstruction@UIRefObject@core@UModSys@@URCollector@frames@ui@modules@3@@core@UModSys@@YA_NAEAU?$TRefObject@UIRefObject@core@UModSys@@U?$TRefObjectFunc@UIRefObject@core@UModSys@@@tl@3@@tl@1@PEAURCollector@frames@ui@modules@1@@Z 0000000180007100 f i umodsys_lib_libui:umodsys.mod.ui.frames.obj
 0001:00006180       ??$process_nodes_r@U?$TNodeDeleter0@U?$TScatterArrayNode@U?$TVector2@M@math3d@UModSys@@H@tl@UModSys@@@tl@UModSys@@@?$TTreeHoldRB@U?$TScatterArrayNode@U?$TVector2@M@math3d@UModSys@@H@tl@UModSys@@@tl@UModSys@@KAHPEAU?$TScatterArrayNode@U?$TVector2@M@math3d@UModSys@@H@12@AEBU?$TNodeDeleter0@U?$TScatterArrayNode@U?$TVector2@M@math3d@UModSys@@H@tl@UModSys@@@12@@Z 0000000180007180 f i umodsys_lib_libui:umodsys.mod.ui.frames.obj
 0001:00006180       ??$process_nodes_r@U?$TNodeDeleter0@U?$TScatterArrayNode@HH@tl@UModSys@@@tl@UModSys@@@?$TTreeHoldRB@U?$TScatterArrayNode@HH@tl@UModSys@@@tl@UModSys@@KAHPEAU?$TScatterArrayNode@HH@12@AEBU?$TNodeDeleter0@U?$TScatterArrayNode@HH@tl@UModSys@@@12@@Z 0000000180007180 f i umodsys_lib_libui:umodsys.mod.ui.frames.obj
 0001:00006180       ??$process_nodes_r@U?$TNodeDeleter0@U?$TScatterArrayNode@U?$TVector4@M@math3d@UModSys@@H@tl@UModSys@@@tl@UModSys@@@?$TTreeHoldRB@U?$TScatterArrayNode@U?$TVector4@M@math3d@UModSys@@H@tl@UModSys@@@tl@UModSys@@KAHPEAU?$TScatterArrayNode@U?$TVector4@M@math3d@UModSys@@H@12@AEBU?$TNodeDeleter0@U?$TScatterArrayNode@U?$TVector4@M@math3d@UModSys@@H@tl@UModSys@@@12@@Z 0000000180007180 f i umodsys_lib_libui:umodsys.mod.ui.frames.obj
 0001:000061f0       ??$genx_node@UCmp@?$TScatterArray@U?$TVector4@M@math3d@UModSys@@HU?$TScalarCompare@H@core@3@U?$TNodeDeleter0@U?$TScatterArrayNode@U?$TVector4@M@math3d@UModSys@@H@tl@UModSys@@@tl@3@@tl@UModSys@@UGen0@234@@?$TTreeHoldRBD@U?$TScatterArrayNode@U?$TVector4@M@math3d@UModSys@@H@tl@UModSys@@U?$TNodeDeleter0@U?$TScatterArrayNode@U?$TVector4@M@math3d@UModSys@@H@tl@UModSys@@@23@@tl@UModSys@@QEAAPEAU?$TScatterArrayNode@U?$TVector4@M@math3d@UModSys@@H@12@UCmp@?$TScatterArray@U?$TVector4@M@math3d@UModSys@@HU?$TScalarCompare@H@core@3@U?$TNodeDeleter0@U?$TScatterArrayNode@U?$TVector4@M@math3d@UModSys@@H@tl@UModSys@@@tl@3@@12@AEBUGen0@512@PEAPEAU312@2_N@Z 00000001800071f0 f i umodsys_lib_libui:umodsys.mod.ui.frames.obj
 0001:00006360       ??$genx_node@UCmp@?$TScatterArray@U?$TVector2@M@math3d@UModSys@@HU?$TScalarCompare@H@core@3@U?$TNodeDeleter0@U?$TScatterArrayNode@U?$TVector2@M@math3d@UModSys@@H@tl@UModSys@@@tl@3@@tl@UModSys@@UGen0@234@@?$TTreeHoldRBD@U?$TScatterArrayNode@U?$TVector2@M@math3d@UModSys@@H@tl@UModSys@@U?$TNodeDeleter0@U?$TScatterArrayNode@U?$TVector2@M@math3d@UModSys@@H@tl@UModSys@@@23@@tl@UModSys@@QEAAPEAU?$TScatterArrayNode@U?$TVector2@M@math3d@UModSys@@H@12@UCmp@?$TScatterArray@U?$TVector2@M@math3d@UModSys@@HU?$TScalarCompare@H@core@3@U?$TNodeDeleter0@U?$TScatterArrayNode@U?$TVector2@M@math3d@UModSys@@H@tl@UModSys@@@tl@3@@12@AEBUGen0@512@PEAPEAU312@2_N@Z 0000000180007360 f i umodsys_lib_libui:umodsys.mod.ui.frames.obj
 0001:000064b0       ??$genx_node@UCmp@?$TScatterArray@HHU?$TScalarCompare@H@core@UModSys@@U?$TNodeDeleter0@U?$TScatterArrayNode@HH@tl@UModSys@@@tl@3@@tl@UModSys@@UGen0@234@@?$TTreeHoldRBD@U?$TScatterArrayNode@HH@tl@UModSys@@U?$TNodeDeleter0@U?$TScatterArrayNode@HH@tl@UModSys@@@23@@tl@UModSys@@QEAAPEAU?$TScatterArrayNode@HH@12@UCmp@?$TScatterArray@HHU?$TScalarCompare@H@core@UModSys@@U?$TNodeDeleter0@U?$TScatterArrayNode@HH@tl@UModSys@@@tl@3@@12@AEBUGen0@512@PEAPEAU312@2_N@Z 00000001800074b0 f i umodsys_lib_libui:umodsys.mod.ui.frames.obj
 0001:00006600       ?insert_color@?$TTreeHoldRB@U?$TScatterArrayNode@U?$TRefObjectCompositeExtra@UIMouseClient@libui@UModSys@@HUIRefObject@core@3@U?$TRefObjectFunc@UIRefObject@core@UModSys@@@tl@3@@tl@UModSys@@H@tl@UModSys@@@tl@UModSys@@IEAAXPEAU?$TScatterArrayNode@U?$TRefObjectCompositeExtra@UIMouseClient@libui@UModSys@@HUIRefObject@core@3@U?$TRefObjectFunc@UIRefObject@core@UModSys@@@tl@3@@tl@UModSys@@H@23@@Z 0000000180007600 f i umodsys_lib_libui:umodsys.mod.ui.SDL_GL.obj
 0001:00006600       ?insert_color@?$TTreeHoldRB@U?$TScatterArrayNode@U?$TRefObjectComposite@UIKeyboardClient@libui@UModSys@@UIRefObject@core@3@U?$TRefObjectFunc@UIRefObject@core@UModSys@@@tl@3@@tl@UModSys@@H@tl@UModSys@@@tl@UModSys@@IEAAXPEAU?$TScatterArrayNode@U?$TRefObjectComposite@UIKeyboardClient@libui@UModSys@@UIRefObject@core@3@U?$TRefObjectFunc@UIRefObject@core@UModSys@@@tl@3@@tl@UModSys@@H@23@@Z 0000000180007600 f i umodsys_lib_libui:umodsys.mod.ui.SDL_GL.obj
 0001:00006600       ?insert_color@?$TTreeHoldRB@U?$TScatterArrayNode@HH@tl@UModSys@@@tl@UModSys@@IEAAXPEAU?$TScatterArrayNode@HH@23@@Z 0000000180007600 f i umodsys_lib_libui:umodsys.mod.ui.frames.obj
 0001:00006600       ?insert_color@?$TTreeHoldRB@U?$TScatterArrayNode@UGlyph@RMultiImage2D_SDL_ttf@SDL_core@ui@modules@UModSys@@H@tl@UModSys@@@tl@UModSys@@IEAAXPEAU?$TScatterArrayNode@UGlyph@RMultiImage2D_SDL_ttf@SDL_core@ui@modules@UModSys@@H@23@@Z 0000000180007600 f i umodsys_lib_libui:umodsys.mod.ui.SDL_core.obj
 0001:00006600       ?insert_color@?$TTreeHoldRB@U?$TScatterArrayNode@UGlyph@RMultiImage2D_SDL_ttf@SDL_GL@ui@modules@UModSys@@H@tl@UModSys@@@tl@UModSys@@IEAAXPEAU?$TScatterArrayNode@UGlyph@RMultiImage2D_SDL_ttf@SDL_GL@ui@modules@UModSys@@H@23@@Z 0000000180007600 f i umodsys_lib_libui:umodsys.mod.ui.SDL_GL.obj
 0001:00006600       ?insert_color@?$TTreeHoldRB@U?$TScatterArrayNode@U?$TVector4@M@math3d@UModSys@@H@tl@UModSys@@@tl@UModSys@@IEAAXPEAU?$TScatterArrayNode@U?$TVector4@M@math3d@UModSys@@H@23@@Z 0000000180007600 f i umodsys_lib_libui:umodsys.mod.ui.frames.obj
 0001:00006600       ?insert_color@?$TTreeHoldRB@U?$TScatterArrayNode@U?$TVector2@M@math3d@UModSys@@H@tl@UModSys@@@tl@UModSys@@IEAAXPEAU?$TScatterArrayNode@U?$TVector2@M@math3d@UModSys@@H@23@@Z 0000000180007600 f i umodsys_lib_libui:umodsys.mod.ui.frames.obj
 0001:000067b0       ?utf8_cmp_nocase@su@tl@UModSys@@YAHPEBD0_K@Z 00000001800077b0 f i umodsys_lib_libmedia:umodsys.mod.media.images_std.obj
 0001:00006870       ?root_get_interface_info@RMediaFilter@images_std@media@modules@UModSys@@UEBAAEBUSUniquePointerInfo@core@5@XZ 0000000180007870 f i umodsys_lib_libmedia:umodsys.mod.media.images_std.obj
 0001:00006880       ?root_get_interface_type@RMediaFilter@images_std@media@modules@UModSys@@UEBAPEBUSUniquePointerInfo@core@5@XZ 0000000180007880 f i umodsys_lib_libmedia:umodsys.mod.media.images_std.obj
 0001:00006890       ?root_get_other_interface@RMediaFilter@images_std@media@modules@UModSys@@UEBAPEBUIRoot@core@5@PEBUSUniquePointerInfo@75@@Z 0000000180007890 f i umodsys_lib_libmedia:umodsys.mod.media.images_std.obj
 0001:00006890       ?root_get_other_interface@RMediaFilter@images_std@media@modules@UModSys@@UEAAPEAUIRoot@core@5@PEBUSUniquePointerInfo@75@@Z 0000000180007890 f i umodsys_lib_libmedia:umodsys.mod.media.images_std.obj
 0001:000068d0       ?root_is_interface_supported@RMediaFilter@images_std@media@modules@UModSys@@UEBA_NPEBUSUniquePointerInfo@core@5@@Z 00000001800078d0 f i umodsys_lib_libmedia:umodsys.mod.media.images_std.obj
 0001:00006910       ?ref_add@RMediaFilter@images_std@media@modules@UModSys@@UEBAXXZ 0000000180007910 f i umodsys_lib_libmedia:umodsys.mod.media.images_std.obj
 0001:00006920       ?ref_remove@RMediaFilter@images_std@media@modules@UModSys@@UEBAXXZ 0000000180007920 f i umodsys_lib_libmedia:umodsys.mod.media.images_std.obj
 0001:00006940       ?ref_links@RMediaFilter@images_std@media@modules@UModSys@@UEBAHXZ 0000000180007940 f i umodsys_lib_libmedia:umodsys.mod.media.images_std.obj
 0001:00006950       ?ref_weak@RMediaFilter@images_std@media@modules@UModSys@@UEBA_NAEAUWeakPointer@IRefObject@core@5@@Z 0000000180007950 f i umodsys_lib_libmedia:umodsys.mod.media.images_std.obj
 0001:00006970       ?suicide@RMediaFilter@images_std@media@modules@UModSys@@UEAAXXZ 0000000180007970 f i umodsys_lib_libmedia:umodsys.mod.media.images_std.obj
 0001:000069c0       ?get_flag@RMediaFilter@images_std@media@modules@UModSys@@UEBA?AW4eStates@?$TFlags4State@USMediaFlagUid@libmedia@UModSys@@I@tl@5@H@Z 00000001800079c0 f i umodsys_lib_libmedia:umodsys.mod.media.images_std.obj
 0001:000069d0       ?get_flags_auto@RMediaFilter@images_std@media@modules@UModSys@@UEBA?AU?$TFlags4State@USMediaFlagUid@libmedia@UModSys@@I@tl@5@XZ 00000001800079d0 f i umodsys_lib_libmedia:umodsys.mod.media.images_std.obj
 0001:000069e0       ?set_flag@RMediaFilter@images_std@media@modules@UModSys@@UEAA?AW4eStates@?$TFlags4State@USMediaFlagUid@libmedia@UModSys@@I@tl@5@HW46785@@Z 00000001800079e0 f i umodsys_lib_libmedia:umodsys.mod.media.images_std.obj
 0001:00006a10       ??0RMediaFilter@images_std@media@modules@UModSys@@QEAA@PEAUIModObject@base@4@AEBUSParameters@core@4@@Z 0000000180007a10 f i umodsys_lib_libmedia:umodsys.mod.media.images_std.obj
 0001:00006b00       ??1RMediaFilter@images_std@media@modules@UModSys@@UEAA@XZ 0000000180007b00 f i umodsys_lib_libmedia:umodsys.mod.media.images_std.obj
 0001:00006b80       ??_ERMediaFilter@images_std@media@modules@UModSys@@UEAAPEAXI@Z 0000000180007b80 f i  CIL library: CIL module
 0001:00006b80       ??_GRMediaFilter@images_std@media@modules@UModSys@@UEAAPEAXI@Z 0000000180007b80 f i umodsys_lib_libmedia:umodsys.mod.media.images_std.obj
 0001:00006bb0       ?get_generated_names@RGenerator@images_std@media@modules@UModSys@@UEBAHAEAUSUniquePtrList@core@5@@Z 0000000180007bb0 f i umodsys_lib_libmedia:umodsys.mod.media.images_std.obj
 0001:00006bd0       ?get_generated_types@RGenerator@images_std@media@modules@UModSys@@UEBAHAEAUSUniquePtrList@core@5@PEBUSUniquePointerInfo@75@@Z 0000000180007bd0 f i umodsys_lib_libmedia:umodsys.mod.media.images_std.obj
 0001:00006c40       ?generate@RGenerator@images_std@media@modules@UModSys@@UEAA_NAEAU?$TRefObject@UIRefObject@core@UModSys@@U?$TRefObjectFunc@UIRefObject@core@UModSys@@@tl@3@@tl@5@PEBUSUniquePointerInfo@core@5@AEBUSParameters@95@@Z 0000000180007c40 f i umodsys_lib_libmedia:umodsys.mod.media.images_std.obj
 0001:00006cc0       ?root_get_interface_info@RGenerator@images_std@media@modules@UModSys@@UEBAAEBUSUniquePointerInfo@core@5@XZ 0000000180007cc0 f i umodsys_lib_libmedia:umodsys.mod.media.images_std.obj
 0001:00006cd0       ?root_get_interface_type@RGenerator@images_std@media@modules@UModSys@@UEBAPEBUSUniquePointerInfo@core@5@XZ 0000000180007cd0 f i umodsys_lib_libmedia:umodsys.mod.media.images_std.obj
 0001:00006ce0       ?root_get_other_interface@RGenerator@images_std@media@modules@UModSys@@UEAAPEAUIRoot@core@5@PEBUSUniquePointerInfo@75@@Z 0000000180007ce0 f i umodsys_lib_libmedia:umodsys.mod.media.images_std.obj
 0001:00006ce0       ?root_get_other_interface@RGenerator@images_std@media@modules@UModSys@@UEBAPEBUIRoot@core@5@PEBUSUniquePointerInfo@75@@Z 0000000180007ce0 f i umodsys_lib_libmedia:umodsys.mod.media.images_std.obj
 0001:00006d20       ?root_is_interface_supported@RGenerator@images_std@media@modules@UModSys@@UEBA_NPEBUSUniquePointerInfo@core@5@@Z 0000000180007d20 f i umodsys_lib_libmedia:umodsys.mod.media.images_std.obj
 0001:00006d60       ?get_uid@RGenerator@images_std@media@modules@UModSys@@UEBAPEBUSUniquePointerInfo@core@5@XZ 0000000180007d60 f i umodsys_lib_libmedia:umodsys.mod.media.images_std.obj
 0001:00006d70       ?do_open@RModuleReg@images_std@media@modules@UModSys@@UEAA_NXZ 0000000180007d70 f i umodsys_lib_libmedia:umodsys.mod.media.images_std.obj
 0001:00006d80       ?do_close@RModuleReg@images_std@media@modules@UModSys@@UEAA_NXZ 0000000180007d80 f i umodsys_lib_libmedia:umodsys.mod.media.images_std.obj
 0001:00006d90       ??_ERModuleReg@images_std@media@modules@UModSys@@UEAAPEAXI@Z 0000000180007d90 f i  CIL library: CIL module
 0001:00006d90       ??_GRModuleReg@images_std@media@modules@UModSys@@UEAAPEAXI@Z 0000000180007d90 f i umodsys_lib_libmedia:umodsys.mod.media.images_std.obj
 0001:00006dc0       ??$ValidateConstruction@UIRefObject@core@UModSys@@URTerminalX@SDL_GL@ui@modules@3@@core@UModSys@@YA_NAEAU?$TRefObject@UIRefObject@core@UModSys@@U?$TRefObjectFunc@UIRefObject@core@UModSys@@@tl@3@@tl@1@PEAURTerminalX@SDL_GL@ui@modules@1@@Z 0000000180007dc0 f i umodsys_lib_libui:umodsys.mod.ui.SDL_GL.obj
 0001:00006dc0       ??$ValidateConstruction@UIRefObject@core@UModSys@@URTerminalX@SDL_core@ui@modules@3@@core@UModSys@@YA_NAEAU?$TRefObject@UIRefObject@core@UModSys@@U?$TRefObjectFunc@UIRefObject@core@UModSys@@@tl@3@@tl@1@PEAURTerminalX@SDL_core@ui@modules@1@@Z 0000000180007dc0 f i umodsys_lib_libui:umodsys.mod.ui.SDL_core.obj
 0001:00006dc0       ??$ValidateConstruction@UIRefObject@core@UModSys@@URMediaFilter@images_std@media@modules@3@@core@UModSys@@YA_NAEAU?$TRefObject@UIRefObject@core@UModSys@@U?$TRefObjectFunc@UIRefObject@core@UModSys@@@tl@3@@tl@1@PEAURMediaFilter@images_std@media@modules@1@@Z 0000000180007dc0 f i umodsys_lib_libmedia:umodsys.mod.media.images_std.obj
 0001:00006dc0       ??$ValidateConstruction@UIImage@lib2d@UModSys@@URImage_Memory@stdlib@2modules@3@@core@UModSys@@YA_NAEAU?$TRefObject@UIImage@lib2d@UModSys@@U?$TRefObjectFunc@UIImage@lib2d@UModSys@@@tl@3@@tl@1@PEAURImage_Memory@stdlib@lib2d@modules@1@@Z 0000000180007dc0 f i umodsys_lib_lib2d:umodsys.mod.2d.stdlib.obj
 0001:00006dc0       ??$ValidateConstruction@UIRefObject@core@UModSys@@URImageFactory_Memory@stdlib@lib2d@modules@3@@core@UModSys@@YA_NAEAU?$TRefObject@UIRefObject@core@UModSys@@U?$TRefObjectFunc@UIRefObject@core@UModSys@@@tl@3@@tl@1@PEAURImageFactory_Memory@stdlib@lib2d@modules@1@@Z 0000000180007dc0 f i umodsys_lib_lib2d:umodsys.mod.2d.stdlib.obj
 0001:00006dc0       ??$ValidateConstruction@UIRefObject@core@UModSys@@URImage_Memory@stdlib@lib2d@modules@3@@core@UModSys@@YA_NAEAU?$TRefObject@UIRefObject@core@UModSys@@U?$TRefObjectFunc@UIRefObject@core@UModSys@@@tl@3@@tl@1@PEAURImage_Memory@stdlib@lib2d@modules@1@@Z 0000000180007dc0 f i umodsys_lib_lib2d:umodsys.mod.2d.stdlib.obj
 0001:00006e30       ?init_escapes@serialize_json@media@modules@UModSys@@YAXXZ 0000000180007e30 f i umodsys_lib_libmedia:umodsys.mod.media.serialize_json.obj
 0001:00006fa0       ?root_get_interface_info@RSerializeReader@serialize_json@media@modules@UModSys@@UEBAAEBUSUniquePointerInfo@core@5@XZ 0000000180007fa0 f i umodsys_lib_libmedia:umodsys.mod.media.serialize_json.obj
 0001:00006fb0       ?root_get_interface_type@RSerializeReader@serialize_json@media@modules@UModSys@@UEBAPEBUSUniquePointerInfo@core@5@XZ 0000000180007fb0 f i umodsys_lib_libmedia:umodsys.mod.media.serialize_json.obj
 0001:00006fc0       ?root_get_other_interface@RSerializeReader@serialize_json@media@modules@UModSys@@UEAAPEAUIRoot@core@5@PEBUSUniquePointerInfo@75@@Z 0000000180007fc0 f i umodsys_lib_libmedia:umodsys.mod.media.serialize_json.obj
 0001:00006fc0       ?root_get_other_interface@RSerializeReader@serialize_json@media@modules@UModSys@@UEBAPEBUIRoot@core@5@PEBUSUniquePointerInfo@75@@Z 0000000180007fc0 f i umodsys_lib_libmedia:umodsys.mod.media.serialize_json.obj
 0001:00006ff0       ?root_is_interface_supported@RSerializeReader@serialize_json@media@modules@UModSys@@UEBA_NPEBUSUniquePointerInfo@core@5@@Z 0000000180007ff0 f i umodsys_lib_libmedia:umodsys.mod.media.serialize_json.obj
 0001:00007020       ?ref_add@RMultiImage@stdlib@lib2d@modules@UModSys@@UEBAXXZ 0000000180008020 f i umodsys_lib_lib2d:umodsys.mod.2d.stdlib.obj
 0001:00007020       ?ref_add@RVertexArray@SDL_GL@ui@modules@UModSys@@UEBAXXZ 0000000180008020 f i umodsys_lib_libui:umodsys.mod.ui.SDL_GL.obj
 0001:00007020       ?ref_add@RGenerator@zlib@media@modules@UModSys@@UEBAXXZ 0000000180008020 f i umodsys_lib_libmedia:umodsys.mod.media.zlib.obj
 0001:00007020       ?ref_add@RGenerator@test1@test@modules@UModSys@@UEBAXXZ 0000000180008020 f i plugin_test1.obj
 0001:00007020       ?ref_add@RGenerator@images_std@media@modules@UModSys@@UEBAXXZ 0000000180008020 f i umodsys_lib_libmedia:umodsys.mod.media.images_std.obj
 0001:00007020       ?ref_add@RGenerator@SDL_core@ui@modules@UModSys@@UEBAXXZ 0000000180008020 f i umodsys_lib_libui:umodsys.mod.ui.SDL_core.obj
 0001:00007020       ?ref_add@RGenerator@SDL_GL@ui@modules@UModSys@@UEBAXXZ 0000000180008020 f i umodsys_lib_libui:umodsys.mod.ui.SDL_GL.obj
 0001:00007020       ?ref_add@RGenerator@stdlib@lib2d@modules@UModSys@@UEBAXXZ 0000000180008020 f i umodsys_lib_lib2d:umodsys.mod.2d.stdlib.obj
 0001:00007020       ?ref_add@RDialog@frames@ui@modules@UModSys@@UEBAXXZ 0000000180008020 f i umodsys_lib_libui:umodsys.mod.ui.frames.obj
 0001:00007020       ?ref_add@RSerializeReader@serialize_json@media@modules@UModSys@@UEBAXXZ 0000000180008020 f i umodsys_lib_libmedia:umodsys.mod.media.serialize_json.obj
 0001:00007020       ?ref_add@RGenerator@frames@ui@modules@UModSys@@UEBAXXZ 0000000180008020 f i umodsys_lib_libui:umodsys.mod.ui.frames.obj
 0001:00007020       ?ref_add@RMultiImage2D_SDL_ttf@SDL_core@ui@modules@UModSys@@UEBAXXZ 0000000180008020 f i umodsys_lib_libui:umodsys.mod.ui.SDL_core.obj
 0001:00007020       ?ref_add@RImageFactory_Memory@stdlib@lib2d@modules@UModSys@@UEBAXXZ 0000000180008020 f i umodsys_lib_lib2d:umodsys.mod.2d.stdlib.obj
 0001:00007020       ?ref_add@RTerminal@SDL_GL@ui@modules@UModSys@@UEBAXXZ 0000000180008020 f i umodsys_lib_libui:umodsys.mod.ui.SDL_GL.obj
 0001:00007020       ?ref_add@RImage_Memory@stdlib@lib2d@modules@UModSys@@UEBAXXZ 0000000180008020 f i umodsys_lib_lib2d:umodsys.mod.2d.stdlib.obj
 0001:00007020       ?ref_add@RGenerator@serialize_json@media@modules@UModSys@@UEBAXXZ 0000000180008020 f i umodsys_lib_libmedia:umodsys.mod.media.serialize_json.obj
 0001:00007020       ?ref_add@RMultiImage2D_SDL_ttf@SDL_GL@ui@modules@UModSys@@UEBAXXZ 0000000180008020 f i umodsys_lib_libui:umodsys.mod.ui.SDL_GL.obj
 0001:00007020       ?ref_add@RBinArchiveFrameClient_ZIP@zlib@media@modules@UModSys@@UEBAXXZ 0000000180008020 f i umodsys_lib_libmedia:umodsys.mod.media.zlib.obj
 0001:00007020       ?ref_add@RTerminal@SDL_core@ui@modules@UModSys@@UEBAXXZ 0000000180008020 f i umodsys_lib_libui:umodsys.mod.ui.SDL_core.obj
 0001:00007030       ?ref_weak@RMultiImage2D_SDL_ttf@SDL_GL@ui@modules@UModSys@@UEBA_NAEAUWeakPointer@IRefObject@core@5@@Z 0000000180008030 f i umodsys_lib_libui:umodsys.mod.ui.SDL_GL.obj
 0001:00007030       ?ref_weak@RGenerator@frames@ui@modules@UModSys@@UEBA_NAEAUWeakPointer@IRefObject@core@5@@Z 0000000180008030 f i umodsys_lib_libui:umodsys.mod.ui.frames.obj
 0001:00007030       ?ref_weak@RGenerator@test1@test@modules@UModSys@@UEBA_NAEAUWeakPointer@IRefObject@core@5@@Z 0000000180008030 f i plugin_test1.obj
 0001:00007030       ?ref_weak@RTerminal@SDL_core@ui@modules@UModSys@@UEBA_NAEAUWeakPointer@IRefObject@core@5@@Z 0000000180008030 f i umodsys_lib_libui:umodsys.mod.ui.SDL_core.obj
 0001:00007030       ?ref_weak@RDialog@frames@ui@modules@UModSys@@UEBA_NAEAUWeakPointer@IRefObject@core@5@@Z 0000000180008030 f i umodsys_lib_libui:umodsys.mod.ui.frames.obj
 0001:00007030       ?ref_weak@RGenerator@SDL_core@ui@modules@UModSys@@UEBA_NAEAUWeakPointer@IRefObject@core@5@@Z 0000000180008030 f i umodsys_lib_libui:umodsys.mod.ui.SDL_core.obj
 0001:00007030       ?ref_weak@RImage_Memory@stdlib@lib2d@modules@UModSys@@UEBA_NAEAUWeakPointer@IRefObject@core@5@@Z 0000000180008030 f i umodsys_lib_lib2d:umodsys.mod.2d.stdlib.obj
 0001:00007030       ?ref_weak@RImageFactory_Memory@stdlib@lib2d@modules@UModSys@@UEBA_NAEAUWeakPointer@IRefObject@core@5@@Z 0000000180008030 f i umodsys_lib_lib2d:umodsys.mod.2d.stdlib.obj
 0001:00007030       ?ref_weak@RMultiImage@stdlib@lib2d@modules@UModSys@@UEBA_NAEAUWeakPointer@IRefObject@core@5@@Z 0000000180008030 f i umodsys_lib_lib2d:umodsys.mod.2d.stdlib.obj
 0001:00007030       ?ref_weak@RTerminal@SDL_GL@ui@modules@UModSys@@UEBA_NAEAUWeakPointer@IRefObject@core@5@@Z 0000000180008030 f i umodsys_lib_libui:umodsys.mod.ui.SDL_GL.obj
 0001:00007030       ?ref_weak@RGenerator@zlib@media@modules@UModSys@@UEBA_NAEAUWeakPointer@IRefObject@core@5@@Z 0000000180008030 f i umodsys_lib_libmedia:umodsys.mod.media.zlib.obj
 0001:00007030       ?ref_weak@RGenerator@stdlib@lib2d@modules@UModSys@@UEBA_NAEAUWeakPointer@IRefObject@core@5@@Z 0000000180008030 f i umodsys_lib_lib2d:umodsys.mod.2d.stdlib.obj
 0001:00007030       ?ref_weak@RVertexArray@SDL_GL@ui@modules@UModSys@@UEBA_NAEAUWeakPointer@IRefObject@core@5@@Z 0000000180008030 f i umodsys_lib_libui:umodsys.mod.ui.SDL_GL.obj
 0001:00007030       ?ref_weak@RGenerator@SDL_GL@ui@modules@UModSys@@UEBA_NAEAUWeakPointer@IRefObject@core@5@@Z 0000000180008030 f i umodsys_lib_libui:umodsys.mod.ui.SDL_GL.obj
 0001:00007030       ?ref_weak@RSerializeReader@serialize_json@media@modules@UModSys@@UEBA_NAEAUWeakPointer@IRefObject@core@5@@Z 0000000180008030 f i umodsys_lib_libmedia:umodsys.mod.media.serialize_json.obj
 0001:00007030       ?ref_weak@RGenerator@images_std@media@modules@UModSys@@UEBA_NAEAUWeakPointer@IRefObject@core@5@@Z 0000000180008030 f i umodsys_lib_libmedia:umodsys.mod.media.images_std.obj
 0001:00007030       ?ref_weak@RBinArchiveFrameClient_ZIP@zlib@media@modules@UModSys@@UEBA_NAEAUWeakPointer@IRefObject@core@5@@Z 0000000180008030 f i umodsys_lib_libmedia:umodsys.mod.media.zlib.obj
 0001:00007030       ?ref_weak@RMultiImage2D_SDL_ttf@SDL_core@ui@modules@UModSys@@UEBA_NAEAUWeakPointer@IRefObject@core@5@@Z 0000000180008030 f i umodsys_lib_libui:umodsys.mod.ui.SDL_core.obj
 0001:00007030       ?ref_weak@RGenerator@serialize_json@media@modules@UModSys@@UEBA_NAEAUWeakPointer@IRefObject@core@5@@Z 0000000180008030 f i umodsys_lib_libmedia:umodsys.mod.media.serialize_json.obj
 0001:00007050       ?reader_lasterror@RSerializeReader@serialize_json@media@modules@UModSys@@UEBAPEBDXZ 0000000180008050 f i umodsys_lib_libmedia:umodsys.mod.media.serialize_json.obj
 0001:00007060       ?reader_parse@RSerializeReader@serialize_json@media@modules@UModSys@@UEAA_NPEAUISerializeParser@libmedia@5@@Z 0000000180008060 f i umodsys_lib_libmedia:umodsys.mod.media.serialize_json.obj
 0001:000080c0       ?uni@RSerializeReader@serialize_json@media@modules@UModSys@@IEAA_NHAEAH@Z 00000001800090c0 f i umodsys_lib_libmedia:umodsys.mod.media.serialize_json.obj
 0001:00008190       ?emit@RSerializeReader@serialize_json@media@modules@UModSys@@IEAA_NPEAUISerializeParser@libmedia@5@PEAUNode@12345@_N@Z 0000000180009190 f i umodsys_lib_libmedia:umodsys.mod.media.serialize_json.obj
 0001:000085e0       ??0RSerializeReader@serialize_json@media@modules@UModSys@@QEAA@PEAUIModObject@base@4@AEBUSParameters@core@4@@Z 00000001800095e0 f i umodsys_lib_libmedia:umodsys.mod.media.serialize_json.obj
 0001:00008730       ??1RSerializeReader@serialize_json@media@modules@UModSys@@UEAA@XZ 0000000180009730 f i umodsys_lib_libmedia:umodsys.mod.media.serialize_json.obj
 0001:000087d0       ??_GRSerializeReader@serialize_json@media@modules@UModSys@@UEAAPEAXI@Z 00000001800097d0 f i umodsys_lib_libmedia:umodsys.mod.media.serialize_json.obj
 0001:000087d0       ??_ERSerializeReader@serialize_json@media@modules@UModSys@@UEAAPEAXI@Z 00000001800097d0 f i  CIL library: CIL module
 0001:00008800       ?root_get_interface_info@RSerializeWriter@serialize_json@media@modules@UModSys@@UEBAAEBUSUniquePointerInfo@core@5@XZ 0000000180009800 f i umodsys_lib_libmedia:umodsys.mod.media.serialize_json.obj
 0001:00008810       ?root_get_interface_type@RSerializeWriter@serialize_json@media@modules@UModSys@@UEBAPEBUSUniquePointerInfo@core@5@XZ 0000000180009810 f i umodsys_lib_libmedia:umodsys.mod.media.serialize_json.obj
 0001:00008820       ?root_get_other_interface@RSerializeWriter@serialize_json@media@modules@UModSys@@UEAAPEAUIRoot@core@5@PEBUSUniquePointerInfo@75@@Z 0000000180009820 f i umodsys_lib_libmedia:umodsys.mod.media.serialize_json.obj
 0001:00008820       ?root_get_other_interface@RSerializeWriter@serialize_json@media@modules@UModSys@@UEBAPEBUIRoot@core@5@PEBUSUniquePointerInfo@75@@Z 0000000180009820 f i umodsys_lib_libmedia:umodsys.mod.media.serialize_json.obj
 0001:00008850       ?root_is_interface_supported@RSerializeWriter@serialize_json@media@modules@UModSys@@UEBA_NPEBUSUniquePointerInfo@core@5@@Z 0000000180009850 f i umodsys_lib_libmedia:umodsys.mod.media.serialize_json.obj
 0001:00008880       ?ref_add@RSerializeWriter@serialize_json@media@modules@UModSys@@UEBAXXZ 0000000180009880 f i umodsys_lib_libmedia:umodsys.mod.media.serialize_json.obj
 0001:00008890       ?ref_remove@RSerializeWriter@serialize_json@media@modules@UModSys@@UEBAXXZ 0000000180009890 f i umodsys_lib_libmedia:umodsys.mod.media.serialize_json.obj
 0001:000088b0       ?ref_links@RSerializeWriter@serialize_json@media@modules@UModSys@@UEBAHXZ 00000001800098b0 f i umodsys_lib_libmedia:umodsys.mod.media.serialize_json.obj
 0001:000088c0       ?ref_weak@RSerializeWriter@serialize_json@media@modules@UModSys@@UEBA_NAEAUWeakPointer@IRefObject@core@5@@Z 00000001800098c0 f i umodsys_lib_libmedia:umodsys.mod.media.serialize_json.obj
 0001:000088e0       ?suicide@RSerializeWriter@serialize_json@media@modules@UModSys@@UEAAXXZ 00000001800098e0 f i umodsys_lib_libmedia:umodsys.mod.media.serialize_json.obj
 0001:00008930       ?writer_lasterror@RSerializeWriter@serialize_json@media@modules@UModSys@@UEBAPEBDXZ 0000000180009930 f i umodsys_lib_libmedia:umodsys.mod.media.serialize_json.obj
 0001:00008940       ?put_value@RSerializeWriter@serialize_json@media@modules@UModSys@@UEAA_NAEBU?$TString@U?$TSCoreConst@D@su@tl@UModSys@@U?$TComparerBinaryHash@D@234@@tl@5@AEBUSSerializeValue@libmedia@5@H@Z 0000000180009940 f i umodsys_lib_libmedia:umodsys.mod.media.serialize_json.obj
 0001:00008cd0       ?put_key@RSerializeWriter@serialize_json@media@modules@UModSys@@UEAA_NAEBU?$TString@U?$TSCoreConst@D@su@tl@UModSys@@U?$TComparerBinaryHash@D@234@@tl@5@AEBUSSerializeValue@libmedia@5@H@Z 0000000180009cd0 f i umodsys_lib_libmedia:umodsys.mod.media.serialize_json.obj
 0001:00008d90       ?put_begin@RSerializeWriter@serialize_json@media@modules@UModSys@@UEAA_NAEBU?$TString@U?$TSCoreConst@D@su@tl@UModSys@@U?$TComparerBinaryHash@D@234@@tl@5@W4eType@SSerializeValue@libmedia@5@H@Z 0000000180009d90 f i umodsys_lib_libmedia:umodsys.mod.media.serialize_json.obj
 0001:00008f10       ?put_end@RSerializeWriter@serialize_json@media@modules@UModSys@@UEAA_NXZ 0000000180009f10 f i umodsys_lib_libmedia:umodsys.mod.media.serialize_json.obj
 0001:00008fe0       ?write_s@RSerializeWriter@serialize_json@media@modules@UModSys@@IEAA_NAEBUStr@SSerializeValue@libmedia@5@@Z 0000000180009fe0 f i umodsys_lib_libmedia:umodsys.mod.media.serialize_json.obj
 0001:000090d0       ?delim@RSerializeWriter@serialize_json@media@modules@UModSys@@IEAA_NAEAUNode@12345@H@Z 000000018000a0d0 f i umodsys_lib_libmedia:umodsys.mod.media.serialize_json.obj
 0001:00009150       ?writef@RSerializeWriter@serialize_json@media@modules@UModSys@@IEAA_NPEBDZZ 000000018000a150 f i umodsys_lib_libmedia:umodsys.mod.media.serialize_json.obj
 0001:000091c0       ??0RSerializeWriter@serialize_json@media@modules@UModSys@@QEAA@PEAUIModObject@base@4@AEBUSParameters@core@4@@Z 000000018000a1c0 f i umodsys_lib_libmedia:umodsys.mod.media.serialize_json.obj
 0001:00009310       ??1RSerializeWriter@serialize_json@media@modules@UModSys@@UEAA@XZ 000000018000a310 f i umodsys_lib_libmedia:umodsys.mod.media.serialize_json.obj
 0001:00009410       ??_ERSerializeWriter@serialize_json@media@modules@UModSys@@UEAAPEAXI@Z 000000018000a410 f i  CIL library: CIL module
 0001:00009410       ??_GRSerializeWriter@serialize_json@media@modules@UModSys@@UEAAPEAXI@Z 000000018000a410 f i umodsys_lib_libmedia:umodsys.mod.media.serialize_json.obj
 0001:00009440       ?get_generated_names@RGenerator@serialize_json@media@modules@UModSys@@UEBAHAEAUSUniquePtrList@core@5@@Z 000000018000a440 f i umodsys_lib_libmedia:umodsys.mod.media.serialize_json.obj
 0001:00009480       ?get_generated_types@RGenerator@serialize_json@media@modules@UModSys@@UEBAHAEAUSUniquePtrList@core@5@PEBUSUniquePointerInfo@75@@Z 000000018000a480 f i umodsys_lib_libmedia:umodsys.mod.media.serialize_json.obj
 0001:00009500       ?generate@RGenerator@serialize_json@media@modules@UModSys@@UEAA_NAEAU?$TRefObject@UIRefObject@core@UModSys@@U?$TRefObjectFunc@UIRefObject@core@UModSys@@@tl@3@@tl@5@PEBUSUniquePointerInfo@core@5@AEBUSParameters@95@@Z 000000018000a500 f i umodsys_lib_libmedia:umodsys.mod.media.serialize_json.obj
 0001:000095e0       ?root_get_interface_info@RGenerator@serialize_json@media@modules@UModSys@@UEBAAEBUSUniquePointerInfo@core@5@XZ 000000018000a5e0 f i umodsys_lib_libmedia:umodsys.mod.media.serialize_json.obj
 0001:000095f0       ?root_get_interface_type@RGenerator@serialize_json@media@modules@UModSys@@UEBAPEBUSUniquePointerInfo@core@5@XZ 000000018000a5f0 f i umodsys_lib_libmedia:umodsys.mod.media.serialize_json.obj
 0001:00009600       ?root_get_other_interface@RGenerator@serialize_json@media@modules@UModSys@@UEAAPEAUIRoot@core@5@PEBUSUniquePointerInfo@75@@Z 000000018000a600 f i umodsys_lib_libmedia:umodsys.mod.media.serialize_json.obj
 0001:00009600       ?root_get_other_interface@RGenerator@serialize_json@media@modules@UModSys@@UEBAPEBUIRoot@core@5@PEBUSUniquePointerInfo@75@@Z 000000018000a600 f i umodsys_lib_libmedia:umodsys.mod.media.serialize_json.obj
 0001:00009640       ?root_is_interface_supported@RGenerator@serialize_json@media@modules@UModSys@@UEBA_NPEBUSUniquePointerInfo@core@5@@Z 000000018000a640 f i umodsys_lib_libmedia:umodsys.mod.media.serialize_json.obj
 0001:00009680       ?get_uid@RGenerator@serialize_json@media@modules@UModSys@@UEBAPEBUSUniquePointerInfo@core@5@XZ 000000018000a680 f i umodsys_lib_libmedia:umodsys.mod.media.serialize_json.obj
 0001:00009690       ?do_open@RModuleReg@serialize_json@media@modules@UModSys@@UEAA_NXZ 000000018000a690 f i umodsys_lib_libmedia:umodsys.mod.media.serialize_json.obj
 0001:000096a0       ?do_close@RModuleReg@serialize_json@media@modules@UModSys@@UEAA_NXZ 000000018000a6a0 f i umodsys_lib_libmedia:umodsys.mod.media.serialize_json.obj
 0001:000096b0       ??_GRModuleReg@serialize_json@media@modules@UModSys@@UEAAPEAXI@Z 000000018000a6b0 f i umodsys_lib_libmedia:umodsys.mod.media.serialize_json.obj
 0001:000096b0       ??_ERModuleReg@serialize_json@media@modules@UModSys@@UEAAPEAXI@Z 000000018000a6b0 f i  CIL library: CIL module
 0001:000096e0       ??1?$TTextStreamReaderBuf@D$0BAAA@@libmedia@UModSys@@QEAA@XZ 000000018000a6e0 f i umodsys_lib_libmedia:umodsys.mod.media.serialize_json.obj
 0001:00009710       ??1?$TDynarrayDynamic@DU?$TAllocator@USIMemAlloc@core@UModSys@@USCountCalcPower2@23@@tl@UModSys@@@tl@UModSys@@QEAA@XZ 000000018000a710 f i umodsys_lib_libmedia:umodsys.mod.media.serialize_json.obj
 0001:00009750       ?Clear@?$TDynarray@U?$TDynarrayHolderDynamic@DU?$TAllocator@USIMemAlloc@core@UModSys@@USCountCalcPower2@23@@tl@UModSys@@@tl@UModSys@@@tl@UModSys@@QEAA_NXZ 000000018000a750 f i umodsys_lib_libmedia:umodsys.mod.media.serialize_json.obj
 0001:000097b0       ??1?$TDynarrayDynamic@UNode@RSerializeReader@serialize_json@media@modules@UModSys@@U?$TAllocator@USIMemAlloc@core@UModSys@@USCountCalcPower2@23@@tl@6@@tl@UModSys@@QEAA@XZ 000000018000a7b0 f i umodsys_lib_libmedia:umodsys.mod.media.serialize_json.obj
 0001:000097c0       ??1?$TDynarrayDynamic@UNode@RSerializeWriter@serialize_json@media@modules@UModSys@@U?$TAllocator@USIMemAlloc@core@UModSys@@USCountCalcPower2@23@@tl@6@@tl@UModSys@@QEAA@XZ 000000018000a7c0 f i umodsys_lib_libmedia:umodsys.mod.media.serialize_json.obj
 0001:000097d0       ??1?$TTextStreamWriterBuf@D$0BAAA@@libmedia@UModSys@@QEAA@XZ 000000018000a7d0 f i umodsys_lib_libmedia:umodsys.mod.media.serialize_json.obj
 0001:00009830       ?put_c@?$TTextStreamWriter@D@libmedia@UModSys@@QEAA_ND@Z 000000018000a830 f i umodsys_lib_libmedia:umodsys.mod.media.serialize_json.obj
 0001:000098f0       ?put_z@?$TTextStreamWriter@D@libmedia@UModSys@@QEAA_NPEBD@Z 000000018000a8f0 f i umodsys_lib_libmedia:umodsys.mod.media.serialize_json.obj
 0001:00009940       ?check@?$TTextStreamReader@D@libmedia@UModSys@@IEAA_N_K@Z 000000018000a940 f i umodsys_lib_libmedia:umodsys.mod.media.serialize_json.obj
 0001:00009a20       ??1?$TDynarray@U?$TDynarrayHolderDynamic@UNode@RSerializeReader@serialize_json@media@modules@UModSys@@U?$TAllocator@USIMemAlloc@core@UModSys@@USCountCalcPower2@23@@tl@6@@tl@UModSys@@@tl@UModSys@@QEAA@XZ 000000018000aa20 f i umodsys_lib_libmedia:umodsys.mod.media.serialize_json.obj
 0001:00009a90       ??1?$TDynarray@U?$TDynarrayHolderDynamic@UNode@RSerializeWriter@serialize_json@media@modules@UModSys@@U?$TAllocator@USIMemAlloc@core@UModSys@@USCountCalcPower2@23@@tl@6@@tl@UModSys@@@tl@UModSys@@QEAA@XZ 000000018000aa90 f i umodsys_lib_libmedia:umodsys.mod.media.serialize_json.obj
 0001:00009b00       ?put_chars@?$TTextStreamWriter@D@libmedia@UModSys@@QEAA_NPEBD_K@Z 000000018000ab00 f i umodsys_lib_libmedia:umodsys.mod.media.serialize_json.obj
 0001:00009bc0       ?Free@?$TDynarray@U?$TDynarrayHolderDynamic@DU?$TAllocator@USIMemAlloc@core@UModSys@@USCountCalcPower2@23@@tl@UModSys@@@tl@UModSys@@@tl@UModSys@@QEAA_NXZ 000000018000abc0 f i umodsys_lib_libmedia:umodsys.mod.media.serialize_json.obj
 0001:00009c40       ?Push@?$TDynarray@U?$TDynarrayHolderDynamic@DU?$TAllocator@USIMemAlloc@core@UModSys@@USCountCalcPower2@23@@tl@UModSys@@@tl@UModSys@@@tl@UModSys@@QEAA_NAEBD@Z 000000018000ac40 f i umodsys_lib_libmedia:umodsys.mod.media.serialize_json.obj
 0001:00009c90       ?ResizeRel@?$TDynarray@U?$TDynarrayHolderDynamic@UNode@RSerializeReader@serialize_json@media@modules@UModSys@@U?$TAllocator@USIMemAlloc@core@UModSys@@USCountCalcPower2@23@@tl@6@@tl@UModSys@@@tl@UModSys@@QEAA_N_J@Z 000000018000ac90 f i umodsys_lib_libmedia:umodsys.mod.media.serialize_json.obj
 0001:00009d40       ?ResizeRel@?$TDynarray@U?$TDynarrayHolderDynamic@UNode@RSerializeWriter@serialize_json@media@modules@UModSys@@U?$TAllocator@USIMemAlloc@core@UModSys@@USCountCalcPower2@23@@tl@6@@tl@UModSys@@@tl@UModSys@@QEAA_N_J@Z 000000018000ad40 f i umodsys_lib_libmedia:umodsys.mod.media.serialize_json.obj
 0001:00009e00       ??$smemmove@D@su@tl@UModSys@@YAXPEADPEBD_K@Z 000000018000ae00 f i umodsys_lib_libmedia:umodsys.mod.media.serialize_json.obj
 0001:00009e10       ?ReLink@?$TDynarray@U?$TDynarrayHolderDynamic@DU?$TAllocator@USIMemAlloc@core@UModSys@@USCountCalcPower2@23@@tl@UModSys@@@tl@UModSys@@@tl@UModSys@@IEAA_N_K@Z 000000018000ae10 f i umodsys_lib_libmedia:umodsys.mod.media.serialize_json.obj
 0001:00009e80       ?ReLink@?$TDynarray@U?$TDynarrayHolderDynamic@UNode@RSerializeReader@serialize_json@media@modules@UModSys@@U?$TAllocator@USIMemAlloc@core@UModSys@@USCountCalcPower2@23@@tl@6@@tl@UModSys@@@tl@UModSys@@IEAA_N_K@Z 000000018000ae80 f i umodsys_lib_libmedia:umodsys.mod.media.serialize_json.obj
 0001:00009f00       ?ReLink@?$TDynarray@U?$TDynarrayHolderDynamic@UNode@RSerializeWriter@serialize_json@media@modules@UModSys@@U?$TAllocator@USIMemAlloc@core@UModSys@@USCountCalcPower2@23@@tl@6@@tl@UModSys@@@tl@UModSys@@IEAA_N_K@Z 000000018000af00 f i umodsys_lib_libmedia:umodsys.mod.media.serialize_json.obj
 0001:00009f80       ??$ValidateConstruction@UIRefObject@core@UModSys@@URSerializeReader@serialize_json@media@modules@3@@core@UModSys@@YA_NAEAU?$TRefObject@UIRefObject@core@UModSys@@U?$TRefObjectFunc@UIRefObject@core@UModSys@@@tl@3@@tl@1@PEAURSerializeReader@serialize_json@media@modules@1@@Z 000000018000af80 f i umodsys_lib_libmedia:umodsys.mod.media.serialize_json.obj
 0001:0000a000       ??$ValidateConstruction@UIRefObject@core@UModSys@@URSerializeWriter@serialize_json@media@modules@3@@core@UModSys@@YA_NAEAU?$TRefObject@UIRefObject@core@UModSys@@U?$TRefObjectFunc@UIRefObject@core@UModSys@@@tl@3@@tl@1@PEAURSerializeWriter@serialize_json@media@modules@1@@Z 000000018000b000 f i umodsys_lib_libmedia:umodsys.mod.media.serialize_json.obj
 0001:0000a080       ??1SBuffer@libmedia@UModSys@@QEAA@XZ 000000018000b080 f i umodsys_lib_libmedia:umodsys.mod.media.zlib.obj
 0001:0000a0f0       ?root_get_interface_info@RBinArchiveFrameClient_ZIP@zlib@media@modules@UModSys@@UEBAAEBUSUniquePointerInfo@core@5@XZ 000000018000b0f0 f i umodsys_lib_libmedia:umodsys.mod.media.zlib.obj
 0001:0000a100       ?root_get_interface_type@RBinArchiveFrameClient_ZIP@zlib@media@modules@UModSys@@UEBAPEBUSUniquePointerInfo@core@5@XZ 000000018000b100 f i umodsys_lib_libmedia:umodsys.mod.media.zlib.obj
 0001:0000a110       ?root_get_other_interface@RBinArchiveFrameClient_ZIP@zlib@media@modules@UModSys@@UEAAPEAUIRoot@core@5@PEBUSUniquePointerInfo@75@@Z 000000018000b110 f i umodsys_lib_libmedia:umodsys.mod.media.zlib.obj
 0001:0000a110       ?root_get_other_interface@RBinArchiveFrameClient_ZIP@zlib@media@modules@UModSys@@UEBAPEBUIRoot@core@5@PEBUSUniquePointerInfo@75@@Z 000000018000b110 f i umodsys_lib_libmedia:umodsys.mod.media.zlib.obj
 0001:0000a140       ?root_is_interface_supported@RBinArchiveFrameClient_ZIP@zlib@media@modules@UModSys@@UEBA_NPEBUSUniquePointerInfo@core@5@@Z 000000018000b140 f i umodsys_lib_libmedia:umodsys.mod.media.zlib.obj
 0001:0000a170       ??_ERBinArchiveFrameClient_ZIP@zlib@media@modules@UModSys@@UEAAPEAXI@Z 000000018000b170 f i  CIL library: CIL module
 0001:0000a170       ??_GRBinArchiveFrameClient_ZIP@zlib@media@modules@UModSys@@UEAAPEAXI@Z 000000018000b170 f i umodsys_lib_libmedia:umodsys.mod.media.zlib.obj
 0001:0000a1a0       ?get_generated_names@RGenerator@zlib@media@modules@UModSys@@UEBAHAEAUSUniquePtrList@core@5@@Z 000000018000b1a0 f i umodsys_lib_libmedia:umodsys.mod.media.zlib.obj
 0001:0000a1c0       ?get_generated_types@RGenerator@zlib@media@modules@UModSys@@UEBAHAEAUSUniquePtrList@core@5@PEBUSUniquePointerInfo@75@@Z 000000018000b1c0 f i umodsys_lib_libmedia:umodsys.mod.media.zlib.obj
 0001:0000a220       ?generate@RGenerator@zlib@media@modules@UModSys@@UEAA_NAEAU?$TRefObject@UIRefObject@core@UModSys@@U?$TRefObjectFunc@UIRefObject@core@UModSys@@@tl@3@@tl@5@PEBUSUniquePointerInfo@core@5@AEBUSParameters@95@@Z 000000018000b220 f i umodsys_lib_libmedia:umodsys.mod.media.zlib.obj
 0001:0000a240       ?root_get_interface_info@RGenerator@zlib@media@modules@UModSys@@UEBAAEBUSUniquePointerInfo@core@5@XZ 000000018000b240 f i umodsys_lib_libmedia:umodsys.mod.media.zlib.obj
 0001:0000a250       ?root_get_interface_type@RGenerator@zlib@media@modules@UModSys@@UEBAPEBUSUniquePointerInfo@core@5@XZ 000000018000b250 f i umodsys_lib_libmedia:umodsys.mod.media.zlib.obj
 0001:0000a260       ?root_get_other_interface@RGenerator@zlib@media@modules@UModSys@@UEBAPEBUIRoot@core@5@PEBUSUniquePointerInfo@75@@Z 000000018000b260 f i umodsys_lib_libmedia:umodsys.mod.media.zlib.obj
 0001:0000a260       ?root_get_other_interface@RGenerator@zlib@media@modules@UModSys@@UEAAPEAUIRoot@core@5@PEBUSUniquePointerInfo@75@@Z 000000018000b260 f i umodsys_lib_libmedia:umodsys.mod.media.zlib.obj
 0001:0000a2a0       ?root_is_interface_supported@RGenerator@zlib@media@modules@UModSys@@UEBA_NPEBUSUniquePointerInfo@core@5@@Z 000000018000b2a0 f i umodsys_lib_libmedia:umodsys.mod.media.zlib.obj
 0001:0000a2e0       ?suicide@RGenerator@test1@test@modules@UModSys@@UEAAXXZ 000000018000b2e0 f i plugin_test1.obj
 0001:0000a2e0       ?suicide@RGenerator@images_std@media@modules@UModSys@@UEAAXXZ 000000018000b2e0 f i umodsys_lib_libmedia:umodsys.mod.media.images_std.obj
 0001:0000a2e0       ?suicide@RGenerator@SDL_GL@ui@modules@UModSys@@UEAAXXZ 000000018000b2e0 f i umodsys_lib_libui:umodsys.mod.ui.SDL_GL.obj
 0001:0000a2e0       ?suicide@RGenerator@SDL_core@ui@modules@UModSys@@UEAAXXZ 000000018000b2e0 f i umodsys_lib_libui:umodsys.mod.ui.SDL_core.obj
 0001:0000a2e0       ??3@YAXPEAX0@Z             000000018000b2e0 f i plugin_test1.obj
 0001:0000a2e0       ?suicide@RGenerator@serialize_json@media@modules@UModSys@@UEAAXXZ 000000018000b2e0 f i umodsys_lib_libmedia:umodsys.mod.media.serialize_json.obj
 0001:0000a2e0       ?suicide@RGenerator@frames@ui@modules@UModSys@@UEAAXXZ 000000018000b2e0 f i umodsys_lib_libui:umodsys.mod.ui.frames.obj
 0001:0000a2e0       ?suicide@RGenerator@stdlib@lib2d@modules@UModSys@@UEAAXXZ 000000018000b2e0 f i umodsys_lib_lib2d:umodsys.mod.2d.stdlib.obj
 0001:0000a2e0       ?suicide@RGenerator@zlib@media@modules@UModSys@@UEAAXXZ 000000018000b2e0 f i umodsys_lib_libmedia:umodsys.mod.media.zlib.obj
 0001:0000a2f0       ?get_uid@RGenerator@zlib@media@modules@UModSys@@UEBAPEBUSUniquePointerInfo@core@5@XZ 000000018000b2f0 f i umodsys_lib_libmedia:umodsys.mod.media.zlib.obj
 0001:0000a300       ?do_open@RModuleReg@zlib@media@modules@UModSys@@UEAA_NXZ 000000018000b300 f i umodsys_lib_libmedia:umodsys.mod.media.zlib.obj
 0001:0000a310       ?do_close@RModuleReg@zlib@media@modules@UModSys@@UEAA_NXZ 000000018000b310 f i umodsys_lib_libmedia:umodsys.mod.media.zlib.obj
 0001:0000a320       ??_GRModuleReg@zlib@media@modules@UModSys@@UEAAPEAXI@Z 000000018000b320 f i umodsys_lib_libmedia:umodsys.mod.media.zlib.obj
 0001:0000a320       ??_ERModuleReg@zlib@media@modules@UModSys@@UEAAPEAXI@Z 000000018000b320 f i  CIL library: CIL module
 0001:0000a350       ??$t_gen_param@URBinArchiveFrameClient_ZIP@zlib@media@modules@UModSys@@URGenerator@2345@@IGenerator@base@UModSys@@IEAA_NPEAURGenerator@zlib@media@modules@2@AEAU?$TRefObject@UIRefObject@core@UModSys@@U?$TRefObjectFunc@UIRefObject@core@UModSys@@@tl@3@@tl@2@PEBUSUniquePointerInfo@core@2@AEBUSParameters@core@2@@Z 000000018000b350 f i umodsys_lib_libmedia:umodsys.mod.media.zlib.obj
 0001:0000a410       ??$ValidateConstruction@UIRefObject@core@UModSys@@URBinArchiveFrameClient_ZIP@zlib@media@modules@3@@core@UModSys@@YA_NAEAU?$TRefObject@UIRefObject@core@UModSys@@U?$TRefObjectFunc@UIRefObject@core@UModSys@@@tl@3@@tl@1@PEAURBinArchiveFrameClient_ZIP@zlib@media@modules@1@@Z 000000018000b410 f i umodsys_lib_libmedia:umodsys.mod.media.zlib.obj
 0001:0000a490       ??_ERModuleLibraryReg_Chain@base@UModSys@@UEAAPEAXI@Z 000000018000b490 f i  CIL library: CIL module
 0001:0000a490       ??_GRModuleLibraryReg_Chain@base@UModSys@@UEAAPEAXI@Z 000000018000b490 f i umodsys_lib_base:umodsys.base.moduleregchain.obj
 0001:0000a4c0       ??_GIModuleReg@base@UModSys@@UEAAPEAXI@Z 000000018000b4c0 f i umodsys_lib_base:umodsys.base.modulereg.obj
 0001:0000a4c0       ??_EIModuleReg@base@UModSys@@UEAAPEAXI@Z 000000018000b4c0 f i  CIL library: CIL module
 0001:0000a4f0       ??_GIModuleLibraryReg@base@UModSys@@UEAAPEAXI@Z 000000018000b4f0 f i umodsys_lib_base:umodsys.base.modulereg.obj
 0001:0000a4f0       ??_EIModuleLibraryReg@base@UModSys@@UEAAPEAXI@Z 000000018000b4f0 f i  CIL library: CIL module
 0001:0000a520       ?Find@?$TSet@U?$TArray@PEBUSUniquePointerInfo@core@UModSys@@@tl@UModSys@@U?$TScalarCompare@PEBUSUniquePointerInfo@core@UModSys@@@core@3@@tl@UModSys@@QEBAPEBQEBUSUniquePointerInfo@core@3@AEBQEBU453@@Z 000000018000b520 f i umodsys_lib_core:umodsys.core.uniqueptrlist.obj
 0001:0000a5bc       _onexit                    000000018000b5bc f   MSVCRT:atonexit.obj
 0001:0000a66c       atexit                     000000018000b66c f   MSVCRT:atonexit.obj
 0001:0000a684       _purecall                  000000018000b684 f   MSVCRT:MSVCR90.dll
 0001:0000a68a       ??3@YAXPEAX@Z              000000018000b68a f   MSVCRT:MSVCR90.dll
 0001:0000a690       ??_Etype_info@@UEAAPEAXI@Z 000000018000b690 f i MSVCRT:ti_inst.obj
 0001:0000a75c       _CRT_INIT                  000000018000b75c f   MSVCRT:crtdll.obj
 0001:0000aaf0       _DllMainCRTStartup         000000018000baf0 f   MSVCRT:crtdll.obj
 0001:0000ab2e       ??2@YAPEAX_K@Z             000000018000bb2e f   MSVCRT:MSVCR90.dll
 0001:0000ab34       __C_specific_handler       000000018000bb34 f   MSVCRT:MSVCR90.dll
 0001:0000ab3a       _unlock                    000000018000bb3a f   MSVCRT:MSVCR90.dll
 0001:0000ab40       __dllonexit                000000018000bb40 f   MSVCRT:MSVCR90.dll
 0001:0000ab46       _lock                      000000018000bb46 f   MSVCRT:MSVCR90.dll
 0001:0000ab4c       ?__ArrayUnwind@@YAXPEAX_KHP6AX0@Z@Z 000000018000bb4c f   MSVCRT:ehvecdtr.obj
 0001:0000ab98       ??_M@YAXPEAX_KHP6AX0@Z@Z   000000018000bb98 f   MSVCRT:ehvecdtr.obj
 0001:0000abf8       __clean_type_info_names    000000018000bbf8 f   MSVCRT:tncleanup.obj
 0001:0000ac04       _RTC_Initialize            000000018000bc04 f   MSVCRT:_initsect_.obj
 0001:0000ac3c       _RTC_Terminate             000000018000bc3c f   MSVCRT:_initsect_.obj
 0001:0000ac80       _ValidateImageBase         000000018000bc80 f   MSVCRT:pesect.obj
 0001:0000acb0       _FindPESection             000000018000bcb0 f   MSVCRT:pesect.obj
 0001:0000ad00       _IsNonwritableInCurrentImage 000000018000bd00 f   MSVCRT:pesect.obj
 0001:0000ad42       _initterm                  000000018000bd42 f   MSVCRT:MSVCR90.dll
 0001:0000ad48       _initterm_e                000000018000bd48 f   MSVCRT:MSVCR90.dll
 0001:0000ad4e       _amsg_exit                 000000018000bd4e f   MSVCRT:MSVCR90.dll
 0001:0000ad54       __CppXcptFilter            000000018000bd54 f   MSVCRT:MSVCR90.dll
 0001:0000ad5c       DllMain                    000000018000bd5c f   MSVCRT:dllmain.obj
 0001:0000ad80       __security_init_cookie     000000018000bd80 f   MSVCRT:gs_support.obj
 0001:0000ae34       ?terminate@@YAXXZ          000000018000be34 f   MSVCRT:MSVCR90.dll
 0001:0000ae3a       ?_type_info_dtor_internal_method@type_info@@QEAAXXZ 000000018000be3a f   MSVCRT:MSVCR90.dll
 0001:0000ae3a       ??1type_info@@UEAA@XZ      000000018000be3a f   MSVCRT:MSVCR90.dll
 0001:0000ae40       __clean_type_info_names_internal 000000018000be40 f   MSVCRT:MSVCR90.dll
 0001:0000ae46       crc32                      000000018000be46 f   lib_zlib:lib_zlib.dll
 0001:0000ae4c       deflateEnd                 000000018000be4c f   lib_zlib:lib_zlib.dll
 0001:0000ae52       inflateInit2_              000000018000be52 f   lib_zlib:lib_zlib.dll
 0001:0000ae58       inflate                    000000018000be58 f   lib_zlib:lib_zlib.dll
 0001:0000ae5e       inflateEnd                 000000018000be5e f   lib_zlib:lib_zlib.dll
 0001:0000ae64       deflate                    000000018000be64 f   lib_zlib:lib_zlib.dll
 0001:0000ae6a       deflateInit2_              000000018000be6a f   lib_zlib:lib_zlib.dll
 0001:0000ae70       png_get_IHDR               000000018000be70 f   lib_libpng:lib_libpng.dll
 0001:0000ae76       png_write_info             000000018000be76 f   lib_libpng:lib_libpng.dll
 0001:0000ae7c       png_destroy_write_struct   000000018000be7c f   lib_libpng:lib_libpng.dll
 0001:0000ae82       png_set_write_fn           000000018000be82 f   lib_libpng:lib_libpng.dll
 0001:0000ae88       png_read_info              000000018000be88 f   lib_libpng:lib_libpng.dll
 0001:0000ae8e       png_sig_cmp                000000018000be8e f   lib_libpng:lib_libpng.dll
 0001:0000ae94       png_write_rows             000000018000be94 f   lib_libpng:lib_libpng.dll
 0001:0000ae9a       png_create_read_struct     000000018000be9a f   lib_libpng:lib_libpng.dll
 0001:0000aea0       png_write_end              000000018000bea0 f   lib_libpng:lib_libpng.dll
 0001:0000aea6       png_get_io_ptr             000000018000bea6 f   lib_libpng:lib_libpng.dll
 0001:0000aeac       png_create_info_struct     000000018000beac f   lib_libpng:lib_libpng.dll
 0001:0000aeb2       png_set_read_fn            000000018000beb2 f   lib_libpng:lib_libpng.dll
 0001:0000aeb8       png_read_update_info       000000018000beb8 f   lib_libpng:lib_libpng.dll
 0001:0000aebe       png_set_sig_bytes          000000018000bebe f   lib_libpng:lib_libpng.dll
 0001:0000aec4       png_set_longjmp_fn         000000018000bec4 f   lib_libpng:lib_libpng.dll
 0001:0000aeca       png_create_write_struct    000000018000beca f   lib_libpng:lib_libpng.dll
 0001:0000aed0       png_read_row               000000018000bed0 f   lib_libpng:lib_libpng.dll
 0001:0000aed6       png_error                  000000018000bed6 f   lib_libpng:lib_libpng.dll
 0001:0000aedc       png_set_IHDR               000000018000bedc f   lib_libpng:lib_libpng.dll
 0001:0000aee2       png_destroy_read_struct    000000018000bee2 f   lib_libpng:lib_libpng.dll
 0001:0000aee8       SDL_StopTextInput          000000018000bee8 f   lib_SDL2:lib_SDL2.dll
 0001:0000aeee       SDL_GL_ExtensionSupported  000000018000beee f   lib_SDL2:lib_SDL2.dll
 0001:0000aef4       SDL_Init                   000000018000bef4 f   lib_SDL2:lib_SDL2.dll
 0001:0000aefa       SDL_DestroyWindow          000000018000befa f   lib_SDL2:lib_SDL2.dll
 0001:0000af00       TTF_GlyphMetrics           000000018000bf00 f   lib_SDL2:lib_SDL2.dll
 0001:0000af06       SDL_GL_DeleteContext       000000018000bf06 f   lib_SDL2:lib_SDL2.dll
 0001:0000af0c       SDL_GL_SwapWindow          000000018000bf0c f   lib_SDL2:lib_SDL2.dll
 0001:0000af12       SDL_CreateWindow           000000018000bf12 f   lib_SDL2:lib_SDL2.dll
 0001:0000af18       SDL_GL_MakeCurrent         000000018000bf18 f   lib_SDL2:lib_SDL2.dll
 0001:0000af1e       SDL_GL_CreateContext       000000018000bf1e f   lib_SDL2:lib_SDL2.dll
 0001:0000af24       TTF_OpenFont               000000018000bf24 f   lib_SDL2:lib_SDL2.dll
 0001:0000af2a       TTF_CloseFont              000000018000bf2a f   lib_SDL2:lib_SDL2.dll
 0001:0000af30       TTF_Init                   000000018000bf30 f   lib_SDL2:lib_SDL2.dll
 0001:0000af36       SDL_PumpEvents             000000018000bf36 f   lib_SDL2:lib_SDL2.dll
 0001:0000af3c       TTF_RenderGlyph_Shaded     000000018000bf3c f   lib_SDL2:lib_SDL2.dll
 0001:0000af42       SDL_Delay                  000000018000bf42 f   lib_SDL2:lib_SDL2.dll
 0001:0000af48       SDL_GL_GetProcAddress      000000018000bf48 f   lib_SDL2:lib_SDL2.dll
 0001:0000af4e       SDL_StartTextInput         000000018000bf4e f   lib_SDL2:lib_SDL2.dll
 0001:0000af54       SDL_PeepEvents             000000018000bf54 f   lib_SDL2:lib_SDL2.dll
 0001:0000af5a       SDL_GetTicks               000000018000bf5a f   lib_SDL2:lib_SDL2.dll
 0001:0000af60       SDL_GL_SetAttribute        000000018000bf60 f   lib_SDL2:lib_SDL2.dll
 0001:0000af66       TTF_Quit                   000000018000bf66 f   lib_SDL2:lib_SDL2.dll
 0001:0000af6c       SDL_Quit                   000000018000bf6c f   lib_SDL2:lib_SDL2.dll
 0001:0000af72       SDL_FreeSurface            000000018000bf72 f   lib_SDL2:lib_SDL2.dll
 0001:0000af78       SDL_RenderDrawLine         000000018000bf78 f   lib_SDL2:lib_SDL2.dll
 0001:0000af7e       SDL_RenderDrawLines        000000018000bf7e f   lib_SDL2:lib_SDL2.dll
 0001:0000af84       SDL_RenderCopy             000000018000bf84 f   lib_SDL2:lib_SDL2.dll
 0001:0000af8a       SDL_DestroyRenderer        000000018000bf8a f   lib_SDL2:lib_SDL2.dll
 0001:0000af90       SDL_DestroyTexture         000000018000bf90 f   lib_SDL2:lib_SDL2.dll
 0001:0000af96       SDL_CreateTextureFromSurface 000000018000bf96 f   lib_SDL2:lib_SDL2.dll
 0001:0000af9c       SDL_RenderPresent          000000018000bf9c f   lib_SDL2:lib_SDL2.dll
 0001:0000afa2       SDL_SetRenderDrawBlendMode 000000018000bfa2 f   lib_SDL2:lib_SDL2.dll
 0001:0000afa8       SDL_SetRenderDrawColor     000000018000bfa8 f   lib_SDL2:lib_SDL2.dll
 0001:0000afae       SDL_RenderClear            000000018000bfae f   lib_SDL2:lib_SDL2.dll
 0001:0000afb4       SDL_CreateRenderer         000000018000bfb4 f   lib_SDL2:lib_SDL2.dll
 0001:0000afba       SDL_SetTextureColorMod     000000018000bfba f   lib_SDL2:lib_SDL2.dll
 0001:0000afc0       SDL_RenderFillRect         000000018000bfc0 f   lib_SDL2:lib_SDL2.dll
 0001:0000afc6       SDL_RenderDrawRect         000000018000bfc6 f   lib_SDL2:lib_SDL2.dll
 0001:0000afd0       ?utf_nocase32@su@tl@UModSys@@YAHH@Z 000000018000bfd0 f   umodsys_lib_core:umodsys.tl.utfcase.obj
 0001:0000d4c0       ?utf8_cmp_nocase_bin@su@tl@UModSys@@YAHPEBD0_K1@Z 000000018000e4c0 f   umodsys_lib_core:umodsys.tl.utfcase.obj
 0001:0000d590       ??3IRoot@core@UModSys@@SAXPEAX@Z 000000018000e590 f   umodsys_lib_core:umodsys.core.objects.obj
 0001:0000d5d0       ??3IRoot@core@UModSys@@SAXPEAXPEAUIMemAlloc@12@@Z 000000018000e5d0 f   umodsys_lib_core:umodsys.core.objects.obj
 0001:0000d610       ??2IRoot@core@UModSys@@SAPEAX_KPEAUIMemAlloc@12@@Z 000000018000e610 f   umodsys_lib_core:umodsys.core.objects.obj
 0001:0000d650       ?suicide@IRoot@core@UModSys@@UEAAXXZ 000000018000e650 f   umodsys_lib_core:umodsys.core.objects.obj
 0001:0000d670       ??1IRoot@core@UModSys@@UEAA@XZ 000000018000e670 f   umodsys_lib_core:umodsys.core.objects.obj
 0001:0000d690       ??1IRefObject@core@UModSys@@UEAA@XZ 000000018000e690 f   umodsys_lib_core:umodsys.core.objects.obj
 0001:0000d6a0       ?lost@core@UModSys@@YAEPEBX@Z 000000018000e6a0 f   umodsys_lib_core:umodsys.core.stdtypedefs.obj
 0001:0000d6b0       ?s_unresolve@SUniquePointer@core@UModSys@@SAXPEAUIUniquePointerResolver@23@@Z 000000018000e6b0 f   umodsys_lib_core:umodsys.core.uniqueptr.obj
 0001:0000d720       ?s_resolve@SUniquePointer@core@UModSys@@SAXPEAUIUniquePointerResolver@23@@Z 000000018000e720 f   umodsys_lib_core:umodsys.core.uniqueptr.obj
 0001:0000d7a0       ??1SUniquePointer@core@UModSys@@QEAA@XZ 000000018000e7a0 f   umodsys_lib_core:umodsys.core.uniqueptr.obj
 0001:0000d7d0       ??0SUniquePointer@core@UModSys@@QEAA@H@Z 000000018000e7d0 f   umodsys_lib_core:umodsys.core.uniqueptr.obj
 0001:0000d800       ??0SUniquePointer@core@UModSys@@QEAA@PEBD0H@Z 000000018000e800 f   umodsys_lib_core:umodsys.core.uniqueptr.obj
 0001:0000d850       ?utf_8to32@su@tl@UModSys@@YA_NAEAHAEAPEBDAEA_K@Z 000000018000e850 f   umodsys_lib_core:umodsys.tl.utf8.obj
 0001:0000d990       ?utf_32to8@su@tl@UModSys@@YA_KPEAD_KH@Z 000000018000e990 f   umodsys_lib_core:umodsys.tl.utf8.obj
 0001:0000daa0       ?utf_8to32_len@su@tl@UModSys@@YA_KPEBD_K@Z 000000018000eaa0 f   umodsys_lib_core:umodsys.tl.utf8.obj
 0001:0000db00       ?utf_8to32@su@tl@UModSys@@YA_KPEAH_KPEBD1_N@Z 000000018000eb00 f   umodsys_lib_core:umodsys.tl.utf8.obj
 0001:0000db80       ?utf_32to8_len@su@tl@UModSys@@YA_KPEBH_K@Z 000000018000eb80 f   umodsys_lib_core:umodsys.tl.utf8.obj
 0001:0000dc10       ?utf_32to8@su@tl@UModSys@@YA_KPEAD_KPEBH1_N@Z 000000018000ec10 f   umodsys_lib_core:umodsys.tl.utf8.obj
 0001:0000dc80       ??1SModuleInfo@base@UModSys@@QEAA@XZ 000000018000ec80 f   umodsys_lib_base:umodsys.base.moduleinfo.obj
 0001:0000dc90       ??0SModuleInfo@base@UModSys@@QEAA@PEBDGG0K_J@Z 000000018000ec90 f   umodsys_lib_base:umodsys.base.moduleinfo.obj
 0001:0000dd70       ??1IModuleLibraryReg@base@UModSys@@UEAA@XZ 000000018000ed70 f   umodsys_lib_base:umodsys.base.modulereg.obj
 0001:0000dd90       ??0IModuleLibraryReg@base@UModSys@@QEAA@XZ 000000018000ed90 f   umodsys_lib_base:umodsys.base.modulereg.obj
 0001:0000ddb0       ?mr_close@IModuleReg@base@UModSys@@UEAA_NXZ 000000018000edb0 f   umodsys_lib_base:umodsys.base.modulereg.obj
 0001:0000de10       ?mr_isopen@IModuleReg@base@UModSys@@UEBA_NXZ 000000018000ee10 f   umodsys_lib_base:umodsys.base.modulereg.obj
 0001:0000de20       ?mr_getdebug@IModuleReg@base@UModSys@@UEBAPEAUSDebug@23@XZ 000000018000ee20 f   umodsys_lib_base:umodsys.base.modulereg.obj
 0001:0000de30       ??1IModuleReg@base@UModSys@@UEAA@XZ 000000018000ee30 f   umodsys_lib_base:umodsys.base.modulereg.obj
 0001:0000de50       ?mr_open@IModuleReg@base@UModSys@@UEAA_NXZ 000000018000ee50 f   umodsys_lib_base:umodsys.base.modulereg.obj
 0001:0000ded0       ??0IModuleReg@base@UModSys@@QEAA@PEBDGG0K_JPEAUSDebug@12@@Z 000000018000eed0 f   umodsys_lib_base:umodsys.base.modulereg.obj
 0001:0000df30       UModSys_Plugin_Entry2      000000018000ef30 f   umodsys_lib_base:umodsys.so_main.win32.obj
 0001:0000df40       ??1RModuleLibraryReg_Chain@base@UModSys@@UEAA@XZ 000000018000ef40 f   umodsys_lib_base:umodsys.base.moduleregchain.obj
 0001:0000df60       ??0RModuleLibraryReg_Chain@base@UModSys@@QEAA@XZ 000000018000ef60 f   umodsys_lib_base:umodsys.base.moduleregchain.obj
 0001:0000df90       ?s_get@SModuleRegChain@base@UModSys@@SAPEAUIModuleReg@23@_K@Z 000000018000ef90 f   umodsys_lib_base:umodsys.base.moduleregchain.obj
 0001:0000dfd0       ??1SModuleRegChain@base@UModSys@@QEAA@XZ 000000018000efd0 f   umodsys_lib_base:umodsys.base.moduleregchain.obj
 0001:0000e000       ??0SModuleRegChain@base@UModSys@@QEAA@AEAUIModuleReg@12@@Z 000000018000f000 f   umodsys_lib_base:umodsys.base.moduleregchain.obj
 0001:0000e050       ?mlr_isopen@RModuleLibraryReg_Chain@base@UModSys@@UEBA_NXZ 000000018000f050 f   umodsys_lib_base:umodsys.base.moduleregchain.obj
 0001:0000e070       ?mlr_close@RModuleLibraryReg_Chain@base@UModSys@@UEAA_NXZ 000000018000f070 f   umodsys_lib_base:umodsys.base.moduleregchain.obj
 0001:0000e0b0       ?mlr_open@RModuleLibraryReg_Chain@base@UModSys@@UEAA_NPEAUISystem@23@PEAUIMemAlloc@core@3@@Z 000000018000f0b0 f   umodsys_lib_base:umodsys.base.moduleregchain.obj
 0001:0000e0f0       ?mlr_get@RModuleLibraryReg_Chain@base@UModSys@@UEBAPEAUIModuleReg@23@_K@Z 000000018000f0f0 f   umodsys_lib_base:umodsys.base.moduleregchain.obj
 0001:0000e100       ?mlr_count@RModuleLibraryReg_Chain@base@UModSys@@UEBA_KXZ 000000018000f100 f   umodsys_lib_base:umodsys.base.moduleregchain.obj
 0001:0000e140       ??0SModuleRegChain@base@UModSys@@QEAA@H@Z 000000018000f140 f   umodsys_lib_base:umodsys.base.moduleregchain.obj
 0001:0000e160       ?put@SDebug@base@UModSys@@QEBA_NEW4eConsoleLevels@23@PEBDZZ 000000018000f160 f   umodsys_lib_base:umodsys.base.debug.obj
 0001:0000e1b0       ??1SDebug@base@UModSys@@QEAA@XZ 000000018000f1b0 f   umodsys_lib_base:umodsys.base.debug.obj
 0001:0000e1e0       ??0SDebug@base@UModSys@@QEAA@PEAUIConsole@12@I@Z 000000018000f1e0 f   umodsys_lib_base:umodsys.base.debug.obj
 0001:0000e200       ?unlink@SMemorySharedData@core@UModSys@@QEAAXPEBUSSourceContext@23@@Z 000000018000f200 f   umodsys_lib_base:umodsys.base.modulecontext.obj
 0001:0000e230       ?link@SMemorySharedData@core@UModSys@@QEAAXPEBUSSourceContext@23@@Z 000000018000f230 f   umodsys_lib_base:umodsys.base.modulecontext.obj
 0001:0000e240       ?Link@SModuleContext@base@UModSys@@QEAAXPEAUISystem@23@PEAUIMemAlloc@core@3@@Z 000000018000f240 f   umodsys_lib_base:umodsys.base.modulecontext.obj
 0001:0000e2e0       ??1SModuleContext@base@UModSys@@QEAA@XZ 000000018000f2e0 f   umodsys_lib_base:umodsys.base.modulecontext.obj
 0001:0000e2f0       ?new_data@SMemorySharedData@core@UModSys@@SAPEAU123@PEAUIMemAlloc@23@_KPEBUSSourceContext@23@@Z 000000018000f2f0 f   umodsys_lib_base:umodsys.base.modulecontext.obj
 0001:0000e340       ?get_paramworker@SParameters@core@UModSys@@KAPEAUIParameters@23@XZ 000000018000f340 f   umodsys_lib_base:umodsys.base.modulecontext.obj
 0001:0000e360       ?shared_memory@UModSys@@YAAEBUSIMemAlloc@core@1@XZ 000000018000f360 f   umodsys_lib_base:umodsys.base.modulecontext.obj
 0001:0000e370       ?local_memory@UModSys@@YAAEBUSIMemAlloc@core@1@XZ 000000018000f370 f   umodsys_lib_base:umodsys.base.modulecontext.obj
 0001:0000e380       ??0SModuleContext@base@UModSys@@QEAA@XZ 000000018000f380 f   umodsys_lib_base:umodsys.base.modulecontext.obj
 0001:0000e3b0       ?mod_dec@RGenerator@zlib@media@modules@UModSys@@UEBA_NXZ 000000018000f3b0 f   umodsys_lib_libmedia:umodsys.mod.media.zlib.obj
 0001:0000e3d0       ?mod_inc@RGenerator@zlib@media@modules@UModSys@@UEBA_NXZ 000000018000f3d0 f   umodsys_lib_libmedia:umodsys.mod.media.zlib.obj
 0001:0000e3f0       ?get_module@RGenerator@zlib@media@modules@UModSys@@UEBAPEAUIModule@base@5@XZ 000000018000f3f0 f   umodsys_lib_libmedia:umodsys.mod.media.zlib.obj
 0001:0000e400       ?arc_deinit@RBinArchiveFrameClient_ZIP@zlib@media@modules@UModSys@@UEAA_NPEAUIBinArchiveFrame@libmedia@5@@Z 000000018000f400 f   umodsys_lib_libmedia:umodsys.mod.media.zlib.obj
 0001:0000e410       ?s_holder@RGenerator@zlib@media@modules@UModSys@@SAAEAU?$TTypeStaticHolder@URGenerator@zlib@media@modules@UModSys@@@tl@5@XZ 000000018000f410 f   umodsys_lib_libmedia:umodsys.mod.media.zlib.obj
 0001:0000e460       ?filew_writedir_start@RBinArchiveFrameClient_ZIP@zlib@media@modules@UModSys@@UEAA_NPEAUIBinArchiveFrame@libmedia@5@@Z 000000018000f460 f   umodsys_lib_libmedia:umodsys.mod.media.zlib.obj
 0001:0000e490       ?filew_init@RBinArchiveFrameClient_ZIP@zlib@media@modules@UModSys@@UEAA_NPEAUIBinArchiveFrame@libmedia@5@PEBUSParameters@core@5@@Z 000000018000f490 f   umodsys_lib_libmedia:umodsys.mod.media.zlib.obj
 0001:0000e4b0       ?arc_init@RBinArchiveFrameClient_ZIP@zlib@media@modules@UModSys@@UEAA_NPEAUIBinArchiveFrame@libmedia@5@PEBUSParameters@core@5@@Z 000000018000f4b0 f   umodsys_lib_libmedia:umodsys.mod.media.zlib.obj
 0001:0000e540       ?node_info@RBinArchiveFrameClient_ZIP@zlib@media@modules@UModSys@@UEAA_NPEAUIBinArchiveFrame@libmedia@5@AEAUSFileInfo@75@PEAUNameNode@675@@Z 000000018000f540 f   umodsys_lib_libmedia:umodsys.mod.media.zlib.obj
 0001:0000e560       ?data_writer@RBinArchiveFrameClient_ZIP@zlib@media@modules@UModSys@@UEAA?AU?$TRefObject@UIStreamWriter@libmedia@UModSys@@U?$TRefObjectFunc@UIStreamWriter@libmedia@UModSys@@@tl@3@@tl@5@PEAUIBinArchiveFrame@libmedia@5@AEBU?$TString@U?$TSCoreConst@D@su@tl@UModSys@@U?$TComparerBinaryHash@D@234@@75@AEBUSFlags@95@@Z 000000018000f560 f   umodsys_lib_libmedia:umodsys.mod.media.zlib.obj
 0001:0000e580       ?s_unreg@RGenerator@zlib@media@modules@UModSys@@SA_NPEAUIModuleReg@base@5@@Z 000000018000f580 f   umodsys_lib_libmedia:umodsys.mod.media.zlib.obj
 0001:0000e5f0       ?s_reg@RGenerator@zlib@media@modules@UModSys@@SA_NPEAUIModuleReg@base@5@@Z 000000018000f5f0 f   umodsys_lib_libmedia:umodsys.mod.media.zlib.obj
 0001:0000e670       ?filew_writedir_end@RBinArchiveFrameClient_ZIP@zlib@media@modules@UModSys@@UEAA_NPEAUIBinArchiveFrame@libmedia@5@@Z 000000018000f670 f   umodsys_lib_libmedia:umodsys.mod.media.zlib.obj
 0001:0000e720       ?filew_copy_data@RBinArchiveFrameClient_ZIP@zlib@media@modules@UModSys@@UEAA_NPEAUIBinArchiveFrame@libmedia@5@PEAUNameNode@675@@Z 000000018000f720 f   umodsys_lib_libmedia:umodsys.mod.media.zlib.obj
 0001:0000e880       ?data_reader@RBinArchiveFrameClient_ZIP@zlib@media@modules@UModSys@@UEAA?AU?$TRefObject@UIStreamReader@libmedia@UModSys@@U?$TRefObjectFunc@UIStreamReader@libmedia@UModSys@@@tl@3@@tl@5@PEAUIBinArchiveFrame@libmedia@5@PEAUNameNode@895@AEBUSFlags@95@@Z 000000018000f880 f   umodsys_lib_libmedia:umodsys.mod.media.zlib.obj
 0001:0000eb10       ?data_save@RBinArchiveFrameClient_ZIP@zlib@media@modules@UModSys@@UEAA_NPEAUIBinArchiveFrame@libmedia@5@AEBUSCMem@core@5@AEBU?$TString@U?$TSCoreConst@D@su@tl@UModSys@@U?$TComparerBinaryHash@D@234@@tl@5@AEBUSFlags@75@@Z 000000018000fb10 f   umodsys_lib_libmedia:umodsys.mod.media.zlib.obj
 0001:0000f0d0       ?data_load@RBinArchiveFrameClient_ZIP@zlib@media@modules@UModSys@@UEAA_NPEAUIBinArchiveFrame@libmedia@5@AEAUSCMemShared@core@5@PEAUNameNode@675@AEBUSFlags@75@@Z 00000001800100d0 f   umodsys_lib_libmedia:umodsys.mod.media.zlib.obj
 0001:0000f730       ?filew_writedir_entry@RBinArchiveFrameClient_ZIP@zlib@media@modules@UModSys@@UEAA_NPEAUIBinArchiveFrame@libmedia@5@PEAUNameNode@675@@Z 0000000180010730 f   umodsys_lib_libmedia:umodsys.mod.media.zlib.obj
 0001:0000f8f0       ?filer_scan@RBinArchiveFrameClient_ZIP@zlib@media@modules@UModSys@@UEAA_NPEAUIBinArchiveFrame@libmedia@5@AEAUSMem@core@5@PEBUSParameters@95@@Z 00000001800108f0 f   umodsys_lib_libmedia:umodsys.mod.media.zlib.obj
 0001:0000fbc0       ?filer_pre_scan@RBinArchiveFrameClient_ZIP@zlib@media@modules@UModSys@@UEAA_NPEAUIBinArchiveFrame@libmedia@5@AEA_KPEBUSParameters@core@5@@Z 0000000180010bc0 f   umodsys_lib_libmedia:umodsys.mod.media.zlib.obj
 0001:0000fe90       ?mod_dec@RGenerator@serialize_json@media@modules@UModSys@@UEBA_NXZ 0000000180010e90 f   umodsys_lib_libmedia:umodsys.mod.media.serialize_json.obj
 0001:0000feb0       ?mod_inc@RGenerator@serialize_json@media@modules@UModSys@@UEBA_NXZ 0000000180010eb0 f   umodsys_lib_libmedia:umodsys.mod.media.serialize_json.obj
 0001:0000fed0       ?get_module@RGenerator@serialize_json@media@modules@UModSys@@UEBAPEAUIModule@base@5@XZ 0000000180010ed0 f   umodsys_lib_libmedia:umodsys.mod.media.serialize_json.obj
 0001:0000fee0       ?s_holder@RGenerator@serialize_json@media@modules@UModSys@@SAAEAU?$TTypeStaticHolder@URGenerator@serialize_json@media@modules@UModSys@@@tl@5@XZ 0000000180010ee0 f   umodsys_lib_libmedia:umodsys.mod.media.serialize_json.obj
 0001:0000ff30       ?s_unreg@RGenerator@serialize_json@media@modules@UModSys@@SA_NPEAUIModuleReg@base@5@@Z 0000000180010f30 f   umodsys_lib_libmedia:umodsys.mod.media.serialize_json.obj
 0001:0000ffa0       ?s_reg@RGenerator@serialize_json@media@modules@UModSys@@SA_NPEAUIModuleReg@base@5@@Z 0000000180010fa0 f   umodsys_lib_libmedia:umodsys.mod.media.serialize_json.obj
 0001:00010010       ?mod_dec@RGenerator@images_std@media@modules@UModSys@@UEBA_NXZ 0000000180011010 f   umodsys_lib_libmedia:umodsys.mod.media.images_std.obj
 0001:00010030       ?mod_inc@RGenerator@images_std@media@modules@UModSys@@UEBA_NXZ 0000000180011030 f   umodsys_lib_libmedia:umodsys.mod.media.images_std.obj
 0001:00010050       ?get_module@RGenerator@images_std@media@modules@UModSys@@UEBAPEAUIModule@base@5@XZ 0000000180011050 f   umodsys_lib_libmedia:umodsys.mod.media.images_std.obj
 0001:00010060       ?png_err@RMediaFilter@images_std@media@modules@UModSys@@KAXPEAUpng_struct_def@@PEBD@Z 0000000180011060 f   umodsys_lib_libmedia:umodsys.mod.media.images_std.obj
 0001:000100a0       ?saver_jpeg@RMediaFilter@images_std@media@modules@UModSys@@QEAA_NPEBUIImage@lib2d@5@AEAUSInfo@IBinObjFilter@libmedia@5@AEBUSParameters@core@5@PEBD_N@Z 00000001800110a0 f   umodsys_lib_libmedia:umodsys.mod.media.images_std.obj
 0001:00010140       ?filter_load@RMediaFilter@images_std@media@modules@UModSys@@UEAA_NAEBUSInfo@IBinObjFilter@libmedia@5@AEAU?$TRefObject@UIRefObject@core@UModSys@@U?$TRefObjectFunc@UIRefObject@core@UModSys@@@tl@3@@tl@5@@Z 0000000180011140 f   umodsys_lib_libmedia:umodsys.mod.media.images_std.obj
 0001:00010150       ?s_holder@RGenerator@images_std@media@modules@UModSys@@SAAEAU?$TTypeStaticHolder@URGenerator@images_std@media@modules@UModSys@@@tl@5@XZ 0000000180011150 f   umodsys_lib_libmedia:umodsys.mod.media.images_std.obj
 0001:000101a0       ?png_write@RMediaFilter@images_std@media@modules@UModSys@@KAXPEAUpng_struct_def@@PEAE_K@Z 00000001800111a0 f   umodsys_lib_libmedia:umodsys.mod.media.images_std.obj
 0001:00010210       ?png_read@RMediaFilter@images_std@media@modules@UModSys@@KAXPEAUpng_struct_def@@PEAE_K@Z 0000000180011210 f   umodsys_lib_libmedia:umodsys.mod.media.images_std.obj
 0001:00010280       ?s_unreg@RGenerator@images_std@media@modules@UModSys@@SA_NPEAUIModuleReg@base@5@@Z 0000000180011280 f   umodsys_lib_libmedia:umodsys.mod.media.images_std.obj
 0001:000102f0       ?s_reg@RGenerator@images_std@media@modules@UModSys@@SA_NPEAUIModuleReg@base@5@@Z 00000001800112f0 f   umodsys_lib_libmedia:umodsys.mod.media.images_std.obj
 0001:00010370       ?saver_png@RMediaFilter@images_std@media@modules@UModSys@@QEAA_NPEBUIImage@lib2d@5@AEAUSInfo@IBinObjFilter@libmedia@5@AEBUSParameters@core@5@PEBD_N@Z 0000000180011370 f   umodsys_lib_libmedia:umodsys.mod.media.images_std.obj
 0001:000107d0       ?loader_png@RMediaFilter@images_std@media@modules@UModSys@@QEAA_NPEAUIImage@lib2d@5@AEBUSInfo@IBinObjFilter@libmedia@5@AEBUSParameters@core@5@HPEBD_N@Z 00000001800117d0 f   umodsys_lib_libmedia:umodsys.mod.media.images_std.obj
 0001:00010c20       ?loader_jpeg@RMediaFilter@images_std@media@modules@UModSys@@QEAA_NPEAUIImage@lib2d@5@AEBUSInfo@IBinObjFilter@libmedia@5@AEBUSParameters@core@5@HPEBD_N@Z 0000000180011c20 f   umodsys_lib_libmedia:umodsys.mod.media.images_std.obj
 0001:00010fa0       ?filter_save@RMediaFilter@images_std@media@modules@UModSys@@UEAA_NAEAUSInfo@IBinObjFilter@libmedia@5@PEBUIRefObject@core@5@@Z 0000000180011fa0 f   umodsys_lib_libmedia:umodsys.mod.media.images_std.obj
 0001:00011270       ?filter_load@RMediaFilter@images_std@media@modules@UModSys@@UEAA_NAEBUSInfo@IBinObjFilter@libmedia@5@PEAUIRefObject@core@5@@Z 0000000180012270 f   umodsys_lib_libmedia:umodsys.mod.media.images_std.obj
 0001:000115f0       ?mod_dec@RGenerator@frames@ui@modules@UModSys@@UEBA_NXZ 00000001800125f0 f   umodsys_lib_libui:umodsys.mod.ui.frames.obj
 0001:00011610       ?mod_inc@RGenerator@frames@ui@modules@UModSys@@UEBA_NXZ 0000000180012610 f   umodsys_lib_libui:umodsys.mod.ui.frames.obj
 0001:00011630       ?get_module@RGenerator@frames@ui@modules@UModSys@@UEBAPEAUIModule@base@5@XZ 0000000180012630 f   umodsys_lib_libui:umodsys.mod.ui.frames.obj
 0001:00011640       ??1SButton@frames@ui@modules@UModSys@@QEAA@XZ 0000000180012640 f   umodsys_lib_libui:umodsys.mod.ui.frames.obj
 0001:00011650       ?close@RDialog@frames@ui@modules@UModSys@@UEAA_NXZ 0000000180012650 f   umodsys_lib_libui:umodsys.mod.ui.frames.obj
 0001:00011690       ?cont_next@RFrame_Common@frames@ui@modules@UModSys@@IEAAPEAU12345@PEAU12345@@Z 0000000180012690 f   umodsys_lib_libui:umodsys.mod.ui.frames.obj
 0001:00011750       ?cont_prev@RFrame_Common@frames@ui@modules@UModSys@@IEAAPEAU12345@PEAU12345@@Z 0000000180012750 f   umodsys_lib_libui:umodsys.mod.ui.frames.obj
 0001:00011810       ?get_collector@RFrame_Common@frames@ui@modules@UModSys@@UEAAPEAUICollector@libui@5@XZ 0000000180012810 f   umodsys_lib_libui:umodsys.mod.ui.frames.obj
 0001:00011820       ?dialog_get@RCollector@frames@ui@modules@UModSys@@UEAAPEAUIDialog@libui@5@XZ 0000000180012820 f   umodsys_lib_libui:umodsys.mod.ui.frames.obj
 0001:00011850       ?cont_last@RCollector@frames@ui@modules@UModSys@@IEAAPEAURFrame_Common@2345@PEAU62345@@Z 0000000180012850 f   umodsys_lib_libui:umodsys.mod.ui.frames.obj
 0001:000118a0       ?cont_first@RCollector@frames@ui@modules@UModSys@@IEAAPEAURFrame_Common@2345@PEAU62345@@Z 00000001800128a0 f   umodsys_lib_libui:umodsys.mod.ui.frames.obj
 0001:000118d0       ?set_focused@RCollector@frames@ui@modules@UModSys@@IEAA_NPEAUIFrame@libui@5@@Z 00000001800128d0 f   umodsys_lib_libui:umodsys.mod.ui.frames.obj
 0001:00011960       ?update_size@RCollector@frames@ui@modules@UModSys@@IEAA_NAEBU?$TBoundBox2@H@math3d@5@AEBU?$TDynarrayDynamic@U?$TRefObject@URFrame_Common@frames@ui@modules@UModSys@@U?$TRefObjectFunc@URFrame_Common@frames@ui@modules@UModSys@@@tl@5@@tl@UModSys@@U?$TAllocator@USIMemAlloc@core@UModSys@@USCountCalcPower2@23@@23@@tl@5@_N@Z 0000000180012960 f   umodsys_lib_libui:umodsys.mod.ui.frames.obj
 0001:00011a20       ?evmouse@RCollector@frames@ui@modules@UModSys@@IEAA_NAEBU?$TDynarrayDynamic@U?$TRefObject@URFrame_Common@frames@ui@modules@UModSys@@U?$TRefObjectFunc@URFrame_Common@frames@ui@modules@UModSys@@@tl@5@@tl@UModSys@@U?$TAllocator@USIMemAlloc@core@UModSys@@USCountCalcPower2@23@@23@@tl@5@@Z 0000000180012a20 f   umodsys_lib_libui:umodsys.mod.ui.frames.obj
 0001:00011ad0       ?output_attach_3d@RCollector@frames@ui@modules@UModSys@@UEAA_NPEAUIRenderDriver@lib3d@5@H@Z 0000000180012ad0 f   umodsys_lib_libui:umodsys.mod.ui.frames.obj
 0001:00011ae0       ?get_minsize@RCollector@frames@ui@modules@UModSys@@UEAA_NAEAU?$TVector2@H@math3d@5@@Z 0000000180012ae0 f   umodsys_lib_libui:umodsys.mod.ui.frames.obj
 0001:00011af0       ?get_maxbox@RCollector@frames@ui@modules@UModSys@@UEAA_NAEAU?$TBoundBox2@H@math3d@5@@Z 0000000180012af0 f   umodsys_lib_libui:umodsys.mod.ui.frames.obj
 0001:00011b00       ?frame_remove@RCollector@frames@ui@modules@UModSys@@UEAA_NPEAUIFrame@libui@5@@Z 0000000180012b00 f   umodsys_lib_libui:umodsys.mod.ui.frames.obj
 0001:00011b10       ?get_lcount@RFrame_List@frames@ui@modules@UModSys@@UEAAHXZ 0000000180012b10 f   umodsys_lib_libui:umodsys.mod.ui.frames.obj
 0001:00011b30       ?sselect@RFrame_Edit@frames@ui@modules@UModSys@@IEAA_NH@Z 0000000180012b30 f   umodsys_lib_libui:umodsys.mod.ui.frames.obj
 0001:00011b60       ?mouse_event@RFrame_Edit@frames@ui@modules@UModSys@@MEAA_NPEBUSMouseInput@libui@5@@Z 0000000180012b60 f   umodsys_lib_libui:umodsys.mod.ui.frames.obj
 0001:00011be0       ?dpause@RDialog@frames@ui@modules@UModSys@@QEAA_N_N@Z 0000000180012be0 f   umodsys_lib_libui:umodsys.mod.ui.frames.obj
 0001:00011c10       ?dclose@RDialog@frames@ui@modules@UModSys@@QEAA_NXZ 0000000180012c10 f   umodsys_lib_libui:umodsys.mod.ui.frames.obj
 0001:00011c50       ?set_focused@RDialog@frames@ui@modules@UModSys@@UEAA_NPEAUIFrame@libui@5@@Z 0000000180012c50 f   umodsys_lib_libui:umodsys.mod.ui.frames.obj
 0001:00011cd0       ?get_focused@RDialog@frames@ui@modules@UModSys@@UEAAPEAUIFrame@libui@5@XZ 0000000180012cd0 f   umodsys_lib_libui:umodsys.mod.ui.frames.obj
 0001:00011ce0       ?get_root@RDialog@frames@ui@modules@UModSys@@UEAAPEAUIFrame@libui@5@XZ 0000000180012ce0 f   umodsys_lib_libui:umodsys.mod.ui.frames.obj
 0001:00011cf0       ?is_enabled@RFrame_Common@frames@ui@modules@UModSys@@MEAA_NXZ 0000000180012cf0 f   umodsys_lib_libui:umodsys.mod.ui.frames.obj
 0001:00011d40       ?draw@RFrame_Common@frames@ui@modules@UModSys@@MEAA_NAEBUSDrawState@2345@@Z 0000000180012d40 f   umodsys_lib_libui:umodsys.mod.ui.frames.obj
 0001:00011de0       ?find_context@RFrame_Common@frames@ui@modules@UModSys@@UEAAPEAUIFrame@libui@5@HPEAUIController@75@@Z 0000000180012de0 f   umodsys_lib_libui:umodsys.mod.ui.frames.obj
 0001:00011e90       ?get_sub@RFrame_Common@frames@ui@modules@UModSys@@UEAAPEAUIFrame@libui@5@PEAU675@H@Z 0000000180012e90 f   umodsys_lib_libui:umodsys.mod.ui.frames.obj
 0001:00011ea0       ?get_parent@RFrame_Common@frames@ui@modules@UModSys@@UEAAPEAUIFrame@libui@5@XZ 0000000180012ea0 f   umodsys_lib_libui:umodsys.mod.ui.frames.obj
 0001:00011eb0       ?set_repeater@RFrame_Common@frames@ui@modules@UModSys@@UEAA_NHH@Z 0000000180012eb0 f   umodsys_lib_libui:umodsys.mod.ui.frames.obj
 0001:00011ec0       ?get_flag@RFrame_Common@frames@ui@modules@UModSys@@UEAA_NH@Z 0000000180012ec0 f   umodsys_lib_libui:umodsys.mod.ui.frames.obj
 0001:00011f30       ?set_flag@RFrame_Common@frames@ui@modules@UModSys@@UEAA_NH_N@Z 0000000180012f30 f   umodsys_lib_libui:umodsys.mod.ui.frames.obj
 0001:00012020       ?s_holder@RGenerator@frames@ui@modules@UModSys@@SAAEAU?$TTypeStaticHolder@URGenerator@frames@ui@modules@UModSys@@@tl@5@XZ 0000000180013020 f   umodsys_lib_libui:umodsys.mod.ui.frames.obj
 0001:00012070       ?mouse@SButton@frames@ui@modules@UModSys@@QEAA_NPEBUSMouseInput@libui@5@@Z 0000000180013070 f   umodsys_lib_libui:umodsys.mod.ui.frames.obj
 0001:00012220       ?dialog_close_all@RCollector@frames@ui@modules@UModSys@@UEAA_NXZ 0000000180013220 f   umodsys_lib_libui:umodsys.mod.ui.frames.obj
 0001:000122f0       ?dialog_close@RCollector@frames@ui@modules@UModSys@@UEAA_NXZ 00000001800132f0 f   umodsys_lib_libui:umodsys.mod.ui.frames.obj
 0001:000123e0       ?find_next_focused@RCollector@frames@ui@modules@UModSys@@IEAAPEAURFrame_Common@2345@PEAU62345@0_N@Z 00000001800133e0 f   umodsys_lib_libui:umodsys.mod.ui.frames.obj
 0001:00012600       ?broadcast@RCollector@frames@ui@modules@UModSys@@IEAAHAEBU?$TDynarrayDynamic@U?$TRefObject@URFrame_Common@frames@ui@modules@UModSys@@U?$TRefObjectFunc@URFrame_Common@frames@ui@modules@UModSys@@@tl@5@@tl@UModSys@@U?$TAllocator@USIMemAlloc@core@UModSys@@USCountCalcPower2@23@@23@@tl@5@HAEBUSFrameDataIn@libui@5@H@Z 0000000180013600 f   umodsys_lib_libui:umodsys.mod.ui.frames.obj
 0001:00012700       ?evmouse@RCollector@frames@ui@modules@UModSys@@IEAA_NAEBU?$TBoundBox2@H@math3d@5@AEBU?$TDynarrayDynamic@U?$TRefObject@URFrame_Common@frames@ui@modules@UModSys@@U?$TRefObjectFunc@URFrame_Common@frames@ui@modules@UModSys@@@tl@5@@tl@UModSys@@U?$TAllocator@USIMemAlloc@core@UModSys@@USCountCalcPower2@23@@23@@tl@5@AEBUSMouseInput@libui@5@PEAURFrame_Common@2345@@Z 0000000180013700 f   umodsys_lib_libui:umodsys.mod.ui.frames.obj
 0001:000128e0       ?insert@RCollector@frames@ui@modules@UModSys@@IEAA_NPEAURFrame_Common@2345@0@Z 00000001800138e0 f   umodsys_lib_libui:umodsys.mod.ui.frames.obj
 0001:00012970       ?shutdown@RCollector@frames@ui@modules@UModSys@@UEAA_NXZ 0000000180013970 f   umodsys_lib_libui:umodsys.mod.ui.frames.obj
 0001:00012a40       ?input_attach_k@RCollector@frames@ui@modules@UModSys@@UEAA_NPEAUIKeyboardController@libui@5@H@Z 0000000180013a40 f   umodsys_lib_libui:umodsys.mod.ui.frames.obj
 0001:00012ad0       ?input_attach_m@RCollector@frames@ui@modules@UModSys@@UEAA_NPEAUIMouseController@libui@5@H@Z 0000000180013ad0 f   umodsys_lib_libui:umodsys.mod.ui.frames.obj
 0001:00012b70       ?input_process@RCollector@frames@ui@modules@UModSys@@UEAA_NH@Z 0000000180013b70 f   umodsys_lib_libui:umodsys.mod.ui.frames.obj
 0001:00012ba0       ?output_attach_2d@RCollector@frames@ui@modules@UModSys@@UEAA_NPEAUIRenderDriver@lib2d@5@H@Z 0000000180013ba0 f   umodsys_lib_libui:umodsys.mod.ui.frames.obj
 0001:00012bf0       ?sselect@RFrame_List@frames@ui@modules@UModSys@@IEAA_NH@Z 0000000180013bf0 f   umodsys_lib_libui:umodsys.mod.ui.frames.obj
 0001:00012cc0       ?get_value@RFrame_List@frames@ui@modules@UModSys@@UEAA_NHAEBUSFrameDataOut@libui@5@@Z 0000000180013cc0 f   umodsys_lib_libui:umodsys.mod.ui.frames.obj
 0001:00012cf0       ?set_value@RFrame_List@frames@ui@modules@UModSys@@UEAA_NHAEBUSFrameDataIn@libui@5@@Z 0000000180013cf0 f   umodsys_lib_libui:umodsys.mod.ui.frames.obj
 0001:00012d20       ?mouse_event@RFrame_List@frames@ui@modules@UModSys@@MEAA_NPEBUSMouseInput@libui@5@@Z 0000000180013d20 f   umodsys_lib_libui:umodsys.mod.ui.frames.obj
 0001:00012ec0       ?key_event@RFrame_List@frames@ui@modules@UModSys@@MEAA_NAEBUSKeyboardInputRaw@libui@5@@Z 0000000180013ec0 f   umodsys_lib_libui:umodsys.mod.ui.frames.obj
 0001:00012fd0       ?button_cmd@RFrame_List@frames@ui@modules@UModSys@@MEAA_NPEAUSButton@2345@HH@Z 0000000180013fd0 f   umodsys_lib_libui:umodsys.mod.ui.frames.obj
 0001:000130f0       ?sinsert@RFrame_Edit@frames@ui@modules@UModSys@@IEAA_NHPEBHH@Z 00000001800140f0 f   umodsys_lib_libui:umodsys.mod.ui.frames.obj
 0001:00013240       ?sdelete@RFrame_Edit@frames@ui@modules@UModSys@@IEAA_NHH@Z 0000000180014240 f   umodsys_lib_libui:umodsys.mod.ui.frames.obj
 0001:00013360       ?key_event@RFrame_Edit@frames@ui@modules@UModSys@@MEAA_NAEBUSKeyboardInputRaw@libui@5@@Z 0000000180014360 f   umodsys_lib_libui:umodsys.mod.ui.frames.obj
 0001:00013430       ?mouse_event@RFrame_Button@frames@ui@modules@UModSys@@MEAA_NPEBUSMouseInput@libui@5@@Z 0000000180014430 f   umodsys_lib_libui:umodsys.mod.ui.frames.obj
 0001:00013450       ?key_event@RFrame_Button@frames@ui@modules@UModSys@@MEAA_NAEBUSKeyboardInputRaw@libui@5@@Z 0000000180014450 f   umodsys_lib_libui:umodsys.mod.ui.frames.obj
 0001:00013520       ?button_cmd@RFrame_Button@frames@ui@modules@UModSys@@MEAA_NPEAUSButton@2345@HH@Z 0000000180014520 f   umodsys_lib_libui:umodsys.mod.ui.frames.obj
 0001:000135c0       ??0RDialog@frames@ui@modules@UModSys@@QEAA@PEAURCollector@1234@PEAURFrame_Common@1234@@Z 00000001800145c0 f   umodsys_lib_libui:umodsys.mod.ui.frames.obj
 0001:00013660       ?configure@RFrame_Common@frames@ui@modules@UModSys@@UEAA_NPEBD0AEBUSParameters@core@5@@Z 0000000180014660 f   umodsys_lib_libui:umodsys.mod.ui.frames.obj
 0001:00013720       ??1RCollectorTheme@frames@ui@modules@UModSys@@QEAA@XZ 0000000180014720 f   umodsys_lib_libui:umodsys.mod.ui.frames.obj
 0001:00013740       ??0RCollectorTheme@frames@ui@modules@UModSys@@QEAA@PEAUICollectorThemeTree@libui@4@@Z 0000000180014740 f   umodsys_lib_libui:umodsys.mod.ui.frames.obj
 0001:00013770       ?get_elem_index@RCollectorTheme@frames@ui@modules@UModSys@@UEAAHPEBD@Z 0000000180014770 f   umodsys_lib_libui:umodsys.mod.ui.frames.obj
 0001:00013940       ?get_group_index@RCollectorTheme@frames@ui@modules@UModSys@@UEAAHPEBD@Z 0000000180014940 f   umodsys_lib_libui:umodsys.mod.ui.frames.obj
 0001:00013a50       ?s_unreg@RGenerator@frames@ui@modules@UModSys@@SA_NPEAUIModuleReg@base@5@@Z 0000000180014a50 f   umodsys_lib_libui:umodsys.mod.ui.frames.obj
 0001:00013ac0       ?s_reg@RGenerator@frames@ui@modules@UModSys@@SA_NPEAUIModuleReg@base@5@@Z 0000000180014ac0 f   umodsys_lib_libui:umodsys.mod.ui.frames.obj
 0001:00013b40       ?draw_progress@SButton@frames@ui@modules@UModSys@@QEAA_NAEBUSDrawState@2345@MHHH@Z 0000000180014b40 f   umodsys_lib_libui:umodsys.mod.ui.frames.obj
 0001:00013c30       ?draw_arrow@SButton@frames@ui@modules@UModSys@@QEAA_NAEBUSDrawState@2345@HHH@Z 0000000180014c30 f   umodsys_lib_libui:umodsys.mod.ui.frames.obj
 0001:00013d70       ?draw@SButton@frames@ui@modules@UModSys@@QEAA_NAEBUSDrawState@2345@@Z 0000000180014d70 f   umodsys_lib_libui:umodsys.mod.ui.frames.obj
 0001:00013e60       ??0SButton@frames@ui@modules@UModSys@@QEAA@PEAURFrame_Common@1234@HAEBUSFrameSize@libui@4@@Z 0000000180014e60 f   umodsys_lib_libui:umodsys.mod.ui.frames.obj
 0001:00013ec0       ?dopen@RDialog@frames@ui@modules@UModSys@@QEAA_NXZ 0000000180014ec0 f   umodsys_lib_libui:umodsys.mod.ui.frames.obj
 0001:00013f30       ?set_focus@RFrame_Common@frames@ui@modules@UModSys@@MEAA_N_N@Z 0000000180014f30 f   umodsys_lib_libui:umodsys.mod.ui.frames.obj
 0001:00013fe0       ?dialog_open@RCollector@frames@ui@modules@UModSys@@UEAAPEAUIDialog@libui@5@PEAUIFrame@75@@Z 0000000180014fe0 f   umodsys_lib_libui:umodsys.mod.ui.frames.obj
 0001:00014120       ??1RCollector@frames@ui@modules@UModSys@@UEAA@XZ 0000000180015120 f   umodsys_lib_libui:umodsys.mod.ui.frames.obj
 0001:00014240       ?get_focused@RCollector@frames@ui@modules@UModSys@@IEAAPEAURFrame_Common@2345@XZ 0000000180015240 f   umodsys_lib_libui:umodsys.mod.ui.frames.obj
 0001:00014290       ?update_size@RCollector@frames@ui@modules@UModSys@@IEAA_NXZ 0000000180015290 f   umodsys_lib_libui:umodsys.mod.ui.frames.obj
 0001:000144d0       ?draw@RCollector@frames@ui@modules@UModSys@@IEAA_NAEBUSDrawState@2345@AEBU?$TDynarrayDynamic@U?$TRefObject@URFrame_Common@frames@ui@modules@UModSys@@U?$TRefObjectFunc@URFrame_Common@frames@ui@modules@UModSys@@@tl@5@@tl@UModSys@@U?$TAllocator@USIMemAlloc@core@UModSys@@USCountCalcPower2@23@@23@@tl@5@@Z 00000001800154d0 f   umodsys_lib_libui:umodsys.mod.ui.frames.obj
 0001:000145d0       ?key_text@RCollector@frames@ui@modules@UModSys@@UEAA_NAEBUSKeyboardInputText@libui@5@@Z 00000001800155d0 f   umodsys_lib_libui:umodsys.mod.ui.frames.obj
 0001:00014620       ?mouse_event@RCollector@frames@ui@modules@UModSys@@UEAA_NAEBUSMouseInput@libui@5@@Z 0000000180015620 f   umodsys_lib_libui:umodsys.mod.ui.frames.obj
 0001:000146d0       ?output_process@RCollector@frames@ui@modules@UModSys@@UEAA_NXZ 00000001800156d0 f   umodsys_lib_libui:umodsys.mod.ui.frames.obj
 0001:00014850       ?button_draw@RFrame_List@frames@ui@modules@UModSys@@MEAA_NPEAUSButton@2345@AEBUSDrawState@2345@H@Z 0000000180015850 f   umodsys_lib_libui:umodsys.mod.ui.frames.obj
 0001:00014920       ?key_event@RFrame_Edit@frames@ui@modules@UModSys@@MEAA_NAEBUSKeyboardInputText@libui@5@@Z 0000000180015920 f   umodsys_lib_libui:umodsys.mod.ui.frames.obj
 0001:00014950       ?draw_post@RFrame_Button@frames@ui@modules@UModSys@@MEAA_NAEBUSDrawState@2345@@Z 0000000180015950 f   umodsys_lib_libui:umodsys.mod.ui.frames.obj
 0001:00014970       ?draw_pre@RFrame_Image@frames@ui@modules@UModSys@@MEAA_NAEBUSDrawState@2345@@Z 0000000180015970 f   umodsys_lib_libui:umodsys.mod.ui.frames.obj
 0001:00014ac0       ??1RDialog@frames@ui@modules@UModSys@@UEAA@XZ 0000000180015ac0 f   umodsys_lib_libui:umodsys.mod.ui.frames.obj
 0001:00014b30       ??1RFrame_Common@frames@ui@modules@UModSys@@UEAA@XZ 0000000180015b30 f   umodsys_lib_libui:umodsys.mod.ui.frames.obj
 0001:00014bf0       ?update_size@RFrame_Common@frames@ui@modules@UModSys@@MEAA_NAEBU?$TBoundBox2@H@math3d@5@@Z 0000000180015bf0 f   umodsys_lib_libui:umodsys.mod.ui.frames.obj
 0001:00014c30       ?draw_focus@RFrame_Common@frames@ui@modules@UModSys@@MEAA_NAEBUSDrawState@2345@@Z 0000000180015c30 f   umodsys_lib_libui:umodsys.mod.ui.frames.obj
 0001:00014cd0       ?draw_sub@RFrame_Common@frames@ui@modules@UModSys@@MEAA_NAEBUSDrawState@2345@@Z 0000000180015cd0 f   umodsys_lib_libui:umodsys.mod.ui.frames.obj
 0001:00014cf0       ??0RCollector@frames@ui@modules@UModSys@@QEAA@PEAUIModObject@base@4@AEBUSParameters@core@4@@Z 0000000180015cf0 f   umodsys_lib_libui:umodsys.mod.ui.frames.obj
 0001:000153d0       ?master_key_pressed@RCollector@frames@ui@modules@UModSys@@IEAA_NAEBUSKeyboardInputRaw@libui@5@@Z 00000001800163d0 f   umodsys_lib_libui:umodsys.mod.ui.frames.obj
 0001:000154a0       ?key_pressed@RCollector@frames@ui@modules@UModSys@@UEAA_NAEBUSKeyboardInputRaw@libui@5@@Z 00000001800164a0 f   umodsys_lib_libui:umodsys.mod.ui.frames.obj
 0001:00015500       ?update_size@RFrame_List@frames@ui@modules@UModSys@@MEAA_NAEBU?$TBoundBox2@H@math3d@5@@Z 0000000180016500 f   umodsys_lib_libui:umodsys.mod.ui.frames.obj
 0001:00015570       ?draw_post@RFrame_List@frames@ui@modules@UModSys@@MEAA_NAEBUSDrawState@2345@@Z 0000000180016570 f   umodsys_lib_libui:umodsys.mod.ui.frames.obj
 0001:00015c10       ?set_buf@RFrame_Edit@frames@ui@modules@UModSys@@IEAA_NPEBDH@Z 0000000180016c10 f   umodsys_lib_libui:umodsys.mod.ui.frames.obj
 0001:00015dc0       ?set_value@RFrame_Edit@frames@ui@modules@UModSys@@UEAA_NHAEBUSFrameDataIn@libui@5@@Z 0000000180016dc0 f   umodsys_lib_libui:umodsys.mod.ui.frames.obj
 0001:00015e50       ?draw_post@RFrame_Edit@frames@ui@modules@UModSys@@MEAA_NAEBUSDrawState@2345@@Z 0000000180016e50 f   umodsys_lib_libui:umodsys.mod.ui.frames.obj
 0001:00016090       ??1RFrame_Button@frames@ui@modules@UModSys@@UEAA@XZ 0000000180017090 f   umodsys_lib_libui:umodsys.mod.ui.frames.obj
 0001:000160e0       ?update_size@RFrame_Button@frames@ui@modules@UModSys@@MEAA_NAEBU?$TBoundBox2@H@math3d@5@@Z 00000001800170e0 f   umodsys_lib_libui:umodsys.mod.ui.frames.obj
 0001:00016120       ??1RFrame_Image@frames@ui@modules@UModSys@@UEAA@XZ 0000000180017120 f   umodsys_lib_libui:umodsys.mod.ui.frames.obj
 0001:00016180       ??1RFrame_Text@frames@ui@modules@UModSys@@UEAA@XZ 0000000180017180 f   umodsys_lib_libui:umodsys.mod.ui.frames.obj
 0001:000161e0       ??1RFrame_Frame@frames@ui@modules@UModSys@@UEAA@XZ 00000001800171e0 f   umodsys_lib_libui:umodsys.mod.ui.frames.obj
 0001:00016200       ??0RFrame_Common@frames@ui@modules@UModSys@@QEAA@PEAURCollector@1234@PEAU01234@@Z 0000000180017200 f   umodsys_lib_libui:umodsys.mod.ui.frames.obj
 0001:00016320       ?set_fcp@RFrame_Common@frames@ui@modules@UModSys@@MEAA_NAEBUSFrameCreateParameters@libui@5@PEBUSParameters@core@5@@Z 0000000180017320 f   umodsys_lib_libui:umodsys.mod.ui.frames.obj
 0001:00016400       ?set_lvalue@RFrame_List@frames@ui@modules@UModSys@@UEAA_NHHAEBUSFrameDataIn@libui@5@@Z 0000000180017400 f   umodsys_lib_libui:umodsys.mod.ui.frames.obj
 0001:000164a0       ?set_lcount@RFrame_List@frames@ui@modules@UModSys@@UEAA_NH@Z 00000001800174a0 f   umodsys_lib_libui:umodsys.mod.ui.frames.obj
 0001:000164f0       ?controller_update@RFrame_List@frames@ui@modules@UModSys@@UEAA_NXZ 00000001800174f0 f   umodsys_lib_libui:umodsys.mod.ui.frames.obj
 0001:00016620       ?set_fcp@RFrame_List@frames@ui@modules@UModSys@@MEAA_NAEBUSFrameCreateParameters@libui@5@PEBUSParameters@core@5@@Z 0000000180017620 f   umodsys_lib_libui:umodsys.mod.ui.frames.obj
 0001:00016760       ??1RFrame_Edit@frames@ui@modules@UModSys@@UEAA@XZ 0000000180017760 f   umodsys_lib_libui:umodsys.mod.ui.frames.obj
 0001:000167e0       ??0RFrame_Edit@frames@ui@modules@UModSys@@QEAA@PEAURCollector@1234@PEAURFrame_Common@1234@@Z 00000001800177e0 f   umodsys_lib_libui:umodsys.mod.ui.frames.obj
 0001:00016910       ?update_last@RFrame_Edit@frames@ui@modules@UModSys@@IEAA_NXZ 0000000180017910 f   umodsys_lib_libui:umodsys.mod.ui.frames.obj
 0001:00016a20       ?get_value@RFrame_Edit@frames@ui@modules@UModSys@@UEAA_NHAEBUSFrameDataOut@libui@5@@Z 0000000180017a20 f   umodsys_lib_libui:umodsys.mod.ui.frames.obj
 0001:00016ad0       ?set_fcp@RFrame_Edit@frames@ui@modules@UModSys@@MEAA_NAEBUSFrameCreateParameters@libui@5@PEBUSParameters@core@5@@Z 0000000180017ad0 f   umodsys_lib_libui:umodsys.mod.ui.frames.obj
 0001:00016b70       ??0RFrame_Button@frames@ui@modules@UModSys@@QEAA@PEAURCollector@1234@PEAURFrame_Common@1234@@Z 0000000180017b70 f   umodsys_lib_libui:umodsys.mod.ui.frames.obj
 0001:00016cc0       ?set_fcp@RFrame_Button@frames@ui@modules@UModSys@@MEAA_NAEBUSFrameCreateParameters@libui@5@PEBUSParameters@core@5@@Z 0000000180017cc0 f   umodsys_lib_libui:umodsys.mod.ui.frames.obj
 0001:00016d80       ?button_draw@RFrame_Button@frames@ui@modules@UModSys@@MEAA_NPEAUSButton@2345@AEBUSDrawState@2345@H@Z 0000000180017d80 f   umodsys_lib_libui:umodsys.mod.ui.frames.obj
 0001:00016ee0       ??0RFrame_Image@frames@ui@modules@UModSys@@QEAA@PEAURCollector@1234@PEAURFrame_Common@1234@@Z 0000000180017ee0 f   umodsys_lib_libui:umodsys.mod.ui.frames.obj
 0001:00016f80       ?set_fcp@RFrame_Image@frames@ui@modules@UModSys@@MEAA_NAEBUSFrameCreateParameters@libui@5@PEBUSParameters@core@5@@Z 0000000180017f80 f   umodsys_lib_libui:umodsys.mod.ui.frames.obj
 0001:00017000       ??0RFrame_Text@frames@ui@modules@UModSys@@QEAA@PEAURCollector@1234@PEAURFrame_Common@1234@@Z 0000000180018000 f   umodsys_lib_libui:umodsys.mod.ui.frames.obj
 0001:00017100       ?set_value@RFrame_Text@frames@ui@modules@UModSys@@UEAA_NHAEBUSFrameDataIn@libui@5@@Z 0000000180018100 f   umodsys_lib_libui:umodsys.mod.ui.frames.obj
 0001:00017180       ?set_fcp@RFrame_Text@frames@ui@modules@UModSys@@MEAA_NAEBUSFrameCreateParameters@libui@5@PEBUSParameters@core@5@@Z 0000000180018180 f   umodsys_lib_libui:umodsys.mod.ui.frames.obj
 0001:00017240       ?draw_post@RFrame_Text@frames@ui@modules@UModSys@@MEAA_NAEBUSDrawState@2345@@Z 0000000180018240 f   umodsys_lib_libui:umodsys.mod.ui.frames.obj
 0001:000174a0       ??0RFrame_Frame@frames@ui@modules@UModSys@@QEAA@PEAURCollector@1234@PEAURFrame_Common@1234@@Z 00000001800184a0 f   umodsys_lib_libui:umodsys.mod.ui.frames.obj
 0001:00017530       ??1RFrame_List@frames@ui@modules@UModSys@@UEAA@XZ 0000000180018530 f   umodsys_lib_libui:umodsys.mod.ui.frames.obj
 0001:00017590       ??0RFrame_List@frames@ui@modules@UModSys@@QEAA@PEAURCollector@1234@PEAURFrame_Common@1234@@Z 0000000180018590 f   umodsys_lib_libui:umodsys.mod.ui.frames.obj
 0001:000177a0       ?get_lvalue@RFrame_List@frames@ui@modules@UModSys@@UEAA_NHHAEBUSFrameDataOut@libui@5@@Z 00000001800187a0 f   umodsys_lib_libui:umodsys.mod.ui.frames.obj
 0001:00017850       ?get_value@RFrame_Text@frames@ui@modules@UModSys@@UEAA_NHAEBUSFrameDataOut@libui@5@@Z 0000000180018850 f   umodsys_lib_libui:umodsys.mod.ui.frames.obj
 0001:000178e0       ?frame_create_s@RCollector@frames@ui@modules@UModSys@@UEAAPEAUIFrame@libui@5@AEBU?$TString@U?$TSCoreConst@D@su@tl@UModSys@@U?$TComparerBinaryHash@D@234@@tl@5@AEBUSFrameCreateParameters@75@PEBUSParameters@core@5@@Z 00000001800188e0 f   umodsys_lib_libui:umodsys.mod.ui.frames.obj
 0001:00017cb0       ?frame_create_n@RCollector@frames@ui@modules@UModSys@@UEAAPEAUIFrame@libui@5@HAEBUSFrameCreateParameters@75@PEBUSParameters@core@5@@Z 0000000180018cb0 f   umodsys_lib_libui:umodsys.mod.ui.frames.obj
 0001:00017f60       ?mod_dec@RGenerator@SDL_core@ui@modules@UModSys@@UEBA_NXZ 0000000180018f60 f   umodsys_lib_libui:umodsys.mod.ui.SDL_core.obj
 0001:00017f80       ?mod_inc@RGenerator@SDL_core@ui@modules@UModSys@@UEBA_NXZ 0000000180018f80 f   umodsys_lib_libui:umodsys.mod.ui.SDL_core.obj
 0001:00017fa0       ?get_module@RGenerator@SDL_core@ui@modules@UModSys@@UEBAPEAUIModule@base@5@XZ 0000000180018fa0 f   umodsys_lib_libui:umodsys.mod.ui.SDL_core.obj
 0001:00017fb0       ?open_drv3d@RTerminalX@SDL_core@ui@modules@UModSys@@UEAAPEAUIRenderDriver@lib3d@5@PEBUSParameters@core@5@@Z 0000000180018fb0 f   umodsys_lib_libui:umodsys.mod.ui.SDL_core.obj
 0001:00017fc0       ?get_drv3d@RTerminalX@SDL_core@ui@modules@UModSys@@UEBAPEAUIRenderDriver@lib3d@5@XZ 0000000180018fc0 f   umodsys_lib_libui:umodsys.mod.ui.SDL_core.obj
 0001:00017fd0       ?get_drv2d@RTerminalX@SDL_core@ui@modules@UModSys@@UEBAPEAUIRenderDriver@lib2d@5@XZ 0000000180018fd0 f   umodsys_lib_libui:umodsys.mod.ui.SDL_core.obj
 0001:00017fe0       ?wait@RTerminal@SDL_core@ui@modules@UModSys@@UEAA_NM@Z 0000000180018fe0 f   umodsys_lib_libui:umodsys.mod.ui.SDL_core.obj
 0001:00018010       ?get_clock@RTerminal@SDL_core@ui@modules@UModSys@@UEAANXZ 0000000180019010 f   umodsys_lib_libui:umodsys.mod.ui.SDL_core.obj
 0001:00018030       ?set_terminal_state@RTerminal@SDL_core@ui@modules@UModSys@@UEAA_NW4eTerminalState@libui@5@_N@Z 0000000180019030 f   umodsys_lib_libui:umodsys.mod.ui.SDL_core.obj
 0001:000180c0       ?get_terminal_state@RTerminal@SDL_core@ui@modules@UModSys@@UEAA_NW4eTerminalState@libui@5@@Z 00000001800190c0 f   umodsys_lib_libui:umodsys.mod.ui.SDL_core.obj
 0001:000180e0       ?key_setvisible@RKeyboardController@SDL_core@ui@modules@UModSys@@UEAA_N_N@Z 00000001800190e0 f   umodsys_lib_libui:umodsys.mod.ui.SDL_core.obj
 0001:00018110       ?key_reset@RKeyboardController@SDL_core@ui@modules@UModSys@@UEAA_NXZ 0000000180019110 f   umodsys_lib_libui:umodsys.mod.ui.SDL_core.obj
 0001:00018120       ?key_setrepeat@RKeyboardController@SDL_core@ui@modules@UModSys@@UEAA_NMM@Z 0000000180019120 f   umodsys_lib_libui:umodsys.mod.ui.SDL_core.obj
 0001:00018130       ?key_setmodifier@RKeyboardController@SDL_core@ui@modules@UModSys@@UEAA_NHHH@Z 0000000180019130 f   umodsys_lib_libui:umodsys.mod.ui.SDL_core.obj
 0001:00018140       ?map_keyspecial@RKeyboardController@SDL_core@ui@modules@UModSys@@QEAAFG@Z 0000000180019140 f   umodsys_lib_libui:umodsys.mod.ui.SDL_core.obj
 0001:000181e0       ?map_keyoscode@RKeyboardController@SDL_core@ui@modules@UModSys@@QEAAFW4SDL_Scancode@@@Z 00000001800191e0 f   umodsys_lib_libui:umodsys.mod.ui.SDL_core.obj
 0001:000181f0       ?map_keystatus@RKeyboardController@SDL_core@ui@modules@UModSys@@QEAAFEE@Z 00000001800191f0 f   umodsys_lib_libui:umodsys.mod.ui.SDL_core.obj
 0001:00018210       ?map_keycode@RKeyboardController@SDL_core@ui@modules@UModSys@@QEAA?AW4eKeyCode@libui@5@H@Z 0000000180019210 f   umodsys_lib_libui:umodsys.mod.ui.SDL_core.obj
 0001:00018770       ?mouse_setposition@RMouseController@SDL_core@ui@modules@UModSys@@UEAA_NHH@Z 0000000180019770 f   umodsys_lib_libui:umodsys.mod.ui.SDL_core.obj
 0001:00018780       ?mouse_setvisible@RMouseController@SDL_core@ui@modules@UModSys@@UEAA_N_N@Z 0000000180019780 f   umodsys_lib_libui:umodsys.mod.ui.SDL_core.obj
 0001:00018790       ?mouse_reset@RMouseController@SDL_core@ui@modules@UModSys@@UEAA_NXZ 0000000180019790 f   umodsys_lib_libui:umodsys.mod.ui.SDL_core.obj
 0001:000187a0       ?set_parameters@RRenderDriver2D@SDL_core@ui@modules@UModSys@@UEAA_NPEBDAEBUSParameters@core@5@@Z 00000001800197a0 f   umodsys_lib_libui:umodsys.mod.ui.SDL_core.obj
 0001:000187b0       ?get_frame_values@RRenderDriver2D@SDL_core@ui@modules@UModSys@@UEBAPEBUSParameters@core@5@XZ 00000001800197b0 f   umodsys_lib_libui:umodsys.mod.ui.SDL_core.obj
 0001:000187c0       ?get_max_values@RRenderDriver2D@SDL_core@ui@modules@UModSys@@UEBAPEBUSParameters@core@5@XZ 00000001800197c0 f   umodsys_lib_libui:umodsys.mod.ui.SDL_core.obj
 0001:000187d0       ?get_controller@RRenderDriver2D@SDL_core@ui@modules@UModSys@@UEBAPEAUIRefObject@core@5@PEBUSUniquePointerInfo@75@@Z 00000001800197d0 f   umodsys_lib_libui:umodsys.mod.ui.SDL_core.obj
 0001:000187e0       ?get_terminal@RRenderDriver2D@SDL_core@ui@modules@UModSys@@UEBAPEAUITerminal@libui@5@XZ 00000001800197e0 f   umodsys_lib_libui:umodsys.mod.ui.SDL_core.obj
 0001:000187f0       ?kill_texture@RMultiImage2D_SDL_ttf@SDL_core@ui@modules@UModSys@@SAXAEAPEAUSDL_Texture@@@Z 00000001800197f0 f   umodsys_lib_libui:umodsys.mod.ui.SDL_core.obj
 0001:00018820       ?close@RMultiImage2D_SDL_ttf@SDL_core@ui@modules@UModSys@@QEAAXXZ 0000000180019820 f   umodsys_lib_libui:umodsys.mod.ui.SDL_core.obj
 0001:00018850       ?close@SWindow@SDL_core@ui@modules@UModSys@@QEAAXXZ 0000000180019850 f   umodsys_lib_libui:umodsys.mod.ui.SDL_core.obj
 0001:00018880       ??1SWindow@SDL_core@ui@modules@UModSys@@QEAA@XZ 0000000180019880 f   umodsys_lib_libui:umodsys.mod.ui.SDL_core.obj
 0001:00018890       ??0SWindow@SDL_core@ui@modules@UModSys@@QEAA@XZ 0000000180019890 f   umodsys_lib_libui:umodsys.mod.ui.SDL_core.obj
 0001:000188d0       ?s_holder@RGenerator@SDL_core@ui@modules@UModSys@@SAAEAU?$TTypeStaticHolder@URGenerator@SDL_core@ui@modules@UModSys@@@tl@5@XZ 00000001800198d0 f   umodsys_lib_libui:umodsys.mod.ui.SDL_core.obj
 0001:00018920       ?process@RKeyboardController@SDL_core@ui@modules@UModSys@@QEAA_NAEAUSDL_TextInputEvent@@@Z 0000000180019920 f   umodsys_lib_libui:umodsys.mod.ui.SDL_core.obj
 0001:00018a40       ?process@RKeyboardController@SDL_core@ui@modules@UModSys@@QEAA_NAEAUSDL_KeyboardEvent@@@Z 0000000180019a40 f   umodsys_lib_libui:umodsys.mod.ui.SDL_core.obj
 0001:00018b60       ?process@RMouseController@SDL_core@ui@modules@UModSys@@QEAA_NAEAUSDL_MouseWheelEvent@@@Z 0000000180019b60 f   umodsys_lib_libui:umodsys.mod.ui.SDL_core.obj
 0001:00018c80       ?process@RMouseController@SDL_core@ui@modules@UModSys@@QEAA_NAEAUSDL_MouseButtonEvent@@@Z 0000000180019c80 f   umodsys_lib_libui:umodsys.mod.ui.SDL_core.obj
 0001:00018de0       ?process@RMouseController@SDL_core@ui@modules@UModSys@@QEAA_NAEAUSDL_MouseMotionEvent@@@Z 0000000180019de0 f   umodsys_lib_libui:umodsys.mod.ui.SDL_core.obj
 0001:00018f70       ?render_line@RRenderDriver2D@SDL_core@ui@modules@UModSys@@UEAAXAEBU?$TVector2@H@math3d@5@0@Z 0000000180019f70 f   umodsys_lib_libui:umodsys.mod.ui.SDL_core.obj
 0001:00018fa0       ?render_box@RRenderDriver2D@SDL_core@ui@modules@UModSys@@UEAAXPEAUIImage@lib2d@5@AEBU?$TVector2@H@math3d@5@1AEBU?$TVector2@M@95@2@Z 0000000180019fa0 f   umodsys_lib_libui:umodsys.mod.ui.SDL_core.obj
 0001:00018fb0       ?end@RRenderDriver2D@SDL_core@ui@modules@UModSys@@UEAAXXZ 0000000180019fb0 f   umodsys_lib_libui:umodsys.mod.ui.SDL_core.obj
 0001:00018fd0       ?begin@RRenderDriver2D@SDL_core@ui@modules@UModSys@@UEAAXXZ 0000000180019fd0 f   umodsys_lib_libui:umodsys.mod.ui.SDL_core.obj
 0001:00019040       ?new_picture@RRenderDriver2D@SDL_core@ui@modules@UModSys@@UEAA?AU?$TRefObject@UIImage@lib2d@UModSys@@U?$TRefObjectFunc@UIImage@lib2d@UModSys@@@tl@3@@tl@5@AEBUSParameters@core@5@AEBU?$TString@U?$TSCoreConst@D@su@tl@UModSys@@U?$TComparerBinaryHash@D@234@@75@@Z 000000018001a040 f   umodsys_lib_libui:umodsys.mod.ui.SDL_core.obj
 0001:00019060       ?set_color@RRenderDriver2D@SDL_core@ui@modules@UModSys@@QEAAXXZ 000000018001a060 f   umodsys_lib_libui:umodsys.mod.ui.SDL_core.obj
 0001:000190e0       ?close@RRenderDriver2D@SDL_core@ui@modules@UModSys@@QEAAXXZ 000000018001a0e0 f   umodsys_lib_libui:umodsys.mod.ui.SDL_core.obj
 0001:00019120       ?new_texture@RMultiImage2D_SDL_ttf@SDL_core@ui@modules@UModSys@@SA_NAEAPEAUSDL_Texture@@PEAUSDL_Surface@@PEAURRenderDriver2D@2345@@Z 000000018001a120 f   umodsys_lib_libui:umodsys.mod.ui.SDL_core.obj
 0001:00019160       ?open@SWindow@SDL_core@ui@modules@UModSys@@QEAA_NAEBUSParameters@core@5@@Z 000000018001a160 f   umodsys_lib_libui:umodsys.mod.ui.SDL_core.obj
 0001:00019270       ?s_unreg@RGenerator@SDL_core@ui@modules@UModSys@@SA_NPEAUIModuleReg@base@5@@Z 000000018001a270 f   umodsys_lib_libui:umodsys.mod.ui.SDL_core.obj
 0001:000192e0       ?s_reg@RGenerator@SDL_core@ui@modules@UModSys@@SA_NPEAUIModuleReg@base@5@@Z 000000018001a2e0 f   umodsys_lib_libui:umodsys.mod.ui.SDL_core.obj
 0001:00019360       ?close_drvxd@RTerminalX@SDL_core@ui@modules@UModSys@@UEAA_NXZ 000000018001a360 f   umodsys_lib_libui:umodsys.mod.ui.SDL_core.obj
 0001:00019380       ?create_handler@RTerminal@SDL_core@ui@modules@UModSys@@UEAA_NPEBUSUniquePointerInfo@core@5@AEAU?$TRefObject@UIRefObject@core@UModSys@@U?$TRefObjectFunc@UIRefObject@core@UModSys@@@tl@3@@tl@5@PEBDPEBUSParameters@75@@Z 000000018001a380 f   umodsys_lib_libui:umodsys.mod.ui.SDL_core.obj
 0001:00019440       ?get_friend_handler@RTerminal@SDL_core@ui@modules@UModSys@@UEBAPEAUIRefObject@core@5@PEBUSUniquePointerInfo@75@PEAU675@@Z 000000018001a440 f   umodsys_lib_libui:umodsys.mod.ui.SDL_core.obj
 0001:00019450       ?get_handler@RTerminal@SDL_core@ui@modules@UModSys@@UEBAPEAUIRefObject@core@5@PEBUSUniquePointerInfo@75@PEBD@Z 000000018001a450 f   umodsys_lib_libui:umodsys.mod.ui.SDL_core.obj
 0001:00019460       ?get_handler@RTerminal@SDL_core@ui@modules@UModSys@@UEBAPEAUIRefObject@core@5@PEBUSUniquePointerInfo@75@_K@Z 000000018001a460 f   umodsys_lib_libui:umodsys.mod.ui.SDL_core.obj
 0001:000194c0       ?get_count@RTerminal@SDL_core@ui@modules@UModSys@@UEBA_KPEBUSUniquePointerInfo@core@5@@Z 000000018001a4c0 f   umodsys_lib_libui:umodsys.mod.ui.SDL_core.obj
 0001:00019540       ?poll_events@RTerminal@SDL_core@ui@modules@UModSys@@UEAA_NH@Z 000000018001a540 f   umodsys_lib_libui:umodsys.mod.ui.SDL_core.obj
 0001:000196a0       ?key_unlink@RKeyboardController@SDL_core@ui@modules@UModSys@@UEAA_NH@Z 000000018001a6a0 f   umodsys_lib_libui:umodsys.mod.ui.SDL_core.obj
 0001:00019730       ?mouse_unlink@RMouseController@SDL_core@ui@modules@UModSys@@UEAA_NH@Z 000000018001a730 f   umodsys_lib_libui:umodsys.mod.ui.SDL_core.obj
 0001:000197c0       ?render_rect@RRenderDriver2D@SDL_core@ui@modules@UModSys@@UEAAXAEBU?$TVector2@H@math3d@5@0@Z 000000018001a7c0 f   umodsys_lib_libui:umodsys.mod.ui.SDL_core.obj
 0001:00019810       ?render_quad@RRenderDriver2D@SDL_core@ui@modules@UModSys@@UEAAXAEBU?$TVector2@H@math3d@5@000@Z 000000018001a810 f   umodsys_lib_libui:umodsys.mod.ui.SDL_core.obj
 0001:000198c0       ?render_tri@RRenderDriver2D@SDL_core@ui@modules@UModSys@@UEAAXAEBU?$TVector2@H@math3d@5@00@Z 000000018001a8c0 f   umodsys_lib_libui:umodsys.mod.ui.SDL_core.obj
 0001:00019940       ?render_box@RRenderDriver2D@SDL_core@ui@modules@UModSys@@UEAAXAEBU?$TVector2@H@math3d@5@0@Z 000000018001a940 f   umodsys_lib_libui:umodsys.mod.ui.SDL_core.obj
 0001:00019990       ?setup_alpha@RRenderDriver2D@SDL_core@ui@modules@UModSys@@UEAAXMH@Z 000000018001a990 f   umodsys_lib_libui:umodsys.mod.ui.SDL_core.obj
 0001:000199c0       ?setup_alpha@RRenderDriver2D@SDL_core@ui@modules@UModSys@@UEAAXHH@Z 000000018001a9c0 f   umodsys_lib_libui:umodsys.mod.ui.SDL_core.obj
 0001:00019a00       ?setup_blendcolor@RRenderDriver2D@SDL_core@ui@modules@UModSys@@UEAAXAEBUSBlendColorf@lib2d@5@@Z 000000018001aa00 f   umodsys_lib_libui:umodsys.mod.ui.SDL_core.obj
 0001:00019a60       ?setup_blendcolor@RRenderDriver2D@SDL_core@ui@modules@UModSys@@UEAAXAEBUSBlendColor@lib2d@5@@Z 000000018001aa60 f   umodsys_lib_libui:umodsys.mod.ui.SDL_core.obj
 0001:00019ad0       ?setup_coloralpha@RRenderDriver2D@SDL_core@ui@modules@UModSys@@UEAAXAEBU?$TVector4@H@math3d@5@H@Z 000000018001aad0 f   umodsys_lib_libui:umodsys.mod.ui.SDL_core.obj
 0001:00019b40       ?setup_coloralpha@RRenderDriver2D@SDL_core@ui@modules@UModSys@@UEAAXAEBU?$TVector4@M@math3d@5@H@Z 000000018001ab40 f   umodsys_lib_libui:umodsys.mod.ui.SDL_core.obj
 0001:00019b80       ?setup_color@RRenderDriver2D@SDL_core@ui@modules@UModSys@@UEAAXAEBU?$TVector3@H@math3d@5@@Z 000000018001ab80 f   umodsys_lib_libui:umodsys.mod.ui.SDL_core.obj
 0001:00019be0       ?setup_color@RRenderDriver2D@SDL_core@ui@modules@UModSys@@UEAAXAEBU?$TVector3@M@math3d@5@@Z 000000018001abe0 f   umodsys_lib_libui:umodsys.mod.ui.SDL_core.obj
 0001:00019c10       ?setup_font@RRenderDriver2D@SDL_core@ui@modules@UModSys@@UEAA_NPEAUIMultiImage@lib2d@5@PEBU?$TVector2@M@math3d@5@@Z 000000018001ac10 f   umodsys_lib_libui:umodsys.mod.ui.SDL_core.obj
 0001:00019c80       ?open@RRenderDriver2D@SDL_core@ui@modules@UModSys@@QEAA_NAEBUSParameters@core@5@@Z 000000018001ac80 f   umodsys_lib_libui:umodsys.mod.ui.SDL_core.obj
 0001:00019d90       ??1RRenderDriver2D@SDL_core@ui@modules@UModSys@@UEAA@XZ 000000018001ad90 f   umodsys_lib_libui:umodsys.mod.ui.SDL_core.obj
 0001:00019e50       ?generate_glyphs@RMultiImage2D_SDL_ttf@SDL_core@ui@modules@UModSys@@QEAA_NXZ 000000018001ae50 f   umodsys_lib_libui:umodsys.mod.ui.SDL_core.obj
 0001:00019fb0       ?open@RMultiImage2D_SDL_ttf@SDL_core@ui@modules@UModSys@@QEAA_NAEBUSParameters@core@5@@Z 000000018001afb0 f   umodsys_lib_libui:umodsys.mod.ui.SDL_core.obj
 0001:0001a0a0       ??1RMultiImage2D_SDL_ttf@SDL_core@ui@modules@UModSys@@UEAA@XZ 000000018001b0a0 f   umodsys_lib_libui:umodsys.mod.ui.SDL_core.obj
 0001:0001a100       ??0RMultiImage2D_SDL_ttf@SDL_core@ui@modules@UModSys@@QEAA@PEAURRenderDriver2D@1234@AEBUSParameters@core@4@@Z 000000018001b100 f   umodsys_lib_libui:umodsys.mod.ui.SDL_core.obj
 0001:0001a1a0       ?open_drv2d@RTerminalX@SDL_core@ui@modules@UModSys@@UEAAPEAUIRenderDriver@lib2d@5@PEBUSParameters@core@5@@Z 000000018001b1a0 f   umodsys_lib_libui:umodsys.mod.ui.SDL_core.obj
 0001:0001a1d0       ?key_link@RKeyboardController@SDL_core@ui@modules@UModSys@@UEAA_NHPEAUIRefObject@core@5@PEAUIKeyboardClient@libui@5@@Z 000000018001b1d0 f   umodsys_lib_libui:umodsys.mod.ui.SDL_core.obj
 0001:0001a270       ??1RKeyboardController@SDL_core@ui@modules@UModSys@@UEAA@XZ 000000018001b270 f   umodsys_lib_libui:umodsys.mod.ui.SDL_core.obj
 0001:0001a2d0       ??0RKeyboardController@SDL_core@ui@modules@UModSys@@QEAA@PEAURTerminal@1234@@Z 000000018001b2d0 f   umodsys_lib_libui:umodsys.mod.ui.SDL_core.obj
 0001:0001a300       ?mouse_link@RMouseController@SDL_core@ui@modules@UModSys@@UEAA_NHPEAUIRefObject@core@5@PEAUIMouseClient@libui@5@H@Z 000000018001b300 f   umodsys_lib_libui:umodsys.mod.ui.SDL_core.obj
 0001:0001a3a0       ??1RMouseController@SDL_core@ui@modules@UModSys@@UEAA@XZ 000000018001b3a0 f   umodsys_lib_libui:umodsys.mod.ui.SDL_core.obj
 0001:0001a400       ??0RMouseController@SDL_core@ui@modules@UModSys@@QEAA@PEAURTerminal@1234@@Z 000000018001b400 f   umodsys_lib_libui:umodsys.mod.ui.SDL_core.obj
 0001:0001a430       ?render_text_advanced@RRenderDriver2D@SDL_core@ui@modules@UModSys@@UEAA_NAEAUTextInfo@IRenderDriver@lib2d@5@PEBHH@Z 000000018001b430 f   umodsys_lib_libui:umodsys.mod.ui.SDL_core.obj
 0001:0001a670       ?new_font@RRenderDriver2D@SDL_core@ui@modules@UModSys@@UEAA?AU?$TRefObject@UIMultiImage@lib2d@UModSys@@U?$TRefObjectFunc@UIMultiImage@lib2d@UModSys@@@tl@3@@tl@5@AEBUSParameters@core@5@AEBU?$TString@U?$TSCoreConst@D@su@tl@UModSys@@U?$TComparerBinaryHash@D@234@@75@@Z 000000018001b670 f   umodsys_lib_libui:umodsys.mod.ui.SDL_core.obj
 0001:0001a760       ??1RTerminal@SDL_core@ui@modules@UModSys@@UEAA@XZ 000000018001b760 f   umodsys_lib_libui:umodsys.mod.ui.SDL_core.obj
 0001:0001a7c0       ??0RTerminal@SDL_core@ui@modules@UModSys@@QEAA@PEAUIModObject@base@4@@Z 000000018001b7c0 f   umodsys_lib_libui:umodsys.mod.ui.SDL_core.obj
 0001:0001a860       ??0RRenderDriver2D@SDL_core@ui@modules@UModSys@@QEAA@PEAURTerminalX@1234@@Z 000000018001b860 f   umodsys_lib_libui:umodsys.mod.ui.SDL_core.obj
 0001:0001a990       ??1RTerminalX@SDL_core@ui@modules@UModSys@@UEAA@XZ 000000018001b990 f   umodsys_lib_libui:umodsys.mod.ui.SDL_core.obj
 0001:0001a9d0       ??0RTerminalX@SDL_core@ui@modules@UModSys@@QEAA@PEAUIModObject@base@4@AEBUSParameters@core@4@@Z 000000018001b9d0 f   umodsys_lib_libui:umodsys.mod.ui.SDL_core.obj
 0001:0001aa10       ?mod_dec@RGenerator@SDL_GL@ui@modules@UModSys@@UEBA_NXZ 000000018001ba10 f   umodsys_lib_libui:umodsys.mod.ui.SDL_GL.obj
 0001:0001aa30       ?mod_inc@RGenerator@SDL_GL@ui@modules@UModSys@@UEBA_NXZ 000000018001ba30 f   umodsys_lib_libui:umodsys.mod.ui.SDL_GL.obj
 0001:0001aa50       ?get_module@RGenerator@SDL_GL@ui@modules@UModSys@@UEBAPEAUIModule@base@5@XZ 000000018001ba50 f   umodsys_lib_libui:umodsys.mod.ui.SDL_GL.obj
 0001:0001aa60       ?h_Rect@SGLFuncs@SDL_GL@ui@modules@UModSys@@UEBAXHHHH@Z 000000018001ba60 f   umodsys_lib_libui:umodsys.mod.ui.SDL_GL.obj
 0001:0001aa70       ?h_glColor4fv@SGLFuncs@SDL_GL@ui@modules@UModSys@@UEBAXQEBM@Z 000000018001ba70 f   umodsys_lib_libui:umodsys.mod.ui.SDL_GL.obj
 0001:0001aa90       ?h_glClientActiveTexture@SGLFuncs@SDL_GL@ui@modules@UModSys@@UEBAXH@Z 000000018001ba90 f   umodsys_lib_libui:umodsys.mod.ui.SDL_GL.obj
 0001:0001aaa0       ?image_hint_format@SGLFuncs@SDL_GL@ui@modules@UModSys@@SAHW4eImageType@lib2d@5@AEAH1@Z 000000018001baa0 f   umodsys_lib_libui:umodsys.mod.ui.SDL_GL.obj
 0001:0001ab20       ?clear_min@SGLFuncsLegacy@SDL_GL@ui@modules@UModSys@@QEAAXXZ 000000018001bb20 f   umodsys_lib_libui:umodsys.mod.ui.SDL_GL.obj
 0001:0001b7c0       ?check_base@SGLFuncs@SDL_GL@ui@modules@UModSys@@QEAA_NPEBD@Z 000000018001c7c0 f   umodsys_lib_libui:umodsys.mod.ui.SDL_GL.obj
 0001:0001b8a0       ?clear_min@SGLFuncs@SDL_GL@ui@modules@UModSys@@QEAAXXZ 000000018001c8a0 f   umodsys_lib_libui:umodsys.mod.ui.SDL_GL.obj
 0001:0001f220       ?get_drv3d@RTerminalX@SDL_GL@ui@modules@UModSys@@UEBAPEAUIRenderDriver@lib3d@5@XZ 0000000180020220 f   umodsys_lib_libui:umodsys.mod.ui.SDL_GL.obj
 0001:0001f230       ?get_drv2d@RTerminalX@SDL_GL@ui@modules@UModSys@@UEBAPEAUIRenderDriver@lib2d@5@XZ 0000000180020230 f   umodsys_lib_libui:umodsys.mod.ui.SDL_GL.obj
 0001:0001f240       ?check_single@SArrayFill@RVertexArray@SDL_GL@ui@modules@UModSys@@QEAA_NAEBUSVertexElemInfo@lib3d@6@@Z 0000000180020240 f   umodsys_lib_libui:umodsys.mod.ui.SDL_GL.obj
 0001:0001f300       ?check@SArrayFill@RVertexArray@SDL_GL@ui@modules@UModSys@@QEAA_NAEAUSVertexElemInfo@lib3d@6@@Z 0000000180020300 f   umodsys_lib_libui:umodsys.mod.ui.SDL_GL.obj
 0001:0001f4a0       ?clear@SArrayFill@RVertexArray@SDL_GL@ui@modules@UModSys@@QEAAXXZ 00000001800204a0 f   umodsys_lib_libui:umodsys.mod.ui.SDL_GL.obj
 0001:0001f4d0       ?get_layer_vdata@RVertexArray@SDL_GL@ui@modules@UModSys@@UEBA_NW4eVertexAType@lib3d@5@PEAXHHH@Z 00000001800204d0 f   umodsys_lib_libui:umodsys.mod.ui.SDL_GL.obj
 0001:0001f4e0       ?get_layer_count@RVertexArray@SDL_GL@ui@modules@UModSys@@UEBAHXZ 00000001800204e0 f   umodsys_lib_libui:umodsys.mod.ui.SDL_GL.obj
 0001:0001f4f0       ?get_array_count@RVertexArray@SDL_GL@ui@modules@UModSys@@UEBAHXZ 00000001800204f0 f   umodsys_lib_libui:umodsys.mod.ui.SDL_GL.obj
 0001:0001f500       ?is_valid@RVertexArray@SDL_GL@ui@modules@UModSys@@UEBA_NXZ 0000000180020500 f   umodsys_lib_libui:umodsys.mod.ui.SDL_GL.obj
 0001:0001f510       ?StrideConvert@RVertexArray@SDL_GL@ui@modules@UModSys@@SA_NW4eVertexAType@lib3d@5@EPEAXH0EPEBXHH@Z 0000000180020510 f   umodsys_lib_libui:umodsys.mod.ui.SDL_GL.obj
 0001:0001f5c0       ?setup_state@RRenderDriver3D@SDL_GL@ui@modules@UModSys@@UEAA_NAEBUSRenderState@lib3d@5@@Z 00000001800205c0 f   umodsys_lib_libui:umodsys.mod.ui.SDL_GL.obj
 0001:0001f5d0       ?render_text_3d@RRenderDriver3D@SDL_GL@ui@modules@UModSys@@UEAAXPEBHH@Z 00000001800205d0 f   umodsys_lib_libui:umodsys.mod.ui.SDL_GL.obj
 0001:0001f5e0       ?render_particles@RRenderDriver3D@SDL_GL@ui@modules@UModSys@@UEAAXPEBUSObjectParticle@lib3d@5@@Z 00000001800205e0 f   umodsys_lib_libui:umodsys.mod.ui.SDL_GL.obj
 0001:0001f5f0       ?render_picture@RRenderDriver3D@SDL_GL@ui@modules@UModSys@@UEAAXAEBUSPicture@lib3d@5@0M@Z 00000001800205f0 f   umodsys_lib_libui:umodsys.mod.ui.SDL_GL.obj
 0001:0001f600       ?render_picture@RRenderDriver3D@SDL_GL@ui@modules@UModSys@@UEAAXAEBUSPicture@lib3d@5@@Z 0000000180020600 f   umodsys_lib_libui:umodsys.mod.ui.SDL_GL.obj
 0001:0001f610       ?setup_array_none@RRenderDriver3D@SDL_GL@ui@modules@UModSys@@UEAA_NXZ 0000000180020610 f   umodsys_lib_libui:umodsys.mod.ui.SDL_GL.obj
 0001:0001f620       ?setup_array@RRenderDriver3D@SDL_GL@ui@modules@UModSys@@UEAA_NPEAUIVertexArray@lib3d@5@W4eVertexClass@75@H@Z 0000000180020620 f   umodsys_lib_libui:umodsys.mod.ui.SDL_GL.obj
 0001:0001f630       ?setup_material@RRenderDriver3D@SDL_GL@ui@modules@UModSys@@UEAA_NPEBUSMaterial@lib3d@5@@Z 0000000180020630 f   umodsys_lib_libui:umodsys.mod.ui.SDL_GL.obj
 0001:0001f640       ?setup_T@RRenderDriver3D@SDL_GL@ui@modules@UModSys@@UEAAXAEBU?$TMatrix44@N@math3d@5@@Z 0000000180020640 f   umodsys_lib_libui:umodsys.mod.ui.SDL_GL.obj
 0001:0001f650       ?setup_setlight@RRenderDriver3D@SDL_GL@ui@modules@UModSys@@UEAA_NH_N@Z 0000000180020650 f   umodsys_lib_libui:umodsys.mod.ui.SDL_GL.obj
 0001:0001f660       ?setup_setlight@RRenderDriver3D@SDL_GL@ui@modules@UModSys@@UEAA_NHW4eLightType@lib3d@5@AEBUSLight@75@AEBU?$TMatrix44@N@math3d@5@@Z 0000000180020660 f   umodsys_lib_libui:umodsys.mod.ui.SDL_GL.obj
 0001:0001f670       ?setup_addlight@RRenderDriver3D@SDL_GL@ui@modules@UModSys@@UEAAHW4eLightType@lib3d@5@AEBUSLight@75@AEBU?$TMatrix44@N@math3d@5@@Z 0000000180020670 f   umodsys_lib_libui:umodsys.mod.ui.SDL_GL.obj
 0001:0001f680       ?setup_clearlights@RRenderDriver3D@SDL_GL@ui@modules@UModSys@@UEAA_NW4eLightType@lib3d@5@_N1@Z 0000000180020680 f   umodsys_lib_libui:umodsys.mod.ui.SDL_GL.obj
 0001:0001f690       ?camera_frustum@RRenderDriver3D@SDL_GL@ui@modules@UModSys@@UEAA_NAEBU?$TVector3@N@math3d@5@0@Z 0000000180020690 f   umodsys_lib_libui:umodsys.mod.ui.SDL_GL.obj
 0001:0001f750       ?camera_ortho@RRenderDriver3D@SDL_GL@ui@modules@UModSys@@UEAA_NAEBU?$TVector3@N@math3d@5@0@Z 0000000180020750 f   umodsys_lib_libui:umodsys.mod.ui.SDL_GL.obj
 0001:0001f810       ?map_3d_to_2d@RRenderDriver3D@SDL_GL@ui@modules@UModSys@@UEAA_NAEAU?$TVector2@H@math3d@5@AEBU?$TVector2@M@75@@Z 0000000180020810 f   umodsys_lib_libui:umodsys.mod.ui.SDL_GL.obj
 0001:0001f820       ?map_3d_to_2d@RRenderDriver3D@SDL_GL@ui@modules@UModSys@@UEAA_NAEAU?$TVector2@H@math3d@5@AEBU?$TVector3@N@75@@Z 0000000180020820 f   umodsys_lib_libui:umodsys.mod.ui.SDL_GL.obj
 0001:0001f830       ?map_2d_to_3d@RRenderDriver3D@SDL_GL@ui@modules@UModSys@@UEAA_NAEAU?$TVector3@N@math3d@5@AEBU?$TVector2@H@75@@Z 0000000180020830 f   umodsys_lib_libui:umodsys.mod.ui.SDL_GL.obj
 0001:0001f840       ?register_tex@RRenderDriver3D@SDL_GL@ui@modules@UModSys@@UEAA?AU?$TRefObject@UITexture@lib3d@UModSys@@U?$TRefObjectFunc@UITexture@lib3d@UModSys@@@tl@3@@tl@5@AEBU?$TVector2@H@math3d@5@AEBUSRenderMapFlags@lib3d@5@W4eImageType@lib2d@5@@Z 0000000180020840 f   umodsys_lib_libui:umodsys.mod.ui.SDL_GL.obj
 0001:0001f860       ?register_texcells@RRenderDriver3D@SDL_GL@ui@modules@UModSys@@UEAA?AU?$TRefObject@UITextureCells@lib3d@UModSys@@U?$TRefObjectFunc@UITextureCells@lib3d@UModSys@@@tl@3@@tl@5@PEAUILibrary@libmedia@5@AEBU?$TString@U?$TSCoreConst@D@su@tl@UModSys@@U?$TComparerBinaryHash@D@234@@75@AEBUSRenderMapFlags@lib3d@5@@Z 0000000180020860 f   umodsys_lib_libui:umodsys.mod.ui.SDL_GL.obj
 0001:0001f880       ?register_tex@RRenderDriver3D@SDL_GL@ui@modules@UModSys@@UEAA?AU?$TRefObject@UITexture@lib3d@UModSys@@U?$TRefObjectFunc@UITexture@lib3d@UModSys@@@tl@3@@tl@5@PEAUILibrary@libmedia@5@AEBU?$TString@U?$TSCoreConst@D@su@tl@UModSys@@U?$TComparerBinaryHash@D@234@@75@AEBUSRenderMapFlags@lib3d@5@@Z 0000000180020880 f   umodsys_lib_libui:umodsys.mod.ui.SDL_GL.obj
 0001:0001f8a0       ?driver_is_reset@RRenderDriver3D@SDL_GL@ui@modules@UModSys@@UEAA_NXZ 00000001800208a0 f   umodsys_lib_libui:umodsys.mod.ui.SDL_GL.obj
 0001:0001f8b0       ?Mode_2d_end@RRenderDriver3D@SDL_GL@ui@modules@UModSys@@QEAA_NXZ 00000001800208b0 f   umodsys_lib_libui:umodsys.mod.ui.SDL_GL.obj
 0001:0001f8f0       ?set_parameters@RRenderDriver3D@SDL_GL@ui@modules@UModSys@@UEAA_NPEBDAEBUSParameters@core@5@@Z 00000001800208f0 f   umodsys_lib_libui:umodsys.mod.ui.SDL_GL.obj
 0001:0001f900       ?get_frame_values@RRenderDriver3D@SDL_GL@ui@modules@UModSys@@UEBAPEBUSParameters@core@5@XZ 0000000180020900 f   umodsys_lib_libui:umodsys.mod.ui.SDL_GL.obj
 0001:0001f910       ?get_max_values@RRenderDriver3D@SDL_GL@ui@modules@UModSys@@UEBAPEBUSParameters@core@5@XZ 0000000180020910 f   umodsys_lib_libui:umodsys.mod.ui.SDL_GL.obj
 0001:0001f920       ?get_controller@RRenderDriver3D@SDL_GL@ui@modules@UModSys@@UEBAPEAUIRefObject@core@5@PEBUSUniquePointerInfo@75@@Z 0000000180020920 f   umodsys_lib_libui:umodsys.mod.ui.SDL_GL.obj
 0001:0001f930       ?get_terminal@RRenderDriver3D@SDL_GL@ui@modules@UModSys@@UEBAPEAUITerminal@libui@5@XZ 0000000180020930 f   umodsys_lib_libui:umodsys.mod.ui.SDL_GL.obj
 0001:0001f940       ?is_phm@RRenderDriver3D@SDL_GL@ui@modules@UModSys@@QEAA_NW4ePhaseMode@2345@@Z 0000000180020940 f   umodsys_lib_libui:umodsys.mod.ui.SDL_GL.obj
 0001:0001f9a0       ?next_phm@RRenderDriver3D@SDL_GL@ui@modules@UModSys@@QEAA_NW4ePhaseMode@2345@@Z 00000001800209a0 f   umodsys_lib_libui:umodsys.mod.ui.SDL_GL.obj
 0001:0001fa30       ?set_color@RRenderDriver3D@SDL_GL@ui@modules@UModSys@@QEAAXXZ 0000000180020a30 f   umodsys_lib_libui:umodsys.mod.ui.SDL_GL.obj
 0001:0001fa50       ?set_mipmap@STextureGL@SDL_GL@ui@modules@UModSys@@QEAAXXZ 0000000180020a50 f   umodsys_lib_libui:umodsys.mod.ui.SDL_GL.obj
 0001:0001fa80       ?clear@STextureGL@SDL_GL@ui@modules@UModSys@@QEAAXXZ 0000000180020a80 f   umodsys_lib_libui:umodsys.mod.ui.SDL_GL.obj
 0001:0001fac0       ?close@RMultiImage2D_SDL_ttf@SDL_GL@ui@modules@UModSys@@QEAAXXZ 0000000180020ac0 f   umodsys_lib_libui:umodsys.mod.ui.SDL_GL.obj
 0001:0001faf0       ?wait@RTerminal@SDL_GL@ui@modules@UModSys@@UEAA_NM@Z 0000000180020af0 f   umodsys_lib_libui:umodsys.mod.ui.SDL_GL.obj
 0001:0001fb20       ?get_clock@RTerminal@SDL_GL@ui@modules@UModSys@@UEAANXZ 0000000180020b20 f   umodsys_lib_libui:umodsys.mod.ui.SDL_GL.obj
 0001:0001fb40       ?set_terminal_state@RTerminal@SDL_GL@ui@modules@UModSys@@UEAA_NW4eTerminalState@libui@5@_N@Z 0000000180020b40 f   umodsys_lib_libui:umodsys.mod.ui.SDL_GL.obj
 0001:0001fbd0       ?get_terminal_state@RTerminal@SDL_GL@ui@modules@UModSys@@UEAA_NW4eTerminalState@libui@5@@Z 0000000180020bd0 f   umodsys_lib_libui:umodsys.mod.ui.SDL_GL.obj
 0001:0001fbf0       ?mouse_setposition@RMouseController@SDL_GL@ui@modules@UModSys@@UEAA_NHH@Z 0000000180020bf0 f   umodsys_lib_libui:umodsys.mod.ui.SDL_GL.obj
 0001:0001fc00       ?mouse_setvisible@RMouseController@SDL_GL@ui@modules@UModSys@@UEAA_N_N@Z 0000000180020c00 f   umodsys_lib_libui:umodsys.mod.ui.SDL_GL.obj
 0001:0001fc10       ?mouse_reset@RMouseController@SDL_GL@ui@modules@UModSys@@UEAA_NXZ 0000000180020c10 f   umodsys_lib_libui:umodsys.mod.ui.SDL_GL.obj
 0001:0001fc20       ?key_setvisible@RKeyboardController@SDL_GL@ui@modules@UModSys@@UEAA_N_N@Z 0000000180020c20 f   umodsys_lib_libui:umodsys.mod.ui.SDL_GL.obj
 0001:0001fc50       ?key_reset@RKeyboardController@SDL_GL@ui@modules@UModSys@@UEAA_NXZ 0000000180020c50 f   umodsys_lib_libui:umodsys.mod.ui.SDL_GL.obj
 0001:0001fc60       ?key_setrepeat@RKeyboardController@SDL_GL@ui@modules@UModSys@@UEAA_NMM@Z 0000000180020c60 f   umodsys_lib_libui:umodsys.mod.ui.SDL_GL.obj
 0001:0001fc70       ?key_setmodifier@RKeyboardController@SDL_GL@ui@modules@UModSys@@UEAA_NHHH@Z 0000000180020c70 f   umodsys_lib_libui:umodsys.mod.ui.SDL_GL.obj
 0001:0001fc80       ?map_keyspecial@RKeyboardController@SDL_GL@ui@modules@UModSys@@QEAAFG@Z 0000000180020c80 f   umodsys_lib_libui:umodsys.mod.ui.SDL_GL.obj
 0001:0001fd20       ?map_keyoscode@RKeyboardController@SDL_GL@ui@modules@UModSys@@QEAAFW4SDL_Scancode@@@Z 0000000180020d20 f   umodsys_lib_libui:umodsys.mod.ui.SDL_GL.obj
 0001:0001fd30       ?map_keystatus@RKeyboardController@SDL_GL@ui@modules@UModSys@@QEAAFEE@Z 0000000180020d30 f   umodsys_lib_libui:umodsys.mod.ui.SDL_GL.obj
 0001:0001fd50       ?map_keycode@RKeyboardController@SDL_GL@ui@modules@UModSys@@QEAA?AW4eKeyCode@libui@5@H@Z 0000000180020d50 f   umodsys_lib_libui:umodsys.mod.ui.SDL_GL.obj
 0001:000202b0       ?process@RKeyboardController@SDL_GL@ui@modules@UModSys@@QEAA_NAEAUSDL_TextInputEvent@@@Z 00000001800212b0 f   umodsys_lib_libui:umodsys.mod.ui.SDL_GL.obj
 0001:000203d0       ?process@RKeyboardController@SDL_GL@ui@modules@UModSys@@QEAA_NAEAUSDL_KeyboardEvent@@@Z 00000001800213d0 f   umodsys_lib_libui:umodsys.mod.ui.SDL_GL.obj
 0001:000204f0       ?close@SWindow@SDL_GL@ui@modules@UModSys@@QEAAXXZ 00000001800214f0 f   umodsys_lib_libui:umodsys.mod.ui.SDL_GL.obj
 0001:00020520       ??1SWindow@SDL_GL@ui@modules@UModSys@@QEAA@XZ 0000000180021520 f   umodsys_lib_libui:umodsys.mod.ui.SDL_GL.obj
 0001:00020530       ??0SWindow@SDL_GL@ui@modules@UModSys@@QEAA@XZ 0000000180021530 f   umodsys_lib_libui:umodsys.mod.ui.SDL_GL.obj
 0001:00020570       ?s_holder@RGenerator@SDL_GL@ui@modules@UModSys@@SAAEAU?$TTypeStaticHolder@URGenerator@SDL_GL@ui@modules@UModSys@@@tl@5@XZ 0000000180021570 f   umodsys_lib_libui:umodsys.mod.ui.SDL_GL.obj
 0001:000205c0       ?h_DeleteTextures@SGLFuncs@SDL_GL@ui@modules@UModSys@@UEBAXHPEBI@Z 00000001800215c0 f   umodsys_lib_libui:umodsys.mod.ui.SDL_GL.obj
 0001:00020650       ?dumperror@SGLFuncs@SDL_GL@ui@modules@UModSys@@QEBAXH@Z 0000000180021650 f   umodsys_lib_libui:umodsys.mod.ui.SDL_GL.obj
 0001:000206e0       ?load@SGLFuncs@SDL_GL@ui@modules@UModSys@@QEAA_NXZ 00000001800216e0 f   umodsys_lib_libui:umodsys.mod.ui.SDL_GL.obj
 0001:000376c0       ?get_layer_info@RVertexArray@SDL_GL@ui@modules@UModSys@@UEBA?AUSVertexElemInfo@lib3d@5@H@Z 00000001800386c0 f   umodsys_lib_libui:umodsys.mod.ui.SDL_GL.obj
 0001:00037710       ?Upload@RVertexArray@SDL_GL@ui@modules@UModSys@@QEAA_N_N@Z 0000000180038710 f   umodsys_lib_libui:umodsys.mod.ui.SDL_GL.obj
 0001:000377d0       ?camera_frustum@RRenderDriver3D@SDL_GL@ui@modules@UModSys@@UEAA_NAEBU?$TVector3@N@math3d@5@AEBU?$TVector2@M@75@NN@Z 00000001800387d0 f   umodsys_lib_libui:umodsys.mod.ui.SDL_GL.obj
 0001:00037930       ?create_array@RRenderDriver3D@SDL_GL@ui@modules@UModSys@@UEAA?AU?$TRefObject@UIVertexArray@lib3d@UModSys@@U?$TRefObjectFunc@UIVertexArray@lib3d@UModSys@@@tl@3@@tl@5@HQEBUSVertexElemInfo@lib3d@5@HPEBX@Z 0000000180038930 f   umodsys_lib_libui:umodsys.mod.ui.SDL_GL.obj
 0001:00037950       ?setup_alpha@RRenderDriver3D@SDL_GL@ui@modules@UModSys@@UEAAXMH@Z 0000000180038950 f   umodsys_lib_libui:umodsys.mod.ui.SDL_GL.obj
 0001:00037980       ?setup_alpha@RRenderDriver3D@SDL_GL@ui@modules@UModSys@@UEAAXHH@Z 0000000180038980 f   umodsys_lib_libui:umodsys.mod.ui.SDL_GL.obj
 0001:000379c0       ?setup_blendcolor@RRenderDriver3D@SDL_GL@ui@modules@UModSys@@UEAAXAEBUSBlendColorf@lib2d@5@@Z 00000001800389c0 f   umodsys_lib_libui:umodsys.mod.ui.SDL_GL.obj
 0001:00037a20       ?setup_blendcolor@RRenderDriver3D@SDL_GL@ui@modules@UModSys@@UEAAXAEBUSBlendColor@lib2d@5@@Z 0000000180038a20 f   umodsys_lib_libui:umodsys.mod.ui.SDL_GL.obj
 0001:00037a90       ?setup_coloralpha@RRenderDriver3D@SDL_GL@ui@modules@UModSys@@UEAAXAEBU?$TVector4@H@math3d@5@H@Z 0000000180038a90 f   umodsys_lib_libui:umodsys.mod.ui.SDL_GL.obj
 0001:00037b00       ?setup_coloralpha@RRenderDriver3D@SDL_GL@ui@modules@UModSys@@UEAAXAEBU?$TVector4@M@math3d@5@H@Z 0000000180038b00 f   umodsys_lib_libui:umodsys.mod.ui.SDL_GL.obj
 0001:00037b40       ?setup_color@RRenderDriver3D@SDL_GL@ui@modules@UModSys@@UEAAXAEBU?$TVector3@H@math3d@5@@Z 0000000180038b40 f   umodsys_lib_libui:umodsys.mod.ui.SDL_GL.obj
 0001:00037ba0       ?setup_color@RRenderDriver3D@SDL_GL@ui@modules@UModSys@@UEAAXAEBU?$TVector3@M@math3d@5@@Z 0000000180038ba0 f   umodsys_lib_libui:umodsys.mod.ui.SDL_GL.obj
 0001:00037bd0       ?new_picture@RRenderDriver3D@SDL_GL@ui@modules@UModSys@@UEAA?AU?$TRefObject@UIImage@lib2d@UModSys@@U?$TRefObjectFunc@UIImage@lib2d@UModSys@@@tl@3@@tl@5@AEBUSParameters@core@5@AEBU?$TString@U?$TSCoreConst@D@su@tl@UModSys@@U?$TComparerBinaryHash@D@234@@75@@Z 0000000180038bd0 f   umodsys_lib_libui:umodsys.mod.ui.SDL_GL.obj
 0001:00037bf0       ?close@RRenderDriver3D@SDL_GL@ui@modules@UModSys@@QEAAXXZ 0000000180038bf0 f   umodsys_lib_libui:umodsys.mod.ui.SDL_GL.obj
 0001:00037c30       ?set_size@STextureGL@SDL_GL@ui@modules@UModSys@@QEAAXHH@Z 0000000180038c30 f   umodsys_lib_libui:umodsys.mod.ui.SDL_GL.obj
 0001:00037d10       ??1STextureGL@SDL_GL@ui@modules@UModSys@@QEAA@XZ 0000000180038d10 f   umodsys_lib_libui:umodsys.mod.ui.SDL_GL.obj
 0001:00037d70       ?mouse_unlink@RMouseController@SDL_GL@ui@modules@UModSys@@UEAA_NH@Z 0000000180038d70 f   umodsys_lib_libui:umodsys.mod.ui.SDL_GL.obj
 0001:00037e00       ?process@RMouseController@SDL_GL@ui@modules@UModSys@@QEAA_NAEAUSDL_MouseWheelEvent@@@Z 0000000180038e00 f   umodsys_lib_libui:umodsys.mod.ui.SDL_GL.obj
 0001:00037f20       ?process@RMouseController@SDL_GL@ui@modules@UModSys@@QEAA_NAEAUSDL_MouseButtonEvent@@@Z 0000000180038f20 f   umodsys_lib_libui:umodsys.mod.ui.SDL_GL.obj
 0001:00038080       ?process@RMouseController@SDL_GL@ui@modules@UModSys@@QEAA_NAEAUSDL_MouseMotionEvent@@@Z 0000000180039080 f   umodsys_lib_libui:umodsys.mod.ui.SDL_GL.obj
 0001:00038210       ?key_unlink@RKeyboardController@SDL_GL@ui@modules@UModSys@@UEAA_NH@Z 0000000180039210 f   umodsys_lib_libui:umodsys.mod.ui.SDL_GL.obj
 0001:000382a0       ?open@SWindow@SDL_GL@ui@modules@UModSys@@QEAA_NAEBUSParameters@core@5@@Z 00000001800392a0 f   umodsys_lib_libui:umodsys.mod.ui.SDL_GL.obj
 0001:000383b0       ?s_unreg@RGenerator@SDL_GL@ui@modules@UModSys@@SA_NPEAUIModuleReg@base@5@@Z 00000001800393b0 f   umodsys_lib_libui:umodsys.mod.ui.SDL_GL.obj
 0001:00038420       ?s_reg@RGenerator@SDL_GL@ui@modules@UModSys@@SA_NPEAUIModuleReg@base@5@@Z 0000000180039420 f   umodsys_lib_libui:umodsys.mod.ui.SDL_GL.obj
 0001:000384a0       ?image_hint_format@SGLFuncs@SDL_GL@ui@modules@UModSys@@SAHAEBU?$TString@U?$TSCoreConst@D@su@tl@UModSys@@U?$TComparerBinaryHash@D@234@@tl@5@H@Z 00000001800394a0 f   umodsys_lib_libui:umodsys.mod.ui.SDL_GL.obj
 0001:00038b50       ?load@SGLFuncsLegacy@SDL_GL@ui@modules@UModSys@@QEAA_N_N@Z 0000000180039b50 f   umodsys_lib_libui:umodsys.mod.ui.SDL_GL.obj
 0001:0003f280       ??0SGLFuncs@SDL_GL@ui@modules@UModSys@@QEAA@XZ 0000000180040280 f   umodsys_lib_libui:umodsys.mod.ui.SDL_GL.obj
 0001:0003f310       ?close_drvxd@RTerminalX@SDL_GL@ui@modules@UModSys@@UEAA_NXZ 0000000180040310 f   umodsys_lib_libui:umodsys.mod.ui.SDL_GL.obj
 0001:0003f330       ?Use@RVertexArray@SDL_GL@ui@modules@UModSys@@QEAA_NI@Z 0000000180040330 f   umodsys_lib_libui:umodsys.mod.ui.SDL_GL.obj
 0001:0003f580       ?Free@RVertexArray@SDL_GL@ui@modules@UModSys@@QEAA_NXZ 0000000180040580 f   umodsys_lib_libui:umodsys.mod.ui.SDL_GL.obj
 0001:0003f630       ??1RVertexArray@SDL_GL@ui@modules@UModSys@@UEAA@XZ 0000000180040630 f   umodsys_lib_libui:umodsys.mod.ui.SDL_GL.obj
 0001:0003f680       ??0RVertexArray@SDL_GL@ui@modules@UModSys@@QEAA@PEAURRenderDriver3D@1234@@Z 0000000180040680 f   umodsys_lib_libui:umodsys.mod.ui.SDL_GL.obj
 0001:0003f740       ?render_stop@RRenderDriver3D@SDL_GL@ui@modules@UModSys@@UEAAXXZ 0000000180040740 f   umodsys_lib_libui:umodsys.mod.ui.SDL_GL.obj
 0001:0003f8f0       ?render_start@RRenderDriver3D@SDL_GL@ui@modules@UModSys@@UEAAXXZ 00000001800408f0 f   umodsys_lib_libui:umodsys.mod.ui.SDL_GL.obj
 0001:0003fad0       ?phase_start@RRenderDriver3D@SDL_GL@ui@modules@UModSys@@UEAAXHH@Z 0000000180040ad0 f   umodsys_lib_libui:umodsys.mod.ui.SDL_GL.obj
 0001:0003fc50       ?render_primitive@RRenderDriver3D@SDL_GL@ui@modules@UModSys@@UEAA_NW4eRenderPrimitiveType@lib3d@5@HH@Z 0000000180040c50 f   umodsys_lib_libui:umodsys.mod.ui.SDL_GL.obj
 0001:0003fdf0       ?setup_array@RRenderDriver3D@SDL_GL@ui@modules@UModSys@@UEAA_NPEAUIVertexArray@lib3d@5@HH@Z 0000000180040df0 f   umodsys_lib_libui:umodsys.mod.ui.SDL_GL.obj
 0001:0003fea0       ?map_2d_to_3d@RRenderDriver3D@SDL_GL@ui@modules@UModSys@@UEAA_NAEAU?$TVector2@M@math3d@5@AEBU?$TVector2@H@75@@Z 0000000180040ea0 f   umodsys_lib_libui:umodsys.mod.ui.SDL_GL.obj
 0001:0003ff60       ?Mode_2d_begin@RRenderDriver3D@SDL_GL@ui@modules@UModSys@@QEAA_NXZ 0000000180040f60 f   umodsys_lib_libui:umodsys.mod.ui.SDL_GL.obj
 0001:00040120       ?begin@RRenderDriver3D@SDL_GL@ui@modules@UModSys@@UEAAXXZ 0000000180041120 f   umodsys_lib_libui:umodsys.mod.ui.SDL_GL.obj
 0001:00040380       ?render_rect@RRenderDriver3D@SDL_GL@ui@modules@UModSys@@UEAAXAEBU?$TVector2@H@math3d@5@0@Z 0000000180041380 f   umodsys_lib_libui:umodsys.mod.ui.SDL_GL.obj
 0001:00040430       ?render_line@RRenderDriver3D@SDL_GL@ui@modules@UModSys@@UEAAXAEBU?$TVector2@H@math3d@5@0@Z 0000000180041430 f   umodsys_lib_libui:umodsys.mod.ui.SDL_GL.obj
 0001:000404a0       ?render_box@RRenderDriver3D@SDL_GL@ui@modules@UModSys@@UEAAXPEAUIImage@lib2d@5@AEBU?$TVector2@H@math3d@5@1AEBU?$TVector2@M@95@2@Z 00000001800414a0 f   umodsys_lib_libui:umodsys.mod.ui.SDL_GL.obj
 0001:000404c0       ?render_quad@RRenderDriver3D@SDL_GL@ui@modules@UModSys@@UEAAXAEBU?$TVector2@H@math3d@5@000@Z 00000001800414c0 f   umodsys_lib_libui:umodsys.mod.ui.SDL_GL.obj
 0001:00040560       ?render_tri@RRenderDriver3D@SDL_GL@ui@modules@UModSys@@UEAAXAEBU?$TVector2@H@math3d@5@00@Z 0000000180041560 f   umodsys_lib_libui:umodsys.mod.ui.SDL_GL.obj
 0001:000405f0       ?render_box@RRenderDriver3D@SDL_GL@ui@modules@UModSys@@UEAAXAEBU?$TVector2@H@math3d@5@0@Z 00000001800415f0 f   umodsys_lib_libui:umodsys.mod.ui.SDL_GL.obj
 0001:00040670       ?render_text_advanced@RRenderDriver3D@SDL_GL@ui@modules@UModSys@@UEAA_NAEAUTextInfo@IRenderDriver@lib2d@5@PEBHH@Z 0000000180041670 f   umodsys_lib_libui:umodsys.mod.ui.SDL_GL.obj
 0001:00040940       ?setup_font@RRenderDriver3D@SDL_GL@ui@modules@UModSys@@UEAA_NPEAUIMultiImage@lib2d@5@PEBU?$TVector2@M@math3d@5@@Z 0000000180041940 f   umodsys_lib_libui:umodsys.mod.ui.SDL_GL.obj
 0001:000409b0       ?Update@RRenderDriver3D@SDL_GL@ui@modules@UModSys@@QEAAXXZ 00000001800419b0 f   umodsys_lib_libui:umodsys.mod.ui.SDL_GL.obj
 0001:00040a10       ?open@RRenderDriver3D@SDL_GL@ui@modules@UModSys@@QEAA_NAEBUSParameters@core@5@@Z 0000000180041a10 f   umodsys_lib_libui:umodsys.mod.ui.SDL_GL.obj
 0001:00040b80       ??1RRenderDriver3D@SDL_GL@ui@modules@UModSys@@UEAA@XZ 0000000180041b80 f   umodsys_lib_libui:umodsys.mod.ui.SDL_GL.obj
 0001:00040c30       ?kill_texture@RMultiImage2D_SDL_ttf@SDL_GL@ui@modules@UModSys@@SAXAEAUSTextureGL@2345@@Z 0000000180041c30 f   umodsys_lib_libui:umodsys.mod.ui.SDL_GL.obj
 0001:00040c50       ?reupload@STextureGL@SDL_GL@ui@modules@UModSys@@QEAA_NXZ 0000000180041c50 f   umodsys_lib_libui:umodsys.mod.ui.SDL_GL.obj
 0001:00040d20       ?dorebind@STextureGL@SDL_GL@ui@modules@UModSys@@QEAAX_N@Z 0000000180041d20 f   umodsys_lib_libui:umodsys.mod.ui.SDL_GL.obj
 0001:00040dc0       ?gen@STextureGL@SDL_GL@ui@modules@UModSys@@QEAA_NXZ 0000000180041dc0 f   umodsys_lib_libui:umodsys.mod.ui.SDL_GL.obj
 0001:00040e40       ??0STextureGL@SDL_GL@ui@modules@UModSys@@QEAA@PEBUSGLFuncs@1234@@Z 0000000180041e40 f   umodsys_lib_libui:umodsys.mod.ui.SDL_GL.obj
 0001:00040ed0       ?create_handler@RTerminal@SDL_GL@ui@modules@UModSys@@UEAA_NPEBUSUniquePointerInfo@core@5@AEAU?$TRefObject@UIRefObject@core@UModSys@@U?$TRefObjectFunc@UIRefObject@core@UModSys@@@tl@3@@tl@5@PEBDPEBUSParameters@75@@Z 0000000180041ed0 f   umodsys_lib_libui:umodsys.mod.ui.SDL_GL.obj
 0001:00040f90       ?get_friend_handler@RTerminal@SDL_GL@ui@modules@UModSys@@UEBAPEAUIRefObject@core@5@PEBUSUniquePointerInfo@75@PEAU675@@Z 0000000180041f90 f   umodsys_lib_libui:umodsys.mod.ui.SDL_GL.obj
 0001:00040fa0       ?get_handler@RTerminal@SDL_GL@ui@modules@UModSys@@UEBAPEAUIRefObject@core@5@PEBUSUniquePointerInfo@75@PEBD@Z 0000000180041fa0 f   umodsys_lib_libui:umodsys.mod.ui.SDL_GL.obj
 0001:00040fb0       ?get_handler@RTerminal@SDL_GL@ui@modules@UModSys@@UEBAPEAUIRefObject@core@5@PEBUSUniquePointerInfo@75@_K@Z 0000000180041fb0 f   umodsys_lib_libui:umodsys.mod.ui.SDL_GL.obj
 0001:00041010       ?get_count@RTerminal@SDL_GL@ui@modules@UModSys@@UEBA_KPEBUSUniquePointerInfo@core@5@@Z 0000000180042010 f   umodsys_lib_libui:umodsys.mod.ui.SDL_GL.obj
 0001:00041090       ?poll_events@RTerminal@SDL_GL@ui@modules@UModSys@@UEAA_NH@Z 0000000180042090 f   umodsys_lib_libui:umodsys.mod.ui.SDL_GL.obj
 0001:000411f0       ?mouse_link@RMouseController@SDL_GL@ui@modules@UModSys@@UEAA_NHPEAUIRefObject@core@5@PEAUIMouseClient@libui@5@H@Z 00000001800421f0 f   umodsys_lib_libui:umodsys.mod.ui.SDL_GL.obj
 0001:00041290       ??1RMouseController@SDL_GL@ui@modules@UModSys@@UEAA@XZ 0000000180042290 f   umodsys_lib_libui:umodsys.mod.ui.SDL_GL.obj
 0001:000412f0       ??0RMouseController@SDL_GL@ui@modules@UModSys@@QEAA@PEAURTerminal@1234@@Z 00000001800422f0 f   umodsys_lib_libui:umodsys.mod.ui.SDL_GL.obj
 0001:00041320       ?key_link@RKeyboardController@SDL_GL@ui@modules@UModSys@@UEAA_NHPEAUIRefObject@core@5@PEAUIKeyboardClient@libui@5@@Z 0000000180042320 f   umodsys_lib_libui:umodsys.mod.ui.SDL_GL.obj
 0001:000413c0       ??1RKeyboardController@SDL_GL@ui@modules@UModSys@@UEAA@XZ 00000001800423c0 f   umodsys_lib_libui:umodsys.mod.ui.SDL_GL.obj
 0001:00041420       ??0RKeyboardController@SDL_GL@ui@modules@UModSys@@QEAA@PEAURTerminal@1234@@Z 0000000180042420 f   umodsys_lib_libui:umodsys.mod.ui.SDL_GL.obj
 0001:00041450       ??0SGLFuncsLegacy@SDL_GL@ui@modules@UModSys@@QEAA@XZ 0000000180042450 f   umodsys_lib_libui:umodsys.mod.ui.SDL_GL.obj
 0001:00041480       ?open_drv3d@RTerminalX@SDL_GL@ui@modules@UModSys@@UEAAPEAUIRenderDriver@lib3d@5@PEBUSParameters@core@5@@Z 0000000180042480 f   umodsys_lib_libui:umodsys.mod.ui.SDL_GL.obj
 0001:000414b0       ?open_drv2d@RTerminalX@SDL_GL@ui@modules@UModSys@@UEAAPEAUIRenderDriver@lib2d@5@PEBUSParameters@core@5@@Z 00000001800424b0 f   umodsys_lib_libui:umodsys.mod.ui.SDL_GL.obj
 0001:000414e0       ?Alloc@RVertexArray@SDL_GL@ui@modules@UModSys@@QEAA_NXZ 00000001800424e0 f   umodsys_lib_libui:umodsys.mod.ui.SDL_GL.obj
 0001:00041570       ?Alloc@RVertexArray@SDL_GL@ui@modules@UModSys@@QEAA_NQEBUSVertexElemInfo@lib3d@5@HH_N@Z 0000000180042570 f   umodsys_lib_libui:umodsys.mod.ui.SDL_GL.obj
 0001:000417e0       ?setup_2d@RRenderDriver3D@SDL_GL@ui@modules@UModSys@@UEAA_NPEBU?$TVector2@H@math3d@5@0PEBU?$TVector2@M@75@1@Z 00000001800427e0 f   umodsys_lib_libui:umodsys.mod.ui.SDL_GL.obj
 0001:00041890       ?phase_2d@RRenderDriver3D@SDL_GL@ui@modules@UModSys@@UEAAX_N@Z 0000000180042890 f   umodsys_lib_libui:umodsys.mod.ui.SDL_GL.obj
 0001:000418f0       ?create_array@RRenderDriver3D@SDL_GL@ui@modules@UModSys@@UEAA?AU?$TRefObject@UIVertexArray@lib3d@UModSys@@U?$TRefObjectFunc@UIVertexArray@lib3d@UModSys@@@tl@3@@tl@5@HQEBUSVertexElemInfo@lib3d@5@H@Z 00000001800428f0 f   umodsys_lib_libui:umodsys.mod.ui.SDL_GL.obj
 0001:00041a20       ?end@RRenderDriver3D@SDL_GL@ui@modules@UModSys@@UEAAXXZ 0000000180042a20 f   umodsys_lib_libui:umodsys.mod.ui.SDL_GL.obj
 0001:00041a70       ?upload@STextureGL@SDL_GL@ui@modules@UModSys@@QEAA_NXZ 0000000180042a70 f   umodsys_lib_libui:umodsys.mod.ui.SDL_GL.obj
 0001:00041bf0       ?alloc@STextureGL@SDL_GL@ui@modules@UModSys@@QEAA_NXZ 0000000180042bf0 f   umodsys_lib_libui:umodsys.mod.ui.SDL_GL.obj
 0001:00041d20       ??1RTerminal@SDL_GL@ui@modules@UModSys@@UEAA@XZ 0000000180042d20 f   umodsys_lib_libui:umodsys.mod.ui.SDL_GL.obj
 0001:00041d80       ??0RTerminal@SDL_GL@ui@modules@UModSys@@QEAA@PEAUIModObject@base@4@@Z 0000000180042d80 f   umodsys_lib_libui:umodsys.mod.ui.SDL_GL.obj
 0001:00041e20       ??1RTerminalX@SDL_GL@ui@modules@UModSys@@UEAA@XZ 0000000180042e20 f   umodsys_lib_libui:umodsys.mod.ui.SDL_GL.obj
 0001:00041e60       ?set_layer_vdata@RVertexArray@SDL_GL@ui@modules@UModSys@@UEAA_NW4eVertexAType@lib3d@5@PEBXHHH@Z 0000000180042e60 f   umodsys_lib_libui:umodsys.mod.ui.SDL_GL.obj
 0001:00041f80       ?set_reallocate@STextureGL@SDL_GL@ui@modules@UModSys@@QEAA_NW4eImageType@lib2d@5@HHPEBD@Z 0000000180042f80 f   umodsys_lib_libui:umodsys.mod.ui.SDL_GL.obj
 0001:00042040       ??1RMultiImage2D_SDL_ttf@SDL_GL@ui@modules@UModSys@@UEAA@XZ 0000000180043040 f   umodsys_lib_libui:umodsys.mod.ui.SDL_GL.obj
 0001:000420a0       ??0RRenderDriver3D@SDL_GL@ui@modules@UModSys@@QEAA@PEAURTerminalX@1234@@Z 00000001800430a0 f   umodsys_lib_libui:umodsys.mod.ui.SDL_GL.obj
 0001:00042200       ?new_texture@RMultiImage2D_SDL_ttf@SDL_GL@ui@modules@UModSys@@SA_NAEAUSTextureGL@2345@PEAUSDL_Surface@@PEAURRenderDriver3D@2345@@Z 0000000180043200 f   umodsys_lib_libui:umodsys.mod.ui.SDL_GL.obj
 0001:00042300       ?generate_glyphs@RMultiImage2D_SDL_ttf@SDL_GL@ui@modules@UModSys@@QEAA_NXZ 0000000180043300 f   umodsys_lib_libui:umodsys.mod.ui.SDL_GL.obj
 0001:00042470       ?open@RMultiImage2D_SDL_ttf@SDL_GL@ui@modules@UModSys@@QEAA_NAEBUSParameters@core@5@@Z 0000000180043470 f   umodsys_lib_libui:umodsys.mod.ui.SDL_GL.obj
 0001:00042560       ??0RMultiImage2D_SDL_ttf@SDL_GL@ui@modules@UModSys@@QEAA@PEAURRenderDriver3D@1234@AEBUSParameters@core@4@@Z 0000000180043560 f   umodsys_lib_libui:umodsys.mod.ui.SDL_GL.obj
 0001:00042600       ??0RTerminalX@SDL_GL@ui@modules@UModSys@@QEAA@PEAUIModObject@base@4@AEBUSParameters@core@4@@Z 0000000180043600 f   umodsys_lib_libui:umodsys.mod.ui.SDL_GL.obj
 0001:00042650       ?new_font@RRenderDriver3D@SDL_GL@ui@modules@UModSys@@UEAA?AU?$TRefObject@UIMultiImage@lib2d@UModSys@@U?$TRefObjectFunc@UIMultiImage@lib2d@UModSys@@@tl@3@@tl@5@AEBUSParameters@core@5@AEBU?$TString@U?$TSCoreConst@D@su@tl@UModSys@@U?$TComparerBinaryHash@D@234@@75@@Z 0000000180043650 f   umodsys_lib_libui:umodsys.mod.ui.SDL_GL.obj
 0001:000427d0       ?mod_dec@RGenerator@stdlib@lib2d@modules@UModSys@@UEBA_NXZ 00000001800437d0 f   umodsys_lib_lib2d:umodsys.mod.2d.stdlib.obj
 0001:000427f0       ?mod_inc@RGenerator@stdlib@lib2d@modules@UModSys@@UEBA_NXZ 00000001800437f0 f   umodsys_lib_lib2d:umodsys.mod.2d.stdlib.obj
 0001:00042810       ?get_module@RGenerator@stdlib@lib2d@modules@UModSys@@UEBAPEAUIModule@base@5@XZ 0000000180043810 f   umodsys_lib_lib2d:umodsys.mod.2d.stdlib.obj
 0001:00042820       ?get_hwcinfo@RImage_Memory@stdlib@lib2d@modules@UModSys@@UEBAPEBXPEBUSUniquePointerInfo@core@5@@Z 0000000180043820 f   umodsys_lib_lib2d:umodsys.mod.2d.stdlib.obj
 0001:00042830       ?get_hwinfo@RImage_Memory@stdlib@lib2d@modules@UModSys@@UEAAPEAXPEBUSUniquePointerInfo@core@5@@Z 0000000180043830 f   umodsys_lib_lib2d:umodsys.mod.2d.stdlib.obj
 0001:00042840       ?get_info@RImage_Memory@stdlib@lib2d@modules@UModSys@@UEBAAEBUSImageInfo@35@XZ 0000000180043840 f   umodsys_lib_lib2d:umodsys.mod.2d.stdlib.obj
 0001:00042850       ?s_holder@RGenerator@stdlib@lib2d@modules@UModSys@@SAAEAU?$TTypeStaticHolder@URGenerator@stdlib@lib2d@modules@UModSys@@@tl@5@XZ 0000000180043850 f   umodsys_lib_lib2d:umodsys.mod.2d.stdlib.obj
 0001:000428a0       ??0RImageFactory_Memory@stdlib@lib2d@modules@UModSys@@QEAA@PEAUIModObject@base@4@AEBUSParameters@core@4@@Z 00000001800438a0 f   umodsys_lib_lib2d:umodsys.mod.2d.stdlib.obj
 0001:00042910       ?image_get_maxsize@RImageFactory_Memory@stdlib@lib2d@modules@UModSys@@UEBA?AU?$TVector2@H@math3d@5@XZ 0000000180043910 f   umodsys_lib_lib2d:umodsys.mod.2d.stdlib.obj
 0001:00042930       ?s_unreg@RGenerator@stdlib@lib2d@modules@UModSys@@SA_NPEAUIModuleReg@base@5@@Z 0000000180043930 f   umodsys_lib_lib2d:umodsys.mod.2d.stdlib.obj
 0001:000429a0       ?s_reg@RGenerator@stdlib@lib2d@modules@UModSys@@SA_NPEAUIModuleReg@base@5@@Z 00000001800439a0 f   umodsys_lib_lib2d:umodsys.mod.2d.stdlib.obj
 0001:00042a20       ?setup_variable_cell@RMultiImage@stdlib@lib2d@modules@UModSys@@UEAA_NPEBUSImageCellInfo@35@KK@Z 0000000180043a20 f   umodsys_lib_lib2d:umodsys.mod.2d.stdlib.obj
 0001:00042b00       ?setup_fixed_cell@RMultiImage@stdlib@lib2d@modules@UModSys@@UEAA_NHH@Z 0000000180043b00 f   umodsys_lib_lib2d:umodsys.mod.2d.stdlib.obj
 0001:00042b30       ?set_hint@RMultiImage@stdlib@lib2d@modules@UModSys@@UEAA_NPEBD0@Z 0000000180043b30 f   umodsys_lib_lib2d:umodsys.mod.2d.stdlib.obj
 0001:00042b40       ?set_layer_count@RMultiImage@stdlib@lib2d@modules@UModSys@@UEAA_NG@Z 0000000180043b40 f   umodsys_lib_lib2d:umodsys.mod.2d.stdlib.obj
 0001:00042c80       ?get_cell@RMultiImage@stdlib@lib2d@modules@UModSys@@UEBA_NIAEAUSImageCellInfo@35@@Z 0000000180043c80 f   umodsys_lib_lib2d:umodsys.mod.2d.stdlib.obj
 0001:00042cd0       ?get_cell@RMultiImage@stdlib@lib2d@modules@UModSys@@UEBA_NIAEAU?$TVector2@H@math3d@5@PEAU675@PEAG@Z 0000000180043cd0 f   umodsys_lib_lib2d:umodsys.mod.2d.stdlib.obj
 0001:00042d30       ?get_cell_count@RMultiImage@stdlib@lib2d@modules@UModSys@@UEBAIXZ 0000000180043d30 f   umodsys_lib_lib2d:umodsys.mod.2d.stdlib.obj
 0001:00042d50       ?get_layer@RMultiImage@stdlib@lib2d@modules@UModSys@@UEBAPEAUIImage@35@G@Z 0000000180043d50 f   umodsys_lib_lib2d:umodsys.mod.2d.stdlib.obj
 0001:00042d80       ?get_layer_count@RMultiImage@stdlib@lib2d@modules@UModSys@@UEBAGXZ 0000000180043d80 f   umodsys_lib_lib2d:umodsys.mod.2d.stdlib.obj
 0001:00042da0       ?get_fixed_cell_size@RMultiImage@stdlib@lib2d@modules@UModSys@@UEBA?AU?$TVector2@H@math3d@5@XZ 0000000180043da0 f   umodsys_lib_lib2d:umodsys.mod.2d.stdlib.obj
 0001:00042dd0       ?get_max_cell_size@RMultiImage@stdlib@lib2d@modules@UModSys@@UEBA?AU?$TVector2@H@math3d@5@XZ 0000000180043dd0 f   umodsys_lib_lib2d:umodsys.mod.2d.stdlib.obj
 0001:00042e10       ?get_max_layer_size@RMultiImage@stdlib@lib2d@modules@UModSys@@UEBA?AU?$TVector2@H@math3d@5@XZ 0000000180043e10 f   umodsys_lib_lib2d:umodsys.mod.2d.stdlib.obj
 0001:00042e50       ??1RImageFactory_Memory@stdlib@lib2d@modules@UModSys@@UEAA@XZ 0000000180043e50 f   umodsys_lib_lib2d:umodsys.mod.2d.stdlib.obj
 0001:00042e70       ??1RImage_Memory@stdlib@lib2d@modules@UModSys@@UEAA@XZ 0000000180043e70 f   umodsys_lib_lib2d:umodsys.mod.2d.stdlib.obj
 0001:00042ec0       ??1RMultiImage@stdlib@lib2d@modules@UModSys@@UEAA@XZ 0000000180043ec0 f   umodsys_lib_lib2d:umodsys.mod.2d.stdlib.obj
 0001:00042f30       ??0RMultiImage@stdlib@lib2d@modules@UModSys@@QEAA@PEAUIModObject@base@4@AEBUSParameters@core@4@@Z 0000000180043f30 f   umodsys_lib_lib2d:umodsys.mod.2d.stdlib.obj
 0001:00043040       ??0RImage_Memory@stdlib@lib2d@modules@UModSys@@QEAA@PEAUIModObject@base@4@AEBUSParameters@core@4@@Z 0000000180044040 f   umodsys_lib_lib2d:umodsys.mod.2d.stdlib.obj
 0001:00043110       ?set_info@RImage_Memory@stdlib@lib2d@modules@UModSys@@UEAA_NAEBUSImagePatchInfo@35@PEBD@Z 0000000180044110 f   umodsys_lib_lib2d:umodsys.mod.2d.stdlib.obj
 0001:000432e0       ?image_new@RImageFactory_Memory@stdlib@lib2d@modules@UModSys@@UEAA?AU?$TRefObject@UIImage@lib2d@UModSys@@U?$TRefObjectFunc@UIImage@lib2d@UModSys@@@tl@3@@tl@5@AEBUSImagePatchInfo@35@PEBD@Z 00000001800442e0 f   umodsys_lib_lib2d:umodsys.mod.2d.stdlib.obj
 0001:00043480       ?image_new@RImageFactory_Memory@stdlib@lib2d@modules@UModSys@@UEAA?AU?$TRefObject@UIImage@lib2d@UModSys@@U?$TRefObjectFunc@UIImage@lib2d@UModSys@@@tl@3@@tl@5@XZ 0000000180044480 f   umodsys_lib_lib2d:umodsys.mod.2d.stdlib.obj
 0001:000435d0       ?get_data@RImage_Memory@stdlib@lib2d@modules@UModSys@@UEBA_NAEBUSImagePatchInfo@35@AEBUSMem@core@5@H@Z 00000001800445d0 f   umodsys_lib_lib2d:umodsys.mod.2d.stdlib.obj
 0001:000437b0       ?set_data@RImage_Memory@stdlib@lib2d@modules@UModSys@@UEAA_NAEBUSImagePatchInfo@35@AEBUSCMem@core@5@H@Z 00000001800447b0 f   umodsys_lib_lib2d:umodsys.mod.2d.stdlib.obj
 0001:00043990       ?mod_dec@RGenerator@test1@test@modules@UModSys@@UEBA_NXZ 0000000180044990 f   plugin_test1.obj
 0001:000439b0       ?mod_inc@RGenerator@test1@test@modules@UModSys@@UEBA_NXZ 00000001800449b0 f   plugin_test1.obj
 0001:000439d0       ?get_module@RGenerator@test1@test@modules@UModSys@@UEBAPEAUIModule@base@5@XZ 00000001800449d0 f   plugin_test1.obj
 0001:000439e0       ?shutdown@UI_Info@RTest1_Shell@test1@test@modules@UModSys@@QEAAXXZ 00000001800449e0 f   plugin_test1.obj
 0001:00043a40       ?command_draw@RTest1_Shell@test1@test@modules@UModSys@@UEAA_NAEBUSController@libui@5@PEAUIRenderDriver@lib2d@5@AEBU?$TBoundBox2@H@math3d@5@@Z 0000000180044a40 f   plugin_test1.obj
 0001:00043a50       ?key_pressed@RTest1_Shell@test1@test@modules@UModSys@@UEAA_NAEBUSKeyboardInputRaw@libui@5@@Z 0000000180044a50 f   plugin_test1.obj
 0001:00043ac0       ?s_holder@RGenerator@test1@test@modules@UModSys@@SAAEAU?$TTypeStaticHolder@URGenerator@test1@test@modules@UModSys@@@tl@5@XZ 0000000180044ac0 f   plugin_test1.obj
 0001:00043b10       ?cycle3d@UI_Info@RTest1_Shell@test1@test@modules@UModSys@@QEAAXXZ 0000000180044b10 f   plugin_test1.obj
 0001:00043fb0       ?db_get@RTest1_Shell@test1@test@modules@UModSys@@UEAA_NAEBUSController@libui@5@QEBDAEBUSFrameDataOut@75@@Z 0000000180044fb0 f   plugin_test1.obj
 0001:00044040       ?command@RTest1_Shell@test1@test@modules@UModSys@@UEAA_NAEBUSController@libui@5@HAEBUSFrameDataIn@75@@Z 0000000180045040 f   plugin_test1.obj
 0001:000440a0       ?mouse_event@RTest1_Shell@test1@test@modules@UModSys@@UEAA_NAEBUSMouseInput@libui@5@@Z 00000001800450a0 f   plugin_test1.obj
 0001:00044140       ?key_text@RTest1_Shell@test1@test@modules@UModSys@@UEAA_NAEBUSKeyboardInputText@libui@5@@Z 0000000180045140 f   plugin_test1.obj
 0001:000441a0       ?s_unreg@RGenerator@test1@test@modules@UModSys@@SA_NPEAUIModuleReg@base@5@@Z 00000001800451a0 f   plugin_test1.obj
 0001:00044210       ?s_reg@RGenerator@test1@test@modules@UModSys@@SA_NPEAUIModuleReg@base@5@@Z 0000000180045210 f   plugin_test1.obj
 0001:00044290       ?db_get@RTest1_Shell@test1@test@modules@UModSys@@UEAA_NAEBUSController@libui@5@QEBDHAEBUSFrameDataOut@75@@Z 0000000180045290 f   plugin_test1.obj
 0001:00044350       ?ui_newterm@RTest1_Shell@test1@test@modules@UModSys@@SA?AU?$TRefObject@UITerminal@libui@UModSys@@U?$TRefObjectFunc@UITerminal@libui@UModSys@@@tl@3@@tl@5@AEBU?$TString@U?$TSCoreConst@D@su@tl@UModSys@@U?$TComparerBinaryHash@D@234@@75@AEBUSParameters@core@5@@Z 0000000180045350 f   plugin_test1.obj
 0001:00044380       ?ui_newframes@RTest1_Shell@test1@test@modules@UModSys@@SA?AU?$TRefObject@UICollector@libui@UModSys@@U?$TRefObjectFunc@UICollector@libui@UModSys@@@tl@3@@tl@5@AEBU?$TString@U?$TSCoreConst@D@su@tl@UModSys@@U?$TComparerBinaryHash@D@234@@75@AEBUSParameters@core@5@@Z 0000000180045380 f   plugin_test1.obj
 0001:000443b0       ?new_frames@UI_Info@RTest1_Shell@test1@test@modules@UModSys@@QEAA_NPEAUIController@libui@6@@Z 00000001800453b0 f   plugin_test1.obj
 0001:00044e00       ?create_3d@UI_Info@RTest1_Shell@test1@test@modules@UModSys@@QEAA_NPEBD@Z 0000000180045e00 f   plugin_test1.obj
 0001:00044fe0       ?init_term@UI_Info@RTest1_Shell@test1@test@modules@UModSys@@QEAA_NPEBD@Z 0000000180045fe0 f   plugin_test1.obj
 0001:00045420       ?font_2d@UI_Info@RTest1_Shell@test1@test@modules@UModSys@@QEAA_NXZ 0000000180046420 f   plugin_test1.obj
 0001:000455e0       ?ui_test2@RTest1_Shell@test1@test@modules@UModSys@@QEAAXXZ 00000001800465e0 f   plugin_test1.obj
 0001:00045760       ?add@SUniquePtrList@core@UModSys@@QEAA_NPEBUSUniquePointerInfo@23@@Z 0000000180046760 f   umodsys_lib_core:umodsys.core.uniqueptrlist.obj
 0001:000457bc       memcpy                     00000001800467bc f   MSVCRT:MSVCR90.dll
 0001:000457c2       __CxxFrameHandler3         00000001800467c2 f   MSVCRT:MSVCR90.dll
 0001:000457c8       tanf                       00000001800467c8 f   MSVCRT:MSVCR90.dll
 0001:000457ce       _setjmp                    00000001800467ce f   MSVCRT:MSVCR90.dll
 0001:000457e0       memset                     00000001800467e0 f   MSVCRT:MSVCR90.dll
 0001:00045800       _alloca_probe              0000000180046800     MSVCRT:chkstk.obj
 0001:00045800       __chkstk                   0000000180046800 f   MSVCRT:chkstk.obj
 0002:00000000       __imp_Sleep                000000018004c000     kernel32:KERNEL32.dll
 0002:00000008       __imp_QueryPerformanceCounter 000000018004c008     kernel32:KERNEL32.dll
 0002:00000010       __imp_GetTickCount         000000018004c010     kernel32:KERNEL32.dll
 0002:00000018       __imp_GetCurrentThreadId   000000018004c018     kernel32:KERNEL32.dll
 0002:00000020       __imp_GetCurrentProcessId  000000018004c020     kernel32:KERNEL32.dll
 0002:00000028       __imp_GetSystemTimeAsFileTime 000000018004c028     kernel32:KERNEL32.dll
 0002:00000030       __imp_DisableThreadLibraryCalls 000000018004c030     kernel32:KERNEL32.dll
 0002:00000038       \177KERNEL32_NULL_THUNK_DATA 000000018004c038     kernel32:KERNEL32.dll
 0002:00000040       __imp_memchr               000000018004c040     MSVCRT:MSVCR90.dll
 0002:00000048       __imp_longjmp              000000018004c048     MSVCRT:MSVCR90.dll
 0002:00000050       __imp_strtod               000000018004c050     MSVCRT:MSVCR90.dll
 0002:00000058       __imp__snprintf            000000018004c058     MSVCRT:MSVCR90.dll
 0002:00000060       __imp_strtol               000000018004c060     MSVCRT:MSVCR90.dll
 0002:00000068       __imp_strncpy              000000018004c068     MSVCRT:MSVCR90.dll
 0002:00000070       __imp___C_specific_handler 000000018004c070     MSVCRT:MSVCR90.dll
 0002:00000078       __imp__unlock              000000018004c078     MSVCRT:MSVCR90.dll
 0002:00000080       __imp___dllonexit          000000018004c080     MSVCRT:MSVCR90.dll
 0002:00000088       __imp__encode_pointer      000000018004c088     MSVCRT:MSVCR90.dll
 0002:00000090       __imp__lock                000000018004c090     MSVCRT:MSVCR90.dll
 0002:00000098       __imp__onexit              000000018004c098     MSVCRT:MSVCR90.dll
 0002:000000a0       __imp__decode_pointer      000000018004c0a0     MSVCRT:MSVCR90.dll
 0002:000000a8       __imp__malloc_crt          000000018004c0a8     MSVCRT:MSVCR90.dll
 0002:000000b0       __imp_strstr               000000018004c0b0     MSVCRT:MSVCR90.dll
 0002:000000b8       __imp__initterm_e          000000018004c0b8     MSVCRT:MSVCR90.dll
 0002:000000c0       __imp_free                 000000018004c0c0     MSVCRT:MSVCR90.dll
 0002:000000c8       __imp__encoded_null        000000018004c0c8     MSVCRT:MSVCR90.dll
 0002:000000d0       __imp__amsg_exit           000000018004c0d0     MSVCRT:MSVCR90.dll
 0002:000000d8       __imp___CppXcptFilter      000000018004c0d8     MSVCRT:MSVCR90.dll
 0002:000000e0       __imp__vsnprintf           000000018004c0e0     MSVCRT:MSVCR90.dll
 0002:000000e0       __imp_vsnprintf            000000018004c0e0     MSVCRT:MSVCR90.dll
 0002:000000e8       __imp_?terminate@@YAXXZ    000000018004c0e8     MSVCRT:MSVCR90.dll
 0002:000000f0       __imp_?_type_info_dtor_internal_method@type_info@@QEAAXXZ 000000018004c0f0     MSVCRT:MSVCR90.dll
 0002:000000f8       __imp___clean_type_info_names_internal 000000018004c0f8     MSVCRT:MSVCR90.dll
 0002:00000100       __imp__setjmp              000000018004c100     MSVCRT:MSVCR90.dll
 0002:00000108       __imp_tanf                 000000018004c108     MSVCRT:MSVCR90.dll
 0002:00000110       __imp___CxxFrameHandler3   000000018004c110     MSVCRT:MSVCR90.dll
 0002:00000118       __imp_memcpy               000000018004c118     MSVCRT:MSVCR90.dll
 0002:00000120       __imp_memmove              000000018004c120     MSVCRT:MSVCR90.dll
 0002:00000128       __imp_??2@YAPEAX_K@Z       000000018004c128     MSVCRT:MSVCR90.dll
 0002:00000130       __imp_sscanf               000000018004c130     MSVCRT:MSVCR90.dll
 0002:00000138       __imp_??3@YAXPEAX@Z        000000018004c138     MSVCRT:MSVCR90.dll
 0002:00000140       __imp__purecall            000000018004c140     MSVCRT:MSVCR90.dll
 0002:00000148       __imp_strncmp              000000018004c148     MSVCRT:MSVCR90.dll
 0002:00000150       __imp__initterm            000000018004c150     MSVCRT:MSVCR90.dll
 0002:00000158       __imp_sprintf              000000018004c158     MSVCRT:MSVCR90.dll
 0002:00000160       __imp_memset               000000018004c160     MSVCRT:MSVCR90.dll
 0002:00000168       \177MSVCR90_NULL_THUNK_DATA 000000018004c168     MSVCRT:MSVCR90.dll
 0002:00000170       __imp_SDL_PumpEvents       000000018004c170     lib_SDL2:lib_SDL2.dll
 0002:00000178       __imp_SDL_RenderDrawRect   000000018004c178     lib_SDL2:lib_SDL2.dll
 0002:00000180       __imp_SDL_RenderFillRect   000000018004c180     lib_SDL2:lib_SDL2.dll
 0002:00000188       __imp_SDL_SetTextureColorMod 000000018004c188     lib_SDL2:lib_SDL2.dll
 0002:00000190       __imp_SDL_CreateRenderer   000000018004c190     lib_SDL2:lib_SDL2.dll
 0002:00000198       __imp_SDL_RenderClear      000000018004c198     lib_SDL2:lib_SDL2.dll
 0002:000001a0       __imp_SDL_SetRenderDrawColor 000000018004c1a0     lib_SDL2:lib_SDL2.dll
 0002:000001a8       __imp_SDL_SetRenderDrawBlendMode 000000018004c1a8     lib_SDL2:lib_SDL2.dll
 0002:000001b0       __imp_SDL_RenderPresent    000000018004c1b0     lib_SDL2:lib_SDL2.dll
 0002:000001b8       __imp_SDL_CreateTextureFromSurface 000000018004c1b8     lib_SDL2:lib_SDL2.dll
 0002:000001c0       __imp_SDL_DestroyTexture   000000018004c1c0     lib_SDL2:lib_SDL2.dll
 0002:000001c8       __imp_SDL_DestroyRenderer  000000018004c1c8     lib_SDL2:lib_SDL2.dll
 0002:000001d0       __imp_SDL_RenderCopy       000000018004c1d0     lib_SDL2:lib_SDL2.dll
 0002:000001d8       __imp_SDL_RenderDrawLines  000000018004c1d8     lib_SDL2:lib_SDL2.dll
 0002:000001e0       __imp_SDL_RenderDrawLine   000000018004c1e0     lib_SDL2:lib_SDL2.dll
 0002:000001e8       __imp_SDL_FreeSurface      000000018004c1e8     lib_SDL2:lib_SDL2.dll
 0002:000001f0       __imp_TTF_Quit             000000018004c1f0     lib_SDL2:lib_SDL2.dll
 0002:000001f8       __imp_SDL_GL_SetAttribute  000000018004c1f8     lib_SDL2:lib_SDL2.dll
 0002:00000200       __imp_SDL_GetTicks         000000018004c200     lib_SDL2:lib_SDL2.dll
 0002:00000208       __imp_SDL_PeepEvents       000000018004c208     lib_SDL2:lib_SDL2.dll
 0002:00000210       __imp_SDL_StartTextInput   000000018004c210     lib_SDL2:lib_SDL2.dll
 0002:00000218       __imp_SDL_GL_GetProcAddress 000000018004c218     lib_SDL2:lib_SDL2.dll
 0002:00000220       __imp_SDL_Delay            000000018004c220     lib_SDL2:lib_SDL2.dll
 0002:00000228       __imp_SDL_Quit             000000018004c228     lib_SDL2:lib_SDL2.dll
 0002:00000230       __imp_TTF_RenderGlyph_Shaded 000000018004c230     lib_SDL2:lib_SDL2.dll
 0002:00000238       __imp_SDL_StopTextInput    000000018004c238     lib_SDL2:lib_SDL2.dll
 0002:00000240       __imp_SDL_GL_ExtensionSupported 000000018004c240     lib_SDL2:lib_SDL2.dll
 0002:00000248       __imp_SDL_Init             000000018004c248     lib_SDL2:lib_SDL2.dll
 0002:00000250       __imp_SDL_DestroyWindow    000000018004c250     lib_SDL2:lib_SDL2.dll
 0002:00000258       __imp_TTF_GlyphMetrics     000000018004c258     lib_SDL2:lib_SDL2.dll
 0002:00000260       __imp_SDL_GL_DeleteContext 000000018004c260     lib_SDL2:lib_SDL2.dll
 0002:00000268       __imp_SDL_GL_SwapWindow    000000018004c268     lib_SDL2:lib_SDL2.dll
 0002:00000270       __imp_SDL_CreateWindow     000000018004c270     lib_SDL2:lib_SDL2.dll
 0002:00000278       __imp_SDL_GL_MakeCurrent   000000018004c278     lib_SDL2:lib_SDL2.dll
 0002:00000280       __imp_SDL_GL_CreateContext 000000018004c280     lib_SDL2:lib_SDL2.dll
 0002:00000288       __imp_TTF_OpenFont         000000018004c288     lib_SDL2:lib_SDL2.dll
 0002:00000290       __imp_TTF_CloseFont        000000018004c290     lib_SDL2:lib_SDL2.dll
 0002:00000298       __imp_TTF_Init             000000018004c298     lib_SDL2:lib_SDL2.dll
 0002:000002a0       \177lib_SDL2_NULL_THUNK_DATA 000000018004c2a0     lib_SDL2:lib_SDL2.dll
 0002:000002a8       __imp_jpeg_destroy         000000018004c2a8     lib_jpeglib:lib_jpeglib.dll
 0002:000002b0       __imp_jpeg_read_scanlines  000000018004c2b0     lib_jpeglib:lib_jpeglib.dll
 0002:000002b8       __imp_jpeg_finish_decompress 000000018004c2b8     lib_jpeglib:lib_jpeglib.dll
 0002:000002c0       __imp_jpeg_read_header     000000018004c2c0     lib_jpeglib:lib_jpeglib.dll
 0002:000002c8       __imp_jpeg_resync_to_restart 000000018004c2c8     lib_jpeglib:lib_jpeglib.dll
 0002:000002d0       __imp_jpeg_destroy_decompress 000000018004c2d0     lib_jpeglib:lib_jpeglib.dll
 0002:000002d8       __imp_jpeg_CreateDecompress 000000018004c2d8     lib_jpeglib:lib_jpeglib.dll
 0002:000002e0       __imp_jpeg_start_decompress 000000018004c2e0     lib_jpeglib:lib_jpeglib.dll
 0002:000002e8       __imp_jpeg_std_error       000000018004c2e8     lib_jpeglib:lib_jpeglib.dll
 0002:000002f0       \177lib_jpeglib_NULL_THUNK_DATA 000000018004c2f0     lib_jpeglib:lib_jpeglib.dll
 0002:000002f8       __imp_png_read_info        000000018004c2f8     lib_libpng:lib_libpng.dll
 0002:00000300       __imp_png_destroy_read_struct 000000018004c300     lib_libpng:lib_libpng.dll
 0002:00000308       __imp_png_set_IHDR         000000018004c308     lib_libpng:lib_libpng.dll
 0002:00000310       __imp_png_error            000000018004c310     lib_libpng:lib_libpng.dll
 0002:00000318       __imp_png_read_row         000000018004c318     lib_libpng:lib_libpng.dll
 0002:00000320       __imp_png_create_write_struct 000000018004c320     lib_libpng:lib_libpng.dll
 0002:00000328       __imp_png_set_longjmp_fn   000000018004c328     lib_libpng:lib_libpng.dll
 0002:00000330       __imp_png_set_sig_bytes    000000018004c330     lib_libpng:lib_libpng.dll
 0002:00000338       __imp_png_read_update_info 000000018004c338     lib_libpng:lib_libpng.dll
 0002:00000340       __imp_png_set_read_fn      000000018004c340     lib_libpng:lib_libpng.dll
 0002:00000348       __imp_png_create_info_struct 000000018004c348     lib_libpng:lib_libpng.dll
 0002:00000350       __imp_png_get_io_ptr       000000018004c350     lib_libpng:lib_libpng.dll
 0002:00000358       __imp_png_write_end        000000018004c358     lib_libpng:lib_libpng.dll
 0002:00000360       __imp_png_create_read_struct 000000018004c360     lib_libpng:lib_libpng.dll
 0002:00000368       __imp_png_write_rows       000000018004c368     lib_libpng:lib_libpng.dll
 0002:00000370       __imp_png_set_write_fn     000000018004c370     lib_libpng:lib_libpng.dll
 0002:00000378       __imp_png_destroy_write_struct 000000018004c378     lib_libpng:lib_libpng.dll
 0002:00000380       __imp_png_write_info       000000018004c380     lib_libpng:lib_libpng.dll
 0002:00000388       __imp_png_get_IHDR         000000018004c388     lib_libpng:lib_libpng.dll
 0002:00000390       __imp_png_sig_cmp          000000018004c390     lib_libpng:lib_libpng.dll
 0002:00000398       \177lib_libpng_NULL_THUNK_DATA 000000018004c398     lib_libpng:lib_libpng.dll
 0002:000003a0       __imp_deflateInit2_        000000018004c3a0     lib_zlib:lib_zlib.dll
 0002:000003a8       __imp_deflate              000000018004c3a8     lib_zlib:lib_zlib.dll
 0002:000003b0       __imp_inflateEnd           000000018004c3b0     lib_zlib:lib_zlib.dll
 0002:000003b8       __imp_inflate              000000018004c3b8     lib_zlib:lib_zlib.dll
 0002:000003c0       __imp_inflateInit2_        000000018004c3c0     lib_zlib:lib_zlib.dll
 0002:000003c8       __imp_deflateEnd           000000018004c3c8     lib_zlib:lib_zlib.dll
 0002:000003d0       __imp_crc32                000000018004c3d0     lib_zlib:lib_zlib.dll
 0002:000003d8       \177lib_zlib_NULL_THUNK_DATA 000000018004c3d8     lib_zlib:lib_zlib.dll
 0002:000003e0       __xc_a                     000000018004c3e0     MSVCRT:cinitexe.obj
 0002:00002368       __xc_z                     000000018004e368     MSVCRT:cinitexe.obj
 0002:00002370       __xi_a                     000000018004e370     MSVCRT:cinitexe.obj
 0002:00002380       __xi_z                     000000018004e380     MSVCRT:cinitexe.obj
 0002:00002398       ??_7type_info@@6B@         000000018004e398     MSVCRT:ti_inst.obj
 0002:000023a0       _pRawDllMain               000000018004e3a0     MSVCRT:crtdll.obj
 0002:000023a0       _pDefaultRawDllMain        000000018004e3a0     MSVCRT:crtdll.obj
 0002:000023a8       ??_C@_0P@GHFPNOJB@bad?5allocation?$AA@ 000000018004e3a8     plugin_test1.obj
 0002:000023b8       ??_C@_0BF@OCNNAADO@UModSys?3?3core?3?3IRoot?$AA@ 000000018004e3b8     plugin_test1.obj
 0002:000023d0       ??_C@_0BK@EMIJFOPA@UModSys?3?3core?3?3IRefObject?$AA@ 000000018004e3d0     plugin_test1.obj
 0002:000023f0       ??_C@_0BL@IOMMHELF@UModSys?3?3core?3?3IParameters?$AA@ 000000018004e3f0     plugin_test1.obj
 0002:00002410       ??_C@_0BI@IKAOEFAP@UModSys?3?3base?3?3IConsole?$AA@ 000000018004e410     plugin_test1.obj
 0002:00002428       ??_C@_0BH@LKDEEPPM@UModSys?3?3base?3?3IModule?$AA@ 000000018004e428     plugin_test1.obj
 0002:00002440       ??_C@_0BO@PHJOHFCB@UModSys?3?3base?3?3IModuleLibrary?$AA@ 000000018004e440     plugin_test1.obj
 0002:00002460       ??_C@_0BK@FDPIOPHG@UModSys?3?3base?3?3IModObject?$AA@ 000000018004e460     plugin_test1.obj
 0002:00002480       ??_C@_0BK@OIBKNCKJ@UModSys?3?3base?3?3IGenerator?$AA@ 000000018004e480     plugin_test1.obj
 0002:000024a0       ??_C@_0BG@PJBGCMEC@UModSys?3?3base?3?3IShell?$AA@ 000000018004e4a0     plugin_test1.obj
 0002:000024b8       ??_C@_0BH@PFCONEJJ@UModSys?3?3base?3?3ISystem?$AA@ 000000018004e4b8     plugin_test1.obj
 0002:000024d0       ??_C@_0CB@CLGNFEGF@UModSys?3?3libmedia?3?3IStreamReader@ 000000018004e4d0     plugin_test1.obj
 0002:000024f8       ??_C@_0CB@HOPFFLP@UModSys?3?3libmedia?3?3IStreamWriter@ 000000018004e4f8     plugin_test1.obj
 0002:00002520       ??_C@_0BO@INLIIEII@UModSys?3?3libmedia?3?3IUtilities?$AA@ 000000018004e520     plugin_test1.obj
 0002:00002540       ??_C@_0BO@BMLODIDG@UModSys?3?3libmedia?3?3ILibObject?$AA@ 000000018004e540     plugin_test1.obj
 0002:00002560       ??_C@_0BP@KCJMEDNO@UModSys?3?3libmedia?3?3IBinArchive?$AA@ 000000018004e560     plugin_test1.obj
 0002:00002580       ??_C@_0CB@FDEKNMGJ@UModSys?3?3libmedia?3?3IBinObjFilter@ 000000018004e580     plugin_test1.obj
 0002:000025a8       ??_C@_0BM@DPCMOAPM@UModSys?3?3libmedia?3?3ILibrary?$AA@ 000000018004e5a8     plugin_test1.obj
 0002:000025c8       ??_C@_0CD@ELIFEGE@UModSys?3?3libmedia?3?3ILibraryBinTr@ 000000018004e5c8     plugin_test1.obj
 0002:000025f0       ??_C@_0CE@EGHBJBAJ@UModSys?3?3libmedia?3?3ILibraryBinCa@ 000000018004e5f0     plugin_test1.obj
 0002:00002618       ??_C@_0CF@LBIGBLOK@UModSys?3?3libmedia?3?3ILibraryObjFi@ 000000018004e618     plugin_test1.obj
 0002:00002640       ??_C@_0CE@BOBLEOBL@UModSys?3?3libmedia?3?3ILibraryObjCa@ 000000018004e640     plugin_test1.obj
 0002:00002668       ??_C@_0CD@LJFEJKGF@UModSys?3?3libmedia?3?3ILibraryLayer@ 000000018004e668     plugin_test1.obj
 0002:00002690       ??_C@_0CE@FGFAKEDN@UModSys?3?3libmedia?3?3IBinArchiveFr@ 000000018004e690     plugin_test1.obj
 0002:000026b8       ??_C@_0CN@GBHCKFMF@UModSys?3?3libmedia?3?3IBinArchiveFr@ 000000018004e6b8     plugin_test1.obj
 0002:000026e8       ??_C@_0CE@GJOHFLIN@UModSys?3?3libmedia?3?3ISerializeRea@ 000000018004e6e8     plugin_test1.obj
 0002:00002710       ??_C@_0CE@EFGFFKFH@UModSys?3?3libmedia?3?3ISerializeWri@ 000000018004e710     plugin_test1.obj
 0002:00002740       ?utf_bytesFromUTF8@su@tl@UModSys@@3QBEB 000000018004e740     umodsys_lib_core:umodsys.tl.utf8.obj
 0002:00002840       ?utf_firstByteMark@su@tl@UModSys@@3QBEB 000000018004e840     umodsys_lib_core:umodsys.tl.utf8.obj
 0002:00002848       ?utf_offsetsFromUTF8@su@tl@UModSys@@3QBHB 000000018004e848     umodsys_lib_core:umodsys.tl.utf8.obj
 0002:00003430       ??_C@_0BL@NMJBPMOF@UModSys?3?3base?3?3IConsoleExt?$AA@ 000000018004f430     plugin_test1.obj
 0002:00003450       ??_C@_0BO@CGANABBB@UModSys?3?3base?3?3IConsoleHelper?$AA@ 000000018004f450     plugin_test1.obj
 0002:00003470       ??_C@_0CF@NIEDAAFG@UModSys?3?3base?3?3IConsoleHelperHis@ 000000018004f470     plugin_test1.obj
 0002:00003498       ??_C@_0CD@FCDJONHN@UModSys?3?3base?3?3IConsoleHelperInp@ 000000018004f498     plugin_test1.obj
 0002:000034c0       ??_C@_0CE@KMOIHDDJ@UModSys?3?3base?3?3IConsoleHelperOut@ 000000018004f4c0     plugin_test1.obj
 0002:000034e8       ??_C@_0CH@NMEMKECD@UModSys?3?3base?3?3IConsoleHelperOut@ 000000018004f4e8     plugin_test1.obj
 0002:00003510       ??_C@_0CE@DIFILHID@UModSys?3?3libui?3?3IKeyboardControl@ 000000018004f510     plugin_test1.obj
 0002:00003538       ??_C@_0CB@MBIJAGJE@UModSys?3?3libui?3?3IMouseController@ 000000018004f538     plugin_test1.obj
 0002:00003560       ??_C@_0CE@HLKJKPC@UModSys?3?3libui?3?3IJoystickControl@ 000000018004f560     plugin_test1.obj
 0002:00003588       ??_C@_0BK@GJJNKGGD@UModSys?3?3libui?3?3ITerminal?$AA@ 000000018004f588     plugin_test1.obj
 0002:000035a8       ??_C@_0CK@HENOKNKH@UModSys?3?3libui?3?3IConsoleHelperIn@ 000000018004f5a8     plugin_test1.obj
 0002:000035d8       ??_C@_0BL@LMBCJDKM@UModSys?3?3libui?3?3ICollector?$AA@ 000000018004f5d8     plugin_test1.obj
 0002:000035f8       ??_C@_0CB@FBNPBBJO@UModSys?3?3libui?3?3IAsyncController@ 000000018004f5f8     plugin_test1.obj
 0002:00003620       ??_C@_0CA@OAEFPLGI@UModSys?3?3libui?3?3IAsyncCollector?$AA@ 000000018004f620     plugin_test1.obj
 0002:00003640       ??_C@_0BH@IHOOLPEB@UModSys?3?3libui?3?3IFrame?$AA@ 000000018004f640     plugin_test1.obj
 0002:00003658       ??_C@_0BI@GAEFGDBL@UModSys?3?3libui?3?3IDialog?$AA@ 000000018004f658     plugin_test1.obj
 0002:00003670       ??_C@_0BH@JDBCAPMN@UModSys?3?3lib2d?3?3IImage?$AA@ 000000018004f670     plugin_test1.obj
 0002:00003688       ??_C@_0BO@GDIFOICC@UModSys?3?3lib2d?3?3IImageFactory?$AA@ 000000018004f688     plugin_test1.obj
 0002:000036a8       ??_C@_0BM@NDCOKBPH@UModSys?3?3lib2d?3?3IMultiImage?$AA@ 000000018004f6a8     plugin_test1.obj
 0002:000036c8       ??_C@_0BO@FFPMHFPK@UModSys?3?3lib2d?3?3IRenderDriver?$AA@ 000000018004f6c8     plugin_test1.obj
 0002:000036e8       ??_C@_0BI@HOGCFOFI@UModSys?3?3lib3d?3?3IObject?$AA@ 000000018004f6e8     plugin_test1.obj
 0002:00003700       ??_C@_0BO@OMKEMMOP@UModSys?3?3lib3d?3?3IRenderObject?$AA@ 000000018004f700     plugin_test1.obj
 0002:00003720       ??_C@_0BM@HHHFONDD@UModSys?3?3lib3d?3?3INodeObject?$AA@ 000000018004f720     plugin_test1.obj
 0002:00003740       ??_C@_0BP@ODBFJMEP@UModSys?3?3lib3d?3?3ISharedLibrary?$AA@ 000000018004f740     plugin_test1.obj
 0002:00003760       ??_C@_0BK@GPNGDGIH@UModSys?3?3lib3d?3?3IRenderer?$AA@ 000000018004f760     plugin_test1.obj
 0002:00003780       ??_C@_0BJ@PLFDFONK@UModSys?3?3lib3d?3?3ITexture?$AA@ 000000018004f780     plugin_test1.obj
 0002:000037a0       ??_C@_0BO@JNBEGHMD@UModSys?3?3lib3d?3?3ITextureCells?$AA@ 000000018004f7a0     plugin_test1.obj
 0002:000037c0       ??_C@_0BN@NOBBOAEH@UModSys?3?3lib3d?3?3IVertexArray?$AA@ 000000018004f7c0     plugin_test1.obj
 0002:000037e0       ??_C@_0BO@LKKOMDBL@UModSys?3?3lib3d?3?3IRenderDriver?$AA@ 000000018004f7e0     plugin_test1.obj
 0002:00003800       ??_C@_0CG@DNABKNDD@UModSys?3?3modules?3?3test?3?3test1?3?3I@ 000000018004f800     plugin_test1.obj
 0002:00003828       ??_C@_0CG@FINIGFAH@UModSys?3?3modules?3?3test?3?3test1?3?3R@ 000000018004f828     plugin_test1.obj
 0002:00003850       ??_C@_0CN@EFAOPDDB@UModSys?3?3modules?3?3test?3?3test1?3?3R@ 000000018004f850     plugin_test1.obj
 0002:00003880       ??_C@_0CM@LNHNHIJB@UModSys?3?3modules?3?3test?3?3test1?3?3R@ 000000018004f880     plugin_test1.obj
 0002:000038b0       ??_C@_0BC@NIGGCDMG@RTest1_Shell?$CI?$CJ?5?$HL?6?$AA@ 000000018004f8b0     plugin_test1.obj
 0002:000038c8       ??_C@_0DK@JIEMIEKA@UModSys?3?3modules?3?3test?3?3test1?3?3R@ 000000018004f8c8     plugin_test1.obj
 0002:00003908       ??_C@_0CK@OICDGBDJ@?4?4?2?4?4?2?4?4?2src?2plugin?2test?2plugin_@ 000000018004f908     plugin_test1.obj
 0002:00003938       ??_C@_0BF@BMCPNMPN@?$HN?5?1?1?5RTest1_Shell?$CI?$CJ?6?$AA@ 000000018004f938     plugin_test1.obj
 0002:00003950       ??_C@_0DL@OIAHAJF@UModSys?3?3modules?3?3test?3?3test1?3?3R@ 000000018004f950     plugin_test1.obj
 0002:00003990       ??_C@_0BB@MLDFLEML@?$HORTest1_Shell?$CI?$CJ?6?$AA@ 000000018004f990     plugin_test1.obj
 0002:000039a8       ??_C@_0BJ@CCPCJEPP@RTest1_Shell?3?3connect?$CI?$CJ?6?$AA@ 000000018004f9a8     plugin_test1.obj
 0002:000039c8       ??_C@_0BM@KBDBHLN@RTest1_Shell?3?3disconnect?$CI?$CJ?6?$AA@ 000000018004f9c8     plugin_test1.obj
 0002:000039e8       ??_C@_0BI@PGLACHLJ@RTest1_Shell?3?3tick?$CI?$CFg?$CJ?6?$AA@ 000000018004f9e8     plugin_test1.obj
 0002:00003a00       ??_C@_0BM@JFIEEBE@RTest1_Shell?3?3command?$CI?$CD?$CFd?$CJ?6?$AA@ 000000018004fa00     plugin_test1.obj
 0002:00003a1c       ??_C@_00CNPNBAHC@?$AA@     000000018004fa1c     plugin_test1.obj
 0002:00003a20       ??_C@_07OJGHGMNE@factory?$AA@ 000000018004fa20     plugin_test1.obj
 0002:00003a28       ??_C@_08BABJIOEM@filename?$AA@ 000000018004fa28     plugin_test1.obj
 0002:00003a34       ??_C@_06DJAMKFID@stream?$AA@ 000000018004fa34     plugin_test1.obj
 0002:00003a40       ??_C@_0O@IMJFODOA@lib2d?3?3IImage?$AA@ 000000018004fa40     plugin_test1.obj
 0002:00003a50       ??_C@_0L@DIAMDLBM@ICollector?$AA@ 000000018004fa50     plugin_test1.obj
 0002:00003a60       ??_C@_09MJHEMIHA@ITerminal?$AA@ 000000018004fa60     plugin_test1.obj
 0002:00003a70       ??_C@_0BH@GMHJDKHE@?$FLKEY?4KEY?5?$CFd?0?$CFd?0?$CFd?0?$CFd?$FN?6?$AA@ 000000018004fa70     plugin_test1.obj
 0002:00003a88       ??_C@_0P@DPHFCOMI@?$FLKEY?4TEXT?5?$CFs?$FN?6?$AA@ 000000018004fa88     plugin_test1.obj
 0002:00003a98       ??_C@_0CO@KGBDJAHA@?$FLMOUSE?5?$CFx?5B?$CFx?3?$CFd?5A?$CI?$CFd?0?$CFd?$CJ?5R?$CI?$CFd?0?$CF@ 000000018004fa98     plugin_test1.obj
 0002:00003ac8       ??_C@_0BJ@OKPGIKIP@?$FLCOMMAND?5?$CFd?$EA?$CFp?5C?$CFd?5D?$CFd?$FN?6?$AA@ 000000018004fac8     plugin_test1.obj
 0002:00003ae4       ??_C@_05IOMEMJEC@count?$AA@ 000000018004fae4     plugin_test1.obj
 0002:00003aec       ??_C@_02LBJNIHKO@dy?$AA@   000000018004faec     plugin_test1.obj
 0002:00003af0       ??_C@_04CIMGMMMG@text?$AA@ 000000018004faf0     plugin_test1.obj
 0002:00003af8       ??_C@_08GCGILLNN@Item?5?$CD?$CFd?$AA@ 000000018004faf8     plugin_test1.obj
 0002:00003b08       ??_C@_0L@DPNPMJNC@Neocyr?4ttf?$AA@ 000000018004fb08     plugin_test1.obj
 0002:00003b18       ??_C@_09HPINFNJC@max_glyph?$AA@ 000000018004fb18     plugin_test1.obj
 0002:00003b28       ??_C@_0BF@OHNOFNLO@?5?5error?5create?5font?6?$AA@ 000000018004fb28     plugin_test1.obj
 0002:00003b40       ??_C@_0BK@EIEBINCJ@?5?5created?5font?3?5?$CFs?5?$DN?$DO?5?$CFp?6?$AA@ 000000018004fb40     plugin_test1.obj
 0002:00003b60       ??_C@_0CE@KNEEOFOA@?5?5error?5create?5IKeyboardControll@ 000000018004fb60     plugin_test1.obj
 0002:00003b88       ??_C@_0CJ@OEBBFEFK@?5?5created?5IKeyboardController?3?5?$CF@ 000000018004fb88     plugin_test1.obj
 0002:00003bb8       ??_C@_0CB@NHAHJFLI@?5?5error?5create?5IMouseController?6@ 000000018004fbb8     plugin_test1.obj
 0002:00003be0       ??_C@_0CG@IKOBAIJ@?5?5created?5IMouseController?3?5?$CFs?5?$DN@ 000000018004fbe0     plugin_test1.obj
 0002:00003c08       ??_C@_07BANDPJOM@caption?$AA@ 000000018004fc08     plugin_test1.obj
 0002:00003c10       ??_C@_0CE@HACAKFFL@?5?5not?5created?5lib2d?3?3IRenderDriv@ 000000018004fc10     plugin_test1.obj
 0002:00003c38       ??_C@_0CK@INONFMOM@?5?5created?5lib2d?3?3IRenderDriver?3?5@ 000000018004fc38     plugin_test1.obj
 0002:00003c64       ??_C@_06NCODBMHO@driver?$AA@ 000000018004fc64     plugin_test1.obj
 0002:00003c6c       ??_C@_04EFPADHIC@font?$AA@ 000000018004fc6c     plugin_test1.obj
 0002:00003c78       ??_C@_0N@IGLHPLGK@?$CK?3?3frames?3?3?$CK?$AA@ 000000018004fc78     plugin_test1.obj
 0002:00003c88       ??_C@_05MIJNFGED@frame?$AA@ 000000018004fc88     plugin_test1.obj
 0002:00003c90       ??_C@_07OJKFJLLK@Caption?$AA@ 000000018004fc90     plugin_test1.obj
 0002:00003c98       ??_C@_08LLDNMFDF@Button?51?$AA@ 000000018004fc98     plugin_test1.obj
 0002:00003ca4       ??_C@_06HFKPFKMP@button?$AA@ 000000018004fca4     plugin_test1.obj
 0002:00003cb0       ??_C@_08JABAJGPG@Button?52?$AA@ 000000018004fcb0     plugin_test1.obj
 0002:00003cc0       ??_C@_08IJALKHLH@Button?53?$AA@ 000000018004fcc0     plugin_test1.obj
 0002:00003ccc       ??_C@_05MFEJDJP@value?$AA@ 000000018004fccc     plugin_test1.obj
 0002:00003cd8       ??_C@_07GFFCACEC@max_len?$AA@ 000000018004fcd8     plugin_test1.obj
 0002:00003ce0       ??_C@_04NABONMNG@edit?$AA@ 000000018004fce0     plugin_test1.obj
 0002:00003ce8       ??_C@_07PDLNCNLP@user_db?$AA@ 000000018004fce8     plugin_test1.obj
 0002:00003cf0       ??_C@_04DONFEANM@list?$AA@ 000000018004fcf0     plugin_test1.obj
 0002:00003cf8       ??_C@_0N@GBNMEDNI@?$CK?3?3SDL_GL?3?3?$CK?$AA@ 000000018004fcf8     plugin_test1.obj
 0002:00003d08       ??_C@_07EPLPNHLN@Test?5?$CD1?$AA@ 000000018004fd08     plugin_test1.obj
 0002:00003d10       ??_C@_0CK@DEJPICLK@UModSys?3?3modules?3?3test?3?3test1?3?3R@ 000000018004fd10     plugin_test1.obj
 0002:00003d40       ??_C@_0BJ@NOFIIAEK@U_MOD?3?3RGenerator?3unique?$AA@ 000000018004fd40     plugin_test1.obj
 0002:00003d60       ??_C@_0BA@NMEBLMNE@Test?51?5?9?5module?$AA@ 000000018004fd60     plugin_test1.obj
 0002:00003d70       ??_C@_0N@FOCLJAHI@tests?3?3test1?$AA@ 000000018004fd70     plugin_test1.obj
 0002:00003d80       ??_C@_0BE@HJEBHPIG@RModuleReg?3?3open?$CI?$CJ?6?$AA@ 000000018004fd80     plugin_test1.obj
 0002:00003d98       ??_C@_0BF@KIBBFLP@RModuleReg?3?3close?$CI?$CJ?6?$AA@ 000000018004fd98     plugin_test1.obj
 0002:00003db0       ??_C@_09JGNMLHG@modobject?$AA@ 000000018004fdb0     plugin_test1.obj
 0002:00003dc0       ??_C@_08FCBDOIAH@typeinfo?$AA@ 000000018004fdc0     plugin_test1.obj
 0002:00003dd0       ??_C@_0BI@HCJDLBPI@?5?5fail?5generate?5?$CFs?$CI?$CFs?$CJ?6?$AA@ 000000018004fdd0     plugin_test1.obj
 0002:00003de8       ??_C@_0BE@IGLAGOMC@?5?5fail?5find?5?$CFs?$CI?$CFs?$CJ?6?$AA@ 000000018004fde8     plugin_test1.obj
 0002:00003e00       ??_C@_0BK@IGGNHCDJ@?5?5generated?5?$CFs?$CI?$CFs?$CJ?5?$DN?$DO?5?$CFp?6?$AA@ 000000018004fe00     plugin_test1.obj
 0002:00003e28       ??_7IRoot@core@UModSys@@6B@ 000000018004fe28     plugin_test1.obj
 0002:00003e78       ??_7IRefObject@core@UModSys@@6B@ 000000018004fe78     plugin_test1.obj
 0002:00003ee8       ??_7RTest1_Shell@test1@test@modules@UModSys@@6BIShell@base@4@@ 000000018004fee8     plugin_test1.obj
 0002:00003f70       ??_7RTest1_Shell@test1@test@modules@UModSys@@6BIKeyboardClient@libui@4@@ 000000018004ff70     plugin_test1.obj
 0002:00003f88       ??_7RTest1_Shell@test1@test@modules@UModSys@@6BIMouseClient@libui@4@@ 000000018004ff88     plugin_test1.obj
 0002:00003f98       ??_7RTest1_Shell@test1@test@modules@UModSys@@6BIControllerCommand@libui@4@@ 000000018004ff98     plugin_test1.obj
 0002:00003fb0       ??_7RTest1_Shell@test1@test@modules@UModSys@@6BIControllerData@libui@4@@ 000000018004ffb0     plugin_test1.obj
 0002:00003fc8       ??_7RGenerator@test1@test@modules@UModSys@@6B@ 000000018004ffc8     plugin_test1.obj
 0002:00004068       ??_7RModuleReg@test1@test@modules@UModSys@@6B@ 0000000180050068     plugin_test1.obj
 0002:000040a0       ??_C@_0CP@CHDLGDD@UModSys?3?3modules?3?3lib2d?3?3stdlib?3@ 00000001800500a0     umodsys_lib_lib2d:umodsys.mod.2d.stdlib.obj
 0002:000040d0       ??_C@_0DG@PPDKDFEE@UModSys?3?3modules?3?3lib2d?3?3stdlib?3@ 00000001800500d0     umodsys_lib_lib2d:umodsys.mod.2d.stdlib.obj
 0002:00004108       ??_C@_0CN@LGOPIGAH@UModSys?3?3modules?3?3lib2d?3?3stdlib?3@ 0000000180050108     umodsys_lib_lib2d:umodsys.mod.2d.stdlib.obj
 0002:00004138       ??_C@_0CM@EIHKIMB@UModSys?3?3modules?3?3lib2d?3?3stdlib?3@ 0000000180050138     umodsys_lib_lib2d:umodsys.mod.2d.stdlib.obj
 0002:00004168       ??_C@_0O@ICMHAMOO@lib2d?3?3stdlib?$AA@ 0000000180050168     umodsys_lib_lib2d:umodsys.mod.2d.stdlib.obj
 0002:00004188       ??_7RGenerator@stdlib@lib2d@modules@UModSys@@6B@ 0000000180050188     umodsys_lib_lib2d:umodsys.mod.2d.stdlib.obj
 0002:00004228       ??_7RImage_Memory@stdlib@lib2d@modules@UModSys@@6B@ 0000000180050228     umodsys_lib_lib2d:umodsys.mod.2d.stdlib.obj
 0002:000042c8       ??_7RImageFactory_Memory@stdlib@lib2d@modules@UModSys@@6B@ 00000001800502c8     umodsys_lib_lib2d:umodsys.mod.2d.stdlib.obj
 0002:00004348       ??_7RMultiImage@stdlib@lib2d@modules@UModSys@@6B@ 0000000180050348     umodsys_lib_lib2d:umodsys.mod.2d.stdlib.obj
 0002:00004418       ??_7RModuleReg@stdlib@lib2d@modules@UModSys@@6B@ 0000000180050418     umodsys_lib_lib2d:umodsys.mod.2d.stdlib.obj
 0002:00004450       ??_C@_07NBCGADJA@Unknown?$AA@ 0000000180050450     umodsys_lib_libui:umodsys.mod.ui.SDL_GL.obj
 0002:00004458       ??_C@_04HMPDNAFK@Draw?$AA@ 0000000180050458     umodsys_lib_libui:umodsys.mod.ui.SDL_GL.obj
 0002:00004460       ??_C@_02LDEEJNBC@2D?$AA@   0000000180050460     umodsys_lib_libui:umodsys.mod.ui.SDL_GL.obj
 0002:00004464       ??_C@_02LCIGPHCF@3D?$AA@   0000000180050464     umodsys_lib_libui:umodsys.mod.ui.SDL_GL.obj
 0002:00004468       ??_C@_03DBKJMAGF@End?$AA@  0000000180050468     umodsys_lib_libui:umodsys.mod.ui.SDL_GL.obj
 0002:0000446c       ??_C@_05EHPGHEDK@Begin?$AA@ 000000018005046c     umodsys_lib_libui:umodsys.mod.ui.SDL_GL.obj
 0002:00004474       ??_C@_05NAOIJFC@Error?$AA@ 0000000180050474     umodsys_lib_libui:umodsys.mod.ui.SDL_GL.obj
 0002:0000447c       ??_C@_04OHJIHAFH@None?$AA@ 000000018005047c     umodsys_lib_libui:umodsys.mod.ui.SDL_GL.obj
 0002:00004488       ??_C@_0DC@EKNFHMCM@UModSys?3?3modules?3?3ui?3?3SDL_GL?3?3RK@ 0000000180050488     umodsys_lib_libui:umodsys.mod.ui.SDL_GL.obj
 0002:000044c0       ??_C@_0CP@COIDJLOH@UModSys?3?3modules?3?3ui?3?3SDL_GL?3?3RM@ 00000001800504c0     umodsys_lib_libui:umodsys.mod.ui.SDL_GL.obj
 0002:000044f0       ??_C@_0CI@JIGCCNFP@UModSys?3?3modules?3?3ui?3?3SDL_GL?3?3RT@ 00000001800504f0     umodsys_lib_libui:umodsys.mod.ui.SDL_GL.obj
 0002:00004518       ??_C@_0DE@FLBPCDKD@UModSys?3?3modules?3?3ui?3?3SDL_GL?3?3RM@ 0000000180050518     umodsys_lib_libui:umodsys.mod.ui.SDL_GL.obj
 0002:00004550       ??_C@_0CO@EABOMHEJ@UModSys?3?3modules?3?3ui?3?3SDL_GL?3?3RR@ 0000000180050550     umodsys_lib_libui:umodsys.mod.ui.SDL_GL.obj
 0002:00004580       ??_C@_0CJ@IJCOPJBE@UModSys?3?3modules?3?3ui?3?3SDL_GL?3?3RT@ 0000000180050580     umodsys_lib_libui:umodsys.mod.ui.SDL_GL.obj
 0002:000045b0       ??_C@_0CL@PFCNMCOK@UModSys?3?3modules?3?3ui?3?3SDL_GL?3?3RV@ 00000001800505b0     umodsys_lib_libui:umodsys.mod.ui.SDL_GL.obj
 0002:000045e0       ??_C@_0CJ@LMOHBJKJ@UModSys?3?3modules?3?3ui?3?3SDL_GL?3?3RG@ 00000001800505e0     umodsys_lib_libui:umodsys.mod.ui.SDL_GL.obj
 0002:0000460c       ??_C@_04MGOIFCEG@SDL2?$AA@ 000000018005060c     umodsys_lib_libui:umodsys.mod.ui.SDL_GL.obj
 0002:00004614       ??_C@_01FJMABOPO@x?$AA@    0000000180050614     umodsys_lib_libui:umodsys.mod.ui.SDL_GL.obj
 0002:00004618       ??_C@_01EANLCPLP@y?$AA@    0000000180050618     umodsys_lib_libui:umodsys.mod.ui.SDL_GL.obj
 0002:0000461c       ??_C@_02KIIGLGOP@dx?$AA@   000000018005061c     umodsys_lib_libui:umodsys.mod.ui.SDL_GL.obj
 0002:00004620       ??_C@_04IAGNFIBA@size?$AA@ 0000000180050620     umodsys_lib_libui:umodsys.mod.ui.SDL_GL.obj
 0002:00004628       ??_C@_07CMIMECFO@xoffset?$AA@ 0000000180050628     umodsys_lib_libui:umodsys.mod.ui.SDL_GL.obj
 0002:00004630       ??_C@_07OACGECMA@yoffset?$AA@ 0000000180050630     umodsys_lib_libui:umodsys.mod.ui.SDL_GL.obj
 0002:00004638       ??_C@_05IGKADHGO@width?$AA@ 0000000180050638     umodsys_lib_libui:umodsys.mod.ui.SDL_GL.obj
 0002:00004640       ??_C@_06LNLHEAAG@height?$AA@ 0000000180050640     umodsys_lib_libui:umodsys.mod.ui.SDL_GL.obj
 0002:00004648       ??_C@_0CI@PICFILMJ@R3D?3?3?5can?8t?5go?5phase?5from?5?$FL?$CFs?$FN?5t@ 0000000180050648     umodsys_lib_libui:umodsys.mod.ui.SDL_GL.obj
 0002:00004670       ??_C@_0CK@CDAHJFJI@R3D?3?3?5can?8t?5use?5phase?5?$FL?$CFs?$FN?0?5requ@ 0000000180050670     umodsys_lib_libui:umodsys.mod.ui.SDL_GL.obj
 0002:0000469c       ??_C@_04MDCOKCOB@?4ttf?$AA@ 000000018005069c     umodsys_lib_libui:umodsys.mod.ui.SDL_GL.obj
 0002:000046a8       ??_C@_0P@EFLGECIK@GL_VERSION_1_0?$AA@ 00000001800506a8     umodsys_lib_libui:umodsys.mod.ui.SDL_GL.obj
 0002:000046b8       ??_C@_0M@PFBKOKOH@glBlendFunc?$AA@ 00000001800506b8     umodsys_lib_libui:umodsys.mod.ui.SDL_GL.obj
 0002:000046c8       ??_C@_0BC@HIGLIOCP@Error?5link?5?8?$CFs?8?4?6?$AA@ 00000001800506c8     umodsys_lib_libui:umodsys.mod.ui.SDL_GL.obj
 0002:000046e0       ??_C@_07IBAPPAHJ@glClear?$AA@ 00000001800506e0     umodsys_lib_libui:umodsys.mod.ui.SDL_GL.obj
 0002:000046e8       ??_C@_0N@OGLMDNKC@glClearColor?$AA@ 00000001800506e8     umodsys_lib_libui:umodsys.mod.ui.SDL_GL.obj
 0002:000046f8       ??_C@_0N@LJIELNG@glClearDepth?$AA@ 00000001800506f8     umodsys_lib_libui:umodsys.mod.ui.SDL_GL.obj
 0002:00004708       ??_C@_0P@KBLPBBFP@glClearStencil?$AA@ 0000000180050708     umodsys_lib_libui:umodsys.mod.ui.SDL_GL.obj
 0002:00004718       ??_C@_0M@DLGOAHPH@glColorMask?$AA@ 0000000180050718     umodsys_lib_libui:umodsys.mod.ui.SDL_GL.obj
 0002:00004728       ??_C@_0L@BAPBLHME@glCullFace?$AA@ 0000000180050728     umodsys_lib_libui:umodsys.mod.ui.SDL_GL.obj
 0002:00004738       ??_C@_0M@NEJABAEP@glDepthFunc?$AA@ 0000000180050738     umodsys_lib_libui:umodsys.mod.ui.SDL_GL.obj
 0002:00004748       ??_C@_0M@KABMFLLN@glDepthMask?$AA@ 0000000180050748     umodsys_lib_libui:umodsys.mod.ui.SDL_GL.obj
 0002:00004758       ??_C@_0N@PEBDIKOA@glDepthRange?$AA@ 0000000180050758     umodsys_lib_libui:umodsys.mod.ui.SDL_GL.obj
 0002:00004768       ??_C@_09MHGMIMKN@glDisable?$AA@ 0000000180050768     umodsys_lib_libui:umodsys.mod.ui.SDL_GL.obj
 0002:00004778       ??_C@_0N@EKCLGPL@glDrawBuffer?$AA@ 0000000180050778     umodsys_lib_libui:umodsys.mod.ui.SDL_GL.obj
 0002:00004788       ??_C@_08OOEHEKOP@glEnable?$AA@ 0000000180050788     umodsys_lib_libui:umodsys.mod.ui.SDL_GL.obj
 0002:00004798       ??_C@_08DFCPOKBK@glFinish?$AA@ 0000000180050798     umodsys_lib_libui:umodsys.mod.ui.SDL_GL.obj
 0002:000047a8       ??_C@_07COFELLJA@glFlush?$AA@ 00000001800507a8     umodsys_lib_libui:umodsys.mod.ui.SDL_GL.obj
 0002:000047b0       ??_C@_0M@ILBMDJDA@glFrontFace?$AA@ 00000001800507b0     umodsys_lib_libui:umodsys.mod.ui.SDL_GL.obj
 0002:000047c0       ??_C@_0O@NLMELLCJ@glGetBooleanv?$AA@ 00000001800507c0     umodsys_lib_libui:umodsys.mod.ui.SDL_GL.obj
 0002:000047d0       ??_C@_0N@OFBMMCDH@glGetDoublev?$AA@ 00000001800507d0     umodsys_lib_libui:umodsys.mod.ui.SDL_GL.obj
 0002:000047e0       ??_C@_0L@FPKAMKHB@glGetError?$AA@ 00000001800507e0     umodsys_lib_libui:umodsys.mod.ui.SDL_GL.obj
 0002:000047f0       ??_C@_0M@CKCOBONE@glGetFloatv?$AA@ 00000001800507f0     umodsys_lib_libui:umodsys.mod.ui.SDL_GL.obj
 0002:00004800       ??_C@_0O@DHHDCCLF@glGetIntegerv?$AA@ 0000000180050800     umodsys_lib_libui:umodsys.mod.ui.SDL_GL.obj
 0002:00004810       ??_C@_0M@OPOBFDCB@glGetString?$AA@ 0000000180050810     umodsys_lib_libui:umodsys.mod.ui.SDL_GL.obj
 0002:00004820       ??_C@_0O@DOIIJLAD@glGetTexImage?$AA@ 0000000180050820     umodsys_lib_libui:umodsys.mod.ui.SDL_GL.obj
 0002:00004830       ??_C@_0BJ@GAMLGIFF@glGetTexLevelParameterfv?$AA@ 0000000180050830     umodsys_lib_libui:umodsys.mod.ui.SDL_GL.obj
 0002:00004850       ??_C@_0BJ@GLJHCPGI@glGetTexLevelParameteriv?$AA@ 0000000180050850     umodsys_lib_libui:umodsys.mod.ui.SDL_GL.obj
 0002:00004870       ??_C@_0BE@DNHBPKMC@glGetTexParameterfv?$AA@ 0000000180050870     umodsys_lib_libui:umodsys.mod.ui.SDL_GL.obj
 0002:00004888       ??_C@_0BE@DGCNLNPP@glGetTexParameteriv?$AA@ 0000000180050888     umodsys_lib_libui:umodsys.mod.ui.SDL_GL.obj
 0002:0000489c       ??_C@_06HEADGMBC@glHint?$AA@ 000000018005089c     umodsys_lib_libui:umodsys.mod.ui.SDL_GL.obj
 0002:000048a8       ??_C@_0M@INHMIHKC@glIsEnabled?$AA@ 00000001800508a8     umodsys_lib_libui:umodsys.mod.ui.SDL_GL.obj
 0002:000048b8       ??_C@_0M@CFLGNFPG@glLineWidth?$AA@ 00000001800508b8     umodsys_lib_libui:umodsys.mod.ui.SDL_GL.obj
 0002:000048c8       ??_C@_09GKGMNAKG@glLogicOp?$AA@ 00000001800508c8     umodsys_lib_libui:umodsys.mod.ui.SDL_GL.obj
 0002:000048d8       ??_C@_0O@BFLAHHCK@glPixelStoref?$AA@ 00000001800508d8     umodsys_lib_libui:umodsys.mod.ui.SDL_GL.obj
 0002:000048e8       ??_C@_0O@JCCIGLOF@glPixelStorei?$AA@ 00000001800508e8     umodsys_lib_libui:umodsys.mod.ui.SDL_GL.obj
 0002:000048f8       ??_C@_0M@EEAPMMNM@glPointSize?$AA@ 00000001800508f8     umodsys_lib_libui:umodsys.mod.ui.SDL_GL.obj
 0002:00004908       ??_C@_0O@DKMNBFMB@glPolygonMode?$AA@ 0000000180050908     umodsys_lib_libui:umodsys.mod.ui.SDL_GL.obj
 0002:00004918       ??_C@_0N@HFKHBECK@glReadBuffer?$AA@ 0000000180050918     umodsys_lib_libui:umodsys.mod.ui.SDL_GL.obj
 0002:00004928       ??_C@_0N@CKFNNHOO@glReadPixels?$AA@ 0000000180050928     umodsys_lib_libui:umodsys.mod.ui.SDL_GL.obj
 0002:00004938       ??_C@_09ECGPAEPL@glScissor?$AA@ 0000000180050938     umodsys_lib_libui:umodsys.mod.ui.SDL_GL.obj
 0002:00004948       ??_C@_0O@ENNLLOLN@glStencilFunc?$AA@ 0000000180050948     umodsys_lib_libui:umodsys.mod.ui.SDL_GL.obj
 0002:00004958       ??_C@_0O@DJFHPFEP@glStencilMask?$AA@ 0000000180050958     umodsys_lib_libui:umodsys.mod.ui.SDL_GL.obj
 0002:00004968       ??_C@_0M@BILBNGF@glStencilOp?$AA@ 0000000180050968     umodsys_lib_libui:umodsys.mod.ui.SDL_GL.obj
 0002:00004978       ??_C@_0N@JDMMMFHL@glTexImage1D?$AA@ 0000000180050978     umodsys_lib_libui:umodsys.mod.ui.SDL_GL.obj
 0002:00004988       ??_C@_0N@JBIKHLCC@glTexImage2D?$AA@ 0000000180050988     umodsys_lib_libui:umodsys.mod.ui.SDL_GL.obj
 0002:00004998       ??_C@_0BA@INKFIMGP@glTexParameterf?$AA@ 0000000180050998     umodsys_lib_libui:umodsys.mod.ui.SDL_GL.obj
 0002:000049a8       ??_C@_0BB@KEOFAHDF@glTexParameterfv?$AA@ 00000001800509a8     umodsys_lib_libui:umodsys.mod.ui.SDL_GL.obj
 0002:000049c0       ??_C@_0BA@KDNJAKA@glTexParameteri?$AA@ 00000001800509c0     umodsys_lib_libui:umodsys.mod.ui.SDL_GL.obj
 0002:000049d0       ??_C@_0BB@KPLJEAAI@glTexParameteriv?$AA@ 00000001800509d0     umodsys_lib_libui:umodsys.mod.ui.SDL_GL.obj
 0002:000049e8       ??_C@_0L@KBLIPDFH@glViewport?$AA@ 00000001800509e8     umodsys_lib_libui:umodsys.mod.ui.SDL_GL.obj
 0002:000049f8       ??_C@_0P@FMKNHDML@GL_VERSION_1_1?$AA@ 00000001800509f8     umodsys_lib_libui:umodsys.mod.ui.SDL_GL.obj
 0002:00004a08       ??_C@_0O@JKKCIBGC@glBindTexture?$AA@ 0000000180050a08     umodsys_lib_libui:umodsys.mod.ui.SDL_GL.obj
 0002:00004a18       ??_C@_0BB@MEEDBHPL@glCopyTexImage1D?$AA@ 0000000180050a18     umodsys_lib_libui:umodsys.mod.ui.SDL_GL.obj
 0002:00004a30       ??_C@_0BB@MGAFKJKC@glCopyTexImage2D?$AA@ 0000000180050a30     umodsys_lib_libui:umodsys.mod.ui.SDL_GL.obj
 0002:00004a48       ??_C@_0BE@PKNCAIGI@glCopyTexSubImage1D?$AA@ 0000000180050a48     umodsys_lib_libui:umodsys.mod.ui.SDL_GL.obj
 0002:00004a60       ??_C@_0BE@PIJELGDB@glCopyTexSubImage2D?$AA@ 0000000180050a60     umodsys_lib_libui:umodsys.mod.ui.SDL_GL.obj
 0002:00004a78       ??_C@_0BB@KMPLFJIC@glDeleteTextures?$AA@ 0000000180050a78     umodsys_lib_libui:umodsys.mod.ui.SDL_GL.obj
 0002:00004a90       ??_C@_0N@CMNPPOHA@glDrawArrays?$AA@ 0000000180050a90     umodsys_lib_libui:umodsys.mod.ui.SDL_GL.obj
 0002:00004aa0       ??_C@_0P@MENFIFGE@glDrawElements?$AA@ 0000000180050aa0     umodsys_lib_libui:umodsys.mod.ui.SDL_GL.obj
 0002:00004ab0       ??_C@_0O@LLMANLNK@glGenTextures?$AA@ 0000000180050ab0     umodsys_lib_libui:umodsys.mod.ui.SDL_GL.obj
 0002:00004ac0       ??_C@_0M@NJHAEPDN@glIsTexture?$AA@ 0000000180050ac0     umodsys_lib_libui:umodsys.mod.ui.SDL_GL.obj
 0002:00004ad0       ??_C@_0BA@FFBJGNC@glPolygonOffset?$AA@ 0000000180050ad0     umodsys_lib_libui:umodsys.mod.ui.SDL_GL.obj
 0002:00004ae0       ??_C@_0BA@NFOOCKJD@glTexSubImage1D?$AA@ 0000000180050ae0     umodsys_lib_libui:umodsys.mod.ui.SDL_GL.obj
 0002:00004af0       ??_C@_0BA@NHKIJEMK@glTexSubImage2D?$AA@ 0000000180050af0     umodsys_lib_libui:umodsys.mod.ui.SDL_GL.obj
 0002:00004b00       ??_C@_0P@HHIACAAI@GL_VERSION_1_2?$AA@ 0000000180050b00     umodsys_lib_libui:umodsys.mod.ui.SDL_GL.obj
 0002:00004b10       ??_C@_0BE@PJFGNMAG@glCopyTexSubImage3D?$AA@ 0000000180050b10     umodsys_lib_libui:umodsys.mod.ui.SDL_GL.obj
 0002:00004b28       ??_C@_0BE@IHNAGJGJ@glDrawRangeElements?$AA@ 0000000180050b28     umodsys_lib_libui:umodsys.mod.ui.SDL_GL.obj
 0002:00004b40       ??_C@_0N@JAEIBBBF@glTexImage3D?$AA@ 0000000180050b40     umodsys_lib_libui:umodsys.mod.ui.SDL_GL.obj
 0002:00004b50       ??_C@_0BA@NGGKPOPN@glTexSubImage3D?$AA@ 0000000180050b50     umodsys_lib_libui:umodsys.mod.ui.SDL_GL.obj
 0002:00004b60       ??_C@_0P@GOJLBBEJ@GL_VERSION_1_3?$AA@ 0000000180050b60     umodsys_lib_libui:umodsys.mod.ui.SDL_GL.obj
 0002:00004b70       ??_C@_0BA@KOBBIKOF@glActiveTexture?$AA@ 0000000180050b70     umodsys_lib_libui:umodsys.mod.ui.SDL_GL.obj
 0002:00004b80       ??_C@_0BH@GFPJBEAB@glCompressedTexImage1D?$AA@ 0000000180050b80     umodsys_lib_libui:umodsys.mod.ui.SDL_GL.obj
 0002:00004b98       ??_C@_0BH@GHLPKKFI@glCompressedTexImage2D?$AA@ 0000000180050b98     umodsys_lib_libui:umodsys.mod.ui.SDL_GL.obj
 0002:00004bb0       ??_C@_0BH@GGHNMAGP@glCompressedTexImage3D?$AA@ 0000000180050bb0     umodsys_lib_libui:umodsys.mod.ui.SDL_GL.obj
 0002:00004bc8       ??_C@_0BK@ECBIPHJO@glCompressedTexSubImage1D?$AA@ 0000000180050bc8     umodsys_lib_libui:umodsys.mod.ui.SDL_GL.obj
 0002:00004be8       ??_C@_0BK@EAFOEJMH@glCompressedTexSubImage2D?$AA@ 0000000180050be8     umodsys_lib_libui:umodsys.mod.ui.SDL_GL.obj
 0002:00004c08       ??_C@_0BK@EBJMCDPA@glCompressedTexSubImage3D?$AA@ 0000000180050c08     umodsys_lib_libui:umodsys.mod.ui.SDL_GL.obj
 0002:00004c28       ??_C@_0BI@MPANLPPL@glGetCompressedTexImage?$AA@ 0000000180050c28     umodsys_lib_libui:umodsys.mod.ui.SDL_GL.obj
 0002:00004c40       ??_C@_0BB@BJGIPMOA@glSampleCoverage?$AA@ 0000000180050c40     umodsys_lib_libui:umodsys.mod.ui.SDL_GL.obj
 0002:00004c58       ??_C@_0P@CBNKIHIO@GL_VERSION_1_4?$AA@ 0000000180050c58     umodsys_lib_libui:umodsys.mod.ui.SDL_GL.obj
 0002:00004c68       ??_C@_0N@PKBMFJDK@glBlendColor?$AA@ 0000000180050c68     umodsys_lib_libui:umodsys.mod.ui.SDL_GL.obj
 0002:00004c78       ??_C@_0BA@PFHILPAN@glBlendEquation?$AA@ 0000000180050c78     umodsys_lib_libui:umodsys.mod.ui.SDL_GL.obj
 0002:00004c88       ??_C@_0BE@LLLCIIOO@glBlendFuncSeparate?$AA@ 0000000180050c88     umodsys_lib_libui:umodsys.mod.ui.SDL_GL.obj
 0002:00004ca0       ??_C@_0BC@IBABPJFA@glMultiDrawArrays?$AA@ 0000000180050ca0     umodsys_lib_libui:umodsys.mod.ui.SDL_GL.obj
 0002:00004cb8       ??_C@_0BE@MPDFJJLL@glMultiDrawElements?$AA@ 0000000180050cb8     umodsys_lib_libui:umodsys.mod.ui.SDL_GL.obj
 0002:00004cd0       ??_C@_0BC@FGOOEDO@glPointParameterf?$AA@ 0000000180050cd0     umodsys_lib_libui:umodsys.mod.ui.SDL_GL.obj
 0002:00004ce8       ??_C@_0BD@LIABKNDP@glPointParameterfv?$AA@ 0000000180050ce8     umodsys_lib_libui:umodsys.mod.ui.SDL_GL.obj
 0002:00004d00       ??_C@_0BC@ICPGPIPB@glPointParameteri?$AA@ 0000000180050d00     umodsys_lib_libui:umodsys.mod.ui.SDL_GL.obj
 0002:00004d18       ??_C@_0BD@LDFNOKAC@glPointParameteriv?$AA@ 0000000180050d18     umodsys_lib_libui:umodsys.mod.ui.SDL_GL.obj
 0002:00004d30       ??_C@_0P@DIMBLGMP@GL_VERSION_1_5?$AA@ 0000000180050d30     umodsys_lib_libui:umodsys.mod.ui.SDL_GL.obj
 0002:00004d40       ??_C@_0N@GIAGIGPA@glBeginQuery?$AA@ 0000000180050d40     umodsys_lib_libui:umodsys.mod.ui.SDL_GL.obj
 0002:00004d50       ??_C@_0N@BONEPPLO@glBindBuffer?$AA@ 0000000180050d50     umodsys_lib_libui:umodsys.mod.ui.SDL_GL.obj
 0002:00004d60       ??_C@_0N@JHHJMABP@glBufferData?$AA@ 0000000180050d60     umodsys_lib_libui:umodsys.mod.ui.SDL_GL.obj
 0002:00004d70       ??_C@_0BA@GAJMDBBN@glBufferSubData?$AA@ 0000000180050d70     umodsys_lib_libui:umodsys.mod.ui.SDL_GL.obj
 0002:00004d80       ??_C@_0BA@DMNLADIO@glDeleteBuffers?$AA@ 0000000180050d80     umodsys_lib_libui:umodsys.mod.ui.SDL_GL.obj
 0002:00004d90       ??_C@_0BA@IOKEHMOH@glDeleteQueries?$AA@ 0000000180050d90     umodsys_lib_libui:umodsys.mod.ui.SDL_GL.obj
 0002:00004da0       ??_C@_0L@FLEBHIDM@glEndQuery?$AA@ 0000000180050da0     umodsys_lib_libui:umodsys.mod.ui.SDL_GL.obj
 0002:00004db0       ??_C@_0N@LAOHBIBA@glGenBuffers?$AA@ 0000000180050db0     umodsys_lib_libui:umodsys.mod.ui.SDL_GL.obj
 0002:00004dc0       ??_C@_0N@CJIGHHJ@glGenQueries?$AA@ 0000000180050dc0     umodsys_lib_libui:umodsys.mod.ui.SDL_GL.obj
 0002:00004dd0       ??_C@_0BH@BMIEIFJP@glGetBufferParameteriv?$AA@ 0000000180050dd0     umodsys_lib_libui:umodsys.mod.ui.SDL_GL.obj
 0002:00004de8       ??_C@_0BE@KNJEIFMC@glGetBufferPointerv?$AA@ 0000000180050de8     umodsys_lib_libui:umodsys.mod.ui.SDL_GL.obj
 0002:00004e00       ??_C@_0BD@PNDAHMBO@glGetBufferSubData?$AA@ 0000000180050e00     umodsys_lib_libui:umodsys.mod.ui.SDL_GL.obj
 0002:00004e18       ??_C@_0BD@KMBBCJID@glGetQueryObjectiv?$AA@ 0000000180050e18     umodsys_lib_libui:umodsys.mod.ui.SDL_GL.obj
 0002:00004e30       ??_C@_0BE@MNBBKJ@glGetQueryObjectuiv?$AA@ 0000000180050e30     umodsys_lib_libui:umodsys.mod.ui.SDL_GL.obj
 0002:00004e48       ??_C@_0N@BPACPFCI@glGetQueryiv?$AA@ 0000000180050e48     umodsys_lib_libui:umodsys.mod.ui.SDL_GL.obj
 0002:00004e58       ??_C@_0L@KFPDMKNG@glIsBuffer?$AA@ 0000000180050e58     umodsys_lib_libui:umodsys.mod.ui.SDL_GL.obj
 0002:00004e68       ??_C@_09CNNLCEBN@glIsQuery?$AA@ 0000000180050e68     umodsys_lib_libui:umodsys.mod.ui.SDL_GL.obj
 0002:00004e78       ??_C@_0M@NNHDPACA@glMapBuffer?$AA@ 0000000180050e78     umodsys_lib_libui:umodsys.mod.ui.SDL_GL.obj
 0002:00004e88       ??_C@_0O@OFGHBLEO@glUnmapBuffer?$AA@ 0000000180050e88     umodsys_lib_libui:umodsys.mod.ui.SDL_GL.obj
 0002:00004e98       ??_C@_0P@FHADONGE@GL_VERSION_2_0?$AA@ 0000000180050e98     umodsys_lib_libui:umodsys.mod.ui.SDL_GL.obj
 0002:00004ea8       ??_C@_0P@LDMLEABL@glAttachShader?$AA@ 0000000180050ea8     umodsys_lib_libui:umodsys.mod.ui.SDL_GL.obj
 0002:00004eb8       ??_C@_0BF@MHKEFIHM@glBindAttribLocation?$AA@ 0000000180050eb8     umodsys_lib_libui:umodsys.mod.ui.SDL_GL.obj
 0002:00004ed0       ??_C@_0BI@JNHDNJAG@glBlendEquationSeparate?$AA@ 0000000180050ed0     umodsys_lib_libui:umodsys.mod.ui.SDL_GL.obj
 0002:00004ee8       ??_C@_0BA@DGIEGONF@glCompileShader?$AA@ 0000000180050ee8     umodsys_lib_libui:umodsys.mod.ui.SDL_GL.obj
 0002:00004ef8       ??_C@_0BA@FLKLHNKP@glCreateProgram?$AA@ 0000000180050ef8     umodsys_lib_libui:umodsys.mod.ui.SDL_GL.obj
 0002:00004f08       ??_C@_0P@HGHBNC@glCreateShader?$AA@ 0000000180050f08     umodsys_lib_libui:umodsys.mod.ui.SDL_GL.obj
 0002:00004f18       ??_C@_0BA@NKGCDOPO@glDeleteProgram?$AA@ 0000000180050f18     umodsys_lib_libui:umodsys.mod.ui.SDL_GL.obj
 0002:00004f28       ??_C@_0P@HHCDONAG@glDeleteShader?$AA@ 0000000180050f28     umodsys_lib_libui:umodsys.mod.ui.SDL_GL.obj
 0002:00004f38       ??_C@_0P@DJFJFCJL@glDetachShader?$AA@ 0000000180050f38     umodsys_lib_libui:umodsys.mod.ui.SDL_GL.obj
 0002:00004f48       ??_C@_0BL@NKHLOFFF@glDisableVertexAttribArray?$AA@ 0000000180050f48     umodsys_lib_libui:umodsys.mod.ui.SDL_GL.obj
 0002:00004f68       ??_C@_0O@COHJKDBH@glDrawBuffers?$AA@ 0000000180050f68     umodsys_lib_libui:umodsys.mod.ui.SDL_GL.obj
 0002:00004f78       ??_C@_0BK@EHBAHNHE@glEnableVertexAttribArray?$AA@ 0000000180050f78     umodsys_lib_libui:umodsys.mod.ui.SDL_GL.obj
 0002:00004f98       ??_C@_0BC@MBALAOHF@glGetActiveAttrib?$AA@ 0000000180050f98     umodsys_lib_libui:umodsys.mod.ui.SDL_GL.obj
 0002:00004fb0       ??_C@_0BD@NIMHLLKN@glGetActiveUniform?$AA@ 0000000180050fb0     umodsys_lib_libui:umodsys.mod.ui.SDL_GL.obj
 0002:00004fc8       ??_C@_0BF@GHMDGFEM@glGetAttachedShaders?$AA@ 0000000180050fc8     umodsys_lib_libui:umodsys.mod.ui.SDL_GL.obj
 0002:00004fe0       ??_C@_0BE@BEPGJDMM@glGetAttribLocation?$AA@ 0000000180050fe0     umodsys_lib_libui:umodsys.mod.ui.SDL_GL.obj
 0002:00004ff8       ??_C@_0BE@DHGHAJFL@glGetProgramInfoLog?$AA@ 0000000180050ff8     umodsys_lib_libui:umodsys.mod.ui.SDL_GL.obj
 0002:00005010       ??_C@_0P@FMMDFLCO@glGetProgramiv?$AA@ 0000000180051010     umodsys_lib_libui:umodsys.mod.ui.SDL_GL.obj
 0002:00005020       ??_C@_0BD@GIABBCMO@glGetShaderInfoLog?$AA@ 0000000180051020     umodsys_lib_libui:umodsys.mod.ui.SDL_GL.obj
 0002:00005038       ??_C@_0BC@ELEIFJEL@glGetShaderSource?$AA@ 0000000180051038     umodsys_lib_libui:umodsys.mod.ui.SDL_GL.obj
 0002:00005050       ??_C@_0O@JBDFPDMG@glGetShaderiv?$AA@ 0000000180051050     umodsys_lib_libui:umodsys.mod.ui.SDL_GL.obj
 0002:00005060       ??_C@_0BF@KIOPGICP@glGetUniformLocation?$AA@ 0000000180051060     umodsys_lib_libui:umodsys.mod.ui.SDL_GL.obj
 0002:00005078       ??_C@_0P@DFCJIBG@glGetUniformfv?$AA@ 0000000180051078     umodsys_lib_libui:umodsys.mod.ui.SDL_GL.obj
 0002:00005088       ??_C@_0P@IAONPCL@glGetUniformiv?$AA@ 0000000180051088     umodsys_lib_libui:umodsys.mod.ui.SDL_GL.obj
 0002:00005098       ??_C@_0BK@DOJMENLD@glGetVertexAttribPointerv?$AA@ 0000000180051098     umodsys_lib_libui:umodsys.mod.ui.SDL_GL.obj
 0002:000050b8       ??_C@_0BE@HDPMJMIN@glGetVertexAttribdv?$AA@ 00000001800510b8     umodsys_lib_libui:umodsys.mod.ui.SDL_GL.obj
 0002:000050d0       ??_C@_0BE@HAHIEIOD@glGetVertexAttribfv?$AA@ 00000001800510d0     umodsys_lib_libui:umodsys.mod.ui.SDL_GL.obj
 0002:000050e8       ??_C@_0BE@HLCEAPNO@glGetVertexAttribiv?$AA@ 00000001800510e8     umodsys_lib_libui:umodsys.mod.ui.SDL_GL.obj
 0002:00005100       ??_C@_0M@INLOJDGO@glIsProgram?$AA@ 0000000180051100     umodsys_lib_libui:umodsys.mod.ui.SDL_GL.obj
 0002:00005110       ??_C@_0L@MDDLFIHC@glIsShader?$AA@ 0000000180051110     umodsys_lib_libui:umodsys.mod.ui.SDL_GL.obj
 0002:00005120       ??_C@_0O@PIOEEBPO@glLinkProgram?$AA@ 0000000180051120     umodsys_lib_libui:umodsys.mod.ui.SDL_GL.obj
 0002:00005130       ??_C@_0P@DFHCPFMO@glShaderSource?$AA@ 0000000180051130     umodsys_lib_libui:umodsys.mod.ui.SDL_GL.obj
 0002:00005140       ??_C@_0BG@FCMNCEIA@glStencilFuncSeparate?$AA@ 0000000180051140     umodsys_lib_libui:umodsys.mod.ui.SDL_GL.obj
 0002:00005158       ??_C@_0BG@MMKPIEJI@glStencilMaskSeparate?$AA@ 0000000180051158     umodsys_lib_libui:umodsys.mod.ui.SDL_GL.obj
 0002:00005170       ??_C@_0BE@GAPLDNGF@glStencilOpSeparate?$AA@ 0000000180051170     umodsys_lib_libui:umodsys.mod.ui.SDL_GL.obj
 0002:00005188       ??_C@_0M@MLICAPOF@glUniform1f?$AA@ 0000000180051188     umodsys_lib_libui:umodsys.mod.ui.SDL_GL.obj
 0002:00005198       ??_C@_0N@KJMOEKII@glUniform1fv?$AA@ 0000000180051198     umodsys_lib_libui:umodsys.mod.ui.SDL_GL.obj
 0002:000051a8       ??_C@_0M@EMBKBDCK@glUniform1i?$AA@ 00000001800511a8     umodsys_lib_libui:umodsys.mod.ui.SDL_GL.obj
 0002:000051b8       ??_C@_0N@KCJCANLF@glUniform1iv?$AA@ 00000001800511b8     umodsys_lib_libui:umodsys.mod.ui.SDL_GL.obj
 0002:000051c8       ??_C@_0M@MJMELBLM@glUniform2f?$AA@ 00000001800511c8     umodsys_lib_libui:umodsys.mod.ui.SDL_GL.obj
 0002:000051d8       ??_C@_0N@LLHLOFGG@glUniform2fv?$AA@ 00000001800511d8     umodsys_lib_libui:umodsys.mod.ui.SDL_GL.obj
 0002:000051e8       ??_C@_0M@EOFMKNHD@glUniform2i?$AA@ 00000001800511e8     umodsys_lib_libui:umodsys.mod.ui.SDL_GL.obj
 0002:000051f8       ??_C@_0N@LACHKCFL@glUniform2iv?$AA@ 00000001800511f8     umodsys_lib_libui:umodsys.mod.ui.SDL_GL.obj
 0002:00005208       ??_C@_0M@MIAGNLIL@glUniform3f?$AA@ 0000000180051208     umodsys_lib_libui:umodsys.mod.ui.SDL_GL.obj
 0002:00005218       ??_C@_0N@DMHICAD@glUniform3fv?$AA@ 0000000180051218     umodsys_lib_libui:umodsys.mod.ui.SDL_GL.obj
 0002:00005228       ??_C@_0M@EPJOMHEE@glUniform3i?$AA@ 0000000180051228     umodsys_lib_libui:umodsys.mod.ui.SDL_GL.obj
 0002:00005238       ??_C@_0N@IJLMFDO@glUniform3iv?$AA@ 0000000180051238     umodsys_lib_libui:umodsys.mod.ui.SDL_GL.obj
 0002:00005248       ??_C@_0M@MNEJMNAO@glUniform4f?$AA@ 0000000180051248     umodsys_lib_libui:umodsys.mod.ui.SDL_GL.obj
 0002:00005258       ??_C@_0N@JOBALKLK@glUniform4fv?$AA@ 0000000180051258     umodsys_lib_libui:umodsys.mod.ui.SDL_GL.obj
 0002:00005268       ??_C@_0M@EKNBNBMB@glUniform4i?$AA@ 0000000180051268     umodsys_lib_libui:umodsys.mod.ui.SDL_GL.obj
 0002:00005278       ??_C@_0N@JFEMPNIH@glUniform4iv?$AA@ 0000000180051278     umodsys_lib_libui:umodsys.mod.ui.SDL_GL.obj
 0002:00005288       ??_C@_0BD@JIBJELHD@glUniformMatrix2fv?$AA@ 0000000180051288     umodsys_lib_libui:umodsys.mod.ui.SDL_GL.obj
 0002:000052a0       ??_C@_0BD@CAKFCMBG@glUniformMatrix3fv?$AA@ 00000001800512a0     umodsys_lib_libui:umodsys.mod.ui.SDL_GL.obj
 0002:000052b8       ??_C@_0BD@LNHCBEKP@glUniformMatrix4fv?$AA@ 00000001800512b8     umodsys_lib_libui:umodsys.mod.ui.SDL_GL.obj
 0002:000052d0       ??_C@_0N@ICBDHBI@glUseProgram?$AA@ 00000001800512d0     umodsys_lib_libui:umodsys.mod.ui.SDL_GL.obj
 0002:000052e0       ??_C@_0BC@MAPGDLJK@glValidateProgram?$AA@ 00000001800512e0     umodsys_lib_libui:umodsys.mod.ui.SDL_GL.obj
 0002:000052f8       ??_C@_0BB@PIOLPNPC@glVertexAttrib1d?$AA@ 00000001800512f8     umodsys_lib_libui:umodsys.mod.ui.SDL_GL.obj
 0002:00005310       ??_C@_0BC@CKCOKGLN@glVertexAttrib1dv?$AA@ 0000000180051310     umodsys_lib_libui:umodsys.mod.ui.SDL_GL.obj
 0002:00005328       ??_C@_0BB@MKNNJPHA@glVertexAttrib1f?$AA@ 0000000180051328     umodsys_lib_libui:umodsys.mod.ui.SDL_GL.obj
 0002:00005340       ??_C@_0BC@CJKKHCND@glVertexAttrib1fv?$AA@ 0000000180051340     umodsys_lib_libui:umodsys.mod.ui.SDL_GL.obj
 0002:00005358       ??_C@_0BB@PNGIHJGE@glVertexAttrib1s?$AA@ 0000000180051358     umodsys_lib_libui:umodsys.mod.ui.SDL_GL.obj
 0002:00005370       ??_C@_0BC@DDEHBDEI@glVertexAttrib1sv?$AA@ 0000000180051370     umodsys_lib_libui:umodsys.mod.ui.SDL_GL.obj
 0002:00005388       ??_C@_0BB@PKKNEDKL@glVertexAttrib2d?$AA@ 0000000180051388     umodsys_lib_libui:umodsys.mod.ui.SDL_GL.obj
 0002:000053a0       ??_C@_0BC@DIJLAJFD@glVertexAttrib2dv?$AA@ 00000001800513a0     umodsys_lib_libui:umodsys.mod.ui.SDL_GL.obj
 0002:000053b8       ??_C@_0BB@MIJLCBCJ@glVertexAttrib2f?$AA@ 00000001800513b8     umodsys_lib_libui:umodsys.mod.ui.SDL_GL.obj
 0002:000053d0       ??_C@_0BC@DLBPNNDN@glVertexAttrib2fv?$AA@ 00000001800513d0     umodsys_lib_libui:umodsys.mod.ui.SDL_GL.obj
 0002:000053e8       ??_C@_0BB@PPCOMHDN@glVertexAttrib2s?$AA@ 00000001800513e8     umodsys_lib_libui:umodsys.mod.ui.SDL_GL.obj
 0002:00005400       ??_C@_0BC@CBPCLMKG@glVertexAttrib2sv?$AA@ 0000000180051400     umodsys_lib_libui:umodsys.mod.ui.SDL_GL.obj
 0002:00005418       ??_C@_0BB@PLGPCJJM@glVertexAttrib3d?$AA@ 0000000180051418     umodsys_lib_libui:umodsys.mod.ui.SDL_GL.obj
 0002:00005430       ??_C@_0BC@IACHGODG@glVertexAttrib3dv?$AA@ 0000000180051430     umodsys_lib_libui:umodsys.mod.ui.SDL_GL.obj
 0002:00005448       ??_C@_0BB@MJFJELBO@glVertexAttrib3f?$AA@ 0000000180051448     umodsys_lib_libui:umodsys.mod.ui.SDL_GL.obj
 0002:00005460       ??_C@_0BC@IDKDLKFI@glVertexAttrib3fv?$AA@ 0000000180051460     umodsys_lib_libui:umodsys.mod.ui.SDL_GL.obj
 0002:00005478       ??_C@_0BB@POOMKNAK@glVertexAttrib3s?$AA@ 0000000180051478     umodsys_lib_libui:umodsys.mod.ui.SDL_GL.obj
 0002:00005490       ??_C@_0BC@JJEONLMD@glVertexAttrib3sv?$AA@ 0000000180051490     umodsys_lib_libui:umodsys.mod.ui.SDL_GL.obj
 0002:000054a8       ??_C@_0BD@NANPPEGB@glVertexAttrib4Nbv?$AA@ 00000001800514a8     umodsys_lib_libui:umodsys.mod.ui.SDL_GL.obj
 0002:000054c0       ??_C@_0BD@NMIKBLIA@glVertexAttrib4Niv?$AA@ 00000001800514c0     umodsys_lib_libui:umodsys.mod.ui.SDL_GL.obj
 0002:000054d8       ??_C@_0BD@MNDLDNCG@glVertexAttrib4Nsv?$AA@ 00000001800514d8     umodsys_lib_libui:umodsys.mod.ui.SDL_GL.obj
 0002:000054f0       ??_C@_0BD@OHBIJGMB@glVertexAttrib4Nub?$AA@ 00000001800514f0     umodsys_lib_libui:umodsys.mod.ui.SDL_GL.obj
 0002:00005508       ??_C@_0BE@JFOBDEMA@glVertexAttrib4Nubv?$AA@ 0000000180051508     umodsys_lib_libui:umodsys.mod.ui.SDL_GL.obj
 0002:00005520       ??_C@_0BE@JJLENLCB@glVertexAttrib4Nuiv?$AA@ 0000000180051520     umodsys_lib_libui:umodsys.mod.ui.SDL_GL.obj
 0002:00005538       ??_C@_0BE@IIAFPNIH@glVertexAttrib4Nusv?$AA@ 0000000180051538     umodsys_lib_libui:umodsys.mod.ui.SDL_GL.obj
 0002:00005550       ??_C@_0BC@BJHNCKDN@glVertexAttrib4bv?$AA@ 0000000180051550     umodsys_lib_libui:umodsys.mod.ui.SDL_GL.obj
 0002:00005568       ??_C@_0BB@POCADPBJ@glVertexAttrib4d?$AA@ 0000000180051568     umodsys_lib_libui:umodsys.mod.ui.SDL_GL.obj
 0002:00005580       ??_C@_0BC@BNPAFGIP@glVertexAttrib4dv?$AA@ 0000000180051580     umodsys_lib_libui:umodsys.mod.ui.SDL_GL.obj
 0002:00005598       ??_C@_0BB@MMBGFNJL@glVertexAttrib4f?$AA@ 0000000180051598     umodsys_lib_libui:umodsys.mod.ui.SDL_GL.obj
 0002:000055b0       ??_C@_0BC@BOHEICOB@glVertexAttrib4fv?$AA@ 00000001800515b0     umodsys_lib_libui:umodsys.mod.ui.SDL_GL.obj
 0002:000055c8       ??_C@_0BC@BFCIMFNM@glVertexAttrib4iv?$AA@ 00000001800515c8     umodsys_lib_libui:umodsys.mod.ui.SDL_GL.obj
 0002:000055e0       ??_C@_0BB@PLKDLLIP@glVertexAttrib4s?$AA@ 00000001800515e0     umodsys_lib_libui:umodsys.mod.ui.SDL_GL.obj
 0002:000055f8       ??_C@_0BC@EJJODHK@glVertexAttrib4sv?$AA@ 00000001800515f8     umodsys_lib_libui:umodsys.mod.ui.SDL_GL.obj
 0002:00005610       ??_C@_0BD@PHPFILMB@glVertexAttrib4ubv?$AA@ 0000000180051610     umodsys_lib_libui:umodsys.mod.ui.SDL_GL.obj
 0002:00005628       ??_C@_0BD@PLKAGECA@glVertexAttrib4uiv?$AA@ 0000000180051628     umodsys_lib_libui:umodsys.mod.ui.SDL_GL.obj
 0002:00005640       ??_C@_0BD@OKBBECIG@glVertexAttrib4usv?$AA@ 0000000180051640     umodsys_lib_libui:umodsys.mod.ui.SDL_GL.obj
 0002:00005658       ??_C@_0BG@JPNNNPKG@glVertexAttribPointer?$AA@ 0000000180051658     umodsys_lib_libui:umodsys.mod.ui.SDL_GL.obj
 0002:00005670       ??_C@_0P@EOBINMCF@GL_VERSION_2_1?$AA@ 0000000180051670     umodsys_lib_libui:umodsys.mod.ui.SDL_GL.obj
 0002:00005680       ??_C@_0BF@KDDJMCDK@glUniformMatrix2x3fv?$AA@ 0000000180051680     umodsys_lib_libui:umodsys.mod.ui.SDL_GL.obj
 0002:00005698       ??_C@_0BF@DOOOPKID@glUniformMatrix2x4fv?$AA@ 0000000180051698     umodsys_lib_libui:umodsys.mod.ui.SDL_GL.obj
 0002:000056b0       ??_C@_0BF@NANJHGPK@glUniformMatrix3x2fv?$AA@ 00000001800516b0     umodsys_lib_libui:umodsys.mod.ui.SDL_GL.obj
 0002:000056c8       ??_C@_0BF@PFLCCJCG@glUniformMatrix3x4fv?$AA@ 00000001800516c8     umodsys_lib_libui:umodsys.mod.ui.SDL_GL.obj
 0002:000056e0       ??_C@_0BF@MNNMEGEC@glUniformMatrix4x2fv?$AA@ 00000001800516e0     umodsys_lib_libui:umodsys.mod.ui.SDL_GL.obj
 0002:000056f8       ??_C@_0BF@HFGACBCH@glUniformMatrix4x3fv?$AA@ 00000001800516f8     umodsys_lib_libui:umodsys.mod.ui.SDL_GL.obj
 0002:00005710       ??_C@_0P@OPLPIKAB@GL_VERSION_3_0?$AA@ 0000000180051710     umodsys_lib_libui:umodsys.mod.ui.SDL_GL.obj
 0002:00005720       ??_C@_0BJ@EHEPIEPF@glBeginConditionalRender?$AA@ 0000000180051720     umodsys_lib_libui:umodsys.mod.ui.SDL_GL.obj
 0002:00005740       ??_C@_0BJ@FHJKOECC@glBeginTransformFeedback?$AA@ 0000000180051740     umodsys_lib_libui:umodsys.mod.ui.SDL_GL.obj
 0002:00005760       ??_C@_0BB@LDPKOCJI@glBindBufferBase?$AA@ 0000000180051760     umodsys_lib_libui:umodsys.mod.ui.SDL_GL.obj
 0002:00005778       ??_C@_0BC@EEMMCHMB@glBindBufferRange?$AA@ 0000000180051778     umodsys_lib_libui:umodsys.mod.ui.SDL_GL.obj
 0002:00005790       ??_C@_0BH@DLJLAGBA@glBindFragDataLocation?$AA@ 0000000180051790     umodsys_lib_libui:umodsys.mod.ui.SDL_GL.obj
 0002:000057a8       ??_C@_0BC@CJMIBNO@glBindFramebuffer?$AA@ 00000001800517a8     umodsys_lib_libui:umodsys.mod.ui.SDL_GL.obj
 0002:000057c0       ??_C@_0BD@EPOPJGFA@glBindRenderbuffer?$AA@ 00000001800517c0     umodsys_lib_libui:umodsys.mod.ui.SDL_GL.obj
 0002:000057d8       ??_C@_0BC@LHBAHFAN@glBindVertexArray?$AA@ 00000001800517d8     umodsys_lib_libui:umodsys.mod.ui.SDL_GL.obj
 0002:000057f0       ??_C@_0BC@OANBDDEP@glBlitFramebuffer?$AA@ 00000001800517f0     umodsys_lib_libui:umodsys.mod.ui.SDL_GL.obj
 0002:00005808       ??_C@_0BJ@GIOLHEAD@glCheckFramebufferStatus?$AA@ 0000000180051808     umodsys_lib_libui:umodsys.mod.ui.SDL_GL.obj
 0002:00005828       ??_C@_0N@HLGAGIMI@glClampColor?$AA@ 0000000180051828     umodsys_lib_libui:umodsys.mod.ui.SDL_GL.obj
 0002:00005838       ??_C@_0BA@OACPENCO@glClearBufferfi?$AA@ 0000000180051838     umodsys_lib_libui:umodsys.mod.ui.SDL_GL.obj
 0002:00005848       ??_C@_0BA@CNHFEDLA@glClearBufferfv?$AA@ 0000000180051848     umodsys_lib_libui:umodsys.mod.ui.SDL_GL.obj
 0002:00005858       ??_C@_0BA@CGCJAEIN@glClearBufferiv?$AA@ 0000000180051858     umodsys_lib_libui:umodsys.mod.ui.SDL_GL.obj
 0002:00005868       ??_C@_0BB@OHPPAEID@glClearBufferuiv?$AA@ 0000000180051868     umodsys_lib_libui:umodsys.mod.ui.SDL_GL.obj
 0002:00005880       ??_C@_0N@JHNNNJFG@glColorMaski?$AA@ 0000000180051880     umodsys_lib_libui:umodsys.mod.ui.SDL_GL.obj
 0002:00005890       ??_C@_0BF@DJNJENP@glDeleteFramebuffers?$AA@ 0000000180051890     umodsys_lib_libui:umodsys.mod.ui.SDL_GL.obj
 0002:000058a8       ??_C@_0BG@KKOKEJDE@glDeleteRenderbuffers?$AA@ 00000001800518a8     umodsys_lib_libui:umodsys.mod.ui.SDL_GL.obj
 0002:000058c0       ??_C@_0BF@BMPCJLEF@glDeleteVertexArrays?$AA@ 00000001800518c0     umodsys_lib_libui:umodsys.mod.ui.SDL_GL.obj
 0002:000058d8       ??_C@_0L@BMJPGDDH@glDisablei?$AA@ 00000001800518d8     umodsys_lib_libui:umodsys.mod.ui.SDL_GL.obj
 0002:000058e8       ??_C@_09IEGEGIEN@glEnablei?$AA@ 00000001800518e8     umodsys_lib_libui:umodsys.mod.ui.SDL_GL.obj
 0002:000058f8       ??_C@_0BH@KCIOLNMA@glEndConditionalRender?$AA@ 00000001800518f8     umodsys_lib_libui:umodsys.mod.ui.SDL_GL.obj
 0002:00005910       ??_C@_0BH@LCFLNNBH@glEndTransformFeedback?$AA@ 0000000180051910     umodsys_lib_libui:umodsys.mod.ui.SDL_GL.obj
 0002:00005928       ??_C@_0BJ@NCDMGHKF@glFlushMappedBufferRange?$AA@ 0000000180051928     umodsys_lib_libui:umodsys.mod.ui.SDL_GL.obj
 0002:00005948       ??_C@_0BK@OJDINAOA@glFramebufferRenderbuffer?$AA@ 0000000180051948     umodsys_lib_libui:umodsys.mod.ui.SDL_GL.obj
 0002:00005968       ??_C@_0BH@JAMDNNBM@glFramebufferTexture1D?$AA@ 0000000180051968     umodsys_lib_libui:umodsys.mod.ui.SDL_GL.obj
 0002:00005980       ??_C@_0BH@JCIFGDEF@glFramebufferTexture2D?$AA@ 0000000180051980     umodsys_lib_libui:umodsys.mod.ui.SDL_GL.obj
 0002:00005998       ??_C@_0BH@JDEHAJHC@glFramebufferTexture3D?$AA@ 0000000180051998     umodsys_lib_libui:umodsys.mod.ui.SDL_GL.obj
 0002:000059b0       ??_C@_0BK@NIHIDBBO@glFramebufferTextureLayer?$AA@ 00000001800519b0     umodsys_lib_libui:umodsys.mod.ui.SDL_GL.obj
 0002:000059d0       ??_C@_0BC@FAPEBGID@glGenFramebuffers?$AA@ 00000001800519d0     umodsys_lib_libui:umodsys.mod.ui.SDL_GL.obj
 0002:000059e8       ??_C@_0BD@MIGEDNGJ@glGenRenderbuffers?$AA@ 00000001800519e8     umodsys_lib_libui:umodsys.mod.ui.SDL_GL.obj
 0002:00005a00       ??_C@_0BC@EPJLBJBJ@glGenVertexArrays?$AA@ 0000000180051a00     umodsys_lib_libui:umodsys.mod.ui.SDL_GL.obj
 0002:00005a18       ??_C@_0BB@BHNIMGDM@glGenerateMipmap?$AA@ 0000000180051a18     umodsys_lib_libui:umodsys.mod.ui.SDL_GL.obj
 0002:00005a30       ??_C@_0BA@OAKNOBP@glGetBooleani_v?$AA@ 0000000180051a30     umodsys_lib_libui:umodsys.mod.ui.SDL_GL.obj
 0002:00005a40       ??_C@_0BG@NDOIGAMC@glGetFragDataLocation?$AA@ 0000000180051a40     umodsys_lib_libui:umodsys.mod.ui.SDL_GL.obj
 0002:00005a58       ??_C@_0CG@KLDGJEON@glGetFramebufferAttachmentParame@ 0000000180051a58     umodsys_lib_libui:umodsys.mod.ui.SDL_GL.obj
 0002:00005a80       ??_C@_0BA@FKCNNMFO@glGetIntegeri_v?$AA@ 0000000180051a80     umodsys_lib_libui:umodsys.mod.ui.SDL_GL.obj
 0002:00005a90       ??_C@_0BN@FGKAECKO@glGetRenderbufferParameteriv?$AA@ 0000000180051a90     umodsys_lib_libui:umodsys.mod.ui.SDL_GL.obj
 0002:00005ab0       ??_C@_0N@PILJCBOD@glGetStringi?$AA@ 0000000180051ab0     umodsys_lib_libui:umodsys.mod.ui.SDL_GL.obj
 0002:00005ac0       ??_C@_0BF@ODBJFHDD@glGetTexParameterIiv?$AA@ 0000000180051ac0     umodsys_lib_libui:umodsys.mod.ui.SDL_GL.obj
 0002:00005ad8       ??_C@_0BG@MLODKKFL@glGetTexParameterIuiv?$AA@ 0000000180051ad8     umodsys_lib_libui:umodsys.mod.ui.SDL_GL.obj
 0002:00005af0       ??_C@_0BO@ODFLPNG@glGetTransformFeedbackVarying?$AA@ 0000000180051af0     umodsys_lib_libui:umodsys.mod.ui.SDL_GL.obj
 0002:00005b10       ??_C@_0BA@NIGECFIF@glGetUniformuiv?$AA@ 0000000180051b10     umodsys_lib_libui:umodsys.mod.ui.SDL_GL.obj
 0002:00005b20       ??_C@_0BF@KPDNEONP@glGetVertexAttribIiv?$AA@ 0000000180051b20     umodsys_lib_libui:umodsys.mod.ui.SDL_GL.obj
 0002:00005b38       ??_C@_0BG@GCBDCABB@glGetVertexAttribIuiv?$AA@ 0000000180051b38     umodsys_lib_libui:umodsys.mod.ui.SDL_GL.obj
 0002:00005b50       ??_C@_0N@IMGKGOKN@glIsEnabledi?$AA@ 0000000180051b50     umodsys_lib_libui:umodsys.mod.ui.SDL_GL.obj
 0002:00005b60       ??_C@_0BA@FGBIJCNH@glIsFramebuffer?$AA@ 0000000180051b60     umodsys_lib_libui:umodsys.mod.ui.SDL_GL.obj
 0002:00005b70       ??_C@_0BB@DGGHKKOH@glIsRenderbuffer?$AA@ 0000000180051b70     umodsys_lib_libui:umodsys.mod.ui.SDL_GL.obj
 0002:00005b88       ??_C@_0BA@ODJEGGAE@glIsVertexArray?$AA@ 0000000180051b88     umodsys_lib_libui:umodsys.mod.ui.SDL_GL.obj
 0002:00005b98       ??_C@_0BB@EOHJGBIO@glMapBufferRange?$AA@ 0000000180051b98     umodsys_lib_libui:umodsys.mod.ui.SDL_GL.obj
 0002:00005bb0       ??_C@_0BG@EOIILGMJ@glRenderbufferStorage?$AA@ 0000000180051bb0     umodsys_lib_libui:umodsys.mod.ui.SDL_GL.obj
 0002:00005bc8       ??_C@_0CB@HNONLGJE@glRenderbufferStorageMultisample@ 0000000180051bc8     umodsys_lib_libui:umodsys.mod.ui.SDL_GL.obj
 0002:00005bf0       ??_C@_0BC@MAFJKEHB@glTexParameterIiv?$AA@ 0000000180051bf0     umodsys_lib_libui:umodsys.mod.ui.SDL_GL.obj
 0002:00005c08       ??_C@_0BD@FDBCMKBE@glTexParameterIuiv?$AA@ 0000000180051c08     umodsys_lib_libui:umodsys.mod.ui.SDL_GL.obj
 0002:00005c20       ??_C@_0BM@IJFAKBEF@glTransformFeedbackVaryings?$AA@ 0000000180051c20     umodsys_lib_libui:umodsys.mod.ui.SDL_GL.obj
 0002:00005c40       ??_C@_0N@HKPEFJDP@glUniform1ui?$AA@ 0000000180051c40     umodsys_lib_libui:umodsys.mod.ui.SDL_GL.obj
 0002:00005c50       ??_C@_0O@MPHJAHBE@glUniform1uiv?$AA@ 0000000180051c50     umodsys_lib_libui:umodsys.mod.ui.SDL_GL.obj
 0002:00005c60       ??_C@_0N@GIEBPGNB@glUniform2ui?$AA@ 0000000180051c60     umodsys_lib_libui:umodsys.mod.ui.SDL_GL.obj
 0002:00005c70       ??_C@_0O@IINJHNME@glUniform2uiv?$AA@ 0000000180051c70     umodsys_lib_libui:umodsys.mod.ui.SDL_GL.obj
 0002:00005c80       ??_C@_0N@NAPNJBLE@glUniform3ui?$AA@ 0000000180051c80     umodsys_lib_libui:umodsys.mod.ui.SDL_GL.obj
 0002:00005c90       ??_C@_0O@LFLJFEHE@glUniform3uiv?$AA@ 0000000180051c90     umodsys_lib_libui:umodsys.mod.ui.SDL_GL.obj
 0002:00005ca0       ??_C@_0N@ENCKKJAN@glUniform4ui?$AA@ 0000000180051ca0     umodsys_lib_libui:umodsys.mod.ui.SDL_GL.obj
 0002:00005cb0       ??_C@_0O@HJJIIGE@glUniform4uiv?$AA@ 0000000180051cb0     umodsys_lib_libui:umodsys.mod.ui.SDL_GL.obj
 0002:00005cc0       ??_C@_0BC@CDIIMMAL@glVertexAttribI1i?$AA@ 0000000180051cc0     umodsys_lib_libui:umodsys.mod.ui.SDL_GL.obj
 0002:00005cd8       ??_C@_0BD@OOJEIPDE@glVertexAttribI1iv?$AA@ 0000000180051cd8     umodsys_lib_libui:umodsys.mod.ui.SDL_GL.obj
 0002:00005cf0       ??_C@_0BD@DGPCNLLO@glVertexAttribI1ui?$AA@ 0000000180051cf0     umodsys_lib_libui:umodsys.mod.ui.SDL_GL.obj
 0002:00005d08       ??_C@_0BE@FFIKLCCA@glVertexAttribI1uiv?$AA@ 0000000180051d08     umodsys_lib_libui:umodsys.mod.ui.SDL_GL.obj
 0002:00005d20       ??_C@_0BC@CBMOHCFC@glVertexAttribI2i?$AA@ 0000000180051d20     umodsys_lib_libui:umodsys.mod.ui.SDL_GL.obj
 0002:00005d38       ??_C@_0BD@PMCBCANK@glVertexAttribI2iv?$AA@ 0000000180051d38     umodsys_lib_libui:umodsys.mod.ui.SDL_GL.obj
 0002:00005d50       ??_C@_0BD@CEEHHEFA@glVertexAttribI2ui?$AA@ 0000000180051d50     umodsys_lib_libui:umodsys.mod.ui.SDL_GL.obj
 0002:00005d68       ??_C@_0BE@BCCKMIPA@glVertexAttribI2uiv?$AA@ 0000000180051d68     umodsys_lib_libui:umodsys.mod.ui.SDL_GL.obj
 0002:00005d80       ??_C@_0BC@CAAMBIGF@glVertexAttribI3i?$AA@ 0000000180051d80     umodsys_lib_libui:umodsys.mod.ui.SDL_GL.obj
 0002:00005d98       ??_C@_0BD@EEJNEHLP@glVertexAttribI3iv?$AA@ 0000000180051d98     umodsys_lib_libui:umodsys.mod.ui.SDL_GL.obj
 0002:00005db0       ??_C@_0BD@JMPLBDDF@glVertexAttribI3ui?$AA@ 0000000180051db0     umodsys_lib_libui:umodsys.mod.ui.SDL_GL.obj
 0002:00005dc8       ??_C@_0BE@CPEKOBEA@glVertexAttribI3uiv?$AA@ 0000000180051dc8     umodsys_lib_libui:umodsys.mod.ui.SDL_GL.obj
 0002:00005de0       ??_C@_0BD@NFBPJAOH@glVertexAttribI4bv?$AA@ 0000000180051de0     umodsys_lib_libui:umodsys.mod.ui.SDL_GL.obj
 0002:00005df8       ??_C@_0BC@CFEDAOOA@glVertexAttribI4i?$AA@ 0000000180051df8     umodsys_lib_libui:umodsys.mod.ui.SDL_GL.obj
 0002:00005e10       ??_C@_0BD@NJEKHPAG@glVertexAttribI4iv?$AA@ 0000000180051e10     umodsys_lib_libui:umodsys.mod.ui.SDL_GL.obj
 0002:00005e28       ??_C@_0BD@MIPLFJKA@glVertexAttribI4sv?$AA@ 0000000180051e28     umodsys_lib_libui:umodsys.mod.ui.SDL_GL.obj
 0002:00005e40       ??_C@_0BE@JBDPNCLB@glVertexAttribI4ubv?$AA@ 0000000180051e40     umodsys_lib_libui:umodsys.mod.ui.SDL_GL.obj
 0002:00005e58       ??_C@_0BD@BCMCLIM@glVertexAttribI4ui?$AA@ 0000000180051e58     umodsys_lib_libui:umodsys.mod.ui.SDL_GL.obj
 0002:00005e70       ??_C@_0BE@JNGKDNFA@glVertexAttribI4uiv?$AA@ 0000000180051e70     umodsys_lib_libui:umodsys.mod.ui.SDL_GL.obj
 0002:00005e88       ??_C@_0BE@IMNLBLPG@glVertexAttribI4usv?$AA@ 0000000180051e88     umodsys_lib_libui:umodsys.mod.ui.SDL_GL.obj
 0002:00005ea0       ??_C@_0BH@NLOEHKCD@glVertexAttribIPointer?$AA@ 0000000180051ea0     umodsys_lib_libui:umodsys.mod.ui.SDL_GL.obj
 0002:00005eb8       ??_C@_0P@PGKELLEA@GL_VERSION_3_1?$AA@ 0000000180051eb8     umodsys_lib_libui:umodsys.mod.ui.SDL_GL.obj
 0002:00005ec8       ??_C@_0BE@EPKABDOG@glCopyBufferSubData?$AA@ 0000000180051ec8     umodsys_lib_libui:umodsys.mod.ui.SDL_GL.obj
 0002:00005ee0       ??_C@_0BG@HIOFINAN@glDrawArraysInstanced?$AA@ 0000000180051ee0     umodsys_lib_libui:umodsys.mod.ui.SDL_GL.obj
 0002:00005ef8       ??_C@_0BI@CGJENFBH@glDrawElementsInstanced?$AA@ 0000000180051ef8     umodsys_lib_libui:umodsys.mod.ui.SDL_GL.obj
 0002:00005f10       ??_C@_0BM@KEMCJPAJ@glGetActiveUniformBlockName?$AA@ 0000000180051f10     umodsys_lib_libui:umodsys.mod.ui.SDL_GL.obj
 0002:00005f30       ??_C@_0BK@DMHOPJGL@glGetActiveUniformBlockiv?$AA@ 0000000180051f30     umodsys_lib_libui:umodsys.mod.ui.SDL_GL.obj
 0002:00005f50       ??_C@_0BH@EGGFHKJJ@glGetActiveUniformName?$AA@ 0000000180051f50     umodsys_lib_libui:umodsys.mod.ui.SDL_GL.obj
 0002:00005f68       ??_C@_0BG@JEHIMPCG@glGetActiveUniformsiv?$AA@ 0000000180051f68     umodsys_lib_libui:umodsys.mod.ui.SDL_GL.obj
 0002:00005f80       ??_C@_0BH@CBDIMHHE@glGetUniformBlockIndex?$AA@ 0000000180051f80     umodsys_lib_libui:umodsys.mod.ui.SDL_GL.obj
 0002:00005f98       ??_C@_0BE@MDPMIDEE@glGetUniformIndices?$AA@ 0000000180051f98     umodsys_lib_libui:umodsys.mod.ui.SDL_GL.obj
 0002:00005fb0       ??_C@_0BI@LJDLNGAF@glPrimitiveRestartIndex?$AA@ 0000000180051fb0     umodsys_lib_libui:umodsys.mod.ui.SDL_GL.obj
 0002:00005fc8       ??_C@_0M@IIMBBALL@glTexBuffer?$AA@ 0000000180051fc8     umodsys_lib_libui:umodsys.mod.ui.SDL_GL.obj
 0002:00005fd8       ??_C@_0BG@BOLEKKCP@glUniformBlockBinding?$AA@ 0000000180051fd8     umodsys_lib_libui:umodsys.mod.ui.SDL_GL.obj
 0002:00005ff0       ??_C@_0P@NNIJOIID@GL_VERSION_3_2?$AA@ 0000000180051ff0     umodsys_lib_libui:umodsys.mod.ui.SDL_GL.obj
 0002:00006000       ??_C@_0BB@KDMPGJAC@glClientWaitSync?$AA@ 0000000180052000     umodsys_lib_libui:umodsys.mod.ui.SDL_GL.obj
 0002:00006018       ??_C@_0N@PIFDNDFG@glDeleteSync?$AA@ 0000000180052018     umodsys_lib_libui:umodsys.mod.ui.SDL_GL.obj
 0002:00006028       ??_C@_0BJ@LFMMIAHA@glDrawElementsBaseVertex?$AA@ 0000000180052028     umodsys_lib_libui:umodsys.mod.ui.SDL_GL.obj
 0002:00006048       ??_C@_0CC@KLOIIKNA@glDrawElementsInstancedBaseVerte@ 0000000180052048     umodsys_lib_libui:umodsys.mod.ui.SDL_GL.obj
 0002:00006070       ??_C@_0BO@KBDDBILP@glDrawRangeElementsBaseVertex?$AA@ 0000000180052070     umodsys_lib_libui:umodsys.mod.ui.SDL_GL.obj
 0002:00006090       ??_C@_0M@EFGFPFLP@glFenceSync?$AA@ 0000000180052090     umodsys_lib_libui:umodsys.mod.ui.SDL_GL.obj
 0002:000060a0       ??_C@_0BF@ENLMLILA@glFramebufferTexture?$AA@ 00000001800520a0     umodsys_lib_libui:umodsys.mod.ui.SDL_GL.obj
 0002:000060b8       ??_C@_0BJ@KKBIDGPP@glGetBufferParameteri64v?$AA@ 00000001800520b8     umodsys_lib_libui:umodsys.mod.ui.SDL_GL.obj
 0002:000060d8       ??_C@_0BC@KOJILIEC@glGetInteger64i_v?$AA@ 00000001800520d8     umodsys_lib_libui:umodsys.mod.ui.SDL_GL.obj
 0002:000060f0       ??_C@_0BA@INMBOHGL@glGetInteger64v?$AA@ 00000001800520f0     umodsys_lib_libui:umodsys.mod.ui.SDL_GL.obj
 0002:00006100       ??_C@_0BD@DHLIMGN@glGetMultisamplefv?$AA@ 0000000180052100     umodsys_lib_libui:umodsys.mod.ui.SDL_GL.obj
 0002:00006118       ??_C@_0M@MPEEOPIN@glGetSynciv?$AA@ 0000000180052118     umodsys_lib_libui:umodsys.mod.ui.SDL_GL.obj
 0002:00006128       ??_C@_08JPIIHJEO@glIsSync?$AA@ 0000000180052128     umodsys_lib_libui:umodsys.mod.ui.SDL_GL.obj
 0002:00006138       ??_C@_0BO@NAPFJEEK@glMultiDrawElementsBaseVertex?$AA@ 0000000180052138     umodsys_lib_libui:umodsys.mod.ui.SDL_GL.obj
 0002:00006158       ??_C@_0BC@ECOAPEBI@glProvokingVertex?$AA@ 0000000180052158     umodsys_lib_libui:umodsys.mod.ui.SDL_GL.obj
 0002:00006170       ??_C@_0O@JNHBCHMB@glSampleMaski?$AA@ 0000000180052170     umodsys_lib_libui:umodsys.mod.ui.SDL_GL.obj
 0002:00006180       ??_C@_0BI@FHDFLFA@glTexImage2DMultisample?$AA@ 0000000180052180     umodsys_lib_libui:umodsys.mod.ui.SDL_GL.obj
 0002:00006198       ??_C@_0BI@JIHMLKCG@glTexImage3DMultisample?$AA@ 0000000180052198     umodsys_lib_libui:umodsys.mod.ui.SDL_GL.obj
 0002:000061b0       ??_C@_0L@MHLOGHGO@glWaitSync?$AA@ 00000001800521b0     umodsys_lib_libui:umodsys.mod.ui.SDL_GL.obj
 0002:000061c0       ??_C@_0P@MEJCNJMC@GL_VERSION_3_3?$AA@ 00000001800521c0     umodsys_lib_libui:umodsys.mod.ui.SDL_GL.obj
 0002:000061d0       ??_C@_0BO@POJBGCGG@glBindFragDataLocationIndexed?$AA@ 00000001800521d0     umodsys_lib_libui:umodsys.mod.ui.SDL_GL.obj
 0002:000061f0       ??_C@_0O@PDEILAPG@glBindSampler?$AA@ 00000001800521f0     umodsys_lib_libui:umodsys.mod.ui.SDL_GL.obj
 0002:00006200       ??_C@_0M@PEKBINNN@glColorP3ui?$AA@ 0000000180052200     umodsys_lib_libui:umodsys.mod.ui.SDL_GL.obj
 0002:00006210       ??_C@_0N@IBPDNBJE@glColorP3uiv?$AA@ 0000000180052210     umodsys_lib_libui:umodsys.mod.ui.SDL_GL.obj
 0002:00006220       ??_C@_0M@GJHGLFGE@glColorP4ui?$AA@ 0000000180052220     umodsys_lib_libui:umodsys.mod.ui.SDL_GL.obj
 0002:00006230       ??_C@_0N@DDNDANIE@glColorP4uiv?$AA@ 0000000180052230     umodsys_lib_libui:umodsys.mod.ui.SDL_GL.obj
 0002:00006240       ??_C@_0BB@FLPAOEOO@glDeleteSamplers?$AA@ 0000000180052240     umodsys_lib_libui:umodsys.mod.ui.SDL_GL.obj
 0002:00006258       ??_C@_0O@EMMLGGLG@glGenSamplers?$AA@ 0000000180052258     umodsys_lib_libui:umodsys.mod.ui.SDL_GL.obj
 0002:00006268       ??_C@_0BD@COCJFEOH@glGetFragDataIndex?$AA@ 0000000180052268     umodsys_lib_libui:umodsys.mod.ui.SDL_GL.obj
 0002:00006280       ??_C@_0BF@JDAPDEPE@glGetQueryObjecti64v?$AA@ 0000000180052280     umodsys_lib_libui:umodsys.mod.ui.SDL_GL.obj
 0002:00006298       ??_C@_0BG@NEGGOMJO@glGetQueryObjectui64v?$AA@ 0000000180052298     umodsys_lib_libui:umodsys.mod.ui.SDL_GL.obj
 0002:000062b0       ??_C@_0BJ@KOMJDLDN@glGetSamplerParameterIiv?$AA@ 00000001800522b0     umodsys_lib_libui:umodsys.mod.ui.SDL_GL.obj
 0002:000062d0       ??_C@_0BK@CMBGFHDA@glGetSamplerParameterIuiv?$AA@ 00000001800522d0     umodsys_lib_libui:umodsys.mod.ui.SDL_GL.obj
 0002:000062f0       ??_C@_0BI@FPHMKMKC@glGetSamplerParameterfv?$AA@ 00000001800522f0     umodsys_lib_libui:umodsys.mod.ui.SDL_GL.obj
 0002:00006308       ??_C@_0BI@FECAOLJP@glGetSamplerParameteriv?$AA@ 0000000180052308     umodsys_lib_libui:umodsys.mod.ui.SDL_GL.obj
 0002:00006320       ??_C@_0M@LAJKHOKJ@glIsSampler?$AA@ 0000000180052320     umodsys_lib_libui:umodsys.mod.ui.SDL_GL.obj
 0002:00006330       ??_C@_0BE@OAHHKHKG@glMultiTexCoordP1ui?$AA@ 0000000180052330     umodsys_lib_libui:umodsys.mod.ui.SDL_GL.obj
 0002:00006348       ??_C@_0BF@EGDAKPAK@glMultiTexCoordP1uiv?$AA@ 0000000180052348     umodsys_lib_libui:umodsys.mod.ui.SDL_GL.obj
 0002:00006360       ??_C@_0BE@PCMCAIEI@glMultiTexCoordP2ui?$AA@ 0000000180052360     umodsys_lib_libui:umodsys.mod.ui.SDL_GL.obj
 0002:00006378       ??_C@_0BF@BJANFNK@glMultiTexCoordP2uiv?$AA@ 0000000180052378     umodsys_lib_libui:umodsys.mod.ui.SDL_GL.obj
 0002:00006390       ??_C@_0BE@EKHOGPCN@glMultiTexCoordP3ui?$AA@ 0000000180052390     umodsys_lib_libui:umodsys.mod.ui.SDL_GL.obj
 0002:000063a8       ??_C@_0BF@DMPAPMGK@glMultiTexCoordP3uiv?$AA@ 00000001800523a8     umodsys_lib_libui:umodsys.mod.ui.SDL_GL.obj
 0002:000063c0       ??_C@_0BE@NHKJFHJE@glMultiTexCoordP4ui?$AA@ 00000001800523c0     umodsys_lib_libui:umodsys.mod.ui.SDL_GL.obj
 0002:000063d8       ??_C@_0BF@IONACAHK@glMultiTexCoordP4uiv?$AA@ 00000001800523d8     umodsys_lib_libui:umodsys.mod.ui.SDL_GL.obj
 0002:000063f0       ??_C@_0N@PBEFBNHO@glNormalP3ui?$AA@ 00000001800523f0     umodsys_lib_libui:umodsys.mod.ui.SDL_GL.obj
 0002:00006400       ??_C@_0O@MOCJMHFG@glNormalP3uiv?$AA@ 0000000180052400     umodsys_lib_libui:umodsys.mod.ui.SDL_GL.obj
 0002:00006410       ??_C@_0P@KALICDIM@glQueryCounter?$AA@ 0000000180052410     umodsys_lib_libui:umodsys.mod.ui.SDL_GL.obj
 0002:00006420       ??_C@_0BG@HKEIFIHF@glSamplerParameterIiv?$AA@ 0000000180052420     umodsys_lib_libui:umodsys.mod.ui.SDL_GL.obj
 0002:00006438       ??_C@_0BH@FEMFBPPB@glSamplerParameterIuiv?$AA@ 0000000180052438     umodsys_lib_libui:umodsys.mod.ui.SDL_GL.obj
 0002:00006450       ??_C@_0BE@CGLJNDFB@glSamplerParameterf?$AA@ 0000000180052450     umodsys_lib_libui:umodsys.mod.ui.SDL_GL.obj
 0002:00006468       ??_C@_0BF@GFCPAGMB@glSamplerParameterfv?$AA@ 0000000180052468     umodsys_lib_libui:umodsys.mod.ui.SDL_GL.obj
 0002:00006480       ??_C@_0BE@KBCBMPJO@glSamplerParameteri?$AA@ 0000000180052480     umodsys_lib_libui:umodsys.mod.ui.SDL_GL.obj
 0002:00006498       ??_C@_0BF@GOHDEBPM@glSamplerParameteriv?$AA@ 0000000180052498     umodsys_lib_libui:umodsys.mod.ui.SDL_GL.obj
 0002:000064b0       ??_C@_0BF@PDDGBPKP@glSecondaryColorP3ui?$AA@ 00000001800524b0     umodsys_lib_libui:umodsys.mod.ui.SDL_GL.obj
 0002:000064c8       ??_C@_0BG@DPPPFGBG@glSecondaryColorP3uiv?$AA@ 00000001800524c8     umodsys_lib_libui:umodsys.mod.ui.SDL_GL.obj
 0002:000064e0       ??_C@_0P@OLJHLLHJ@glTexCoordP1ui?$AA@ 00000001800524e0     umodsys_lib_libui:umodsys.mod.ui.SDL_GL.obj
 0002:000064f0       ??_C@_0BA@FAFHIAFD@glTexCoordP1uiv?$AA@ 00000001800524f0     umodsys_lib_libui:umodsys.mod.ui.SDL_GL.obj
 0002:00006500       ??_C@_0P@PJCCBEJH@glTexCoordP2ui?$AA@ 0000000180052500     umodsys_lib_libui:umodsys.mod.ui.SDL_GL.obj
 0002:00006510       ??_C@_0BA@BHPHPKID@glTexCoordP2uiv?$AA@ 0000000180052510     umodsys_lib_libui:umodsys.mod.ui.SDL_GL.obj
 0002:00006520       ??_C@_0P@EBJOHDPC@glTexCoordP3ui?$AA@ 0000000180052520     umodsys_lib_libui:umodsys.mod.ui.SDL_GL.obj
 0002:00006530       ??_C@_0BA@CKJHNDDD@glTexCoordP3uiv?$AA@ 0000000180052530     umodsys_lib_libui:umodsys.mod.ui.SDL_GL.obj
 0002:00006540       ??_C@_0P@NMEJELEL@glTexCoordP4ui?$AA@ 0000000180052540     umodsys_lib_libui:umodsys.mod.ui.SDL_GL.obj
 0002:00006550       ??_C@_0BA@JILHAPCD@glTexCoordP4uiv?$AA@ 0000000180052550     umodsys_lib_libui:umodsys.mod.ui.SDL_GL.obj
 0002:00006560       ??_C@_0BG@NEBMAEHM@glVertexAttribDivisor?$AA@ 0000000180052560     umodsys_lib_libui:umodsys.mod.ui.SDL_GL.obj
 0002:00006578       ??_C@_0BD@FLACCOEN@glVertexAttribP1ui?$AA@ 0000000180052578     umodsys_lib_libui:umodsys.mod.ui.SDL_GL.obj
 0002:00006590       ??_C@_0BE@HBFDOBHD@glVertexAttribP1uiv?$AA@ 0000000180052590     umodsys_lib_libui:umodsys.mod.ui.SDL_GL.obj
 0002:000065a8       ??_C@_0BD@EJLHIBKD@glVertexAttribP2ui?$AA@ 00000001800525a8     umodsys_lib_libui:umodsys.mod.ui.SDL_GL.obj
 0002:000065c0       ??_C@_0BE@DGPDJLKD@glVertexAttribP2uiv?$AA@ 00000001800525c0     umodsys_lib_libui:umodsys.mod.ui.SDL_GL.obj
 0002:000065d8       ??_C@_0BD@PBALOGMG@glVertexAttribP3ui?$AA@ 00000001800525d8     umodsys_lib_libui:umodsys.mod.ui.SDL_GL.obj
 0002:000065f0       ??_C@_0BE@LJDLCBD@glVertexAttribP3uiv?$AA@ 00000001800525f0     umodsys_lib_libui:umodsys.mod.ui.SDL_GL.obj
 0002:00006608       ??_C@_0BD@GMNMNOHP@glVertexAttribP4ui?$AA@ 0000000180052608     umodsys_lib_libui:umodsys.mod.ui.SDL_GL.obj
 0002:00006620       ??_C@_0BE@LJLDGOAD@glVertexAttribP4uiv?$AA@ 0000000180052620     umodsys_lib_libui:umodsys.mod.ui.SDL_GL.obj
 0002:00006638       ??_C@_0N@EFBCIBMC@glVertexP2ui?$AA@ 0000000180052638     umodsys_lib_libui:umodsys.mod.ui.SDL_GL.obj
 0002:00006648       ??_C@_0O@MEKGPGN@glVertexP2uiv?$AA@ 0000000180052648     umodsys_lib_libui:umodsys.mod.ui.SDL_GL.obj
 0002:00006658       ??_C@_0N@PNKOOGKH@glVertexP3ui?$AA@ 0000000180052658     umodsys_lib_libui:umodsys.mod.ui.SDL_GL.obj
 0002:00006668       ??_C@_0O@DBCKEGNN@glVertexP3uiv?$AA@ 0000000180052668     umodsys_lib_libui:umodsys.mod.ui.SDL_GL.obj
 0002:00006678       ??_C@_0N@GAHJNOBO@glVertexP4ui?$AA@ 0000000180052678     umodsys_lib_libui:umodsys.mod.ui.SDL_GL.obj
 0002:00006688       ??_C@_0O@IDAKJKMN@glVertexP4uiv?$AA@ 0000000180052688     umodsys_lib_libui:umodsys.mod.ui.SDL_GL.obj
 0002:00006698       ??_C@_0P@HCGILCLI@GL_VERSION_4_0?$AA@ 0000000180052698     umodsys_lib_libui:umodsys.mod.ui.SDL_GL.obj
 0002:000066a8       ??_C@_0BE@BDKPJDEE@glBeginQueryIndexed?$AA@ 00000001800526a8     umodsys_lib_libui:umodsys.mod.ui.SDL_GL.obj
 0002:000066c0       ??_C@_0BI@BPJKLMIG@glBindTransformFeedback?$AA@ 00000001800526c0     umodsys_lib_libui:umodsys.mod.ui.SDL_GL.obj
 0002:000066d8       ??_C@_0BJ@FNMBAGAC@glBlendEquationSeparatei?$AA@ 00000001800526d8     umodsys_lib_libui:umodsys.mod.ui.SDL_GL.obj
 0002:000066f8       ??_C@_0BB@MKHLNEOM@glBlendEquationi?$AA@ 00000001800526f8     umodsys_lib_libui:umodsys.mod.ui.SDL_GL.obj
 0002:00006710       ??_C@_0BF@PDDGKNBJ@glBlendFuncSeparatei?$AA@ 0000000180052710     umodsys_lib_libui:umodsys.mod.ui.SDL_GL.obj
 0002:00006728       ??_C@_0N@IKKELNNP@glBlendFunci?$AA@ 0000000180052728     umodsys_lib_libui:umodsys.mod.ui.SDL_GL.obj
 0002:00006738       ??_C@_0BL@DIGEBFBK@glDeleteTransformFeedbacks?$AA@ 0000000180052738     umodsys_lib_libui:umodsys.mod.ui.SDL_GL.obj
 0002:00006758       ??_C@_0BF@BGDCPAEP@glDrawArraysIndirect?$AA@ 0000000180052758     umodsys_lib_libui:umodsys.mod.ui.SDL_GL.obj
 0002:00006770       ??_C@_0BH@LJJDOEDH@glDrawElementsIndirect?$AA@ 0000000180052770     umodsys_lib_libui:umodsys.mod.ui.SDL_GL.obj
 0002:00006788       ??_C@_0BI@LEOILCPN@glDrawTransformFeedback?$AA@ 0000000180052788     umodsys_lib_libui:umodsys.mod.ui.SDL_GL.obj
 0002:000067a0       ??_C@_0BO@IGLFNCDG@glDrawTransformFeedbackStream?$AA@ 00000001800527a0     umodsys_lib_libui:umodsys.mod.ui.SDL_GL.obj
 0002:000067c0       ??_C@_0BC@DPMHMNME@glEndQueryIndexed?$AA@ 00000001800527c0     umodsys_lib_libui:umodsys.mod.ui.SDL_GL.obj
 0002:000067d8       ??_C@_0BI@KANKBGAE@glGenTransformFeedbacks?$AA@ 00000001800527d8     umodsys_lib_libui:umodsys.mod.ui.SDL_GL.obj
 0002:000067f0       ??_C@_0BK@JPHEACLL@glGetActiveSubroutineName?$AA@ 00000001800527f0     umodsys_lib_libui:umodsys.mod.ui.SDL_GL.obj
 0002:00006810       ??_C@_0CB@KCFFPCGJ@glGetActiveSubroutineUniformName@ 0000000180052810     umodsys_lib_libui:umodsys.mod.ui.SDL_GL.obj
 0002:00006838       ??_C@_0BP@FAPFAJFP@glGetActiveSubroutineUniformiv?$AA@ 0000000180052838     umodsys_lib_libui:umodsys.mod.ui.SDL_GL.obj
 0002:00006858       ??_C@_0BE@LOKJCDFH@glGetProgramStageiv?$AA@ 0000000180052858     umodsys_lib_libui:umodsys.mod.ui.SDL_GL.obj
 0002:00006870       ??_C@_0BE@CCFJPMFI@glGetQueryIndexediv?$AA@ 0000000180052870     umodsys_lib_libui:umodsys.mod.ui.SDL_GL.obj
 0002:00006888       ??_C@_0BF@ONDIGCJG@glGetSubroutineIndex?$AA@ 0000000180052888     umodsys_lib_libui:umodsys.mod.ui.SDL_GL.obj
 0002:000068a0       ??_C@_0BP@IBIPLDOA@glGetSubroutineUniformLocation?$AA@ 00000001800528a0     umodsys_lib_libui:umodsys.mod.ui.SDL_GL.obj
 0002:000068c0       ??_C@_0BK@BLMOFAGJ@glGetUniformSubroutineuiv?$AA@ 00000001800528c0     umodsys_lib_libui:umodsys.mod.ui.SDL_GL.obj
 0002:000068e0       ??_C@_0P@NGEMHI@glGetUniformdv?$AA@ 00000001800528e0     umodsys_lib_libui:umodsys.mod.ui.SDL_GL.obj
 0002:000068f0       ??_C@_0BG@BGFLKHBM@glIsTransformFeedback?$AA@ 00000001800528f0     umodsys_lib_libui:umodsys.mod.ui.SDL_GL.obj
 0002:00006908       ??_C@_0BD@EDGCEBP@glMinSampleShading?$AA@ 0000000180052908     umodsys_lib_libui:umodsys.mod.ui.SDL_GL.obj
 0002:00006920       ??_C@_0BD@LJKINJKN@glPatchParameterfv?$AA@ 0000000180052920     umodsys_lib_libui:umodsys.mod.ui.SDL_GL.obj
 0002:00006938       ??_C@_0BC@PAPDGMLA@glPatchParameteri?$AA@ 0000000180052938     umodsys_lib_libui:umodsys.mod.ui.SDL_GL.obj
 0002:00006950       ??_C@_0BJ@FFNLKBCB@glPauseTransformFeedback?$AA@ 0000000180052950     umodsys_lib_libui:umodsys.mod.ui.SDL_GL.obj
 0002:00006970       ??_C@_0BK@JMHONFHF@glResumeTransformFeedback?$AA@ 0000000180052970     umodsys_lib_libui:umodsys.mod.ui.SDL_GL.obj
 0002:00006990       ??_C@_0M@PJLEGNGH@glUniform1d?$AA@ 0000000180052990     umodsys_lib_libui:umodsys.mod.ui.SDL_GL.obj
 0002:000069a0       ??_C@_0N@KKEKJOOG@glUniform1dv?$AA@ 00000001800529a0     umodsys_lib_libui:umodsys.mod.ui.SDL_GL.obj
 0002:000069b0       ??_C@_0M@PLPCNDDO@glUniform2d?$AA@ 00000001800529b0     umodsys_lib_libui:umodsys.mod.ui.SDL_GL.obj
 0002:000069c0       ??_C@_0N@LIPPDBAI@glUniform2dv?$AA@ 00000001800529c0     umodsys_lib_libui:umodsys.mod.ui.SDL_GL.obj
 0002:000069d0       ??_C@_0M@PKDALJAJ@glUniform3d?$AA@ 00000001800529d0     umodsys_lib_libui:umodsys.mod.ui.SDL_GL.obj
 0002:000069e0       ??_C@_0N@EDFGGN@glUniform3dv?$AA@ 00000001800529e0     umodsys_lib_libui:umodsys.mod.ui.SDL_GL.obj
 0002:000069f0       ??_C@_0M@PPHPKPIM@glUniform4d?$AA@ 00000001800529f0     umodsys_lib_libui:umodsys.mod.ui.SDL_GL.obj
 0002:00006a00       ??_C@_0N@JNJEGONE@glUniform4dv?$AA@ 0000000180052a00     umodsys_lib_libui:umodsys.mod.ui.SDL_GL.obj
 0002:00006a10       ??_C@_0BD@JLJNJPBN@glUniformMatrix2dv?$AA@ 0000000180052a10     umodsys_lib_libui:umodsys.mod.ui.SDL_GL.obj
 0002:00006a28       ??_C@_0BF@KALNBGFE@glUniformMatrix2x3dv?$AA@ 0000000180052a28     umodsys_lib_libui:umodsys.mod.ui.SDL_GL.obj
 0002:00006a40       ??_C@_0BF@DNGKCOON@glUniformMatrix2x4dv?$AA@ 0000000180052a40     umodsys_lib_libui:umodsys.mod.ui.SDL_GL.obj
 0002:00006a58       ??_C@_0BD@CDCBPIHI@glUniformMatrix3dv?$AA@ 0000000180052a58     umodsys_lib_libui:umodsys.mod.ui.SDL_GL.obj
 0002:00006a70       ??_C@_0BF@NDFNKCJE@glUniformMatrix3x2dv?$AA@ 0000000180052a70     umodsys_lib_libui:umodsys.mod.ui.SDL_GL.obj
 0002:00006a88       ??_C@_0BF@PGDGPNEI@glUniformMatrix3x4dv?$AA@ 0000000180052a88     umodsys_lib_libui:umodsys.mod.ui.SDL_GL.obj
 0002:00006aa0       ??_C@_0BD@LOPGMAMB@glUniformMatrix4dv?$AA@ 0000000180052aa0     umodsys_lib_libui:umodsys.mod.ui.SDL_GL.obj
 0002:00006ab8       ??_C@_0BF@MOFIJCCM@glUniformMatrix4x2dv?$AA@ 0000000180052ab8     umodsys_lib_libui:umodsys.mod.ui.SDL_GL.obj
 0002:00006ad0       ??_C@_0BF@HGOEPFEJ@glUniformMatrix4x3dv?$AA@ 0000000180052ad0     umodsys_lib_libui:umodsys.mod.ui.SDL_GL.obj
 0002:00006ae8       ??_C@_0BI@CDPOBBHI@glUniformSubroutinesuiv?$AA@ 0000000180052ae8     umodsys_lib_libui:umodsys.mod.ui.SDL_GL.obj
 0002:00006b00       ??_C@_0BF@LBGBLLJA@GL_ARB_base_instance?$AA@ 0000000180052b00     umodsys_lib_libui:umodsys.mod.ui.SDL_GL.obj
 0002:00006b18       ??_C@_0CC@FBJBJHCN@glDrawArraysInstancedBaseInstanc@ 0000000180052b18     umodsys_lib_libui:umodsys.mod.ui.SDL_GL.obj
 0002:00006b40       ??_C@_0CE@NGNINKJD@glDrawElementsInstancedBaseInsta@ 0000000180052b40     umodsys_lib_libui:umodsys.mod.ui.SDL_GL.obj
 0002:00006b68       ??_C@_0CO@GCMNEAOA@glDrawElementsInstancedBaseVerte@ 0000000180052b68     umodsys_lib_libui:umodsys.mod.ui.SDL_GL.obj
 0002:00006b98       ??_C@_0BI@FNELAAPJ@GL_ARB_bindless_texture?$AA@ 0000000180052b98     umodsys_lib_libui:umodsys.mod.ui.SDL_GL.obj
 0002:00006bb0       ??_C@_0BE@JHMEHOCI@glGetImageHandleARB?$AA@ 0000000180052bb0     umodsys_lib_libui:umodsys.mod.ui.SDL_GL.obj
 0002:00006bc8       ??_C@_0BG@LFGIGKAH@glGetTextureHandleARB?$AA@ 0000000180052bc8     umodsys_lib_libui:umodsys.mod.ui.SDL_GL.obj
 0002:00006be0       ??_C@_0BN@DEFEDMH@glGetTextureSamplerHandleARB?$AA@ 0000000180052be0     umodsys_lib_libui:umodsys.mod.ui.SDL_GL.obj
 0002:00006c00       ??_C@_0BL@HBJNADOI@glGetVertexAttribLui64vARB?$AA@ 0000000180052c00     umodsys_lib_libui:umodsys.mod.ui.SDL_GL.obj
 0002:00006c20       ??_C@_0BL@IFBPNOMI@glIsImageHandleResidentARB?$AA@ 0000000180052c20     umodsys_lib_libui:umodsys.mod.ui.SDL_GL.obj
 0002:00006c40       ??_C@_0BN@JLGBAMKI@glIsTextureHandleResidentARB?$AA@ 0000000180052c40     umodsys_lib_libui:umodsys.mod.ui.SDL_GL.obj
 0002:00006c60       ??_C@_0CA@BFHEDIKK@glMakeImageHandleNonResidentARB?$AA@ 0000000180052c60     umodsys_lib_libui:umodsys.mod.ui.SDL_GL.obj
 0002:00006c80       ??_C@_0BN@ECHDHELL@glMakeImageHandleResidentARB?$AA@ 0000000180052c80     umodsys_lib_libui:umodsys.mod.ui.SDL_GL.obj
 0002:00006ca0       ??_C@_0CC@EGJJLHFP@glMakeTextureHandleNonResidentAR@ 0000000180052ca0     umodsys_lib_libui:umodsys.mod.ui.SDL_GL.obj
 0002:00006cc8       ??_C@_0BP@KJHAKLAH@glMakeTextureHandleResidentARB?$AA@ 0000000180052cc8     umodsys_lib_libui:umodsys.mod.ui.SDL_GL.obj
 0002:00006ce8       ??_C@_0BO@PELKNEEA@glProgramUniformHandleui64ARB?$AA@ 0000000180052ce8     umodsys_lib_libui:umodsys.mod.ui.SDL_GL.obj
 0002:00006d08       ??_C@_0BP@PJOMOJFE@glProgramUniformHandleui64vARB?$AA@ 0000000180052d08     umodsys_lib_libui:umodsys.mod.ui.SDL_GL.obj
 0002:00006d28       ??_C@_0BH@PPMOJDBB@glUniformHandleui64ARB?$AA@ 0000000180052d28     umodsys_lib_libui:umodsys.mod.ui.SDL_GL.obj
 0002:00006d40       ??_C@_0BI@OFILPMHB@glUniformHandleui64vARB?$AA@ 0000000180052d40     umodsys_lib_libui:umodsys.mod.ui.SDL_GL.obj
 0002:00006d58       ??_C@_0BI@IPIKGHJF@glVertexAttribL1ui64ARB?$AA@ 0000000180052d58     umodsys_lib_libui:umodsys.mod.ui.SDL_GL.obj
 0002:00006d70       ??_C@_0BJ@PCOPPLM@glVertexAttribL1ui64vARB?$AA@ 0000000180052d70     umodsys_lib_libui:umodsys.mod.ui.SDL_GL.obj
 0002:00006d90       ??_C@_0BG@FDMKKDFD@GL_ARB_buffer_storage?$AA@ 0000000180052d90     umodsys_lib_libui:umodsys.mod.ui.SDL_GL.obj
 0002:00006da8       ??_C@_0BA@COBILMHM@glBufferStorage?$AA@ 0000000180052da8     umodsys_lib_libui:umodsys.mod.ui.SDL_GL.obj
 0002:00006db8       ??_C@_0BA@FEEMKBCF@GL_ARB_cl_event?$AA@ 0000000180052db8     umodsys_lib_libui:umodsys.mod.ui.SDL_GL.obj
 0002:00006dc8       ??_C@_0BL@FGCKKDPG@glCreateSyncFromCLeventARB?$AA@ 0000000180052dc8     umodsys_lib_libui:umodsys.mod.ui.SDL_GL.obj
 0002:00006de8       ??_C@_0BL@DOOAPCEA@GL_ARB_clear_buffer_object?$AA@ 0000000180052de8     umodsys_lib_libui:umodsys.mod.ui.SDL_GL.obj
 0002:00006e08       ??_C@_0BC@FCMBBKMP@glClearBufferData?$AA@ 0000000180052e08     umodsys_lib_libui:umodsys.mod.ui.SDL_GL.obj
 0002:00006e20       ??_C@_0BF@FDHIBCMD@glClearBufferSubData?$AA@ 0000000180052e20     umodsys_lib_libui:umodsys.mod.ui.SDL_GL.obj
 0002:00006e38       ??_C@_0BF@HDHNHFHJ@GL_ARB_clear_texture?$AA@ 0000000180052e38     umodsys_lib_libui:umodsys.mod.ui.SDL_GL.obj
 0002:00006e50       ??_C@_0BA@FNPOIBAF@glClearTexImage?$AA@ 0000000180052e50     umodsys_lib_libui:umodsys.mod.ui.SDL_GL.obj
 0002:00006e60       ??_C@_0BD@CFALBON@glClearTexSubImage?$AA@ 0000000180052e60     umodsys_lib_libui:umodsys.mod.ui.SDL_GL.obj
 0002:00006e78       ??_C@_0BK@NPDELCAH@GL_ARB_color_buffer_float?$AA@ 0000000180052e78     umodsys_lib_libui:umodsys.mod.ui.SDL_GL.obj
 0002:00006e98       ??_C@_0BA@PBPFKPHF@glClampColorARB?$AA@ 0000000180052e98     umodsys_lib_libui:umodsys.mod.ui.SDL_GL.obj
 0002:00006ea8       ??_C@_0BG@CCENKDIE@GL_ARB_compute_shader?$AA@ 0000000180052ea8     umodsys_lib_libui:umodsys.mod.ui.SDL_GL.obj
 0002:00006ec0       ??_C@_0BC@DKKFFIGC@glDispatchCompute?$AA@ 0000000180052ec0     umodsys_lib_libui:umodsys.mod.ui.SDL_GL.obj
 0002:00006ed8       ??_C@_0BK@EJMOGMMI@glDispatchComputeIndirect?$AA@ 0000000180052ed8     umodsys_lib_libui:umodsys.mod.ui.SDL_GL.obj
 0002:00006ef8       ??_C@_0CD@DFOMJNFO@GL_ARB_compute_variable_group_si@ 0000000180052ef8     umodsys_lib_libui:umodsys.mod.ui.SDL_GL.obj
 0002:00006f20       ??_C@_0BO@GJCJOBMI@glDispatchComputeGroupSizeARB?$AA@ 0000000180052f20     umodsys_lib_libui:umodsys.mod.ui.SDL_GL.obj
 0002:00006f40       ??_C@_0BC@IMNLOGMO@GL_ARB_copy_image?$AA@ 0000000180052f40     umodsys_lib_libui:umodsys.mod.ui.SDL_GL.obj
 0002:00006f58       ??_C@_0BD@BNCHOBBL@glCopyImageSubData?$AA@ 0000000180052f58     umodsys_lib_libui:umodsys.mod.ui.SDL_GL.obj
 0002:00006f70       ??_C@_0BE@PIDMLBFI@GL_ARB_draw_buffers?$AA@ 0000000180052f70     umodsys_lib_libui:umodsys.mod.ui.SDL_GL.obj
 0002:00006f88       ??_C@_0BB@DLEFHLGI@glDrawBuffersARB?$AA@ 0000000180052f88     umodsys_lib_libui:umodsys.mod.ui.SDL_GL.obj
 0002:00006fa0       ??_C@_0BK@EPBDCMLE@GL_ARB_draw_buffers_blend?$AA@ 0000000180052fa0     umodsys_lib_libui:umodsys.mod.ui.SDL_GL.obj
 0002:00006fc0       ??_C@_0BM@DHGCGJJC@glBlendEquationSeparateiARB?$AA@ 0000000180052fc0     umodsys_lib_libui:umodsys.mod.ui.SDL_GL.obj
 0002:00006fe0       ??_C@_0BE@MKEGJKA@glBlendEquationiARB?$AA@ 0000000180052fe0     umodsys_lib_libui:umodsys.mod.ui.SDL_GL.obj
 0002:00006ff8       ??_C@_0BI@EJDLCHDA@glBlendFuncSeparateiARB?$AA@ 0000000180052ff8     umodsys_lib_libui:umodsys.mod.ui.SDL_GL.obj
 0002:00007010       ??_C@_0BA@IINKCNIC@glBlendFunciARB?$AA@ 0000000180053010     umodsys_lib_libui:umodsys.mod.ui.SDL_GL.obj
 0002:00007020       ??_C@_0BG@PNHOPBOL@GL_ARB_draw_instanced?$AA@ 0000000180053020     umodsys_lib_libui:umodsys.mod.ui.SDL_GL.obj
 0002:00007038       ??_C@_0BJ@NIEKILNL@glDrawArraysInstancedARB?$AA@ 0000000180053038     umodsys_lib_libui:umodsys.mod.ui.SDL_GL.obj
 0002:00007058       ??_C@_0BL@JMJLDLNF@glDrawElementsInstancedARB?$AA@ 0000000180053058     umodsys_lib_libui:umodsys.mod.ui.SDL_GL.obj
 0002:00007078       ??_C@_0CC@CGMKCMOO@GL_ARB_framebuffer_no_attachment@ 0000000180053078     umodsys_lib_libui:umodsys.mod.ui.SDL_GL.obj
 0002:000070a0       ??_C@_0BI@MLACHGDK@glFramebufferParameteri?$AA@ 00000001800530a0     umodsys_lib_libui:umodsys.mod.ui.SDL_GL.obj
 0002:000070b8       ??_C@_0BM@BFEEFCMK@glGetFramebufferParameteriv?$AA@ 00000001800530b8     umodsys_lib_libui:umodsys.mod.ui.SDL_GL.obj
 0002:000070d8       ??_C@_0BI@DHMGIOF@GL_ARB_geometry_shader4?$AA@ 00000001800530d8     umodsys_lib_libui:umodsys.mod.ui.SDL_GL.obj
 0002:000070f0       ??_C@_0BI@KFEKMNEL@glFramebufferTextureARB?$AA@ 00000001800530f0     umodsys_lib_libui:umodsys.mod.ui.SDL_GL.obj
 0002:00007108       ??_C@_0BM@PJPLFKLO@glFramebufferTextureFaceARB?$AA@ 0000000180053108     umodsys_lib_libui:umodsys.mod.ui.SDL_GL.obj
 0002:00007128       ??_C@_0BN@OEJIBP@glFramebufferTextureLayerARB?$AA@ 0000000180053128     umodsys_lib_libui:umodsys.mod.ui.SDL_GL.obj
 0002:00007148       ??_C@_0BH@GELPODLK@glProgramParameteriARB?$AA@ 0000000180053148     umodsys_lib_libui:umodsys.mod.ui.SDL_GL.obj
 0002:00007160       ??_C@_0BK@HNPMALLK@GL_ARB_get_program_binary?$AA@ 0000000180053160     umodsys_lib_libui:umodsys.mod.ui.SDL_GL.obj
 0002:00007180       ??_C@_0BD@JBCEHKON@glGetProgramBinary?$AA@ 0000000180053180     umodsys_lib_libui:umodsys.mod.ui.SDL_GL.obj
 0002:00007198       ??_C@_0BA@MIIDHOO@glProgramBinary?$AA@ 0000000180053198     umodsys_lib_libui:umodsys.mod.ui.SDL_GL.obj
 0002:000071a8       ??_C@_0BE@EELDBEME@glProgramParameteri?$AA@ 00000001800531a8     umodsys_lib_libui:umodsys.mod.ui.SDL_GL.obj
 0002:000071c0       ??_C@_0P@GDHEIIHD@GL_ARB_imaging?$AA@ 00000001800531c0     umodsys_lib_libui:umodsys.mod.ui.SDL_GL.obj
 0002:000071d0       ??_C@_0BA@JAMHNPHF@glColorSubTable?$AA@ 00000001800531d0     umodsys_lib_libui:umodsys.mod.ui.SDL_GL.obj
 0002:000071e0       ??_C@_0N@PCFLODHG@glColorTable?$AA@ 00000001800531e0     umodsys_lib_libui:umodsys.mod.ui.SDL_GL.obj
 0002:000071f0       ??_C@_0BI@DEIGFBNP@glColorTableParameterfv?$AA@ 00000001800531f0     umodsys_lib_libui:umodsys.mod.ui.SDL_GL.obj
 0002:00007208       ??_C@_0BI@DPNKBGOC@glColorTableParameteriv?$AA@ 0000000180053208     umodsys_lib_libui:umodsys.mod.ui.SDL_GL.obj
 0002:00007220       ??_C@_0BG@CJBBBGMA@glConvolutionFilter1D?$AA@ 0000000180053220     umodsys_lib_libui:umodsys.mod.ui.SDL_GL.obj
 0002:00007238       ??_C@_0BG@CLFHKIJJ@glConvolutionFilter2D?$AA@ 0000000180053238     umodsys_lib_libui:umodsys.mod.ui.SDL_GL.obj
 0002:00007250       ??_C@_0BI@PLJALAOH@glConvolutionParameterf?$AA@ 0000000180053250     umodsys_lib_libui:umodsys.mod.ui.SDL_GL.obj
 0002:00007268       ??_C@_0BJ@EHPADJBL@glConvolutionParameterfv?$AA@ 0000000180053268     umodsys_lib_libui:umodsys.mod.ui.SDL_GL.obj
 0002:00007288       ??_C@_0BI@HMAIKMCI@glConvolutionParameteri?$AA@ 0000000180053288     umodsys_lib_libui:umodsys.mod.ui.SDL_GL.obj
 0002:000072a0       ??_C@_0BJ@EMKMHOCG@glConvolutionParameteriv?$AA@ 00000001800532a0     umodsys_lib_libui:umodsys.mod.ui.SDL_GL.obj
 0002:000072c0       ??_C@_0BE@LPPLPNIO@glCopyColorSubTable?$AA@ 00000001800532c0     umodsys_lib_libui:umodsys.mod.ui.SDL_GL.obj
 0002:000072d8       ??_C@_0BB@KFNEDBPG@glCopyColorTable?$AA@ 00000001800532d8     umodsys_lib_libui:umodsys.mod.ui.SDL_GL.obj
 0002:000072f0       ??_C@_0BK@GEKJMFLK@glCopyConvolutionFilter1D?$AA@ 00000001800532f0     umodsys_lib_libui:umodsys.mod.ui.SDL_GL.obj
 0002:00007310       ??_C@_0BK@GGOPHLOD@glCopyConvolutionFilter2D?$AA@ 0000000180053310     umodsys_lib_libui:umodsys.mod.ui.SDL_GL.obj
 0002:00007330       ??_C@_0BA@JMNLAECM@glGetColorTable?$AA@ 0000000180053330     umodsys_lib_libui:umodsys.mod.ui.SDL_GL.obj
 0002:00007340       ??_C@_0BL@NIJNHALB@glGetColorTableParameterfv?$AA@ 0000000180053340     umodsys_lib_libui:umodsys.mod.ui.SDL_GL.obj
 0002:00007360       ??_C@_0BL@NDMBDHIM@glGetColorTableParameteriv?$AA@ 0000000180053360     umodsys_lib_libui:umodsys.mod.ui.SDL_GL.obj
 0002:00007380       ??_C@_0BH@LPCMFECN@glGetConvolutionFilter?$AA@ 0000000180053380     umodsys_lib_libui:umodsys.mod.ui.SDL_GL.obj
 0002:00007398       ??_C@_0BM@ONBGGOGF@glGetConvolutionParameterfv?$AA@ 0000000180053398     umodsys_lib_libui:umodsys.mod.ui.SDL_GL.obj
 0002:000073b8       ??_C@_0BM@OGEKCJFI@glGetConvolutionParameteriv?$AA@ 00000001800533b8     umodsys_lib_libui:umodsys.mod.ui.SDL_GL.obj
 0002:000073d8       ??_C@_0P@KEFKNNKH@glGetHistogram?$AA@ 00000001800533d8     umodsys_lib_libui:umodsys.mod.ui.SDL_GL.obj
 0002:000073e8       ??_C@_0BK@IFPDKCN@glGetHistogramParameterfv?$AA@ 00000001800533e8     umodsys_lib_libui:umodsys.mod.ui.SDL_GL.obj
 0002:00007408       ??_C@_0BK@DADHNBA@glGetHistogramParameteriv?$AA@ 0000000180053408     umodsys_lib_libui:umodsys.mod.ui.SDL_GL.obj
 0002:00007428       ??_C@_0M@ILDMABIA@glGetMinmax?$AA@ 0000000180053428     umodsys_lib_libui:umodsys.mod.ui.SDL_GL.obj
 0002:00007438       ??_C@_0BH@ONPKEHGK@glGetMinmaxParameterfv?$AA@ 0000000180053438     umodsys_lib_libui:umodsys.mod.ui.SDL_GL.obj
 0002:00007450       ??_C@_0BH@OGKGAAFH@glGetMinmaxParameteriv?$AA@ 0000000180053450     umodsys_lib_libui:umodsys.mod.ui.SDL_GL.obj
 0002:00007468       ??_C@_0BF@LPFBPGKD@glGetSeparableFilter?$AA@ 0000000180053468     umodsys_lib_libui:umodsys.mod.ui.SDL_GL.obj
 0002:00007480       ??_C@_0M@EPLLGADA@glHistogram?$AA@ 0000000180053480     umodsys_lib_libui:umodsys.mod.ui.SDL_GL.obj
 0002:00007490       ??_C@_08ONCKEMPI@glMinmax?$AA@ 0000000180053490     umodsys_lib_libui:umodsys.mod.ui.SDL_GL.obj
 0002:000074a0       ??_C@_0BB@OBMEDNFE@glResetHistogram?$AA@ 00000001800534a0     umodsys_lib_libui:umodsys.mod.ui.SDL_GL.obj
 0002:000074b8       ??_C@_0O@MKNEKFLH@glResetMinmax?$AA@ 00000001800534b8     umodsys_lib_libui:umodsys.mod.ui.SDL_GL.obj
 0002:000074c8       ??_C@_0BE@IEPFBBMM@glSeparableFilter2D?$AA@ 00000001800534c8     umodsys_lib_libui:umodsys.mod.ui.SDL_GL.obj
 0002:000074e0       ??_C@_0BL@KOLCPNBO@GL_ARB_indirect_parameters?$AA@ 00000001800534e0     umodsys_lib_libui:umodsys.mod.ui.SDL_GL.obj
 0002:00007500       ??_C@_0CC@GFMDJHGF@glMultiDrawArraysIndirectCountAR@ 0000000180053500     umodsys_lib_libui:umodsys.mod.ui.SDL_GL.obj
 0002:00007528       ??_C@_0CE@ONILMPPM@glMultiDrawElementsIndirectCount@ 0000000180053528     umodsys_lib_libui:umodsys.mod.ui.SDL_GL.obj
 0002:00007550       ??_C@_0BI@GEEEIEIJ@GL_ARB_instanced_arrays?$AA@ 0000000180053550     umodsys_lib_libui:umodsys.mod.ui.SDL_GL.obj
 0002:00007568       ??_C@_0BJ@KDFJOAKK@glVertexAttribDivisorARB?$AA@ 0000000180053568     umodsys_lib_libui:umodsys.mod.ui.SDL_GL.obj
 0002:00007588       ??_C@_0BM@CAEGIJIO@GL_ARB_internalformat_query?$AA@ 0000000180053588     umodsys_lib_libui:umodsys.mod.ui.SDL_GL.obj
 0002:000075a8       ??_C@_0BG@BAOCDJPF@glGetInternalformativ?$AA@ 00000001800535a8     umodsys_lib_libui:umodsys.mod.ui.SDL_GL.obj
 0002:000075c0       ??_C@_0BN@OHFALMNP@GL_ARB_internalformat_query2?$AA@ 00000001800535c0     umodsys_lib_libui:umodsys.mod.ui.SDL_GL.obj
 0002:000075e0       ??_C@_0BI@PHNNEGBD@glGetInternalformati64v?$AA@ 00000001800535e0     umodsys_lib_libui:umodsys.mod.ui.SDL_GL.obj
 0002:000075f8       ??_C@_0BK@HKMBDNBJ@GL_ARB_invalidate_subdata?$AA@ 00000001800535f8     umodsys_lib_libui:umodsys.mod.ui.SDL_GL.obj
 0002:00007618       ??_C@_0BH@OGIFIBHA@glInvalidateBufferData?$AA@ 0000000180053618     umodsys_lib_libui:umodsys.mod.ui.SDL_GL.obj
 0002:00007630       ??_C@_0BK@HOHOHNAC@glInvalidateBufferSubData?$AA@ 0000000180053630     umodsys_lib_libui:umodsys.mod.ui.SDL_GL.obj
 0002:00007650       ??_C@_0BI@OAJPOHIP@glInvalidateFramebuffer?$AA@ 0000000180053650     umodsys_lib_libui:umodsys.mod.ui.SDL_GL.obj
 0002:00007668       ??_C@_0BL@IHGLAPPE@glInvalidateSubFramebuffer?$AA@ 0000000180053668     umodsys_lib_libui:umodsys.mod.ui.SDL_GL.obj
 0002:00007688       ??_C@_0BF@KHIECPKG@glInvalidateTexImage?$AA@ 0000000180053688     umodsys_lib_libui:umodsys.mod.ui.SDL_GL.obj
 0002:000076a0       ??_C@_0BI@FJDKFLGL@glInvalidateTexSubImage?$AA@ 00000001800536a0     umodsys_lib_libui:umodsys.mod.ui.SDL_GL.obj
 0002:000076b8       ??_C@_0BG@CILLCDJH@GL_ARB_matrix_palette?$AA@ 00000001800536b8     umodsys_lib_libui:umodsys.mod.ui.SDL_GL.obj
 0002:000076d0       ??_C@_0BK@HJCEONII@glCurrentPaletteMatrixARB?$AA@ 00000001800536d0     umodsys_lib_libui:umodsys.mod.ui.SDL_GL.obj
 0002:000076f0       ??_C@_0BI@LOCLKDCL@glMatrixIndexPointerARB?$AA@ 00000001800536f0     umodsys_lib_libui:umodsys.mod.ui.SDL_GL.obj
 0002:00007708       ??_C@_0BE@HCLPKGGK@glMatrixIndexubvARB?$AA@ 0000000180053708     umodsys_lib_libui:umodsys.mod.ui.SDL_GL.obj
 0002:00007720       ??_C@_0BE@BIHIFGKJ@glMatrixIndexuivARB?$AA@ 0000000180053720     umodsys_lib_libui:umodsys.mod.ui.SDL_GL.obj
 0002:00007738       ??_C@_0BE@LKDFHHFE@glMatrixIndexusvARB?$AA@ 0000000180053738     umodsys_lib_libui:umodsys.mod.ui.SDL_GL.obj
 0002:00007750       ??_C@_0BC@HHGOLJHF@GL_ARB_multi_bind?$AA@ 0000000180053750     umodsys_lib_libui:umodsys.mod.ui.SDL_GL.obj
 0002:00007768       ??_C@_0BC@ENBBLPHM@glBindBuffersBase?$AA@ 0000000180053768     umodsys_lib_libui:umodsys.mod.ui.SDL_GL.obj
 0002:00007780       ??_C@_0BD@ODFFOKPN@glBindBuffersRange?$AA@ 0000000180053780     umodsys_lib_libui:umodsys.mod.ui.SDL_GL.obj
 0002:00007798       ??_C@_0BE@NAMJLOCK@glBindImageTextures?$AA@ 0000000180053798     umodsys_lib_libui:umodsys.mod.ui.SDL_GL.obj
 0002:000077b0       ??_C@_0P@FADPDFKM@glBindSamplers?$AA@ 00000001800537b0     umodsys_lib_libui:umodsys.mod.ui.SDL_GL.obj
 0002:000077c0       ??_C@_0P@KHDEIIMA@glBindTextures?$AA@ 00000001800537c0     umodsys_lib_libui:umodsys.mod.ui.SDL_GL.obj
 0002:000077d0       ??_C@_0BE@LNCGJHDC@glBindVertexBuffers?$AA@ 00000001800537d0     umodsys_lib_libui:umodsys.mod.ui.SDL_GL.obj
 0002:000077e8       ??_C@_0BL@PDDLDNGB@GL_ARB_multi_draw_indirect?$AA@ 00000001800537e8     umodsys_lib_libui:umodsys.mod.ui.SDL_GL.obj
 0002:00007808       ??_C@_0BK@IKGAIKOP@glMultiDrawArraysIndirect?$AA@ 0000000180053808     umodsys_lib_libui:umodsys.mod.ui.SDL_GL.obj
 0002:00007828       ??_C@_0BM@KHEEFMKO@glMultiDrawElementsIndirect?$AA@ 0000000180053828     umodsys_lib_libui:umodsys.mod.ui.SDL_GL.obj
 0002:00007848       ??_C@_0BD@PNEOICHK@GL_ARB_multisample?$AA@ 0000000180053848     umodsys_lib_libui:umodsys.mod.ui.SDL_GL.obj
 0002:00007860       ??_C@_0BE@NMFNHPGD@glSampleCoverageARB?$AA@ 0000000180053860     umodsys_lib_libui:umodsys.mod.ui.SDL_GL.obj
 0002:00007878       ??_C@_0BE@MEMOPMEA@GL_ARB_multitexture?$AA@ 0000000180053878     umodsys_lib_libui:umodsys.mod.ui.SDL_GL.obj
 0002:00007890       ??_C@_0BD@IKCKKKNH@glActiveTextureARB?$AA@ 0000000180053890     umodsys_lib_libui:umodsys.mod.ui.SDL_GL.obj
 0002:000078a8       ??_C@_0BJ@PBJNGLJH@glClientActiveTextureARB?$AA@ 00000001800538a8     umodsys_lib_libui:umodsys.mod.ui.SDL_GL.obj
 0002:000078c8       ??_C@_0BF@JJDGKFDO@glMultiTexCoord1dARB?$AA@ 00000001800538c8     umodsys_lib_libui:umodsys.mod.ui.SDL_GL.obj
 0002:000078e0       ??_C@_0BG@EODMDJBO@glMultiTexCoord1dvARB?$AA@ 00000001800538e0     umodsys_lib_libui:umodsys.mod.ui.SDL_GL.obj
 0002:000078f8       ??_C@_0BF@ODPGPGFO@glMultiTexCoord1fARB?$AA@ 00000001800538f8     umodsys_lib_libui:umodsys.mod.ui.SDL_GL.obj
 0002:00007910       ??_C@_0BG@DPEJIBF@glMultiTexCoord1fvARB?$AA@ 0000000180053910     umodsys_lib_libui:umodsys.mod.ui.SDL_GL.obj
 0002:00007928       ??_C@_0BF@GBKGGBIP@glMultiTexCoord1iARB?$AA@ 0000000180053928     umodsys_lib_libui:umodsys.mod.ui.SDL_GL.obj
 0002:00007940       ??_C@_0BG@PCKCCKMA@glMultiTexCoord1ivARB?$AA@ 0000000180053940     umodsys_lib_libui:umodsys.mod.ui.SDL_GL.obj
 0002:00007958       ??_C@_0BF@ELPGOOKM@glMultiTexCoord1sARB?$AA@ 0000000180053958     umodsys_lib_libui:umodsys.mod.ui.SDL_GL.obj
 0002:00007970       ??_C@_0BG@FAOPALDN@glMultiTexCoord1svARB?$AA@ 0000000180053970     umodsys_lib_libui:umodsys.mod.ui.SDL_GL.obj
 0002:00007988       ??_C@_0BF@BPKCNHJA@glMultiTexCoord2dARB?$AA@ 0000000180053988     umodsys_lib_libui:umodsys.mod.ui.SDL_GL.obj
 0002:000079a0       ??_C@_0BG@HPNECDID@glMultiTexCoord2dvARB?$AA@ 00000001800539a0     umodsys_lib_libui:umodsys.mod.ui.SDL_GL.obj
 0002:000079b8       ??_C@_0BF@GFGCIEPA@glMultiTexCoord2fARB?$AA@ 00000001800539b8     umodsys_lib_libui:umodsys.mod.ui.SDL_GL.obj
 0002:000079d0       ??_C@_0BG@DCBMICII@glMultiTexCoord2fvARB?$AA@ 00000001800539d0     umodsys_lib_libui:umodsys.mod.ui.SDL_GL.obj
 0002:000079e8       ??_C@_0BF@OHDCBDCB@glMultiTexCoord2iARB?$AA@ 00000001800539e8     umodsys_lib_libui:umodsys.mod.ui.SDL_GL.obj
 0002:00007a00       ??_C@_0BG@MDEKDAFN@glMultiTexCoord2ivARB?$AA@ 0000000180053a00     umodsys_lib_libui:umodsys.mod.ui.SDL_GL.obj
 0002:00007a18       ??_C@_0BF@MNGCJMAC@glMultiTexCoord2sARB?$AA@ 0000000180053a18     umodsys_lib_libui:umodsys.mod.ui.SDL_GL.obj
 0002:00007a30       ??_C@_0BG@GBAHBBKA@glMultiTexCoord2svARB?$AA@ 0000000180053a30     umodsys_lib_libui:umodsys.mod.ui.SDL_GL.obj
 0002:00007a48       ??_C@_0BF@NEPOAEDF@glMultiTexCoord3dARB?$AA@ 0000000180053a48     umodsys_lib_libui:umodsys.mod.ui.SDL_GL.obj
 0002:00007a60       ??_C@_0BG@NJKDCIDH@glMultiTexCoord3dvARB?$AA@ 0000000180053a60     umodsys_lib_libui:umodsys.mod.ui.SDL_GL.obj
 0002:00007a78       ??_C@_0BF@KODOFHFF@glMultiTexCoord3fARB?$AA@ 0000000180053a78     umodsys_lib_libui:umodsys.mod.ui.SDL_GL.obj
 0002:00007a90       ??_C@_0BG@JEGLIJDM@glMultiTexCoord3fvARB?$AA@ 0000000180053a90     umodsys_lib_libui:umodsys.mod.ui.SDL_GL.obj
 0002:00007aa8       ??_C@_0BF@CMGOMAIE@glMultiTexCoord3iARB?$AA@ 0000000180053aa8     umodsys_lib_libui:umodsys.mod.ui.SDL_GL.obj
 0002:00007ac0       ??_C@_0BG@GFDNDLOJ@glMultiTexCoord3ivARB?$AA@ 0000000180053ac0     umodsys_lib_libui:umodsys.mod.ui.SDL_GL.obj
 0002:00007ad8       ??_C@_0BF@GDOEPKH@glMultiTexCoord3sARB?$AA@ 0000000180053ad8     umodsys_lib_libui:umodsys.mod.ui.SDL_GL.obj
 0002:00007af0       ??_C@_0BG@MHHABKBE@glMultiTexCoord3svARB?$AA@ 0000000180053af0     umodsys_lib_libui:umodsys.mod.ui.SDL_GL.obj
 0002:00007b08       ??_C@_0BF@MJPLDEIN@glMultiTexCoord4dARB?$AA@ 0000000180053b08     umodsys_lib_libui:umodsys.mod.ui.SDL_GL.obj
 0002:00007b20       ??_C@_0BG@BMAEBGLJ@glMultiTexCoord4dvARB?$AA@ 0000000180053b20     umodsys_lib_libui:umodsys.mod.ui.SDL_GL.obj
 0002:00007b38       ??_C@_0BF@LDDLGHON@glMultiTexCoord4fARB?$AA@ 0000000180053b38     umodsys_lib_libui:umodsys.mod.ui.SDL_GL.obj
 0002:00007b50       ??_C@_0BG@FBMMLHLC@glMultiTexCoord4fvARB?$AA@ 0000000180053b50     umodsys_lib_libui:umodsys.mod.ui.SDL_GL.obj
 0002:00007b68       ??_C@_0BF@DBGLPADM@glMultiTexCoord4iARB?$AA@ 0000000180053b68     umodsys_lib_libui:umodsys.mod.ui.SDL_GL.obj
 0002:00007b80       ??_C@_0BG@KAJKAFGH@glMultiTexCoord4ivARB?$AA@ 0000000180053b80     umodsys_lib_libui:umodsys.mod.ui.SDL_GL.obj
 0002:00007b98       ??_C@_0BF@BLDLHPBP@glMultiTexCoord4sARB?$AA@ 0000000180053b98     umodsys_lib_libui:umodsys.mod.ui.SDL_GL.obj
 0002:00007bb0       ??_C@_0BG@CNHCEJK@glMultiTexCoord4svARB?$AA@ 0000000180053bb0     umodsys_lib_libui:umodsys.mod.ui.SDL_GL.obj
 0002:00007bc8       ??_C@_0BH@NKOBMOPI@GL_ARB_occlusion_query?$AA@ 0000000180053bc8     umodsys_lib_libui:umodsys.mod.ui.SDL_GL.obj
 0002:00007be0       ??_C@_0BA@LPKBABEB@glBeginQueryARB?$AA@ 0000000180053be0     umodsys_lib_libui:umodsys.mod.ui.SDL_GL.obj
 0002:00007bf0       ??_C@_0BD@HAEDHPKB@glDeleteQueriesARB?$AA@ 0000000180053bf0     umodsys_lib_libui:umodsys.mod.ui.SDL_GL.obj
 0002:00007c08       ??_C@_0O@EFJDHGFG@glEndQueryARB?$AA@ 0000000180053c08     umodsys_lib_libui:umodsys.mod.ui.SDL_GL.obj
 0002:00007c18       ??_C@_0BA@BJHFNMK@glGenQueriesARB?$AA@ 0000000180053c18     umodsys_lib_libui:umodsys.mod.ui.SDL_GL.obj
 0002:00007c28       ??_C@_0BG@EDFKPCGN@glGetQueryObjectivARB?$AA@ 0000000180053c28     umodsys_lib_libui:umodsys.mod.ui.SDL_GL.obj
 0002:00007c40       ??_C@_0BH@OOHKBDPD@glGetQueryObjectuivARB?$AA@ 0000000180053c40     umodsys_lib_libui:umodsys.mod.ui.SDL_GL.obj
 0002:00007c58       ??_C@_0BA@DPEEILJC@glGetQueryivARB?$AA@ 0000000180053c58     umodsys_lib_libui:umodsys.mod.ui.SDL_GL.obj
 0002:00007c68       ??_C@_0N@HKMIDCPF@glIsQueryARB?$AA@ 0000000180053c68     umodsys_lib_libui:umodsys.mod.ui.SDL_GL.obj
 0002:00007c78       ??_C@_0BI@KJOBMOPB@GL_ARB_point_parameters?$AA@ 0000000180053c78     umodsys_lib_libui:umodsys.mod.ui.SDL_GL.obj
 0002:00007c90       ??_C@_0BF@DADCFKCJ@glPointParameterfARB?$AA@ 0000000180053c90     umodsys_lib_libui:umodsys.mod.ui.SDL_GL.obj
 0002:00007ca8       ??_C@_0BG@MNEGLICG@glPointParameterfvARB?$AA@ 0000000180053ca8     umodsys_lib_libui:umodsys.mod.ui.SDL_GL.obj
 0002:00007cc0       ??_C@_0BP@DBPLPPLA@GL_ARB_program_interface_query?$AA@ 0000000180053cc0     umodsys_lib_libui:umodsys.mod.ui.SDL_GL.obj
 0002:00007ce0       ??_C@_0BI@ICGPDPK@glGetProgramInterfaceiv?$AA@ 0000000180053ce0     umodsys_lib_libui:umodsys.mod.ui.SDL_GL.obj
 0002:00007cf8       ??_C@_0BK@DBDCONKB@glGetProgramResourceIndex?$AA@ 0000000180053cf8     umodsys_lib_libui:umodsys.mod.ui.SDL_GL.obj
 0002:00007d18       ??_C@_0BN@BIJNENLC@glGetProgramResourceLocation?$AA@ 0000000180053d18     umodsys_lib_libui:umodsys.mod.ui.SDL_GL.obj
 0002:00007d38       ??_C@_0CC@GHECGAIH@glGetProgramResourceLocationInde@ 0000000180053d38     umodsys_lib_libui:umodsys.mod.ui.SDL_GL.obj
 0002:00007d60       ??_C@_0BJ@OHCPEAGJ@glGetProgramResourceName?$AA@ 0000000180053d60     umodsys_lib_libui:umodsys.mod.ui.SDL_GL.obj
 0002:00007d80       ??_C@_0BH@LEDFEPHI@glGetProgramResourceiv?$AA@ 0000000180053d80     umodsys_lib_libui:umodsys.mod.ui.SDL_GL.obj
 0002:00007d98       ??_C@_0BC@EOBKJDCM@GL_ARB_robustness?$AA@ 0000000180053d98     umodsys_lib_libui:umodsys.mod.ui.SDL_GL.obj
 0002:00007db0       ??_C@_0BM@HDJJPNDL@glGetGraphicsResetStatusARB?$AA@ 0000000180053db0     umodsys_lib_libui:umodsys.mod.ui.SDL_GL.obj
 0002:00007dd0       ??_C@_0BE@EKKDCCDE@glGetnColorTableARB?$AA@ 0000000180053dd0     umodsys_lib_libui:umodsys.mod.ui.SDL_GL.obj
 0002:00007de8       ??_C@_0BM@IEIHGHHI@glGetnCompressedTexImageARB?$AA@ 0000000180053de8     umodsys_lib_libui:umodsys.mod.ui.SDL_GL.obj
 0002:00007e08       ??_C@_0BL@KGPCMOFG@glGetnConvolutionFilterARB?$AA@ 0000000180053e08     umodsys_lib_libui:umodsys.mod.ui.SDL_GL.obj
 0002:00007e28       ??_C@_0BD@MOBMBOGN@glGetnHistogramARB?$AA@ 0000000180053e28     umodsys_lib_libui:umodsys.mod.ui.SDL_GL.obj
 0002:00007e40       ??_C@_0P@BCDNBFMA@glGetnMapdvARB?$AA@ 0000000180053e40     umodsys_lib_libui:umodsys.mod.ui.SDL_GL.obj
 0002:00007e50       ??_C@_0P@FPPFLEML@glGetnMapfvARB?$AA@ 0000000180053e50     umodsys_lib_libui:umodsys.mod.ui.SDL_GL.obj
 0002:00007e60       ??_C@_0P@KOKDAGBO@glGetnMapivARB?$AA@ 0000000180053e60     umodsys_lib_libui:umodsys.mod.ui.SDL_GL.obj
 0002:00007e70       ??_C@_0BA@PCCAKFCF@glGetnMinmaxARB?$AA@ 0000000180053e70     umodsys_lib_libui:umodsys.mod.ui.SDL_GL.obj
 0002:00007e80       ??_C@_0BE@FCLKGMPL@glGetnPixelMapfvARB?$AA@ 0000000180053e80     umodsys_lib_libui:umodsys.mod.ui.SDL_GL.obj
 0002:00007e98       ??_C@_0BF@BEPLFPF@glGetnPixelMapuivARB?$AA@ 0000000180053e98     umodsys_lib_libui:umodsys.mod.ui.SDL_GL.obj
 0002:00007eb0       ??_C@_0BF@KDACJEAI@glGetnPixelMapusvARB?$AA@ 0000000180053eb0     umodsys_lib_libui:umodsys.mod.ui.SDL_GL.obj
 0002:00007ec8       ??_C@_0BI@ENGMEGBP@glGetnPolygonStippleARB?$AA@ 0000000180053ec8     umodsys_lib_libui:umodsys.mod.ui.SDL_GL.obj
 0002:00007ee0       ??_C@_0BJ@LPLOODMD@glGetnSeparableFilterARB?$AA@ 0000000180053ee0     umodsys_lib_libui:umodsys.mod.ui.SDL_GL.obj
 0002:00007f00       ??_C@_0BC@PIJGCEFC@glGetnTexImageARB?$AA@ 0000000180053f00     umodsys_lib_libui:umodsys.mod.ui.SDL_GL.obj
 0002:00007f18       ??_C@_0BD@MEJNBIJE@glGetnUniformdvARB?$AA@ 0000000180053f18     umodsys_lib_libui:umodsys.mod.ui.SDL_GL.obj
 0002:00007f30       ??_C@_0BD@IJFFLJJP@glGetnUniformfvARB?$AA@ 0000000180053f30     umodsys_lib_libui:umodsys.mod.ui.SDL_GL.obj
 0002:00007f48       ??_C@_0BD@HIADALEK@glGetnUniformivARB?$AA@ 0000000180053f48     umodsys_lib_libui:umodsys.mod.ui.SDL_GL.obj
 0002:00007f60       ??_C@_0BE@ELELPPGB@glGetnUniformuivARB?$AA@ 0000000180053f60     umodsys_lib_libui:umodsys.mod.ui.SDL_GL.obj
 0002:00007f78       ??_C@_0BB@IPICMDNC@glReadnPixelsARB?$AA@ 0000000180053f78     umodsys_lib_libui:umodsys.mod.ui.SDL_GL.obj
 0002:00007f90       ??_C@_0BG@OGBJIDCC@GL_ARB_sample_shading?$AA@ 0000000180053f90     umodsys_lib_libui:umodsys.mod.ui.SDL_GL.obj
 0002:00007fa8       ??_C@_0BG@KHPHHIHH@glMinSampleShadingARB?$AA@ 0000000180053fa8     umodsys_lib_libui:umodsys.mod.ui.SDL_GL.obj
 0002:00007fc0       ??_C@_0BP@CCMMHIFB@GL_ARB_separate_shader_objects?$AA@ 0000000180053fc0     umodsys_lib_libui:umodsys.mod.ui.SDL_GL.obj
 0002:00007fe0       ??_C@_0BG@IAIOGMEB@glActiveShaderProgram?$AA@ 0000000180053fe0     umodsys_lib_libui:umodsys.mod.ui.SDL_GL.obj
 0002:00007ff8       ??_C@_0BG@GLPOKNCG@glBindProgramPipeline?$AA@ 0000000180053ff8     umodsys_lib_libui:umodsys.mod.ui.SDL_GL.obj
 0002:00008010       ??_C@_0BH@BOJGDFJN@glCreateShaderProgramv?$AA@ 0000000180054010     umodsys_lib_libui:umodsys.mod.ui.SDL_GL.obj
 0002:00008028       ??_C@_0BJ@CHBGABHE@glDeleteProgramPipelines?$AA@ 0000000180054028     umodsys_lib_libui:umodsys.mod.ui.SDL_GL.obj
 0002:00008048       ??_C@_0BG@CCBKOCA@glGenProgramPipelines?$AA@ 0000000180054048     umodsys_lib_libui:umodsys.mod.ui.SDL_GL.obj
 0002:00008060       ??_C@_0BM@BFFCFFFG@glGetProgramPipelineInfoLog?$AA@ 0000000180054060     umodsys_lib_libui:umodsys.mod.ui.SDL_GL.obj
 0002:00008080       ??_C@_0BH@DNOPNJMO@glGetProgramPipelineiv?$AA@ 0000000180054080     umodsys_lib_libui:umodsys.mod.ui.SDL_GL.obj
 0002:00008098       ??_C@_0BE@DLHPDHCH@glIsProgramPipeline?$AA@ 0000000180054098     umodsys_lib_libui:umodsys.mod.ui.SDL_GL.obj
 0002:000080b0       ??_C@_0BD@JLIFLIMB@glProgramUniform1d?$AA@ 00000001800540b0     umodsys_lib_libui:umodsys.mod.ui.SDL_GL.obj
 0002:000080c8       ??_C@_0BE@JFJNKJOO@glProgramUniform1dv?$AA@ 00000001800540c8     umodsys_lib_libui:umodsys.mod.ui.SDL_GL.obj
 0002:000080e0       ??_C@_0BD@KJLDNKED@glProgramUniform1f?$AA@ 00000001800540e0     umodsys_lib_libui:umodsys.mod.ui.SDL_GL.obj
 0002:000080f8       ??_C@_0BE@JGBJHNIA@glProgramUniform1fv?$AA@ 00000001800540f8     umodsys_lib_libui:umodsys.mod.ui.SDL_GL.obj
 0002:00008110       ??_C@_0BD@COCLMGIM@glProgramUniform1i?$AA@ 0000000180054110     umodsys_lib_libui:umodsys.mod.ui.SDL_GL.obj
 0002:00008128       ??_C@_0BE@JNEFDKLN@glProgramUniform1iv?$AA@ 0000000180054128     umodsys_lib_libui:umodsys.mod.ui.SDL_GL.obj
 0002:00008140       ??_C@_0BE@EFCDGODH@glProgramUniform1ui?$AA@ 0000000180054140     umodsys_lib_libui:umodsys.mod.ui.SDL_GL.obj
 0002:00008158       ??_C@_0BF@MBJNFIBB@glProgramUniform1uiv?$AA@ 0000000180054158     umodsys_lib_libui:umodsys.mod.ui.SDL_GL.obj
 0002:00008170       ??_C@_0BD@JJMDAGJI@glProgramUniform2d?$AA@ 0000000180054170     umodsys_lib_libui:umodsys.mod.ui.SDL_GL.obj
 0002:00008188       ??_C@_0BE@IHCIAGAA@glProgramUniform2dv?$AA@ 0000000180054188     umodsys_lib_libui:umodsys.mod.ui.SDL_GL.obj
 0002:000081a0       ??_C@_0BD@KLPFGEBK@glProgramUniform2f?$AA@ 00000001800541a0     umodsys_lib_libui:umodsys.mod.ui.SDL_GL.obj
 0002:000081b8       ??_C@_0BE@IEKMNCGO@glProgramUniform2fv?$AA@ 00000001800541b8     umodsys_lib_libui:umodsys.mod.ui.SDL_GL.obj
 0002:000081d0       ??_C@_0BD@CMGNHINF@glProgramUniform2i?$AA@ 00000001800541d0     umodsys_lib_libui:umodsys.mod.ui.SDL_GL.obj
 0002:000081e8       ??_C@_0BE@IPPAJFFD@glProgramUniform2iv?$AA@ 00000001800541e8     umodsys_lib_libui:umodsys.mod.ui.SDL_GL.obj
 0002:00008200       ??_C@_0BE@FHJGMBNJ@glProgramUniform2ui?$AA@ 0000000180054200     umodsys_lib_libui:umodsys.mod.ui.SDL_GL.obj
 0002:00008218       ??_C@_0BF@IGDNCCMB@glProgramUniform2uiv?$AA@ 0000000180054218     umodsys_lib_libui:umodsys.mod.ui.SDL_GL.obj
 0002:00008230       ??_C@_0BD@JIABGMKP@glProgramUniform3d?$AA@ 0000000180054230     umodsys_lib_libui:umodsys.mod.ui.SDL_GL.obj
 0002:00008248       ??_C@_0BE@DPJEGBGF@glProgramUniform3dv?$AA@ 0000000180054248     umodsys_lib_libui:umodsys.mod.ui.SDL_GL.obj
 0002:00008260       ??_C@_0BD@KKDHAOCN@glProgramUniform3f?$AA@ 0000000180054260     umodsys_lib_libui:umodsys.mod.ui.SDL_GL.obj
 0002:00008278       ??_C@_0BE@DMBALFAL@glProgramUniform3fv?$AA@ 0000000180054278     umodsys_lib_libui:umodsys.mod.ui.SDL_GL.obj
 0002:00008290       ??_C@_0BD@CNKPBCOC@glProgramUniform3i?$AA@ 0000000180054290     umodsys_lib_libui:umodsys.mod.ui.SDL_GL.obj
 0002:000082a8       ??_C@_0BE@DHEMPCDG@glProgramUniform3iv?$AA@ 00000001800542a8     umodsys_lib_libui:umodsys.mod.ui.SDL_GL.obj
 0002:000082c0       ??_C@_0BE@OPCKKGLM@glProgramUniform3ui?$AA@ 00000001800542c0     umodsys_lib_libui:umodsys.mod.ui.SDL_GL.obj
 0002:000082d8       ??_C@_0BF@LLFNALHB@glProgramUniform3uiv?$AA@ 00000001800542d8     umodsys_lib_libui:umodsys.mod.ui.SDL_GL.obj
 0002:000082f0       ??_C@_0BD@JNEOHKCK@glProgramUniform4d?$AA@ 00000001800542f0     umodsys_lib_libui:umodsys.mod.ui.SDL_GL.obj
 0002:00008308       ??_C@_0BE@KCEDFJNM@glProgramUniform4dv?$AA@ 0000000180054308     umodsys_lib_libui:umodsys.mod.ui.SDL_GL.obj
 0002:00008320       ??_C@_0BD@KPHIBIKI@glProgramUniform4f?$AA@ 0000000180054320     umodsys_lib_libui:umodsys.mod.ui.SDL_GL.obj
 0002:00008338       ??_C@_0BE@KBMHINLC@glProgramUniform4fv?$AA@ 0000000180054338     umodsys_lib_libui:umodsys.mod.ui.SDL_GL.obj
 0002:00008350       ??_C@_0BD@CIOAAEGH@glProgramUniform4i?$AA@ 0000000180054350     umodsys_lib_libui:umodsys.mod.ui.SDL_GL.obj
 0002:00008368       ??_C@_0BE@KKJLMKIP@glProgramUniform4iv?$AA@ 0000000180054368     umodsys_lib_libui:umodsys.mod.ui.SDL_GL.obj
 0002:00008380       ??_C@_0BE@HCPNJOAF@glProgramUniform4ui?$AA@ 0000000180054380     umodsys_lib_libui:umodsys.mod.ui.SDL_GL.obj
 0002:00008398       ??_C@_0BF@JHNNHGB@glProgramUniform4uiv?$AA@ 0000000180054398     umodsys_lib_libui:umodsys.mod.ui.SDL_GL.obj
 0002:000083b0       ??_C@_0BK@PAHLFKGL@glProgramUniformMatrix2dv?$AA@ 00000001800543b0     umodsys_lib_libui:umodsys.mod.ui.SDL_GL.obj
 0002:000083d0       ??_C@_0BK@PDPPIOAF@glProgramUniformMatrix2fv?$AA@ 00000001800543d0     umodsys_lib_libui:umodsys.mod.ui.SDL_GL.obj
 0002:000083f0       ??_C@_0BM@DCNGJFPN@glProgramUniformMatrix2x3dv?$AA@ 00000001800543f0     umodsys_lib_libui:umodsys.mod.ui.SDL_GL.obj
 0002:00008410       ??_C@_0BM@DBFCEBJD@glProgramUniformMatrix2x3fv?$AA@ 0000000180054410     umodsys_lib_libui:umodsys.mod.ui.SDL_GL.obj
 0002:00008430       ??_C@_0BM@KPABKNEE@glProgramUniformMatrix2x4dv?$AA@ 0000000180054430     umodsys_lib_libui:umodsys.mod.ui.SDL_GL.obj
 0002:00008450       ??_C@_0BM@KMIFHJCK@glProgramUniformMatrix2x4fv?$AA@ 0000000180054450     umodsys_lib_libui:umodsys.mod.ui.SDL_GL.obj
 0002:00008470       ??_C@_0BK@EIMHDNAO@glProgramUniformMatrix3dv?$AA@ 0000000180054470     umodsys_lib_libui:umodsys.mod.ui.SDL_GL.obj
 0002:00008490       ??_C@_0BK@ELEDOJGA@glProgramUniformMatrix3fv?$AA@ 0000000180054490     umodsys_lib_libui:umodsys.mod.ui.SDL_GL.obj
 0002:000084b0       ??_C@_0BM@EBDGCBDN@glProgramUniformMatrix3x2dv?$AA@ 00000001800544b0     umodsys_lib_libui:umodsys.mod.ui.SDL_GL.obj
 0002:000084d0       ??_C@_0BM@ECLCPFFD@glProgramUniformMatrix3x2fv?$AA@ 00000001800544d0     umodsys_lib_libui:umodsys.mod.ui.SDL_GL.obj
 0002:000084f0       ??_C@_0BM@GEFNHOOB@glProgramUniformMatrix3x4dv?$AA@ 00000001800544f0     umodsys_lib_libui:umodsys.mod.ui.SDL_GL.obj
 0002:00008510       ??_C@_0BM@GHNJKKIP@glProgramUniformMatrix3x4fv?$AA@ 0000000180054510     umodsys_lib_libui:umodsys.mod.ui.SDL_GL.obj
 0002:00008530       ??_C@_0BK@NFBAAFLH@glProgramUniformMatrix4dv?$AA@ 0000000180054530     umodsys_lib_libui:umodsys.mod.ui.SDL_GL.obj
 0002:00008550       ??_C@_0BK@NGJENBNJ@glProgramUniformMatrix4fv?$AA@ 0000000180054550     umodsys_lib_libui:umodsys.mod.ui.SDL_GL.obj
 0002:00008570       ??_C@_0BM@FMDDBBIF@glProgramUniformMatrix4x2dv?$AA@ 0000000180054570     umodsys_lib_libui:umodsys.mod.ui.SDL_GL.obj
 0002:00008590       ??_C@_0BM@FPLHMFOL@glProgramUniformMatrix4x2fv?$AA@ 0000000180054590     umodsys_lib_libui:umodsys.mod.ui.SDL_GL.obj
 0002:000085b0       ??_C@_0BM@OEIPHGOA@glProgramUniformMatrix4x3dv?$AA@ 00000001800545b0     umodsys_lib_libui:umodsys.mod.ui.SDL_GL.obj
 0002:000085d0       ??_C@_0BM@OHALKCIO@glProgramUniformMatrix4x3fv?$AA@ 00000001800545d0     umodsys_lib_libui:umodsys.mod.ui.SDL_GL.obj
 0002:000085f0       ??_C@_0BD@CADKHDMH@glUseProgramStages?$AA@ 00000001800545f0     umodsys_lib_libui:umodsys.mod.ui.SDL_GL.obj
 0002:00008608       ??_C@_0BK@HHHCKEGH@glValidateProgramPipeline?$AA@ 0000000180054608     umodsys_lib_libui:umodsys.mod.ui.SDL_GL.obj
 0002:00008628       ??_C@_0BO@IIINIEKI@GL_ARB_shader_atomic_counters?$AA@ 0000000180054628     umodsys_lib_libui:umodsys.mod.ui.SDL_GL.obj
 0002:00008648       ??_C@_0CB@CEHFMJFN@glGetActiveAtomicCounterBufferiv@ 0000000180054648     umodsys_lib_libui:umodsys.mod.ui.SDL_GL.obj
 0002:00008670       ??_C@_0BP@JHNJKEFP@GL_ARB_shader_image_load_store?$AA@ 0000000180054670     umodsys_lib_libui:umodsys.mod.ui.SDL_GL.obj
 0002:00008690       ??_C@_0BD@GAKEPNGD@glBindImageTexture?$AA@ 0000000180054690     umodsys_lib_libui:umodsys.mod.ui.SDL_GL.obj
 0002:000086a8       ??_C@_0BA@HIHPNLBJ@glMemoryBarrier?$AA@ 00000001800546a8     umodsys_lib_libui:umodsys.mod.ui.SDL_GL.obj
 0002:000086b8       ??_C@_0BG@OLLFAEMA@GL_ARB_shader_objects?$AA@ 00000001800546b8     umodsys_lib_libui:umodsys.mod.ui.SDL_GL.obj
 0002:000086d0       ??_C@_0BC@GINLBKLJ@glAttachObjectARB?$AA@ 00000001800546d0     umodsys_lib_libui:umodsys.mod.ui.SDL_GL.obj
 0002:000086e8       ??_C@_0BD@BEDGBOPM@glCompileShaderARB?$AA@ 00000001800546e8     umodsys_lib_libui:umodsys.mod.ui.SDL_GL.obj
 0002:00008700       ??_C@_0BJ@KGMBEPBI@glCreateProgramObjectARB?$AA@ 0000000180054700     umodsys_lib_libui:umodsys.mod.ui.SDL_GL.obj
 0002:00008720       ??_C@_0BI@FMNPOEGE@glCreateShaderObjectARB?$AA@ 0000000180054720     umodsys_lib_libui:umodsys.mod.ui.SDL_GL.obj
 0002:00008738       ??_C@_0BC@MJFNICLA@glDeleteObjectARB?$AA@ 0000000180054738     umodsys_lib_libui:umodsys.mod.ui.SDL_GL.obj
 0002:00008750       ??_C@_0BC@OPBLIDAI@glDetachObjectARB?$AA@ 0000000180054750     umodsys_lib_libui:umodsys.mod.ui.SDL_GL.obj
 0002:00008768       ??_C@_0BG@FNEOAGIK@glGetActiveUniformARB?$AA@ 0000000180054768     umodsys_lib_libui:umodsys.mod.ui.SDL_GL.obj
 0002:00008780       ??_C@_0BI@KFAABOIL@glGetAttachedObjectsARB?$AA@ 0000000180054780     umodsys_lib_libui:umodsys.mod.ui.SDL_GL.obj
 0002:00008798       ??_C@_0P@LFBJNCKO@glGetHandleARB?$AA@ 0000000180054798     umodsys_lib_libui:umodsys.mod.ui.SDL_GL.obj
 0002:000087a8       ??_C@_0BA@FLIOBLOG@glGetInfoLogARB?$AA@ 00000001800547a8     umodsys_lib_libui:umodsys.mod.ui.SDL_GL.obj
 0002:000087b8       ??_C@_0BK@HCFOBODO@glGetObjectParameterfvARB?$AA@ 00000001800547b8     umodsys_lib_libui:umodsys.mod.ui.SDL_GL.obj
 0002:000087d8       ??_C@_0BK@IDAIKMOL@glGetObjectParameterivARB?$AA@ 00000001800547d8     umodsys_lib_libui:umodsys.mod.ui.SDL_GL.obj
 0002:000087f8       ??_C@_0BF@OBGOKFNE@glGetShaderSourceARB?$AA@ 00000001800547f8     umodsys_lib_libui:umodsys.mod.ui.SDL_GL.obj
 0002:00008810       ??_C@_0BI@CAFPPHDC@glGetUniformLocationARB?$AA@ 0000000180054810     umodsys_lib_libui:umodsys.mod.ui.SDL_GL.obj
 0002:00008828       ??_C@_0BC@KKIJAHAK@glGetUniformfvARB?$AA@ 0000000180054828     umodsys_lib_libui:umodsys.mod.ui.SDL_GL.obj
 0002:00008840       ??_C@_0BC@FLNPLFNP@glGetUniformivARB?$AA@ 0000000180054840     umodsys_lib_libui:umodsys.mod.ui.SDL_GL.obj
 0002:00008858       ??_C@_0BB@HPIAOOAG@glLinkProgramARB?$AA@ 0000000180054858     umodsys_lib_libui:umodsys.mod.ui.SDL_GL.obj
 0002:00008870       ??_C@_0BC@MCCOFGJG@glShaderSourceARB?$AA@ 0000000180054870     umodsys_lib_libui:umodsys.mod.ui.SDL_GL.obj
 0002:00008888       ??_C@_0P@KFNIAEEC@glUniform1fARB?$AA@ 0000000180054888     umodsys_lib_libui:umodsys.mod.ui.SDL_GL.obj
 0002:00008898       ??_C@_0BA@BHLDOKKI@glUniform1fvARB?$AA@ 0000000180054898     umodsys_lib_libui:umodsys.mod.ui.SDL_GL.obj
 0002:000088a8       ??_C@_0P@CHIIJDJD@glUniform1iARB?$AA@ 00000001800548a8     umodsys_lib_libui:umodsys.mod.ui.SDL_GL.obj
 0002:000088b8       ??_C@_0BA@OGOFFIHN@glUniform1ivARB?$AA@ 00000001800548b8     umodsys_lib_libui:umodsys.mod.ui.SDL_GL.obj
 0002:000088c8       ??_C@_0P@CDEMHGOM@glUniform2fARB?$AA@ 00000001800548c8     umodsys_lib_libui:umodsys.mod.ui.SDL_GL.obj
 0002:000088d8       ??_C@_0BA@CGFLPADF@glUniform2fvARB?$AA@ 00000001800548d8     umodsys_lib_libui:umodsys.mod.ui.SDL_GL.obj
 0002:000088e8       ??_C@_0P@KBBMOBDN@glUniform2iARB?$AA@ 00000001800548e8     umodsys_lib_libui:umodsys.mod.ui.SDL_GL.obj
 0002:000088f8       ??_C@_0BA@NHANECOA@glUniform2ivARB?$AA@ 00000001800548f8     umodsys_lib_libui:umodsys.mod.ui.SDL_GL.obj
 0002:00008908       ??_C@_0P@OIBAKFEJ@glUniform3fARB?$AA@ 0000000180054908     umodsys_lib_libui:umodsys.mod.ui.SDL_GL.obj
 0002:00008918       ??_C@_0BA@IACMPLIB@glUniform3fvARB?$AA@ 0000000180054918     umodsys_lib_libui:umodsys.mod.ui.SDL_GL.obj
 0002:00008928       ??_C@_0P@GKEADCJI@glUniform3iARB?$AA@ 0000000180054928     umodsys_lib_libui:umodsys.mod.ui.SDL_GL.obj
 0002:00008938       ??_C@_0BA@HBHKEJFE@glUniform3ivARB?$AA@ 0000000180054938     umodsys_lib_libui:umodsys.mod.ui.SDL_GL.obj
 0002:00008948       ??_C@_0P@PFBFJFPB@glUniform4fARB?$AA@ 0000000180054948     umodsys_lib_libui:umodsys.mod.ui.SDL_GL.obj
 0002:00008958       ??_C@_0BA@EFILMFAP@glUniform4fvARB?$AA@ 0000000180054958     umodsys_lib_libui:umodsys.mod.ui.SDL_GL.obj
 0002:00008968       ??_C@_0P@HHEFACCA@glUniform4iARB?$AA@ 0000000180054968     umodsys_lib_libui:umodsys.mod.ui.SDL_GL.obj
 0002:00008978       ??_C@_0BA@LENNHHNK@glUniform4ivARB?$AA@ 0000000180054978     umodsys_lib_libui:umodsys.mod.ui.SDL_GL.obj
 0002:00008988       ??_C@_0BG@KPIOAAJO@glUniformMatrix2fvARB?$AA@ 0000000180054988     umodsys_lib_libui:umodsys.mod.ui.SDL_GL.obj
 0002:000089a0       ??_C@_0BG@JPJALCK@glUniformMatrix3fvARB?$AA@ 00000001800549a0     umodsys_lib_libui:umodsys.mod.ui.SDL_GL.obj
 0002:000089b8       ??_C@_0BG@MMFODFKE@glUniformMatrix4fvARB?$AA@ 00000001800549b8     umodsys_lib_libui:umodsys.mod.ui.SDL_GL.obj
 0002:000089d0       ??_C@_0BG@JEOFPDIM@glUseProgramObjectARB?$AA@ 00000001800549d0     umodsys_lib_libui:umodsys.mod.ui.SDL_GL.obj
 0002:000089e8       ??_C@_0BF@BGDHGNPG@glValidateProgramARB?$AA@ 00000001800549e8     umodsys_lib_libui:umodsys.mod.ui.SDL_GL.obj
 0002:00008a00       ??_C@_0CE@HBCJMOIO@GL_ARB_shader_storage_buffer_obj@ 0000000180054a00     umodsys_lib_libui:umodsys.mod.ui.SDL_GL.obj
 0002:00008a28       ??_C@_0BM@GDDCNIBO@glShaderStorageBlockBinding?$AA@ 0000000180054a28     umodsys_lib_libui:umodsys.mod.ui.SDL_GL.obj
 0002:00008a48       ??_C@_0CA@DOHJAPBD@GL_ARB_shading_language_include?$AA@ 0000000180054a48     umodsys_lib_libui:umodsys.mod.ui.SDL_GL.obj
 0002:00008a68       ??_C@_0BK@EDOCLMLD@glCompileShaderIncludeARB?$AA@ 0000000180054a68     umodsys_lib_libui:umodsys.mod.ui.SDL_GL.obj
 0002:00008a88       ??_C@_0BH@NCMBPFNK@glDeleteNamedStringARB?$AA@ 0000000180054a88     umodsys_lib_libui:umodsys.mod.ui.SDL_GL.obj
 0002:00008aa0       ??_C@_0BE@NFONNCFF@glGetNamedStringARB?$AA@ 0000000180054aa0     umodsys_lib_libui:umodsys.mod.ui.SDL_GL.obj
 0002:00008ab8       ??_C@_0BG@MPGNLJCM@glGetNamedStringivARB?$AA@ 0000000180054ab8     umodsys_lib_libui:umodsys.mod.ui.SDL_GL.obj
 0002:00008ad0       ??_C@_0BD@ICFECEJF@glIsNamedStringARB?$AA@ 0000000180054ad0     umodsys_lib_libui:umodsys.mod.ui.SDL_GL.obj
 0002:00008ae8       ??_C@_0BB@EMHJCPKC@glNamedStringARB?$AA@ 0000000180054ae8     umodsys_lib_libui:umodsys.mod.ui.SDL_GL.obj
 0002:00008b00       ??_C@_0BG@EEMFDFOI@GL_ARB_sparse_texture?$AA@ 0000000180054b00     umodsys_lib_libui:umodsys.mod.ui.SDL_GL.obj
 0002:00008b18       ??_C@_0BH@MNMDGLPG@glTexPageCommitmentARB?$AA@ 0000000180054b18     umodsys_lib_libui:umodsys.mod.ui.SDL_GL.obj
 0002:00008b30       ??_C@_0BN@IPJPHCKH@GL_ARB_texture_buffer_object?$AA@ 0000000180054b30     umodsys_lib_libui:umodsys.mod.ui.SDL_GL.obj
 0002:00008b50       ??_C@_0P@OBHFBJAP@glTexBufferARB?$AA@ 0000000180054b50     umodsys_lib_libui:umodsys.mod.ui.SDL_GL.obj
 0002:00008b60       ??_C@_0BM@IPNAGCND@GL_ARB_texture_buffer_range?$AA@ 0000000180054b60     umodsys_lib_libui:umodsys.mod.ui.SDL_GL.obj
 0002:00008b80       ??_C@_0BB@DPMGLFNI@glTexBufferRange?$AA@ 0000000180054b80     umodsys_lib_libui:umodsys.mod.ui.SDL_GL.obj
 0002:00008b98       ??_C@_0BL@PEFPCGDJ@GL_ARB_texture_compression?$AA@ 0000000180054b98     umodsys_lib_libui:umodsys.mod.ui.SDL_GL.obj
 0002:00008bb8       ??_C@_0BK@GFNCBPLO@glCompressedTexImage1DARB?$AA@ 0000000180054bb8     umodsys_lib_libui:umodsys.mod.ui.SDL_GL.obj
 0002:00008bd8       ??_C@_0BK@ODEGGNBA@glCompressedTexImage2DARB?$AA@ 0000000180054bd8     umodsys_lib_libui:umodsys.mod.ui.SDL_GL.obj
 0002:00008bf8       ??_C@_0BK@CIBKLOLF@glCompressedTexImage3DARB?$AA@ 0000000180054bf8     umodsys_lib_libui:umodsys.mod.ui.SDL_GL.obj
 0002:00008c18       ??_C@_0BN@DBMDJCJF@glCompressedTexSubImage1DARB?$AA@ 0000000180054c18     umodsys_lib_libui:umodsys.mod.ui.SDL_GL.obj
 0002:00008c38       ??_C@_0BN@LHFHOADL@glCompressedTexSubImage2DARB?$AA@ 0000000180054c38     umodsys_lib_libui:umodsys.mod.ui.SDL_GL.obj
 0002:00008c58       ??_C@_0BN@HMALDDJO@glCompressedTexSubImage3DARB?$AA@ 0000000180054c58     umodsys_lib_libui:umodsys.mod.ui.SDL_GL.obj
 0002:00008c78       ??_C@_0BL@CKKCLKDF@glGetCompressedTexImageARB?$AA@ 0000000180054c78     umodsys_lib_libui:umodsys.mod.ui.SDL_GL.obj
 0002:00008c98       ??_C@_0BH@KEOKNPHF@GL_ARB_texture_storage?$AA@ 0000000180054c98     umodsys_lib_libui:umodsys.mod.ui.SDL_GL.obj
 0002:00008cb0       ??_C@_0P@LCLGPEBO@glTexStorage1D?$AA@ 0000000180054cb0     umodsys_lib_libui:umodsys.mod.ui.SDL_GL.obj
 0002:00008cc0       ??_C@_0P@LAPAEKEH@glTexStorage2D?$AA@ 0000000180054cc0     umodsys_lib_libui:umodsys.mod.ui.SDL_GL.obj
 0002:00008cd0       ??_C@_0P@LBDCCAHA@glTexStorage3D?$AA@ 0000000180054cd0     umodsys_lib_libui:umodsys.mod.ui.SDL_GL.obj
 0002:00008ce0       ??_C@_0CD@EKHGLAOK@GL_ARB_texture_storage_multisamp@ 0000000180054ce0     umodsys_lib_libui:umodsys.mod.ui.SDL_GL.obj
 0002:00008d08       ??_C@_0BK@PDJAKDKP@glTexStorage2DMultisample?$AA@ 0000000180054d08     umodsys_lib_libui:umodsys.mod.ui.SDL_GL.obj
 0002:00008d28       ??_C@_0BK@GOJPECNJ@glTexStorage3DMultisample?$AA@ 0000000180054d28     umodsys_lib_libui:umodsys.mod.ui.SDL_GL.obj
 0002:00008d48       ??_C@_0BE@HCMLPJMK@GL_ARB_texture_view?$AA@ 0000000180054d48     umodsys_lib_libui:umodsys.mod.ui.SDL_GL.obj
 0002:00008d60       ??_C@_0O@BNFDGIMP@glTextureView?$AA@ 0000000180054d60     umodsys_lib_libui:umodsys.mod.ui.SDL_GL.obj
 0002:00008d70       ??_C@_0CE@HBNDFFCP@GL_ARB_transform_feedback_instan@ 0000000180054d70     umodsys_lib_libui:umodsys.mod.ui.SDL_GL.obj
 0002:00008d98       ??_C@_0CB@NDMLCEF@glDrawTransformFeedbackInstanced@ 0000000180054d98     umodsys_lib_libui:umodsys.mod.ui.SDL_GL.obj
 0002:00008dc0       ??_C@_0CH@OMPFKBLK@glDrawTransformFeedbackStreamIns@ 0000000180054dc0     umodsys_lib_libui:umodsys.mod.ui.SDL_GL.obj
 0002:00008de8       ??_C@_0BI@OLAKMOK@GL_ARB_transpose_matrix?$AA@ 0000000180054de8     umodsys_lib_libui:umodsys.mod.ui.SDL_GL.obj
 0002:00008e00       ??_C@_0BK@JMMPDFPI@glLoadTransposeMatrixdARB?$AA@ 0000000180054e00     umodsys_lib_libui:umodsys.mod.ui.SDL_GL.obj
 0002:00008e20       ??_C@_0BK@OGAPGGJI@glLoadTransposeMatrixfARB?$AA@ 0000000180054e20     umodsys_lib_libui:umodsys.mod.ui.SDL_GL.obj
 0002:00008e40       ??_C@_0BK@EIJJIFHA@glMultTransposeMatrixdARB?$AA@ 0000000180054e40     umodsys_lib_libui:umodsys.mod.ui.SDL_GL.obj
 0002:00008e60       ??_C@_0BK@DCFJNGBA@glMultTransposeMatrixfARB?$AA@ 0000000180054e60     umodsys_lib_libui:umodsys.mod.ui.SDL_GL.obj
 0002:00008e80       ??_C@_0BL@KMJMBFGI@GL_ARB_vertex_attrib_64bit?$AA@ 0000000180054e80     umodsys_lib_libui:umodsys.mod.ui.SDL_GL.obj
 0002:00008ea0       ??_C@_0BF@JADLCNLO@glGetVertexAttribLdv?$AA@ 0000000180054ea0     umodsys_lib_libui:umodsys.mod.ui.SDL_GL.obj
 0002:00008eb8       ??_C@_0BC@KBPIECHE@glVertexAttribL1d?$AA@ 0000000180054eb8     umodsys_lib_libui:umodsys.mod.ui.SDL_GL.obj
 0002:00008ed0       ??_C@_0BD@COKMJDBH@glVertexAttribL1dv?$AA@ 0000000180054ed0     umodsys_lib_libui:umodsys.mod.ui.SDL_GL.obj
 0002:00008ee8       ??_C@_0BC@KDLOPMCN@glVertexAttribL2d?$AA@ 0000000180054ee8     umodsys_lib_libui:umodsys.mod.ui.SDL_GL.obj
 0002:00008f00       ??_C@_0BD@DMBJDMPJ@glVertexAttribL2dv?$AA@ 0000000180054f00     umodsys_lib_libui:umodsys.mod.ui.SDL_GL.obj
 0002:00008f18       ??_C@_0BC@KCHMJGBK@glVertexAttribL3d?$AA@ 0000000180054f18     umodsys_lib_libui:umodsys.mod.ui.SDL_GL.obj
 0002:00008f30       ??_C@_0BD@IEKFFLJM@glVertexAttribL3dv?$AA@ 0000000180054f30     umodsys_lib_libui:umodsys.mod.ui.SDL_GL.obj
 0002:00008f48       ??_C@_0BC@KHDDIAJP@glVertexAttribL4d?$AA@ 0000000180054f48     umodsys_lib_libui:umodsys.mod.ui.SDL_GL.obj
 0002:00008f60       ??_C@_0BD@BJHCGDCF@glVertexAttribL4dv?$AA@ 0000000180054f60     umodsys_lib_libui:umodsys.mod.ui.SDL_GL.obj
 0002:00008f78       ??_C@_0BH@JBHDDPGM@glVertexAttribLPointer?$AA@ 0000000180054f78     umodsys_lib_libui:umodsys.mod.ui.SDL_GL.obj
 0002:00008f90       ??_C@_0BN@BGEDEMFB@GL_ARB_vertex_attrib_binding?$AA@ 0000000180054f90     umodsys_lib_libui:umodsys.mod.ui.SDL_GL.obj
 0002:00008fb0       ??_C@_0BD@FCGJAOHG@glBindVertexBuffer?$AA@ 0000000180054fb0     umodsys_lib_libui:umodsys.mod.ui.SDL_GL.obj
 0002:00008fc8       ??_C@_0BG@MLFHCGE@glVertexAttribBinding?$AA@ 0000000180054fc8     umodsys_lib_libui:umodsys.mod.ui.SDL_GL.obj
 0002:00008fe0       ??_C@_0BF@JEIPPBFE@glVertexAttribFormat?$AA@ 0000000180054fe0     umodsys_lib_libui:umodsys.mod.ui.SDL_GL.obj
 0002:00008ff8       ??_C@_0BG@KJAHAHDI@glVertexAttribIFormat?$AA@ 0000000180054ff8     umodsys_lib_libui:umodsys.mod.ui.SDL_GL.obj
 0002:00009010       ??_C@_0BG@OBOHAJFM@glVertexAttribLFormat?$AA@ 0000000180055010     umodsys_lib_libui:umodsys.mod.ui.SDL_GL.obj
 0002:00009028       ??_C@_0BH@GNGCLGOI@glVertexBindingDivisor?$AA@ 0000000180055028     umodsys_lib_libui:umodsys.mod.ui.SDL_GL.obj
 0002:00009040       ??_C@_0BE@HEPDDKDL@GL_ARB_vertex_blend?$AA@ 0000000180055040     umodsys_lib_libui:umodsys.mod.ui.SDL_GL.obj
 0002:00009058       ??_C@_0BB@BINNIMAP@glVertexBlendARB?$AA@ 0000000180055058     umodsys_lib_libui:umodsys.mod.ui.SDL_GL.obj
 0002:00009070       ??_C@_0BD@FICKLEOD@glWeightPointerARB?$AA@ 0000000180055070     umodsys_lib_libui:umodsys.mod.ui.SDL_GL.obj
 0002:00009088       ??_C@_0O@IJNFJGFD@glWeightbvARB?$AA@ 0000000180055088     umodsys_lib_libui:umodsys.mod.ui.SDL_GL.obj
 0002:00009098       ??_C@_0O@FPIMHFEO@glWeightdvARB?$AA@ 0000000180055098     umodsys_lib_libui:umodsys.mod.ui.SDL_GL.obj
 0002:000090a8       ??_C@_0O@BCEENEEF@glWeightfvARB?$AA@ 00000001800550a8     umodsys_lib_libui:umodsys.mod.ui.SDL_GL.obj
 0002:000090b8       ??_C@_0O@ODBCGGJA@glWeightivARB?$AA@ 00000001800550b8     umodsys_lib_libui:umodsys.mod.ui.SDL_GL.obj
 0002:000090c8       ??_C@_0O@EBFPEHGN@glWeightsvARB?$AA@ 00000001800550c8     umodsys_lib_libui:umodsys.mod.ui.SDL_GL.obj
 0002:000090d8       ??_C@_0P@EHBBCFAF@glWeightubvARB?$AA@ 00000001800550d8     umodsys_lib_libui:umodsys.mod.ui.SDL_GL.obj
 0002:000090e8       ??_C@_0P@CNNGNFMG@glWeightuivARB?$AA@ 00000001800550e8     umodsys_lib_libui:umodsys.mod.ui.SDL_GL.obj
 0002:000090f8       ??_C@_0P@IPJLPEDL@glWeightusvARB?$AA@ 00000001800550f8     umodsys_lib_libui:umodsys.mod.ui.SDL_GL.obj
 0002:00009108       ??_C@_0BM@OOMEFFAE@GL_ARB_vertex_buffer_object?$AA@ 0000000180055108     umodsys_lib_libui:umodsys.mod.ui.SDL_GL.obj
 0002:00009128       ??_C@_0BA@FDIFNALK@glBindBufferARB?$AA@ 0000000180055128     umodsys_lib_libui:umodsys.mod.ui.SDL_GL.obj
 0002:00009138       ??_C@_0BA@HLIGBCAN@glBufferDataARB?$AA@ 0000000180055138     umodsys_lib_libui:umodsys.mod.ui.SDL_GL.obj
 0002:00009148       ??_C@_0BD@KFMFAAJP@glBufferSubDataARB?$AA@ 0000000180055148     umodsys_lib_libui:umodsys.mod.ui.SDL_GL.obj
 0002:00009160       ??_C@_0BD@FPFIIGCI@glDeleteBuffersARB?$AA@ 0000000180055160     umodsys_lib_libui:umodsys.mod.ui.SDL_GL.obj
 0002:00009178       ??_C@_0BA@COIMKEED@glGenBuffersARB?$AA@ 0000000180055178     umodsys_lib_libui:umodsys.mod.ui.SDL_GL.obj
 0002:00009188       ??_C@_0BK@NELBDMOH@glGetBufferParameterivARB?$AA@ 0000000180055188     umodsys_lib_libui:umodsys.mod.ui.SDL_GL.obj
 0002:000091a8       ??_C@_0BH@KNGCJBNB@glGetBufferPointervARB?$AA@ 00000001800551a8     umodsys_lib_libui:umodsys.mod.ui.SDL_GL.obj
 0002:000091c0       ??_C@_0BG@DNDEGANA@glGetBufferSubDataARB?$AA@ 00000001800551c0     umodsys_lib_libui:umodsys.mod.ui.SDL_GL.obj
 0002:000091d8       ??_C@_0O@BCHKDNEE@glIsBufferARB?$AA@ 00000001800551d8     umodsys_lib_libui:umodsys.mod.ui.SDL_GL.obj
 0002:000091e8       ??_C@_0P@GLCCGPAH@glMapBufferARB?$AA@ 00000001800551e8     umodsys_lib_libui:umodsys.mod.ui.SDL_GL.obj
 0002:000091f8       ??_C@_0BB@IODLHHEP@glUnmapBufferARB?$AA@ 00000001800551f8     umodsys_lib_libui:umodsys.mod.ui.SDL_GL.obj
 0002:00009210       ??_C@_0BG@LDHOGOBF@GL_ARB_vertex_program?$AA@ 0000000180055210     umodsys_lib_libui:umodsys.mod.ui.SDL_GL.obj
 0002:00009228       ??_C@_0BB@OAGHGJAC@glBindProgramARB?$AA@ 0000000180055228     umodsys_lib_libui:umodsys.mod.ui.SDL_GL.obj
 0002:00009240       ??_C@_0BE@EJCMOJPP@glDeleteProgramsARB?$AA@ 0000000180055240     umodsys_lib_libui:umodsys.mod.ui.SDL_GL.obj
 0002:00009258       ??_C@_0BO@HGKLJN@glDisableVertexAttribArrayARB?$AA@ 0000000180055258     umodsys_lib_libui:umodsys.mod.ui.SDL_GL.obj
 0002:00009278       ??_C@_0BN@FKABDPBF@glEnableVertexAttribArrayARB?$AA@ 0000000180055278     umodsys_lib_libui:umodsys.mod.ui.SDL_GL.obj
 0002:00009298       ??_C@_0BB@JDDNIFAN@glGenProgramsARB?$AA@ 0000000180055298     umodsys_lib_libui:umodsys.mod.ui.SDL_GL.obj
 0002:000092b0       ??_C@_0BO@NHNBOOKI@glGetProgramEnvParameterdvARB?$AA@ 00000001800552b0     umodsys_lib_libui:umodsys.mod.ui.SDL_GL.obj
 0002:000092d0       ??_C@_0BO@JKBJEPKD@glGetProgramEnvParameterfvARB?$AA@ 00000001800552d0     umodsys_lib_libui:umodsys.mod.ui.SDL_GL.obj
 0002:000092f0       ??_C@_0CA@IBOBFJKB@glGetProgramLocalParameterdvARB?$AA@ 00000001800552f0     umodsys_lib_libui:umodsys.mod.ui.SDL_GL.obj
 0002:00009310       ??_C@_0CA@MMCJPIKK@glGetProgramLocalParameterfvARB?$AA@ 0000000180055310     umodsys_lib_libui:umodsys.mod.ui.SDL_GL.obj
 0002:00009330       ??_C@_0BG@OAOKBADO@glGetProgramStringARB?$AA@ 0000000180055330     umodsys_lib_libui:umodsys.mod.ui.SDL_GL.obj
 0002:00009348       ??_C@_0BC@OHCOJECC@glGetProgramivARB?$AA@ 0000000180055348     umodsys_lib_libui:umodsys.mod.ui.SDL_GL.obj
 0002:00009360       ??_C@_0BN@PFKJEGFB@glGetVertexAttribPointervARB?$AA@ 0000000180055360     umodsys_lib_libui:umodsys.mod.ui.SDL_GL.obj
 0002:00009380       ??_C@_0BH@OMNBLIA@glGetVertexAttribdvARB?$AA@ 0000000180055380     umodsys_lib_libui:umodsys.mod.ui.SDL_GL.obj
 0002:00009398       ??_C@_0BH@EDAFLKIL@glGetVertexAttribfvARB?$AA@ 0000000180055398     umodsys_lib_libui:umodsys.mod.ui.SDL_GL.obj
 0002:000093b0       ??_C@_0BH@LCFDAIFO@glGetVertexAttribivARB?$AA@ 00000001800553b0     umodsys_lib_libui:umodsys.mod.ui.SDL_GL.obj
 0002:000093c8       ??_C@_0P@LKCDEJPE@glIsProgramARB?$AA@ 00000001800553c8     umodsys_lib_libui:umodsys.mod.ui.SDL_GL.obj
 0002:000093d8       ??_C@_0BL@IFMMBIHE@glProgramEnvParameter4dARB?$AA@ 00000001800553d8     umodsys_lib_libui:umodsys.mod.ui.SDL_GL.obj
 0002:000093f8       ??_C@_0BM@NICJGLCN@glProgramEnvParameter4dvARB?$AA@ 00000001800553f8     umodsys_lib_libui:umodsys.mod.ui.SDL_GL.obj
 0002:00009418       ??_C@_0BL@PPAMELBE@glProgramEnvParameter4fARB?$AA@ 0000000180055418     umodsys_lib_libui:umodsys.mod.ui.SDL_GL.obj
 0002:00009438       ??_C@_0BM@JFOBMKCG@glProgramEnvParameter4fvARB?$AA@ 0000000180055438     umodsys_lib_libui:umodsys.mod.ui.SDL_GL.obj
 0002:00009458       ??_C@_0BN@ELHLGELC@glProgramLocalParameter4dARB?$AA@ 0000000180055458     umodsys_lib_libui:umodsys.mod.ui.SDL_GL.obj
 0002:00009478       ??_C@_0BO@KKOALLNE@glProgramLocalParameter4dvARB?$AA@ 0000000180055478     umodsys_lib_libui:umodsys.mod.ui.SDL_GL.obj
 0002:00009498       ??_C@_0BN@DBLLDHNC@glProgramLocalParameter4fARB?$AA@ 0000000180055498     umodsys_lib_libui:umodsys.mod.ui.SDL_GL.obj
 0002:000094b8       ??_C@_0BO@OHCIBKNP@glProgramLocalParameter4fvARB?$AA@ 00000001800554b8     umodsys_lib_libui:umodsys.mod.ui.SDL_GL.obj
 0002:000094d8       ??_C@_0BD@HIBLHAHB@glProgramStringARB?$AA@ 00000001800554d8     umodsys_lib_libui:umodsys.mod.ui.SDL_GL.obj
 0002:000094f0       ??_C@_0BE@KOFFOLEH@glVertexAttrib1dARB?$AA@ 00000001800554f0     umodsys_lib_libui:umodsys.mod.ui.SDL_GL.obj
 0002:00009508       ??_C@_0BF@GHNCJDMI@glVertexAttrib1dvARB?$AA@ 0000000180055508     umodsys_lib_libui:umodsys.mod.ui.SDL_GL.obj
 0002:00009520       ??_C@_0BE@NEJFLICH@glVertexAttrib1fARB?$AA@ 0000000180055520     umodsys_lib_libui:umodsys.mod.ui.SDL_GL.obj
 0002:00009538       ??_C@_0BF@CKBKDCMD@glVertexAttrib1fvARB?$AA@ 0000000180055538     umodsys_lib_libui:umodsys.mod.ui.SDL_GL.obj
 0002:00009550       ??_C@_0BE@HMJFKANF@glVertexAttrib1sARB?$AA@ 0000000180055550     umodsys_lib_libui:umodsys.mod.ui.SDL_GL.obj
 0002:00009568       ??_C@_0BF@HJABKBOL@glVertexAttrib1svARB?$AA@ 0000000180055568     umodsys_lib_libui:umodsys.mod.ui.SDL_GL.obj
 0002:00009580       ??_C@_0BE@CIMBJJOJ@glVertexAttrib2dARB?$AA@ 0000000180055580     umodsys_lib_libui:umodsys.mod.ui.SDL_GL.obj
 0002:00009598       ??_C@_0BF@FGDKIJFF@glVertexAttrib2dvARB?$AA@ 0000000180055598     umodsys_lib_libui:umodsys.mod.ui.SDL_GL.obj
 0002:000095b0       ??_C@_0BE@FCABMKIJ@glVertexAttrib2fARB?$AA@ 00000001800555b0     umodsys_lib_libui:umodsys.mod.ui.SDL_GL.obj
 0002:000095c8       ??_C@_0BF@BLPCCIFO@glVertexAttrib2fvARB?$AA@ 00000001800555c8     umodsys_lib_libui:umodsys.mod.ui.SDL_GL.obj
 0002:000095e0       ??_C@_0BE@PKABNCHL@glVertexAttrib2sARB?$AA@ 00000001800555e0     umodsys_lib_libui:umodsys.mod.ui.SDL_GL.obj
 0002:000095f8       ??_C@_0BF@EIOJLLHG@glVertexAttrib2svARB?$AA@ 00000001800555f8     umodsys_lib_libui:umodsys.mod.ui.SDL_GL.obj
 0002:00009610       ??_C@_0BE@ODJNEKEM@glVertexAttrib3dARB?$AA@ 0000000180055610     umodsys_lib_libui:umodsys.mod.ui.SDL_GL.obj
 0002:00009628       ??_C@_0BF@PAENICOB@glVertexAttrib3dvARB?$AA@ 0000000180055628     umodsys_lib_libui:umodsys.mod.ui.SDL_GL.obj
 0002:00009640       ??_C@_0BE@JJFNBJCM@glVertexAttrib3fARB?$AA@ 0000000180055640     umodsys_lib_libui:umodsys.mod.ui.SDL_GL.obj
 0002:00009658       ??_C@_0BF@LNIFCDOK@glVertexAttrib3fvARB?$AA@ 0000000180055658     umodsys_lib_libui:umodsys.mod.ui.SDL_GL.obj
 0002:00009670       ??_C@_0BE@DBFNABNO@glVertexAttrib3sARB?$AA@ 0000000180055670     umodsys_lib_libui:umodsys.mod.ui.SDL_GL.obj
 0002:00009688       ??_C@_0BF@OOJOLAMC@glVertexAttrib3svARB?$AA@ 0000000180055688     umodsys_lib_libui:umodsys.mod.ui.SDL_GL.obj
 0002:000096a0       ??_C@_0BG@KBHGKCDK@glVertexAttrib4NbvARB?$AA@ 00000001800556a0     umodsys_lib_libui:umodsys.mod.ui.SDL_GL.obj
 0002:000096b8       ??_C@_0BG@MLLBFCPJ@glVertexAttrib4NivARB?$AA@ 00000001800556b8     umodsys_lib_libui:umodsys.mod.ui.SDL_GL.obj
 0002:000096d0       ??_C@_0BG@GJPMHDAE@glVertexAttrib4NsvARB?$AA@ 00000001800556d0     umodsys_lib_libui:umodsys.mod.ui.SDL_GL.obj
 0002:000096e8       ??_C@_0BG@CKMFKBFL@glVertexAttrib4NubARB?$AA@ 00000001800556e8     umodsys_lib_libui:umodsys.mod.ui.SDL_GL.obj
 0002:00009700       ??_C@_0BH@HDFHFPMN@glVertexAttrib4NubvARB?$AA@ 0000000180055700     umodsys_lib_libui:umodsys.mod.ui.SDL_GL.obj
 0002:00009718       ??_C@_0BH@BJJAKPAO@glVertexAttrib4NuivARB?$AA@ 0000000180055718     umodsys_lib_libui:umodsys.mod.ui.SDL_GL.obj
 0002:00009730       ??_C@_0BH@LLNNIOPD@glVertexAttrib4NusvARB?$AA@ 0000000180055730     umodsys_lib_libui:umodsys.mod.ui.SDL_GL.obj
 0002:00009748       ??_C@_0BF@ODLDFPHC@glVertexAttrib4bvARB?$AA@ 0000000180055748     umodsys_lib_libui:umodsys.mod.ui.SDL_GL.obj
 0002:00009760       ??_C@_0BE@POJIHKPE@glVertexAttrib4dARB?$AA@ 0000000180055760     umodsys_lib_libui:umodsys.mod.ui.SDL_GL.obj
 0002:00009778       ??_C@_0BF@DFOKLMGP@glVertexAttrib4dvARB?$AA@ 0000000180055778     umodsys_lib_libui:umodsys.mod.ui.SDL_GL.obj
 0002:00009790       ??_C@_0BE@IEFICJJE@glVertexAttrib4fARB?$AA@ 0000000180055790     umodsys_lib_libui:umodsys.mod.ui.SDL_GL.obj
 0002:000097a8       ??_C@_0BF@HICCBNGE@glVertexAttrib4fvARB?$AA@ 00000001800557a8     umodsys_lib_libui:umodsys.mod.ui.SDL_GL.obj
 0002:000097c0       ??_C@_0BF@IJHEKPLB@glVertexAttrib4ivARB?$AA@ 00000001800557c0     umodsys_lib_libui:umodsys.mod.ui.SDL_GL.obj
 0002:000097d8       ??_C@_0BE@CMFIDBGG@glVertexAttrib4sARB?$AA@ 00000001800557d8     umodsys_lib_libui:umodsys.mod.ui.SDL_GL.obj
 0002:000097f0       ??_C@_0BF@CLDJIOEM@glVertexAttrib4svARB?$AA@ 00000001800557f0     umodsys_lib_libui:umodsys.mod.ui.SDL_GL.obj
 0002:00009808       ??_C@_0BG@LBCFDJC@glVertexAttrib4ubvARB?$AA@ 0000000180055808     umodsys_lib_libui:umodsys.mod.ui.SDL_GL.obj
 0002:00009820       ??_C@_0BG@GBNFKDFB@glVertexAttrib4uivARB?$AA@ 0000000180055820     umodsys_lib_libui:umodsys.mod.ui.SDL_GL.obj
 0002:00009838       ??_C@_0BG@MDJIICKM@glVertexAttrib4usvARB?$AA@ 0000000180055838     umodsys_lib_libui:umodsys.mod.ui.SDL_GL.obj
 0002:00009850       ??_C@_0BJ@KNOILOPF@glVertexAttribPointerARB?$AA@ 0000000180055850     umodsys_lib_libui:umodsys.mod.ui.SDL_GL.obj
 0002:00009870       ??_C@_0BF@GNLBPIJF@GL_ARB_vertex_shader?$AA@ 0000000180055870     umodsys_lib_libui:umodsys.mod.ui.SDL_GL.obj
 0002:00009888       ??_C@_0BI@HAONMJFP@glBindAttribLocationARB?$AA@ 0000000180055888     umodsys_lib_libui:umodsys.mod.ui.SDL_GL.obj
 0002:000098a0       ??_C@_0BF@NFLELGHN@glGetActiveAttribARB?$AA@ 00000001800558a0     umodsys_lib_libui:umodsys.mod.ui.SDL_GL.obj
 0002:000098b8       ??_C@_0BH@BINIAJMB@glGetAttribLocationARB?$AA@ 00000001800558b8     umodsys_lib_libui:umodsys.mod.ui.SDL_GL.obj
 0002:000098d0       ??_C@_0BG@NIIIOCNH@GL_ARB_viewport_array?$AA@ 00000001800558d0     umodsys_lib_libui:umodsys.mod.ui.SDL_GL.obj
 0002:000098e8       ??_C@_0BD@JLCIOMKN@glDepthRangeArrayv?$AA@ 00000001800558e8     umodsys_lib_libui:umodsys.mod.ui.SDL_GL.obj
 0002:00009900       ??_C@_0BE@FMCFIJBP@glDepthRangeIndexed?$AA@ 0000000180055900     umodsys_lib_libui:umodsys.mod.ui.SDL_GL.obj
 0002:00009918       ??_C@_0P@PDJCBGIA@glGetDoublei_v?$AA@ 0000000180055918     umodsys_lib_libui:umodsys.mod.ui.SDL_GL.obj
 0002:00009928       ??_C@_0O@JKEOHGC@glGetFloati_v?$AA@ 0000000180055928     umodsys_lib_libui:umodsys.mod.ui.SDL_GL.obj
 0002:00009938       ??_C@_0BA@BMNFINIA@glScissorArrayv?$AA@ 0000000180055938     umodsys_lib_libui:umodsys.mod.ui.SDL_GL.obj
 0002:00009948       ??_C@_0BB@BJHNCIAL@glScissorIndexed?$AA@ 0000000180055948     umodsys_lib_libui:umodsys.mod.ui.SDL_GL.obj
 0002:00009960       ??_C@_0BC@OOKOHKNA@glScissorIndexedv?$AA@ 0000000180055960     umodsys_lib_libui:umodsys.mod.ui.SDL_GL.obj
 0002:00009978       ??_C@_0BB@JIDIDPIB@glViewportArrayv?$AA@ 0000000180055978     umodsys_lib_libui:umodsys.mod.ui.SDL_GL.obj
 0002:00009990       ??_C@_0BD@JIBIAPIN@glViewportIndexedf?$AA@ 0000000180055990     umodsys_lib_libui:umodsys.mod.ui.SDL_GL.obj
 0002:000099a8       ??_C@_0BE@OKPEDJOC@glViewportIndexedfv?$AA@ 00000001800559a8     umodsys_lib_libui:umodsys.mod.ui.SDL_GL.obj
 0002:000099c0       ??_C@_0BC@KMCGGFBD@GL_ARB_window_pos?$AA@ 00000001800559c0     umodsys_lib_libui:umodsys.mod.ui.SDL_GL.obj
 0002:000099d8       ??_C@_0BB@MJCJDLHC@glWindowPos2dARB?$AA@ 00000001800559d8     umodsys_lib_libui:umodsys.mod.ui.SDL_GL.obj
 0002:000099f0       ??_C@_0BC@DBAGCLDL@glWindowPos2dvARB?$AA@ 00000001800559f0     umodsys_lib_libui:umodsys.mod.ui.SDL_GL.obj
 0002:00009a08       ??_C@_0BB@LDOJGIBC@glWindowPos2fARB?$AA@ 0000000180055a08     umodsys_lib_libui:umodsys.mod.ui.SDL_GL.obj
 0002:00009a20       ??_C@_0BC@HMMOIKDA@glWindowPos2fvARB?$AA@ 0000000180055a20     umodsys_lib_libui:umodsys.mod.ui.SDL_GL.obj
 0002:00009a38       ??_C@_0BB@DBLJPPMD@glWindowPos2iARB?$AA@ 0000000180055a38     umodsys_lib_libui:umodsys.mod.ui.SDL_GL.obj
 0002:00009a50       ??_C@_0BC@INJIDIOF@glWindowPos2ivARB?$AA@ 0000000180055a50     umodsys_lib_libui:umodsys.mod.ui.SDL_GL.obj
 0002:00009a68       ??_C@_0BB@BLOJHAOA@glWindowPos2sARB?$AA@ 0000000180055a68     umodsys_lib_libui:umodsys.mod.ui.SDL_GL.obj
 0002:00009a80       ??_C@_0BC@CPNFBJBI@glWindowPos2svARB?$AA@ 0000000180055a80     umodsys_lib_libui:umodsys.mod.ui.SDL_GL.obj
 0002:00009a98       ??_C@_0BB@CHFOINH@glWindowPos3dARB?$AA@ 0000000180055a98     umodsys_lib_libui:umodsys.mod.ui.SDL_GL.obj
 0002:00009ab0       ??_C@_0BC@JHHBCAIP@glWindowPos3dvARB?$AA@ 0000000180055ab0     umodsys_lib_libui:umodsys.mod.ui.SDL_GL.obj
 0002:00009ac8       ??_C@_0BB@HILFLLLH@glWindowPos3fARB?$AA@ 0000000180055ac8     umodsys_lib_libui:umodsys.mod.ui.SDL_GL.obj
 0002:00009ae0       ??_C@_0BC@NKLJIBIE@glWindowPos3fvARB?$AA@ 0000000180055ae0     umodsys_lib_libui:umodsys.mod.ui.SDL_GL.obj
 0002:00009af8       ??_C@_0BB@PKOFCMGG@glWindowPos3iARB?$AA@ 0000000180055af8     umodsys_lib_libui:umodsys.mod.ui.SDL_GL.obj
 0002:00009b10       ??_C@_0BC@CLOPDDFB@glWindowPos3ivARB?$AA@ 0000000180055b10     umodsys_lib_libui:umodsys.mod.ui.SDL_GL.obj
 0002:00009b28       ??_C@_0BB@NALFKDEF@glWindowPos3sARB?$AA@ 0000000180055b28     umodsys_lib_libui:umodsys.mod.ui.SDL_GL.obj
 0002:00009b40       ??_C@_0BC@IJKCBCKM@glWindowPos3svARB?$AA@ 0000000180055b40     umodsys_lib_libui:umodsys.mod.ui.SDL_GL.obj
 0002:00009b58       ??_C@_0BI@FJEJKAHN@GL_EXT_bindable_uniform?$AA@ 0000000180055b58     umodsys_lib_libui:umodsys.mod.ui.SDL_GL.obj
 0002:00009b70       ??_C@_0BK@JHNNOGKB@glGetUniformBufferSizeEXT?$AA@ 0000000180055b70     umodsys_lib_libui:umodsys.mod.ui.SDL_GL.obj
 0002:00009b90       ??_C@_0BG@DFAIJAMP@glGetUniformOffsetEXT?$AA@ 0000000180055b90     umodsys_lib_libui:umodsys.mod.ui.SDL_GL.obj
 0002:00009ba8       ??_C@_0BD@HHOMEDEN@glUniformBufferEXT?$AA@ 0000000180055ba8     umodsys_lib_libui:umodsys.mod.ui.SDL_GL.obj
 0002:00009bc0       ??_C@_0BD@LMOCEJB@GL_EXT_blend_color?$AA@ 0000000180055bc0     umodsys_lib_libui:umodsys.mod.ui.SDL_GL.obj
 0002:00009bd8       ??_C@_0BA@EGDGJFLJ@glBlendColorEXT?$AA@ 0000000180055bd8     umodsys_lib_libui:umodsys.mod.ui.SDL_GL.obj
 0002:00009be8       ??_C@_0BP@PPPKEOIM@GL_EXT_blend_equation_separate?$AA@ 0000000180055be8     umodsys_lib_libui:umodsys.mod.ui.SDL_GL.obj
 0002:00009c08       ??_C@_0BL@INMJGNKI@glBlendEquationSeparateEXT?$AA@ 0000000180055c08     umodsys_lib_libui:umodsys.mod.ui.SDL_GL.obj
 0002:00009c28       ??_C@_0BL@OHIMOMCA@GL_EXT_blend_func_separate?$AA@ 0000000180055c28     umodsys_lib_libui:umodsys.mod.ui.SDL_GL.obj
 0002:00009c48       ??_C@_0BH@GFPLHCKF@glBlendFuncSeparateEXT?$AA@ 0000000180055c48     umodsys_lib_libui:umodsys.mod.ui.SDL_GL.obj
 0002:00009c60       ??_C@_0BE@CICKIAIK@GL_EXT_blend_minmax?$AA@ 0000000180055c60     umodsys_lib_libui:umodsys.mod.ui.SDL_GL.obj
 0002:00009c78       ??_C@_0BD@CFOJJHII@glBlendEquationEXT?$AA@ 0000000180055c78     umodsys_lib_libui:umodsys.mod.ui.SDL_GL.obj
 0002:00009c90       ??_C@_0BG@HJLBPDAK@GL_EXT_color_subtable?$AA@ 0000000180055c90     umodsys_lib_libui:umodsys.mod.ui.SDL_GL.obj
 0002:00009ca8       ??_C@_0BD@EBCIGLLP@glColorSubTableEXT?$AA@ 0000000180055ca8     umodsys_lib_libui:umodsys.mod.ui.SDL_GL.obj
 0002:00009cc0       ??_C@_0BH@HAGEMNAG@glCopyColorSubTableEXT?$AA@ 0000000180055cc0     umodsys_lib_libui:umodsys.mod.ui.SDL_GL.obj
 0002:00009cd8       ??_C@_0BN@LBNKGIPJ@GL_EXT_compiled_vertex_array?$AA@ 0000000180055cd8     umodsys_lib_libui:umodsys.mod.ui.SDL_GL.obj
 0002:00009cf8       ??_C@_0BA@FALFDEFM@glLockArraysEXT?$AA@ 0000000180055cf8     umodsys_lib_libui:umodsys.mod.ui.SDL_GL.obj
 0002:00009d08       ??_C@_0BC@CIFHOEOG@glUnlockArraysEXT?$AA@ 0000000180055d08     umodsys_lib_libui:umodsys.mod.ui.SDL_GL.obj
 0002:00009d20       ??_C@_0BD@DBIGFMIC@GL_EXT_convolution?$AA@ 0000000180055d20     umodsys_lib_libui:umodsys.mod.ui.SDL_GL.obj
 0002:00009d38       ??_C@_0BJ@PHDFEMBL@glConvolutionFilter1DEXT?$AA@ 0000000180055d38     umodsys_lib_libui:umodsys.mod.ui.SDL_GL.obj
 0002:00009d58       ??_C@_0BJ@HBKBDOLF@glConvolutionFilter2DEXT?$AA@ 0000000180055d58     umodsys_lib_libui:umodsys.mod.ui.SDL_GL.obj
 0002:00009d78       ??_C@_0BL@KINFLEHF@glConvolutionParameterfEXT?$AA@ 0000000180055d78     umodsys_lib_libui:umodsys.mod.ui.SDL_GL.obj
 0002:00009d98       ??_C@_0BM@LDPIHMCH@glConvolutionParameterfvEXT?$AA@ 0000000180055d98     umodsys_lib_libui:umodsys.mod.ui.SDL_GL.obj
 0002:00009db8       ??_C@_0BL@CKIFCDKE@glConvolutionParameteriEXT?$AA@ 0000000180055db8     umodsys_lib_libui:umodsys.mod.ui.SDL_GL.obj
 0002:00009dd8       ??_C@_0BM@ECKOMOPC@glConvolutionParameterivEXT?$AA@ 0000000180055dd8     umodsys_lib_libui:umodsys.mod.ui.SDL_GL.obj
 0002:00009df8       ??_C@_0BN@MBPMAMLC@glCopyConvolutionFilter1DEXT?$AA@ 0000000180055df8     umodsys_lib_libui:umodsys.mod.ui.SDL_GL.obj
 0002:00009e18       ??_C@_0BN@EHGIHOBM@glCopyConvolutionFilter2DEXT?$AA@ 0000000180055e18     umodsys_lib_libui:umodsys.mod.ui.SDL_GL.obj
 0002:00009e38       ??_C@_0BK@MMCIGOOI@glGetConvolutionFilterEXT?$AA@ 0000000180055e38     umodsys_lib_libui:umodsys.mod.ui.SDL_GL.obj
 0002:00009e58       ??_C@_0BP@FBAELFAJ@glGetConvolutionParameterfvEXT?$AA@ 0000000180055e58     umodsys_lib_libui:umodsys.mod.ui.SDL_GL.obj
 0002:00009e78       ??_C@_0BP@KAFCAHNM@glGetConvolutionParameterivEXT?$AA@ 0000000180055e78     umodsys_lib_libui:umodsys.mod.ui.SDL_GL.obj
 0002:00009e98       ??_C@_0BI@JFAGILII@glGetSeparableFilterEXT?$AA@ 0000000180055e98     umodsys_lib_libui:umodsys.mod.ui.SDL_GL.obj
 0002:00009eb0       ??_C@_0BH@BGAJAFHE@glSeparableFilter2DEXT?$AA@ 0000000180055eb0     umodsys_lib_libui:umodsys.mod.ui.SDL_GL.obj
 0002:00009ec8       ??_C@_0BI@LOIOLJBM@GL_EXT_coordinate_frame?$AA@ 0000000180055ec8     umodsys_lib_libui:umodsys.mod.ui.SDL_GL.obj
 0002:00009ee0       ??_C@_0BA@IFKALIMG@glBinormal3bEXT?$AA@ 0000000180055ee0     umodsys_lib_libui:umodsys.mod.ui.SDL_GL.obj
 0002:00009ef0       ??_C@_0BB@OBLNOLBN@glBinormal3bvEXT?$AA@ 0000000180055ef0     umodsys_lib_libui:umodsys.mod.ui.SDL_GL.obj
 0002:00009f08       ??_C@_0BA@KOAENGG@glBinormal3dEXT?$AA@ 0000000180055f08     umodsys_lib_libui:umodsys.mod.ui.SDL_GL.obj
 0002:00009f18       ??_C@_0BB@DHOEAIAA@glBinormal3dvEXT?$AA@ 0000000180055f18     umodsys_lib_libui:umodsys.mod.ui.SDL_GL.obj
 0002:00009f30       ??_C@_0BA@HACABOAG@glBinormal3fEXT?$AA@ 0000000180055f30     umodsys_lib_libui:umodsys.mod.ui.SDL_GL.obj
 0002:00009f40       ??_C@_0BB@HKCMKJAL@glBinormal3fvEXT?$AA@ 0000000180055f40     umodsys_lib_libui:umodsys.mod.ui.SDL_GL.obj
 0002:00009f58       ??_C@_0BA@PCHAIJNH@glBinormal3iEXT?$AA@ 0000000180055f58     umodsys_lib_libui:umodsys.mod.ui.SDL_GL.obj
 0002:00009f68       ??_C@_0BB@ILHKBLNO@glBinormal3ivEXT?$AA@ 0000000180055f68     umodsys_lib_libui:umodsys.mod.ui.SDL_GL.obj
 0002:00009f80       ??_C@_0BA@NICAAGPE@glBinormal3sEXT?$AA@ 0000000180055f80     umodsys_lib_libui:umodsys.mod.ui.SDL_GL.obj
 0002:00009f90       ??_C@_0BB@CJDHDKCD@glBinormal3svEXT?$AA@ 0000000180055f90     umodsys_lib_libui:umodsys.mod.ui.SDL_GL.obj
 0002:00009fa8       ??_C@_0BF@DOJEEBCJ@glBinormalPointerEXT?$AA@ 0000000180055fa8     umodsys_lib_libui:umodsys.mod.ui.SDL_GL.obj
 0002:00009fc0       ??_C@_0P@KGHKOLHB@glTangent3bEXT?$AA@ 0000000180055fc0     umodsys_lib_libui:umodsys.mod.ui.SDL_GL.obj
 0002:00009fd0       ??_C@_0BA@LEJLBHGB@glTangent3bvEXT?$AA@ 0000000180055fd0     umodsys_lib_libui:umodsys.mod.ui.SDL_GL.obj
 0002:00009fe0       ??_C@_0P@CJDKBONB@glTangent3dEXT?$AA@ 0000000180055fe0     umodsys_lib_libui:umodsys.mod.ui.SDL_GL.obj
 0002:00009ff0       ??_C@_0BA@GCMCPEHM@glTangent3dvEXT?$AA@ 0000000180055ff0     umodsys_lib_libui:umodsys.mod.ui.SDL_GL.obj
 0002:0000a000       ??_C@_0P@FDPKENLB@glTangent3fEXT?$AA@ 0000000180056000     umodsys_lib_libui:umodsys.mod.ui.SDL_GL.obj
 0002:0000a010       ??_C@_0BA@CPAKFFHH@glTangent3fvEXT?$AA@ 0000000180056010     umodsys_lib_libui:umodsys.mod.ui.SDL_GL.obj
 0002:0000a020       ??_C@_0P@NBKKNKGA@glTangent3iEXT?$AA@ 0000000180056020     umodsys_lib_libui:umodsys.mod.ui.SDL_GL.obj
 0002:0000a030       ??_C@_0BA@NOFMOHKC@glTangent3ivEXT?$AA@ 0000000180056030     umodsys_lib_libui:umodsys.mod.ui.SDL_GL.obj
 0002:0000a040       ??_C@_0P@PLPKFFED@glTangent3sEXT?$AA@ 0000000180056040     umodsys_lib_libui:umodsys.mod.ui.SDL_GL.obj
 0002:0000a050       ??_C@_0BA@HMBBMGFP@glTangent3svEXT?$AA@ 0000000180056050     umodsys_lib_libui:umodsys.mod.ui.SDL_GL.obj
 0002:0000a060       ??_C@_0BE@HLHMPCOG@glTangentPointerEXT?$AA@ 0000000180056060     umodsys_lib_libui:umodsys.mod.ui.SDL_GL.obj
 0002:0000a078       ??_C@_0BE@DFBNEHNH@GL_EXT_copy_texture?$AA@ 0000000180056078     umodsys_lib_libui:umodsys.mod.ui.SDL_GL.obj
 0002:0000a090       ??_C@_0BE@EDHFEHBO@glCopyTexImage1DEXT?$AA@ 0000000180056090     umodsys_lib_libui:umodsys.mod.ui.SDL_GL.obj
 0002:0000a0a8       ??_C@_0BE@MFOBDFLA@glCopyTexImage2DEXT?$AA@ 00000001800560a8     umodsys_lib_libui:umodsys.mod.ui.SDL_GL.obj
 0002:0000a0c0       ??_C@_0BH@PGHCOMMF@glCopyTexSubImage1DEXT?$AA@ 00000001800560c0     umodsys_lib_libui:umodsys.mod.ui.SDL_GL.obj
 0002:0000a0d8       ??_C@_0BH@HAOGJOGL@glCopyTexSubImage2DEXT?$AA@ 00000001800560d8     umodsys_lib_libui:umodsys.mod.ui.SDL_GL.obj
 0002:0000a0f0       ??_C@_0BH@LLLKENMO@glCopyTexSubImage3DEXT?$AA@ 00000001800560f0     umodsys_lib_libui:umodsys.mod.ui.SDL_GL.obj
 0002:0000a108       ??_C@_0BD@DJENAAJK@GL_EXT_cull_vertex?$AA@ 0000000180056108     umodsys_lib_libui:umodsys.mod.ui.SDL_GL.obj
 0002:0000a120       ??_C@_0BF@BCDJHKHD@glCullParameterdvEXT?$AA@ 0000000180056120     umodsys_lib_libui:umodsys.mod.ui.SDL_GL.obj
 0002:0000a138       ??_C@_0BF@FPPBNLHI@glCullParameterfvEXT?$AA@ 0000000180056138     umodsys_lib_libui:umodsys.mod.ui.SDL_GL.obj
 0002:0000a150       ??_C@_0BJ@FCDHADKB@GL_EXT_depth_bounds_test?$AA@ 0000000180056150     umodsys_lib_libui:umodsys.mod.ui.SDL_GL.obj
 0002:0000a170       ??_C@_0BB@NPFLJMMA@glDepthBoundsEXT?$AA@ 0000000180056170     umodsys_lib_libui:umodsys.mod.ui.SDL_GL.obj
 0002:0000a188       ??_C@_0BL@KMPCDGGG@GL_EXT_direct_state_access?$AA@ 0000000180056188     umodsys_lib_libui:umodsys.mod.ui.SDL_GL.obj
 0002:0000a1a8       ??_C@_0BG@MOGNCKMO@glBindMultiTextureEXT?$AA@ 00000001800561a8     umodsys_lib_libui:umodsys.mod.ui.SDL_GL.obj
 0002:0000a1c0       ??_C@_0CB@BPNGHABA@glCheckNamedFramebufferStatusEXT@ 00000001800561c0     umodsys_lib_libui:umodsys.mod.ui.SDL_GL.obj
 0002:0000a1e8       ??_C@_0BK@JIPEFNFB@glClearNamedBufferDataEXT?$AA@ 00000001800561e8     umodsys_lib_libui:umodsys.mod.ui.SDL_GL.obj
 0002:0000a208       ??_C@_0BN@CNJAFGHD@glClearNamedBufferSubDataEXT?$AA@ 0000000180056208     umodsys_lib_libui:umodsys.mod.ui.SDL_GL.obj
 0002:0000a228       ??_C@_0BJ@CALICIHF@glClientAttribDefaultEXT?$AA@ 0000000180056228     umodsys_lib_libui:umodsys.mod.ui.SDL_GL.obj
 0002:0000a248       ??_C@_0BP@NJMJPMPG@glCompressedMultiTexImage1DEXT?$AA@ 0000000180056248     umodsys_lib_libui:umodsys.mod.ui.SDL_GL.obj
 0002:0000a268       ??_C@_0BP@FPFNIOFI@glCompressedMultiTexImage2DEXT?$AA@ 0000000180056268     umodsys_lib_libui:umodsys.mod.ui.SDL_GL.obj
 0002:0000a288       ??_C@_0BP@JEABFNPN@glCompressedMultiTexImage3DEXT?$AA@ 0000000180056288     umodsys_lib_libui:umodsys.mod.ui.SDL_GL.obj
 0002:0000a2a8       ??_C@_0CC@JEGFOFJD@glCompressedMultiTexSubImage1DEX@ 00000001800562a8     umodsys_lib_libui:umodsys.mod.ui.SDL_GL.obj
 0002:0000a2d0       ??_C@_0CC@BCPBJHDN@glCompressedMultiTexSubImage2DEX@ 00000001800562d0     umodsys_lib_libui:umodsys.mod.ui.SDL_GL.obj
 0002:0000a2f8       ??_C@_0CC@NJKNEEJI@glCompressedMultiTexSubImage3DEX@ 00000001800562f8     umodsys_lib_libui:umodsys.mod.ui.SDL_GL.obj
 0002:0000a320       ??_C@_0BO@GBNHMICE@glCompressedTextureImage1DEXT?$AA@ 0000000180056320     umodsys_lib_libui:umodsys.mod.ui.SDL_GL.obj
 0002:0000a340       ??_C@_0BO@OHEDLKIK@glCompressedTextureImage2DEXT?$AA@ 0000000180056340     umodsys_lib_libui:umodsys.mod.ui.SDL_GL.obj
 0002:0000a360       ??_C@_0BO@CMBPGJCP@glCompressedTextureImage3DEXT?$AA@ 0000000180056360     umodsys_lib_libui:umodsys.mod.ui.SDL_GL.obj
 0002:0000a380       ??_C@_0CB@FLENMKOB@glCompressedTextureSubImage1DEXT@ 0000000180056380     umodsys_lib_libui:umodsys.mod.ui.SDL_GL.obj
 0002:0000a3a8       ??_C@_0CB@NNNJLIEP@glCompressedTextureSubImage2DEXT@ 00000001800563a8     umodsys_lib_libui:umodsys.mod.ui.SDL_GL.obj
 0002:0000a3d0       ??_C@_0CB@BGIFGLOK@glCompressedTextureSubImage3DEXT@ 00000001800563d0     umodsys_lib_libui:umodsys.mod.ui.SDL_GL.obj
 0002:0000a3f8       ??_C@_0BJ@HAJMGINM@glCopyMultiTexImage1DEXT?$AA@ 00000001800563f8     umodsys_lib_libui:umodsys.mod.ui.SDL_GL.obj
 0002:0000a418       ??_C@_0BJ@PGAIBKHC@glCopyMultiTexImage2DEXT?$AA@ 0000000180056418     umodsys_lib_libui:umodsys.mod.ui.SDL_GL.obj
 0002:0000a438       ??_C@_0BM@KPJDMMGJ@glCopyMultiTexSubImage1DEXT?$AA@ 0000000180056438     umodsys_lib_libui:umodsys.mod.ui.SDL_GL.obj
 0002:0000a458       ??_C@_0BM@CJAHLOMH@glCopyMultiTexSubImage2DEXT?$AA@ 0000000180056458     umodsys_lib_libui:umodsys.mod.ui.SDL_GL.obj
 0002:0000a478       ??_C@_0BM@OCFLGNGC@glCopyMultiTexSubImage3DEXT?$AA@ 0000000180056478     umodsys_lib_libui:umodsys.mod.ui.SDL_GL.obj
 0002:0000a498       ??_C@_0BI@IIONLBMI@glCopyTextureImage1DEXT?$AA@ 0000000180056498     umodsys_lib_libui:umodsys.mod.ui.SDL_GL.obj
 0002:0000a4b0       ??_C@_0BI@OHJMDGG@glCopyTextureImage2DEXT?$AA@ 00000001800564b0     umodsys_lib_libui:umodsys.mod.ui.SDL_GL.obj
 0002:0000a4c8       ??_C@_0BL@MDEEPIMB@glCopyTextureSubImage1DEXT?$AA@ 00000001800564c8     umodsys_lib_libui:umodsys.mod.ui.SDL_GL.obj
 0002:0000a4e8       ??_C@_0BL@EFNAIKGP@glCopyTextureSubImage2DEXT?$AA@ 00000001800564e8     umodsys_lib_libui:umodsys.mod.ui.SDL_GL.obj
 0002:0000a508       ??_C@_0BL@IOIMFJMK@glCopyTextureSubImage3DEXT?$AA@ 0000000180056508     umodsys_lib_libui:umodsys.mod.ui.SDL_GL.obj
 0002:0000a528       ??_C@_0BP@LBNONMPF@glDisableClientStateIndexedEXT?$AA@ 0000000180056528     umodsys_lib_libui:umodsys.mod.ui.SDL_GL.obj
 0002:0000a548       ??_C@_0BJ@LKKOIGJN@glDisableClientStateiEXT?$AA@ 0000000180056548     umodsys_lib_libui:umodsys.mod.ui.SDL_GL.obj
 0002:0000a568       ??_C@_0BE@FCCIJFGK@glDisableIndexedEXT?$AA@ 0000000180056568     umodsys_lib_libui:umodsys.mod.ui.SDL_GL.obj
 0002:0000a580       ??_C@_0BO@OOIMHDFA@glDisableVertexArrayAttribEXT?$AA@ 0000000180056580     umodsys_lib_libui:umodsys.mod.ui.SDL_GL.obj
 0002:0000a5a0       ??_C@_0BI@IAKAGPJM@glDisableVertexArrayEXT?$AA@ 00000001800565a0     umodsys_lib_libui:umodsys.mod.ui.SDL_GL.obj
 0002:0000a5b8       ??_C@_0BO@FCOHKAHD@glEnableClientStateIndexedEXT?$AA@ 00000001800565b8     umodsys_lib_libui:umodsys.mod.ui.SDL_GL.obj
 0002:0000a5d8       ??_C@_0BI@DDPEAKOL@glEnableClientStateiEXT?$AA@ 00000001800565d8     umodsys_lib_libui:umodsys.mod.ui.SDL_GL.obj
 0002:0000a5f0       ??_C@_0BD@PNIDDKHK@glEnableIndexedEXT?$AA@ 00000001800565f0     umodsys_lib_libui:umodsys.mod.ui.SDL_GL.obj
 0002:0000a608       ??_C@_0BN@LEPLOHNI@glEnableVertexArrayAttribEXT?$AA@ 0000000180056608     umodsys_lib_libui:umodsys.mod.ui.SDL_GL.obj
 0002:0000a628       ??_C@_0BH@JAHPJAF@glEnableVertexArrayEXT?$AA@ 0000000180056628     umodsys_lib_libui:umodsys.mod.ui.SDL_GL.obj
 0002:0000a640       ??_C@_0CB@EIJKJEMO@glFlushMappedNamedBufferRangeEXT@ 0000000180056640     umodsys_lib_libui:umodsys.mod.ui.SDL_GL.obj
 0002:0000a668       ??_C@_0BL@PBDAHKDG@glFramebufferDrawBufferEXT?$AA@ 0000000180056668     umodsys_lib_libui:umodsys.mod.ui.SDL_GL.obj
 0002:0000a688       ??_C@_0BM@JEJEAGLD@glFramebufferDrawBuffersEXT?$AA@ 0000000180056688     umodsys_lib_libui:umodsys.mod.ui.SDL_GL.obj
 0002:0000a6a8       ??_C@_0BL@JBCAAPKE@glFramebufferReadBufferEXT?$AA@ 00000001800566a8     umodsys_lib_libui:umodsys.mod.ui.SDL_GL.obj
 0002:0000a6c8       ??_C@_0BM@DMNPALLC@glGenerateMultiTexMipmapEXT?$AA@ 00000001800566c8     umodsys_lib_libui:umodsys.mod.ui.SDL_GL.obj
 0002:0000a6e8       ??_C@_0BL@FGEAAKMK@glGenerateTextureMipmapEXT?$AA@ 00000001800566e8     umodsys_lib_libui:umodsys.mod.ui.SDL_GL.obj
 0002:0000a708       ??_C@_0BI@NHMIOCJB@glGetBooleanIndexedvEXT?$AA@ 0000000180056708     umodsys_lib_libui:umodsys.mod.ui.SDL_GL.obj
 0002:0000a720       ??_C@_0CA@GHJFOBII@glGetCompressedMultiTexImageEXT?$AA@ 0000000180056720     umodsys_lib_libui:umodsys.mod.ui.SDL_GL.obj
 0002:0000a740       ??_C@_0BP@HEIAJKMC@glGetCompressedTextureImageEXT?$AA@ 0000000180056740     umodsys_lib_libui:umodsys.mod.ui.SDL_GL.obj
 0002:0000a760       ??_C@_0BH@JPALJFOC@glGetDoubleIndexedvEXT?$AA@ 0000000180056760     umodsys_lib_libui:umodsys.mod.ui.SDL_GL.obj
 0002:0000a778       ??_C@_0BC@PDBOBDJL@glGetDoublei_vEXT?$AA@ 0000000180056778     umodsys_lib_libui:umodsys.mod.ui.SDL_GL.obj
 0002:0000a790       ??_C@_0BG@EMFACKNP@glGetFloatIndexedvEXT?$AA@ 0000000180056790     umodsys_lib_libui:umodsys.mod.ui.SDL_GL.obj
 0002:0000a7a8       ??_C@_0BB@JLGFFCMK@glGetFloati_vEXT?$AA@ 00000001800567a8     umodsys_lib_libui:umodsys.mod.ui.SDL_GL.obj
 0002:0000a7c0       ??_C@_0BP@HFLGOGIL@glGetFramebufferParameterivEXT?$AA@ 00000001800567c0     umodsys_lib_libui:umodsys.mod.ui.SDL_GL.obj
 0002:0000a7e0       ??_C@_0BI@HCFKGNEO@glGetIntegerIndexedvEXT?$AA@ 00000001800567e0     umodsys_lib_libui:umodsys.mod.ui.SDL_GL.obj
 0002:0000a7f8       ??_C@_0BG@GNBOGHDO@glGetMultiTexEnvfvEXT?$AA@ 00000001800567f8     umodsys_lib_libui:umodsys.mod.ui.SDL_GL.obj
 0002:0000a810       ??_C@_0BG@JMEINFOL@glGetMultiTexEnvivEXT?$AA@ 0000000180056810     umodsys_lib_libui:umodsys.mod.ui.SDL_GL.obj
 0002:0000a828       ??_C@_0BG@HHLCAEM@glGetMultiTexGendvEXT?$AA@ 0000000180056828     umodsys_lib_libui:umodsys.mod.ui.SDL_GL.obj
 0002:0000a840       ??_C@_0BG@EKLDIBEH@glGetMultiTexGenfvEXT?$AA@ 0000000180056840     umodsys_lib_libui:umodsys.mod.ui.SDL_GL.obj
 0002:0000a858       ??_C@_0BG@LLOFDDJC@glGetMultiTexGenivEXT?$AA@ 0000000180056858     umodsys_lib_libui:umodsys.mod.ui.SDL_GL.obj
 0002:0000a870       ??_C@_0BG@ELMAAPHO@glGetMultiTexImageEXT?$AA@ 0000000180056870     umodsys_lib_libui:umodsys.mod.ui.SDL_GL.obj
 0002:0000a888       ??_C@_0CB@PNDHILHL@glGetMultiTexLevelParameterfvEXT@ 0000000180056888     umodsys_lib_libui:umodsys.mod.ui.SDL_GL.obj
 0002:0000a8b0       ??_C@_0CB@MGBDJKO@glGetMultiTexLevelParameterivEXT@ 00000001800568b0     umodsys_lib_libui:umodsys.mod.ui.SDL_GL.obj
 0002:0000a8d8       ??_C@_0BN@LGBIBNIB@glGetMultiTexParameterIivEXT?$AA@ 00000001800568d8     umodsys_lib_libui:umodsys.mod.ui.SDL_GL.obj
 0002:0000a8f8       ??_C@_0BO@FLMIMBHP@glGetMultiTexParameterIuivEXT?$AA@ 00000001800568f8     umodsys_lib_libui:umodsys.mod.ui.SDL_GL.obj
 0002:0000a918       ??_C@_0BM@FMKJLGAC@glGetMultiTexParameterfvEXT?$AA@ 0000000180056918     umodsys_lib_libui:umodsys.mod.ui.SDL_GL.obj
 0002:0000a938       ??_C@_0BM@KNPPAENH@glGetMultiTexParameterivEXT?$AA@ 0000000180056938     umodsys_lib_libui:umodsys.mod.ui.SDL_GL.obj
 0002:0000a958       ??_C@_0BP@HGDHPKNF@glGetNamedBufferParameterivEXT?$AA@ 0000000180056958     umodsys_lib_libui:umodsys.mod.ui.SDL_GL.obj
 0002:0000a978       ??_C@_0BM@IKINKGOC@glGetNamedBufferPointervEXT?$AA@ 0000000180056978     umodsys_lib_libui:umodsys.mod.ui.SDL_GL.obj
 0002:0000a998       ??_C@_0BL@EHBNKLPA@glGetNamedBufferSubDataEXT?$AA@ 0000000180056998     umodsys_lib_libui:umodsys.mod.ui.SDL_GL.obj
 0002:0000a9b8       ??_C@_0CO@OKPMKDDI@glGetNamedFramebufferAttachmentP@ 00000001800569b8     umodsys_lib_libui:umodsys.mod.ui.SDL_GL.obj
 0002:0000a9e8       ??_C@_0CE@EMNKOBNO@glGetNamedFramebufferParameteriv@ 00000001800569e8     umodsys_lib_libui:umodsys.mod.ui.SDL_GL.obj
 0002:0000aa10       ??_C@_0CG@LFLLCKKN@glGetNamedProgramLocalParameterI@ 0000000180056a10     umodsys_lib_libui:umodsys.mod.ui.SDL_GL.obj
 0002:0000aa38       ??_C@_0CH@GJBDAOKL@glGetNamedProgramLocalParameterI@ 0000000180056a38     umodsys_lib_libui:umodsys.mod.ui.SDL_GL.obj
 0002:0000aa60       ??_C@_0CF@ELEDHIL@glGetNamedProgramLocalParameterd@ 0000000180056a60     umodsys_lib_libui:umodsys.mod.ui.SDL_GL.obj
 0002:0000aa88       ??_C@_0CF@EJHMJGIA@glGetNamedProgramLocalParameterf@ 0000000180056a88     umodsys_lib_libui:umodsys.mod.ui.SDL_GL.obj
 0002:0000aab0       ??_C@_0BL@JKMDNLBO@glGetNamedProgramStringEXT?$AA@ 0000000180056ab0     umodsys_lib_libui:umodsys.mod.ui.SDL_GL.obj
 0002:0000aad0       ??_C@_0BH@IALGOIPC@glGetNamedProgramivEXT?$AA@ 0000000180056ad0     umodsys_lib_libui:umodsys.mod.ui.SDL_GL.obj
 0002:0000aae8       ??_C@_0CF@MMPFHIHI@glGetNamedRenderbufferParameteri@ 0000000180056ae8     umodsys_lib_libui:umodsys.mod.ui.SDL_GL.obj
 0002:0000ab10       ??_C@_0BI@FKCCJJJM@glGetPointerIndexedvEXT?$AA@ 0000000180056b10     umodsys_lib_libui:umodsys.mod.ui.SDL_GL.obj
 0002:0000ab28       ??_C@_0BD@HGLPNBMF@glGetPointeri_vEXT?$AA@ 0000000180056b28     umodsys_lib_libui:umodsys.mod.ui.SDL_GL.obj
 0002:0000ab40       ??_C@_0BF@PIPAOHHM@glGetTextureImageEXT?$AA@ 0000000180056b40     umodsys_lib_libui:umodsys.mod.ui.SDL_GL.obj
 0002:0000ab58       ??_C@_0CA@PHCGGOKJ@glGetTextureLevelParameterfvEXT?$AA@ 0000000180056b58     umodsys_lib_libui:umodsys.mod.ui.SDL_GL.obj
 0002:0000ab78       ??_C@_0CA@GHANMHM@glGetTextureLevelParameterivEXT?$AA@ 0000000180056b78     umodsys_lib_libui:umodsys.mod.ui.SDL_GL.obj
 0002:0000ab98       ??_C@_0BM@HFHGMMLF@glGetTextureParameterIivEXT?$AA@ 0000000180056b98     umodsys_lib_libui:umodsys.mod.ui.SDL_GL.obj
 0002:0000abb8       ??_C@_0BN@HKLPFLBL@glGetTextureParameterIuivEXT?$AA@ 0000000180056bb8     umodsys_lib_libui:umodsys.mod.ui.SDL_GL.obj
 0002:0000abd8       ??_C@_0BL@DOPGCDPP@glGetTextureParameterfvEXT?$AA@ 0000000180056bd8     umodsys_lib_libui:umodsys.mod.ui.SDL_GL.obj
 0002:0000abf8       ??_C@_0BL@MPKAJBCK@glGetTextureParameterivEXT?$AA@ 0000000180056bf8     umodsys_lib_libui:umodsys.mod.ui.SDL_GL.obj
 0002:0000ac18       ??_C@_0BO@FDAMMDFD@glGetVertexArrayIntegeri_vEXT?$AA@ 0000000180056c18     umodsys_lib_libui:umodsys.mod.ui.SDL_GL.obj
 0002:0000ac38       ??_C@_0BM@FJKMMCPD@glGetVertexArrayIntegervEXT?$AA@ 0000000180056c38     umodsys_lib_libui:umodsys.mod.ui.SDL_GL.obj
 0002:0000ac58       ??_C@_0BO@DLHBIIEH@glGetVertexArrayPointeri_vEXT?$AA@ 0000000180056c58     umodsys_lib_libui:umodsys.mod.ui.SDL_GL.obj
 0002:0000ac78       ??_C@_0BM@KLKCGIBD@glGetVertexArrayPointervEXT?$AA@ 0000000180056c78     umodsys_lib_libui:umodsys.mod.ui.SDL_GL.obj
 0002:0000ac98       ??_C@_0BG@LNLGELCG@glIsEnabledIndexedEXT?$AA@ 0000000180056c98     umodsys_lib_libui:umodsys.mod.ui.SDL_GL.obj
 0002:0000acb0       ??_C@_0BE@ONFFICFI@glMapNamedBufferEXT?$AA@ 0000000180056cb0     umodsys_lib_libui:umodsys.mod.ui.SDL_GL.obj
 0002:0000acc8       ??_C@_0BJ@MEDFIODK@glMapNamedBufferRangeEXT?$AA@ 0000000180056cc8     umodsys_lib_libui:umodsys.mod.ui.SDL_GL.obj
 0002:0000ace8       ??_C@_0BD@GNNFKBNH@glMatrixFrustumEXT?$AA@ 0000000180056ce8     umodsys_lib_libui:umodsys.mod.ui.SDL_GL.obj
 0002:0000ad00       ??_C@_0BI@IKIFDKFM@glMatrixLoadIdentityEXT?$AA@ 0000000180056d00     umodsys_lib_libui:umodsys.mod.ui.SDL_GL.obj
 0002:0000ad18       ??_C@_0BK@EGBAFFFD@glMatrixLoadTransposedEXT?$AA@ 0000000180056d18     umodsys_lib_libui:umodsys.mod.ui.SDL_GL.obj
 0002:0000ad38       ??_C@_0BK@DMNAAGDD@glMatrixLoadTransposefEXT?$AA@ 0000000180056d38     umodsys_lib_libui:umodsys.mod.ui.SDL_GL.obj
 0002:0000ad58       ??_C@_0BB@FDNBKOAN@glMatrixLoaddEXT?$AA@ 0000000180056d58     umodsys_lib_libui:umodsys.mod.ui.SDL_GL.obj
 0002:0000ad70       ??_C@_0BB@CJBBPNGN@glMatrixLoadfEXT?$AA@ 0000000180056d70     umodsys_lib_libui:umodsys.mod.ui.SDL_GL.obj
 0002:0000ad88       ??_C@_0BK@MBBHHIIA@glMatrixMultTransposedEXT?$AA@ 0000000180056d88     umodsys_lib_libui:umodsys.mod.ui.SDL_GL.obj
 0002:0000ada8       ??_C@_0BK@LLNHCLOA@glMatrixMultTransposefEXT?$AA@ 0000000180056da8     umodsys_lib_libui:umodsys.mod.ui.SDL_GL.obj
 0002:0000adc8       ??_C@_0BB@MLNAPEPG@glMatrixMultdEXT?$AA@ 0000000180056dc8     umodsys_lib_libui:umodsys.mod.ui.SDL_GL.obj
 0002:0000ade0       ??_C@_0BB@LBBAKHJG@glMatrixMultfEXT?$AA@ 0000000180056de0     umodsys_lib_libui:umodsys.mod.ui.SDL_GL.obj
 0002:0000adf8       ??_C@_0BB@LIBGPEDB@glMatrixOrthoEXT?$AA@ 0000000180056df8     umodsys_lib_libui:umodsys.mod.ui.SDL_GL.obj
 0002:0000ae10       ??_C@_0P@BOEIELPJ@glMatrixPopEXT?$AA@ 0000000180056e10     umodsys_lib_libui:umodsys.mod.ui.SDL_GL.obj
 0002:0000ae20       ??_C@_0BA@MNKKLGBO@glMatrixPushEXT?$AA@ 0000000180056e20     umodsys_lib_libui:umodsys.mod.ui.SDL_GL.obj
 0002:0000ae30       ??_C@_0BD@IGIJFODJ@glMatrixRotatedEXT?$AA@ 0000000180056e30     umodsys_lib_libui:umodsys.mod.ui.SDL_GL.obj
 0002:0000ae48       ??_C@_0BD@PMEJANFJ@glMatrixRotatefEXT?$AA@ 0000000180056e48     umodsys_lib_libui:umodsys.mod.ui.SDL_GL.obj
 0002:0000ae60       ??_C@_0BC@DPNPPBGC@glMatrixScaledEXT?$AA@ 0000000180056e60     umodsys_lib_libui:umodsys.mod.ui.SDL_GL.obj
 0002:0000ae78       ??_C@_0BC@EFBPKCAC@glMatrixScalefEXT?$AA@ 0000000180056e78     umodsys_lib_libui:umodsys.mod.ui.SDL_GL.obj
 0002:0000ae90       ??_C@_0BG@JGLAJIPN@glMatrixTranslatedEXT?$AA@ 0000000180056e90     umodsys_lib_libui:umodsys.mod.ui.SDL_GL.obj
 0002:0000aea8       ??_C@_0BG@OMHAMLJN@glMatrixTranslatefEXT?$AA@ 0000000180056ea8     umodsys_lib_libui:umodsys.mod.ui.SDL_GL.obj
 0002:0000aec0       ??_C@_0BE@HEPIKCIG@glMultiTexBufferEXT?$AA@ 0000000180056ec0     umodsys_lib_libui:umodsys.mod.ui.SDL_GL.obj
 0002:0000aed8       ??_C@_0BK@GGBKGBFO@glMultiTexCoordPointerEXT?$AA@ 0000000180056ed8     umodsys_lib_libui:umodsys.mod.ui.SDL_GL.obj
 0002:0000aef8       ??_C@_0BC@NGBAJLNK@glMultiTexEnvfEXT?$AA@ 0000000180056ef8     umodsys_lib_libui:umodsys.mod.ui.SDL_GL.obj
 0002:0000af10       ??_C@_0BD@PFOPAHHB@glMultiTexEnvfvEXT?$AA@ 0000000180056f10     umodsys_lib_libui:umodsys.mod.ui.SDL_GL.obj
 0002:0000af28       ??_C@_0BC@FEEAAMAL@glMultiTexEnviEXT?$AA@ 0000000180056f28     umodsys_lib_libui:umodsys.mod.ui.SDL_GL.obj
 0002:0000af40       ??_C@_0BD@ELJLFKE@glMultiTexEnvivEXT?$AA@ 0000000180056f40     umodsys_lib_libui:umodsys.mod.ui.SDL_GL.obj
 0002:0000af58       ??_C@_0BC@DHHBLML@glMultiTexGendEXT?$AA@ 0000000180056f58     umodsys_lib_libui:umodsys.mod.ui.SDL_GL.obj
 0002:0000af70       ??_C@_0BD@JPIKEAAD@glMultiTexGendvEXT?$AA@ 0000000180056f70     umodsys_lib_libui:umodsys.mod.ui.SDL_GL.obj
 0002:0000af88       ??_C@_0BC@HJLHEIKL@glMultiTexGenfEXT?$AA@ 0000000180056f88     umodsys_lib_libui:umodsys.mod.ui.SDL_GL.obj
 0002:0000afa0       ??_C@_0BD@NCECOBAI@glMultiTexGenfvEXT?$AA@ 0000000180056fa0     umodsys_lib_libui:umodsys.mod.ui.SDL_GL.obj
 0002:0000afb8       ??_C@_0BC@PLOHNPHK@glMultiTexGeniEXT?$AA@ 0000000180056fb8     umodsys_lib_libui:umodsys.mod.ui.SDL_GL.obj
 0002:0000afd0       ??_C@_0BD@CDBEFDNN@glMultiTexGenivEXT?$AA@ 0000000180056fd0     umodsys_lib_libui:umodsys.mod.ui.SDL_GL.obj
 0002:0000afe8       ??_C@_0BF@HKCOEKLM@glMultiTexImage1DEXT?$AA@ 0000000180056fe8     umodsys_lib_libui:umodsys.mod.ui.SDL_GL.obj
 0002:0000b000       ??_C@_0BF@PMLKDIBC@glMultiTexImage2DEXT?$AA@ 0000000180057000     umodsys_lib_libui:umodsys.mod.ui.SDL_GL.obj
 0002:0000b018       ??_C@_0BF@DHOGOLLH@glMultiTexImage3DEXT?$AA@ 0000000180057018     umodsys_lib_libui:umodsys.mod.ui.SDL_GL.obj
 0002:0000b030       ??_C@_0BK@BAPKHON@glMultiTexParameterIivEXT?$AA@ 0000000180057030     umodsys_lib_libui:umodsys.mod.ui.SDL_GL.obj
 0002:0000b050       ??_C@_0BL@BPHLPLLG@glMultiTexParameterIuivEXT?$AA@ 0000000180057050     umodsys_lib_libui:umodsys.mod.ui.SDL_GL.obj
 0002:0000b070       ??_C@_0BI@MABEJKFI@glMultiTexParameterfEXT?$AA@ 0000000180057070     umodsys_lib_libui:umodsys.mod.ui.SDL_GL.obj
 0002:0000b088       ??_C@_0BJ@PGEPOBHM@glMultiTexParameterfvEXT?$AA@ 0000000180057088     umodsys_lib_libui:umodsys.mod.ui.SDL_GL.obj
 0002:0000b0a8       ??_C@_0BI@ECEEANIJ@glMultiTexParameteriEXT?$AA@ 00000001800570a8     umodsys_lib_libui:umodsys.mod.ui.SDL_GL.obj
 0002:0000b0c0       ??_C@_0BJ@HBJFDKJ@glMultiTexParameterivEXT?$AA@ 00000001800570c0     umodsys_lib_libui:umodsys.mod.ui.SDL_GL.obj
 0002:0000b0e0       ??_C@_0BK@BJEMPNMI@glMultiTexRenderbufferEXT?$AA@ 00000001800570e0     umodsys_lib_libui:umodsys.mod.ui.SDL_GL.obj
 0002:0000b100       ??_C@_0BI@GFJJJDMD@glMultiTexSubImage1DEXT?$AA@ 0000000180057100     umodsys_lib_libui:umodsys.mod.ui.SDL_GL.obj
 0002:0000b118       ??_C@_0BI@ODANOBGN@glMultiTexSubImage2DEXT?$AA@ 0000000180057118     umodsys_lib_libui:umodsys.mod.ui.SDL_GL.obj
 0002:0000b130       ??_C@_0BI@CIFBDCMI@glMultiTexSubImage3DEXT?$AA@ 0000000180057130     umodsys_lib_libui:umodsys.mod.ui.SDL_GL.obj
 0002:0000b148       ??_C@_0BF@EGDGIBPF@glNamedBufferDataEXT?$AA@ 0000000180057148     umodsys_lib_libui:umodsys.mod.ui.SDL_GL.obj
 0002:0000b160       ??_C@_0BI@IGOLIKPI@glNamedBufferStorageEXT?$AA@ 0000000180057160     umodsys_lib_libui:umodsys.mod.ui.SDL_GL.obj
 0002:0000b178       ??_C@_0BI@KLAGIKJO@glNamedBufferSubDataEXT?$AA@ 0000000180057178     umodsys_lib_libui:umodsys.mod.ui.SDL_GL.obj
 0002:0000b190       ??_C@_0BM@KMCAOBPL@glNamedCopyBufferSubDataEXT?$AA@ 0000000180057190     umodsys_lib_libui:umodsys.mod.ui.SDL_GL.obj
 0002:0000b1b0       ??_C@_0CA@KNLMGFIL@glNamedFramebufferParameteriEXT?$AA@ 00000001800571b0     umodsys_lib_libui:umodsys.mod.ui.SDL_GL.obj
 0002:0000b1d0       ??_C@_0CC@GIBDJJNI@glNamedFramebufferRenderbufferEX@ 00000001800571d0     umodsys_lib_libui:umodsys.mod.ui.SDL_GL.obj
 0002:0000b1f8       ??_C@_0BP@BMGCDMAJ@glNamedFramebufferTexture1DEXT?$AA@ 00000001800571f8     umodsys_lib_libui:umodsys.mod.ui.SDL_GL.obj
 0002:0000b218       ??_C@_0BP@JKPGEOKH@glNamedFramebufferTexture2DEXT?$AA@ 0000000180057218     umodsys_lib_libui:umodsys.mod.ui.SDL_GL.obj
 0002:0000b238       ??_C@_0BP@FBKKJNAC@glNamedFramebufferTexture3DEXT?$AA@ 0000000180057238     umodsys_lib_libui:umodsys.mod.ui.SDL_GL.obj
 0002:0000b258       ??_C@_0BN@EBOLPEFF@glNamedFramebufferTextureEXT?$AA@ 0000000180057258     umodsys_lib_libui:umodsys.mod.ui.SDL_GL.obj
 0002:0000b278       ??_C@_0CB@BJCEBIKA@glNamedFramebufferTextureFaceEXT@ 0000000180057278     umodsys_lib_libui:umodsys.mod.ui.SDL_GL.obj
 0002:0000b2a0       ??_C@_0CC@OGPAEEAO@glNamedFramebufferTextureLayerEX@ 00000001800572a0     umodsys_lib_libui:umodsys.mod.ui.SDL_GL.obj
 0002:0000b2c8       ??_C@_0CC@KNGPLIKD@glNamedProgramLocalParameter4dEX@ 00000001800572c8     umodsys_lib_libui:umodsys.mod.ui.SDL_GL.obj
 0002:0000b2f0       ??_C@_0CD@NMENLBMK@glNamedProgramLocalParameter4dvE@ 00000001800572f0     umodsys_lib_libui:umodsys.mod.ui.SDL_GL.obj
 0002:0000b318       ??_C@_0CC@NHKPOLMD@glNamedProgramLocalParameter4fEX@ 0000000180057318     umodsys_lib_libui:umodsys.mod.ui.SDL_GL.obj
 0002:0000b340       ??_C@_0CD@JBIFBAMB@glNamedProgramLocalParameter4fvE@ 0000000180057340     umodsys_lib_libui:umodsys.mod.ui.SDL_GL.obj
 0002:0000b368       ??_C@_0CD@LPMMAIIF@glNamedProgramLocalParameterI4iE@ 0000000180057368     umodsys_lib_libui:umodsys.mod.ui.SDL_GL.obj
 0002:0000b390       ??_C@_0CE@OFCJHIH@glNamedProgramLocalParameterI4iv@ 0000000180057390     umodsys_lib_libui:umodsys.mod.ui.SDL_GL.obj
 0002:0000b3b8       ??_C@_0CE@JIPGFFDE@glNamedProgramLocalParameterI4ui@ 00000001800573b8     umodsys_lib_libui:umodsys.mod.ui.SDL_GL.obj
 0002:0000b3e0       ??_C@_0CF@LCBDCOMA@glNamedProgramLocalParameterI4ui@ 00000001800573e0     umodsys_lib_libui:umodsys.mod.ui.SDL_GL.obj
 0002:0000b408       ??_C@_0CE@OLAJGKOH@glNamedProgramLocalParameters4fv@ 0000000180057408     umodsys_lib_libui:umodsys.mod.ui.SDL_GL.obj
 0002:0000b430       ??_C@_0CF@NMCFJOAA@glNamedProgramLocalParametersI4i@ 0000000180057430     umodsys_lib_libui:umodsys.mod.ui.SDL_GL.obj
 0002:0000b458       ??_C@_0CG@MBBNEPEK@glNamedProgramLocalParametersI4u@ 0000000180057458     umodsys_lib_libui:umodsys.mod.ui.SDL_GL.obj
 0002:0000b480       ??_C@_0BI@HGNIPKHA@glNamedProgramStringEXT?$AA@ 0000000180057480     umodsys_lib_libui:umodsys.mod.ui.SDL_GL.obj
 0002:0000b498       ??_C@_0BO@KHENOFMG@glNamedRenderbufferStorageEXT?$AA@ 0000000180057498     umodsys_lib_libui:umodsys.mod.ui.SDL_GL.obj
 0002:0000b4b8       ??_C@_0DB@DNHIJAC@glNamedRenderbufferStorageMultis@ 00000001800574b8     umodsys_lib_libui:umodsys.mod.ui.SDL_GL.obj
 0002:0000b4f0       ??_C@_0CJ@DMIMHEMF@glNamedRenderbufferStorageMultis@ 00000001800574f0     umodsys_lib_libui:umodsys.mod.ui.SDL_GL.obj
 0002:0000b520       ??_C@_0BG@DBBBOAKE@glProgramUniform1dEXT?$AA@ 0000000180057520     umodsys_lib_libui:umodsys.mod.ui.SDL_GL.obj
 0002:0000b538       ??_C@_0BH@ECLFFKDB@glProgramUniform1dvEXT?$AA@ 0000000180057538     umodsys_lib_libui:umodsys.mod.ui.SDL_GL.obj
 0002:0000b550       ??_C@_0BG@ELNBLDME@glProgramUniform1fEXT?$AA@ 0000000180057550     umodsys_lib_libui:umodsys.mod.ui.SDL_GL.obj
 0002:0000b568       ??_C@_0BH@PHNPLDK@glProgramUniform1fvEXT?$AA@ 0000000180057568     umodsys_lib_libui:umodsys.mod.ui.SDL_GL.obj
 0002:0000b580       ??_C@_0BG@MJIBCEBF@glProgramUniform1iEXT?$AA@ 0000000180057580     umodsys_lib_libui:umodsys.mod.ui.SDL_GL.obj
 0002:0000b598       ??_C@_0BH@POCLEJOP@glProgramUniform1ivEXT?$AA@ 0000000180057598     umodsys_lib_libui:umodsys.mod.ui.SDL_GL.obj
 0002:0000b5b0       ??_C@_0BH@GIIPILFM@glProgramUniform1uiEXT?$AA@ 00000001800575b0     umodsys_lib_libui:umodsys.mod.ui.SDL_GL.obj
 0002:0000b5c8       ??_C@_0BI@PBIKLOHE@glProgramUniform1uivEXT?$AA@ 00000001800575c8     umodsys_lib_libui:umodsys.mod.ui.SDL_GL.obj
 0002:0000b5e0       ??_C@_0BG@LHIFJCAK@glProgramUniform2dEXT?$AA@ 00000001800575e0     umodsys_lib_libui:umodsys.mod.ui.SDL_GL.obj
 0002:0000b5f8       ??_C@_0BH@HDFNEAKM@glProgramUniform2dvEXT?$AA@ 00000001800575f8     umodsys_lib_libui:umodsys.mod.ui.SDL_GL.obj
 0002:0000b610       ??_C@_0BG@MNEFMBGK@glProgramUniform2fEXT?$AA@ 0000000180057610     umodsys_lib_libui:umodsys.mod.ui.SDL_GL.obj
 0002:0000b628       ??_C@_0BH@DOJFOBKH@glProgramUniform2fvEXT?$AA@ 0000000180057628     umodsys_lib_libui:umodsys.mod.ui.SDL_GL.obj
 0002:0000b640       ??_C@_0BG@EPBFFGLL@glProgramUniform2iEXT?$AA@ 0000000180057640     umodsys_lib_libui:umodsys.mod.ui.SDL_GL.obj
 0002:0000b658       ??_C@_0BH@MPMDFDHC@glProgramUniform2ivEXT?$AA@ 0000000180057658     umodsys_lib_libui:umodsys.mod.ui.SDL_GL.obj
 0002:0000b670       ??_C@_0BH@FJGHJBMB@glProgramUniform2uiEXT?$AA@ 0000000180057670     umodsys_lib_libui:umodsys.mod.ui.SDL_GL.obj
 0002:0000b688       ??_C@_0BI@HPAFLJJH@glProgramUniform2uivEXT?$AA@ 0000000180057688     umodsys_lib_libui:umodsys.mod.ui.SDL_GL.obj
 0002:0000b6a0       ??_C@_0BG@HMNJEBKP@glProgramUniform3dEXT?$AA@ 00000001800576a0     umodsys_lib_libui:umodsys.mod.ui.SDL_GL.obj
 0002:0000b6b8       ??_C@_0BH@NFCKELBI@glProgramUniform3dvEXT?$AA@ 00000001800576b8     umodsys_lib_libui:umodsys.mod.ui.SDL_GL.obj
 0002:0000b6d0       ??_C@_0BG@GBJBCMP@glProgramUniform3fEXT?$AA@ 00000001800576d0     umodsys_lib_libui:umodsys.mod.ui.SDL_GL.obj
 0002:0000b6e8       ??_C@_0BH@JIOCOKBD@glProgramUniform3fvEXT?$AA@ 00000001800576e8     umodsys_lib_libui:umodsys.mod.ui.SDL_GL.obj
 0002:0000b700       ??_C@_0BG@IEEJIFBO@glProgramUniform3iEXT?$AA@ 0000000180057700     umodsys_lib_libui:umodsys.mod.ui.SDL_GL.obj
 0002:0000b718       ??_C@_0BH@GJLEFIMG@glProgramUniform3ivEXT?$AA@ 0000000180057718     umodsys_lib_libui:umodsys.mod.ui.SDL_GL.obj
 0002:0000b730       ??_C@_0BH@PPBAJKHF@glProgramUniform3uiEXT?$AA@ 0000000180057730     umodsys_lib_libui:umodsys.mod.ui.SDL_GL.obj
 0002:0000b748       ??_C@_0BI@LDKPLJAJ@glProgramUniform3uivEXT?$AA@ 0000000180057748     umodsys_lib_libui:umodsys.mod.ui.SDL_GL.obj
 0002:0000b760       ??_C@_0BG@GBNMHBBH@glProgramUniform4dEXT?$AA@ 0000000180057760     umodsys_lib_libui:umodsys.mod.ui.SDL_GL.obj
 0002:0000b778       ??_C@_0BH@BAINHFJG@glProgramUniform4dvEXT?$AA@ 0000000180057778     umodsys_lib_libui:umodsys.mod.ui.SDL_GL.obj
 0002:0000b790       ??_C@_0BG@BLBMCCHH@glProgramUniform4fEXT?$AA@ 0000000180057790     umodsys_lib_libui:umodsys.mod.ui.SDL_GL.obj
 0002:0000b7a8       ??_C@_0BH@FNEFNEJN@glProgramUniform4fvEXT?$AA@ 00000001800577a8     umodsys_lib_libui:umodsys.mod.ui.SDL_GL.obj
 0002:0000b7c0       ??_C@_0BG@JJEMLFKG@glProgramUniform4iEXT?$AA@ 00000001800577c0     umodsys_lib_libui:umodsys.mod.ui.SDL_GL.obj
 0002:0000b7d8       ??_C@_0BH@KMBDGGEI@glProgramUniform4ivEXT?$AA@ 00000001800577d8     umodsys_lib_libui:umodsys.mod.ui.SDL_GL.obj
 0002:0000b7f0       ??_C@_0BH@DKLHKEPL@glProgramUniform4uiEXT?$AA@ 00000001800577f0     umodsys_lib_libui:umodsys.mod.ui.SDL_GL.obj
 0002:0000b808       ??_C@_0BI@LJGKLABA@glProgramUniform4uivEXT?$AA@ 0000000180057808     umodsys_lib_libui:umodsys.mod.ui.SDL_GL.obj
 0002:0000b820       ??_C@_0BN@NDLDHGAM@glProgramUniformMatrix2dvEXT?$AA@ 0000000180057820     umodsys_lib_libui:umodsys.mod.ui.SDL_GL.obj
 0002:0000b840       ??_C@_0BN@JOHLNHAH@glProgramUniformMatrix2fvEXT?$AA@ 0000000180057840     umodsys_lib_libui:umodsys.mod.ui.SDL_GL.obj
 0002:0000b860       ??_C@_0BP@MOCIKGFI@glProgramUniformMatrix2x3dvEXT?$AA@ 0000000180057860     umodsys_lib_libui:umodsys.mod.ui.SDL_GL.obj
 0002:0000b880       ??_C@_0BP@IDOAAHFD@glProgramUniformMatrix2x3fvEXT?$AA@ 0000000180057880     umodsys_lib_libui:umodsys.mod.ui.SDL_GL.obj
 0002:0000b8a0       ??_C@_0BP@LIPJING@glProgramUniformMatrix2x4dvEXT?$AA@ 00000001800578a0     umodsys_lib_libui:umodsys.mod.ui.SDL_GL.obj
 0002:0000b8c0       ??_C@_0BP@EGEHDJNN@glProgramUniformMatrix2x4fvEXT?$AA@ 00000001800578c0     umodsys_lib_libui:umodsys.mod.ui.SDL_GL.obj
 0002:0000b8e0       ??_C@_0BN@HFMEHNLI@glProgramUniformMatrix3dvEXT?$AA@ 00000001800578e0     umodsys_lib_libui:umodsys.mod.ui.SDL_GL.obj
 0002:0000b900       ??_C@_0BN@DIAMNMLD@glProgramUniformMatrix3fvEXT?$AA@ 0000000180057900     umodsys_lib_libui:umodsys.mod.ui.SDL_GL.obj
 0002:0000b920       ??_C@_0BP@HPCELJKP@glProgramUniformMatrix3x2dvEXT?$AA@ 0000000180057920     umodsys_lib_libui:umodsys.mod.ui.SDL_GL.obj
 0002:0000b940       ??_C@_0BP@DCOMBIKE@glProgramUniformMatrix3x2fvEXT?$AA@ 0000000180057940     umodsys_lib_libui:umodsys.mod.ui.SDL_GL.obj
 0002:0000b960       ??_C@_0BP@BMPEIMJF@glProgramUniformMatrix3x4dvEXT?$AA@ 0000000180057960     umodsys_lib_libui:umodsys.mod.ui.SDL_GL.obj
 0002:0000b980       ??_C@_0BP@FBDMCNJO@glProgramUniformMatrix3x4fvEXT?$AA@ 0000000180057980     umodsys_lib_libui:umodsys.mod.ui.SDL_GL.obj
 0002:0000b9a0       ??_C@_0BN@LAGDEDDG@glProgramUniformMatrix4dvEXT?$AA@ 00000001800579a0     umodsys_lib_libui:umodsys.mod.ui.SDL_GL.obj
 0002:0000b9c0       ??_C@_0BN@PNKLOCDN@glProgramUniformMatrix4fvEXT?$AA@ 00000001800579c0     umodsys_lib_libui:umodsys.mod.ui.SDL_GL.obj
 0002:0000b9e0       ??_C@_0BP@BLEFNEGG@glProgramUniformMatrix4x2dvEXT?$AA@ 00000001800579e0     umodsys_lib_libui:umodsys.mod.ui.SDL_GL.obj
 0002:0000ba00       ??_C@_0BP@FGINHFGN@glProgramUniformMatrix4x2fvEXT?$AA@ 0000000180057a00     umodsys_lib_libui:umodsys.mod.ui.SDL_GL.obj
 0002:0000ba20       ??_C@_0BP@LNDCNPNC@glProgramUniformMatrix4x3dvEXT?$AA@ 0000000180057a20     umodsys_lib_libui:umodsys.mod.ui.SDL_GL.obj
 0002:0000ba40       ??_C@_0BP@PAPKHONJ@glProgramUniformMatrix4x3fvEXT?$AA@ 0000000180057a40     umodsys_lib_libui:umodsys.mod.ui.SDL_GL.obj
 0002:0000ba60       ??_C@_0BN@NKADHPKI@glPushClientAttribDefaultEXT?$AA@ 0000000180057a60     umodsys_lib_libui:umodsys.mod.ui.SDL_GL.obj
 0002:0000ba80       ??_C@_0BD@OEEPDOGM@glTextureBufferEXT?$AA@ 0000000180057a80     umodsys_lib_libui:umodsys.mod.ui.SDL_GL.obj
 0002:0000ba98       ??_C@_0BI@HEDPMLB@glTextureBufferRangeEXT?$AA@ 0000000180057a98     umodsys_lib_libui:umodsys.mod.ui.SDL_GL.obj
 0002:0000bab0       ??_C@_0BE@DKGBPGEG@glTextureImage1DEXT?$AA@ 0000000180057ab0     umodsys_lib_libui:umodsys.mod.ui.SDL_GL.obj
 0002:0000bac8       ??_C@_0BE@LMPFIEOI@glTextureImage2DEXT?$AA@ 0000000180057ac8     umodsys_lib_libui:umodsys.mod.ui.SDL_GL.obj
 0002:0000bae0       ??_C@_0BE@HHKJFHEN@glTextureImage3DEXT?$AA@ 0000000180057ae0     umodsys_lib_libui:umodsys.mod.ui.SDL_GL.obj
 0002:0000baf8       ??_C@_0BL@KBMIFFAF@glTexturePageCommitmentEXT?$AA@ 0000000180057af8     umodsys_lib_libui:umodsys.mod.ui.SDL_GL.obj
 0002:0000bb18       ??_C@_0BJ@NPJAJLML@glTextureParameterIivEXT?$AA@ 0000000180057b18     umodsys_lib_libui:umodsys.mod.ui.SDL_GL.obj
 0002:0000bb38       ??_C@_0BK@MNKIOBHH@glTextureParameterIuivEXT?$AA@ 0000000180057b38     umodsys_lib_libui:umodsys.mod.ui.SDL_GL.obj
 0002:0000bb58       ??_C@_0BH@NGFENBKL@glTextureParameterfEXT?$AA@ 0000000180057b58     umodsys_lib_libui:umodsys.mod.ui.SDL_GL.obj
 0002:0000bb70       ??_C@_0BI@NCONACJB@glTextureParameterfvEXT?$AA@ 0000000180057b70     umodsys_lib_libui:umodsys.mod.ui.SDL_GL.obj
 0002:0000bb88       ??_C@_0BH@FEAEEGHK@glTextureParameteriEXT?$AA@ 0000000180057b88     umodsys_lib_libui:umodsys.mod.ui.SDL_GL.obj
 0002:0000bba0       ??_C@_0BI@CDLLLAEE@glTextureParameterivEXT?$AA@ 0000000180057ba0     umodsys_lib_libui:umodsys.mod.ui.SDL_GL.obj
 0002:0000bbb8       ??_C@_0BJ@MHNDMBOO@glTextureRenderbufferEXT?$AA@ 0000000180057bb8     umodsys_lib_libui:umodsys.mod.ui.SDL_GL.obj
 0002:0000bbd8       ??_C@_0BG@LIPEIIGD@glTextureStorage1DEXT?$AA@ 0000000180057bd8     umodsys_lib_libui:umodsys.mod.ui.SDL_GL.obj
 0002:0000bbf0       ??_C@_0BG@DOGAPKMN@glTextureStorage2DEXT?$AA@ 0000000180057bf0     umodsys_lib_libui:umodsys.mod.ui.SDL_GL.obj
 0002:0000bc08       ??_C@_0CB@IKHJODMK@glTextureStorage2DMultisampleEXT@ 0000000180057c08     umodsys_lib_libui:umodsys.mod.ui.SDL_GL.obj
 0002:0000bc30       ??_C@_0BG@PFDMCJGI@glTextureStorage3DEXT?$AA@ 0000000180057c30     umodsys_lib_libui:umodsys.mod.ui.SDL_GL.obj
 0002:0000bc48       ??_C@_0CB@NNPCIIJ@glTextureStorage3DMultisampleEXT@ 0000000180057c48     umodsys_lib_libui:umodsys.mod.ui.SDL_GL.obj
 0002:0000bc70       ??_C@_0BH@HDNJNIDA@glTextureSubImage1DEXT?$AA@ 0000000180057c70     umodsys_lib_libui:umodsys.mod.ui.SDL_GL.obj
 0002:0000bc88       ??_C@_0BH@PFENKKJO@glTextureSubImage2DEXT?$AA@ 0000000180057c88     umodsys_lib_libui:umodsys.mod.ui.SDL_GL.obj
 0002:0000bca0       ??_C@_0BH@DOBBHJDL@glTextureSubImage3DEXT?$AA@ 0000000180057ca0     umodsys_lib_libui:umodsys.mod.ui.SDL_GL.obj
 0002:0000bcb8       ??_C@_0BG@CAIFHBPG@glUnmapNamedBufferEXT?$AA@ 0000000180057cb8     umodsys_lib_libui:umodsys.mod.ui.SDL_GL.obj
 0002:0000bcd0       ??_C@_0CB@BDCLHICB@glVertexArrayBindVertexBufferEXT@ 0000000180057cd0     umodsys_lib_libui:umodsys.mod.ui.SDL_GL.obj
 0002:0000bcf8       ??_C@_0BM@CFIMGCMJ@glVertexArrayColorOffsetEXT?$AA@ 0000000180057cf8     umodsys_lib_libui:umodsys.mod.ui.SDL_GL.obj
 0002:0000bd18       ??_C@_0BP@HFLJMDEG@glVertexArrayEdgeFlagOffsetEXT?$AA@ 0000000180057d18     umodsys_lib_libui:umodsys.mod.ui.SDL_GL.obj
 0002:0000bd38       ??_C@_0BP@LMBGFCAJ@glVertexArrayFogCoordOffsetEXT?$AA@ 0000000180057d38     umodsys_lib_libui:umodsys.mod.ui.SDL_GL.obj
 0002:0000bd58       ??_C@_0BM@INBHJNCB@glVertexArrayIndexOffsetEXT?$AA@ 0000000180057d58     umodsys_lib_libui:umodsys.mod.ui.SDL_GL.obj
 0002:0000bd78       ??_C@_0CE@JHDLNPEP@glVertexArrayMultiTexCoordOffset@ 0000000180057d78     umodsys_lib_libui:umodsys.mod.ui.SDL_GL.obj
 0002:0000bda0       ??_C@_0BN@OADCKOIN@glVertexArrayNormalOffsetEXT?$AA@ 0000000180057da0     umodsys_lib_libui:umodsys.mod.ui.SDL_GL.obj
 0002:0000bdc0       ??_C@_0CF@GIDHOCLP@glVertexArraySecondaryColorOffse@ 0000000180057dc0     umodsys_lib_libui:umodsys.mod.ui.SDL_GL.obj
 0002:0000bde8       ??_C@_0BP@MNIAODGP@glVertexArrayTexCoordOffsetEXT?$AA@ 0000000180057de8     umodsys_lib_libui:umodsys.mod.ui.SDL_GL.obj
 0002:0000be08       ??_C@_0CE@PLJLPNAP@glVertexArrayVertexAttribBinding@ 0000000180057e08     umodsys_lib_libui:umodsys.mod.ui.SDL_GL.obj
 0002:0000be30       ??_C@_0CE@DPMBMKCD@glVertexArrayVertexAttribDivisor@ 0000000180057e30     umodsys_lib_libui:umodsys.mod.ui.SDL_GL.obj
 0002:0000be58       ??_C@_0CD@JDLJFCCB@glVertexArrayVertexAttribFormatE@ 0000000180057e58     umodsys_lib_libui:umodsys.mod.ui.SDL_GL.obj
 0002:0000be80       ??_C@_0CE@OJBKHFGN@glVertexArrayVertexAttribIFormat@ 0000000180057e80     umodsys_lib_libui:umodsys.mod.ui.SDL_GL.obj
 0002:0000bea8       ??_C@_0CE@ONCNHCKI@glVertexArrayVertexAttribIOffset@ 0000000180057ea8     umodsys_lib_libui:umodsys.mod.ui.SDL_GL.obj
 0002:0000bed0       ??_C@_0CE@JIENNJCP@glVertexArrayVertexAttribLFormat@ 0000000180057ed0     umodsys_lib_libui:umodsys.mod.ui.SDL_GL.obj
 0002:0000bef8       ??_C@_0CE@JMHKNOOK@glVertexArrayVertexAttribLOffset@ 0000000180057ef8     umodsys_lib_libui:umodsys.mod.ui.SDL_GL.obj
 0002:0000bf20       ??_C@_0CD@JHIOFFOE@glVertexArrayVertexAttribOffsetE@ 0000000180057f20     umodsys_lib_libui:umodsys.mod.ui.SDL_GL.obj
 0002:0000bf48       ??_C@_0CF@LAAOPNKA@glVertexArrayVertexBindingDiviso@ 0000000180057f48     umodsys_lib_libui:umodsys.mod.ui.SDL_GL.obj
 0002:0000bf70       ??_C@_0BN@DMLCFCEO@glVertexArrayVertexOffsetEXT?$AA@ 0000000180057f70     umodsys_lib_libui:umodsys.mod.ui.SDL_GL.obj
 0002:0000bf90       ??_C@_0BL@KADAIOH@GL_EXT_discard_framebuffer?$AA@ 0000000180057f90     umodsys_lib_libui:umodsys.mod.ui.SDL_GL.obj
 0002:0000bfb0       ??_C@_0BI@PNJOCEBL@glDiscardFramebufferEXT?$AA@ 0000000180057fb0     umodsys_lib_libui:umodsys.mod.ui.SDL_GL.obj
 0002:0000bfc8       ??_C@_0BM@NLOGFGPN@GL_EXT_disjoint_timer_query?$AA@ 0000000180057fc8     umodsys_lib_libui:umodsys.mod.ui.SDL_GL.obj
 0002:0000bfe8       ??_C@_0BA@CBMMKGBH@glBeginQueryEXT?$AA@ 0000000180057fe8     umodsys_lib_libui:umodsys.mod.ui.SDL_GL.obj
 0002:0000bff8       ??_C@_0BD@OOCONIPH@glDeleteQueriesEXT?$AA@ 0000000180057ff8     umodsys_lib_libui:umodsys.mod.ui.SDL_GL.obj
 0002:0000c010       ??_C@_0O@NLPONBAA@glEndQueryEXT?$AA@ 0000000180058010     umodsys_lib_libui:umodsys.mod.ui.SDL_GL.obj
 0002:0000c020       ??_C@_0BA@JPPKPKJM@glGenQueriesEXT?$AA@ 0000000180058020     umodsys_lib_libui:umodsys.mod.ui.SDL_GL.obj
 0002:0000c030       ??_C@_0BI@IJOKHKKO@glGetQueryObjecti64vEXT?$AA@ 0000000180058030     umodsys_lib_libui:umodsys.mod.ui.SDL_GL.obj
 0002:0000c048       ??_C@_0BG@NNDHFFDL@glGetQueryObjectivEXT?$AA@ 0000000180058048     umodsys_lib_libui:umodsys.mod.ui.SDL_GL.obj
 0002:0000c060       ??_C@_0BJ@LBCFKCPE@glGetQueryObjectui64vEXT?$AA@ 0000000180058060     umodsys_lib_libui:umodsys.mod.ui.SDL_GL.obj
 0002:0000c080       ??_C@_0BH@HABHLEKF@glGetQueryObjectuivEXT?$AA@ 0000000180058080     umodsys_lib_libui:umodsys.mod.ui.SDL_GL.obj
 0002:0000c098       ??_C@_0BA@KBCJCMME@glGetQueryivEXT?$AA@ 0000000180058098     umodsys_lib_libui:umodsys.mod.ui.SDL_GL.obj
 0002:0000c0a8       ??_C@_0N@OEKFJFKD@glIsQueryEXT?$AA@ 00000001800580a8     umodsys_lib_libui:umodsys.mod.ui.SDL_GL.obj
 0002:0000c0b8       ??_C@_0BC@IDIOOBMM@glQueryCounterEXT?$AA@ 00000001800580b8     umodsys_lib_libui:umodsys.mod.ui.SDL_GL.obj
 0002:0000c0d0       ??_C@_0BE@BJBPGHAG@GL_EXT_draw_buffers?$AA@ 00000001800580d0     umodsys_lib_libui:umodsys.mod.ui.SDL_GL.obj
 0002:0000c0e8       ??_C@_0BB@KFCINMDO@glDrawBuffersEXT?$AA@ 00000001800580e8     umodsys_lib_libui:umodsys.mod.ui.SDL_GL.obj
 0002:0000c100       ??_C@_0BF@EAKOOCD@GL_EXT_draw_buffers2?$AA@ 0000000180058100     umodsys_lib_libui:umodsys.mod.ui.SDL_GL.obj
 0002:0000c118       ??_C@_0BG@PJOFEKKJ@glColorMaskIndexedEXT?$AA@ 0000000180058118     umodsys_lib_libui:umodsys.mod.ui.SDL_GL.obj
 0002:0000c130       ??_C@_0BL@BBECEKLJ@GL_EXT_draw_range_elements?$AA@ 0000000180058130     umodsys_lib_libui:umodsys.mod.ui.SDL_GL.obj
 0002:0000c150       ??_C@_0BH@GFFILNEF@glDrawRangeElementsEXT?$AA@ 0000000180058150     umodsys_lib_libui:umodsys.mod.ui.SDL_GL.obj
 0002:0000c168       ??_C@_0BB@KKBCECGP@GL_EXT_fog_coord?$AA@ 0000000180058168     umodsys_lib_libui:umodsys.mod.ui.SDL_GL.obj
 0002:0000c180       ??_C@_0BF@FOOIEJCC@glFogCoordPointerEXT?$AA@ 0000000180058180     umodsys_lib_libui:umodsys.mod.ui.SDL_GL.obj
 0002:0000c198       ??_C@_0P@CHEMEAE@glFogCoorddEXT?$AA@ 0000000180058198     umodsys_lib_libui:umodsys.mod.ui.SDL_GL.obj
 0002:0000c1a8       ??_C@_0BA@JEFAJMPN@glFogCoorddvEXT?$AA@ 00000001800581a8     umodsys_lib_libui:umodsys.mod.ui.SDL_GL.obj
 0002:0000c1b8       ??_C@_0P@HILEJHGE@glFogCoordfEXT?$AA@ 00000001800581b8     umodsys_lib_libui:umodsys.mod.ui.SDL_GL.obj
 0002:0000c1c8       ??_C@_0BA@NJJIDNPG@glFogCoordfvEXT?$AA@ 00000001800581c8     umodsys_lib_libui:umodsys.mod.ui.SDL_GL.obj
 0002:0000c1d8       ??_C@_0BI@HCGEDMJI@GL_EXT_framebuffer_blit?$AA@ 00000001800581d8     umodsys_lib_libui:umodsys.mod.ui.SDL_GL.obj
 0002:0000c1f0       ??_C@_0BF@GOMLACDI@glBlitFramebufferEXT?$AA@ 00000001800581f0     umodsys_lib_libui:umodsys.mod.ui.SDL_GL.obj
 0002:0000c208       ??_C@_0BK@GDONINOA@GL_EXT_framebuffer_object?$AA@ 0000000180058208     umodsys_lib_libui:umodsys.mod.ui.SDL_GL.obj
 0002:0000c228       ??_C@_0BF@EMIECBAK@glBindFramebufferEXT?$AA@ 0000000180058228     umodsys_lib_libui:umodsys.mod.ui.SDL_GL.obj
 0002:0000c240       ??_C@_0BG@GLKALDNN@glBindRenderbufferEXT?$AA@ 0000000180058240     umodsys_lib_libui:umodsys.mod.ui.SDL_GL.obj
 0002:0000c258       ??_C@_0BM@GOHPHGGE@glCheckFramebufferStatusEXT?$AA@ 0000000180058258     umodsys_lib_libui:umodsys.mod.ui.SDL_GL.obj
 0002:0000c278       ??_C@_0BI@NPEJNLO@glDeleteFramebuffersEXT?$AA@ 0000000180058278     umodsys_lib_libui:umodsys.mod.ui.SDL_GL.obj
 0002:0000c290       ??_C@_0BJ@FCLEPNJL@glDeleteRenderbuffersEXT?$AA@ 0000000180058290     umodsys_lib_libui:umodsys.mod.ui.SDL_GL.obj
 0002:0000c2b0       ??_C@_0BN@BAGKOCJP@glFramebufferRenderbufferEXT?$AA@ 00000001800582b0     umodsys_lib_libui:umodsys.mod.ui.SDL_GL.obj
 0002:0000c2d0       ??_C@_0BK@DDHFDNIL@glFramebufferTexture1DEXT?$AA@ 00000001800582d0     umodsys_lib_libui:umodsys.mod.ui.SDL_GL.obj
 0002:0000c2f0       ??_C@_0BK@LFOBEPCF@glFramebufferTexture2DEXT?$AA@ 00000001800582f0     umodsys_lib_libui:umodsys.mod.ui.SDL_GL.obj
 0002:0000c310       ??_C@_0BK@HOLNJMIA@glFramebufferTexture3DEXT?$AA@ 0000000180058310     umodsys_lib_libui:umodsys.mod.ui.SDL_GL.obj
 0002:0000c330       ??_C@_0BF@FFIJGJAM@glGenFramebuffersEXT?$AA@ 0000000180058330     umodsys_lib_libui:umodsys.mod.ui.SDL_GL.obj
 0002:0000c348       ??_C@_0BG@HHIDFCMP@glGenRenderbuffersEXT?$AA@ 0000000180058348     umodsys_lib_libui:umodsys.mod.ui.SDL_GL.obj
 0002:0000c360       ??_C@_0BE@CIGLHJJK@glGenerateMipmapEXT?$AA@ 0000000180058360     umodsys_lib_libui:umodsys.mod.ui.SDL_GL.obj
 0002:0000c378       ??_C@_0CJ@GLBPNGII@glGetFramebufferAttachmentParame@ 0000000180058378     umodsys_lib_libui:umodsys.mod.ui.SDL_GL.obj
 0002:0000c3a8       ??_C@_0CA@NHMNLBAE@glGetRenderbufferParameterivEXT?$AA@ 00000001800583a8     umodsys_lib_libui:umodsys.mod.ui.SDL_GL.obj
 0002:0000c3c8       ??_C@_0BD@MIGPBMHK@glIsFramebufferEXT?$AA@ 00000001800583c8     umodsys_lib_libui:umodsys.mod.ui.SDL_GL.obj
 0002:0000c3e0       ??_C@_0BE@DLCBCJNM@glIsRenderbufferEXT?$AA@ 00000001800583e0     umodsys_lib_libui:umodsys.mod.ui.SDL_GL.obj
 0002:0000c3f8       ??_C@_0BJ@NPDAOAPK@glRenderbufferStorageEXT?$AA@ 00000001800583f8     umodsys_lib_libui:umodsys.mod.ui.SDL_GL.obj
 0002:0000c418       ??_C@_0BO@JOJLOPAH@GL_EXT_gpu_program_parameters?$AA@ 0000000180058418     umodsys_lib_libui:umodsys.mod.ui.SDL_GL.obj
 0002:0000c438       ??_C@_0BN@FHPFOAIA@glProgramEnvParameters4fvEXT?$AA@ 0000000180058438     umodsys_lib_libui:umodsys.mod.ui.SDL_GL.obj
 0002:0000c458       ??_C@_0BP@JDOGGDOI@glProgramLocalParameters4fvEXT?$AA@ 0000000180058458     umodsys_lib_libui:umodsys.mod.ui.SDL_GL.obj
 0002:0000c478       ??_C@_0BD@MHBCPECK@GL_EXT_gpu_shader4?$AA@ 0000000180058478     umodsys_lib_libui:umodsys.mod.ui.SDL_GL.obj
 0002:0000c490       ??_C@_0BK@DNBDABFG@glBindFragDataLocationEXT?$AA@ 0000000180058490     umodsys_lib_libui:umodsys.mod.ui.SDL_GL.obj
 0002:0000c4b0       ??_C@_0BJ@EJLFAMEH@glGetFragDataLocationEXT?$AA@ 00000001800584b0     umodsys_lib_libui:umodsys.mod.ui.SDL_GL.obj
 0002:0000c4d0       ??_C@_0BD@FFGAODEC@glGetUniformuivEXT?$AA@ 00000001800584d0     umodsys_lib_libui:umodsys.mod.ui.SDL_GL.obj
 0002:0000c4e8       ??_C@_0BA@OOCMDNJI@glUniform1uiEXT?$AA@ 00000001800584e8     umodsys_lib_libui:umodsys.mod.ui.SDL_GL.obj
 0002:0000c4f8       ??_C@_0BB@GNAFBLGL@glUniform1uivEXT?$AA@ 00000001800584f8     umodsys_lib_libui:umodsys.mod.ui.SDL_GL.obj
 0002:0000c510       ??_C@_0BA@NPMECHAF@glUniform2uiEXT?$AA@ 0000000180058510     umodsys_lib_libui:umodsys.mod.ui.SDL_GL.obj
 0002:0000c520       ??_C@_0BB@ODIKBMII@glUniform2uivEXT?$AA@ 0000000180058520     umodsys_lib_libui:umodsys.mod.ui.SDL_GL.obj
 0002:0000c538       ??_C@_0BA@HJLDCMLB@glUniform3uiEXT?$AA@ 0000000180058538     umodsys_lib_libui:umodsys.mod.ui.SDL_GL.obj
 0002:0000c548       ??_C@_0BB@CPCABMBG@glUniform3uivEXT?$AA@ 0000000180058548     umodsys_lib_libui:umodsys.mod.ui.SDL_GL.obj
 0002:0000c560       ??_C@_0BA@LMBEBCDP@glUniform4uiEXT?$AA@ 0000000180058560     umodsys_lib_libui:umodsys.mod.ui.SDL_GL.obj
 0002:0000c570       ??_C@_0BB@CFOFBFAP@glUniform4uivEXT?$AA@ 0000000180058570     umodsys_lib_libui:umodsys.mod.ui.SDL_GL.obj
 0002:0000c588       ??_C@_0BB@NIOJPLHJ@GL_EXT_histogram?$AA@ 0000000180058588     umodsys_lib_libui:umodsys.mod.ui.SDL_GL.obj
 0002:0000c5a0       ??_C@_0BC@HDKNAHKO@glGetHistogramEXT?$AA@ 00000001800585a0     umodsys_lib_libui:umodsys.mod.ui.SDL_GL.obj
 0002:0000c5b8       ??_C@_0BN@POFKAIPA@glGetHistogramParameterfvEXT?$AA@ 00000001800585b8     umodsys_lib_libui:umodsys.mod.ui.SDL_GL.obj
 0002:0000c5d8       ??_C@_0BN@PAMLKCF@glGetHistogramParameterivEXT?$AA@ 00000001800585d8     umodsys_lib_libui:umodsys.mod.ui.SDL_GL.obj
 0002:0000c5f8       ??_C@_0P@MHPDBJJK@glGetMinmaxEXT?$AA@ 00000001800585f8     umodsys_lib_libui:umodsys.mod.ui.SDL_GL.obj
 0002:0000c608       ??_C@_0BK@LHKCMDIM@glGetMinmaxParameterfvEXT?$AA@ 0000000180058608     umodsys_lib_libui:umodsys.mod.ui.SDL_GL.obj
 0002:0000c628       ??_C@_0BK@EGPEHBFJ@glGetMinmaxParameterivEXT?$AA@ 0000000180058628     umodsys_lib_libui:umodsys.mod.ui.SDL_GL.obj
 0002:0000c648       ??_C@_0P@NJHKLCL@glHistogramEXT?$AA@ 0000000180058648     umodsys_lib_libui:umodsys.mod.ui.SDL_GL.obj
 0002:0000c658       ??_C@_0M@CMBCKEAN@glMinmaxEXT?$AA@ 0000000180058658     umodsys_lib_libui:umodsys.mod.ui.SDL_GL.obj
 0002:0000c668       ??_C@_0BE@INOGIHMN@glResetHistogramEXT?$AA@ 0000000180058668     umodsys_lib_libui:umodsys.mod.ui.SDL_GL.obj
 0002:0000c680       ??_C@_0BB@ICGNPJGJ@glResetMinmaxEXT?$AA@ 0000000180058680     umodsys_lib_libui:umodsys.mod.ui.SDL_GL.obj
 0002:0000c698       ??_C@_0BC@DODOKKOA@GL_EXT_index_func?$AA@ 0000000180058698     umodsys_lib_libui:umodsys.mod.ui.SDL_GL.obj
 0002:0000c6b0       ??_C@_0P@JNIENPPF@glIndexFuncEXT?$AA@ 00000001800586b0     umodsys_lib_libui:umodsys.mod.ui.SDL_GL.obj
 0002:0000c6c0       ??_C@_0BG@KIAGJAFD@GL_EXT_index_material?$AA@ 00000001800586c0     umodsys_lib_libui:umodsys.mod.ui.SDL_GL.obj
 0002:0000c6d8       ??_C@_0BD@FDMMOKEF@glIndexMaterialEXT?$AA@ 00000001800586d8     umodsys_lib_libui:umodsys.mod.ui.SDL_GL.obj
 0002:0000c6f0       ??_C@_0BI@KPDGBABF@GL_EXT_instanced_arrays?$AA@ 00000001800586f0     umodsys_lib_libui:umodsys.mod.ui.SDL_GL.obj
 0002:0000c708       ??_C@_0BJ@EGCHCMIN@glDrawArraysInstancedEXT?$AA@ 0000000180058708     umodsys_lib_libui:umodsys.mod.ui.SDL_GL.obj
 0002:0000c728       ??_C@_0BL@CPGJMID@glDrawElementsInstancedEXT?$AA@ 0000000180058728     umodsys_lib_libui:umodsys.mod.ui.SDL_GL.obj
 0002:0000c748       ??_C@_0BJ@DNDEEHPM@glVertexAttribDivisorEXT?$AA@ 0000000180058748     umodsys_lib_libui:umodsys.mod.ui.SDL_GL.obj
 0002:0000c768       ??_C@_0BF@COJMPNOE@GL_EXT_light_texture?$AA@ 0000000180058768     umodsys_lib_libui:umodsys.mod.ui.SDL_GL.obj
 0002:0000c780       ??_C@_0BC@BMGBGAIC@glApplyTextureEXT?$AA@ 0000000180058780     umodsys_lib_libui:umodsys.mod.ui.SDL_GL.obj
 0002:0000c798       ??_C@_0BC@NKGLGGFG@glTextureLightEXT?$AA@ 0000000180058798     umodsys_lib_libui:umodsys.mod.ui.SDL_GL.obj
 0002:0000c7b0       ??_C@_0BF@PBKCOGKF@glTextureMaterialEXT?$AA@ 00000001800587b0     umodsys_lib_libui:umodsys.mod.ui.SDL_GL.obj
 0002:0000c7c8       ??_C@_0BI@GDICDALD@GL_EXT_map_buffer_range?$AA@ 00000001800587c8     umodsys_lib_libui:umodsys.mod.ui.SDL_GL.obj
 0002:0000c7e0       ??_C@_0BM@MKNCFBOJ@glFlushMappedBufferRangeEXT?$AA@ 00000001800587e0     umodsys_lib_libui:umodsys.mod.ui.SDL_GL.obj
 0002:0000c800       ??_C@_0BE@KOCGOKON@glMapBufferRangeEXT?$AA@ 0000000180058800     umodsys_lib_libui:umodsys.mod.ui.SDL_GL.obj
 0002:0000c818       ??_C@_0BJ@BEDGNCEH@GL_EXT_multi_draw_arrays?$AA@ 0000000180058818     umodsys_lib_libui:umodsys.mod.ui.SDL_GL.obj
 0002:0000c838       ??_C@_0BF@MOHHALAE@glMultiDrawArraysEXT?$AA@ 0000000180058838     umodsys_lib_libui:umodsys.mod.ui.SDL_GL.obj
 0002:0000c850       ??_C@_0BH@CPIJKLBJ@glMultiDrawElementsEXT?$AA@ 0000000180058850     umodsys_lib_libui:umodsys.mod.ui.SDL_GL.obj
 0002:0000c868       ??_C@_0BD@NAAAMEDB@GL_EXT_multisample?$AA@ 0000000180058868     umodsys_lib_libui:umodsys.mod.ui.SDL_GL.obj
 0002:0000c880       ??_C@_0BA@CBHHDJML@glSampleMaskEXT?$AA@ 0000000180058880     umodsys_lib_libui:umodsys.mod.ui.SDL_GL.obj
 0002:0000c890       ??_C@_0BD@GLCOCHJL@glSamplePatternEXT?$AA@ 0000000180058890     umodsys_lib_libui:umodsys.mod.ui.SDL_GL.obj
 0002:0000c8a8       ??_C@_0CG@NJOILHFI@GL_EXT_multisampled_render_to_te@ 00000001800588a8     umodsys_lib_libui:umodsys.mod.ui.SDL_GL.obj
 0002:0000c8d0       ??_C@_0CF@CPGMNF@glFramebufferTexture2DMultisampl@ 00000001800588d0     umodsys_lib_libui:umodsys.mod.ui.SDL_GL.obj
 0002:0000c8f8       ??_C@_0CE@IGIMMIPN@glRenderbufferStorageMultisample@ 00000001800588f8     umodsys_lib_libui:umodsys.mod.ui.SDL_GL.obj
 0002:0000c920       ??_C@_0BO@CFPPKLNC@GL_EXT_multiview_draw_buffers?$AA@ 0000000180058920     umodsys_lib_libui:umodsys.mod.ui.SDL_GL.obj
 0002:0000c940       ??_C@_0BI@DENHBPGD@glDrawBuffersIndexedEXT?$AA@ 0000000180058940     umodsys_lib_libui:umodsys.mod.ui.SDL_GL.obj
 0002:0000c958       ??_C@_0BD@BOMCJKNB@glGetIntegeri_vEXT?$AA@ 0000000180058958     umodsys_lib_libui:umodsys.mod.ui.SDL_GL.obj
 0002:0000c970       ??_C@_0BH@LHJKGCNM@glReadBufferIndexedEXT?$AA@ 0000000180058970     umodsys_lib_libui:umodsys.mod.ui.SDL_GL.obj
 0002:0000c988       ??_C@_0BI@OJEGBCEK@GL_EXT_paletted_texture?$AA@ 0000000180058988     umodsys_lib_libui:umodsys.mod.ui.SDL_GL.obj
 0002:0000c9a0       ??_C@_0BA@MJCEHDBE@glColorTableEXT?$AA@ 00000001800589a0     umodsys_lib_libui:umodsys.mod.ui.SDL_GL.obj
 0002:0000c9b0       ??_C@_0BD@FEIIDOBH@glGetColorTableEXT?$AA@ 00000001800589b0     umodsys_lib_libui:umodsys.mod.ui.SDL_GL.obj
 0002:0000c9c8       ??_C@_0BO@HFKPENKH@glGetColorTableParameterfvEXT?$AA@ 00000001800589c8     umodsys_lib_libui:umodsys.mod.ui.SDL_GL.obj
 0002:0000c9e8       ??_C@_0BO@IEPJPPHC@glGetColorTableParameterivEXT?$AA@ 00000001800589e8     umodsys_lib_libui:umodsys.mod.ui.SDL_GL.obj
 0002:0000ca08       ??_C@_0BH@GFMFFLC@GL_EXT_pixel_transform?$AA@ 0000000180058a08     umodsys_lib_libui:umodsys.mod.ui.SDL_GL.obj
 0002:0000ca20       ??_C@_0CC@PADIMNCH@glGetPixelTransformParameterfvEX@ 0000000180058a20     umodsys_lib_libui:umodsys.mod.ui.SDL_GL.obj
 0002:0000ca48       ??_C@_0CC@BGOHPPC@glGetPixelTransformParameterivEX@ 0000000180058a48     umodsys_lib_libui:umodsys.mod.ui.SDL_GL.obj
 0002:0000ca70       ??_C@_0BO@OIDCEPNJ@glPixelTransformParameterfEXT?$AA@ 0000000180058a70     umodsys_lib_libui:umodsys.mod.ui.SDL_GL.obj
 0002:0000ca90       ??_C@_0BP@GMNIHEBP@glPixelTransformParameterfvEXT?$AA@ 0000000180058a90     umodsys_lib_libui:umodsys.mod.ui.SDL_GL.obj
 0002:0000cab0       ??_C@_0BO@GKGCNIAI@glPixelTransformParameteriEXT?$AA@ 0000000180058ab0     umodsys_lib_libui:umodsys.mod.ui.SDL_GL.obj
 0002:0000cad0       ??_C@_0BP@JNIOMGMK@glPixelTransformParameterivEXT?$AA@ 0000000180058ad0     umodsys_lib_libui:umodsys.mod.ui.SDL_GL.obj
 0002:0000caf0       ??_C@_0BI@GCJDFKGN@GL_EXT_point_parameters?$AA@ 0000000180058af0     umodsys_lib_libui:umodsys.mod.ui.SDL_GL.obj
 0002:0000cb08       ??_C@_0BF@KOFPPNHP@glPointParameterfEXT?$AA@ 0000000180058b08     umodsys_lib_libui:umodsys.mod.ui.SDL_GL.obj
 0002:0000cb20       ??_C@_0BG@FDCLBPHA@glPointParameterfvEXT?$AA@ 0000000180058b20     umodsys_lib_libui:umodsys.mod.ui.SDL_GL.obj
 0002:0000cb38       ??_C@_0BG@GEKEEJAM@GL_EXT_polygon_offset?$AA@ 0000000180058b38     umodsys_lib_libui:umodsys.mod.ui.SDL_GL.obj
 0002:0000cb50       ??_C@_0BD@KFMIOCPC@glPolygonOffsetEXT?$AA@ 0000000180058b50     umodsys_lib_libui:umodsys.mod.ui.SDL_GL.obj
 0002:0000cb68       ??_C@_0BI@BEAPECOC@GL_EXT_provoking_vertex?$AA@ 0000000180058b68     umodsys_lib_libui:umodsys.mod.ui.SDL_GL.obj
 0002:0000cb80       ??_C@_0BF@NCFNHLBM@glProvokingVertexEXT?$AA@ 0000000180058b80     umodsys_lib_libui:umodsys.mod.ui.SDL_GL.obj
 0002:0000cb98       ??_C@_0BC@CLDFFND@GL_EXT_robustness?$AA@ 0000000180058b98     umodsys_lib_libui:umodsys.mod.ui.SDL_GL.obj
 0002:0000cbb0       ??_C@_0BM@ONPEFKGN@glGetGraphicsResetStatusEXT?$AA@ 0000000180058bb0     umodsys_lib_libui:umodsys.mod.ui.SDL_GL.obj
 0002:0000cbd0       ??_C@_0BD@BHDIBOMJ@glGetnUniformfvEXT?$AA@ 0000000180058bd0     umodsys_lib_libui:umodsys.mod.ui.SDL_GL.obj
 0002:0000cbe8       ??_C@_0BD@OGGOKMBM@glGetnUniformivEXT?$AA@ 0000000180058be8     umodsys_lib_libui:umodsys.mod.ui.SDL_GL.obj
 0002:0000cc00       ??_C@_0BB@BBOPGEIE@glReadnPixelsEXT?$AA@ 0000000180058c00     umodsys_lib_libui:umodsys.mod.ui.SDL_GL.obj
 0002:0000cc18       ??_C@_0BH@DLNOEEKJ@GL_EXT_secondary_color?$AA@ 0000000180058c18     umodsys_lib_libui:umodsys.mod.ui.SDL_GL.obj
 0002:0000cc30       ??_C@_0BG@MGNMPMLP@glSecondaryColor3bEXT?$AA@ 0000000180058c30     umodsys_lib_libui:umodsys.mod.ui.SDL_GL.obj
 0002:0000cc48       ??_C@_0BH@MICHFOMB@glSecondaryColor3bvEXT?$AA@ 0000000180058c48     umodsys_lib_libui:umodsys.mod.ui.SDL_GL.obj
 0002:0000cc60       ??_C@_0BG@EJJMAJBP@glSecondaryColor3dEXT?$AA@ 0000000180058c60     umodsys_lib_libui:umodsys.mod.ui.SDL_GL.obj
 0002:0000cc78       ??_C@_0BH@BOHOLNNM@glSecondaryColor3dvEXT?$AA@ 0000000180058c78     umodsys_lib_libui:umodsys.mod.ui.SDL_GL.obj
 0002:0000cc90       ??_C@_0BG@DDFMFKHP@glSecondaryColor3fEXT?$AA@ 0000000180058c90     umodsys_lib_libui:umodsys.mod.ui.SDL_GL.obj
 0002:0000cca8       ??_C@_0BH@FDLGBMNH@glSecondaryColor3fvEXT?$AA@ 0000000180058ca8     umodsys_lib_libui:umodsys.mod.ui.SDL_GL.obj
 0002:0000ccc0       ??_C@_0BG@LBAMMNKO@glSecondaryColor3iEXT?$AA@ 0000000180058cc0     umodsys_lib_libui:umodsys.mod.ui.SDL_GL.obj
 0002:0000ccd8       ??_C@_0BH@KCOAKOAC@glSecondaryColor3ivEXT?$AA@ 0000000180058cd8     umodsys_lib_libui:umodsys.mod.ui.SDL_GL.obj
 0002:0000ccf0       ??_C@_0BG@JLFMECIN@glSecondaryColor3sEXT?$AA@ 0000000180058cf0     umodsys_lib_libui:umodsys.mod.ui.SDL_GL.obj
 0002:0000cd08       ??_C@_0BH@KNIPPP@glSecondaryColor3svEXT?$AA@ 0000000180058d08     umodsys_lib_libui:umodsys.mod.ui.SDL_GL.obj
 0002:0000cd20       ??_C@_0BH@EDJEFNKA@glSecondaryColor3ubEXT?$AA@ 0000000180058d20     umodsys_lib_libui:umodsys.mod.ui.SDL_GL.obj
 0002:0000cd38       ??_C@_0BI@EFKKBLJF@glSecondaryColor3ubvEXT?$AA@ 0000000180058d38     umodsys_lib_libui:umodsys.mod.ui.SDL_GL.obj
 0002:0000cd50       ??_C@_0BH@DEEEGMLB@glSecondaryColor3uiEXT?$AA@ 0000000180058d50     umodsys_lib_libui:umodsys.mod.ui.SDL_GL.obj
 0002:0000cd68       ??_C@_0BI@CPGNOLFG@glSecondaryColor3uivEXT?$AA@ 0000000180058d68     umodsys_lib_libui:umodsys.mod.ui.SDL_GL.obj
 0002:0000cd80       ??_C@_0BH@BOBEODJC@glSecondaryColor3usEXT?$AA@ 0000000180058d80     umodsys_lib_libui:umodsys.mod.ui.SDL_GL.obj
 0002:0000cd98       ??_C@_0BI@INCAMKKL@glSecondaryColor3usvEXT?$AA@ 0000000180058d98     umodsys_lib_libui:umodsys.mod.ui.SDL_GL.obj
 0002:0000cdb0       ??_C@_0BL@FIJPIBAP@glSecondaryColorPointerEXT?$AA@ 0000000180058db0     umodsys_lib_libui:umodsys.mod.ui.SDL_GL.obj
 0002:0000cdd0       ??_C@_0BP@KOANOKOE@GL_EXT_separate_shader_objects?$AA@ 0000000180058dd0     umodsys_lib_libui:umodsys.mod.ui.SDL_GL.obj
 0002:0000cdf0       ??_C@_0BD@CLOMPIJI@glActiveProgramEXT?$AA@ 0000000180058df0     umodsys_lib_libui:umodsys.mod.ui.SDL_GL.obj
 0002:0000ce08       ??_C@_0BJ@KCKCCCKM@glActiveShaderProgramEXT?$AA@ 0000000180058e08     umodsys_lib_libui:umodsys.mod.ui.SDL_GL.obj
 0002:0000ce28       ??_C@_0BJ@GNNOGINB@glBindProgramPipelineEXT?$AA@ 0000000180058e28     umodsys_lib_libui:umodsys.mod.ui.SDL_GL.obj
 0002:0000ce48       ??_C@_0BJ@MMLKJOPF@glCreateShaderProgramEXT?$AA@ 0000000180058e48     umodsys_lib_libui:umodsys.mod.ui.SDL_GL.obj
 0002:0000ce68       ??_C@_0BK@FOCEJACN@glCreateShaderProgramvEXT?$AA@ 0000000180058e68     umodsys_lib_libui:umodsys.mod.ui.SDL_GL.obj
 0002:0000ce88       ??_C@_0BM@KOIFALOM@glDeleteProgramPipelinesEXT?$AA@ 0000000180058e88     umodsys_lib_libui:umodsys.mod.ui.SDL_GL.obj
 0002:0000cea8       ??_C@_0BJ@FEBCIIIM@glGenProgramPipelinesEXT?$AA@ 0000000180058ea8     umodsys_lib_libui:umodsys.mod.ui.SDL_GL.obj
 0002:0000cec8       ??_C@_0BP@DKCKIEIJ@glGetProgramPipelineInfoLogEXT?$AA@ 0000000180058ec8     umodsys_lib_libui:umodsys.mod.ui.SDL_GL.obj
 0002:0000cee8       ??_C@_0BK@OLMMHFJP@glGetProgramPipelineivEXT?$AA@ 0000000180058ee8     umodsys_lib_libui:umodsys.mod.ui.SDL_GL.obj
 0002:0000cf08       ??_C@_0BH@HNANNDJA@glIsProgramPipelineEXT?$AA@ 0000000180058f08     umodsys_lib_libui:umodsys.mod.ui.SDL_GL.obj
 0002:0000cf20       ??_C@_0BH@PKNCEEOM@glProgramParameteriEXT?$AA@ 0000000180058f20     umodsys_lib_libui:umodsys.mod.ui.SDL_GL.obj
 0002:0000cf38       ??_C@_0BG@EGEMDMDF@glUseProgramStagesEXT?$AA@ 0000000180058f38     umodsys_lib_libui:umodsys.mod.ui.SDL_GL.obj
 0002:0000cf50       ??_C@_0BG@POJOCCGB@glUseShaderProgramEXT?$AA@ 0000000180058f50     umodsys_lib_libui:umodsys.mod.ui.SDL_GL.obj
 0002:0000cf68       ??_C@_0BN@CJEKPLHI@glValidateProgramPipelineEXT?$AA@ 0000000180058f68     umodsys_lib_libui:umodsys.mod.ui.SDL_GL.obj
 0002:0000cf88       ??_C@_0BP@BLBIDGOK@GL_EXT_shader_image_load_store?$AA@ 0000000180058f88     umodsys_lib_libui:umodsys.mod.ui.SDL_GL.obj
 0002:0000cfa8       ??_C@_0BG@CKIKMCEP@glBindImageTextureEXT?$AA@ 0000000180058fa8     umodsys_lib_libui:umodsys.mod.ui.SDL_GL.obj
 0002:0000cfc0       ??_C@_0BD@KBDDKHKJ@glMemoryBarrierEXT?$AA@ 0000000180058fc0     umodsys_lib_libui:umodsys.mod.ui.SDL_GL.obj
 0002:0000cfd8       ??_C@_0BJ@DIMHMNPE@GL_EXT_stencil_clear_tag?$AA@ 0000000180058fd8     umodsys_lib_libui:umodsys.mod.ui.SDL_GL.obj
 0002:0000cff8       ??_C@_0BF@KMNAKPFO@glStencilClearTagEXT?$AA@ 0000000180058ff8     umodsys_lib_libui:umodsys.mod.ui.SDL_GL.obj
 0002:0000d010       ??_C@_0BI@CPMDBHLG@GL_EXT_stencil_two_side?$AA@ 0000000180059010     umodsys_lib_libui:umodsys.mod.ui.SDL_GL.obj
 0002:0000d028       ??_C@_0BH@FDKCPLFK@glActiveStencilFaceEXT?$AA@ 0000000180059028     umodsys_lib_libui:umodsys.mod.ui.SDL_GL.obj
 0002:0000d040       ??_C@_0BC@CLMEPFHP@GL_EXT_subtexture?$AA@ 0000000180059040     umodsys_lib_libui:umodsys.mod.ui.SDL_GL.obj
 0002:0000d058       ??_C@_0BD@MHDOEKHM@glTexSubImage1DEXT?$AA@ 0000000180059058     umodsys_lib_libui:umodsys.mod.ui.SDL_GL.obj
 0002:0000d070       ??_C@_0BD@EBKKDINC@glTexSubImage2DEXT?$AA@ 0000000180059070     umodsys_lib_libui:umodsys.mod.ui.SDL_GL.obj
 0002:0000d088       ??_C@_0BB@LCNIEGEB@GL_EXT_texture3D?$AA@ 0000000180059088     umodsys_lib_libui:umodsys.mod.ui.SDL_GL.obj
 0002:0000d0a0       ??_C@_0BA@CBIBMEOO@glTexImage3DEXT?$AA@ 00000001800590a0     umodsys_lib_libui:umodsys.mod.ui.SDL_GL.obj
 0002:0000d0b0       ??_C@_0BD@IKPGOLHH@glTexSubImage3DEXT?$AA@ 00000001800590b0     umodsys_lib_libui:umodsys.mod.ui.SDL_GL.obj
 0002:0000d0c8       ??_C@_0BN@NGDAHMPO@GL_EXT_texture_buffer_object?$AA@ 00000001800590c8     umodsys_lib_libui:umodsys.mod.ui.SDL_GL.obj
 0002:0000d0e8       ??_C@_0P@HPBILOFJ@glTexBufferEXT?$AA@ 00000001800590e8     umodsys_lib_libui:umodsys.mod.ui.SDL_GL.obj
 0002:0000d0f8       ??_C@_0BH@BKFJHEI@GL_EXT_texture_integer?$AA@ 00000001800590f8     umodsys_lib_libui:umodsys.mod.ui.SDL_GL.obj
 0002:0000d110       ??_C@_0BC@GAABLOFL@glClearColorIiEXT?$AA@ 0000000180059110     umodsys_lib_libui:umodsys.mod.ui.SDL_GL.obj
 0002:0000d128       ??_C@_0BD@PJECGHFB@glClearColorIuiEXT?$AA@ 0000000180059128     umodsys_lib_libui:umodsys.mod.ui.SDL_GL.obj
 0002:0000d140       ??_C@_0BI@KHAOHHCO@glGetTexParameterIivEXT?$AA@ 0000000180059140     umodsys_lib_libui:umodsys.mod.ui.SDL_GL.obj
 0002:0000d158       ??_C@_0BJ@BNLAGJGM@glGetTexParameterIuivEXT?$AA@ 0000000180059158     umodsys_lib_libui:umodsys.mod.ui.SDL_GL.obj
 0002:0000d178       ??_C@_0BF@JNFNNNEN@glTexParameterIivEXT?$AA@ 0000000180059178     umodsys_lib_libui:umodsys.mod.ui.SDL_GL.obj
 0002:0000d190       ??_C@_0BG@MJDBAKCE@glTexParameterIuivEXT?$AA@ 0000000180059190     umodsys_lib_libui:umodsys.mod.ui.SDL_GL.obj
 0002:0000d1a8       ??_C@_0BG@FPPPAJDP@GL_EXT_texture_object?$AA@ 00000001800591a8     umodsys_lib_libui:umodsys.mod.ui.SDL_GL.obj
 0002:0000d1c0       ??_C@_0BJ@LJBONNCK@glAreTexturesResidentEXT?$AA@ 00000001800591c0     umodsys_lib_libui:umodsys.mod.ui.SDL_GL.obj
 0002:0000d1e0       ??_C@_0BB@EBKBDLEN@glBindTextureEXT?$AA@ 00000001800591e0     umodsys_lib_libui:umodsys.mod.ui.SDL_GL.obj
 0002:0000d1f8       ??_C@_0BE@LDBFENJM@glDeleteTexturesEXT?$AA@ 00000001800591f8     umodsys_lib_libui:umodsys.mod.ui.SDL_GL.obj
 0002:0000d210       ??_C@_0BB@GJAECBGO@glGenTexturesEXT?$AA@ 0000000180059210     umodsys_lib_libui:umodsys.mod.ui.SDL_GL.obj
 0002:0000d228       ??_C@_0P@BLOFBLLL@glIsTextureEXT?$AA@ 0000000180059228     umodsys_lib_libui:umodsys.mod.ui.SDL_GL.obj
 0002:0000d238       ??_C@_0BI@BHBMGKCN@glPrioritizeTexturesEXT?$AA@ 0000000180059238     umodsys_lib_libui:umodsys.mod.ui.SDL_GL.obj
 0002:0000d250       ??_C@_0BO@MGIKHAJP@GL_EXT_texture_perturb_normal?$AA@ 0000000180059250     umodsys_lib_libui:umodsys.mod.ui.SDL_GL.obj
 0002:0000d270       ??_C@_0BD@HJCKBGND@glTextureNormalEXT?$AA@ 0000000180059270     umodsys_lib_libui:umodsys.mod.ui.SDL_GL.obj
 0002:0000d288       ??_C@_0BH@LHMNMPMF@GL_EXT_texture_storage?$AA@ 0000000180059288     umodsys_lib_libui:umodsys.mod.ui.SDL_GL.obj
 0002:0000d2a0       ??_C@_0BC@FENIPDJP@glTexStorage1DEXT?$AA@ 00000001800592a0     umodsys_lib_libui:umodsys.mod.ui.SDL_GL.obj
 0002:0000d2b8       ??_C@_0BC@NCEMIBDB@glTexStorage2DEXT?$AA@ 00000001800592b8     umodsys_lib_libui:umodsys.mod.ui.SDL_GL.obj
 0002:0000d2d0       ??_C@_0BC@BJBAFCJE@glTexStorage3DEXT?$AA@ 00000001800592d0     umodsys_lib_libui:umodsys.mod.ui.SDL_GL.obj
 0002:0000d2e8       ??_C@_0BK@GKBBHBBG@GL_EXT_transform_feedback?$AA@ 00000001800592e8     umodsys_lib_libui:umodsys.mod.ui.SDL_GL.obj
 0002:0000d308       ??_C@_0BM@BLDJBDM@glBeginTransformFeedbackEXT?$AA@ 0000000180059308     umodsys_lib_libui:umodsys.mod.ui.SDL_GL.obj
 0002:0000d328       ??_C@_0BE@NCJCCMMA@glBindBufferBaseEXT?$AA@ 0000000180059328     umodsys_lib_libui:umodsys.mod.ui.SDL_GL.obj
 0002:0000d340       ??_C@_0BG@PKIAJGM@glBindBufferOffsetEXT?$AA@ 0000000180059340     umodsys_lib_libui:umodsys.mod.ui.SDL_GL.obj
 0002:0000d358       ??_C@_0BF@MIMIIPJK@glBindBufferRangeEXT?$AA@ 0000000180059358     umodsys_lib_libui:umodsys.mod.ui.SDL_GL.obj
 0002:0000d370       ??_C@_0BK@MBPEMJDO@glEndTransformFeedbackEXT?$AA@ 0000000180059370     umodsys_lib_libui:umodsys.mod.ui.SDL_GL.obj
 0002:0000d390       ??_C@_0CB@KMFIHAIP@glGetTransformFeedbackVaryingEXT@ 0000000180059390     umodsys_lib_libui:umodsys.mod.ui.SDL_GL.obj
 0002:0000d3b8       ??_C@_0BP@LKJENMKJ@glTransformFeedbackVaryingsEXT?$AA@ 00000001800593b8     umodsys_lib_libui:umodsys.mod.ui.SDL_GL.obj
 0002:0000d3d8       ??_C@_0BE@PFGKPDCP@GL_EXT_vertex_array?$AA@ 00000001800593d8     umodsys_lib_libui:umodsys.mod.ui.SDL_GL.obj
 0002:0000d3f0       ??_C@_0BC@PBPJCKDL@glArrayElementEXT?$AA@ 00000001800593f0     umodsys_lib_libui:umodsys.mod.ui.SDL_GL.obj
 0002:0000d408       ??_C@_0BC@JAGLJGCN@glColorPointerEXT?$AA@ 0000000180059408     umodsys_lib_libui:umodsys.mod.ui.SDL_GL.obj
 0002:0000d420       ??_C@_0BA@NIBACEFN@glDrawArraysEXT?$AA@ 0000000180059420     umodsys_lib_libui:umodsys.mod.ui.SDL_GL.obj
 0002:0000d430       ??_C@_0BF@LIECLKLC@glEdgeFlagPointerEXT?$AA@ 0000000180059430     umodsys_lib_libui:umodsys.mod.ui.SDL_GL.obj
 0002:0000d448       ??_C@_0BB@EPJHLPNN@glGetPointervEXT?$AA@ 0000000180059448     umodsys_lib_libui:umodsys.mod.ui.SDL_GL.obj
 0002:0000d460       ??_C@_0BC@DOBCGHJI@glIndexPointerEXT?$AA@ 0000000180059460     umodsys_lib_libui:umodsys.mod.ui.SDL_GL.obj
 0002:0000d478       ??_C@_0BD@IBDDMGPJ@glNormalPointerEXT?$AA@ 0000000180059478     umodsys_lib_libui:umodsys.mod.ui.SDL_GL.obj
 0002:0000d490       ??_C@_0BF@PKEIBLPO@glTexCoordPointerEXT?$AA@ 0000000180059490     umodsys_lib_libui:umodsys.mod.ui.SDL_GL.obj
 0002:0000d4a8       ??_C@_0BD@IDICNFAP@glVertexPointerEXT?$AA@ 00000001800594a8     umodsys_lib_libui:umodsys.mod.ui.SDL_GL.obj
 0002:0000d4c0       ??_C@_0BL@PDLDALDJ@GL_EXT_vertex_attrib_64bit?$AA@ 00000001800594c0     umodsys_lib_libui:umodsys.mod.ui.SDL_GL.obj
 0002:0000d4e0       ??_C@_0BI@EOFDCPBG@glGetVertexAttribLdvEXT?$AA@ 00000001800594e0     umodsys_lib_libui:umodsys.mod.ui.SDL_GL.obj
 0002:0000d4f8       ??_C@_0BF@DCGDNIND@glVertexAttribL1dEXT?$AA@ 00000001800594f8     umodsys_lib_libui:umodsys.mod.ui.SDL_GL.obj
 0002:0000d510       ??_C@_0BG@IMNHMMJG@glVertexAttribL1dvEXT?$AA@ 0000000180059510     umodsys_lib_libui:umodsys.mod.ui.SDL_GL.obj
 0002:0000d528       ??_C@_0BF@LEPHKKHN@glVertexAttribL2dEXT?$AA@ 0000000180059528     umodsys_lib_libui:umodsys.mod.ui.SDL_GL.obj
 0002:0000d540       ??_C@_0BG@LNDPNGAL@glVertexAttribL2dvEXT?$AA@ 0000000180059540     umodsys_lib_libui:umodsys.mod.ui.SDL_GL.obj
 0002:0000d558       ??_C@_0BF@HPKLHJNI@glVertexAttribL3dEXT?$AA@ 0000000180059558     umodsys_lib_libui:umodsys.mod.ui.SDL_GL.obj
 0002:0000d570       ??_C@_0BG@BLEINNLP@glVertexAttribL3dvEXT?$AA@ 0000000180059570     umodsys_lib_libui:umodsys.mod.ui.SDL_GL.obj
 0002:0000d588       ??_C@_0BF@GCKOEJGA@glVertexAttribL4dEXT?$AA@ 0000000180059588     umodsys_lib_libui:umodsys.mod.ui.SDL_GL.obj
 0002:0000d5a0       ??_C@_0BG@NOOPODDB@glVertexAttribL4dvEXT?$AA@ 00000001800595a0     umodsys_lib_libui:umodsys.mod.ui.SDL_GL.obj
 0002:0000d5b8       ??_C@_0BK@MAKNHHDI@glVertexAttribLPointerEXT?$AA@ 00000001800595b8     umodsys_lib_libui:umodsys.mod.ui.SDL_GL.obj
 0002:0000d5d8       ??_C@_0BF@OBIDKHLA@GL_EXT_vertex_shader?$AA@ 00000001800595d8     umodsys_lib_libui:umodsys.mod.ui.SDL_GL.obj
 0002:0000d5f0       ??_C@_0BH@DBHOHHOM@glBeginVertexShaderEXT?$AA@ 00000001800595f0     umodsys_lib_libui:umodsys.mod.ui.SDL_GL.obj
 0002:0000d608       ??_C@_0BI@PBIFACEG@glBindLightParameterEXT?$AA@ 0000000180059608     umodsys_lib_libui:umodsys.mod.ui.SDL_GL.obj
 0002:0000d620       ??_C@_0BL@PJABJA@glBindMaterialParameterEXT?$AA@ 0000000180059620     umodsys_lib_libui:umodsys.mod.ui.SDL_GL.obj
 0002:0000d640       ??_C@_0BD@GMIEHABM@glBindParameterEXT?$AA@ 0000000180059640     umodsys_lib_libui:umodsys.mod.ui.SDL_GL.obj
 0002:0000d658       ??_C@_0BJ@HCMLCIKI@glBindTexGenParameterEXT?$AA@ 0000000180059658     umodsys_lib_libui:umodsys.mod.ui.SDL_GL.obj
 0002:0000d678       ??_C@_0BO@GMKMPNFP@glBindTextureUnitParameterEXT?$AA@ 0000000180059678     umodsys_lib_libui:umodsys.mod.ui.SDL_GL.obj
 0002:0000d698       ??_C@_0BG@OCJKPIFF@glBindVertexShaderEXT?$AA@ 0000000180059698     umodsys_lib_libui:umodsys.mod.ui.SDL_GL.obj
 0002:0000d6b0       ??_C@_0BI@FECIKLIE@glDeleteVertexShaderEXT?$AA@ 00000001800596b0     umodsys_lib_libui:umodsys.mod.ui.SDL_GL.obj
 0002:0000d6c8       ??_C@_0BP@IBHJIACF@glDisableVariantClientStateEXT?$AA@ 00000001800596c8     umodsys_lib_libui:umodsys.mod.ui.SDL_GL.obj
 0002:0000d6e8       ??_C@_0BO@GCEAPMKD@glEnableVariantClientStateEXT?$AA@ 00000001800596e8     umodsys_lib_libui:umodsys.mod.ui.SDL_GL.obj
 0002:0000d708       ??_C@_0BF@LHBKPFPA@glEndVertexShaderEXT?$AA@ 0000000180059708     umodsys_lib_libui:umodsys.mod.ui.SDL_GL.obj
 0002:0000d720       ??_C@_0BG@IIKDNCFK@glExtractComponentEXT?$AA@ 0000000180059720     umodsys_lib_libui:umodsys.mod.ui.SDL_GL.obj
 0002:0000d738       ??_C@_0BA@FOBGFEBC@glGenSymbolsEXT?$AA@ 0000000180059738     umodsys_lib_libui:umodsys.mod.ui.SDL_GL.obj
 0002:0000d748       ??_C@_0BG@JEGJGDJG@glGenVertexShadersEXT?$AA@ 0000000180059748     umodsys_lib_libui:umodsys.mod.ui.SDL_GL.obj
 0002:0000d760       ??_C@_0BK@EADAIGJC@glGetInvariantBooleanvEXT?$AA@ 0000000180059760     umodsys_lib_libui:umodsys.mod.ui.SDL_GL.obj
 0002:0000d780       ??_C@_0BI@GAJGBOMH@glGetInvariantFloatvEXT?$AA@ 0000000180059780     umodsys_lib_libui:umodsys.mod.ui.SDL_GL.obj
 0002:0000d798       ??_C@_0BK@EBLPNAJG@glGetInvariantIntegervEXT?$AA@ 0000000180059798     umodsys_lib_libui:umodsys.mod.ui.SDL_GL.obj
 0002:0000d7b8       ??_C@_0BO@KMEGCJCE@glGetLocalConstantBooleanvEXT?$AA@ 00000001800597b8     umodsys_lib_libui:umodsys.mod.ui.SDL_GL.obj
 0002:0000d7d8       ??_C@_0BM@OHCLJGJK@glGetLocalConstantFloatvEXT?$AA@ 00000001800597d8     umodsys_lib_libui:umodsys.mod.ui.SDL_GL.obj
 0002:0000d7f8       ??_C@_0BO@KNMJHPCA@glGetLocalConstantIntegervEXT?$AA@ 00000001800597f8     umodsys_lib_libui:umodsys.mod.ui.SDL_GL.obj
 0002:0000d818       ??_C@_0BI@EPPMCFAN@glGetVariantBooleanvEXT?$AA@ 0000000180059818     umodsys_lib_libui:umodsys.mod.ui.SDL_GL.obj
 0002:0000d830       ??_C@_0BG@DGEKMCHD@glGetVariantFloatvEXT?$AA@ 0000000180059830     umodsys_lib_libui:umodsys.mod.ui.SDL_GL.obj
 0002:0000d848       ??_C@_0BI@EOHDHDAJ@glGetVariantIntegervEXT?$AA@ 0000000180059848     umodsys_lib_libui:umodsys.mod.ui.SDL_GL.obj
 0002:0000d860       ??_C@_0BI@LMHNNJOJ@glGetVariantPointervEXT?$AA@ 0000000180059860     umodsys_lib_libui:umodsys.mod.ui.SDL_GL.obj
 0002:0000d878       ??_C@_0BF@IKCGIIKN@glInsertComponentEXT?$AA@ 0000000180059878     umodsys_lib_libui:umodsys.mod.ui.SDL_GL.obj
 0002:0000d890       ??_C@_0BG@CLPIJBFD@glIsVariantEnabledEXT?$AA@ 0000000180059890     umodsys_lib_libui:umodsys.mod.ui.SDL_GL.obj
 0002:0000d8a8       ??_C@_0BC@NKPANFDC@glSetInvariantEXT?$AA@ 00000001800598a8     umodsys_lib_libui:umodsys.mod.ui.SDL_GL.obj
 0002:0000d8c0       ??_C@_0BG@MJJEAAJC@glSetLocalConstantEXT?$AA@ 00000001800598c0     umodsys_lib_libui:umodsys.mod.ui.SDL_GL.obj
 0002:0000d8d8       ??_C@_0P@EJGAIAGI@glShaderOp1EXT?$AA@ 00000001800598d8     umodsys_lib_libui:umodsys.mod.ui.SDL_GL.obj
 0002:0000d8e8       ??_C@_0P@OMAPKLI@glShaderOp2EXT?$AA@ 00000001800598e8     umodsys_lib_libui:umodsys.mod.ui.SDL_GL.obj
 0002:0000d8f8       ??_C@_0P@DDKANDAI@glShaderOp3EXT?$AA@ 00000001800598f8     umodsys_lib_libui:umodsys.mod.ui.SDL_GL.obj
 0002:0000d908       ??_C@_0N@OAIECMLP@glSwizzleEXT?$AA@ 0000000180059908     umodsys_lib_libui:umodsys.mod.ui.SDL_GL.obj
 0002:0000d918       ??_C@_0BE@MLHCODFN@glVariantPointerEXT?$AA@ 0000000180059918     umodsys_lib_libui:umodsys.mod.ui.SDL_GL.obj
 0002:0000d930       ??_C@_0P@HDFNIDJJ@glVariantbvEXT?$AA@ 0000000180059930     umodsys_lib_libui:umodsys.mod.ui.SDL_GL.obj
 0002:0000d940       ??_C@_0P@KFAEGAIE@glVariantdvEXT?$AA@ 0000000180059940     umodsys_lib_libui:umodsys.mod.ui.SDL_GL.obj
 0002:0000d950       ??_C@_0P@OIMMMBIP@glVariantfvEXT?$AA@ 0000000180059950     umodsys_lib_libui:umodsys.mod.ui.SDL_GL.obj
 0002:0000d960       ??_C@_0P@BJJKHDFK@glVariantivEXT?$AA@ 0000000180059960     umodsys_lib_libui:umodsys.mod.ui.SDL_GL.obj
 0002:0000d970       ??_C@_0P@LLNHFCKH@glVariantsvEXT?$AA@ 0000000180059970     umodsys_lib_libui:umodsys.mod.ui.SDL_GL.obj
 0002:0000d980       ??_C@_0BA@CAKBLIIO@glVariantubvEXT?$AA@ 0000000180059980     umodsys_lib_libui:umodsys.mod.ui.SDL_GL.obj
 0002:0000d990       ??_C@_0BA@EKGGEIEN@glVariantuivEXT?$AA@ 0000000180059990     umodsys_lib_libui:umodsys.mod.ui.SDL_GL.obj
 0002:0000d9a0       ??_C@_0BA@OICLGJLA@glVariantusvEXT?$AA@ 00000001800599a0     umodsys_lib_libui:umodsys.mod.ui.SDL_GL.obj
 0002:0000d9b0       ??_C@_0P@MFMDCJBK@glWriteMaskEXT?$AA@ 00000001800599b0     umodsys_lib_libui:umodsys.mod.ui.SDL_GL.obj
 0002:0000d9c0       ??_C@_0BI@FHAFAFPN@GL_EXT_vertex_weighting?$AA@ 00000001800599c0     umodsys_lib_libui:umodsys.mod.ui.SDL_GL.obj
 0002:0000d9d8       ??_C@_0BJ@KPGBLGAC@glVertexWeightPointerEXT?$AA@ 00000001800599d8     umodsys_lib_libui:umodsys.mod.ui.SDL_GL.obj
 0002:0000d9f8       ??_C@_0BD@FPEAFNKI@glVertexWeightfEXT?$AA@ 00000001800599f8     umodsys_lib_libui:umodsys.mod.ui.SDL_GL.obj
 0002:0000da10       ??_C@_0BE@ELGNEHKH@glVertexWeightfvEXT?$AA@ 0000000180059a10     umodsys_lib_libui:umodsys.mod.ui.SDL_GL.obj
 0002:0000da28       ??_C@_0BH@KPBHOHAF@GL_EXT_x11_sync_object?$AA@ 0000000180059a28     umodsys_lib_libui:umodsys.mod.ui.SDL_GL.obj
 0002:0000da40       ??_C@_0BA@JABFPGIF@glImportSyncEXT?$AA@ 0000000180059a40     umodsys_lib_libui:umodsys.mod.ui.SDL_GL.obj
 0002:0000da50       ??_C@_0CN@NOMCOKIC@Loaded?5?$CFd?1?$CFd?5functions?5from?5?$CFd?1?$CF@ 0000000180059a50     umodsys_lib_libui:umodsys.mod.ui.SDL_GL.obj
 0002:0000da80       ??_C@_0BB@ELFKBBCM@GL_VERSION_?$CFd_?$CFd?$AA@ 0000000180059a80     umodsys_lib_libui:umodsys.mod.ui.SDL_GL.obj
 0002:0000da94       ??_C@_05KBEOJPB@?$CFd?4?$CFd?$AA@ 0000000180059a94     umodsys_lib_libui:umodsys.mod.ui.SDL_GL.obj
 0002:0000daa0       ??_C@_07LNIJJMEN@glAccum?$AA@ 0000000180059aa0     umodsys_lib_libui:umodsys.mod.ui.SDL_GL.obj
 0002:0000daa8       ??_C@_0M@BJGLMKCC@glAlphaFunc?$AA@ 0000000180059aa8     umodsys_lib_libui:umodsys.mod.ui.SDL_GL.obj
 0002:0000dab8       ??_C@_07FCOIFMD@glBegin?$AA@ 0000000180059ab8     umodsys_lib_libui:umodsys.mod.ui.SDL_GL.obj
 0002:0000dac0       ??_C@_08PJOLDJDK@glBitmap?$AA@ 0000000180059ac0     umodsys_lib_libui:umodsys.mod.ui.SDL_GL.obj
 0002:0000dad0       ??_C@_0L@CIPLDIDL@glCallList?$AA@ 0000000180059ad0     umodsys_lib_libui:umodsys.mod.ui.SDL_GL.obj
 0002:0000dae0       ??_C@_0M@LFDBDICJ@glCallLists?$AA@ 0000000180059ae0     umodsys_lib_libui:umodsys.mod.ui.SDL_GL.obj
 0002:0000daf0       ??_C@_0N@OKAMEJMG@glClearAccum?$AA@ 0000000180059af0     umodsys_lib_libui:umodsys.mod.ui.SDL_GL.obj
 0002:0000db00       ??_C@_0N@EIILHCMH@glClearIndex?$AA@ 0000000180059b00     umodsys_lib_libui:umodsys.mod.ui.SDL_GL.obj
 0002:0000db10       ??_C@_0M@OHCNGGFF@glClipPlane?$AA@ 0000000180059b10     umodsys_lib_libui:umodsys.mod.ui.SDL_GL.obj
 0002:0000db20       ??_C@_09JLHBBGHE@glColor3b?$AA@ 0000000180059b20     umodsys_lib_libui:umodsys.mod.ui.SDL_GL.obj
 0002:0000db30       ??_C@_0L@COJGBKED@glColor3bv?$AA@ 0000000180059b30     umodsys_lib_libui:umodsys.mod.ui.SDL_GL.obj
 0002:0000db40       ??_C@_09MNCLLBPC@glColor3d?$AA@ 0000000180059b40     umodsys_lib_libui:umodsys.mod.ui.SDL_GL.obj
 0002:0000db50       ??_C@_0L@CKBLGGPB@glColor3dv?$AA@ 0000000180059b50     umodsys_lib_libui:umodsys.mod.ui.SDL_GL.obj
 0002:0000db60       ??_C@_09PPBNNDHA@glColor3f?$AA@ 0000000180059b60     umodsys_lib_libui:umodsys.mod.ui.SDL_GL.obj
 0002:0000db70       ??_C@_0L@CJJPLCJP@glColor3fv?$AA@ 0000000180059b70     umodsys_lib_libui:umodsys.mod.ui.SDL_GL.obj
 0002:0000db80       ??_C@_09HIIFMPLP@glColor3i?$AA@ 0000000180059b80     umodsys_lib_libui:umodsys.mod.ui.SDL_GL.obj
 0002:0000db90       ??_C@_0L@CCMDPFKC@glColor3iv?$AA@ 0000000180059b90     umodsys_lib_libui:umodsys.mod.ui.SDL_GL.obj
 0002:0000dba0       ??_C@_09MIKIDFGE@glColor3s?$AA@ 0000000180059ba0     umodsys_lib_libui:umodsys.mod.ui.SDL_GL.obj
 0002:0000dbb0       ??_C@_0L@DDHCNDAE@glColor3sv?$AA@ 0000000180059bb0     umodsys_lib_libui:umodsys.mod.ui.SDL_GL.obj
 0002:0000dbc0       ??_C@_0L@BJFBHIOD@glColor3ub?$AA@ 0000000180059bc0     umodsys_lib_libui:umodsys.mod.ui.SDL_GL.obj
 0002:0000dbd0       ??_C@_0M@EAHPDMMK@glColor3ubv?$AA@ 0000000180059bd0     umodsys_lib_libui:umodsys.mod.ui.SDL_GL.obj
 0002:0000dbe0       ??_C@_0L@PKKFKBCI@glColor3ui?$AA@ 0000000180059be0     umodsys_lib_libui:umodsys.mod.ui.SDL_GL.obj
 0002:0000dbf0       ??_C@_0M@EMCKNDCL@glColor3uiv?$AA@ 0000000180059bf0     umodsys_lib_libui:umodsys.mod.ui.SDL_GL.obj
 0002:0000dc00       ??_C@_0L@EKIIFLPD@glColor3us?$AA@ 0000000180059c00     umodsys_lib_libui:umodsys.mod.ui.SDL_GL.obj
 0002:0000dc10       ??_C@_0M@FNJLPFIN@glColor3usv?$AA@ 0000000180059c10     umodsys_lib_libui:umodsys.mod.ui.SDL_GL.obj
 0002:0000dc20       ??_C@_09JODOAAPB@glColor4b?$AA@ 0000000180059c20     umodsys_lib_libui:umodsys.mod.ui.SDL_GL.obj
 0002:0000dc30       ??_C@_0L@LDEBCCPK@glColor4bv?$AA@ 0000000180059c30     umodsys_lib_libui:umodsys.mod.ui.SDL_GL.obj
 0002:0000dc40       ??_C@_09MIGEKHHH@glColor4d?$AA@ 0000000180059c40     umodsys_lib_libui:umodsys.mod.ui.SDL_GL.obj
 0002:0000dc50       ??_C@_0L@LHMMFOEI@glColor4dv?$AA@ 0000000180059c50     umodsys_lib_libui:umodsys.mod.ui.SDL_GL.obj
 0002:0000dc60       ??_C@_09PKFCMFPF@glColor4f?$AA@ 0000000180059c60     umodsys_lib_libui:umodsys.mod.ui.SDL_GL.obj
 0002:0000dc70       ??_C@_0L@LEEIIKCG@glColor4fv?$AA@ 0000000180059c70     umodsys_lib_libui:umodsys.mod.ui.SDL_GL.obj
 0002:0000dc80       ??_C@_09HNMKNJDK@glColor4i?$AA@ 0000000180059c80     umodsys_lib_libui:umodsys.mod.ui.SDL_GL.obj
 0002:0000dc90       ??_C@_0L@LPBEMNBL@glColor4iv?$AA@ 0000000180059c90     umodsys_lib_libui:umodsys.mod.ui.SDL_GL.obj
 0002:0000dca0       ??_C@_09MNOHCDOB@glColor4s?$AA@ 0000000180059ca0     umodsys_lib_libui:umodsys.mod.ui.SDL_GL.obj
 0002:0000dcb0       ??_C@_0L@KOKFOLLN@glColor4sv?$AA@ 0000000180059cb0     umodsys_lib_libui:umodsys.mod.ui.SDL_GL.obj
 0002:0000dcc0       ??_C@_0L@IEIGEAFK@glColor4ub?$AA@ 0000000180059cc0     umodsys_lib_libui:umodsys.mod.ui.SDL_GL.obj
 0002:0000dcd0       ??_C@_0M@PCFPOANK@glColor4ubv?$AA@ 0000000180059cd0     umodsys_lib_libui:umodsys.mod.ui.SDL_GL.obj
 0002:0000dce0       ??_C@_0L@GHHCJJJB@glColor4ui?$AA@ 0000000180059ce0     umodsys_lib_libui:umodsys.mod.ui.SDL_GL.obj
 0002:0000dcf0       ??_C@_0M@POAKAPDL@glColor4uiv?$AA@ 0000000180059cf0     umodsys_lib_libui:umodsys.mod.ui.SDL_GL.obj
 0002:0000dd00       ??_C@_0L@NHFPGDEK@glColor4us?$AA@ 0000000180059d00     umodsys_lib_libui:umodsys.mod.ui.SDL_GL.obj
 0002:0000dd10       ??_C@_0M@OPLLCJJN@glColor4usv?$AA@ 0000000180059d10     umodsys_lib_libui:umodsys.mod.ui.SDL_GL.obj
 0002:0000dd20       ??_C@_0BA@OOEHEGPC@glColorMaterial?$AA@ 0000000180059d20     umodsys_lib_libui:umodsys.mod.ui.SDL_GL.obj
 0002:0000dd30       ??_C@_0N@OACCOOE@glCopyPixels?$AA@ 0000000180059d30     umodsys_lib_libui:umodsys.mod.ui.SDL_GL.obj
 0002:0000dd40       ??_C@_0O@KPJIJAFM@glDeleteLists?$AA@ 0000000180059d40     umodsys_lib_libui:umodsys.mod.ui.SDL_GL.obj
 0002:0000dd50       ??_C@_0N@FLFIHFDP@glDrawPixels?$AA@ 0000000180059d50     umodsys_lib_libui:umodsys.mod.ui.SDL_GL.obj
 0002:0000dd60       ??_C@_0L@DFCKJEPI@glEdgeFlag?$AA@ 0000000180059d60     umodsys_lib_libui:umodsys.mod.ui.SDL_GL.obj
 0002:0000dd70       ??_C@_0M@MKDGIOMK@glEdgeFlagv?$AA@ 0000000180059d70     umodsys_lib_libui:umodsys.mod.ui.SDL_GL.obj
 0002:0000dd7c       ??_C@_05OIBMBLHE@glEnd?$AA@ 0000000180059d7c     umodsys_lib_libui:umodsys.mod.ui.SDL_GL.obj
 0002:0000dd88       ??_C@_09HKEBCLHH@glEndList?$AA@ 0000000180059d88     umodsys_lib_libui:umodsys.mod.ui.SDL_GL.obj
 0002:0000dd98       ??_C@_0O@FJBIDDKI@glEvalCoord1d?$AA@ 0000000180059d98     umodsys_lib_libui:umodsys.mod.ui.SDL_GL.obj
 0002:0000dda8       ??_C@_0P@KBDBONJJ@glEvalCoord1dv?$AA@ 0000000180059da8     umodsys_lib_libui:umodsys.mod.ui.SDL_GL.obj
 0002:0000ddb8       ??_C@_0O@GLCOFBCK@glEvalCoord1f?$AA@ 0000000180059db8     umodsys_lib_libui:umodsys.mod.ui.SDL_GL.obj
 0002:0000ddc8       ??_C@_0P@KCLFDJPH@glEvalCoord1fv?$AA@ 0000000180059dc8     umodsys_lib_libui:umodsys.mod.ui.SDL_GL.obj
 0002:0000ddd8       ??_C@_0O@FLFOINPB@glEvalCoord2d?$AA@ 0000000180059dd8     umodsys_lib_libui:umodsys.mod.ui.SDL_GL.obj
 0002:0000dde8       ??_C@_0P@LDIEECHH@glEvalCoord2dv?$AA@ 0000000180059de8     umodsys_lib_libui:umodsys.mod.ui.SDL_GL.obj
 0002:0000ddf8       ??_C@_0O@GJGIOPHD@glEvalCoord2f?$AA@ 0000000180059df8     umodsys_lib_libui:umodsys.mod.ui.SDL_GL.obj
 0002:0000de08       ??_C@_0P@LAAAJGBJ@glEvalCoord2fv?$AA@ 0000000180059e08     umodsys_lib_libui:umodsys.mod.ui.SDL_GL.obj
 0002:0000de18       ??_C@_0M@DCFEDLDA@glEvalMesh1?$AA@ 0000000180059e18     umodsys_lib_libui:umodsys.mod.ui.SDL_GL.obj
 0002:0000de28       ??_C@_0M@BJHJGIPD@glEvalMesh2?$AA@ 0000000180059e28     umodsys_lib_libui:umodsys.mod.ui.SDL_GL.obj
 0002:0000de38       ??_C@_0N@DOEOCCJJ@glEvalPoint1?$AA@ 0000000180059e38     umodsys_lib_libui:umodsys.mod.ui.SDL_GL.obj
 0002:0000de48       ??_C@_0N@BFGDHBFK@glEvalPoint2?$AA@ 0000000180059e48     umodsys_lib_libui:umodsys.mod.ui.SDL_GL.obj
 0002:0000de58       ??_C@_0BB@COFAIKCN@glFeedbackBuffer?$AA@ 0000000180059e58     umodsys_lib_libui:umodsys.mod.ui.SDL_GL.obj
 0002:0000de6c       ??_C@_06JJHNMGPD@glFogf?$AA@ 0000000180059e6c     umodsys_lib_libui:umodsys.mod.ui.SDL_GL.obj
 0002:0000de78       ??_C@_07FNEIAABA@glFogfv?$AA@ 0000000180059e78     umodsys_lib_libui:umodsys.mod.ui.SDL_GL.obj
 0002:0000de80       ??_C@_06BOOFNKDM@glFogi?$AA@ 0000000180059e80     umodsys_lib_libui:umodsys.mod.ui.SDL_GL.obj
 0002:0000de88       ??_C@_07FGBEEHCN@glFogiv?$AA@ 0000000180059e88     umodsys_lib_libui:umodsys.mod.ui.SDL_GL.obj
 0002:0000de90       ??_C@_09ICLFHOKP@glFrustum?$AA@ 0000000180059e90     umodsys_lib_libui:umodsys.mod.ui.SDL_GL.obj
 0002:0000dea0       ??_C@_0L@BNOFOEBP@glGenLists?$AA@ 0000000180059ea0     umodsys_lib_libui:umodsys.mod.ui.SDL_GL.obj
 0002:0000deb0       ??_C@_0P@MMMNLMC@glGetClipPlane?$AA@ 0000000180059eb0     umodsys_lib_libui:umodsys.mod.ui.SDL_GL.obj
 0002:0000dec0       ??_C@_0N@MGGMJGKA@glGetLightfv?$AA@ 0000000180059ec0     umodsys_lib_libui:umodsys.mod.ui.SDL_GL.obj
 0002:0000ded0       ??_C@_0N@MNDANBJN@glGetLightiv?$AA@ 0000000180059ed0     umodsys_lib_libui:umodsys.mod.ui.SDL_GL.obj
 0002:0000dee0       ??_C@_0L@FGIDEHCA@glGetMapdv?$AA@ 0000000180059ee0     umodsys_lib_libui:umodsys.mod.ui.SDL_GL.obj
 0002:0000def0       ??_C@_0L@FFAHJDEO@glGetMapfv?$AA@ 0000000180059ef0     umodsys_lib_libui:umodsys.mod.ui.SDL_GL.obj
 0002:0000df00       ??_C@_0L@FOFLNEHD@glGetMapiv?$AA@ 0000000180059f00     umodsys_lib_libui:umodsys.mod.ui.SDL_GL.obj
 0002:0000df10       ??_C@_0BA@GCPPEEDM@glGetMaterialfv?$AA@ 0000000180059f10     umodsys_lib_libui:umodsys.mod.ui.SDL_GL.obj
 0002:0000df20       ??_C@_0BA@GJKDADAB@glGetMaterialiv?$AA@ 0000000180059f20     umodsys_lib_libui:umodsys.mod.ui.SDL_GL.obj
 0002:0000df30       ??_C@_0BA@EDGNDGIE@glGetPixelMapfv?$AA@ 0000000180059f30     umodsys_lib_libui:umodsys.mod.ui.SDL_GL.obj
 0002:0000df40       ??_C@_0BB@MGCFOIED@glGetPixelMapuiv?$AA@ 0000000180059f40     umodsys_lib_libui:umodsys.mod.ui.SDL_GL.obj
 0002:0000df58       ??_C@_0BB@NHJEMOOF@glGetPixelMapusv?$AA@ 0000000180059f58     umodsys_lib_libui:umodsys.mod.ui.SDL_GL.obj
 0002:0000df70       ??_C@_0BE@PBJHLEJI@glGetPolygonStipple?$AA@ 0000000180059f70     umodsys_lib_libui:umodsys.mod.ui.SDL_GL.obj
 0002:0000df88       ??_C@_0O@KDAJGFCL@glGetTexEnvfv?$AA@ 0000000180059f88     umodsys_lib_libui:umodsys.mod.ui.SDL_GL.obj
 0002:0000df98       ??_C@_0O@KIFFCCBG@glGetTexEnviv?$AA@ 0000000180059f98     umodsys_lib_libui:umodsys.mod.ui.SDL_GL.obj
 0002:0000dfa8       ??_C@_0O@PDIFOCP@glGetTexGendv?$AA@ 0000000180059fa8     umodsys_lib_libui:umodsys.mod.ui.SDL_GL.obj
 0002:0000dfb8       ??_C@_0O@MLMIKEB@glGetTexGenfv?$AA@ 0000000180059fb8     umodsys_lib_libui:umodsys.mod.ui.SDL_GL.obj
 0002:0000dfc8       ??_C@_0O@HOAMNHM@glGetTexGeniv?$AA@ 0000000180059fc8     umodsys_lib_libui:umodsys.mod.ui.SDL_GL.obj
 0002:0000dfd8       ??_C@_0M@ONDJOEOA@glIndexMask?$AA@ 0000000180059fd8     umodsys_lib_libui:umodsys.mod.ui.SDL_GL.obj
 0002:0000dfe8       ??_C@_08HOOEKNLP@glIndexd?$AA@ 0000000180059fe8     umodsys_lib_libui:umodsys.mod.ui.SDL_GL.obj
 0002:0000dff8       ??_C@_09CCMFJEMA@glIndexdv?$AA@ 0000000180059ff8     umodsys_lib_libui:umodsys.mod.ui.SDL_GL.obj
 0002:0000e008       ??_C@_08EMNCMPDN@glIndexf?$AA@ 000000018005a008     umodsys_lib_libui:umodsys.mod.ui.SDL_GL.obj
 0002:0000e018       ??_C@_09CBEBEAKO@glIndexfv?$AA@ 000000018005a018     umodsys_lib_libui:umodsys.mod.ui.SDL_GL.obj
 0002:0000e028       ??_C@_08MLEKNDPC@glIndexi?$AA@ 000000018005a028     umodsys_lib_libui:umodsys.mod.ui.SDL_GL.obj
 0002:0000e038       ??_C@_09CKBNAHJD@glIndexiv?$AA@ 000000018005a038     umodsys_lib_libui:umodsys.mod.ui.SDL_GL.obj
 0002:0000e048       ??_C@_08HLGHCJCJ@glIndexs?$AA@ 000000018005a048     umodsys_lib_libui:umodsys.mod.ui.SDL_GL.obj
 0002:0000e058       ??_C@_09DLKMCBDF@glIndexsv?$AA@ 000000018005a058     umodsys_lib_libui:umodsys.mod.ui.SDL_GL.obj
 0002:0000e068       ??_C@_0M@LBOBLINN@glInitNames?$AA@ 000000018005a068     umodsys_lib_libui:umodsys.mod.ui.SDL_GL.obj
 0002:0000e078       ??_C@_08DMFMJKDH@glIsList?$AA@ 000000018005a078     umodsys_lib_libui:umodsys.mod.ui.SDL_GL.obj
 0002:0000e088       ??_C@_0O@HPCJLAII@glLightModelf?$AA@ 000000018005a088     umodsys_lib_libui:umodsys.mod.ui.SDL_GL.obj
 0002:0000e098       ??_C@_0P@JKHJPMNC@glLightModelfv?$AA@ 000000018005a098     umodsys_lib_libui:umodsys.mod.ui.SDL_GL.obj
 0002:0000e0a8       ??_C@_0O@PILBKMEH@glLightModeli?$AA@ 000000018005a0a8     umodsys_lib_libui:umodsys.mod.ui.SDL_GL.obj
 0002:0000e0b8       ??_C@_0P@JBCFLLOP@glLightModeliv?$AA@ 000000018005a0b8     umodsys_lib_libui:umodsys.mod.ui.SDL_GL.obj
 0002:0000e0c8       ??_C@_08LPDPILEL@glLightf?$AA@ 000000018005a0c8     umodsys_lib_libui:umodsys.mod.ui.SDL_GL.obj
 0002:0000e0d8       ??_C@_09JINEHJOD@glLightfv?$AA@ 000000018005a0d8     umodsys_lib_libui:umodsys.mod.ui.SDL_GL.obj
 0002:0000e0e8       ??_C@_08DIKHJHIE@glLighti?$AA@ 000000018005a0e8     umodsys_lib_libui:umodsys.mod.ui.SDL_GL.obj
 0002:0000e0f8       ??_C@_09JDIIDONO@glLightiv?$AA@ 000000018005a0f8     umodsys_lib_libui:umodsys.mod.ui.SDL_GL.obj
 0002:0000e108       ??_C@_0O@LDOINBOK@glLineStipple?$AA@ 000000018005a108     umodsys_lib_libui:umodsys.mod.ui.SDL_GL.obj
 0002:0000e118       ??_C@_0L@HDOJDFBA@glListBase?$AA@ 000000018005a118     umodsys_lib_libui:umodsys.mod.ui.SDL_GL.obj
 0002:0000e128       ??_C@_0P@EJAFHEPO@glLoadIdentity?$AA@ 000000018005a128     umodsys_lib_libui:umodsys.mod.ui.SDL_GL.obj
 0002:0000e138       ??_C@_0O@LFHKEMK@glLoadMatrixd?$AA@ 000000018005a138     umodsys_lib_libui:umodsys.mod.ui.SDL_GL.obj
 0002:0000e148       ??_C@_0O@DJGBMGEI@glLoadMatrixf?$AA@ 000000018005a148     umodsys_lib_libui:umodsys.mod.ui.SDL_GL.obj
 0002:0000e158       ??_C@_0L@JFFJNAJA@glLoadName?$AA@ 000000018005a158     umodsys_lib_libui:umodsys.mod.ui.SDL_GL.obj
 0002:0000e168       ??_C@_07FEHGGJHC@glMap1d?$AA@ 000000018005a168     umodsys_lib_libui:umodsys.mod.ui.SDL_GL.obj
 0002:0000e170       ??_C@_07GGEAALPA@glMap1f?$AA@ 000000018005a170     umodsys_lib_libui:umodsys.mod.ui.SDL_GL.obj
 0002:0000e178       ??_C@_07FGDANHCL@glMap2d?$AA@ 000000018005a178     umodsys_lib_libui:umodsys.mod.ui.SDL_GL.obj
 0002:0000e180       ??_C@_07GEAGLFKJ@glMap2f?$AA@ 000000018005a180     umodsys_lib_libui:umodsys.mod.ui.SDL_GL.obj
 0002:0000e188       ??_C@_0M@MNDKIDNO@glMapGrid1d?$AA@ 000000018005a188     umodsys_lib_libui:umodsys.mod.ui.SDL_GL.obj
 0002:0000e198       ??_C@_0M@PPAMOBFM@glMapGrid1f?$AA@ 000000018005a198     umodsys_lib_libui:umodsys.mod.ui.SDL_GL.obj
 0002:0000e1a8       ??_C@_0M@MPHMDNIH@glMapGrid2d?$AA@ 000000018005a1a8     umodsys_lib_libui:umodsys.mod.ui.SDL_GL.obj
 0002:0000e1b8       ??_C@_0M@PNEKFPAF@glMapGrid2f?$AA@ 000000018005a1b8     umodsys_lib_libui:umodsys.mod.ui.SDL_GL.obj
 0002:0000e1c8       ??_C@_0M@HANOIKMC@glMaterialf?$AA@ 000000018005a1c8     umodsys_lib_libui:umodsys.mod.ui.SDL_GL.obj
 0002:0000e1d8       ??_C@_0N@MHPKDGG@glMaterialfv?$AA@ 000000018005a1d8     umodsys_lib_libui:umodsys.mod.ui.SDL_GL.obj
 0002:0000e1e8       ??_C@_0M@PHEGJGAN@glMateriali?$AA@ 000000018005a1e8     umodsys_lib_libui:umodsys.mod.ui.SDL_GL.obj
 0002:0000e1f8       ??_C@_0N@HCDOEFL@glMaterialiv?$AA@ 000000018005a1f8     umodsys_lib_libui:umodsys.mod.ui.SDL_GL.obj
 0002:0000e208       ??_C@_0N@KDLNHKEJ@glMatrixMode?$AA@ 000000018005a208     umodsys_lib_libui:umodsys.mod.ui.SDL_GL.obj
 0002:0000e218       ??_C@_0O@IFJFLNCL@glMultMatrixd?$AA@ 000000018005a218     umodsys_lib_libui:umodsys.mod.ui.SDL_GL.obj
 0002:0000e228       ??_C@_0O@LHKDNPKJ@glMultMatrixf?$AA@ 000000018005a228     umodsys_lib_libui:umodsys.mod.ui.SDL_GL.obj
 0002:0000e238       ??_C@_09KAGOBDOO@glNewList?$AA@ 000000018005a238     umodsys_lib_libui:umodsys.mod.ui.SDL_GL.obj
 0002:0000e248       ??_C@_0L@FCAONKPI@glNormal3b?$AA@ 000000018005a248     umodsys_lib_libui:umodsys.mod.ui.SDL_GL.obj
 0002:0000e258       ??_C@_0M@MKFBKKIE@glNormal3bv?$AA@ 000000018005a258     umodsys_lib_libui:umodsys.mod.ui.SDL_GL.obj
 0002:0000e268       ??_C@_0L@EFEHNHO@glNormal3d?$AA@ 000000018005a268     umodsys_lib_libui:umodsys.mod.ui.SDL_GL.obj
 0002:0000e278       ??_C@_0M@MONMNGDG@glNormal3dv?$AA@ 000000018005a278     umodsys_lib_libui:umodsys.mod.ui.SDL_GL.obj
 0002:0000e288       ??_C@_0L@DGGCBPPM@glNormal3f?$AA@ 000000018005a288     umodsys_lib_libui:umodsys.mod.ui.SDL_GL.obj
 0002:0000e298       ??_C@_0M@MNFIACFI@glNormal3fv?$AA@ 000000018005a298     umodsys_lib_libui:umodsys.mod.ui.SDL_GL.obj
 0002:0000e2a8       ??_C@_0L@LBPKADDD@glNormal3i?$AA@ 000000018005a2a8     umodsys_lib_libui:umodsys.mod.ui.SDL_GL.obj
 0002:0000e2b8       ??_C@_0M@MGAEEFGF@glNormal3iv?$AA@ 000000018005a2b8     umodsys_lib_libui:umodsys.mod.ui.SDL_GL.obj
 0002:0000e2c8       ??_C@_0L@BNHPJOI@glNormal3s?$AA@ 000000018005a2c8     umodsys_lib_libui:umodsys.mod.ui.SDL_GL.obj
 0002:0000e2d8       ??_C@_0M@NHLFGDMD@glNormal3sv?$AA@ 000000018005a2d8     umodsys_lib_libui:umodsys.mod.ui.SDL_GL.obj
 0002:0000e2e8       ??_C@_07DBAFHOII@glOrtho?$AA@ 000000018005a2e8     umodsys_lib_libui:umodsys.mod.ui.SDL_GL.obj
 0002:0000e2f0       ??_C@_0O@KCIMMNEH@glPassThrough?$AA@ 000000018005a2f0     umodsys_lib_libui:umodsys.mod.ui.SDL_GL.obj
 0002:0000e300       ??_C@_0N@CNONNBNO@glPixelMapfv?$AA@ 000000018005a300     umodsys_lib_libui:umodsys.mod.ui.SDL_GL.obj
 0002:0000e310       ??_C@_0O@ENPFNAEO@glPixelMapuiv?$AA@ 000000018005a310     umodsys_lib_libui:umodsys.mod.ui.SDL_GL.obj
 0002:0000e320       ??_C@_0O@FMEEPGOI@glPixelMapusv?$AA@ 000000018005a320     umodsys_lib_libui:umodsys.mod.ui.SDL_GL.obj
 0002:0000e330       ??_C@_0BB@HFCIPEN@glPixelTransferf?$AA@ 000000018005a330     umodsys_lib_libui:umodsys.mod.ui.SDL_GL.obj
 0002:0000e348       ??_C@_0BB@IAMKJDIC@glPixelTransferi?$AA@ 000000018005a348     umodsys_lib_libui:umodsys.mod.ui.SDL_GL.obj
 0002:0000e360       ??_C@_0M@JAMJIGNB@glPixelZoom?$AA@ 000000018005a360     umodsys_lib_libui:umodsys.mod.ui.SDL_GL.obj
 0002:0000e370       ??_C@_0BB@GIADEJGP@glPolygonStipple?$AA@ 000000018005a370     umodsys_lib_libui:umodsys.mod.ui.SDL_GL.obj
 0002:0000e388       ??_C@_0M@LLNGAHMN@glPopAttrib?$AA@ 000000018005a388     umodsys_lib_libui:umodsys.mod.ui.SDL_GL.obj
 0002:0000e398       ??_C@_0M@JPEAAEEK@glPopMatrix?$AA@ 000000018005a398     umodsys_lib_libui:umodsys.mod.ui.SDL_GL.obj
 0002:0000e3a8       ??_C@_09IKDPIJOE@glPopName?$AA@ 000000018005a3a8     umodsys_lib_libui:umodsys.mod.ui.SDL_GL.obj
 0002:0000e3b8       ??_C@_0N@KDMLHFJM@glPushAttrib?$AA@ 000000018005a3b8     umodsys_lib_libui:umodsys.mod.ui.SDL_GL.obj
 0002:0000e3c8       ??_C@_0N@IHFNHGBL@glPushMatrix?$AA@ 000000018005a3c8     umodsys_lib_libui:umodsys.mod.ui.SDL_GL.obj
 0002:0000e3d8       ??_C@_0L@LFFFABIK@glPushName?$AA@ 000000018005a3d8     umodsys_lib_libui:umodsys.mod.ui.SDL_GL.obj
 0002:0000e3e8       ??_C@_0O@JNCPGME@glRasterPos2d?$AA@ 000000018005a3e8     umodsys_lib_libui:umodsys.mod.ui.SDL_GL.obj
 0002:0000e3f8       ??_C@_0P@OFGFAKCP@glRasterPos2dv?$AA@ 000000018005a3f8     umodsys_lib_libui:umodsys.mod.ui.SDL_GL.obj
 0002:0000e408       ??_C@_0O@DLOEJEEG@glRasterPos2f?$AA@ 000000018005a408     umodsys_lib_libui:umodsys.mod.ui.SDL_GL.obj
 0002:0000e418       ??_C@_0P@OGOBNOEB@glRasterPos2fv?$AA@ 000000018005a418     umodsys_lib_libui:umodsys.mod.ui.SDL_GL.obj
 0002:0000e428       ??_C@_0O@LMHMIIIJ@glRasterPos2i?$AA@ 000000018005a428     umodsys_lib_libui:umodsys.mod.ui.SDL_GL.obj
 0002:0000e438       ??_C@_0P@ONLNJJHM@glRasterPos2iv?$AA@ 000000018005a438     umodsys_lib_libui:umodsys.mod.ui.SDL_GL.obj
 0002:0000e448       ??_C@_0O@MFBHCFC@glRasterPos2s?$AA@ 000000018005a448     umodsys_lib_libui:umodsys.mod.ui.SDL_GL.obj
 0002:0000e458       ??_C@_0P@PMAMLPNK@glRasterPos2sv?$AA@ 000000018005a458     umodsys_lib_libui:umodsys.mod.ui.SDL_GL.obj
 0002:0000e468       ??_C@_0O@IBAJMPD@glRasterPos3d?$AA@ 000000018005a468     umodsys_lib_libui:umodsys.mod.ui.SDL_GL.obj
 0002:0000e478       ??_C@_0P@FNNJGNEK@glRasterPos3dv?$AA@ 000000018005a478     umodsys_lib_libui:umodsys.mod.ui.SDL_GL.obj
 0002:0000e488       ??_C@_0O@DKCGPOHB@glRasterPos3f?$AA@ 000000018005a488     umodsys_lib_libui:umodsys.mod.ui.SDL_GL.obj
 0002:0000e498       ??_C@_0P@FOFNLJCE@glRasterPos3fv?$AA@ 000000018005a498     umodsys_lib_libui:umodsys.mod.ui.SDL_GL.obj
 0002:0000e4a8       ??_C@_0O@LNLOOCLO@glRasterPos3i?$AA@ 000000018005a4a8     umodsys_lib_libui:umodsys.mod.ui.SDL_GL.obj
 0002:0000e4b8       ??_C@_0P@FFABPOBJ@glRasterPos3iv?$AA@ 000000018005a4b8     umodsys_lib_libui:umodsys.mod.ui.SDL_GL.obj
 0002:0000e4c8       ??_C@_0O@NJDBIGF@glRasterPos3s?$AA@ 000000018005a4c8     umodsys_lib_libui:umodsys.mod.ui.SDL_GL.obj
 0002:0000e4d8       ??_C@_0P@EELANILP@glRasterPos3sv?$AA@ 000000018005a4d8     umodsys_lib_libui:umodsys.mod.ui.SDL_GL.obj
 0002:0000e4e8       ??_C@_0O@NFPIKHG@glRasterPos4d?$AA@ 000000018005a4e8     umodsys_lib_libui:umodsys.mod.ui.SDL_GL.obj
 0002:0000e4f8       ??_C@_0P@MAAOFFPD@glRasterPos4dv?$AA@ 000000018005a4f8     umodsys_lib_libui:umodsys.mod.ui.SDL_GL.obj
 0002:0000e508       ??_C@_0O@DPGJOIPE@glRasterPos4f?$AA@ 000000018005a508     umodsys_lib_libui:umodsys.mod.ui.SDL_GL.obj
 0002:0000e518       ??_C@_0P@MDIKIBJN@glRasterPos4fv?$AA@ 000000018005a518     umodsys_lib_libui:umodsys.mod.ui.SDL_GL.obj
 0002:0000e528       ??_C@_0O@LIPBPEDL@glRasterPos4i?$AA@ 000000018005a528     umodsys_lib_libui:umodsys.mod.ui.SDL_GL.obj
 0002:0000e538       ??_C@_0P@MINGMGKA@glRasterPos4iv?$AA@ 000000018005a538     umodsys_lib_libui:umodsys.mod.ui.SDL_GL.obj
 0002:0000e548       ??_C@_0O@INMAOOA@glRasterPos4s?$AA@ 000000018005a548     umodsys_lib_libui:umodsys.mod.ui.SDL_GL.obj
 0002:0000e558       ??_C@_0P@NJGHOAAG@glRasterPos4sv?$AA@ 000000018005a558     umodsys_lib_libui:umodsys.mod.ui.SDL_GL.obj
 0002:0000e568       ??_C@_07GHILMIKG@glRectd?$AA@ 000000018005a568     umodsys_lib_libui:umodsys.mod.ui.SDL_GL.obj
 0002:0000e570       ??_C@_08EGLHFDGF@glRectdv?$AA@ 000000018005a570     umodsys_lib_libui:umodsys.mod.ui.SDL_GL.obj
 0002:0000e580       ??_C@_07FFLNKKCE@glRectf?$AA@ 000000018005a580     umodsys_lib_libui:umodsys.mod.ui.SDL_GL.obj
 0002:0000e588       ??_C@_08EFDDIHAL@glRectfv?$AA@ 000000018005a588     umodsys_lib_libui:umodsys.mod.ui.SDL_GL.obj
 0002:0000e598       ??_C@_07NCCFLGOL@glRecti?$AA@ 000000018005a598     umodsys_lib_libui:umodsys.mod.ui.SDL_GL.obj
 0002:0000e5a0       ??_C@_08EOGPMADG@glRectiv?$AA@ 000000018005a5a0     umodsys_lib_libui:umodsys.mod.ui.SDL_GL.obj
 0002:0000e5b0       ??_C@_07GCAIEMDA@glRects?$AA@ 000000018005a5b0     umodsys_lib_libui:umodsys.mod.ui.SDL_GL.obj
 0002:0000e5b8       ??_C@_08FPNOOGJA@glRectsv?$AA@ 000000018005a5b8     umodsys_lib_libui:umodsys.mod.ui.SDL_GL.obj
 0002:0000e5c8       ??_C@_0N@HCFJFDGP@glRenderMode?$AA@ 000000018005a5c8     umodsys_lib_libui:umodsys.mod.ui.SDL_GL.obj
 0002:0000e5d8       ??_C@_09GANFLDAO@glRotated?$AA@ 000000018005a5d8     umodsys_lib_libui:umodsys.mod.ui.SDL_GL.obj
 0002:0000e5e8       ??_C@_09FCODNBIM@glRotatef?$AA@ 000000018005a5e8     umodsys_lib_libui:umodsys.mod.ui.SDL_GL.obj
 0002:0000e5f8       ??_C@_08KAMCINDI@glScaled?$AA@ 000000018005a5f8     umodsys_lib_libui:umodsys.mod.ui.SDL_GL.obj
 0002:0000e608       ??_C@_08JCPEOPLK@glScalef?$AA@ 000000018005a608     umodsys_lib_libui:umodsys.mod.ui.SDL_GL.obj
 0002:0000e618       ??_C@_0P@KACPMBCN@glSelectBuffer?$AA@ 000000018005a618     umodsys_lib_libui:umodsys.mod.ui.SDL_GL.obj
 0002:0000e628       ??_C@_0N@NALMFHKN@glShadeModel?$AA@ 000000018005a628     umodsys_lib_libui:umodsys.mod.ui.SDL_GL.obj
 0002:0000e638       ??_C@_0N@CKKBPCNP@glTexCoord1d?$AA@ 000000018005a638     umodsys_lib_libui:umodsys.mod.ui.SDL_GL.obj
 0002:0000e648       ??_C@_0O@GPCDLAMH@glTexCoord1dv?$AA@ 000000018005a648     umodsys_lib_libui:umodsys.mod.ui.SDL_GL.obj
 0002:0000e658       ??_C@_0N@BIJHJAFN@glTexCoord1f?$AA@ 000000018005a658     umodsys_lib_libui:umodsys.mod.ui.SDL_GL.obj
 0002:0000e668       ??_C@_0O@GMKHGEKJ@glTexCoord1fv?$AA@ 000000018005a668     umodsys_lib_libui:umodsys.mod.ui.SDL_GL.obj
 0002:0000e678       ??_C@_0N@JPAPIMJC@glTexCoord1i?$AA@ 000000018005a678     umodsys_lib_libui:umodsys.mod.ui.SDL_GL.obj
 0002:0000e688       ??_C@_0O@GHPLCDJE@glTexCoord1iv?$AA@ 000000018005a688     umodsys_lib_libui:umodsys.mod.ui.SDL_GL.obj
 0002:0000e698       ??_C@_0N@CPCCHGEJ@glTexCoord1s?$AA@ 000000018005a698     umodsys_lib_libui:umodsys.mod.ui.SDL_GL.obj
 0002:0000e6a8       ??_C@_0O@HGEKAFDC@glTexCoord1sv?$AA@ 000000018005a6a8     umodsys_lib_libui:umodsys.mod.ui.SDL_GL.obj
 0002:0000e6b8       ??_C@_0N@CIOHEMIG@glTexCoord2d?$AA@ 000000018005a6b8     umodsys_lib_libui:umodsys.mod.ui.SDL_GL.obj
 0002:0000e6c8       ??_C@_0O@HNJGBPCJ@glTexCoord2dv?$AA@ 000000018005a6c8     umodsys_lib_libui:umodsys.mod.ui.SDL_GL.obj
 0002:0000e6d8       ??_C@_0N@BKNBCOAE@glTexCoord2f?$AA@ 000000018005a6d8     umodsys_lib_libui:umodsys.mod.ui.SDL_GL.obj
 0002:0000e6e8       ??_C@_0O@HOBCMLEH@glTexCoord2fv?$AA@ 000000018005a6e8     umodsys_lib_libui:umodsys.mod.ui.SDL_GL.obj
 0002:0000e6f8       ??_C@_0N@JNEJDCML@glTexCoord2i?$AA@ 000000018005a6f8     umodsys_lib_libui:umodsys.mod.ui.SDL_GL.obj
 0002:0000e708       ??_C@_0O@HFEOIMHK@glTexCoord2iv?$AA@ 000000018005a708     umodsys_lib_libui:umodsys.mod.ui.SDL_GL.obj
 0002:0000e718       ??_C@_0N@CNGEMIBA@glTexCoord2s?$AA@ 000000018005a718     umodsys_lib_libui:umodsys.mod.ui.SDL_GL.obj
 0002:0000e728       ??_C@_0O@GEPPKKNM@glTexCoord2sv?$AA@ 000000018005a728     umodsys_lib_libui:umodsys.mod.ui.SDL_GL.obj
 0002:0000e738       ??_C@_0N@CJCFCGLB@glTexCoord3d?$AA@ 000000018005a738     umodsys_lib_libui:umodsys.mod.ui.SDL_GL.obj
 0002:0000e748       ??_C@_0O@MFCKHIEM@glTexCoord3dv?$AA@ 000000018005a748     umodsys_lib_libui:umodsys.mod.ui.SDL_GL.obj
 0002:0000e758       ??_C@_0N@BLBDEEDD@glTexCoord3f?$AA@ 000000018005a758     umodsys_lib_libui:umodsys.mod.ui.SDL_GL.obj
 0002:0000e768       ??_C@_0O@MGKOKMCC@glTexCoord3fv?$AA@ 000000018005a768     umodsys_lib_libui:umodsys.mod.ui.SDL_GL.obj
 0002:0000e778       ??_C@_0N@JMILFIPM@glTexCoord3i?$AA@ 000000018005a778     umodsys_lib_libui:umodsys.mod.ui.SDL_GL.obj
 0002:0000e788       ??_C@_0O@MNPCOLBP@glTexCoord3iv?$AA@ 000000018005a788     umodsys_lib_libui:umodsys.mod.ui.SDL_GL.obj
 0002:0000e798       ??_C@_0N@CMKGKCCH@glTexCoord3s?$AA@ 000000018005a798     umodsys_lib_libui:umodsys.mod.ui.SDL_GL.obj
 0002:0000e7a8       ??_C@_0O@NMEDMNLJ@glTexCoord3sv?$AA@ 000000018005a7a8     umodsys_lib_libui:umodsys.mod.ui.SDL_GL.obj
 0002:0000e7b8       ??_C@_0N@CMGKDADE@glTexCoord4d?$AA@ 000000018005a7b8     umodsys_lib_libui:umodsys.mod.ui.SDL_GL.obj
 0002:0000e7c8       ??_C@_0O@FIPNEAPF@glTexCoord4dv?$AA@ 000000018005a7c8     umodsys_lib_libui:umodsys.mod.ui.SDL_GL.obj
 0002:0000e7d8       ??_C@_0N@BOFMFCLG@glTexCoord4f?$AA@ 000000018005a7d8     umodsys_lib_libui:umodsys.mod.ui.SDL_GL.obj
 0002:0000e7e8       ??_C@_0O@FLHJJEJL@glTexCoord4fv?$AA@ 000000018005a7e8     umodsys_lib_libui:umodsys.mod.ui.SDL_GL.obj
 0002:0000e7f8       ??_C@_0N@JJMEEOHJ@glTexCoord4i?$AA@ 000000018005a7f8     umodsys_lib_libui:umodsys.mod.ui.SDL_GL.obj
 0002:0000e808       ??_C@_0O@FACFNDKG@glTexCoord4iv?$AA@ 000000018005a808     umodsys_lib_libui:umodsys.mod.ui.SDL_GL.obj
 0002:0000e818       ??_C@_0N@CJOJLEKC@glTexCoord4s?$AA@ 000000018005a818     umodsys_lib_libui:umodsys.mod.ui.SDL_GL.obj
 0002:0000e828       ??_C@_0O@EBJEPFAA@glTexCoord4sv?$AA@ 000000018005a828     umodsys_lib_libui:umodsys.mod.ui.SDL_GL.obj
 0002:0000e838       ??_C@_09FCLLGECI@glTexEnvf?$AA@ 000000018005a838     umodsys_lib_libui:umodsys.mod.ui.SDL_GL.obj
 0002:0000e848       ??_C@_0L@EMICMNOO@glTexEnvfv?$AA@ 000000018005a848     umodsys_lib_libui:umodsys.mod.ui.SDL_GL.obj
 0002:0000e858       ??_C@_09NFCDHIOH@glTexEnvi?$AA@ 000000018005a858     umodsys_lib_libui:umodsys.mod.ui.SDL_GL.obj
 0002:0000e868       ??_C@_0L@EHNOIKND@glTexEnviv?$AA@ 000000018005a868     umodsys_lib_libui:umodsys.mod.ui.SDL_GL.obj
 0002:0000e878       ??_C@_09NPHJCAAD@glTexGend?$AA@ 000000018005a878     umodsys_lib_libui:umodsys.mod.ui.SDL_GL.obj
 0002:0000e888       ??_C@_0L@OALDPGOK@glTexGendv?$AA@ 000000018005a888     umodsys_lib_libui:umodsys.mod.ui.SDL_GL.obj
 0002:0000e898       ??_C@_09ONEPECIB@glTexGenf?$AA@ 000000018005a898     umodsys_lib_libui:umodsys.mod.ui.SDL_GL.obj
 0002:0000e8a8       ??_C@_0L@ODDHCCIE@glTexGenfv?$AA@ 000000018005a8a8     umodsys_lib_libui:umodsys.mod.ui.SDL_GL.obj
 0002:0000e8b8       ??_C@_09GKNHFOEO@glTexGeni?$AA@ 000000018005a8b8     umodsys_lib_libui:umodsys.mod.ui.SDL_GL.obj
 0002:0000e8c8       ??_C@_0L@OIGLGFLJ@glTexGeniv?$AA@ 000000018005a8c8     umodsys_lib_libui:umodsys.mod.ui.SDL_GL.obj
 0002:0000e8d8       ??_C@_0N@LHMFFDFG@glTranslated?$AA@ 000000018005a8d8     umodsys_lib_libui:umodsys.mod.ui.SDL_GL.obj
 0002:0000e8e8       ??_C@_0N@IFPDDBNE@glTranslatef?$AA@ 000000018005a8e8     umodsys_lib_libui:umodsys.mod.ui.SDL_GL.obj
 0002:0000e8f8       ??_C@_0L@INGMNOLD@glVertex2d?$AA@ 000000018005a8f8     umodsys_lib_libui:umodsys.mod.ui.SDL_GL.obj
 0002:0000e908       ??_C@_0M@CLIAFAJI@glVertex2dv?$AA@ 000000018005a908     umodsys_lib_libui:umodsys.mod.ui.SDL_GL.obj
 0002:0000e918       ??_C@_0L@LPFKLMDB@glVertex2f?$AA@ 000000018005a918     umodsys_lib_libui:umodsys.mod.ui.SDL_GL.obj
 0002:0000e928       ??_C@_0M@CIAEIEPG@glVertex2fv?$AA@ 000000018005a928     umodsys_lib_libui:umodsys.mod.ui.SDL_GL.obj
 0002:0000e938       ??_C@_0L@DIMCKAPO@glVertex2i?$AA@ 000000018005a938     umodsys_lib_libui:umodsys.mod.ui.SDL_GL.obj
 0002:0000e948       ??_C@_0M@CDFIMDML@glVertex2iv?$AA@ 000000018005a948     umodsys_lib_libui:umodsys.mod.ui.SDL_GL.obj
 0002:0000e958       ??_C@_0L@IIOPFKCF@glVertex2s?$AA@ 000000018005a958     umodsys_lib_libui:umodsys.mod.ui.SDL_GL.obj
 0002:0000e968       ??_C@_0M@DCOJOFGN@glVertex2sv?$AA@ 000000018005a968     umodsys_lib_libui:umodsys.mod.ui.SDL_GL.obj
 0002:0000e978       ??_C@_0L@IMKOLEIE@glVertex3d?$AA@ 000000018005a978     umodsys_lib_libui:umodsys.mod.ui.SDL_GL.obj
 0002:0000e988       ??_C@_0M@JDDMDHPN@glVertex3dv?$AA@ 000000018005a988     umodsys_lib_libui:umodsys.mod.ui.SDL_GL.obj
 0002:0000e998       ??_C@_0L@LOJINGAG@glVertex3f?$AA@ 000000018005a998     umodsys_lib_libui:umodsys.mod.ui.SDL_GL.obj
 0002:0000e9a8       ??_C@_0M@JALIODJD@glVertex3fv?$AA@ 000000018005a9a8     umodsys_lib_libui:umodsys.mod.ui.SDL_GL.obj
 0002:0000e9b8       ??_C@_0L@DJAAMKMJ@glVertex3i?$AA@ 000000018005a9b8     umodsys_lib_libui:umodsys.mod.ui.SDL_GL.obj
 0002:0000e9c8       ??_C@_0M@JLOEKEKO@glVertex3iv?$AA@ 000000018005a9c8     umodsys_lib_libui:umodsys.mod.ui.SDL_GL.obj
 0002:0000e9d8       ??_C@_0L@IJCNDABC@glVertex3s?$AA@ 000000018005a9d8     umodsys_lib_libui:umodsys.mod.ui.SDL_GL.obj
 0002:0000e9e8       ??_C@_0M@IKFFICAI@glVertex3sv?$AA@ 000000018005a9e8     umodsys_lib_libui:umodsys.mod.ui.SDL_GL.obj
 0002:0000e9f8       ??_C@_0L@IJOBKCAB@glVertex4d?$AA@ 000000018005a9f8     umodsys_lib_libui:umodsys.mod.ui.SDL_GL.obj
 0002:0000ea08       ??_C@_0M@OOLAPEE@glVertex4dv?$AA@ 000000018005aa08     umodsys_lib_libui:umodsys.mod.ui.SDL_GL.obj
 0002:0000ea18       ??_C@_0L@LLNHMAID@glVertex4f?$AA@ 000000018005aa18     umodsys_lib_libui:umodsys.mod.ui.SDL_GL.obj
 0002:0000ea28       ??_C@_0M@NGPNLCK@glVertex4fv?$AA@ 000000018005aa28     umodsys_lib_libui:umodsys.mod.ui.SDL_GL.obj
 0002:0000ea38       ??_C@_0L@DMEPNMEM@glVertex4i?$AA@ 000000018005aa38     umodsys_lib_libui:umodsys.mod.ui.SDL_GL.obj
 0002:0000ea48       ??_C@_0M@GDDJMBH@glVertex4iv?$AA@ 000000018005aa48     umodsys_lib_libui:umodsys.mod.ui.SDL_GL.obj
 0002:0000ea58       ??_C@_0L@IMGCCGJH@glVertex4s?$AA@ 000000018005aa58     umodsys_lib_libui:umodsys.mod.ui.SDL_GL.obj
 0002:0000ea68       ??_C@_0M@BHICLKLB@glVertex4sv?$AA@ 000000018005aa68     umodsys_lib_libui:umodsys.mod.ui.SDL_GL.obj
 0002:0000ea78       ??_C@_0BG@DHOKJLEP@glAreTexturesResident?$AA@ 000000018005aa78     umodsys_lib_libui:umodsys.mod.ui.SDL_GL.obj
 0002:0000ea90       ??_C@_0P@CKCIJELG@glArrayElement?$AA@ 000000018005aa90     umodsys_lib_libui:umodsys.mod.ui.SDL_GL.obj
 0002:0000eaa0       ??_C@_0P@DPKEGLKI@glColorPointer?$AA@ 000000018005aaa0     umodsys_lib_libui:umodsys.mod.ui.SDL_GL.obj
 0002:0000eab0       ??_C@_0BF@LJDHBNBP@glDisableClientState?$AA@ 000000018005aab0     umodsys_lib_libui:umodsys.mod.ui.SDL_GL.obj
 0002:0000eac8       ??_C@_0BC@LILGCNN@glEdgeFlagPointer?$AA@ 000000018005aac8     umodsys_lib_libui:umodsys.mod.ui.SDL_GL.obj
 0002:0000eae0       ??_C@_0BE@KECPKGNE@glEnableClientState?$AA@ 000000018005aae0     umodsys_lib_libui:umodsys.mod.ui.SDL_GL.obj
 0002:0000eaf8       ??_C@_0P@KGJBLKPD@glIndexPointer?$AA@ 000000018005aaf8     umodsys_lib_libui:umodsys.mod.ui.SDL_GL.obj
 0002:0000eb08       ??_C@_09BBIPIKNC@glIndexub?$AA@ 000000018005ab08     umodsys_lib_libui:umodsys.mod.ui.SDL_GL.obj
 0002:0000eb18       ??_C@_0L@BBKJOCAC@glIndexubv?$AA@ 000000018005ab18     umodsys_lib_libui:umodsys.mod.ui.SDL_GL.obj
 0002:0000eb28       ??_C@_0BE@EDEDCKLI@glInterleavedArrays?$AA@ 000000018005ab28     umodsys_lib_libui:umodsys.mod.ui.SDL_GL.obj
 0002:0000eb40       ??_C@_0BA@DCLMCEOP@glNormalPointer?$AA@ 000000018005ab40     umodsys_lib_libui:umodsys.mod.ui.SDL_GL.obj
 0002:0000eb50       ??_C@_0BC@GOOJKIDH@glPopClientAttrib?$AA@ 000000018005ab50     umodsys_lib_libui:umodsys.mod.ui.SDL_GL.obj
 0002:0000eb68       ??_C@_0BF@FFCGNNIA@glPrioritizeTextures?$AA@ 000000018005ab68     umodsys_lib_libui:umodsys.mod.ui.SDL_GL.obj
 0002:0000eb80       ??_C@_0BD@JKGPLNEA@glPushClientAttrib?$AA@ 000000018005ab80     umodsys_lib_libui:umodsys.mod.ui.SDL_GL.obj
 0002:0000eb98       ??_C@_0BC@DAOMILMO@glTexCoordPointer?$AA@ 000000018005ab98     umodsys_lib_libui:umodsys.mod.ui.SDL_GL.obj
 0002:0000ebb0       ??_C@_0BA@HAHECJNK@glVertexPointer?$AA@ 000000018005abb0     umodsys_lib_libui:umodsys.mod.ui.SDL_GL.obj
 0002:0000ebc0       ??_C@_0BG@EGKOMLFO@glClientActiveTexture?$AA@ 000000018005abc0     umodsys_lib_libui:umodsys.mod.ui.SDL_GL.obj
 0002:0000ebd8       ??_C@_0BH@DMKLNEPC@glLoadTransposeMatrixd?$AA@ 000000018005abd8     umodsys_lib_libui:umodsys.mod.ui.SDL_GL.obj
 0002:0000ebf0       ??_C@_0BH@OJNLGHA@glLoadTransposeMatrixf?$AA@ 000000018005abf0     umodsys_lib_libui:umodsys.mod.ui.SDL_GL.obj
 0002:0000ec08       ??_C@_0BH@NCKJAFA@glMultTransposeMatrixd?$AA@ 000000018005ac08     umodsys_lib_libui:umodsys.mod.ui.SDL_GL.obj
 0002:0000ec20       ??_C@_0BH@DPBMPCNC@glMultTransposeMatrixf?$AA@ 000000018005ac20     umodsys_lib_libui:umodsys.mod.ui.SDL_GL.obj
 0002:0000ec38       ??_C@_0BC@IHHPPFPP@glMultiTexCoord1d?$AA@ 000000018005ac38     umodsys_lib_libui:umodsys.mod.ui.SDL_GL.obj
 0002:0000ec50       ??_C@_0BD@FEOAEOAI@glMultiTexCoord1dv?$AA@ 000000018005ac50     umodsys_lib_libui:umodsys.mod.ui.SDL_GL.obj
 0002:0000ec68       ??_C@_0BC@LFEJJHHN@glMultiTexCoord1f?$AA@ 000000018005ac68     umodsys_lib_libui:umodsys.mod.ui.SDL_GL.obj
 0002:0000ec80       ??_C@_0BD@FHGEJKGG@glMultiTexCoord1fv?$AA@ 000000018005ac80     umodsys_lib_libui:umodsys.mod.ui.SDL_GL.obj
 0002:0000ec98       ??_C@_0BC@DCNBILLC@glMultiTexCoord1i?$AA@ 000000018005ac98     umodsys_lib_libui:umodsys.mod.ui.SDL_GL.obj
 0002:0000ecb0       ??_C@_0BD@FMDINNFL@glMultiTexCoord1iv?$AA@ 000000018005acb0     umodsys_lib_libui:umodsys.mod.ui.SDL_GL.obj
 0002:0000ecc8       ??_C@_0BC@ICPMHBGJ@glMultiTexCoord1s?$AA@ 000000018005acc8     umodsys_lib_libui:umodsys.mod.ui.SDL_GL.obj
 0002:0000ece0       ??_C@_0BD@ENIJPLPN@glMultiTexCoord1sv?$AA@ 000000018005ace0     umodsys_lib_libui:umodsys.mod.ui.SDL_GL.obj
 0002:0000ecf8       ??_C@_0BC@IFDJELKG@glMultiTexCoord2d?$AA@ 000000018005acf8     umodsys_lib_libui:umodsys.mod.ui.SDL_GL.obj
 0002:0000ed10       ??_C@_0BD@EGFFOBOG@glMultiTexCoord2dv?$AA@ 000000018005ad10     umodsys_lib_libui:umodsys.mod.ui.SDL_GL.obj
 0002:0000ed28       ??_C@_0BC@LHAPCJCE@glMultiTexCoord2f?$AA@ 000000018005ad28     umodsys_lib_libui:umodsys.mod.ui.SDL_GL.obj
 0002:0000ed40       ??_C@_0BD@EFNBDFII@glMultiTexCoord2fv?$AA@ 000000018005ad40     umodsys_lib_libui:umodsys.mod.ui.SDL_GL.obj
 0002:0000ed58       ??_C@_0BC@DAJHDFOL@glMultiTexCoord2i?$AA@ 000000018005ad58     umodsys_lib_libui:umodsys.mod.ui.SDL_GL.obj
 0002:0000ed70       ??_C@_0BD@EOINHCLF@glMultiTexCoord2iv?$AA@ 000000018005ad70     umodsys_lib_libui:umodsys.mod.ui.SDL_GL.obj
 0002:0000ed88       ??_C@_0BC@IALKMPDA@glMultiTexCoord2s?$AA@ 000000018005ad88     umodsys_lib_libui:umodsys.mod.ui.SDL_GL.obj
 0002:0000eda0       ??_C@_0BD@FPDMFEBD@glMultiTexCoord2sv?$AA@ 000000018005ada0     umodsys_lib_libui:umodsys.mod.ui.SDL_GL.obj
 0002:0000edb8       ??_C@_0BC@IEPLCBJB@glMultiTexCoord3d?$AA@ 000000018005adb8     umodsys_lib_libui:umodsys.mod.ui.SDL_GL.obj
 0002:0000edd0       ??_C@_0BD@POOJIGID@glMultiTexCoord3dv?$AA@ 000000018005add0     umodsys_lib_libui:umodsys.mod.ui.SDL_GL.obj
 0002:0000ede8       ??_C@_0BC@LGMNEDBD@glMultiTexCoord3f?$AA@ 000000018005ade8     umodsys_lib_libui:umodsys.mod.ui.SDL_GL.obj
 0002:0000ee00       ??_C@_0BD@PNGNFCON@glMultiTexCoord3fv?$AA@ 000000018005ae00     umodsys_lib_libui:umodsys.mod.ui.SDL_GL.obj
 0002:0000ee18       ??_C@_0BC@DBFFFPNM@glMultiTexCoord3i?$AA@ 000000018005ae18     umodsys_lib_libui:umodsys.mod.ui.SDL_GL.obj
 0002:0000ee30       ??_C@_0BD@PGDBBFNA@glMultiTexCoord3iv?$AA@ 000000018005ae30     umodsys_lib_libui:umodsys.mod.ui.SDL_GL.obj
 0002:0000ee48       ??_C@_0BC@IBHIKFAH@glMultiTexCoord3s?$AA@ 000000018005ae48     umodsys_lib_libui:umodsys.mod.ui.SDL_GL.obj
 0002:0000ee60       ??_C@_0BD@OHIADDHG@glMultiTexCoord3sv?$AA@ 000000018005ae60     umodsys_lib_libui:umodsys.mod.ui.SDL_GL.obj
 0002:0000ee78       ??_C@_0BC@IBLEDHBE@glMultiTexCoord4d?$AA@ 000000018005ae78     umodsys_lib_libui:umodsys.mod.ui.SDL_GL.obj
 0002:0000ee90       ??_C@_0BD@GDDOLODK@glMultiTexCoord4dv?$AA@ 000000018005ae90     umodsys_lib_libui:umodsys.mod.ui.SDL_GL.obj
 0002:0000eea8       ??_C@_0BC@LDICFFJG@glMultiTexCoord4f?$AA@ 000000018005aea8     umodsys_lib_libui:umodsys.mod.ui.SDL_GL.obj
 0002:0000eec0       ??_C@_0BD@GALKGKFE@glMultiTexCoord4fv?$AA@ 000000018005aec0     umodsys_lib_libui:umodsys.mod.ui.SDL_GL.obj
 0002:0000eed8       ??_C@_0BC@DEBKEJFJ@glMultiTexCoord4i?$AA@ 000000018005aed8     umodsys_lib_libui:umodsys.mod.ui.SDL_GL.obj
 0002:0000eef0       ??_C@_0BD@GLOGCNGJ@glMultiTexCoord4iv?$AA@ 000000018005aef0     umodsys_lib_libui:umodsys.mod.ui.SDL_GL.obj
 0002:0000ef08       ??_C@_0BC@IEDHLDIC@glMultiTexCoord4s?$AA@ 000000018005af08     umodsys_lib_libui:umodsys.mod.ui.SDL_GL.obj
 0002:0000ef20       ??_C@_0BD@HKFHALMP@glMultiTexCoord4sv?$AA@ 000000018005af20     umodsys_lib_libui:umodsys.mod.ui.SDL_GL.obj
 0002:0000ef38       ??_C@_0BC@GECGFLP@glFogCoordPointer?$AA@ 000000018005af38     umodsys_lib_libui:umodsys.mod.ui.SDL_GL.obj
 0002:0000ef50       ??_C@_0M@FACELPGH@glFogCoordd?$AA@ 000000018005af50     umodsys_lib_libui:umodsys.mod.ui.SDL_GL.obj
 0002:0000ef60       ??_C@_0N@KKODAODE@glFogCoorddv?$AA@ 000000018005af60     umodsys_lib_libui:umodsys.mod.ui.SDL_GL.obj
 0002:0000ef70       ??_C@_0M@GCBCNNOF@glFogCoordf?$AA@ 000000018005af70     umodsys_lib_libui:umodsys.mod.ui.SDL_GL.obj
 0002:0000ef80       ??_C@_0N@KJGHNKFK@glFogCoordfv?$AA@ 000000018005af80     umodsys_lib_libui:umodsys.mod.ui.SDL_GL.obj
 0002:0000ef90       ??_C@_0BD@MCCHHBGK@glSecondaryColor3b?$AA@ 000000018005af90     umodsys_lib_libui:umodsys.mod.ui.SDL_GL.obj
 0002:0000efa8       ??_C@_0BE@NEMAHBEH@glSecondaryColor3bv?$AA@ 000000018005afa8     umodsys_lib_libui:umodsys.mod.ui.SDL_GL.obj
 0002:0000efc0       ??_C@_0BD@JEHNNGOM@glSecondaryColor3d?$AA@ 000000018005afc0     umodsys_lib_libui:umodsys.mod.ui.SDL_GL.obj
 0002:0000efd8       ??_C@_0BE@NAENANPF@glSecondaryColor3dv?$AA@ 000000018005afd8     umodsys_lib_libui:umodsys.mod.ui.SDL_GL.obj
 0002:0000eff0       ??_C@_0BD@KGELLEGO@glSecondaryColor3f?$AA@ 000000018005aff0     umodsys_lib_libui:umodsys.mod.ui.SDL_GL.obj
 0002:0000f008       ??_C@_0BE@NDMJNJJL@glSecondaryColor3fv?$AA@ 000000018005b008     umodsys_lib_libui:umodsys.mod.ui.SDL_GL.obj
 0002:0000f020       ??_C@_0BD@CBNDKIKB@glSecondaryColor3i?$AA@ 000000018005b020     umodsys_lib_libui:umodsys.mod.ui.SDL_GL.obj
 0002:0000f038       ??_C@_0BE@NIJFJOKG@glSecondaryColor3iv?$AA@ 000000018005b038     umodsys_lib_libui:umodsys.mod.ui.SDL_GL.obj
 0002:0000f050       ??_C@_0BD@JBPOFCHK@glSecondaryColor3s?$AA@ 000000018005b050     umodsys_lib_libui:umodsys.mod.ui.SDL_GL.obj
 0002:0000f068       ??_C@_0BE@MJCELIAA@glSecondaryColor3sv?$AA@ 000000018005b068     umodsys_lib_libui:umodsys.mod.ui.SDL_GL.obj
 0002:0000f080       ??_C@_0BE@ODAHBDOH@glSecondaryColor3ub?$AA@ 000000018005b080     umodsys_lib_libui:umodsys.mod.ui.SDL_GL.obj
 0002:0000f098       ??_C@_0BF@EHOIKOLI@glSecondaryColor3ubv?$AA@ 000000018005b098     umodsys_lib_libui:umodsys.mod.ui.SDL_GL.obj
 0002:0000f0b0       ??_C@_0BE@PDMKCM@glSecondaryColor3ui?$AA@ 000000018005b0b0     umodsys_lib_libui:umodsys.mod.ui.SDL_GL.obj
 0002:0000f0c8       ??_C@_0BF@ELLNEBFJ@glSecondaryColor3uiv?$AA@ 000000018005b0c8     umodsys_lib_libui:umodsys.mod.ui.SDL_GL.obj
 0002:0000f0e0       ??_C@_0BE@LANODAPH@glSecondaryColor3us?$AA@ 000000018005b0e0     umodsys_lib_libui:umodsys.mod.ui.SDL_GL.obj
 0002:0000f0f8       ??_C@_0BF@FKAMGHPP@glSecondaryColor3usv?$AA@ 000000018005b0f8     umodsys_lib_libui:umodsys.mod.ui.SDL_GL.obj
 0002:0000f110       ??_C@_0BI@EFMNDJOO@glSecondaryColorPointer?$AA@ 000000018005b110     umodsys_lib_libui:umodsys.mod.ui.SDL_GL.obj
 0002:0000f128       ??_C@_0O@JGNKBLNH@glWindowPos2d?$AA@ 000000018005b128     umodsys_lib_libui:umodsys.mod.ui.SDL_GL.obj
 0002:0000f138       ??_C@_0P@GBEEEDBM@glWindowPos2dv?$AA@ 000000018005b138     umodsys_lib_libui:umodsys.mod.ui.SDL_GL.obj
 0002:0000f148       ??_C@_0O@KEOMHJFF@glWindowPos2f?$AA@ 000000018005b148     umodsys_lib_libui:umodsys.mod.ui.SDL_GL.obj
 0002:0000f158       ??_C@_0P@GCMAJHHC@glWindowPos2fv?$AA@ 000000018005b158     umodsys_lib_libui:umodsys.mod.ui.SDL_GL.obj
 0002:0000f168       ??_C@_0O@CDHEGFJK@glWindowPos2i?$AA@ 000000018005b168     umodsys_lib_libui:umodsys.mod.ui.SDL_GL.obj
 0002:0000f178       ??_C@_0P@GJJMNAEP@glWindowPos2iv?$AA@ 000000018005b178     umodsys_lib_libui:umodsys.mod.ui.SDL_GL.obj
 0002:0000f188       ??_C@_0O@JDFJJPEB@glWindowPos2s?$AA@ 000000018005b188     umodsys_lib_libui:umodsys.mod.ui.SDL_GL.obj
 0002:0000f198       ??_C@_0P@HICNPGOJ@glWindowPos2sv?$AA@ 000000018005b198     umodsys_lib_libui:umodsys.mod.ui.SDL_GL.obj
 0002:0000f1a8       ??_C@_0O@JHBIHBOA@glWindowPos3d?$AA@ 000000018005b1a8     umodsys_lib_libui:umodsys.mod.ui.SDL_GL.obj
 0002:0000f1b8       ??_C@_0P@NJPICEHJ@glWindowPos3dv?$AA@ 000000018005b1b8     umodsys_lib_libui:umodsys.mod.ui.SDL_GL.obj
 0002:0000f1c8       ??_C@_0O@KFCOBDGC@glWindowPos3f?$AA@ 000000018005b1c8     umodsys_lib_libui:umodsys.mod.ui.SDL_GL.obj
 0002:0000f1d8       ??_C@_0P@NKHMPABH@glWindowPos3fv?$AA@ 000000018005b1d8     umodsys_lib_libui:umodsys.mod.ui.SDL_GL.obj
 0002:0000f1e8       ??_C@_0O@CCLGAPKN@glWindowPos3i?$AA@ 000000018005b1e8     umodsys_lib_libui:umodsys.mod.ui.SDL_GL.obj
 0002:0000f1f8       ??_C@_0P@NBCALHCK@glWindowPos3iv?$AA@ 000000018005b1f8     umodsys_lib_libui:umodsys.mod.ui.SDL_GL.obj
 0002:0000f208       ??_C@_0O@JCJLPFHG@glWindowPos3s?$AA@ 000000018005b208     umodsys_lib_libui:umodsys.mod.ui.SDL_GL.obj
 0002:0000f218       ??_C@_0P@MAJBJBIM@glWindowPos3sv?$AA@ 000000018005b218     umodsys_lib_libui:umodsys.mod.ui.SDL_GL.obj
 0002:0000f228       ??_C@_0DM@FOIMIHHO@Loaded?5compatibility?5?$CFd?1?$CFd?5?5func@ 000000018005b228     umodsys_lib_libui:umodsys.mod.ui.SDL_GL.obj
 0002:0000f264       ??_C@_06EIHDNHAM@rgba?18?$AA@ 000000018005b264     umodsys_lib_libui:umodsys.mod.ui.SDL_GL.obj
 0002:0000f26c       ??_C@_06OEMGJIAA@rgba?14?$AA@ 000000018005b26c     umodsys_lib_libui:umodsys.mod.ui.SDL_GL.obj
 0002:0000f278       ??_C@_07OLFPFAAC@rgba?112?$AA@ 000000018005b278     umodsys_lib_libui:umodsys.mod.ui.SDL_GL.obj
 0002:0000f280       ??_C@_07IPDDJFAG@rgba?116?$AA@ 000000018005b280     umodsys_lib_libui:umodsys.mod.ui.SDL_GL.obj
 0002:0000f288       ??_C@_07KEBOMGMF@rgba?115?$AA@ 000000018005b288     umodsys_lib_libui:umodsys.mod.ui.SDL_GL.obj
 0002:0000f290       ??_C@_09LOLLJFCP@rgb?115?0a1?$AA@ 000000018005b290     umodsys_lib_libui:umodsys.mod.ui.SDL_GL.obj
 0002:0000f2a0       ??_C@_07OINLIEGM@rgba?132?$AA@ 000000018005b2a0     umodsys_lib_libui:umodsys.mod.ui.SDL_GL.obj
 0002:0000f2a8       ??_C@_05JGGENLGF@rgb?18?$AA@ 000000018005b2a8     umodsys_lib_libui:umodsys.mod.ui.SDL_GL.obj
 0002:0000f2b0       ??_C@_05DKNBJEGJ@rgb?14?$AA@ 000000018005b2b0     umodsys_lib_libui:umodsys.mod.ui.SDL_GL.obj
 0002:0000f2b8       ??_C@_07LPEDEJNN@rgba?124?$AA@ 000000018005b2b8     umodsys_lib_libui:umodsys.mod.ui.SDL_GL.obj
 0002:0000f2c0       ??_C@_02PMJCCFLF@i4?$AA@   000000018005b2c0     umodsys_lib_libui:umodsys.mod.ui.SDL_GL.obj
 0002:0000f2c4       ??_C@_02FACHGKLJ@i8?$AA@   000000018005b2c4     umodsys_lib_libui:umodsys.mod.ui.SDL_GL.obj
 0002:0000f2c8       ??_C@_04PAAENIBE@ia?12?$AA@ 000000018005b2c8     umodsys_lib_libui:umodsys.mod.ui.SDL_GL.obj
 0002:0000f2d0       ??_C@_04KGFOHPJC@ia?14?$AA@ 000000018005b2d0     umodsys_lib_libui:umodsys.mod.ui.SDL_GL.obj
 0002:0000f2d8       ??_C@_04KOLDAJO@ia?18?$AA@ 000000018005b2d8     umodsys_lib_libui:umodsys.mod.ui.SDL_GL.obj
 0002:0000f2e0       ??_C@_05JBHAPPIJ@ia?116?$AA@ 000000018005b2e0     umodsys_lib_libui:umodsys.mod.ui.SDL_GL.obj
 0002:0000f2e8       ??_C@_05PFBMDKIN@ia?112?$AA@ 000000018005b2e8     umodsys_lib_libui:umodsys.mod.ui.SDL_GL.obj
 0002:0000f2f0       ??_C@_02PCIBHEAN@a4?$AA@   000000018005b2f0     umodsys_lib_libui:umodsys.mod.ui.SDL_GL.obj
 0002:0000f2f4       ??_C@_02FODEDLAB@a8?$AA@   000000018005b2f4     umodsys_lib_libui:umodsys.mod.ui.SDL_GL.obj
 0002:0000f2f8       ??_C@_0M@OIOFJFPO@GL_NO_ERROR?$AA@ 000000018005b2f8     umodsys_lib_libui:umodsys.mod.ui.SDL_GL.obj
 0002:0000f308       ??_C@_0BA@LLPLHEDK@GL_INVALID_ENUM?$AA@ 000000018005b308     umodsys_lib_libui:umodsys.mod.ui.SDL_GL.obj
 0002:0000f318       ??_C@_0BB@HDIPJELP@GL_INVALID_VALUE?$AA@ 000000018005b318     umodsys_lib_libui:umodsys.mod.ui.SDL_GL.obj
 0002:0000f330       ??_C@_0BF@NFNGKHIL@GL_INVALID_OPERATION?$AA@ 000000018005b330     umodsys_lib_libui:umodsys.mod.ui.SDL_GL.obj
 0002:0000f348       ??_C@_0BC@DLCDMCHH@GL_STACK_OVERFLOW?$AA@ 000000018005b348     umodsys_lib_libui:umodsys.mod.ui.SDL_GL.obj
 0002:0000f360       ??_C@_0BD@KAJAFKFC@GL_STACK_UNDERFLOW?$AA@ 000000018005b360     umodsys_lib_libui:umodsys.mod.ui.SDL_GL.obj
 0002:0000f378       ??_C@_0BB@JMBJBKGI@GL_OUT_OF_MEMORY?$AA@ 000000018005b378     umodsys_lib_libui:umodsys.mod.ui.SDL_GL.obj
 0002:0000f390       ??_C@_0L@EEBPMGAP@GL_?$DP_ERROR?$AA@ 000000018005b390     umodsys_lib_libui:umodsys.mod.ui.SDL_GL.obj
 0002:0000f3a0       ??_C@_0O@HGIFGBIC@GL?5Error?5?$CD?$CFs?6?$AA@ 000000018005b3a0     umodsys_lib_libui:umodsys.mod.ui.SDL_GL.obj
 0002:0000f3b0       ??_C@_0BE@FIKJHBNC@SDL2?5OpenGL?5library?$AA@ 000000018005b3b0     umodsys_lib_libui:umodsys.mod.ui.SDL_GL.obj
 0002:0000f3c8       ??_C@_0L@DIGNBAEB@ui?3?3SDL_GL?$AA@ 000000018005b3c8     umodsys_lib_libui:umodsys.mod.ui.SDL_GL.obj
 0002:0000f3e8       ??_7RGenerator@SDL_GL@ui@modules@UModSys@@6B@ 000000018005b3e8     umodsys_lib_libui:umodsys.mod.ui.SDL_GL.obj
 0002:0000f488       ??_7RRenderDriver3D@SDL_GL@ui@modules@UModSys@@6B@ 000000018005b488     umodsys_lib_libui:umodsys.mod.ui.SDL_GL.obj
 0002:0000f6c0       ??_7SGLFuncs@SDL_GL@ui@modules@UModSys@@6B@ 000000018005b6c0     umodsys_lib_libui:umodsys.mod.ui.SDL_GL.obj
 0002:0000f6e8       ??_7SGLFuncsLegacy@SDL_GL@ui@modules@UModSys@@6B@ 000000018005b6e8     umodsys_lib_libui:umodsys.mod.ui.SDL_GL.obj
 0002:0000f718       ??_7RTerminal@SDL_GL@ui@modules@UModSys@@6B@ 000000018005b718     umodsys_lib_libui:umodsys.mod.ui.SDL_GL.obj
 0002:0000f7f8       ??_7RKeyboardController@SDL_GL@ui@modules@UModSys@@6B@ 000000018005b7f8     umodsys_lib_libui:umodsys.mod.ui.SDL_GL.obj
 0002:0000f898       ??_7RMouseController@SDL_GL@ui@modules@UModSys@@6B@ 000000018005b898     umodsys_lib_libui:umodsys.mod.ui.SDL_GL.obj
 0002:0000f928       ??_7RMultiImage2D_SDL_ttf@SDL_GL@ui@modules@UModSys@@6B@ 000000018005b928     umodsys_lib_libui:umodsys.mod.ui.SDL_GL.obj
 0002:0000f9f8       ??_7RTerminalX@SDL_GL@ui@modules@UModSys@@6B@ 000000018005b9f8     umodsys_lib_libui:umodsys.mod.ui.SDL_GL.obj
 0002:0000fad8       ??_7RVertexArray@SDL_GL@ui@modules@UModSys@@6B@ 000000018005bad8     umodsys_lib_libui:umodsys.mod.ui.SDL_GL.obj
 0002:0000fb78       ??_7RModuleReg@SDL_GL@ui@modules@UModSys@@6B@ 000000018005bb78     umodsys_lib_libui:umodsys.mod.ui.SDL_GL.obj
 0002:0000fbb0       ??_C@_0DE@JJAEFKJP@UModSys?3?3modules?3?3ui?3?3SDL_core?3?3@ 000000018005bbb0     umodsys_lib_libui:umodsys.mod.ui.SDL_core.obj
 0002:0000fbe8       ??_C@_0DB@HCJMIJNE@UModSys?3?3modules?3?3ui?3?3SDL_core?3?3@ 000000018005bbe8     umodsys_lib_libui:umodsys.mod.ui.SDL_core.obj
 0002:0000fc20       ??_C@_0CK@DOEIPGL@UModSys?3?3modules?3?3ui?3?3SDL_core?3?3@ 000000018005bc20     umodsys_lib_libui:umodsys.mod.ui.SDL_core.obj
 0002:0000fc50       ??_C@_0DG@EGPKIIPE@UModSys?3?3modules?3?3ui?3?3SDL_core?3?3@ 000000018005bc50     umodsys_lib_libui:umodsys.mod.ui.SDL_core.obj
 0002:0000fc88       ??_C@_0DA@ONKEJKMF@UModSys?3?3modules?3?3ui?3?3SDL_core?3?3@ 000000018005bc88     umodsys_lib_libui:umodsys.mod.ui.SDL_core.obj
 0002:0000fcb8       ??_C@_0CL@KIABILAD@UModSys?3?3modules?3?3ui?3?3SDL_core?3?3@ 000000018005bcb8     umodsys_lib_libui:umodsys.mod.ui.SDL_core.obj
 0002:0000fce8       ??_C@_0CL@JNMIGLLO@UModSys?3?3modules?3?3ui?3?3SDL_core?3?3@ 000000018005bce8     umodsys_lib_libui:umodsys.mod.ui.SDL_core.obj
 0002:0000fd18       ??_C@_0N@DNOMPMIF@ui?3?3SDL_core?$AA@ 000000018005bd18     umodsys_lib_libui:umodsys.mod.ui.SDL_core.obj
 0002:0000fd38       ??_7RGenerator@SDL_core@ui@modules@UModSys@@6B@ 000000018005bd38     umodsys_lib_libui:umodsys.mod.ui.SDL_core.obj
 0002:0000fdd8       ??_7RRenderDriver2D@SDL_core@ui@modules@UModSys@@6B@ 000000018005bdd8     umodsys_lib_libui:umodsys.mod.ui.SDL_core.obj
 0002:0000ff08       ??_7RTerminal@SDL_core@ui@modules@UModSys@@6B@ 000000018005bf08     umodsys_lib_libui:umodsys.mod.ui.SDL_core.obj
 0002:0000ffe8       ??_7RKeyboardController@SDL_core@ui@modules@UModSys@@6B@ 000000018005bfe8     umodsys_lib_libui:umodsys.mod.ui.SDL_core.obj
 0002:00010088       ??_7RMouseController@SDL_core@ui@modules@UModSys@@6B@ 000000018005c088     umodsys_lib_libui:umodsys.mod.ui.SDL_core.obj
 0002:00010118       ??_7RMultiImage2D_SDL_ttf@SDL_core@ui@modules@UModSys@@6B@ 000000018005c118     umodsys_lib_libui:umodsys.mod.ui.SDL_core.obj
 0002:000101e8       ??_7RTerminalX@SDL_core@ui@modules@UModSys@@6B@ 000000018005c1e8     umodsys_lib_libui:umodsys.mod.ui.SDL_core.obj
 0002:000102c8       ??_7RModuleReg@SDL_core@ui@modules@UModSys@@6B@ 000000018005c2c8     umodsys_lib_libui:umodsys.mod.ui.SDL_core.obj
 0002:00010300       ??_C@_07LLDKJBMK@general?$AA@ 000000018005c300     umodsys_lib_libui:umodsys.mod.ui.frames.obj
 0002:00010308       ??_C@_06DBHEJNGA@common?$AA@ 000000018005c308     umodsys_lib_libui:umodsys.mod.ui.frames.obj
 0002:00010310       ??_C@_05NGOMGBBD@image?$AA@ 000000018005c310     umodsys_lib_libui:umodsys.mod.ui.frames.obj
 0002:00010318       ??_C@_07LJIPPALJ@picture?$AA@ 000000018005c318     umodsys_lib_libui:umodsys.mod.ui.frames.obj
 0002:00010320       ??_C@_05FEAGNAPL@edge1?$AA@ 000000018005c320     umodsys_lib_libui:umodsys.mod.ui.frames.obj
 0002:00010328       ??_C@_05HPCLIDDI@edge2?$AA@ 000000018005c328     umodsys_lib_libui:umodsys.mod.ui.frames.obj
 0002:00010330       ??_C@_05JGEJPNHM@edges?$AA@ 000000018005c330     umodsys_lib_libui:umodsys.mod.ui.frames.obj
 0002:00010338       ??_C@_05KAHGKAHL@caret?$AA@ 000000018005c338     umodsys_lib_libui:umodsys.mod.ui.frames.obj
 0002:00010340       ??_C@_04JFCNHLLM@back?$AA@ 000000018005c340     umodsys_lib_libui:umodsys.mod.ui.frames.obj
 0002:00010348       ??_C@_04DBFEOIG@fore?$AA@  000000018005c348     umodsys_lib_libui:umodsys.mod.ui.frames.obj
 0002:00010350       ??_C@_06LGNCCACI@select?$AA@ 000000018005c350     umodsys_lib_libui:umodsys.mod.ui.frames.obj
 0002:00010358       ??_C@_08CJLOJPNI@selected?$AA@ 000000018005c358     umodsys_lib_libui:umodsys.mod.ui.frames.obj
 0002:00010364       ??_C@_05PEEJIKOE@focus?$AA@ 000000018005c364     umodsys_lib_libui:umodsys.mod.ui.frames.obj
 0002:00010370       ??_C@_07HIPCAPPH@focused?$AA@ 000000018005c370     umodsys_lib_libui:umodsys.mod.ui.frames.obj
 0002:00010378       ??_C@_06MDLIGPKC@active?$AA@ 000000018005c378     umodsys_lib_libui:umodsys.mod.ui.frames.obj
 0002:00010380       ??_C@_08BEHKFNNO@disabled?$AA@ 000000018005c380     umodsys_lib_libui:umodsys.mod.ui.frames.obj
 0002:00010390       ??_C@_0CM@PKBIIKNO@UModSys?3?3modules?3?3ui?3?3frames?3?3RF@ 000000018005c390     umodsys_lib_libui:umodsys.mod.ui.frames.obj
 0002:000103bc       ??_C@_04CHADEDPO@view?$AA@ 000000018005c3bc     umodsys_lib_libui:umodsys.mod.ui.frames.obj
 0002:000103c4       ??_C@_06ICIJKACG@valign?$AA@ 000000018005c3c4     umodsys_lib_libui:umodsys.mod.ui.frames.obj
 0002:000103cc       ??_C@_06LFGIEHLF@halign?$AA@ 000000018005c3cc     umodsys_lib_libui:umodsys.mod.ui.frames.obj
 0002:000103d8       ??_C@_0CG@IKFOGHCN@UModSys?3?3modules?3?3ui?3?3frames?3?3RD@ 000000018005c3d8     umodsys_lib_libui:umodsys.mod.ui.frames.obj
 0002:00010400       ??_C@_0CL@MFDJGEPD@UModSys?3?3modules?3?3ui?3?3frames?3?3RF@ 000000018005c400     umodsys_lib_libui:umodsys.mod.ui.frames.obj
 0002:00010430       ??_C@_0CL@NLEIFDKD@UModSys?3?3modules?3?3ui?3?3frames?3?3RF@ 000000018005c430     umodsys_lib_libui:umodsys.mod.ui.frames.obj
 0002:00010460       ??_C@_0CK@OBJOECEM@UModSys?3?3modules?3?3ui?3?3frames?3?3RF@ 000000018005c460     umodsys_lib_libui:umodsys.mod.ui.frames.obj
 0002:00010490       ??_C@_0CM@LOMDENHB@UModSys?3?3modules?3?3ui?3?3frames?3?3RF@ 000000018005c490     umodsys_lib_libui:umodsys.mod.ui.frames.obj
 0002:000104c0       ??_C@_0CK@BJEGFCFM@UModSys?3?3modules?3?3ui?3?3frames?3?3RF@ 000000018005c4c0     umodsys_lib_libui:umodsys.mod.ui.frames.obj
 0002:000104f0       ??_C@_0CK@PHINMOFG@UModSys?3?3modules?3?3ui?3?3frames?3?3RF@ 000000018005c4f0     umodsys_lib_libui:umodsys.mod.ui.frames.obj
 0002:00010520       ??_C@_07IIAPCFMK@scrollx?$AA@ 000000018005c520     umodsys_lib_libui:umodsys.mod.ui.frames.obj
 0002:00010528       ??_C@_07JBBEBEIL@scrolly?$AA@ 000000018005c528     umodsys_lib_libui:umodsys.mod.ui.frames.obj
 0002:00010530       ??_C@_0CJ@HCPNAGIM@UModSys?3?3modules?3?3ui?3?3frames?3?3RC@ 000000018005c530     umodsys_lib_libui:umodsys.mod.ui.frames.obj
 0002:0001055c       ??_C@_05MGJOOGAJ@group?$AA@ 000000018005c55c     umodsys_lib_libui:umodsys.mod.ui.frames.obj
 0002:00010568       ??_C@_0CJ@FNJGAPIF@UModSys?3?3modules?3?3ui?3?3frames?3?3RG@ 000000018005c568     umodsys_lib_libui:umodsys.mod.ui.frames.obj
 0002:00010598       ??_C@_0L@BAHBBNCJ@ui?3?3frames?$AA@ 000000018005c598     umodsys_lib_libui:umodsys.mod.ui.frames.obj
 0002:000105b8       ??_7ICollectorThemeTemplate@libui@UModSys@@6B@ 000000018005c5b8     umodsys_lib_libui:umodsys.mod.ui.frames.obj
 0002:00010628       ??_7RGenerator@frames@ui@modules@UModSys@@6B@ 000000018005c628     umodsys_lib_libui:umodsys.mod.ui.frames.obj
 0002:000106c8       ??_7RCollector@frames@ui@modules@UModSys@@6BIRefObject@core@4@@ 000000018005c6c8     umodsys_lib_libui:umodsys.mod.ui.frames.obj
 0002:000107c0       ??_7RCollector@frames@ui@modules@UModSys@@6BICollectorThemeTree@libui@4@@ 000000018005c7c0     umodsys_lib_libui:umodsys.mod.ui.frames.obj
 0002:000107d0       ??_7RCollector@frames@ui@modules@UModSys@@6BIKeyboardClient@libui@4@@ 000000018005c7d0     umodsys_lib_libui:umodsys.mod.ui.frames.obj
 0002:000107e8       ??_7RCollector@frames@ui@modules@UModSys@@6BIMouseClient@libui@4@@ 000000018005c7e8     umodsys_lib_libui:umodsys.mod.ui.frames.obj
 0002:000107f8       ??_7RDialog@frames@ui@modules@UModSys@@6B@ 000000018005c7f8     umodsys_lib_libui:umodsys.mod.ui.frames.obj
 0002:00010888       ??_7RFrame_Common@frames@ui@modules@UModSys@@6BIRefObject@core@4@@ 000000018005c888     umodsys_lib_libui:umodsys.mod.ui.frames.obj
 0002:00010a20       ??_7RFrame_Common@frames@ui@modules@UModSys@@6BICollectorThemeTree@libui@4@@ 000000018005ca20     umodsys_lib_libui:umodsys.mod.ui.frames.obj
 0002:00010a38       ??_7RCollectorTheme@frames@ui@modules@UModSys@@6B@ 000000018005ca38     umodsys_lib_libui:umodsys.mod.ui.frames.obj
 0002:00010aa8       ??_7RFrame_Frame@frames@ui@modules@UModSys@@6BIRefObject@core@4@@ 000000018005caa8     umodsys_lib_libui:umodsys.mod.ui.frames.obj
 0002:00010c40       ??_7RFrame_Frame@frames@ui@modules@UModSys@@6BICollectorThemeTree@libui@4@@ 000000018005cc40     umodsys_lib_libui:umodsys.mod.ui.frames.obj
 0002:00010c58       ??_7RFrame_Image@frames@ui@modules@UModSys@@6BIRefObject@core@4@@ 000000018005cc58     umodsys_lib_libui:umodsys.mod.ui.frames.obj
 0002:00010df0       ??_7RFrame_Image@frames@ui@modules@UModSys@@6BICollectorThemeTree@libui@4@@ 000000018005cdf0     umodsys_lib_libui:umodsys.mod.ui.frames.obj
 0002:00010e08       ??_7RFrame_Text@frames@ui@modules@UModSys@@6BIRefObject@core@4@@ 000000018005ce08     umodsys_lib_libui:umodsys.mod.ui.frames.obj
 0002:00010fa0       ??_7RFrame_Text@frames@ui@modules@UModSys@@6BICollectorThemeTree@libui@4@@ 000000018005cfa0     umodsys_lib_libui:umodsys.mod.ui.frames.obj
 0002:00010fb0       ??_7RFrame_Text@frames@ui@modules@UModSys@@6B@ 000000018005cfb0     umodsys_lib_libui:umodsys.mod.ui.frames.obj
 0002:00010fc8       ??_7RFrame_Button@frames@ui@modules@UModSys@@6BIRefObject@core@4@@ 000000018005cfc8     umodsys_lib_libui:umodsys.mod.ui.frames.obj
 0002:00011160       ??_7RFrame_Button@frames@ui@modules@UModSys@@6BICollectorThemeTree@libui@4@@ 000000018005d160     umodsys_lib_libui:umodsys.mod.ui.frames.obj
 0002:00011178       ??_7RFrame_Edit@frames@ui@modules@UModSys@@6BIRefObject@core@4@@ 000000018005d178     umodsys_lib_libui:umodsys.mod.ui.frames.obj
 0002:00011310       ??_7RFrame_Edit@frames@ui@modules@UModSys@@6BICollectorThemeTree@libui@4@@ 000000018005d310     umodsys_lib_libui:umodsys.mod.ui.frames.obj
 0002:00011320       ??_7RFrame_Edit@frames@ui@modules@UModSys@@6B@ 000000018005d320     umodsys_lib_libui:umodsys.mod.ui.frames.obj
 0002:00011338       ??_7RFrame_List@frames@ui@modules@UModSys@@6BIRefObject@core@4@@ 000000018005d338     umodsys_lib_libui:umodsys.mod.ui.frames.obj
 0002:000114d0       ??_7RFrame_List@frames@ui@modules@UModSys@@6BICollectorThemeTree@libui@4@@ 000000018005d4d0     umodsys_lib_libui:umodsys.mod.ui.frames.obj
 0002:000114e0       ??_7RFrame_List@frames@ui@modules@UModSys@@6BIFrameList@libui@4@@ 000000018005d4e0     umodsys_lib_libui:umodsys.mod.ui.frames.obj
 0002:00011508       ??_7RFrame_List@frames@ui@modules@UModSys@@6BIFrameData@libui@4@@ 000000018005d508     umodsys_lib_libui:umodsys.mod.ui.frames.obj
 0002:00011528       ??_7RModuleReg@frames@ui@modules@UModSys@@6B@ 000000018005d528     umodsys_lib_libui:umodsys.mod.ui.frames.obj
 0002:00011560       ??_C@_0DC@OJAOGACO@UModSys?3?3modules?3?3media?3?3images_@ 000000018005d560     umodsys_lib_libmedia:umodsys.mod.media.images_std.obj
 0002:00011598       ??_C@_0BH@FAPHCJAO@image_palette_alphakey?$AA@ 000000018005d598     umodsys_lib_libmedia:umodsys.mod.media.images_std.obj
 0002:000115b0       ??_C@_0L@MIOOFCJG@image_hint?$AA@ 000000018005d5b0     umodsys_lib_libmedia:umodsys.mod.media.images_std.obj
 0002:000115c0       ??_C@_0M@CPFHCGMF@image_alpha?$AA@ 000000018005d5c0     umodsys_lib_libmedia:umodsys.mod.media.images_std.obj
 0002:000115cc       ??_C@_04GNPKBLNA@?4jpg?$AA@ 000000018005d5cc     umodsys_lib_libmedia:umodsys.mod.media.images_std.obj
 0002:000115d4       ??_C@_05KPIGABMB@?4jpeg?$AA@ 000000018005d5d4     umodsys_lib_libmedia:umodsys.mod.media.images_std.obj
 0002:000115dc       ??_C@_04EEOGCCFB@?4png?$AA@ 000000018005d5dc     umodsys_lib_libmedia:umodsys.mod.media.images_std.obj
 0002:000115e8       ??_C@_0CB@LKENOGAK@PNG?5FATAL?5ERROR?3?5png?5error?5?9?5?$CFs?6@ 000000018005d5e8     umodsys_lib_libmedia:umodsys.mod.media.images_std.obj
 0002:00011610       ??_C@_0L@BAFDDAPG@Read?5Error?$AA@ 000000018005d610     umodsys_lib_libmedia:umodsys.mod.media.images_std.obj
 0002:00011620       ??_C@_0M@POLPJMAP@Write?5Error?$AA@ 000000018005d620     umodsys_lib_libmedia:umodsys.mod.media.images_std.obj
 0002:00011630       ??_C@_0M@PMDCBFIO@1?47?40beta06?$AA@ 000000018005d630     umodsys_lib_libmedia:umodsys.mod.media.images_std.obj
 0002:00011640       ??_C@_0DA@GEKJILHJ@UModSys?3?3modules?3?3media?3?3images_@ 000000018005d640     umodsys_lib_libmedia:umodsys.mod.media.images_std.obj
 0002:00011670       ??_C@_0BC@FLDHBKGG@media?3?3images_std?$AA@ 000000018005d670     umodsys_lib_libmedia:umodsys.mod.media.images_std.obj
 0002:00011698       ??_7RGenerator@images_std@media@modules@UModSys@@6B@ 000000018005d698     umodsys_lib_libmedia:umodsys.mod.media.images_std.obj
 0002:00011738       ??_7RMediaFilter@images_std@media@modules@UModSys@@6BIRefObject@core@4@@ 000000018005d738     umodsys_lib_libmedia:umodsys.mod.media.images_std.obj
 0002:000117b8       ??_7RMediaFilter@images_std@media@modules@UModSys@@6BISetter@SFlags@libmedia@4@@ 000000018005d7b8     umodsys_lib_libmedia:umodsys.mod.media.images_std.obj
 0002:000117d8       ??_7RModuleReg@images_std@media@modules@UModSys@@6B@ 000000018005d7d8     umodsys_lib_libmedia:umodsys.mod.media.images_std.obj
 0002:00011810       ??_C@_02MCKKLHBJ@?2?$CC?$AA@ 000000018005d810     umodsys_lib_libmedia:umodsys.mod.media.serialize_json.obj
 0002:00011814       ??_C@_02HDBGODGB@?2?2?$AA@ 000000018005d814     umodsys_lib_libmedia:umodsys.mod.media.serialize_json.obj
 0002:00011818       ??_C@_02HHAEMJFE@?2?1?$AA@ 000000018005d818     umodsys_lib_libmedia:umodsys.mod.media.serialize_json.obj
 0002:0001181c       ??_C@_02DCNDPIBM@?2b?$AA@  000000018005d81c     umodsys_lib_libmedia:umodsys.mod.media.serialize_json.obj
 0002:00011820       ??_C@_02FGLPDNBI@?2f?$AA@  000000018005d820     umodsys_lib_libmedia:umodsys.mod.media.serialize_json.obj
 0002:00011824       ??_C@_02JOGGLHBA@?2n?$AA@  000000018005d824     umodsys_lib_libmedia:umodsys.mod.media.serialize_json.obj
 0002:00011828       ??_C@_02HIBBOKEN@?2r?$AA@  000000018005d828     umodsys_lib_libmedia:umodsys.mod.media.serialize_json.obj
 0002:0001182c       ??_C@_02COELENML@?2t?$AA@  000000018005d82c     umodsys_lib_libmedia:umodsys.mod.media.serialize_json.obj
 0002:00011830       ??_C@_06OAIHNJFH@?2u?$CF04x?$AA@ 000000018005d830     umodsys_lib_libmedia:umodsys.mod.media.serialize_json.obj
 0002:00011838       ??_C@_0DK@FEBMMGOH@UModSys?3?3modules?3?3media?3?3seriali@ 000000018005d838     umodsys_lib_libmedia:umodsys.mod.media.serialize_json.obj
 0002:00011878       ??_C@_09GAOHCOAP@No?5parser?$AA@ 000000018005d878     umodsys_lib_libmedia:umodsys.mod.media.serialize_json.obj
 0002:00011888       ??_C@_0N@OHBPFNDO@Memory?5error?$AA@ 000000018005d888     umodsys_lib_libmedia:umodsys.mod.media.serialize_json.obj
 0002:00011898       ??_C@_0BE@NECDPAKH@Bad?5escape?5sequence?$AA@ 000000018005d898     umodsys_lib_libmedia:umodsys.mod.media.serialize_json.obj
 0002:000118b0       ??_C@_0BA@BOAELAPB@Structure?5error?$AA@ 000000018005d8b0     umodsys_lib_libmedia:umodsys.mod.media.serialize_json.obj
 0002:000118c0       ??_C@_0N@ICGFMCGA@Parser?5error?$AA@ 000000018005d8c0     umodsys_lib_libmedia:umodsys.mod.media.serialize_json.obj
 0002:000118d0       ??_C@_04LOAJBDKD@true?$AA@ 000000018005d8d0     umodsys_lib_libmedia:umodsys.mod.media.serialize_json.obj
 0002:000118d8       ??_C@_05LAPONLG@false?$AA@ 000000018005d8d8     umodsys_lib_libmedia:umodsys.mod.media.serialize_json.obj
 0002:000118e0       ??_C@_04MLLLIHIP@null?$AA@ 000000018005d8e0     umodsys_lib_libmedia:umodsys.mod.media.serialize_json.obj
 0002:000118e8       ??_C@_0M@KEPAKIJL@Value?5error?$AA@ 000000018005d8e8     umodsys_lib_libmedia:umodsys.mod.media.serialize_json.obj
 0002:000118f8       ??_C@_0M@JLCCDMKC@buffer_size?$AA@ 000000018005d8f8     umodsys_lib_libmedia:umodsys.mod.media.serialize_json.obj
 0002:00011908       ??_C@_0DK@HIJOMHDN@UModSys?3?3modules?3?3media?3?3seriali@ 000000018005d908     umodsys_lib_libmedia:umodsys.mod.media.serialize_json.obj
 0002:00011944       ??_C@_04PFHMOCHH@?$HL?$CFd?$HN?$AA@ 000000018005d944     umodsys_lib_libmedia:umodsys.mod.media.serialize_json.obj
 0002:00011950       ??_C@_09BONHALO@?$HL?$CFu?6?$CC?$CFs?$CC?$HN?$AA@ 000000018005d950     umodsys_lib_libmedia:umodsys.mod.media.serialize_json.obj
 0002:0001195c       ??_C@_03JALODAI@?$CFld?$AA@ 000000018005d95c     umodsys_lib_libmedia:umodsys.mod.media.serialize_json.obj
 0002:00011960       ??_C@_02CGLCDNAE@?$CFe?$AA@ 000000018005d960     umodsys_lib_libmedia:umodsys.mod.media.serialize_json.obj
 0002:00011968       ??_C@_09DKCFLKBL@skip_step?$AA@ 000000018005d968     umodsys_lib_libmedia:umodsys.mod.media.serialize_json.obj
 0002:00011978       ??_C@_0L@BBIOCPNN@?$HLSIZE?5?$CFld?$HN?$AA@ 000000018005d978     umodsys_lib_libmedia:umodsys.mod.media.serialize_json.obj
 0002:00011988       ??_C@_0DE@EGKBDJOG@UModSys?3?3modules?3?3media?3?3seriali@ 000000018005d988     umodsys_lib_libmedia:umodsys.mod.media.serialize_json.obj
 0002:000119c8       ??_7RGenerator@serialize_json@media@modules@UModSys@@6B@ 000000018005d9c8     umodsys_lib_libmedia:umodsys.mod.media.serialize_json.obj
 0002:00011a68       ??_7RSerializeReader@serialize_json@media@modules@UModSys@@6B@ 000000018005da68     umodsys_lib_libmedia:umodsys.mod.media.serialize_json.obj
 0002:00011ae8       ??_7RSerializeWriter@serialize_json@media@modules@UModSys@@6BIRefObject@core@4@@ 000000018005dae8     umodsys_lib_libmedia:umodsys.mod.media.serialize_json.obj
 0002:00011b58       ??_7RSerializeWriter@serialize_json@media@modules@UModSys@@6BISerializeParser@libmedia@4@@ 000000018005db58     umodsys_lib_libmedia:umodsys.mod.media.serialize_json.obj
 0002:00011b88       ??_7RModuleReg@serialize_json@media@modules@UModSys@@6B@ 000000018005db88     umodsys_lib_libmedia:umodsys.mod.media.serialize_json.obj
 0002:00011bc0       ??_C@_0DK@HMIMBDB@UModSys?3?3modules?3?3media?3?3zlib?3?3R@ 000000018005dbc0     umodsys_lib_libmedia:umodsys.mod.media.zlib.obj
 0002:00011c00       ??_C@_0CK@CJDDEOAL@UModSys?3?3modules?3?3media?3?3zlib?3?3R@ 000000018005dc00     umodsys_lib_libmedia:umodsys.mod.media.zlib.obj
 0002:00011c2c       ??_C@_05HBMOAMF@1?42?47?$AA@ 000000018005dc2c     umodsys_lib_libmedia:umodsys.mod.media.zlib.obj
 0002:00011c38       ??_C@_0M@DGJEMLOB@compression?$AA@ 000000018005dc38     umodsys_lib_libmedia:umodsys.mod.media.zlib.obj
 0002:00011c48       ??_C@_0M@FMHEMKFE@media?3?3zlib?$AA@ 000000018005dc48     umodsys_lib_libmedia:umodsys.mod.media.zlib.obj
 0002:00011c68       ??_7RGenerator@zlib@media@modules@UModSys@@6B@ 000000018005dc68     umodsys_lib_libmedia:umodsys.mod.media.zlib.obj
 0002:00011d08       ??_7RBinArchiveFrameClient_ZIP@zlib@media@modules@UModSys@@6B@ 000000018005dd08     umodsys_lib_libmedia:umodsys.mod.media.zlib.obj
 0002:00011de8       ??_7RModuleReg@zlib@media@modules@UModSys@@6B@ 000000018005dde8     umodsys_lib_libmedia:umodsys.mod.media.zlib.obj
 0002:00011e28       ??_7RModuleLibraryReg_Chain@base@UModSys@@6B@ 000000018005de28     umodsys_lib_base:umodsys.base.moduleregchain.obj
 0002:00011e68       ??_7IModuleReg@base@UModSys@@6B@ 000000018005de68     umodsys_lib_base:umodsys.base.modulereg.obj
 0002:00011ea8       ??_7IModuleLibraryReg@base@UModSys@@6B@ 000000018005dea8     umodsys_lib_base:umodsys.base.modulereg.obj
 0002:00011f08       __real@437f0000            000000018005df08      CIL library: CIL module
 0002:00011f10       __real@406fe00000000000    000000018005df10      CIL library: CIL module
 0002:00011f18       __real@447a0000            000000018005df18      CIL library: CIL module
 0002:00011f20       __real@3fe0000000000000    000000018005df20      CIL library: CIL module
 0002:00011f58       __real@3f50624dd2f1a9fc    000000018005df58      CIL library: CIL module
 0002:00012258       __real@3f000000            000000018005e258      CIL library: CIL module
 0002:00012260       __real@40090d8072fc7f04    000000018005e260      CIL library: CIL module
 0002:00012268       __real@3f847ae147ae147b    000000018005e268      CIL library: CIL module
 0002:00012270       __real@3f800000            000000018005e270      CIL library: CIL module
 0002:000122d8       __real@3c23d70a            000000018005e2d8      CIL library: CIL module
 0002:000122e0       __real@8000000000000000    000000018005e2e0      CIL library: CIL module
 0002:000122e8       __real@bfe0000000000000    000000018005e2e8      CIL library: CIL module
 0002:00012528       __real@40000000            000000018005e528      CIL library: CIL module
 0002:00012530       __real@3ff0000000000000    000000018005e530      CIL library: CIL module
 0002:000126b8       __real@3f19999a            000000018005e6b8      CIL library: CIL module
 0002:000126bc       __real@3f333333            000000018005e6bc      CIL library: CIL module
 0002:00012960       ??_R4type_info@@6B@        000000018005e960     MSVCRT:ti_inst.obj
 0002:00012988       ??_R3type_info@@8          000000018005e988     MSVCRT:ti_inst.obj
 0002:000129a0       ??_R2type_info@@8          000000018005e9a0     MSVCRT:ti_inst.obj
 0002:000129b0       ??_R1A@?0A@EA@type_info@@8 000000018005e9b0     MSVCRT:ti_inst.obj
 0002:000129d8       ??_R4RModuleReg@test1@test@modules@UModSys@@6B@ 000000018005e9d8     plugin_test1.obj
 0002:00012a00       ??_R3RModuleReg@test1@test@modules@UModSys@@8 000000018005ea00     plugin_test1.obj
 0002:00012a18       ??_R2RModuleReg@test1@test@modules@UModSys@@8 000000018005ea18     plugin_test1.obj
 0002:00012a30       ??_R1A@?0A@EA@IModuleReg@base@UModSys@@8 000000018005ea30     plugin_test1.obj
 0002:00012a58       ??_R3IModuleReg@base@UModSys@@8 000000018005ea58     plugin_test1.obj
 0002:00012a70       ??_R2IModuleReg@base@UModSys@@8 000000018005ea70     plugin_test1.obj
 0002:00012a80       ??_R1A@?0A@EA@RModuleReg@test1@test@modules@UModSys@@8 000000018005ea80     plugin_test1.obj
 0002:00012aa8       ??_R4RGenerator@test1@test@modules@UModSys@@6B@ 000000018005eaa8     plugin_test1.obj
 0002:00012ad0       ??_R3RGenerator@test1@test@modules@UModSys@@8 000000018005ead0     plugin_test1.obj
 0002:00012ae8       ??_R2RGenerator@test1@test@modules@UModSys@@8 000000018005eae8     plugin_test1.obj
 0002:00012b18       ??_R1A@?0A@EA@RGenerator@test1@test@modules@UModSys@@8 000000018005eb18     plugin_test1.obj
 0002:00012b40       ??_R4RTest1_Shell@test1@test@modules@UModSys@@6BIControllerData@libui@4@@ 000000018005eb40     plugin_test1.obj
 0002:00012b68       ??_R4RTest1_Shell@test1@test@modules@UModSys@@6BIControllerCommand@libui@4@@ 000000018005eb68     plugin_test1.obj
 0002:00012b90       ??_R4RTest1_Shell@test1@test@modules@UModSys@@6BIMouseClient@libui@4@@ 000000018005eb90     plugin_test1.obj
 0002:00012bb8       ??_R4RTest1_Shell@test1@test@modules@UModSys@@6BIKeyboardClient@libui@4@@ 000000018005ebb8     plugin_test1.obj
 0002:00012be0       ??_R4RTest1_Shell@test1@test@modules@UModSys@@6BIShell@base@4@@ 000000018005ebe0     plugin_test1.obj
 0002:00012c08       ??_R3RTest1_Shell@test1@test@modules@UModSys@@8 000000018005ec08     plugin_test1.obj
 0002:00012c20       ??_R2RTest1_Shell@test1@test@modules@UModSys@@8 000000018005ec20     plugin_test1.obj
 0002:00012c70       ??_R1CA@?0A@EA@IControllerData@libui@UModSys@@8 000000018005ec70     plugin_test1.obj
 0002:00012c98       ??_R1BI@?0A@EA@IControllerCommand@libui@UModSys@@8 000000018005ec98     plugin_test1.obj
 0002:00012cc0       ??_R1BI@?0A@EA@IController@libui@UModSys@@8 000000018005ecc0     plugin_test1.obj
 0002:00012ce8       ??_R1BA@?0A@EA@IMouseClient@libui@UModSys@@8 000000018005ece8     plugin_test1.obj
 0002:00012d10       ??_R17?0A@EA@IKeyboardClient@libui@UModSys@@8 000000018005ed10     plugin_test1.obj
 0002:00012d38       ??_R1A@?0A@EA@RTest1_Shell@test1@test@modules@UModSys@@8 000000018005ed38     plugin_test1.obj
 0002:00012d60       ??_R3IController@libui@UModSys@@8 000000018005ed60     plugin_test1.obj
 0002:00012d78       ??_R2IController@libui@UModSys@@8 000000018005ed78     plugin_test1.obj
 0002:00012d98       ??_R17?0A@EA@IControllerData@libui@UModSys@@8 000000018005ed98     plugin_test1.obj
 0002:00012dc0       ??_R1A@?0A@EA@IController@libui@UModSys@@8 000000018005edc0     plugin_test1.obj
 0002:00012de8       ??_R3IControllerData@libui@UModSys@@8 000000018005ede8     plugin_test1.obj
 0002:00012e00       ??_R2IControllerData@libui@UModSys@@8 000000018005ee00     plugin_test1.obj
 0002:00012e10       ??_R1A@?0A@EA@IControllerData@libui@UModSys@@8 000000018005ee10     plugin_test1.obj
 0002:00012e38       ??_R3IControllerCommand@libui@UModSys@@8 000000018005ee38     plugin_test1.obj
 0002:00012e50       ??_R2IControllerCommand@libui@UModSys@@8 000000018005ee50     plugin_test1.obj
 0002:00012e60       ??_R1A@?0A@EA@IControllerCommand@libui@UModSys@@8 000000018005ee60     plugin_test1.obj
 0002:00012e88       ??_R3IMouseClient@libui@UModSys@@8 000000018005ee88     plugin_test1.obj
 0002:00012ea0       ??_R2IMouseClient@libui@UModSys@@8 000000018005eea0     plugin_test1.obj
 0002:00012eb0       ??_R1A@?0A@EA@IMouseClient@libui@UModSys@@8 000000018005eeb0     plugin_test1.obj
 0002:00012ed8       ??_R3IKeyboardClient@libui@UModSys@@8 000000018005eed8     plugin_test1.obj
 0002:00012ef0       ??_R2IKeyboardClient@libui@UModSys@@8 000000018005eef0     plugin_test1.obj
 0002:00012f00       ??_R1A@?0A@EA@IKeyboardClient@libui@UModSys@@8 000000018005ef00     plugin_test1.obj
 0002:00012f28       ??_R3IBinObjFilter@libmedia@UModSys@@8 000000018005ef28     plugin_test1.obj
 0002:00012f40       ??_R2IBinObjFilter@libmedia@UModSys@@8 000000018005ef40     plugin_test1.obj
 0002:00012f80       ??_R1A@?0A@EA@IBinObjFilter@libmedia@UModSys@@8 000000018005ef80     plugin_test1.obj
 0002:00012fa8       ??_R3ILibObject@libmedia@UModSys@@8 000000018005efa8     plugin_test1.obj
 0002:00012fc0       ??_R2ILibObject@libmedia@UModSys@@8 000000018005efc0     plugin_test1.obj
 0002:00012ff8       ??_R17?0A@EA@IResolver@SFlags@libmedia@UModSys@@8 000000018005eff8     plugin_test1.obj
 0002:00013020       ??_R17?0A@EA@IResolverAuto@SFlags@libmedia@UModSys@@8 000000018005f020     plugin_test1.obj
 0002:00013048       ??_R17?0A@EA@ISetter@SFlags@libmedia@UModSys@@8 000000018005f048     plugin_test1.obj
 0002:00013070       ??_R3ISetter@SFlags@libmedia@UModSys@@8 000000018005f070     plugin_test1.obj
 0002:00013088       ??_R2ISetter@SFlags@libmedia@UModSys@@8 000000018005f088     plugin_test1.obj
 0002:000130a8       ??_R1A@?0A@EA@IResolverAuto@SFlags@libmedia@UModSys@@8 000000018005f0a8     plugin_test1.obj
 0002:000130d0       ??_R3IResolverAuto@SFlags@libmedia@UModSys@@8 000000018005f0d0     plugin_test1.obj
 0002:000130e8       ??_R2IResolverAuto@SFlags@libmedia@UModSys@@8 000000018005f0e8     plugin_test1.obj
 0002:00013100       ??_R1A@?0A@EA@IResolver@SFlags@libmedia@UModSys@@8 000000018005f100     plugin_test1.obj
 0002:00013128       ??_R3IResolver@SFlags@libmedia@UModSys@@8 000000018005f128     plugin_test1.obj
 0002:00013140       ??_R2IResolver@SFlags@libmedia@UModSys@@8 000000018005f140     plugin_test1.obj
 0002:00013150       ??_R1A@?0A@EA@ISetter@SFlags@libmedia@UModSys@@8 000000018005f150     plugin_test1.obj
 0002:00013178       ??_R1A@?0A@EA@ILibObject@libmedia@UModSys@@8 000000018005f178     plugin_test1.obj
 0002:000131a0       ??_R3IShell@base@UModSys@@8 000000018005f1a0     plugin_test1.obj
 0002:000131b8       ??_R2IShell@base@UModSys@@8 000000018005f1b8     plugin_test1.obj
 0002:000131d8       ??_R1A@?0A@EA@IShell@base@UModSys@@8 000000018005f1d8     plugin_test1.obj
 0002:00013200       ??_R3IGenerator@base@UModSys@@8 000000018005f200     plugin_test1.obj
 0002:00013218       ??_R2IGenerator@base@UModSys@@8 000000018005f218     plugin_test1.obj
 0002:00013240       ??_R1A@?0A@EA@IGenerator@base@UModSys@@8 000000018005f240     plugin_test1.obj
 0002:00013268       ??_R3IModObject@base@UModSys@@8 000000018005f268     plugin_test1.obj
 0002:00013280       ??_R2IModObject@base@UModSys@@8 000000018005f280     plugin_test1.obj
 0002:000132a0       ??_R1A@?0A@EA@IModObject@base@UModSys@@8 000000018005f2a0     plugin_test1.obj
 0002:000132c8       ??_R4IRefObject@core@UModSys@@6B@ 000000018005f2c8     plugin_test1.obj
 0002:000132f0       ??_R3IRefObject@core@UModSys@@8 000000018005f2f0     plugin_test1.obj
 0002:00013308       ??_R2IRefObject@core@UModSys@@8 000000018005f308     plugin_test1.obj
 0002:00013320       ??_R1A@?0A@EA@IRefObject@core@UModSys@@8 000000018005f320     plugin_test1.obj
 0002:00013348       ??_R4IRoot@core@UModSys@@6B@ 000000018005f348     plugin_test1.obj
 0002:00013370       ??_R3IRoot@core@UModSys@@8 000000018005f370     plugin_test1.obj
 0002:00013388       ??_R2IRoot@core@UModSys@@8 000000018005f388     plugin_test1.obj
 0002:00013398       ??_R1A@?0A@EA@IRoot@core@UModSys@@8 000000018005f398     plugin_test1.obj
 0002:000133c0       ??_R4RModuleReg@stdlib@lib2d@modules@UModSys@@6B@ 000000018005f3c0     umodsys_lib_lib2d:umodsys.mod.2d.stdlib.obj
 0002:000133e8       ??_R3RModuleReg@stdlib@lib2d@modules@UModSys@@8 000000018005f3e8     umodsys_lib_lib2d:umodsys.mod.2d.stdlib.obj
 0002:00013400       ??_R2RModuleReg@stdlib@lib2d@modules@UModSys@@8 000000018005f400     umodsys_lib_lib2d:umodsys.mod.2d.stdlib.obj
 0002:00013418       ??_R1A@?0A@EA@RModuleReg@stdlib@lib2d@modules@UModSys@@8 000000018005f418     umodsys_lib_lib2d:umodsys.mod.2d.stdlib.obj
 0002:00013440       ??_R4RMultiImage@stdlib@lib2d@modules@UModSys@@6B@ 000000018005f440     umodsys_lib_lib2d:umodsys.mod.2d.stdlib.obj
 0002:00013468       ??_R3RMultiImage@stdlib@lib2d@modules@UModSys@@8 000000018005f468     umodsys_lib_lib2d:umodsys.mod.2d.stdlib.obj
 0002:00013480       ??_R2RMultiImage@stdlib@lib2d@modules@UModSys@@8 000000018005f480     umodsys_lib_lib2d:umodsys.mod.2d.stdlib.obj
 0002:000134a8       ??_R1A@?0A@EA@RMultiImage@stdlib@lib2d@modules@UModSys@@8 000000018005f4a8     umodsys_lib_lib2d:umodsys.mod.2d.stdlib.obj
 0002:000134d0       ??_R4RImageFactory_Memory@stdlib@lib2d@modules@UModSys@@6B@ 000000018005f4d0     umodsys_lib_lib2d:umodsys.mod.2d.stdlib.obj
 0002:000134f8       ??_R3RImageFactory_Memory@stdlib@lib2d@modules@UModSys@@8 000000018005f4f8     umodsys_lib_lib2d:umodsys.mod.2d.stdlib.obj
 0002:00013510       ??_R2RImageFactory_Memory@stdlib@lib2d@modules@UModSys@@8 000000018005f510     umodsys_lib_lib2d:umodsys.mod.2d.stdlib.obj
 0002:00013538       ??_R1A@?0A@EA@RImageFactory_Memory@stdlib@lib2d@modules@UModSys@@8 000000018005f538     umodsys_lib_lib2d:umodsys.mod.2d.stdlib.obj
 0002:00013560       ??_R4RImage_Memory@stdlib@lib2d@modules@UModSys@@6B@ 000000018005f560     umodsys_lib_lib2d:umodsys.mod.2d.stdlib.obj
 0002:00013588       ??_R3RImage_Memory@stdlib@lib2d@modules@UModSys@@8 000000018005f588     umodsys_lib_lib2d:umodsys.mod.2d.stdlib.obj
 0002:000135a0       ??_R2RImage_Memory@stdlib@lib2d@modules@UModSys@@8 000000018005f5a0     umodsys_lib_lib2d:umodsys.mod.2d.stdlib.obj
 0002:000135c8       ??_R1A@?0A@EA@RImage_Memory@stdlib@lib2d@modules@UModSys@@8 000000018005f5c8     umodsys_lib_lib2d:umodsys.mod.2d.stdlib.obj
 0002:000135f0       ??_R4RGenerator@stdlib@lib2d@modules@UModSys@@6B@ 000000018005f5f0     umodsys_lib_lib2d:umodsys.mod.2d.stdlib.obj
 0002:00013618       ??_R3RGenerator@stdlib@lib2d@modules@UModSys@@8 000000018005f618     umodsys_lib_lib2d:umodsys.mod.2d.stdlib.obj
 0002:00013630       ??_R2RGenerator@stdlib@lib2d@modules@UModSys@@8 000000018005f630     umodsys_lib_lib2d:umodsys.mod.2d.stdlib.obj
 0002:00013660       ??_R1A@?0A@EA@RGenerator@stdlib@lib2d@modules@UModSys@@8 000000018005f660     umodsys_lib_lib2d:umodsys.mod.2d.stdlib.obj
 0002:00013688       ??_R3IMultiImage@lib2d@UModSys@@8 000000018005f688     umodsys_lib_lib2d:umodsys.mod.2d.stdlib.obj
 0002:000136a0       ??_R2IMultiImage@lib2d@UModSys@@8 000000018005f6a0     umodsys_lib_lib2d:umodsys.mod.2d.stdlib.obj
 0002:000136c0       ??_R1A@?0A@EA@IMultiImage@lib2d@UModSys@@8 000000018005f6c0     umodsys_lib_lib2d:umodsys.mod.2d.stdlib.obj
 0002:000136e8       ??_R3IImageFactory@lib2d@UModSys@@8 000000018005f6e8     umodsys_lib_lib2d:umodsys.mod.2d.stdlib.obj
 0002:00013700       ??_R2IImageFactory@lib2d@UModSys@@8 000000018005f700     umodsys_lib_lib2d:umodsys.mod.2d.stdlib.obj
 0002:00013720       ??_R1A@?0A@EA@IImageFactory@lib2d@UModSys@@8 000000018005f720     umodsys_lib_lib2d:umodsys.mod.2d.stdlib.obj
 0002:00013748       ??_R3IImage@lib2d@UModSys@@8 000000018005f748     umodsys_lib_lib2d:umodsys.mod.2d.stdlib.obj
 0002:00013760       ??_R2IImage@lib2d@UModSys@@8 000000018005f760     umodsys_lib_lib2d:umodsys.mod.2d.stdlib.obj
 0002:00013780       ??_R1A@?0A@EA@IImage@lib2d@UModSys@@8 000000018005f780     umodsys_lib_lib2d:umodsys.mod.2d.stdlib.obj
 0002:000137a8       ??_R4RModuleReg@SDL_GL@ui@modules@UModSys@@6B@ 000000018005f7a8     umodsys_lib_libui:umodsys.mod.ui.SDL_GL.obj
 0002:000137d0       ??_R3RModuleReg@SDL_GL@ui@modules@UModSys@@8 000000018005f7d0     umodsys_lib_libui:umodsys.mod.ui.SDL_GL.obj
 0002:000137e8       ??_R2RModuleReg@SDL_GL@ui@modules@UModSys@@8 000000018005f7e8     umodsys_lib_libui:umodsys.mod.ui.SDL_GL.obj
 0002:00013800       ??_R1A@?0A@EA@RModuleReg@SDL_GL@ui@modules@UModSys@@8 000000018005f800     umodsys_lib_libui:umodsys.mod.ui.SDL_GL.obj
 0002:00013828       ??_R4RVertexArray@SDL_GL@ui@modules@UModSys@@6B@ 000000018005f828     umodsys_lib_libui:umodsys.mod.ui.SDL_GL.obj
 0002:00013850       ??_R3RVertexArray@SDL_GL@ui@modules@UModSys@@8 000000018005f850     umodsys_lib_libui:umodsys.mod.ui.SDL_GL.obj
 0002:00013868       ??_R2RVertexArray@SDL_GL@ui@modules@UModSys@@8 000000018005f868     umodsys_lib_libui:umodsys.mod.ui.SDL_GL.obj
 0002:00013890       ??_R1A@?0A@EA@RVertexArray@SDL_GL@ui@modules@UModSys@@8 000000018005f890     umodsys_lib_libui:umodsys.mod.ui.SDL_GL.obj
 0002:000138b8       ??_R4RTerminalX@SDL_GL@ui@modules@UModSys@@6B@ 000000018005f8b8     umodsys_lib_libui:umodsys.mod.ui.SDL_GL.obj
 0002:000138e0       ??_R3RTerminalX@SDL_GL@ui@modules@UModSys@@8 000000018005f8e0     umodsys_lib_libui:umodsys.mod.ui.SDL_GL.obj
 0002:000138f8       ??_R2RTerminalX@SDL_GL@ui@modules@UModSys@@8 000000018005f8f8     umodsys_lib_libui:umodsys.mod.ui.SDL_GL.obj
 0002:00013928       ??_R1A@?0A@EA@RTerminalX@SDL_GL@ui@modules@UModSys@@8 000000018005f928     umodsys_lib_libui:umodsys.mod.ui.SDL_GL.obj
 0002:00013950       ??_R4RMultiImage2D_SDL_ttf@SDL_GL@ui@modules@UModSys@@6B@ 000000018005f950     umodsys_lib_libui:umodsys.mod.ui.SDL_GL.obj
 0002:00013978       ??_R3RMultiImage2D_SDL_ttf@SDL_GL@ui@modules@UModSys@@8 000000018005f978     umodsys_lib_libui:umodsys.mod.ui.SDL_GL.obj
 0002:00013990       ??_R2RMultiImage2D_SDL_ttf@SDL_GL@ui@modules@UModSys@@8 000000018005f990     umodsys_lib_libui:umodsys.mod.ui.SDL_GL.obj
 0002:000139b8       ??_R1A@?0A@EA@RMultiImage2D_SDL_ttf@SDL_GL@ui@modules@UModSys@@8 000000018005f9b8     umodsys_lib_libui:umodsys.mod.ui.SDL_GL.obj
 0002:000139e0       ??_R4RMouseController@SDL_GL@ui@modules@UModSys@@6B@ 000000018005f9e0     umodsys_lib_libui:umodsys.mod.ui.SDL_GL.obj
 0002:00013a08       ??_R3RMouseController@SDL_GL@ui@modules@UModSys@@8 000000018005fa08     umodsys_lib_libui:umodsys.mod.ui.SDL_GL.obj
 0002:00013a20       ??_R2RMouseController@SDL_GL@ui@modules@UModSys@@8 000000018005fa20     umodsys_lib_libui:umodsys.mod.ui.SDL_GL.obj
 0002:00013a48       ??_R1A@?0A@EA@RMouseController@SDL_GL@ui@modules@UModSys@@8 000000018005fa48     umodsys_lib_libui:umodsys.mod.ui.SDL_GL.obj
 0002:00013a70       ??_R4RKeyboardController@SDL_GL@ui@modules@UModSys@@6B@ 000000018005fa70     umodsys_lib_libui:umodsys.mod.ui.SDL_GL.obj
 0002:00013a98       ??_R3RKeyboardController@SDL_GL@ui@modules@UModSys@@8 000000018005fa98     umodsys_lib_libui:umodsys.mod.ui.SDL_GL.obj
 0002:00013ab0       ??_R2RKeyboardController@SDL_GL@ui@modules@UModSys@@8 000000018005fab0     umodsys_lib_libui:umodsys.mod.ui.SDL_GL.obj
 0002:00013ad8       ??_R1A@?0A@EA@RKeyboardController@SDL_GL@ui@modules@UModSys@@8 000000018005fad8     umodsys_lib_libui:umodsys.mod.ui.SDL_GL.obj
 0002:00013b00       ??_R4RTerminal@SDL_GL@ui@modules@UModSys@@6B@ 000000018005fb00     umodsys_lib_libui:umodsys.mod.ui.SDL_GL.obj
 0002:00013b28       ??_R3RTerminal@SDL_GL@ui@modules@UModSys@@8 000000018005fb28     umodsys_lib_libui:umodsys.mod.ui.SDL_GL.obj
 0002:00013b40       ??_R2RTerminal@SDL_GL@ui@modules@UModSys@@8 000000018005fb40     umodsys_lib_libui:umodsys.mod.ui.SDL_GL.obj
 0002:00013b68       ??_R1A@?0A@EA@RTerminal@SDL_GL@ui@modules@UModSys@@8 000000018005fb68     umodsys_lib_libui:umodsys.mod.ui.SDL_GL.obj
 0002:00013b90       ??_R4SGLFuncsLegacy@SDL_GL@ui@modules@UModSys@@6B@ 000000018005fb90     umodsys_lib_libui:umodsys.mod.ui.SDL_GL.obj
 0002:00013bb8       ??_R3SGLFuncsLegacy@SDL_GL@ui@modules@UModSys@@8 000000018005fbb8     umodsys_lib_libui:umodsys.mod.ui.SDL_GL.obj
 0002:00013bd0       ??_R2SGLFuncsLegacy@SDL_GL@ui@modules@UModSys@@8 000000018005fbd0     umodsys_lib_libui:umodsys.mod.ui.SDL_GL.obj
 0002:00013bf0       ??_R1A@?0A@EA@SGLFuncsLegacy@SDL_GL@ui@modules@UModSys@@8 000000018005fbf0     umodsys_lib_libui:umodsys.mod.ui.SDL_GL.obj
 0002:00013c18       ??_R4SGLFuncs@SDL_GL@ui@modules@UModSys@@6B@ 000000018005fc18     umodsys_lib_libui:umodsys.mod.ui.SDL_GL.obj
 0002:00013c40       ??_R3SGLFuncs@SDL_GL@ui@modules@UModSys@@8 000000018005fc40     umodsys_lib_libui:umodsys.mod.ui.SDL_GL.obj
 0002:00013c58       ??_R2SGLFuncs@SDL_GL@ui@modules@UModSys@@8 000000018005fc58     umodsys_lib_libui:umodsys.mod.ui.SDL_GL.obj
 0002:00013c70       ??_R17?0A@EA@SGLFuncsBase@SDL_GL@ui@modules@UModSys@@8 000000018005fc70     umodsys_lib_libui:umodsys.mod.ui.SDL_GL.obj
 0002:00013c98       ??_R3SGLFuncsBase@SDL_GL@ui@modules@UModSys@@8 000000018005fc98     umodsys_lib_libui:umodsys.mod.ui.SDL_GL.obj
 0002:00013cb0       ??_R2SGLFuncsBase@SDL_GL@ui@modules@UModSys@@8 000000018005fcb0     umodsys_lib_libui:umodsys.mod.ui.SDL_GL.obj
 0002:00013cc0       ??_R1A@?0A@EA@SGLFuncsBase@SDL_GL@ui@modules@UModSys@@8 000000018005fcc0     umodsys_lib_libui:umodsys.mod.ui.SDL_GL.obj
 0002:00013ce8       ??_R1A@?0A@EA@SGLFuncs@SDL_GL@ui@modules@UModSys@@8 000000018005fce8     umodsys_lib_libui:umodsys.mod.ui.SDL_GL.obj
 0002:00013d10       ??_R4RRenderDriver3D@SDL_GL@ui@modules@UModSys@@6B@ 000000018005fd10     umodsys_lib_libui:umodsys.mod.ui.SDL_GL.obj
 0002:00013d38       ??_R3RRenderDriver3D@SDL_GL@ui@modules@UModSys@@8 000000018005fd38     umodsys_lib_libui:umodsys.mod.ui.SDL_GL.obj
 0002:00013d50       ??_R2RRenderDriver3D@SDL_GL@ui@modules@UModSys@@8 000000018005fd50     umodsys_lib_libui:umodsys.mod.ui.SDL_GL.obj
 0002:00013d80       ??_R1A@?0A@EA@RRenderDriver3D@SDL_GL@ui@modules@UModSys@@8 000000018005fd80     umodsys_lib_libui:umodsys.mod.ui.SDL_GL.obj
 0002:00013da8       ??_R4RGenerator@SDL_GL@ui@modules@UModSys@@6B@ 000000018005fda8     umodsys_lib_libui:umodsys.mod.ui.SDL_GL.obj
 0002:00013dd0       ??_R3RGenerator@SDL_GL@ui@modules@UModSys@@8 000000018005fdd0     umodsys_lib_libui:umodsys.mod.ui.SDL_GL.obj
 0002:00013de8       ??_R2RGenerator@SDL_GL@ui@modules@UModSys@@8 000000018005fde8     umodsys_lib_libui:umodsys.mod.ui.SDL_GL.obj
 0002:00013e18       ??_R1A@?0A@EA@RGenerator@SDL_GL@ui@modules@UModSys@@8 000000018005fe18     umodsys_lib_libui:umodsys.mod.ui.SDL_GL.obj
 0002:00013e40       ??_R3IMouseController@libui@UModSys@@8 000000018005fe40     umodsys_lib_libui:umodsys.mod.ui.SDL_GL.obj
 0002:00013e58       ??_R2IMouseController@libui@UModSys@@8 000000018005fe58     umodsys_lib_libui:umodsys.mod.ui.SDL_GL.obj
 0002:00013e78       ??_R1A@?0A@EA@IMouseController@libui@UModSys@@8 000000018005fe78     umodsys_lib_libui:umodsys.mod.ui.SDL_GL.obj
 0002:00013ea0       ??_R3IKeyboardController@libui@UModSys@@8 000000018005fea0     umodsys_lib_libui:umodsys.mod.ui.SDL_GL.obj
 0002:00013eb8       ??_R2IKeyboardController@libui@UModSys@@8 000000018005feb8     umodsys_lib_libui:umodsys.mod.ui.SDL_GL.obj
 0002:00013ed8       ??_R1A@?0A@EA@IKeyboardController@libui@UModSys@@8 000000018005fed8     umodsys_lib_libui:umodsys.mod.ui.SDL_GL.obj
 0002:00013f00       ??_R3ITerminal@libui@UModSys@@8 000000018005ff00     umodsys_lib_libui:umodsys.mod.ui.SDL_GL.obj
 0002:00013f18       ??_R2ITerminal@libui@UModSys@@8 000000018005ff18     umodsys_lib_libui:umodsys.mod.ui.SDL_GL.obj
 0002:00013f38       ??_R1A@?0A@EA@ITerminal@libui@UModSys@@8 000000018005ff38     umodsys_lib_libui:umodsys.mod.ui.SDL_GL.obj
 0002:00013f60       ??_R3IVertexArray@lib3d@UModSys@@8 000000018005ff60     umodsys_lib_libui:umodsys.mod.ui.SDL_GL.obj
 0002:00013f78       ??_R2IVertexArray@lib3d@UModSys@@8 000000018005ff78     umodsys_lib_libui:umodsys.mod.ui.SDL_GL.obj
 0002:00013f98       ??_R1A@?0A@EA@IVertexArray@lib3d@UModSys@@8 000000018005ff98     umodsys_lib_libui:umodsys.mod.ui.SDL_GL.obj
 0002:00013fc0       ??_R3IRenderDriver@lib3d@UModSys@@8 000000018005ffc0     umodsys_lib_libui:umodsys.mod.ui.SDL_GL.obj
 0002:00013fd8       ??_R2IRenderDriver@lib3d@UModSys@@8 000000018005ffd8     umodsys_lib_libui:umodsys.mod.ui.SDL_GL.obj
 0002:00014000       ??_R1A@?0A@EA@IRenderDriver@lib3d@UModSys@@8 0000000180060000     umodsys_lib_libui:umodsys.mod.ui.SDL_GL.obj
 0002:00014028       ??_R3IRenderDriver@lib2d@UModSys@@8 0000000180060028     umodsys_lib_libui:umodsys.mod.ui.SDL_GL.obj
 0002:00014040       ??_R2IRenderDriver@lib2d@UModSys@@8 0000000180060040     umodsys_lib_libui:umodsys.mod.ui.SDL_GL.obj
 0002:00014060       ??_R1A@?0A@EA@IRenderDriver@lib2d@UModSys@@8 0000000180060060     umodsys_lib_libui:umodsys.mod.ui.SDL_GL.obj
 0002:00014088       ??_R4RModuleReg@SDL_core@ui@modules@UModSys@@6B@ 0000000180060088     umodsys_lib_libui:umodsys.mod.ui.SDL_core.obj
 0002:000140b0       ??_R3RModuleReg@SDL_core@ui@modules@UModSys@@8 00000001800600b0     umodsys_lib_libui:umodsys.mod.ui.SDL_core.obj
 0002:000140c8       ??_R2RModuleReg@SDL_core@ui@modules@UModSys@@8 00000001800600c8     umodsys_lib_libui:umodsys.mod.ui.SDL_core.obj
 0002:000140e0       ??_R1A@?0A@EA@RModuleReg@SDL_core@ui@modules@UModSys@@8 00000001800600e0     umodsys_lib_libui:umodsys.mod.ui.SDL_core.obj
 0002:00014108       ??_R4RTerminalX@SDL_core@ui@modules@UModSys@@6B@ 0000000180060108     umodsys_lib_libui:umodsys.mod.ui.SDL_core.obj
 0002:00014130       ??_R3RTerminalX@SDL_core@ui@modules@UModSys@@8 0000000180060130     umodsys_lib_libui:umodsys.mod.ui.SDL_core.obj
 0002:00014148       ??_R2RTerminalX@SDL_core@ui@modules@UModSys@@8 0000000180060148     umodsys_lib_libui:umodsys.mod.ui.SDL_core.obj
 0002:00014178       ??_R1A@?0A@EA@RTerminalX@SDL_core@ui@modules@UModSys@@8 0000000180060178     umodsys_lib_libui:umodsys.mod.ui.SDL_core.obj
 0002:000141a0       ??_R4RMultiImage2D_SDL_ttf@SDL_core@ui@modules@UModSys@@6B@ 00000001800601a0     umodsys_lib_libui:umodsys.mod.ui.SDL_core.obj
 0002:000141c8       ??_R3RMultiImage2D_SDL_ttf@SDL_core@ui@modules@UModSys@@8 00000001800601c8     umodsys_lib_libui:umodsys.mod.ui.SDL_core.obj
 0002:000141e0       ??_R2RMultiImage2D_SDL_ttf@SDL_core@ui@modules@UModSys@@8 00000001800601e0     umodsys_lib_libui:umodsys.mod.ui.SDL_core.obj
 0002:00014208       ??_R1A@?0A@EA@RMultiImage2D_SDL_ttf@SDL_core@ui@modules@UModSys@@8 0000000180060208     umodsys_lib_libui:umodsys.mod.ui.SDL_core.obj
 0002:00014230       ??_R4RMouseController@SDL_core@ui@modules@UModSys@@6B@ 0000000180060230     umodsys_lib_libui:umodsys.mod.ui.SDL_core.obj
 0002:00014258       ??_R3RMouseController@SDL_core@ui@modules@UModSys@@8 0000000180060258     umodsys_lib_libui:umodsys.mod.ui.SDL_core.obj
 0002:00014270       ??_R2RMouseController@SDL_core@ui@modules@UModSys@@8 0000000180060270     umodsys_lib_libui:umodsys.mod.ui.SDL_core.obj
 0002:00014298       ??_R1A@?0A@EA@RMouseController@SDL_core@ui@modules@UModSys@@8 0000000180060298     umodsys_lib_libui:umodsys.mod.ui.SDL_core.obj
 0002:000142c0       ??_R4RKeyboardController@SDL_core@ui@modules@UModSys@@6B@ 00000001800602c0     umodsys_lib_libui:umodsys.mod.ui.SDL_core.obj
 0002:000142e8       ??_R3RKeyboardController@SDL_core@ui@modules@UModSys@@8 00000001800602e8     umodsys_lib_libui:umodsys.mod.ui.SDL_core.obj
 0002:00014300       ??_R2RKeyboardController@SDL_core@ui@modules@UModSys@@8 0000000180060300     umodsys_lib_libui:umodsys.mod.ui.SDL_core.obj
 0002:00014328       ??_R1A@?0A@EA@RKeyboardController@SDL_core@ui@modules@UModSys@@8 0000000180060328     umodsys_lib_libui:umodsys.mod.ui.SDL_core.obj
 0002:00014350       ??_R4RTerminal@SDL_core@ui@modules@UModSys@@6B@ 0000000180060350     umodsys_lib_libui:umodsys.mod.ui.SDL_core.obj
 0002:00014378       ??_R3RTerminal@SDL_core@ui@modules@UModSys@@8 0000000180060378     umodsys_lib_libui:umodsys.mod.ui.SDL_core.obj
 0002:00014390       ??_R2RTerminal@SDL_core@ui@modules@UModSys@@8 0000000180060390     umodsys_lib_libui:umodsys.mod.ui.SDL_core.obj
 0002:000143b8       ??_R1A@?0A@EA@RTerminal@SDL_core@ui@modules@UModSys@@8 00000001800603b8     umodsys_lib_libui:umodsys.mod.ui.SDL_core.obj
 0002:000143e0       ??_R4RRenderDriver2D@SDL_core@ui@modules@UModSys@@6B@ 00000001800603e0     umodsys_lib_libui:umodsys.mod.ui.SDL_core.obj
 0002:00014408       ??_R3RRenderDriver2D@SDL_core@ui@modules@UModSys@@8 0000000180060408     umodsys_lib_libui:umodsys.mod.ui.SDL_core.obj
 0002:00014420       ??_R2RRenderDriver2D@SDL_core@ui@modules@UModSys@@8 0000000180060420     umodsys_lib_libui:umodsys.mod.ui.SDL_core.obj
 0002:00014448       ??_R1A@?0A@EA@RRenderDriver2D@SDL_core@ui@modules@UModSys@@8 0000000180060448     umodsys_lib_libui:umodsys.mod.ui.SDL_core.obj
 0002:00014470       ??_R4RGenerator@SDL_core@ui@modules@UModSys@@6B@ 0000000180060470     umodsys_lib_libui:umodsys.mod.ui.SDL_core.obj
 0002:00014498       ??_R3RGenerator@SDL_core@ui@modules@UModSys@@8 0000000180060498     umodsys_lib_libui:umodsys.mod.ui.SDL_core.obj
 0002:000144b0       ??_R2RGenerator@SDL_core@ui@modules@UModSys@@8 00000001800604b0     umodsys_lib_libui:umodsys.mod.ui.SDL_core.obj
 0002:000144e0       ??_R1A@?0A@EA@RGenerator@SDL_core@ui@modules@UModSys@@8 00000001800604e0     umodsys_lib_libui:umodsys.mod.ui.SDL_core.obj
 0002:00014508       ??_R4RModuleReg@frames@ui@modules@UModSys@@6B@ 0000000180060508     umodsys_lib_libui:umodsys.mod.ui.frames.obj
 0002:00014530       ??_R3RModuleReg@frames@ui@modules@UModSys@@8 0000000180060530     umodsys_lib_libui:umodsys.mod.ui.frames.obj
 0002:00014548       ??_R2RModuleReg@frames@ui@modules@UModSys@@8 0000000180060548     umodsys_lib_libui:umodsys.mod.ui.frames.obj
 0002:00014560       ??_R1A@?0A@EA@RModuleReg@frames@ui@modules@UModSys@@8 0000000180060560     umodsys_lib_libui:umodsys.mod.ui.frames.obj
 0002:00014588       ??_R4RFrame_List@frames@ui@modules@UModSys@@6BIFrameData@libui@4@@ 0000000180060588     umodsys_lib_libui:umodsys.mod.ui.frames.obj
 0002:000145b0       ??_R4RFrame_List@frames@ui@modules@UModSys@@6BIFrameList@libui@4@@ 00000001800605b0     umodsys_lib_libui:umodsys.mod.ui.frames.obj
 0002:000145d8       ??_R4RFrame_List@frames@ui@modules@UModSys@@6BICollectorThemeTree@libui@4@@ 00000001800605d8     umodsys_lib_libui:umodsys.mod.ui.frames.obj
 0002:00014600       ??_R4RFrame_List@frames@ui@modules@UModSys@@6BIRefObject@core@4@@ 0000000180060600     umodsys_lib_libui:umodsys.mod.ui.frames.obj
 0002:00014628       ??_R3RFrame_List@frames@ui@modules@UModSys@@8 0000000180060628     umodsys_lib_libui:umodsys.mod.ui.frames.obj
 0002:00014640       ??_R2RFrame_List@frames@ui@modules@UModSys@@8 0000000180060640     umodsys_lib_libui:umodsys.mod.ui.frames.obj
 0002:00014688       ??_R1BAA@?0A@EA@IFrameData@libui@UModSys@@8 0000000180060688     umodsys_lib_libui:umodsys.mod.ui.frames.obj
 0002:000146b0       ??_R1PI@?0A@EA@IFrameList@libui@UModSys@@8 00000001800606b0     umodsys_lib_libui:umodsys.mod.ui.frames.obj
 0002:000146d8       ??_R1A@?0A@EA@RFrame_List@frames@ui@modules@UModSys@@8 00000001800606d8     umodsys_lib_libui:umodsys.mod.ui.frames.obj
 0002:00014700       ??_R4RFrame_Edit@frames@ui@modules@UModSys@@6B@ 0000000180060700     umodsys_lib_libui:umodsys.mod.ui.frames.obj
 0002:00014728       ??_R4RFrame_Edit@frames@ui@modules@UModSys@@6BICollectorThemeTree@libui@4@@ 0000000180060728     umodsys_lib_libui:umodsys.mod.ui.frames.obj
 0002:00014750       ??_R4RFrame_Edit@frames@ui@modules@UModSys@@6BIRefObject@core@4@@ 0000000180060750     umodsys_lib_libui:umodsys.mod.ui.frames.obj
 0002:00014778       ??_R3RFrame_Edit@frames@ui@modules@UModSys@@8 0000000180060778     umodsys_lib_libui:umodsys.mod.ui.frames.obj
 0002:00014790       ??_R2RFrame_Edit@frames@ui@modules@UModSys@@8 0000000180060790     umodsys_lib_libui:umodsys.mod.ui.frames.obj
 0002:000147d0       ??_R1A@?0A@EA@RFrame_Edit@frames@ui@modules@UModSys@@8 00000001800607d0     umodsys_lib_libui:umodsys.mod.ui.frames.obj
 0002:000147f8       ??_R4RFrame_Button@frames@ui@modules@UModSys@@6BICollectorThemeTree@libui@4@@ 00000001800607f8     umodsys_lib_libui:umodsys.mod.ui.frames.obj
 0002:00014820       ??_R4RFrame_Button@frames@ui@modules@UModSys@@6BIRefObject@core@4@@ 0000000180060820     umodsys_lib_libui:umodsys.mod.ui.frames.obj
 0002:00014848       ??_R3RFrame_Button@frames@ui@modules@UModSys@@8 0000000180060848     umodsys_lib_libui:umodsys.mod.ui.frames.obj
 0002:00014860       ??_R2RFrame_Button@frames@ui@modules@UModSys@@8 0000000180060860     umodsys_lib_libui:umodsys.mod.ui.frames.obj
 0002:00014898       ??_R1A@?0A@EA@RFrame_Button@frames@ui@modules@UModSys@@8 0000000180060898     umodsys_lib_libui:umodsys.mod.ui.frames.obj
 0002:000148c0       ??_R4RFrame_Text@frames@ui@modules@UModSys@@6B@ 00000001800608c0     umodsys_lib_libui:umodsys.mod.ui.frames.obj
 0002:000148e8       ??_R4RFrame_Text@frames@ui@modules@UModSys@@6BICollectorThemeTree@libui@4@@ 00000001800608e8     umodsys_lib_libui:umodsys.mod.ui.frames.obj
 0002:00014910       ??_R4RFrame_Text@frames@ui@modules@UModSys@@6BIRefObject@core@4@@ 0000000180060910     umodsys_lib_libui:umodsys.mod.ui.frames.obj
 0002:00014938       ??_R3RFrame_Text@frames@ui@modules@UModSys@@8 0000000180060938     umodsys_lib_libui:umodsys.mod.ui.frames.obj
 0002:00014950       ??_R2RFrame_Text@frames@ui@modules@UModSys@@8 0000000180060950     umodsys_lib_libui:umodsys.mod.ui.frames.obj
 0002:00014990       ??_R1PI@?0A@EA@IFrameData@libui@UModSys@@8 0000000180060990     umodsys_lib_libui:umodsys.mod.ui.frames.obj
 0002:000149b8       ??_R1A@?0A@EA@RFrame_Text@frames@ui@modules@UModSys@@8 00000001800609b8     umodsys_lib_libui:umodsys.mod.ui.frames.obj
 0002:000149e0       ??_R4RFrame_Image@frames@ui@modules@UModSys@@6BICollectorThemeTree@libui@4@@ 00000001800609e0     umodsys_lib_libui:umodsys.mod.ui.frames.obj
 0002:00014a08       ??_R4RFrame_Image@frames@ui@modules@UModSys@@6BIRefObject@core@4@@ 0000000180060a08     umodsys_lib_libui:umodsys.mod.ui.frames.obj
 0002:00014a30       ??_R3RFrame_Image@frames@ui@modules@UModSys@@8 0000000180060a30     umodsys_lib_libui:umodsys.mod.ui.frames.obj
 0002:00014a48       ??_R2RFrame_Image@frames@ui@modules@UModSys@@8 0000000180060a48     umodsys_lib_libui:umodsys.mod.ui.frames.obj
 0002:00014a80       ??_R1A@?0A@EA@RFrame_Image@frames@ui@modules@UModSys@@8 0000000180060a80     umodsys_lib_libui:umodsys.mod.ui.frames.obj
 0002:00014aa8       ??_R4RFrame_Frame@frames@ui@modules@UModSys@@6BICollectorThemeTree@libui@4@@ 0000000180060aa8     umodsys_lib_libui:umodsys.mod.ui.frames.obj
 0002:00014ad0       ??_R4RFrame_Frame@frames@ui@modules@UModSys@@6BIRefObject@core@4@@ 0000000180060ad0     umodsys_lib_libui:umodsys.mod.ui.frames.obj
 0002:00014af8       ??_R3RFrame_Frame@frames@ui@modules@UModSys@@8 0000000180060af8     umodsys_lib_libui:umodsys.mod.ui.frames.obj
 0002:00014b10       ??_R2RFrame_Frame@frames@ui@modules@UModSys@@8 0000000180060b10     umodsys_lib_libui:umodsys.mod.ui.frames.obj
 0002:00014b48       ??_R1A@?0A@EA@RFrame_Frame@frames@ui@modules@UModSys@@8 0000000180060b48     umodsys_lib_libui:umodsys.mod.ui.frames.obj
 0002:00014b70       ??_R4RCollectorTheme@frames@ui@modules@UModSys@@6B@ 0000000180060b70     umodsys_lib_libui:umodsys.mod.ui.frames.obj
 0002:00014b98       ??_R3RCollectorTheme@frames@ui@modules@UModSys@@8 0000000180060b98     umodsys_lib_libui:umodsys.mod.ui.frames.obj
 0002:00014bb0       ??_R2RCollectorTheme@frames@ui@modules@UModSys@@8 0000000180060bb0     umodsys_lib_libui:umodsys.mod.ui.frames.obj
 0002:00014bd0       ??_R1A@?0A@EA@RCollectorTheme@frames@ui@modules@UModSys@@8 0000000180060bd0     umodsys_lib_libui:umodsys.mod.ui.frames.obj
 0002:00014bf8       ??_R4RFrame_Common@frames@ui@modules@UModSys@@6BICollectorThemeTree@libui@4@@ 0000000180060bf8     umodsys_lib_libui:umodsys.mod.ui.frames.obj
 0002:00014c20       ??_R4RFrame_Common@frames@ui@modules@UModSys@@6BIRefObject@core@4@@ 0000000180060c20     umodsys_lib_libui:umodsys.mod.ui.frames.obj
 0002:00014c48       ??_R3RFrame_Common@frames@ui@modules@UModSys@@8 0000000180060c48     umodsys_lib_libui:umodsys.mod.ui.frames.obj
 0002:00014c60       ??_R2RFrame_Common@frames@ui@modules@UModSys@@8 0000000180060c60     umodsys_lib_libui:umodsys.mod.ui.frames.obj
 0002:00014c90       ??_R1A@?0A@EA@RFrame_Common@frames@ui@modules@UModSys@@8 0000000180060c90     umodsys_lib_libui:umodsys.mod.ui.frames.obj
 0002:00014cb8       ??_R4RDialog@frames@ui@modules@UModSys@@6B@ 0000000180060cb8     umodsys_lib_libui:umodsys.mod.ui.frames.obj
 0002:00014ce0       ??_R3RDialog@frames@ui@modules@UModSys@@8 0000000180060ce0     umodsys_lib_libui:umodsys.mod.ui.frames.obj
 0002:00014cf8       ??_R2RDialog@frames@ui@modules@UModSys@@8 0000000180060cf8     umodsys_lib_libui:umodsys.mod.ui.frames.obj
 0002:00014d20       ??_R1A@?0A@EA@RDialog@frames@ui@modules@UModSys@@8 0000000180060d20     umodsys_lib_libui:umodsys.mod.ui.frames.obj
 0002:00014d48       ??_R4RCollector@frames@ui@modules@UModSys@@6BIMouseClient@libui@4@@ 0000000180060d48     umodsys_lib_libui:umodsys.mod.ui.frames.obj
 0002:00014d70       ??_R4RCollector@frames@ui@modules@UModSys@@6BIKeyboardClient@libui@4@@ 0000000180060d70     umodsys_lib_libui:umodsys.mod.ui.frames.obj
 0002:00014d98       ??_R4RCollector@frames@ui@modules@UModSys@@6BICollectorThemeTree@libui@4@@ 0000000180060d98     umodsys_lib_libui:umodsys.mod.ui.frames.obj
 0002:00014dc0       ??_R4RCollector@frames@ui@modules@UModSys@@6BIRefObject@core@4@@ 0000000180060dc0     umodsys_lib_libui:umodsys.mod.ui.frames.obj
 0002:00014de8       ??_R3RCollector@frames@ui@modules@UModSys@@8 0000000180060de8     umodsys_lib_libui:umodsys.mod.ui.frames.obj
 0002:00014e00       ??_R2RCollector@frames@ui@modules@UModSys@@8 0000000180060e00     umodsys_lib_libui:umodsys.mod.ui.frames.obj
 0002:00014e40       ??_R1BI@?0A@EA@IMouseClient@libui@UModSys@@8 0000000180060e40     umodsys_lib_libui:umodsys.mod.ui.frames.obj
 0002:00014e68       ??_R1BA@?0A@EA@IKeyboardClient@libui@UModSys@@8 0000000180060e68     umodsys_lib_libui:umodsys.mod.ui.frames.obj
 0002:00014e90       ??_R1A@?0A@EA@RCollector@frames@ui@modules@UModSys@@8 0000000180060e90     umodsys_lib_libui:umodsys.mod.ui.frames.obj
 0002:00014eb8       ??_R4RGenerator@frames@ui@modules@UModSys@@6B@ 0000000180060eb8     umodsys_lib_libui:umodsys.mod.ui.frames.obj
 0002:00014ee0       ??_R3RGenerator@frames@ui@modules@UModSys@@8 0000000180060ee0     umodsys_lib_libui:umodsys.mod.ui.frames.obj
 0002:00014ef8       ??_R2RGenerator@frames@ui@modules@UModSys@@8 0000000180060ef8     umodsys_lib_libui:umodsys.mod.ui.frames.obj
 0002:00014f28       ??_R1A@?0A@EA@RGenerator@frames@ui@modules@UModSys@@8 0000000180060f28     umodsys_lib_libui:umodsys.mod.ui.frames.obj
 0002:00014f50       ??_R4ICollectorThemeTemplate@libui@UModSys@@6B@ 0000000180060f50     umodsys_lib_libui:umodsys.mod.ui.frames.obj
 0002:00014f78       ??_R3ICollectorThemeTemplate@libui@UModSys@@8 0000000180060f78     umodsys_lib_libui:umodsys.mod.ui.frames.obj
 0002:00014f90       ??_R2ICollectorThemeTemplate@libui@UModSys@@8 0000000180060f90     umodsys_lib_libui:umodsys.mod.ui.frames.obj
 0002:00014fa8       ??_R1A@?0A@EA@ICollectorThemeTemplate@libui@UModSys@@8 0000000180060fa8     umodsys_lib_libui:umodsys.mod.ui.frames.obj
 0002:00014fd0       ??_R3IFrameList@libui@UModSys@@8 0000000180060fd0     umodsys_lib_libui:umodsys.mod.ui.frames.obj
 0002:00014fe8       ??_R2IFrameList@libui@UModSys@@8 0000000180060fe8     umodsys_lib_libui:umodsys.mod.ui.frames.obj
 0002:00014ff8       ??_R1A@?0A@EA@IFrameList@libui@UModSys@@8 0000000180060ff8     umodsys_lib_libui:umodsys.mod.ui.frames.obj
 0002:00015020       ??_R3IFrameData@libui@UModSys@@8 0000000180061020     umodsys_lib_libui:umodsys.mod.ui.frames.obj
 0002:00015038       ??_R2IFrameData@libui@UModSys@@8 0000000180061038     umodsys_lib_libui:umodsys.mod.ui.frames.obj
 0002:00015048       ??_R1A@?0A@EA@IFrameData@libui@UModSys@@8 0000000180061048     umodsys_lib_libui:umodsys.mod.ui.frames.obj
 0002:00015070       ??_R3IDialog@libui@UModSys@@8 0000000180061070     umodsys_lib_libui:umodsys.mod.ui.frames.obj
 0002:00015088       ??_R2IDialog@libui@UModSys@@8 0000000180061088     umodsys_lib_libui:umodsys.mod.ui.frames.obj
 0002:000150a8       ??_R1A@?0A@EA@IDialog@libui@UModSys@@8 00000001800610a8     umodsys_lib_libui:umodsys.mod.ui.frames.obj
 0002:000150d0       ??_R3IFrame@libui@UModSys@@8 00000001800610d0     umodsys_lib_libui:umodsys.mod.ui.frames.obj
 0002:000150e8       ??_R2IFrame@libui@UModSys@@8 00000001800610e8     umodsys_lib_libui:umodsys.mod.ui.frames.obj
 0002:00015110       ??_R1A@?0A@EA@IFrame@libui@UModSys@@8 0000000180061110     umodsys_lib_libui:umodsys.mod.ui.frames.obj
 0002:00015138       ??_R3ICollectorTheme@libui@UModSys@@8 0000000180061138     umodsys_lib_libui:umodsys.mod.ui.frames.obj
 0002:00015150       ??_R2ICollectorTheme@libui@UModSys@@8 0000000180061150     umodsys_lib_libui:umodsys.mod.ui.frames.obj
 0002:00015160       ??_R1A@?0A@EA@ICollectorTheme@libui@UModSys@@8 0000000180061160     umodsys_lib_libui:umodsys.mod.ui.frames.obj
 0002:00015188       ??_R3ICollector@libui@UModSys@@8 0000000180061188     umodsys_lib_libui:umodsys.mod.ui.frames.obj
 0002:000151a0       ??_R2ICollector@libui@UModSys@@8 00000001800611a0     umodsys_lib_libui:umodsys.mod.ui.frames.obj
 0002:000151c8       ??_R17?0A@EA@ICollectorThemeTree@libui@UModSys@@8 00000001800611c8     umodsys_lib_libui:umodsys.mod.ui.frames.obj
 0002:000151f0       ??_R3ICollectorThemeTree@libui@UModSys@@8 00000001800611f0     umodsys_lib_libui:umodsys.mod.ui.frames.obj
 0002:00015208       ??_R2ICollectorThemeTree@libui@UModSys@@8 0000000180061208     umodsys_lib_libui:umodsys.mod.ui.frames.obj
 0002:00015218       ??_R1A@?0A@EA@ICollectorThemeTree@libui@UModSys@@8 0000000180061218     umodsys_lib_libui:umodsys.mod.ui.frames.obj
 0002:00015240       ??_R1A@?0A@EA@ICollector@libui@UModSys@@8 0000000180061240     umodsys_lib_libui:umodsys.mod.ui.frames.obj
 0002:00015268       ??_R4RModuleReg@images_std@media@modules@UModSys@@6B@ 0000000180061268     umodsys_lib_libmedia:umodsys.mod.media.images_std.obj
 0002:00015290       ??_R3RModuleReg@images_std@media@modules@UModSys@@8 0000000180061290     umodsys_lib_libmedia:umodsys.mod.media.images_std.obj
 0002:000152a8       ??_R2RModuleReg@images_std@media@modules@UModSys@@8 00000001800612a8     umodsys_lib_libmedia:umodsys.mod.media.images_std.obj
 0002:000152c0       ??_R1A@?0A@EA@RModuleReg@images_std@media@modules@UModSys@@8 00000001800612c0     umodsys_lib_libmedia:umodsys.mod.media.images_std.obj
 0002:000152e8       ??_R4RMediaFilter@images_std@media@modules@UModSys@@6BISetter@SFlags@libmedia@4@@ 00000001800612e8     umodsys_lib_libmedia:umodsys.mod.media.images_std.obj
 0002:00015310       ??_R4RMediaFilter@images_std@media@modules@UModSys@@6BIRefObject@core@4@@ 0000000180061310     umodsys_lib_libmedia:umodsys.mod.media.images_std.obj
 0002:00015338       ??_R3RMediaFilter@images_std@media@modules@UModSys@@8 0000000180061338     umodsys_lib_libmedia:umodsys.mod.media.images_std.obj
 0002:00015350       ??_R2RMediaFilter@images_std@media@modules@UModSys@@8 0000000180061350     umodsys_lib_libmedia:umodsys.mod.media.images_std.obj
 0002:00015398       ??_R1A@?0A@EA@RMediaFilter@images_std@media@modules@UModSys@@8 0000000180061398     umodsys_lib_libmedia:umodsys.mod.media.images_std.obj
 0002:000153c0       ??_R4RGenerator@images_std@media@modules@UModSys@@6B@ 00000001800613c0     umodsys_lib_libmedia:umodsys.mod.media.images_std.obj
 0002:000153e8       ??_R3RGenerator@images_std@media@modules@UModSys@@8 00000001800613e8     umodsys_lib_libmedia:umodsys.mod.media.images_std.obj
 0002:00015400       ??_R2RGenerator@images_std@media@modules@UModSys@@8 0000000180061400     umodsys_lib_libmedia:umodsys.mod.media.images_std.obj
 0002:00015430       ??_R1A@?0A@EA@RGenerator@images_std@media@modules@UModSys@@8 0000000180061430     umodsys_lib_libmedia:umodsys.mod.media.images_std.obj
 0002:00015458       ??_R4RModuleReg@serialize_json@media@modules@UModSys@@6B@ 0000000180061458     umodsys_lib_libmedia:umodsys.mod.media.serialize_json.obj
 0002:00015480       ??_R3RModuleReg@serialize_json@media@modules@UModSys@@8 0000000180061480     umodsys_lib_libmedia:umodsys.mod.media.serialize_json.obj
 0002:00015498       ??_R2RModuleReg@serialize_json@media@modules@UModSys@@8 0000000180061498     umodsys_lib_libmedia:umodsys.mod.media.serialize_json.obj
 0002:000154b0       ??_R1A@?0A@EA@RModuleReg@serialize_json@media@modules@UModSys@@8 00000001800614b0     umodsys_lib_libmedia:umodsys.mod.media.serialize_json.obj
 0002:000154d8       ??_R4RSerializeWriter@serialize_json@media@modules@UModSys@@6BISerializeParser@libmedia@4@@ 00000001800614d8     umodsys_lib_libmedia:umodsys.mod.media.serialize_json.obj
 0002:00015500       ??_R4RSerializeWriter@serialize_json@media@modules@UModSys@@6BIRefObject@core@4@@ 0000000180061500     umodsys_lib_libmedia:umodsys.mod.media.serialize_json.obj
 0002:00015528       ??_R3RSerializeWriter@serialize_json@media@modules@UModSys@@8 0000000180061528     umodsys_lib_libmedia:umodsys.mod.media.serialize_json.obj
 0002:00015540       ??_R2RSerializeWriter@serialize_json@media@modules@UModSys@@8 0000000180061540     umodsys_lib_libmedia:umodsys.mod.media.serialize_json.obj
 0002:00015570       ??_R1A@?0A@EA@RSerializeWriter@serialize_json@media@modules@UModSys@@8 0000000180061570     umodsys_lib_libmedia:umodsys.mod.media.serialize_json.obj
 0002:00015598       ??_R4RSerializeReader@serialize_json@media@modules@UModSys@@6B@ 0000000180061598     umodsys_lib_libmedia:umodsys.mod.media.serialize_json.obj
 0002:000155c0       ??_R3RSerializeReader@serialize_json@media@modules@UModSys@@8 00000001800615c0     umodsys_lib_libmedia:umodsys.mod.media.serialize_json.obj
 0002:000155d8       ??_R2RSerializeReader@serialize_json@media@modules@UModSys@@8 00000001800615d8     umodsys_lib_libmedia:umodsys.mod.media.serialize_json.obj
 0002:00015600       ??_R1A@?0A@EA@RSerializeReader@serialize_json@media@modules@UModSys@@8 0000000180061600     umodsys_lib_libmedia:umodsys.mod.media.serialize_json.obj
 0002:00015628       ??_R4RGenerator@serialize_json@media@modules@UModSys@@6B@ 0000000180061628     umodsys_lib_libmedia:umodsys.mod.media.serialize_json.obj
 0002:00015650       ??_R3RGenerator@serialize_json@media@modules@UModSys@@8 0000000180061650     umodsys_lib_libmedia:umodsys.mod.media.serialize_json.obj
 0002:00015668       ??_R2RGenerator@serialize_json@media@modules@UModSys@@8 0000000180061668     umodsys_lib_libmedia:umodsys.mod.media.serialize_json.obj
 0002:00015698       ??_R1A@?0A@EA@RGenerator@serialize_json@media@modules@UModSys@@8 0000000180061698     umodsys_lib_libmedia:umodsys.mod.media.serialize_json.obj
 0002:000156c0       ??_R3ISerializeWriter@libmedia@UModSys@@8 00000001800616c0     umodsys_lib_libmedia:umodsys.mod.media.serialize_json.obj
 0002:000156d8       ??_R2ISerializeWriter@libmedia@UModSys@@8 00000001800616d8     umodsys_lib_libmedia:umodsys.mod.media.serialize_json.obj
 0002:00015700       ??_R17?0A@EA@ISerializeParser@libmedia@UModSys@@8 0000000180061700     umodsys_lib_libmedia:umodsys.mod.media.serialize_json.obj
 0002:00015728       ??_R3ISerializeParser@libmedia@UModSys@@8 0000000180061728     umodsys_lib_libmedia:umodsys.mod.media.serialize_json.obj
 0002:00015740       ??_R2ISerializeParser@libmedia@UModSys@@8 0000000180061740     umodsys_lib_libmedia:umodsys.mod.media.serialize_json.obj
 0002:00015750       ??_R1A@?0A@EA@ISerializeParser@libmedia@UModSys@@8 0000000180061750     umodsys_lib_libmedia:umodsys.mod.media.serialize_json.obj
 0002:00015778       ??_R1A@?0A@EA@ISerializeWriter@libmedia@UModSys@@8 0000000180061778     umodsys_lib_libmedia:umodsys.mod.media.serialize_json.obj
 0002:000157a0       ??_R3ISerializeReader@libmedia@UModSys@@8 00000001800617a0     umodsys_lib_libmedia:umodsys.mod.media.serialize_json.obj
 0002:000157b8       ??_R2ISerializeReader@libmedia@UModSys@@8 00000001800617b8     umodsys_lib_libmedia:umodsys.mod.media.serialize_json.obj
 0002:000157d8       ??_R1A@?0A@EA@ISerializeReader@libmedia@UModSys@@8 00000001800617d8     umodsys_lib_libmedia:umodsys.mod.media.serialize_json.obj
 0002:00015800       ??_R4RModuleReg@zlib@media@modules@UModSys@@6B@ 0000000180061800     umodsys_lib_libmedia:umodsys.mod.media.zlib.obj
 0002:00015828       ??_R3RModuleReg@zlib@media@modules@UModSys@@8 0000000180061828     umodsys_lib_libmedia:umodsys.mod.media.zlib.obj
 0002:00015840       ??_R2RModuleReg@zlib@media@modules@UModSys@@8 0000000180061840     umodsys_lib_libmedia:umodsys.mod.media.zlib.obj
 0002:00015858       ??_R1A@?0A@EA@RModuleReg@zlib@media@modules@UModSys@@8 0000000180061858     umodsys_lib_libmedia:umodsys.mod.media.zlib.obj
 0002:00015880       ??_R4RBinArchiveFrameClient_ZIP@zlib@media@modules@UModSys@@6B@ 0000000180061880     umodsys_lib_libmedia:umodsys.mod.media.zlib.obj
 0002:000158a8       ??_R3RBinArchiveFrameClient_ZIP@zlib@media@modules@UModSys@@8 00000001800618a8     umodsys_lib_libmedia:umodsys.mod.media.zlib.obj
 0002:000158c0       ??_R2RBinArchiveFrameClient_ZIP@zlib@media@modules@UModSys@@8 00000001800618c0     umodsys_lib_libmedia:umodsys.mod.media.zlib.obj
 0002:000158e8       ??_R1A@?0A@EA@RBinArchiveFrameClient_ZIP@zlib@media@modules@UModSys@@8 00000001800618e8     umodsys_lib_libmedia:umodsys.mod.media.zlib.obj
 0002:00015910       ??_R4RGenerator@zlib@media@modules@UModSys@@6B@ 0000000180061910     umodsys_lib_libmedia:umodsys.mod.media.zlib.obj
 0002:00015938       ??_R3RGenerator@zlib@media@modules@UModSys@@8 0000000180061938     umodsys_lib_libmedia:umodsys.mod.media.zlib.obj
 0002:00015950       ??_R2RGenerator@zlib@media@modules@UModSys@@8 0000000180061950     umodsys_lib_libmedia:umodsys.mod.media.zlib.obj
 0002:00015980       ??_R1A@?0A@EA@RGenerator@zlib@media@modules@UModSys@@8 0000000180061980     umodsys_lib_libmedia:umodsys.mod.media.zlib.obj
 0002:000159a8       ??_R3IClient@IBinArchiveFrame@libmedia@UModSys@@8 00000001800619a8     umodsys_lib_libmedia:umodsys.mod.media.zlib.obj
 0002:000159c0       ??_R2IClient@IBinArchiveFrame@libmedia@UModSys@@8 00000001800619c0     umodsys_lib_libmedia:umodsys.mod.media.zlib.obj
 0002:000159e0       ??_R1A@?0A@EA@IClient@IBinArchiveFrame@libmedia@UModSys@@8 00000001800619e0     umodsys_lib_libmedia:umodsys.mod.media.zlib.obj
 0002:00015a08       ??_R4RModuleLibraryReg_Chain@base@UModSys@@6B@ 0000000180061a08     umodsys_lib_base:umodsys.base.moduleregchain.obj
 0002:00015a30       ??_R3RModuleLibraryReg_Chain@base@UModSys@@8 0000000180061a30     umodsys_lib_base:umodsys.base.moduleregchain.obj
 0002:00015a48       ??_R2RModuleLibraryReg_Chain@base@UModSys@@8 0000000180061a48     umodsys_lib_base:umodsys.base.moduleregchain.obj
 0002:00015a60       ??_R1A@?0A@EA@IModuleLibraryReg@base@UModSys@@8 0000000180061a60     umodsys_lib_base:umodsys.base.moduleregchain.obj
 0002:00015a88       ??_R3IModuleLibraryReg@base@UModSys@@8 0000000180061a88     umodsys_lib_base:umodsys.base.moduleregchain.obj
 0002:00015aa0       ??_R2IModuleLibraryReg@base@UModSys@@8 0000000180061aa0     umodsys_lib_base:umodsys.base.moduleregchain.obj
 0002:00015ab0       ??_R1A@?0A@EA@RModuleLibraryReg_Chain@base@UModSys@@8 0000000180061ab0     umodsys_lib_base:umodsys.base.moduleregchain.obj
 0002:00015ad8       ??_R4IModuleLibraryReg@base@UModSys@@6B@ 0000000180061ad8     umodsys_lib_base:umodsys.base.modulereg.obj
 0002:00015b00       ??_R4IModuleReg@base@UModSys@@6B@ 0000000180061b00     umodsys_lib_base:umodsys.base.modulereg.obj
 0002:00015b28       __rtc_iaa                  0000000180061b28     MSVCRT:_initsect_.obj
 0002:00015b30       __rtc_izz                  0000000180061b30     MSVCRT:_initsect_.obj
 0002:00015b38       __rtc_taa                  0000000180061b38     MSVCRT:_initsect_.obj
 0002:00015b40       __rtc_tzz                  0000000180061b40     MSVCRT:_initsect_.obj
 0002:0001a630       __IMPORT_DESCRIPTOR_MSVCR90 0000000180066630     MSVCRT:MSVCR90.dll
 0002:0001a644       __IMPORT_DESCRIPTOR_lib_zlib 0000000180066644     lib_zlib:lib_zlib.dll
 0002:0001a658       __IMPORT_DESCRIPTOR_lib_libpng 0000000180066658     lib_libpng:lib_libpng.dll
 0002:0001a66c       __IMPORT_DESCRIPTOR_lib_jpeglib 000000018006666c     lib_jpeglib:lib_jpeglib.dll
 0002:0001a680       __IMPORT_DESCRIPTOR_lib_SDL2 0000000180066680     lib_SDL2:lib_SDL2.dll
 0002:0001a694       __IMPORT_DESCRIPTOR_KERNEL32 0000000180066694     kernel32:KERNEL32.dll
 0002:0001a6a8       __NULL_IMPORT_DESCRIPTOR   00000001800666a8     MSVCRT:MSVCR90.dll
 0003:00000000       ??_R0?AVtype_info@@@8      0000000180068000     MSVCRT:ti_inst.obj
 0003:00000020       __native_dllmain_reason    0000000180068020     MSVCRT:natstart.obj
 0003:00000024       __native_vcclrit_reason    0000000180068024     MSVCRT:natstart.obj
 0003:00000028       __security_cookie          0000000180068028     MSVCRT:gs_cookie.obj
 0003:00000030       __security_cookie_complement 0000000180068030     MSVCRT:gs_cookie.obj
 0003:00000038       ??_R0?AUIModuleReg@base@UModSys@@@8 0000000180068038     plugin_test1.obj
 0003:00000068       ??_R0?AURModuleReg@test1@test@modules@UModSys@@@8 0000000180068068     plugin_test1.obj
 0003:000000a8       ??_R0?AURGenerator@test1@test@modules@UModSys@@@8 00000001800680a8     plugin_test1.obj
 0003:000000e8       ??_R0?AURTest1_Shell@test1@test@modules@UModSys@@@8 00000001800680e8     plugin_test1.obj
 0003:00000128       ??_R0?AUIController@libui@UModSys@@@8 0000000180068128     plugin_test1.obj
 0003:00000158       ??_R0?AUIControllerData@libui@UModSys@@@8 0000000180068158     plugin_test1.obj
 0003:00000190       ??_R0?AUIControllerCommand@libui@UModSys@@@8 0000000180068190     plugin_test1.obj
 0003:000001c8       ??_R0?AUIMouseClient@libui@UModSys@@@8 00000001800681c8     plugin_test1.obj
 0003:00000200       ??_R0?AUIKeyboardClient@libui@UModSys@@@8 0000000180068200     plugin_test1.obj
 0003:00000238       ??_R0?AUIBinObjFilter@libmedia@UModSys@@@8 0000000180068238     plugin_test1.obj
 0003:00000270       ??_R0?AUIResolver@SFlags@libmedia@UModSys@@@8 0000000180068270     plugin_test1.obj
 0003:000002a8       ??_R0?AUIResolverAuto@SFlags@libmedia@UModSys@@@8 00000001800682a8     plugin_test1.obj
 0003:000002e8       ??_R0?AUISetter@SFlags@libmedia@UModSys@@@8 00000001800682e8     plugin_test1.obj
 0003:00000320       ??_R0?AUILibObject@libmedia@UModSys@@@8 0000000180068320     plugin_test1.obj
 0003:00000358       ??_R0?AUIShell@base@UModSys@@@8 0000000180068358     plugin_test1.obj
 0003:00000388       ??_R0?AUIGenerator@base@UModSys@@@8 0000000180068388     plugin_test1.obj
 0003:000003b8       ??_R0?AUIModObject@base@UModSys@@@8 00000001800683b8     plugin_test1.obj
 0003:000003e8       ??_R0?AUIRefObject@core@UModSys@@@8 00000001800683e8     plugin_test1.obj
 0003:00000418       ??_R0?AUIRoot@core@UModSys@@@8 0000000180068418     plugin_test1.obj
 0003:00000498       ?so_entry_enabled_flag@base@UModSys@@3HA 0000000180068498     umodsys_lib_base:umodsys.so_main.win32.obj
 0003:000004e8       ?mapTransparrentMode_SRC@SGLFuncs@SDL_GL@ui@modules@UModSys@@2PAIA 00000001800684e8     umodsys_lib_libui:umodsys.mod.ui.SDL_GL.obj
 0003:00000510       ?s_phm_names@RRenderDriver3D@SDL_GL@ui@modules@UModSys@@2PAPEBDA 0000000180068510     umodsys_lib_libui:umodsys.mod.ui.SDL_GL.obj
 0003:00000550       ?s_phm_goods@RRenderDriver3D@SDL_GL@ui@modules@UModSys@@2PAHA 0000000180068550     umodsys_lib_libui:umodsys.mod.ui.SDL_GL.obj
 0003:00000570       ?s_phm_bads@RRenderDriver3D@SDL_GL@ui@modules@UModSys@@2PAHA 0000000180068570     umodsys_lib_libui:umodsys.mod.ui.SDL_GL.obj
 0003:00000590       ?vat_sizes@RVertexArray@SDL_GL@ui@modules@UModSys@@2PAEA 0000000180068590     umodsys_lib_libui:umodsys.mod.ui.SDL_GL.obj
 0003:000005a0       ?mapRenderMapFlagsFilter_Min@SGLFuncs@SDL_GL@ui@modules@UModSys@@2PAIA 00000001800685a0     umodsys_lib_libui:umodsys.mod.ui.SDL_GL.obj
 0003:000005c0       ?mapRenderMapFlagsFilter_Mag@SGLFuncs@SDL_GL@ui@modules@UModSys@@2PAIA 00000001800685c0     umodsys_lib_libui:umodsys.mod.ui.SDL_GL.obj
 0003:000005e0       ?mapRenderMapFlagsWrap_S@SGLFuncs@SDL_GL@ui@modules@UModSys@@2PAIA 00000001800685e0     umodsys_lib_libui:umodsys.mod.ui.SDL_GL.obj
 0003:00000600       ?mapRenderMapFlagsWrap_T@SGLFuncs@SDL_GL@ui@modules@UModSys@@2PAIA 0000000180068600     umodsys_lib_libui:umodsys.mod.ui.SDL_GL.obj
 0003:00000620       ?mapRenderMapFlagsCombine@SGLFuncs@SDL_GL@ui@modules@UModSys@@2PAIA 0000000180068620     umodsys_lib_libui:umodsys.mod.ui.SDL_GL.obj
 0003:00000650       ?mapTransparrentMode_DST@SGLFuncs@SDL_GL@ui@modules@UModSys@@2PAIA 0000000180068650     umodsys_lib_libui:umodsys.mod.ui.SDL_GL.obj
 0003:00000698       ?auto_flags@RLines_Filter@test1@test@modules@UModSys@@2U?$TFlags4State@USMediaFlagUid@libmedia@UModSys@@I@tl@5@A 0000000180068698     plugin_test1.obj
 0003:000006f0       ??_R0?AURModuleReg@stdlib@lib2d@modules@UModSys@@@8 00000001800686f0     umodsys_lib_lib2d:umodsys.mod.2d.stdlib.obj
 0003:00000730       ??_R0?AURMultiImage@stdlib@lib2d@modules@UModSys@@@8 0000000180068730     umodsys_lib_lib2d:umodsys.mod.2d.stdlib.obj
 0003:00000770       ??_R0?AURImageFactory_Memory@stdlib@lib2d@modules@UModSys@@@8 0000000180068770     umodsys_lib_lib2d:umodsys.mod.2d.stdlib.obj
 0003:000007c0       ??_R0?AURImage_Memory@stdlib@lib2d@modules@UModSys@@@8 00000001800687c0     umodsys_lib_lib2d:umodsys.mod.2d.stdlib.obj
 0003:00000808       ??_R0?AURGenerator@stdlib@lib2d@modules@UModSys@@@8 0000000180068808     umodsys_lib_lib2d:umodsys.mod.2d.stdlib.obj
 0003:00000848       ??_R0?AUIMultiImage@lib2d@UModSys@@@8 0000000180068848     umodsys_lib_lib2d:umodsys.mod.2d.stdlib.obj
 0003:00000878       ??_R0?AUIImageFactory@lib2d@UModSys@@@8 0000000180068878     umodsys_lib_lib2d:umodsys.mod.2d.stdlib.obj
 0003:000008b0       ??_R0?AUIImage@lib2d@UModSys@@@8 00000001800688b0     umodsys_lib_lib2d:umodsys.mod.2d.stdlib.obj
 0003:000008e0       ??_R0?AURModuleReg@SDL_GL@ui@modules@UModSys@@@8 00000001800688e0     umodsys_lib_libui:umodsys.mod.ui.SDL_GL.obj
 0003:00000920       ??_R0?AURVertexArray@SDL_GL@ui@modules@UModSys@@@8 0000000180068920     umodsys_lib_libui:umodsys.mod.ui.SDL_GL.obj
 0003:00000960       ??_R0?AURTerminalX@SDL_GL@ui@modules@UModSys@@@8 0000000180068960     umodsys_lib_libui:umodsys.mod.ui.SDL_GL.obj
 0003:000009a0       ??_R0?AURMultiImage2D_SDL_ttf@SDL_GL@ui@modules@UModSys@@@8 00000001800689a0     umodsys_lib_libui:umodsys.mod.ui.SDL_GL.obj
 0003:000009f0       ??_R0?AURMouseController@SDL_GL@ui@modules@UModSys@@@8 00000001800689f0     umodsys_lib_libui:umodsys.mod.ui.SDL_GL.obj
 0003:00000a40       ??_R0?AURKeyboardController@SDL_GL@ui@modules@UModSys@@@8 0000000180068a40     umodsys_lib_libui:umodsys.mod.ui.SDL_GL.obj
 0003:00000a88       ??_R0?AURTerminal@SDL_GL@ui@modules@UModSys@@@8 0000000180068a88     umodsys_lib_libui:umodsys.mod.ui.SDL_GL.obj
 0003:00000ac8       ??_R0?AUSGLFuncsLegacy@SDL_GL@ui@modules@UModSys@@@8 0000000180068ac8     umodsys_lib_libui:umodsys.mod.ui.SDL_GL.obj
 0003:00000b08       ??_R0?AUSGLFuncsBase@SDL_GL@ui@modules@UModSys@@@8 0000000180068b08     umodsys_lib_libui:umodsys.mod.ui.SDL_GL.obj
 0003:00000b48       ??_R0?AUSGLFuncs@SDL_GL@ui@modules@UModSys@@@8 0000000180068b48     umodsys_lib_libui:umodsys.mod.ui.SDL_GL.obj
 0003:00000b90       ??_R0?AURRenderDriver3D@SDL_GL@ui@modules@UModSys@@@8 0000000180068b90     umodsys_lib_libui:umodsys.mod.ui.SDL_GL.obj
 0003:00000bd0       ??_R0?AURGenerator@SDL_GL@ui@modules@UModSys@@@8 0000000180068bd0     umodsys_lib_libui:umodsys.mod.ui.SDL_GL.obj
 0003:00000c10       ??_R0?AUIMouseController@libui@UModSys@@@8 0000000180068c10     umodsys_lib_libui:umodsys.mod.ui.SDL_GL.obj
 0003:00000c48       ??_R0?AUIKeyboardController@libui@UModSys@@@8 0000000180068c48     umodsys_lib_libui:umodsys.mod.ui.SDL_GL.obj
 0003:00000c80       ??_R0?AUITerminal@libui@UModSys@@@8 0000000180068c80     umodsys_lib_libui:umodsys.mod.ui.SDL_GL.obj
 0003:00000cb0       ??_R0?AUIVertexArray@lib3d@UModSys@@@8 0000000180068cb0     umodsys_lib_libui:umodsys.mod.ui.SDL_GL.obj
 0003:00000ce8       ??_R0?AUIRenderDriver@lib3d@UModSys@@@8 0000000180068ce8     umodsys_lib_libui:umodsys.mod.ui.SDL_GL.obj
 0003:00000d20       ??_R0?AUIRenderDriver@lib2d@UModSys@@@8 0000000180068d20     umodsys_lib_libui:umodsys.mod.ui.SDL_GL.obj
 0003:00000d58       ??_R0?AURModuleReg@SDL_core@ui@modules@UModSys@@@8 0000000180068d58     umodsys_lib_libui:umodsys.mod.ui.SDL_core.obj
 0003:00000d98       ??_R0?AURTerminalX@SDL_core@ui@modules@UModSys@@@8 0000000180068d98     umodsys_lib_libui:umodsys.mod.ui.SDL_core.obj
 0003:00000de0       ??_R0?AURMultiImage2D_SDL_ttf@SDL_core@ui@modules@UModSys@@@8 0000000180068de0     umodsys_lib_libui:umodsys.mod.ui.SDL_core.obj
 0003:00000e30       ??_R0?AURMouseController@SDL_core@ui@modules@UModSys@@@8 0000000180068e30     umodsys_lib_libui:umodsys.mod.ui.SDL_core.obj
 0003:00000e80       ??_R0?AURKeyboardController@SDL_core@ui@modules@UModSys@@@8 0000000180068e80     umodsys_lib_libui:umodsys.mod.ui.SDL_core.obj
 0003:00000ec8       ??_R0?AURTerminal@SDL_core@ui@modules@UModSys@@@8 0000000180068ec8     umodsys_lib_libui:umodsys.mod.ui.SDL_core.obj
 0003:00000f10       ??_R0?AURRenderDriver2D@SDL_core@ui@modules@UModSys@@@8 0000000180068f10     umodsys_lib_libui:umodsys.mod.ui.SDL_core.obj
 0003:00000f58       ??_R0?AURGenerator@SDL_core@ui@modules@UModSys@@@8 0000000180068f58     umodsys_lib_libui:umodsys.mod.ui.SDL_core.obj
 0003:00000f98       ??_R0?AURModuleReg@frames@ui@modules@UModSys@@@8 0000000180068f98     umodsys_lib_libui:umodsys.mod.ui.frames.obj
 0003:00000fd8       ??_R0?AURFrame_List@frames@ui@modules@UModSys@@@8 0000000180068fd8     umodsys_lib_libui:umodsys.mod.ui.frames.obj
 0003:00001018       ??_R0?AURFrame_Edit@frames@ui@modules@UModSys@@@8 0000000180069018     umodsys_lib_libui:umodsys.mod.ui.frames.obj
 0003:00001058       ??_R0?AURFrame_Button@frames@ui@modules@UModSys@@@8 0000000180069058     umodsys_lib_libui:umodsys.mod.ui.frames.obj
 0003:00001098       ??_R0?AURFrame_Text@frames@ui@modules@UModSys@@@8 0000000180069098     umodsys_lib_libui:umodsys.mod.ui.frames.obj
 0003:000010d8       ??_R0?AURFrame_Image@frames@ui@modules@UModSys@@@8 00000001800690d8     umodsys_lib_libui:umodsys.mod.ui.frames.obj
 0003:00001118       ??_R0?AURFrame_Frame@frames@ui@modules@UModSys@@@8 0000000180069118     umodsys_lib_libui:umodsys.mod.ui.frames.obj
 0003:00001160       ??_R0?AURCollectorTheme@frames@ui@modules@UModSys@@@8 0000000180069160     umodsys_lib_libui:umodsys.mod.ui.frames.obj
 0003:000011a0       ??_R0?AURFrame_Common@frames@ui@modules@UModSys@@@8 00000001800691a0     umodsys_lib_libui:umodsys.mod.ui.frames.obj
 0003:000011e0       ??_R0?AURDialog@frames@ui@modules@UModSys@@@8 00000001800691e0     umodsys_lib_libui:umodsys.mod.ui.frames.obj
 0003:00001218       ??_R0?AURCollector@frames@ui@modules@UModSys@@@8 0000000180069218     umodsys_lib_libui:umodsys.mod.ui.frames.obj
 0003:00001258       ??_R0?AURGenerator@frames@ui@modules@UModSys@@@8 0000000180069258     umodsys_lib_libui:umodsys.mod.ui.frames.obj
 0003:00001298       ??_R0?AUICollectorThemeTemplate@libui@UModSys@@@8 0000000180069298     umodsys_lib_libui:umodsys.mod.ui.frames.obj
 0003:000012d8       ??_R0?AUIFrameList@libui@UModSys@@@8 00000001800692d8     umodsys_lib_libui:umodsys.mod.ui.frames.obj
 0003:00001308       ??_R0?AUIFrameData@libui@UModSys@@@8 0000000180069308     umodsys_lib_libui:umodsys.mod.ui.frames.obj
 0003:00001338       ??_R0?AUIDialog@libui@UModSys@@@8 0000000180069338     umodsys_lib_libui:umodsys.mod.ui.frames.obj
 0003:00001368       ??_R0?AUIFrame@libui@UModSys@@@8 0000000180069368     umodsys_lib_libui:umodsys.mod.ui.frames.obj
 0003:00001398       ??_R0?AUICollectorTheme@libui@UModSys@@@8 0000000180069398     umodsys_lib_libui:umodsys.mod.ui.frames.obj
 0003:000013d0       ??_R0?AUICollectorThemeTree@libui@UModSys@@@8 00000001800693d0     umodsys_lib_libui:umodsys.mod.ui.frames.obj
 0003:00001408       ??_R0?AUICollector@libui@UModSys@@@8 0000000180069408     umodsys_lib_libui:umodsys.mod.ui.frames.obj
 0003:00001440       ??_R0?AURModuleReg@images_std@media@modules@UModSys@@@8 0000000180069440     umodsys_lib_libmedia:umodsys.mod.media.images_std.obj
 0003:00001490       ??_R0?AURMediaFilter@images_std@media@modules@UModSys@@@8 0000000180069490     umodsys_lib_libmedia:umodsys.mod.media.images_std.obj
 0003:000014e0       ??_R0?AURGenerator@images_std@media@modules@UModSys@@@8 00000001800694e0     umodsys_lib_libmedia:umodsys.mod.media.images_std.obj
 0003:00001530       ??_R0?AURModuleReg@serialize_json@media@modules@UModSys@@@8 0000000180069530     umodsys_lib_libmedia:umodsys.mod.media.serialize_json.obj
 0003:00001580       ??_R0?AURSerializeWriter@serialize_json@media@modules@UModSys@@@8 0000000180069580     umodsys_lib_libmedia:umodsys.mod.media.serialize_json.obj
 0003:000015d0       ??_R0?AURSerializeReader@serialize_json@media@modules@UModSys@@@8 00000001800695d0     umodsys_lib_libmedia:umodsys.mod.media.serialize_json.obj
 0003:00001620       ??_R0?AURGenerator@serialize_json@media@modules@UModSys@@@8 0000000180069620     umodsys_lib_libmedia:umodsys.mod.media.serialize_json.obj
 0003:00001668       ??_R0?AUISerializeParser@libmedia@UModSys@@@8 0000000180069668     umodsys_lib_libmedia:umodsys.mod.media.serialize_json.obj
 0003:000016a0       ??_R0?AUISerializeWriter@libmedia@UModSys@@@8 00000001800696a0     umodsys_lib_libmedia:umodsys.mod.media.serialize_json.obj
 0003:000016d8       ??_R0?AUISerializeReader@libmedia@UModSys@@@8 00000001800696d8     umodsys_lib_libmedia:umodsys.mod.media.serialize_json.obj
 0003:00001710       ??_R0?AURModuleReg@zlib@media@modules@UModSys@@@8 0000000180069710     umodsys_lib_libmedia:umodsys.mod.media.zlib.obj
 0003:00001750       ??_R0?AURBinArchiveFrameClient_ZIP@zlib@media@modules@UModSys@@@8 0000000180069750     umodsys_lib_libmedia:umodsys.mod.media.zlib.obj
 0003:000017a0       ??_R0?AURGenerator@zlib@media@modules@UModSys@@@8 00000001800697a0     umodsys_lib_libmedia:umodsys.mod.media.zlib.obj
 0003:000017e0       ??_R0?AUIClient@IBinArchiveFrame@libmedia@UModSys@@@8 00000001800697e0     umodsys_lib_libmedia:umodsys.mod.media.zlib.obj
 0003:00001820       ??_R0?AUIModuleLibraryReg@base@UModSys@@@8 0000000180069820     umodsys_lib_base:umodsys.base.moduleregchain.obj
 0003:00001858       ??_R0?AURModuleLibraryReg_Chain@base@UModSys@@@8 0000000180069858     umodsys_lib_base:umodsys.base.moduleregchain.obj
 0003:00001894       _fltused                   0000000180069894     MSVCRT:dllsupp.obj
 0003:000018a4       _forceCRTManifestRTM       00000001800698a4     MSVCRT:crtmanifestrtm.obj
 0003:000018a8       ?__type_info_root_node@@3U__type_info_node@@A 00000001800698a8     MSVCRT:tncleanup.obj
 0003:000018b8       ??_B?1??get_null@?$TSCoreShared@USIMemAlloc@core@UModSys@@D@su@tl@UModSys@@SAPEAU?$TSharedStringInfo@DUSIMemAlloc@core@UModSys@@@234@XZ@51 00000001800698b8     plugin_test1.obj
 0003:000018c0       ?s_null@?1??get_null@?$TSCoreShared@USIMemAlloc@core@UModSys@@D@su@tl@UModSys@@SAPEAU?$TSharedStringInfo@DUSIMemAlloc@core@UModSys@@@345@XZ@4U6345@A 00000001800698c0     plugin_test1.obj
 0003:000018f0       ?s_escapes@serialize_json@media@modules@UModSys@@3PAY07DA 00000001800698f0     umodsys_lib_libmedia:umodsys.mod.media.serialize_json.obj
 0003:000020f0       ?fmodule@stdlib@lib2d@modules@UModSys@@3DA 000000018006a0f0     umodsys_lib_lib2d:umodsys.mod.2d.stdlib.obj
 0003:000020f1       ?fmodule@SDL_GL@ui@modules@UModSys@@3DA 000000018006a0f1     umodsys_lib_libui:umodsys.mod.ui.SDL_GL.obj
 0003:000020f2       ?fmodule@SDL_core@ui@modules@UModSys@@3DA 000000018006a0f2     umodsys_lib_libui:umodsys.mod.ui.SDL_core.obj
 0003:000020f3       ?fmodule@frames@ui@modules@UModSys@@3DA 000000018006a0f3     umodsys_lib_libui:umodsys.mod.ui.frames.obj
 0003:000020f4       ?fmodule@images_std@media@modules@UModSys@@3DA 000000018006a0f4     umodsys_lib_libmedia:umodsys.mod.media.images_std.obj
 0003:000020f5       ?fmodule@serialize_json@media@modules@UModSys@@3DA 000000018006a0f5     umodsys_lib_libmedia:umodsys.mod.media.serialize_json.obj
 0003:000020f6       ?fmodule@zlib@media@modules@UModSys@@3DA 000000018006a0f6     umodsys_lib_libmedia:umodsys.mod.media.zlib.obj
 0003:000020f8       ?null_time@core@UModSys@@3_JA 000000018006a0f8     umodsys_lib_core:umodsys.core.stdtypedefs.obj
 0003:00002100       ?s_modreg@RModuleReg@test1@test@modules@UModSys@@2U12345@A 000000018006a100     plugin_test1.obj
 0003:00002168       ?s_modreg_chain@RModuleReg@test1@test@modules@UModSys@@2USModuleRegChain@base@5@A 000000018006a168     plugin_test1.obj
 0003:00002180       ?s_dbg@test1@test@modules@UModSys@@3USDebug@base@4@A 000000018006a180     plugin_test1.obj
 0003:00002190       ?s_uid@RGenerator@test1@test@modules@UModSys@@2USUniquePointer@core@5@A 000000018006a190     plugin_test1.obj
 0003:000021c0       ?s_modreg_chain@RModuleReg@stdlib@lib2d@modules@UModSys@@2USModuleRegChain@base@5@A 000000018006a1c0     umodsys_lib_lib2d:umodsys.mod.2d.stdlib.obj
 0003:000021d8       ?s_dbg@stdlib@lib2d@modules@UModSys@@3USDebug@base@4@A 000000018006a1d8     umodsys_lib_lib2d:umodsys.mod.2d.stdlib.obj
 0003:000021f0       ?s_modreg@RModuleReg@stdlib@lib2d@modules@UModSys@@2U12345@A 000000018006a1f0     umodsys_lib_lib2d:umodsys.mod.2d.stdlib.obj
 0003:00002258       ?s_uid@RGenerator@stdlib@lib2d@modules@UModSys@@2USUniquePointer@core@5@A 000000018006a258     umodsys_lib_lib2d:umodsys.mod.2d.stdlib.obj
 0003:00002288       ?s_dbg@SDL_GL@ui@modules@UModSys@@3USDebug@base@4@A 000000018006a288     umodsys_lib_libui:umodsys.mod.ui.SDL_GL.obj
 0003:00002298       ?s_uid@RGenerator@SDL_GL@ui@modules@UModSys@@2USUniquePointer@core@5@A 000000018006a298     umodsys_lib_libui:umodsys.mod.ui.SDL_GL.obj
 0003:000022c8       ?s_modreg_chain@RModuleReg@SDL_GL@ui@modules@UModSys@@2USModuleRegChain@base@5@A 000000018006a2c8     umodsys_lib_libui:umodsys.mod.ui.SDL_GL.obj
 0003:000022e0       ?s_modreg@RModuleReg@SDL_GL@ui@modules@UModSys@@2U12345@A 000000018006a2e0     umodsys_lib_libui:umodsys.mod.ui.SDL_GL.obj
 0003:00002348       ?s_modreg_chain@RModuleReg@SDL_core@ui@modules@UModSys@@2USModuleRegChain@base@5@A 000000018006a348     umodsys_lib_libui:umodsys.mod.ui.SDL_core.obj
 0003:00002360       ?s_modreg@RModuleReg@SDL_core@ui@modules@UModSys@@2U12345@A 000000018006a360     umodsys_lib_libui:umodsys.mod.ui.SDL_core.obj
 0003:000023c8       ?s_dbg@SDL_core@ui@modules@UModSys@@3USDebug@base@4@A 000000018006a3c8     umodsys_lib_libui:umodsys.mod.ui.SDL_core.obj
 0003:000023d8       ?s_uid@RGenerator@SDL_core@ui@modules@UModSys@@2USUniquePointer@core@5@A 000000018006a3d8     umodsys_lib_libui:umodsys.mod.ui.SDL_core.obj
 0003:00002408       ?s_uid@RGenerator@frames@ui@modules@UModSys@@2USUniquePointer@core@5@A 000000018006a408     umodsys_lib_libui:umodsys.mod.ui.frames.obj
 0003:00002438       ?s_dbg@frames@ui@modules@UModSys@@3USDebug@base@4@A 000000018006a438     umodsys_lib_libui:umodsys.mod.ui.frames.obj
 0003:00002448       ?s_modreg_chain@RModuleReg@frames@ui@modules@UModSys@@2USModuleRegChain@base@5@A 000000018006a448     umodsys_lib_libui:umodsys.mod.ui.frames.obj
 0003:00002460       ?s_modreg@RModuleReg@frames@ui@modules@UModSys@@2U12345@A 000000018006a460     umodsys_lib_libui:umodsys.mod.ui.frames.obj
 0003:000024c8       ?auto_flags@RMediaFilter@images_std@media@modules@UModSys@@1U?$TFlags4State@USMediaFlagUid@libmedia@UModSys@@I@tl@5@A 000000018006a4c8     umodsys_lib_libmedia:umodsys.mod.media.images_std.obj
 0003:000024d0       ?s_dbg@images_std@media@modules@UModSys@@3USDebug@base@4@A 000000018006a4d0     umodsys_lib_libmedia:umodsys.mod.media.images_std.obj
 0003:000024e0       ?s_uid@RGenerator@images_std@media@modules@UModSys@@2USUniquePointer@core@5@A 000000018006a4e0     umodsys_lib_libmedia:umodsys.mod.media.images_std.obj
 0003:00002510       ?s_modreg@RModuleReg@images_std@media@modules@UModSys@@2U12345@A 000000018006a510     umodsys_lib_libmedia:umodsys.mod.media.images_std.obj
 0003:00002578       ?s_modreg_chain@RModuleReg@images_std@media@modules@UModSys@@2USModuleRegChain@base@5@A 000000018006a578     umodsys_lib_libmedia:umodsys.mod.media.images_std.obj
 0003:00002590       ?s_dbg@serialize_json@media@modules@UModSys@@3USDebug@base@4@A 000000018006a590     umodsys_lib_libmedia:umodsys.mod.media.serialize_json.obj
 0003:000025a0       ?s_modreg_chain@RModuleReg@serialize_json@media@modules@UModSys@@2USModuleRegChain@base@5@A 000000018006a5a0     umodsys_lib_libmedia:umodsys.mod.media.serialize_json.obj
 0003:000025b8       ?s_uid@RGenerator@serialize_json@media@modules@UModSys@@2USUniquePointer@core@5@A 000000018006a5b8     umodsys_lib_libmedia:umodsys.mod.media.serialize_json.obj
 0003:000025f0       ?s_modreg@RModuleReg@serialize_json@media@modules@UModSys@@2U12345@A 000000018006a5f0     umodsys_lib_libmedia:umodsys.mod.media.serialize_json.obj
 0003:00002658       ?s_modreg_chain@RModuleReg@zlib@media@modules@UModSys@@2USModuleRegChain@base@5@A 000000018006a658     umodsys_lib_libmedia:umodsys.mod.media.zlib.obj
 0003:00002670       ?s_dbg@zlib@media@modules@UModSys@@3USDebug@base@4@A 000000018006a670     umodsys_lib_libmedia:umodsys.mod.media.zlib.obj
 0003:00002680       ?s_modreg@RModuleReg@zlib@media@modules@UModSys@@2U12345@A 000000018006a680     umodsys_lib_libmedia:umodsys.mod.media.zlib.obj
 0003:000026e8       ?s_uid@RGenerator@zlib@media@modules@UModSys@@2USUniquePointer@core@5@A 000000018006a6e8     umodsys_lib_libmedia:umodsys.mod.media.zlib.obj
 0003:00002718       ?M@UModSys@@3USModuleContext@base@1@A 000000018006a718     umodsys_lib_base:umodsys.base.modulecontext.obj
 0003:00002740       ?s_library@RModuleLibraryReg_Chain@base@UModSys@@2U123@A 000000018006a740     umodsys_lib_base:umodsys.base.moduleregchain.obj
 0003:00002748       ?root@SModuleRegChain@base@UModSys@@2U123@A 000000018006a748     umodsys_lib_base:umodsys.base.moduleregchain.obj
 0003:00002760       ?root@SUniquePointer@core@UModSys@@2U123@A 000000018006a760     umodsys_lib_core:umodsys.core.uniqueptr.obj
 0003:00002990       ?s_id@?$TObjectUniqueID@UIUtilities@libmedia@UModSys@@@tl@UModSys@@2USUniquePointer@core@3@A 000000018006a990     plugin_test1.obj
 0003:000029c0       ?s_id@?$TObjectUniqueID@UIBinObjFilter@libmedia@UModSys@@@tl@UModSys@@2USUniquePointer@core@3@A 000000018006a9c0     plugin_test1.obj
 0003:000029f0       ?s_id@?$TObjectUniqueID@UIAsyncController@libui@UModSys@@@tl@UModSys@@2USUniquePointer@core@3@A 000000018006a9f0     plugin_test1.obj
 0003:00002a20       ?s_id@?$TObjectUniqueID@UICollector@libui@UModSys@@@tl@UModSys@@2USUniquePointer@core@3@A 000000018006aa20     plugin_test1.obj
 0003:00002a50       ?s_id@?$TObjectUniqueID@UIMouseController@libui@UModSys@@@tl@UModSys@@2USUniquePointer@core@3@A 000000018006aa50     plugin_test1.obj
 0003:00002a80       ?s_id@?$TObjectUniqueID@UISharedLibrary@lib3d@UModSys@@@tl@UModSys@@2USUniquePointer@core@3@A 000000018006aa80     plugin_test1.obj
 0003:00002ab0       ?s_id@?$TObjectUniqueID@UILibraryBinTree@libmedia@UModSys@@@tl@UModSys@@2USUniquePointer@core@3@A 000000018006aab0     plugin_test1.obj
 0003:00002ae0       ?s_id@?$TObjectUniqueID@UIModObject@base@UModSys@@@tl@UModSys@@2USUniquePointer@core@3@A 000000018006aae0     plugin_test1.obj
 0003:00002b10       ?s_id@?$TObjectUniqueID@UIConsoleHelperOutputFCS@base@UModSys@@@tl@UModSys@@2USUniquePointer@core@3@A 000000018006ab10     plugin_test1.obj
 0003:00002b40       ?s_id@?$TObjectUniqueID@UILibObject@libmedia@UModSys@@@tl@UModSys@@2USUniquePointer@core@3@A 000000018006ab40     plugin_test1.obj
 0003:00002b70       ?s_id@?$TObjectUniqueID@UILines@test1@test@modules@UModSys@@@tl@UModSys@@2USUniquePointer@core@3@A 000000018006ab70     plugin_test1.obj
 0003:00002ba0       ?s_id@?$TObjectUniqueID@UIMultiImage@lib2d@UModSys@@@tl@UModSys@@2USUniquePointer@core@3@A 000000018006aba0     plugin_test1.obj
 0003:00002bd0       ?s_id@?$TObjectUniqueID@URLines_Filter@test1@test@modules@UModSys@@@tl@UModSys@@2USUniquePointer@core@3@A 000000018006abd0     plugin_test1.obj
 0003:00002c00       ?s_id@?$TObjectUniqueID@UIRenderDriver@lib3d@UModSys@@@tl@UModSys@@2USUniquePointer@core@3@A 000000018006ac00     plugin_test1.obj
 0003:00002c30       ?s_id@?$TObjectUniqueID@UIConsoleHelper@base@UModSys@@@tl@UModSys@@2USUniquePointer@core@3@A 000000018006ac30     plugin_test1.obj
 0003:00002c60       ?s_id@?$TObjectUniqueID@UIGenerator@base@UModSys@@@tl@UModSys@@2USUniquePointer@core@3@A 000000018006ac60     plugin_test1.obj
 0003:00002c90       ?s_id@?$TObjectUniqueID@UIModule@base@UModSys@@@tl@UModSys@@2USUniquePointer@core@3@A 000000018006ac90     plugin_test1.obj
 0003:00002cc0       ?s_id@?$TObjectUniqueID@UITerminal@libui@UModSys@@@tl@UModSys@@2USUniquePointer@core@3@A 000000018006acc0     plugin_test1.obj
 0003:00002cf0       ?s_id@?$TObjectUniqueID@UIJoystickController@libui@UModSys@@@tl@UModSys@@2USUniquePointer@core@3@A 000000018006acf0     plugin_test1.obj
 0003:00002d20       ?s_id@?$TObjectUniqueID@UIBinArchiveFrame@libmedia@UModSys@@@tl@UModSys@@2USUniquePointer@core@3@A 000000018006ad20     plugin_test1.obj
 0003:00002d50       ?s_id@?$TObjectUniqueID@UIDialog@libui@UModSys@@@tl@UModSys@@2USUniquePointer@core@3@A 000000018006ad50     plugin_test1.obj
 0003:00002d80       ?s_id@?$TObjectUniqueID@UIRenderDriver@lib2d@UModSys@@@tl@UModSys@@2USUniquePointer@core@3@A 000000018006ad80     plugin_test1.obj
 0003:00002db0       ?s_id@?$TObjectUniqueID@UIBinArchive@libmedia@UModSys@@@tl@UModSys@@2USUniquePointer@core@3@A 000000018006adb0     plugin_test1.obj
 0003:00002de0       ?s_id@?$TObjectUniqueID@UIRoot@core@UModSys@@@tl@UModSys@@2USUniquePointer@core@3@A 000000018006ade0     plugin_test1.obj
 0003:00002e10       ?s_id@?$TObjectUniqueID@UIVertexArray@lib3d@UModSys@@@tl@UModSys@@2USUniquePointer@core@3@A 000000018006ae10     plugin_test1.obj
 0003:00002e40       ?s_id@?$TObjectUniqueID@UILibraryObjCache@libmedia@UModSys@@@tl@UModSys@@2USUniquePointer@core@3@A 000000018006ae40     plugin_test1.obj
 0003:00002e70       ?s_id@?$TObjectUniqueID@UIStreamWriter@libmedia@UModSys@@@tl@UModSys@@2USUniquePointer@core@3@A 000000018006ae70     plugin_test1.obj
 0003:00002ea0       ?s_id@?$TObjectUniqueID@UISystem@base@UModSys@@@tl@UModSys@@2USUniquePointer@core@3@A 000000018006aea0     plugin_test1.obj
 0003:00002ed0       ?s_id@?$TObjectUniqueID@URTest1_Shell@test1@test@modules@UModSys@@@tl@UModSys@@2USUniquePointer@core@3@A 000000018006aed0     plugin_test1.obj
 0003:00002f00       ?s_id@?$TObjectUniqueID@UIRefObject@core@UModSys@@@tl@UModSys@@2USUniquePointer@core@3@A 000000018006af00     plugin_test1.obj
 0003:00002f30       ?s_id@?$TObjectUniqueID@UILibraryLayered@libmedia@UModSys@@@tl@UModSys@@2USUniquePointer@core@3@A 000000018006af30     plugin_test1.obj
 0003:00002f60       ?s_id@?$TObjectUniqueID@UINodeObject@lib3d@UModSys@@@tl@UModSys@@2USUniquePointer@core@3@A 000000018006af60     plugin_test1.obj
 0003:00002f90       ?s_id@?$TObjectUniqueID@UIObject@lib3d@UModSys@@@tl@UModSys@@2USUniquePointer@core@3@A 000000018006af90     plugin_test1.obj
 0003:00002fc0       ?s_id@?$TObjectUniqueID@UIShell@base@UModSys@@@tl@UModSys@@2USUniquePointer@core@3@A 000000018006afc0     plugin_test1.obj
 0003:00002ff0       ?s_id@?$TObjectUniqueID@URLines@test1@test@modules@UModSys@@@tl@UModSys@@2USUniquePointer@core@3@A 000000018006aff0     plugin_test1.obj
 0003:00003020       ?s_id@?$TObjectUniqueID@UISerializeReader@libmedia@UModSys@@@tl@UModSys@@2USUniquePointer@core@3@A 000000018006b020     plugin_test1.obj
 0003:00003050       ?s_id@?$TObjectUniqueID@UILibraryBinCache@libmedia@UModSys@@@tl@UModSys@@2USUniquePointer@core@3@A 000000018006b050     plugin_test1.obj
 0003:00003080       ?s_id@?$TObjectUniqueID@UIRenderer@lib3d@UModSys@@@tl@UModSys@@2USUniquePointer@core@3@A 000000018006b080     plugin_test1.obj
 0003:000030b0       ?s_id@?$TObjectUniqueID@UIConsole@base@UModSys@@@tl@UModSys@@2USUniquePointer@core@3@A 000000018006b0b0     plugin_test1.obj
 0003:000030e0       ?s_id@?$TObjectUniqueID@UITexture@lib3d@UModSys@@@tl@UModSys@@2USUniquePointer@core@3@A 000000018006b0e0     plugin_test1.obj
 0003:00003110       ?s_id@?$TObjectUniqueID@UITextureCells@lib3d@UModSys@@@tl@UModSys@@2USUniquePointer@core@3@A 000000018006b110     plugin_test1.obj
 0003:00003140       ?s_id@?$TObjectUniqueID@UIFrame@libui@UModSys@@@tl@UModSys@@2USUniquePointer@core@3@A 000000018006b140     plugin_test1.obj
 0003:00003170       ?s_id@?$TObjectUniqueID@URGenerator@test1@test@modules@UModSys@@@tl@UModSys@@2USUniquePointer@core@3@A 000000018006b170     plugin_test1.obj
 0003:000031a0       ?s_id@?$TObjectUniqueID@UIImageFactory@lib2d@UModSys@@@tl@UModSys@@2USUniquePointer@core@3@A 000000018006b1a0     plugin_test1.obj
 0003:000031d0       ?s_id@?$TObjectUniqueID@UIConsoleHelperInput_UIKey@libui@UModSys@@@tl@UModSys@@2USUniquePointer@core@3@A 000000018006b1d0     plugin_test1.obj
 0003:00003200       ?s_id@?$TObjectUniqueID@UIConsoleHelperHistory@base@UModSys@@@tl@UModSys@@2USUniquePointer@core@3@A 000000018006b200     plugin_test1.obj
 0003:00003230       ?s_id@?$TObjectUniqueID@UIModuleLibrary@base@UModSys@@@tl@UModSys@@2USUniquePointer@core@3@A 000000018006b230     plugin_test1.obj
 0003:00003260       ?s_id@?$TObjectUniqueID@UILibraryObjFilter@libmedia@UModSys@@@tl@UModSys@@2USUniquePointer@core@3@A 000000018006b260     plugin_test1.obj
 0003:00003290       ?s_id@?$TObjectUniqueID@UILibrary@libmedia@UModSys@@@tl@UModSys@@2USUniquePointer@core@3@A 000000018006b290     plugin_test1.obj
 0003:000032c0       ?s_id@?$TObjectUniqueID@UIClient@IBinArchiveFrame@libmedia@UModSys@@@tl@UModSys@@2USUniquePointer@core@3@A 000000018006b2c0     plugin_test1.obj
 0003:000032f0       ?s_id@?$TObjectUniqueID@UIRenderObject@lib3d@UModSys@@@tl@UModSys@@2USUniquePointer@core@3@A 000000018006b2f0     plugin_test1.obj
 0003:00003320       ?s_id@?$TObjectUniqueID@UIImage@lib2d@UModSys@@@tl@UModSys@@2USUniquePointer@core@3@A 000000018006b320     plugin_test1.obj
 0003:00003350       ?s_id@?$TObjectUniqueID@UIKeyboardController@libui@UModSys@@@tl@UModSys@@2USUniquePointer@core@3@A 000000018006b350     plugin_test1.obj
 0003:00003380       ?s_id@?$TObjectUniqueID@UIStreamReader@libmedia@UModSys@@@tl@UModSys@@2USUniquePointer@core@3@A 000000018006b380     plugin_test1.obj
 0003:000033b0       ?s_id@?$TObjectUniqueID@UIParameters@core@UModSys@@@tl@UModSys@@2USUniquePointer@core@3@A 000000018006b3b0     plugin_test1.obj
 0003:000033e0       ?s_id@?$TObjectUniqueID@UIConsoleHelperOutput@base@UModSys@@@tl@UModSys@@2USUniquePointer@core@3@A 000000018006b3e0     plugin_test1.obj
 0003:00003410       ?s_id@?$TObjectUniqueID@UIConsoleExt@base@UModSys@@@tl@UModSys@@2USUniquePointer@core@3@A 000000018006b410     plugin_test1.obj
 0003:00003440       ?s_id@?$TObjectUniqueID@UIConsoleHelperInput@base@UModSys@@@tl@UModSys@@2USUniquePointer@core@3@A 000000018006b440     plugin_test1.obj
 0003:00003470       ?s_id@?$TObjectUniqueID@UIAsyncCollector@libui@UModSys@@@tl@UModSys@@2USUniquePointer@core@3@A 000000018006b470     plugin_test1.obj
 0003:000034a0       ?s_id@?$TObjectUniqueID@UISerializeWriter@libmedia@UModSys@@@tl@UModSys@@2USUniquePointer@core@3@A 000000018006b4a0     plugin_test1.obj
 0003:000034d0       ?s_id@?$TObjectUniqueID@URGenerator@stdlib@lib2d@modules@UModSys@@@tl@UModSys@@2USUniquePointer@core@3@A 000000018006b4d0     umodsys_lib_lib2d:umodsys.mod.2d.stdlib.obj
 0003:00003500       ?s_id@?$TObjectUniqueID@URImage_Memory@stdlib@lib2d@modules@UModSys@@@tl@UModSys@@2USUniquePointer@core@3@A 000000018006b500     umodsys_lib_lib2d:umodsys.mod.2d.stdlib.obj
 0003:00003530       ?s_id@?$TObjectUniqueID@URMultiImage@stdlib@lib2d@modules@UModSys@@@tl@UModSys@@2USUniquePointer@core@3@A 000000018006b530     umodsys_lib_lib2d:umodsys.mod.2d.stdlib.obj
 0003:00003560       ?s_id@?$TObjectUniqueID@URImageFactory_Memory@stdlib@lib2d@modules@UModSys@@@tl@UModSys@@2USUniquePointer@core@3@A 000000018006b560     umodsys_lib_lib2d:umodsys.mod.2d.stdlib.obj
 0003:00003590       ?s_id@?$TObjectUniqueID@URRenderDriver3D@SDL_GL@ui@modules@UModSys@@@tl@UModSys@@2USUniquePointer@core@3@A 000000018006b590     umodsys_lib_libui:umodsys.mod.ui.SDL_GL.obj
 0003:000035c0       ?s_id@?$TObjectUniqueID@URTerminalX@SDL_GL@ui@modules@UModSys@@@tl@UModSys@@2USUniquePointer@core@3@A 000000018006b5c0     umodsys_lib_libui:umodsys.mod.ui.SDL_GL.obj
 0003:000035f0       ?s_id@?$TObjectUniqueID@URGenerator@SDL_GL@ui@modules@UModSys@@@tl@UModSys@@2USUniquePointer@core@3@A 000000018006b5f0     umodsys_lib_libui:umodsys.mod.ui.SDL_GL.obj
 0003:00003620       ?s_id@?$TObjectUniqueID@URTerminal@SDL_GL@ui@modules@UModSys@@@tl@UModSys@@2USUniquePointer@core@3@A 000000018006b620     umodsys_lib_libui:umodsys.mod.ui.SDL_GL.obj
 0003:00003650       ?s_id@?$TObjectUniqueID@URKeyboardController@SDL_GL@ui@modules@UModSys@@@tl@UModSys@@2USUniquePointer@core@3@A 000000018006b650     umodsys_lib_libui:umodsys.mod.ui.SDL_GL.obj
 0003:00003680       ?s_id@?$TObjectUniqueID@URMouseController@SDL_GL@ui@modules@UModSys@@@tl@UModSys@@2USUniquePointer@core@3@A 000000018006b680     umodsys_lib_libui:umodsys.mod.ui.SDL_GL.obj
 0003:000036b0       ?s_id@?$TObjectUniqueID@URMultiImage2D_SDL_ttf@SDL_GL@ui@modules@UModSys@@@tl@UModSys@@2USUniquePointer@core@3@A 000000018006b6b0     umodsys_lib_libui:umodsys.mod.ui.SDL_GL.obj
 0003:000036e0       ?s_id@?$TObjectUniqueID@URVertexArray@SDL_GL@ui@modules@UModSys@@@tl@UModSys@@2USUniquePointer@core@3@A 000000018006b6e0     umodsys_lib_libui:umodsys.mod.ui.SDL_GL.obj
 0003:00003710       ?s_id@?$TObjectUniqueID@URTerminalX@SDL_core@ui@modules@UModSys@@@tl@UModSys@@2USUniquePointer@core@3@A 000000018006b710     umodsys_lib_libui:umodsys.mod.ui.SDL_core.obj
 0003:00003740       ?s_id@?$TObjectUniqueID@URKeyboardController@SDL_core@ui@modules@UModSys@@@tl@UModSys@@2USUniquePointer@core@3@A 000000018006b740     umodsys_lib_libui:umodsys.mod.ui.SDL_core.obj
 0003:00003770       ?s_id@?$TObjectUniqueID@URMouseController@SDL_core@ui@modules@UModSys@@@tl@UModSys@@2USUniquePointer@core@3@A 000000018006b770     umodsys_lib_libui:umodsys.mod.ui.SDL_core.obj
 0003:000037a0       ?s_id@?$TObjectUniqueID@URGenerator@SDL_core@ui@modules@UModSys@@@tl@UModSys@@2USUniquePointer@core@3@A 000000018006b7a0     umodsys_lib_libui:umodsys.mod.ui.SDL_core.obj
 0003:000037d0       ?s_id@?$TObjectUniqueID@URTerminal@SDL_core@ui@modules@UModSys@@@tl@UModSys@@2USUniquePointer@core@3@A 000000018006b7d0     umodsys_lib_libui:umodsys.mod.ui.SDL_core.obj
 0003:00003800       ?s_id@?$TObjectUniqueID@URRenderDriver2D@SDL_core@ui@modules@UModSys@@@tl@UModSys@@2USUniquePointer@core@3@A 000000018006b800     umodsys_lib_libui:umodsys.mod.ui.SDL_core.obj
 0003:00003830       ?s_id@?$TObjectUniqueID@URMultiImage2D_SDL_ttf@SDL_core@ui@modules@UModSys@@@tl@UModSys@@2USUniquePointer@core@3@A 000000018006b830     umodsys_lib_libui:umodsys.mod.ui.SDL_core.obj
 0003:00003860       ?s_id@?$TObjectUniqueID@URFrame_Button@frames@ui@modules@UModSys@@@tl@UModSys@@2USUniquePointer@core@3@A 000000018006b860     umodsys_lib_libui:umodsys.mod.ui.frames.obj
 0003:00003890       ?s_id@?$TObjectUniqueID@URFrame_Edit@frames@ui@modules@UModSys@@@tl@UModSys@@2USUniquePointer@core@3@A 000000018006b890     umodsys_lib_libui:umodsys.mod.ui.frames.obj
 0003:000038c0       ?s_id@?$TObjectUniqueID@URFrame_Text@frames@ui@modules@UModSys@@@tl@UModSys@@2USUniquePointer@core@3@A 000000018006b8c0     umodsys_lib_libui:umodsys.mod.ui.frames.obj
 0003:000038f0       ?s_id@?$TObjectUniqueID@URFrame_List@frames@ui@modules@UModSys@@@tl@UModSys@@2USUniquePointer@core@3@A 000000018006b8f0     umodsys_lib_libui:umodsys.mod.ui.frames.obj
 0003:00003920       ?s_id@?$TObjectUniqueID@URFrame_Image@frames@ui@modules@UModSys@@@tl@UModSys@@2USUniquePointer@core@3@A 000000018006b920     umodsys_lib_libui:umodsys.mod.ui.frames.obj
 0003:00003950       ?s_id@?$TObjectUniqueID@URFrame_Common@frames@ui@modules@UModSys@@@tl@UModSys@@2USUniquePointer@core@3@A 000000018006b950     umodsys_lib_libui:umodsys.mod.ui.frames.obj
 0003:00003980       ?s_id@?$TObjectUniqueID@URCollector@frames@ui@modules@UModSys@@@tl@UModSys@@2USUniquePointer@core@3@A 000000018006b980     umodsys_lib_libui:umodsys.mod.ui.frames.obj
 0003:000039b0       ?s_id@?$TObjectUniqueID@URFrame_Frame@frames@ui@modules@UModSys@@@tl@UModSys@@2USUniquePointer@core@3@A 000000018006b9b0     umodsys_lib_libui:umodsys.mod.ui.frames.obj
 0003:000039e0       ?s_id@?$TObjectUniqueID@URGenerator@frames@ui@modules@UModSys@@@tl@UModSys@@2USUniquePointer@core@3@A 000000018006b9e0     umodsys_lib_libui:umodsys.mod.ui.frames.obj
 0003:00003a10       ?s_id@?$TObjectUniqueID@URDialog@frames@ui@modules@UModSys@@@tl@UModSys@@2USUniquePointer@core@3@A 000000018006ba10     umodsys_lib_libui:umodsys.mod.ui.frames.obj
 0003:00003a40       ?s_id@?$TObjectUniqueID@URMediaFilter@images_std@media@modules@UModSys@@@tl@UModSys@@2USUniquePointer@core@3@A 000000018006ba40     umodsys_lib_libmedia:umodsys.mod.media.images_std.obj
 0003:00003a70       ?s_id@?$TObjectUniqueID@URGenerator@images_std@media@modules@UModSys@@@tl@UModSys@@2USUniquePointer@core@3@A 000000018006ba70     umodsys_lib_libmedia:umodsys.mod.media.images_std.obj
 0003:00003aa0       ?s_id@?$TObjectUniqueID@URGenerator@serialize_json@media@modules@UModSys@@@tl@UModSys@@2USUniquePointer@core@3@A 000000018006baa0     umodsys_lib_libmedia:umodsys.mod.media.serialize_json.obj
 0003:00003ad0       ?s_id@?$TObjectUniqueID@URSerializeReader@serialize_json@media@modules@UModSys@@@tl@UModSys@@2USUniquePointer@core@3@A 000000018006bad0     umodsys_lib_libmedia:umodsys.mod.media.serialize_json.obj
 0003:00003b00       ?s_id@?$TObjectUniqueID@URSerializeWriter@serialize_json@media@modules@UModSys@@@tl@UModSys@@2USUniquePointer@core@3@A 000000018006bb00     umodsys_lib_libmedia:umodsys.mod.media.serialize_json.obj
 0003:00003b30       ?s_id@?$TObjectUniqueID@URGenerator@zlib@media@modules@UModSys@@@tl@UModSys@@2USUniquePointer@core@3@A 000000018006bb30     umodsys_lib_libmedia:umodsys.mod.media.zlib.obj
 0003:00003b60       ?s_id@?$TObjectUniqueID@URBinArchiveFrameClient_ZIP@zlib@media@modules@UModSys@@@tl@UModSys@@2USUniquePointer@core@3@A 000000018006bb60     umodsys_lib_libmedia:umodsys.mod.media.zlib.obj
 0003:00003b90       __native_startup_state     000000018006bb90     <common>
 0003:00003b98       __native_startup_lock      000000018006bb98     <common>
 0003:00003ba0       __dyn_tls_init_callback    000000018006bba0     <common>
 0003:00003ba8       __onexitend                000000018006bba8     <common>
 0003:00003bb0       __onexitbegin              000000018006bbb0     <common>

 entry point at        0001:0000aaf0

 Static symbols

 0001:0000a6fc       pre_c_init                 000000018000b6fc f   MSVCRT:crtdll.obj
 0001:0000a9b8       __DllMainCRTStartup        000000018000b9b8 f   MSVCRT:crtdll.obj
 0001:000100b0       ?term_source@images_std@media@modules@UModSys@@YAXPEAUjpeg_decompress_struct@@@Z 00000001800110b0 f    CIL library: CIL module
 0001:000100c0       ?skip_input_data@images_std@media@modules@UModSys@@YAXPEAUjpeg_decompress_struct@@J@Z 00000001800110c0 f    CIL library: CIL module
 0001:000100e0       ?fill_input_buffer@images_std@media@modules@UModSys@@YAEPEAUjpeg_decompress_struct@@@Z 00000001800110e0 f    CIL library: CIL module
 0001:000100f0       ?init_source@images_std@media@modules@UModSys@@YAXPEAUjpeg_decompress_struct@@@Z 00000001800110f0 f    CIL library: CIL module
 0001:00010100       ?error_exit@images_std@media@modules@UModSys@@YAXPEAUjpeg_common_struct@@@Z 0000000180011100 f    CIL library: CIL module
 0001:00043980       ?refer@@YAXXZ              0000000180044980 f    CIL library: CIL module
 0001:00045850       _onexit$fin$0              0000000180046850 f   MSVCRT:atonexit.obj
 0001:00045869       __DllMainCRTStartup$filt$0 0000000180046869 f   MSVCRT:crtdll.obj
 0001:00045899       __DllMainCRTStartup$fin$1  0000000180046899 f   MSVCRT:crtdll.obj
 0001:000458b2       ?filt$0@?0??__ArrayUnwind@@YAXPEAX_KHP6AX0@Z@Z@4HA 00000001800468b2 f   MSVCRT:ehvecdtr.obj
 0001:000458f1       ?fin$0@?0???_M@YAXPEAX_KHP6AX0@Z@Z@4HA 00000001800468f1 f   MSVCRT:ehvecdtr.obj
 0001:00045920       _IsNonwritableInCurrentImage$filt$0 0000000180046920 f   MSVCRT:pesect.obj
 0001:00045950       ?dtor$0@?0???1ICollectorThemeTemplate@libui@UModSys@@QEAA@XZ@4HA 0000000180046950 f    CIL library: CIL module
 0001:00045970       ?dtor$1@?0???1ICollectorThemeTemplate@libui@UModSys@@QEAA@XZ@4HA 0000000180046970 f    CIL library: CIL module
 0001:00045990       ?dtor$0@?0???1UI_Info@RTest1_Shell@test1@test@modules@UModSys@@QEAA@XZ@4HA 0000000180046990 f    CIL library: CIL module
 0001:000459b0       ?dtor$1@?0???1UI_Info@RTest1_Shell@test1@test@modules@UModSys@@QEAA@XZ@4HA 00000001800469b0 f    CIL library: CIL module
 0001:000459d0       ?dtor$2@?0???1UI_Info@RTest1_Shell@test1@test@modules@UModSys@@QEAA@XZ@4HA 00000001800469d0 f    CIL library: CIL module
 0001:000459f0       ?dtor$3@?0???1UI_Info@RTest1_Shell@test1@test@modules@UModSys@@QEAA@XZ@4HA 00000001800469f0 f    CIL library: CIL module
 0001:00045a10       ?dtor$4@?0???1UI_Info@RTest1_Shell@test1@test@modules@UModSys@@QEAA@XZ@4HA 0000000180046a10 f    CIL library: CIL module
 0001:00045a30       ?dtor$5@?0???1UI_Info@RTest1_Shell@test1@test@modules@UModSys@@QEAA@XZ@4HA 0000000180046a30 f    CIL library: CIL module
 0001:00045a50       ?dtor$6@?0???1UI_Info@RTest1_Shell@test1@test@modules@UModSys@@QEAA@XZ@4HA 0000000180046a50 f    CIL library: CIL module
 0001:00045a70       ?dtor$0@?0???1SBuffer@libmedia@UModSys@@QEAA@XZ@4HA 0000000180046a70 f    CIL library: CIL module
 0001:00045a90       ?dtor$1@?0???1?$TTextStreamWriterBuf@D$0BAAA@@libmedia@UModSys@@QEAA@XZ@4HA 0000000180046a90 f    CIL library: CIL module
 0001:00045ab0       ?dtor$0@?0???1RSerializeWriter@serialize_json@media@modules@UModSys@@UEAA@XZ@4HA 0000000180046ab0 f    CIL library: CIL module
 0001:00045ad0       ?dtor$1@?0???1RSerializeWriter@serialize_json@media@modules@UModSys@@UEAA@XZ@4HA 0000000180046ad0 f    CIL library: CIL module
 0001:00045af0       ?dtor$2@?0???1RSerializeWriter@serialize_json@media@modules@UModSys@@UEAA@XZ@4HA 0000000180046af0 f    CIL library: CIL module
 0001:00045b10       ?dtor$4@?0???1RSerializeWriter@serialize_json@media@modules@UModSys@@UEAA@XZ@4HA 0000000180046b10 f    CIL library: CIL module
 0001:00045b30       ?dtor$0@?0??dialog_close_all@RCollector@frames@ui@modules@UModSys@@UEAA_NXZ@4HA 0000000180046b30 f    CIL library: CIL module
 0001:00045b50       ?dtor$0@?0??dialog_close@RCollector@frames@ui@modules@UModSys@@UEAA_NXZ@4HA 0000000180046b50 f    CIL library: CIL module
 0001:00045b70       ?dtor$0@?0???0RDialog@frames@ui@modules@UModSys@@QEAA@PEAURCollector@1234@PEAURFrame_Common@1234@@Z@4HA 0000000180046b70 f    CIL library: CIL module
 0001:00045b90       ?dtor$0@?0???1STextureGL@SDL_GL@ui@modules@UModSys@@QEAA@XZ@4HA 0000000180046b90 f    CIL library: CIL module
 0001:00045bb0       ?dtor$1@?0???1STextureGL@SDL_GL@ui@modules@UModSys@@QEAA@XZ@4HA 0000000180046bb0 f    CIL library: CIL module
 0001:00045be0       ?dtor$0@?0???0RImageFactory_Memory@stdlib@lib2d@modules@UModSys@@QEAA@PEAUIModObject@base@4@AEBUSParameters@core@4@@Z@4HA 0000000180046be0 f    CIL library: CIL module
 0001:00045c00       ?dtor$1@?0??cycle3d@UI_Info@RTest1_Shell@test1@test@modules@UModSys@@QEAAXXZ@4HA 0000000180046c00 f    CIL library: CIL module
 0001:00045c30       ?dtor$0@?0??dialog_open@RCollector@frames@ui@modules@UModSys@@UEAAPEAUIDialog@libui@5@PEAUIFrame@75@@Z@4HA 0000000180046c30 f    CIL library: CIL module
 0001:00045c50       ?dtor$1@?0??dialog_open@RCollector@frames@ui@modules@UModSys@@UEAAPEAUIDialog@libui@5@PEAUIFrame@75@@Z@4HA 0000000180046c50 f    CIL library: CIL module
 0001:00045c70       ?dtor$0@?0???1RCollector@frames@ui@modules@UModSys@@UEAA@XZ@4HA 0000000180046c70 f    CIL library: CIL module
 0001:00045c90       ?dtor$1@?0???1RCollector@frames@ui@modules@UModSys@@UEAA@XZ@4HA 0000000180046c90 f    CIL library: CIL module
 0001:00045cb0       ?dtor$2@?0???1RCollector@frames@ui@modules@UModSys@@UEAA@XZ@4HA 0000000180046cb0 f    CIL library: CIL module
 0001:00045cd0       ?dtor$3@?0???1RCollector@frames@ui@modules@UModSys@@UEAA@XZ@4HA 0000000180046cd0 f    CIL library: CIL module
 0001:00045cf0       ?dtor$4@?0???1RCollector@frames@ui@modules@UModSys@@UEAA@XZ@4HA 0000000180046cf0 f    CIL library: CIL module
 0001:00045d10       ?dtor$5@?0???1RCollector@frames@ui@modules@UModSys@@UEAA@XZ@4HA 0000000180046d10 f    CIL library: CIL module
 0001:00045d30       ?dtor$6@?0???1RCollector@frames@ui@modules@UModSys@@UEAA@XZ@4HA 0000000180046d30 f    CIL library: CIL module
 0001:00045d50       ?dtor$7@?0???1RCollector@frames@ui@modules@UModSys@@UEAA@XZ@4HA 0000000180046d50 f    CIL library: CIL module
 0001:00045d80       ?dtor$0@?0???1RDialog@frames@ui@modules@UModSys@@UEAA@XZ@4HA 0000000180046d80 f    CIL library: CIL module
 0001:00045da0       ?dtor$1@?0???1RDialog@frames@ui@modules@UModSys@@UEAA@XZ@4HA 0000000180046da0 f    CIL library: CIL module
 0001:00045dd0       ?dtor$0@?0???1RFrame_Common@frames@ui@modules@UModSys@@UEAA@XZ@4HA 0000000180046dd0 f    CIL library: CIL module
 0001:00045df0       ?dtor$1@?0???1RFrame_Common@frames@ui@modules@UModSys@@UEAA@XZ@4HA 0000000180046df0 f    CIL library: CIL module
 0001:00045e10       ?dtor$2@?0???1RFrame_Common@frames@ui@modules@UModSys@@UEAA@XZ@4HA 0000000180046e10 f    CIL library: CIL module
 0001:00045e30       ?dtor$3@?0???1RFrame_Common@frames@ui@modules@UModSys@@UEAA@XZ@4HA 0000000180046e30 f    CIL library: CIL module
 0001:00045e50       ?dtor$6@?0???1RFrame_Common@frames@ui@modules@UModSys@@UEAA@XZ@4HA 0000000180046e50 f    CIL library: CIL module
 0001:00045e70       ?dtor$0@?0???1RRenderDriver2D@SDL_core@ui@modules@UModSys@@UEAA@XZ@4HA 0000000180046e70 f    CIL library: CIL module
 0001:00045e90       ?dtor$1@?0???1RRenderDriver2D@SDL_core@ui@modules@UModSys@@UEAA@XZ@4HA 0000000180046e90 f    CIL library: CIL module
 0001:00045eb0       ?dtor$2@?0???1RRenderDriver2D@SDL_core@ui@modules@UModSys@@UEAA@XZ@4HA 0000000180046eb0 f    CIL library: CIL module
 0001:00045ee0       ?dtor$0@?0???1RMultiImage2D_SDL_ttf@SDL_core@ui@modules@UModSys@@UEAA@XZ@4HA 0000000180046ee0 f    CIL library: CIL module
 0001:00045f00       ?dtor$0@?0???0RMultiImage2D_SDL_ttf@SDL_core@ui@modules@UModSys@@QEAA@PEAURRenderDriver2D@1234@AEBUSParameters@core@4@@Z@4HA 0000000180046f00 f    CIL library: CIL module
 0001:00045f20       ?dtor$1@?0???0RMultiImage2D_SDL_ttf@SDL_core@ui@modules@UModSys@@QEAA@PEAURRenderDriver2D@1234@AEBUSParameters@core@4@@Z@4HA 0000000180046f20 f    CIL library: CIL module
 0001:00045f50       ?dtor$0@?0???1RVertexArray@SDL_GL@ui@modules@UModSys@@UEAA@XZ@4HA 0000000180046f50 f    CIL library: CIL module
 0001:00045f70       ?dtor$1@?0???1RVertexArray@SDL_GL@ui@modules@UModSys@@UEAA@XZ@4HA 0000000180046f70 f    CIL library: CIL module
 0001:00045fa0       ?dtor$0@?0???0RVertexArray@SDL_GL@ui@modules@UModSys@@QEAA@PEAURRenderDriver3D@1234@@Z@4HA 0000000180046fa0 f    CIL library: CIL module
 0001:00045fc0       ?dtor$0@?0??setup_array@RRenderDriver3D@SDL_GL@ui@modules@UModSys@@UEAA_NPEAUIVertexArray@lib3d@5@HH@Z@4HA 0000000180046fc0 f    CIL library: CIL module
 0001:00045fe0       ?dtor$0@?0???1RRenderDriver3D@SDL_GL@ui@modules@UModSys@@UEAA@XZ@4HA 0000000180046fe0 f    CIL library: CIL module
 0001:00046000       ?dtor$1@?0???1RRenderDriver3D@SDL_GL@ui@modules@UModSys@@UEAA@XZ@4HA 0000000180047000 f    CIL library: CIL module
 0001:00046020       ?dtor$2@?0???1RRenderDriver3D@SDL_GL@ui@modules@UModSys@@UEAA@XZ@4HA 0000000180047020 f    CIL library: CIL module
 0001:00046050       ?dtor$0@?0???0STextureGL@SDL_GL@ui@modules@UModSys@@QEAA@PEBUSGLFuncs@1234@@Z@4HA 0000000180047050 f    CIL library: CIL module
 0001:00046070       ?dtor$1@?0???0STextureGL@SDL_GL@ui@modules@UModSys@@QEAA@PEBUSGLFuncs@1234@@Z@4HA 0000000180047070 f    CIL library: CIL module
 0001:000460a0       ?dtor$0@?0???1RMouseController@SDL_GL@ui@modules@UModSys@@UEAA@XZ@4HA 00000001800470a0 f    CIL library: CIL module
 0001:000460c0       ?dtor$0@?0???1RKeyboardController@SDL_GL@ui@modules@UModSys@@UEAA@XZ@4HA 00000001800470c0 f    CIL library: CIL module
 0001:000460e0       ?dtor$0@?0??set_layer_count@RMultiImage@stdlib@lib2d@modules@UModSys@@UEAA_NG@Z@4HA 00000001800470e0 f    CIL library: CIL module
 0001:00046100       ?dtor$0@?0???1RImage_Memory@stdlib@lib2d@modules@UModSys@@UEAA@XZ@4HA 0000000180047100 f    CIL library: CIL module
 0001:00046120       ?dtor$0@?0??saver_png@RMediaFilter@images_std@media@modules@UModSys@@QEAA_NPEBUIImage@lib2d@5@AEAUSInfo@IBinObjFilter@libmedia@5@AEBUSParameters@core@5@PEBD_N@Z@4HA 0000000180047120 f    CIL library: CIL module
 0001:00046140       ?dtor$1@?0??saver_png@RMediaFilter@images_std@media@modules@UModSys@@QEAA_NPEBUIImage@lib2d@5@AEAUSInfo@IBinObjFilter@libmedia@5@AEBUSParameters@core@5@PEBD_N@Z@4HA 0000000180047140 f    CIL library: CIL module
 0001:00046160       ?dtor$0@?0??loader_png@RMediaFilter@images_std@media@modules@UModSys@@QEAA_NPEAUIImage@lib2d@5@AEBUSInfo@IBinObjFilter@libmedia@5@AEBUSParameters@core@5@HPEBD_N@Z@4HA 0000000180047160 f    CIL library: CIL module
 0001:00046190       ?dtor$0@?0??loader_jpeg@RMediaFilter@images_std@media@modules@UModSys@@QEAA_NPEAUIImage@lib2d@5@AEBUSInfo@IBinObjFilter@libmedia@5@AEBUSParameters@core@5@HPEBD_N@Z@4HA 0000000180047190 f    CIL library: CIL module
 0001:000461b0       ?dtor$0@?0???0RCollector@frames@ui@modules@UModSys@@QEAA@PEAUIModObject@base@4@AEBUSParameters@core@4@@Z@4HA 00000001800471b0 f    CIL library: CIL module
 0001:000461d0       ?dtor$1@?0???0RCollector@frames@ui@modules@UModSys@@QEAA@PEAUIModObject@base@4@AEBUSParameters@core@4@@Z@4HA 00000001800471d0 f    CIL library: CIL module
 0001:000461f0       ?dtor$2@?0???0RCollector@frames@ui@modules@UModSys@@QEAA@PEAUIModObject@base@4@AEBUSParameters@core@4@@Z@4HA 00000001800471f0 f    CIL library: CIL module
 0001:00046220       ?dtor$3@?0???0RCollector@frames@ui@modules@UModSys@@QEAA@PEAUIModObject@base@4@AEBUSParameters@core@4@@Z@4HA 0000000180047220 f    CIL library: CIL module
 0001:00046250       ?dtor$4@?0???0RCollector@frames@ui@modules@UModSys@@QEAA@PEAUIModObject@base@4@AEBUSParameters@core@4@@Z@4HA 0000000180047250 f    CIL library: CIL module
 0001:00046280       ?dtor$5@?0???0RCollector@frames@ui@modules@UModSys@@QEAA@PEAUIModObject@base@4@AEBUSParameters@core@4@@Z@4HA 0000000180047280 f    CIL library: CIL module
 0001:000462b0       ?dtor$6@?0???0RCollector@frames@ui@modules@UModSys@@QEAA@PEAUIModObject@base@4@AEBUSParameters@core@4@@Z@4HA 00000001800472b0 f    CIL library: CIL module
 0001:000462e0       ?dtor$7@?0???0RCollector@frames@ui@modules@UModSys@@QEAA@PEAUIModObject@base@4@AEBUSParameters@core@4@@Z@4HA 00000001800472e0 f    CIL library: CIL module
 0001:00046310       ?dtor$8@?0???0RCollector@frames@ui@modules@UModSys@@QEAA@PEAUIModObject@base@4@AEBUSParameters@core@4@@Z@4HA 0000000180047310 f    CIL library: CIL module
 0001:00046340       ?dtor$9@?0???0RCollector@frames@ui@modules@UModSys@@QEAA@PEAUIModObject@base@4@AEBUSParameters@core@4@@Z@4HA 0000000180047340 f    CIL library: CIL module
 0001:00046370       ?dtor$0@?0??set_buf@RFrame_Edit@frames@ui@modules@UModSys@@IEAA_NPEBDH@Z@4HA 0000000180047370 f    CIL library: CIL module
 0001:00046390       ?dtor$0@?0???1RFrame_Button@frames@ui@modules@UModSys@@UEAA@XZ@4HA 0000000180047390 f    CIL library: CIL module
 0001:000463b0       ?dtor$0@?0???1RFrame_Image@frames@ui@modules@UModSys@@UEAA@XZ@4HA 00000001800473b0 f    CIL library: CIL module
 0001:000463d0       ?dtor$0@?0???1RFrame_Text@frames@ui@modules@UModSys@@UEAA@XZ@4HA 00000001800473d0 f    CIL library: CIL module
 0001:000463f0       ?dtor$0@?0???0RFrame_Common@frames@ui@modules@UModSys@@QEAA@PEAURCollector@1234@PEAU01234@@Z@4HA 00000001800473f0 f    CIL library: CIL module
 0001:00046410       ?dtor$1@?0???0RFrame_Common@frames@ui@modules@UModSys@@QEAA@PEAURCollector@1234@PEAU01234@@Z@4HA 0000000180047410 f    CIL library: CIL module
 0001:00046440       ?dtor$0@?0???1RKeyboardController@SDL_core@ui@modules@UModSys@@UEAA@XZ@4HA 0000000180047440 f    CIL library: CIL module
 0001:00046460       ?dtor$0@?0???1RMouseController@SDL_core@ui@modules@UModSys@@UEAA@XZ@4HA 0000000180047460 f    CIL library: CIL module
 0001:00046480       ?dtor$0@?0??new_font@RRenderDriver2D@SDL_core@ui@modules@UModSys@@UEAA?AU?$TRefObject@UIMultiImage@lib2d@UModSys@@U?$TRefObjectFunc@UIMultiImage@lib2d@UModSys@@@tl@3@@tl@5@AEBUSParameters@core@5@AEBU?$TString@U?$TSCoreConst@D@su@tl@UModSys@@U?$TComparerBinaryHash@D@234@@75@@Z@4HA 0000000180047480 f    CIL library: CIL module
 0001:000464a0       ?dtor$1@?0??new_font@RRenderDriver2D@SDL_core@ui@modules@UModSys@@UEAA?AU?$TRefObject@UIMultiImage@lib2d@UModSys@@U?$TRefObjectFunc@UIMultiImage@lib2d@UModSys@@@tl@3@@tl@5@AEBUSParameters@core@5@AEBU?$TString@U?$TSCoreConst@D@su@tl@UModSys@@U?$TComparerBinaryHash@D@234@@75@@Z@4HA 00000001800474a0 f    CIL library: CIL module
 0001:000464c0       ?dtor$2@?0??new_font@RRenderDriver2D@SDL_core@ui@modules@UModSys@@UEAA?AU?$TRefObject@UIMultiImage@lib2d@UModSys@@U?$TRefObjectFunc@UIMultiImage@lib2d@UModSys@@@tl@3@@tl@5@AEBUSParameters@core@5@AEBU?$TString@U?$TSCoreConst@D@su@tl@UModSys@@U?$TComparerBinaryHash@D@234@@75@@Z@4HA 00000001800474c0 f    CIL library: CIL module
 0001:000464f0       ?dtor$0@?0??create_array@RRenderDriver3D@SDL_GL@ui@modules@UModSys@@UEAA?AU?$TRefObject@UIVertexArray@lib3d@UModSys@@U?$TRefObjectFunc@UIVertexArray@lib3d@UModSys@@@tl@3@@tl@5@HQEBUSVertexElemInfo@lib3d@5@H@Z@4HA 00000001800474f0 f    CIL library: CIL module
 0001:00046510       ?dtor$1@?0??create_array@RRenderDriver3D@SDL_GL@ui@modules@UModSys@@UEAA?AU?$TRefObject@UIVertexArray@lib3d@UModSys@@U?$TRefObjectFunc@UIVertexArray@lib3d@UModSys@@@tl@3@@tl@5@HQEBUSVertexElemInfo@lib3d@5@H@Z@4HA 0000000180047510 f    CIL library: CIL module
 0001:00046530       ?dtor$2@?0??create_array@RRenderDriver3D@SDL_GL@ui@modules@UModSys@@UEAA?AU?$TRefObject@UIVertexArray@lib3d@UModSys@@U?$TRefObjectFunc@UIVertexArray@lib3d@UModSys@@@tl@3@@tl@5@HQEBUSVertexElemInfo@lib3d@5@H@Z@4HA 0000000180047530 f    CIL library: CIL module
 0001:00046560       ?dtor$0@?0???1RTerminal@SDL_GL@ui@modules@UModSys@@UEAA@XZ@4HA 0000000180047560 f    CIL library: CIL module
 0001:00046580       ?dtor$1@?0???1RTerminal@SDL_GL@ui@modules@UModSys@@UEAA@XZ@4HA 0000000180047580 f    CIL library: CIL module
 0001:000465b0       ?dtor$0@?0???0RTerminal@SDL_GL@ui@modules@UModSys@@QEAA@PEAUIModObject@base@4@@Z@4HA 00000001800475b0 f    CIL library: CIL module
 0001:000465d0       ?dtor$0@?0???1RMultiImage@stdlib@lib2d@modules@UModSys@@UEAA@XZ@4HA 00000001800475d0 f    CIL library: CIL module
 0001:000465f0       ?dtor$1@?0???1RMultiImage@stdlib@lib2d@modules@UModSys@@UEAA@XZ@4HA 00000001800475f0 f    CIL library: CIL module
 0001:00046610       ?dtor$2@?0???1RMultiImage@stdlib@lib2d@modules@UModSys@@UEAA@XZ@4HA 0000000180047610 f    CIL library: CIL module
 0001:00046640       ?dtor$0@?0???0RMultiImage@stdlib@lib2d@modules@UModSys@@QEAA@PEAUIModObject@base@4@AEBUSParameters@core@4@@Z@4HA 0000000180047640 f    CIL library: CIL module
 0001:00046660       ?dtor$1@?0???0RMultiImage@stdlib@lib2d@modules@UModSys@@QEAA@PEAUIModObject@base@4@AEBUSParameters@core@4@@Z@4HA 0000000180047660 f    CIL library: CIL module
 0001:00046680       ?dtor$2@?0???0RMultiImage@stdlib@lib2d@modules@UModSys@@QEAA@PEAUIModObject@base@4@AEBUSParameters@core@4@@Z@4HA 0000000180047680 f    CIL library: CIL module
 0001:000466a0       ?dtor$3@?0???0RMultiImage@stdlib@lib2d@modules@UModSys@@QEAA@PEAUIModObject@base@4@AEBUSParameters@core@4@@Z@4HA 00000001800476a0 f    CIL library: CIL module
 0001:000466d0       ?dtor$0@?0???0RImage_Memory@stdlib@lib2d@modules@UModSys@@QEAA@PEAUIModObject@base@4@AEBUSParameters@core@4@@Z@4HA 00000001800476d0 f    CIL library: CIL module
 0001:000466f0       ?dtor$0@?0??set_info@RImage_Memory@stdlib@lib2d@modules@UModSys@@UEAA_NAEBUSImagePatchInfo@35@PEBD@Z@4HA 00000001800476f0 f    CIL library: CIL module
 0001:00046710       ?dtor$0@?0???1RFrame_Edit@frames@ui@modules@UModSys@@UEAA@XZ@4HA 0000000180047710 f    CIL library: CIL module
 0001:00046730       ?dtor$1@?0???1RFrame_Edit@frames@ui@modules@UModSys@@UEAA@XZ@4HA 0000000180047730 f    CIL library: CIL module
 0001:00046760       ?dtor$0@?0???0RFrame_Edit@frames@ui@modules@UModSys@@QEAA@PEAURCollector@1234@PEAURFrame_Common@1234@@Z@4HA 0000000180047760 f    CIL library: CIL module
 0001:00046780       ?dtor$0@?0???0RFrame_Button@frames@ui@modules@UModSys@@QEAA@PEAURCollector@1234@PEAURFrame_Common@1234@@Z@4HA 0000000180047780 f    CIL library: CIL module
 0001:000467a0       ?dtor$0@?0???0RFrame_Image@frames@ui@modules@UModSys@@QEAA@PEAURCollector@1234@PEAURFrame_Common@1234@@Z@4HA 00000001800477a0 f    CIL library: CIL module
 0001:000467c0       ?dtor$0@?0???0RFrame_Text@frames@ui@modules@UModSys@@QEAA@PEAURCollector@1234@PEAURFrame_Common@1234@@Z@4HA 00000001800477c0 f    CIL library: CIL module
 0001:000467e0       ?dtor$0@?0???0RFrame_Frame@frames@ui@modules@UModSys@@QEAA@PEAURCollector@1234@PEAURFrame_Common@1234@@Z@4HA 00000001800477e0 f    CIL library: CIL module
 0001:00046800       ?dtor$0@?0???1RTerminal@SDL_core@ui@modules@UModSys@@UEAA@XZ@4HA 0000000180047800 f    CIL library: CIL module
 0001:00046820       ?dtor$1@?0???1RTerminal@SDL_core@ui@modules@UModSys@@UEAA@XZ@4HA 0000000180047820 f    CIL library: CIL module
 0001:00046850       ?dtor$0@?0???0RTerminal@SDL_core@ui@modules@UModSys@@QEAA@PEAUIModObject@base@4@@Z@4HA 0000000180047850 f    CIL library: CIL module
 0001:00046870       ?dtor$0@?0???0RRenderDriver2D@SDL_core@ui@modules@UModSys@@QEAA@PEAURTerminalX@1234@@Z@4HA 0000000180047870 f    CIL library: CIL module
 0001:00046890       ?dtor$1@?0???0RRenderDriver2D@SDL_core@ui@modules@UModSys@@QEAA@PEAURTerminalX@1234@@Z@4HA 0000000180047890 f    CIL library: CIL module
 0001:000468b0       ?dtor$2@?0???0RRenderDriver2D@SDL_core@ui@modules@UModSys@@QEAA@PEAURTerminalX@1234@@Z@4HA 00000001800478b0 f    CIL library: CIL module
 0001:000468e0       ?dtor$0@?0???1RTerminalX@SDL_GL@ui@modules@UModSys@@UEAA@XZ@4HA 00000001800478e0 f    CIL library: CIL module
 0001:00046900       ?dtor$0@?0???1RMultiImage2D_SDL_ttf@SDL_GL@ui@modules@UModSys@@UEAA@XZ@4HA 0000000180047900 f    CIL library: CIL module
 0001:00046920       ?dtor$0@?0??image_new@RImageFactory_Memory@stdlib@lib2d@modules@UModSys@@UEAA?AU?$TRefObject@UIImage@lib2d@UModSys@@U?$TRefObjectFunc@UIImage@lib2d@UModSys@@@tl@3@@tl@5@AEBUSImagePatchInfo@35@PEBD@Z@4HA 0000000180047920 f    CIL library: CIL module
 0001:00046940       ?dtor$1@?0??image_new@RImageFactory_Memory@stdlib@lib2d@modules@UModSys@@UEAA?AU?$TRefObject@UIImage@lib2d@UModSys@@U?$TRefObjectFunc@UIImage@lib2d@UModSys@@@tl@3@@tl@5@AEBUSImagePatchInfo@35@PEBD@Z@4HA 0000000180047940 f    CIL library: CIL module
 0001:00046960       ?dtor$2@?0??image_new@RImageFactory_Memory@stdlib@lib2d@modules@UModSys@@UEAA?AU?$TRefObject@UIImage@lib2d@UModSys@@U?$TRefObjectFunc@UIImage@lib2d@UModSys@@@tl@3@@tl@5@AEBUSImagePatchInfo@35@PEBD@Z@4HA 0000000180047960 f    CIL library: CIL module
 0001:00046980       ?dtor$3@?0??image_new@RImageFactory_Memory@stdlib@lib2d@modules@UModSys@@UEAA?AU?$TRefObject@UIImage@lib2d@UModSys@@U?$TRefObjectFunc@UIImage@lib2d@UModSys@@@tl@3@@tl@5@AEBUSImagePatchInfo@35@PEBD@Z@4HA 0000000180047980 f    CIL library: CIL module
 0001:000469b0       ?dtor$0@?0??image_new@RImageFactory_Memory@stdlib@lib2d@modules@UModSys@@UEAA?AU?$TRefObject@UIImage@lib2d@UModSys@@U?$TRefObjectFunc@UIImage@lib2d@UModSys@@@tl@3@@tl@5@XZ@4HA 00000001800479b0 f    CIL library: CIL module
 0001:000469d0       ?dtor$1@?0??image_new@RImageFactory_Memory@stdlib@lib2d@modules@UModSys@@UEAA?AU?$TRefObject@UIImage@lib2d@UModSys@@U?$TRefObjectFunc@UIImage@lib2d@UModSys@@@tl@3@@tl@5@XZ@4HA 00000001800479d0 f    CIL library: CIL module
 0001:000469f0       ?dtor$2@?0??image_new@RImageFactory_Memory@stdlib@lib2d@modules@UModSys@@UEAA?AU?$TRefObject@UIImage@lib2d@UModSys@@U?$TRefObjectFunc@UIImage@lib2d@UModSys@@@tl@3@@tl@5@XZ@4HA 00000001800479f0 f    CIL library: CIL module
 0001:00046a10       ?dtor$3@?0??image_new@RImageFactory_Memory@stdlib@lib2d@modules@UModSys@@UEAA?AU?$TRefObject@UIImage@lib2d@UModSys@@U?$TRefObjectFunc@UIImage@lib2d@UModSys@@@tl@3@@tl@5@XZ@4HA 0000000180047a10 f    CIL library: CIL module
 0001:00046a50       ?dtor$0@?0??new_frames@UI_Info@RTest1_Shell@test1@test@modules@UModSys@@QEAA_NPEAUIController@libui@6@@Z@4HA 0000000180047a50 f    CIL library: CIL module
 0001:00046a70       ?dtor$1@?0??new_frames@UI_Info@RTest1_Shell@test1@test@modules@UModSys@@QEAA_NPEAUIController@libui@6@@Z@4HA 0000000180047a70 f    CIL library: CIL module
 0001:00046a90       ?dtor$2@?0??new_frames@UI_Info@RTest1_Shell@test1@test@modules@UModSys@@QEAA_NPEAUIController@libui@6@@Z@4HA 0000000180047a90 f    CIL library: CIL module
 0001:00046ab0       ?dtor$3@?0??new_frames@UI_Info@RTest1_Shell@test1@test@modules@UModSys@@QEAA_NPEAUIController@libui@6@@Z@4HA 0000000180047ab0 f    CIL library: CIL module
 0001:00046ad0       ?dtor$4@?0??new_frames@UI_Info@RTest1_Shell@test1@test@modules@UModSys@@QEAA_NPEAUIController@libui@6@@Z@4HA 0000000180047ad0 f    CIL library: CIL module
 0001:00046b00       ?dtor$0@?0??create_3d@UI_Info@RTest1_Shell@test1@test@modules@UModSys@@QEAA_NPEBD@Z@4HA 0000000180047b00 f    CIL library: CIL module
 0001:00046b20       ?dtor$2@?0??create_3d@UI_Info@RTest1_Shell@test1@test@modules@UModSys@@QEAA_NPEBD@Z@4HA 0000000180047b20 f    CIL library: CIL module
 0001:00046b50       ?dtor$0@?0??init_term@UI_Info@RTest1_Shell@test1@test@modules@UModSys@@QEAA_NPEBD@Z@4HA 0000000180047b50 f    CIL library: CIL module
 0001:00046b70       ?dtor$1@?0??init_term@UI_Info@RTest1_Shell@test1@test@modules@UModSys@@QEAA_NPEBD@Z@4HA 0000000180047b70 f    CIL library: CIL module
 0001:00046b90       ?dtor$2@?0??init_term@UI_Info@RTest1_Shell@test1@test@modules@UModSys@@QEAA_NPEBD@Z@4HA 0000000180047b90 f    CIL library: CIL module
 0001:00046bb0       ?dtor$7@?0??init_term@UI_Info@RTest1_Shell@test1@test@modules@UModSys@@QEAA_NPEBD@Z@4HA 0000000180047bb0 f    CIL library: CIL module
 0001:00046bd0       ?dtor$3@?0??init_term@UI_Info@RTest1_Shell@test1@test@modules@UModSys@@QEAA_NPEBD@Z@4HA 0000000180047bd0 f    CIL library: CIL module
 0001:00046bf0       ?dtor$12@?0??init_term@UI_Info@RTest1_Shell@test1@test@modules@UModSys@@QEAA_NPEBD@Z@4HA 0000000180047bf0 f    CIL library: CIL module
 0001:00046c20       ?dtor$0@?0??font_2d@UI_Info@RTest1_Shell@test1@test@modules@UModSys@@QEAA_NXZ@4HA 0000000180047c20 f    CIL library: CIL module
 0001:00046c40       ?dtor$1@?0??font_2d@UI_Info@RTest1_Shell@test1@test@modules@UModSys@@QEAA_NXZ@4HA 0000000180047c40 f    CIL library: CIL module
 0001:00046c70       ?dtor$0@?0???0RFrame_List@frames@ui@modules@UModSys@@QEAA@PEAURCollector@1234@PEAURFrame_Common@1234@@Z@4HA 0000000180047c70 f    CIL library: CIL module
 0001:00046c90       ?dtor$0@?0???1RTerminalX@SDL_core@ui@modules@UModSys@@UEAA@XZ@4HA 0000000180047c90 f    CIL library: CIL module
 0001:00046cb0       ?dtor$0@?0???0RTerminalX@SDL_core@ui@modules@UModSys@@QEAA@PEAUIModObject@base@4@AEBUSParameters@core@4@@Z@4HA 0000000180047cb0 f    CIL library: CIL module
 0001:00046cd0       ?dtor$0@?0???0RRenderDriver3D@SDL_GL@ui@modules@UModSys@@QEAA@PEAURTerminalX@1234@@Z@4HA 0000000180047cd0 f    CIL library: CIL module
 0001:00046cf0       ?dtor$1@?0???0RRenderDriver3D@SDL_GL@ui@modules@UModSys@@QEAA@PEAURTerminalX@1234@@Z@4HA 0000000180047cf0 f    CIL library: CIL module
 0001:00046d10       ?dtor$2@?0???0RRenderDriver3D@SDL_GL@ui@modules@UModSys@@QEAA@PEAURTerminalX@1234@@Z@4HA 0000000180047d10 f    CIL library: CIL module
 0001:00046d40       ?dtor$0@?0???0RMultiImage2D_SDL_ttf@SDL_GL@ui@modules@UModSys@@QEAA@PEAURRenderDriver3D@1234@AEBUSParameters@core@4@@Z@4HA 0000000180047d40 f    CIL library: CIL module
 0001:00046d60       ?dtor$1@?0???0RMultiImage2D_SDL_ttf@SDL_GL@ui@modules@UModSys@@QEAA@PEAURRenderDriver3D@1234@AEBUSParameters@core@4@@Z@4HA 0000000180047d60 f    CIL library: CIL module
 0001:00046d90       ?dtor$0@?0??ui_test2@RTest1_Shell@test1@test@modules@UModSys@@QEAAXXZ@4HA 0000000180047d90 f    CIL library: CIL module
 0001:00046db0       ?dtor$0@?0??frame_create_s@RCollector@frames@ui@modules@UModSys@@UEAAPEAUIFrame@libui@5@AEBU?$TString@U?$TSCoreConst@D@su@tl@UModSys@@U?$TComparerBinaryHash@D@234@@tl@5@AEBUSFrameCreateParameters@75@PEBUSParameters@core@5@@Z@4HA 0000000180047db0 f    CIL library: CIL module
 0001:00046dd0       ?dtor$1@?0??frame_create_s@RCollector@frames@ui@modules@UModSys@@UEAAPEAUIFrame@libui@5@AEBU?$TString@U?$TSCoreConst@D@su@tl@UModSys@@U?$TComparerBinaryHash@D@234@@tl@5@AEBUSFrameCreateParameters@75@PEBUSParameters@core@5@@Z@4HA 0000000180047dd0 f    CIL library: CIL module
 0001:00046df0       ?dtor$2@?0??frame_create_s@RCollector@frames@ui@modules@UModSys@@UEAAPEAUIFrame@libui@5@AEBU?$TString@U?$TSCoreConst@D@su@tl@UModSys@@U?$TComparerBinaryHash@D@234@@tl@5@AEBUSFrameCreateParameters@75@PEBUSParameters@core@5@@Z@4HA 0000000180047df0 f    CIL library: CIL module
 0001:00046e10       ?dtor$3@?0??frame_create_s@RCollector@frames@ui@modules@UModSys@@UEAAPEAUIFrame@libui@5@AEBU?$TString@U?$TSCoreConst@D@su@tl@UModSys@@U?$TComparerBinaryHash@D@234@@tl@5@AEBUSFrameCreateParameters@75@PEBUSParameters@core@5@@Z@4HA 0000000180047e10 f    CIL library: CIL module
 0001:00046e30       ?dtor$4@?0??frame_create_s@RCollector@frames@ui@modules@UModSys@@UEAAPEAUIFrame@libui@5@AEBU?$TString@U?$TSCoreConst@D@su@tl@UModSys@@U?$TComparerBinaryHash@D@234@@tl@5@AEBUSFrameCreateParameters@75@PEBUSParameters@core@5@@Z@4HA 0000000180047e30 f    CIL library: CIL module
 0001:00046e50       ?dtor$5@?0??frame_create_s@RCollector@frames@ui@modules@UModSys@@UEAAPEAUIFrame@libui@5@AEBU?$TString@U?$TSCoreConst@D@su@tl@UModSys@@U?$TComparerBinaryHash@D@234@@tl@5@AEBUSFrameCreateParameters@75@PEBUSParameters@core@5@@Z@4HA 0000000180047e50 f    CIL library: CIL module
 0001:00046e70       ?dtor$6@?0??frame_create_s@RCollector@frames@ui@modules@UModSys@@UEAAPEAUIFrame@libui@5@AEBU?$TString@U?$TSCoreConst@D@su@tl@UModSys@@U?$TComparerBinaryHash@D@234@@tl@5@AEBUSFrameCreateParameters@75@PEBUSParameters@core@5@@Z@4HA 0000000180047e70 f    CIL library: CIL module
 0001:00046e90       ?dtor$0@?0??frame_create_n@RCollector@frames@ui@modules@UModSys@@UEAAPEAUIFrame@libui@5@HAEBUSFrameCreateParameters@75@PEBUSParameters@core@5@@Z@4HA 0000000180047e90 f    CIL library: CIL module
 0001:00046eb0       ?dtor$1@?0??frame_create_n@RCollector@frames@ui@modules@UModSys@@UEAAPEAUIFrame@libui@5@HAEBUSFrameCreateParameters@75@PEBUSParameters@core@5@@Z@4HA 0000000180047eb0 f    CIL library: CIL module
 0001:00046ed0       ?dtor$2@?0??frame_create_n@RCollector@frames@ui@modules@UModSys@@UEAAPEAUIFrame@libui@5@HAEBUSFrameCreateParameters@75@PEBUSParameters@core@5@@Z@4HA 0000000180047ed0 f    CIL library: CIL module
 0001:00046ef0       ?dtor$3@?0??frame_create_n@RCollector@frames@ui@modules@UModSys@@UEAAPEAUIFrame@libui@5@HAEBUSFrameCreateParameters@75@PEBUSParameters@core@5@@Z@4HA 0000000180047ef0 f    CIL library: CIL module
 0001:00046f10       ?dtor$4@?0??frame_create_n@RCollector@frames@ui@modules@UModSys@@UEAAPEAUIFrame@libui@5@HAEBUSFrameCreateParameters@75@PEBUSParameters@core@5@@Z@4HA 0000000180047f10 f    CIL library: CIL module
 0001:00046f30       ?dtor$5@?0??frame_create_n@RCollector@frames@ui@modules@UModSys@@UEAAPEAUIFrame@libui@5@HAEBUSFrameCreateParameters@75@PEBUSParameters@core@5@@Z@4HA 0000000180047f30 f    CIL library: CIL module
 0001:00046f50       ?dtor$6@?0??frame_create_n@RCollector@frames@ui@modules@UModSys@@UEAAPEAUIFrame@libui@5@HAEBUSFrameCreateParameters@75@PEBUSParameters@core@5@@Z@4HA 0000000180047f50 f    CIL library: CIL module
 0001:00046f70       ?dtor$0@?0???0RTerminalX@SDL_GL@ui@modules@UModSys@@QEAA@PEAUIModObject@base@4@AEBUSParameters@core@4@@Z@4HA 0000000180047f70 f    CIL library: CIL module
 0001:00046f90       ?dtor$0@?0??new_font@RRenderDriver3D@SDL_GL@ui@modules@UModSys@@UEAA?AU?$TRefObject@UIMultiImage@lib2d@UModSys@@U?$TRefObjectFunc@UIMultiImage@lib2d@UModSys@@@tl@3@@tl@5@AEBUSParameters@core@5@AEBU?$TString@U?$TSCoreConst@D@su@tl@UModSys@@U?$TComparerBinaryHash@D@234@@75@@Z@4HA 0000000180047f90 f    CIL library: CIL module
 0001:00046fb0       ?dtor$1@?0??new_font@RRenderDriver3D@SDL_GL@ui@modules@UModSys@@UEAA?AU?$TRefObject@UIMultiImage@lib2d@UModSys@@U?$TRefObjectFunc@UIMultiImage@lib2d@UModSys@@@tl@3@@tl@5@AEBUSParameters@core@5@AEBU?$TString@U?$TSCoreConst@D@su@tl@UModSys@@U?$TComparerBinaryHash@D@234@@75@@Z@4HA 0000000180047fb0 f    CIL library: CIL module
 0001:00046fd0       ?dtor$2@?0??new_font@RRenderDriver3D@SDL_GL@ui@modules@UModSys@@UEAA?AU?$TRefObject@UIMultiImage@lib2d@UModSys@@U?$TRefObjectFunc@UIMultiImage@lib2d@UModSys@@@tl@3@@tl@5@AEBUSParameters@core@5@AEBU?$TString@U?$TSCoreConst@D@su@tl@UModSys@@U?$TComparerBinaryHash@D@234@@75@@Z@4HA 0000000180047fd0 f    CIL library: CIL module
 0001:00047010       ?dtor$0@?0??data_reader@RBinArchiveFrameClient_ZIP@zlib@media@modules@UModSys@@UEAA?AU?$TRefObject@UIStreamReader@libmedia@UModSys@@U?$TRefObjectFunc@UIStreamReader@libmedia@UModSys@@@tl@3@@tl@5@PEAUIBinArchiveFrame@libmedia@5@PEAUNameNode@895@AEBUSFlags@95@@Z@4HA 0000000180048010 f    CIL library: CIL module
 0001:00047040       ?dtor$1@?0??data_reader@RBinArchiveFrameClient_ZIP@zlib@media@modules@UModSys@@UEAA?AU?$TRefObject@UIStreamReader@libmedia@UModSys@@U?$TRefObjectFunc@UIStreamReader@libmedia@UModSys@@@tl@3@@tl@5@PEAUIBinArchiveFrame@libmedia@5@PEAUNameNode@895@AEBUSFlags@95@@Z@4HA 0000000180048040 f    CIL library: CIL module
 0001:00047060       ?dtor$0@?0??data_save@RBinArchiveFrameClient_ZIP@zlib@media@modules@UModSys@@UEAA_NPEAUIBinArchiveFrame@libmedia@5@AEBUSCMem@core@5@AEBU?$TString@U?$TSCoreConst@D@su@tl@UModSys@@U?$TComparerBinaryHash@D@234@@tl@5@AEBUSFlags@75@@Z@4HA 0000000180048060 f    CIL library: CIL module
 0001:00047080       ?dtor$2@?0??data_save@RBinArchiveFrameClient_ZIP@zlib@media@modules@UModSys@@UEAA_NPEAUIBinArchiveFrame@libmedia@5@AEBUSCMem@core@5@AEBU?$TString@U?$TSCoreConst@D@su@tl@UModSys@@U?$TComparerBinaryHash@D@234@@tl@5@AEBUSFlags@75@@Z@4HA 0000000180048080 f    CIL library: CIL module
 0001:000470a0       ?dtor$3@?0??data_save@RBinArchiveFrameClient_ZIP@zlib@media@modules@UModSys@@UEAA_NPEAUIBinArchiveFrame@libmedia@5@AEBUSCMem@core@5@AEBU?$TString@U?$TSCoreConst@D@su@tl@UModSys@@U?$TComparerBinaryHash@D@234@@tl@5@AEBUSFlags@75@@Z@4HA 00000001800480a0 f    CIL library: CIL module
 0001:000470c0       ?dtor$4@?0??data_save@RBinArchiveFrameClient_ZIP@zlib@media@modules@UModSys@@UEAA_NPEAUIBinArchiveFrame@libmedia@5@AEBUSCMem@core@5@AEBU?$TString@U?$TSCoreConst@D@su@tl@UModSys@@U?$TComparerBinaryHash@D@234@@tl@5@AEBUSFlags@75@@Z@4HA 00000001800480c0 f    CIL library: CIL module
 0001:000470e0       ?dtor$5@?0??data_save@RBinArchiveFrameClient_ZIP@zlib@media@modules@UModSys@@UEAA_NPEAUIBinArchiveFrame@libmedia@5@AEBUSCMem@core@5@AEBU?$TString@U?$TSCoreConst@D@su@tl@UModSys@@U?$TComparerBinaryHash@D@234@@tl@5@AEBUSFlags@75@@Z@4HA 00000001800480e0 f    CIL library: CIL module
 0001:00047110       ?dtor$0@?0??data_load@RBinArchiveFrameClient_ZIP@zlib@media@modules@UModSys@@UEAA_NPEAUIBinArchiveFrame@libmedia@5@AEAUSCMemShared@core@5@PEAUNameNode@675@AEBUSFlags@75@@Z@4HA 0000000180048110 f    CIL library: CIL module
 0001:00047130       ?dtor$1@?0??data_load@RBinArchiveFrameClient_ZIP@zlib@media@modules@UModSys@@UEAA_NPEAUIBinArchiveFrame@libmedia@5@AEAUSCMemShared@core@5@PEAUNameNode@675@AEBUSFlags@75@@Z@4HA 0000000180048130 f    CIL library: CIL module
 0001:00047150       ?dtor$3@?0??data_load@RBinArchiveFrameClient_ZIP@zlib@media@modules@UModSys@@UEAA_NPEAUIBinArchiveFrame@libmedia@5@AEAUSCMemShared@core@5@PEAUNameNode@675@AEBUSFlags@75@@Z@4HA 0000000180048150 f    CIL library: CIL module
 0001:00047170       ?dtor$4@?0??data_load@RBinArchiveFrameClient_ZIP@zlib@media@modules@UModSys@@UEAA_NPEAUIBinArchiveFrame@libmedia@5@AEAUSCMemShared@core@5@PEAUNameNode@675@AEBUSFlags@75@@Z@4HA 0000000180048170 f    CIL library: CIL module
 0001:00047190       ?dtor$5@?0??data_load@RBinArchiveFrameClient_ZIP@zlib@media@modules@UModSys@@UEAA_NPEAUIBinArchiveFrame@libmedia@5@AEAUSCMemShared@core@5@PEAUNameNode@675@AEBUSFlags@75@@Z@4HA 0000000180048190 f    CIL library: CIL module
 0001:000471b0       ?dtor$6@?0??data_load@RBinArchiveFrameClient_ZIP@zlib@media@modules@UModSys@@UEAA_NPEAUIBinArchiveFrame@libmedia@5@AEAUSCMemShared@core@5@PEAUNameNode@675@AEBUSFlags@75@@Z@4HA 00000001800481b0 f    CIL library: CIL module
 0001:000471d0       ?dtor$7@?0??data_load@RBinArchiveFrameClient_ZIP@zlib@media@modules@UModSys@@UEAA_NPEAUIBinArchiveFrame@libmedia@5@AEAUSCMemShared@core@5@PEAUNameNode@675@AEBUSFlags@75@@Z@4HA 00000001800481d0 f    CIL library: CIL module
 0001:000471f0       ?dtor$8@?0??data_load@RBinArchiveFrameClient_ZIP@zlib@media@modules@UModSys@@UEAA_NPEAUIBinArchiveFrame@libmedia@5@AEAUSCMemShared@core@5@PEAUNameNode@675@AEBUSFlags@75@@Z@4HA 00000001800481f0 f    CIL library: CIL module
 0001:00047210       ?dtor$0@?0???$t_generate@UICollector@libui@UModSys@@@SModuleContext@base@UModSys@@QEAA_NAEAU?$TRefObject@UICollector@libui@UModSys@@U?$TRefObjectFunc@UICollector@libui@UModSys@@@tl@3@@tl@2@PEBUSUniquePointerInfo@core@2@AEBUSParameters@62@@Z@4HA 0000000180048210 f    CIL library: CIL module
 0001:00047210       ?dtor$0@?0??suicide@RMultiImage2D_SDL_ttf@SDL_GL@ui@modules@UModSys@@UEAAXXZ@4HA 0000000180048210 f    CIL library: CIL module
 0001:00047210       ?dtor$0@?0??suicide@RVertexArray@SDL_GL@ui@modules@UModSys@@UEAAXXZ@4HA 0000000180048210 f    CIL library: CIL module
 0001:00047210       ?dtor$0@?0??suicide@RFrame_Button@frames@ui@modules@UModSys@@UEAAXXZ@4HA 0000000180048210 f    CIL library: CIL module
 0001:00047210       ?dtor$0@?0??suicide@RMultiImage2D_SDL_ttf@SDL_core@ui@modules@UModSys@@UEAAXXZ@4HA 0000000180048210 f    CIL library: CIL module
 0001:00047210       ?dtor$0@?0??suicide@RDialog@frames@ui@modules@UModSys@@UEAAXXZ@4HA 0000000180048210 f    CIL library: CIL module
 0001:00047210       ?dtor$0@?0??suicide@RFrame_Frame@frames@ui@modules@UModSys@@UEAAXXZ@4HA 0000000180048210 f    CIL library: CIL module
 0001:00047210       ?dtor$0@?0??suicide@RFrame_Image@frames@ui@modules@UModSys@@UEAAXXZ@4HA 0000000180048210 f    CIL library: CIL module
 0001:00047210       ?dtor$0@?0??suicide@RFrame_List@frames@ui@modules@UModSys@@UEAAXXZ@4HA 0000000180048210 f    CIL library: CIL module
 0001:00047210       ?dtor$0@?0??suicide@RFrame_Edit@frames@ui@modules@UModSys@@UEAAXXZ@4HA 0000000180048210 f    CIL library: CIL module
 0001:00047210       ?dtor$0@?0??suicide@RFrame_Text@frames@ui@modules@UModSys@@UEAAXXZ@4HA 0000000180048210 f    CIL library: CIL module
 0001:00047210       ?dtor$0@?0???$t_generate@UITerminal@libui@UModSys@@@SModuleContext@base@UModSys@@QEAA_NAEAU?$TRefObject@UITerminal@libui@UModSys@@U?$TRefObjectFunc@UITerminal@libui@UModSys@@@tl@3@@tl@2@PEBUSUniquePointerInfo@core@2@AEBUSParameters@62@@Z@4HA 0000000180048210 f    CIL library: CIL module
 0001:00047230       ?dtor$1@?0???1?$TPair@HU?$TRefObjectComposite@UIKeyboardClient@libui@UModSys@@UIRefObject@core@3@U?$TRefObjectFunc@UIRefObject@core@UModSys@@@tl@3@@tl@UModSys@@@tl@UModSys@@QEAA@XZ@4HA 0000000180048230 f    CIL library: CIL module
 0001:00047230       ?dtor$1@?0???1?$TPair@HU?$TRefObjectCompositeExtra@UIMouseClient@libui@UModSys@@HUIRefObject@core@3@U?$TRefObjectFunc@UIRefObject@core@UModSys@@@tl@3@@tl@UModSys@@@tl@UModSys@@QEAA@XZ@4HA 0000000180048230 f    CIL library: CIL module
 0001:00047230       ?dtor$0@?0???1?$TRefObjectComposite@UIKeyboardClient@libui@UModSys@@UIRefObject@core@3@U?$TRefObjectFunc@UIRefObject@core@UModSys@@@tl@3@@tl@UModSys@@QEAA@XZ@4HA 0000000180048230 f    CIL library: CIL module
 0001:00047230       ?dtor$1@?0???1SController@libui@UModSys@@QEAA@XZ@4HA 0000000180048230 f    CIL library: CIL module
 0001:00047230       ?dtor$0@?0???1?$TRefObjectCompositeExtra@UIMouseClient@libui@UModSys@@HUIRefObject@core@3@U?$TRefObjectFunc@UIRefObject@core@UModSys@@@tl@3@@tl@UModSys@@QEAA@XZ@4HA 0000000180048230 f    CIL library: CIL module
 0001:00047250       ?dtor$2@?0???R?$TNodeDeleter0@U?$TScatterArrayNode@U?$TRefObjectComposite@UIKeyboardClient@libui@UModSys@@UIRefObject@core@3@U?$TRefObjectFunc@UIRefObject@core@UModSys@@@tl@3@@tl@UModSys@@H@tl@UModSys@@@tl@UModSys@@QEBAHPEAU?$TScatterArrayNode@U?$TRefObjectComposite@UIKeyboardClient@libui@UModSys@@UIRefObject@core@3@U?$TRefObjectFunc@UIRefObject@core@UModSys@@@tl@3@@tl@UModSys@@H@12@@Z@4HA 0000000180048250 f    CIL library: CIL module
 0001:00047250       ?dtor$2@?0???R?$TNodeDeleter0@U?$TScatterArrayNode@U?$TRefObjectCompositeExtra@UIMouseClient@libui@UModSys@@HUIRefObject@core@3@U?$TRefObjectFunc@UIRefObject@core@UModSys@@@tl@3@@tl@UModSys@@H@tl@UModSys@@@tl@UModSys@@QEBAHPEAU?$TScatterArrayNode@U?$TRefObjectCompositeExtra@UIMouseClient@libui@UModSys@@HUIRefObject@core@3@U?$TRefObjectFunc@UIRefObject@core@UModSys@@@tl@3@@tl@UModSys@@H@12@@Z@4HA 0000000180048250 f    CIL library: CIL module
 0001:00047270       ?dtor$0@?0??suicide@RImage_Memory@stdlib@lib2d@modules@UModSys@@UEAAXXZ@4HA 0000000180048270 f    CIL library: CIL module
 0001:00047270       ?dtor$0@?0??suicide@RImageFactory_Memory@stdlib@lib2d@modules@UModSys@@UEAAXXZ@4HA 0000000180048270 f    CIL library: CIL module
 0001:00047270       ?dtor$0@?0??suicide@RTerminal@SDL_core@ui@modules@UModSys@@UEAAXXZ@4HA 0000000180048270 f    CIL library: CIL module
 0001:00047270       ?dtor$0@?0??suicide@RTest1_Shell@test1@test@modules@UModSys@@UEAAXXZ@4HA 0000000180048270 f    CIL library: CIL module
 0001:00047270       ?dtor$0@?0??suicide@RSerializeWriter@serialize_json@media@modules@UModSys@@UEAAXXZ@4HA 0000000180048270 f    CIL library: CIL module
 0001:00047270       ?dtor$0@?0??suicide@RBinArchiveFrameClient_ZIP@zlib@media@modules@UModSys@@UEAAXXZ@4HA 0000000180048270 f    CIL library: CIL module
 0001:00047270       ?dtor$0@?0??suicide@RSerializeReader@serialize_json@media@modules@UModSys@@UEAAXXZ@4HA 0000000180048270 f    CIL library: CIL module
 0001:00047270       ?dtor$0@?0??suicide@RMediaFilter@images_std@media@modules@UModSys@@UEAAXXZ@4HA 0000000180048270 f    CIL library: CIL module
 0001:00047270       ?dtor$0@?0??suicide@RCollector@frames@ui@modules@UModSys@@UEAAXXZ@4HA 0000000180048270 f    CIL library: CIL module
 0001:00047270       ?dtor$0@?0??suicide@RTerminal@SDL_GL@ui@modules@UModSys@@UEAAXXZ@4HA 0000000180048270 f    CIL library: CIL module
 0001:00047270       ?dtor$0@?0??suicide@RMultiImage@stdlib@lib2d@modules@UModSys@@UEAAXXZ@4HA 0000000180048270 f    CIL library: CIL module
 0001:00047290       ?dtor$1@?0???1IBinObjFilter@libmedia@UModSys@@UEAA@XZ@4HA 0000000180048290 f    CIL library: CIL module
 0001:000472b0       ?dtor$0@?0???$t_gen_param@URBinArchiveFrameClient_ZIP@zlib@media@modules@UModSys@@URGenerator@2345@@IGenerator@base@UModSys@@IEAA_NPEAURGenerator@zlib@media@modules@2@AEAU?$TRefObject@UIRefObject@core@UModSys@@U?$TRefObjectFunc@UIRefObject@core@UModSys@@@tl@3@@tl@2@PEBUSUniquePointerInfo@core@2@AEBUSParameters@core@2@@Z@4HA 00000001800482b0 f    CIL library: CIL module
 0001:000472d0       ?dtor$1@?0???$t_gen_param@URBinArchiveFrameClient_ZIP@zlib@media@modules@UModSys@@URGenerator@2345@@IGenerator@base@UModSys@@IEAA_NPEAURGenerator@zlib@media@modules@2@AEAU?$TRefObject@UIRefObject@core@UModSys@@U?$TRefObjectFunc@UIRefObject@core@UModSys@@@tl@3@@tl@2@PEBUSUniquePointerInfo@core@2@AEBUSParameters@core@2@@Z@4HA 00000001800482d0 f    CIL library: CIL module
 0001:000472f0       ?dtor$0@?0???$ValidateConstruction@UIRefObject@core@UModSys@@URMediaFilter@images_std@media@modules@3@@core@UModSys@@YA_NAEAU?$TRefObject@UIRefObject@core@UModSys@@U?$TRefObjectFunc@UIRefObject@core@UModSys@@@tl@3@@tl@1@PEAURMediaFilter@images_std@media@modules@1@@Z@4HA 00000001800482f0 f    CIL library: CIL module
 0001:000472f0       ?dtor$0@?0???$ValidateConstruction@UIRefObject@core@UModSys@@URBinArchiveFrameClient_ZIP@zlib@media@modules@3@@core@UModSys@@YA_NAEAU?$TRefObject@UIRefObject@core@UModSys@@U?$TRefObjectFunc@UIRefObject@core@UModSys@@@tl@3@@tl@1@PEAURBinArchiveFrameClient_ZIP@zlib@media@modules@1@@Z@4HA 00000001800482f0 f    CIL library: CIL module
 0001:000472f0       ?dtor$0@?0???$ValidateConstruction@UIMultiImage@lib2d@UModSys@@URMultiImage2D_SDL_ttf@SDL_core@ui@modules@3@@core@UModSys@@YA_NAEAU?$TRefObject@UIMultiImage@lib2d@UModSys@@U?$TRefObjectFunc@UIMultiImage@lib2d@UModSys@@@tl@3@@tl@1@PEAURMultiImage2D_SDL_ttf@SDL_core@ui@modules@1@@Z@4HA 00000001800482f0 f    CIL library: CIL module
 0001:000472f0       ?dtor$0@?0???$ValidateConstruction@UIRefObject@core@UModSys@@URCollector@frames@ui@modules@3@@core@UModSys@@YA_NAEAU?$TRefObject@UIRefObject@core@UModSys@@U?$TRefObjectFunc@UIRefObject@core@UModSys@@@tl@3@@tl@1@PEAURCollector@frames@ui@modules@1@@Z@4HA 00000001800482f0 f    CIL library: CIL module
 0001:000472f0       ?dtor$0@?0???$ValidateConstruction@UIMultiImage@lib2d@UModSys@@URMultiImage2D_SDL_ttf@SDL_GL@ui@modules@3@@core@UModSys@@YA_NAEAU?$TRefObject@UIMultiImage@lib2d@UModSys@@U?$TRefObjectFunc@UIMultiImage@lib2d@UModSys@@@tl@3@@tl@1@PEAURMultiImage2D_SDL_ttf@SDL_GL@ui@modules@1@@Z@4HA 00000001800482f0 f    CIL library: CIL module
 0001:000472f0       ?dtor$0@?0???$ValidateConstruction@UIRefObject@core@UModSys@@URSerializeReader@serialize_json@media@modules@3@@core@UModSys@@YA_NAEAU?$TRefObject@UIRefObject@core@UModSys@@U?$TRefObjectFunc@UIRefObject@core@UModSys@@@tl@3@@tl@1@PEAURSerializeReader@serialize_json@media@modules@1@@Z@4HA 00000001800482f0 f    CIL library: CIL module
 0001:000472f0       ?dtor$0@?0???$ValidateConstruction@UIImage@lib2d@UModSys@@URImage_Memory@stdlib@2modules@3@@core@UModSys@@YA_NAEAU?$TRefObject@UIImage@lib2d@UModSys@@U?$TRefObjectFunc@UIImage@lib2d@UModSys@@@tl@3@@tl@1@PEAURImage_Memory@stdlib@lib2d@modules@1@@Z@4HA 00000001800482f0 f    CIL library: CIL module
 0001:000472f0       ?dtor$0@?0???$ValidateConstruction@UIRefObject@core@UModSys@@URMultiImage@stdlib@lib2d@modules@3@@core@UModSys@@YA_NAEAU?$TRefObject@UIRefObject@core@UModSys@@U?$TRefObjectFunc@UIRefObject@core@UModSys@@@tl@3@@tl@1@PEAURMultiImage@stdlib@lib2d@modules@1@@Z@4HA 00000001800482f0 f    CIL library: CIL module
 0001:000472f0       ?dtor$0@?0???$ValidateConstruction@UIRefObject@core@UModSys@@URImage_Memory@stdlib@lib2d@modules@3@@core@UModSys@@YA_NAEAU?$TRefObject@UIRefObject@core@UModSys@@U?$TRefObjectFunc@UIRefObject@core@UModSys@@@tl@3@@tl@1@PEAURImage_Memory@stdlib@lib2d@modules@1@@Z@4HA 00000001800482f0 f    CIL library: CIL module
 0001:000472f0       ?dtor$0@?0???$ValidateConstruction@UIRefObject@core@UModSys@@URImageFactory_Memory@stdlib@lib2d@modules@3@@core@UModSys@@YA_NAEAU?$TRefObject@UIRefObject@core@UModSys@@U?$TRefObjectFunc@UIRefObject@core@UModSys@@@tl@3@@tl@1@PEAURImageFactory_Memory@stdlib@lib2d@modules@1@@Z@4HA 00000001800482f0 f    CIL library: CIL module
 0001:000472f0       ?dtor$0@?0???$ValidateConstruction@UIRefObject@core@UModSys@@URSerializeWriter@serialize_json@media@modules@3@@core@UModSys@@YA_NAEAU?$TRefObject@UIRefObject@core@UModSys@@U?$TRefObjectFunc@UIRefObject@core@UModSys@@@tl@3@@tl@1@PEAURSerializeWriter@serialize_json@media@modules@1@@Z@4HA 00000001800482f0 f    CIL library: CIL module
 0001:000472f0       ?dtor$0@?0???$ValidateConstruction@UIRefObject@core@UModSys@@URTerminalX@SDL_GL@ui@modules@3@@core@UModSys@@YA_NAEAU?$TRefObject@UIRefObject@core@UModSys@@U?$TRefObjectFunc@UIRefObject@core@UModSys@@@tl@3@@tl@1@PEAURTerminalX@SDL_GL@ui@modules@1@@Z@4HA 00000001800482f0 f    CIL library: CIL module
 0001:000472f0       ?dtor$0@?0???$ValidateConstruction@UIRefObject@core@UModSys@@URTerminalX@SDL_core@ui@modules@3@@core@UModSys@@YA_NAEAU?$TRefObject@UIRefObject@core@UModSys@@U?$TRefObjectFunc@UIRefObject@core@UModSys@@@tl@3@@tl@1@PEAURTerminalX@SDL_core@ui@modules@1@@Z@4HA 00000001800482f0 f    CIL library: CIL module
 0001:00047310       ?dtor$0@?0???1RSerializeReader@serialize_json@media@modules@UModSys@@UEAA@XZ@4HA 0000000180048310 f    CIL library: CIL module
 0001:00047330       ?dtor$0@?0???1RMediaFilter@images_std@media@modules@UModSys@@UEAA@XZ@4HA 0000000180048330 f    CIL library: CIL module
 0001:00047350       ?dtor$1@?0???1RMediaFilter@images_std@media@modules@UModSys@@UEAA@XZ@4HA 0000000180048350 f    CIL library: CIL module
 0001:00047370       ?dtor$4@?0???1RMediaFilter@images_std@media@modules@UModSys@@UEAA@XZ@4HA 0000000180048370 f    CIL library: CIL module
 0001:00047390       ?dtor$0@?0???0STextureGL@SDL_GL@ui@modules@UModSys@@QEAA@AEBU01234@@Z@4HA 0000000180048390 f    CIL library: CIL module
 0001:000473b0       ?dtor$0@?0???$genx_node@UCmp@?$TScatterArray@U?$TRefObjectCompositeExtra@UIMouseClient@libui@UModSys@@HUIRefObject@core@3@U?$TRefObjectFunc@UIRefObject@core@UModSys@@@tl@3@@tl@UModSys@@HU?$TScalarCompare@H@core@3@U?$TNodeDeleter0@U?$TScatterArrayNode@U?$TRefObjectCompositeExtra@UIMouseClient@libui@UModSys@@HUIRefObject@core@3@U?$TRefObjectFunc@UIRefObject@core@UModSys@@@tl@3@@tl@UModSys@@H@tl@UModSys@@@23@@tl@UModSys@@UGen0@234@@?$TTreeHoldRBD@U?$TScatterArrayNode@U?$TRefObjectCompositeExtra@UIMouseClient@libui@UModSys@@HUIRefObject@core@3@U?$TRefObjectFunc@UIRefObject@core@UModSys@@@tl@3@@tl@UModSys@@H@tl@UModSys@@U?$TNodeDeleter0@U?$TScatterArrayNode@U?$TRefObjectCompositeExtra@UIMouseClient@libui@UModSys@@HUIRefObject@core@3@U?$TRefObjectFunc@UIRefObject@core@UModSys@@@tl@3@@tl@UModSys@@H@tl@UModSys@@@23@@tl@UModSys@@QEAAPEAU?$TScatterArrayNode@U?$TRefObjectCompositeExtra@UIMouseClient@libui@UModSys@@HUIRefObject@core@3@U?$TRefObjectFunc@UIRefObject@core@UModSys@@@tl@3@@tl@UModSys@@H@12@UCmp@?$TScatterArray@U?$TRefObjectCompositeExtra@UIMouseClient@libui@UModSys@@HUIRefObject@core@3@U?$TRefObjectFunc@UIRefObject@core@UModSys@@@tl@3@@tl@UModSys@@HU?$TScalarCompare@H@core@3@U?$TNodeDeleter0@U?$TScatterArrayNode@U?$TRefObjectCompositeExtra@UIMouseClient@libui@UModSys@@HUIRefObject@core@3@U?$TRefObjectFunc@UIRefObject@core@UModSys@@@tl@3@@tl@UModSys@@H@tl@UModSys@@@23@@12@AEBUGen0@512@PEAPEAU312@2_N@Z@4HA 00000001800483b0 f    CIL library: CIL module
 0001:000473d0       ?dtor$1@?0???$genx_node@UCmp@?$TScatterArray@U?$TRefObjectCompositeExtra@UIMouseClient@libui@UModSys@@HUIRefObject@core@3@U?$TRefObjectFunc@UIRefObject@core@UModSys@@@tl@3@@tl@UModSys@@HU?$TScalarCompare@H@core@3@U?$TNodeDeleter0@U?$TScatterArrayNode@U?$TRefObjectCompositeExtra@UIMouseClient@libui@UModSys@@HUIRefObject@core@3@U?$TRefObjectFunc@UIRefObject@core@UModSys@@@tl@3@@tl@UModSys@@H@tl@UModSys@@@23@@tl@UModSys@@UGen0@234@@?$TTreeHoldRBD@U?$TScatterArrayNode@U?$TRefObjectCompositeExtra@UIMouseClient@libui@UModSys@@HUIRefObject@core@3@U?$TRefObjectFunc@UIRefObject@core@UModSys@@@tl@3@@tl@UModSys@@H@tl@UModSys@@U?$TNodeDeleter0@U?$TScatterArrayNode@U?$TRefObjectCompositeExtra@UIMouseClient@libui@UModSys@@HUIRefObject@core@3@U?$TRefObjectFunc@UIRefObject@core@UModSys@@@tl@3@@tl@UModSys@@H@tl@UModSys@@@23@@tl@UModSys@@QEAAPEAU?$TScatterArrayNode@U?$TRefObjectCompositeExtra@UIMouseClient@libui@UModSys@@HUIRefObject@core@3@U?$TRefObjectFunc@UIRefObject@core@UModSys@@@tl@3@@tl@UModSys@@H@12@UCmp@?$TScatterArray@U?$TRefObjectCompositeExtra@UIMouseClient@libui@UModSys@@HUIRefObject@core@3@U?$TRefObjectFunc@UIRefObject@core@UModSys@@@tl@3@@tl@UModSys@@HU?$TScalarCompare@H@core@3@U?$TNodeDeleter0@U?$TScatterArrayNode@U?$TRefObjectCompositeExtra@UIMouseClient@libui@UModSys@@HUIRefObject@core@3@U?$TRefObjectFunc@UIRefObject@core@UModSys@@@tl@3@@tl@UModSys@@H@tl@UModSys@@@23@@12@AEBUGen0@512@PEAPEAU312@2_N@Z@4HA 00000001800483d0 f    CIL library: CIL module
 0001:000473f0       ?dtor$2@?0???$genx_node@UCmp@?$TScatterArray@U?$TRefObjectCompositeExtra@UIMouseClient@libui@UModSys@@HUIRefObject@core@3@U?$TRefObjectFunc@UIRefObject@core@UModSys@@@tl@3@@tl@UModSys@@HU?$TScalarCompare@H@core@3@U?$TNodeDeleter0@U?$TScatterArrayNode@U?$TRefObjectCompositeExtra@UIMouseClient@libui@UModSys@@HUIRefObject@core@3@U?$TRefObjectFunc@UIRefObject@core@UModSys@@@tl@3@@tl@UModSys@@H@tl@UModSys@@@23@@tl@UModSys@@UGen0@234@@?$TTreeHoldRBD@U?$TScatterArrayNode@U?$TRefObjectCompositeExtra@UIMouseClient@libui@UModSys@@HUIRefObject@core@3@U?$TRefObjectFunc@UIRefObject@core@UModSys@@@tl@3@@tl@UModSys@@H@tl@UModSys@@U?$TNodeDeleter0@U?$TScatterArrayNode@U?$TRefObjectCompositeExtra@UIMouseClient@libui@UModSys@@HUIRefObject@core@3@U?$TRefObjectFunc@UIRefObject@core@UModSys@@@tl@3@@tl@UModSys@@H@tl@UModSys@@@23@@tl@UModSys@@QEAAPEAU?$TScatterArrayNode@U?$TRefObjectCompositeExtra@UIMouseClient@libui@UModSys@@HUIRefObject@core@3@U?$TRefObjectFunc@UIRefObject@core@UModSys@@@tl@3@@tl@UModSys@@H@12@UCmp@?$TScatterArray@U?$TRefObjectCompositeExtra@UIMouseClient@libui@UModSys@@HUIRefObject@core@3@U?$TRefObjectFunc@UIRefObject@core@UModSys@@@tl@3@@tl@UModSys@@HU?$TScalarCompare@H@core@3@U?$TNodeDeleter0@U?$TScatterArrayNode@U?$TRefObjectCompositeExtra@UIMouseClient@libui@UModSys@@HUIRefObject@core@3@U?$TRefObjectFunc@UIRefObject@core@UModSys@@@tl@3@@tl@UModSys@@H@tl@UModSys@@@23@@12@AEBUGen0@512@PEAPEAU312@2_N@Z@4HA 00000001800483f0 f    CIL library: CIL module
 0001:00047410       ?dtor$6@?0???$genx_node@UCmp@?$TScatterArray@U?$TRefObjectCompositeExtra@UIMouseClient@libui@UModSys@@HUIRefObject@core@3@U?$TRefObjectFunc@UIRefObject@core@UModSys@@@tl@3@@tl@UModSys@@HU?$TScalarCompare@H@core@3@U?$TNodeDeleter0@U?$TScatterArrayNode@U?$TRefObjectCompositeExtra@UIMouseClient@libui@UModSys@@HUIRefObject@core@3@U?$TRefObjectFunc@UIRefObject@core@UModSys@@@tl@3@@tl@UModSys@@H@tl@UModSys@@@23@@tl@UModSys@@UGen0@234@@?$TTreeHoldRBD@U?$TScatterArrayNode@U?$TRefObjectCompositeExtra@UIMouseClient@libui@UModSys@@HUIRefObject@core@3@U?$TRefObjectFunc@UIRefObject@core@UModSys@@@tl@3@@tl@UModSys@@H@tl@UModSys@@U?$TNodeDeleter0@U?$TScatterArrayNode@U?$TRefObjectCompositeExtra@UIMouseClient@libui@UModSys@@HUIRefObject@core@3@U?$TRefObjectFunc@UIRefObject@core@UModSys@@@tl@3@@tl@UModSys@@H@tl@UModSys@@@23@@tl@UModSys@@QEAAPEAU?$TScatterArrayNode@U?$TRefObjectCompositeExtra@UIMouseClient@libui@UModSys@@HUIRefObject@core@3@U?$TRefObjectFunc@UIRefObject@core@UModSys@@@tl@3@@tl@UModSys@@H@12@UCmp@?$TScatterArray@U?$TRefObjectCompositeExtra@UIMouseClient@libui@UModSys@@HUIRefObject@core@3@U?$TRefObjectFunc@UIRefObject@core@UModSys@@@tl@3@@tl@UModSys@@HU?$TScalarCompare@H@core@3@U?$TNodeDeleter0@U?$TScatterArrayNode@U?$TRefObjectCompositeExtra@UIMouseClient@libui@UModSys@@HUIRefObject@core@3@U?$TRefObjectFunc@UIRefObject@core@UModSys@@@tl@3@@tl@UModSys@@H@tl@UModSys@@@23@@12@AEBUGen0@512@PEAPEAU312@2_N@Z@4HA 0000000180048410 f    CIL library: CIL module
 0001:00047430       ?dtor$0@?0???$genx_node@UCmp@?$TScatterArray@U?$TRefObjectComposite@UIKeyboardClient@libui@UModSys@@UIRefObject@core@3@U?$TRefObjectFunc@UIRefObject@core@UModSys@@@tl@3@@tl@UModSys@@HU?$TScalarCompare@H@core@3@U?$TNodeDeleter0@U?$TScatterArrayNode@U?$TRefObjectComposite@UIKeyboardClient@libui@UModSys@@UIRefObject@core@3@U?$TRefObjectFunc@UIRefObject@core@UModSys@@@tl@3@@tl@UModSys@@H@tl@UModSys@@@23@@tl@UModSys@@UGen0@234@@?$TTreeHoldRBD@U?$TScatterArrayNode@U?$TRefObjectComposite@UIKeyboardClient@libui@UModSys@@UIRefObject@core@3@U?$TRefObjectFunc@UIRefObject@core@UModSys@@@tl@3@@tl@UModSys@@H@tl@UModSys@@U?$TNodeDeleter0@U?$TScatterArrayNode@U?$TRefObjectComposite@UIKeyboardClient@libui@UModSys@@UIRefObject@core@3@U?$TRefObjectFunc@UIRefObject@core@UModSys@@@tl@3@@tl@UModSys@@H@tl@UModSys@@@23@@tl@UModSys@@QEAAPEAU?$TScatterArrayNode@U?$TRefObjectComposite@UIKeyboardClient@libui@UModSys@@UIRefObject@core@3@U?$TRefObjectFunc@UIRefObject@core@UModSys@@@tl@3@@tl@UModSys@@H@12@UCmp@?$TScatterArray@U?$TRefObjectComposite@UIKeyboardClient@libui@UModSys@@UIRefObject@core@3@U?$TRefObjectFunc@UIRefObject@core@UModSys@@@tl@3@@tl@UModSys@@HU?$TScalarCompare@H@core@3@U?$TNodeDeleter0@U?$TScatterArrayNode@U?$TRefObjectComposite@UIKeyboardClient@libui@UModSys@@UIRefObject@core@3@U?$TRefObjectFunc@UIRefObject@core@UModSys@@@tl@3@@tl@UModSys@@H@tl@UModSys@@@23@@12@AEBUGen0@512@PEAPEAU312@2_N@Z@4HA 0000000180048430 f    CIL library: CIL module
 0001:00047450       ?dtor$1@?0???$genx_node@UCmp@?$TScatterArray@U?$TRefObjectComposite@UIKeyboardClient@libui@UModSys@@UIRefObject@core@3@U?$TRefObjectFunc@UIRefObject@core@UModSys@@@tl@3@@tl@UModSys@@HU?$TScalarCompare@H@core@3@U?$TNodeDeleter0@U?$TScatterArrayNode@U?$TRefObjectComposite@UIKeyboardClient@libui@UModSys@@UIRefObject@core@3@U?$TRefObjectFunc@UIRefObject@core@UModSys@@@tl@3@@tl@UModSys@@H@tl@UModSys@@@23@@tl@UModSys@@UGen0@234@@?$TTreeHoldRBD@U?$TScatterArrayNode@U?$TRefObjectComposite@UIKeyboardClient@libui@UModSys@@UIRefObject@core@3@U?$TRefObjectFunc@UIRefObject@core@UModSys@@@tl@3@@tl@UModSys@@H@tl@UModSys@@U?$TNodeDeleter0@U?$TScatterArrayNode@U?$TRefObjectComposite@UIKeyboardClient@libui@UModSys@@UIRefObject@core@3@U?$TRefObjectFunc@UIRefObject@core@UModSys@@@tl@3@@tl@UModSys@@H@tl@UModSys@@@23@@tl@UModSys@@QEAAPEAU?$TScatterArrayNode@U?$TRefObjectComposite@UIKeyboardClient@libui@UModSys@@UIRefObject@core@3@U?$TRefObjectFunc@UIRefObject@core@UModSys@@@tl@3@@tl@UModSys@@H@12@UCmp@?$TScatterArray@U?$TRefObjectComposite@UIKeyboardClient@libui@UModSys@@UIRefObject@core@3@U?$TRefObjectFunc@UIRefObject@core@UModSys@@@tl@3@@tl@UModSys@@HU?$TScalarCompare@H@core@3@U?$TNodeDeleter0@U?$TScatterArrayNode@U?$TRefObjectComposite@UIKeyboardClient@libui@UModSys@@UIRefObject@core@3@U?$TRefObjectFunc@UIRefObject@core@UModSys@@@tl@3@@tl@UModSys@@H@tl@UModSys@@@23@@12@AEBUGen0@512@PEAPEAU312@2_N@Z@4HA 0000000180048450 f    CIL library: CIL module
 0001:00047470       ?dtor$2@?0???$genx_node@UCmp@?$TScatterArray@U?$TRefObjectComposite@UIKeyboardClient@libui@UModSys@@UIRefObject@core@3@U?$TRefObjectFunc@UIRefObject@core@UModSys@@@tl@3@@tl@UModSys@@HU?$TScalarCompare@H@core@3@U?$TNodeDeleter0@U?$TScatterArrayNode@U?$TRefObjectComposite@UIKeyboardClient@libui@UModSys@@UIRefObject@core@3@U?$TRefObjectFunc@UIRefObject@core@UModSys@@@tl@3@@tl@UModSys@@H@tl@UModSys@@@23@@tl@UModSys@@UGen0@234@@?$TTreeHoldRBD@U?$TScatterArrayNode@U?$TRefObjectComposite@UIKeyboardClient@libui@UModSys@@UIRefObject@core@3@U?$TRefObjectFunc@UIRefObject@core@UModSys@@@tl@3@@tl@UModSys@@H@tl@UModSys@@U?$TNodeDeleter0@U?$TScatterArrayNode@U?$TRefObjectComposite@UIKeyboardClient@libui@UModSys@@UIRefObject@core@3@U?$TRefObjectFunc@UIRefObject@core@UModSys@@@tl@3@@tl@UModSys@@H@tl@UModSys@@@23@@tl@UModSys@@QEAAPEAU?$TScatterArrayNode@U?$TRefObjectComposite@UIKeyboardClient@libui@UModSys@@UIRefObject@core@3@U?$TRefObjectFunc@UIRefObject@core@UModSys@@@tl@3@@tl@UModSys@@H@12@UCmp@?$TScatterArray@U?$TRefObjectComposite@UIKeyboardClient@libui@UModSys@@UIRefObject@core@3@U?$TRefObjectFunc@UIRefObject@core@UModSys@@@tl@3@@tl@UModSys@@HU?$TScalarCompare@H@core@3@U?$TNodeDeleter0@U?$TScatterArrayNode@U?$TRefObjectComposite@UIKeyboardClient@libui@UModSys@@UIRefObject@core@3@U?$TRefObjectFunc@UIRefObject@core@UModSys@@@tl@3@@tl@UModSys@@H@tl@UModSys@@@23@@12@AEBUGen0@512@PEAPEAU312@2_N@Z@4HA 0000000180048470 f    CIL library: CIL module
 0001:00047490       ?dtor$6@?0???$genx_node@UCmp@?$TScatterArray@U?$TRefObjectComposite@UIKeyboardClient@libui@UModSys@@UIRefObject@core@3@U?$TRefObjectFunc@UIRefObject@core@UModSys@@@tl@3@@tl@UModSys@@HU?$TScalarCompare@H@core@3@U?$TNodeDeleter0@U?$TScatterArrayNode@U?$TRefObjectComposite@UIKeyboardClient@libui@UModSys@@UIRefObject@core@3@U?$TRefObjectFunc@UIRefObject@core@UModSys@@@tl@3@@tl@UModSys@@H@tl@UModSys@@@23@@tl@UModSys@@UGen0@234@@?$TTreeHoldRBD@U?$TScatterArrayNode@U?$TRefObjectComposite@UIKeyboardClient@libui@UModSys@@UIRefObject@core@3@U?$TRefObjectFunc@UIRefObject@core@UModSys@@@tl@3@@tl@UModSys@@H@tl@UModSys@@U?$TNodeDeleter0@U?$TScatterArrayNode@U?$TRefObjectComposite@UIKeyboardClient@libui@UModSys@@UIRefObject@core@3@U?$TRefObjectFunc@UIRefObject@core@UModSys@@@tl@3@@tl@UModSys@@H@tl@UModSys@@@23@@tl@UModSys@@QEAAPEAU?$TScatterArrayNode@U?$TRefObjectComposite@UIKeyboardClient@libui@UModSys@@UIRefObject@core@3@U?$TRefObjectFunc@UIRefObject@core@UModSys@@@tl@3@@tl@UModSys@@H@12@UCmp@?$TScatterArray@U?$TRefObjectComposite@UIKeyboardClient@libui@UModSys@@UIRefObject@core@3@U?$TRefObjectFunc@UIRefObject@core@UModSys@@@tl@3@@tl@UModSys@@HU?$TScalarCompare@H@core@3@U?$TNodeDeleter0@U?$TScatterArrayNode@U?$TRefObjectComposite@UIKeyboardClient@libui@UModSys@@UIRefObject@core@3@U?$TRefObjectFunc@UIRefObject@core@UModSys@@@tl@3@@tl@UModSys@@H@tl@UModSys@@@23@@12@AEBUGen0@512@PEAPEAU312@2_N@Z@4HA 0000000180048490 f    CIL library: CIL module
 0001:000474b0       ?dtor$0@?0???$generate_type@UITerminal@libui@UModSys@@@RTest1_Shell@test1@test@modules@UModSys@@SA?AU?$TRefObject@UITerminal@libui@UModSys@@U?$TRefObjectFunc@UITerminal@libui@UModSys@@@tl@3@@tl@4@AEBU?$TString@U?$TSCoreConst@D@su@tl@UModSys@@U?$TComparerBinaryHash@D@234@@64@AEBUSParameters@core@4@PEBD@Z@4HA 00000001800484b0 f    CIL library: CIL module
 0001:000474b0       ?dtor$0@?0???$generate_type@UICollector@libui@UModSys@@@RTest1_Shell@test1@test@modules@UModSys@@SA?AU?$TRefObject@UICollector@libui@UModSys@@U?$TRefObjectFunc@UICollector@libui@UModSys@@@tl@3@@tl@4@AEBU?$TString@U?$TSCoreConst@D@su@tl@UModSys@@U?$TComparerBinaryHash@D@234@@64@AEBUSParameters@core@4@PEBD@Z@4HA 00000001800484b0 f    CIL library: CIL module
 0001:000474d0       ?dtor$1@?0???$generate_type@UICollector@libui@UModSys@@@RTest1_Shell@test1@test@modules@UModSys@@SA?AU?$TRefObject@UICollector@libui@UModSys@@U?$TRefObjectFunc@UICollector@libui@UModSys@@@tl@3@@tl@4@AEBU?$TString@U?$TSCoreConst@D@su@tl@UModSys@@U?$TComparerBinaryHash@D@234@@64@AEBUSParameters@core@4@PEBD@Z@4HA 00000001800484d0 f    CIL library: CIL module
 0001:000474d0       ?dtor$1@?0???$generate_type@UITerminal@libui@UModSys@@@RTest1_Shell@test1@test@modules@UModSys@@SA?AU?$TRefObject@UITerminal@libui@UModSys@@U?$TRefObjectFunc@UITerminal@libui@UModSys@@@tl@3@@tl@4@AEBU?$TString@U?$TSCoreConst@D@su@tl@UModSys@@U?$TComparerBinaryHash@D@234@@64@AEBUSParameters@core@4@PEBD@Z@4HA 00000001800484d0 f    CIL library: CIL module
 0001:00047500       ?dtor$0@?0???0RSerializeWriter@serialize_json@media@modules@UModSys@@QEAA@PEAUIModObject@base@4@AEBUSParameters@core@4@@Z@4HA 0000000180048500 f    CIL library: CIL module
 0001:00047520       ?dtor$1@?0???0RSerializeWriter@serialize_json@media@modules@UModSys@@QEAA@PEAUIModObject@base@4@AEBUSParameters@core@4@@Z@4HA 0000000180048520 f    CIL library: CIL module
 0001:00047540       ?dtor$2@?0???0RSerializeWriter@serialize_json@media@modules@UModSys@@QEAA@PEAUIModObject@base@4@AEBUSParameters@core@4@@Z@4HA 0000000180048540 f    CIL library: CIL module
 0001:00047560       ?dtor$0@?0???0RSerializeReader@serialize_json@media@modules@UModSys@@QEAA@PEAUIModObject@base@4@AEBUSParameters@core@4@@Z@4HA 0000000180048560 f    CIL library: CIL module
 0001:00047580       ?dtor$1@?0???0RSerializeReader@serialize_json@media@modules@UModSys@@QEAA@PEAUIModObject@base@4@AEBUSParameters@core@4@@Z@4HA 0000000180048580 f    CIL library: CIL module
 0001:000475a0       ?dtor$2@?0???0RSerializeReader@serialize_json@media@modules@UModSys@@QEAA@PEAUIModObject@base@4@AEBUSParameters@core@4@@Z@4HA 00000001800485a0 f    CIL library: CIL module
 0001:000475c0       ?dtor$0@?0??reader_parse@RSerializeReader@serialize_json@media@modules@UModSys@@UEAA_NPEAUISerializeParser@libmedia@5@@Z@4HA 00000001800485c0 f    CIL library: CIL module
 0001:000475e0       ?dtor$1@?0???1?$TPair@HUGlyph@RMultiImage2D_SDL_ttf@SDL_GL@ui@modules@UModSys@@@tl@UModSys@@QEAA@XZ@4HA 00000001800485e0 f    CIL library: CIL module
 0001:000475e0       ?dtor$0@?0???1Glyph@RMultiImage2D_SDL_ttf@SDL_GL@ui@modules@UModSys@@QEAA@XZ@4HA 00000001800485e0 f    CIL library: CIL module
 0001:00047600       ?dtor$0@?0???0?$TScatterArrayNode@UGlyph@RMultiImage2D_SDL_ttf@SDL_GL@ui@modules@UModSys@@H@tl@UModSys@@QEAA@AEBH@Z@4HA 0000000180048600 f    CIL library: CIL module
 0001:00047620       ?dtor$1@?0???0?$TScatterArrayNode@UGlyph@RMultiImage2D_SDL_ttf@SDL_GL@ui@modules@UModSys@@H@tl@UModSys@@QEAA@AEBH@Z@4HA 0000000180048620 f    CIL library: CIL module
 0001:00047640       ?dtor$5@?0???0?$TScatterArrayNode@UGlyph@RMultiImage2D_SDL_ttf@SDL_GL@ui@modules@UModSys@@H@tl@UModSys@@QEAA@AEBH@Z@4HA 0000000180048640 f    CIL library: CIL module
 0001:00047660       ?dtor$0@?0???$genx_node@UCmp@?$TScatterArray@UGlyph@RMultiImage2D_SDL_ttf@SDL_GL@ui@modules@UModSys@@HU?$TScalarCompare@H@core@6@U?$TNodeDeleter0@U?$TScatterArrayNode@UGlyph@RMultiImage2D_SDL_ttf@SDL_GL@ui@modules@UModSys@@H@tl@UModSys@@@tl@6@@tl@UModSys@@UGen0@234@@?$TTreeHoldRBD@U?$TScatterArrayNode@UGlyph@RMultiImage2D_SDL_ttf@SDL_GL@ui@modules@UModSys@@H@tl@UModSys@@U?$TNodeDeleter0@U?$TScatterArrayNode@UGlyph@RMultiImage2D_SDL_ttf@SDL_GL@ui@modules@UModSys@@H@tl@UModSys@@@23@@tl@UModSys@@QEAAPEAU?$TScatterArrayNode@UGlyph@RMultiImage2D_SDL_ttf@SDL_GL@ui@modules@UModSys@@H@12@UCmp@?$TScatterArray@UGlyph@RMultiImage2D_SDL_ttf@SDL_GL@ui@modules@UModSys@@HU?$TScalarCompare@H@core@6@U?$TNodeDeleter0@U?$TScatterArrayNode@UGlyph@RMultiImage2D_SDL_ttf@SDL_GL@ui@modules@UModSys@@H@tl@UModSys@@@tl@6@@12@AEBUGen0@512@PEAPEAU312@2_N@Z@4HA 0000000180048660 f    CIL library: CIL module
 0001:00047680       ?dtor$0@?0??generate@RGenerator@serialize_json@media@modules@UModSys@@UEAA_NAEAU?$TRefObject@UIRefObject@core@UModSys@@U?$TRefObjectFunc@UIRefObject@core@UModSys@@@tl@3@@tl@5@PEBUSUniquePointerInfo@core@5@AEBUSParameters@95@@Z@4HA 0000000180048680 f    CIL library: CIL module
 0001:000476a0       ?dtor$1@?0??generate@RGenerator@serialize_json@media@modules@UModSys@@UEAA_NAEAU?$TRefObject@UIRefObject@core@UModSys@@U?$TRefObjectFunc@UIRefObject@core@UModSys@@@tl@3@@tl@5@PEBUSUniquePointerInfo@core@5@AEBUSParameters@95@@Z@4HA 00000001800486a0 f    CIL library: CIL module
 0001:000476c0       ?dtor$0@?0???0RMediaFilter@images_std@media@modules@UModSys@@QEAA@PEAUIModObject@base@4@AEBUSParameters@core@4@@Z@4HA 00000001800486c0 f    CIL library: CIL module
 0001:000476e0       ?dtor$1@?0???0RMediaFilter@images_std@media@modules@UModSys@@QEAA@PEAUIModObject@base@4@AEBUSParameters@core@4@@Z@4HA 00000001800486e0 f    CIL library: CIL module
 0001:00047700       ?dtor$2@?0???$process_nodes_r@U?$TNodeDeleter0@U?$TScatterArrayNode@UGlyph@RMultiImage2D_SDL_ttf@SDL_GL@ui@modules@UModSys@@H@tl@UModSys@@@tl@UModSys@@@?$TTreeHoldRB@U?$TScatterArrayNode@UGlyph@RMultiImage2D_SDL_ttf@SDL_GL@ui@modules@UModSys@@H@tl@UModSys@@@tl@UModSys@@KAHPEAU?$TScatterArrayNode@UGlyph@RMultiImage2D_SDL_ttf@SDL_GL@ui@modules@UModSys@@H@12@AEBU?$TNodeDeleter0@U?$TScatterArrayNode@UGlyph@RMultiImage2D_SDL_ttf@SDL_GL@ui@modules@UModSys@@H@tl@UModSys@@@12@@Z@4HA 0000000180048700 f    CIL library: CIL module
 0001:00047720       ?dtor$0@?0??generate@RGenerator@stdlib@lib2d@modules@UModSys@@UEAA_NAEAU?$TRefObject@UIRefObject@core@UModSys@@U?$TRefObjectFunc@UIRefObject@core@UModSys@@@tl@3@@tl@5@PEBUSUniquePointerInfo@core@5@AEBUSParameters@95@@Z@4HA 0000000180048720 f    CIL library: CIL module
 0001:00047740       ?dtor$1@?0??generate@RGenerator@stdlib@lib2d@modules@UModSys@@UEAA_NAEAU?$TRefObject@UIRefObject@core@UModSys@@U?$TRefObjectFunc@UIRefObject@core@UModSys@@@tl@3@@tl@5@PEBUSUniquePointerInfo@core@5@AEBUSParameters@95@@Z@4HA 0000000180048740 f    CIL library: CIL module
 0001:00047760       ?dtor$2@?0??generate@RGenerator@stdlib@lib2d@modules@UModSys@@UEAA_NAEAU?$TRefObject@UIRefObject@core@UModSys@@U?$TRefObjectFunc@UIRefObject@core@UModSys@@@tl@3@@tl@5@PEBUSUniquePointerInfo@core@5@AEBUSParameters@95@@Z@4HA 0000000180048760 f    CIL library: CIL module
 0001:00047780       ?dtor$0@?0??generate@RGenerator@test1@test@modules@UModSys@@UEAA_NAEAU?$TRefObject@UIRefObject@core@UModSys@@U?$TRefObjectFunc@UIRefObject@core@UModSys@@@tl@3@@tl@5@PEBUSUniquePointerInfo@core@5@AEBUSParameters@95@@Z@4HA 0000000180048780 f    CIL library: CIL module
 0001:00047780       ?dtor$0@?0??generate@RGenerator@images_std@media@modules@UModSys@@UEAA_NAEAU?$TRefObject@UIRefObject@core@UModSys@@U?$TRefObjectFunc@UIRefObject@core@UModSys@@@tl@3@@tl@5@PEBUSUniquePointerInfo@core@5@AEBUSParameters@95@@Z@4HA 0000000180048780 f    CIL library: CIL module
 0001:00047780       ?dtor$0@?0??generate@RGenerator@SDL_GL@ui@modules@UModSys@@UEAA_NAEAU?$TRefObject@UIRefObject@core@UModSys@@U?$TRefObjectFunc@UIRefObject@core@UModSys@@@tl@3@@tl@5@PEBUSUniquePointerInfo@core@5@AEBUSParameters@95@@Z@4HA 0000000180048780 f    CIL library: CIL module
 0001:00047780       ?dtor$0@?0??generate@RGenerator@SDL_core@ui@modules@UModSys@@UEAA_NAEAU?$TRefObject@UIRefObject@core@UModSys@@U?$TRefObjectFunc@UIRefObject@core@UModSys@@@tl@3@@tl@5@PEBUSUniquePointerInfo@core@5@AEBUSParameters@95@@Z@4HA 0000000180048780 f    CIL library: CIL module
 0001:00047780       ?dtor$0@?0??generate@RGenerator@frames@ui@modules@UModSys@@UEAA_NAEAU?$TRefObject@UIRefObject@core@UModSys@@U?$TRefObjectFunc@UIRefObject@core@UModSys@@@tl@3@@tl@5@PEBUSUniquePointerInfo@core@5@AEBUSParameters@95@@Z@4HA 0000000180048780 f    CIL library: CIL module
 0001:000477a0       ?dtor$0@?0???0RTest1_Shell@test1@test@modules@UModSys@@QEAA@PEAUIModObject@base@4@@Z@4HA 00000001800487a0 f    CIL library: CIL module
 0001:000477a0       ?dtor$0@?0???1RTest1_Shell@test1@test@modules@UModSys@@UEAA@XZ@4HA 00000001800487a0 f    CIL library: CIL module
 0001:000477c0       ??__Es_dbg@test1@test@modules@UModSys@@YAXXZ 00000001800487c0 f    CIL library: CIL module
 0001:000477f0       ??__E?s_modreg@RModuleReg@test1@test@modules@UModSys@@2U12345@A@@YAXXZ 00000001800487f0 f    CIL library: CIL module
 0001:00047860       ??__E?s_modreg_chain@RModuleReg@test1@test@modules@UModSys@@2USModuleRegChain@base@5@A@@YAXXZ 0000000180048860 f    CIL library: CIL module
 0001:00047890       ??__E?s_uid@RGenerator@test1@test@modules@UModSys@@2USUniquePointer@core@5@A@@YAXXZ 0000000180048890 f    CIL library: CIL module
 0001:000478d0       ??__E?s_id@?$TObjectUniqueID@UIRoot@core@UModSys@@@tl@UModSys@@2USUniquePointer@core@3@A@@YAXXZ 00000001800488d0 f    CIL library: CIL module
 0001:00047910       ??__E?s_id@?$TObjectUniqueID@UIRefObject@core@UModSys@@@tl@UModSys@@2USUniquePointer@core@3@A@@YAXXZ 0000000180048910 f    CIL library: CIL module
 0001:00047950       ??__E?s_id@?$TObjectUniqueID@UIParameters@core@UModSys@@@tl@UModSys@@2USUniquePointer@core@3@A@@YAXXZ 0000000180048950 f    CIL library: CIL module
 0001:00047990       ??__E?s_id@?$TObjectUniqueID@UIConsole@base@UModSys@@@tl@UModSys@@2USUniquePointer@core@3@A@@YAXXZ 0000000180048990 f    CIL library: CIL module
 0001:000479d0       ??__E?s_id@?$TObjectUniqueID@UIModule@base@UModSys@@@tl@UModSys@@2USUniquePointer@core@3@A@@YAXXZ 00000001800489d0 f    CIL library: CIL module
 0001:00047a10       ??__E?s_id@?$TObjectUniqueID@UIModuleLibrary@base@UModSys@@@tl@UModSys@@2USUniquePointer@core@3@A@@YAXXZ 0000000180048a10 f    CIL library: CIL module
 0001:00047a50       ??__E?s_id@?$TObjectUniqueID@UIModObject@base@UModSys@@@tl@UModSys@@2USUniquePointer@core@3@A@@YAXXZ 0000000180048a50 f    CIL library: CIL module
 0001:00047a90       ??__E?s_id@?$TObjectUniqueID@UIGenerator@base@UModSys@@@tl@UModSys@@2USUniquePointer@core@3@A@@YAXXZ 0000000180048a90 f    CIL library: CIL module
 0001:00047ad0       ??__E?s_id@?$TObjectUniqueID@UIShell@base@UModSys@@@tl@UModSys@@2USUniquePointer@core@3@A@@YAXXZ 0000000180048ad0 f    CIL library: CIL module
 0001:00047b10       ??__E?s_id@?$TObjectUniqueID@UISystem@base@UModSys@@@tl@UModSys@@2USUniquePointer@core@3@A@@YAXXZ 0000000180048b10 f    CIL library: CIL module
 0001:00047b50       ??__E?s_id@?$TObjectUniqueID@UIStreamReader@libmedia@UModSys@@@tl@UModSys@@2USUniquePointer@core@3@A@@YAXXZ 0000000180048b50 f    CIL library: CIL module
 0001:00047b90       ??__E?s_id@?$TObjectUniqueID@UIStreamWriter@libmedia@UModSys@@@tl@UModSys@@2USUniquePointer@core@3@A@@YAXXZ 0000000180048b90 f    CIL library: CIL module
 0001:00047bd0       ??__E?s_id@?$TObjectUniqueID@UIUtilities@libmedia@UModSys@@@tl@UModSys@@2USUniquePointer@core@3@A@@YAXXZ 0000000180048bd0 f    CIL library: CIL module
 0001:00047c10       ??__E?s_id@?$TObjectUniqueID@UILibObject@libmedia@UModSys@@@tl@UModSys@@2USUniquePointer@core@3@A@@YAXXZ 0000000180048c10 f    CIL library: CIL module
 0001:00047c50       ??__E?s_id@?$TObjectUniqueID@UIBinArchive@libmedia@UModSys@@@tl@UModSys@@2USUniquePointer@core@3@A@@YAXXZ 0000000180048c50 f    CIL library: CIL module
 0001:00047c90       ??__E?s_id@?$TObjectUniqueID@UIBinObjFilter@libmedia@UModSys@@@tl@UModSys@@2USUniquePointer@core@3@A@@YAXXZ 0000000180048c90 f    CIL library: CIL module
 0001:00047cd0       ??__E?s_id@?$TObjectUniqueID@UILibrary@libmedia@UModSys@@@tl@UModSys@@2USUniquePointer@core@3@A@@YAXXZ 0000000180048cd0 f    CIL library: CIL module
 0001:00047d10       ??__E?s_id@?$TObjectUniqueID@UILibraryBinTree@libmedia@UModSys@@@tl@UModSys@@2USUniquePointer@core@3@A@@YAXXZ 0000000180048d10 f    CIL library: CIL module
 0001:00047d50       ??__E?s_id@?$TObjectUniqueID@UILibraryBinCache@libmedia@UModSys@@@tl@UModSys@@2USUniquePointer@core@3@A@@YAXXZ 0000000180048d50 f    CIL library: CIL module
 0001:00047d90       ??__E?s_id@?$TObjectUniqueID@UILibraryObjFilter@libmedia@UModSys@@@tl@UModSys@@2USUniquePointer@core@3@A@@YAXXZ 0000000180048d90 f    CIL library: CIL module
 0001:00047dd0       ??__E?s_id@?$TObjectUniqueID@UILibraryObjCache@libmedia@UModSys@@@tl@UModSys@@2USUniquePointer@core@3@A@@YAXXZ 0000000180048dd0 f    CIL library: CIL module
 0001:00047e10       ??__E?s_id@?$TObjectUniqueID@UILibraryLayered@libmedia@UModSys@@@tl@UModSys@@2USUniquePointer@core@3@A@@YAXXZ 0000000180048e10 f    CIL library: CIL module
 0001:00047e50       ??__E?s_id@?$TObjectUniqueID@UIBinArchiveFrame@libmedia@UModSys@@@tl@UModSys@@2USUniquePointer@core@3@A@@YAXXZ 0000000180048e50 f    CIL library: CIL module
 0001:00047e90       ??__E?s_id@?$TObjectUniqueID@UIClient@IBinArchiveFrame@libmedia@UModSys@@@tl@UModSys@@2USUniquePointer@core@3@A@@YAXXZ 0000000180048e90 f    CIL library: CIL module
 0001:00047ed0       ??__E?s_id@?$TObjectUniqueID@UISerializeReader@libmedia@UModSys@@@tl@UModSys@@2USUniquePointer@core@3@A@@YAXXZ 0000000180048ed0 f    CIL library: CIL module
 0001:00047f10       ??__E?s_id@?$TObjectUniqueID@UISerializeWriter@libmedia@UModSys@@@tl@UModSys@@2USUniquePointer@core@3@A@@YAXXZ 0000000180048f10 f    CIL library: CIL module
 0001:00047f50       ??__E?s_id@?$TObjectUniqueID@UIConsoleExt@base@UModSys@@@tl@UModSys@@2USUniquePointer@core@3@A@@YAXXZ 0000000180048f50 f    CIL library: CIL module
 0001:00047f90       ??__E?s_id@?$TObjectUniqueID@UIConsoleHelper@base@UModSys@@@tl@UModSys@@2USUniquePointer@core@3@A@@YAXXZ 0000000180048f90 f    CIL library: CIL module
 0001:00047fd0       ??__E?s_id@?$TObjectUniqueID@UIConsoleHelperHistory@base@UModSys@@@tl@UModSys@@2USUniquePointer@core@3@A@@YAXXZ 0000000180048fd0 f    CIL library: CIL module
 0001:00048010       ??__E?s_id@?$TObjectUniqueID@UIConsoleHelperInput@base@UModSys@@@tl@UModSys@@2USUniquePointer@core@3@A@@YAXXZ 0000000180049010 f    CIL library: CIL module
 0001:00048050       ??__E?s_id@?$TObjectUniqueID@UIConsoleHelperOutput@base@UModSys@@@tl@UModSys@@2USUniquePointer@core@3@A@@YAXXZ 0000000180049050 f    CIL library: CIL module
 0001:00048090       ??__E?s_id@?$TObjectUniqueID@UIConsoleHelperOutputFCS@base@UModSys@@@tl@UModSys@@2USUniquePointer@core@3@A@@YAXXZ 0000000180049090 f    CIL library: CIL module
 0001:000480d0       ??__E?s_id@?$TObjectUniqueID@UIKeyboardController@libui@UModSys@@@tl@UModSys@@2USUniquePointer@core@3@A@@YAXXZ 00000001800490d0 f    CIL library: CIL module
 0001:00048110       ??__E?s_id@?$TObjectUniqueID@UIMouseController@libui@UModSys@@@tl@UModSys@@2USUniquePointer@core@3@A@@YAXXZ 0000000180049110 f    CIL library: CIL module
 0001:00048150       ??__E?s_id@?$TObjectUniqueID@UIJoystickController@libui@UModSys@@@tl@UModSys@@2USUniquePointer@core@3@A@@YAXXZ 0000000180049150 f    CIL library: CIL module
 0001:00048190       ??__E?s_id@?$TObjectUniqueID@UITerminal@libui@UModSys@@@tl@UModSys@@2USUniquePointer@core@3@A@@YAXXZ 0000000180049190 f    CIL library: CIL module
 0001:000481d0       ??__E?s_id@?$TObjectUniqueID@UIConsoleHelperInput_UIKey@libui@UModSys@@@tl@UModSys@@2USUniquePointer@core@3@A@@YAXXZ 00000001800491d0 f    CIL library: CIL module
 0001:00048210       ??__E?s_id@?$TObjectUniqueID@UICollector@libui@UModSys@@@tl@UModSys@@2USUniquePointer@core@3@A@@YAXXZ 0000000180049210 f    CIL library: CIL module
 0001:00048250       ??__E?s_id@?$TObjectUniqueID@UIAsyncController@libui@UModSys@@@tl@UModSys@@2USUniquePointer@core@3@A@@YAXXZ 0000000180049250 f    CIL library: CIL module
 0001:00048290       ??__E?s_id@?$TObjectUniqueID@UIAsyncCollector@libui@UModSys@@@tl@UModSys@@2USUniquePointer@core@3@A@@YAXXZ 0000000180049290 f    CIL library: CIL module
 0001:000482d0       ??__E?s_id@?$TObjectUniqueID@UIFrame@libui@UModSys@@@tl@UModSys@@2USUniquePointer@core@3@A@@YAXXZ 00000001800492d0 f    CIL library: CIL module
 0001:00048310       ??__E?s_id@?$TObjectUniqueID@UIDialog@libui@UModSys@@@tl@UModSys@@2USUniquePointer@core@3@A@@YAXXZ 0000000180049310 f    CIL library: CIL module
 0001:00048350       ??__E?s_id@?$TObjectUniqueID@UIImage@lib2d@UModSys@@@tl@UModSys@@2USUniquePointer@core@3@A@@YAXXZ 0000000180049350 f    CIL library: CIL module
 0001:00048390       ??__E?s_id@?$TObjectUniqueID@UIImageFactory@lib2d@UModSys@@@tl@UModSys@@2USUniquePointer@core@3@A@@YAXXZ 0000000180049390 f    CIL library: CIL module
 0001:000483d0       ??__E?s_id@?$TObjectUniqueID@UIMultiImage@lib2d@UModSys@@@tl@UModSys@@2USUniquePointer@core@3@A@@YAXXZ 00000001800493d0 f    CIL library: CIL module
 0001:00048410       ??__E?s_id@?$TObjectUniqueID@UIRenderDriver@lib2d@UModSys@@@tl@UModSys@@2USUniquePointer@core@3@A@@YAXXZ 0000000180049410 f    CIL library: CIL module
 0001:00048450       ??__E?s_id@?$TObjectUniqueID@UIObject@lib3d@UModSys@@@tl@UModSys@@2USUniquePointer@core@3@A@@YAXXZ 0000000180049450 f    CIL library: CIL module
 0001:00048490       ??__E?s_id@?$TObjectUniqueID@UIRenderObject@lib3d@UModSys@@@tl@UModSys@@2USUniquePointer@core@3@A@@YAXXZ 0000000180049490 f    CIL library: CIL module
 0001:000484d0       ??__E?s_id@?$TObjectUniqueID@UINodeObject@lib3d@UModSys@@@tl@UModSys@@2USUniquePointer@core@3@A@@YAXXZ 00000001800494d0 f    CIL library: CIL module
 0001:00048510       ??__E?s_id@?$TObjectUniqueID@UISharedLibrary@lib3d@UModSys@@@tl@UModSys@@2USUniquePointer@core@3@A@@YAXXZ 0000000180049510 f    CIL library: CIL module
 0001:00048550       ??__E?s_id@?$TObjectUniqueID@UIRenderer@lib3d@UModSys@@@tl@UModSys@@2USUniquePointer@core@3@A@@YAXXZ 0000000180049550 f    CIL library: CIL module
 0001:00048590       ??__E?s_id@?$TObjectUniqueID@UITexture@lib3d@UModSys@@@tl@UModSys@@2USUniquePointer@core@3@A@@YAXXZ 0000000180049590 f    CIL library: CIL module
 0001:000485d0       ??__E?s_id@?$TObjectUniqueID@UITextureCells@lib3d@UModSys@@@tl@UModSys@@2USUniquePointer@core@3@A@@YAXXZ 00000001800495d0 f    CIL library: CIL module
 0001:00048610       ??__E?s_id@?$TObjectUniqueID@UIVertexArray@lib3d@UModSys@@@tl@UModSys@@2USUniquePointer@core@3@A@@YAXXZ 0000000180049610 f    CIL library: CIL module
 0001:00048650       ??__E?s_id@?$TObjectUniqueID@UIRenderDriver@lib3d@UModSys@@@tl@UModSys@@2USUniquePointer@core@3@A@@YAXXZ 0000000180049650 f    CIL library: CIL module
 0001:00048690       ??__E?s_id@?$TObjectUniqueID@UILines@test1@test@modules@UModSys@@@tl@UModSys@@2USUniquePointer@core@3@A@@YAXXZ 0000000180049690 f    CIL library: CIL module
 0001:000486d0       ??__E?s_id@?$TObjectUniqueID@URLines@test1@test@modules@UModSys@@@tl@UModSys@@2USUniquePointer@core@3@A@@YAXXZ 00000001800496d0 f    CIL library: CIL module
 0001:00048710       ??__E?s_id@?$TObjectUniqueID@URLines_Filter@test1@test@modules@UModSys@@@tl@UModSys@@2USUniquePointer@core@3@A@@YAXXZ 0000000180049710 f    CIL library: CIL module
 0001:00048750       ??__E?s_id@?$TObjectUniqueID@URTest1_Shell@test1@test@modules@UModSys@@@tl@UModSys@@2USUniquePointer@core@3@A@@YAXXZ 0000000180049750 f    CIL library: CIL module
 0001:00048790       ??__E?s_id@?$TObjectUniqueID@URGenerator@test1@test@modules@UModSys@@@tl@UModSys@@2USUniquePointer@core@3@A@@YAXXZ 0000000180049790 f    CIL library: CIL module
 0001:000487d0       ??__Es_dbg@stdlib@lib2d@modules@UModSys@@YAXXZ 00000001800497d0 f    CIL library: CIL module
 0001:00048800       ??__E?s_modreg@RModuleReg@stdlib@lib2d@modules@UModSys@@2U12345@A@@YAXXZ 0000000180049800 f    CIL library: CIL module
 0001:00048870       ??__E?s_modreg_chain@RModuleReg@stdlib@lib2d@modules@UModSys@@2USModuleRegChain@base@5@A@@YAXXZ 0000000180049870 f    CIL library: CIL module
 0001:000488a0       ??__E?s_uid@RGenerator@stdlib@lib2d@modules@UModSys@@2USUniquePointer@core@5@A@@YAXXZ 00000001800498a0 f    CIL library: CIL module
 0001:000488e0       ??__E?s_id@?$TObjectUniqueID@URImage_Memory@stdlib@lib2d@modules@UModSys@@@tl@UModSys@@2USUniquePointer@core@3@A@@YAXXZ 00000001800498e0 f    CIL library: CIL module
 0001:00048920       ??__E?s_id@?$TObjectUniqueID@URImageFactory_Memory@stdlib@lib2d@modules@UModSys@@@tl@UModSys@@2USUniquePointer@core@3@A@@YAXXZ 0000000180049920 f    CIL library: CIL module
 0001:00048960       ??__E?s_id@?$TObjectUniqueID@URMultiImage@stdlib@lib2d@modules@UModSys@@@tl@UModSys@@2USUniquePointer@core@3@A@@YAXXZ 0000000180049960 f    CIL library: CIL module
 0001:000489a0       ??__E?s_id@?$TObjectUniqueID@URGenerator@stdlib@lib2d@modules@UModSys@@@tl@UModSys@@2USUniquePointer@core@3@A@@YAXXZ 00000001800499a0 f    CIL library: CIL module
 0001:000489e0       ??__Es_dbg@SDL_GL@ui@modules@UModSys@@YAXXZ 00000001800499e0 f    CIL library: CIL module
 0001:00048a10       ??__E?s_modreg@RModuleReg@SDL_GL@ui@modules@UModSys@@2U12345@A@@YAXXZ 0000000180049a10 f    CIL library: CIL module
 0001:00048a80       ??__E?s_modreg_chain@RModuleReg@SDL_GL@ui@modules@UModSys@@2USModuleRegChain@base@5@A@@YAXXZ 0000000180049a80 f    CIL library: CIL module
 0001:00048ab0       ??__E?s_uid@RGenerator@SDL_GL@ui@modules@UModSys@@2USUniquePointer@core@5@A@@YAXXZ 0000000180049ab0 f    CIL library: CIL module
 0001:00048af0       ??__E?s_id@?$TObjectUniqueID@URKeyboardController@SDL_GL@ui@modules@UModSys@@@tl@UModSys@@2USUniquePointer@core@3@A@@YAXXZ 0000000180049af0 f    CIL library: CIL module
 0001:00048b30       ??__E?s_id@?$TObjectUniqueID@URMouseController@SDL_GL@ui@modules@UModSys@@@tl@UModSys@@2USUniquePointer@core@3@A@@YAXXZ 0000000180049b30 f    CIL library: CIL module
 0001:00048b70       ??__E?s_id@?$TObjectUniqueID@URTerminal@SDL_GL@ui@modules@UModSys@@@tl@UModSys@@2USUniquePointer@core@3@A@@YAXXZ 0000000180049b70 f    CIL library: CIL module
 0001:00048bb0       ??__E?s_id@?$TObjectUniqueID@URMultiImage2D_SDL_ttf@SDL_GL@ui@modules@UModSys@@@tl@UModSys@@2USUniquePointer@core@3@A@@YAXXZ 0000000180049bb0 f    CIL library: CIL module
 0001:00048bf0       ??__E?s_id@?$TObjectUniqueID@URRenderDriver3D@SDL_GL@ui@modules@UModSys@@@tl@UModSys@@2USUniquePointer@core@3@A@@YAXXZ 0000000180049bf0 f    CIL library: CIL module
 0001:00048c30       ??__E?s_id@?$TObjectUniqueID@URTerminalX@SDL_GL@ui@modules@UModSys@@@tl@UModSys@@2USUniquePointer@core@3@A@@YAXXZ 0000000180049c30 f    CIL library: CIL module
 0001:00048c70       ??__E?s_id@?$TObjectUniqueID@URVertexArray@SDL_GL@ui@modules@UModSys@@@tl@UModSys@@2USUniquePointer@core@3@A@@YAXXZ 0000000180049c70 f    CIL library: CIL module
 0001:00048cb0       ??__E?s_id@?$TObjectUniqueID@URGenerator@SDL_GL@ui@modules@UModSys@@@tl@UModSys@@2USUniquePointer@core@3@A@@YAXXZ 0000000180049cb0 f    CIL library: CIL module
 0001:00048cf0       ??__Es_dbg@SDL_core@ui@modules@UModSys@@YAXXZ 0000000180049cf0 f    CIL library: CIL module
 0001:00048d20       ??__E?s_modreg@RModuleReg@SDL_core@ui@modules@UModSys@@2U12345@A@@YAXXZ 0000000180049d20 f    CIL library: CIL module
 0001:00048d90       ??__E?s_modreg_chain@RModuleReg@SDL_core@ui@modules@UModSys@@2USModuleRegChain@base@5@A@@YAXXZ 0000000180049d90 f    CIL library: CIL module
 0001:00048dc0       ??__E?s_uid@RGenerator@SDL_core@ui@modules@UModSys@@2USUniquePointer@core@5@A@@YAXXZ 0000000180049dc0 f    CIL library: CIL module
 0001:00048e00       ??__E?s_id@?$TObjectUniqueID@URKeyboardController@SDL_core@ui@modules@UModSys@@@tl@UModSys@@2USUniquePointer@core@3@A@@YAXXZ 0000000180049e00 f    CIL library: CIL module
 0001:00048e40       ??__E?s_id@?$TObjectUniqueID@URMouseController@SDL_core@ui@modules@UModSys@@@tl@UModSys@@2USUniquePointer@core@3@A@@YAXXZ 0000000180049e40 f    CIL library: CIL module
 0001:00048e80       ??__E?s_id@?$TObjectUniqueID@URTerminal@SDL_core@ui@modules@UModSys@@@tl@UModSys@@2USUniquePointer@core@3@A@@YAXXZ 0000000180049e80 f    CIL library: CIL module
 0001:00048ec0       ??__E?s_id@?$TObjectUniqueID@URMultiImage2D_SDL_ttf@SDL_core@ui@modules@UModSys@@@tl@UModSys@@2USUniquePointer@core@3@A@@YAXXZ 0000000180049ec0 f    CIL library: CIL module
 0001:00048f00       ??__E?s_id@?$TObjectUniqueID@URRenderDriver2D@SDL_core@ui@modules@UModSys@@@tl@UModSys@@2USUniquePointer@core@3@A@@YAXXZ 0000000180049f00 f    CIL library: CIL module
 0001:00048f40       ??__E?s_id@?$TObjectUniqueID@URTerminalX@SDL_core@ui@modules@UModSys@@@tl@UModSys@@2USUniquePointer@core@3@A@@YAXXZ 0000000180049f40 f    CIL library: CIL module
 0001:00048f80       ??__E?s_id@?$TObjectUniqueID@URGenerator@SDL_core@ui@modules@UModSys@@@tl@UModSys@@2USUniquePointer@core@3@A@@YAXXZ 0000000180049f80 f    CIL library: CIL module
 0001:00048fc0       ??__Es_dbg@frames@ui@modules@UModSys@@YAXXZ 0000000180049fc0 f    CIL library: CIL module
 0001:00048ff0       ??__E?s_modreg@RModuleReg@frames@ui@modules@UModSys@@2U12345@A@@YAXXZ 0000000180049ff0 f    CIL library: CIL module
 0001:00049060       ??__E?s_modreg_chain@RModuleReg@frames@ui@modules@UModSys@@2USModuleRegChain@base@5@A@@YAXXZ 000000018004a060 f    CIL library: CIL module
 0001:00049090       ??__E?s_uid@RGenerator@frames@ui@modules@UModSys@@2USUniquePointer@core@5@A@@YAXXZ 000000018004a090 f    CIL library: CIL module
 0001:000490d0       ??__E?s_id@?$TObjectUniqueID@URFrame_Common@frames@ui@modules@UModSys@@@tl@UModSys@@2USUniquePointer@core@3@A@@YAXXZ 000000018004a0d0 f    CIL library: CIL module
 0001:00049110       ??__E?s_id@?$TObjectUniqueID@URDialog@frames@ui@modules@UModSys@@@tl@UModSys@@2USUniquePointer@core@3@A@@YAXXZ 000000018004a110 f    CIL library: CIL module
 0001:00049150       ??__E?s_id@?$TObjectUniqueID@URFrame_Frame@frames@ui@modules@UModSys@@@tl@UModSys@@2USUniquePointer@core@3@A@@YAXXZ 000000018004a150 f    CIL library: CIL module
 0001:00049190       ??__E?s_id@?$TObjectUniqueID@URFrame_Image@frames@ui@modules@UModSys@@@tl@UModSys@@2USUniquePointer@core@3@A@@YAXXZ 000000018004a190 f    CIL library: CIL module
 0001:000491d0       ??__E?s_id@?$TObjectUniqueID@URFrame_Text@frames@ui@modules@UModSys@@@tl@UModSys@@2USUniquePointer@core@3@A@@YAXXZ 000000018004a1d0 f    CIL library: CIL module
 0001:00049210       ??__E?s_id@?$TObjectUniqueID@URFrame_Button@frames@ui@modules@UModSys@@@tl@UModSys@@2USUniquePointer@core@3@A@@YAXXZ 000000018004a210 f    CIL library: CIL module
 0001:00049250       ??__E?s_id@?$TObjectUniqueID@URFrame_Edit@frames@ui@modules@UModSys@@@tl@UModSys@@2USUniquePointer@core@3@A@@YAXXZ 000000018004a250 f    CIL library: CIL module
 0001:00049290       ??__E?s_id@?$TObjectUniqueID@URFrame_List@frames@ui@modules@UModSys@@@tl@UModSys@@2USUniquePointer@core@3@A@@YAXXZ 000000018004a290 f    CIL library: CIL module
 0001:000492d0       ??__E?s_id@?$TObjectUniqueID@URCollector@frames@ui@modules@UModSys@@@tl@UModSys@@2USUniquePointer@core@3@A@@YAXXZ 000000018004a2d0 f    CIL library: CIL module
 0001:00049310       ??__E?s_id@?$TObjectUniqueID@URGenerator@frames@ui@modules@UModSys@@@tl@UModSys@@2USUniquePointer@core@3@A@@YAXXZ 000000018004a310 f    CIL library: CIL module
 0001:00049350       ??__Es_dbg@images_std@media@modules@UModSys@@YAXXZ 000000018004a350 f    CIL library: CIL module
 0001:00049380       ??__E?s_modreg@RModuleReg@images_std@media@modules@UModSys@@2U12345@A@@YAXXZ 000000018004a380 f    CIL library: CIL module
 0001:000493f0       ??__E?s_modreg_chain@RModuleReg@images_std@media@modules@UModSys@@2USModuleRegChain@base@5@A@@YAXXZ 000000018004a3f0 f    CIL library: CIL module
 0001:00049420       ??__E?s_uid@RGenerator@images_std@media@modules@UModSys@@2USUniquePointer@core@5@A@@YAXXZ 000000018004a420 f    CIL library: CIL module
 0001:00049460       ??__E?s_id@?$TObjectUniqueID@URMediaFilter@images_std@media@modules@UModSys@@@tl@UModSys@@2USUniquePointer@core@3@A@@YAXXZ 000000018004a460 f    CIL library: CIL module
 0001:000494a0       ??__E?s_id@?$TObjectUniqueID@URGenerator@images_std@media@modules@UModSys@@@tl@UModSys@@2USUniquePointer@core@3@A@@YAXXZ 000000018004a4a0 f    CIL library: CIL module
 0001:000494e0       ??__Es_dbg@serialize_json@media@modules@UModSys@@YAXXZ 000000018004a4e0 f    CIL library: CIL module
 0001:00049510       ??__E?s_modreg@RModuleReg@serialize_json@media@modules@UModSys@@2U12345@A@@YAXXZ 000000018004a510 f    CIL library: CIL module
 0001:00049580       ??__E?s_modreg_chain@RModuleReg@serialize_json@media@modules@UModSys@@2USModuleRegChain@base@5@A@@YAXXZ 000000018004a580 f    CIL library: CIL module
 0001:000495b0       ??__E?s_uid@RGenerator@serialize_json@media@modules@UModSys@@2USUniquePointer@core@5@A@@YAXXZ 000000018004a5b0 f    CIL library: CIL module
 0001:000495f0       ??__E?s_id@?$TObjectUniqueID@URSerializeReader@serialize_json@media@modules@UModSys@@@tl@UModSys@@2USUniquePointer@core@3@A@@YAXXZ 000000018004a5f0 f    CIL library: CIL module
 0001:00049630       ??__E?s_id@?$TObjectUniqueID@URSerializeWriter@serialize_json@media@modules@UModSys@@@tl@UModSys@@2USUniquePointer@core@3@A@@YAXXZ 000000018004a630 f    CIL library: CIL module
 0001:00049670       ??__E?s_id@?$TObjectUniqueID@URGenerator@serialize_json@media@modules@UModSys@@@tl@UModSys@@2USUniquePointer@core@3@A@@YAXXZ 000000018004a670 f    CIL library: CIL module
 0001:000496b0       ??__Es_dbg@zlib@media@modules@UModSys@@YAXXZ 000000018004a6b0 f    CIL library: CIL module
 0001:000496e0       ??__E?s_modreg@RModuleReg@zlib@media@modules@UModSys@@2U12345@A@@YAXXZ 000000018004a6e0 f    CIL library: CIL module
 0001:00049750       ??__E?s_modreg_chain@RModuleReg@zlib@media@modules@UModSys@@2USModuleRegChain@base@5@A@@YAXXZ 000000018004a750 f    CIL library: CIL module
 0001:00049780       ??__E?s_uid@RGenerator@zlib@media@modules@UModSys@@2USUniquePointer@core@5@A@@YAXXZ 000000018004a780 f    CIL library: CIL module
 0001:000497c0       ??__E?s_id@?$TObjectUniqueID@URBinArchiveFrameClient_ZIP@zlib@media@modules@UModSys@@@tl@UModSys@@2USUniquePointer@core@3@A@@YAXXZ 000000018004a7c0 f    CIL library: CIL module
 0001:00049800       ??__E?s_id@?$TObjectUniqueID@URGenerator@zlib@media@modules@UModSys@@@tl@UModSys@@2USUniquePointer@core@3@A@@YAXXZ 000000018004a800 f    CIL library: CIL module
 0001:00049840       ??__EM@UModSys@@YAXXZ      000000018004a840 f    CIL library: CIL module
 0001:00049860       ??__E?root@SModuleRegChain@base@UModSys@@2U123@A@@YAXXZ 000000018004a860 f    CIL library: CIL module
 0001:00049890       ??__E?s_library@RModuleLibraryReg_Chain@base@UModSys@@2U123@A@@YAXXZ 000000018004a890 f    CIL library: CIL module
 0001:000498b0       ??__E?root@SUniquePointer@core@UModSys@@2U123@A@@YAXXZ 000000018004a8b0 f    CIL library: CIL module
 0001:000498e0       ??__Fs_dbg@test1@test@modules@UModSys@@YAXXZ 000000018004a8e0 f    CIL library: CIL module
 0001:000498f0       ??__F?s_modreg@RModuleReg@test1@test@modules@UModSys@@2U12345@A@@YAXXZ 000000018004a8f0 f    CIL library: CIL module
 0001:00049910       ??__F?s_modreg_chain@RModuleReg@test1@test@modules@UModSys@@2USModuleRegChain@base@5@A@@YAXXZ 000000018004a910 f    CIL library: CIL module
 0001:00049920       ??__F?s_uid@RGenerator@test1@test@modules@UModSys@@2USUniquePointer@core@5@A@@YAXXZ 000000018004a920 f    CIL library: CIL module
 0001:00049930       ??__Fh@?1??s_holder@RGenerator@test1@test@modules@UModSys@@SAAEAU?$TTypeStaticHolder@URGenerator@test1@test@modules@UModSys@@@tl@5@XZ@YAXXZ 000000018004a930 f    CIL library: CIL module
 0001:00049960       ??__F?s_id@?$TObjectUniqueID@URGenerator@test1@test@modules@UModSys@@@tl@UModSys@@2USUniquePointer@core@3@A@@YAXXZ 000000018004a960 f    CIL library: CIL module
 0001:00049970       ??__F?s_id@?$TObjectUniqueID@URTest1_Shell@test1@test@modules@UModSys@@@tl@UModSys@@2USUniquePointer@core@3@A@@YAXXZ 000000018004a970 f    CIL library: CIL module
 0001:00049980       ??__F?s_id@?$TObjectUniqueID@URLines_Filter@test1@test@modules@UModSys@@@tl@UModSys@@2USUniquePointer@core@3@A@@YAXXZ 000000018004a980 f    CIL library: CIL module
 0001:00049990       ??__F?s_id@?$TObjectUniqueID@URLines@test1@test@modules@UModSys@@@tl@UModSys@@2USUniquePointer@core@3@A@@YAXXZ 000000018004a990 f    CIL library: CIL module
 0001:000499a0       ??__F?s_id@?$TObjectUniqueID@UILines@test1@test@modules@UModSys@@@tl@UModSys@@2USUniquePointer@core@3@A@@YAXXZ 000000018004a9a0 f    CIL library: CIL module
 0001:000499b0       ??__F?s_id@?$TObjectUniqueID@UIRenderDriver@lib3d@UModSys@@@tl@UModSys@@2USUniquePointer@core@3@A@@YAXXZ 000000018004a9b0 f    CIL library: CIL module
 0001:000499c0       ??__F?s_id@?$TObjectUniqueID@UIVertexArray@lib3d@UModSys@@@tl@UModSys@@2USUniquePointer@core@3@A@@YAXXZ 000000018004a9c0 f    CIL library: CIL module
 0001:000499d0       ??__F?s_id@?$TObjectUniqueID@UITextureCells@lib3d@UModSys@@@tl@UModSys@@2USUniquePointer@core@3@A@@YAXXZ 000000018004a9d0 f    CIL library: CIL module
 0001:000499e0       ??__F?s_id@?$TObjectUniqueID@UITexture@lib3d@UModSys@@@tl@UModSys@@2USUniquePointer@core@3@A@@YAXXZ 000000018004a9e0 f    CIL library: CIL module
 0001:000499f0       ??__F?s_id@?$TObjectUniqueID@UIRenderer@lib3d@UModSys@@@tl@UModSys@@2USUniquePointer@core@3@A@@YAXXZ 000000018004a9f0 f    CIL library: CIL module
 0001:00049a00       ??__F?s_id@?$TObjectUniqueID@UISharedLibrary@lib3d@UModSys@@@tl@UModSys@@2USUniquePointer@core@3@A@@YAXXZ 000000018004aa00 f    CIL library: CIL module
 0001:00049a10       ??__F?s_id@?$TObjectUniqueID@UINodeObject@lib3d@UModSys@@@tl@UModSys@@2USUniquePointer@core@3@A@@YAXXZ 000000018004aa10 f    CIL library: CIL module
 0001:00049a20       ??__F?s_id@?$TObjectUniqueID@UIRenderObject@lib3d@UModSys@@@tl@UModSys@@2USUniquePointer@core@3@A@@YAXXZ 000000018004aa20 f    CIL library: CIL module
 0001:00049a30       ??__F?s_id@?$TObjectUniqueID@UIObject@lib3d@UModSys@@@tl@UModSys@@2USUniquePointer@core@3@A@@YAXXZ 000000018004aa30 f    CIL library: CIL module
 0001:00049a40       ??__F?s_id@?$TObjectUniqueID@UIRenderDriver@lib2d@UModSys@@@tl@UModSys@@2USUniquePointer@core@3@A@@YAXXZ 000000018004aa40 f    CIL library: CIL module
 0001:00049a50       ??__F?s_id@?$TObjectUniqueID@UIMultiImage@lib2d@UModSys@@@tl@UModSys@@2USUniquePointer@core@3@A@@YAXXZ 000000018004aa50 f    CIL library: CIL module
 0001:00049a60       ??__F?s_id@?$TObjectUniqueID@UIImageFactory@lib2d@UModSys@@@tl@UModSys@@2USUniquePointer@core@3@A@@YAXXZ 000000018004aa60 f    CIL library: CIL module
 0001:00049a70       ??__F?s_id@?$TObjectUniqueID@UIImage@lib2d@UModSys@@@tl@UModSys@@2USUniquePointer@core@3@A@@YAXXZ 000000018004aa70 f    CIL library: CIL module
 0001:00049a80       ??__F?s_id@?$TObjectUniqueID@UIDialog@libui@UModSys@@@tl@UModSys@@2USUniquePointer@core@3@A@@YAXXZ 000000018004aa80 f    CIL library: CIL module
 0001:00049a90       ??__F?s_id@?$TObjectUniqueID@UIFrame@libui@UModSys@@@tl@UModSys@@2USUniquePointer@core@3@A@@YAXXZ 000000018004aa90 f    CIL library: CIL module
 0001:00049aa0       ??__F?s_id@?$TObjectUniqueID@UIAsyncCollector@libui@UModSys@@@tl@UModSys@@2USUniquePointer@core@3@A@@YAXXZ 000000018004aaa0 f    CIL library: CIL module
 0001:00049ab0       ??__F?s_id@?$TObjectUniqueID@UIAsyncController@libui@UModSys@@@tl@UModSys@@2USUniquePointer@core@3@A@@YAXXZ 000000018004aab0 f    CIL library: CIL module
 0001:00049ac0       ??__F?s_id@?$TObjectUniqueID@UICollector@libui@UModSys@@@tl@UModSys@@2USUniquePointer@core@3@A@@YAXXZ 000000018004aac0 f    CIL library: CIL module
 0001:00049ad0       ??__F?s_id@?$TObjectUniqueID@UIConsoleHelperInput_UIKey@libui@UModSys@@@tl@UModSys@@2USUniquePointer@core@3@A@@YAXXZ 000000018004aad0 f    CIL library: CIL module
 0001:00049ae0       ??__F?s_id@?$TObjectUniqueID@UITerminal@libui@UModSys@@@tl@UModSys@@2USUniquePointer@core@3@A@@YAXXZ 000000018004aae0 f    CIL library: CIL module
 0001:00049af0       ??__F?s_id@?$TObjectUniqueID@UIJoystickController@libui@UModSys@@@tl@UModSys@@2USUniquePointer@core@3@A@@YAXXZ 000000018004aaf0 f    CIL library: CIL module
 0001:00049b00       ??__F?s_id@?$TObjectUniqueID@UIMouseController@libui@UModSys@@@tl@UModSys@@2USUniquePointer@core@3@A@@YAXXZ 000000018004ab00 f    CIL library: CIL module
 0001:00049b10       ??__F?s_id@?$TObjectUniqueID@UIKeyboardController@libui@UModSys@@@tl@UModSys@@2USUniquePointer@core@3@A@@YAXXZ 000000018004ab10 f    CIL library: CIL module
 0001:00049b20       ??__F?s_id@?$TObjectUniqueID@UIConsoleHelperOutputFCS@base@UModSys@@@tl@UModSys@@2USUniquePointer@core@3@A@@YAXXZ 000000018004ab20 f    CIL library: CIL module
 0001:00049b30       ??__F?s_id@?$TObjectUniqueID@UIConsoleHelperOutput@base@UModSys@@@tl@UModSys@@2USUniquePointer@core@3@A@@YAXXZ 000000018004ab30 f    CIL library: CIL module
 0001:00049b40       ??__F?s_id@?$TObjectUniqueID@UIConsoleHelperInput@base@UModSys@@@tl@UModSys@@2USUniquePointer@core@3@A@@YAXXZ 000000018004ab40 f    CIL library: CIL module
 0001:00049b50       ??__F?s_id@?$TObjectUniqueID@UIConsoleHelperHistory@base@UModSys@@@tl@UModSys@@2USUniquePointer@core@3@A@@YAXXZ 000000018004ab50 f    CIL library: CIL module
 0001:00049b60       ??__F?s_id@?$TObjectUniqueID@UIConsoleHelper@base@UModSys@@@tl@UModSys@@2USUniquePointer@core@3@A@@YAXXZ 000000018004ab60 f    CIL library: CIL module
 0001:00049b70       ??__F?s_id@?$TObjectUniqueID@UIConsoleExt@base@UModSys@@@tl@UModSys@@2USUniquePointer@core@3@A@@YAXXZ 000000018004ab70 f    CIL library: CIL module
 0001:00049b80       ??__F?s_id@?$TObjectUniqueID@UISerializeWriter@libmedia@UModSys@@@tl@UModSys@@2USUniquePointer@core@3@A@@YAXXZ 000000018004ab80 f    CIL library: CIL module
 0001:00049b90       ??__F?s_id@?$TObjectUniqueID@UISerializeReader@libmedia@UModSys@@@tl@UModSys@@2USUniquePointer@core@3@A@@YAXXZ 000000018004ab90 f    CIL library: CIL module
 0001:00049ba0       ??__F?s_id@?$TObjectUniqueID@UIClient@IBinArchiveFrame@libmedia@UModSys@@@tl@UModSys@@2USUniquePointer@core@3@A@@YAXXZ 000000018004aba0 f    CIL library: CIL module
 0001:00049bb0       ??__F?s_id@?$TObjectUniqueID@UIBinArchiveFrame@libmedia@UModSys@@@tl@UModSys@@2USUniquePointer@core@3@A@@YAXXZ 000000018004abb0 f    CIL library: CIL module
 0001:00049bc0       ??__F?s_id@?$TObjectUniqueID@UILibraryLayered@libmedia@UModSys@@@tl@UModSys@@2USUniquePointer@core@3@A@@YAXXZ 000000018004abc0 f    CIL library: CIL module
 0001:00049bd0       ??__F?s_id@?$TObjectUniqueID@UILibraryObjCache@libmedia@UModSys@@@tl@UModSys@@2USUniquePointer@core@3@A@@YAXXZ 000000018004abd0 f    CIL library: CIL module
 0001:00049be0       ??__F?s_id@?$TObjectUniqueID@UILibraryObjFilter@libmedia@UModSys@@@tl@UModSys@@2USUniquePointer@core@3@A@@YAXXZ 000000018004abe0 f    CIL library: CIL module
 0001:00049bf0       ??__F?s_id@?$TObjectUniqueID@UILibraryBinCache@libmedia@UModSys@@@tl@UModSys@@2USUniquePointer@core@3@A@@YAXXZ 000000018004abf0 f    CIL library: CIL module
 0001:00049c00       ??__F?s_id@?$TObjectUniqueID@UILibraryBinTree@libmedia@UModSys@@@tl@UModSys@@2USUniquePointer@core@3@A@@YAXXZ 000000018004ac00 f    CIL library: CIL module
 0001:00049c10       ??__F?s_id@?$TObjectUniqueID@UILibrary@libmedia@UModSys@@@tl@UModSys@@2USUniquePointer@core@3@A@@YAXXZ 000000018004ac10 f    CIL library: CIL module
 0001:00049c20       ??__F?s_id@?$TObjectUniqueID@UIBinObjFilter@libmedia@UModSys@@@tl@UModSys@@2USUniquePointer@core@3@A@@YAXXZ 000000018004ac20 f    CIL library: CIL module
 0001:00049c30       ??__F?s_id@?$TObjectUniqueID@UIBinArchive@libmedia@UModSys@@@tl@UModSys@@2USUniquePointer@core@3@A@@YAXXZ 000000018004ac30 f    CIL library: CIL module
 0001:00049c40       ??__F?s_id@?$TObjectUniqueID@UILibObject@libmedia@UModSys@@@tl@UModSys@@2USUniquePointer@core@3@A@@YAXXZ 000000018004ac40 f    CIL library: CIL module
 0001:00049c50       ??__F?s_id@?$TObjectUniqueID@UIUtilities@libmedia@UModSys@@@tl@UModSys@@2USUniquePointer@core@3@A@@YAXXZ 000000018004ac50 f    CIL library: CIL module
 0001:00049c60       ??__F?s_id@?$TObjectUniqueID@UIStreamWriter@libmedia@UModSys@@@tl@UModSys@@2USUniquePointer@core@3@A@@YAXXZ 000000018004ac60 f    CIL library: CIL module
 0001:00049c70       ??__F?s_id@?$TObjectUniqueID@UIStreamReader@libmedia@UModSys@@@tl@UModSys@@2USUniquePointer@core@3@A@@YAXXZ 000000018004ac70 f    CIL library: CIL module
 0001:00049c80       ??__F?s_id@?$TObjectUniqueID@UISystem@base@UModSys@@@tl@UModSys@@2USUniquePointer@core@3@A@@YAXXZ 000000018004ac80 f    CIL library: CIL module
 0001:00049c90       ??__F?s_id@?$TObjectUniqueID@UIShell@base@UModSys@@@tl@UModSys@@2USUniquePointer@core@3@A@@YAXXZ 000000018004ac90 f    CIL library: CIL module
 0001:00049ca0       ??__F?s_id@?$TObjectUniqueID@UIGenerator@base@UModSys@@@tl@UModSys@@2USUniquePointer@core@3@A@@YAXXZ 000000018004aca0 f    CIL library: CIL module
 0001:00049cb0       ??__F?s_id@?$TObjectUniqueID@UIModObject@base@UModSys@@@tl@UModSys@@2USUniquePointer@core@3@A@@YAXXZ 000000018004acb0 f    CIL library: CIL module
 0001:00049cc0       ??__F?s_id@?$TObjectUniqueID@UIModuleLibrary@base@UModSys@@@tl@UModSys@@2USUniquePointer@core@3@A@@YAXXZ 000000018004acc0 f    CIL library: CIL module
 0001:00049cd0       ??__F?s_id@?$TObjectUniqueID@UIModule@base@UModSys@@@tl@UModSys@@2USUniquePointer@core@3@A@@YAXXZ 000000018004acd0 f    CIL library: CIL module
 0001:00049ce0       ??__F?s_id@?$TObjectUniqueID@UIConsole@base@UModSys@@@tl@UModSys@@2USUniquePointer@core@3@A@@YAXXZ 000000018004ace0 f    CIL library: CIL module
 0001:00049cf0       ??__F?s_id@?$TObjectUniqueID@UIParameters@core@UModSys@@@tl@UModSys@@2USUniquePointer@core@3@A@@YAXXZ 000000018004acf0 f    CIL library: CIL module
 0001:00049d00       ??__F?s_id@?$TObjectUniqueID@UIRefObject@core@UModSys@@@tl@UModSys@@2USUniquePointer@core@3@A@@YAXXZ 000000018004ad00 f    CIL library: CIL module
 0001:00049d10       ??__F?s_id@?$TObjectUniqueID@UIRoot@core@UModSys@@@tl@UModSys@@2USUniquePointer@core@3@A@@YAXXZ 000000018004ad10 f    CIL library: CIL module
 0001:00049d20       ??__Fs_dbg@stdlib@lib2d@modules@UModSys@@YAXXZ 000000018004ad20 f    CIL library: CIL module
 0001:00049d30       ??__F?s_modreg@RModuleReg@stdlib@lib2d@modules@UModSys@@2U12345@A@@YAXXZ 000000018004ad30 f    CIL library: CIL module
 0001:00049d50       ??__F?s_modreg_chain@RModuleReg@stdlib@lib2d@modules@UModSys@@2USModuleRegChain@base@5@A@@YAXXZ 000000018004ad50 f    CIL library: CIL module
 0001:00049d60       ??__F?s_uid@RGenerator@stdlib@lib2d@modules@UModSys@@2USUniquePointer@core@5@A@@YAXXZ 000000018004ad60 f    CIL library: CIL module
 0001:00049d70       ??__Fh@?1??s_holder@RGenerator@stdlib@lib2d@modules@UModSys@@SAAEAU?$TTypeStaticHolder@URGenerator@stdlib@lib2d@modules@UModSys@@@tl@5@XZ@YAXXZ 000000018004ad70 f    CIL library: CIL module
 0001:00049da0       ??__F?s_id@?$TObjectUniqueID@URGenerator@stdlib@lib2d@modules@UModSys@@@tl@UModSys@@2USUniquePointer@core@3@A@@YAXXZ 000000018004ada0 f    CIL library: CIL module
 0001:00049db0       ??__F?s_id@?$TObjectUniqueID@URMultiImage@stdlib@lib2d@modules@UModSys@@@tl@UModSys@@2USUniquePointer@core@3@A@@YAXXZ 000000018004adb0 f    CIL library: CIL module
 0001:00049dc0       ??__F?s_id@?$TObjectUniqueID@URImageFactory_Memory@stdlib@lib2d@modules@UModSys@@@tl@UModSys@@2USUniquePointer@core@3@A@@YAXXZ 000000018004adc0 f    CIL library: CIL module
 0001:00049dd0       ??__F?s_id@?$TObjectUniqueID@URImage_Memory@stdlib@lib2d@modules@UModSys@@@tl@UModSys@@2USUniquePointer@core@3@A@@YAXXZ 000000018004add0 f    CIL library: CIL module
 0001:00049de0       ??__Fs_dbg@SDL_GL@ui@modules@UModSys@@YAXXZ 000000018004ade0 f    CIL library: CIL module
 0001:00049df0       ??__F?s_modreg@RModuleReg@SDL_GL@ui@modules@UModSys@@2U12345@A@@YAXXZ 000000018004adf0 f    CIL library: CIL module
 0001:00049e10       ??__F?s_modreg_chain@RModuleReg@SDL_GL@ui@modules@UModSys@@2USModuleRegChain@base@5@A@@YAXXZ 000000018004ae10 f    CIL library: CIL module
 0001:00049e20       ??__F?s_uid@RGenerator@SDL_GL@ui@modules@UModSys@@2USUniquePointer@core@5@A@@YAXXZ 000000018004ae20 f    CIL library: CIL module
 0001:00049e30       ??__Fh@?1??s_holder@RGenerator@SDL_GL@ui@modules@UModSys@@SAAEAU?$TTypeStaticHolder@URGenerator@SDL_GL@ui@modules@UModSys@@@tl@5@XZ@YAXXZ 000000018004ae30 f    CIL library: CIL module
 0001:00049e60       ??__F?s_id@?$TObjectUniqueID@URGenerator@SDL_GL@ui@modules@UModSys@@@tl@UModSys@@2USUniquePointer@core@3@A@@YAXXZ 000000018004ae60 f    CIL library: CIL module
 0001:00049e70       ??__F?s_id@?$TObjectUniqueID@URVertexArray@SDL_GL@ui@modules@UModSys@@@tl@UModSys@@2USUniquePointer@core@3@A@@YAXXZ 000000018004ae70 f    CIL library: CIL module
 0001:00049e80       ??__F?s_id@?$TObjectUniqueID@URTerminalX@SDL_GL@ui@modules@UModSys@@@tl@UModSys@@2USUniquePointer@core@3@A@@YAXXZ 000000018004ae80 f    CIL library: CIL module
 0001:00049e90       ??__F?s_id@?$TObjectUniqueID@URRenderDriver3D@SDL_GL@ui@modules@UModSys@@@tl@UModSys@@2USUniquePointer@core@3@A@@YAXXZ 000000018004ae90 f    CIL library: CIL module
 0001:00049ea0       ??__F?s_id@?$TObjectUniqueID@URMultiImage2D_SDL_ttf@SDL_GL@ui@modules@UModSys@@@tl@UModSys@@2USUniquePointer@core@3@A@@YAXXZ 000000018004aea0 f    CIL library: CIL module
 0001:00049eb0       ??__F?s_id@?$TObjectUniqueID@URTerminal@SDL_GL@ui@modules@UModSys@@@tl@UModSys@@2USUniquePointer@core@3@A@@YAXXZ 000000018004aeb0 f    CIL library: CIL module
 0001:00049ec0       ??__F?s_id@?$TObjectUniqueID@URMouseController@SDL_GL@ui@modules@UModSys@@@tl@UModSys@@2USUniquePointer@core@3@A@@YAXXZ 000000018004aec0 f    CIL library: CIL module
 0001:00049ed0       ??__F?s_id@?$TObjectUniqueID@URKeyboardController@SDL_GL@ui@modules@UModSys@@@tl@UModSys@@2USUniquePointer@core@3@A@@YAXXZ 000000018004aed0 f    CIL library: CIL module
 0001:00049ee0       ??__Fs_dbg@SDL_core@ui@modules@UModSys@@YAXXZ 000000018004aee0 f    CIL library: CIL module
 0001:00049ef0       ??__F?s_modreg@RModuleReg@SDL_core@ui@modules@UModSys@@2U12345@A@@YAXXZ 000000018004aef0 f    CIL library: CIL module
 0001:00049f10       ??__F?s_modreg_chain@RModuleReg@SDL_core@ui@modules@UModSys@@2USModuleRegChain@base@5@A@@YAXXZ 000000018004af10 f    CIL library: CIL module
 0001:00049f20       ??__F?s_uid@RGenerator@SDL_core@ui@modules@UModSys@@2USUniquePointer@core@5@A@@YAXXZ 000000018004af20 f    CIL library: CIL module
 0001:00049f30       ??__Fh@?1??s_holder@RGenerator@SDL_core@ui@modules@UModSys@@SAAEAU?$TTypeStaticHolder@URGenerator@SDL_core@ui@modules@UModSys@@@tl@5@XZ@YAXXZ 000000018004af30 f    CIL library: CIL module
 0001:00049f60       ??__F?s_id@?$TObjectUniqueID@URGenerator@SDL_core@ui@modules@UModSys@@@tl@UModSys@@2USUniquePointer@core@3@A@@YAXXZ 000000018004af60 f    CIL library: CIL module
 0001:00049f70       ??__F?s_id@?$TObjectUniqueID@URTerminalX@SDL_core@ui@modules@UModSys@@@tl@UModSys@@2USUniquePointer@core@3@A@@YAXXZ 000000018004af70 f    CIL library: CIL module
 0001:00049f80       ??__F?s_id@?$TObjectUniqueID@URRenderDriver2D@SDL_core@ui@modules@UModSys@@@tl@UModSys@@2USUniquePointer@core@3@A@@YAXXZ 000000018004af80 f    CIL library: CIL module
 0001:00049f90       ??__F?s_id@?$TObjectUniqueID@URMultiImage2D_SDL_ttf@SDL_core@ui@modules@UModSys@@@tl@UModSys@@2USUniquePointer@core@3@A@@YAXXZ 000000018004af90 f    CIL library: CIL module
 0001:00049fa0       ??__F?s_id@?$TObjectUniqueID@URTerminal@SDL_core@ui@modules@UModSys@@@tl@UModSys@@2USUniquePointer@core@3@A@@YAXXZ 000000018004afa0 f    CIL library: CIL module
 0001:00049fb0       ??__F?s_id@?$TObjectUniqueID@URMouseController@SDL_core@ui@modules@UModSys@@@tl@UModSys@@2USUniquePointer@core@3@A@@YAXXZ 000000018004afb0 f    CIL library: CIL module
 0001:00049fc0       ??__F?s_id@?$TObjectUniqueID@URKeyboardController@SDL_core@ui@modules@UModSys@@@tl@UModSys@@2USUniquePointer@core@3@A@@YAXXZ 000000018004afc0 f    CIL library: CIL module
 0001:00049fd0       ??__Fs_dbg@frames@ui@modules@UModSys@@YAXXZ 000000018004afd0 f    CIL library: CIL module
 0001:00049fe0       ??__F?s_modreg@RModuleReg@frames@ui@modules@UModSys@@2U12345@A@@YAXXZ 000000018004afe0 f    CIL library: CIL module
 0001:0004a000       ??__F?s_modreg_chain@RModuleReg@frames@ui@modules@UModSys@@2USModuleRegChain@base@5@A@@YAXXZ 000000018004b000 f    CIL library: CIL module
 0001:0004a010       ??__F?s_uid@RGenerator@frames@ui@modules@UModSys@@2USUniquePointer@core@5@A@@YAXXZ 000000018004b010 f    CIL library: CIL module
 0001:0004a020       ??__Fh@?1??s_holder@RGenerator@frames@ui@modules@UModSys@@SAAEAU?$TTypeStaticHolder@URGenerator@frames@ui@modules@UModSys@@@tl@5@XZ@YAXXZ 000000018004b020 f    CIL library: CIL module
 0001:0004a050       ??__F?s_id@?$TObjectUniqueID@URGenerator@frames@ui@modules@UModSys@@@tl@UModSys@@2USUniquePointer@core@3@A@@YAXXZ 000000018004b050 f    CIL library: CIL module
 0001:0004a060       ??__F?s_id@?$TObjectUniqueID@URCollector@frames@ui@modules@UModSys@@@tl@UModSys@@2USUniquePointer@core@3@A@@YAXXZ 000000018004b060 f    CIL library: CIL module
 0001:0004a070       ??__F?s_id@?$TObjectUniqueID@URFrame_List@frames@ui@modules@UModSys@@@tl@UModSys@@2USUniquePointer@core@3@A@@YAXXZ 000000018004b070 f    CIL library: CIL module
 0001:0004a080       ??__F?s_id@?$TObjectUniqueID@URFrame_Edit@frames@ui@modules@UModSys@@@tl@UModSys@@2USUniquePointer@core@3@A@@YAXXZ 000000018004b080 f    CIL library: CIL module
 0001:0004a090       ??__F?s_id@?$TObjectUniqueID@URFrame_Button@frames@ui@modules@UModSys@@@tl@UModSys@@2USUniquePointer@core@3@A@@YAXXZ 000000018004b090 f    CIL library: CIL module
 0001:0004a0a0       ??__F?s_id@?$TObjectUniqueID@URFrame_Text@frames@ui@modules@UModSys@@@tl@UModSys@@2USUniquePointer@core@3@A@@YAXXZ 000000018004b0a0 f    CIL library: CIL module
 0001:0004a0b0       ??__F?s_id@?$TObjectUniqueID@URFrame_Image@frames@ui@modules@UModSys@@@tl@UModSys@@2USUniquePointer@core@3@A@@YAXXZ 000000018004b0b0 f    CIL library: CIL module
 0001:0004a0c0       ??__F?s_id@?$TObjectUniqueID@URFrame_Frame@frames@ui@modules@UModSys@@@tl@UModSys@@2USUniquePointer@core@3@A@@YAXXZ 000000018004b0c0 f    CIL library: CIL module
 0001:0004a0d0       ??__F?s_id@?$TObjectUniqueID@URDialog@frames@ui@modules@UModSys@@@tl@UModSys@@2USUniquePointer@core@3@A@@YAXXZ 000000018004b0d0 f    CIL library: CIL module
 0001:0004a0e0       ??__F?s_id@?$TObjectUniqueID@URFrame_Common@frames@ui@modules@UModSys@@@tl@UModSys@@2USUniquePointer@core@3@A@@YAXXZ 000000018004b0e0 f    CIL library: CIL module
 0001:0004a0f0       ??__Fs_dbg@images_std@media@modules@UModSys@@YAXXZ 000000018004b0f0 f    CIL library: CIL module
 0001:0004a100       ??__F?s_modreg@RModuleReg@images_std@media@modules@UModSys@@2U12345@A@@YAXXZ 000000018004b100 f    CIL library: CIL module
 0001:0004a120       ??__F?s_modreg_chain@RModuleReg@images_std@media@modules@UModSys@@2USModuleRegChain@base@5@A@@YAXXZ 000000018004b120 f    CIL library: CIL module
 0001:0004a130       ??__F?s_uid@RGenerator@images_std@media@modules@UModSys@@2USUniquePointer@core@5@A@@YAXXZ 000000018004b130 f    CIL library: CIL module
 0001:0004a140       ??__Fh@?1??s_holder@RGenerator@images_std@media@modules@UModSys@@SAAEAU?$TTypeStaticHolder@URGenerator@images_std@media@modules@UModSys@@@tl@5@XZ@YAXXZ 000000018004b140 f    CIL library: CIL module
 0001:0004a170       ??__F?s_id@?$TObjectUniqueID@URGenerator@images_std@media@modules@UModSys@@@tl@UModSys@@2USUniquePointer@core@3@A@@YAXXZ 000000018004b170 f    CIL library: CIL module
 0001:0004a180       ??__F?s_id@?$TObjectUniqueID@URMediaFilter@images_std@media@modules@UModSys@@@tl@UModSys@@2USUniquePointer@core@3@A@@YAXXZ 000000018004b180 f    CIL library: CIL module
 0001:0004a190       ??__Fs_dbg@serialize_json@media@modules@UModSys@@YAXXZ 000000018004b190 f    CIL library: CIL module
 0001:0004a1a0       ??__F?s_modreg@RModuleReg@serialize_json@media@modules@UModSys@@2U12345@A@@YAXXZ 000000018004b1a0 f    CIL library: CIL module
 0001:0004a1c0       ??__F?s_modreg_chain@RModuleReg@serialize_json@media@modules@UModSys@@2USModuleRegChain@base@5@A@@YAXXZ 000000018004b1c0 f    CIL library: CIL module
 0001:0004a1d0       ??__F?s_uid@RGenerator@serialize_json@media@modules@UModSys@@2USUniquePointer@core@5@A@@YAXXZ 000000018004b1d0 f    CIL library: CIL module
 0001:0004a1e0       ??__Fh@?1??s_holder@RGenerator@serialize_json@media@modules@UModSys@@SAAEAU?$TTypeStaticHolder@URGenerator@serialize_json@media@modules@UModSys@@@tl@5@XZ@YAXXZ 000000018004b1e0 f    CIL library: CIL module
 0001:0004a210       ??__F?s_id@?$TObjectUniqueID@URGenerator@serialize_json@media@modules@UModSys@@@tl@UModSys@@2USUniquePointer@core@3@A@@YAXXZ 000000018004b210 f    CIL library: CIL module
 0001:0004a220       ??__F?s_id@?$TObjectUniqueID@URSerializeWriter@serialize_json@media@modules@UModSys@@@tl@UModSys@@2USUniquePointer@core@3@A@@YAXXZ 000000018004b220 f    CIL library: CIL module
 0001:0004a230       ??__F?s_id@?$TObjectUniqueID@URSerializeReader@serialize_json@media@modules@UModSys@@@tl@UModSys@@2USUniquePointer@core@3@A@@YAXXZ 000000018004b230 f    CIL library: CIL module
 0001:0004a240       ??__Fs_dbg@zlib@media@modules@UModSys@@YAXXZ 000000018004b240 f    CIL library: CIL module
 0001:0004a250       ??__F?s_modreg@RModuleReg@zlib@media@modules@UModSys@@2U12345@A@@YAXXZ 000000018004b250 f    CIL library: CIL module
 0001:0004a270       ??__F?s_modreg_chain@RModuleReg@zlib@media@modules@UModSys@@2USModuleRegChain@base@5@A@@YAXXZ 000000018004b270 f    CIL library: CIL module
 0001:0004a280       ??__F?s_uid@RGenerator@zlib@media@modules@UModSys@@2USUniquePointer@core@5@A@@YAXXZ 000000018004b280 f    CIL library: CIL module
 0001:0004a290       ??__Fh@?1??s_holder@RGenerator@zlib@media@modules@UModSys@@SAAEAU?$TTypeStaticHolder@URGenerator@zlib@media@modules@UModSys@@@tl@5@XZ@YAXXZ 000000018004b290 f    CIL library: CIL module
 0001:0004a2c0       ??__F?s_id@?$TObjectUniqueID@URGenerator@zlib@media@modules@UModSys@@@tl@UModSys@@2USUniquePointer@core@3@A@@YAXXZ 000000018004b2c0 f    CIL library: CIL module
 0001:0004a2d0       ??__F?s_id@?$TObjectUniqueID@URBinArchiveFrameClient_ZIP@zlib@media@modules@UModSys@@@tl@UModSys@@2USUniquePointer@core@3@A@@YAXXZ 000000018004b2d0 f    CIL library: CIL module
 0001:0004a2e0       ??__FM@UModSys@@YAXXZ      000000018004b2e0 f    CIL library: CIL module
 0001:0004a2f0       ??__F?root@SModuleRegChain@base@UModSys@@2U123@A@@YAXXZ 000000018004b2f0 f    CIL library: CIL module
 0001:0004a300       ??__F?s_library@RModuleLibraryReg_Chain@base@UModSys@@2U123@A@@YAXXZ 000000018004b300 f    CIL library: CIL module
 0001:0004a310       ??__F?root@SUniquePointer@core@UModSys@@2U123@A@@YAXXZ 000000018004b310 f    CIL library: CIL module

 Exports

  ordinal    name

        1    UModSys_Plugin_Entry2
