 umodsysc

 Timestamp is 52b2f632 (Thu Dec 19 16:35:46 2013)

 Preferred load address is 0000000140000000

 Start         Length     Name                   Class
 0001:00000000 00016abcH .text                   CODE
 0001:00016ac0 0000005eH .text$00                CODE
 0001:00016b20 0000129cH .text$x                 CODE
 0001:00017dc0 00000d62H .text$yc                CODE
 0001:00018b30 000003fcH .text$yd                CODE
 0002:00000000 00000258H .idata$5                DATA
 0002:00000258 00000008H .CRT$XCA                DATA
 0002:00000260 00000008H .CRT$XCAA               DATA
 0002:00000268 00000598H .CRT$XCU                DATA
 0002:00000800 00000008H .CRT$XCZ                DATA
 0002:00000808 00000008H .CRT$XIA                DATA
 0002:00000810 00000008H .CRT$XIAA               DATA
 0002:00000818 00000008H .CRT$XIY                DATA
 0002:00000820 00000008H .CRT$XIZ                DATA
 0002:00000830 00003788H .rdata                  DATA
 0002:00003fc0 0000211cH .rdata$r                DATA
 0002:000060e0 00000008H .rtc$IAA                DATA
 0002:000060e8 00000008H .rtc$IZZ                DATA
 0002:000060f0 00000008H .rtc$TAA                DATA
 0002:000060f8 00000008H .rtc$TZZ                DATA
 0002:00006100 00003398H .xdata                  DATA
 0002:00009498 000000e4H .xdata$x                DATA
 0002:0000957c 00000028H .idata$2                DATA
 0002:000095a4 00000014H .idata$3                DATA
 0002:000095b8 00000258H .idata$4                DATA
 0002:00009810 00000478H .idata$6                DATA
 0002:00009c90 00000055H .edata                  DATA
 0003:00000000 00000ff4H .data                   DATA
 0003:00001000 00002d48H .bss                    DATA
 0004:00000000 000023f4H .pdata                  DATA

  Address         Publics by Value              Rva+Base               Lib:Object

 0000:00000000       ___safe_se_handler_count   0000000000000000     <absolute>
 0000:00000000       ___safe_se_handler_table   0000000000000000     <absolute>
 0000:00000000       __ImageBase                0000000140000000     <linker-defined>
 0001:00000000       ??$shash@D@su@tl@UModSys@@YA_KPEBD_K@Z 0000000140001000 f i umodsys.c_main.obj
 0001:00000040       ??1SMemShared@core@UModSys@@QEAA@XZ 0000000140001040 f i umodsys_lib_libmedia:umodsys.mod.media.stdio.obj
 0001:00000040       ??1SCMemShared@core@UModSys@@QEAA@XZ 0000000140001040 f i umodsys_lib_libmedia:umodsys.mod.media.stdlib.obj
 0001:00000040       ??1SInfo@IBinObjFilter@libmedia@UModSys@@QEAA@XZ 0000000140001040 f i umodsys_lib_libmedia:umodsys.mod.media.stdlib.obj
 0001:00000070       ??3IRoot@core@UModSys@@SAXPEAXAEBUSIMemAlloc@12@@Z 0000000140001070 f i umodsys_lib_libmedia:umodsys.mod.media.stdio.obj
 0001:00000080       ?archive_load_data@libmedia@UModSys@@YA_NAEAUIBinArchive@12@AEBU?$TString@U?$TSCoreConst@D@su@tl@UModSys@@U?$TComparerBinaryHash@D@234@@tl@2@AEAUSCMemShared@core@2@AEBUSFlags@12@@Z 0000000140001080 f i umodsys_lib_libmedia:umodsys.mod.media.stdio.obj
 0001:00000250       ?archive_save_data@libmedia@UModSys@@YA_NAEAUIBinArchive@12@AEBU?$TString@U?$TSCoreConst@D@su@tl@UModSys@@U?$TComparerBinaryHash@D@234@@tl@2@AEBUSCMem@core@2@AEBUSFlags@12@@Z 0000000140001250 f i umodsys_lib_libmedia:umodsys.mod.media.stdio.obj
 0001:000002e0       ?file_get_size@stdio@media@modules@UModSys@@YA_JPEAU_iobuf@@@Z 00000001400012e0 f i umodsys_lib_libmedia:umodsys.mod.media.stdio.obj
 0001:00000350       ?root_get_interface_info@RStreamReader_FILE@stdio@media@modules@UModSys@@UEBAAEBUSUniquePointerInfo@core@5@XZ 0000000140001350 f i umodsys_lib_libmedia:umodsys.mod.media.stdio.obj
 0001:00000360       ?root_get_interface_type@RStreamReader_FILE@stdio@media@modules@UModSys@@UEBAPEBUSUniquePointerInfo@core@5@XZ 0000000140001360 f i umodsys_lib_libmedia:umodsys.mod.media.stdio.obj
 0001:00000370       ?root_get_other_interface@RStreamReader_FILE@stdio@media@modules@UModSys@@UEAAPEAUIRoot@core@5@PEBUSUniquePointerInfo@75@@Z 0000000140001370 f i umodsys_lib_libmedia:umodsys.mod.media.stdio.obj
 0001:00000370       ?root_get_other_interface@RStreamReader_FILE@stdio@media@modules@UModSys@@UEBAPEBUIRoot@core@5@PEBUSUniquePointerInfo@75@@Z 0000000140001370 f i umodsys_lib_libmedia:umodsys.mod.media.stdio.obj
 0001:000003a0       ?root_is_interface_supported@RStreamReader_FILE@stdio@media@modules@UModSys@@UEBA_NPEBUSUniquePointerInfo@core@5@@Z 00000001400013a0 f i umodsys_lib_libmedia:umodsys.mod.media.stdio.obj
 0001:000003d0       ?ref_remove@RUtilities@stdlib@media@modules@UModSys@@UEBAXXZ 00000001400013d0 f i umodsys_lib_libmedia:umodsys.mod.media.stdlib.obj
 0001:000003d0       ?ref_remove@RGenerator@stdlib@media@modules@UModSys@@UEBAXXZ 00000001400013d0 f i umodsys_lib_libmedia:umodsys.mod.media.stdlib.obj
 0001:000003d0       ?ref_remove@RStreamWriter_FILE@stdio@media@modules@UModSys@@UEBAXXZ 00000001400013d0 f i umodsys_lib_libmedia:umodsys.mod.media.stdio.obj
 0001:000003d0       ?ref_remove@RStreamReader_FILE@stdio@media@modules@UModSys@@UEBAXXZ 00000001400013d0 f i umodsys_lib_libmedia:umodsys.mod.media.stdio.obj
 0001:000003d0       ?ref_remove@RGenerator@stdio@media@modules@UModSys@@UEBAXXZ 00000001400013d0 f i umodsys_lib_libmedia:umodsys.mod.media.stdio.obj
 0001:000003f0       ?ref_links@RUtilities@stdlib@media@modules@UModSys@@UEBAHXZ 00000001400013f0 f i umodsys_lib_libmedia:umodsys.mod.media.stdlib.obj
 0001:000003f0       ?ref_links@RStreamWriter_FILE@stdio@media@modules@UModSys@@UEBAHXZ 00000001400013f0 f i umodsys_lib_libmedia:umodsys.mod.media.stdio.obj
 0001:000003f0       ?ref_links@RGenerator@stdio@media@modules@UModSys@@UEBAHXZ 00000001400013f0 f i umodsys_lib_libmedia:umodsys.mod.media.stdio.obj
 0001:000003f0       ?ref_links@RGenerator@stdlib@media@modules@UModSys@@UEBAHXZ 00000001400013f0 f i umodsys_lib_libmedia:umodsys.mod.media.stdlib.obj
 0001:000003f0       ?ref_links@RStreamReader_FILE@stdio@media@modules@UModSys@@UEBAHXZ 00000001400013f0 f i umodsys_lib_libmedia:umodsys.mod.media.stdio.obj
 0001:00000400       ?ref_weak@RStreamReader_FILE@stdio@media@modules@UModSys@@UEBA_NAEAUWeakPointer@IRefObject@core@5@@Z 0000000140001400 f i umodsys_lib_libmedia:umodsys.mod.media.stdio.obj
 0001:00000400       ?ref_weak@RStreamWriter_FILE@stdio@media@modules@UModSys@@UEBA_NAEAUWeakPointer@IRefObject@core@5@@Z 0000000140001400 f i umodsys_lib_libmedia:umodsys.mod.media.stdio.obj
 0001:00000400       ?ref_weak@RGenerator@stdio@media@modules@UModSys@@UEBA_NAEAUWeakPointer@IRefObject@core@5@@Z 0000000140001400 f i umodsys_lib_libmedia:umodsys.mod.media.stdio.obj
 0001:00000400       ?ref_weak@RGenerator@stdlib@media@modules@UModSys@@UEBA_NAEAUWeakPointer@IRefObject@core@5@@Z 0000000140001400 f i umodsys_lib_libmedia:umodsys.mod.media.stdlib.obj
 0001:00000400       ?ref_weak@RUtilities@stdlib@media@modules@UModSys@@UEBA_NAEAUWeakPointer@IRefObject@core@5@@Z 0000000140001400 f i umodsys_lib_libmedia:umodsys.mod.media.stdlib.obj
 0001:00000420       ??0RStreamReader_FILE@stdio@media@modules@UModSys@@QEAA@PEAUIModObject@base@4@AEBUSParameters@core@4@@Z 0000000140001420 f i umodsys_lib_libmedia:umodsys.mod.media.stdio.obj
 0001:000004f0       ??0RStreamReader_FILE@stdio@media@modules@UModSys@@QEAA@PEAUIModObject@base@4@PEBD@Z 00000001400014f0 f i umodsys_lib_libmedia:umodsys.mod.media.stdio.obj
 0001:000005a0       ?get_size@RStreamReader_FILE@stdio@media@modules@UModSys@@QEAAXXZ 00000001400015a0 f i umodsys_lib_libmedia:umodsys.mod.media.stdio.obj
 0001:00000620       ?reader_seek@RStreamReader_FILE@stdio@media@modules@UModSys@@UEAA_N_J@Z 0000000140001620 f i umodsys_lib_libmedia:umodsys.mod.media.stdio.obj
 0001:00000650       ?reader_seekend@RStreamReader_FILE@stdio@media@modules@UModSys@@UEAA_N_J@Z 0000000140001650 f i umodsys_lib_libmedia:umodsys.mod.media.stdio.obj
 0001:00000680       ?reader_seekdelta@RStreamReader_FILE@stdio@media@modules@UModSys@@UEAA_N_J@Z 0000000140001680 f i umodsys_lib_libmedia:umodsys.mod.media.stdio.obj
 0001:000006b0       ?reader_pos@RStreamReader_FILE@stdio@media@modules@UModSys@@UEAA_JXZ 00000001400016b0 f i umodsys_lib_libmedia:umodsys.mod.media.stdio.obj
 0001:000006e0       ?reader_size@RStreamReader_FILE@stdio@media@modules@UModSys@@UEAA_JXZ 00000001400016e0 f i umodsys_lib_libmedia:umodsys.mod.media.stdio.obj
 0001:000006f0       ?reader_read@RStreamReader_FILE@stdio@media@modules@UModSys@@UEAA_NPEAX_K@Z 00000001400016f0 f i umodsys_lib_libmedia:umodsys.mod.media.stdio.obj
 0001:000007a0       ?reader_close@RStreamReader_FILE@stdio@media@modules@UModSys@@UEAAXXZ 00000001400017a0 f i umodsys_lib_libmedia:umodsys.mod.media.stdio.obj
 0001:000007d0       ??_ERStreamReader_FILE@stdio@media@modules@UModSys@@UEAAPEAXI@Z 00000001400017d0 f i  CIL library: CIL module
 0001:000007d0       ??_GRStreamReader_FILE@stdio@media@modules@UModSys@@UEAAPEAXI@Z 00000001400017d0 f i umodsys_lib_libmedia:umodsys.mod.media.stdio.obj
 0001:00000830       ??1IStreamReader@libmedia@UModSys@@UEAA@XZ 0000000140001830 f i umodsys_lib_libmedia:umodsys.mod.media.stdio.obj
 0001:00000830       ??1IStreamWriter@libmedia@UModSys@@UEAA@XZ 0000000140001830 f i umodsys_lib_libmedia:umodsys.mod.media.stdio.obj
 0001:00000830       ??1IUtilities@libmedia@UModSys@@UEAA@XZ 0000000140001830 f i umodsys_lib_libmedia:umodsys.mod.media.stdlib.obj
 0001:00000840       ??_GIRoot@core@UModSys@@UEAAPEAXI@Z 0000000140001840 f i umodsys_lib_libmedia:umodsys.mod.media.stdio.obj
 0001:00000840       ??_EIRoot@core@UModSys@@UEAAPEAXI@Z 0000000140001840 f i  CIL library: CIL module
 0001:00000870       ?root_get_interface_info@RStreamWriter_FILE@stdio@media@modules@UModSys@@UEBAAEBUSUniquePointerInfo@core@5@XZ 0000000140001870 f i umodsys_lib_libmedia:umodsys.mod.media.stdio.obj
 0001:00000880       ?root_get_interface_type@RStreamWriter_FILE@stdio@media@modules@UModSys@@UEBAPEBUSUniquePointerInfo@core@5@XZ 0000000140001880 f i umodsys_lib_libmedia:umodsys.mod.media.stdio.obj
 0001:00000890       ?root_get_other_interface@RStreamWriter_FILE@stdio@media@modules@UModSys@@UEBAPEBUIRoot@core@5@PEBUSUniquePointerInfo@75@@Z 0000000140001890 f i umodsys_lib_libmedia:umodsys.mod.media.stdio.obj
 0001:00000890       ?root_get_other_interface@RStreamWriter_FILE@stdio@media@modules@UModSys@@UEAAPEAUIRoot@core@5@PEBUSUniquePointerInfo@75@@Z 0000000140001890 f i umodsys_lib_libmedia:umodsys.mod.media.stdio.obj
 0001:000008c0       ?root_is_interface_supported@RStreamWriter_FILE@stdio@media@modules@UModSys@@UEBA_NPEBUSUniquePointerInfo@core@5@@Z 00000001400018c0 f i umodsys_lib_libmedia:umodsys.mod.media.stdio.obj
 0001:000008f0       ??0RStreamWriter_FILE@stdio@media@modules@UModSys@@QEAA@PEAUIModObject@base@4@AEBUSParameters@core@4@@Z 00000001400018f0 f i umodsys_lib_libmedia:umodsys.mod.media.stdio.obj
 0001:00000990       ??0RStreamWriter_FILE@stdio@media@modules@UModSys@@QEAA@PEAUIModObject@base@4@PEBD_N@Z 0000000140001990 f i umodsys_lib_libmedia:umodsys.mod.media.stdio.obj
 0001:00000a70       ?open@RStreamWriter_FILE@stdio@media@modules@UModSys@@QEAAXAEBUSParameters@core@5@@Z 0000000140001a70 f i umodsys_lib_libmedia:umodsys.mod.media.stdio.obj
 0001:00000b30       ?writer_seek@RStreamWriter_FILE@stdio@media@modules@UModSys@@UEAA_N_J@Z 0000000140001b30 f i umodsys_lib_libmedia:umodsys.mod.media.stdio.obj
 0001:00000b60       ?writer_seekend@RStreamWriter_FILE@stdio@media@modules@UModSys@@UEAA_N_J@Z 0000000140001b60 f i umodsys_lib_libmedia:umodsys.mod.media.stdio.obj
 0001:00000b90       ?writer_seekdelta@RStreamWriter_FILE@stdio@media@modules@UModSys@@UEAA_N_J@Z 0000000140001b90 f i umodsys_lib_libmedia:umodsys.mod.media.stdio.obj
 0001:00000bc0       ?writer_setsize@RStreamWriter_FILE@stdio@media@modules@UModSys@@UEAA_N_J@Z 0000000140001bc0 f i umodsys_lib_libmedia:umodsys.mod.media.stdio.obj
 0001:00000c20       ?writer_pos@RStreamWriter_FILE@stdio@media@modules@UModSys@@UEAA_JXZ 0000000140001c20 f i umodsys_lib_libmedia:umodsys.mod.media.stdio.obj
 0001:00000c50       ?writer_size@RStreamWriter_FILE@stdio@media@modules@UModSys@@UEAA_JXZ 0000000140001c50 f i umodsys_lib_libmedia:umodsys.mod.media.stdio.obj
 0001:00000c80       ?writer_write@RStreamWriter_FILE@stdio@media@modules@UModSys@@UEAA_NPEBX_K@Z 0000000140001c80 f i umodsys_lib_libmedia:umodsys.mod.media.stdio.obj
 0001:00000d30       ?writer_copy@RStreamWriter_FILE@stdio@media@modules@UModSys@@UEAA_NPEAUIStreamReader@libmedia@5@_J@Z 0000000140001d30 f i umodsys_lib_libmedia:umodsys.mod.media.stdio.obj
 0001:00000de0       ?writer_copy@RStreamWriter_FILE@stdio@media@modules@UModSys@@UEAA_NPEAUIStreamReader@libmedia@5@_J1@Z 0000000140001de0 f i umodsys_lib_libmedia:umodsys.mod.media.stdio.obj
 0001:00000e50       ?writer_close@RStreamWriter_FILE@stdio@media@modules@UModSys@@UEAAXXZ 0000000140001e50 f i umodsys_lib_libmedia:umodsys.mod.media.stdio.obj
 0001:00000e90       ?writer_abort@RStreamWriter_FILE@stdio@media@modules@UModSys@@UEAAXXZ 0000000140001e90 f i umodsys_lib_libmedia:umodsys.mod.media.stdio.obj
 0001:00000ed0       ??_GRStreamWriter_FILE@stdio@media@modules@UModSys@@UEAAPEAXI@Z 0000000140001ed0 f i umodsys_lib_libmedia:umodsys.mod.media.stdio.obj
 0001:00000ed0       ??_ERStreamWriter_FILE@stdio@media@modules@UModSys@@UEAAPEAXI@Z 0000000140001ed0 f i  CIL library: CIL module
 0001:00000f50       ?root_get_interface_info@RDataArchiver_OsDir@stdio@media@modules@UModSys@@UEBAAEBUSUniquePointerInfo@core@5@XZ 0000000140001f50 f i umodsys_lib_libmedia:umodsys.mod.media.stdio.obj
 0001:00000f60       ?root_get_interface_type@RDataArchiver_OsDir@stdio@media@modules@UModSys@@UEBAPEBUSUniquePointerInfo@core@5@XZ 0000000140001f60 f i umodsys_lib_libmedia:umodsys.mod.media.stdio.obj
 0001:00000f70       ?root_get_other_interface@RDataArchiver_OsDir@stdio@media@modules@UModSys@@UEBAPEBUIRoot@core@5@PEBUSUniquePointerInfo@75@@Z 0000000140001f70 f i umodsys_lib_libmedia:umodsys.mod.media.stdio.obj
 0001:00000f70       ?root_get_other_interface@RDataArchiver_OsDir@stdio@media@modules@UModSys@@UEAAPEAUIRoot@core@5@PEBUSUniquePointerInfo@75@@Z 0000000140001f70 f i umodsys_lib_libmedia:umodsys.mod.media.stdio.obj
 0001:00000fb0       ?root_is_interface_supported@RDataArchiver_OsDir@stdio@media@modules@UModSys@@UEBA_NPEBUSUniquePointerInfo@core@5@@Z 0000000140001fb0 f i umodsys_lib_libmedia:umodsys.mod.media.stdio.obj
 0001:00000ff0       ?ref_remove@RLibraryObjCache@stdlib@media@modules@UModSys@@UEBAXXZ 0000000140001ff0 f i umodsys_lib_libmedia:umodsys.mod.media.stdlib.obj
 0001:00000ff0       ?ref_remove@RDataArchiver_OsDir@stdio@media@modules@UModSys@@UEBAXXZ 0000000140001ff0 f i umodsys_lib_libmedia:umodsys.mod.media.stdio.obj
 0001:00000ff0       ?ref_remove@RLibraryBinTree@stdlib@media@modules@UModSys@@UEBAXXZ 0000000140001ff0 f i umodsys_lib_libmedia:umodsys.mod.media.stdlib.obj
 0001:00000ff0       ?ref_remove@RLibraryBinCache@stdlib@media@modules@UModSys@@UEBAXXZ 0000000140001ff0 f i umodsys_lib_libmedia:umodsys.mod.media.stdlib.obj
 0001:00000ff0       ?ref_remove@RParameters@rsystem@base@UModSys@@UEBAXXZ 0000000140001ff0 f i umodsys_lib_basesys:umodsys.basesys.rparameters.obj
 0001:00000ff0       ?ref_remove@RLibraryObjFilter@stdlib@media@modules@UModSys@@UEBAXXZ 0000000140001ff0 f i umodsys_lib_libmedia:umodsys.mod.media.stdlib.obj
 0001:00000ff0       ?ref_remove@RLibraryLayered@stdlib@media@modules@UModSys@@UEBAXXZ 0000000140001ff0 f i umodsys_lib_libmedia:umodsys.mod.media.stdlib.obj
 0001:00001010       ??0RDataArchiver_OsDir@stdio@media@modules@UModSys@@QEAA@PEAUIModObject@base@4@AEBUSParameters@core@4@U?$TFlags4State@USMediaFlagUid@libmedia@UModSys@@I@tl@4@@Z 0000000140002010 f i umodsys_lib_libmedia:umodsys.mod.media.stdio.obj
 0001:00001110       ?open@RDataArchiver_OsDir@stdio@media@modules@UModSys@@QEAAXAEBUSParameters@core@5@@Z 0000000140002110 f i umodsys_lib_libmedia:umodsys.mod.media.stdio.obj
 0001:00001220       ?get_flag@RDataArchiver_OsDir@stdio@media@modules@UModSys@@UEBA?AW4eStates@?$TFlags4State@USMediaFlagUid@libmedia@UModSys@@I@tl@5@H@Z 0000000140002220 f i umodsys_lib_libmedia:umodsys.mod.media.stdio.obj
 0001:00001230       ?get_flags_auto@RDataArchiver_OsDir@stdio@media@modules@UModSys@@UEBA?AU?$TFlags4State@USMediaFlagUid@libmedia@UModSys@@I@tl@5@XZ 0000000140002230 f i umodsys_lib_libmedia:umodsys.mod.media.stdio.obj
 0001:00001240       ?set_flag@RDataArchiver_OsDir@stdio@media@modules@UModSys@@UEAA?AW4eStates@?$TFlags4State@USMediaFlagUid@libmedia@UModSys@@I@tl@5@HW46785@@Z 0000000140002240 f i umodsys_lib_libmedia:umodsys.mod.media.stdio.obj
 0001:00001270       ?data_load@RDataArchiver_OsDir@stdio@media@modules@UModSys@@UEAA_NAEBU?$TString@U?$TSCoreConst@D@su@tl@UModSys@@U?$TComparerBinaryHash@D@234@@tl@5@AEAUSCMemShared@core@5@AEBUSFlags@libmedia@5@@Z 0000000140002270 f i umodsys_lib_libmedia:umodsys.mod.media.stdio.obj
 0001:000012d0       ?data_save@RDataArchiver_OsDir@stdio@media@modules@UModSys@@UEAA_NAEBU?$TString@U?$TSCoreConst@D@su@tl@UModSys@@U?$TComparerBinaryHash@D@234@@tl@5@AEBUSCMem@core@5@AEBUSFlags@libmedia@5@@Z 00000001400022d0 f i umodsys_lib_libmedia:umodsys.mod.media.stdio.obj
 0001:000012e0       ?data_reader@RDataArchiver_OsDir@stdio@media@modules@UModSys@@UEAA?AU?$TRefObject@UIStreamReader@libmedia@UModSys@@U?$TRefObjectFunc@UIStreamReader@libmedia@UModSys@@@tl@3@@tl@5@AEBU?$TString@U?$TSCoreConst@D@su@tl@UModSys@@U?$TComparerBinaryHash@D@234@@75@AEBUSFlags@libmedia@5@@Z 00000001400022e0 f i umodsys_lib_libmedia:umodsys.mod.media.stdio.obj
 0001:00001480       ?data_writer@RDataArchiver_OsDir@stdio@media@modules@UModSys@@UEAA?AU?$TRefObject@UIStreamWriter@libmedia@UModSys@@U?$TRefObjectFunc@UIStreamWriter@libmedia@UModSys@@@tl@3@@tl@5@AEBU?$TString@U?$TSCoreConst@D@su@tl@UModSys@@U?$TComparerBinaryHash@D@234@@75@AEBUSFlags@libmedia@5@@Z 0000000140002480 f i umodsys_lib_libmedia:umodsys.mod.media.stdio.obj
 0001:00001630       ?data_list@RDataArchiver_OsDir@stdio@media@modules@UModSys@@UEAA_NAEBU?$TString@U?$TSCoreConst@D@su@tl@UModSys@@U?$TComparerBinaryHash@D@234@@tl@5@_KAEAUSFileInfo@libmedia@5@AEBUSFlags@95@@Z 0000000140002630 f i umodsys_lib_libmedia:umodsys.mod.media.stdio.obj
 0001:00001630       ?data_list@RDataArchiver_OsDir@stdio@media@modules@UModSys@@UEAA_NAEBU?$TString@U?$TSCoreConst@D@su@tl@UModSys@@U?$TComparerBinaryHash@D@234@@tl@5@_KAEAU?$TIStackSocket@USFileInfo@libmedia@UModSys@@@75@AEBUSFlags@libmedia@5@@Z 0000000140002630 f i umodsys_lib_libmedia:umodsys.mod.media.stdio.obj
 0001:000016c0       ?get_permissions@RDataArchiver_OsDir@stdio@media@modules@UModSys@@UEAAHXZ 00000001400026c0 f i umodsys_lib_libmedia:umodsys.mod.media.stdio.obj
 0001:000016d0       ??_ERDataArchiver_OsDir@stdio@media@modules@UModSys@@UEAAPEAXI@Z 00000001400026d0 f i  CIL library: CIL module
 0001:000016d0       ??_GRDataArchiver_OsDir@stdio@media@modules@UModSys@@UEAAPEAXI@Z 00000001400026d0 f i umodsys_lib_libmedia:umodsys.mod.media.stdio.obj
 0001:00001750       ?get_generated_names@RGenerator@stdio@media@modules@UModSys@@UEBAHAEAUSUniquePtrList@core@5@@Z 0000000140002750 f i umodsys_lib_libmedia:umodsys.mod.media.stdio.obj
 0001:000017a0       ?get_generated_types@RGenerator@stdio@media@modules@UModSys@@UEBAHAEAUSUniquePtrList@core@5@PEBUSUniquePointerInfo@75@@Z 00000001400027a0 f i umodsys_lib_libmedia:umodsys.mod.media.stdio.obj
 0001:00001880       ?generate@RGenerator@stdio@media@modules@UModSys@@UEAA_NAEAU?$TRefObject@UIRefObject@core@UModSys@@U?$TRefObjectFunc@UIRefObject@core@UModSys@@@tl@3@@tl@5@PEBUSUniquePointerInfo@core@5@AEBUSParameters@95@@Z 0000000140002880 f i umodsys_lib_libmedia:umodsys.mod.media.stdio.obj
 0001:000019b0       ?root_get_interface_info@RGenerator@stdio@media@modules@UModSys@@UEBAAEBUSUniquePointerInfo@core@5@XZ 00000001400029b0 f i umodsys_lib_libmedia:umodsys.mod.media.stdio.obj
 0001:000019c0       ?root_get_interface_type@RGenerator@stdio@media@modules@UModSys@@UEBAPEBUSUniquePointerInfo@core@5@XZ 00000001400029c0 f i umodsys_lib_libmedia:umodsys.mod.media.stdio.obj
 0001:000019d0       ?root_get_other_interface@RGenerator@stdio@media@modules@UModSys@@UEBAPEBUIRoot@core@5@PEBUSUniquePointerInfo@75@@Z 00000001400029d0 f i umodsys_lib_libmedia:umodsys.mod.media.stdio.obj
 0001:000019d0       ?root_get_other_interface@RGenerator@stdio@media@modules@UModSys@@UEAAPEAUIRoot@core@5@PEBUSUniquePointerInfo@75@@Z 00000001400029d0 f i umodsys_lib_libmedia:umodsys.mod.media.stdio.obj
 0001:00001a10       ?root_is_interface_supported@RGenerator@stdio@media@modules@UModSys@@UEBA_NPEBUSUniquePointerInfo@core@5@@Z 0000000140002a10 f i umodsys_lib_libmedia:umodsys.mod.media.stdio.obj
 0001:00001a50       ?ref_add@RStreamReader_FILE@stdio@media@modules@UModSys@@UEBAXXZ 0000000140002a50 f i umodsys_lib_libmedia:umodsys.mod.media.stdio.obj
 0001:00001a50       ?ref_add@RGenerator@stdlib@media@modules@UModSys@@UEBAXXZ 0000000140002a50 f i umodsys_lib_libmedia:umodsys.mod.media.stdlib.obj
 0001:00001a50       ?ref_add@RUtilities@stdlib@media@modules@UModSys@@UEBAXXZ 0000000140002a50 f i umodsys_lib_libmedia:umodsys.mod.media.stdlib.obj
 0001:00001a50       ?ref_add@RStreamWriter_FILE@stdio@media@modules@UModSys@@UEBAXXZ 0000000140002a50 f i umodsys_lib_libmedia:umodsys.mod.media.stdio.obj
 0001:00001a50       ?ref_add@RGenerator@stdio@media@modules@UModSys@@UEBAXXZ 0000000140002a50 f i umodsys_lib_libmedia:umodsys.mod.media.stdio.obj
 0001:00001a60       ?suicide@RGenerator@stdlib@media@modules@UModSys@@UEAAXXZ 0000000140002a60 f i umodsys_lib_libmedia:umodsys.mod.media.stdlib.obj
 0001:00001a60       ?suicide@RGenerator@stdio@media@modules@UModSys@@UEAAXXZ 0000000140002a60 f i umodsys_lib_libmedia:umodsys.mod.media.stdio.obj
 0001:00001a60       ??3@YAXPEAX0@Z             0000000140002a60 f i umodsys_lib_libmedia:umodsys.mod.media.stdio.obj
 0001:00001a70       ?get_uid@RGenerator@stdio@media@modules@UModSys@@UEBAPEBUSUniquePointerInfo@core@5@XZ 0000000140002a70 f i umodsys_lib_libmedia:umodsys.mod.media.stdio.obj
 0001:00001a80       ?do_open@RModuleReg@stdio@media@modules@UModSys@@UEAA_NXZ 0000000140002a80 f i umodsys_lib_libmedia:umodsys.mod.media.stdio.obj
 0001:00001a90       ?do_close@RModuleReg@stdio@media@modules@UModSys@@UEAA_NXZ 0000000140002a90 f i umodsys_lib_libmedia:umodsys.mod.media.stdio.obj
 0001:00001aa0       ??_ERModuleReg@stdio@media@modules@UModSys@@UEAAPEAXI@Z 0000000140002aa0 f i  CIL library: CIL module
 0001:00001aa0       ??_GRModuleReg@stdio@media@modules@UModSys@@UEAAPEAXI@Z 0000000140002aa0 f i umodsys_lib_libmedia:umodsys.mod.media.stdio.obj
 0001:00001ad0       ??1?$TSCoreShared@USIMemAlloc@core@UModSys@@D@su@tl@UModSys@@QEAA@XZ 0000000140002ad0 f i umodsys_lib_libmedia:umodsys.mod.media.stdio.obj
 0001:00001ad0       ??1?$TString@U?$TSCoreShared@USIMemAlloc@core@UModSys@@D@su@tl@UModSys@@U?$TComparerBinaryHash@D@234@@tl@UModSys@@QEAA@XZ 0000000140002ad0 f i umodsys_lib_libmedia:umodsys.mod.media.stdio.obj
 0001:00001ad0       ??1?$TStringBuf@U?$TSCoreShared@USIMemAlloc@core@UModSys@@D@su@tl@UModSys@@U?$TComparerBinaryHash@D@234@@tl@UModSys@@QEAA@XZ 0000000140002ad0 f i umodsys_lib_libmedia:umodsys.mod.media.stdlib.obj
 0001:00001ae0       ??_GRGenerator@stdlib@media@modules@UModSys@@UEAAPEAXI@Z 0000000140002ae0 f i umodsys_lib_libmedia:umodsys.mod.media.stdlib.obj
 0001:00001ae0       ??_ERGenerator@stdio@media@modules@UModSys@@UEAAPEAXI@Z 0000000140002ae0 f i  CIL library: CIL module
 0001:00001ae0       ??_GIRefObject@core@UModSys@@UEAAPEAXI@Z 0000000140002ae0 f i umodsys_lib_libmedia:umodsys.mod.media.stdio.obj
 0001:00001ae0       ??_ERGenerator@stdlib@media@modules@UModSys@@UEAAPEAXI@Z 0000000140002ae0 f i  CIL library: CIL module
 0001:00001ae0       ??_EIRefObject@core@UModSys@@UEAAPEAXI@Z 0000000140002ae0 f i  CIL library: CIL module
 0001:00001ae0       ??_GRGenerator@stdio@media@modules@UModSys@@UEAAPEAXI@Z 0000000140002ae0 f i umodsys_lib_libmedia:umodsys.mod.media.stdio.obj
 0001:00001b10       ?info_release@?$TSCoreShared@USIMemAlloc@core@UModSys@@D@su@tl@UModSys@@QEAAXXZ 0000000140002b10 f i umodsys_lib_libmedia:umodsys.mod.media.stdio.obj
 0001:00001bb0       ?info_new@?$TSCoreShared@USIMemAlloc@core@UModSys@@D@su@tl@UModSys@@QEAA_NPEBD_K@Z 0000000140002bb0 f i umodsys_lib_libmedia:umodsys.mod.media.stdio.obj
 0001:00001ca0       ?get_null@?$TSCoreShared@USIMemAlloc@core@UModSys@@D@su@tl@UModSys@@SAPEAU?$TSharedStringInfo@DUSIMemAlloc@core@UModSys@@@234@XZ 0000000140002ca0 f i umodsys_lib_libmedia:umodsys.mod.media.stdio.obj
 0001:00001cf0       ??$ValidateConstruction@UIStreamReader@libmedia@UModSys@@URStreamReader_FILE@stdio@media@modules@3@@core@UModSys@@YA_NAEAU?$TRefObject@UIStreamReader@libmedia@UModSys@@U?$TRefObjectFunc@UIStreamReader@libmedia@UModSys@@@tl@3@@tl@1@PEAURStreamReader_FILE@stdio@media@modules@1@@Z 0000000140002cf0 f i umodsys_lib_libmedia:umodsys.mod.media.stdio.obj
 0001:00001cf0       ??$ValidateConstruction@UIRefObject@core@UModSys@@URStreamReader_FILE@stdio@media@modules@3@@core@UModSys@@YA_NAEAU?$TRefObject@UIRefObject@core@UModSys@@U?$TRefObjectFunc@UIRefObject@core@UModSys@@@tl@3@@tl@1@PEAURStreamReader_FILE@stdio@media@modules@1@@Z 0000000140002cf0 f i umodsys_lib_libmedia:umodsys.mod.media.stdio.obj
 0001:00001d70       ??1?$TRefObject@UIModObject@base@UModSys@@U?$TModObjectFunc@UIModObject@base@UModSys@@@tl@3@@tl@UModSys@@QEAA@XZ 0000000140002d70 f i umodsys_lib_libmedia:umodsys.mod.media.stdio.obj
 0001:00001da0       ??$is_flag@U?$TFlags4StateShift@USMediaFlagUid@libmedia@UModSys@@I$09@tl@UModSys@@@SFlags@libmedia@UModSys@@QEBA_NPEBUIResolverAuto@012@W4eStates@?$TFlags4State@USMediaFlagUid@libmedia@UModSys@@I@tl@2@@Z 0000000140002da0 f i umodsys_lib_libmedia:umodsys.mod.media.stdio.obj
 0001:00001e30       ??$ValidateConstruction@UIStreamWriter@libmedia@UModSys@@URStreamWriter_FILE@stdio@media@modules@3@@core@UModSys@@YA_NAEAU?$TRefObject@UIStreamWriter@libmedia@UModSys@@U?$TRefObjectFunc@UIStreamWriter@libmedia@UModSys@@@tl@3@@tl@1@PEAURStreamWriter_FILE@stdio@media@modules@1@@Z 0000000140002e30 f i umodsys_lib_libmedia:umodsys.mod.media.stdio.obj
 0001:00001e30       ??$ValidateConstruction@UIRefObject@core@UModSys@@URStreamWriter_FILE@stdio@media@modules@3@@core@UModSys@@YA_NAEAU?$TRefObject@UIRefObject@core@UModSys@@U?$TRefObjectFunc@UIRefObject@core@UModSys@@@tl@3@@tl@1@PEAURStreamWriter_FILE@stdio@media@modules@1@@Z 0000000140002e30 f i umodsys_lib_libmedia:umodsys.mod.media.stdio.obj
 0001:00001eb0       ?s_set@?$TRefObjectFunc@UIRefObject@core@UModSys@@@tl@UModSys@@SAXAEAPEAUIRefObject@core@3@PEAU453@@Z 0000000140002eb0 f i umodsys_lib_libmedia:umodsys.mod.media.stdio.obj
 0001:00001ef0       ??0SFileInfo@libmedia@UModSys@@QEAA@XZ 0000000140002ef0 f i umodsys_lib_libmedia:umodsys.mod.media.stdlib.obj
 0001:00001fc0       ??1SFileInfo@libmedia@UModSys@@QEAA@XZ 0000000140002fc0 f i umodsys_lib_libmedia:umodsys.mod.media.stdlib.obj
 0001:00002010       ?get_flag@RResolverChain@SFlagsChain@libmedia@UModSys@@UEBA?AW4eStates@?$TFlags4State@USMediaFlagUid@libmedia@UModSys@@I@tl@4@H@Z 0000000140003010 f i umodsys_lib_libmedia:umodsys.mod.media.stdlib.obj
 0001:00002060       ?bin_reader@ILibrary@libmedia@UModSys@@QEAA?AU?$TRefObject@UIStreamReader@libmedia@UModSys@@U?$TRefObjectFunc@UIStreamReader@libmedia@UModSys@@@tl@3@@tl@3@AEBU?$TString@U?$TSCoreConst@D@su@tl@UModSys@@U?$TComparerBinaryHash@D@234@@53@AEBU?$TFlags4State@USMediaFlagUid@libmedia@UModSys@@I@53@@Z 0000000140003060 f i umodsys_lib_libmedia:umodsys.mod.media.stdlib.obj
 0001:000020a0       ?bin_writer@ILibrary@libmedia@UModSys@@QEAA?AU?$TRefObject@UIStreamWriter@libmedia@UModSys@@U?$TRefObjectFunc@UIStreamWriter@libmedia@UModSys@@@tl@3@@tl@3@AEBU?$TString@U?$TSCoreConst@D@su@tl@UModSys@@U?$TComparerBinaryHash@D@234@@53@AEBU?$TFlags4State@USMediaFlagUid@libmedia@UModSys@@I@53@@Z 00000001400030a0 f i umodsys_lib_libmedia:umodsys.mod.media.stdlib.obj
 0001:000020e0       ??1SPoint@ILibraryBinTree@libmedia@UModSys@@QEAA@XZ 00000001400030e0 f i umodsys_lib_libmedia:umodsys.mod.media.stdlib.obj
 0001:000020e0       ??1SLayer@ILibraryLayered@libmedia@UModSys@@QEAA@XZ 00000001400030e0 f i umodsys_lib_libmedia:umodsys.mod.media.stdlib.obj
 0001:00002110       ?root_get_interface_info@RUtilities@stdlib@media@modules@UModSys@@UEBAAEBUSUniquePointerInfo@core@5@XZ 0000000140003110 f i umodsys_lib_libmedia:umodsys.mod.media.stdlib.obj
 0001:00002120       ?root_get_interface_type@RUtilities@stdlib@media@modules@UModSys@@UEBAPEBUSUniquePointerInfo@core@5@XZ 0000000140003120 f i umodsys_lib_libmedia:umodsys.mod.media.stdlib.obj
 0001:00002130       ?root_get_other_interface@RUtilities@stdlib@media@modules@UModSys@@UEBAPEBUIRoot@core@5@PEBUSUniquePointerInfo@75@@Z 0000000140003130 f i umodsys_lib_libmedia:umodsys.mod.media.stdlib.obj
 0001:00002130       ?root_get_other_interface@RUtilities@stdlib@media@modules@UModSys@@UEAAPEAUIRoot@core@5@PEBUSUniquePointerInfo@75@@Z 0000000140003130 f i umodsys_lib_libmedia:umodsys.mod.media.stdlib.obj
 0001:00002160       ?root_is_interface_supported@RUtilities@stdlib@media@modules@UModSys@@UEBA_NPEBUSUniquePointerInfo@core@5@@Z 0000000140003160 f i umodsys_lib_libmedia:umodsys.mod.media.stdlib.obj
 0001:00002190       ?suicide@RStreamWriter_FILE@stdio@media@modules@UModSys@@UEAAXXZ 0000000140003190 f i umodsys_lib_libmedia:umodsys.mod.media.stdio.obj
 0001:00002190       ?suicide@RStreamReader_FILE@stdio@media@modules@UModSys@@UEAAXXZ 0000000140003190 f i umodsys_lib_libmedia:umodsys.mod.media.stdio.obj
 0001:00002190       ?suicide@RUtilities@stdlib@media@modules@UModSys@@UEAAXXZ 0000000140003190 f i umodsys_lib_libmedia:umodsys.mod.media.stdlib.obj
 0001:000021e0       ?_root_get_interface_types@RBinArchiveFrame@stdlib@media@modules@UModSys@@SA_KAEAUSUniquePtrList@core@5@@Z 00000001400031e0 f i umodsys_lib_libmedia:umodsys.mod.media.stdlib.obj
 0001:00002250       ?root_get_interface_info@RBinArchiveFrame@stdlib@media@modules@UModSys@@UEBAAEBUSUniquePointerInfo@core@5@XZ 0000000140003250 f i umodsys_lib_libmedia:umodsys.mod.media.stdlib.obj
 0001:00002260       ?root_get_interface_type@RBinArchiveFrame@stdlib@media@modules@UModSys@@UEBAPEBUSUniquePointerInfo@core@5@XZ 0000000140003260 f i umodsys_lib_libmedia:umodsys.mod.media.stdlib.obj
 0001:00002270       ?root_get_other_interface@RBinArchiveFrame@stdlib@media@modules@UModSys@@UEBAPEBUIRoot@core@5@PEBUSUniquePointerInfo@75@@Z 0000000140003270 f i umodsys_lib_libmedia:umodsys.mod.media.stdlib.obj
 0001:00002270       ?root_get_other_interface@RBinArchiveFrame@stdlib@media@modules@UModSys@@UEAAPEAUIRoot@core@5@PEBUSUniquePointerInfo@75@@Z 0000000140003270 f i umodsys_lib_libmedia:umodsys.mod.media.stdlib.obj
 0001:000022b0       ?root_is_interface_supported@RBinArchiveFrame@stdlib@media@modules@UModSys@@UEBA_NPEBUSUniquePointerInfo@core@5@@Z 00000001400032b0 f i umodsys_lib_libmedia:umodsys.mod.media.stdlib.obj
 0001:000022f0       ?ref_add@RBinArchiveFrame@stdlib@media@modules@UModSys@@UEBAXXZ 00000001400032f0 f i umodsys_lib_libmedia:umodsys.mod.media.stdlib.obj
 0001:00002300       ?ref_remove@RBinArchiveFrame@stdlib@media@modules@UModSys@@UEBAXXZ 0000000140003300 f i umodsys_lib_libmedia:umodsys.mod.media.stdlib.obj
 0001:00002320       ?ref_links@RBinArchiveFrame@stdlib@media@modules@UModSys@@UEBAHXZ 0000000140003320 f i umodsys_lib_libmedia:umodsys.mod.media.stdlib.obj
 0001:00002330       ?ref_weak@RBinArchiveFrame@stdlib@media@modules@UModSys@@UEBA_NAEAUWeakPointer@IRefObject@core@5@@Z 0000000140003330 f i umodsys_lib_libmedia:umodsys.mod.media.stdlib.obj
 0001:00002350       ?suicide@RBinArchiveFrame@stdlib@media@modules@UModSys@@UEAAXXZ 0000000140003350 f i umodsys_lib_libmedia:umodsys.mod.media.stdlib.obj
 0001:000023a0       ?_root_get_interface_types@RLibraryBinTree@stdlib@media@modules@UModSys@@SA_KAEAUSUniquePtrList@core@5@@Z 00000001400033a0 f i umodsys_lib_libmedia:umodsys.mod.media.stdlib.obj
 0001:00002410       ?root_get_interface_info@RLibraryBinTree@stdlib@media@modules@UModSys@@UEBAAEBUSUniquePointerInfo@core@5@XZ 0000000140003410 f i umodsys_lib_libmedia:umodsys.mod.media.stdlib.obj
 0001:00002420       ?root_get_interface_type@RLibraryBinTree@stdlib@media@modules@UModSys@@UEBAPEBUSUniquePointerInfo@core@5@XZ 0000000140003420 f i umodsys_lib_libmedia:umodsys.mod.media.stdlib.obj
 0001:00002430       ?root_get_other_interface@RLibraryBinTree@stdlib@media@modules@UModSys@@UEBAPEBUIRoot@core@5@PEBUSUniquePointerInfo@75@@Z 0000000140003430 f i umodsys_lib_libmedia:umodsys.mod.media.stdlib.obj
 0001:00002430       ?root_get_other_interface@RLibraryBinTree@stdlib@media@modules@UModSys@@UEAAPEAUIRoot@core@5@PEBUSUniquePointerInfo@75@@Z 0000000140003430 f i umodsys_lib_libmedia:umodsys.mod.media.stdlib.obj
 0001:00002470       ?root_is_interface_supported@RLibraryBinTree@stdlib@media@modules@UModSys@@UEBA_NPEBUSUniquePointerInfo@core@5@@Z 0000000140003470 f i umodsys_lib_libmedia:umodsys.mod.media.stdlib.obj
 0001:000024b0       ?ref_add@RLibraryBinCache@stdlib@media@modules@UModSys@@UEBAXXZ 00000001400034b0 f i umodsys_lib_libmedia:umodsys.mod.media.stdlib.obj
 0001:000024b0       ?ref_add@RLibraryLayered@stdlib@media@modules@UModSys@@UEBAXXZ 00000001400034b0 f i umodsys_lib_libmedia:umodsys.mod.media.stdlib.obj
 0001:000024b0       ?ref_add@RDataArchiver_OsDir@stdio@media@modules@UModSys@@UEBAXXZ 00000001400034b0 f i umodsys_lib_libmedia:umodsys.mod.media.stdio.obj
 0001:000024b0       ?ref_add@RLibraryObjFilter@stdlib@media@modules@UModSys@@UEBAXXZ 00000001400034b0 f i umodsys_lib_libmedia:umodsys.mod.media.stdlib.obj
 0001:000024b0       ?ref_add@RLibraryBinTree@stdlib@media@modules@UModSys@@UEBAXXZ 00000001400034b0 f i umodsys_lib_libmedia:umodsys.mod.media.stdlib.obj
 0001:000024b0       ?ref_add@RParameters@rsystem@base@UModSys@@UEBAXXZ 00000001400034b0 f i umodsys_lib_basesys:umodsys.basesys.rparameters.obj
 0001:000024b0       ?ref_add@RLibraryObjCache@stdlib@media@modules@UModSys@@UEBAXXZ 00000001400034b0 f i umodsys_lib_libmedia:umodsys.mod.media.stdlib.obj
 0001:000024c0       ?_root_get_interface_types@RLibraryBinCache@stdlib@media@modules@UModSys@@SA_KAEAUSUniquePtrList@core@5@@Z 00000001400034c0 f i umodsys_lib_libmedia:umodsys.mod.media.stdlib.obj
 0001:00002530       ?root_get_interface_info@RLibraryBinCache@stdlib@media@modules@UModSys@@UEBAAEBUSUniquePointerInfo@core@5@XZ 0000000140003530 f i umodsys_lib_libmedia:umodsys.mod.media.stdlib.obj
 0001:00002540       ?root_get_interface_type@RLibraryBinCache@stdlib@media@modules@UModSys@@UEBAPEBUSUniquePointerInfo@core@5@XZ 0000000140003540 f i umodsys_lib_libmedia:umodsys.mod.media.stdlib.obj
 0001:00002550       ?root_get_other_interface@RLibraryBinCache@stdlib@media@modules@UModSys@@UEAAPEAUIRoot@core@5@PEBUSUniquePointerInfo@75@@Z 0000000140003550 f i umodsys_lib_libmedia:umodsys.mod.media.stdlib.obj
 0001:00002550       ?root_get_other_interface@RLibraryBinCache@stdlib@media@modules@UModSys@@UEBAPEBUIRoot@core@5@PEBUSUniquePointerInfo@75@@Z 0000000140003550 f i umodsys_lib_libmedia:umodsys.mod.media.stdlib.obj
 0001:00002590       ?root_is_interface_supported@RLibraryBinCache@stdlib@media@modules@UModSys@@UEBA_NPEBUSUniquePointerInfo@core@5@@Z 0000000140003590 f i umodsys_lib_libmedia:umodsys.mod.media.stdlib.obj
 0001:000025d0       ?_root_get_interface_types@RLibraryLayered@stdlib@media@modules@UModSys@@SA_KAEAUSUniquePtrList@core@5@@Z 00000001400035d0 f i umodsys_lib_libmedia:umodsys.mod.media.stdlib.obj
 0001:00002640       ?root_get_interface_info@RLibraryLayered@stdlib@media@modules@UModSys@@UEBAAEBUSUniquePointerInfo@core@5@XZ 0000000140003640 f i umodsys_lib_libmedia:umodsys.mod.media.stdlib.obj
 0001:00002650       ?root_get_interface_type@RLibraryLayered@stdlib@media@modules@UModSys@@UEBAPEBUSUniquePointerInfo@core@5@XZ 0000000140003650 f i umodsys_lib_libmedia:umodsys.mod.media.stdlib.obj
 0001:00002660       ?root_get_other_interface@RLibraryLayered@stdlib@media@modules@UModSys@@UEAAPEAUIRoot@core@5@PEBUSUniquePointerInfo@75@@Z 0000000140003660 f i umodsys_lib_libmedia:umodsys.mod.media.stdlib.obj
 0001:00002660       ?root_get_other_interface@RLibraryLayered@stdlib@media@modules@UModSys@@UEBAPEBUIRoot@core@5@PEBUSUniquePointerInfo@75@@Z 0000000140003660 f i umodsys_lib_libmedia:umodsys.mod.media.stdlib.obj
 0001:000026a0       ?root_is_interface_supported@RLibraryLayered@stdlib@media@modules@UModSys@@UEBA_NPEBUSUniquePointerInfo@core@5@@Z 00000001400036a0 f i umodsys_lib_libmedia:umodsys.mod.media.stdlib.obj
 0001:000026e0       ??4SLayerX@RLibraryLayered@stdlib@media@modules@UModSys@@QEAAXAEBUSLayer@ILibraryLayered@libmedia@5@@Z 00000001400036e0 f i umodsys_lib_libmedia:umodsys.mod.media.stdlib.obj
 0001:00002790       ?_root_get_interface_types@RLibraryObjCache@stdlib@media@modules@UModSys@@SA_KAEAUSUniquePtrList@core@5@@Z 0000000140003790 f i umodsys_lib_libmedia:umodsys.mod.media.stdlib.obj
 0001:00002800       ?root_get_interface_info@RLibraryObjCache@stdlib@media@modules@UModSys@@UEBAAEBUSUniquePointerInfo@core@5@XZ 0000000140003800 f i umodsys_lib_libmedia:umodsys.mod.media.stdlib.obj
 0001:00002810       ?root_get_interface_type@RLibraryObjCache@stdlib@media@modules@UModSys@@UEBAPEBUSUniquePointerInfo@core@5@XZ 0000000140003810 f i umodsys_lib_libmedia:umodsys.mod.media.stdlib.obj
 0001:00002820       ?root_get_other_interface@RLibraryObjCache@stdlib@media@modules@UModSys@@UEAAPEAUIRoot@core@5@PEBUSUniquePointerInfo@75@@Z 0000000140003820 f i umodsys_lib_libmedia:umodsys.mod.media.stdlib.obj
 0001:00002820       ?root_get_other_interface@RLibraryObjCache@stdlib@media@modules@UModSys@@UEBAPEBUIRoot@core@5@PEBUSUniquePointerInfo@75@@Z 0000000140003820 f i umodsys_lib_libmedia:umodsys.mod.media.stdlib.obj
 0001:00002860       ?root_is_interface_supported@RLibraryObjCache@stdlib@media@modules@UModSys@@UEBA_NPEBUSUniquePointerInfo@core@5@@Z 0000000140003860 f i umodsys_lib_libmedia:umodsys.mod.media.stdlib.obj
 0001:000028a0       ?ref_links@RLibraryObjFilter@stdlib@media@modules@UModSys@@UEBAHXZ 00000001400038a0 f i umodsys_lib_libmedia:umodsys.mod.media.stdlib.obj
 0001:000028a0       ?ref_links@RParameters@rsystem@base@UModSys@@UEBAHXZ 00000001400038a0 f i umodsys_lib_basesys:umodsys.basesys.rparameters.obj
 0001:000028a0       ?ref_links@RLibraryBinTree@stdlib@media@modules@UModSys@@UEBAHXZ 00000001400038a0 f i umodsys_lib_libmedia:umodsys.mod.media.stdlib.obj
 0001:000028a0       ?ref_links@RLibraryBinCache@stdlib@media@modules@UModSys@@UEBAHXZ 00000001400038a0 f i umodsys_lib_libmedia:umodsys.mod.media.stdlib.obj
 0001:000028a0       ?ref_links@RLibraryObjCache@stdlib@media@modules@UModSys@@UEBAHXZ 00000001400038a0 f i umodsys_lib_libmedia:umodsys.mod.media.stdlib.obj
 0001:000028a0       ?ref_links@RLibraryLayered@stdlib@media@modules@UModSys@@UEBAHXZ 00000001400038a0 f i umodsys_lib_libmedia:umodsys.mod.media.stdlib.obj
 0001:000028a0       ?ref_links@RDataArchiver_OsDir@stdio@media@modules@UModSys@@UEBAHXZ 00000001400038a0 f i umodsys_lib_libmedia:umodsys.mod.media.stdio.obj
 0001:000028b0       ?_root_get_interface_types@RLibraryObjFilter@stdlib@media@modules@UModSys@@SA_KAEAUSUniquePtrList@core@5@@Z 00000001400038b0 f i umodsys_lib_libmedia:umodsys.mod.media.stdlib.obj
 0001:00002920       ?root_get_interface_info@RLibraryObjFilter@stdlib@media@modules@UModSys@@UEBAAEBUSUniquePointerInfo@core@5@XZ 0000000140003920 f i umodsys_lib_libmedia:umodsys.mod.media.stdlib.obj
 0001:00002930       ?root_get_interface_type@RLibraryObjFilter@stdlib@media@modules@UModSys@@UEBAPEBUSUniquePointerInfo@core@5@XZ 0000000140003930 f i umodsys_lib_libmedia:umodsys.mod.media.stdlib.obj
 0001:00002940       ?root_get_other_interface@RLibraryObjFilter@stdlib@media@modules@UModSys@@UEAAPEAUIRoot@core@5@PEBUSUniquePointerInfo@75@@Z 0000000140003940 f i umodsys_lib_libmedia:umodsys.mod.media.stdlib.obj
 0001:00002940       ?root_get_other_interface@RLibraryObjFilter@stdlib@media@modules@UModSys@@UEBAPEBUIRoot@core@5@PEBUSUniquePointerInfo@75@@Z 0000000140003940 f i umodsys_lib_libmedia:umodsys.mod.media.stdlib.obj
 0001:00002980       ?root_is_interface_supported@RLibraryObjFilter@stdlib@media@modules@UModSys@@UEBA_NPEBUSUniquePointerInfo@core@5@@Z 0000000140003980 f i umodsys_lib_libmedia:umodsys.mod.media.stdlib.obj
 0001:000029c0       ?suicide@RLibraryObjFilter@stdlib@media@modules@UModSys@@UEAAXXZ 00000001400039c0 f i umodsys_lib_libmedia:umodsys.mod.media.stdlib.obj
 0001:000029c0       ?suicide@RLibraryBinCache@stdlib@media@modules@UModSys@@UEAAXXZ 00000001400039c0 f i umodsys_lib_libmedia:umodsys.mod.media.stdlib.obj
 0001:000029c0       ?suicide@RLibraryBinTree@stdlib@media@modules@UModSys@@UEAAXXZ 00000001400039c0 f i umodsys_lib_libmedia:umodsys.mod.media.stdlib.obj
 0001:000029c0       ?suicide@RDataArchiver_OsDir@stdio@media@modules@UModSys@@UEAAXXZ 00000001400039c0 f i umodsys_lib_libmedia:umodsys.mod.media.stdio.obj
 0001:000029c0       ?suicide@RLibraryLayered@stdlib@media@modules@UModSys@@UEAAXXZ 00000001400039c0 f i umodsys_lib_libmedia:umodsys.mod.media.stdlib.obj
 0001:000029c0       ?suicide@RLibraryObjCache@stdlib@media@modules@UModSys@@UEAAXXZ 00000001400039c0 f i umodsys_lib_libmedia:umodsys.mod.media.stdlib.obj
 0001:00002a10       ?get_generated_names@RGenerator@stdlib@media@modules@UModSys@@UEBAHAEAUSUniquePtrList@core@5@@Z 0000000140003a10 f i umodsys_lib_libmedia:umodsys.mod.media.stdlib.obj
 0001:00002a90       ?get_generated_types@RGenerator@stdlib@media@modules@UModSys@@UEBAHAEAUSUniquePtrList@core@5@PEBUSUniquePointerInfo@75@@Z 0000000140003a90 f i umodsys_lib_libmedia:umodsys.mod.media.stdlib.obj
 0001:00002b80       ?generate@RGenerator@stdlib@media@modules@UModSys@@UEAA_NAEAU?$TRefObject@UIRefObject@core@UModSys@@U?$TRefObjectFunc@UIRefObject@core@UModSys@@@tl@3@@tl@5@PEBUSUniquePointerInfo@core@5@AEBUSParameters@95@@Z 0000000140003b80 f i umodsys_lib_libmedia:umodsys.mod.media.stdlib.obj
 0001:00002e00       ?root_get_interface_info@RGenerator@stdlib@media@modules@UModSys@@UEBAAEBUSUniquePointerInfo@core@5@XZ 0000000140003e00 f i umodsys_lib_libmedia:umodsys.mod.media.stdlib.obj
 0001:00002e10       ?root_get_interface_type@RGenerator@stdlib@media@modules@UModSys@@UEBAPEBUSUniquePointerInfo@core@5@XZ 0000000140003e10 f i umodsys_lib_libmedia:umodsys.mod.media.stdlib.obj
 0001:00002e20       ?root_get_other_interface@RGenerator@stdlib@media@modules@UModSys@@UEBAPEBUIRoot@core@5@PEBUSUniquePointerInfo@75@@Z 0000000140003e20 f i umodsys_lib_libmedia:umodsys.mod.media.stdlib.obj
 0001:00002e20       ?root_get_other_interface@RGenerator@stdlib@media@modules@UModSys@@UEAAPEAUIRoot@core@5@PEBUSUniquePointerInfo@75@@Z 0000000140003e20 f i umodsys_lib_libmedia:umodsys.mod.media.stdlib.obj
 0001:00002e60       ?root_is_interface_supported@RGenerator@stdlib@media@modules@UModSys@@UEBA_NPEBUSUniquePointerInfo@core@5@@Z 0000000140003e60 f i umodsys_lib_libmedia:umodsys.mod.media.stdlib.obj
 0001:00002ea0       ?get_uid@RGenerator@stdlib@media@modules@UModSys@@UEBAPEBUSUniquePointerInfo@core@5@XZ 0000000140003ea0 f i umodsys_lib_libmedia:umodsys.mod.media.stdlib.obj
 0001:00002eb0       ??_ERUtilities@stdlib@media@modules@UModSys@@UEAAPEAXI@Z 0000000140003eb0 f i  CIL library: CIL module
 0001:00002eb0       ??_GRUtilities@stdlib@media@modules@UModSys@@UEAAPEAXI@Z 0000000140003eb0 f i umodsys_lib_libmedia:umodsys.mod.media.stdlib.obj
 0001:00002ee0       ??_ERBinArchiveFrame@stdlib@media@modules@UModSys@@UEAAPEAXI@Z 0000000140003ee0 f i  CIL library: CIL module
 0001:00002ee0       ??_GRBinArchiveFrame@stdlib@media@modules@UModSys@@UEAAPEAXI@Z 0000000140003ee0 f i umodsys_lib_libmedia:umodsys.mod.media.stdlib.obj
 0001:00002f10       ??1IBinArchiveFrame@libmedia@UModSys@@UEAA@XZ 0000000140003f10 f i umodsys_lib_libmedia:umodsys.mod.media.stdlib.obj
 0001:00002f90       ??_ERLibraryBinTree@stdlib@media@modules@UModSys@@UEAAPEAXI@Z 0000000140003f90 f i  CIL library: CIL module
 0001:00002f90       ??_GRLibraryBinTree@stdlib@media@modules@UModSys@@UEAAPEAXI@Z 0000000140003f90 f i umodsys_lib_libmedia:umodsys.mod.media.stdlib.obj
 0001:00002fc0       ??_ERLibraryBinCache@stdlib@media@modules@UModSys@@UEAAPEAXI@Z 0000000140003fc0 f i  CIL library: CIL module
 0001:00002fc0       ??_GRLibraryBinCache@stdlib@media@modules@UModSys@@UEAAPEAXI@Z 0000000140003fc0 f i umodsys_lib_libmedia:umodsys.mod.media.stdlib.obj
 0001:00002ff0       ??_ERLibraryLayered@stdlib@media@modules@UModSys@@UEAAPEAXI@Z 0000000140003ff0 f i  CIL library: CIL module
 0001:00002ff0       ??_GRLibraryLayered@stdlib@media@modules@UModSys@@UEAAPEAXI@Z 0000000140003ff0 f i umodsys_lib_libmedia:umodsys.mod.media.stdlib.obj
 0001:00003020       ??1ILibraryObjFilter@libmedia@UModSys@@UEAA@XZ 0000000140004020 f i umodsys_lib_libmedia:umodsys.mod.media.stdlib.obj
 0001:00003020       ??1IBinArchive@libmedia@UModSys@@UEAA@XZ 0000000140004020 f i umodsys_lib_libmedia:umodsys.mod.media.stdio.obj
 0001:00003020       ??1ILibraryObjCache@libmedia@UModSys@@UEAA@XZ 0000000140004020 f i umodsys_lib_libmedia:umodsys.mod.media.stdlib.obj
 0001:00003020       ??1ILibraryLayered@libmedia@UModSys@@UEAA@XZ 0000000140004020 f i umodsys_lib_libmedia:umodsys.mod.media.stdlib.obj
 0001:00003020       ??1ILibraryBinTree@libmedia@UModSys@@UEAA@XZ 0000000140004020 f i umodsys_lib_libmedia:umodsys.mod.media.stdlib.obj
 0001:00003020       ??1ILibraryBinCache@libmedia@UModSys@@UEAA@XZ 0000000140004020 f i umodsys_lib_libmedia:umodsys.mod.media.stdlib.obj
 0001:00003060       ??_GRLibraryObjCache@stdlib@media@modules@UModSys@@UEAAPEAXI@Z 0000000140004060 f i umodsys_lib_libmedia:umodsys.mod.media.stdlib.obj
 0001:00003060       ??_ERLibraryObjCache@stdlib@media@modules@UModSys@@UEAAPEAXI@Z 0000000140004060 f i  CIL library: CIL module
 0001:00003090       ??_ERLibraryObjFilter@stdlib@media@modules@UModSys@@UEAAPEAXI@Z 0000000140004090 f i  CIL library: CIL module
 0001:00003090       ??_GRLibraryObjFilter@stdlib@media@modules@UModSys@@UEAAPEAXI@Z 0000000140004090 f i umodsys_lib_libmedia:umodsys.mod.media.stdlib.obj
 0001:000030c0       ?do_open@RModuleReg@stdlib@media@modules@UModSys@@UEAA_NXZ 00000001400040c0 f i umodsys_lib_libmedia:umodsys.mod.media.stdlib.obj
 0001:000030d0       ?do_close@RModuleReg@stdlib@media@modules@UModSys@@UEAA_NXZ 00000001400040d0 f i umodsys_lib_libmedia:umodsys.mod.media.stdlib.obj
 0001:000030e0       ??_GRModuleReg@stdlib@media@modules@UModSys@@UEAAPEAXI@Z 00000001400040e0 f i umodsys_lib_libmedia:umodsys.mod.media.stdlib.obj
 0001:000030e0       ??_ERModuleReg@stdlib@media@modules@UModSys@@UEAAPEAXI@Z 00000001400040e0 f i  CIL library: CIL module
 0001:00003110       ??4?$TString@U?$TSCoreConst@D@su@tl@UModSys@@U?$TComparerBinaryHash@D@234@@tl@UModSys@@QEAAAEBU012@PEBD@Z 0000000140004110 f i umodsys_lib_libmedia:umodsys.mod.media.stdlib.obj
 0001:00003170       ??4?$TRefObject@UIStreamWriter@libmedia@UModSys@@U?$TRefObjectFunc@UIStreamWriter@libmedia@UModSys@@@tl@3@@tl@UModSys@@QEAAAEBU012@AEBU012@@Z 0000000140004170 f i umodsys_lib_libmedia:umodsys.mod.media.stdlib.obj
 0001:000031b0       ??0?$TString@U?$TSCoreShared@USIMemAlloc@core@UModSys@@D@su@tl@UModSys@@U?$TComparerBinaryHash@D@234@@tl@UModSys@@QEAA@AEBU?$TSCoreConst@D@su@12@@Z 00000001400041b0 f i umodsys_lib_libmedia:umodsys.mod.media.stdlib.obj
 0001:00003260       ?Push@?$TDynarray@U?$TDynarrayHolderDynamic@UBuffer@RUtilities@stdlib@media@modules@UModSys@@U?$TAllocator@USIMemAlloc@core@UModSys@@USCountCalcPower2@23@@tl@6@@tl@UModSys@@@tl@UModSys@@QEAA_NXZ 0000000140004260 f i umodsys_lib_libmedia:umodsys.mod.media.stdlib.obj
 0001:00003330       ??1?$TTreeHoldRBD@UNameNode@IBinArchiveFrame@libmedia@UModSys@@U?$TNodeDeleter0@UNameNode@IBinArchiveFrame@libmedia@UModSys@@@tl@4@@tl@UModSys@@QEAA@XZ 0000000140004330 f i umodsys_lib_libmedia:umodsys.mod.media.stdlib.obj
 0001:00003350       ??1?$TDynarray@U?$TDynarrayHolderDynamic@UBuffer@RUtilities@stdlib@media@modules@UModSys@@U?$TAllocator@USIMemAlloc@core@UModSys@@USCountCalcPower2@23@@tl@6@@tl@UModSys@@@tl@UModSys@@QEAA@XZ 0000000140004350 f i umodsys_lib_libmedia:umodsys.mod.media.stdlib.obj
 0001:000033c0       ??1?$TDynarray@U?$TDynarrayHolderDynamic@USLayerX@RLibraryLayered@stdlib@media@modules@UModSys@@U?$TAllocator@USIMemAlloc@core@UModSys@@USCountCalcPower2@23@@tl@6@@tl@UModSys@@@tl@UModSys@@QEAA@XZ 00000001400043c0 f i umodsys_lib_libmedia:umodsys.mod.media.stdlib.obj
 0001:00003430       ?remove_node@?$TTreeHoldRB@U?$TScatterArrayNode@USFilter@RLibraryObjFilter@stdlib@media@modules@UModSys@@USId@23456@@tl@UModSys@@@tl@UModSys@@QEAAXPEAU?$TScatterArrayNode@USFilter@RLibraryObjFilter@stdlib@media@modules@UModSys@@USId@23456@@23@@Z 0000000140004430 f i umodsys_lib_libmedia:umodsys.mod.media.stdlib.obj
 0001:00003430       ?remove_node@?$TTreeHoldRB@U?$TScatterArrayNode@USCacheElem@RLibraryBinCache@stdlib@media@modules@UModSys@@U?$TString@U?$TSCoreConst@D@su@tl@UModSys@@U?$TComparerBinaryHash@D@234@@tl@6@@tl@UModSys@@@tl@UModSys@@QEAAXPEAU?$TScatterArrayNode@USCacheElem@RLibraryBinCache@stdlib@media@modules@UModSys@@U?$TString@U?$TSCoreConst@D@su@tl@UModSys@@U?$TComparerBinaryHash@D@234@@tl@6@@23@@Z 0000000140004430 f i umodsys_lib_libmedia:umodsys.mod.media.stdlib.obj
 0001:00003430       ?remove_node@?$TTreeHoldRB@U?$TScatterArrayNode@USMountInfo@RLibraryBinTree@stdlib@media@modules@UModSys@@USId@ILibraryBinTree@libmedia@6@@tl@UModSys@@@tl@UModSys@@QEAAXPEAU?$TScatterArrayNode@USMountInfo@RLibraryBinTree@stdlib@media@modules@UModSys@@USId@ILibraryBinTree@libmedia@6@@23@@Z 0000000140004430 f i umodsys_lib_libmedia:umodsys.mod.media.stdlib.obj
 0001:00003430       ?remove_node@?$TTreeHoldRB@U?$TScatterArrayNode@USCacheElem@RLibraryObjCache@stdlib@media@modules@UModSys@@U?$TString@U?$TSCoreConst@D@su@tl@UModSys@@U?$TComparerBinaryHash@D@234@@tl@6@@tl@UModSys@@@tl@UModSys@@QEAAXPEAU?$TScatterArrayNode@USCacheElem@RLibraryObjCache@stdlib@media@modules@UModSys@@U?$TString@U?$TSCoreConst@D@su@tl@UModSys@@U?$TComparerBinaryHash@D@234@@tl@6@@23@@Z 0000000140004430 f i umodsys_lib_libmedia:umodsys.mod.media.stdlib.obj
 0001:00003430       ?remove_node@?$TTreeHoldRB@UNameNode@IBinArchiveFrame@libmedia@UModSys@@@tl@UModSys@@QEAAXPEAUNameNode@IBinArchiveFrame@libmedia@3@@Z 0000000140004430 f i umodsys_lib_libmedia:umodsys.mod.media.stdlib.obj
 0001:00003550       ??1?$TPair@USId@ILibraryBinTree@libmedia@UModSys@@USMountInfo@RLibraryBinTree@stdlib@media@modules@4@@tl@UModSys@@QEAA@XZ 0000000140004550 f i umodsys_lib_libmedia:umodsys.mod.media.stdlib.obj
 0001:00003590       ??1?$TPair@U?$TString@U?$TSCoreConst@D@su@tl@UModSys@@U?$TComparerBinaryHash@D@234@@tl@UModSys@@USCacheElem@RLibraryBinCache@stdlib@media@modules@3@@tl@UModSys@@QEAA@XZ 0000000140004590 f i umodsys_lib_libmedia:umodsys.mod.media.stdlib.obj
 0001:000035d0       ??1?$TPair@U?$TString@U?$TSCoreConst@D@su@tl@UModSys@@U?$TComparerBinaryHash@D@234@@tl@UModSys@@USCacheElem@RLibraryObjCache@stdlib@media@modules@3@@tl@UModSys@@QEAA@XZ 00000001400045d0 f i umodsys_lib_libmedia:umodsys.mod.media.stdlib.obj
 0001:00003610       ??1?$TPair@USId@RLibraryObjFilter@stdlib@media@modules@UModSys@@USFilter@23456@@tl@UModSys@@QEAA@XZ 0000000140004610 f i umodsys_lib_libmedia:umodsys.mod.media.stdlib.obj
 0001:00003640       ??1SMountInfo@RLibraryBinTree@stdlib@media@modules@UModSys@@QEAA@XZ 0000000140004640 f i umodsys_lib_libmedia:umodsys.mod.media.stdlib.obj
 0001:00003680       ??1SCacheElem@RLibraryBinCache@stdlib@media@modules@UModSys@@QEAA@XZ 0000000140004680 f i umodsys_lib_libmedia:umodsys.mod.media.stdlib.obj
 0001:000036c0       ??1SCacheElem@RLibraryObjCache@stdlib@media@modules@UModSys@@QEAA@XZ 00000001400046c0 f i umodsys_lib_libmedia:umodsys.mod.media.stdlib.obj
 0001:00003700       ?ResizeRel@?$TDynarray@U?$TDynarrayHolderDynamic@EU?$TAllocator@USIMemAlloc@core@UModSys@@USCountCalcPower2@23@@tl@UModSys@@@tl@UModSys@@@tl@UModSys@@QEAA_N_J@Z 0000000140004700 f i umodsys_lib_libmedia:umodsys.mod.media.stdlib.obj
 0001:000037c0       ?ResizeRel@?$TDynarray@U?$TDynarrayHolderDynamic@UBuffer@RUtilities@stdlib@media@modules@UModSys@@U?$TAllocator@USIMemAlloc@core@UModSys@@USCountCalcPower2@23@@tl@6@@tl@UModSys@@@tl@UModSys@@QEAA_N_J@Z 00000001400047c0 f i umodsys_lib_libmedia:umodsys.mod.media.stdlib.obj
 0001:000038c0       ?remove_color@?$TTreeHoldRB@UNameNode@IBinArchiveFrame@libmedia@UModSys@@@tl@UModSys@@IEAAXPEAUNameNode@IBinArchiveFrame@libmedia@3@0@Z 00000001400048c0 f i umodsys_lib_libmedia:umodsys.mod.media.stdlib.obj
 0001:000038c0       ?remove_color@?$TTreeHoldRB@U?$TScatterArrayNode@USMountInfo@RLibraryBinTree@stdlib@media@modules@UModSys@@USId@ILibraryBinTree@libmedia@6@@tl@UModSys@@@tl@UModSys@@IEAAXPEAU?$TScatterArrayNode@USMountInfo@RLibraryBinTree@stdlib@media@modules@UModSys@@USId@ILibraryBinTree@libmedia@6@@23@0@Z 00000001400048c0 f i umodsys_lib_libmedia:umodsys.mod.media.stdlib.obj
 0001:000038c0       ?remove_color@?$TTreeHoldRB@U?$TScatterArrayNode@USCacheElem@RLibraryBinCache@stdlib@media@modules@UModSys@@U?$TString@U?$TSCoreConst@D@su@tl@UModSys@@U?$TComparerBinaryHash@D@234@@tl@6@@tl@UModSys@@@tl@UModSys@@IEAAXPEAU?$TScatterArrayNode@USCacheElem@RLibraryBinCache@stdlib@media@modules@UModSys@@U?$TString@U?$TSCoreConst@D@su@tl@UModSys@@U?$TComparerBinaryHash@D@234@@tl@6@@23@0@Z 00000001400048c0 f i umodsys_lib_libmedia:umodsys.mod.media.stdlib.obj
 0001:000038c0       ?remove_color@?$TTreeHoldRB@U?$TScatterArrayNode@USFilter@RLibraryObjFilter@stdlib@media@modules@UModSys@@USId@23456@@tl@UModSys@@@tl@UModSys@@IEAAXPEAU?$TScatterArrayNode@USFilter@RLibraryObjFilter@stdlib@media@modules@UModSys@@USId@23456@@23@0@Z 00000001400048c0 f i umodsys_lib_libmedia:umodsys.mod.media.stdlib.obj
 0001:000038c0       ?remove_color@?$TTreeHoldRB@U?$TScatterArrayNode@USCacheElem@RLibraryObjCache@stdlib@media@modules@UModSys@@U?$TString@U?$TSCoreConst@D@su@tl@UModSys@@U?$TComparerBinaryHash@D@234@@tl@6@@tl@UModSys@@@tl@UModSys@@IEAAXPEAU?$TScatterArrayNode@USCacheElem@RLibraryObjCache@stdlib@media@modules@UModSys@@U?$TString@U?$TSCoreConst@D@su@tl@UModSys@@U?$TComparerBinaryHash@D@234@@tl@6@@23@0@Z 00000001400048c0 f i umodsys_lib_libmedia:umodsys.mod.media.stdlib.obj
 0001:00003b80       ??$new_node@U?$TString@U?$TSCoreConst@D@su@tl@UModSys@@U?$TComparerUtfNocaseHash@D@234@@tl@UModSys@@@RBinArchiveFrame@stdlib@media@modules@UModSys@@SAPEAUNameNode@IBinArchiveFrame@libmedia@4@AEBU?$TString@U?$TSCoreConst@D@su@tl@UModSys@@U?$TComparerUtfNocaseHash@D@234@@tl@4@HPEAUSMem@core@4@@Z 0000000140004b80 f i umodsys_lib_libmedia:umodsys.mod.media.stdlib.obj
 0001:00003c80       ??$new_node@U?$TString@U?$TSCoreConst@D@su@tl@UModSys@@U?$TComparerBinaryHash@D@234@@tl@UModSys@@@RBinArchiveFrame@stdlib@media@modules@UModSys@@SAPEAUNameNode@IBinArchiveFrame@libmedia@4@AEBU?$TString@U?$TSCoreConst@D@su@tl@UModSys@@U?$TComparerBinaryHash@D@234@@tl@4@HPEAUSMem@core@4@@Z 0000000140004c80 f i umodsys_lib_libmedia:umodsys.mod.media.stdlib.obj
 0001:00003d80       ?ResizeRel@?$TDynarray@U?$TDynarrayHolderDynamic@USLayerX@RLibraryLayered@stdlib@media@modules@UModSys@@U?$TAllocator@USIMemAlloc@core@UModSys@@USCountCalcPower2@23@@tl@6@@tl@UModSys@@@tl@UModSys@@QEAA_N_J@Z 0000000140004d80 f i umodsys_lib_libmedia:umodsys.mod.media.stdlib.obj
 0001:00003e10       ?InsertAt@?$TDynarray@U?$TDynarrayHolderDynamic@USLayerX@RLibraryLayered@stdlib@media@modules@UModSys@@U?$TAllocator@USIMemAlloc@core@UModSys@@USCountCalcPower2@23@@tl@6@@tl@UModSys@@@tl@UModSys@@QEAA_N_K0@Z 0000000140004e10 f i umodsys_lib_libmedia:umodsys.mod.media.stdlib.obj
 0001:00003ea0       ??$wildcmp@D@su@tl@UModSys@@YA_NPEBD0@Z 0000000140004ea0 f i umodsys_lib_libmedia:umodsys.mod.media.stdlib.obj
 0001:00003f40       ??$remove_seq@P6A_NPEAUNameNode@IBinArchiveFrame@libmedia@UModSys@@@Z@?$TTreeHoldRB@UNameNode@IBinArchiveFrame@libmedia@UModSys@@@tl@UModSys@@QEAAHP6A_NPEAUNameNode@IBinArchiveFrame@libmedia@2@@Z@Z 0000000140004f40 f i umodsys_lib_libmedia:umodsys.mod.media.stdlib.obj
 0001:00004010       ??$gen_node@UNameNodeCmpUC@IBinArchiveFrame@libmedia@UModSys@@UNN_Add@RBinArchiveFrame@stdlib@media@modules@4@@?$TTreeHoldRB@UNameNode@IBinArchiveFrame@libmedia@UModSys@@@tl@UModSys@@QEAAPEAUNameNode@IBinArchiveFrame@libmedia@2@UNameNodeCmpUC@452@AEBUNN_Add@RBinArchiveFrame@stdlib@media@modules@2@PEAPEAU3452@2_N@Z 0000000140005010 f i umodsys_lib_libmedia:umodsys.mod.media.stdlib.obj
 0001:00004140       ??$find_node_u@UNameNodeCmpUC@IBinArchiveFrame@libmedia@UModSys@@@?$TTreeHoldRB@UNameNode@IBinArchiveFrame@libmedia@UModSys@@@tl@UModSys@@QEBAPEAUNameNode@IBinArchiveFrame@libmedia@2@UNameNodeCmpUC@452@@Z 0000000140005140 f i umodsys_lib_libmedia:umodsys.mod.media.stdlib.obj
 0001:000041f0       ??$find_node_u@UNameNodeCmpC@IBinArchiveFrame@libmedia@UModSys@@@?$TTreeHoldRB@UNameNode@IBinArchiveFrame@libmedia@UModSys@@@tl@UModSys@@QEBAPEAUNameNode@IBinArchiveFrame@libmedia@2@UNameNodeCmpC@452@@Z 00000001400051f0 f i umodsys_lib_libmedia:umodsys.mod.media.stdlib.obj
 0001:000042a0       ??$genx_node@UCmp@?$TScatterArray@USMountInfo@RLibraryBinTree@stdlib@media@modules@UModSys@@USId@ILibraryBinTree@libmedia@6@U7896@U?$TNodeDeleter0@U?$TScatterArrayNode@USMountInfo@RLibraryBinTree@stdlib@media@modules@UModSys@@USId@ILibraryBinTree@libmedia@6@@tl@UModSys@@@tl@6@@tl@UModSys@@UGen0@234@@?$TTreeHoldRBD@U?$TScatterArrayNode@USMountInfo@RLibraryBinTree@stdlib@media@modules@UModSys@@USId@ILibraryBinTree@libmedia@6@@tl@UModSys@@U?$TNodeDeleter0@U?$TScatterArrayNode@USMountInfo@RLibraryBinTree@stdlib@media@modules@UModSys@@USId@ILibraryBinTree@libmedia@6@@tl@UModSys@@@23@@tl@UModSys@@QEAAPEAU?$TScatterArrayNode@USMountInfo@RLibraryBinTree@stdlib@media@modules@UModSys@@USId@ILibraryBinTree@libmedia@6@@12@UCmp@?$TScatterArray@USMountInfo@RLibraryBinTree@stdlib@media@modules@UModSys@@USId@ILibraryBinTree@libmedia@6@U7896@U?$TNodeDeleter0@U?$TScatterArrayNode@USMountInfo@RLibraryBinTree@stdlib@media@modules@UModSys@@USId@ILibraryBinTree@libmedia@6@@tl@UModSys@@@tl@6@@12@AEBUGen0@512@PEAPEAU312@2_N@Z 00000001400052a0 f i umodsys_lib_libmedia:umodsys.mod.media.stdlib.obj
 0001:00004440       ??$find_node_u@UCmp@?$TScatterArray@USMountInfo@RLibraryBinTree@stdlib@media@modules@UModSys@@USId@ILibraryBinTree@libmedia@6@U7896@U?$TNodeDeleter0@U?$TScatterArrayNode@USMountInfo@RLibraryBinTree@stdlib@media@modules@UModSys@@USId@ILibraryBinTree@libmedia@6@@tl@UModSys@@@tl@6@@tl@UModSys@@@?$TTreeHoldRB@U?$TScatterArrayNode@USMountInfo@RLibraryBinTree@stdlib@media@modules@UModSys@@USId@ILibraryBinTree@libmedia@6@@tl@UModSys@@@tl@UModSys@@QEBAPEAU?$TScatterArrayNode@USMountInfo@RLibraryBinTree@stdlib@media@modules@UModSys@@USId@ILibraryBinTree@libmedia@6@@12@UCmp@?$TScatterArray@USMountInfo@RLibraryBinTree@stdlib@media@modules@UModSys@@USId@ILibraryBinTree@libmedia@6@U7896@U?$TNodeDeleter0@U?$TScatterArrayNode@USMountInfo@RLibraryBinTree@stdlib@media@modules@UModSys@@USId@ILibraryBinTree@libmedia@6@@tl@UModSys@@@tl@6@@12@@Z 0000000140005440 f i umodsys_lib_libmedia:umodsys.mod.media.stdlib.obj
 0001:00004520       ??$genx_node@UCmp@?$TScatterArray@USCacheElem@RLibraryBinCache@stdlib@media@modules@UModSys@@U?$TString@U?$TSCoreConst@D@su@tl@UModSys@@U?$TComparerBinaryHash@D@234@@tl@6@U?$TObjectCompare@U?$TString@U?$TSCoreConst@D@su@tl@UModSys@@U?$TComparerBinaryHash@D@234@@tl@UModSys@@@core@6@U?$TNodeDeleter0@U?$TScatterArrayNode@USCacheElem@RLibraryBinCache@stdlib@media@modules@UModSys@@U?$TString@U?$TSCoreConst@D@su@tl@UModSys@@U?$TComparerBinaryHash@D@234@@tl@6@@tl@UModSys@@@86@@tl@UModSys@@UGen0@234@@?$TTreeHoldRBD@U?$TScatterArrayNode@USCacheElem@RLibraryBinCache@stdlib@media@modules@UModSys@@U?$TString@U?$TSCoreConst@D@su@tl@UModSys@@U?$TComparerBinaryHash@D@234@@tl@6@@tl@UModSys@@U?$TNodeDeleter0@U?$TScatterArrayNode@USCacheElem@RLibraryBinCache@stdlib@media@modules@UModSys@@U?$TString@U?$TSCoreConst@D@su@tl@UModSys@@U?$TComparerBinaryHash@D@234@@tl@6@@tl@UModSys@@@23@@tl@UModSys@@QEAAPEAU?$TScatterArrayNode@USCacheElem@RLibraryBinCache@stdlib@media@modules@UModSys@@U?$TString@U?$TSCoreConst@D@su@tl@UModSys@@U?$TComparerBinaryHash@D@234@@tl@6@@12@UCmp@?$TScatterArray@USCacheElem@RLibraryBinCache@stdlib@media@modules@UModSys@@U?$TString@U?$TSCoreConst@D@su@tl@UModSys@@U?$TComparerBinaryHash@D@234@@tl@6@U?$TObjectCompare@U?$TString@U?$TSCoreConst@D@su@tl@UModSys@@U?$TComparerBinaryHash@D@234@@tl@UModSys@@@core@6@U?$TNodeDeleter0@U?$TScatterArrayNode@USCacheElem@RLibraryBinCache@stdlib@media@modules@UModSys@@U?$TString@U?$TSCoreConst@D@su@tl@UModSys@@U?$TComparerBinaryHash@D@234@@tl@6@@tl@UModSys@@@86@@12@AEBUGen0@512@PEAPEAU312@2_N@Z 0000000140005520 f i umodsys_lib_libmedia:umodsys.mod.media.stdlib.obj
 0001:000046a0       ??$genx_node@UCmp@?$TScatterArray@USCacheElem@RLibraryObjCache@stdlib@media@modules@UModSys@@U?$TString@U?$TSCoreConst@D@su@tl@UModSys@@U?$TComparerBinaryHash@D@234@@tl@6@U?$TObjectCompare@U?$TString@U?$TSCoreConst@D@su@tl@UModSys@@U?$TComparerBinaryHash@D@234@@tl@UModSys@@@core@6@U?$TNodeDeleter0@U?$TScatterArrayNode@USCacheElem@RLibraryObjCache@stdlib@media@modules@UModSys@@U?$TString@U?$TSCoreConst@D@su@tl@UModSys@@U?$TComparerBinaryHash@D@234@@tl@6@@tl@UModSys@@@86@@tl@UModSys@@UGen0@234@@?$TTreeHoldRBD@U?$TScatterArrayNode@USCacheElem@RLibraryObjCache@stdlib@media@modules@UModSys@@U?$TString@U?$TSCoreConst@D@su@tl@UModSys@@U?$TComparerBinaryHash@D@234@@tl@6@@tl@UModSys@@U?$TNodeDeleter0@U?$TScatterArrayNode@USCacheElem@RLibraryObjCache@stdlib@media@modules@UModSys@@U?$TString@U?$TSCoreConst@D@su@tl@UModSys@@U?$TComparerBinaryHash@D@234@@tl@6@@tl@UModSys@@@23@@tl@UModSys@@QEAAPEAU?$TScatterArrayNode@USCacheElem@RLibraryObjCache@stdlib@media@modules@UModSys@@U?$TString@U?$TSCoreConst@D@su@tl@UModSys@@U?$TComparerBinaryHash@D@234@@tl@6@@12@UCmp@?$TScatterArray@USCacheElem@RLibraryObjCache@stdlib@media@modules@UModSys@@U?$TString@U?$TSCoreConst@D@su@tl@UModSys@@U?$TComparerBinaryHash@D@234@@tl@6@U?$TObjectCompare@U?$TString@U?$TSCoreConst@D@su@tl@UModSys@@U?$TComparerBinaryHash@D@234@@tl@UModSys@@@core@6@U?$TNodeDeleter0@U?$TScatterArrayNode@USCacheElem@RLibraryObjCache@stdlib@media@modules@UModSys@@U?$TString@U?$TSCoreConst@D@su@tl@UModSys@@U?$TComparerBinaryHash@D@234@@tl@6@@tl@UModSys@@@86@@12@AEBUGen0@512@PEAPEAU312@2_N@Z 00000001400056a0 f i umodsys_lib_libmedia:umodsys.mod.media.stdlib.obj
 0001:00004820       ??$find_node_u@UCmp@?$TScatterArray@USCacheElem@RLibraryObjCache@stdlib@media@modules@UModSys@@U?$TString@U?$TSCoreConst@D@su@tl@UModSys@@U?$TComparerBinaryHash@D@234@@tl@6@U?$TObjectCompare@U?$TString@U?$TSCoreConst@D@su@tl@UModSys@@U?$TComparerBinaryHash@D@234@@tl@UModSys@@@core@6@U?$TNodeDeleter0@U?$TScatterArrayNode@USCacheElem@RLibraryObjCache@stdlib@media@modules@UModSys@@U?$TString@U?$TSCoreConst@D@su@tl@UModSys@@U?$TComparerBinaryHash@D@234@@tl@6@@tl@UModSys@@@86@@tl@UModSys@@@?$TTreeHoldRB@U?$TScatterArrayNode@USCacheElem@RLibraryObjCache@stdlib@media@modules@UModSys@@U?$TString@U?$TSCoreConst@D@su@tl@UModSys@@U?$TComparerBinaryHash@D@234@@tl@6@@tl@UModSys@@@tl@UModSys@@QEBAPEAU?$TScatterArrayNode@USCacheElem@RLibraryObjCache@stdlib@media@modules@UModSys@@U?$TString@U?$TSCoreConst@D@su@tl@UModSys@@U?$TComparerBinaryHash@D@234@@tl@6@@12@UCmp@?$TScatterArray@USCacheElem@RLibraryObjCache@stdlib@media@modules@UModSys@@U?$TString@U?$TSCoreConst@D@su@tl@UModSys@@U?$TComparerBinaryHash@D@234@@tl@6@U?$TObjectCompare@U?$TString@U?$TSCoreConst@D@su@tl@UModSys@@U?$TComparerBinaryHash@D@234@@tl@UModSys@@@core@6@U?$TNodeDeleter0@U?$TScatterArrayNode@USCacheElem@RLibraryObjCache@stdlib@media@modules@UModSys@@U?$TString@U?$TSCoreConst@D@su@tl@UModSys@@U?$TComparerBinaryHash@D@234@@tl@6@@tl@UModSys@@@86@@12@@Z 0000000140005820 f i umodsys_lib_libmedia:umodsys.mod.media.stdlib.obj
 0001:00004820       ??$find_node_u@UCmp@?$TScatterArray@USCacheElem@RLibraryBinCache@stdlib@media@modules@UModSys@@U?$TString@U?$TSCoreConst@D@su@tl@UModSys@@U?$TComparerBinaryHash@D@234@@tl@6@U?$TObjectCompare@U?$TString@U?$TSCoreConst@D@su@tl@UModSys@@U?$TComparerBinaryHash@D@234@@tl@UModSys@@@core@6@U?$TNodeDeleter0@U?$TScatterArrayNode@USCacheElem@RLibraryBinCache@stdlib@media@modules@UModSys@@U?$TString@U?$TSCoreConst@D@su@tl@UModSys@@U?$TComparerBinaryHash@D@234@@tl@6@@tl@UModSys@@@86@@tl@UModSys@@@?$TTreeHoldRB@U?$TScatterArrayNode@USCacheElem@RLibraryBinCache@stdlib@media@modules@UModSys@@U?$TString@U?$TSCoreConst@D@su@tl@UModSys@@U?$TComparerBinaryHash@D@234@@tl@6@@tl@UModSys@@@tl@UModSys@@QEBAPEAU?$TScatterArrayNode@USCacheElem@RLibraryBinCache@stdlib@media@modules@UModSys@@U?$TString@U?$TSCoreConst@D@su@tl@UModSys@@U?$TComparerBinaryHash@D@234@@tl@6@@12@UCmp@?$TScatterArray@USCacheElem@RLibraryBinCache@stdlib@media@modules@UModSys@@U?$TString@U?$TSCoreConst@D@su@tl@UModSys@@U?$TComparerBinaryHash@D@234@@tl@6@U?$TObjectCompare@U?$TString@U?$TSCoreConst@D@su@tl@UModSys@@U?$TComparerBinaryHash@D@234@@tl@UModSys@@@core@6@U?$TNodeDeleter0@U?$TScatterArrayNode@USCacheElem@RLibraryBinCache@stdlib@media@modules@UModSys@@U?$TString@U?$TSCoreConst@D@su@tl@UModSys@@U?$TComparerBinaryHash@D@234@@tl@6@@tl@UModSys@@@86@@12@@Z 0000000140005820 f i umodsys_lib_libmedia:umodsys.mod.media.stdlib.obj
 0001:000048e0       ??$genx_node@UCmp@?$TScatterArray@USFilter@RLibraryObjFilter@stdlib@media@modules@UModSys@@USId@23456@U723456@U?$TNodeDeleter0@U?$TScatterArrayNode@USFilter@RLibraryObjFilter@stdlib@media@modules@UModSys@@USId@23456@@tl@UModSys@@@tl@6@@tl@UModSys@@UGen0@234@@?$TTreeHoldRBD@U?$TScatterArrayNode@USFilter@RLibraryObjFilter@stdlib@media@modules@UModSys@@USId@23456@@tl@UModSys@@U?$TNodeDeleter0@U?$TScatterArrayNode@USFilter@RLibraryObjFilter@stdlib@media@modules@UModSys@@USId@23456@@tl@UModSys@@@23@@tl@UModSys@@QEAAPEAU?$TScatterArrayNode@USFilter@RLibraryObjFilter@stdlib@media@modules@UModSys@@USId@23456@@12@UCmp@?$TScatterArray@USFilter@RLibraryObjFilter@stdlib@media@modules@UModSys@@USId@23456@U723456@U?$TNodeDeleter0@U?$TScatterArrayNode@USFilter@RLibraryObjFilter@stdlib@media@modules@UModSys@@USId@23456@@tl@UModSys@@@tl@6@@12@AEBUGen0@512@PEAPEAU312@2_N@Z 00000001400058e0 f i umodsys_lib_libmedia:umodsys.mod.media.stdlib.obj
 0001:00004a40       ??$process_nodes@U?$TNodeDeleter0@UNameNode@IBinArchiveFrame@libmedia@UModSys@@@tl@UModSys@@@?$TTreeHoldRB@UNameNode@IBinArchiveFrame@libmedia@UModSys@@@tl@UModSys@@QEAAHAEBU?$TNodeDeleter0@UNameNode@IBinArchiveFrame@libmedia@UModSys@@@12@@Z 0000000140005a40 f i umodsys_lib_libmedia:umodsys.mod.media.stdlib.obj
 0001:00004ac0       ?sub_insert_node@?$TTreeHoldRB@UNameNode@IBinArchiveFrame@libmedia@UModSys@@@tl@UModSys@@QEAAXPEAUNameNode@IBinArchiveFrame@libmedia@3@0H@Z 0000000140005ac0 f i umodsys_lib_libmedia:umodsys.mod.media.stdlib.obj
 0001:00004b40       ?ReLink@?$TDynarray@U?$TDynarrayHolderDynamic@USLayerX@RLibraryLayered@stdlib@media@modules@UModSys@@U?$TAllocator@USIMemAlloc@core@UModSys@@USCountCalcPower2@23@@tl@6@@tl@UModSys@@@tl@UModSys@@IEAA_N_K@Z 0000000140005b40 f i umodsys_lib_libmedia:umodsys.mod.media.stdlib.obj
 0001:00004bb0       ?items_destruct@?$TDynarray@U?$TDynarrayHolderDynamic@USLayerX@RLibraryLayered@stdlib@media@modules@UModSys@@U?$TAllocator@USIMemAlloc@core@UModSys@@USCountCalcPower2@23@@tl@6@@tl@UModSys@@@tl@UModSys@@IEAAX_K0@Z 0000000140005bb0 f i umodsys_lib_libmedia:umodsys.mod.media.stdlib.obj
 0001:00004c30       ?amoveright@?$TTypeConstructor@USLayerX@RLibraryLayered@stdlib@media@modules@UModSys@@@tl@UModSys@@SAXPEAUSLayerX@RLibraryLayered@stdlib@media@modules@3@_K11@Z 0000000140005c30 f i umodsys_lib_libmedia:umodsys.mod.media.stdlib.obj
 0001:00004d80       ?amoveleft@?$TTypeConstructor@USLayerX@RLibraryLayered@stdlib@media@modules@UModSys@@@tl@UModSys@@SAXPEAUSLayerX@RLibraryLayered@stdlib@media@modules@3@_K11@Z 0000000140005d80 f i umodsys_lib_libmedia:umodsys.mod.media.stdlib.obj
 0001:00004ed0       ??0?$TScatterArrayNode@USMountInfo@RLibraryBinTree@stdlib@media@modules@UModSys@@USId@ILibraryBinTree@libmedia@6@@tl@UModSys@@QEAA@AEBUSId@ILibraryBinTree@libmedia@2@@Z 0000000140005ed0 f i umodsys_lib_libmedia:umodsys.mod.media.stdlib.obj
 0001:00004fa0       ??0?$TScatterArrayNode@USCacheElem@RLibraryBinCache@stdlib@media@modules@UModSys@@U?$TString@U?$TSCoreConst@D@su@tl@UModSys@@U?$TComparerBinaryHash@D@234@@tl@6@@tl@UModSys@@QEAA@AEBU?$TString@U?$TSCoreConst@D@su@tl@UModSys@@U?$TComparerBinaryHash@D@234@@12@@Z 0000000140005fa0 f i umodsys_lib_libmedia:umodsys.mod.media.stdlib.obj
 0001:000050e0       ??0?$TScatterArrayNode@USCacheElem@RLibraryObjCache@stdlib@media@modules@UModSys@@U?$TString@U?$TSCoreConst@D@su@tl@UModSys@@U?$TComparerBinaryHash@D@234@@tl@6@@tl@UModSys@@QEAA@AEBU?$TString@U?$TSCoreConst@D@su@tl@UModSys@@U?$TComparerBinaryHash@D@234@@12@@Z 00000001400060e0 f i umodsys_lib_libmedia:umodsys.mod.media.stdlib.obj
 0001:00005220       ?aconstruct@?$TTypeConstructor@USLayerX@RLibraryLayered@stdlib@media@modules@UModSys@@@tl@UModSys@@SAXPEAUSLayerX@RLibraryLayered@stdlib@media@modules@3@_K@Z 0000000140006220 f i umodsys_lib_libmedia:umodsys.mod.media.stdlib.obj
 0001:00005300       ?adestruct@?$TTypeConstructor@UBuffer@RUtilities@stdlib@media@modules@UModSys@@@tl@UModSys@@SAXPEAUBuffer@RUtilities@stdlib@media@modules@3@_K@Z 0000000140006300 f i umodsys_lib_libmedia:umodsys.mod.media.stdlib.obj
 0001:000053b0       ??0?$TSCoreShared@USIMemAlloc@core@UModSys@@D@su@tl@UModSys@@QEAA@AEBU0123@@Z 00000001400063b0 f i umodsys_lib_libmedia:umodsys.mod.media.stdlib.obj
 0001:00005440       ??0?$TPair@USId@ILibraryBinTree@libmedia@UModSys@@USMountInfo@RLibraryBinTree@stdlib@media@modules@4@@tl@UModSys@@QEAA@AEBUSId@ILibraryBinTree@libmedia@2@AEBUSMountInfo@RLibraryBinTree@stdlib@media@modules@2@@Z 0000000140006440 f i umodsys_lib_libmedia:umodsys.mod.media.stdlib.obj
 0001:000054e0       ??0?$TPair@U?$TString@U?$TSCoreConst@D@su@tl@UModSys@@U?$TComparerBinaryHash@D@234@@tl@UModSys@@USCacheElem@RLibraryBinCache@stdlib@media@modules@3@@tl@UModSys@@QEAA@AEBU?$TString@U?$TSCoreConst@D@su@tl@UModSys@@U?$TComparerBinaryHash@D@234@@12@AEBUSCacheElem@RLibraryBinCache@stdlib@media@modules@2@@Z 00000001400064e0 f i umodsys_lib_libmedia:umodsys.mod.media.stdlib.obj
 0001:00005570       ??0?$TPair@U?$TString@U?$TSCoreConst@D@su@tl@UModSys@@U?$TComparerBinaryHash@D@234@@tl@UModSys@@USCacheElem@RLibraryObjCache@stdlib@media@modules@3@@tl@UModSys@@QEAA@AEBU?$TString@U?$TSCoreConst@D@su@tl@UModSys@@U?$TComparerBinaryHash@D@234@@12@AEBUSCacheElem@RLibraryObjCache@stdlib@media@modules@2@@Z 0000000140006570 f i umodsys_lib_libmedia:umodsys.mod.media.stdlib.obj
 0001:00005610       ?s_init@?$TRefObjectFunc@UIRefObject@core@UModSys@@@tl@UModSys@@SAXAEAPEAUIRefObject@core@3@PEAU453@@Z 0000000140006610 f i umodsys_lib_libmedia:umodsys.mod.media.stdlib.obj
 0001:00005650       ?insert_color@?$TTreeHoldRB@U?$TQuantArrayNode@USUniquePointerInfo@core@UModSys@@$0BAA@@tl@UModSys@@@tl@UModSys@@IEAAXPEAU?$TQuantArrayNode@USUniquePointerInfo@core@UModSys@@$0BAA@@23@@Z 0000000140006650 f i umodsys_lib_basesys:umodsys.basesys.rsystem.obj
 0001:00005650       ?insert_color@?$TTreeHoldRB@U?$TScatterArrayNode@USCacheElem@RLibraryObjCache@stdlib@media@modules@UModSys@@U?$TString@U?$TSCoreConst@D@su@tl@UModSys@@U?$TComparerBinaryHash@D@234@@tl@6@@tl@UModSys@@@tl@UModSys@@IEAAXPEAU?$TScatterArrayNode@USCacheElem@RLibraryObjCache@stdlib@media@modules@UModSys@@U?$TString@U?$TSCoreConst@D@su@tl@UModSys@@U?$TComparerBinaryHash@D@234@@tl@6@@23@@Z 0000000140006650 f i umodsys_lib_libmedia:umodsys.mod.media.stdlib.obj
 0001:00005650       ?insert_color@?$TTreeHoldRB@U?$TQuantArrayNode@USSourceContext@core@UModSys@@$0BAA@@tl@UModSys@@@tl@UModSys@@IEAAXPEAU?$TQuantArrayNode@USSourceContext@core@UModSys@@$0BAA@@23@@Z 0000000140006650 f i umodsys_lib_basesys:umodsys.basesys.rsystem.obj
 0001:00005650       ?insert_color@?$TTreeHoldRB@UNameNode@IBinArchiveFrame@libmedia@UModSys@@@tl@UModSys@@IEAAXPEAUNameNode@IBinArchiveFrame@libmedia@3@@Z 0000000140006650 f i umodsys_lib_libmedia:umodsys.mod.media.stdlib.obj
 0001:00005650       ?insert_color@?$TTreeHoldRB@U?$TScatterArrayNode@USMountInfo@RLibraryBinTree@stdlib@media@modules@UModSys@@USId@ILibraryBinTree@libmedia@6@@tl@UModSys@@@tl@UModSys@@IEAAXPEAU?$TScatterArrayNode@USMountInfo@RLibraryBinTree@stdlib@media@modules@UModSys@@USId@ILibraryBinTree@libmedia@6@@23@@Z 0000000140006650 f i umodsys_lib_libmedia:umodsys.mod.media.stdlib.obj
 0001:00005650       ?insert_color@?$TTreeHoldRB@U?$TScatterArrayNode@USCacheElem@RLibraryBinCache@stdlib@media@modules@UModSys@@U?$TString@U?$TSCoreConst@D@su@tl@UModSys@@U?$TComparerBinaryHash@D@234@@tl@6@@tl@UModSys@@@tl@UModSys@@IEAAXPEAU?$TScatterArrayNode@USCacheElem@RLibraryBinCache@stdlib@media@modules@UModSys@@U?$TString@U?$TSCoreConst@D@su@tl@UModSys@@U?$TComparerBinaryHash@D@234@@tl@6@@23@@Z 0000000140006650 f i umodsys_lib_libmedia:umodsys.mod.media.stdlib.obj
 0001:00005650       ?insert_color@?$TTreeHoldRB@U?$TScatterArrayNode@USFilter@RLibraryObjFilter@stdlib@media@modules@UModSys@@USId@23456@@tl@UModSys@@@tl@UModSys@@IEAAXPEAU?$TScatterArrayNode@USFilter@RLibraryObjFilter@stdlib@media@modules@UModSys@@USId@23456@@23@@Z 0000000140006650 f i umodsys_lib_libmedia:umodsys.mod.media.stdlib.obj
 0001:00005800       ??$ValidateConstruction@UIRefObject@core@UModSys@@URLibraryBinCache@stdlib@media@modules@3@@core@UModSys@@YA_NAEAU?$TRefObject@UIRefObject@core@UModSys@@U?$TRefObjectFunc@UIRefObject@core@UModSys@@@tl@3@@tl@1@PEAURLibraryBinCache@stdlib@media@modules@1@@Z 0000000140006800 f i umodsys_lib_libmedia:umodsys.mod.media.stdlib.obj
 0001:00005800       ??$ValidateConstruction@UIRefObject@core@UModSys@@URLibraryBinTree@stdlib@media@modules@3@@core@UModSys@@YA_NAEAU?$TRefObject@UIRefObject@core@UModSys@@U?$TRefObjectFunc@UIRefObject@core@UModSys@@@tl@3@@tl@1@PEAURLibraryBinTree@stdlib@media@modules@1@@Z 0000000140006800 f i umodsys_lib_libmedia:umodsys.mod.media.stdlib.obj
 0001:00005800       ??$ValidateConstruction@UIRefObject@core@UModSys@@URLibraryLayered@stdlib@media@modules@3@@core@UModSys@@YA_NAEAU?$TRefObject@UIRefObject@core@UModSys@@U?$TRefObjectFunc@UIRefObject@core@UModSys@@@tl@3@@tl@1@PEAURLibraryLayered@stdlib@media@modules@1@@Z 0000000140006800 f i umodsys_lib_libmedia:umodsys.mod.media.stdlib.obj
 0001:00005800       ??$ValidateConstruction@UIRefObject@core@UModSys@@URDataArchiver_OsDir@stdio@media@modules@3@@core@UModSys@@YA_NAEAU?$TRefObject@UIRefObject@core@UModSys@@U?$TRefObjectFunc@UIRefObject@core@UModSys@@@tl@3@@tl@1@PEAURDataArchiver_OsDir@stdio@media@modules@1@@Z 0000000140006800 f i umodsys_lib_libmedia:umodsys.mod.media.stdio.obj
 0001:00005800       ??$ValidateConstruction@UIRefObject@core@UModSys@@URLibraryObjCache@stdlib@media@modules@3@@core@UModSys@@YA_NAEAU?$TRefObject@UIRefObject@core@UModSys@@U?$TRefObjectFunc@UIRefObject@core@UModSys@@@tl@3@@tl@1@PEAURLibraryObjCache@stdlib@media@modules@1@@Z 0000000140006800 f i umodsys_lib_libmedia:umodsys.mod.media.stdlib.obj
 0001:00005800       ??$ValidateConstruction@UIRefObject@core@UModSys@@URUtilities@stdlib@media@modules@3@@core@UModSys@@YA_NAEAU?$TRefObject@UIRefObject@core@UModSys@@U?$TRefObjectFunc@UIRefObject@core@UModSys@@@tl@3@@tl@1@PEAURUtilities@stdlib@media@modules@1@@Z 0000000140006800 f i umodsys_lib_libmedia:umodsys.mod.media.stdlib.obj
 0001:00005800       ??$ValidateConstruction@UIRefObject@core@UModSys@@URLibraryObjFilter@stdlib@media@modules@3@@core@UModSys@@YA_NAEAU?$TRefObject@UIRefObject@core@UModSys@@U?$TRefObjectFunc@UIRefObject@core@UModSys@@@tl@3@@tl@1@PEAURLibraryObjFilter@stdlib@media@modules@1@@Z 0000000140006800 f i umodsys_lib_libmedia:umodsys.mod.media.stdlib.obj
 0001:00005870       ??$ValidateConstruction@UIRefObject@core@UModSys@@URBinArchiveFrame@stdlib@media@modules@3@@core@UModSys@@YA_NAEAU?$TRefObject@UIRefObject@core@UModSys@@U?$TRefObjectFunc@UIRefObject@core@UModSys@@@tl@3@@tl@1@PEAURBinArchiveFrame@stdlib@media@modules@1@@Z 0000000140006870 f i umodsys_lib_libmedia:umodsys.mod.media.stdlib.obj
 0001:000058f0       ??$is_flag@U?$TFlags4StateShift@USMediaFlagUid@libmedia@UModSys@@I$00@tl@UModSys@@@SFlags@libmedia@UModSys@@QEBA_NPEBUIResolverAuto@012@W4eStates@?$TFlags4State@USMediaFlagUid@libmedia@UModSys@@I@tl@2@@Z 00000001400068f0 f i umodsys_lib_libmedia:umodsys.mod.media.stdlib.obj
 0001:00005980       ??$is_flag@U?$TFlags4StateShift@USMediaFlagUid@libmedia@UModSys@@I$02@tl@UModSys@@@SFlags@libmedia@UModSys@@QEBA_NPEBUIResolverAuto@012@W4eStates@?$TFlags4State@USMediaFlagUid@libmedia@UModSys@@I@tl@2@@Z 0000000140006980 f i umodsys_lib_libmedia:umodsys.mod.media.stdlib.obj
 0001:00005a10       ??$is_flag@U?$TFlags4StateShift@USMediaFlagUid@libmedia@UModSys@@I$03@tl@UModSys@@@SFlags@libmedia@UModSys@@QEBA_NPEBUIResolverAuto@012@W4eStates@?$TFlags4State@USMediaFlagUid@libmedia@UModSys@@I@tl@2@@Z 0000000140006a10 f i umodsys_lib_libmedia:umodsys.mod.media.stdlib.obj
 0001:00005aa0       ??$process_nodes_r@U?$TNodeDeleter0@UNameNode@IBinArchiveFrame@libmedia@UModSys@@@tl@UModSys@@@?$TTreeHoldRB@UNameNode@IBinArchiveFrame@libmedia@UModSys@@@tl@UModSys@@KAHPEAUNameNode@IBinArchiveFrame@libmedia@2@AEBU?$TNodeDeleter0@UNameNode@IBinArchiveFrame@libmedia@UModSys@@@12@@Z 0000000140006aa0 f i umodsys_lib_libmedia:umodsys.mod.media.stdlib.obj
 0001:00005b10       ??$process_nodes_r@U?$TNodeDeleter0@U?$TScatterArrayNode@USMountInfo@RLibraryBinTree@stdlib@media@modules@UModSys@@USId@ILibraryBinTree@libmedia@6@@tl@UModSys@@@tl@UModSys@@@?$TTreeHoldRB@U?$TScatterArrayNode@USMountInfo@RLibraryBinTree@stdlib@media@modules@UModSys@@USId@ILibraryBinTree@libmedia@6@@tl@UModSys@@@tl@UModSys@@KAHPEAU?$TScatterArrayNode@USMountInfo@RLibraryBinTree@stdlib@media@modules@UModSys@@USId@ILibraryBinTree@libmedia@6@@12@AEBU?$TNodeDeleter0@U?$TScatterArrayNode@USMountInfo@RLibraryBinTree@stdlib@media@modules@UModSys@@USId@ILibraryBinTree@libmedia@6@@tl@UModSys@@@12@@Z 0000000140006b10 f i umodsys_lib_libmedia:umodsys.mod.media.stdlib.obj
 0001:00005bb0       ??$process_nodes_r@U?$TNodeDeleter0@U?$TScatterArrayNode@USCacheElem@RLibraryBinCache@stdlib@media@modules@UModSys@@U?$TString@U?$TSCoreConst@D@su@tl@UModSys@@U?$TComparerBinaryHash@D@234@@tl@6@@tl@UModSys@@@tl@UModSys@@@?$TTreeHoldRB@U?$TScatterArrayNode@USCacheElem@RLibraryBinCache@stdlib@media@modules@UModSys@@U?$TString@U?$TSCoreConst@D@su@tl@UModSys@@U?$TComparerBinaryHash@D@234@@tl@6@@tl@UModSys@@@tl@UModSys@@KAHPEAU?$TScatterArrayNode@USCacheElem@RLibraryBinCache@stdlib@media@modules@UModSys@@U?$TString@U?$TSCoreConst@D@su@tl@UModSys@@U?$TComparerBinaryHash@D@234@@tl@6@@12@AEBU?$TNodeDeleter0@U?$TScatterArrayNode@USCacheElem@RLibraryBinCache@stdlib@media@modules@UModSys@@U?$TString@U?$TSCoreConst@D@su@tl@UModSys@@U?$TComparerBinaryHash@D@234@@tl@6@@tl@UModSys@@@12@@Z 0000000140006bb0 f i umodsys_lib_libmedia:umodsys.mod.media.stdlib.obj
 0001:00005c40       ??$process_nodes_r@U?$TNodeDeleter0@U?$TScatterArrayNode@USCacheElem@RLibraryObjCache@stdlib@media@modules@UModSys@@U?$TString@U?$TSCoreConst@D@su@tl@UModSys@@U?$TComparerBinaryHash@D@234@@tl@6@@tl@UModSys@@@tl@UModSys@@@?$TTreeHoldRB@U?$TScatterArrayNode@USCacheElem@RLibraryObjCache@stdlib@media@modules@UModSys@@U?$TString@U?$TSCoreConst@D@su@tl@UModSys@@U?$TComparerBinaryHash@D@234@@tl@6@@tl@UModSys@@@tl@UModSys@@KAHPEAU?$TScatterArrayNode@USCacheElem@RLibraryObjCache@stdlib@media@modules@UModSys@@U?$TString@U?$TSCoreConst@D@su@tl@UModSys@@U?$TComparerBinaryHash@D@234@@tl@6@@12@AEBU?$TNodeDeleter0@U?$TScatterArrayNode@USCacheElem@RLibraryObjCache@stdlib@media@modules@UModSys@@U?$TString@U?$TSCoreConst@D@su@tl@UModSys@@U?$TComparerBinaryHash@D@234@@tl@6@@tl@UModSys@@@12@@Z 0000000140006c40 f i umodsys_lib_libmedia:umodsys.mod.media.stdlib.obj
 0001:00005cd0       ??$process_nodes_r@U?$TNodeDeleter0@U?$TScatterArrayNode@USFilter@RLibraryObjFilter@stdlib@media@modules@UModSys@@USId@23456@@tl@UModSys@@@tl@UModSys@@@?$TTreeHoldRB@U?$TScatterArrayNode@USFilter@RLibraryObjFilter@stdlib@media@modules@UModSys@@USId@23456@@tl@UModSys@@@tl@UModSys@@KAHPEAU?$TScatterArrayNode@USFilter@RLibraryObjFilter@stdlib@media@modules@UModSys@@USId@23456@@12@AEBU?$TNodeDeleter0@U?$TScatterArrayNode@USFilter@RLibraryObjFilter@stdlib@media@modules@UModSys@@USId@23456@@tl@UModSys@@@12@@Z 0000000140006cd0 f i umodsys_lib_libmedia:umodsys.mod.media.stdlib.obj
 0001:00005d50       ??$safe_snprintf@D@syshlp@core@UModSys@@YA_KPEAD_KPEBDZZ 0000000140006d50 f i umodsys_lib_libmedia:umodsys.lib.media.common.obj
 0001:00005d70       ?root_get_interface_info@RConsole_std@rsystem@base@UModSys@@UEBAAEBUSUniquePointerInfo@core@4@XZ 0000000140006d70 f i umodsys_lib_basesys:umodsys.basesys.rconsole_std.obj
 0001:00005d80       ?root_get_interface_type@RConsole_std@rsystem@base@UModSys@@UEBAPEBUSUniquePointerInfo@core@4@XZ 0000000140006d80 f i umodsys_lib_basesys:umodsys.basesys.rconsole_std.obj
 0001:00005d90       ?root_get_other_interface@RConsole_std@rsystem@base@UModSys@@UEBAPEBUIRoot@core@4@PEBUSUniquePointerInfo@64@@Z 0000000140006d90 f i umodsys_lib_basesys:umodsys.basesys.rconsole_std.obj
 0001:00005d90       ?root_get_other_interface@RConsole_std@rsystem@base@UModSys@@UEAAPEAUIRoot@core@4@PEBUSUniquePointerInfo@64@@Z 0000000140006d90 f i umodsys_lib_basesys:umodsys.basesys.rconsole_std.obj
 0001:00005dc0       ?root_is_interface_supported@RConsole_std@rsystem@base@UModSys@@UEBA_NPEBUSUniquePointerInfo@core@4@@Z 0000000140006dc0 f i umodsys_lib_basesys:umodsys.basesys.rconsole_std.obj
 0001:00005df0       ??_GRConsole_std@rsystem@base@UModSys@@UEAAPEAXI@Z 0000000140006df0 f i umodsys_lib_basesys:umodsys.basesys.rconsole_std.obj
 0001:00005df0       ??_ERConsole_std@rsystem@base@UModSys@@UEAAPEAXI@Z 0000000140006df0 f i  CIL library: CIL module
 0001:00005e20       ??_EIConsole@base@UModSys@@UEAAPEAXI@Z 0000000140006e20 f i  CIL library: CIL module
 0001:00005e20       ??_GIConsole@base@UModSys@@UEAAPEAXI@Z 0000000140006e20 f i umodsys_lib_basesys:umodsys.basesys.rconsole_std.obj
 0001:00005e50       ?decode_error@EExceptionBase@core@UModSys@@UEBAHPEAD_K@Z 0000000140006e50 f i umodsys_lib_basesys:umodsys.basesys.rsystem_main.obj
 0001:00005e90       ?decode_error@EFatal@core@UModSys@@UEBAHPEAD_K@Z 0000000140006e90 f i umodsys_lib_basesys:umodsys.basesys.rsystem_main.obj
 0001:00005ed0       ?decode_error@EWarning@core@UModSys@@UEBAHPEAD_K@Z 0000000140006ed0 f i umodsys_lib_basesys:umodsys.basesys.rsystem_main.obj
 0001:00005f10       ??_GEExceptionBase@core@UModSys@@UEAAPEAXI@Z 0000000140006f10 f i umodsys_lib_basesys:umodsys.basesys.rsystem_main.obj
 0001:00005f10       ??_GEFatal@core@UModSys@@UEAAPEAXI@Z 0000000140006f10 f i umodsys_lib_basesys:umodsys.basesys.rsystem_main.obj
 0001:00005f10       ??_EEFatal@core@UModSys@@UEAAPEAXI@Z 0000000140006f10 f i  CIL library: CIL module
 0001:00005f10       ??_EEExceptionBase@core@UModSys@@UEAAPEAXI@Z 0000000140006f10 f i  CIL library: CIL module
 0001:00005f10       ??_GEWarning@core@UModSys@@UEAAPEAXI@Z 0000000140006f10 f i umodsys_lib_basesys:umodsys.basesys.rsystem_main.obj
 0001:00005f10       ??_EEWarning@core@UModSys@@UEAAPEAXI@Z 0000000140006f10 f i  CIL library: CIL module
 0001:00005f40       ??1EFatal@core@UModSys@@UEAA@XZ 0000000140006f40 f i umodsys_lib_basesys:umodsys.basesys.rsystem_main.obj
 0001:00005f40       ??1EWarning@core@UModSys@@UEAA@XZ 0000000140006f40 f i umodsys_lib_basesys:umodsys.basesys.rsystem_main.obj
 0001:00005f50       ?root_get_interface_info@ISystem@base@UModSys@@UEBAAEBUSUniquePointerInfo@core@3@XZ 0000000140006f50 f i umodsys_lib_basesys:umodsys.basesys.rsystem_main.obj
 0001:00005f60       ?root_get_interface_type@ISystem@base@UModSys@@UEBAPEBUSUniquePointerInfo@core@3@XZ 0000000140006f60 f i umodsys_lib_basesys:umodsys.basesys.rsystem_main.obj
 0001:00005f70       ?root_get_other_interface@ISystem@base@UModSys@@UEBAPEBUIRoot@core@3@PEBUSUniquePointerInfo@53@@Z 0000000140006f70 f i umodsys_lib_basesys:umodsys.basesys.rsystem_main.obj
 0001:00005f70       ?root_get_other_interface@ISystem@base@UModSys@@UEAAPEAUIRoot@core@3@PEBUSUniquePointerInfo@53@@Z 0000000140006f70 f i umodsys_lib_basesys:umodsys.basesys.rsystem_main.obj
 0001:00005f90       ?root_is_interface_supported@ISystem@base@UModSys@@UEBA_NPEBUSUniquePointerInfo@core@3@@Z 0000000140006f90 f i umodsys_lib_basesys:umodsys.basesys.rsystem_main.obj
 0001:00005fb0       ?root_get_interface_info@RSystem@rsystem@base@UModSys@@UEBAAEBUSUniquePointerInfo@core@4@XZ 0000000140006fb0 f i umodsys_lib_basesys:umodsys.basesys.rsystem_main.obj
 0001:00005fc0       ?root_get_interface_type@RSystem@rsystem@base@UModSys@@UEBAPEBUSUniquePointerInfo@core@4@XZ 0000000140006fc0 f i umodsys_lib_basesys:umodsys.basesys.rsystem_main.obj
 0001:00005fd0       ?root_get_other_interface@RSystem@rsystem@base@UModSys@@UEBAPEBUIRoot@core@4@PEBUSUniquePointerInfo@64@@Z 0000000140006fd0 f i umodsys_lib_basesys:umodsys.basesys.rsystem_main.obj
 0001:00005fd0       ?root_get_other_interface@RSystem@rsystem@base@UModSys@@UEAAPEAUIRoot@core@4@PEBUSUniquePointerInfo@64@@Z 0000000140006fd0 f i umodsys_lib_basesys:umodsys.basesys.rsystem_main.obj
 0001:00005ff0       ?root_is_interface_supported@RSystem@rsystem@base@UModSys@@UEBA_NPEBUSUniquePointerInfo@core@4@@Z 0000000140006ff0 f i umodsys_lib_basesys:umodsys.basesys.rsystem_main.obj
 0001:00006020       ??_ERSystem@rsystem@base@UModSys@@UEAAPEAXI@Z 0000000140007020 f i  CIL library: CIL module
 0001:00006020       ??_GRSystem@rsystem@base@UModSys@@UEAAPEAXI@Z 0000000140007020 f i umodsys_lib_basesys:umodsys.basesys.rsystem_main.obj
 0001:00006050       ??_EISystem@base@UModSys@@UEAAPEAXI@Z 0000000140007050 f i  CIL library: CIL module
 0001:00006050       ??_GISystem@base@UModSys@@UEAAPEAXI@Z 0000000140007050 f i umodsys_lib_basesys:umodsys.basesys.rsystem_main.obj
 0001:00006080       ??1?$TStaticStringPool@DU?$TComparerBinaryHash@D@su@tl@UModSys@@USMemAlloc_Malloc@core@4@@tl@UModSys@@QEAA@XZ 0000000140007080 f i umodsys_lib_basesys:umodsys.basesys.rsystem_main.obj
 0001:00006090       ??1?$TQuantArrayUnique@USUniquePointerInfo@core@UModSys@@$0BAA@USMemAlloc_Malloc@23@@tl@UModSys@@QEAA@XZ 0000000140007090 f i umodsys_lib_basesys:umodsys.basesys.rsystem_main.obj
 0001:000060e0       ??1?$TTreeHoldRBD@U?$TQuantArrayNode@USSourceContext@core@UModSys@@$0BAA@@tl@UModSys@@U?$TNodeDeleter@U?$TQuantArrayNode@USSourceContext@core@UModSys@@$0BAA@@tl@UModSys@@USMemAlloc_Malloc@core@3@@23@@tl@UModSys@@QEAA@XZ 00000001400070e0 f i umodsys_lib_basesys:umodsys.basesys.rsystem_main.obj
 0001:000060e0       ??1?$TTreeHoldRBD@U?$TQuantArrayNode@USUniquePointerInfo@core@UModSys@@$0BAA@@tl@UModSys@@U?$TNodeDeleter@U?$TQuantArrayNode@USUniquePointerInfo@core@UModSys@@$0BAA@@tl@UModSys@@USMemAlloc_Malloc@core@3@@23@@tl@UModSys@@QEAA@XZ 00000001400070e0 f i umodsys_lib_basesys:umodsys.basesys.rsystem_main.obj
 0001:00006100       ??0?$TRMemAlloc_CC@U?$TMemAllocHeader@USMagic@mem_headers@rsystem@base@UModSys@@U?$TPool@X@2345@USDebug@2345@UVoid@core@5@U895@@rsystem@base@UModSys@@USMemAlloc_Malloc@core@4@@rsystem@base@UModSys@@QEAA@PEAUIExceptionHandler@core@3@@Z 0000000140007100 f i umodsys_lib_basesys:umodsys.basesys.rsystem_main.obj
 0001:00006130       ??1?$TRMemAlloc_CC@U?$TMemAllocHeader@USMagic@mem_headers@rsystem@base@UModSys@@U?$TPool@X@2345@USDebug@2345@UVoid@core@5@U895@@rsystem@base@UModSys@@USMemAlloc_Malloc@core@4@@rsystem@base@UModSys@@QEAA@XZ 0000000140007130 f i umodsys_lib_basesys:umodsys.basesys.rsystem_main.obj
 0001:00006140       ?mem_alloc@?$TRMemAlloc_CC@U?$TMemAllocHeader@USMagic@mem_headers@rsystem@base@UModSys@@U?$TPool@X@2345@USDebug@2345@UVoid@core@5@U895@@rsystem@base@UModSys@@USMemAlloc_Malloc@core@4@@rsystem@base@UModSys@@UEAAPEAX_KPEBUSSourceContext@core@4@@Z 0000000140007140 f i umodsys_lib_basesys:umodsys.basesys.rsystem_main.obj
 0001:000061f0       ?mem_realloc@?$TRMemAlloc_CC@U?$TMemAllocHeader@USMagic@mem_headers@rsystem@base@UModSys@@U?$TPool@X@2345@USDebug@2345@UVoid@core@5@U895@@rsystem@base@UModSys@@USMemAlloc_Malloc@core@4@@rsystem@base@UModSys@@UEAAPEAXPEAX_KPEBUSSourceContext@core@4@@Z 00000001400071f0 f i umodsys_lib_basesys:umodsys.basesys.rsystem_main.obj
 0001:00006480       ?mem_free@?$TRMemAlloc_CC@U?$TMemAllocHeader@USMagic@mem_headers@rsystem@base@UModSys@@U?$TPool@X@2345@USDebug@2345@UVoid@core@5@U895@@rsystem@base@UModSys@@USMemAlloc_Malloc@core@4@@rsystem@base@UModSys@@UEAAXPEAXPEBUSSourceContext@core@4@@Z 0000000140007480 f i umodsys_lib_basesys:umodsys.basesys.rsystem_main.obj
 0001:00006580       ?free@?$TStaticStringPool@DU?$TComparerBinaryHash@D@su@tl@UModSys@@USMemAlloc_Malloc@core@4@@tl@UModSys@@QEAAXXZ 0000000140007580 f i umodsys_lib_basesys:umodsys.basesys.rsystem_main.obj
 0001:000065e0       ??$process_nodes@U?$TNodeDeleter@U?$TQuantArrayNode@USSourceContext@core@UModSys@@$0BAA@@tl@UModSys@@USMemAlloc_Malloc@core@3@@tl@UModSys@@@?$TTreeHoldRB@U?$TQuantArrayNode@USSourceContext@core@UModSys@@$0BAA@@tl@UModSys@@@tl@UModSys@@QEAAHAEBU?$TNodeDeleter@U?$TQuantArrayNode@USSourceContext@core@UModSys@@$0BAA@@tl@UModSys@@USMemAlloc_Malloc@core@3@@12@@Z 00000001400075e0 f i umodsys_lib_basesys:umodsys.basesys.rsystem_main.obj
 0001:000065e0       ??$process_nodes@U?$TNodeDeleter@U?$TQuantArrayNode@USUniquePointerInfo@core@UModSys@@$0BAA@@tl@UModSys@@USMemAlloc_Malloc@core@3@@tl@UModSys@@@?$TTreeHoldRB@U?$TQuantArrayNode@USUniquePointerInfo@core@UModSys@@$0BAA@@tl@UModSys@@@tl@UModSys@@QEAAHAEBU?$TNodeDeleter@U?$TQuantArrayNode@USUniquePointerInfo@core@UModSys@@$0BAA@@tl@UModSys@@USMemAlloc_Malloc@core@3@@12@@Z 00000001400075e0 f i umodsys_lib_basesys:umodsys.basesys.rsystem_main.obj
 0001:00006660       ?persist_ctx@?$TRMemAlloc_CC@U?$TMemAllocHeader@USMagic@mem_headers@rsystem@base@UModSys@@U?$TPool@X@2345@USDebug@2345@UVoid@core@5@U895@@rsystem@base@UModSys@@USMemAlloc_Malloc@core@4@@rsystem@base@UModSys@@QEAAPEBUSSourceContext@core@4@PEBU564@@Z 0000000140007660 f i umodsys_lib_basesys:umodsys.basesys.rsystem_main.obj
 0001:00006670       ??$process@UEFatal@core@UModSys@@@IExceptionHandler@core@UModSys@@QEAAXAEBUEFatal@12@@Z 0000000140007670 f i umodsys_lib_basesys:umodsys.basesys.rsystem_main.obj
 0001:000066e0       ??$process_nodes_r@U?$TNodeDeleter@U?$TQuantArrayNode@USUniquePointerInfo@core@UModSys@@$0BAA@@tl@UModSys@@USMemAlloc_Malloc@core@3@@tl@UModSys@@@?$TTreeHoldRB@U?$TQuantArrayNode@USUniquePointerInfo@core@UModSys@@$0BAA@@tl@UModSys@@@tl@UModSys@@KAHPEAU?$TQuantArrayNode@USUniquePointerInfo@core@UModSys@@$0BAA@@12@AEBU?$TNodeDeleter@U?$TQuantArrayNode@USUniquePointerInfo@core@UModSys@@$0BAA@@tl@UModSys@@USMemAlloc_Malloc@core@3@@12@@Z 00000001400076e0 f i umodsys_lib_basesys:umodsys.basesys.rsystem_main.obj
 0001:000066e0       ??$process_nodes_r@U?$TNodeDeleter@U?$TQuantArrayNode@USSourceContext@core@UModSys@@$0BAA@@tl@UModSys@@USMemAlloc_Malloc@core@3@@tl@UModSys@@@?$TTreeHoldRB@U?$TQuantArrayNode@USSourceContext@core@UModSys@@$0BAA@@tl@UModSys@@@tl@UModSys@@KAHPEAU?$TQuantArrayNode@USSourceContext@core@UModSys@@$0BAA@@12@AEBU?$TNodeDeleter@U?$TQuantArrayNode@USSourceContext@core@UModSys@@$0BAA@@tl@UModSys@@USMemAlloc_Malloc@core@3@@12@@Z 00000001400076e0 f i umodsys_lib_basesys:umodsys.basesys.rsystem_main.obj
 0001:00006750       ??0EFatal@core@UModSys@@QEAA@AEBU012@@Z 0000000140007750 f i umodsys_lib_basesys:umodsys.basesys.rsystem_main.obj
 0001:00006790       ??0EExceptionBase@core@UModSys@@QEAA@AEBU012@@Z 0000000140007790 f i umodsys_lib_basesys:umodsys.basesys.rsystem_main.obj
 0001:000067d0       ??0EWarning@core@UModSys@@QEAA@AEBU012@@Z 00000001400077d0 f i umodsys_lib_basesys:umodsys.basesys.rsystem_main.obj
 0001:00006810       ??1?$TParametersA@$0EAA@@core@UModSys@@QEAA@XZ 0000000140007810 f i umodsys_lib_basesys:umodsys.basesys.rsystem_tests.obj
 0001:00006830       ??_GRModuleLoader@rsystem@base@UModSys@@UEAAPEAXI@Z 0000000140007830 f i umodsys_lib_basesys:umodsys.basesys.rmoduleloader.obj
 0001:00006830       ??_ERModuleLoader@rsystem@base@UModSys@@UEAAPEAXI@Z 0000000140007830 f i  CIL library: CIL module
 0001:00006860       ??_EIModuleLoader@base@UModSys@@UEAAPEAXI@Z 0000000140007860 f i  CIL library: CIL module
 0001:00006860       ??_GIModuleLoader@base@UModSys@@UEAAPEAXI@Z 0000000140007860 f i umodsys_lib_basesys:umodsys.basesys.rmoduleloader.obj
 0001:00006890       ??1?$TDynarrayDynamic@U?$TRefObject@URModuleLibrarySO@rsystem@base@UModSys@@U?$TRefObjectFunc@URModuleLibrarySO@rsystem@base@UModSys@@@tl@4@@tl@UModSys@@U?$TAllocator@USMemAlloc_Malloc@core@UModSys@@USCountCalcPower2@23@@23@@tl@UModSys@@QEAA@XZ 0000000140007890 f i umodsys_lib_basesys:umodsys.basesys.rmoduleloader.obj
 0001:000068f0       ?append@?$TStaticStringPool@DU?$TComparerBinaryHash@D@su@tl@UModSys@@USMemAlloc_Malloc@core@4@@tl@UModSys@@QEAAPEBU?$TString@U?$TSCoreConst@D@su@tl@UModSys@@U?$TComparerBinaryHash@D@234@@23@PEBD_K@Z 00000001400078f0 f i umodsys_lib_basesys:umodsys.basesys.rmoduleloader.obj
 0001:00006b60       ?ResizeRel@?$TDynarray@U?$TDynarrayHolderDynamic@U?$TRefObject@URModuleLibrarySO@rsystem@base@UModSys@@U?$TRefObjectFunc@URModuleLibrarySO@rsystem@base@UModSys@@@tl@4@@tl@UModSys@@U?$TAllocator@USMemAlloc_Malloc@core@UModSys@@USCountCalcPower2@23@@23@@tl@UModSys@@@tl@UModSys@@QEAA_N_J@Z 0000000140007b60 f i umodsys_lib_basesys:umodsys.basesys.rmoduleloader.obj
 0001:00006c10       ?items_destruct@?$TDynarray@U?$TDynarrayHolderDynamic@U?$TRefObject@URModuleLibrarySO@rsystem@base@UModSys@@U?$TRefObjectFunc@URModuleLibrarySO@rsystem@base@UModSys@@@tl@4@@tl@UModSys@@U?$TAllocator@USMemAlloc_Malloc@core@UModSys@@USCountCalcPower2@23@@23@@tl@UModSys@@@tl@UModSys@@IEAAX_K0@Z 0000000140007c10 f i umodsys_lib_basesys:umodsys.basesys.rmoduleloader.obj
 0001:00006c80       ?find_s@?$TStaticStringPool@DU?$TComparerBinaryHash@D@su@tl@UModSys@@USMemAlloc_Malloc@core@4@@tl@UModSys@@QEBAPEBU?$TString@U?$TSCoreConst@D@su@tl@UModSys@@U?$TComparerBinaryHash@D@234@@23@AEBU423@@Z 0000000140007c80 f i umodsys_lib_basesys:umodsys.basesys.rmoduleloader.obj
 0001:00006d30       ?root_get_interface_info@RModuleLibraryThis@rsystem@base@UModSys@@UEBAAEBUSUniquePointerInfo@core@4@XZ 0000000140007d30 f i umodsys_lib_basesys:umodsys.basesys.rmodulelibthis.obj
 0001:00006d40       ?root_get_interface_type@RModuleLibraryThis@rsystem@base@UModSys@@UEBAPEBUSUniquePointerInfo@core@4@XZ 0000000140007d40 f i umodsys_lib_basesys:umodsys.basesys.rmodulelibthis.obj
 0001:00006d50       ?root_get_other_interface@RModuleLibraryThis@rsystem@base@UModSys@@UEBAPEBUIRoot@core@4@PEBUSUniquePointerInfo@64@@Z 0000000140007d50 f i umodsys_lib_basesys:umodsys.basesys.rmodulelibthis.obj
 0001:00006d50       ?root_get_other_interface@RModuleLibraryThis@rsystem@base@UModSys@@UEAAPEAUIRoot@core@4@PEBUSUniquePointerInfo@64@@Z 0000000140007d50 f i umodsys_lib_basesys:umodsys.basesys.rmodulelibthis.obj
 0001:00006d90       ?root_is_interface_supported@RModuleLibraryThis@rsystem@base@UModSys@@UEBA_NPEBUSUniquePointerInfo@core@4@@Z 0000000140007d90 f i umodsys_lib_basesys:umodsys.basesys.rmodulelibthis.obj
 0001:00006dd0       ?ref_add@RModuleLibraryThis@rsystem@base@UModSys@@UEBAXXZ 0000000140007dd0 f i umodsys_lib_basesys:umodsys.basesys.rmodulelibthis.obj
 0001:00006de0       ?ref_remove@RModuleLibraryThis@rsystem@base@UModSys@@UEBAXXZ 0000000140007de0 f i umodsys_lib_basesys:umodsys.basesys.rmodulelibthis.obj
 0001:00006e00       ?ref_links@RModuleLibraryThis@rsystem@base@UModSys@@UEBAHXZ 0000000140007e00 f i umodsys_lib_basesys:umodsys.basesys.rmodulelibthis.obj
 0001:00006e10       ?ref_weak@RModuleLibraryThis@rsystem@base@UModSys@@UEBA_NAEAUWeakPointer@IRefObject@core@4@@Z 0000000140007e10 f i umodsys_lib_basesys:umodsys.basesys.rmodulelibthis.obj
 0001:00006e40       ??_GRModuleLibraryThis@rsystem@base@UModSys@@UEAAPEAXI@Z 0000000140007e40 f i umodsys_lib_basesys:umodsys.basesys.rmodulelibthis.obj
 0001:00006e40       ??_ERModuleLibraryThis@rsystem@base@UModSys@@UEAAPEAXI@Z 0000000140007e40 f i  CIL library: CIL module
 0001:00006e70       ??_EIModuleLibraryUni@rsystem@base@UModSys@@UEAAPEAXI@Z 0000000140007e70 f i  CIL library: CIL module
 0001:00006e70       ??_GIModuleLibraryUni@rsystem@base@UModSys@@UEAAPEAXI@Z 0000000140007e70 f i umodsys_lib_basesys:umodsys.basesys.rmodulelib.obj
 0001:00006ea0       ??_EIModuleLibrary@base@UModSys@@UEAAPEAXI@Z 0000000140007ea0 f i  CIL library: CIL module
 0001:00006ea0       ??_GIModuleLibrary@base@UModSys@@UEAAPEAXI@Z 0000000140007ea0 f i umodsys_lib_basesys:umodsys.basesys.rmodulelib.obj
 0001:00006ed0       ?ResizeRel@?$TDynarray@U?$TDynarrayHolderDynamic@U?$TRefObject@URModule@rsystem@base@UModSys@@U?$TRefObjectFunc@URModule@rsystem@base@UModSys@@@tl@4@@tl@UModSys@@U?$TAllocator@USMemAlloc_Malloc@core@UModSys@@USCountCalcPower2@23@@23@@tl@UModSys@@@tl@UModSys@@QEAA_N_J@Z 0000000140007ed0 f i umodsys_lib_basesys:umodsys.basesys.rmodulelib.obj
 0001:00006fd0       ?info_release@?$TSCoreShared@USMemAlloc_Malloc@core@UModSys@@D@su@tl@UModSys@@QEAAXXZ 0000000140007fd0 f i umodsys_lib_basesys:umodsys.basesys.rmodulelib.obj
 0001:000070a0       ?check_leaks@?$TRMemAlloc_CC@U?$TMemAllocHeader@USMagic@mem_headers@rsystem@base@UModSys@@U?$TPool@X@2345@USDebug@2345@UVoid@core@5@U895@@rsystem@base@UModSys@@USMemAlloc_Malloc@core@4@@rsystem@base@UModSys@@QEAA_K_NPEAUIExceptionHandler@core@4@@Z 00000001400080a0 f i umodsys_lib_basesys:umodsys.basesys.rmodulelib.obj
 0001:00007160       ?ReLink@?$TDynarray@U?$TDynarrayHolderDynamic@U?$TRefObject@URModuleLibrarySO@rsystem@base@UModSys@@U?$TRefObjectFunc@URModuleLibrarySO@rsystem@base@UModSys@@@tl@4@@tl@UModSys@@U?$TAllocator@USMemAlloc_Malloc@core@UModSys@@USCountCalcPower2@23@@23@@tl@UModSys@@@tl@UModSys@@IEAA_N_K@Z 0000000140008160 f i umodsys_lib_basesys:umodsys.basesys.rmoduleloader.obj
 0001:00007160       ?ReLink@?$TDynarray@U?$TDynarrayHolderDynamic@U?$TRefObject@URModule@rsystem@base@UModSys@@U?$TRefObjectFunc@URModule@rsystem@base@UModSys@@@tl@4@@tl@UModSys@@U?$TAllocator@USMemAlloc_Malloc@core@UModSys@@USCountCalcPower2@23@@23@@tl@UModSys@@@tl@UModSys@@IEAA_N_K@Z 0000000140008160 f i umodsys_lib_basesys:umodsys.basesys.rmodulelib.obj
 0001:000071d0       ?add@?$TQuantArrayUnique@USSourceContext@core@UModSys@@$0BAA@USMemAlloc_Malloc@23@@tl@UModSys@@QEAAPEAUSSourceContext@core@3@AEBU453@@Z 00000001400081d0 f i umodsys_lib_basesys:umodsys.basesys.rsystem.obj
 0001:000071d0       ?add@?$TQuantArrayUnique@USUniquePointerInfo@core@UModSys@@$0BAA@USMemAlloc_Malloc@23@@tl@UModSys@@QEAAPEAUSUniquePointerInfo@core@3@AEBU453@@Z 00000001400081d0 f i umodsys_lib_basesys:umodsys.basesys.rsystem.obj
 0001:00007360       ?find@?$TQuantArrayUnique@USUniquePointerInfo@core@UModSys@@$0BAA@USMemAlloc_Malloc@23@@tl@UModSys@@QEAAPEBUSUniquePointerInfo@core@3@AEBU453@@Z 0000000140008360 f i umodsys_lib_basesys:umodsys.basesys.rsystem.obj
 0001:00007360       ?find@?$TQuantArrayUnique@USSourceContext@core@UModSys@@$0BAA@USMemAlloc_Malloc@23@@tl@UModSys@@QEAAPEBUSSourceContext@core@3@AEBU453@@Z 0000000140008360 f i umodsys_lib_basesys:umodsys.basesys.rsystem.obj
 0001:00007490       ?s_last@?$TQuantArrayUnique@USSourceContext@core@UModSys@@$0BAA@USMemAlloc_Malloc@23@@tl@UModSys@@KAHPEBU?$TQuantArrayNode@USSourceContext@core@UModSys@@$0BAA@@23@0@Z 0000000140008490 f i umodsys_lib_basesys:umodsys.basesys.rsystem.obj
 0001:00007490       ?s_last@?$TQuantArrayUnique@USUniquePointerInfo@core@UModSys@@$0BAA@USMemAlloc_Malloc@23@@tl@UModSys@@KAHPEBU?$TQuantArrayNode@USUniquePointerInfo@core@UModSys@@$0BAA@@23@0@Z 0000000140008490 f i umodsys_lib_basesys:umodsys.basesys.rsystem.obj
 0001:000074a0       ??$insert_node_m@P6AHPEBU?$TQuantArrayNode@USSourceContext@core@UModSys@@$0BAA@@tl@UModSys@@0@Z@?$TTreeHoldRB@U?$TQuantArrayNode@USSourceContext@core@UModSys@@$0BAA@@tl@UModSys@@@tl@UModSys@@QEAAPEAU?$TQuantArrayNode@USSourceContext@core@UModSys@@$0BAA@@12@PEAU312@P6AHPEBU312@1@Z@Z 00000001400084a0 f i umodsys_lib_basesys:umodsys.basesys.rsystem.obj
 0001:000074a0       ??$insert_node_m@P6AHPEBU?$TQuantArrayNode@USUniquePointerInfo@core@UModSys@@$0BAA@@tl@UModSys@@0@Z@?$TTreeHoldRB@U?$TQuantArrayNode@USUniquePointerInfo@core@UModSys@@$0BAA@@tl@UModSys@@@tl@UModSys@@QEAAPEAU?$TQuantArrayNode@USUniquePointerInfo@core@UModSys@@$0BAA@@12@PEAU312@P6AHPEBU312@1@Z@Z 00000001400084a0 f i umodsys_lib_basesys:umodsys.basesys.rsystem.obj
 0001:00007550       ?root_get_interface_info@RParameters@rsystem@base@UModSys@@UEBAAEBUSUniquePointerInfo@core@4@XZ 0000000140008550 f i umodsys_lib_basesys:umodsys.basesys.rparameters.obj
 0001:00007560       ?root_get_interface_type@RParameters@rsystem@base@UModSys@@UEBAPEBUSUniquePointerInfo@core@4@XZ 0000000140008560 f i umodsys_lib_basesys:umodsys.basesys.rparameters.obj
 0001:00007570       ?root_get_other_interface@RParameters@rsystem@base@UModSys@@UEBAPEBUIRoot@core@4@PEBUSUniquePointerInfo@64@@Z 0000000140008570 f i umodsys_lib_basesys:umodsys.basesys.rparameters.obj
 0001:00007570       ?root_get_other_interface@RParameters@rsystem@base@UModSys@@UEAAPEAUIRoot@core@4@PEBUSUniquePointerInfo@64@@Z 0000000140008570 f i umodsys_lib_basesys:umodsys.basesys.rparameters.obj
 0001:000075a0       ?root_is_interface_supported@RParameters@rsystem@base@UModSys@@UEBA_NPEBUSUniquePointerInfo@core@4@@Z 00000001400085a0 f i umodsys_lib_basesys:umodsys.basesys.rparameters.obj
 0001:000075d0       ?ref_weak@RLibraryBinCache@stdlib@media@modules@UModSys@@UEBA_NAEAUWeakPointer@IRefObject@core@5@@Z 00000001400085d0 f i umodsys_lib_libmedia:umodsys.mod.media.stdlib.obj
 0001:000075d0       ?ref_weak@RDataArchiver_OsDir@stdio@media@modules@UModSys@@UEBA_NAEAUWeakPointer@IRefObject@core@5@@Z 00000001400085d0 f i umodsys_lib_libmedia:umodsys.mod.media.stdio.obj
 0001:000075d0       ?ref_weak@RParameters@rsystem@base@UModSys@@UEBA_NAEAUWeakPointer@IRefObject@core@4@@Z 00000001400085d0 f i umodsys_lib_basesys:umodsys.basesys.rparameters.obj
 0001:000075d0       ?ref_weak@RLibraryBinTree@stdlib@media@modules@UModSys@@UEBA_NAEAUWeakPointer@IRefObject@core@5@@Z 00000001400085d0 f i umodsys_lib_libmedia:umodsys.mod.media.stdlib.obj
 0001:000075d0       ?ref_weak@RLibraryObjFilter@stdlib@media@modules@UModSys@@UEBA_NAEAUWeakPointer@IRefObject@core@5@@Z 00000001400085d0 f i umodsys_lib_libmedia:umodsys.mod.media.stdlib.obj
 0001:000075d0       ?ref_weak@RLibraryLayered@stdlib@media@modules@UModSys@@UEBA_NAEAUWeakPointer@IRefObject@core@5@@Z 00000001400085d0 f i umodsys_lib_libmedia:umodsys.mod.media.stdlib.obj
 0001:000075d0       ?ref_weak@RLibraryObjCache@stdlib@media@modules@UModSys@@UEBA_NAEAUWeakPointer@IRefObject@core@5@@Z 00000001400085d0 f i umodsys_lib_libmedia:umodsys.mod.media.stdlib.obj
 0001:000075f0       ?suicide@RParameters@rsystem@base@UModSys@@UEAAXXZ 00000001400085f0 f i umodsys_lib_basesys:umodsys.basesys.rparameters.obj
 0001:000075f0       ?suicide@RModuleLibraryThis@rsystem@base@UModSys@@UEAAXXZ 00000001400085f0 f i umodsys_lib_basesys:umodsys.basesys.rmodulelibthis.obj
 0001:000075f0       ?suicide@RModuleLibrarySO@rsystem@base@UModSys@@UEAAXXZ 00000001400085f0 f i umodsys_lib_basesys:umodsys.basesys.rmodulelibso.obj
 0001:00007610       ??_ERParameters@rsystem@base@UModSys@@UEAAPEAXI@Z 0000000140008610 f i  CIL library: CIL module
 0001:00007610       ??_GRParameters@rsystem@base@UModSys@@UEAAPEAXI@Z 0000000140008610 f i umodsys_lib_basesys:umodsys.basesys.rparameters.obj
 0001:00007640       ??$shash@D@su@tl@UModSys@@YA_KPEBD@Z 0000000140008640 f i umodsys_lib_basesys:umodsys.basesys.rparameters.obj
 0001:00007680       ??$t_alloc@UIMemAlloc@core@UModSys@@@SMemChunk@core@UModSys@@QEAA_NAEAUIMemAlloc@12@_KPEBUSSourceContext@12@@Z 0000000140008680 f i umodsys_lib_basesys:umodsys.basesys.rparameters.obj
 0001:00007700       ?root_get_interface_info@RModule@rsystem@base@UModSys@@UEBAAEBUSUniquePointerInfo@core@4@XZ 0000000140008700 f i umodsys_lib_basesys:umodsys.basesys.rmodule.obj
 0001:00007710       ?root_get_interface_type@RModule@rsystem@base@UModSys@@UEBAPEBUSUniquePointerInfo@core@4@XZ 0000000140008710 f i umodsys_lib_basesys:umodsys.basesys.rmodule.obj
 0001:00007720       ?root_get_interface_types@RLibraryBinTree@stdlib@media@modules@UModSys@@UEBA_KAEAUSUniquePtrList@core@5@@Z 0000000140008720 f i umodsys_lib_libmedia:umodsys.mod.media.stdlib.obj
 0001:00007720       ?root_get_interface_types@RStreamWriter_FILE@stdio@media@modules@UModSys@@UEBA_KAEAUSUniquePtrList@core@5@@Z 0000000140008720 f i umodsys_lib_libmedia:umodsys.mod.media.stdio.obj
 0001:00007720       ?root_get_interface_types@RLibraryLayered@stdlib@media@modules@UModSys@@UEBA_KAEAUSUniquePtrList@core@5@@Z 0000000140008720 f i umodsys_lib_libmedia:umodsys.mod.media.stdlib.obj
 0001:00007720       ?root_get_interface_types@RModuleLibraryThis@rsystem@base@UModSys@@UEBA_KAEAUSUniquePtrList@core@4@@Z 0000000140008720 f i umodsys_lib_basesys:umodsys.basesys.rmodulelibthis.obj
 0001:00007720       ?root_get_interface_types@RDataArchiver_OsDir@stdio@media@modules@UModSys@@UEBA_KAEAUSUniquePtrList@core@5@@Z 0000000140008720 f i umodsys_lib_libmedia:umodsys.mod.media.stdio.obj
 0001:00007720       ?root_get_interface_types@RLibraryObjCache@stdlib@media@modules@UModSys@@UEBA_KAEAUSUniquePtrList@core@5@@Z 0000000140008720 f i umodsys_lib_libmedia:umodsys.mod.media.stdlib.obj
 0001:00007720       ?root_get_interface_types@RStreamReader_FILE@stdio@media@modules@UModSys@@UEBA_KAEAUSUniquePtrList@core@5@@Z 0000000140008720 f i umodsys_lib_libmedia:umodsys.mod.media.stdio.obj
 0001:00007720       ?root_get_interface_types@RGenerator@stdlib@media@modules@UModSys@@UEBA_KAEAUSUniquePtrList@core@5@@Z 0000000140008720 f i umodsys_lib_libmedia:umodsys.mod.media.stdlib.obj
 0001:00007720       ?root_get_interface_types@RGenerator@stdio@media@modules@UModSys@@UEBA_KAEAUSUniquePtrList@core@5@@Z 0000000140008720 f i umodsys_lib_libmedia:umodsys.mod.media.stdio.obj
 0001:00007720       ?root_get_interface_types@RParameters@rsystem@base@UModSys@@UEBA_KAEAUSUniquePtrList@core@4@@Z 0000000140008720 f i umodsys_lib_basesys:umodsys.basesys.rparameters.obj
 0001:00007720       ?root_get_interface_types@RModule@rsystem@base@UModSys@@UEBA_KAEAUSUniquePtrList@core@4@@Z 0000000140008720 f i umodsys_lib_basesys:umodsys.basesys.rmodule.obj
 0001:00007720       ?root_get_interface_types@RConsole_std@rsystem@base@UModSys@@UEBA_KAEAUSUniquePtrList@core@4@@Z 0000000140008720 f i umodsys_lib_basesys:umodsys.basesys.rconsole_std.obj
 0001:00007720       ?root_get_interface_types@RSystem@rsystem@base@UModSys@@UEBA_KAEAUSUniquePtrList@core@4@@Z 0000000140008720 f i umodsys_lib_basesys:umodsys.basesys.rsystem_main.obj
 0001:00007720       ?root_get_interface_types@ISystem@base@UModSys@@UEBA_KAEAUSUniquePtrList@core@3@@Z 0000000140008720 f i umodsys_lib_basesys:umodsys.basesys.rsystem_main.obj
 0001:00007720       ?root_get_interface_types@RUtilities@stdlib@media@modules@UModSys@@UEBA_KAEAUSUniquePtrList@core@5@@Z 0000000140008720 f i umodsys_lib_libmedia:umodsys.mod.media.stdlib.obj
 0001:00007720       ?root_get_interface_types@RLibraryBinCache@stdlib@media@modules@UModSys@@UEBA_KAEAUSUniquePtrList@core@5@@Z 0000000140008720 f i umodsys_lib_libmedia:umodsys.mod.media.stdlib.obj
 0001:00007720       ?root_get_interface_types@RModuleLibrarySO@rsystem@base@UModSys@@UEBA_KAEAUSUniquePtrList@core@4@@Z 0000000140008720 f i umodsys_lib_basesys:umodsys.basesys.rmodulelibso.obj
 0001:00007720       ?root_get_interface_types@RBinArchiveFrame@stdlib@media@modules@UModSys@@UEBA_KAEAUSUniquePtrList@core@5@@Z 0000000140008720 f i umodsys_lib_libmedia:umodsys.mod.media.stdlib.obj
 0001:00007720       ?root_get_interface_types@RLibraryObjFilter@stdlib@media@modules@UModSys@@UEBA_KAEAUSUniquePtrList@core@5@@Z 0000000140008720 f i umodsys_lib_libmedia:umodsys.mod.media.stdlib.obj
 0001:00007730       ?root_get_other_interface@RModule@rsystem@base@UModSys@@UEAAPEAUIRoot@core@4@PEBUSUniquePointerInfo@64@@Z 0000000140008730 f i umodsys_lib_basesys:umodsys.basesys.rmodule.obj
 0001:00007730       ?root_get_other_interface@RModule@rsystem@base@UModSys@@UEBAPEBUIRoot@core@4@PEBUSUniquePointerInfo@64@@Z 0000000140008730 f i umodsys_lib_basesys:umodsys.basesys.rmodule.obj
 0001:00007760       ?root_is_interface_supported@RModule@rsystem@base@UModSys@@UEBA_NPEBUSUniquePointerInfo@core@4@@Z 0000000140008760 f i umodsys_lib_basesys:umodsys.basesys.rmodule.obj
 0001:00007790       ?ref_add@RModule@rsystem@base@UModSys@@UEBAXXZ 0000000140008790 f i umodsys_lib_basesys:umodsys.basesys.rmodule.obj
 0001:000077a0       ?ref_remove@RModule@rsystem@base@UModSys@@UEBAXXZ 00000001400087a0 f i umodsys_lib_basesys:umodsys.basesys.rmodule.obj
 0001:000077c0       ?ref_links@RModule@rsystem@base@UModSys@@UEBAHXZ 00000001400087c0 f i umodsys_lib_basesys:umodsys.basesys.rmodule.obj
 0001:000077d0       ?ref_weak@RModule@rsystem@base@UModSys@@UEBA_NAEAUWeakPointer@IRefObject@core@4@@Z 00000001400087d0 f i umodsys_lib_basesys:umodsys.basesys.rmodule.obj
 0001:00007800       ?suicide@RModule@rsystem@base@UModSys@@UEAAXXZ 0000000140008800 f i umodsys_lib_basesys:umodsys.basesys.rmodule.obj
 0001:00007850       ??_ERModule@rsystem@base@UModSys@@UEAAPEAXI@Z 0000000140008850 f i  CIL library: CIL module
 0001:00007850       ??_GRModule@rsystem@base@UModSys@@UEAAPEAXI@Z 0000000140008850 f i umodsys_lib_basesys:umodsys.basesys.rmodule.obj
 0001:00007880       ??_EIModule@base@UModSys@@UEAAPEAXI@Z 0000000140008880 f i  CIL library: CIL module
 0001:00007880       ??_GIModule@base@UModSys@@UEAAPEAXI@Z 0000000140008880 f i umodsys_lib_basesys:umodsys.basesys.rmodule.obj
 0001:000078b0       ??1?$TDynarrayDynamic@UModuleObjInfo@RModule@rsystem@base@UModSys@@U?$TAllocator@USMemAlloc_Malloc@core@UModSys@@USCountCalcPower2@23@@tl@5@@tl@UModSys@@QEAA@XZ 00000001400088b0 f i umodsys_lib_basesys:umodsys.basesys.rmodule.obj
 0001:00007910       ?Push@?$TDynarray@U?$TDynarrayHolderDynamic@UModuleObjInfo@RModule@rsystem@base@UModSys@@U?$TAllocator@USMemAlloc_Malloc@core@UModSys@@USCountCalcPower2@23@@tl@5@@tl@UModSys@@@tl@UModSys@@QEAA_NXZ 0000000140008910 f i umodsys_lib_basesys:umodsys.basesys.rmodule.obj
 0001:000079d0       ??1?$TDynarrayDynamic@UGeneratedObjInfo@RModule@rsystem@base@UModSys@@U?$TAllocator@USMemAlloc_Malloc@core@UModSys@@USCountCalcPower2@23@@tl@5@@tl@UModSys@@QEAA@XZ 00000001400089d0 f i umodsys_lib_basesys:umodsys.basesys.rmodule.obj
 0001:00007a30       ??1?$TDynarrayDynamic@PEBUSUniquePointerInfo@core@UModSys@@U?$TAllocator@USMemAlloc_Malloc@core@UModSys@@USCountCalcPower2@23@@tl@3@@tl@UModSys@@QEAA@XZ 0000000140008a30 f i umodsys_lib_basesys:umodsys.basesys.rmodule.obj
 0001:00007a90       ?ResizeRel@?$TDynarray@U?$TDynarrayHolderDynamic@UModuleObjInfo@RModule@rsystem@base@UModSys@@U?$TAllocator@USMemAlloc_Malloc@core@UModSys@@USCountCalcPower2@23@@tl@5@@tl@UModSys@@@tl@UModSys@@QEAA_N_J@Z 0000000140008a90 f i umodsys_lib_basesys:umodsys.basesys.rmodule.obj
 0001:00007b80       ?ResizeRel@?$TDynarray@U?$TDynarrayHolderDynamic@UGeneratedObjInfo@RModule@rsystem@base@UModSys@@U?$TAllocator@USMemAlloc_Malloc@core@UModSys@@USCountCalcPower2@23@@tl@5@@tl@UModSys@@@tl@UModSys@@QEAA_N_J@Z 0000000140008b80 f i umodsys_lib_basesys:umodsys.basesys.rmodule.obj
 0001:00007c70       ?ResizeRel@?$TDynarray@U?$TDynarrayHolderDynamic@PEBUSUniquePointerInfo@core@UModSys@@U?$TAllocator@USMemAlloc_Malloc@core@UModSys@@USCountCalcPower2@23@@tl@3@@tl@UModSys@@@tl@UModSys@@QEAA_N_J@Z 0000000140008c70 f i umodsys_lib_basesys:umodsys.basesys.rmodule.obj
 0001:00007d30       ??1?$TRefObject@UIClient@IBinArchiveFrame@libmedia@UModSys@@U?$TRefObjectFunc@UIClient@IBinArchiveFrame@libmedia@UModSys@@@tl@4@@tl@UModSys@@QEAA@XZ 0000000140008d30 f i umodsys_lib_libmedia:umodsys.mod.media.stdlib.obj
 0001:00007d30       ??1?$TRefObject@UIBinArchive@libmedia@UModSys@@U?$TRefObjectFunc@UIBinArchive@libmedia@UModSys@@@tl@3@@tl@UModSys@@QEAA@XZ 0000000140008d30 f i umodsys_lib_libmedia:umodsys.mod.media.stdlib.obj
 0001:00007d30       ??1?$TRefObject@UIShell@base@UModSys@@U?$TRefObjectFunc@UIShell@base@UModSys@@@tl@3@@tl@UModSys@@QEAA@XZ 0000000140008d30 f i umodsys_lib_basesys:umodsys.basesys.rsystem_tests.obj
 0001:00007d30       ??1?$TRefObject@UIRefObject@core@UModSys@@U?$TRefObjectFunc@UIRefObject@core@UModSys@@@tl@3@@tl@UModSys@@QEAA@XZ 0000000140008d30 f i umodsys_lib_libmedia:umodsys.mod.media.stdlib.obj
 0001:00007d30       ??1?$TRefObject@URParameters@rsystem@base@UModSys@@U?$TRefObjectFunc@URParameters@rsystem@base@UModSys@@@tl@4@@tl@UModSys@@QEAA@XZ 0000000140008d30 f i umodsys_lib_basesys:umodsys.basesys.rsystem_main.obj
 0001:00007d30       ??1SFilter@RLibraryObjFilter@stdlib@media@modules@UModSys@@QEAA@XZ 0000000140008d30 f i umodsys_lib_libmedia:umodsys.mod.media.stdlib.obj
 0001:00007d30       ??1?$TRefObject@URLibraryObjCache@stdlib@media@modules@UModSys@@U?$TRefObjectFunc@URLibraryObjCache@stdlib@media@modules@UModSys@@@tl@5@@tl@UModSys@@QEAA@XZ 0000000140008d30 f i umodsys_lib_libmedia:umodsys.mod.media.stdlib.obj
 0001:00007d30       ??1?$TRefObject@UIBinObjFilter@libmedia@UModSys@@U?$TRefObjectFunc@UIBinObjFilter@libmedia@UModSys@@@tl@3@@tl@UModSys@@QEAA@XZ 0000000140008d30 f i umodsys_lib_libmedia:umodsys.mod.media.stdlib.obj
 0001:00007d30       ??1?$TRefObject@URLibraryLayered@stdlib@media@modules@UModSys@@U?$TRefObjectFunc@URLibraryLayered@stdlib@media@modules@UModSys@@@tl@5@@tl@UModSys@@QEAA@XZ 0000000140008d30 f i umodsys_lib_libmedia:umodsys.mod.media.stdlib.obj
 0001:00007d30       ??1?$TRefObject@URStreamWriter_FILE@stdio@media@modules@UModSys@@U?$TRefObjectFunc@URStreamWriter_FILE@stdio@media@modules@UModSys@@@tl@5@@tl@UModSys@@QEAA@XZ 0000000140008d30 f i umodsys_lib_libmedia:umodsys.mod.media.stdio.obj
 0001:00007d30       ??1?$TRefObject@URLibraryBinTree@stdlib@media@modules@UModSys@@U?$TRefObjectFunc@URLibraryBinTree@stdlib@media@modules@UModSys@@@tl@5@@tl@UModSys@@QEAA@XZ 0000000140008d30 f i umodsys_lib_libmedia:umodsys.mod.media.stdlib.obj
 0001:00007d30       ??1?$TRefObject@UIStreamReader@libmedia@UModSys@@U?$TRefObjectFunc@UIStreamReader@libmedia@UModSys@@@tl@3@@tl@UModSys@@QEAA@XZ 0000000140008d30 f i umodsys_lib_libmedia:umodsys.mod.media.stdio.obj
 0001:00007d30       ??1?$TRefObject@URDataArchiver_OsDir@stdio@media@modules@UModSys@@U?$TRefObjectFunc@URDataArchiver_OsDir@stdio@media@modules@UModSys@@@tl@5@@tl@UModSys@@QEAA@XZ 0000000140008d30 f i umodsys_lib_libmedia:umodsys.mod.media.stdio.obj
 0001:00007d30       ??1?$TRefObject@URStreamReader_FILE@stdio@media@modules@UModSys@@U?$TRefObjectFunc@URStreamReader_FILE@stdio@media@modules@UModSys@@@tl@5@@tl@UModSys@@QEAA@XZ 0000000140008d30 f i umodsys_lib_libmedia:umodsys.mod.media.stdio.obj
 0001:00007d30       ??1?$TRefObject@UIModuleLibraryUni@rsystem@base@UModSys@@U?$TRefObjectFunc@UIModuleLibraryUni@rsystem@base@UModSys@@@tl@4@@tl@UModSys@@QEAA@XZ 0000000140008d30 f i umodsys_lib_basesys:umodsys.basesys.rmodule.obj
 0001:00007d30       ??1?$TRefObject@URModuleLibrarySO@rsystem@base@UModSys@@U?$TRefObjectFunc@URModuleLibrarySO@rsystem@base@UModSys@@@tl@4@@tl@UModSys@@QEAA@XZ 0000000140008d30 f i umodsys_lib_basesys:umodsys.basesys.rmoduleloader.obj
 0001:00007d30       ??1?$TRefObject@UIStreamWriter@libmedia@UModSys@@U?$TRefObjectFunc@UIStreamWriter@libmedia@UModSys@@@tl@3@@tl@UModSys@@QEAA@XZ 0000000140008d30 f i umodsys_lib_libmedia:umodsys.mod.media.stdio.obj
 0001:00007d30       ??1?$TRefObject@URUtilities@stdlib@media@modules@UModSys@@U?$TRefObjectFunc@URUtilities@stdlib@media@modules@UModSys@@@tl@5@@tl@UModSys@@QEAA@XZ 0000000140008d30 f i umodsys_lib_libmedia:umodsys.mod.media.stdlib.obj
 0001:00007d30       ??1?$TRefObject@URBinArchiveFrame@stdlib@media@modules@UModSys@@U?$TRefObjectFunc@URBinArchiveFrame@stdlib@media@modules@UModSys@@@tl@5@@tl@UModSys@@QEAA@XZ 0000000140008d30 f i umodsys_lib_libmedia:umodsys.mod.media.stdlib.obj
 0001:00007d30       ??1?$TRefObject@UILibrary@libmedia@UModSys@@U?$TRefObjectFunc@UILibrary@libmedia@UModSys@@@tl@3@@tl@UModSys@@QEAA@XZ 0000000140008d30 f i umodsys_lib_libmedia:umodsys.mod.media.stdlib.obj
 0001:00007d30       ??1?$TRefObject@URLibraryObjFilter@stdlib@media@modules@UModSys@@U?$TRefObjectFunc@URLibraryObjFilter@stdlib@media@modules@UModSys@@@tl@5@@tl@UModSys@@QEAA@XZ 0000000140008d30 f i umodsys_lib_libmedia:umodsys.mod.media.stdlib.obj
 0001:00007d30       ??1?$TRefObject@URLibraryBinCache@stdlib@media@modules@UModSys@@U?$TRefObjectFunc@URLibraryBinCache@stdlib@media@modules@UModSys@@@tl@5@@tl@UModSys@@QEAA@XZ 0000000140008d30 f i umodsys_lib_libmedia:umodsys.mod.media.stdlib.obj
 0001:00007d60       ?root_get_interface_info@RModuleLibrarySO@rsystem@base@UModSys@@UEBAAEBUSUniquePointerInfo@core@4@XZ 0000000140008d60 f i umodsys_lib_basesys:umodsys.basesys.rmodulelibso.obj
 0001:00007d70       ?root_get_interface_type@RModuleLibrarySO@rsystem@base@UModSys@@UEBAPEBUSUniquePointerInfo@core@4@XZ 0000000140008d70 f i umodsys_lib_basesys:umodsys.basesys.rmodulelibso.obj
 0001:00007d80       ?root_get_other_interface@RModuleLibrarySO@rsystem@base@UModSys@@UEBAPEBUIRoot@core@4@PEBUSUniquePointerInfo@64@@Z 0000000140008d80 f i umodsys_lib_basesys:umodsys.basesys.rmodulelibso.obj
 0001:00007d80       ?root_get_other_interface@RModuleLibrarySO@rsystem@base@UModSys@@UEAAPEAUIRoot@core@4@PEBUSUniquePointerInfo@64@@Z 0000000140008d80 f i umodsys_lib_basesys:umodsys.basesys.rmodulelibso.obj
 0001:00007dc0       ?root_is_interface_supported@RModuleLibrarySO@rsystem@base@UModSys@@UEBA_NPEBUSUniquePointerInfo@core@4@@Z 0000000140008dc0 f i umodsys_lib_basesys:umodsys.basesys.rmodulelibso.obj
 0001:00007e00       ?ref_add@RModuleLibrarySO@rsystem@base@UModSys@@UEBAXXZ 0000000140008e00 f i umodsys_lib_basesys:umodsys.basesys.rmodulelibso.obj
 0001:00007e10       ?ref_remove@RModuleLibrarySO@rsystem@base@UModSys@@UEBAXXZ 0000000140008e10 f i umodsys_lib_basesys:umodsys.basesys.rmodulelibso.obj
 0001:00007e30       ?ref_links@RModuleLibrarySO@rsystem@base@UModSys@@UEBAHXZ 0000000140008e30 f i umodsys_lib_basesys:umodsys.basesys.rmodulelibso.obj
 0001:00007e40       ?ref_weak@RModuleLibrarySO@rsystem@base@UModSys@@UEBA_NAEAUWeakPointer@IRefObject@core@4@@Z 0000000140008e40 f i umodsys_lib_basesys:umodsys.basesys.rmodulelibso.obj
 0001:00007e70       ??_ERModuleLibrarySO@rsystem@base@UModSys@@UEAAPEAXI@Z 0000000140008e70 f i  CIL library: CIL module
 0001:00007e70       ??_GRModuleLibrarySO@rsystem@base@UModSys@@UEAAPEAXI@Z 0000000140008e70 f i umodsys_lib_basesys:umodsys.basesys.rmodulelibso.obj
 0001:00007ea0       ?info_new@?$TSCoreShared@USMemAlloc_Malloc@core@UModSys@@D@su@tl@UModSys@@QEAA_NPEBD_K@Z 0000000140008ea0 f i umodsys_lib_basesys:umodsys.basesys.rmodulelibso.obj
 0001:00007f70       ?Push@?$TDynarray@U?$TDynarrayHolderDynamic@U?$TRefObject@URModuleLibrarySO@rsystem@base@UModSys@@U?$TRefObjectFunc@URModuleLibrarySO@rsystem@base@UModSys@@@tl@4@@tl@UModSys@@U?$TAllocator@USMemAlloc_Malloc@core@UModSys@@USCountCalcPower2@23@@23@@tl@UModSys@@@tl@UModSys@@QEAA_NAEBU?$TRefObject@URModuleLibrarySO@rsystem@base@UModSys@@U?$TRefObjectFunc@URModuleLibrarySO@rsystem@base@UModSys@@@tl@4@@23@@Z 0000000140008f70 f i umodsys_lib_basesys:umodsys.basesys.rmodulelibso.obj
 0001:00008030       ??_ERModuleLibraryReg_Chain@base@UModSys@@UEAAPEAXI@Z 0000000140009030 f i  CIL library: CIL module
 0001:00008030       ??_GRModuleLibraryReg_Chain@base@UModSys@@UEAAPEAXI@Z 0000000140009030 f i umodsys_lib_base:umodsys.base.moduleregchain.obj
 0001:00008060       ??_EIModuleReg@base@UModSys@@UEAAPEAXI@Z 0000000140009060 f i  CIL library: CIL module
 0001:00008060       ??_GIModuleReg@base@UModSys@@UEAAPEAXI@Z 0000000140009060 f i umodsys_lib_base:umodsys.base.modulereg.obj
 0001:00008090       ??_GIModuleLibraryReg@base@UModSys@@UEAAPEAXI@Z 0000000140009090 f i umodsys_lib_base:umodsys.base.modulereg.obj
 0001:00008090       ??_EIModuleLibraryReg@base@UModSys@@UEAAPEAXI@Z 0000000140009090 f i  CIL library: CIL module
 0001:000080c0       ?Find@?$TSet@U?$TArray@PEBUSUniquePointerInfo@core@UModSys@@@tl@UModSys@@U?$TScalarCompare@PEBUSUniquePointerInfo@core@UModSys@@@core@3@@tl@UModSys@@QEBAPEBQEBUSUniquePointerInfo@core@3@AEBQEBU453@@Z 00000001400090c0 f i umodsys_lib_core:umodsys.core.uniqueptrlist.obj
 0001:0000815c       _onexit                    000000014000915c f   MSVCRT:atonexit.obj
 0001:0000820c       atexit                     000000014000920c f   MSVCRT:atonexit.obj
 0001:000084f4       mainCRTStartup             00000001400094f4 f   MSVCRT:crtexe.obj
 0001:00008506       _purecall                  0000000140009506 f   MSVCRT:MSVCR90.dll
 0001:0000850c       ??3@YAXPEAX@Z              000000014000950c f   MSVCRT:MSVCR90.dll
 0001:00008514       ??_Etype_info@@UEAAPEAXI@Z 0000000140009514 f i MSVCRT:ti_inst.obj
 0001:0000857e       ??2@YAPEAX_K@Z             000000014000957e f   MSVCRT:MSVCR90.dll
 0001:00008584       __C_specific_handler       0000000140009584 f   MSVCRT:MSVCR90.dll
 0001:0000858a       _unlock                    000000014000958a f   MSVCRT:MSVCR90.dll
 0001:00008590       __dllonexit                0000000140009590 f   MSVCRT:MSVCR90.dll
 0001:00008596       _lock                      0000000140009596 f   MSVCRT:MSVCR90.dll
 0001:0000859c       ?__CxxUnhandledExceptionFilter@@YAJPEAU_EXCEPTION_POINTERS@@@Z 000000014000959c f   MSVCRT:unhandld.obj
 0001:000085e0       __CxxSetUnhandledExceptionFilter 00000001400095e0 f   MSVCRT:unhandld.obj
 0001:000085f8       _amsg_exit                 00000001400095f8 f   MSVCRT:MSVCR90.dll
 0001:00008600       _RTC_Initialize            0000000140009600 f   MSVCRT:_initsect_.obj
 0001:00008638       _RTC_Terminate             0000000140009638 f   MSVCRT:_initsect_.obj
 0001:00008670       _XcptFilter                0000000140009670 f   MSVCRT:MSVCR90.dll
 0001:00008680       _ValidateImageBase         0000000140009680 f   MSVCRT:pesect.obj
 0001:000086b0       _FindPESection             00000001400096b0 f   MSVCRT:pesect.obj
 0001:00008700       _IsNonwritableInCurrentImage 0000000140009700 f   MSVCRT:pesect.obj
 0001:00008742       _initterm                  0000000140009742 f   MSVCRT:MSVCR90.dll
 0001:00008748       _initterm_e                0000000140009748 f   MSVCRT:MSVCR90.dll
 0001:00008750       _setargv                   0000000140009750 f   MSVCRT:dllargv.obj
 0001:00008750       _matherr                   0000000140009750 f   MSVCRT:merr.obj
 0001:00008754       __security_init_cookie     0000000140009754 f   MSVCRT:gs_support.obj
 0001:00008808       ?__ArrayUnwind@@YAXPEAX_KHP6AX0@Z@Z 0000000140009808 f   MSVCRT:ehvecdtr.obj
 0001:00008854       ??_M@YAXPEAX_KHP6AX0@Z@Z   0000000140009854 f   MSVCRT:ehvecdtr.obj
 0001:000088b2       ?terminate@@YAXXZ          00000001400098b2 f   MSVCRT:MSVCR90.dll
 0001:000088b8       ??1type_info@@UEAA@XZ      00000001400098b8 f   MSVCRT:MSVCR90.dll
 0001:000088b8       ?_type_info_dtor_internal_method@type_info@@QEAAXXZ 00000001400098b8 f   MSVCRT:MSVCR90.dll
 0001:000088c0       ?utf_8to32@su@tl@UModSys@@YA_NAEAHAEAPEBDAEA_K@Z 00000001400098c0 f   umodsys_lib_core:umodsys.tl.utf8.obj
 0001:00008a00       ?gracial_convert@syshlp@core@UModSys@@YA_NPEADHPEB_WH@Z 0000000140009a00 f   umodsys_lib_core:umodsys.core.syshlp_charcode.win32.obj
 0001:00008a60       ?gracial_convert@syshlp@core@UModSys@@YA_NPEA_WHPEBDH@Z 0000000140009a60 f   umodsys_lib_core:umodsys.core.syshlp_charcode.win32.obj
 0001:00008ab0       ?path_uni_os@syshlp@core@UModSys@@YAXPEA_W@Z 0000000140009ab0 f   umodsys_lib_core:umodsys.core.syshlp_chars.win32.obj
 0001:00008ae0       ?path_os_uni@syshlp@core@UModSys@@YAXPEAD@Z 0000000140009ae0 f   umodsys_lib_core:umodsys.core.syshlp_chars.win32.obj
 0001:00008b00       ?safe_vsnprintf@syshlp@core@UModSys@@YA_KPEAD_KPEBD0@Z 0000000140009b00 f   umodsys_lib_core:umodsys.core.syshlp_chars.win32.obj
 0001:00008b40       ?gracial_cpy@syshlp@core@UModSys@@YA_NPEA_WHQEAPEB_WH@Z 0000000140009b40 f   umodsys_lib_core:umodsys.core.syshlp_chars.win32.obj
 0001:00008c30       ?gracial_cpy@syshlp@core@UModSys@@YA_NPEADHQEAPEBDH@Z 0000000140009c30 f   umodsys_lib_core:umodsys.core.syshlp_chars.win32.obj
 0001:00008d10       ?utf_nocase32@su@tl@UModSys@@YAHH@Z 0000000140009d10 f   umodsys_lib_core:umodsys.tl.utfcase.obj
 0001:0000b200       ?utf8_cmp_nocase_bin@su@tl@UModSys@@YAHPEBD0_K1@Z 000000014000c200 f   umodsys_lib_core:umodsys.tl.utfcase.obj
 0001:0000b2d0       ?utf8_shash_nocase_bin@su@tl@UModSys@@YA_KPEBD_K@Z 000000014000c2d0 f   umodsys_lib_core:umodsys.tl.utfcase.obj
 0001:0000b340       ??3IRoot@core@UModSys@@SAXPEAX@Z 000000014000c340 f   umodsys_lib_core:umodsys.core.objects.obj
 0001:0000b380       ??3IRoot@core@UModSys@@SAXPEAXPEAUIMemAlloc@12@@Z 000000014000c380 f   umodsys_lib_core:umodsys.core.objects.obj
 0001:0000b3c0       ??2IRoot@core@UModSys@@SAPEAX_KPEAUIMemAlloc@12@@Z 000000014000c3c0 f   umodsys_lib_core:umodsys.core.objects.obj
 0001:0000b400       ?suicide@IRoot@core@UModSys@@UEAAXXZ 000000014000c400 f   umodsys_lib_core:umodsys.core.objects.obj
 0001:0000b420       ??1IRoot@core@UModSys@@UEAA@XZ 000000014000c420 f   umodsys_lib_core:umodsys.core.objects.obj
 0001:0000b440       ??1IRefObject@core@UModSys@@UEAA@XZ 000000014000c440 f   umodsys_lib_core:umodsys.core.objects.obj
 0001:0000b450       ?u_fchsize@syshlp@core@UModSys@@YA_NPEAU_iobuf@@J@Z 000000014000c450 f   umodsys_lib_core:umodsys.core.syshlp_files.win32.obj
 0001:0000b480       ?restore_console@syshlp@core@UModSys@@YAXXZ 000000014000c480 f   umodsys_lib_core:umodsys.core.syshlp_files.win32.obj
 0001:0000b4b0       ?setup_console@syshlp@core@UModSys@@YAXXZ 000000014000c4b0 f   umodsys_lib_core:umodsys.core.syshlp_files.win32.obj
 0001:0000b4f0       ?u_fopen@syshlp@core@UModSys@@YAPEAU_iobuf@@PEBD0@Z 000000014000c4f0 f   umodsys_lib_core:umodsys.core.syshlp_files.win32.obj
 0001:0000b5b0       ?u_fendtemp@syshlp@core@UModSys@@YA_NAEAPEAU_iobuf@@AEAPEAD_N@Z 000000014000c5b0 f   umodsys_lib_core:umodsys.core.syshlp_files.win32.obj
 0001:0000b6b0       ?u_fopentemp@syshlp@core@UModSys@@YAPEAU_iobuf@@AEAPEADPEBD@Z 000000014000c6b0 f   umodsys_lib_core:umodsys.core.syshlp_files.win32.obj
 0001:0000b790       ?lost@core@UModSys@@YAEPEBX@Z 000000014000c790 f   umodsys_lib_core:umodsys.core.stdtypedefs.obj
 0001:0000b7a0       ?s_unresolve@SUniquePointer@core@UModSys@@SAXPEAUIUniquePointerResolver@23@@Z 000000014000c7a0 f   umodsys_lib_core:umodsys.core.uniqueptr.obj
 0001:0000b810       ?s_resolve@SUniquePointer@core@UModSys@@SAXPEAUIUniquePointerResolver@23@@Z 000000014000c810 f   umodsys_lib_core:umodsys.core.uniqueptr.obj
 0001:0000b890       ??1SUniquePointer@core@UModSys@@QEAA@XZ 000000014000c890 f   umodsys_lib_core:umodsys.core.uniqueptr.obj
 0001:0000b8c0       ??0SUniquePointer@core@UModSys@@QEAA@H@Z 000000014000c8c0 f   umodsys_lib_core:umodsys.core.uniqueptr.obj
 0001:0000b8f0       ??0SUniquePointer@core@UModSys@@QEAA@PEBD0H@Z 000000014000c8f0 f   umodsys_lib_core:umodsys.core.uniqueptr.obj
 0001:0000b940       ??1SModuleInfo@base@UModSys@@QEAA@XZ 000000014000c940 f   umodsys_lib_base:umodsys.base.moduleinfo.obj
 0001:0000b950       ??0SModuleInfo@base@UModSys@@QEAA@PEBDGG0K_J@Z 000000014000c950 f   umodsys_lib_base:umodsys.base.moduleinfo.obj
 0001:0000ba10       ??0SModuleInfo@base@UModSys@@QEAA@XZ 000000014000ca10 f   umodsys_lib_base:umodsys.base.moduleinfo.obj
 0001:0000ba40       ??1IModuleLoader@base@UModSys@@UEAA@XZ 000000014000ca40 f   umodsys_lib_base:umodsys.base.moduleloader.obj
 0001:0000ba50       ??1SDebug@base@UModSys@@QEAA@XZ 000000014000ca50 f   umodsys_lib_base:umodsys.base.debug.obj
 0001:0000ba80       ??0SDebug@base@UModSys@@QEAA@PEAUIConsole@12@I@Z 000000014000ca80 f   umodsys_lib_base:umodsys.base.debug.obj
 0001:0000baa0       ??1ISystem@base@UModSys@@UEAA@XZ 000000014000caa0 f   umodsys_lib_base:umodsys.base.system.obj
 0001:0000bab0       ??1IModuleLibraryReg@base@UModSys@@UEAA@XZ 000000014000cab0 f   umodsys_lib_base:umodsys.base.modulereg.obj
 0001:0000bad0       ??0IModuleLibraryReg@base@UModSys@@QEAA@XZ 000000014000cad0 f   umodsys_lib_base:umodsys.base.modulereg.obj
 0001:0000baf0       ?mr_close@IModuleReg@base@UModSys@@UEAA_NXZ 000000014000caf0 f   umodsys_lib_base:umodsys.base.modulereg.obj
 0001:0000bb10       ?mr_open@IModuleReg@base@UModSys@@UEAA_NXZ 000000014000cb10 f   umodsys_lib_base:umodsys.base.modulereg.obj
 0001:0000bb40       ?mr_isopen@IModuleReg@base@UModSys@@UEBA_NXZ 000000014000cb40 f   umodsys_lib_base:umodsys.base.modulereg.obj
 0001:0000bb50       ??1IModuleReg@base@UModSys@@UEAA@XZ 000000014000cb50 f   umodsys_lib_base:umodsys.base.modulereg.obj
 0001:0000bb70       ??0IModuleReg@base@UModSys@@QEAA@PEBDGG0K_J@Z 000000014000cb70 f   umodsys_lib_base:umodsys.base.modulereg.obj
 0001:0000bbd0       UModSys_Plugin_Entry2      000000014000cbd0 f   umodsys_lib_base:umodsys.so_main.win32.obj
 0001:0000bbe0       ??1RModuleLibraryReg_Chain@base@UModSys@@UEAA@XZ 000000014000cbe0 f   umodsys_lib_base:umodsys.base.moduleregchain.obj
 0001:0000bc00       ??0RModuleLibraryReg_Chain@base@UModSys@@QEAA@XZ 000000014000cc00 f   umodsys_lib_base:umodsys.base.moduleregchain.obj
 0001:0000bc30       ?s_get@SModuleRegChain@base@UModSys@@SAPEAUIModuleReg@23@_K@Z 000000014000cc30 f   umodsys_lib_base:umodsys.base.moduleregchain.obj
 0001:0000bc70       ??1SModuleRegChain@base@UModSys@@QEAA@XZ 000000014000cc70 f   umodsys_lib_base:umodsys.base.moduleregchain.obj
 0001:0000bca0       ??0SModuleRegChain@base@UModSys@@QEAA@AEAUIModuleReg@12@@Z 000000014000cca0 f   umodsys_lib_base:umodsys.base.moduleregchain.obj
 0001:0000bcf0       ?mlr_isopen@RModuleLibraryReg_Chain@base@UModSys@@UEBA_NXZ 000000014000ccf0 f   umodsys_lib_base:umodsys.base.moduleregchain.obj
 0001:0000bd10       ?mlr_close@RModuleLibraryReg_Chain@base@UModSys@@UEAA_NXZ 000000014000cd10 f   umodsys_lib_base:umodsys.base.moduleregchain.obj
 0001:0000bd50       ?mlr_open@RModuleLibraryReg_Chain@base@UModSys@@UEAA_NPEAUISystem@23@PEAUIMemAlloc@core@3@@Z 000000014000cd50 f   umodsys_lib_base:umodsys.base.moduleregchain.obj
 0001:0000bd90       ?mlr_get@RModuleLibraryReg_Chain@base@UModSys@@UEBAPEAUIModuleReg@23@_K@Z 000000014000cd90 f   umodsys_lib_base:umodsys.base.moduleregchain.obj
 0001:0000bda0       ?mlr_count@RModuleLibraryReg_Chain@base@UModSys@@UEBA_KXZ 000000014000cda0 f   umodsys_lib_base:umodsys.base.moduleregchain.obj
 0001:0000bde0       ??0SModuleRegChain@base@UModSys@@QEAA@H@Z 000000014000cde0 f   umodsys_lib_base:umodsys.base.moduleregchain.obj
 0001:0000be00       ?unlink@SMemorySharedData@core@UModSys@@QEAAXPEBUSSourceContext@23@@Z 000000014000ce00 f   umodsys_lib_base:umodsys.base.modulecontext.obj
 0001:0000be30       ?link@SMemorySharedData@core@UModSys@@QEAAXPEBUSSourceContext@23@@Z 000000014000ce30 f   umodsys_lib_base:umodsys.base.modulecontext.obj
 0001:0000be40       ?Link@SModuleContext@base@UModSys@@QEAAXPEAUISystem@23@PEAUIMemAlloc@core@3@@Z 000000014000ce40 f   umodsys_lib_base:umodsys.base.modulecontext.obj
 0001:0000bee0       ??1SModuleContext@base@UModSys@@QEAA@XZ 000000014000cee0 f   umodsys_lib_base:umodsys.base.modulecontext.obj
 0001:0000bef0       ?new_data@SMemorySharedData@core@UModSys@@SAPEAU123@PEAUIMemAlloc@23@_KPEBUSSourceContext@23@@Z 000000014000cef0 f   umodsys_lib_base:umodsys.base.modulecontext.obj
 0001:0000bf40       ?get_paramworker@SParameters@core@UModSys@@KAPEAUIParameters@23@XZ 000000014000cf40 f   umodsys_lib_base:umodsys.base.modulecontext.obj
 0001:0000bf60       ?shared_memory@UModSys@@YAAEBUSIMemAlloc@core@1@XZ 000000014000cf60 f   umodsys_lib_base:umodsys.base.modulecontext.obj
 0001:0000bf70       ?local_memory@UModSys@@YAAEBUSIMemAlloc@core@1@XZ 000000014000cf70 f   umodsys_lib_base:umodsys.base.modulecontext.obj
 0001:0000bf80       ??0SModuleContext@base@UModSys@@QEAA@XZ 000000014000cf80 f   umodsys_lib_base:umodsys.base.modulecontext.obj
 0001:0000bfb0       ?uni_close@RModuleLibrarySO@rsystem@base@UModSys@@UEAA_NXZ 000000014000cfb0 f   umodsys_lib_basesys:umodsys.basesys.rmodulelibso.obj
 0001:0000bfd0       ?uni_open@RModuleLibrarySO@rsystem@base@UModSys@@UEAA_NXZ 000000014000cfd0 f   umodsys_lib_basesys:umodsys.basesys.rmodulelibso.obj
 0001:0000c020       ?s_find_dup@RModuleLibrarySO@rsystem@base@UModSys@@SA_KAEBU?$TDynarrayDynamic@U?$TRefObject@URModuleLibrarySO@rsystem@base@UModSys@@U?$TRefObjectFunc@URModuleLibrarySO@rsystem@base@UModSys@@@tl@4@@tl@UModSys@@U?$TAllocator@USMemAlloc_Malloc@core@UModSys@@USCountCalcPower2@23@@23@@tl@4@PEAUIModuleLibraryReg@34@@Z 000000014000d020 f   umodsys_lib_basesys:umodsys.basesys.rmodulelibso.obj
 0001:0000c060       ??0RModuleLibrarySO@rsystem@base@UModSys@@QEAA@PEAUISystem@23@PEAUPFD_Data@0123@PEAUIModuleLibraryReg@23@@Z 000000014000d060 f   umodsys_lib_basesys:umodsys.basesys.rmodulelibso.obj
 0001:0000c0c0       ??1RModuleLibrarySO@rsystem@base@UModSys@@UEAA@XZ 000000014000d0c0 f   umodsys_lib_basesys:umodsys.basesys.rmodulelibso.obj
 0001:0000c110       ?uni_unload@RModuleLibrarySO@rsystem@base@UModSys@@UEAA_NXZ 000000014000d110 f   umodsys_lib_basesys:umodsys.basesys.rmodulelibso.obj
 0001:0000c130       ?uni_load@RModuleLibrarySO@rsystem@base@UModSys@@UEAA_NXZ 000000014000d130 f   umodsys_lib_basesys:umodsys.basesys.rmodulelibso.obj
 0001:0000c180       ?s_add@RModuleLibrarySO@rsystem@base@UModSys@@SA_NPEAUISystem@34@AEAU?$TDynarrayDynamic@U?$TRefObject@URModuleLibrarySO@rsystem@base@UModSys@@U?$TRefObjectFunc@URModuleLibrarySO@rsystem@base@UModSys@@@tl@4@@tl@UModSys@@U?$TAllocator@USMemAlloc_Malloc@core@UModSys@@USCountCalcPower2@23@@23@@tl@4@PEBD@Z 000000014000d180 f   umodsys_lib_basesys:umodsys.basesys.rmodulelibso.obj
 0001:0000c360       ?scan@RModule@rsystem@base@UModSys@@QEAA_NXZ 000000014000d360 f   umodsys_lib_basesys:umodsys.basesys.rmodule.obj
 0001:0000c3a0       ?is_open@RModule@rsystem@base@UModSys@@UEBA_NXZ 000000014000d3a0 f   umodsys_lib_basesys:umodsys.basesys.rmodule.obj
 0001:0000c3d0       ?get_info@RModule@rsystem@base@UModSys@@UEBAAEBUSModuleInfo@34@XZ 000000014000d3d0 f   umodsys_lib_basesys:umodsys.basesys.rmodule.obj
 0001:0000c3e0       ?get_library@RModule@rsystem@base@UModSys@@UEBAPEAUIModuleLibrary@34@XZ 000000014000d3e0 f   umodsys_lib_basesys:umodsys.basesys.rmodule.obj
 0001:0000c3f0       ??1RModule@rsystem@base@UModSys@@UEAA@XZ 000000014000d3f0 f   umodsys_lib_basesys:umodsys.basesys.rmodule.obj
 0001:0000c530       ?mod_findobjname@RModule@rsystem@base@UModSys@@UEAA_KPEBUSUniquePointerInfo@core@4@QEAPEBU564@_KPEBD@Z 000000014000d530 f   umodsys_lib_basesys:umodsys.basesys.rmodule.obj
 0001:0000c6e0       ?unreg_obj@RModule@rsystem@base@UModSys@@QEAA_NPEAUIModObject@34@@Z 000000014000d6e0 f   umodsys_lib_basesys:umodsys.basesys.rmodule.obj
 0001:0000c810       ?reg_generator@RModule@rsystem@base@UModSys@@QEAA_NPEAUModuleObjInfo@1234@PEAUIGenerator@34@@Z 000000014000d810 f   umodsys_lib_basesys:umodsys.basesys.rmodule.obj
 0001:0000ca50       ?save_db@RModule@rsystem@base@UModSys@@QEAA_NPEAU_iobuf@@@Z 000000014000da50 f   umodsys_lib_basesys:umodsys.basesys.rmodule.obj
 0001:0000ccb0       ?alloc_minfo@RModule@rsystem@base@UModSys@@QEAA_NAEBUSModuleInfo@34@@Z 000000014000dcb0 f   umodsys_lib_basesys:umodsys.basesys.rmodule.obj
 0001:0000cd80       ?reg_obj@RModule@rsystem@base@UModSys@@QEAAPEAUModuleObjInfo@1234@PEAUIModObject@34@@Z 000000014000dd80 f   umodsys_lib_basesys:umodsys.basesys.rmodule.obj
 0001:0000cf20       ?mod_generate@RModule@rsystem@base@UModSys@@UEAA_NAEAU?$TRefObject@UIRefObject@core@UModSys@@U?$TRefObjectFunc@UIRefObject@core@UModSys@@@tl@3@@tl@4@PEBUSUniquePointerInfo@core@4@AEBUSParameters@84@@Z 000000014000df20 f   umodsys_lib_basesys:umodsys.basesys.rmodule.obj
 0001:0000d090       ?reg@RModule@rsystem@base@UModSys@@UEAA_NPEAUIGenerator@34@_N@Z 000000014000e090 f   umodsys_lib_basesys:umodsys.basesys.rmodule.obj
 0001:0000d100       ?reg@RModule@rsystem@base@UModSys@@UEAA_NPEAUIModObject@34@_N@Z 000000014000e100 f   umodsys_lib_basesys:umodsys.basesys.rmodule.obj
 0001:0000d130       ?close@RModule@rsystem@base@UModSys@@UEAA_NXZ 000000014000e130 f   umodsys_lib_basesys:umodsys.basesys.rmodule.obj
 0001:0000d1a0       ?open@RModule@rsystem@base@UModSys@@UEAA_NXZ 000000014000e1a0 f   umodsys_lib_basesys:umodsys.basesys.rmodule.obj
 0001:0000d230       ??0RModule@rsystem@base@UModSys@@QEAA@PEAUIModuleLibraryUni@123@PEAUIModuleReg@23@@Z 000000014000e230 f   umodsys_lib_basesys:umodsys.basesys.rmodule.obj
 0001:0000d310       ?pfd_init@RModuleLibrarySO@rsystem@base@UModSys@@SA_NPEAUPFD_Data@1234@@Z 000000014000e310 f   umodsys_lib_basesys:umodsys.basesys.rmodule.win32.obj
 0001:0000d3f0       ?pfd_init@RModuleLibrarySO@rsystem@base@UModSys@@SA_NPEAUPFD_Data@1234@0@Z 000000014000e3f0 f   umodsys_lib_basesys:umodsys.basesys.rmodule.win32.obj
 0001:0000d420       ?pfd_unload@RModuleLibrarySO@rsystem@base@UModSys@@SA_NPEAUPFD_Data@1234@@Z 000000014000e420 f   umodsys_lib_basesys:umodsys.basesys.rmodule.win32.obj
 0001:0000d480       ?pfd_load@RModuleLibrarySO@rsystem@base@UModSys@@SAPEAUIModuleLibraryReg@34@PEAUPFD_Data@1234@AEBU?$TString@U?$TSCoreConst@D@su@tl@UModSys@@U?$TComparerBinaryHash@D@234@@tl@4@@Z 000000014000e480 f   umodsys_lib_basesys:umodsys.basesys.rmodule.win32.obj
 0001:0000d940       ?pfd_scan@RModuleLibrarySO@rsystem@base@UModSys@@SA_KPEAUISystem@34@AEAU?$TDynarrayDynamic@U?$TRefObject@URModuleLibrarySO@rsystem@base@UModSys@@U?$TRefObjectFunc@URModuleLibrarySO@rsystem@base@UModSys@@@tl@4@@tl@UModSys@@U?$TAllocator@USMemAlloc_Malloc@core@UModSys@@USCountCalcPower2@23@@23@@tl@4@AEBU?$TString@U?$TSCoreConst@D@su@tl@UModSys@@U?$TComparerBinaryHash@D@234@@74@@Z 000000014000e940 f   umodsys_lib_basesys:umodsys.basesys.rmodule.win32.obj
 0001:0000da70       ?estimate_size@RParameters@rsystem@base@UModSys@@IEAAHAEAUElem@1234@HPEBDHH@Z 000000014000ea70 f   umodsys_lib_basesys:umodsys.basesys.rparameters.obj
 0001:0000db00       ??0RParameters@rsystem@base@UModSys@@QEAA@PEAUISystem@23@@Z 000000014000eb00 f   umodsys_lib_basesys:umodsys.basesys.rparameters.obj
 0001:0000db40       ?p_init_s@RParameters@rsystem@base@UModSys@@UEAAXPEAUSParametersData@core@4@PEAXH@Z 000000014000eb40 f   umodsys_lib_basesys:umodsys.basesys.rparameters.obj
 0001:0000db90       ??1RParameters@rsystem@base@UModSys@@UEAA@XZ 000000014000eb90 f   umodsys_lib_basesys:umodsys.basesys.rparameters.obj
 0001:0000dbb0       ?next@RParameters@rsystem@base@UModSys@@UEAA_NPEBUSParametersData@core@4@AEAPEBD@Z 000000014000ebb0 f   umodsys_lib_basesys:umodsys.basesys.rparameters.obj
 0001:0000dcd0       ?p_init@RParameters@rsystem@base@UModSys@@UEAAXPEAUSParametersData@core@4@H@Z 000000014000ecd0 f   umodsys_lib_basesys:umodsys.basesys.rparameters.obj
 0001:0000dd60       ?alloc_elems@RParameters@rsystem@base@UModSys@@IEAAXPEAXH@Z 000000014000ed60 f   umodsys_lib_basesys:umodsys.basesys.rparameters.obj
 0001:0000ddf0       ?free_elems@RParameters@rsystem@base@UModSys@@IEAAXPEAXH@Z 000000014000edf0 f   umodsys_lib_basesys:umodsys.basesys.rparameters.obj
 0001:0000dea0       ?get_last@RParameters@rsystem@base@UModSys@@IEAAPEAUElem@1234@PEAXHHH@Z 000000014000eea0 f   umodsys_lib_basesys:umodsys.basesys.rparameters.obj
 0001:0000df10       ?find_elem@RParameters@rsystem@base@UModSys@@IEAAPEBUElem@1234@PEBXHHHPEBD@Z 000000014000ef10 f   umodsys_lib_basesys:umodsys.basesys.rparameters.obj
 0001:0000dfe0       ?get@RParameters@rsystem@base@UModSys@@UEAA_NPEBUSParametersData@core@4@PEBDAEAPEAUIRefObject@64@@Z 000000014000efe0 f   umodsys_lib_basesys:umodsys.basesys.rparameters.obj
 0001:0000e080       ?get@RParameters@rsystem@base@UModSys@@UEAA_NPEBUSParametersData@core@4@PEBDAEAN@Z 000000014000f080 f   umodsys_lib_basesys:umodsys.basesys.rparameters.obj
 0001:0000e120       ?get@RParameters@rsystem@base@UModSys@@UEAA_NPEBUSParametersData@core@4@PEBDAEAH@Z 000000014000f120 f   umodsys_lib_basesys:umodsys.basesys.rparameters.obj
 0001:0000e1c0       ?get@RParameters@rsystem@base@UModSys@@UEAA_NPEBUSParametersData@core@4@PEBDAEAPEBD@Z 000000014000f1c0 f   umodsys_lib_basesys:umodsys.basesys.rparameters.obj
 0001:0000e260       ?next@RParameters@rsystem@base@UModSys@@UEAA_NPEBUSParametersData@core@4@AEAU?$TString@U?$TSCoreConst@D@su@tl@UModSys@@U?$TComparerBinaryHash@D@234@@tl@4@@Z 000000014000f260 f   umodsys_lib_basesys:umodsys.basesys.rparameters.obj
 0001:0000e390       ?p_init_s@RParameters@rsystem@base@UModSys@@UEAAXPEAUSParametersData@core@4@AEBU564@PEAXH@Z 000000014000f390 f   umodsys_lib_basesys:umodsys.basesys.rparameters.obj
 0001:0000e420       ?p_copy@RParameters@rsystem@base@UModSys@@UEAAXPEAUSParametersData@core@4@AEBU564@@Z 000000014000f420 f   umodsys_lib_basesys:umodsys.basesys.rparameters.obj
 0001:0000e5a0       ?p_init@RParameters@rsystem@base@UModSys@@UEAAXPEAUSParametersData@core@4@AEBU564@@Z 000000014000f5a0 f   umodsys_lib_basesys:umodsys.basesys.rparameters.obj
 0001:0000e670       ?p_deinit@RParameters@rsystem@base@UModSys@@UEAAXPEAUSParametersData@core@4@@Z 000000014000f670 f   umodsys_lib_basesys:umodsys.basesys.rparameters.obj
 0001:0000e6f0       ?add_last@RParameters@rsystem@base@UModSys@@IEAA_NPEAUSParametersData@core@4@PEBDPEBXH@Z 000000014000f6f0 f   umodsys_lib_basesys:umodsys.basesys.rparameters.obj
 0001:0000e950       ?add@RParameters@rsystem@base@UModSys@@UEAA_NPEAUSParametersData@core@4@PEBDPEAUIRefObject@64@@Z 000000014000f950 f   umodsys_lib_basesys:umodsys.basesys.rparameters.obj
 0001:0000e980       ?add@RParameters@rsystem@base@UModSys@@UEAA_NPEAUSParametersData@core@4@PEBDAEBN@Z 000000014000f980 f   umodsys_lib_basesys:umodsys.basesys.rparameters.obj
 0001:0000e9a0       ?add@RParameters@rsystem@base@UModSys@@UEAA_NPEAUSParametersData@core@4@PEBDH@Z 000000014000f9a0 f   umodsys_lib_basesys:umodsys.basesys.rparameters.obj
 0001:0000e9d0       ?add@RParameters@rsystem@base@UModSys@@UEAA_NPEAUSParametersData@core@4@PEBD1@Z 000000014000f9d0 f   umodsys_lib_basesys:umodsys.basesys.rparameters.obj
 0001:0000e9f0       ?get_sca@RSystem@rsystem@base@UModSys@@UEAAPEAUISourceContextAdapter@core@4@XZ 000000014000f9f0 f   umodsys_lib_basesys:umodsys.basesys.rsystem.obj
 0001:0000ea10       ?get_upr@RSystem@rsystem@base@UModSys@@UEAAPEAUIUniquePointerResolver@core@4@XZ 000000014000fa10 f   umodsys_lib_basesys:umodsys.basesys.rsystem.obj
 0001:0000ea30       ?get_modloader@RSystem@rsystem@base@UModSys@@UEAAPEAUIModuleLoader@34@XZ 000000014000fa30 f   umodsys_lib_basesys:umodsys.basesys.rsystem.obj
 0001:0000ea40       ?get_syslib@RSystem@rsystem@base@UModSys@@UEAAPEAUIModuleLibrary@34@XZ 000000014000fa40 f   umodsys_lib_basesys:umodsys.basesys.rsystem.obj
 0001:0000ea50       ?get_sharemem@RSystem@rsystem@base@UModSys@@UEAAPEAUIMemAlloc@core@4@XZ 000000014000fa50 f   umodsys_lib_basesys:umodsys.basesys.rsystem.obj
 0001:0000ea60       ?get_sysmem@RSystem@rsystem@base@UModSys@@UEAAPEAUIMemAlloc@core@4@XZ 000000014000fa60 f   umodsys_lib_basesys:umodsys.basesys.rsystem.obj
 0001:0000ea70       ?get_console@RSystem@rsystem@base@UModSys@@UEAAPEAUIConsole@34@XZ 000000014000fa70 f   umodsys_lib_basesys:umodsys.basesys.rsystem.obj
 0001:0000ea80       ?get_params@RSystem@rsystem@base@UModSys@@UEAAPEAUIParameters@core@4@XZ 000000014000fa80 f   umodsys_lib_basesys:umodsys.basesys.rsystem.obj
 0001:0000ea90       ?upi_remove@RSystem@rsystem@base@UModSys@@UEAAHPEBUSUniquePointerInfo@core@4@@Z 000000014000fa90 f   umodsys_lib_basesys:umodsys.basesys.rsystem.obj
 0001:0000eaa0       ?persist_ctx@RSystem@rsystem@base@UModSys@@UEAAPEBUSSourceContext@core@4@PEBU564@@Z 000000014000faa0 f   umodsys_lib_basesys:umodsys.basesys.rsystem.obj
 0001:0000ebc0       ?upi_add@RSystem@rsystem@base@UModSys@@UEAAPEBUSUniquePointerInfo@core@4@PEBU564@@Z 000000014000fbc0 f   umodsys_lib_basesys:umodsys.basesys.rsystem.obj
 0001:0000ecd0       ?lib_unload@IModuleLibraryUni@rsystem@base@UModSys@@UEAA_NXZ 000000014000fcd0 f   umodsys_lib_basesys:umodsys.basesys.rmodulelib.obj
 0001:0000ecf0       ?lib_loaded@IModuleLibraryUni@rsystem@base@UModSys@@UEBA_NXZ 000000014000fcf0 f   umodsys_lib_basesys:umodsys.basesys.rmodulelib.obj
 0001:0000ed00       ?get_system@IModuleLibraryUni@rsystem@base@UModSys@@UEBAPEAUISystem@34@XZ 000000014000fd00 f   umodsys_lib_basesys:umodsys.basesys.rmodulelib.obj
 0001:0000ed10       ?get_privmem@IModuleLibraryUni@rsystem@base@UModSys@@UEBAPEAUIMemAlloc@core@4@XZ 000000014000fd10 f   umodsys_lib_basesys:umodsys.basesys.rmodulelib.obj
 0001:0000ed20       ?unlink@IModuleLibraryUni@rsystem@base@UModSys@@QEAA_NXZ 000000014000fd20 f   umodsys_lib_basesys:umodsys.basesys.rmodulelib.obj
 0001:0000ed90       ?lib_generate@IModuleLibraryUni@rsystem@base@UModSys@@UEAA_NAEAU?$TRefObject@UIRefObject@core@UModSys@@U?$TRefObjectFunc@UIRefObject@core@UModSys@@@tl@3@@tl@4@PEBUSUniquePointerInfo@core@4@AEBUSParameters@84@@Z 000000014000fd90 f   umodsys_lib_basesys:umodsys.basesys.rmodulelib.obj
 0001:0000ee20       ?lib_findobjname@IModuleLibraryUni@rsystem@base@UModSys@@UEAA_KPEBUSUniquePointerInfo@core@4@QEAPEBU564@_KPEBD@Z 000000014000fe20 f   umodsys_lib_basesys:umodsys.basesys.rmodulelib.obj
 0001:0000eee0       ?lib_free@IModuleLibraryUni@rsystem@base@UModSys@@UEAA_NXZ 000000014000fee0 f   umodsys_lib_basesys:umodsys.basesys.rmodulelib.obj
 0001:0000ef10       ?get_module@IModuleLibraryUni@rsystem@base@UModSys@@UEBAPEAUIModule@34@_K@Z 000000014000ff10 f   umodsys_lib_basesys:umodsys.basesys.rmodulelib.obj
 0001:0000ef30       ?get_module_count@IModuleLibraryUni@rsystem@base@UModSys@@UEBA_KXZ 000000014000ff30 f   umodsys_lib_basesys:umodsys.basesys.rmodulelib.obj
 0001:0000ef40       ?get_sys_libname@IModuleLibraryUni@rsystem@base@UModSys@@UEBA?AU?$TString@U?$TSCoreConst@D@su@tl@UModSys@@U?$TComparerBinaryHash@D@234@@tl@4@XZ 000000014000ff40 f   umodsys_lib_basesys:umodsys.basesys.rmodulelib.obj
 0001:0000ef60       ??1IModuleLibraryUni@rsystem@base@UModSys@@UEAA@XZ 000000014000ff60 f   umodsys_lib_basesys:umodsys.basesys.rmodulelib.obj
 0001:0000eff0       ??0IModuleLibraryUni@rsystem@base@UModSys@@QEAA@PEAUISystem@23@PEAUIModuleLibraryReg@23@@Z 000000014000fff0 f   umodsys_lib_basesys:umodsys.basesys.rmodulelib.obj
 0001:0000f080       ?save_db@IModuleLibraryUni@rsystem@base@UModSys@@QEAA_NPEAU_iobuf@@@Z 0000000140010080 f   umodsys_lib_basesys:umodsys.basesys.rmodulelib.obj
 0001:0000f130       ?cleanup@IModuleLibraryUni@rsystem@base@UModSys@@QEAA_KXZ 0000000140010130 f   umodsys_lib_basesys:umodsys.basesys.rmodulelib.obj
 0001:0000f190       ?link@IModuleLibraryUni@rsystem@base@UModSys@@QEAA_NXZ 0000000140010190 f   umodsys_lib_basesys:umodsys.basesys.rmodulelib.obj
 0001:0000f3e0       ?load0@IModuleLibraryUni@rsystem@base@UModSys@@QEAA_NXZ 00000001400103e0 f   umodsys_lib_basesys:umodsys.basesys.rmodulelib.obj
 0001:0000f450       ?lib_load@IModuleLibraryUni@rsystem@base@UModSys@@UEAA_NXZ 0000000140010450 f   umodsys_lib_basesys:umodsys.basesys.rmodulelib.obj
 0001:0000f490       ?scan@IModuleLibraryUni@rsystem@base@UModSys@@QEAA_NXZ 0000000140010490 f   umodsys_lib_basesys:umodsys.basesys.rmodulelib.obj
 0001:0000f500       ?uni_close@RModuleLibraryThis@rsystem@base@UModSys@@UEAA_NXZ 0000000140010500 f   umodsys_lib_basesys:umodsys.basesys.rmodulelibthis.obj
 0001:0000f510       ?uni_open@RModuleLibraryThis@rsystem@base@UModSys@@UEAA_NXZ 0000000140010510 f   umodsys_lib_basesys:umodsys.basesys.rmodulelibthis.obj
 0001:0000f520       ?uni_unload@RModuleLibraryThis@rsystem@base@UModSys@@UEAA_NXZ 0000000140010520 f   umodsys_lib_basesys:umodsys.basesys.rmodulelibthis.obj
 0001:0000f530       ?uni_load@RModuleLibraryThis@rsystem@base@UModSys@@UEAA_NXZ 0000000140010530 f   umodsys_lib_basesys:umodsys.basesys.rmodulelibthis.obj
 0001:0000f550       ??1RModuleLibraryThis@rsystem@base@UModSys@@UEAA@XZ 0000000140010550 f   umodsys_lib_basesys:umodsys.basesys.rmodulelibthis.obj
 0001:0000f590       ??0RModuleLibraryThis@rsystem@base@UModSys@@QEAA@PEAUISystem@23@@Z 0000000140010590 f   umodsys_lib_basesys:umodsys.basesys.rmodulelibthis.obj
 0001:0000f5e0       ?moduledb_load@RModuleLoader@rsystem@base@UModSys@@UEAA_NAEBU?$TString@U?$TSCoreConst@D@su@tl@UModSys@@U?$TComparerBinaryHash@D@234@@tl@4@@Z 00000001400105e0 f   umodsys_lib_basesys:umodsys.basesys.rmoduleloader.obj
 0001:0000f5f0       ?moduledb_lib_drop@RModuleLoader@rsystem@base@UModSys@@UEAA_NPEAUIModuleLibrary@34@@Z 00000001400105f0 f   umodsys_lib_basesys:umodsys.basesys.rmoduleloader.obj
 0001:0000f600       ?moduledb_lib_count@RModuleLoader@rsystem@base@UModSys@@UEAA_KXZ 0000000140010600 f   umodsys_lib_basesys:umodsys.basesys.rmoduleloader.obj
 0001:0000f610       ?moduledb_module_get@RModuleLoader@rsystem@base@UModSys@@UEBAPEAUIModule@34@_K@Z 0000000140010610 f   umodsys_lib_basesys:umodsys.basesys.rmoduleloader.obj
 0001:0000f670       ?moduledb_module_count@RModuleLoader@rsystem@base@UModSys@@UEAA_KXZ 0000000140010670 f   umodsys_lib_basesys:umodsys.basesys.rmoduleloader.obj
 0001:0000f6b0       ?moduledb_lib_get@RModuleLoader@rsystem@base@UModSys@@UEBAPEAUIModuleLibrary@34@_K@Z 00000001400106b0 f   umodsys_lib_basesys:umodsys.basesys.rmoduleloader.obj
 0001:0000f6e0       ?moduledb_generate@RModuleLoader@rsystem@base@UModSys@@UEAA_NAEAU?$TRefObject@UIRefObject@core@UModSys@@U?$TRefObjectFunc@UIRefObject@core@UModSys@@@tl@3@@tl@4@PEBUSUniquePointerInfo@core@4@AEBUSParameters@84@@Z 00000001400106e0 f   umodsys_lib_basesys:umodsys.basesys.rmoduleloader.obj
 0001:0000f780       ?moduledb_findobjname@RModuleLoader@rsystem@base@UModSys@@UEAA_KPEBUSUniquePointerInfo@core@4@QEAPEBU564@_KPEBD@Z 0000000140010780 f   umodsys_lib_basesys:umodsys.basesys.rmoduleloader.obj
 0001:0000f840       ??1RModuleLoader@rsystem@base@UModSys@@UEAA@XZ 0000000140010840 f   umodsys_lib_basesys:umodsys.basesys.rmoduleloader.obj
 0001:0000f8f0       ??0RModuleLoader@rsystem@base@UModSys@@QEAA@PEAUISystem@23@@Z 00000001400108f0 f   umodsys_lib_basesys:umodsys.basesys.rmoduleloader.obj
 0001:0000f950       ?moduledb_clear@RModuleLoader@rsystem@base@UModSys@@UEAAXXZ 0000000140010950 f   umodsys_lib_basesys:umodsys.basesys.rmoduleloader.obj
 0001:0000fa20       ?cleanup@RModuleLoader@rsystem@base@UModSys@@QEAAXXZ 0000000140010a20 f   umodsys_lib_basesys:umodsys.basesys.rmoduleloader.obj
 0001:0000fa70       ?get_string@RModuleLoader@rsystem@base@UModSys@@QEAAAEBU?$TString@U?$TSCoreConst@D@su@tl@UModSys@@U?$TComparerBinaryHash@D@234@@tl@4@AEBU564@@Z 0000000140010a70 f   umodsys_lib_basesys:umodsys.basesys.rmoduleloader.obj
 0001:0000fad0       ?moduledb_get_string@RModuleLoader@rsystem@base@UModSys@@UEAAAEBU?$TString@U?$TSCoreConst@D@su@tl@UModSys@@U?$TComparerBinaryHash@D@234@@tl@4@AEBU564@@Z 0000000140010ad0 f   umodsys_lib_basesys:umodsys.basesys.rmoduleloader.obj
 0001:0000fae0       ?moduledb_save@RModuleLoader@rsystem@base@UModSys@@UEAA_NAEBU?$TString@U?$TSCoreConst@D@su@tl@UModSys@@U?$TComparerBinaryHash@D@234@@tl@4@@Z 0000000140010ae0 f   umodsys_lib_basesys:umodsys.basesys.rmoduleloader.obj
 0001:0000fbb0       ?moduledb_cleanup@RModuleLoader@rsystem@base@UModSys@@UEAA_KXZ 0000000140010bb0 f   umodsys_lib_basesys:umodsys.basesys.rmoduleloader.obj
 0001:0000fd40       ?moduledb_find@RModuleLoader@rsystem@base@UModSys@@UEBAPEAUIModule@34@AEBU?$TString@U?$TSCoreConst@D@su@tl@UModSys@@U?$TComparerBinaryHash@D@234@@tl@4@AEBUSVersion@core@4@@Z 0000000140010d40 f   umodsys_lib_basesys:umodsys.basesys.rmoduleloader.obj
 0001:0000feb0       ?moduledb_scan@RModuleLoader@rsystem@base@UModSys@@UEAA_KAEBU?$TString@U?$TSCoreConst@D@su@tl@UModSys@@U?$TComparerBinaryHash@D@234@@tl@4@_N@Z 0000000140010eb0 f   umodsys_lib_basesys:umodsys.basesys.rmoduleloader.obj
 0001:0000ff30       ?set_console@RSystem@rsystem@base@UModSys@@QEAAXPEAUIConsole@34@@Z 0000000140010f30 f   umodsys_lib_basesys:umodsys.basesys.rsystem_main.obj
 0001:0000ff80       ?err_put@rsystem@base@UModSys@@YAXW4eRSystemDebugLevels@123@PEBDZZ 0000000140010f80 f   umodsys_lib_basesys:umodsys.basesys.rsystem_main.obj
 0001:0000ffd0       ?dbg_put@rsystem@base@UModSys@@YAXW4eRSystemDebugLevels@123@PEBDZZ 0000000140010fd0 f   umodsys_lib_basesys:umodsys.basesys.rsystem_main.obj
 0001:00010020       ??1RSystem@rsystem@base@UModSys@@UEAA@XZ 0000000140011020 f   umodsys_lib_basesys:umodsys.basesys.rsystem_main.obj
 0001:00010130       ??0RSystem@rsystem@base@UModSys@@QEAA@XZ 0000000140011130 f   umodsys_lib_basesys:umodsys.basesys.rsystem_main.obj
 0001:00010250       ?find_shells@RSystem@rsystem@base@UModSys@@QEAA_KQEAPEBUSUniquePointerInfo@core@4@_KPEBD@Z 0000000140011250 f   umodsys_lib_basesys:umodsys.basesys.rsystem_main.obj
 0001:00010290       ?exec_main@RSystem@rsystem@base@UModSys@@QEAA_NXZ 0000000140011290 f   umodsys_lib_basesys:umodsys.basesys.rsystem_main.obj
 0001:000102c0       ?exec_args@RSystem@rsystem@base@UModSys@@QEAA_NHPEAPEAD@Z 00000001400112c0 f   umodsys_lib_basesys:umodsys.basesys.rsystem_main.obj
 0001:000102f0       ?deinit@RSystem@rsystem@base@UModSys@@QEAA_NXZ 00000001400112f0 f   umodsys_lib_basesys:umodsys.basesys.rsystem_main.obj
 0001:000103a0       ?init@RSystem@rsystem@base@UModSys@@QEAA_NXZ 00000001400113a0 f   umodsys_lib_basesys:umodsys.basesys.rsystem_main.obj
 0001:000104b0       ?get_s@RConsole_std@rsystem@base@UModSys@@UEAA_NPEAD_KPEBDZZ 00000001400114b0 f   umodsys_lib_basesys:umodsys.basesys.rconsole_std.obj
 0001:000104c0       ?vget_s@RConsole_std@rsystem@base@UModSys@@UEAA_NPEAD_KPEBD0@Z 00000001400114c0 f   umodsys_lib_basesys:umodsys.basesys.rconsole_std.obj
 0001:000104d0       ?get_c@RConsole_std@rsystem@base@UModSys@@UEAA_NPEAHPEBDZZ 00000001400114d0 f   umodsys_lib_basesys:umodsys.basesys.rconsole_std.obj
 0001:000104e0       ?vget_c@RConsole_std@rsystem@base@UModSys@@UEAA_NPEAHPEBDPEAD@Z 00000001400114e0 f   umodsys_lib_basesys:umodsys.basesys.rconsole_std.obj
 0001:000104f0       ?put@RConsole_std@rsystem@base@UModSys@@UEAA_NHPEBDZZ 00000001400114f0 f   umodsys_lib_basesys:umodsys.basesys.rconsole_std.obj
 0001:00010560       ?vput@RConsole_std@rsystem@base@UModSys@@UEAA_NHPEBDPEAD@Z 0000000140011560 f   umodsys_lib_basesys:umodsys.basesys.rconsole_std.obj
 0001:000105d0       ?ref_weak@RConsole_std@rsystem@base@UModSys@@UEBA_NAEAUWeakPointer@IRefObject@core@4@@Z 00000001400115d0 f   umodsys_lib_basesys:umodsys.basesys.rconsole_std.obj
 0001:000105e0       ?ref_links@RConsole_std@rsystem@base@UModSys@@UEBAHXZ 00000001400115e0 f   umodsys_lib_basesys:umodsys.basesys.rconsole_std.obj
 0001:000105f0       ?ref_remove@RConsole_std@rsystem@base@UModSys@@UEBAXXZ 00000001400115f0 f   umodsys_lib_basesys:umodsys.basesys.rconsole_std.obj
 0001:00010600       ?ref_add@RConsole_std@rsystem@base@UModSys@@UEBAXXZ 0000000140011600 f   umodsys_lib_basesys:umodsys.basesys.rconsole_std.obj
 0001:00010610       ??0RConsole_std@rsystem@base@UModSys@@QEAA@XZ 0000000140011610 f   umodsys_lib_basesys:umodsys.basesys.rconsole_std.obj
 0001:00010640       ?reflect@RConsole_std@rsystem@base@UModSys@@QEAA_NPEBD@Z 0000000140011640 f   umodsys_lib_basesys:umodsys.basesys.rconsole_std.obj
 0001:000106c0       ??1RConsole_std@rsystem@base@UModSys@@UEAA@XZ 00000001400116c0 f   umodsys_lib_basesys:umodsys.basesys.rconsole_std.obj
 0001:000106f0       ?obj_save@ILibrary@libmedia@UModSys@@UEAA_NAEBU?$TString@U?$TSCoreConst@D@su@tl@UModSys@@U?$TComparerBinaryHash@D@234@@tl@3@PEBUIRefObject@core@3@AEBUSObjOptions@123@@Z 00000001400116f0 f   umodsys_lib_libmedia:umodsys.lib.media.library.obj
 0001:00010700       ?obj_load@ILibrary@libmedia@UModSys@@UEAA_NAEBU?$TString@U?$TSCoreConst@D@su@tl@UModSys@@U?$TComparerBinaryHash@D@234@@tl@3@PEAUIRefObject@core@3@AEBUSObjOptions@123@@Z 0000000140011700 f   umodsys_lib_libmedia:umodsys.lib.media.library.obj
 0001:00010710       ?obj_get@ILibrary@libmedia@UModSys@@UEAA_NAEBU?$TString@U?$TSCoreConst@D@su@tl@UModSys@@U?$TComparerBinaryHash@D@234@@tl@3@AEAU?$TRefObject@UIRefObject@core@UModSys@@U?$TRefObjectFunc@UIRefObject@core@UModSys@@@tl@3@@53@AEBUSObjOptions@123@@Z 0000000140011710 f   umodsys_lib_libmedia:umodsys.lib.media.library.obj
 0001:00010720       ?obj_cput@ILibrary@libmedia@UModSys@@UEAA_NAEBU?$TString@U?$TSCoreConst@D@su@tl@UModSys@@U?$TComparerBinaryHash@D@234@@tl@3@PEAUIRefObject@core@3@@Z 0000000140011720 f   umodsys_lib_libmedia:umodsys.lib.media.library.obj
 0001:00010730       ?obj_cget@ILibrary@libmedia@UModSys@@UEAA_NAEBU?$TString@U?$TSCoreConst@D@su@tl@UModSys@@U?$TComparerBinaryHash@D@234@@tl@3@AEAU?$TRefObject@UIRefObject@core@UModSys@@U?$TRefObjectFunc@UIRefObject@core@UModSys@@@tl@3@@53@_N@Z 0000000140011730 f   umodsys_lib_libmedia:umodsys.lib.media.library.obj
 0001:00010740       ?obj_fsave@ILibrary@libmedia@UModSys@@UEAA_NAEAUSInfo@IBinObjFilter@23@PEBUIRefObject@core@3@@Z 0000000140011740 f   umodsys_lib_libmedia:umodsys.lib.media.library.obj
 0001:00010750       ?obj_fload@ILibrary@libmedia@UModSys@@UEAA_NAEBUSInfo@IBinObjFilter@23@PEAUIRefObject@core@3@@Z 0000000140011750 f   umodsys_lib_libmedia:umodsys.lib.media.library.obj
 0001:00010760       ?obj_fget@ILibrary@libmedia@UModSys@@UEAA_NAEBUSInfo@IBinObjFilter@23@AEAU?$TRefObject@UIRefObject@core@UModSys@@U?$TRefObjectFunc@UIRefObject@core@UModSys@@@tl@3@@tl@3@@Z 0000000140011760 f   umodsys_lib_libmedia:umodsys.lib.media.library.obj
 0001:00010770       ?bin_put@ILibrary@libmedia@UModSys@@UEAA_NAEBU?$TString@U?$TSCoreConst@D@su@tl@UModSys@@U?$TComparerBinaryHash@D@234@@tl@3@PEBUSCMemShared@core@3@@Z 0000000140011770 f   umodsys_lib_libmedia:umodsys.lib.media.library.obj
 0001:00010780       ?bin_get@ILibrary@libmedia@UModSys@@UEAA_NAEBU?$TString@U?$TSCoreConst@D@su@tl@UModSys@@U?$TComparerBinaryHash@D@234@@tl@3@AEAUSCMemShared@core@3@_N@Z 0000000140011780 f   umodsys_lib_libmedia:umodsys.lib.media.library.obj
 0001:00010790       ?bin_info@ILibrary@libmedia@UModSys@@UEAA_NAEBU?$TString@U?$TSCoreConst@D@su@tl@UModSys@@U?$TComparerBinaryHash@D@234@@tl@3@AEAU?$TIStackSocket@USFileInfo@libmedia@UModSys@@@53@AEBUSFlags@23@@Z 0000000140011790 f   umodsys_lib_libmedia:umodsys.lib.media.library.obj
 0001:000107a0       ?bin_info@ILibrary@libmedia@UModSys@@UEAA_NAEBU?$TString@U?$TSCoreConst@D@su@tl@UModSys@@U?$TComparerBinaryHash@D@234@@tl@3@AEAUSFileInfo@23@AEBUSFlags@23@@Z 00000001400117a0 f   umodsys_lib_libmedia:umodsys.lib.media.library.obj
 0001:000107b0       ?bin_save@ILibrary@libmedia@UModSys@@UEAA_NAEBU?$TString@U?$TSCoreConst@D@su@tl@UModSys@@U?$TComparerBinaryHash@D@234@@tl@3@AEBUSCMem@core@3@AEBUSFlags@23@@Z 00000001400117b0 f   umodsys_lib_libmedia:umodsys.lib.media.library.obj
 0001:000107c0       ?bin_load@ILibrary@libmedia@UModSys@@UEAA_NAEBU?$TString@U?$TSCoreConst@D@su@tl@UModSys@@U?$TComparerBinaryHash@D@234@@tl@3@AEAUSCMemShared@core@3@AEBUSFlags@23@@Z 00000001400117c0 f   umodsys_lib_libmedia:umodsys.lib.media.library.obj
 0001:000107d0       ?bin_writer@ILibrary@libmedia@UModSys@@UEAA?AU?$TRefObject@UIStreamWriter@libmedia@UModSys@@U?$TRefObjectFunc@UIStreamWriter@libmedia@UModSys@@@tl@3@@tl@3@AEBU?$TString@U?$TSCoreConst@D@su@tl@UModSys@@U?$TComparerBinaryHash@D@234@@53@AEBUSFlags@23@@Z 00000001400117d0 f   umodsys_lib_libmedia:umodsys.lib.media.library.obj
 0001:000107f0       ?bin_reader@ILibrary@libmedia@UModSys@@UEAA?AU?$TRefObject@UIStreamReader@libmedia@UModSys@@U?$TRefObjectFunc@UIStreamReader@libmedia@UModSys@@@tl@3@@tl@3@AEBU?$TString@U?$TSCoreConst@D@su@tl@UModSys@@U?$TComparerBinaryHash@D@234@@53@AEBUSFlags@23@@Z 00000001400117f0 f   umodsys_lib_libmedia:umodsys.lib.media.library.obj
 0001:00010800       ?mod_dec@RGenerator@stdlib@media@modules@UModSys@@UEBA_NXZ 0000000140011800 f   umodsys_lib_libmedia:umodsys.mod.media.stdlib.obj
 0001:00010820       ?mod_inc@RGenerator@stdlib@media@modules@UModSys@@UEBA_NXZ 0000000140011820 f   umodsys_lib_libmedia:umodsys.mod.media.stdlib.obj
 0001:00010840       ?get_module@RGenerator@stdlib@media@modules@UModSys@@UEBAPEAUIModule@base@5@XZ 0000000140011840 f   umodsys_lib_libmedia:umodsys.mod.media.stdlib.obj
 0001:00010850       ?filters_save@RLibraryObjFilter@stdlib@media@modules@UModSys@@UEAA_NAEAUSInfo@IBinObjFilter@libmedia@5@PEBUIRefObject@core@5@@Z 0000000140011850 f   umodsys_lib_libmedia:umodsys.mod.media.stdlib.obj
 0001:00010920       ?filters_load@RLibraryObjFilter@stdlib@media@modules@UModSys@@UEAA_NAEBUSInfo@IBinObjFilter@libmedia@5@PEAUIRefObject@core@5@@Z 0000000140011920 f   umodsys_lib_libmedia:umodsys.mod.media.stdlib.obj
 0001:000109f0       ?filters_load@RLibraryObjFilter@stdlib@media@modules@UModSys@@UEAA_NAEBUSInfo@IBinObjFilter@libmedia@5@AEAU?$TRefObject@UIRefObject@core@UModSys@@U?$TRefObjectFunc@UIRefObject@core@UModSys@@@tl@3@@tl@5@@Z 00000001400119f0 f   umodsys_lib_libmedia:umodsys.mod.media.stdlib.obj
 0001:00010ac0       ?obj_fsave@RLibraryObjFilter@stdlib@media@modules@UModSys@@UEAA_NAEAUSInfo@IBinObjFilter@libmedia@5@PEBUIRefObject@core@5@@Z 0000000140011ac0 f   umodsys_lib_libmedia:umodsys.mod.media.stdlib.obj
 0001:00010ad0       ?obj_fload@RLibraryObjFilter@stdlib@media@modules@UModSys@@UEAA_NAEBUSInfo@IBinObjFilter@libmedia@5@PEAUIRefObject@core@5@@Z 0000000140011ad0 f   umodsys_lib_libmedia:umodsys.mod.media.stdlib.obj
 0001:00010ae0       ?obj_fget@RLibraryObjFilter@stdlib@media@modules@UModSys@@UEAA_NAEBUSInfo@IBinObjFilter@libmedia@5@AEAU?$TRefObject@UIRefObject@core@UModSys@@U?$TRefObjectFunc@UIRefObject@core@UModSys@@@tl@3@@tl@5@@Z 0000000140011ae0 f   umodsys_lib_libmedia:umodsys.mod.media.stdlib.obj
 0001:00010af0       ?get_flags_auto@RLibraryObjFilter@stdlib@media@modules@UModSys@@UEBA?AU?$TFlags4State@USMediaFlagUid@libmedia@UModSys@@I@tl@5@XZ 0000000140011af0 f   umodsys_lib_libmedia:umodsys.mod.media.stdlib.obj
 0001:00010b10       ?obj_cput@RLibraryObjCache@stdlib@media@modules@UModSys@@UEAA_NAEBU?$TString@U?$TSCoreConst@D@su@tl@UModSys@@U?$TComparerBinaryHash@D@234@@tl@5@PEAUIRefObject@core@5@@Z 0000000140011b10 f   umodsys_lib_libmedia:umodsys.mod.media.stdlib.obj
 0001:00010b20       ?obj_cget@RLibraryObjCache@stdlib@media@modules@UModSys@@UEAA_NAEBU?$TString@U?$TSCoreConst@D@su@tl@UModSys@@U?$TComparerBinaryHash@D@234@@tl@5@AEAU?$TRefObject@UIRefObject@core@UModSys@@U?$TRefObjectFunc@UIRefObject@core@UModSys@@@tl@3@@75@_N@Z 0000000140011b20 f   umodsys_lib_libmedia:umodsys.mod.media.stdlib.obj
 0001:00010b60       ?get_flags_auto@RLibraryObjCache@stdlib@media@modules@UModSys@@UEBA?AU?$TFlags4State@USMediaFlagUid@libmedia@UModSys@@I@tl@5@XZ 0000000140011b60 f   umodsys_lib_libmedia:umodsys.mod.media.stdlib.obj
 0001:00010b80       ?layer_count@RLibraryLayered@stdlib@media@modules@UModSys@@UEBA_KAEBUSLayer@ILibraryLayered@libmedia@5@@Z 0000000140011b80 f   umodsys_lib_libmedia:umodsys.mod.media.stdlib.obj
 0001:00010b90       ?obj_cput@RLibraryLayered@stdlib@media@modules@UModSys@@UEAA_NAEBU?$TString@U?$TSCoreConst@D@su@tl@UModSys@@U?$TComparerBinaryHash@D@234@@tl@5@PEAUIRefObject@core@5@@Z 0000000140011b90 f   umodsys_lib_libmedia:umodsys.mod.media.stdlib.obj
 0001:00010c10       ?obj_cget@RLibraryLayered@stdlib@media@modules@UModSys@@UEAA_NAEBU?$TString@U?$TSCoreConst@D@su@tl@UModSys@@U?$TComparerBinaryHash@D@234@@tl@5@AEAU?$TRefObject@UIRefObject@core@UModSys@@U?$TRefObjectFunc@UIRefObject@core@UModSys@@@tl@3@@75@_N@Z 0000000140011c10 f   umodsys_lib_libmedia:umodsys.mod.media.stdlib.obj
 0001:00010ca0       ?obj_fsave@RLibraryLayered@stdlib@media@modules@UModSys@@UEAA_NAEAUSInfo@IBinObjFilter@libmedia@5@PEBUIRefObject@core@5@@Z 0000000140011ca0 f   umodsys_lib_libmedia:umodsys.mod.media.stdlib.obj
 0001:00010d20       ?obj_fload@RLibraryLayered@stdlib@media@modules@UModSys@@UEAA_NAEBUSInfo@IBinObjFilter@libmedia@5@PEAUIRefObject@core@5@@Z 0000000140011d20 f   umodsys_lib_libmedia:umodsys.mod.media.stdlib.obj
 0001:00010da0       ?obj_fget@RLibraryLayered@stdlib@media@modules@UModSys@@UEAA_NAEBUSInfo@IBinObjFilter@libmedia@5@AEAU?$TRefObject@UIRefObject@core@UModSys@@U?$TRefObjectFunc@UIRefObject@core@UModSys@@@tl@3@@tl@5@@Z 0000000140011da0 f   umodsys_lib_libmedia:umodsys.mod.media.stdlib.obj
 0001:00010e20       ?bin_put@RLibraryLayered@stdlib@media@modules@UModSys@@UEAA_NAEBU?$TString@U?$TSCoreConst@D@su@tl@UModSys@@U?$TComparerBinaryHash@D@234@@tl@5@PEBUSCMemShared@core@5@@Z 0000000140011e20 f   umodsys_lib_libmedia:umodsys.mod.media.stdlib.obj
 0001:00010ea0       ?bin_get@RLibraryLayered@stdlib@media@modules@UModSys@@UEAA_NAEBU?$TString@U?$TSCoreConst@D@su@tl@UModSys@@U?$TComparerBinaryHash@D@234@@tl@5@AEAUSCMemShared@core@5@_N@Z 0000000140011ea0 f   umodsys_lib_libmedia:umodsys.mod.media.stdlib.obj
 0001:00010f30       ?get_flags_auto@RLibraryLayered@stdlib@media@modules@UModSys@@UEBA?AU?$TFlags4State@USMediaFlagUid@libmedia@UModSys@@I@tl@5@XZ 0000000140011f30 f   umodsys_lib_libmedia:umodsys.mod.media.stdlib.obj
 0001:00010f50       ?bin_put@RLibraryBinCache@stdlib@media@modules@UModSys@@UEAA_NAEBU?$TString@U?$TSCoreConst@D@su@tl@UModSys@@U?$TComparerBinaryHash@D@234@@tl@5@PEBUSCMemShared@core@5@@Z 0000000140011f50 f   umodsys_lib_libmedia:umodsys.mod.media.stdlib.obj
 0001:00010f70       ?bin_get@RLibraryBinCache@stdlib@media@modules@UModSys@@UEAA_NAEBU?$TString@U?$TSCoreConst@D@su@tl@UModSys@@U?$TComparerBinaryHash@D@234@@tl@5@AEAUSCMemShared@core@5@_N@Z 0000000140011f70 f   umodsys_lib_libmedia:umodsys.mod.media.stdlib.obj
 0001:00010fb0       ?bin_load@RLibraryBinCache@stdlib@media@modules@UModSys@@UEAA_NAEBU?$TString@U?$TSCoreConst@D@su@tl@UModSys@@U?$TComparerBinaryHash@D@234@@tl@5@AEAUSCMemShared@core@5@AEBUSFlags@libmedia@5@@Z 0000000140011fb0 f   umodsys_lib_libmedia:umodsys.mod.media.stdlib.obj
 0001:00011050       ?get_flags_auto@RLibraryBinCache@stdlib@media@modules@UModSys@@UEBA?AU?$TFlags4State@USMediaFlagUid@libmedia@UModSys@@I@tl@5@XZ 0000000140012050 f   umodsys_lib_libmedia:umodsys.mod.media.stdlib.obj
 0001:00011070       ?get_flags_auto@RLibraryBinTree@stdlib@media@modules@UModSys@@UEBA?AU?$TFlags4State@USMediaFlagUid@libmedia@UModSys@@I@tl@5@XZ 0000000140012070 f   umodsys_lib_libmedia:umodsys.mod.media.stdlib.obj
 0001:00011090       ?open@RBinArchiveFrame@stdlib@media@modules@UModSys@@QEAA_NAEBUSParameters@core@5@@Z 0000000140012090 f   umodsys_lib_libmedia:umodsys.mod.media.stdlib.obj
 0001:000110b0       ?get_permissions@RBinArchiveFrame@stdlib@media@modules@UModSys@@UEAAHXZ 00000001400120b0 f   umodsys_lib_libmedia:umodsys.mod.media.stdlib.obj
 0001:000110d0       ?data_load@RBinArchiveFrame@stdlib@media@modules@UModSys@@UEAA_NAEBU?$TString@U?$TSCoreConst@D@su@tl@UModSys@@U?$TComparerBinaryHash@D@234@@tl@5@AEAUSCMemShared@core@5@AEBUSFlags@libmedia@5@@Z 00000001400120d0 f   umodsys_lib_libmedia:umodsys.mod.media.stdlib.obj
 0001:00011160       ?get_flags_auto@RBinArchiveFrame@stdlib@media@modules@UModSys@@UEBA?AU?$TFlags4State@USMediaFlagUid@libmedia@UModSys@@I@tl@5@XZ 0000000140012160 f   umodsys_lib_libmedia:umodsys.mod.media.stdlib.obj
 0001:00011180       ?s_holder@RGenerator@stdlib@media@modules@UModSys@@SAAEAU?$TTypeStaticHolder@URGenerator@stdlib@media@modules@UModSys@@@tl@5@XZ 0000000140012180 f   umodsys_lib_libmedia:umodsys.mod.media.stdlib.obj
 0001:000111d0       ?filters_remove@RLibraryObjFilter@stdlib@media@modules@UModSys@@UEAA_NPEAUIBinObjFilter@libmedia@5@H@Z 00000001400121d0 f   umodsys_lib_libmedia:umodsys.mod.media.stdlib.obj
 0001:00011280       ?get_flag@RLibraryObjFilter@stdlib@media@modules@UModSys@@UEBA?AW4eStates@?$TFlags4State@USMediaFlagUid@libmedia@UModSys@@I@tl@5@H@Z 0000000140012280 f   umodsys_lib_libmedia:umodsys.mod.media.stdlib.obj
 0001:000112a0       ?get_flag@RLibraryObjCache@stdlib@media@modules@UModSys@@UEBA?AW4eStates@?$TFlags4State@USMediaFlagUid@libmedia@UModSys@@I@tl@5@H@Z 00000001400122a0 f   umodsys_lib_libmedia:umodsys.mod.media.stdlib.obj
 0001:000112c0       ?layer_find@RLibraryLayered@stdlib@media@modules@UModSys@@UEBA_KAEBU?$TString@U?$TSCoreConst@D@su@tl@UModSys@@U?$TComparerBinaryHash@D@234@@tl@5@_K@Z 00000001400122c0 f   umodsys_lib_libmedia:umodsys.mod.media.stdlib.obj
 0001:00011370       ?layer_get@RLibraryLayered@stdlib@media@modules@UModSys@@UEBA?AUSLayer@ILibraryLayered@libmedia@5@_K@Z 0000000140012370 f   umodsys_lib_libmedia:umodsys.mod.media.stdlib.obj
 0001:000113e0       ?get_flag@RLibraryLayered@stdlib@media@modules@UModSys@@UEBA?AW4eStates@?$TFlags4State@USMediaFlagUid@libmedia@UModSys@@I@tl@5@H@Z 00000001400123e0 f   umodsys_lib_libmedia:umodsys.mod.media.stdlib.obj
 0001:00011400       ?bin_writer@RLibraryBinCache@stdlib@media@modules@UModSys@@UEAA?AU?$TRefObject@UIStreamWriter@libmedia@UModSys@@U?$TRefObjectFunc@UIStreamWriter@libmedia@UModSys@@@tl@3@@tl@5@AEBU?$TString@U?$TSCoreConst@D@su@tl@UModSys@@U?$TComparerBinaryHash@D@234@@75@AEBUSFlags@libmedia@5@@Z 0000000140012400 f   umodsys_lib_libmedia:umodsys.mod.media.stdlib.obj
 0001:00011420       ?bin_reader@RLibraryBinCache@stdlib@media@modules@UModSys@@UEAA?AU?$TRefObject@UIStreamReader@libmedia@UModSys@@U?$TRefObjectFunc@UIStreamReader@libmedia@UModSys@@@tl@3@@tl@5@AEBU?$TString@U?$TSCoreConst@D@su@tl@UModSys@@U?$TComparerBinaryHash@D@234@@75@AEBUSFlags@libmedia@5@@Z 0000000140012420 f   umodsys_lib_libmedia:umodsys.mod.media.stdlib.obj
 0001:00011440       ?get_flag@RLibraryBinCache@stdlib@media@modules@UModSys@@UEBA?AW4eStates@?$TFlags4State@USMediaFlagUid@libmedia@UModSys@@I@tl@5@H@Z 0000000140012440 f   umodsys_lib_libmedia:umodsys.mod.media.stdlib.obj
 0001:00011460       ?get_flag@RLibraryBinTree@stdlib@media@modules@UModSys@@UEBA?AW4eStates@?$TFlags4State@USMediaFlagUid@libmedia@UModSys@@I@tl@5@H@Z 0000000140012460 f   umodsys_lib_libmedia:umodsys.mod.media.stdlib.obj
 0001:00011480       ?closew@RBinArchiveFrame@stdlib@media@modules@UModSys@@QEAA_N_N@Z 0000000140012480 f   umodsys_lib_libmedia:umodsys.mod.media.stdlib.obj
 0001:00011670       ?kill_node@RBinArchiveFrame@stdlib@media@modules@UModSys@@SA_NPEAUNameNode@IBinArchiveFrame@libmedia@5@@Z 0000000140012670 f   umodsys_lib_libmedia:umodsys.mod.media.stdlib.obj
 0001:000116a0       ?node_size@RBinArchiveFrame@stdlib@media@modules@UModSys@@UEAA_KAEBU?$TString@U?$TSCoreConst@D@su@tl@UModSys@@U?$TComparerBinaryHash@D@234@@tl@5@H@Z 00000001400126a0 f   umodsys_lib_libmedia:umodsys.mod.media.stdlib.obj
 0001:000116c0       ?remove_node@RBinArchiveFrame@stdlib@media@modules@UModSys@@UEAA_NPEAUNameNode@IBinArchiveFrame@libmedia@5@@Z 00000001400126c0 f   umodsys_lib_libmedia:umodsys.mod.media.stdlib.obj
 0001:000116f0       ?close@RBinArchiveFrame@stdlib@media@modules@UModSys@@UEAA_NXZ 00000001400126f0 f   umodsys_lib_libmedia:umodsys.mod.media.stdlib.obj
 0001:00011780       ?data_save@RBinArchiveFrame@stdlib@media@modules@UModSys@@UEAA_NAEBU?$TString@U?$TSCoreConst@D@su@tl@UModSys@@U?$TComparerBinaryHash@D@234@@tl@5@AEBUSCMem@core@5@AEBUSFlags@libmedia@5@@Z 0000000140012780 f   umodsys_lib_libmedia:umodsys.mod.media.stdlib.obj
 0001:000117c0       ?data_writer@RBinArchiveFrame@stdlib@media@modules@UModSys@@UEAA?AU?$TRefObject@UIStreamWriter@libmedia@UModSys@@U?$TRefObjectFunc@UIStreamWriter@libmedia@UModSys@@@tl@3@@tl@5@AEBU?$TString@U?$TSCoreConst@D@su@tl@UModSys@@U?$TComparerBinaryHash@D@234@@75@AEBUSFlags@libmedia@5@@Z 00000001400127c0 f   umodsys_lib_libmedia:umodsys.mod.media.stdlib.obj
 0001:00011820       ?data_reader@RBinArchiveFrame@stdlib@media@modules@UModSys@@UEAA?AU?$TRefObject@UIStreamReader@libmedia@UModSys@@U?$TRefObjectFunc@UIStreamReader@libmedia@UModSys@@@tl@3@@tl@5@AEBU?$TString@U?$TSCoreConst@D@su@tl@UModSys@@U?$TComparerBinaryHash@D@234@@75@AEBUSFlags@libmedia@5@@Z 0000000140012820 f   umodsys_lib_libmedia:umodsys.mod.media.stdlib.obj
 0001:00011930       ?get_flag@RBinArchiveFrame@stdlib@media@modules@UModSys@@UEBA?AW4eStates@?$TFlags4State@USMediaFlagUid@libmedia@UModSys@@I@tl@5@H@Z 0000000140012930 f   umodsys_lib_libmedia:umodsys.mod.media.stdlib.obj
 0001:00011950       ?mem_writer@RUtilities@stdlib@media@modules@UModSys@@UEAA?AU?$TRefObject@UIStreamWriter@libmedia@UModSys@@U?$TRefObjectFunc@UIStreamWriter@libmedia@UModSys@@@tl@3@@tl@5@PEBUSMem@core@5@PEAUIMemWriterCompleted@IUtilities@libmedia@5@PEAUIRefObject@95@@Z 0000000140012950 f   umodsys_lib_libmedia:umodsys.mod.media.stdlib.obj
 0001:00011970       ?mem_reader@RUtilities@stdlib@media@modules@UModSys@@UEAA?AU?$TRefObject@UIStreamReader@libmedia@UModSys@@U?$TRefObjectFunc@UIStreamReader@libmedia@UModSys@@@tl@3@@tl@5@AEBUSCMemShared@core@5@@Z 0000000140012970 f   umodsys_lib_libmedia:umodsys.mod.media.stdlib.obj
 0001:00011990       ?mem_reader@RUtilities@stdlib@media@modules@UModSys@@UEAA?AU?$TRefObject@UIStreamReader@libmedia@UModSys@@U?$TRefObjectFunc@UIStreamReader@libmedia@UModSys@@@tl@3@@tl@5@AEBUSCMem@core@5@@Z 0000000140012990 f   umodsys_lib_libmedia:umodsys.mod.media.stdlib.obj
 0001:000119b0       ?sub_writer@RUtilities@stdlib@media@modules@UModSys@@UEAA?AU?$TRefObject@UIStreamWriter@libmedia@UModSys@@U?$TRefObjectFunc@UIStreamWriter@libmedia@UModSys@@@tl@3@@tl@5@PEAUIStreamWriter@libmedia@5@_J1@Z 00000001400129b0 f   umodsys_lib_libmedia:umodsys.mod.media.stdlib.obj
 0001:000119d0       ?sub_reader@RUtilities@stdlib@media@modules@UModSys@@UEAA?AU?$TRefObject@UIStreamReader@libmedia@UModSys@@U?$TRefObjectFunc@UIStreamReader@libmedia@UModSys@@@tl@3@@tl@5@PEAUIStreamReader@libmedia@5@_J1@Z 00000001400129d0 f   umodsys_lib_libmedia:umodsys.mod.media.stdlib.obj
 0001:000119f0       ?buffer_free@RUtilities@stdlib@media@modules@UModSys@@UEAA_NAEAUSBuffer@libmedia@5@PEBUSSourceContext@core@5@@Z 00000001400129f0 f   umodsys_lib_libmedia:umodsys.mod.media.stdlib.obj
 0001:00011a40       ?s_unreg@RGenerator@stdlib@media@modules@UModSys@@SA_NPEAUIModuleReg@base@5@@Z 0000000140012a40 f   umodsys_lib_libmedia:umodsys.mod.media.stdlib.obj
 0001:00011ab0       ?s_reg@RGenerator@stdlib@media@modules@UModSys@@SA_NPEAUIModuleReg@base@5@@Z 0000000140012ab0 f   umodsys_lib_libmedia:umodsys.mod.media.stdlib.obj
 0001:00011b30       ?filters_clear@RLibraryObjFilter@stdlib@media@modules@UModSys@@UEAA_NXZ 0000000140012b30 f   umodsys_lib_libmedia:umodsys.mod.media.stdlib.obj
 0001:00011b70       ?filters_add@RLibraryObjFilter@stdlib@media@modules@UModSys@@UEAA_NU?$TRefObject@UIBinObjFilter@libmedia@UModSys@@U?$TRefObjectFunc@UIBinObjFilter@libmedia@UModSys@@@tl@3@@tl@5@PEBUSParameters@core@5@H@Z 0000000140012b70 f   umodsys_lib_libmedia:umodsys.mod.media.stdlib.obj
 0001:00011ca0       ?set_flag@RLibraryObjFilter@stdlib@media@modules@UModSys@@UEAA?AW4eStates@?$TFlags4State@USMediaFlagUid@libmedia@UModSys@@I@tl@5@HW46785@@Z 0000000140012ca0 f   umodsys_lib_libmedia:umodsys.mod.media.stdlib.obj
 0001:00011cd0       ?objcache_get@RLibraryObjCache@stdlib@media@modules@UModSys@@UEBA_NAEBU?$TString@U?$TSCoreConst@D@su@tl@UModSys@@U?$TComparerBinaryHash@D@234@@tl@5@PEAU?$TRefObject@UIRefObject@core@UModSys@@U?$TRefObjectFunc@UIRefObject@core@UModSys@@@tl@3@@75@PEA_N@Z 0000000140012cd0 f   umodsys_lib_libmedia:umodsys.mod.media.stdlib.obj
 0001:00011d80       ?set_flag@RLibraryObjCache@stdlib@media@modules@UModSys@@UEAA?AW4eStates@?$TFlags4State@USMediaFlagUid@libmedia@UModSys@@I@tl@5@HW46785@@Z 0000000140012d80 f   umodsys_lib_libmedia:umodsys.mod.media.stdlib.obj
 0001:00011db0       ?set_flag@RLibraryLayered@stdlib@media@modules@UModSys@@UEAA?AW4eStates@?$TFlags4State@USMediaFlagUid@libmedia@UModSys@@I@tl@5@HW46785@@Z 0000000140012db0 f   umodsys_lib_libmedia:umodsys.mod.media.stdlib.obj
 0001:00011de0       ?bincache_get@RLibraryBinCache@stdlib@media@modules@UModSys@@UEBA_NAEBU?$TString@U?$TSCoreConst@D@su@tl@UModSys@@U?$TComparerBinaryHash@D@234@@tl@5@PEAUSCMemShared@core@5@PEA_N@Z 0000000140012de0 f   umodsys_lib_libmedia:umodsys.mod.media.stdlib.obj
 0001:00011ea0       ?set_flag@RLibraryBinCache@stdlib@media@modules@UModSys@@UEAA?AW4eStates@?$TFlags4State@USMediaFlagUid@libmedia@UModSys@@I@tl@5@HW46785@@Z 0000000140012ea0 f   umodsys_lib_libmedia:umodsys.mod.media.stdlib.obj
 0001:00011ed0       ?mount_get@RLibraryBinTree@stdlib@media@modules@UModSys@@UEBA?AUSPoint@ILibraryBinTree@libmedia@5@AEBUSId@785@@Z 0000000140012ed0 f   umodsys_lib_libmedia:umodsys.mod.media.stdlib.obj
 0001:00011f50       ?bin_info@RLibraryBinTree@stdlib@media@modules@UModSys@@UEAA_NAEBU?$TString@U?$TSCoreConst@D@su@tl@UModSys@@U?$TComparerBinaryHash@D@234@@tl@5@AEAU?$TIStackSocket@USFileInfo@libmedia@UModSys@@@75@AEBUSFlags@libmedia@5@@Z 0000000140012f50 f   umodsys_lib_libmedia:umodsys.mod.media.stdlib.obj
 0001:000120a0       ?bin_info@RLibraryBinTree@stdlib@media@modules@UModSys@@UEAA_NAEBU?$TString@U?$TSCoreConst@D@su@tl@UModSys@@U?$TComparerBinaryHash@D@234@@tl@5@AEAUSFileInfo@libmedia@5@AEBUSFlags@95@@Z 00000001400130a0 f   umodsys_lib_libmedia:umodsys.mod.media.stdlib.obj
 0001:000121d0       ?bin_save@RLibraryBinTree@stdlib@media@modules@UModSys@@UEAA_NAEBU?$TString@U?$TSCoreConst@D@su@tl@UModSys@@U?$TComparerBinaryHash@D@234@@tl@5@AEBUSCMem@core@5@AEBUSFlags@libmedia@5@@Z 00000001400131d0 f   umodsys_lib_libmedia:umodsys.mod.media.stdlib.obj
 0001:00012380       ?bin_load@RLibraryBinTree@stdlib@media@modules@UModSys@@UEAA_NAEBU?$TString@U?$TSCoreConst@D@su@tl@UModSys@@U?$TComparerBinaryHash@D@234@@tl@5@AEAUSCMemShared@core@5@AEBUSFlags@libmedia@5@@Z 0000000140013380 f   umodsys_lib_libmedia:umodsys.mod.media.stdlib.obj
 0001:00012530       ?bin_writer@RLibraryBinTree@stdlib@media@modules@UModSys@@UEAA?AU?$TRefObject@UIStreamWriter@libmedia@UModSys@@U?$TRefObjectFunc@UIStreamWriter@libmedia@UModSys@@@tl@3@@tl@5@AEBU?$TString@U?$TSCoreConst@D@su@tl@UModSys@@U?$TComparerBinaryHash@D@234@@75@AEBUSFlags@libmedia@5@@Z 0000000140013530 f   umodsys_lib_libmedia:umodsys.mod.media.stdlib.obj
 0001:00012710       ?bin_reader@RLibraryBinTree@stdlib@media@modules@UModSys@@UEAA?AU?$TRefObject@UIStreamReader@libmedia@UModSys@@U?$TRefObjectFunc@UIStreamReader@libmedia@UModSys@@@tl@3@@tl@5@AEBU?$TString@U?$TSCoreConst@D@su@tl@UModSys@@U?$TComparerBinaryHash@D@234@@75@AEBUSFlags@libmedia@5@@Z 0000000140013710 f   umodsys_lib_libmedia:umodsys.mod.media.stdlib.obj
 0001:000128f0       ?set_flag@RLibraryBinTree@stdlib@media@modules@UModSys@@UEAA?AW4eStates@?$TFlags4State@USMediaFlagUid@libmedia@UModSys@@I@tl@5@HW46785@@Z 00000001400138f0 f   umodsys_lib_libmedia:umodsys.mod.media.stdlib.obj
 0001:00012920       ??0RBinArchiveFrame@stdlib@media@modules@UModSys@@QEAA@PEAUIModObject@base@4@AEBUSParameters@core@4@U?$TFlags4State@USMediaFlagUid@libmedia@UModSys@@I@tl@4@@Z 0000000140013920 f   umodsys_lib_libmedia:umodsys.mod.media.stdlib.obj
 0001:00012a30       ?set_flag@RBinArchiveFrame@stdlib@media@modules@UModSys@@UEAA?AW4eStates@?$TFlags4State@USMediaFlagUid@libmedia@UModSys@@I@tl@5@HW46785@@Z 0000000140013a30 f   umodsys_lib_libmedia:umodsys.mod.media.stdlib.obj
 0001:00012a70       ??0RLibraryObjFilter@stdlib@media@modules@UModSys@@QEAA@PEAUIModObject@base@4@AEBUSParameters@core@4@U?$TFlags4State@USMediaFlagUid@libmedia@UModSys@@I@tl@4@@Z 0000000140013a70 f   umodsys_lib_libmedia:umodsys.mod.media.stdlib.obj
 0001:00012b10       ?objcache_remove@RLibraryObjCache@stdlib@media@modules@UModSys@@UEAA_NAEBU?$TString@U?$TSCoreConst@D@su@tl@UModSys@@U?$TComparerBinaryHash@D@234@@tl@5@@Z 0000000140013b10 f   umodsys_lib_libmedia:umodsys.mod.media.stdlib.obj
 0001:00012b90       ?obj_get@RLibraryObjCache@stdlib@media@modules@UModSys@@UEAA_NAEBU?$TString@U?$TSCoreConst@D@su@tl@UModSys@@U?$TComparerBinaryHash@D@234@@tl@5@AEAU?$TRefObject@UIRefObject@core@UModSys@@U?$TRefObjectFunc@UIRefObject@core@UModSys@@@tl@3@@75@AEBUSObjOptions@ILibrary@libmedia@5@@Z 0000000140013b90 f   umodsys_lib_libmedia:umodsys.mod.media.stdlib.obj
 0001:00012d10       ?obj_get@RLibraryLayered@stdlib@media@modules@UModSys@@UEAA_NAEBU?$TString@U?$TSCoreConst@D@su@tl@UModSys@@U?$TComparerBinaryHash@D@234@@tl@5@AEAU?$TRefObject@UIRefObject@core@UModSys@@U?$TRefObjectFunc@UIRefObject@core@UModSys@@@tl@3@@75@AEBUSObjOptions@ILibrary@libmedia@5@@Z 0000000140013d10 f   umodsys_lib_libmedia:umodsys.mod.media.stdlib.obj
 0001:00013150       ?bin_info@RLibraryLayered@stdlib@media@modules@UModSys@@UEAA_NAEBU?$TString@U?$TSCoreConst@D@su@tl@UModSys@@U?$TComparerBinaryHash@D@234@@tl@5@AEAU?$TIStackSocket@USFileInfo@libmedia@UModSys@@@75@AEBUSFlags@libmedia@5@@Z 0000000140014150 f   umodsys_lib_libmedia:umodsys.mod.media.stdlib.obj
 0001:00013220       ?bin_info@RLibraryLayered@stdlib@media@modules@UModSys@@UEAA_NAEBU?$TString@U?$TSCoreConst@D@su@tl@UModSys@@U?$TComparerBinaryHash@D@234@@tl@5@AEAUSFileInfo@libmedia@5@AEBUSFlags@95@@Z 0000000140014220 f   umodsys_lib_libmedia:umodsys.mod.media.stdlib.obj
 0001:000132e0       ?bin_save@RLibraryLayered@stdlib@media@modules@UModSys@@UEAA_NAEBU?$TString@U?$TSCoreConst@D@su@tl@UModSys@@U?$TComparerBinaryHash@D@234@@tl@5@AEBUSCMem@core@5@AEBUSFlags@libmedia@5@@Z 00000001400142e0 f   umodsys_lib_libmedia:umodsys.mod.media.stdlib.obj
 0001:000134f0       ?bin_load@RLibraryLayered@stdlib@media@modules@UModSys@@UEAA_NAEBU?$TString@U?$TSCoreConst@D@su@tl@UModSys@@U?$TComparerBinaryHash@D@234@@tl@5@AEAUSCMemShared@core@5@AEBUSFlags@libmedia@5@@Z 00000001400144f0 f   umodsys_lib_libmedia:umodsys.mod.media.stdlib.obj
 0001:000136c0       ?bin_writer@RLibraryLayered@stdlib@media@modules@UModSys@@UEAA?AU?$TRefObject@UIStreamWriter@libmedia@UModSys@@U?$TRefObjectFunc@UIStreamWriter@libmedia@UModSys@@@tl@3@@tl@5@AEBU?$TString@U?$TSCoreConst@D@su@tl@UModSys@@U?$TComparerBinaryHash@D@234@@75@AEBUSFlags@libmedia@5@@Z 00000001400146c0 f   umodsys_lib_libmedia:umodsys.mod.media.stdlib.obj
 0001:000137c0       ?bin_reader@RLibraryLayered@stdlib@media@modules@UModSys@@UEAA?AU?$TRefObject@UIStreamReader@libmedia@UModSys@@U?$TRefObjectFunc@UIStreamReader@libmedia@UModSys@@@tl@3@@tl@5@AEBU?$TString@U?$TSCoreConst@D@su@tl@UModSys@@U?$TComparerBinaryHash@D@234@@75@AEBUSFlags@libmedia@5@@Z 00000001400147c0 f   umodsys_lib_libmedia:umodsys.mod.media.stdlib.obj
 0001:000138c0       ?bincache_remove@RLibraryBinCache@stdlib@media@modules@UModSys@@UEAA_NAEBU?$TString@U?$TSCoreConst@D@su@tl@UModSys@@U?$TComparerBinaryHash@D@234@@tl@5@@Z 00000001400148c0 f   umodsys_lib_libmedia:umodsys.mod.media.stdlib.obj
 0001:00013940       ?mount_remove@RLibraryBinTree@stdlib@media@modules@UModSys@@UEAA_NAEBUSId@ILibraryBinTree@libmedia@5@@Z 0000000140014940 f   umodsys_lib_libmedia:umodsys.mod.media.stdlib.obj
 0001:000139c0       ??1RBinArchiveFrame@stdlib@media@modules@UModSys@@UEAA@XZ 00000001400149c0 f   umodsys_lib_libmedia:umodsys.mod.media.stdlib.obj
 0001:00013a70       ?openr@RBinArchiveFrame@stdlib@media@modules@UModSys@@QEAA_NPEAUILibrary@libmedia@5@AEBU?$TString@U?$TSCoreConst@D@su@tl@UModSys@@U?$TComparerBinaryHash@D@234@@tl@5@PEBUSParameters@core@5@@Z 0000000140014a70 f   umodsys_lib_libmedia:umodsys.mod.media.stdlib.obj
 0001:00013bf0       ?open@RBinArchiveFrame@stdlib@media@modules@UModSys@@UEAA_NPEAUIClient@IBinArchiveFrame@libmedia@5@PEBUSParameters@core@5@@Z 0000000140014bf0 f   umodsys_lib_libmedia:umodsys.mod.media.stdlib.obj
 0001:00014140       ??1RUtilities@stdlib@media@modules@UModSys@@UEAA@XZ 0000000140015140 f   umodsys_lib_libmedia:umodsys.mod.media.stdlib.obj
 0001:00014170       ??0RUtilities@stdlib@media@modules@UModSys@@QEAA@PEAUIModObject@base@4@AEBUSParameters@core@4@@Z 0000000140015170 f   umodsys_lib_libmedia:umodsys.mod.media.stdlib.obj
 0001:00014210       ?buffer_alloc@RUtilities@stdlib@media@modules@UModSys@@UEAA_NAEAUSBuffer@libmedia@5@_KPEBUSSourceContext@core@5@@Z 0000000140015210 f   umodsys_lib_libmedia:umodsys.mod.media.stdlib.obj
 0001:00014330       ??1RLibraryObjFilter@stdlib@media@modules@UModSys@@UEAA@XZ 0000000140015330 f   umodsys_lib_libmedia:umodsys.mod.media.stdlib.obj
 0001:000143a0       ?objcache_clear@RLibraryObjCache@stdlib@media@modules@UModSys@@UEAA_NXZ 00000001400153a0 f   umodsys_lib_libmedia:umodsys.mod.media.stdlib.obj
 0001:000143e0       ??1RLibraryObjCache@stdlib@media@modules@UModSys@@UEAA@XZ 00000001400153e0 f   umodsys_lib_libmedia:umodsys.mod.media.stdlib.obj
 0001:00014450       ??0RLibraryObjCache@stdlib@media@modules@UModSys@@QEAA@PEAUIModObject@base@4@AEBUSParameters@core@4@U?$TFlags4State@USMediaFlagUid@libmedia@UModSys@@I@tl@4@@Z 0000000140015450 f   umodsys_lib_libmedia:umodsys.mod.media.stdlib.obj
 0001:000144f0       ?layer_clear@RLibraryLayered@stdlib@media@modules@UModSys@@UEAA_NXZ 00000001400154f0 f   umodsys_lib_libmedia:umodsys.mod.media.stdlib.obj
 0001:00014510       ?layer_remove@RLibraryLayered@stdlib@media@modules@UModSys@@UEAA_N_K@Z 0000000140015510 f   umodsys_lib_libmedia:umodsys.mod.media.stdlib.obj
 0001:000145c0       ?obj_save@RLibraryLayered@stdlib@media@modules@UModSys@@UEAA_NAEBU?$TString@U?$TSCoreConst@D@su@tl@UModSys@@U?$TComparerBinaryHash@D@234@@tl@5@PEBUIRefObject@core@5@AEBUSObjOptions@ILibrary@libmedia@5@@Z 00000001400155c0 f   umodsys_lib_libmedia:umodsys.mod.media.stdlib.obj
 0001:00014800       ?obj_load@RLibraryLayered@stdlib@media@modules@UModSys@@UEAA_NAEBU?$TString@U?$TSCoreConst@D@su@tl@UModSys@@U?$TComparerBinaryHash@D@234@@tl@5@PEAUIRefObject@core@5@AEBUSObjOptions@ILibrary@libmedia@5@@Z 0000000140015800 f   umodsys_lib_libmedia:umodsys.mod.media.stdlib.obj
 0001:000149c0       ?bincache_clear@RLibraryBinCache@stdlib@media@modules@UModSys@@UEAA_NXZ 00000001400159c0 f   umodsys_lib_libmedia:umodsys.mod.media.stdlib.obj
 0001:00014a00       ??1RLibraryBinCache@stdlib@media@modules@UModSys@@UEAA@XZ 0000000140015a00 f   umodsys_lib_libmedia:umodsys.mod.media.stdlib.obj
 0001:00014a70       ??0RLibraryBinCache@stdlib@media@modules@UModSys@@QEAA@PEAUIModObject@base@4@AEBUSParameters@core@4@U?$TFlags4State@USMediaFlagUid@libmedia@UModSys@@I@tl@4@@Z 0000000140015a70 f   umodsys_lib_libmedia:umodsys.mod.media.stdlib.obj
 0001:00014b10       ?mount_clear@RLibraryBinTree@stdlib@media@modules@UModSys@@UEAA_NXZ 0000000140015b10 f   umodsys_lib_libmedia:umodsys.mod.media.stdlib.obj
 0001:00014b50       ??1RLibraryBinTree@stdlib@media@modules@UModSys@@UEAA@XZ 0000000140015b50 f   umodsys_lib_libmedia:umodsys.mod.media.stdlib.obj
 0001:00014bc0       ??0RLibraryBinTree@stdlib@media@modules@UModSys@@QEAA@PEAUIModObject@base@4@AEBUSParameters@core@4@U?$TFlags4State@USMediaFlagUid@libmedia@UModSys@@I@tl@4@@Z 0000000140015bc0 f   umodsys_lib_libmedia:umodsys.mod.media.stdlib.obj
 0001:00014c60       ?fill_info@RBinArchiveFrame@stdlib@media@modules@UModSys@@QEAA_NAEAUSFileInfo@libmedia@5@PEAUNameNode@IBinArchiveFrame@75@AEBU?$TString@U?$TSCoreConst@D@su@tl@UModSys@@U?$TComparerBinaryHash@D@234@@tl@5@_K@Z 0000000140015c60 f   umodsys_lib_libmedia:umodsys.mod.media.stdlib.obj
 0001:00015010       ?find_node@RBinArchiveFrame@stdlib@media@modules@UModSys@@UEAAPEAUNameNode@IBinArchiveFrame@libmedia@5@AEBU?$TString@U?$TSCoreConst@D@su@tl@UModSys@@U?$TComparerBinaryHash@D@234@@tl@5@@Z 0000000140016010 f   umodsys_lib_libmedia:umodsys.mod.media.stdlib.obj
 0001:00015090       ?data_list@RBinArchiveFrame@stdlib@media@modules@UModSys@@UEAA_NAEBU?$TString@U?$TSCoreConst@D@su@tl@UModSys@@U?$TComparerBinaryHash@D@234@@tl@5@_KAEAUSFileInfo@libmedia@5@AEBUSFlags@95@@Z 0000000140016090 f   umodsys_lib_libmedia:umodsys.mod.media.stdlib.obj
 0001:00015200       ?data_list@RBinArchiveFrame@stdlib@media@modules@UModSys@@UEAA_NAEBU?$TString@U?$TSCoreConst@D@su@tl@UModSys@@U?$TComparerBinaryHash@D@234@@tl@5@_KAEAU?$TIStackSocket@USFileInfo@libmedia@UModSys@@@75@AEBUSFlags@libmedia@5@@Z 0000000140016200 f   umodsys_lib_libmedia:umodsys.mod.media.stdlib.obj
 0001:00015550       ?objcache_add@RLibraryObjCache@stdlib@media@modules@UModSys@@UEAA_NAEBU?$TString@U?$TSCoreConst@D@su@tl@UModSys@@U?$TComparerBinaryHash@D@234@@tl@5@PEAUIRefObject@core@5@@Z 0000000140016550 f   umodsys_lib_libmedia:umodsys.mod.media.stdlib.obj
 0001:000157a0       ?layer_insert@RLibraryLayered@stdlib@media@modules@UModSys@@UEAA_NAEBUSLayer@ILibraryLayered@libmedia@5@_K@Z 00000001400167a0 f   umodsys_lib_libmedia:umodsys.mod.media.stdlib.obj
 0001:00015820       ??1RLibraryLayered@stdlib@media@modules@UModSys@@UEAA@XZ 0000000140016820 f   umodsys_lib_libmedia:umodsys.mod.media.stdlib.obj
 0001:00015880       ??0RLibraryLayered@stdlib@media@modules@UModSys@@QEAA@PEAUIModObject@base@4@AEBUSParameters@core@4@U?$TFlags4State@USMediaFlagUid@libmedia@UModSys@@I@tl@4@@Z 0000000140016880 f   umodsys_lib_libmedia:umodsys.mod.media.stdlib.obj
 0001:00015940       ?bincache_add@RLibraryBinCache@stdlib@media@modules@UModSys@@QEAA_NAEBU?$TString@U?$TSCoreConst@D@su@tl@UModSys@@U?$TComparerBinaryHash@D@234@@tl@5@AEBUSCMemShared@core@5@_N@Z 0000000140016940 f   umodsys_lib_libmedia:umodsys.mod.media.stdlib.obj
 0001:00015ba0       ?bincache_add@RLibraryBinCache@stdlib@media@modules@UModSys@@UEAA_NAEBU?$TString@U?$TSCoreConst@D@su@tl@UModSys@@U?$TComparerBinaryHash@D@234@@tl@5@AEBUSCMemShared@core@5@@Z 0000000140016ba0 f   umodsys_lib_libmedia:umodsys.mod.media.stdlib.obj
 0001:00015bb0       ?bincache_add@RLibraryBinCache@stdlib@media@modules@UModSys@@UEAA_NAEBU?$TString@U?$TSCoreConst@D@su@tl@UModSys@@U?$TComparerBinaryHash@D@234@@tl@5@@Z 0000000140016bb0 f   umodsys_lib_libmedia:umodsys.mod.media.stdlib.obj
 0001:00015be0       ?mount_add@RLibraryBinTree@stdlib@media@modules@UModSys@@UEAA_NAEBUSId@ILibraryBinTree@libmedia@5@AEBUSPoint@785@@Z 0000000140016be0 f   umodsys_lib_libmedia:umodsys.mod.media.stdlib.obj
 0001:00015e30       ?add_node_w@RBinArchiveFrame@stdlib@media@modules@UModSys@@UEAAPEAUNameNode@IBinArchiveFrame@libmedia@5@AEBU?$TString@U?$TSCoreConst@D@su@tl@UModSys@@U?$TComparerBinaryHash@D@234@@tl@5@_K@Z 0000000140016e30 f   umodsys_lib_libmedia:umodsys.mod.media.stdlib.obj
 0001:00016000       ?add_node_r@RBinArchiveFrame@stdlib@media@modules@UModSys@@UEAAPEAUNameNode@IBinArchiveFrame@libmedia@5@AEBU?$TString@U?$TSCoreConst@D@su@tl@UModSys@@U?$TComparerBinaryHash@D@234@@tl@5@_KAEAUSMem@core@5@@Z 0000000140017000 f   umodsys_lib_libmedia:umodsys.mod.media.stdlib.obj
 0001:000161a0       ?mod_dec@RGenerator@stdio@media@modules@UModSys@@UEBA_NXZ 00000001400171a0 f   umodsys_lib_libmedia:umodsys.mod.media.stdio.obj
 0001:000161c0       ?mod_inc@RGenerator@stdio@media@modules@UModSys@@UEBA_NXZ 00000001400171c0 f   umodsys_lib_libmedia:umodsys.mod.media.stdio.obj
 0001:000161e0       ?get_module@RGenerator@stdio@media@modules@UModSys@@UEBAPEAUIModule@base@5@XZ 00000001400171e0 f   umodsys_lib_libmedia:umodsys.mod.media.stdio.obj
 0001:000161f0       ?s_holder@RGenerator@stdio@media@modules@UModSys@@SAAEAU?$TTypeStaticHolder@URGenerator@stdio@media@modules@UModSys@@@tl@5@XZ 00000001400171f0 f   umodsys_lib_libmedia:umodsys.mod.media.stdio.obj
 0001:00016240       ?s_unreg@RGenerator@stdio@media@modules@UModSys@@SA_NPEAUIModuleReg@base@5@@Z 0000000140017240 f   umodsys_lib_libmedia:umodsys.mod.media.stdio.obj
 0001:000162b0       ?s_reg@RGenerator@stdio@media@modules@UModSys@@SA_NPEAUIModuleReg@base@5@@Z 00000001400172b0 f   umodsys_lib_libmedia:umodsys.mod.media.stdio.obj
 0001:00016330       main                       0000000140017330 f   umodsys.c_main.obj
 0001:00016510       ??0SUniquePtrList@core@UModSys@@QEAA@PEAPEBUSUniquePointerInfo@12@_K@Z 0000000140017510 f   umodsys_lib_core:umodsys.core.uniqueptrlist.obj
 0001:00016560       ?add@SUniquePtrList@core@UModSys@@QEAA_NPEBUSUniquePointerInfo@23@@Z 0000000140017560 f   umodsys_lib_core:umodsys.core.uniqueptrlist.obj
 0001:000165c0       ??1IModuleLibrary@base@UModSys@@UEAA@XZ 00000001400175c0 f   umodsys_lib_base:umodsys.base.module.obj
 0001:000165e0       ??1IModule@base@UModSys@@UEAA@XZ 00000001400175e0 f   umodsys_lib_base:umodsys.base.module.obj
 0001:000165f0       ??1IConsole@base@UModSys@@UEAA@XZ 00000001400175f0 f   umodsys_lib_base:umodsys.base.console.obj
 0001:00016600       ?init@SVFileName@libmedia@UModSys@@QEAAXPEBDH_N@Z 0000000140017600 f   umodsys_lib_libmedia:umodsys.lib.media.common.obj
 0001:00016730       ??0SVFileName@libmedia@UModSys@@QEAA@AEBU?$TString@U?$TSCoreConst@D@su@tl@UModSys@@U?$TComparerBinaryHash@D@234@@tl@2@0_N@Z 0000000140017730 f   umodsys_lib_libmedia:umodsys.lib.media.common.obj
 0001:000167e0       ??0SVFileName@libmedia@UModSys@@QEAA@PEBD_N@Z 00000001400177e0 f   umodsys_lib_libmedia:umodsys.lib.media.common.obj
 0001:00016850       ?exec_test_shells@RSystem@rsystem@base@UModSys@@QEAA_NXZ 0000000140017850 f   umodsys_lib_basesys:umodsys.basesys.rsystem_tests.obj
 0001:00016a40       ?exec_tests@RSystem@rsystem@base@UModSys@@QEAA_NXZ 0000000140017a40 f   umodsys_lib_basesys:umodsys.basesys.rsystem_tests.obj
 0001:00016a9c       memcpy                     0000000140017a9c f   MSVCRT:MSVCR90.dll
 0001:00016ab0       __CxxFrameHandler3         0000000140017ab0 f   MSVCRT:MSVCR90.dll
 0001:00016ab6       _CxxThrowException         0000000140017ab6 f   MSVCRT:MSVCR90.dll
 0001:00016ad0       _alloca_probe              0000000140017ad0     MSVCRT:chkstk.obj
 0001:00016ad0       __chkstk                   0000000140017ad0 f   MSVCRT:chkstk.obj
 0002:00000000       __imp_GetCurrentProcessId  000000014001a000     kernel32:KERNEL32.dll
 0002:00000008       __imp_GetCurrentThreadId   000000014001a008     kernel32:KERNEL32.dll
 0002:00000010       __imp_GetTickCount         000000014001a010     kernel32:KERNEL32.dll
 0002:00000018       __imp_QueryPerformanceCounter 000000014001a018     kernel32:KERNEL32.dll
 0002:00000020       __imp_SetUnhandledExceptionFilter 000000014001a020     kernel32:KERNEL32.dll
 0002:00000028       __imp_Sleep                000000014001a028     kernel32:KERNEL32.dll
 0002:00000030       __imp_MultiByteToWideChar  000000014001a030     kernel32:KERNEL32.dll
 0002:00000038       __imp_WideCharToMultiByte  000000014001a038     kernel32:KERNEL32.dll
 0002:00000040       __imp_SetConsoleOutputCP   000000014001a040     kernel32:KERNEL32.dll
 0002:00000048       __imp_GetLastError         000000014001a048     kernel32:KERNEL32.dll
 0002:00000050       __imp_GetConsoleOutputCP   000000014001a050     kernel32:KERNEL32.dll
 0002:00000058       __imp_FindNextFileW        000000014001a058     kernel32:KERNEL32.dll
 0002:00000060       __imp_FindClose            000000014001a060     kernel32:KERNEL32.dll
 0002:00000068       __imp_GetProcAddress       000000014001a068     kernel32:KERNEL32.dll
 0002:00000070       __imp_GetModuleFileNameW   000000014001a070     kernel32:KERNEL32.dll
 0002:00000078       __imp_GetModuleHandleW     000000014001a078     kernel32:KERNEL32.dll
 0002:00000080       __imp_LoadLibraryExW       000000014001a080     kernel32:KERNEL32.dll
 0002:00000088       __imp_FreeLibrary          000000014001a088     kernel32:KERNEL32.dll
 0002:00000090       __imp_SetErrorMode         000000014001a090     kernel32:KERNEL32.dll
 0002:00000098       __imp_FindFirstFileW       000000014001a098     kernel32:KERNEL32.dll
 0002:000000a0       __imp_GetFullPathNameW     000000014001a0a0     kernel32:KERNEL32.dll
 0002:000000a8       __imp_GetSystemTimeAsFileTime 000000014001a0a8     kernel32:KERNEL32.dll
 0002:000000b0       \177KERNEL32_NULL_THUNK_DATA 000000014001a0b0     kernel32:KERNEL32.dll
 0002:000000b8       __imp__vsnprintf           000000014001a0b8     MSVCRT:MSVCR90.dll
 0002:000000c0       __imp___C_specific_handler 000000014001a0c0     MSVCRT:MSVCR90.dll
 0002:000000c8       __imp__unlock              000000014001a0c8     MSVCRT:MSVCR90.dll
 0002:000000d0       __imp___dllonexit          000000014001a0d0     MSVCRT:MSVCR90.dll
 0002:000000d8       __imp__encode_pointer      000000014001a0d8     MSVCRT:MSVCR90.dll
 0002:000000e0       __imp__lock                000000014001a0e0     MSVCRT:MSVCR90.dll
 0002:000000e8       __imp__onexit              000000014001a0e8     MSVCRT:MSVCR90.dll
 0002:000000f0       __imp__decode_pointer      000000014001a0f0     MSVCRT:MSVCR90.dll
 0002:000000f8       __imp__amsg_exit           000000014001a0f8     MSVCRT:MSVCR90.dll
 0002:00000100       __imp___getmainargs        000000014001a100     MSVCRT:MSVCR90.dll
 0002:00000108       __imp__XcptFilter          000000014001a108     MSVCRT:MSVCR90.dll
 0002:00000110       __imp__fileno              000000014001a110     MSVCRT:MSVCR90.dll
 0002:00000118       __imp__cexit               000000014001a118     MSVCRT:MSVCR90.dll
 0002:00000120       __imp_exit                 000000014001a120     MSVCRT:MSVCR90.dll
 0002:00000128       __imp___initenv            000000014001a128     MSVCRT:MSVCR90.dll
 0002:00000130       __imp__initterm            000000014001a130     MSVCRT:MSVCR90.dll
 0002:00000138       __imp__initterm_e          000000014001a138     MSVCRT:MSVCR90.dll
 0002:00000140       __imp__configthreadlocale  000000014001a140     MSVCRT:MSVCR90.dll
 0002:00000148       __imp___setusermatherr     000000014001a148     MSVCRT:MSVCR90.dll
 0002:00000150       __imp__commode             000000014001a150     MSVCRT:MSVCR90.dll
 0002:00000158       __imp__fmode               000000014001a158     MSVCRT:MSVCR90.dll
 0002:00000160       __imp___set_app_type       000000014001a160     MSVCRT:MSVCR90.dll
 0002:00000168       __imp_?terminate@@YAXXZ    000000014001a168     MSVCRT:MSVCR90.dll
 0002:00000170       __imp_?_type_info_dtor_internal_method@type_info@@QEAAXXZ 000000014001a170     MSVCRT:MSVCR90.dll
 0002:00000178       __imp__chsize              000000014001a178     MSVCRT:MSVCR90.dll
 0002:00000180       __imp_remove               000000014001a180     MSVCRT:MSVCR90.dll
 0002:00000188       __imp__wfopen              000000014001a188     MSVCRT:MSVCR90.dll
 0002:00000190       __imp_rename               000000014001a190     MSVCRT:MSVCR90.dll
 0002:00000198       __imp_realloc              000000014001a198     MSVCRT:MSVCR90.dll
 0002:000001a0       __imp_fprintf              000000014001a1a0     MSVCRT:MSVCR90.dll
 0002:000001a8       __imp_strncpy              000000014001a1a8     MSVCRT:MSVCR90.dll
 0002:000001b0       __imp__snprintf            000000014001a1b0     MSVCRT:MSVCR90.dll
 0002:000001b8       __imp_malloc               000000014001a1b8     MSVCRT:MSVCR90.dll
 0002:000001c0       __imp_free                 000000014001a1c0     MSVCRT:MSVCR90.dll
 0002:000001c8       __imp_vfprintf             000000014001a1c8     MSVCRT:MSVCR90.dll
 0002:000001d0       __imp___iob_func           000000014001a1d0     MSVCRT:MSVCR90.dll
 0002:000001d8       __imp_strstr               000000014001a1d8     MSVCRT:MSVCR90.dll
 0002:000001e0       __imp_??2@YAPEAX_K@Z       000000014001a1e0     MSVCRT:MSVCR90.dll
 0002:000001e8       __imp_strncmp              000000014001a1e8     MSVCRT:MSVCR90.dll
 0002:000001f0       __imp_fclose               000000014001a1f0     MSVCRT:MSVCR90.dll
 0002:000001f8       __imp_fseek                000000014001a1f8     MSVCRT:MSVCR90.dll
 0002:00000200       __imp_ftell                000000014001a200     MSVCRT:MSVCR90.dll
 0002:00000208       __imp_fwrite               000000014001a208     MSVCRT:MSVCR90.dll
 0002:00000210       __imp_??3@YAXPEAX@Z        000000014001a210     MSVCRT:MSVCR90.dll
 0002:00000218       __imp__purecall            000000014001a218     MSVCRT:MSVCR90.dll
 0002:00000220       __imp_fread                000000014001a220     MSVCRT:MSVCR90.dll
 0002:00000228       __imp__exit                000000014001a228     MSVCRT:MSVCR90.dll
 0002:00000230       __imp_fflush               000000014001a230     MSVCRT:MSVCR90.dll
 0002:00000238       __imp_memcpy               000000014001a238     MSVCRT:MSVCR90.dll
 0002:00000240       __imp___CxxFrameHandler3   000000014001a240     MSVCRT:MSVCR90.dll
 0002:00000248       __imp__CxxThrowException   000000014001a248     MSVCRT:MSVCR90.dll
 0002:00000250       \177MSVCR90_NULL_THUNK_DATA 000000014001a250     MSVCRT:MSVCR90.dll
 0002:00000258       __xc_a                     000000014001a258     MSVCRT:cinitexe.obj
 0002:00000800       __xc_z                     000000014001a800     MSVCRT:cinitexe.obj
 0002:00000808       __xi_a                     000000014001a808     MSVCRT:cinitexe.obj
 0002:00000820       __xi_z                     000000014001a820     MSVCRT:cinitexe.obj
 0002:00000838       ??_7type_info@@6B@         000000014001a838     MSVCRT:ti_inst.obj
 0002:00000840       ??_C@_0P@GHFPNOJB@bad?5allocation?$AA@ 000000014001a840     umodsys.c_main.obj
 0002:00000850       ??_C@_0BF@OCNNAADO@UModSys?3?3core?3?3IRoot?$AA@ 000000014001a850     umodsys.c_main.obj
 0002:00000868       ??_C@_0BK@EMIJFOPA@UModSys?3?3core?3?3IRefObject?$AA@ 000000014001a868     umodsys.c_main.obj
 0002:00000888       ??_C@_0BL@IOMMHELF@UModSys?3?3core?3?3IParameters?$AA@ 000000014001a888     umodsys.c_main.obj
 0002:000008a8       ??_C@_0BH@LKDEEPPM@UModSys?3?3base?3?3IModule?$AA@ 000000014001a8a8     umodsys.c_main.obj
 0002:000008c0       ??_C@_0BO@PHJOHFCB@UModSys?3?3base?3?3IModuleLibrary?$AA@ 000000014001a8c0     umodsys.c_main.obj
 0002:000008e0       ??_C@_0BK@FDPIOPHG@UModSys?3?3base?3?3IModObject?$AA@ 000000014001a8e0     umodsys.c_main.obj
 0002:00000900       ??_C@_0BK@OIBKNCKJ@UModSys?3?3base?3?3IGenerator?$AA@ 000000014001a900     umodsys.c_main.obj
 0002:00000920       ??_C@_0BG@PJBGCMEC@UModSys?3?3base?3?3IShell?$AA@ 000000014001a920     umodsys.c_main.obj
 0002:00000938       ??_C@_0BI@IKAOEFAP@UModSys?3?3base?3?3IConsole?$AA@ 000000014001a938     umodsys.c_main.obj
 0002:00000950       ??_C@_0BH@PFCONEJJ@UModSys?3?3base?3?3ISystem?$AA@ 000000014001a950     umodsys.c_main.obj
 0002:00000968       ??_C@_0CA@MDFMKLLN@UModSys?3?3base?3?3rsystem?3?3RModule?$AA@ 000000014001a968     umodsys.c_main.obj
 0002:00000988       ??_C@_0CK@MJPNGLHN@UModSys?3?3base?3?3rsystem?3?3IModuleL@ 000000014001a988     umodsys.c_main.obj
 0002:000009b8       ??_C@_0CJ@OPOMMGLJ@UModSys?3?3base?3?3rsystem?3?3RModuleL@ 000000014001a9b8     umodsys.c_main.obj
 0002:000009e8       ??_C@_0CL@ILNBAMJF@UModSys?3?3base?3?3rsystem?3?3RModuleL@ 000000014001a9e8     umodsys.c_main.obj
 0002:00000a18       ??_C@_0CE@IHGMMEEA@UModSys?3?3base?3?3rsystem?3?3RParamet@ 000000014001aa18     umodsys.c_main.obj
 0002:00000a40       ??_C@_0CA@IMEGDANI@UModSys?3?3base?3?3rsystem?3?3RSystem?$AA@ 000000014001aa40     umodsys.c_main.obj
 0002:00000a60       ??_C@_0CF@KIMLNODL@UModSys?3?3base?3?3rsystem?3?3RConsole@ 000000014001aa60     umodsys.c_main.obj
 0002:00000a88       ??_C@_0M@DCEPEPFJ@umodsys?4log?$AA@ 000000014001aa88     umodsys.c_main.obj
 0002:00000a94       ??_C@_00CNPNBAHC@?$AA@     000000014001aa94     umodsys.c_main.obj
 0002:00000a98       ??_C@_01NBENCBCI@?$CK?$AA@ 000000014001aa98     umodsys.c_main.obj
 0002:00000aa0       ??_C@_0BC@JABDEAFI@moduledb?4conf?9hdb?$AA@ 000000014001aaa0     umodsys.c_main.obj
 0002:00000ab8       ??_C@_08FCBDOIAH@typeinfo?$AA@ 000000014001aab8     umodsys.c_main.obj
 0002:00000ac8       ??_C@_0CB@CLGNFEGF@UModSys?3?3libmedia?3?3IStreamReader@ 000000014001aac8     umodsys_lib_libmedia:umodsys.mod.media.stdio.obj
 0002:00000af0       ??_C@_0CB@HOPFFLP@UModSys?3?3libmedia?3?3IStreamWriter@ 000000014001aaf0     umodsys_lib_libmedia:umodsys.mod.media.stdio.obj
 0002:00000b18       ??_C@_0BO@INLIIEII@UModSys?3?3libmedia?3?3IUtilities?$AA@ 000000014001ab18     umodsys_lib_libmedia:umodsys.mod.media.stdio.obj
 0002:00000b38       ??_C@_0BO@BMLODIDG@UModSys?3?3libmedia?3?3ILibObject?$AA@ 000000014001ab38     umodsys_lib_libmedia:umodsys.mod.media.stdio.obj
 0002:00000b58       ??_C@_0BP@KCJMEDNO@UModSys?3?3libmedia?3?3IBinArchive?$AA@ 000000014001ab58     umodsys_lib_libmedia:umodsys.mod.media.stdio.obj
 0002:00000b78       ??_C@_0CB@FDEKNMGJ@UModSys?3?3libmedia?3?3IBinObjFilter@ 000000014001ab78     umodsys_lib_libmedia:umodsys.mod.media.stdio.obj
 0002:00000ba0       ??_C@_0BM@DPCMOAPM@UModSys?3?3libmedia?3?3ILibrary?$AA@ 000000014001aba0     umodsys_lib_libmedia:umodsys.mod.media.stdio.obj
 0002:00000bc0       ??_C@_0DD@HMDIDEEB@UModSys?3?3modules?3?3media?3?3stdio?3?3@ 000000014001abc0     umodsys_lib_libmedia:umodsys.mod.media.stdio.obj
 0002:00000bf8       ??_C@_08BABJIOEM@filename?$AA@ 000000014001abf8     umodsys_lib_libmedia:umodsys.mod.media.stdio.obj
 0002:00000c04       ??_C@_02JDPG@rb?$AA@       000000014001ac04     umodsys_lib_libmedia:umodsys.mod.media.stdio.obj
 0002:00000c08       ??_C@_0DD@NMEBJAJM@UModSys?3?3modules?3?3media?3?3stdio?3?3@ 000000014001ac08     umodsys_lib_libmedia:umodsys.mod.media.stdio.obj
 0002:00000c3c       ??_C@_04FAOFCKOL@safe?$AA@ 000000014001ac3c     umodsys_lib_libmedia:umodsys.mod.media.stdio.obj
 0002:00000c44       ??_C@_02GMLFBBN@wb?$AA@    000000014001ac44     umodsys_lib_libmedia:umodsys.mod.media.stdio.obj
 0002:00000c48       ??_C@_0DE@KBMIHBCD@UModSys?3?3modules?3?3media?3?3stdio?3?3@ 000000014001ac48     umodsys_lib_libmedia:umodsys.mod.media.stdio.obj
 0002:00000c7c       ??_C@_01LFCBOECM@?4?$AA@   000000014001ac7c     umodsys_lib_libmedia:umodsys.mod.media.stdio.obj
 0002:00000c80       ??_C@_04LNEJFJGI@path?$AA@ 000000014001ac80     umodsys_lib_libmedia:umodsys.mod.media.stdio.obj
 0002:00000c88       ??_C@_08PEIJGPHF@pathname?$AA@ 000000014001ac88     umodsys_lib_libmedia:umodsys.mod.media.stdio.obj
 0002:00000c98       ??_C@_0M@PANNIBHH@permissions?$AA@ 000000014001ac98     umodsys_lib_libmedia:umodsys.mod.media.stdio.obj
 0002:00000ca8       ??_C@_0P@DDBOOPIK@?$HL?$HLos?5load?5?$CFs?$HN?$HN?$AA@ 000000014001aca8     umodsys_lib_libmedia:umodsys.mod.media.stdio.obj
 0002:00000cb8       ??_C@_0CL@IOBDHHMI@UModSys?3?3modules?3?3media?3?3stdio?3?3@ 000000014001acb8     umodsys_lib_libmedia:umodsys.mod.media.stdio.obj
 0002:00000ce8       ??_C@_0BJ@NOFIIAEK@U_MOD?3?3RGenerator?3unique?$AA@ 000000014001ace8     umodsys_lib_libmedia:umodsys.mod.media.stdio.obj
 0002:00000d08       ??_C@_0N@HJPCMPI@media?3?3stdio?$AA@ 000000014001ad08     umodsys_lib_libmedia:umodsys.mod.media.stdio.obj
 0002:00000d18       ??_C@_09JGNMLHG@modobject?$AA@ 000000014001ad18     umodsys_lib_libmedia:umodsys.mod.media.stdio.obj
 0002:00000d38       ??_7IRoot@core@UModSys@@6B@ 000000014001ad38     umodsys_lib_libmedia:umodsys.mod.media.stdio.obj
 0002:00000d88       ??_7IRefObject@core@UModSys@@6B@ 000000014001ad88     umodsys_lib_libmedia:umodsys.mod.media.stdio.obj
 0002:00000df8       ??_7RGenerator@stdio@media@modules@UModSys@@6B@ 000000014001adf8     umodsys_lib_libmedia:umodsys.mod.media.stdio.obj
 0002:00000e98       ??_7RStreamReader_FILE@stdio@media@modules@UModSys@@6B@ 000000014001ae98     umodsys_lib_libmedia:umodsys.mod.media.stdio.obj
 0002:00000f38       ??_7RStreamWriter_FILE@stdio@media@modules@UModSys@@6B@ 000000014001af38     umodsys_lib_libmedia:umodsys.mod.media.stdio.obj
 0002:00000ff8       ??_7RDataArchiver_OsDir@stdio@media@modules@UModSys@@6BIRefObject@core@4@@ 000000014001aff8     umodsys_lib_libmedia:umodsys.mod.media.stdio.obj
 0002:00001098       ??_7RDataArchiver_OsDir@stdio@media@modules@UModSys@@6BISetter@SFlags@libmedia@4@@ 000000014001b098     umodsys_lib_libmedia:umodsys.mod.media.stdio.obj
 0002:000010b8       ??_7RModuleReg@stdio@media@modules@UModSys@@6B@ 000000014001b0b8     umodsys_lib_libmedia:umodsys.mod.media.stdio.obj
 0002:000010e8       ??_C@_0CD@ELIFEGE@UModSys?3?3libmedia?3?3ILibraryBinTr@ 000000014001b0e8     umodsys_lib_libmedia:umodsys.mod.media.stdlib.obj
 0002:00001110       ??_C@_0CE@EGHBJBAJ@UModSys?3?3libmedia?3?3ILibraryBinCa@ 000000014001b110     umodsys_lib_libmedia:umodsys.mod.media.stdlib.obj
 0002:00001138       ??_C@_0CF@LBIGBLOK@UModSys?3?3libmedia?3?3ILibraryObjFi@ 000000014001b138     umodsys_lib_libmedia:umodsys.mod.media.stdlib.obj
 0002:00001160       ??_C@_0CE@BOBLEOBL@UModSys?3?3libmedia?3?3ILibraryObjCa@ 000000014001b160     umodsys_lib_libmedia:umodsys.mod.media.stdlib.obj
 0002:00001188       ??_C@_0CD@LJFEJKGF@UModSys?3?3libmedia?3?3ILibraryLayer@ 000000014001b188     umodsys_lib_libmedia:umodsys.mod.media.stdlib.obj
 0002:000011b0       ??_C@_0CE@FGFAKEDN@UModSys?3?3libmedia?3?3IBinArchiveFr@ 000000014001b1b0     umodsys_lib_libmedia:umodsys.mod.media.stdlib.obj
 0002:000011d8       ??_C@_0CN@GBHCKFMF@UModSys?3?3libmedia?3?3IBinArchiveFr@ 000000014001b1d8     umodsys_lib_libmedia:umodsys.mod.media.stdlib.obj
 0002:00001208       ??_C@_0CM@MNCPANLP@UModSys?3?3modules?3?3media?3?3stdlib?3@ 000000014001b208     umodsys_lib_libmedia:umodsys.mod.media.stdlib.obj
 0002:00001238       ??_C@_0DC@KDNEBFBG@UModSys?3?3modules?3?3media?3?3stdlib?3@ 000000014001b238     umodsys_lib_libmedia:umodsys.mod.media.stdlib.obj
 0002:00001270       ??_C@_0DB@IPMNCIDD@UModSys?3?3modules?3?3media?3?3stdlib?3@ 000000014001b270     umodsys_lib_libmedia:umodsys.mod.media.stdlib.obj
 0002:000012a8       ??_C@_0DC@LDPFCACC@UModSys?3?3modules?3?3media?3?3stdlib?3@ 000000014001b2a8     umodsys_lib_libmedia:umodsys.mod.media.stdlib.obj
 0002:000012e0       ??_C@_0DB@DCCBOGDC@UModSys?3?3modules?3?3media?3?3stdlib?3@ 000000014001b2e0     umodsys_lib_libmedia:umodsys.mod.media.stdlib.obj
 0002:00001318       ??_C@_0DC@OLJPPPDA@UModSys?3?3modules?3?3media?3?3stdlib?3@ 000000014001b318     umodsys_lib_libmedia:umodsys.mod.media.stdlib.obj
 0002:00001350       ??_C@_0DD@BNMPGGBL@UModSys?3?3modules?3?3media?3?3stdlib?3@ 000000014001b350     umodsys_lib_libmedia:umodsys.mod.media.stdlib.obj
 0002:00001388       ??_C@_0CM@LNHMJHON@UModSys?3?3modules?3?3media?3?3stdlib?3@ 000000014001b388     umodsys_lib_libmedia:umodsys.mod.media.stdlib.obj
 0002:000013b4       ??_C@_06DGDLPBAN@client?$AA@ 000000014001b3b4     umodsys_lib_libmedia:umodsys.mod.media.stdlib.obj
 0002:000013c0       ??_C@_07OPILGPEN@library?$AA@ 000000014001b3c0     umodsys_lib_libmedia:umodsys.mod.media.stdlib.obj
 0002:000013c8       ??_C@_05NGFEDHGN@write?$AA@ 000000014001b3c8     umodsys_lib_libmedia:umodsys.mod.media.stdlib.obj
 0002:000013d0       ??_C@_0L@LOIPJDMA@media?3?3std?$AA@ 000000014001b3d0     umodsys_lib_libmedia:umodsys.mod.media.stdlib.obj
 0002:000013e8       ??_7RResolverChain@SFlagsChain@libmedia@UModSys@@6B@ 000000014001b3e8     umodsys_lib_libmedia:umodsys.mod.media.stdlib.obj
 0002:000013f8       ??_7RGenerator@stdlib@media@modules@UModSys@@6B@ 000000014001b3f8     umodsys_lib_libmedia:umodsys.mod.media.stdlib.obj
 0002:00001498       ??_7RUtilities@stdlib@media@modules@UModSys@@6B@ 000000014001b498     umodsys_lib_libmedia:umodsys.mod.media.stdlib.obj
 0002:00001538       ??_7RBinArchiveFrame@stdlib@media@modules@UModSys@@6BIRefObject@core@4@@ 000000014001b538     umodsys_lib_libmedia:umodsys.mod.media.stdlib.obj
 0002:00001610       ??_7RBinArchiveFrame@stdlib@media@modules@UModSys@@6BISetter@SFlags@libmedia@4@@ 000000014001b610     umodsys_lib_libmedia:umodsys.mod.media.stdlib.obj
 0002:00001638       ??_7RLibraryBinTree@stdlib@media@modules@UModSys@@6BIRefObject@core@4@@ 000000014001b638     umodsys_lib_libmedia:umodsys.mod.media.stdlib.obj
 0002:00001740       ??_7RLibraryBinTree@stdlib@media@modules@UModSys@@6BISetter@SFlags@libmedia@4@@ 000000014001b740     umodsys_lib_libmedia:umodsys.mod.media.stdlib.obj
 0002:00001768       ??_7RLibraryBinCache@stdlib@media@modules@UModSys@@6BIRefObject@core@4@@ 000000014001b768     umodsys_lib_libmedia:umodsys.mod.media.stdlib.obj
 0002:00001878       ??_7RLibraryBinCache@stdlib@media@modules@UModSys@@6BISetter@SFlags@libmedia@4@@ 000000014001b878     umodsys_lib_libmedia:umodsys.mod.media.stdlib.obj
 0002:00001898       ??_7RLibraryLayered@stdlib@media@modules@UModSys@@6BIRefObject@core@4@@ 000000014001b898     umodsys_lib_libmedia:umodsys.mod.media.stdlib.obj
 0002:000019b0       ??_7RLibraryLayered@stdlib@media@modules@UModSys@@6BISetter@SFlags@libmedia@4@@ 000000014001b9b0     umodsys_lib_libmedia:umodsys.mod.media.stdlib.obj
 0002:000019d8       ??_7RLibraryObjCache@stdlib@media@modules@UModSys@@6BIRefObject@core@4@@ 000000014001b9d8     umodsys_lib_libmedia:umodsys.mod.media.stdlib.obj
 0002:00001ae0       ??_7RLibraryObjCache@stdlib@media@modules@UModSys@@6BISetter@SFlags@libmedia@4@@ 000000014001bae0     umodsys_lib_libmedia:umodsys.mod.media.stdlib.obj
 0002:00001b08       ??_7RLibraryObjFilter@stdlib@media@modules@UModSys@@6BIRefObject@core@4@@ 000000014001bb08     umodsys_lib_libmedia:umodsys.mod.media.stdlib.obj
 0002:00001c20       ??_7RLibraryObjFilter@stdlib@media@modules@UModSys@@6BISetter@SFlags@libmedia@4@@ 000000014001bc20     umodsys_lib_libmedia:umodsys.mod.media.stdlib.obj
 0002:00001c40       ??_7RModuleReg@stdlib@media@modules@UModSys@@6B@ 000000014001bc40     umodsys_lib_libmedia:umodsys.mod.media.stdlib.obj
 0002:00001c70       ??_C@_04HDOCAJNK@?$CFs?$CFs?$AA@ 000000014001bc70     umodsys_lib_libmedia:umodsys.lib.media.common.obj
 0002:00001c78       ??_C@_02CBLDBPFN@?1?1?$AA@ 000000014001bc78     umodsys_lib_libmedia:umodsys.lib.media.common.obj
 0002:00001c7c       ??_C@_02BKFDOEMK@wt?$AA@   000000014001bc7c     umodsys_lib_basesys:umodsys.basesys.rconsole_std.obj
 0002:00001c88       ??_7IConsole@base@UModSys@@6B@ 000000014001bc88     umodsys_lib_basesys:umodsys.basesys.rconsole_std.obj
 0002:00001d28       ??_7RConsole_std@rsystem@base@UModSys@@6B@ 000000014001bd28     umodsys_lib_basesys:umodsys.basesys.rconsole_std.obj
 0002:00001db8       ??_C@_04HIBGFPH@NULL?$AA@  000000014001bdb8     umodsys_lib_basesys:umodsys.basesys.rsystem_main.obj
 0002:00001dc0       ??_C@_0L@FPKIMPHA@?$CD?$CF08x?5?$CC?$CFs?$CC?$AA@ 000000014001bdc0     umodsys_lib_basesys:umodsys.basesys.rsystem_main.obj
 0002:00001dd0       ??_C@_0BC@HBJCAHHB@EFatal?5?$CD?$CF08x?5?$CC?$CFs?$CC?$AA@ 000000014001bdd0     umodsys_lib_basesys:umodsys.basesys.rsystem_main.obj
 0002:00001de8       ??_C@_0BE@IIJFBNID@EWarning?5?$CD?$CF08x?5?$CC?$CFs?$CC?$AA@ 000000014001bde8     umodsys_lib_basesys:umodsys.basesys.rsystem_main.obj
 0002:00001e00       ??_C@_0BB@KFMJENMO@RSystem?3?3init?$CI?$CJ?6?$AA@ 000000014001be00     umodsys_lib_basesys:umodsys.basesys.rsystem_main.obj
 0002:00001e18       ??_C@_0BI@FKDCNCM@RSystem?3?3exec_args?$CI?$CFd?$CJ?6?$AA@ 000000014001be18     umodsys_lib_basesys:umodsys.basesys.rsystem_main.obj
 0002:00001e30       ??_C@_0BG@NFAKDFBG@RSystem?3?3exec_main?$CI?$CJ?6?$AA@ 000000014001be30     umodsys_lib_basesys:umodsys.basesys.rsystem_main.obj
 0002:00001e48       ??_C@_0BD@CKNOJECK@RSystem?3?3deinit?$CI?$CJ?6?$AA@ 000000014001be48     umodsys_lib_basesys:umodsys.basesys.rsystem_main.obj
 0002:00001e68       ??_7EExceptionBase@core@UModSys@@6B@ 000000014001be68     umodsys_lib_basesys:umodsys.basesys.rsystem_main.obj
 0002:00001e80       ??_7EFatal@core@UModSys@@6B@ 000000014001be80     umodsys_lib_basesys:umodsys.basesys.rsystem_main.obj
 0002:00001e98       ??_7EWarning@core@UModSys@@6B@ 000000014001be98     umodsys_lib_basesys:umodsys.basesys.rsystem_main.obj
 0002:00001eb8       ??_7ISystem@base@UModSys@@6B@ 000000014001beb8     umodsys_lib_basesys:umodsys.basesys.rsystem_main.obj
 0002:00001f40       ??_7?$TRMemAlloc_CC@U?$TMemAllocHeader@USMagic@mem_headers@rsystem@base@UModSys@@U?$TPool@X@2345@USDebug@2345@UVoid@core@5@U895@@rsystem@base@UModSys@@USMemAlloc_Malloc@core@4@@rsystem@base@UModSys@@6B@ 000000014001bf40     umodsys_lib_basesys:umodsys.basesys.rsystem_main.obj
 0002:00001f68       ??_7RSystem@rsystem@base@UModSys@@6BISystem@23@@ 000000014001bf68     umodsys_lib_basesys:umodsys.basesys.rsystem_main.obj
 0002:00001ff0       ??_7RSystem@rsystem@base@UModSys@@6BIUniquePointerResolver@core@3@@ 000000014001bff0     umodsys_lib_basesys:umodsys.basesys.rsystem_main.obj
 0002:00002008       ??_7RSystem@rsystem@base@UModSys@@6BISourceContextAdapter@core@3@@ 000000014001c008     umodsys_lib_basesys:umodsys.basesys.rsystem_main.obj
 0002:00002010       ??_C@_0BC@NNHIIPO@shells?5found?3?5?$CFd?6?$AA@ 000000014001c010     umodsys_lib_basesys:umodsys.basesys.rsystem_tests.obj
 0002:00002028       ??_C@_0BA@EBBPOIJG@?5?5shell?3?5?$CFp?5?$CFs?6?$AA@ 000000014001c028     umodsys_lib_basesys:umodsys.basesys.rsystem_tests.obj
 0002:00002038       ??_C@_0BF@JPMHOAKE@?5?5?5?5shell?5gen?5error?6?$AA@ 000000014001c038     umodsys_lib_basesys:umodsys.basesys.rsystem_tests.obj
 0002:00002050       ??_C@_0BL@NANLGMEE@?5?5?5?5shell?5generated?5as?5?$CFp?6?$AA@ 000000014001c050     umodsys_lib_basesys:umodsys.basesys.rsystem_tests.obj
 0002:00002070       ??_C@_0BD@NFNPGOAG@?1shells?5found?3?5?$CFd?6?$AA@ 000000014001c070     umodsys_lib_basesys:umodsys.basesys.rsystem_tests.obj
 0002:00002088       ??_C@_0CJ@BMAKALAG@?$CK?$CK?$CK?$CK?$CK?$CK?$CK?$CK?$CK?$CK?$CK?$CK?$CK?$CK?$CK?$CK?$CK?$CK?$CK?$CK?$CK?$CK?$CK?$CK?$CK?$CK?$CK?$CK?$CK?$CK?$CK?5@ 000000014001c088     umodsys_lib_basesys:umodsys.basesys.rsystem_tests.obj
 0002:000020c0       ??_C@_0IM@GKLDAEGO@sizeof?$CIDRMemAlloc?$CJ?$DN?$CFu?5sizeof?$CIDRM@ 000000014001c0c0     umodsys_lib_basesys:umodsys.basesys.rsystem_tests.obj
 0002:00002150       ??_C@_0CJ@HFHNFOAC@?$CK?$CK?$CK?$CK?$CK?$CK?$CK?$CK?$CK?$CK?$CK?$CK?$CK?$CK?$CK?$CK?$CK?$CK?$CK?$CK?$CK?$CK?$CK?$CK?$CK?$CK?$CK?$CK?$CK?$CK?$CK?5@ 000000014001c150     umodsys_lib_basesys:umodsys.basesys.rsystem_tests.obj
 0002:00002180       ??_C@_0DG@DMGFJEPO@RModuleLoader?3?3moduledb_cleanup?$CI@ 000000014001c180     umodsys_lib_basesys:umodsys.basesys.rmoduleloader.obj
 0002:000021b8       ??_C@_0BN@BDEAMLC@?$CD?5LIST?5OF?5LIBRARY?5MODULES?3?6?6?$AA@ 000000014001c1b8     umodsys_lib_basesys:umodsys.basesys.rmoduleloader.obj
 0002:000021d8       ??_C@_0BF@PLOHEFDA@?5?$HL?5mod_list?$DN?$CFd?3?$FL?$FN?5?$HN?6?$AA@ 000000014001c1d8     umodsys_lib_basesys:umodsys.basesys.rmoduleloader.obj
 0002:000021f8       ??_7IModuleLoader@base@UModSys@@6B@ 000000014001c1f8     umodsys_lib_basesys:umodsys.basesys.rmoduleloader.obj
 0002:00002278       ??_7RModuleLoader@rsystem@base@UModSys@@6B@ 000000014001c278     umodsys_lib_basesys:umodsys.basesys.rmoduleloader.obj
 0002:000022f8       ??_7RModuleLibraryThis@rsystem@base@UModSys@@6B@ 000000014001c2f8     umodsys_lib_basesys:umodsys.basesys.rmodulelibthis.obj
 0002:000023d0       ??_C@_0CN@ONDMHEFN@IModuleLibraryUni?$CI?$CFp?$CJ?3?3link?$CI?$CJ?5?9?9@ 000000014001c3d0     umodsys_lib_basesys:umodsys.basesys.rmodulelib.obj
 0002:00002400       ??_C@_0BA@LBGMEMKJ@LIBRARY?5?$CC?$CFs?$CC?5?$HL?6?$AA@ 000000014001c400     umodsys_lib_basesys:umodsys.basesys.rmodulelib.obj
 0002:00002410       ??_C@_0BH@CLNAAMEM@?$HN?5?$CD?5END?5LIBRARY?5?$CC?$CFs?$CC?6?6?$AA@ 000000014001c410     umodsys_lib_basesys:umodsys.basesys.rmodulelib.obj
 0002:00002428       ??_C@_0BI@OEALOBHC@NULL?5detected?5after?5?$CFp?6?$AA@ 000000014001c428     umodsys_lib_basesys:umodsys.basesys.rmodulelib.obj
 0002:00002440       ??_C@_0CH@LDLHHCGC@leak?5detected?5?$CFp?5size?5?$CFu?5at?5?$CFs?$CI?$CF@ 000000014001c440     umodsys_lib_basesys:umodsys.basesys.rmodulelib.obj
 0002:00002468       ??_C@_0BK@NDLOCOMD@leak?5detected?5?$CFp?5size?5?$CFu?6?$AA@ 000000014001c468     umodsys_lib_basesys:umodsys.basesys.rmodulelib.obj
 0002:00002498       ??_7IModuleLibrary@base@UModSys@@6B@ 000000014001c498     umodsys_lib_basesys:umodsys.basesys.rmodulelib.obj
 0002:00002558       ??_7IModuleLibraryUni@rsystem@base@UModSys@@6B@ 000000014001c558     umodsys_lib_basesys:umodsys.basesys.rmodulelib.obj
 0002:00002638       ??_7RParameters@rsystem@base@UModSys@@6B@ 000000014001c638     umodsys_lib_basesys:umodsys.basesys.rparameters.obj
 0002:00002718       ??_C@_0BG@LJFEMLCK@UModSys_Plugin_Entry2?$AA@ 000000014001c718     umodsys_lib_basesys:umodsys.basesys.rmodule.win32.obj
 0002:00002730       ??_C@_0CI@IABKIJLA@?5?5?5?5?5?5?5?5?5?5load?5so?$CI?$CC?$CFs?$CC?$CJ?5?$HL?$CFp?0?5?$CFp?$HN@ 000000014001c730     umodsys_lib_basesys:umodsys.basesys.rmodule.win32.obj
 0002:00002758       ??_C@_0BP@EBMDLOGD@?5?5?5?5?5?5?5?5?5?5unload?5so?$CI?$HL?$CFp?0?5?$CFp?$HN?$CJ?6?$AA@ 000000014001c758     umodsys_lib_basesys:umodsys.basesys.rmodule.win32.obj
 0002:00002778       ??_C@_0BD@FBMHCLKB@scan?5so?3?5?$CC?$CFs?$CFs?$CFs?$CC?6?$AA@ 000000014001c778     umodsys_lib_basesys:umodsys.basesys.rmodule.win32.obj
 0002:00002790       ??_C@_0BC@GMLCPHOK@?1scan?5so?3?5?$CC?$CFs?$CFs?$CC?6?$AA@ 000000014001c790     umodsys_lib_basesys:umodsys.basesys.rmodule.win32.obj
 0002:000027a4       ??_C@_02CAHBHFGK@?4?1?$AA@ 000000014001c7a4     umodsys_lib_basesys:umodsys.basesys.rmodule.win32.obj
 0002:000027a8       ??_C@_04HLONOPDM@?4dll?$AA@ 000000014001c7a8     umodsys_lib_basesys:umodsys.basesys.rmodule.win32.obj
 0002:000027b0       ??_C@_0BF@KDHHIHAN@RModule?$CI?$CFp?$CJ?3?3open?$CI?$CJ?6?$AA@ 000000014001c7b0     umodsys_lib_basesys:umodsys.basesys.rmodule.obj
 0002:000027c8       ??_C@_0BG@HADBHJOP@RModule?$CI?$CFp?$CJ?3?3close?$CI?$CJ?6?$AA@ 000000014001c7c8     umodsys_lib_basesys:umodsys.basesys.rmodule.obj
 0002:000027e0       ??_C@_0BK@FNONNOFM@RModule?$CI?$CFp?$CJ?3?3?5pre?9loaded?6?$AA@ 000000014001c7e0     umodsys_lib_basesys:umodsys.basesys.rmodule.obj
 0002:00002800       ??_C@_0CE@HBBEEAED@RModule?$CI?$CFp?$CJ?3?3generate?$CI?$CJ?5?$HL?5gen?$DN?$CFp@ 000000014001c800     umodsys_lib_basesys:umodsys.basesys.rmodule.obj
 0002:00002828       ??_C@_0DL@FHDKGKAD@RModule?$CI?$CFp?$CJ?3?3reg_generator?$CI?$CFs?5?$CFp@ 000000014001c828     umodsys_lib_basesys:umodsys.basesys.rmodule.obj
 0002:00002868       ??_C@_0DL@ECFHLNEB@RModule?$CI?$CFp?$CJ?3?3reg_generator?$CI?$CFs?5?$CFp@ 000000014001c868     umodsys_lib_basesys:umodsys.basesys.rmodule.obj
 0002:000028a8       ??_C@_0DI@EBNLDEPD@RModule?$CI?$CFp?$CJ?3?3reg_obj?$CI?$CFs?5?$CFp?$CJ?5?9?9?5?$HL@ 000000014001c8a8     umodsys_lib_basesys:umodsys.basesys.rmodule.obj
 0002:000028e0       ??_C@_0GC@IAELDHPB@RModule?$CI?$CFp?$CJ?3?3reg_obj?$CI?$CFs?5?$CFp?$CJ?5?9?9?5i@ 000000014001c8e0     umodsys_lib_basesys:umodsys.basesys.rmodule.obj
 0002:00002948       ??_C@_0CM@JCLMIGEB@RModule?$CI?$CFp?$CJ?3?3reg_obj?$CI?$CFs?5?$CFp?$CJ?5?9?9?5a@ 000000014001c948     umodsys_lib_basesys:umodsys.basesys.rmodule.obj
 0002:00002978       ??_C@_0DK@NJCECDIC@RModule?$CI?$CFp?$CJ?3?3unreg_obj?$CI?$CFs?5?$CFp?$CJ?5?9?9@ 000000014001c978     umodsys_lib_basesys:umodsys.basesys.rmodule.obj
 0002:000029c0       ??_C@_0GE@MGLAJHFG@RModule?$CI?$CFp?$CJ?3?3unreg_obj?$CI?$CFs?5?$CFp?$CJ?5?9?9@ 000000014001c9c0     umodsys_lib_basesys:umodsys.basesys.rmodule.obj
 0002:00002a28       ??_C@_0CO@DAMPCAGA@RModule?3?3alloc_minfo?$CI?$HL?$CC?$CFs?$CC?0?5?$CC?$CFs?$CC@ 000000014001ca28     umodsys_lib_basesys:umodsys.basesys.rmodule.obj
 0002:00002a58       ??_C@_0BG@HANHHGHE@?5?5MODULE?5?$CFs?$CI?$CFd?0?$CFd?$CJ?5?$HL?6?$AA@ 000000014001ca58     umodsys_lib_basesys:umodsys.basesys.rmodule.obj
 0002:00002a70       ??_C@_0CI@FMDENPAM@RModule?$CI?$CFp?$CJ?3?3save_db?$CI?4?4?4?$CJ?5?9?9?5?$HL?5?$CF@ 000000014001ca70     umodsys_lib_basesys:umodsys.basesys.rmodule.obj
 0002:00002a98       ??_C@_0BN@CFNKPKCH@?5?5?5?5MODOBJECT?5?$CFs?$CI?$CFd?$CJ?5?$CFs?$CI?$CFd?$CJ?6?$AA@ 000000014001ca98     umodsys_lib_basesys:umodsys.basesys.rmodule.obj
 0002:00002ab8       ??_C@_0BP@BJFGMFNK@?5?5?5?5GENERATOR?5?$CFs?$CI?$CFd?$CJ?5?$CFs?$CI?$CFd?$CJ?5?$HL?6?$AA@ 000000014001cab8     umodsys_lib_basesys:umodsys.basesys.rmodule.obj
 0002:00002ad8       ??_C@_0BK@DNNMLLHP@?5?5?5?5?5?5REFOBJECT?5?$CFs?$CI?$CFd?$CJ?5?$HL?6?$AA@ 000000014001cad8     umodsys_lib_basesys:umodsys.basesys.rmodule.obj
 0002:00002af8       ??_C@_0BF@CJPCFEEB@?5?5?5?5?5?5?5?5TYPE?5?$CFs?$CI?$CFd?$CJ?6?$AA@ 000000014001caf8     umodsys_lib_basesys:umodsys.basesys.rmodule.obj
 0002:00002b10       ??_C@_0BM@PFPEFHDC@?5?5?5?5?5?5?$HN?5?$CD?5REFOBJECT?5?$CFs?$CI?$CFd?$CJ?6?$AA@ 000000014001cb10     umodsys_lib_basesys:umodsys.basesys.rmodule.obj
 0002:00002b30       ??_C@_0CB@PCDHJLII@?5?5?5?5?$HN?5?$CD?5GENERATOR?5?$CFs?$CI?$CFd?$CJ?5?$CFs?$CI?$CFd?$CJ?6@ 000000014001cb30     umodsys_lib_basesys:umodsys.basesys.rmodule.obj
 0002:00002b58       ??_C@_0BI@OGBPJMLO@?5?5?$HN?5?$CD?5MODULE?5?$CFs?$CI?$CFd?0?$CFd?$CJ?6?$AA@ 000000014001cb58     umodsys_lib_basesys:umodsys.basesys.rmodule.obj
 0002:00002b78       ??_7IModule@base@UModSys@@6B@ 000000014001cb78     umodsys_lib_basesys:umodsys.basesys.rmodule.obj
 0002:00002c28       ??_7RModule@rsystem@base@UModSys@@6B@ 000000014001cc28     umodsys_lib_basesys:umodsys.basesys.rmodule.obj
 0002:00002cd0       ??_C@_0M@KEHKBKEH@?5?5so?3?5?$CC?$CFs?$CC?6?$AA@ 000000014001ccd0     umodsys_lib_basesys:umodsys.basesys.rmodulelibso.obj
 0002:00002ce0       ??_C@_0BF@IKAEAMGP@?5?5?5?5so?5loaded?3?5?$CC?$CFs?$CC?6?$AA@ 000000014001cce0     umodsys_lib_basesys:umodsys.basesys.rmodulelibso.obj
 0002:00002cf8       ??_C@_0O@MCPOKEFF@?5?5?5?5so?5added?6?$AA@ 000000014001ccf8     umodsys_lib_basesys:umodsys.basesys.rmodulelibso.obj
 0002:00002d08       ??_C@_0BE@BFONLBBI@?5?5?5?5so?5dup?5with?5?$CFd?6?$AA@ 000000014001cd08     umodsys_lib_basesys:umodsys.basesys.rmodulelibso.obj
 0002:00002d28       ??_7RModuleLibrarySO@rsystem@base@UModSys@@6B@ 000000014001cd28     umodsys_lib_basesys:umodsys.basesys.rmodulelibso.obj
 0002:00002e08       ??_7RModuleLibraryReg_Chain@base@UModSys@@6B@ 000000014001ce08     umodsys_lib_base:umodsys.base.moduleregchain.obj
 0002:00002e40       ??_7IModuleReg@base@UModSys@@6B@ 000000014001ce40     umodsys_lib_base:umodsys.base.modulereg.obj
 0002:00002e78       ??_7IModuleLibraryReg@base@UModSys@@6B@ 000000014001ce78     umodsys_lib_base:umodsys.base.modulereg.obj
 0002:00002ea8       ??_C@_04MMEBIPMJ@?4tmp?$AA@ 000000014001cea8     umodsys_lib_core:umodsys.core.syshlp_files.win32.obj
 0002:00002eb0       ?utf_bytesFromUTF8@su@tl@UModSys@@3QBEB 000000014001ceb0     umodsys_lib_core:umodsys.tl.utf8.obj
 0002:00002fb0       ?utf_firstByteMark@su@tl@UModSys@@3QBEB 000000014001cfb0     umodsys_lib_core:umodsys.tl.utf8.obj
 0002:00002fb8       ?utf_offsetsFromUTF8@su@tl@UModSys@@3QBHB 000000014001cfb8     umodsys_lib_core:umodsys.tl.utf8.obj
 0002:00003fc0       ??_R4type_info@@6B@        000000014001dfc0     MSVCRT:ti_inst.obj
 0002:00003fe8       ??_R3type_info@@8          000000014001dfe8     MSVCRT:ti_inst.obj
 0002:00004000       ??_R2type_info@@8          000000014001e000     MSVCRT:ti_inst.obj
 0002:00004010       ??_R1A@?0A@EA@type_info@@8 000000014001e010     MSVCRT:ti_inst.obj
 0002:00004038       ??_R4RModuleReg@stdio@media@modules@UModSys@@6B@ 000000014001e038     umodsys_lib_libmedia:umodsys.mod.media.stdio.obj
 0002:00004060       ??_R3RModuleReg@stdio@media@modules@UModSys@@8 000000014001e060     umodsys_lib_libmedia:umodsys.mod.media.stdio.obj
 0002:00004078       ??_R2RModuleReg@stdio@media@modules@UModSys@@8 000000014001e078     umodsys_lib_libmedia:umodsys.mod.media.stdio.obj
 0002:00004090       ??_R1A@?0A@EA@IModuleReg@base@UModSys@@8 000000014001e090     umodsys_lib_libmedia:umodsys.mod.media.stdio.obj
 0002:000040b8       ??_R3IModuleReg@base@UModSys@@8 000000014001e0b8     umodsys_lib_libmedia:umodsys.mod.media.stdio.obj
 0002:000040d0       ??_R2IModuleReg@base@UModSys@@8 000000014001e0d0     umodsys_lib_libmedia:umodsys.mod.media.stdio.obj
 0002:000040e0       ??_R1A@?0A@EA@RModuleReg@stdio@media@modules@UModSys@@8 000000014001e0e0     umodsys_lib_libmedia:umodsys.mod.media.stdio.obj
 0002:00004108       ??_R4RDataArchiver_OsDir@stdio@media@modules@UModSys@@6BISetter@SFlags@libmedia@4@@ 000000014001e108     umodsys_lib_libmedia:umodsys.mod.media.stdio.obj
 0002:00004130       ??_R4RDataArchiver_OsDir@stdio@media@modules@UModSys@@6BIRefObject@core@4@@ 000000014001e130     umodsys_lib_libmedia:umodsys.mod.media.stdio.obj
 0002:00004158       ??_R3RDataArchiver_OsDir@stdio@media@modules@UModSys@@8 000000014001e158     umodsys_lib_libmedia:umodsys.mod.media.stdio.obj
 0002:00004170       ??_R2RDataArchiver_OsDir@stdio@media@modules@UModSys@@8 000000014001e170     umodsys_lib_libmedia:umodsys.mod.media.stdio.obj
 0002:000041b8       ??_R1A@?0A@EA@RDataArchiver_OsDir@stdio@media@modules@UModSys@@8 000000014001e1b8     umodsys_lib_libmedia:umodsys.mod.media.stdio.obj
 0002:000041e0       ??_R4RStreamWriter_FILE@stdio@media@modules@UModSys@@6B@ 000000014001e1e0     umodsys_lib_libmedia:umodsys.mod.media.stdio.obj
 0002:00004208       ??_R3RStreamWriter_FILE@stdio@media@modules@UModSys@@8 000000014001e208     umodsys_lib_libmedia:umodsys.mod.media.stdio.obj
 0002:00004220       ??_R2RStreamWriter_FILE@stdio@media@modules@UModSys@@8 000000014001e220     umodsys_lib_libmedia:umodsys.mod.media.stdio.obj
 0002:00004248       ??_R1A@?0A@EA@RStreamWriter_FILE@stdio@media@modules@UModSys@@8 000000014001e248     umodsys_lib_libmedia:umodsys.mod.media.stdio.obj
 0002:00004270       ??_R4RStreamReader_FILE@stdio@media@modules@UModSys@@6B@ 000000014001e270     umodsys_lib_libmedia:umodsys.mod.media.stdio.obj
 0002:00004298       ??_R3RStreamReader_FILE@stdio@media@modules@UModSys@@8 000000014001e298     umodsys_lib_libmedia:umodsys.mod.media.stdio.obj
 0002:000042b0       ??_R2RStreamReader_FILE@stdio@media@modules@UModSys@@8 000000014001e2b0     umodsys_lib_libmedia:umodsys.mod.media.stdio.obj
 0002:000042d8       ??_R1A@?0A@EA@RStreamReader_FILE@stdio@media@modules@UModSys@@8 000000014001e2d8     umodsys_lib_libmedia:umodsys.mod.media.stdio.obj
 0002:00004300       ??_R4RGenerator@stdio@media@modules@UModSys@@6B@ 000000014001e300     umodsys_lib_libmedia:umodsys.mod.media.stdio.obj
 0002:00004328       ??_R3RGenerator@stdio@media@modules@UModSys@@8 000000014001e328     umodsys_lib_libmedia:umodsys.mod.media.stdio.obj
 0002:00004340       ??_R2RGenerator@stdio@media@modules@UModSys@@8 000000014001e340     umodsys_lib_libmedia:umodsys.mod.media.stdio.obj
 0002:00004370       ??_R1A@?0A@EA@RGenerator@stdio@media@modules@UModSys@@8 000000014001e370     umodsys_lib_libmedia:umodsys.mod.media.stdio.obj
 0002:00004398       ??_R3IBinArchive@libmedia@UModSys@@8 000000014001e398     umodsys_lib_libmedia:umodsys.mod.media.stdio.obj
 0002:000043b0       ??_R2IBinArchive@libmedia@UModSys@@8 000000014001e3b0     umodsys_lib_libmedia:umodsys.mod.media.stdio.obj
 0002:000043f0       ??_R1A@?0A@EA@IBinArchive@libmedia@UModSys@@8 000000014001e3f0     umodsys_lib_libmedia:umodsys.mod.media.stdio.obj
 0002:00004418       ??_R3ILibObject@libmedia@UModSys@@8 000000014001e418     umodsys_lib_libmedia:umodsys.mod.media.stdio.obj
 0002:00004430       ??_R2ILibObject@libmedia@UModSys@@8 000000014001e430     umodsys_lib_libmedia:umodsys.mod.media.stdio.obj
 0002:00004468       ??_R17?0A@EA@IResolver@SFlags@libmedia@UModSys@@8 000000014001e468     umodsys_lib_libmedia:umodsys.mod.media.stdio.obj
 0002:00004490       ??_R17?0A@EA@IResolverAuto@SFlags@libmedia@UModSys@@8 000000014001e490     umodsys_lib_libmedia:umodsys.mod.media.stdio.obj
 0002:000044b8       ??_R17?0A@EA@ISetter@SFlags@libmedia@UModSys@@8 000000014001e4b8     umodsys_lib_libmedia:umodsys.mod.media.stdio.obj
 0002:000044e0       ??_R3ISetter@SFlags@libmedia@UModSys@@8 000000014001e4e0     umodsys_lib_libmedia:umodsys.mod.media.stdio.obj
 0002:000044f8       ??_R2ISetter@SFlags@libmedia@UModSys@@8 000000014001e4f8     umodsys_lib_libmedia:umodsys.mod.media.stdio.obj
 0002:00004518       ??_R1A@?0A@EA@IResolverAuto@SFlags@libmedia@UModSys@@8 000000014001e518     umodsys_lib_libmedia:umodsys.mod.media.stdio.obj
 0002:00004540       ??_R3IResolverAuto@SFlags@libmedia@UModSys@@8 000000014001e540     umodsys_lib_libmedia:umodsys.mod.media.stdio.obj
 0002:00004558       ??_R2IResolverAuto@SFlags@libmedia@UModSys@@8 000000014001e558     umodsys_lib_libmedia:umodsys.mod.media.stdio.obj
 0002:00004570       ??_R1A@?0A@EA@IResolver@SFlags@libmedia@UModSys@@8 000000014001e570     umodsys_lib_libmedia:umodsys.mod.media.stdio.obj
 0002:00004598       ??_R3IResolver@SFlags@libmedia@UModSys@@8 000000014001e598     umodsys_lib_libmedia:umodsys.mod.media.stdio.obj
 0002:000045b0       ??_R2IResolver@SFlags@libmedia@UModSys@@8 000000014001e5b0     umodsys_lib_libmedia:umodsys.mod.media.stdio.obj
 0002:000045c0       ??_R1A@?0A@EA@ISetter@SFlags@libmedia@UModSys@@8 000000014001e5c0     umodsys_lib_libmedia:umodsys.mod.media.stdio.obj
 0002:000045e8       ??_R1A@?0A@EA@ILibObject@libmedia@UModSys@@8 000000014001e5e8     umodsys_lib_libmedia:umodsys.mod.media.stdio.obj
 0002:00004610       ??_R3IStreamWriter@libmedia@UModSys@@8 000000014001e610     umodsys_lib_libmedia:umodsys.mod.media.stdio.obj
 0002:00004628       ??_R2IStreamWriter@libmedia@UModSys@@8 000000014001e628     umodsys_lib_libmedia:umodsys.mod.media.stdio.obj
 0002:00004648       ??_R1A@?0A@EA@IStreamWriter@libmedia@UModSys@@8 000000014001e648     umodsys_lib_libmedia:umodsys.mod.media.stdio.obj
 0002:00004670       ??_R3IStreamReader@libmedia@UModSys@@8 000000014001e670     umodsys_lib_libmedia:umodsys.mod.media.stdio.obj
 0002:00004688       ??_R2IStreamReader@libmedia@UModSys@@8 000000014001e688     umodsys_lib_libmedia:umodsys.mod.media.stdio.obj
 0002:000046a8       ??_R1A@?0A@EA@IStreamReader@libmedia@UModSys@@8 000000014001e6a8     umodsys_lib_libmedia:umodsys.mod.media.stdio.obj
 0002:000046d0       ??_R3IGenerator@base@UModSys@@8 000000014001e6d0     umodsys_lib_libmedia:umodsys.mod.media.stdio.obj
 0002:000046e8       ??_R2IGenerator@base@UModSys@@8 000000014001e6e8     umodsys_lib_libmedia:umodsys.mod.media.stdio.obj
 0002:00004710       ??_R1A@?0A@EA@IGenerator@base@UModSys@@8 000000014001e710     umodsys_lib_libmedia:umodsys.mod.media.stdio.obj
 0002:00004738       ??_R3IModObject@base@UModSys@@8 000000014001e738     umodsys_lib_libmedia:umodsys.mod.media.stdio.obj
 0002:00004750       ??_R2IModObject@base@UModSys@@8 000000014001e750     umodsys_lib_libmedia:umodsys.mod.media.stdio.obj
 0002:00004770       ??_R1A@?0A@EA@IModObject@base@UModSys@@8 000000014001e770     umodsys_lib_libmedia:umodsys.mod.media.stdio.obj
 0002:00004798       ??_R4IRefObject@core@UModSys@@6B@ 000000014001e798     umodsys_lib_libmedia:umodsys.mod.media.stdio.obj
 0002:000047c0       ??_R3IRefObject@core@UModSys@@8 000000014001e7c0     umodsys_lib_libmedia:umodsys.mod.media.stdio.obj
 0002:000047d8       ??_R2IRefObject@core@UModSys@@8 000000014001e7d8     umodsys_lib_libmedia:umodsys.mod.media.stdio.obj
 0002:000047f0       ??_R1A@?0A@EA@IRefObject@core@UModSys@@8 000000014001e7f0     umodsys_lib_libmedia:umodsys.mod.media.stdio.obj
 0002:00004818       ??_R4IRoot@core@UModSys@@6B@ 000000014001e818     umodsys_lib_libmedia:umodsys.mod.media.stdio.obj
 0002:00004840       ??_R3IRoot@core@UModSys@@8 000000014001e840     umodsys_lib_libmedia:umodsys.mod.media.stdio.obj
 0002:00004858       ??_R2IRoot@core@UModSys@@8 000000014001e858     umodsys_lib_libmedia:umodsys.mod.media.stdio.obj
 0002:00004868       ??_R1A@?0A@EA@IRoot@core@UModSys@@8 000000014001e868     umodsys_lib_libmedia:umodsys.mod.media.stdio.obj
 0002:00004890       ??_R4RModuleReg@stdlib@media@modules@UModSys@@6B@ 000000014001e890     umodsys_lib_libmedia:umodsys.mod.media.stdlib.obj
 0002:000048b8       ??_R3RModuleReg@stdlib@media@modules@UModSys@@8 000000014001e8b8     umodsys_lib_libmedia:umodsys.mod.media.stdlib.obj
 0002:000048d0       ??_R2RModuleReg@stdlib@media@modules@UModSys@@8 000000014001e8d0     umodsys_lib_libmedia:umodsys.mod.media.stdlib.obj
 0002:000048e8       ??_R1A@?0A@EA@RModuleReg@stdlib@media@modules@UModSys@@8 000000014001e8e8     umodsys_lib_libmedia:umodsys.mod.media.stdlib.obj
 0002:00004910       ??_R4RLibraryObjFilter@stdlib@media@modules@UModSys@@6BISetter@SFlags@libmedia@4@@ 000000014001e910     umodsys_lib_libmedia:umodsys.mod.media.stdlib.obj
 0002:00004938       ??_R4RLibraryObjFilter@stdlib@media@modules@UModSys@@6BIRefObject@core@4@@ 000000014001e938     umodsys_lib_libmedia:umodsys.mod.media.stdlib.obj
 0002:00004960       ??_R3RLibraryObjFilter@stdlib@media@modules@UModSys@@8 000000014001e960     umodsys_lib_libmedia:umodsys.mod.media.stdlib.obj
 0002:00004980       ??_R2RLibraryObjFilter@stdlib@media@modules@UModSys@@8 000000014001e980     umodsys_lib_libmedia:umodsys.mod.media.stdlib.obj
 0002:000049d0       ??_R1A@?0A@EA@RLibraryObjFilter@stdlib@media@modules@UModSys@@8 000000014001e9d0     umodsys_lib_libmedia:umodsys.mod.media.stdlib.obj
 0002:000049f8       ??_R4RLibraryObjCache@stdlib@media@modules@UModSys@@6BISetter@SFlags@libmedia@4@@ 000000014001e9f8     umodsys_lib_libmedia:umodsys.mod.media.stdlib.obj
 0002:00004a20       ??_R4RLibraryObjCache@stdlib@media@modules@UModSys@@6BIRefObject@core@4@@ 000000014001ea20     umodsys_lib_libmedia:umodsys.mod.media.stdlib.obj
 0002:00004a48       ??_R3RLibraryObjCache@stdlib@media@modules@UModSys@@8 000000014001ea48     umodsys_lib_libmedia:umodsys.mod.media.stdlib.obj
 0002:00004a60       ??_R2RLibraryObjCache@stdlib@media@modules@UModSys@@8 000000014001ea60     umodsys_lib_libmedia:umodsys.mod.media.stdlib.obj
 0002:00004ab0       ??_R1A@?0A@EA@RLibraryObjCache@stdlib@media@modules@UModSys@@8 000000014001eab0     umodsys_lib_libmedia:umodsys.mod.media.stdlib.obj
 0002:00004ad8       ??_R4RLibraryLayered@stdlib@media@modules@UModSys@@6BISetter@SFlags@libmedia@4@@ 000000014001ead8     umodsys_lib_libmedia:umodsys.mod.media.stdlib.obj
 0002:00004b00       ??_R4RLibraryLayered@stdlib@media@modules@UModSys@@6BIRefObject@core@4@@ 000000014001eb00     umodsys_lib_libmedia:umodsys.mod.media.stdlib.obj
 0002:00004b28       ??_R3RLibraryLayered@stdlib@media@modules@UModSys@@8 000000014001eb28     umodsys_lib_libmedia:umodsys.mod.media.stdlib.obj
 0002:00004b40       ??_R2RLibraryLayered@stdlib@media@modules@UModSys@@8 000000014001eb40     umodsys_lib_libmedia:umodsys.mod.media.stdlib.obj
 0002:00004b90       ??_R1A@?0A@EA@RLibraryLayered@stdlib@media@modules@UModSys@@8 000000014001eb90     umodsys_lib_libmedia:umodsys.mod.media.stdlib.obj
 0002:00004bb8       ??_R4RLibraryBinCache@stdlib@media@modules@UModSys@@6BISetter@SFlags@libmedia@4@@ 000000014001ebb8     umodsys_lib_libmedia:umodsys.mod.media.stdlib.obj
 0002:00004be0       ??_R4RLibraryBinCache@stdlib@media@modules@UModSys@@6BIRefObject@core@4@@ 000000014001ebe0     umodsys_lib_libmedia:umodsys.mod.media.stdlib.obj
 0002:00004c08       ??_R3RLibraryBinCache@stdlib@media@modules@UModSys@@8 000000014001ec08     umodsys_lib_libmedia:umodsys.mod.media.stdlib.obj
 0002:00004c20       ??_R2RLibraryBinCache@stdlib@media@modules@UModSys@@8 000000014001ec20     umodsys_lib_libmedia:umodsys.mod.media.stdlib.obj
 0002:00004c70       ??_R1A@?0A@EA@RLibraryBinCache@stdlib@media@modules@UModSys@@8 000000014001ec70     umodsys_lib_libmedia:umodsys.mod.media.stdlib.obj
 0002:00004c98       ??_R4RLibraryBinTree@stdlib@media@modules@UModSys@@6BISetter@SFlags@libmedia@4@@ 000000014001ec98     umodsys_lib_libmedia:umodsys.mod.media.stdlib.obj
 0002:00004cc0       ??_R4RLibraryBinTree@stdlib@media@modules@UModSys@@6BIRefObject@core@4@@ 000000014001ecc0     umodsys_lib_libmedia:umodsys.mod.media.stdlib.obj
 0002:00004ce8       ??_R3RLibraryBinTree@stdlib@media@modules@UModSys@@8 000000014001ece8     umodsys_lib_libmedia:umodsys.mod.media.stdlib.obj
 0002:00004d00       ??_R2RLibraryBinTree@stdlib@media@modules@UModSys@@8 000000014001ed00     umodsys_lib_libmedia:umodsys.mod.media.stdlib.obj
 0002:00004d50       ??_R1A@?0A@EA@RLibraryBinTree@stdlib@media@modules@UModSys@@8 000000014001ed50     umodsys_lib_libmedia:umodsys.mod.media.stdlib.obj
 0002:00004d78       ??_R4RBinArchiveFrame@stdlib@media@modules@UModSys@@6BISetter@SFlags@libmedia@4@@ 000000014001ed78     umodsys_lib_libmedia:umodsys.mod.media.stdlib.obj
 0002:00004da0       ??_R4RBinArchiveFrame@stdlib@media@modules@UModSys@@6BIRefObject@core@4@@ 000000014001eda0     umodsys_lib_libmedia:umodsys.mod.media.stdlib.obj
 0002:00004dc8       ??_R3RBinArchiveFrame@stdlib@media@modules@UModSys@@8 000000014001edc8     umodsys_lib_libmedia:umodsys.mod.media.stdlib.obj
 0002:00004de0       ??_R2RBinArchiveFrame@stdlib@media@modules@UModSys@@8 000000014001ede0     umodsys_lib_libmedia:umodsys.mod.media.stdlib.obj
 0002:00004e30       ??_R1A@?0A@EA@RBinArchiveFrame@stdlib@media@modules@UModSys@@8 000000014001ee30     umodsys_lib_libmedia:umodsys.mod.media.stdlib.obj
 0002:00004e58       ??_R4RUtilities@stdlib@media@modules@UModSys@@6B@ 000000014001ee58     umodsys_lib_libmedia:umodsys.mod.media.stdlib.obj
 0002:00004e80       ??_R3RUtilities@stdlib@media@modules@UModSys@@8 000000014001ee80     umodsys_lib_libmedia:umodsys.mod.media.stdlib.obj
 0002:00004e98       ??_R2RUtilities@stdlib@media@modules@UModSys@@8 000000014001ee98     umodsys_lib_libmedia:umodsys.mod.media.stdlib.obj
 0002:00004ec0       ??_R1A@?0A@EA@RUtilities@stdlib@media@modules@UModSys@@8 000000014001eec0     umodsys_lib_libmedia:umodsys.mod.media.stdlib.obj
 0002:00004ee8       ??_R4RGenerator@stdlib@media@modules@UModSys@@6B@ 000000014001eee8     umodsys_lib_libmedia:umodsys.mod.media.stdlib.obj
 0002:00004f10       ??_R3RGenerator@stdlib@media@modules@UModSys@@8 000000014001ef10     umodsys_lib_libmedia:umodsys.mod.media.stdlib.obj
 0002:00004f28       ??_R2RGenerator@stdlib@media@modules@UModSys@@8 000000014001ef28     umodsys_lib_libmedia:umodsys.mod.media.stdlib.obj
 0002:00004f58       ??_R1A@?0A@EA@RGenerator@stdlib@media@modules@UModSys@@8 000000014001ef58     umodsys_lib_libmedia:umodsys.mod.media.stdlib.obj
 0002:00004f80       ??_R4RResolverChain@SFlagsChain@libmedia@UModSys@@6B@ 000000014001ef80     umodsys_lib_libmedia:umodsys.mod.media.stdlib.obj
 0002:00004fa8       ??_R3RResolverChain@SFlagsChain@libmedia@UModSys@@8 000000014001efa8     umodsys_lib_libmedia:umodsys.mod.media.stdlib.obj
 0002:00004fc0       ??_R2RResolverChain@SFlagsChain@libmedia@UModSys@@8 000000014001efc0     umodsys_lib_libmedia:umodsys.mod.media.stdlib.obj
 0002:00004fd8       ??_R1A@?0A@EA@RResolverChain@SFlagsChain@libmedia@UModSys@@8 000000014001efd8     umodsys_lib_libmedia:umodsys.mod.media.stdlib.obj
 0002:00005000       ??_R3ILibraryLayered@libmedia@UModSys@@8 000000014001f000     umodsys_lib_libmedia:umodsys.mod.media.stdlib.obj
 0002:00005020       ??_R2ILibraryLayered@libmedia@UModSys@@8 000000014001f020     umodsys_lib_libmedia:umodsys.mod.media.stdlib.obj
 0002:00005068       ??_R1A@?0A@EA@ILibraryLayered@libmedia@UModSys@@8 000000014001f068     umodsys_lib_libmedia:umodsys.mod.media.stdlib.obj
 0002:00005090       ??_R3ILibraryObjCache@libmedia@UModSys@@8 000000014001f090     umodsys_lib_libmedia:umodsys.mod.media.stdlib.obj
 0002:000050b0       ??_R2ILibraryObjCache@libmedia@UModSys@@8 000000014001f0b0     umodsys_lib_libmedia:umodsys.mod.media.stdlib.obj
 0002:000050f8       ??_R1A@?0A@EA@ILibraryObjCache@libmedia@UModSys@@8 000000014001f0f8     umodsys_lib_libmedia:umodsys.mod.media.stdlib.obj
 0002:00005120       ??_R3ILibraryObjFilter@libmedia@UModSys@@8 000000014001f120     umodsys_lib_libmedia:umodsys.mod.media.stdlib.obj
 0002:00005140       ??_R2ILibraryObjFilter@libmedia@UModSys@@8 000000014001f140     umodsys_lib_libmedia:umodsys.mod.media.stdlib.obj
 0002:00005188       ??_R1A@?0A@EA@ILibraryObjFilter@libmedia@UModSys@@8 000000014001f188     umodsys_lib_libmedia:umodsys.mod.media.stdlib.obj
 0002:000051b0       ??_R3ILibraryBinCache@libmedia@UModSys@@8 000000014001f1b0     umodsys_lib_libmedia:umodsys.mod.media.stdlib.obj
 0002:000051d0       ??_R2ILibraryBinCache@libmedia@UModSys@@8 000000014001f1d0     umodsys_lib_libmedia:umodsys.mod.media.stdlib.obj
 0002:00005218       ??_R1A@?0A@EA@ILibraryBinCache@libmedia@UModSys@@8 000000014001f218     umodsys_lib_libmedia:umodsys.mod.media.stdlib.obj
 0002:00005240       ??_R3ILibraryBinTree@libmedia@UModSys@@8 000000014001f240     umodsys_lib_libmedia:umodsys.mod.media.stdlib.obj
 0002:00005260       ??_R2ILibraryBinTree@libmedia@UModSys@@8 000000014001f260     umodsys_lib_libmedia:umodsys.mod.media.stdlib.obj
 0002:000052a8       ??_R1A@?0A@EA@ILibraryBinTree@libmedia@UModSys@@8 000000014001f2a8     umodsys_lib_libmedia:umodsys.mod.media.stdlib.obj
 0002:000052d0       ??_R3ILibrary@libmedia@UModSys@@8 000000014001f2d0     umodsys_lib_libmedia:umodsys.mod.media.stdlib.obj
 0002:000052e8       ??_R2ILibrary@libmedia@UModSys@@8 000000014001f2e8     umodsys_lib_libmedia:umodsys.mod.media.stdlib.obj
 0002:00005328       ??_R1A@?0A@EA@ILibrary@libmedia@UModSys@@8 000000014001f328     umodsys_lib_libmedia:umodsys.mod.media.stdlib.obj
 0002:00005350       ??_R3IBinArchiveFrame@libmedia@UModSys@@8 000000014001f350     umodsys_lib_libmedia:umodsys.mod.media.stdlib.obj
 0002:00005370       ??_R2IBinArchiveFrame@libmedia@UModSys@@8 000000014001f370     umodsys_lib_libmedia:umodsys.mod.media.stdlib.obj
 0002:000053b8       ??_R1A@?0A@EA@IBinArchiveFrame@libmedia@UModSys@@8 000000014001f3b8     umodsys_lib_libmedia:umodsys.mod.media.stdlib.obj
 0002:000053e0       ??_R3IUtilities@libmedia@UModSys@@8 000000014001f3e0     umodsys_lib_libmedia:umodsys.mod.media.stdlib.obj
 0002:000053f8       ??_R2IUtilities@libmedia@UModSys@@8 000000014001f3f8     umodsys_lib_libmedia:umodsys.mod.media.stdlib.obj
 0002:00005418       ??_R1A@?0A@EA@IUtilities@libmedia@UModSys@@8 000000014001f418     umodsys_lib_libmedia:umodsys.mod.media.stdlib.obj
 0002:00005440       ??_R4RConsole_std@rsystem@base@UModSys@@6B@ 000000014001f440     umodsys_lib_basesys:umodsys.basesys.rconsole_std.obj
 0002:00005468       ??_R3RConsole_std@rsystem@base@UModSys@@8 000000014001f468     umodsys_lib_basesys:umodsys.basesys.rconsole_std.obj
 0002:00005480       ??_R2RConsole_std@rsystem@base@UModSys@@8 000000014001f480     umodsys_lib_basesys:umodsys.basesys.rconsole_std.obj
 0002:000054a8       ??_R1A@?0A@EA@RConsole_std@rsystem@base@UModSys@@8 000000014001f4a8     umodsys_lib_basesys:umodsys.basesys.rconsole_std.obj
 0002:000054d0       ??_R4IConsole@base@UModSys@@6B@ 000000014001f4d0     umodsys_lib_basesys:umodsys.basesys.rconsole_std.obj
 0002:000054f8       ??_R3IConsole@base@UModSys@@8 000000014001f4f8     umodsys_lib_basesys:umodsys.basesys.rconsole_std.obj
 0002:00005510       ??_R2IConsole@base@UModSys@@8 000000014001f510     umodsys_lib_basesys:umodsys.basesys.rconsole_std.obj
 0002:00005530       ??_R1A@?0A@EA@IConsole@base@UModSys@@8 000000014001f530     umodsys_lib_basesys:umodsys.basesys.rconsole_std.obj
 0002:00005558       ??_R4RSystem@rsystem@base@UModSys@@6BISourceContextAdapter@core@3@@ 000000014001f558     umodsys_lib_basesys:umodsys.basesys.rsystem_main.obj
 0002:00005580       ??_R4RSystem@rsystem@base@UModSys@@6BIUniquePointerResolver@core@3@@ 000000014001f580     umodsys_lib_basesys:umodsys.basesys.rsystem_main.obj
 0002:000055a8       ??_R4RSystem@rsystem@base@UModSys@@6BISystem@23@@ 000000014001f5a8     umodsys_lib_basesys:umodsys.basesys.rsystem_main.obj
 0002:000055d0       ??_R3RSystem@rsystem@base@UModSys@@8 000000014001f5d0     umodsys_lib_basesys:umodsys.basesys.rsystem_main.obj
 0002:000055e8       ??_R2RSystem@rsystem@base@UModSys@@8 000000014001f5e8     umodsys_lib_basesys:umodsys.basesys.rsystem_main.obj
 0002:00005618       ??_R1BA@?0A@EA@ISourceContextAdapter@core@UModSys@@8 000000014001f618     umodsys_lib_basesys:umodsys.basesys.rsystem_main.obj
 0002:00005640       ??_R17?0A@EA@IUniquePointerResolver@core@UModSys@@8 000000014001f640     umodsys_lib_basesys:umodsys.basesys.rsystem_main.obj
 0002:00005668       ??_R1A@?0A@EA@RSystem@rsystem@base@UModSys@@8 000000014001f668     umodsys_lib_basesys:umodsys.basesys.rsystem_main.obj
 0002:00005690       ??_R4?$TRMemAlloc_CC@U?$TMemAllocHeader@USMagic@mem_headers@rsystem@base@UModSys@@U?$TPool@X@2345@USDebug@2345@UVoid@core@5@U895@@rsystem@base@UModSys@@USMemAlloc_Malloc@core@4@@rsystem@base@UModSys@@6B@ 000000014001f690     umodsys_lib_basesys:umodsys.basesys.rsystem_main.obj
 0002:000056b8       ??_R3?$TRMemAlloc_CC@U?$TMemAllocHeader@USMagic@mem_headers@rsystem@base@UModSys@@U?$TPool@X@2345@USDebug@2345@UVoid@core@5@U895@@rsystem@base@UModSys@@USMemAlloc_Malloc@core@4@@rsystem@base@UModSys@@8 000000014001f6b8     umodsys_lib_basesys:umodsys.basesys.rsystem_main.obj
 0002:000056d0       ??_R2?$TRMemAlloc_CC@U?$TMemAllocHeader@USMagic@mem_headers@rsystem@base@UModSys@@U?$TPool@X@2345@USDebug@2345@UVoid@core@5@U895@@rsystem@base@UModSys@@USMemAlloc_Malloc@core@4@@rsystem@base@UModSys@@8 000000014001f6d0     umodsys_lib_basesys:umodsys.basesys.rsystem_main.obj
 0002:000056f0       ??_R17?0A@EA@SMemAlloc_Malloc@core@UModSys@@8 000000014001f6f0     umodsys_lib_basesys:umodsys.basesys.rsystem_main.obj
 0002:00005718       ??_R3SMemAlloc_Malloc@core@UModSys@@8 000000014001f718     umodsys_lib_basesys:umodsys.basesys.rsystem_main.obj
 0002:00005730       ??_R2SMemAlloc_Malloc@core@UModSys@@8 000000014001f730     umodsys_lib_basesys:umodsys.basesys.rsystem_main.obj
 0002:00005740       ??_R1A@?0A@EA@SMemAlloc_Malloc@core@UModSys@@8 000000014001f740     umodsys_lib_basesys:umodsys.basesys.rsystem_main.obj
 0002:00005768       ??_R1A@?0A@EA@?$TRMemAlloc_CC@U?$TMemAllocHeader@USMagic@mem_headers@rsystem@base@UModSys@@U?$TPool@X@2345@USDebug@2345@UVoid@core@5@U895@@rsystem@base@UModSys@@USMemAlloc_Malloc@core@4@@rsystem@base@UModSys@@8 000000014001f768     umodsys_lib_basesys:umodsys.basesys.rsystem_main.obj
 0002:00005790       ??_R3IUniquePointerResolver@core@UModSys@@8 000000014001f790     umodsys_lib_basesys:umodsys.basesys.rsystem_main.obj
 0002:000057a8       ??_R2IUniquePointerResolver@core@UModSys@@8 000000014001f7a8     umodsys_lib_basesys:umodsys.basesys.rsystem_main.obj
 0002:000057b8       ??_R1A@?0A@EA@IUniquePointerResolver@core@UModSys@@8 000000014001f7b8     umodsys_lib_basesys:umodsys.basesys.rsystem_main.obj
 0002:000057e0       ??_R3ISourceContextAdapter@core@UModSys@@8 000000014001f7e0     umodsys_lib_basesys:umodsys.basesys.rsystem_main.obj
 0002:000057f8       ??_R2ISourceContextAdapter@core@UModSys@@8 000000014001f7f8     umodsys_lib_basesys:umodsys.basesys.rsystem_main.obj
 0002:00005808       ??_R1A@?0A@EA@ISourceContextAdapter@core@UModSys@@8 000000014001f808     umodsys_lib_basesys:umodsys.basesys.rsystem_main.obj
 0002:00005830       ??_R4ISystem@base@UModSys@@6B@ 000000014001f830     umodsys_lib_basesys:umodsys.basesys.rsystem_main.obj
 0002:00005858       ??_R3ISystem@base@UModSys@@8 000000014001f858     umodsys_lib_basesys:umodsys.basesys.rsystem_main.obj
 0002:00005870       ??_R2ISystem@base@UModSys@@8 000000014001f870     umodsys_lib_basesys:umodsys.basesys.rsystem_main.obj
 0002:00005888       ??_R1A@?0A@EA@ISystem@base@UModSys@@8 000000014001f888     umodsys_lib_basesys:umodsys.basesys.rsystem_main.obj
 0002:000058b0       ??_R3IMemAlloc@core@UModSys@@8 000000014001f8b0     umodsys_lib_basesys:umodsys.basesys.rsystem_main.obj
 0002:000058c8       ??_R2IMemAlloc@core@UModSys@@8 000000014001f8c8     umodsys_lib_basesys:umodsys.basesys.rsystem_main.obj
 0002:000058d8       ??_R1A@?0A@EA@IMemAlloc@core@UModSys@@8 000000014001f8d8     umodsys_lib_basesys:umodsys.basesys.rsystem_main.obj
 0002:00005900       ??_R4EWarning@core@UModSys@@6B@ 000000014001f900     umodsys_lib_basesys:umodsys.basesys.rsystem_main.obj
 0002:00005928       ??_R3EWarning@core@UModSys@@8 000000014001f928     umodsys_lib_basesys:umodsys.basesys.rsystem_main.obj
 0002:00005940       ??_R2EWarning@core@UModSys@@8 000000014001f940     umodsys_lib_basesys:umodsys.basesys.rsystem_main.obj
 0002:00005958       ??_R1A@?0A@EA@EWarning@core@UModSys@@8 000000014001f958     umodsys_lib_basesys:umodsys.basesys.rsystem_main.obj
 0002:00005980       ??_R4EFatal@core@UModSys@@6B@ 000000014001f980     umodsys_lib_basesys:umodsys.basesys.rsystem_main.obj
 0002:000059a8       ??_R3EFatal@core@UModSys@@8 000000014001f9a8     umodsys_lib_basesys:umodsys.basesys.rsystem_main.obj
 0002:000059c0       ??_R2EFatal@core@UModSys@@8 000000014001f9c0     umodsys_lib_basesys:umodsys.basesys.rsystem_main.obj
 0002:000059d8       ??_R1A@?0A@EA@EFatal@core@UModSys@@8 000000014001f9d8     umodsys_lib_basesys:umodsys.basesys.rsystem_main.obj
 0002:00005a00       ??_R4EExceptionBase@core@UModSys@@6B@ 000000014001fa00     umodsys_lib_basesys:umodsys.basesys.rsystem_main.obj
 0002:00005a28       ??_R3EExceptionBase@core@UModSys@@8 000000014001fa28     umodsys_lib_basesys:umodsys.basesys.rsystem_main.obj
 0002:00005a40       ??_R2EExceptionBase@core@UModSys@@8 000000014001fa40     umodsys_lib_basesys:umodsys.basesys.rsystem_main.obj
 0002:00005a50       ??_R1A@?0A@EA@EExceptionBase@core@UModSys@@8 000000014001fa50     umodsys_lib_basesys:umodsys.basesys.rsystem_main.obj
 0002:00005a78       ??_R4RModuleLoader@rsystem@base@UModSys@@6B@ 000000014001fa78     umodsys_lib_basesys:umodsys.basesys.rmoduleloader.obj
 0002:00005aa0       ??_R3RModuleLoader@rsystem@base@UModSys@@8 000000014001faa0     umodsys_lib_basesys:umodsys.basesys.rmoduleloader.obj
 0002:00005ab8       ??_R2RModuleLoader@rsystem@base@UModSys@@8 000000014001fab8     umodsys_lib_basesys:umodsys.basesys.rmoduleloader.obj
 0002:00005ad0       ??_R1A@?0A@EA@RModuleLoader@rsystem@base@UModSys@@8 000000014001fad0     umodsys_lib_basesys:umodsys.basesys.rmoduleloader.obj
 0002:00005af8       ??_R4IModuleLoader@base@UModSys@@6B@ 000000014001faf8     umodsys_lib_basesys:umodsys.basesys.rmoduleloader.obj
 0002:00005b20       ??_R3IModuleLoader@base@UModSys@@8 000000014001fb20     umodsys_lib_basesys:umodsys.basesys.rmoduleloader.obj
 0002:00005b38       ??_R2IModuleLoader@base@UModSys@@8 000000014001fb38     umodsys_lib_basesys:umodsys.basesys.rmoduleloader.obj
 0002:00005b48       ??_R1A@?0A@EA@IModuleLoader@base@UModSys@@8 000000014001fb48     umodsys_lib_basesys:umodsys.basesys.rmoduleloader.obj
 0002:00005b70       ??_R4RModuleLibraryThis@rsystem@base@UModSys@@6B@ 000000014001fb70     umodsys_lib_basesys:umodsys.basesys.rmodulelibthis.obj
 0002:00005b98       ??_R3RModuleLibraryThis@rsystem@base@UModSys@@8 000000014001fb98     umodsys_lib_basesys:umodsys.basesys.rmodulelibthis.obj
 0002:00005bb0       ??_R2RModuleLibraryThis@rsystem@base@UModSys@@8 000000014001fbb0     umodsys_lib_basesys:umodsys.basesys.rmodulelibthis.obj
 0002:00005be0       ??_R1A@?0A@EA@IModuleLibraryUni@rsystem@base@UModSys@@8 000000014001fbe0     umodsys_lib_basesys:umodsys.basesys.rmodulelibthis.obj
 0002:00005c08       ??_R3IModuleLibraryUni@rsystem@base@UModSys@@8 000000014001fc08     umodsys_lib_basesys:umodsys.basesys.rmodulelibthis.obj
 0002:00005c20       ??_R2IModuleLibraryUni@rsystem@base@UModSys@@8 000000014001fc20     umodsys_lib_basesys:umodsys.basesys.rmodulelibthis.obj
 0002:00005c48       ??_R1A@?0A@EA@IModuleLibrary@base@UModSys@@8 000000014001fc48     umodsys_lib_basesys:umodsys.basesys.rmodulelibthis.obj
 0002:00005c70       ??_R3IModuleLibrary@base@UModSys@@8 000000014001fc70     umodsys_lib_basesys:umodsys.basesys.rmodulelibthis.obj
 0002:00005c88       ??_R2IModuleLibrary@base@UModSys@@8 000000014001fc88     umodsys_lib_basesys:umodsys.basesys.rmodulelibthis.obj
 0002:00005ca8       ??_R1A@?0A@EA@RModuleLibraryThis@rsystem@base@UModSys@@8 000000014001fca8     umodsys_lib_basesys:umodsys.basesys.rmodulelibthis.obj
 0002:00005cd0       ??_R4IModuleLibraryUni@rsystem@base@UModSys@@6B@ 000000014001fcd0     umodsys_lib_basesys:umodsys.basesys.rmodulelib.obj
 0002:00005cf8       ??_R4IModuleLibrary@base@UModSys@@6B@ 000000014001fcf8     umodsys_lib_basesys:umodsys.basesys.rmodulelib.obj
 0002:00005d20       ??_R4RParameters@rsystem@base@UModSys@@6B@ 000000014001fd20     umodsys_lib_basesys:umodsys.basesys.rparameters.obj
 0002:00005d48       ??_R3RParameters@rsystem@base@UModSys@@8 000000014001fd48     umodsys_lib_basesys:umodsys.basesys.rparameters.obj
 0002:00005d60       ??_R2RParameters@rsystem@base@UModSys@@8 000000014001fd60     umodsys_lib_basesys:umodsys.basesys.rparameters.obj
 0002:00005d88       ??_R1A@?0A@EA@RParameters@rsystem@base@UModSys@@8 000000014001fd88     umodsys_lib_basesys:umodsys.basesys.rparameters.obj
 0002:00005db0       ??_R3IParameters@core@UModSys@@8 000000014001fdb0     umodsys_lib_basesys:umodsys.basesys.rparameters.obj
 0002:00005dc8       ??_R2IParameters@core@UModSys@@8 000000014001fdc8     umodsys_lib_basesys:umodsys.basesys.rparameters.obj
 0002:00005de8       ??_R1A@?0A@EA@IParameters@core@UModSys@@8 000000014001fde8     umodsys_lib_basesys:umodsys.basesys.rparameters.obj
 0002:00005e10       ??_R4RModule@rsystem@base@UModSys@@6B@ 000000014001fe10     umodsys_lib_basesys:umodsys.basesys.rmodule.obj
 0002:00005e38       ??_R3RModule@rsystem@base@UModSys@@8 000000014001fe38     umodsys_lib_basesys:umodsys.basesys.rmodule.obj
 0002:00005e50       ??_R2RModule@rsystem@base@UModSys@@8 000000014001fe50     umodsys_lib_basesys:umodsys.basesys.rmodule.obj
 0002:00005e78       ??_R1A@?0A@EA@RModule@rsystem@base@UModSys@@8 000000014001fe78     umodsys_lib_basesys:umodsys.basesys.rmodule.obj
 0002:00005ea0       ??_R4IModule@base@UModSys@@6B@ 000000014001fea0     umodsys_lib_basesys:umodsys.basesys.rmodule.obj
 0002:00005ec8       ??_R3IModule@base@UModSys@@8 000000014001fec8     umodsys_lib_basesys:umodsys.basesys.rmodule.obj
 0002:00005ee0       ??_R2IModule@base@UModSys@@8 000000014001fee0     umodsys_lib_basesys:umodsys.basesys.rmodule.obj
 0002:00005f00       ??_R1A@?0A@EA@IModule@base@UModSys@@8 000000014001ff00     umodsys_lib_basesys:umodsys.basesys.rmodule.obj
 0002:00005f28       ??_R4RModuleLibrarySO@rsystem@base@UModSys@@6B@ 000000014001ff28     umodsys_lib_basesys:umodsys.basesys.rmodulelibso.obj
 0002:00005f50       ??_R3RModuleLibrarySO@rsystem@base@UModSys@@8 000000014001ff50     umodsys_lib_basesys:umodsys.basesys.rmodulelibso.obj
 0002:00005f68       ??_R2RModuleLibrarySO@rsystem@base@UModSys@@8 000000014001ff68     umodsys_lib_basesys:umodsys.basesys.rmodulelibso.obj
 0002:00005f98       ??_R1A@?0A@EA@RModuleLibrarySO@rsystem@base@UModSys@@8 000000014001ff98     umodsys_lib_basesys:umodsys.basesys.rmodulelibso.obj
 0002:00005fc0       ??_R4RModuleLibraryReg_Chain@base@UModSys@@6B@ 000000014001ffc0     umodsys_lib_base:umodsys.base.moduleregchain.obj
 0002:00005fe8       ??_R3RModuleLibraryReg_Chain@base@UModSys@@8 000000014001ffe8     umodsys_lib_base:umodsys.base.moduleregchain.obj
 0002:00006000       ??_R2RModuleLibraryReg_Chain@base@UModSys@@8 0000000140020000     umodsys_lib_base:umodsys.base.moduleregchain.obj
 0002:00006018       ??_R1A@?0A@EA@IModuleLibraryReg@base@UModSys@@8 0000000140020018     umodsys_lib_base:umodsys.base.moduleregchain.obj
 0002:00006040       ??_R3IModuleLibraryReg@base@UModSys@@8 0000000140020040     umodsys_lib_base:umodsys.base.moduleregchain.obj
 0002:00006058       ??_R2IModuleLibraryReg@base@UModSys@@8 0000000140020058     umodsys_lib_base:umodsys.base.moduleregchain.obj
 0002:00006068       ??_R1A@?0A@EA@RModuleLibraryReg_Chain@base@UModSys@@8 0000000140020068     umodsys_lib_base:umodsys.base.moduleregchain.obj
 0002:00006090       ??_R4IModuleLibraryReg@base@UModSys@@6B@ 0000000140020090     umodsys_lib_base:umodsys.base.modulereg.obj
 0002:000060b8       ??_R4IModuleReg@base@UModSys@@6B@ 00000001400200b8     umodsys_lib_base:umodsys.base.modulereg.obj
 0002:000060e0       __rtc_iaa                  00000001400200e0     MSVCRT:_initsect_.obj
 0002:000060e8       __rtc_izz                  00000001400200e8     MSVCRT:_initsect_.obj
 0002:000060f0       __rtc_taa                  00000001400200f0     MSVCRT:_initsect_.obj
 0002:000060f8       __rtc_tzz                  00000001400200f8     MSVCRT:_initsect_.obj
 0002:00009498       _CT??_R0?AUEFatal@core@UModSys@@@8??0EFatal@core@UModSys@@QEAA@AEBU012@@Z48 0000000140023498     umodsys_lib_basesys:umodsys.basesys.rsystem_main.obj
 0002:000094c0       _CT??_R0?AUEExceptionBase@core@UModSys@@@8??0EExceptionBase@core@UModSys@@QEAA@AEBU012@@Z48 00000001400234c0     umodsys_lib_basesys:umodsys.basesys.rsystem_main.obj
 0002:000094e8       _CTA2?AUEFatal@core@UModSys@@ 00000001400234e8     umodsys_lib_basesys:umodsys.basesys.rsystem_main.obj
 0002:00009500       _TI2?AUEFatal@core@UModSys@@ 0000000140023500     umodsys_lib_basesys:umodsys.basesys.rsystem_main.obj
 0002:00009520       _CT??_R0?AUEWarning@core@UModSys@@@8??0EWarning@core@UModSys@@QEAA@AEBU012@@Z48 0000000140023520     umodsys_lib_basesys:umodsys.basesys.rsystem_main.obj
 0002:00009548       _CTA2?AUEWarning@core@UModSys@@ 0000000140023548     umodsys_lib_basesys:umodsys.basesys.rsystem_main.obj
 0002:00009560       _TI2?AUEWarning@core@UModSys@@ 0000000140023560     umodsys_lib_basesys:umodsys.basesys.rsystem_main.obj
 0002:0000957c       __IMPORT_DESCRIPTOR_MSVCR90 000000014002357c     MSVCRT:MSVCR90.dll
 0002:00009590       __IMPORT_DESCRIPTOR_KERNEL32 0000000140023590     kernel32:KERNEL32.dll
 0002:000095a4       __NULL_IMPORT_DESCRIPTOR   00000001400235a4     MSVCRT:MSVCR90.dll
 0003:00000000       ??_R0?AVtype_info@@@8      0000000140024000     MSVCRT:ti_inst.obj
 0003:00000020       __native_dllmain_reason    0000000140024020     MSVCRT:natstart.obj
 0003:00000024       __native_vcclrit_reason    0000000140024024     MSVCRT:natstart.obj
 0003:00000028       __globallocalestatus       0000000140024028     MSVCRT:xthdloc.obj
 0003:0000002c       __defaultmatherr           000000014002402c     MSVCRT:merr.obj
 0003:00000030       __security_cookie          0000000140024030     MSVCRT:gs_cookie.obj
 0003:00000038       __security_cookie_complement 0000000140024038     MSVCRT:gs_cookie.obj
 0003:000000c8       ?so_entry_enabled_flag@base@UModSys@@3HA 00000001400240c8     umodsys_lib_base:umodsys.so_main.win32.obj
 0003:00000160       ?auto_flags@RDataArchiver_OsDir@stdio@media@modules@UModSys@@2U?$TFlags4State@USMediaFlagUid@libmedia@UModSys@@I@tl@5@A 0000000140024160     umodsys_lib_libmedia:umodsys.mod.media.stdio.obj
 0003:00000164       ?auto_flags@RLibraryLayered@stdlib@media@modules@UModSys@@2U?$TFlags4State@USMediaFlagUid@libmedia@UModSys@@I@tl@5@A 0000000140024164     umodsys_lib_libmedia:umodsys.mod.media.stdlib.obj
 0003:00000168       ??_R0?AUIModuleReg@base@UModSys@@@8 0000000140024168     umodsys_lib_libmedia:umodsys.mod.media.stdio.obj
 0003:00000198       ??_R0?AURModuleReg@stdio@media@modules@UModSys@@@8 0000000140024198     umodsys_lib_libmedia:umodsys.mod.media.stdio.obj
 0003:000001e0       ??_R0?AURDataArchiver_OsDir@stdio@media@modules@UModSys@@@8 00000001400241e0     umodsys_lib_libmedia:umodsys.mod.media.stdio.obj
 0003:00000230       ??_R0?AURStreamWriter_FILE@stdio@media@modules@UModSys@@@8 0000000140024230     umodsys_lib_libmedia:umodsys.mod.media.stdio.obj
 0003:00000280       ??_R0?AURStreamReader_FILE@stdio@media@modules@UModSys@@@8 0000000140024280     umodsys_lib_libmedia:umodsys.mod.media.stdio.obj
 0003:000002c8       ??_R0?AURGenerator@stdio@media@modules@UModSys@@@8 00000001400242c8     umodsys_lib_libmedia:umodsys.mod.media.stdio.obj
 0003:00000308       ??_R0?AUIBinArchive@libmedia@UModSys@@@8 0000000140024308     umodsys_lib_libmedia:umodsys.mod.media.stdio.obj
 0003:00000340       ??_R0?AUIResolver@SFlags@libmedia@UModSys@@@8 0000000140024340     umodsys_lib_libmedia:umodsys.mod.media.stdio.obj
 0003:00000378       ??_R0?AUIResolverAuto@SFlags@libmedia@UModSys@@@8 0000000140024378     umodsys_lib_libmedia:umodsys.mod.media.stdio.obj
 0003:000003b8       ??_R0?AUISetter@SFlags@libmedia@UModSys@@@8 00000001400243b8     umodsys_lib_libmedia:umodsys.mod.media.stdio.obj
 0003:000003f0       ??_R0?AUILibObject@libmedia@UModSys@@@8 00000001400243f0     umodsys_lib_libmedia:umodsys.mod.media.stdio.obj
 0003:00000428       ??_R0?AUIStreamWriter@libmedia@UModSys@@@8 0000000140024428     umodsys_lib_libmedia:umodsys.mod.media.stdio.obj
 0003:00000460       ??_R0?AUIStreamReader@libmedia@UModSys@@@8 0000000140024460     umodsys_lib_libmedia:umodsys.mod.media.stdio.obj
 0003:00000498       ??_R0?AUIGenerator@base@UModSys@@@8 0000000140024498     umodsys_lib_libmedia:umodsys.mod.media.stdio.obj
 0003:000004c8       ??_R0?AUIModObject@base@UModSys@@@8 00000001400244c8     umodsys_lib_libmedia:umodsys.mod.media.stdio.obj
 0003:000004f8       ??_R0?AUIRefObject@core@UModSys@@@8 00000001400244f8     umodsys_lib_libmedia:umodsys.mod.media.stdio.obj
 0003:00000528       ??_R0?AUIRoot@core@UModSys@@@8 0000000140024528     umodsys_lib_libmedia:umodsys.mod.media.stdio.obj
 0003:00000558       ??_R0?AURModuleReg@stdlib@media@modules@UModSys@@@8 0000000140024558     umodsys_lib_libmedia:umodsys.mod.media.stdlib.obj
 0003:000005a0       ??_R0?AURLibraryObjFilter@stdlib@media@modules@UModSys@@@8 00000001400245a0     umodsys_lib_libmedia:umodsys.mod.media.stdlib.obj
 0003:000005f0       ??_R0?AURLibraryObjCache@stdlib@media@modules@UModSys@@@8 00000001400245f0     umodsys_lib_libmedia:umodsys.mod.media.stdlib.obj
 0003:00000640       ??_R0?AURLibraryLayered@stdlib@media@modules@UModSys@@@8 0000000140024640     umodsys_lib_libmedia:umodsys.mod.media.stdlib.obj
 0003:00000690       ??_R0?AURLibraryBinCache@stdlib@media@modules@UModSys@@@8 0000000140024690     umodsys_lib_libmedia:umodsys.mod.media.stdlib.obj
 0003:000006e0       ??_R0?AURLibraryBinTree@stdlib@media@modules@UModSys@@@8 00000001400246e0     umodsys_lib_libmedia:umodsys.mod.media.stdlib.obj
 0003:00000730       ??_R0?AURBinArchiveFrame@stdlib@media@modules@UModSys@@@8 0000000140024730     umodsys_lib_libmedia:umodsys.mod.media.stdlib.obj
 0003:00000778       ??_R0?AURUtilities@stdlib@media@modules@UModSys@@@8 0000000140024778     umodsys_lib_libmedia:umodsys.mod.media.stdlib.obj
 0003:000007b8       ??_R0?AURGenerator@stdlib@media@modules@UModSys@@@8 00000001400247b8     umodsys_lib_libmedia:umodsys.mod.media.stdlib.obj
 0003:00000800       ??_R0?AURResolverChain@SFlagsChain@libmedia@UModSys@@@8 0000000140024800     umodsys_lib_libmedia:umodsys.mod.media.stdlib.obj
 0003:00000848       ??_R0?AUILibraryLayered@libmedia@UModSys@@@8 0000000140024848     umodsys_lib_libmedia:umodsys.mod.media.stdlib.obj
 0003:00000880       ??_R0?AUILibraryObjCache@libmedia@UModSys@@@8 0000000140024880     umodsys_lib_libmedia:umodsys.mod.media.stdlib.obj
 0003:000008b8       ??_R0?AUILibraryObjFilter@libmedia@UModSys@@@8 00000001400248b8     umodsys_lib_libmedia:umodsys.mod.media.stdlib.obj
 0003:000008f8       ??_R0?AUILibraryBinCache@libmedia@UModSys@@@8 00000001400248f8     umodsys_lib_libmedia:umodsys.mod.media.stdlib.obj
 0003:00000930       ??_R0?AUILibraryBinTree@libmedia@UModSys@@@8 0000000140024930     umodsys_lib_libmedia:umodsys.mod.media.stdlib.obj
 0003:00000968       ??_R0?AUILibrary@libmedia@UModSys@@@8 0000000140024968     umodsys_lib_libmedia:umodsys.mod.media.stdlib.obj
 0003:00000998       ??_R0?AUIBinArchiveFrame@libmedia@UModSys@@@8 0000000140024998     umodsys_lib_libmedia:umodsys.mod.media.stdlib.obj
 0003:000009d0       ??_R0?AUIUtilities@libmedia@UModSys@@@8 00000001400249d0     umodsys_lib_libmedia:umodsys.mod.media.stdlib.obj
 0003:00000a08       ??_R0?AURConsole_std@rsystem@base@UModSys@@@8 0000000140024a08     umodsys_lib_basesys:umodsys.basesys.rconsole_std.obj
 0003:00000a40       ??_R0?AUIConsole@base@UModSys@@@8 0000000140024a40     umodsys_lib_basesys:umodsys.basesys.rconsole_std.obj
 0003:00000a70       ??_R0?AURSystem@rsystem@base@UModSys@@@8 0000000140024a70     umodsys_lib_basesys:umodsys.basesys.rsystem_main.obj
 0003:00000aa8       ??_R0?AUSMemAlloc_Malloc@core@UModSys@@@8 0000000140024aa8     umodsys_lib_basesys:umodsys.basesys.rsystem_main.obj
 0003:00000ae0       ??_R0?AU?$TRMemAlloc_CC@U?$TMemAllocHeader@USMagic@mem_headers@rsystem@base@UModSys@@U?$TPool@X@2345@USDebug@2345@UVoid@core@5@U895@@rsystem@base@UModSys@@USMemAlloc_Malloc@core@4@@rsystem@base@UModSys@@@8 0000000140024ae0     umodsys_lib_basesys:umodsys.basesys.rsystem_main.obj
 0003:00000bb8       ??_R0?AUIUniquePointerResolver@core@UModSys@@@8 0000000140024bb8     umodsys_lib_basesys:umodsys.basesys.rsystem_main.obj
 0003:00000bf8       ??_R0?AUISourceContextAdapter@core@UModSys@@@8 0000000140024bf8     umodsys_lib_basesys:umodsys.basesys.rsystem_main.obj
 0003:00000c38       ??_R0?AUISystem@base@UModSys@@@8 0000000140024c38     umodsys_lib_basesys:umodsys.basesys.rsystem_main.obj
 0003:00000c68       ??_R0?AUIMemAlloc@core@UModSys@@@8 0000000140024c68     umodsys_lib_basesys:umodsys.basesys.rsystem_main.obj
 0003:00000c98       ??_R0?AUEFatal@core@UModSys@@@8 0000000140024c98     umodsys_lib_basesys:umodsys.basesys.rsystem_main.obj
 0003:00000cc8       ??_R0?AUEExceptionBase@core@UModSys@@@8 0000000140024cc8     umodsys_lib_basesys:umodsys.basesys.rsystem_main.obj
 0003:00000d00       ??_R0?AUEWarning@core@UModSys@@@8 0000000140024d00     umodsys_lib_basesys:umodsys.basesys.rsystem_main.obj
 0003:00000d30       ??_R0?AURModuleLoader@rsystem@base@UModSys@@@8 0000000140024d30     umodsys_lib_basesys:umodsys.basesys.rmoduleloader.obj
 0003:00000d70       ??_R0?AUIModuleLoader@base@UModSys@@@8 0000000140024d70     umodsys_lib_basesys:umodsys.basesys.rmoduleloader.obj
 0003:00000da8       ??_R0?AUIModuleLibrary@base@UModSys@@@8 0000000140024da8     umodsys_lib_basesys:umodsys.basesys.rmodulelibthis.obj
 0003:00000de0       ??_R0?AUIModuleLibraryUni@rsystem@base@UModSys@@@8 0000000140024de0     umodsys_lib_basesys:umodsys.basesys.rmodulelibthis.obj
 0003:00000e20       ??_R0?AURModuleLibraryThis@rsystem@base@UModSys@@@8 0000000140024e20     umodsys_lib_basesys:umodsys.basesys.rmodulelibthis.obj
 0003:00000e60       ??_R0?AURParameters@rsystem@base@UModSys@@@8 0000000140024e60     umodsys_lib_basesys:umodsys.basesys.rparameters.obj
 0003:00000e98       ??_R0?AUIParameters@core@UModSys@@@8 0000000140024e98     umodsys_lib_basesys:umodsys.basesys.rparameters.obj
 0003:00000ec8       ??_R0?AURModule@rsystem@base@UModSys@@@8 0000000140024ec8     umodsys_lib_basesys:umodsys.basesys.rmodule.obj
 0003:00000f00       ??_R0?AUIModule@base@UModSys@@@8 0000000140024f00     umodsys_lib_basesys:umodsys.basesys.rmodule.obj
 0003:00000f30       ??_R0?AURModuleLibrarySO@rsystem@base@UModSys@@@8 0000000140024f30     umodsys_lib_basesys:umodsys.basesys.rmodulelibso.obj
 0003:00000f70       ??_R0?AUIModuleLibraryReg@base@UModSys@@@8 0000000140024f70     umodsys_lib_base:umodsys.base.moduleregchain.obj
 0003:00000fa8       ??_R0?AURModuleLibraryReg_Chain@base@UModSys@@@8 0000000140024fa8     umodsys_lib_base:umodsys.base.moduleregchain.obj
 0003:00000ff0       _fltused                   0000000140024ff0     MSVCRT:dllsupp.obj
 0003:00001028       _forceCRTManifestRTM       0000000140025028     MSVCRT:crtmanifestrtm.obj
 0003:0000102c       _dowildcard                000000014002502c     MSVCRT:wildcard.obj
 0003:00001030       _newmode                   0000000140025030     MSVCRT:_newmode.obj
 0003:00001034       _commode                   0000000140025034     MSVCRT:xncommod.obj
 0003:00001038       _fmode                     0000000140025038     MSVCRT:xtxtmode.obj
 0003:0000103c       ??_B?1??get_null@?$TSCoreShared@USIMemAlloc@core@UModSys@@D@su@tl@UModSys@@SAPEAU?$TSharedStringInfo@DUSIMemAlloc@core@UModSys@@@234@XZ@51 000000014002503c     umodsys_lib_libmedia:umodsys.mod.media.stdio.obj
 0003:00001040       ?s_null@?1??get_null@?$TSCoreShared@USIMemAlloc@core@UModSys@@D@su@tl@UModSys@@SAPEAU?$TSharedStringInfo@DUSIMemAlloc@core@UModSys@@@345@XZ@4U6345@A 0000000140025040     umodsys_lib_libmedia:umodsys.mod.media.stdio.obj
 0003:00001070       ?fmodule@stdio@media@modules@UModSys@@3DA 0000000140025070     umodsys_lib_libmedia:umodsys.mod.media.stdio.obj
 0003:00001071       ?fmodule@stdlib@media@modules@UModSys@@3DA 0000000140025071     umodsys_lib_libmedia:umodsys.mod.media.stdlib.obj
 0003:00001078       ?null_time@core@UModSys@@3_JA 0000000140025078     umodsys_lib_core:umodsys.core.stdtypedefs.obj
 0003:00001090       ?s_modreg@RModuleReg@stdio@media@modules@UModSys@@2U12345@A 0000000140025090     umodsys_lib_libmedia:umodsys.mod.media.stdio.obj
 0003:000010f0       ?s_modreg_chain@RModuleReg@stdio@media@modules@UModSys@@2USModuleRegChain@base@5@A 00000001400250f0     umodsys_lib_libmedia:umodsys.mod.media.stdio.obj
 0003:00001108       ?s_uid@RGenerator@stdio@media@modules@UModSys@@2USUniquePointer@core@5@A 0000000140025108     umodsys_lib_libmedia:umodsys.mod.media.stdio.obj
 0003:00001138       ?auto_flags@RLibraryBinCache@stdlib@media@modules@UModSys@@2U?$TFlags4State@USMediaFlagUid@libmedia@UModSys@@I@tl@5@A 0000000140025138     umodsys_lib_libmedia:umodsys.mod.media.stdlib.obj
 0003:0000113c       ?auto_flags@RLibraryObjFilter@stdlib@media@modules@UModSys@@2U?$TFlags4State@USMediaFlagUid@libmedia@UModSys@@I@tl@5@A 000000014002513c     umodsys_lib_libmedia:umodsys.mod.media.stdlib.obj
 0003:00001140       ?s_modreg@RModuleReg@stdlib@media@modules@UModSys@@2U12345@A 0000000140025140     umodsys_lib_libmedia:umodsys.mod.media.stdlib.obj
 0003:000011a0       ?s_modreg_chain@RModuleReg@stdlib@media@modules@UModSys@@2USModuleRegChain@base@5@A 00000001400251a0     umodsys_lib_libmedia:umodsys.mod.media.stdlib.obj
 0003:000011b8       ?s_uid@RGenerator@stdlib@media@modules@UModSys@@2USUniquePointer@core@5@A 00000001400251b8     umodsys_lib_libmedia:umodsys.mod.media.stdlib.obj
 0003:000011e8       ?auto_flags@RLibraryBinTree@stdlib@media@modules@UModSys@@2U?$TFlags4State@USMediaFlagUid@libmedia@UModSys@@I@tl@5@A 00000001400251e8     umodsys_lib_libmedia:umodsys.mod.media.stdlib.obj
 0003:000011ec       ?auto_flags@RLibraryObjCache@stdlib@media@modules@UModSys@@2U?$TFlags4State@USMediaFlagUid@libmedia@UModSys@@I@tl@5@A 00000001400251ec     umodsys_lib_libmedia:umodsys.mod.media.stdlib.obj
 0003:000011f0       ?auto_flags@RBinArchiveFrame@stdlib@media@modules@UModSys@@2U?$TFlags4State@USMediaFlagUid@libmedia@UModSys@@I@tl@5@A 00000001400251f0     umodsys_lib_libmedia:umodsys.mod.media.stdlib.obj
 0003:000011f8       ?s_console@RConsole_std@rsystem@base@UModSys@@2U1234@A 00000001400251f8     umodsys_lib_basesys:umodsys.basesys.rconsole_std.obj
 0003:00001210       ?s_sys@RSystem@rsystem@base@UModSys@@2U1234@A 0000000140025210     umodsys_lib_basesys:umodsys.basesys.rsystem_main.obj
 0003:000013c0       ?rsys_dbg@rsystem@base@UModSys@@3USDebug@23@A 00000001400253c0     umodsys_lib_basesys:umodsys.basesys.rsystem_main.obj
 0003:000033d8       ?M@UModSys@@3USModuleContext@base@1@A 00000001400273d8     umodsys_lib_base:umodsys.base.modulecontext.obj
 0003:00003400       ?s_library@RModuleLibraryReg_Chain@base@UModSys@@2U123@A 0000000140027400     umodsys_lib_base:umodsys.base.moduleregchain.obj
 0003:00003408       ?root@SModuleRegChain@base@UModSys@@2U123@A 0000000140027408     umodsys_lib_base:umodsys.base.moduleregchain.obj
 0003:00003420       ?root@SUniquePointer@core@UModSys@@2U123@A 0000000140027420     umodsys_lib_core:umodsys.core.uniqueptr.obj
 0003:00003450       ?rv@?1??get_default@SMemAlloc_Malloc@core@UModSys@@SAAEBU234@XZ@4U234@A 0000000140027450     umodsys_lib_basesys:umodsys.basesys.rsystem_main.obj
 0003:00003458       ?s_null@?1??get_null@?$TSCoreShared@USMemAlloc_Malloc@core@UModSys@@D@su@tl@UModSys@@SAPEAU?$TSharedStringInfo@DUSMemAlloc_Malloc@core@UModSys@@@345@XZ@4U6345@A 0000000140027458     umodsys_lib_basesys:umodsys.basesys.rmodulelib.obj
 0003:00003478       ??_B?1??get_null@?$TSCoreShared@USMemAlloc_Malloc@core@UModSys@@D@su@tl@UModSys@@SAPEAU?$TSharedStringInfo@DUSMemAlloc_Malloc@core@UModSys@@@234@XZ@51 0000000140027478     umodsys_lib_basesys:umodsys.basesys.rmodulelib.obj
 0003:000034f8       ?s_id@?$TObjectUniqueID@UIModObject@base@UModSys@@@tl@UModSys@@2USUniquePointer@core@3@A 00000001400274f8     umodsys.c_main.obj
 0003:00003528       ?s_null@?$TStaticStringPool@DU?$TComparerBinaryHash@D@su@tl@UModSys@@USMemAlloc_Malloc@core@4@@tl@UModSys@@2U?$TString@U?$TSCoreConst@D@su@tl@UModSys@@U?$TComparerBinaryHash@D@234@@23@A 0000000140027528     umodsys.c_main.obj
 0003:00003540       ?s_id@?$TObjectUniqueID@UIGenerator@base@UModSys@@@tl@UModSys@@2USUniquePointer@core@3@A 0000000140027540     umodsys.c_main.obj
 0003:00003570       ?s_id@?$TObjectUniqueID@UIModule@base@UModSys@@@tl@UModSys@@2USUniquePointer@core@3@A 0000000140027570     umodsys.c_main.obj
 0003:000035a0       ?s_id@?$TObjectUniqueID@UIRoot@core@UModSys@@@tl@UModSys@@2USUniquePointer@core@3@A 00000001400275a0     umodsys.c_main.obj
 0003:000035d0       ?s_id@?$TObjectUniqueID@URConsole_std@rsystem@base@UModSys@@@tl@UModSys@@2USUniquePointer@core@3@A 00000001400275d0     umodsys.c_main.obj
 0003:00003600       ?s_id@?$TObjectUniqueID@UIModuleLibraryUni@rsystem@base@UModSys@@@tl@UModSys@@2USUniquePointer@core@3@A 0000000140027600     umodsys.c_main.obj
 0003:00003630       ?s_id@?$TObjectUniqueID@UISystem@base@UModSys@@@tl@UModSys@@2USUniquePointer@core@3@A 0000000140027630     umodsys.c_main.obj
 0003:00003660       ?s_id@?$TObjectUniqueID@UIRefObject@core@UModSys@@@tl@UModSys@@2USUniquePointer@core@3@A 0000000140027660     umodsys.c_main.obj
 0003:00003690       ?s_id@?$TObjectUniqueID@URModule@rsystem@base@UModSys@@@tl@UModSys@@2USUniquePointer@core@3@A 0000000140027690     umodsys.c_main.obj
 0003:000036c0       ?s_id@?$TObjectUniqueID@UIShell@base@UModSys@@@tl@UModSys@@2USUniquePointer@core@3@A 00000001400276c0     umodsys.c_main.obj
 0003:000036f0       ?s_id@?$TObjectUniqueID@UIConsole@base@UModSys@@@tl@UModSys@@2USUniquePointer@core@3@A 00000001400276f0     umodsys.c_main.obj
 0003:00003720       ?s_id@?$TObjectUniqueID@UIModuleLibrary@base@UModSys@@@tl@UModSys@@2USUniquePointer@core@3@A 0000000140027720     umodsys.c_main.obj
 0003:00003750       ?s_id@?$TObjectUniqueID@URModuleLibraryThis@rsystem@base@UModSys@@@tl@UModSys@@2USUniquePointer@core@3@A 0000000140027750     umodsys.c_main.obj
 0003:00003780       ?s_id@?$TObjectUniqueID@URModuleLibrarySO@rsystem@base@UModSys@@@tl@UModSys@@2USUniquePointer@core@3@A 0000000140027780     umodsys.c_main.obj
 0003:000037b0       ?s_id@?$TObjectUniqueID@UIParameters@core@UModSys@@@tl@UModSys@@2USUniquePointer@core@3@A 00000001400277b0     umodsys.c_main.obj
 0003:000037e0       ?s_id@?$TObjectUniqueID@URSystem@rsystem@base@UModSys@@@tl@UModSys@@2USUniquePointer@core@3@A 00000001400277e0     umodsys.c_main.obj
 0003:00003810       ?s_id@?$TObjectUniqueID@URParameters@rsystem@base@UModSys@@@tl@UModSys@@2USUniquePointer@core@3@A 0000000140027810     umodsys.c_main.obj
 0003:00003840       ?s_id@?$TObjectUniqueID@UIUtilities@libmedia@UModSys@@@tl@UModSys@@2USUniquePointer@core@3@A 0000000140027840     umodsys_lib_libmedia:umodsys.mod.media.stdio.obj
 0003:00003870       ?s_id@?$TObjectUniqueID@UIBinObjFilter@libmedia@UModSys@@@tl@UModSys@@2USUniquePointer@core@3@A 0000000140027870     umodsys_lib_libmedia:umodsys.mod.media.stdio.obj
 0003:000038a0       ?s_id@?$TObjectUniqueID@UILibObject@libmedia@UModSys@@@tl@UModSys@@2USUniquePointer@core@3@A 00000001400278a0     umodsys_lib_libmedia:umodsys.mod.media.stdio.obj
 0003:000038d0       ?s_id@?$TObjectUniqueID@URStreamReader_FILE@stdio@media@modules@UModSys@@@tl@UModSys@@2USUniquePointer@core@3@A 00000001400278d0     umodsys_lib_libmedia:umodsys.mod.media.stdio.obj
 0003:00003900       ?s_id@?$TObjectUniqueID@UIBinArchive@libmedia@UModSys@@@tl@UModSys@@2USUniquePointer@core@3@A 0000000140027900     umodsys_lib_libmedia:umodsys.mod.media.stdio.obj
 0003:00003930       ?s_id@?$TObjectUniqueID@UIStreamWriter@libmedia@UModSys@@@tl@UModSys@@2USUniquePointer@core@3@A 0000000140027930     umodsys_lib_libmedia:umodsys.mod.media.stdio.obj
 0003:00003960       ?s_id@?$TObjectUniqueID@URStreamWriter_FILE@stdio@media@modules@UModSys@@@tl@UModSys@@2USUniquePointer@core@3@A 0000000140027960     umodsys_lib_libmedia:umodsys.mod.media.stdio.obj
 0003:00003990       ?s_id@?$TObjectUniqueID@UILibrary@libmedia@UModSys@@@tl@UModSys@@2USUniquePointer@core@3@A 0000000140027990     umodsys_lib_libmedia:umodsys.mod.media.stdio.obj
 0003:000039c0       ?s_id@?$TObjectUniqueID@URDataArchiver_OsDir@stdio@media@modules@UModSys@@@tl@UModSys@@2USUniquePointer@core@3@A 00000001400279c0     umodsys_lib_libmedia:umodsys.mod.media.stdio.obj
 0003:000039f0       ?s_id@?$TObjectUniqueID@URGenerator@stdio@media@modules@UModSys@@@tl@UModSys@@2USUniquePointer@core@3@A 00000001400279f0     umodsys_lib_libmedia:umodsys.mod.media.stdio.obj
 0003:00003a20       ?s_id@?$TObjectUniqueID@UIStreamReader@libmedia@UModSys@@@tl@UModSys@@2USUniquePointer@core@3@A 0000000140027a20     umodsys_lib_libmedia:umodsys.mod.media.stdio.obj
 0003:00003a50       ?s_id@?$TObjectUniqueID@URLibraryObjCache@stdlib@media@modules@UModSys@@@tl@UModSys@@2USUniquePointer@core@3@A 0000000140027a50     umodsys_lib_libmedia:umodsys.mod.media.stdlib.obj
 0003:00003a80       ?s_id@?$TObjectUniqueID@URLibraryBinCache@stdlib@media@modules@UModSys@@@tl@UModSys@@2USUniquePointer@core@3@A 0000000140027a80     umodsys_lib_libmedia:umodsys.mod.media.stdlib.obj
 0003:00003ab0       ?s_id@?$TObjectUniqueID@UILibraryBinTree@libmedia@UModSys@@@tl@UModSys@@2USUniquePointer@core@3@A 0000000140027ab0     umodsys_lib_libmedia:umodsys.mod.media.stdlib.obj
 0003:00003ae0       ?s_id@?$TObjectUniqueID@URGenerator@stdlib@media@modules@UModSys@@@tl@UModSys@@2USUniquePointer@core@3@A 0000000140027ae0     umodsys_lib_libmedia:umodsys.mod.media.stdlib.obj
 0003:00003b10       ?s_id@?$TObjectUniqueID@URLibraryObjFilter@stdlib@media@modules@UModSys@@@tl@UModSys@@2USUniquePointer@core@3@A 0000000140027b10     umodsys_lib_libmedia:umodsys.mod.media.stdlib.obj
 0003:00003b40       ?s_id@?$TObjectUniqueID@UIBinArchiveFrame@libmedia@UModSys@@@tl@UModSys@@2USUniquePointer@core@3@A 0000000140027b40     umodsys_lib_libmedia:umodsys.mod.media.stdlib.obj
 0003:00003b70       ?s_id@?$TObjectUniqueID@URLibraryLayered@stdlib@media@modules@UModSys@@@tl@UModSys@@2USUniquePointer@core@3@A 0000000140027b70     umodsys_lib_libmedia:umodsys.mod.media.stdlib.obj
 0003:00003ba0       ?s_id@?$TObjectUniqueID@UILibraryObjCache@libmedia@UModSys@@@tl@UModSys@@2USUniquePointer@core@3@A 0000000140027ba0     umodsys_lib_libmedia:umodsys.mod.media.stdlib.obj
 0003:00003bd0       ?s_id@?$TObjectUniqueID@UILibraryLayered@libmedia@UModSys@@@tl@UModSys@@2USUniquePointer@core@3@A 0000000140027bd0     umodsys_lib_libmedia:umodsys.mod.media.stdlib.obj
 0003:00003c00       ?s_id@?$TObjectUniqueID@UILibraryBinCache@libmedia@UModSys@@@tl@UModSys@@2USUniquePointer@core@3@A 0000000140027c00     umodsys_lib_libmedia:umodsys.mod.media.stdlib.obj
 0003:00003c30       ?s_id@?$TObjectUniqueID@URUtilities@stdlib@media@modules@UModSys@@@tl@UModSys@@2USUniquePointer@core@3@A 0000000140027c30     umodsys_lib_libmedia:umodsys.mod.media.stdlib.obj
 0003:00003c60       ?s_id@?$TObjectUniqueID@UILibraryObjFilter@libmedia@UModSys@@@tl@UModSys@@2USUniquePointer@core@3@A 0000000140027c60     umodsys_lib_libmedia:umodsys.mod.media.stdlib.obj
 0003:00003c90       ?s_id@?$TObjectUniqueID@UIClient@IBinArchiveFrame@libmedia@UModSys@@@tl@UModSys@@2USUniquePointer@core@3@A 0000000140027c90     umodsys_lib_libmedia:umodsys.mod.media.stdlib.obj
 0003:00003cc0       ?s_id@?$TObjectUniqueID@URBinArchiveFrame@stdlib@media@modules@UModSys@@@tl@UModSys@@2USUniquePointer@core@3@A 0000000140027cc0     umodsys_lib_libmedia:umodsys.mod.media.stdlib.obj
 0003:00003cf0       ?s_id@?$TObjectUniqueID@URLibraryBinTree@stdlib@media@modules@UModSys@@@tl@UModSys@@2USUniquePointer@core@3@A 0000000140027cf0     umodsys_lib_libmedia:umodsys.mod.media.stdlib.obj
 0003:00003d20       __native_startup_state     0000000140027d20     <common>
 0003:00003d28       __native_startup_lock      0000000140027d28     <common>
 0003:00003d30       __dyn_tls_init_callback    0000000140027d30     <common>
 0003:00003d38       __onexitend                0000000140027d38     <common>
 0003:00003d40       __onexitbegin              0000000140027d40     <common>

 entry point at        0001:000084f4

 Static symbols

 0001:00008224       pre_cpp_init               0000000140009224 f   MSVCRT:crtexe.obj
 0001:0000828c       __tmainCRTStartup          000000014000928c f   MSVCRT:crtexe.obj
 0001:0000840c       pre_c_init                 000000014000940c f   MSVCRT:crtexe.obj
 0001:0000d330       ?s_pwd_init@@YAXXZ         000000014000e330 f    CIL library: CIL module
 0001:0000d5f0       ?s_pfd_scan@@YA_KPEAUISystem@base@UModSys@@AEAU?$TDynarrayDynamic@U?$TRefObject@URModuleLibrarySO@rsystem@base@UModSys@@U?$TRefObjectFunc@URModuleLibrarySO@rsystem@base@UModSys@@@tl@4@@tl@UModSys@@U?$TAllocator@USMemAlloc_Malloc@core@UModSys@@USCountCalcPower2@23@@23@@tl@3@PEBD22@Z 000000014000e5f0 f    CIL library: CIL module
 0001:0000d8b0       ?s_pfd_scan@@YA_KPEAUISystem@base@UModSys@@AEAU?$TDynarrayDynamic@U?$TRefObject@URModuleLibrarySO@rsystem@base@UModSys@@U?$TRefObjectFunc@URModuleLibrarySO@rsystem@base@UModSys@@@tl@4@@tl@UModSys@@U?$TAllocator@USMemAlloc_Malloc@core@UModSys@@USCountCalcPower2@23@@23@@tl@3@PEBD2@Z 000000014000e8b0 f    CIL library: CIL module
 0001:00016320       ?refer@@YAXXZ              0000000140017320 f    CIL library: CIL module
 0001:00016b20       _onexit$fin$0              0000000140017b20 f   MSVCRT:atonexit.obj
 0001:00016b39       __tmainCRTStartup$filt$0   0000000140017b39 f   MSVCRT:crtexe.obj
 0001:00016b60       _IsNonwritableInCurrentImage$filt$0 0000000140017b60 f   MSVCRT:pesect.obj
 0001:00016b81       ?filt$0@?0??__ArrayUnwind@@YAXPEAX_KHP6AX0@Z@Z@4HA 0000000140017b81 f   MSVCRT:ehvecdtr.obj
 0001:00016bc0       ?fin$0@?0???_M@YAXPEAX_KHP6AX0@Z@Z@4HA 0000000140017bc0 f   MSVCRT:ehvecdtr.obj
 0001:00016bf0       ?dtor$0@?0??suicide@RModule@rsystem@base@UModSys@@UEAAXXZ@4HA 0000000140017bf0 f    CIL library: CIL module
 0001:00016bf0       ?dtor$0@?0??archive_save_data@libmedia@UModSys@@YA_NAEAUIBinArchive@12@AEBU?$TString@U?$TSCoreConst@D@su@tl@UModSys@@U?$TComparerBinaryHash@D@234@@tl@2@AEBUSCMem@core@2@AEBUSFlags@12@@Z@4HA 0000000140017bf0 f    CIL library: CIL module
 0001:00016c10       ?dtor$0@?0???1?$TQuantArrayUnique@USUniquePointerInfo@core@UModSys@@$0BAA@USMemAlloc_Malloc@23@@tl@UModSys@@QEAA@XZ@4HA 0000000140017c10 f    CIL library: CIL module
 0001:00016c30       ?dtor$0@?0??data_reader@RBinArchiveFrame@stdlib@media@modules@UModSys@@UEAA?AU?$TRefObject@UIStreamReader@libmedia@UModSys@@U?$TRefObjectFunc@UIStreamReader@libmedia@UModSys@@@tl@3@@tl@5@AEBU?$TString@U?$TSCoreConst@D@su@tl@UModSys@@U?$TComparerBinaryHash@D@234@@75@AEBUSFlags@libmedia@5@@Z@4HA 0000000140017c30 f    CIL library: CIL module
 0001:00016c60       ?dtor$1@?0??data_reader@RBinArchiveFrame@stdlib@media@modules@UModSys@@UEAA?AU?$TRefObject@UIStreamReader@libmedia@UModSys@@U?$TRefObjectFunc@UIStreamReader@libmedia@UModSys@@@tl@3@@tl@5@AEBU?$TString@U?$TSCoreConst@D@su@tl@UModSys@@U?$TComparerBinaryHash@D@234@@75@AEBUSFlags@libmedia@5@@Z@4HA 0000000140017c60 f    CIL library: CIL module
 0001:00016c90       ?dtor$2@?0??data_reader@RBinArchiveFrame@stdlib@media@modules@UModSys@@UEAA?AU?$TRefObject@UIStreamReader@libmedia@UModSys@@U?$TRefObjectFunc@UIStreamReader@libmedia@UModSys@@@tl@3@@tl@5@AEBU?$TString@U?$TSCoreConst@D@su@tl@UModSys@@U?$TComparerBinaryHash@D@234@@75@AEBUSFlags@libmedia@5@@Z@4HA 0000000140017c90 f    CIL library: CIL module
 0001:00016cc0       ?dtor$0@?0???1RModuleLibraryThis@rsystem@base@UModSys@@UEAA@XZ@4HA 0000000140017cc0 f    CIL library: CIL module
 0001:00016ce0       ?dtor$0@?0???1RModuleLoader@rsystem@base@UModSys@@UEAA@XZ@4HA 0000000140017ce0 f    CIL library: CIL module
 0001:00016d00       ?dtor$1@?0???1RModuleLoader@rsystem@base@UModSys@@UEAA@XZ@4HA 0000000140017d00 f    CIL library: CIL module
 0001:00016d20       ?dtor$2@?0???1RModuleLoader@rsystem@base@UModSys@@UEAA@XZ@4HA 0000000140017d20 f    CIL library: CIL module
 0001:00016d50       ?dtor$0@?0???1RSystem@rsystem@base@UModSys@@UEAA@XZ@4HA 0000000140017d50 f    CIL library: CIL module
 0001:00016d70       ?dtor$1@?0???1RSystem@rsystem@base@UModSys@@UEAA@XZ@4HA 0000000140017d70 f    CIL library: CIL module
 0001:00016d90       ?dtor$2@?0???1RSystem@rsystem@base@UModSys@@UEAA@XZ@4HA 0000000140017d90 f    CIL library: CIL module
 0001:00016db0       ?dtor$3@?0???1RSystem@rsystem@base@UModSys@@UEAA@XZ@4HA 0000000140017db0 f    CIL library: CIL module
 0001:00016dd0       ?dtor$4@?0???1RSystem@rsystem@base@UModSys@@UEAA@XZ@4HA 0000000140017dd0 f    CIL library: CIL module
 0001:00016df0       ?dtor$5@?0???1RSystem@rsystem@base@UModSys@@UEAA@XZ@4HA 0000000140017df0 f    CIL library: CIL module
 0001:00016e10       ?dtor$9@?0???1RSystem@rsystem@base@UModSys@@UEAA@XZ@4HA 0000000140017e10 f    CIL library: CIL module
 0001:00016e30       ?dtor$10@?0???1RSystem@rsystem@base@UModSys@@UEAA@XZ@4HA 0000000140017e30 f    CIL library: CIL module
 0001:00016e50       ?dtor$0@?0??filters_add@RLibraryObjFilter@stdlib@media@modules@UModSys@@UEAA_NU?$TRefObject@UIBinObjFilter@libmedia@UModSys@@U?$TRefObjectFunc@UIBinObjFilter@libmedia@UModSys@@@tl@3@@tl@5@PEBUSParameters@core@5@H@Z@4HA 0000000140017e50 f    CIL library: CIL module
 0001:00016e70       ?dtor$0@?0??bin_writer@RLibraryBinTree@stdlib@media@modules@UModSys@@UEAA?AU?$TRefObject@UIStreamWriter@libmedia@UModSys@@U?$TRefObjectFunc@UIStreamWriter@libmedia@UModSys@@@tl@3@@tl@5@AEBU?$TString@U?$TSCoreConst@D@su@tl@UModSys@@U?$TComparerBinaryHash@D@234@@75@AEBUSFlags@libmedia@5@@Z@4HA 0000000140017e70 f    CIL library: CIL module
 0001:00016e90       ?dtor$0@?0??bin_reader@RLibraryBinTree@stdlib@media@modules@UModSys@@UEAA?AU?$TRefObject@UIStreamReader@libmedia@UModSys@@U?$TRefObjectFunc@UIStreamReader@libmedia@UModSys@@@tl@3@@tl@5@AEBU?$TString@U?$TSCoreConst@D@su@tl@UModSys@@U?$TComparerBinaryHash@D@234@@75@AEBUSFlags@libmedia@5@@Z@4HA 0000000140017e90 f    CIL library: CIL module
 0001:00016eb0       ?dtor$0@?0???0RBinArchiveFrame@stdlib@media@modules@UModSys@@QEAA@PEAUIModObject@base@4@AEBUSParameters@core@4@U?$TFlags4State@USMediaFlagUid@libmedia@UModSys@@I@tl@4@@Z@4HA 0000000140017eb0 f    CIL library: CIL module
 0001:00016ed0       ?dtor$1@?0???0RBinArchiveFrame@stdlib@media@modules@UModSys@@QEAA@PEAUIModObject@base@4@AEBUSParameters@core@4@U?$TFlags4State@USMediaFlagUid@libmedia@UModSys@@I@tl@4@@Z@4HA 0000000140017ed0 f    CIL library: CIL module
 0001:00016ef0       ?dtor$2@?0???0RBinArchiveFrame@stdlib@media@modules@UModSys@@QEAA@PEAUIModObject@base@4@AEBUSParameters@core@4@U?$TFlags4State@USMediaFlagUid@libmedia@UModSys@@I@tl@4@@Z@4HA 0000000140017ef0 f    CIL library: CIL module
 0001:00016f10       ?dtor$3@?0???0RBinArchiveFrame@stdlib@media@modules@UModSys@@QEAA@PEAUIModObject@base@4@AEBUSParameters@core@4@U?$TFlags4State@USMediaFlagUid@libmedia@UModSys@@I@tl@4@@Z@4HA 0000000140017f10 f    CIL library: CIL module
 0001:00016f40       ?dtor$0@?0???0RLibraryObjFilter@stdlib@media@modules@UModSys@@QEAA@PEAUIModObject@base@4@AEBUSParameters@core@4@U?$TFlags4State@USMediaFlagUid@libmedia@UModSys@@I@tl@4@@Z@4HA 0000000140017f40 f    CIL library: CIL module
 0001:00016f60       ?dtor$2@?0??objcache_remove@RLibraryObjCache@stdlib@media@modules@UModSys@@UEAA_NAEBU?$TString@U?$TSCoreConst@D@su@tl@UModSys@@U?$TComparerBinaryHash@D@234@@tl@5@@Z@4HA 0000000140017f60 f    CIL library: CIL module
 0001:00016f80       ?dtor$0@?0??obj_get@RLibraryLayered@stdlib@media@modules@UModSys@@UEAA_NAEBU?$TString@U?$TSCoreConst@D@su@tl@UModSys@@U?$TComparerBinaryHash@D@234@@tl@5@AEAU?$TRefObject@UIRefObject@core@UModSys@@U?$TRefObjectFunc@UIRefObject@core@UModSys@@@tl@3@@75@AEBUSObjOptions@ILibrary@libmedia@5@@Z@4HA 0000000140017f80 f    CIL library: CIL module
 0001:00016fa0       ?dtor$0@?0??bin_save@RLibraryLayered@stdlib@media@modules@UModSys@@UEAA_NAEBU?$TString@U?$TSCoreConst@D@su@tl@UModSys@@U?$TComparerBinaryHash@D@234@@tl@5@AEBUSCMem@core@5@AEBUSFlags@libmedia@5@@Z@4HA 0000000140017fa0 f    CIL library: CIL module
 0001:00016fc0       ?dtor$1@?0??bin_save@RLibraryLayered@stdlib@media@modules@UModSys@@UEAA_NAEBU?$TString@U?$TSCoreConst@D@su@tl@UModSys@@U?$TComparerBinaryHash@D@234@@tl@5@AEBUSCMem@core@5@AEBUSFlags@libmedia@5@@Z@4HA 0000000140017fc0 f    CIL library: CIL module
 0001:00016ff0       ?dtor$0@?0??bin_writer@RLibraryLayered@stdlib@media@modules@UModSys@@UEAA?AU?$TRefObject@UIStreamWriter@libmedia@UModSys@@U?$TRefObjectFunc@UIStreamWriter@libmedia@UModSys@@@tl@3@@tl@5@AEBU?$TString@U?$TSCoreConst@D@su@tl@UModSys@@U?$TComparerBinaryHash@D@234@@75@AEBUSFlags@libmedia@5@@Z@4HA 0000000140017ff0 f    CIL library: CIL module
 0001:00017010       ?dtor$0@?0??bin_reader@RLibraryLayered@stdlib@media@modules@UModSys@@UEAA?AU?$TRefObject@UIStreamReader@libmedia@UModSys@@U?$TRefObjectFunc@UIStreamReader@libmedia@UModSys@@@tl@3@@tl@5@AEBU?$TString@U?$TSCoreConst@D@su@tl@UModSys@@U?$TComparerBinaryHash@D@234@@75@AEBUSFlags@libmedia@5@@Z@4HA 0000000140018010 f    CIL library: CIL module
 0001:00017030       ?dtor$2@?0??bincache_remove@RLibraryBinCache@stdlib@media@modules@UModSys@@UEAA_NAEBU?$TString@U?$TSCoreConst@D@su@tl@UModSys@@U?$TComparerBinaryHash@D@234@@tl@5@@Z@4HA 0000000140018030 f    CIL library: CIL module
 0001:00017050       ?dtor$2@?0??mount_remove@RLibraryBinTree@stdlib@media@modules@UModSys@@UEAA_NAEBUSId@ILibraryBinTree@libmedia@5@@Z@4HA 0000000140018050 f    CIL library: CIL module
 0001:00017070       ?dtor$0@?0???1RBinArchiveFrame@stdlib@media@modules@UModSys@@UEAA@XZ@4HA 0000000140018070 f    CIL library: CIL module
 0001:00017090       ?dtor$1@?0???1RBinArchiveFrame@stdlib@media@modules@UModSys@@UEAA@XZ@4HA 0000000140018090 f    CIL library: CIL module
 0001:000170b0       ?dtor$2@?0???1RBinArchiveFrame@stdlib@media@modules@UModSys@@UEAA@XZ@4HA 00000001400180b0 f    CIL library: CIL module
 0001:000170d0       ?dtor$3@?0???1RBinArchiveFrame@stdlib@media@modules@UModSys@@UEAA@XZ@4HA 00000001400180d0 f    CIL library: CIL module
 0001:00017100       ?dtor$0@?0??openr@RBinArchiveFrame@stdlib@media@modules@UModSys@@QEAA_NPEAUILibrary@libmedia@5@AEBU?$TString@U?$TSCoreConst@D@su@tl@UModSys@@U?$TComparerBinaryHash@D@234@@tl@5@PEBUSParameters@core@5@@Z@4HA 0000000140018100 f    CIL library: CIL module
 0001:00017120       ?dtor$0@?0??open@RBinArchiveFrame@stdlib@media@modules@UModSys@@UEAA_NPEAUIClient@IBinArchiveFrame@libmedia@5@PEBUSParameters@core@5@@Z@4HA 0000000140018120 f    CIL library: CIL module
 0001:00017140       ?dtor$1@?0??open@RBinArchiveFrame@stdlib@media@modules@UModSys@@UEAA_NPEAUIClient@IBinArchiveFrame@libmedia@5@PEBUSParameters@core@5@@Z@4HA 0000000140018140 f    CIL library: CIL module
 0001:00017160       ?dtor$2@?0??open@RBinArchiveFrame@stdlib@media@modules@UModSys@@UEAA_NPEAUIClient@IBinArchiveFrame@libmedia@5@PEBUSParameters@core@5@@Z@4HA 0000000140018160 f    CIL library: CIL module
 0001:00017180       ?dtor$0@?0???0RUtilities@stdlib@media@modules@UModSys@@QEAA@PEAUIModObject@base@4@AEBUSParameters@core@4@@Z@4HA 0000000140018180 f    CIL library: CIL module
 0001:000171a0       ?dtor$0@?0???1RModuleLibrarySO@rsystem@base@UModSys@@UEAA@XZ@4HA 00000001400181a0 f    CIL library: CIL module
 0001:000171c0       ?dtor$0@?0???0RModule@rsystem@base@UModSys@@QEAA@PEAUIModuleLibraryUni@123@PEAUIModuleReg@23@@Z@4HA 00000001400181c0 f    CIL library: CIL module
 0001:000171e0       ?dtor$1@?0???0RModule@rsystem@base@UModSys@@QEAA@PEAUIModuleLibraryUni@123@PEAUIModuleReg@23@@Z@4HA 00000001400181e0 f    CIL library: CIL module
 0001:00017200       ?dtor$2@?0???0RModule@rsystem@base@UModSys@@QEAA@PEAUIModuleLibraryUni@123@PEAUIModuleReg@23@@Z@4HA 0000000140018200 f    CIL library: CIL module
 0001:00017220       ?dtor$3@?0???0RModule@rsystem@base@UModSys@@QEAA@PEAUIModuleLibraryUni@123@PEAUIModuleReg@23@@Z@4HA 0000000140018220 f    CIL library: CIL module
 0001:00017250       ?dtor$0@?0??link@IModuleLibraryUni@rsystem@base@UModSys@@QEAA_NXZ@4HA 0000000140018250 f    CIL library: CIL module
 0001:00017280       ?dtor$0@?0??exec_test_shells@RSystem@rsystem@base@UModSys@@QEAA_NXZ@4HA 0000000140018280 f    CIL library: CIL module
 0001:000172a0       ?dtor$1@?0??exec_test_shells@RSystem@rsystem@base@UModSys@@QEAA_NXZ@4HA 00000001400182a0 f    CIL library: CIL module
 0001:000172c0       ?dtor$3@?0??exec_test_shells@RSystem@rsystem@base@UModSys@@QEAA_NXZ@4HA 00000001400182c0 f    CIL library: CIL module
 0001:000172f0       ?dtor$0@?0???1RLibraryObjFilter@stdlib@media@modules@UModSys@@UEAA@XZ@4HA 00000001400182f0 f    CIL library: CIL module
 0001:00017310       ?dtor$5@?0???1RLibraryObjFilter@stdlib@media@modules@UModSys@@UEAA@XZ@4HA 0000000140018310 f    CIL library: CIL module
 0001:00017330       ?dtor$0@?0???1RLibraryObjCache@stdlib@media@modules@UModSys@@UEAA@XZ@4HA 0000000140018330 f    CIL library: CIL module
 0001:00017350       ?dtor$5@?0???1RLibraryObjCache@stdlib@media@modules@UModSys@@UEAA@XZ@4HA 0000000140018350 f    CIL library: CIL module
 0001:00017370       ?dtor$0@?0???0RLibraryObjCache@stdlib@media@modules@UModSys@@QEAA@PEAUIModObject@base@4@AEBUSParameters@core@4@U?$TFlags4State@USMediaFlagUid@libmedia@UModSys@@I@tl@4@@Z@4HA 0000000140018370 f    CIL library: CIL module
 0001:00017390       ?dtor$0@?0??obj_save@RLibraryLayered@stdlib@media@modules@UModSys@@UEAA_NAEBU?$TString@U?$TSCoreConst@D@su@tl@UModSys@@U?$TComparerBinaryHash@D@234@@tl@5@PEBUIRefObject@core@5@AEBUSObjOptions@ILibrary@libmedia@5@@Z@4HA 0000000140018390 f    CIL library: CIL module
 0001:000173b0       ?dtor$0@?0??obj_load@RLibraryLayered@stdlib@media@modules@UModSys@@UEAA_NAEBU?$TString@U?$TSCoreConst@D@su@tl@UModSys@@U?$TComparerBinaryHash@D@234@@tl@5@PEAUIRefObject@core@5@AEBUSObjOptions@ILibrary@libmedia@5@@Z@4HA 00000001400183b0 f    CIL library: CIL module
 0001:000173d0       ?dtor$0@?0???1RLibraryBinCache@stdlib@media@modules@UModSys@@UEAA@XZ@4HA 00000001400183d0 f    CIL library: CIL module
 0001:000173f0       ?dtor$5@?0???1RLibraryBinCache@stdlib@media@modules@UModSys@@UEAA@XZ@4HA 00000001400183f0 f    CIL library: CIL module
 0001:00017410       ?dtor$0@?0???0RLibraryBinCache@stdlib@media@modules@UModSys@@QEAA@PEAUIModObject@base@4@AEBUSParameters@core@4@U?$TFlags4State@USMediaFlagUid@libmedia@UModSys@@I@tl@4@@Z@4HA 0000000140018410 f    CIL library: CIL module
 0001:00017430       ?dtor$0@?0???1RLibraryBinTree@stdlib@media@modules@UModSys@@UEAA@XZ@4HA 0000000140018430 f    CIL library: CIL module
 0001:00017450       ?dtor$5@?0???1RLibraryBinTree@stdlib@media@modules@UModSys@@UEAA@XZ@4HA 0000000140018450 f    CIL library: CIL module
 0001:00017470       ?dtor$0@?0???0RLibraryBinTree@stdlib@media@modules@UModSys@@QEAA@PEAUIModObject@base@4@AEBUSParameters@core@4@U?$TFlags4State@USMediaFlagUid@libmedia@UModSys@@I@tl@4@@Z@4HA 0000000140018470 f    CIL library: CIL module
 0001:00017490       ?dtor$0@?0??fill_info@RBinArchiveFrame@stdlib@media@modules@UModSys@@QEAA_NAEAUSFileInfo@libmedia@5@PEAUNameNode@IBinArchiveFrame@75@AEBU?$TString@U?$TSCoreConst@D@su@tl@UModSys@@U?$TComparerBinaryHash@D@234@@tl@5@_K@Z@4HA 0000000140018490 f    CIL library: CIL module
 0001:000174b0       ?dtor$0@?0??data_list@RBinArchiveFrame@stdlib@media@modules@UModSys@@UEAA_NAEBU?$TString@U?$TSCoreConst@D@su@tl@UModSys@@U?$TComparerBinaryHash@D@234@@tl@5@_KAEAU?$TIStackSocket@USFileInfo@libmedia@UModSys@@@75@AEBUSFlags@libmedia@5@@Z@4HA 00000001400184b0 f    CIL library: CIL module
 0001:000174d0       ?dtor$1@?0??data_list@RBinArchiveFrame@stdlib@media@modules@UModSys@@UEAA_NAEBU?$TString@U?$TSCoreConst@D@su@tl@UModSys@@U?$TComparerBinaryHash@D@234@@tl@5@_KAEAU?$TIStackSocket@USFileInfo@libmedia@UModSys@@@75@AEBUSFlags@libmedia@5@@Z@4HA 00000001400184d0 f    CIL library: CIL module
 0001:000174f0       ?dtor$2@?0??data_list@RBinArchiveFrame@stdlib@media@modules@UModSys@@UEAA_NAEBU?$TString@U?$TSCoreConst@D@su@tl@UModSys@@U?$TComparerBinaryHash@D@234@@tl@5@_KAEAU?$TIStackSocket@USFileInfo@libmedia@UModSys@@@75@AEBUSFlags@libmedia@5@@Z@4HA 00000001400184f0 f    CIL library: CIL module
 0001:00017510       ?dtor$6@?0??data_list@RBinArchiveFrame@stdlib@media@modules@UModSys@@UEAA_NAEBU?$TString@U?$TSCoreConst@D@su@tl@UModSys@@U?$TComparerBinaryHash@D@234@@tl@5@_KAEAU?$TIStackSocket@USFileInfo@libmedia@UModSys@@@75@AEBUSFlags@libmedia@5@@Z@4HA 0000000140018510 f    CIL library: CIL module
 0001:00017530       ?dtor$7@?0??data_list@RBinArchiveFrame@stdlib@media@modules@UModSys@@UEAA_NAEBU?$TString@U?$TSCoreConst@D@su@tl@UModSys@@U?$TComparerBinaryHash@D@234@@tl@5@_KAEAU?$TIStackSocket@USFileInfo@libmedia@UModSys@@@75@AEBUSFlags@libmedia@5@@Z@4HA 0000000140018530 f    CIL library: CIL module
 0001:00017550       ?dtor$11@?0??data_list@RBinArchiveFrame@stdlib@media@modules@UModSys@@UEAA_NAEBU?$TString@U?$TSCoreConst@D@su@tl@UModSys@@U?$TComparerBinaryHash@D@234@@tl@5@_KAEAU?$TIStackSocket@USFileInfo@libmedia@UModSys@@@75@AEBUSFlags@libmedia@5@@Z@4HA 0000000140018550 f    CIL library: CIL module
 0001:00017570       ?dtor$12@?0??data_list@RBinArchiveFrame@stdlib@media@modules@UModSys@@UEAA_NAEBU?$TString@U?$TSCoreConst@D@su@tl@UModSys@@U?$TComparerBinaryHash@D@234@@tl@5@_KAEAU?$TIStackSocket@USFileInfo@libmedia@UModSys@@@75@AEBUSFlags@libmedia@5@@Z@4HA 0000000140018570 f    CIL library: CIL module
 0001:000175a0       ?dtor$0@?0??objcache_add@RLibraryObjCache@stdlib@media@modules@UModSys@@UEAA_NAEBU?$TString@U?$TSCoreConst@D@su@tl@UModSys@@U?$TComparerBinaryHash@D@234@@tl@5@PEAUIRefObject@core@5@@Z@4HA 00000001400185a0 f    CIL library: CIL module
 0001:000175c0       ?dtor$4@?0???1RLibraryLayered@stdlib@media@modules@UModSys@@UEAA@XZ@4HA 00000001400185c0 f    CIL library: CIL module
 0001:000175e0       ?dtor$0@?0???0RLibraryLayered@stdlib@media@modules@UModSys@@QEAA@PEAUIModObject@base@4@AEBUSParameters@core@4@U?$TFlags4State@USMediaFlagUid@libmedia@UModSys@@I@tl@4@@Z@4HA 00000001400185e0 f    CIL library: CIL module
 0001:00017600       ?dtor$0@?0??bincache_add@RLibraryBinCache@stdlib@media@modules@UModSys@@QEAA_NAEBU?$TString@U?$TSCoreConst@D@su@tl@UModSys@@U?$TComparerBinaryHash@D@234@@tl@5@AEBUSCMemShared@core@5@_N@Z@4HA 0000000140018600 f    CIL library: CIL module
 0001:00017620       ?dtor$0@?0??bincache_add@RLibraryBinCache@stdlib@media@modules@UModSys@@UEAA_NAEBU?$TString@U?$TSCoreConst@D@su@tl@UModSys@@U?$TComparerBinaryHash@D@234@@tl@5@@Z@4HA 0000000140018620 f    CIL library: CIL module
 0001:00017640       ?dtor$0@?0??mount_add@RLibraryBinTree@stdlib@media@modules@UModSys@@UEAA_NAEBUSId@ILibraryBinTree@libmedia@5@AEBUSPoint@785@@Z@4HA 0000000140018640 f    CIL library: CIL module
 0001:00017660       ?dtor$1@?0??s_add@RModuleLibrarySO@rsystem@base@UModSys@@SA_NPEAUISystem@34@AEAU?$TDynarrayDynamic@U?$TRefObject@URModuleLibrarySO@rsystem@base@UModSys@@U?$TRefObjectFunc@URModuleLibrarySO@rsystem@base@UModSys@@@tl@4@@tl@UModSys@@U?$TAllocator@USMemAlloc_Malloc@core@UModSys@@USCountCalcPower2@23@@23@@tl@4@PEBD@Z@4HA 0000000140018660 f    CIL library: CIL module
 0001:00017680       ?dtor$0@?0??suicide@RDataArchiver_OsDir@stdio@media@modules@UModSys@@UEAAXXZ@4HA 0000000140018680 f    CIL library: CIL module
 0001:00017680       ?dtor$0@?0??suicide@RLibraryObjCache@stdlib@media@modules@UModSys@@UEAAXXZ@4HA 0000000140018680 f    CIL library: CIL module
 0001:00017680       ?dtor$0@?0??suicide@RLibraryBinCache@stdlib@media@modules@UModSys@@UEAAXXZ@4HA 0000000140018680 f    CIL library: CIL module
 0001:00017680       ?dtor$0@?0??suicide@RStreamReader_FILE@stdio@media@modules@UModSys@@UEAAXXZ@4HA 0000000140018680 f    CIL library: CIL module
 0001:00017680       ?dtor$0@?0??suicide@RUtilities@stdlib@media@modules@UModSys@@UEAAXXZ@4HA 0000000140018680 f    CIL library: CIL module
 0001:00017680       ?dtor$0@?0??suicide@RLibraryBinTree@stdlib@media@modules@UModSys@@UEAAXXZ@4HA 0000000140018680 f    CIL library: CIL module
 0001:00017680       ?dtor$0@?0??suicide@RLibraryObjFilter@stdlib@media@modules@UModSys@@UEAAXXZ@4HA 0000000140018680 f    CIL library: CIL module
 0001:00017680       ?dtor$0@?0??suicide@RBinArchiveFrame@stdlib@media@modules@UModSys@@UEAAXXZ@4HA 0000000140018680 f    CIL library: CIL module
 0001:00017680       ?dtor$0@?0??suicide@RLibraryLayered@stdlib@media@modules@UModSys@@UEAAXXZ@4HA 0000000140018680 f    CIL library: CIL module
 0001:00017680       ?dtor$0@?0??suicide@RStreamWriter_FILE@stdio@media@modules@UModSys@@UEAAXXZ@4HA 0000000140018680 f    CIL library: CIL module
 0001:000176a0       ?dtor$0@?0???$ValidateConstruction@UIRefObject@core@UModSys@@URBinArchiveFrame@stdlib@media@modules@3@@core@UModSys@@YA_NAEAU?$TRefObject@UIRefObject@core@UModSys@@U?$TRefObjectFunc@UIRefObject@core@UModSys@@@tl@3@@tl@1@PEAURBinArchiveFrame@stdlib@media@modules@1@@Z@4HA 00000001400186a0 f    CIL library: CIL module
 0001:000176a0       ?dtor$0@?0???$ValidateConstruction@UIRefObject@core@UModSys@@URLibraryBinCache@stdlib@media@modules@3@@core@UModSys@@YA_NAEAU?$TRefObject@UIRefObject@core@UModSys@@U?$TRefObjectFunc@UIRefObject@core@UModSys@@@tl@3@@tl@1@PEAURLibraryBinCache@stdlib@media@modules@1@@Z@4HA 00000001400186a0 f    CIL library: CIL module
 0001:000176a0       ?dtor$0@?0???$ValidateConstruction@UIRefObject@core@UModSys@@URLibraryBinTree@stdlib@media@modules@3@@core@UModSys@@YA_NAEAU?$TRefObject@UIRefObject@core@UModSys@@U?$TRefObjectFunc@UIRefObject@core@UModSys@@@tl@3@@tl@1@PEAURLibraryBinTree@stdlib@media@modules@1@@Z@4HA 00000001400186a0 f    CIL library: CIL module
 0001:000176a0       ?dtor$0@?0???$ValidateConstruction@UIRefObject@core@UModSys@@URLibraryObjFilter@stdlib@media@modules@3@@core@UModSys@@YA_NAEAU?$TRefObject@UIRefObject@core@UModSys@@U?$TRefObjectFunc@UIRefObject@core@UModSys@@@tl@3@@tl@1@PEAURLibraryObjFilter@stdlib@media@modules@1@@Z@4HA 00000001400186a0 f    CIL library: CIL module
 0001:000176a0       ?dtor$0@?0???$ValidateConstruction@UIStreamReader@libmedia@UModSys@@URStreamReader_FILE@stdio@media@modules@3@@core@UModSys@@YA_NAEAU?$TRefObject@UIStreamReader@libmedia@UModSys@@U?$TRefObjectFunc@UIStreamReader@libmedia@UModSys@@@tl@3@@tl@1@PEAURStreamReader_FILE@stdio@media@modules@1@@Z@4HA 00000001400186a0 f    CIL library: CIL module
 0001:000176a0       ?dtor$0@?0???$ValidateConstruction@UIStreamWriter@libmedia@UModSys@@URStreamWriter_FILE@stdio@media@modules@3@@core@UModSys@@YA_NAEAU?$TRefObject@UIStreamWriter@libmedia@UModSys@@U?$TRefObjectFunc@UIStreamWriter@libmedia@UModSys@@@tl@3@@tl@1@PEAURStreamWriter_FILE@stdio@media@modules@1@@Z@4HA 00000001400186a0 f    CIL library: CIL module
 0001:000176a0       ?dtor$0@?0???$ValidateConstruction@UIRefObject@core@UModSys@@URStreamReader_FILE@stdio@media@modules@3@@core@UModSys@@YA_NAEAU?$TRefObject@UIRefObject@core@UModSys@@U?$TRefObjectFunc@UIRefObject@core@UModSys@@@tl@3@@tl@1@PEAURStreamReader_FILE@stdio@media@modules@1@@Z@4HA 00000001400186a0 f    CIL library: CIL module
 0001:000176a0       ?dtor$0@?0???$ValidateConstruction@UIRefObject@core@UModSys@@URStreamWriter_FILE@stdio@media@modules@3@@core@UModSys@@YA_NAEAU?$TRefObject@UIRefObject@core@UModSys@@U?$TRefObjectFunc@UIRefObject@core@UModSys@@@tl@3@@tl@1@PEAURStreamWriter_FILE@stdio@media@modules@1@@Z@4HA 00000001400186a0 f    CIL library: CIL module
 0001:000176a0       ?dtor$0@?0???$ValidateConstruction@UIRefObject@core@UModSys@@URDataArchiver_OsDir@stdio@media@modules@3@@core@UModSys@@YA_NAEAU?$TRefObject@UIRefObject@core@UModSys@@U?$TRefObjectFunc@UIRefObject@core@UModSys@@@tl@3@@tl@1@PEAURDataArchiver_OsDir@stdio@media@modules@1@@Z@4HA 00000001400186a0 f    CIL library: CIL module
 0001:000176a0       ?dtor$0@?0???$ValidateConstruction@UIRefObject@core@UModSys@@URUtilities@stdlib@media@modules@3@@core@UModSys@@YA_NAEAU?$TRefObject@UIRefObject@core@UModSys@@U?$TRefObjectFunc@UIRefObject@core@UModSys@@@tl@3@@tl@1@PEAURUtilities@stdlib@media@modules@1@@Z@4HA 00000001400186a0 f    CIL library: CIL module
 0001:000176a0       ?dtor$0@?0???$ValidateConstruction@UIRefObject@core@UModSys@@URLibraryObjCache@stdlib@media@modules@3@@core@UModSys@@YA_NAEAU?$TRefObject@UIRefObject@core@UModSys@@U?$TRefObjectFunc@UIRefObject@core@UModSys@@@tl@3@@tl@1@PEAURLibraryObjCache@stdlib@media@modules@1@@Z@4HA 00000001400186a0 f    CIL library: CIL module
 0001:000176a0       ?dtor$0@?0???$ValidateConstruction@UIRefObject@core@UModSys@@URLibraryLayered@stdlib@media@modules@3@@core@UModSys@@YA_NAEAU?$TRefObject@UIRefObject@core@UModSys@@U?$TRefObjectFunc@UIRefObject@core@UModSys@@@tl@3@@tl@1@PEAURLibraryLayered@stdlib@media@modules@1@@Z@4HA 00000001400186a0 f    CIL library: CIL module
 0001:000176c0       ?dtor$0@?0???0RStreamWriter_FILE@stdio@media@modules@UModSys@@QEAA@PEAUIModObject@base@4@PEBD_N@Z@4HA 00000001400186c0 f    CIL library: CIL module
 0001:000176c0       ?dtor$0@?0???0RStreamReader_FILE@stdio@media@modules@UModSys@@QEAA@PEAUIModObject@base@4@AEBUSParameters@core@4@@Z@4HA 00000001400186c0 f    CIL library: CIL module
 0001:000176e0       ?dtor$0@?0???$genx_node@UCmp@?$TScatterArray@USFilter@RLibraryObjFilter@stdlib@media@modules@UModSys@@USId@23456@U723456@U?$TNodeDeleter0@U?$TScatterArrayNode@USFilter@RLibraryObjFilter@stdlib@media@modules@UModSys@@USId@23456@@tl@UModSys@@@tl@6@@tl@UModSys@@UGen0@234@@?$TTreeHoldRBD@U?$TScatterArrayNode@USFilter@RLibraryObjFilter@stdlib@media@modules@UModSys@@USId@23456@@tl@UModSys@@U?$TNodeDeleter0@U?$TScatterArrayNode@USFilter@RLibraryObjFilter@stdlib@media@modules@UModSys@@USId@23456@@tl@UModSys@@@23@@tl@UModSys@@QEAAPEAU?$TScatterArrayNode@USFilter@RLibraryObjFilter@stdlib@media@modules@UModSys@@USId@23456@@12@UCmp@?$TScatterArray@USFilter@RLibraryObjFilter@stdlib@media@modules@UModSys@@USId@23456@U723456@U?$TNodeDeleter0@U?$TScatterArrayNode@USFilter@RLibraryObjFilter@stdlib@media@modules@UModSys@@USId@23456@@tl@UModSys@@@tl@6@@12@AEBUGen0@512@PEAPEAU312@2_N@Z@4HA 00000001400186e0 f    CIL library: CIL module
 0001:00017700       ?dtor$1@?0???$genx_node@UCmp@?$TScatterArray@USFilter@RLibraryObjFilter@stdlib@media@modules@UModSys@@USId@23456@U723456@U?$TNodeDeleter0@U?$TScatterArrayNode@USFilter@RLibraryObjFilter@stdlib@media@modules@UModSys@@USId@23456@@tl@UModSys@@@tl@6@@tl@UModSys@@UGen0@234@@?$TTreeHoldRBD@U?$TScatterArrayNode@USFilter@RLibraryObjFilter@stdlib@media@modules@UModSys@@USId@23456@@tl@UModSys@@U?$TNodeDeleter0@U?$TScatterArrayNode@USFilter@RLibraryObjFilter@stdlib@media@modules@UModSys@@USId@23456@@tl@UModSys@@@23@@tl@UModSys@@QEAAPEAU?$TScatterArrayNode@USFilter@RLibraryObjFilter@stdlib@media@modules@UModSys@@USId@23456@@12@UCmp@?$TScatterArray@USFilter@RLibraryObjFilter@stdlib@media@modules@UModSys@@USId@23456@U723456@U?$TNodeDeleter0@U?$TScatterArrayNode@USFilter@RLibraryObjFilter@stdlib@media@modules@UModSys@@USId@23456@@tl@UModSys@@@tl@6@@12@AEBUGen0@512@PEAPEAU312@2_N@Z@4HA 0000000140018700 f    CIL library: CIL module
 0001:00017720       ?dtor$2@?0???$genx_node@UCmp@?$TScatterArray@USFilter@RLibraryObjFilter@stdlib@media@modules@UModSys@@USId@23456@U723456@U?$TNodeDeleter0@U?$TScatterArrayNode@USFilter@RLibraryObjFilter@stdlib@media@modules@UModSys@@USId@23456@@tl@UModSys@@@tl@6@@tl@UModSys@@UGen0@234@@?$TTreeHoldRBD@U?$TScatterArrayNode@USFilter@RLibraryObjFilter@stdlib@media@modules@UModSys@@USId@23456@@tl@UModSys@@U?$TNodeDeleter0@U?$TScatterArrayNode@USFilter@RLibraryObjFilter@stdlib@media@modules@UModSys@@USId@23456@@tl@UModSys@@@23@@tl@UModSys@@QEAAPEAU?$TScatterArrayNode@USFilter@RLibraryObjFilter@stdlib@media@modules@UModSys@@USId@23456@@12@UCmp@?$TScatterArray@USFilter@RLibraryObjFilter@stdlib@media@modules@UModSys@@USId@23456@U723456@U?$TNodeDeleter0@U?$TScatterArrayNode@USFilter@RLibraryObjFilter@stdlib@media@modules@UModSys@@USId@23456@@tl@UModSys@@@tl@6@@12@AEBUGen0@512@PEAPEAU312@2_N@Z@4HA 0000000140018720 f    CIL library: CIL module
 0001:00017740       ?dtor$0@?0???1IBinArchiveFrame@libmedia@UModSys@@UEAA@XZ@4HA 0000000140018740 f    CIL library: CIL module
 0001:00017760       ?dtor$1@?0???1IBinArchiveFrame@libmedia@UModSys@@UEAA@XZ@4HA 0000000140018760 f    CIL library: CIL module
 0001:00017780       ?dtor$2@?0???1IBinArchiveFrame@libmedia@UModSys@@UEAA@XZ@4HA 0000000140018780 f    CIL library: CIL module
 0001:000177a0       ?dtor$5@?0???1IBinArchiveFrame@libmedia@UModSys@@UEAA@XZ@4HA 00000001400187a0 f    CIL library: CIL module
 0001:000177c0       ?dtor$0@?0??archive_load_data@libmedia@UModSys@@YA_NAEAUIBinArchive@12@AEBU?$TString@U?$TSCoreConst@D@su@tl@UModSys@@U?$TComparerBinaryHash@D@234@@tl@2@AEAUSCMemShared@core@2@AEBUSFlags@12@@Z@4HA 00000001400187c0 f    CIL library: CIL module
 0001:000177e0       ?dtor$1@?0??archive_load_data@libmedia@UModSys@@YA_NAEAUIBinArchive@12@AEBU?$TString@U?$TSCoreConst@D@su@tl@UModSys@@U?$TComparerBinaryHash@D@234@@tl@2@AEAUSCMemShared@core@2@AEBUSFlags@12@@Z@4HA 00000001400187e0 f    CIL library: CIL module
 0001:00017800       ?dtor$1@?0???0?$TPair@U?$TString@U?$TSCoreConst@D@su@tl@UModSys@@U?$TComparerBinaryHash@D@234@@tl@UModSys@@USCacheElem@RLibraryObjCache@stdlib@media@modules@3@@tl@UModSys@@QEAA@AEBU?$TString@U?$TSCoreConst@D@su@tl@UModSys@@U?$TComparerBinaryHash@D@234@@12@AEBUSCacheElem@RLibraryObjCache@stdlib@media@modules@2@@Z@4HA 0000000140018800 f    CIL library: CIL module
 0001:00017800       ?dtor$0@?0???0?$TString@U?$TSCoreShared@USIMemAlloc@core@UModSys@@D@su@tl@UModSys@@U?$TComparerBinaryHash@D@234@@tl@UModSys@@QEAA@AEBU?$TSCoreConst@D@su@12@@Z@4HA 0000000140018800 f    CIL library: CIL module
 0001:00017800       ?dtor$0@?0???1SCacheElem@RLibraryObjCache@stdlib@media@modules@UModSys@@QEAA@XZ@4HA 0000000140018800 f    CIL library: CIL module
 0001:00017800       ?dtor$0@?0???1SCacheElem@RLibraryBinCache@stdlib@media@modules@UModSys@@QEAA@XZ@4HA 0000000140018800 f    CIL library: CIL module
 0001:00017800       ?dtor$1@?0???1?$TPair@U?$TString@U?$TSCoreConst@D@su@tl@UModSys@@U?$TComparerBinaryHash@D@234@@tl@UModSys@@USCacheElem@RLibraryObjCache@stdlib@media@modules@3@@tl@UModSys@@QEAA@XZ@4HA 0000000140018800 f    CIL library: CIL module
 0001:00017800       ?dtor$1@?0???1?$TPair@U?$TString@U?$TSCoreConst@D@su@tl@UModSys@@U?$TComparerBinaryHash@D@234@@tl@UModSys@@USCacheElem@RLibraryBinCache@stdlib@media@modules@3@@tl@UModSys@@QEAA@XZ@4HA 0000000140018800 f    CIL library: CIL module
 0001:00017820       ?dtor$2@?0???$process_nodes_r@U?$TNodeDeleter0@U?$TScatterArrayNode@USMountInfo@RLibraryBinTree@stdlib@media@modules@UModSys@@USId@ILibraryBinTree@libmedia@6@@tl@UModSys@@@tl@UModSys@@@?$TTreeHoldRB@U?$TScatterArrayNode@USMountInfo@RLibraryBinTree@stdlib@media@modules@UModSys@@USId@ILibraryBinTree@libmedia@6@@tl@UModSys@@@tl@UModSys@@KAHPEAU?$TScatterArrayNode@USMountInfo@RLibraryBinTree@stdlib@media@modules@UModSys@@USId@ILibraryBinTree@libmedia@6@@12@AEBU?$TNodeDeleter0@U?$TScatterArrayNode@USMountInfo@RLibraryBinTree@stdlib@media@modules@UModSys@@USId@ILibraryBinTree@libmedia@6@@tl@UModSys@@@12@@Z@4HA 0000000140018820 f    CIL library: CIL module
 0001:00017820       ?dtor$1@?0???0?$TPair@USId@ILibraryBinTree@libmedia@UModSys@@USMountInfo@RLibraryBinTree@stdlib@media@modules@4@@tl@UModSys@@QEAA@AEBUSId@ILibraryBinTree@libmedia@2@AEBUSMountInfo@RLibraryBinTree@stdlib@media@modules@2@@Z@4HA 0000000140018820 f    CIL library: CIL module
 0001:00017820       ?dtor$1@?0???1?$TPair@USId@ILibraryBinTree@libmedia@UModSys@@USMountInfo@RLibraryBinTree@stdlib@media@modules@4@@tl@UModSys@@QEAA@XZ@4HA 0000000140018820 f    CIL library: CIL module
 0001:00017820       ?dtor$0@?0???1SMountInfo@RLibraryBinTree@stdlib@media@modules@UModSys@@QEAA@XZ@4HA 0000000140018820 f    CIL library: CIL module
 0001:00017840       ?dtor$2@?0???1ILibraryObjFilter@libmedia@UModSys@@UEAA@XZ@4HA 0000000140018840 f    CIL library: CIL module
 0001:00017840       ?dtor$2@?0???1ILibraryObjCache@libmedia@UModSys@@UEAA@XZ@4HA 0000000140018840 f    CIL library: CIL module
 0001:00017840       ?dtor$1@?0???1IBinArchive@libmedia@UModSys@@UEAA@XZ@4HA 0000000140018840 f    CIL library: CIL module
 0001:00017840       ?dtor$2@?0???1ILibraryBinTree@libmedia@UModSys@@UEAA@XZ@4HA 0000000140018840 f    CIL library: CIL module
 0001:00017840       ?dtor$2@?0???1ILibraryLayered@libmedia@UModSys@@UEAA@XZ@4HA 0000000140018840 f    CIL library: CIL module
 0001:00017840       ?dtor$2@?0???1ILibraryBinCache@libmedia@UModSys@@UEAA@XZ@4HA 0000000140018840 f    CIL library: CIL module
 0001:00017860       ?dtor$0@?0???1SFileInfo@libmedia@UModSys@@QEAA@XZ@4HA 0000000140018860 f    CIL library: CIL module
 0001:00017880       ?dtor$1@?0???1SFileInfo@libmedia@UModSys@@QEAA@XZ@4HA 0000000140018880 f    CIL library: CIL module
 0001:000178a0       ?dtor$0@?0??data_writer@RDataArchiver_OsDir@stdio@media@modules@UModSys@@UEAA?AU?$TRefObject@UIStreamWriter@libmedia@UModSys@@U?$TRefObjectFunc@UIStreamWriter@libmedia@UModSys@@@tl@3@@tl@5@AEBU?$TString@U?$TSCoreConst@D@su@tl@UModSys@@U?$TComparerBinaryHash@D@234@@75@AEBUSFlags@libmedia@5@@Z@4HA 00000001400188a0 f    CIL library: CIL module
 0001:000178d0       ?dtor$1@?0??data_writer@RDataArchiver_OsDir@stdio@media@modules@UModSys@@UEAA?AU?$TRefObject@UIStreamWriter@libmedia@UModSys@@U?$TRefObjectFunc@UIStreamWriter@libmedia@UModSys@@@tl@3@@tl@5@AEBU?$TString@U?$TSCoreConst@D@su@tl@UModSys@@U?$TComparerBinaryHash@D@234@@75@AEBUSFlags@libmedia@5@@Z@4HA 00000001400188d0 f    CIL library: CIL module
 0001:000178f0       ?dtor$2@?0??data_writer@RDataArchiver_OsDir@stdio@media@modules@UModSys@@UEAA?AU?$TRefObject@UIStreamWriter@libmedia@UModSys@@U?$TRefObjectFunc@UIStreamWriter@libmedia@UModSys@@@tl@3@@tl@5@AEBU?$TString@U?$TSCoreConst@D@su@tl@UModSys@@U?$TComparerBinaryHash@D@234@@75@AEBUSFlags@libmedia@5@@Z@4HA 00000001400188f0 f    CIL library: CIL module
 0001:00017910       ?dtor$0@?0??data_reader@RDataArchiver_OsDir@stdio@media@modules@UModSys@@UEAA?AU?$TRefObject@UIStreamReader@libmedia@UModSys@@U?$TRefObjectFunc@UIStreamReader@libmedia@UModSys@@@tl@3@@tl@5@AEBU?$TString@U?$TSCoreConst@D@su@tl@UModSys@@U?$TComparerBinaryHash@D@234@@75@AEBUSFlags@libmedia@5@@Z@4HA 0000000140018910 f    CIL library: CIL module
 0001:00017940       ?dtor$1@?0??data_reader@RDataArchiver_OsDir@stdio@media@modules@UModSys@@UEAA?AU?$TRefObject@UIStreamReader@libmedia@UModSys@@U?$TRefObjectFunc@UIStreamReader@libmedia@UModSys@@@tl@3@@tl@5@AEBU?$TString@U?$TSCoreConst@D@su@tl@UModSys@@U?$TComparerBinaryHash@D@234@@75@AEBUSFlags@libmedia@5@@Z@4HA 0000000140018940 f    CIL library: CIL module
 0001:00017960       ?dtor$2@?0??data_reader@RDataArchiver_OsDir@stdio@media@modules@UModSys@@UEAA?AU?$TRefObject@UIStreamReader@libmedia@UModSys@@U?$TRefObjectFunc@UIStreamReader@libmedia@UModSys@@@tl@3@@tl@5@AEBU?$TString@U?$TSCoreConst@D@su@tl@UModSys@@U?$TComparerBinaryHash@D@234@@75@AEBUSFlags@libmedia@5@@Z@4HA 0000000140018960 f    CIL library: CIL module
 0001:00017980       ?dtor$0@?0???0RDataArchiver_OsDir@stdio@media@modules@UModSys@@QEAA@PEAUIModObject@base@4@AEBUSParameters@core@4@U?$TFlags4State@USMediaFlagUid@libmedia@UModSys@@I@tl@4@@Z@4HA 0000000140018980 f    CIL library: CIL module
 0001:000179a0       ?dtor$1@?0???0RDataArchiver_OsDir@stdio@media@modules@UModSys@@QEAA@PEAUIModObject@base@4@AEBUSParameters@core@4@U?$TFlags4State@USMediaFlagUid@libmedia@UModSys@@I@tl@4@@Z@4HA 00000001400189a0 f    CIL library: CIL module
 0001:000179c0       ?dtor$0@?0???0RStreamWriter_FILE@stdio@media@modules@UModSys@@QEAA@PEAUIModObject@base@4@AEBUSParameters@core@4@@Z@4HA 00000001400189c0 f    CIL library: CIL module
 0001:000179c0       ?dtor$0@?0???0RStreamReader_FILE@stdio@media@modules@UModSys@@QEAA@PEAUIModObject@base@4@PEBD@Z@4HA 00000001400189c0 f    CIL library: CIL module
 0001:000179c0       ?dtor$0@?0???_GRStreamWriter_FILE@stdio@media@modules@UModSys@@UEAAPEAXI@Z@4HA 00000001400189c0 f    CIL library: CIL module
 0001:000179e0       ?dtor$2@?0???$process_nodes_r@U?$TNodeDeleter0@U?$TScatterArrayNode@USCacheElem@RLibraryObjCache@stdlib@media@modules@UModSys@@U?$TString@U?$TSCoreConst@D@su@tl@UModSys@@U?$TComparerBinaryHash@D@234@@tl@6@@tl@UModSys@@@tl@UModSys@@@?$TTreeHoldRB@U?$TScatterArrayNode@USCacheElem@RLibraryObjCache@stdlib@media@modules@UModSys@@U?$TString@U?$TSCoreConst@D@su@tl@UModSys@@U?$TComparerBinaryHash@D@234@@tl@6@@tl@UModSys@@@tl@UModSys@@KAHPEAU?$TScatterArrayNode@USCacheElem@RLibraryObjCache@stdlib@media@modules@UModSys@@U?$TString@U?$TSCoreConst@D@su@tl@UModSys@@U?$TComparerBinaryHash@D@234@@tl@6@@12@AEBU?$TNodeDeleter0@U?$TScatterArrayNode@USCacheElem@RLibraryObjCache@stdlib@media@modules@UModSys@@U?$TString@U?$TSCoreConst@D@su@tl@UModSys@@U?$TComparerBinaryHash@D@234@@tl@6@@tl@UModSys@@@12@@Z@4HA 00000001400189e0 f    CIL library: CIL module
 0001:000179e0       ?dtor$2@?0???$process_nodes_r@U?$TNodeDeleter0@U?$TScatterArrayNode@USCacheElem@RLibraryBinCache@stdlib@media@modules@UModSys@@U?$TString@U?$TSCoreConst@D@su@tl@UModSys@@U?$TComparerBinaryHash@D@234@@tl@6@@tl@UModSys@@@tl@UModSys@@@?$TTreeHoldRB@U?$TScatterArrayNode@USCacheElem@RLibraryBinCache@stdlib@media@modules@UModSys@@U?$TString@U?$TSCoreConst@D@su@tl@UModSys@@U?$TComparerBinaryHash@D@234@@tl@6@@tl@UModSys@@@tl@UModSys@@KAHPEAU?$TScatterArrayNode@USCacheElem@RLibraryBinCache@stdlib@media@modules@UModSys@@U?$TString@U?$TSCoreConst@D@su@tl@UModSys@@U?$TComparerBinaryHash@D@234@@tl@6@@12@AEBU?$TNodeDeleter0@U?$TScatterArrayNode@USCacheElem@RLibraryBinCache@stdlib@media@modules@UModSys@@U?$TString@U?$TSCoreConst@D@su@tl@UModSys@@U?$TComparerBinaryHash@D@234@@tl@6@@tl@UModSys@@@12@@Z@4HA 00000001400189e0 f    CIL library: CIL module
 0001:00017a00       ?dtor$0@?0??aconstruct@?$TTypeConstructor@USLayerX@RLibraryLayered@stdlib@media@modules@UModSys@@@tl@UModSys@@SAXPEAUSLayerX@RLibraryLayered@stdlib@media@modules@3@_K@Z@4HA 0000000140018a00 f    CIL library: CIL module
 0001:00017a20       ?dtor$0@?0??amoveright@?$TTypeConstructor@USLayerX@RLibraryLayered@stdlib@media@modules@UModSys@@@tl@UModSys@@SAXPEAUSLayerX@RLibraryLayered@stdlib@media@modules@3@_K11@Z@4HA 0000000140018a20 f    CIL library: CIL module
 0001:00017a20       ?dtor$0@?0??amoveleft@?$TTypeConstructor@USLayerX@RLibraryLayered@stdlib@media@modules@UModSys@@@tl@UModSys@@SAXPEAUSLayerX@RLibraryLayered@stdlib@media@modules@3@_K11@Z@4HA 0000000140018a20 f    CIL library: CIL module
 0001:00017a40       ?dtor$1@?0??amoveright@?$TTypeConstructor@USLayerX@RLibraryLayered@stdlib@media@modules@UModSys@@@tl@UModSys@@SAXPEAUSLayerX@RLibraryLayered@stdlib@media@modules@3@_K11@Z@4HA 0000000140018a40 f    CIL library: CIL module
 0001:00017a40       ?dtor$1@?0??amoveleft@?$TTypeConstructor@USLayerX@RLibraryLayered@stdlib@media@modules@UModSys@@@tl@UModSys@@SAXPEAUSLayerX@RLibraryLayered@stdlib@media@modules@3@_K11@Z@4HA 0000000140018a40 f    CIL library: CIL module
 0001:00017a60       ?dtor$5@?0??amoveleft@?$TTypeConstructor@USLayerX@RLibraryLayered@stdlib@media@modules@UModSys@@@tl@UModSys@@SAXPEAUSLayerX@RLibraryLayered@stdlib@media@modules@3@_K11@Z@4HA 0000000140018a60 f    CIL library: CIL module
 0001:00017a60       ?dtor$5@?0??amoveright@?$TTypeConstructor@USLayerX@RLibraryLayered@stdlib@media@modules@UModSys@@@tl@UModSys@@SAXPEAUSLayerX@RLibraryLayered@stdlib@media@modules@3@_K11@Z@4HA 0000000140018a60 f    CIL library: CIL module
 0001:00017a80       ?dtor$0@?0??generate@RGenerator@stdio@media@modules@UModSys@@UEAA_NAEAU?$TRefObject@UIRefObject@core@UModSys@@U?$TRefObjectFunc@UIRefObject@core@UModSys@@@tl@3@@tl@5@PEBUSUniquePointerInfo@core@5@AEBUSParameters@95@@Z@4HA 0000000140018a80 f    CIL library: CIL module
 0001:00017aa0       ?dtor$1@?0??generate@RGenerator@stdio@media@modules@UModSys@@UEAA_NAEAU?$TRefObject@UIRefObject@core@UModSys@@U?$TRefObjectFunc@UIRefObject@core@UModSys@@@tl@3@@tl@5@PEBUSUniquePointerInfo@core@5@AEBUSParameters@95@@Z@4HA 0000000140018aa0 f    CIL library: CIL module
 0001:00017ac0       ?dtor$2@?0??generate@RGenerator@stdio@media@modules@UModSys@@UEAA_NAEAU?$TRefObject@UIRefObject@core@UModSys@@U?$TRefObjectFunc@UIRefObject@core@UModSys@@@tl@3@@tl@5@PEBUSUniquePointerInfo@core@5@AEBUSParameters@95@@Z@4HA 0000000140018ac0 f    CIL library: CIL module
 0001:00017ae0       ?dtor$0@?0???_GRDataArchiver_OsDir@stdio@media@modules@UModSys@@UEAAPEAXI@Z@4HA 0000000140018ae0 f    CIL library: CIL module
 0001:00017b00       ?dtor$4@?0???_GRDataArchiver_OsDir@stdio@media@modules@UModSys@@UEAAPEAXI@Z@4HA 0000000140018b00 f    CIL library: CIL module
 0001:00017b20       ?dtor$0@?0??mem_free@?$TRMemAlloc_CC@U?$TMemAllocHeader@USMagic@mem_headers@rsystem@base@UModSys@@U?$TPool@X@2345@USDebug@2345@UVoid@core@5@U895@@rsystem@base@UModSys@@USMemAlloc_Malloc@core@4@@rsystem@base@UModSys@@UEAAXPEAXPEBUSSourceContext@core@4@@Z@4HA 0000000140018b20 f    CIL library: CIL module
 0001:00017b40       ?dtor$0@?0??mem_realloc@?$TRMemAlloc_CC@U?$TMemAllocHeader@USMagic@mem_headers@rsystem@base@UModSys@@U?$TPool@X@2345@USDebug@2345@UVoid@core@5@U895@@rsystem@base@UModSys@@USMemAlloc_Malloc@core@4@@rsystem@base@UModSys@@UEAAPEAXPEAX_KPEBUSSourceContext@core@4@@Z@4HA 0000000140018b40 f    CIL library: CIL module
 0001:00017b60       ?dtor$1@?0??mem_realloc@?$TRMemAlloc_CC@U?$TMemAllocHeader@USMagic@mem_headers@rsystem@base@UModSys@@U?$TPool@X@2345@USDebug@2345@UVoid@core@5@U895@@rsystem@base@UModSys@@USMemAlloc_Malloc@core@4@@rsystem@base@UModSys@@UEAAPEAXPEAX_KPEBUSSourceContext@core@4@@Z@4HA 0000000140018b60 f    CIL library: CIL module
 0001:00017b80       ?dtor$1@?0???0?$TPair@U?$TString@U?$TSCoreConst@D@su@tl@UModSys@@U?$TComparerBinaryHash@D@234@@tl@UModSys@@USCacheElem@RLibraryBinCache@stdlib@media@modules@3@@tl@UModSys@@QEAA@AEBU?$TString@U?$TSCoreConst@D@su@tl@UModSys@@U?$TComparerBinaryHash@D@234@@12@AEBUSCacheElem@RLibraryBinCache@stdlib@media@modules@2@@Z@4HA 0000000140018b80 f    CIL library: CIL module
 0001:00017ba0       ?dtor$0@?0???0?$TScatterArrayNode@USCacheElem@RLibraryObjCache@stdlib@media@modules@UModSys@@U?$TString@U?$TSCoreConst@D@su@tl@UModSys@@U?$TComparerBinaryHash@D@234@@tl@6@@tl@UModSys@@QEAA@AEBU?$TString@U?$TSCoreConst@D@su@tl@UModSys@@U?$TComparerBinaryHash@D@234@@12@@Z@4HA 0000000140018ba0 f    CIL library: CIL module
 0001:00017bc0       ?dtor$1@?0???0?$TScatterArrayNode@USCacheElem@RLibraryObjCache@stdlib@media@modules@UModSys@@U?$TString@U?$TSCoreConst@D@su@tl@UModSys@@U?$TComparerBinaryHash@D@234@@tl@6@@tl@UModSys@@QEAA@AEBU?$TString@U?$TSCoreConst@D@su@tl@UModSys@@U?$TComparerBinaryHash@D@234@@12@@Z@4HA 0000000140018bc0 f    CIL library: CIL module
 0001:00017be0       ?dtor$2@?0???0?$TScatterArrayNode@USCacheElem@RLibraryObjCache@stdlib@media@modules@UModSys@@U?$TString@U?$TSCoreConst@D@su@tl@UModSys@@U?$TComparerBinaryHash@D@234@@tl@6@@tl@UModSys@@QEAA@AEBU?$TString@U?$TSCoreConst@D@su@tl@UModSys@@U?$TComparerBinaryHash@D@234@@12@@Z@4HA 0000000140018be0 f    CIL library: CIL module
 0001:00017c00       ?dtor$0@?0???0?$TScatterArrayNode@USCacheElem@RLibraryBinCache@stdlib@media@modules@UModSys@@U?$TString@U?$TSCoreConst@D@su@tl@UModSys@@U?$TComparerBinaryHash@D@234@@tl@6@@tl@UModSys@@QEAA@AEBU?$TString@U?$TSCoreConst@D@su@tl@UModSys@@U?$TComparerBinaryHash@D@234@@12@@Z@4HA 0000000140018c00 f    CIL library: CIL module
 0001:00017c20       ?dtor$1@?0???0?$TScatterArrayNode@USCacheElem@RLibraryBinCache@stdlib@media@modules@UModSys@@U?$TString@U?$TSCoreConst@D@su@tl@UModSys@@U?$TComparerBinaryHash@D@234@@tl@6@@tl@UModSys@@QEAA@AEBU?$TString@U?$TSCoreConst@D@su@tl@UModSys@@U?$TComparerBinaryHash@D@234@@12@@Z@4HA 0000000140018c20 f    CIL library: CIL module
 0001:00017c40       ?dtor$2@?0???0?$TScatterArrayNode@USCacheElem@RLibraryBinCache@stdlib@media@modules@UModSys@@U?$TString@U?$TSCoreConst@D@su@tl@UModSys@@U?$TComparerBinaryHash@D@234@@tl@6@@tl@UModSys@@QEAA@AEBU?$TString@U?$TSCoreConst@D@su@tl@UModSys@@U?$TComparerBinaryHash@D@234@@12@@Z@4HA 0000000140018c40 f    CIL library: CIL module
 0001:00017c60       ?dtor$0@?0???0?$TScatterArrayNode@USMountInfo@RLibraryBinTree@stdlib@media@modules@UModSys@@USId@ILibraryBinTree@libmedia@6@@tl@UModSys@@QEAA@AEBUSId@ILibraryBinTree@libmedia@2@@Z@4HA 0000000140018c60 f    CIL library: CIL module
 0001:00017c80       ?dtor$1@?0???0?$TScatterArrayNode@USMountInfo@RLibraryBinTree@stdlib@media@modules@UModSys@@USId@ILibraryBinTree@libmedia@6@@tl@UModSys@@QEAA@AEBUSId@ILibraryBinTree@libmedia@2@@Z@4HA 0000000140018c80 f    CIL library: CIL module
 0001:00017ca0       ?dtor$5@?0???0?$TScatterArrayNode@USMountInfo@RLibraryBinTree@stdlib@media@modules@UModSys@@USId@ILibraryBinTree@libmedia@6@@tl@UModSys@@QEAA@AEBUSId@ILibraryBinTree@libmedia@2@@Z@4HA 0000000140018ca0 f    CIL library: CIL module
 0001:00017cc0       ?dtor$0@?0???$genx_node@UCmp@?$TScatterArray@USCacheElem@RLibraryObjCache@stdlib@media@modules@UModSys@@U?$TString@U?$TSCoreConst@D@su@tl@UModSys@@U?$TComparerBinaryHash@D@234@@tl@6@U?$TObjectCompare@U?$TString@U?$TSCoreConst@D@su@tl@UModSys@@U?$TComparerBinaryHash@D@234@@tl@UModSys@@@core@6@U?$TNodeDeleter0@U?$TScatterArrayNode@USCacheElem@RLibraryObjCache@stdlib@media@modules@UModSys@@U?$TString@U?$TSCoreConst@D@su@tl@UModSys@@U?$TComparerBinaryHash@D@234@@tl@6@@tl@UModSys@@@86@@tl@UModSys@@UGen0@234@@?$TTreeHoldRBD@U?$TScatterArrayNode@USCacheElem@RLibraryObjCache@stdlib@media@modules@UModSys@@U?$TString@U?$TSCoreConst@D@su@tl@UModSys@@U?$TComparerBinaryHash@D@234@@tl@6@@tl@UModSys@@U?$TNodeDeleter0@U?$TScatterArrayNode@USCacheElem@RLibraryObjCache@stdlib@media@modules@UModSys@@U?$TString@U?$TSCoreConst@D@su@tl@UModSys@@U?$TComparerBinaryHash@D@234@@tl@6@@tl@UModSys@@@23@@tl@UModSys@@QEAAPEAU?$TScatterArrayNode@USCacheElem@RLibraryObjCache@stdlib@media@modules@UModSys@@U?$TString@U?$TSCoreConst@D@su@tl@UModSys@@U?$TComparerBinaryHash@D@234@@tl@6@@12@UCmp@?$TScatterArray@USCacheElem@RLibraryObjCache@stdlib@media@modules@UModSys@@U?$TString@U?$TSCoreConst@D@su@tl@UModSys@@U?$TComparerBinaryHash@D@234@@tl@6@U?$TObjectCompare@U?$TString@U?$TSCoreConst@D@su@tl@UModSys@@U?$TComparerBinaryHash@D@234@@tl@UModSys@@@core@6@U?$TNodeDeleter0@U?$TScatterArrayNode@USCacheElem@RLibraryObjCache@stdlib@media@modules@UModSys@@U?$TString@U?$TSCoreConst@D@su@tl@UModSys@@U?$TComparerBinaryHash@D@234@@tl@6@@tl@UModSys@@@86@@12@AEBUGen0@512@PEAPEAU312@2_N@Z@4HA 0000000140018cc0 f    CIL library: CIL module
 0001:00017cc0       ?dtor$0@?0???$genx_node@UCmp@?$TScatterArray@USMountInfo@RLibraryBinTree@stdlib@media@modules@UModSys@@USId@ILibraryBinTree@libmedia@6@U7896@U?$TNodeDeleter0@U?$TScatterArrayNode@USMountInfo@RLibraryBinTree@stdlib@media@modules@UModSys@@USId@ILibraryBinTree@libmedia@6@@tl@UModSys@@@tl@6@@tl@UModSys@@UGen0@234@@?$TTreeHoldRBD@U?$TScatterArrayNode@USMountInfo@RLibraryBinTree@stdlib@media@modules@UModSys@@USId@ILibraryBinTree@libmedia@6@@tl@UModSys@@U?$TNodeDeleter0@U?$TScatterArrayNode@USMountInfo@RLibraryBinTree@stdlib@media@modules@UModSys@@USId@ILibraryBinTree@libmedia@6@@tl@UModSys@@@23@@tl@UModSys@@QEAAPEAU?$TScatterArrayNode@USMountInfo@RLibraryBinTree@stdlib@media@modules@UModSys@@USId@ILibraryBinTree@libmedia@6@@12@UCmp@?$TScatterArray@USMountInfo@RLibraryBinTree@stdlib@media@modules@UModSys@@USId@ILibraryBinTree@libmedia@6@U7896@U?$TNodeDeleter0@U?$TScatterArrayNode@USMountInfo@RLibraryBinTree@stdlib@media@modules@UModSys@@USId@ILibraryBinTree@libmedia@6@@tl@UModSys@@@tl@6@@12@AEBUGen0@512@PEAPEAU312@2_N@Z@4HA 0000000140018cc0 f    CIL library: CIL module
 0001:00017cc0       ?dtor$0@?0???$genx_node@UCmp@?$TScatterArray@USCacheElem@RLibraryBinCache@stdlib@media@modules@UModSys@@U?$TString@U?$TSCoreConst@D@su@tl@UModSys@@U?$TComparerBinaryHash@D@234@@tl@6@U?$TObjectCompare@U?$TString@U?$TSCoreConst@D@su@tl@UModSys@@U?$TComparerBinaryHash@D@234@@tl@UModSys@@@core@6@U?$TNodeDeleter0@U?$TScatterArrayNode@USCacheElem@RLibraryBinCache@stdlib@media@modules@UModSys@@U?$TString@U?$TSCoreConst@D@su@tl@UModSys@@U?$TComparerBinaryHash@D@234@@tl@6@@tl@UModSys@@@86@@tl@UModSys@@UGen0@234@@?$TTreeHoldRBD@U?$TScatterArrayNode@USCacheElem@RLibraryBinCache@stdlib@media@modules@UModSys@@U?$TString@U?$TSCoreConst@D@su@tl@UModSys@@U?$TComparerBinaryHash@D@234@@tl@6@@tl@UModSys@@U?$TNodeDeleter0@U?$TScatterArrayNode@USCacheElem@RLibraryBinCache@stdlib@media@modules@UModSys@@U?$TString@U?$TSCoreConst@D@su@tl@UModSys@@U?$TComparerBinaryHash@D@234@@tl@6@@tl@UModSys@@@23@@tl@UModSys@@QEAAPEAU?$TScatterArrayNode@USCacheElem@RLibraryBinCache@stdlib@media@modules@UModSys@@U?$TString@U?$TSCoreConst@D@su@tl@UModSys@@U?$TComparerBinaryHash@D@234@@tl@6@@12@UCmp@?$TScatterArray@USCacheElem@RLibraryBinCache@stdlib@media@modules@UModSys@@U?$TString@U?$TSCoreConst@D@su@tl@UModSys@@U?$TComparerBinaryHash@D@234@@tl@6@U?$TObjectCompare@U?$TString@U?$TSCoreConst@D@su@tl@UModSys@@U?$TComparerBinaryHash@D@234@@tl@UModSys@@@core@6@U?$TNodeDeleter0@U?$TScatterArrayNode@USCacheElem@RLibraryBinCache@stdlib@media@modules@UModSys@@U?$TString@U?$TSCoreConst@D@su@tl@UModSys@@U?$TComparerBinaryHash@D@234@@tl@6@@tl@UModSys@@@86@@12@AEBUGen0@512@PEAPEAU312@2_N@Z@4HA 0000000140018cc0 f    CIL library: CIL module
 0001:00017ce0       ?dtor$0@?0??generate@RGenerator@stdlib@media@modules@UModSys@@UEAA_NAEAU?$TRefObject@UIRefObject@core@UModSys@@U?$TRefObjectFunc@UIRefObject@core@UModSys@@@tl@3@@tl@5@PEBUSUniquePointerInfo@core@5@AEBUSParameters@95@@Z@4HA 0000000140018ce0 f    CIL library: CIL module
 0001:00017d00       ?dtor$1@?0??generate@RGenerator@stdlib@media@modules@UModSys@@UEAA_NAEAU?$TRefObject@UIRefObject@core@UModSys@@U?$TRefObjectFunc@UIRefObject@core@UModSys@@@tl@3@@tl@5@PEBUSUniquePointerInfo@core@5@AEBUSParameters@95@@Z@4HA 0000000140018d00 f    CIL library: CIL module
 0001:00017d20       ?dtor$2@?0??generate@RGenerator@stdlib@media@modules@UModSys@@UEAA_NAEAU?$TRefObject@UIRefObject@core@UModSys@@U?$TRefObjectFunc@UIRefObject@core@UModSys@@@tl@3@@tl@5@PEBUSUniquePointerInfo@core@5@AEBUSParameters@95@@Z@4HA 0000000140018d20 f    CIL library: CIL module
 0001:00017d40       ?dtor$3@?0??generate@RGenerator@stdlib@media@modules@UModSys@@UEAA_NAEAU?$TRefObject@UIRefObject@core@UModSys@@U?$TRefObjectFunc@UIRefObject@core@UModSys@@@tl@3@@tl@5@PEBUSUniquePointerInfo@core@5@AEBUSParameters@95@@Z@4HA 0000000140018d40 f    CIL library: CIL module
 0001:00017d60       ?dtor$4@?0??generate@RGenerator@stdlib@media@modules@UModSys@@UEAA_NAEAU?$TRefObject@UIRefObject@core@UModSys@@U?$TRefObjectFunc@UIRefObject@core@UModSys@@@tl@3@@tl@5@PEBUSUniquePointerInfo@core@5@AEBUSParameters@95@@Z@4HA 0000000140018d60 f    CIL library: CIL module
 0001:00017d80       ?dtor$5@?0??generate@RGenerator@stdlib@media@modules@UModSys@@UEAA_NAEAU?$TRefObject@UIRefObject@core@UModSys@@U?$TRefObjectFunc@UIRefObject@core@UModSys@@@tl@3@@tl@5@PEBUSUniquePointerInfo@core@5@AEBUSParameters@95@@Z@4HA 0000000140018d80 f    CIL library: CIL module
 0001:00017da0       ?dtor$6@?0??generate@RGenerator@stdlib@media@modules@UModSys@@UEAA_NAEAU?$TRefObject@UIRefObject@core@UModSys@@U?$TRefObjectFunc@UIRefObject@core@UModSys@@@tl@3@@tl@5@PEBUSUniquePointerInfo@core@5@AEBUSParameters@95@@Z@4HA 0000000140018da0 f    CIL library: CIL module
 0001:00017dc0       ??__E?s_id@?$TObjectUniqueID@UIRoot@core@UModSys@@@tl@UModSys@@2USUniquePointer@core@3@A@@YAXXZ 0000000140018dc0 f    CIL library: CIL module
 0001:00017e00       ??__E?s_id@?$TObjectUniqueID@UIRefObject@core@UModSys@@@tl@UModSys@@2USUniquePointer@core@3@A@@YAXXZ 0000000140018e00 f    CIL library: CIL module
 0001:00017e40       ??__E?s_id@?$TObjectUniqueID@UIParameters@core@UModSys@@@tl@UModSys@@2USUniquePointer@core@3@A@@YAXXZ 0000000140018e40 f    CIL library: CIL module
 0001:00017e80       ??__E?s_id@?$TObjectUniqueID@UIModule@base@UModSys@@@tl@UModSys@@2USUniquePointer@core@3@A@@YAXXZ 0000000140018e80 f    CIL library: CIL module
 0001:00017ec0       ??__E?s_id@?$TObjectUniqueID@UIModuleLibrary@base@UModSys@@@tl@UModSys@@2USUniquePointer@core@3@A@@YAXXZ 0000000140018ec0 f    CIL library: CIL module
 0001:00017f00       ??__E?s_id@?$TObjectUniqueID@UIModObject@base@UModSys@@@tl@UModSys@@2USUniquePointer@core@3@A@@YAXXZ 0000000140018f00 f    CIL library: CIL module
 0001:00017f40       ??__E?s_id@?$TObjectUniqueID@UIGenerator@base@UModSys@@@tl@UModSys@@2USUniquePointer@core@3@A@@YAXXZ 0000000140018f40 f    CIL library: CIL module
 0001:00017f80       ??__E?s_id@?$TObjectUniqueID@UIShell@base@UModSys@@@tl@UModSys@@2USUniquePointer@core@3@A@@YAXXZ 0000000140018f80 f    CIL library: CIL module
 0001:00017fc0       ??__E?s_id@?$TObjectUniqueID@UIConsole@base@UModSys@@@tl@UModSys@@2USUniquePointer@core@3@A@@YAXXZ 0000000140018fc0 f    CIL library: CIL module
 0001:00018000       ??__E?s_id@?$TObjectUniqueID@UISystem@base@UModSys@@@tl@UModSys@@2USUniquePointer@core@3@A@@YAXXZ 0000000140019000 f    CIL library: CIL module
 0001:00018040       ??__E?s_id@?$TObjectUniqueID@URModule@rsystem@base@UModSys@@@tl@UModSys@@2USUniquePointer@core@3@A@@YAXXZ 0000000140019040 f    CIL library: CIL module
 0001:00018080       ??__E?s_id@?$TObjectUniqueID@UIModuleLibraryUni@rsystem@base@UModSys@@@tl@UModSys@@2USUniquePointer@core@3@A@@YAXXZ 0000000140019080 f    CIL library: CIL module
 0001:000180c0       ??__E?s_id@?$TObjectUniqueID@URModuleLibrarySO@rsystem@base@UModSys@@@tl@UModSys@@2USUniquePointer@core@3@A@@YAXXZ 00000001400190c0 f    CIL library: CIL module
 0001:00018100       ??__E?s_id@?$TObjectUniqueID@URModuleLibraryThis@rsystem@base@UModSys@@@tl@UModSys@@2USUniquePointer@core@3@A@@YAXXZ 0000000140019100 f    CIL library: CIL module
 0001:00018140       ??__E?s_id@?$TObjectUniqueID@URParameters@rsystem@base@UModSys@@@tl@UModSys@@2USUniquePointer@core@3@A@@YAXXZ 0000000140019140 f    CIL library: CIL module
 0001:00018180       ??__E?s_id@?$TObjectUniqueID@URSystem@rsystem@base@UModSys@@@tl@UModSys@@2USUniquePointer@core@3@A@@YAXXZ 0000000140019180 f    CIL library: CIL module
 0001:000181c0       ??__E?s_id@?$TObjectUniqueID@URConsole_std@rsystem@base@UModSys@@@tl@UModSys@@2USUniquePointer@core@3@A@@YAXXZ 00000001400191c0 f    CIL library: CIL module
 0001:00018200       ??__E?s_modreg@RModuleReg@stdio@media@modules@UModSys@@2U12345@A@@YAXXZ 0000000140019200 f    CIL library: CIL module
 0001:00018260       ??__E?s_modreg_chain@RModuleReg@stdio@media@modules@UModSys@@2USModuleRegChain@base@5@A@@YAXXZ 0000000140019260 f    CIL library: CIL module
 0001:00018290       ??__E?s_uid@RGenerator@stdio@media@modules@UModSys@@2USUniquePointer@core@5@A@@YAXXZ 0000000140019290 f    CIL library: CIL module
 0001:000182d0       ??__E?s_id@?$TObjectUniqueID@UIStreamReader@libmedia@UModSys@@@tl@UModSys@@2USUniquePointer@core@3@A@@YAXXZ 00000001400192d0 f    CIL library: CIL module
 0001:00018310       ??__E?s_id@?$TObjectUniqueID@UIStreamWriter@libmedia@UModSys@@@tl@UModSys@@2USUniquePointer@core@3@A@@YAXXZ 0000000140019310 f    CIL library: CIL module
 0001:00018350       ??__E?s_id@?$TObjectUniqueID@UIUtilities@libmedia@UModSys@@@tl@UModSys@@2USUniquePointer@core@3@A@@YAXXZ 0000000140019350 f    CIL library: CIL module
 0001:00018390       ??__E?s_id@?$TObjectUniqueID@UILibObject@libmedia@UModSys@@@tl@UModSys@@2USUniquePointer@core@3@A@@YAXXZ 0000000140019390 f    CIL library: CIL module
 0001:000183d0       ??__E?s_id@?$TObjectUniqueID@UIBinArchive@libmedia@UModSys@@@tl@UModSys@@2USUniquePointer@core@3@A@@YAXXZ 00000001400193d0 f    CIL library: CIL module
 0001:00018410       ??__E?s_id@?$TObjectUniqueID@UIBinObjFilter@libmedia@UModSys@@@tl@UModSys@@2USUniquePointer@core@3@A@@YAXXZ 0000000140019410 f    CIL library: CIL module
 0001:00018450       ??__E?s_id@?$TObjectUniqueID@UILibrary@libmedia@UModSys@@@tl@UModSys@@2USUniquePointer@core@3@A@@YAXXZ 0000000140019450 f    CIL library: CIL module
 0001:00018490       ??__E?s_id@?$TObjectUniqueID@URStreamReader_FILE@stdio@media@modules@UModSys@@@tl@UModSys@@2USUniquePointer@core@3@A@@YAXXZ 0000000140019490 f    CIL library: CIL module
 0001:000184d0       ??__E?s_id@?$TObjectUniqueID@URStreamWriter_FILE@stdio@media@modules@UModSys@@@tl@UModSys@@2USUniquePointer@core@3@A@@YAXXZ 00000001400194d0 f    CIL library: CIL module
 0001:00018510       ??__E?s_id@?$TObjectUniqueID@URDataArchiver_OsDir@stdio@media@modules@UModSys@@@tl@UModSys@@2USUniquePointer@core@3@A@@YAXXZ 0000000140019510 f    CIL library: CIL module
 0001:00018550       ??__E?s_id@?$TObjectUniqueID@URGenerator@stdio@media@modules@UModSys@@@tl@UModSys@@2USUniquePointer@core@3@A@@YAXXZ 0000000140019550 f    CIL library: CIL module
 0001:00018590       ??__E?s_modreg@RModuleReg@stdlib@media@modules@UModSys@@2U12345@A@@YAXXZ 0000000140019590 f    CIL library: CIL module
 0001:000185f0       ??__E?s_modreg_chain@RModuleReg@stdlib@media@modules@UModSys@@2USModuleRegChain@base@5@A@@YAXXZ 00000001400195f0 f    CIL library: CIL module
 0001:00018620       ??__E?s_uid@RGenerator@stdlib@media@modules@UModSys@@2USUniquePointer@core@5@A@@YAXXZ 0000000140019620 f    CIL library: CIL module
 0001:00018660       ??__E?s_id@?$TObjectUniqueID@UILibraryBinTree@libmedia@UModSys@@@tl@UModSys@@2USUniquePointer@core@3@A@@YAXXZ 0000000140019660 f    CIL library: CIL module
 0001:000186a0       ??__E?s_id@?$TObjectUniqueID@UILibraryBinCache@libmedia@UModSys@@@tl@UModSys@@2USUniquePointer@core@3@A@@YAXXZ 00000001400196a0 f    CIL library: CIL module
 0001:000186e0       ??__E?s_id@?$TObjectUniqueID@UILibraryObjFilter@libmedia@UModSys@@@tl@UModSys@@2USUniquePointer@core@3@A@@YAXXZ 00000001400196e0 f    CIL library: CIL module
 0001:00018720       ??__E?s_id@?$TObjectUniqueID@UILibraryObjCache@libmedia@UModSys@@@tl@UModSys@@2USUniquePointer@core@3@A@@YAXXZ 0000000140019720 f    CIL library: CIL module
 0001:00018760       ??__E?s_id@?$TObjectUniqueID@UILibraryLayered@libmedia@UModSys@@@tl@UModSys@@2USUniquePointer@core@3@A@@YAXXZ 0000000140019760 f    CIL library: CIL module
 0001:000187a0       ??__E?s_id@?$TObjectUniqueID@UIBinArchiveFrame@libmedia@UModSys@@@tl@UModSys@@2USUniquePointer@core@3@A@@YAXXZ 00000001400197a0 f    CIL library: CIL module
 0001:000187e0       ??__E?s_id@?$TObjectUniqueID@UIClient@IBinArchiveFrame@libmedia@UModSys@@@tl@UModSys@@2USUniquePointer@core@3@A@@YAXXZ 00000001400197e0 f    CIL library: CIL module
 0001:00018820       ??__E?s_id@?$TObjectUniqueID@URUtilities@stdlib@media@modules@UModSys@@@tl@UModSys@@2USUniquePointer@core@3@A@@YAXXZ 0000000140019820 f    CIL library: CIL module
 0001:00018860       ??__E?s_id@?$TObjectUniqueID@URBinArchiveFrame@stdlib@media@modules@UModSys@@@tl@UModSys@@2USUniquePointer@core@3@A@@YAXXZ 0000000140019860 f    CIL library: CIL module
 0001:000188a0       ??__E?s_id@?$TObjectUniqueID@URLibraryBinTree@stdlib@media@modules@UModSys@@@tl@UModSys@@2USUniquePointer@core@3@A@@YAXXZ 00000001400198a0 f    CIL library: CIL module
 0001:000188e0       ??__E?s_id@?$TObjectUniqueID@URLibraryBinCache@stdlib@media@modules@UModSys@@@tl@UModSys@@2USUniquePointer@core@3@A@@YAXXZ 00000001400198e0 f    CIL library: CIL module
 0001:00018920       ??__E?s_id@?$TObjectUniqueID@URLibraryLayered@stdlib@media@modules@UModSys@@@tl@UModSys@@2USUniquePointer@core@3@A@@YAXXZ 0000000140019920 f    CIL library: CIL module
 0001:00018960       ??__E?s_id@?$TObjectUniqueID@URLibraryObjCache@stdlib@media@modules@UModSys@@@tl@UModSys@@2USUniquePointer@core@3@A@@YAXXZ 0000000140019960 f    CIL library: CIL module
 0001:000189a0       ??__E?s_id@?$TObjectUniqueID@URLibraryObjFilter@stdlib@media@modules@UModSys@@@tl@UModSys@@2USUniquePointer@core@3@A@@YAXXZ 00000001400199a0 f    CIL library: CIL module
 0001:000189e0       ??__E?s_id@?$TObjectUniqueID@URGenerator@stdlib@media@modules@UModSys@@@tl@UModSys@@2USUniquePointer@core@3@A@@YAXXZ 00000001400199e0 f    CIL library: CIL module
 0001:00018a20       ??__E?s_console@RConsole_std@rsystem@base@UModSys@@2U1234@A@@YAXXZ 0000000140019a20 f    CIL library: CIL module
 0001:00018a40       ??__E?s_sys@RSystem@rsystem@base@UModSys@@2U1234@A@@YAXXZ 0000000140019a40 f    CIL library: CIL module
 0001:00018a60       ??__Ersys_dbg@rsystem@base@UModSys@@YAXXZ 0000000140019a60 f    CIL library: CIL module
 0001:00018a90       ??__EM@UModSys@@YAXXZ      0000000140019a90 f    CIL library: CIL module
 0001:00018ab0       ??__E?root@SModuleRegChain@base@UModSys@@2U123@A@@YAXXZ 0000000140019ab0 f    CIL library: CIL module
 0001:00018ae0       ??__E?s_library@RModuleLibraryReg_Chain@base@UModSys@@2U123@A@@YAXXZ 0000000140019ae0 f    CIL library: CIL module
 0001:00018b00       ??__E?root@SUniquePointer@core@UModSys@@2U123@A@@YAXXZ 0000000140019b00 f    CIL library: CIL module
 0001:00018b30       ??__F?s_id@?$TObjectUniqueID@URConsole_std@rsystem@base@UModSys@@@tl@UModSys@@2USUniquePointer@core@3@A@@YAXXZ 0000000140019b30 f    CIL library: CIL module
 0001:00018b40       ??__F?s_id@?$TObjectUniqueID@URSystem@rsystem@base@UModSys@@@tl@UModSys@@2USUniquePointer@core@3@A@@YAXXZ 0000000140019b40 f    CIL library: CIL module
 0001:00018b50       ??__F?s_id@?$TObjectUniqueID@URParameters@rsystem@base@UModSys@@@tl@UModSys@@2USUniquePointer@core@3@A@@YAXXZ 0000000140019b50 f    CIL library: CIL module
 0001:00018b60       ??__F?s_id@?$TObjectUniqueID@URModuleLibraryThis@rsystem@base@UModSys@@@tl@UModSys@@2USUniquePointer@core@3@A@@YAXXZ 0000000140019b60 f    CIL library: CIL module
 0001:00018b70       ??__F?s_id@?$TObjectUniqueID@URModuleLibrarySO@rsystem@base@UModSys@@@tl@UModSys@@2USUniquePointer@core@3@A@@YAXXZ 0000000140019b70 f    CIL library: CIL module
 0001:00018b80       ??__F?s_id@?$TObjectUniqueID@UIModuleLibraryUni@rsystem@base@UModSys@@@tl@UModSys@@2USUniquePointer@core@3@A@@YAXXZ 0000000140019b80 f    CIL library: CIL module
 0001:00018b90       ??__F?s_id@?$TObjectUniqueID@URModule@rsystem@base@UModSys@@@tl@UModSys@@2USUniquePointer@core@3@A@@YAXXZ 0000000140019b90 f    CIL library: CIL module
 0001:00018ba0       ??__F?s_id@?$TObjectUniqueID@UISystem@base@UModSys@@@tl@UModSys@@2USUniquePointer@core@3@A@@YAXXZ 0000000140019ba0 f    CIL library: CIL module
 0001:00018bb0       ??__F?s_id@?$TObjectUniqueID@UIConsole@base@UModSys@@@tl@UModSys@@2USUniquePointer@core@3@A@@YAXXZ 0000000140019bb0 f    CIL library: CIL module
 0001:00018bc0       ??__F?s_id@?$TObjectUniqueID@UIShell@base@UModSys@@@tl@UModSys@@2USUniquePointer@core@3@A@@YAXXZ 0000000140019bc0 f    CIL library: CIL module
 0001:00018bd0       ??__F?s_id@?$TObjectUniqueID@UIGenerator@base@UModSys@@@tl@UModSys@@2USUniquePointer@core@3@A@@YAXXZ 0000000140019bd0 f    CIL library: CIL module
 0001:00018be0       ??__F?s_id@?$TObjectUniqueID@UIModObject@base@UModSys@@@tl@UModSys@@2USUniquePointer@core@3@A@@YAXXZ 0000000140019be0 f    CIL library: CIL module
 0001:00018bf0       ??__F?s_id@?$TObjectUniqueID@UIModuleLibrary@base@UModSys@@@tl@UModSys@@2USUniquePointer@core@3@A@@YAXXZ 0000000140019bf0 f    CIL library: CIL module
 0001:00018c00       ??__F?s_id@?$TObjectUniqueID@UIModule@base@UModSys@@@tl@UModSys@@2USUniquePointer@core@3@A@@YAXXZ 0000000140019c00 f    CIL library: CIL module
 0001:00018c10       ??__F?s_id@?$TObjectUniqueID@UIParameters@core@UModSys@@@tl@UModSys@@2USUniquePointer@core@3@A@@YAXXZ 0000000140019c10 f    CIL library: CIL module
 0001:00018c20       ??__F?s_id@?$TObjectUniqueID@UIRefObject@core@UModSys@@@tl@UModSys@@2USUniquePointer@core@3@A@@YAXXZ 0000000140019c20 f    CIL library: CIL module
 0001:00018c30       ??__F?s_id@?$TObjectUniqueID@UIRoot@core@UModSys@@@tl@UModSys@@2USUniquePointer@core@3@A@@YAXXZ 0000000140019c30 f    CIL library: CIL module
 0001:00018c40       ??__F?s_modreg@RModuleReg@stdio@media@modules@UModSys@@2U12345@A@@YAXXZ 0000000140019c40 f    CIL library: CIL module
 0001:00018c60       ??__F?s_modreg_chain@RModuleReg@stdio@media@modules@UModSys@@2USModuleRegChain@base@5@A@@YAXXZ 0000000140019c60 f    CIL library: CIL module
 0001:00018c70       ??__F?s_uid@RGenerator@stdio@media@modules@UModSys@@2USUniquePointer@core@5@A@@YAXXZ 0000000140019c70 f    CIL library: CIL module
 0001:00018c80       ??__Fh@?1??s_holder@RGenerator@stdio@media@modules@UModSys@@SAAEAU?$TTypeStaticHolder@URGenerator@stdio@media@modules@UModSys@@@tl@5@XZ@YAXXZ 0000000140019c80 f    CIL library: CIL module
 0001:00018cb0       ??__F?s_id@?$TObjectUniqueID@URGenerator@stdio@media@modules@UModSys@@@tl@UModSys@@2USUniquePointer@core@3@A@@YAXXZ 0000000140019cb0 f    CIL library: CIL module
 0001:00018cc0       ??__F?s_id@?$TObjectUniqueID@URDataArchiver_OsDir@stdio@media@modules@UModSys@@@tl@UModSys@@2USUniquePointer@core@3@A@@YAXXZ 0000000140019cc0 f    CIL library: CIL module
 0001:00018cd0       ??__F?s_id@?$TObjectUniqueID@URStreamWriter_FILE@stdio@media@modules@UModSys@@@tl@UModSys@@2USUniquePointer@core@3@A@@YAXXZ 0000000140019cd0 f    CIL library: CIL module
 0001:00018ce0       ??__F?s_id@?$TObjectUniqueID@URStreamReader_FILE@stdio@media@modules@UModSys@@@tl@UModSys@@2USUniquePointer@core@3@A@@YAXXZ 0000000140019ce0 f    CIL library: CIL module
 0001:00018cf0       ??__F?s_id@?$TObjectUniqueID@UILibrary@libmedia@UModSys@@@tl@UModSys@@2USUniquePointer@core@3@A@@YAXXZ 0000000140019cf0 f    CIL library: CIL module
 0001:00018d00       ??__F?s_id@?$TObjectUniqueID@UIBinObjFilter@libmedia@UModSys@@@tl@UModSys@@2USUniquePointer@core@3@A@@YAXXZ 0000000140019d00 f    CIL library: CIL module
 0001:00018d10       ??__F?s_id@?$TObjectUniqueID@UIBinArchive@libmedia@UModSys@@@tl@UModSys@@2USUniquePointer@core@3@A@@YAXXZ 0000000140019d10 f    CIL library: CIL module
 0001:00018d20       ??__F?s_id@?$TObjectUniqueID@UILibObject@libmedia@UModSys@@@tl@UModSys@@2USUniquePointer@core@3@A@@YAXXZ 0000000140019d20 f    CIL library: CIL module
 0001:00018d30       ??__F?s_id@?$TObjectUniqueID@UIUtilities@libmedia@UModSys@@@tl@UModSys@@2USUniquePointer@core@3@A@@YAXXZ 0000000140019d30 f    CIL library: CIL module
 0001:00018d40       ??__F?s_id@?$TObjectUniqueID@UIStreamWriter@libmedia@UModSys@@@tl@UModSys@@2USUniquePointer@core@3@A@@YAXXZ 0000000140019d40 f    CIL library: CIL module
 0001:00018d50       ??__F?s_id@?$TObjectUniqueID@UIStreamReader@libmedia@UModSys@@@tl@UModSys@@2USUniquePointer@core@3@A@@YAXXZ 0000000140019d50 f    CIL library: CIL module
 0001:00018d60       ??__F?s_modreg@RModuleReg@stdlib@media@modules@UModSys@@2U12345@A@@YAXXZ 0000000140019d60 f    CIL library: CIL module
 0001:00018d80       ??__F?s_modreg_chain@RModuleReg@stdlib@media@modules@UModSys@@2USModuleRegChain@base@5@A@@YAXXZ 0000000140019d80 f    CIL library: CIL module
 0001:00018d90       ??__F?s_uid@RGenerator@stdlib@media@modules@UModSys@@2USUniquePointer@core@5@A@@YAXXZ 0000000140019d90 f    CIL library: CIL module
 0001:00018da0       ??__Fh@?1??s_holder@RGenerator@stdlib@media@modules@UModSys@@SAAEAU?$TTypeStaticHolder@URGenerator@stdlib@media@modules@UModSys@@@tl@5@XZ@YAXXZ 0000000140019da0 f    CIL library: CIL module
 0001:00018dd0       ??__F?s_id@?$TObjectUniqueID@URGenerator@stdlib@media@modules@UModSys@@@tl@UModSys@@2USUniquePointer@core@3@A@@YAXXZ 0000000140019dd0 f    CIL library: CIL module
 0001:00018de0       ??__F?s_id@?$TObjectUniqueID@URLibraryObjFilter@stdlib@media@modules@UModSys@@@tl@UModSys@@2USUniquePointer@core@3@A@@YAXXZ 0000000140019de0 f    CIL library: CIL module
 0001:00018df0       ??__F?s_id@?$TObjectUniqueID@URLibraryObjCache@stdlib@media@modules@UModSys@@@tl@UModSys@@2USUniquePointer@core@3@A@@YAXXZ 0000000140019df0 f    CIL library: CIL module
 0001:00018e00       ??__F?s_id@?$TObjectUniqueID@URLibraryLayered@stdlib@media@modules@UModSys@@@tl@UModSys@@2USUniquePointer@core@3@A@@YAXXZ 0000000140019e00 f    CIL library: CIL module
 0001:00018e10       ??__F?s_id@?$TObjectUniqueID@URLibraryBinCache@stdlib@media@modules@UModSys@@@tl@UModSys@@2USUniquePointer@core@3@A@@YAXXZ 0000000140019e10 f    CIL library: CIL module
 0001:00018e20       ??__F?s_id@?$TObjectUniqueID@URLibraryBinTree@stdlib@media@modules@UModSys@@@tl@UModSys@@2USUniquePointer@core@3@A@@YAXXZ 0000000140019e20 f    CIL library: CIL module
 0001:00018e30       ??__F?s_id@?$TObjectUniqueID@URBinArchiveFrame@stdlib@media@modules@UModSys@@@tl@UModSys@@2USUniquePointer@core@3@A@@YAXXZ 0000000140019e30 f    CIL library: CIL module
 0001:00018e40       ??__F?s_id@?$TObjectUniqueID@URUtilities@stdlib@media@modules@UModSys@@@tl@UModSys@@2USUniquePointer@core@3@A@@YAXXZ 0000000140019e40 f    CIL library: CIL module
 0001:00018e50       ??__F?s_id@?$TObjectUniqueID@UIClient@IBinArchiveFrame@libmedia@UModSys@@@tl@UModSys@@2USUniquePointer@core@3@A@@YAXXZ 0000000140019e50 f    CIL library: CIL module
 0001:00018e60       ??__F?s_id@?$TObjectUniqueID@UIBinArchiveFrame@libmedia@UModSys@@@tl@UModSys@@2USUniquePointer@core@3@A@@YAXXZ 0000000140019e60 f    CIL library: CIL module
 0001:00018e70       ??__F?s_id@?$TObjectUniqueID@UILibraryLayered@libmedia@UModSys@@@tl@UModSys@@2USUniquePointer@core@3@A@@YAXXZ 0000000140019e70 f    CIL library: CIL module
 0001:00018e80       ??__F?s_id@?$TObjectUniqueID@UILibraryObjCache@libmedia@UModSys@@@tl@UModSys@@2USUniquePointer@core@3@A@@YAXXZ 0000000140019e80 f    CIL library: CIL module
 0001:00018e90       ??__F?s_id@?$TObjectUniqueID@UILibraryObjFilter@libmedia@UModSys@@@tl@UModSys@@2USUniquePointer@core@3@A@@YAXXZ 0000000140019e90 f    CIL library: CIL module
 0001:00018ea0       ??__F?s_id@?$TObjectUniqueID@UILibraryBinCache@libmedia@UModSys@@@tl@UModSys@@2USUniquePointer@core@3@A@@YAXXZ 0000000140019ea0 f    CIL library: CIL module
 0001:00018eb0       ??__F?s_id@?$TObjectUniqueID@UILibraryBinTree@libmedia@UModSys@@@tl@UModSys@@2USUniquePointer@core@3@A@@YAXXZ 0000000140019eb0 f    CIL library: CIL module
 0001:00018ec0       ??__F?s_console@RConsole_std@rsystem@base@UModSys@@2U1234@A@@YAXXZ 0000000140019ec0 f    CIL library: CIL module
 0001:00018ed0       ??__F?s_sys@RSystem@rsystem@base@UModSys@@2U1234@A@@YAXXZ 0000000140019ed0 f    CIL library: CIL module
 0001:00018ee0       ??__Frsys_dbg@rsystem@base@UModSys@@YAXXZ 0000000140019ee0 f    CIL library: CIL module
 0001:00018ef0       ??__FM@UModSys@@YAXXZ      0000000140019ef0 f    CIL library: CIL module
 0001:00018f00       ??__F?root@SModuleRegChain@base@UModSys@@2U123@A@@YAXXZ 0000000140019f00 f    CIL library: CIL module
 0001:00018f10       ??__F?s_library@RModuleLibraryReg_Chain@base@UModSys@@2U123@A@@YAXXZ 0000000140019f10 f    CIL library: CIL module
 0001:00018f20       ??__F?root@SUniquePointer@core@UModSys@@2U123@A@@YAXXZ 0000000140019f20 f    CIL library: CIL module

 Exports

  ordinal    name

        1    UModSys_Plugin_Entry2
