 lib_angelscript

 Timestamp is 52d554c4 (Tue Jan 14 18:16:20 2014)

 Preferred load address is 0000000180000000

 Start         Length     Name                   Class
 0001:00000000 0006e33aH .text                   CODE
 0001:0006e340 00008dc2H .text$x                 CODE
 0001:00077104 0000001fH .text$yc                CODE
 0001:00077124 00000011H .text$yd                CODE
 0002:00000000 000001a0H .idata$5                DATA
 0002:000001a0 00000008H .CRT$XCA                DATA
 0002:000001a8 00000010H .CRT$XCL                DATA
 0002:000001b8 00000008H .CRT$XCZ                DATA
 0002:000001c0 00000008H .CRT$XIA                DATA
 0002:000001c8 00000008H .CRT$XIAA               DATA
 0002:000001d0 00000008H .CRT$XIZ                DATA
 0002:000001e0 00011108H .rdata                  DATA
 0002:000112e8 00000b74H .rdata$r                DATA
 0002:00011e60 00000008H .rtc$IAA                DATA
 0002:00011e68 00000008H .rtc$IZZ                DATA
 0002:00011e70 00000008H .rtc$TAA                DATA
 0002:00011e78 00000008H .rtc$TZZ                DATA
 0002:00011e80 0000c188H .xdata                  DATA
 0002:0001e008 00000028H .idata$2                DATA
 0002:0001e030 00000014H .idata$3                DATA
 0002:0001e048 000001a0H .idata$4                DATA
 0002:0001e1e8 00000374H .idata$6                DATA
 0002:0001e560 00000246H .edata                  DATA
 0003:00000000 0000052cH .data                   DATA
 0003:00000530 00000080H .bss                    DATA
 0004:00000000 000059c4H .pdata                  DATA

  Address         Publics by Value              Rva+Base               Lib:Object

 0000:00000000       ___safe_se_handler_table   0000000000000000     <absolute>
 0000:00000000       ___safe_se_handler_count   0000000000000000     <absolute>
 0000:00000000       __ImageBase                0000000180000000     <linker-defined>
 0001:00000000       asAtomicInc                0000000180001000 f   as_atomic.obj
 0001:0000000c       asAtomicDec                000000018000100c f   as_atomic.obj
 0001:00000018       ??3@YAXPEAX0@Z             0000000180001018 f i as_builder.obj
 0001:0000001c       ??4asSSystemFunctionInterface@@QEAAAEAU0@AEBU0@@Z 000000018000101c f i as_builder.obj
 0001:000000e4       ?GetKey@?$asCSymbolTable@UsGlobalVariableDescription@@@@AEBAXPEBUsGlobalVariableDescription@@AEAVasCString@@@Z 00000001800010e4 f   as_builder.obj
 0001:00000198       ??RasCCompGlobVarType@@UEBA_NPEBX@Z 0000000180001198 f i as_builder.obj
 0001:000001a8       ??0asCBuilder@@QEAA@PEAVasCScriptEngine@@PEAVasCModule@@@Z 00000001800011a8 f   as_builder.obj
 0001:000002e8       ??1preMessage_t@asCBuilder@@QEAA@XZ 00000001800012e8 f i as_builder.obj
 0001:00000330       ??1asCBuilder@@QEAA@XZ     0000000180001330 f   as_builder.obj
 0001:00000844       ?AddCode@asCBuilder@@QEAAHPEBD0HHH_N@Z 0000000180001844 f   as_builder.obj
 0001:0000090c       ?Build@asCBuilder@@QEAAHXZ 000000018000190c f   as_builder.obj
 0001:000009b8       ?CompileGlobalVar@asCBuilder@@QEAAHPEBD0H@Z 00000001800019b8 f   as_builder.obj
 0001:00000c48       ?ValidateDefaultArgs@asCBuilder@@IEAAHPEAVasCScriptCode@@PEAVasCScriptNode@@PEAVasCScriptFunction@@@Z 0000000180001c48 f   as_builder.obj
 0001:00000d18       ?CompileFunction@asCBuilder@@QEAAHPEBD0HKPEAPEAVasCScriptFunction@@@Z 0000000180001d18 f   as_builder.obj
 0001:00001430       ?ParseScripts@asCBuilder@@IEAAXXZ 0000000180002430 f   as_builder.obj
 0001:00001988       ?RegisterTypesFromScript@asCBuilder@@IEAAXPEAVasCScriptNode@@PEAVasCScriptCode@@PEAUasSNameSpace@@@Z 0000000180002988 f   as_builder.obj
 0001:00001ba8       ?RegisterNonTypesFromScript@asCBuilder@@IEAAXPEAVasCScriptNode@@PEAVasCScriptCode@@PEAUasSNameSpace@@@Z 0000000180002ba8 f   as_builder.obj
 0001:00001e5c       ?CompileFunctions@asCBuilder@@IEAAXXZ 0000000180002e5c f   as_builder.obj
 0001:00002154       ?ParseDataType@asCBuilder@@QEAAHPEBDPEAVasCDataType@@PEAUasSNameSpace@@_N@Z 0000000180003154 f   as_builder.obj
 0001:0000247c       ?ParseTemplateDecl@asCBuilder@@QEAAHPEBDPEAVasCString@@AEAV?$asCArray@VasCString@@@@@Z 000000018000347c f   as_builder.obj
 0001:00002640       ?VerifyProperty@asCBuilder@@QEAAHPEAVasCDataType@@PEBDAEAVasCString@@AEAV2@PEAUasSNameSpace@@@Z 0000000180003640 f   as_builder.obj
 0001:00002914       ?GetObjectProperty@asCBuilder@@IEAAPEAVasCObjectProperty@@AEAVasCDataType@@PEBD@Z 0000000180003914 f   as_builder.obj
 0001:00002998       ?GetGlobalProperty@asCBuilder@@IEAAPEAVasCGlobalProperty@@PEBDPEAUasSNameSpace@@PEA_N2PEA_K2@Z 0000000180003998 f   as_builder.obj
 0001:00002bdc       ?ParseFunctionDeclaration@asCBuilder@@QEAAHPEAVasCObjectType@@PEBDPEAVasCScriptFunction@@_NPEAV?$asCArray@_N@@PEA_NPEAUasSNameSpace@@PEAPEAVasCScriptNode@@@Z 0000000180003bdc f   as_builder.obj
 0001:000035d4       ?ParseVariableDeclaration@asCBuilder@@QEAAHPEBDPEAUasSNameSpace@@AEAVasCString@@AEAPEAU2@AEAVasCDataType@@@Z 00000001800045d4 f   as_builder.obj
 0001:00003834       ?CheckNameConflictMember@asCBuilder@@QEAAHPEAVasCObjectType@@PEBDPEAVasCScriptNode@@PEAVasCScriptCode@@_N@Z 0000000180004834 f   as_builder.obj
 0001:00003a04       ?CheckNameConflict@asCBuilder@@QEAAHPEBDPEAVasCScriptNode@@PEAVasCScriptCode@@PEAUasSNameSpace@@@Z 0000000180004a04 f   as_builder.obj
 0001:00003da8       ?GetMixinClass@asCBuilder@@IEAAPEAUsMixinClass@@PEBDPEAUasSNameSpace@@@Z 0000000180004da8 f   as_builder.obj
 0001:00003e34       ?RegisterFuncDef@asCBuilder@@IEAAHPEAVasCScriptNode@@PEAVasCScriptCode@@PEAUasSNameSpace@@@Z 0000000180004e34 f   as_builder.obj
 0001:00003ff4       ?CompleteFuncDef@asCBuilder@@IEAAXPEAUsFuncDef@@@Z 0000000180004ff4 f   as_builder.obj
 0001:000042ac       ?RegisterGlobalVar@asCBuilder@@IEAAHPEAVasCScriptNode@@PEAVasCScriptCode@@PEAUasSNameSpace@@@Z 00000001800052ac f   as_builder.obj
 0001:000045d8       ?RegisterMixinClass@asCBuilder@@IEAAHPEAVasCScriptNode@@PEAVasCScriptCode@@PEAUasSNameSpace@@@Z 00000001800055d8 f   as_builder.obj
 0001:00004878       ?RegisterClass@asCBuilder@@IEAAHPEAVasCScriptNode@@PEAVasCScriptCode@@PEAUasSNameSpace@@@Z 0000000180005878 f   as_builder.obj
 0001:00004e10       ??4asSTypeBehaviour@@QEAAAEAU0@AEBU0@@Z 0000000180005e10 f i as_builder.obj
 0001:00004ebc       ?RegisterInterface@asCBuilder@@IEAAHPEAVasCScriptNode@@PEAVasCScriptCode@@PEAUasSNameSpace@@@Z 0000000180005ebc f   as_builder.obj
 0001:00005268       ?CompileGlobalVariables@asCBuilder@@IEAAXXZ 0000000180006268 f   as_builder.obj
 0001:000061dc       ??1asSSystemFunctionInterface@@QEAA@XZ 00000001800071dc f i as_builder.obj
 0001:000061ec       ??1?$asCSymbolTable@UsGlobalVariableDescription@@@@QEAA@XZ 00000001800071ec f i as_builder.obj
 0001:000061ec       ??1?$asCSymbolTable@VasCScriptFunction@@@@QEAA@XZ 00000001800071ec f i as_module.obj
 0001:000061ec       ??1?$asCSymbolTable@VasCGlobalProperty@@@@QEAA@XZ 00000001800071ec f i as_builder.obj
 0001:00006220       ?GetNamespaceAndNameFromNode@asCBuilder@@IEAAHPEAVasCScriptNode@@PEAVasCScriptCode@@PEAUasSNameSpace@@AEAPEAU4@AEAVasCString@@@Z 0000000180007220 f   as_builder.obj
 0001:000062c8       ?AddInterfaceToClass@asCBuilder@@IEAAXPEAUsClassDeclaration@@PEAVasCScriptNode@@PEAVasCObjectType@@@Z 00000001800072c8 f   as_builder.obj
 0001:00006484       ?CompileInterfaces@asCBuilder@@IEAAXXZ 0000000180007484 f   as_builder.obj
 0001:000069f8       ?CompileClasses@asCBuilder@@IEAAXXZ 00000001800079f8 f   as_builder.obj
 0001:00008260       ?IncludeMethodsFromMixins@asCBuilder@@IEAAXPEAUsClassDeclaration@@@Z 0000000180009260 f   as_builder.obj
 0001:00008460       ?IncludePropertiesFromMixins@asCBuilder@@IEAAXPEAUsClassDeclaration@@@Z 0000000180009460 f   as_builder.obj
 0001:00008a50       ?CreateVirtualFunction@asCBuilder@@IEAAHPEAVasCScriptFunction@@H@Z 0000000180009a50 f   as_builder.obj
 0001:00008c68       ?AddPropertyToClass@asCBuilder@@IEAAPEAVasCObjectProperty@@PEAUsClassDeclaration@@AEBVasCString@@AEBVasCDataType@@_NPEAVasCScriptCode@@PEAVasCScriptNode@@@Z 0000000180009c68 f   as_builder.obj
 0001:00008e50       ?DoesMethodExist@asCBuilder@@IEAA_NPEAVasCObjectType@@HPEAI@Z 0000000180009e50 f   as_builder.obj
 0001:00008f5c       ?AddDefaultConstructor@asCBuilder@@IEAAXPEAVasCObjectType@@PEAVasCScriptCode@@@Z 0000000180009f5c f   as_builder.obj
 0001:000093a8       ?RegisterEnum@asCBuilder@@IEAAHPEAVasCScriptNode@@PEAVasCScriptCode@@PEAUasSNameSpace@@@Z 000000018000a3a8 f   as_builder.obj
 0001:00009cd4       ?RegisterTypedef@asCBuilder@@IEAAHPEAVasCScriptNode@@PEAVasCScriptCode@@PEAUasSNameSpace@@@Z 000000018000acd4 f   as_builder.obj
 0001:00009ee4       ?GetParsedFunctionDetails@asCBuilder@@IEAAXPEAVasCScriptNode@@PEAVasCScriptCode@@PEAVasCObjectType@@AEAVasCString@@AEAVasCDataType@@AEAV?$asCArray@VasCString@@@@AEAV?$asCArray@VasCDataType@@@@AEAV?$asCArray@W4asETypeModifiers@@@@AEAV?$asCArray@PEAVasCString@@@@AEA_N999999PEAUasSNameSpace@@@Z 000000018000aee4 f   as_builder.obj
 0001:0000a568       ?GetCleanExpressionString@asCBuilder@@IEAA?AVasCString@@PEAVasCScriptNode@@PEAVasCScriptCode@@@Z 000000018000b568 f   as_builder.obj
 0001:0000a660       ?RegisterScriptFunctionFromNode@asCBuilder@@IEAAHPEAVasCScriptNode@@PEAVasCScriptCode@@PEAVasCObjectType@@_N3PEAUasSNameSpace@@33@Z 000000018000b660 f   as_builder.obj
 0001:0000a95c       ?RegisterScriptFunction@asCBuilder@@IEAAHPEAVasCScriptNode@@PEAVasCScriptCode@@PEAVasCObjectType@@_N3PEAUasSNameSpace@@33AEAVasCString@@AEAVasCDataType@@AEAV?$asCArray@VasCString@@@@AEAV?$asCArray@VasCDataType@@@@AEAV?$asCArray@W4asETypeModifiers@@@@AEAV?$asCArray@PEAVasCString@@@@3333333@Z 000000018000b95c f   as_builder.obj
 0001:0000b968       ?RegisterVirtualProperty@asCBuilder@@IEAAHPEAVasCScriptNode@@PEAVasCScriptCode@@PEAVasCObjectType@@_N3PEAUasSNameSpace@@3@Z 000000018000c968 f   as_builder.obj
 0001:0000c3e0       ?RegisterImportedFunction@asCBuilder@@IEAAHHPEAVasCScriptNode@@PEAVasCScriptCode@@PEAUasSNameSpace@@@Z 000000018000d3e0 f   as_builder.obj
 0001:0000c7c4       ?GetFunctionDescription@asCBuilder@@IEAAPEAVasCScriptFunction@@H@Z 000000018000d7c4 f   as_builder.obj
 0001:0000c7f8       ?GetFunctionDescriptions@asCBuilder@@IEAAXPEBDAEAV?$asCArray@H@@PEAUasSNameSpace@@@Z 000000018000d7f8 f   as_builder.obj
 0001:0000c9a0       ?GetObjectMethodDescriptions@asCBuilder@@IEAAXPEBDPEAVasCObjectType@@AEAV?$asCArray@H@@_NAEBVasCString@@@Z 000000018000d9a0 f   as_builder.obj
 0001:0000cb44       ?WriteInfo@asCBuilder@@IEAAXAEBVasCString@@0HH_N@Z 000000018000db44 f   as_builder.obj
 0001:0000cbd8       ?WriteInfo@asCBuilder@@IEAAXAEBVasCString@@PEAVasCScriptCode@@PEAVasCScriptNode@@@Z 000000018000dbd8 f   as_builder.obj
 0001:0000cc4c       ?WriteError@asCBuilder@@IEAAXAEBVasCString@@PEAVasCScriptCode@@PEAVasCScriptNode@@@Z 000000018000dc4c f   as_builder.obj
 0001:0000cd1c       ?WriteError@asCBuilder@@IEAAXAEBVasCString@@0HH@Z 000000018000dd1c f   as_builder.obj
 0001:0000cdb4       ?WriteWarning@asCBuilder@@IEAAXAEBVasCString@@0HH@Z 000000018000ddb4 f   as_builder.obj
 0001:0000ce5c       ?GetScopeFromNode@asCBuilder@@IEAA?AVasCString@@PEAVasCScriptNode@@PEAVasCScriptCode@@PEAPEAV3@@Z 000000018000de5c f   as_builder.obj
 0001:0000cf7c       ?GetNameSpaceFromNode@asCBuilder@@IEAAPEAUasSNameSpace@@PEAVasCScriptNode@@PEAVasCScriptCode@@PEAU2@PEAPEAV3@@Z 000000018000df7c f   as_builder.obj
 0001:0000d0c0       ?GetParentNameSpace@asCBuilder@@IEAAPEAUasSNameSpace@@PEAU2@@Z 000000018000e0c0 f   as_builder.obj
 0001:0000d1c4       ?CreateDataTypeFromNode@asCBuilder@@IEAA?AVasCDataType@@PEAVasCScriptNode@@PEAVasCScriptCode@@PEAUasSNameSpace@@_NPEAVasCObjectType@@@Z 000000018000e1c4 f   as_builder.obj
 0001:0000dfc8       ?ModifyDataTypeFromNode@asCBuilder@@IEAA?AVasCDataType@@AEBV2@PEAVasCScriptNode@@PEAVasCScriptCode@@PEAW4asETypeModifiers@@PEA_N@Z 000000018000efc8 f   as_builder.obj
 0001:0000e1ac       ?GetObjectType@asCBuilder@@IEAAPEAVasCObjectType@@PEBDPEAUasSNameSpace@@@Z 000000018000f1ac f   as_builder.obj
 0001:0000e1f8       ?DoesTypeExist@asCBuilder@@IEAA_NAEBVasCString@@@Z 000000018000f1f8 f   as_builder.obj
 0001:0000e39c       ?GetObjectTypeFromTypesKnownByObject@asCBuilder@@IEAAPEAVasCObjectType@@PEBDPEAV2@@Z 000000018000f39c f   as_builder.obj
 0001:0000e4d4       ?GetFuncDef@asCBuilder@@IEAAPEAVasCScriptFunction@@PEBD@Z 000000018000f4d4 f   as_builder.obj
 0001:0000e590       ?GetEnumValueFromObjectType@asCBuilder@@IEAAHPEAVasCObjectType@@PEBDAEAVasCDataType@@AEAK@Z 000000018000f590 f   as_builder.obj
 0001:0000e694       ?GetEnumValue@asCBuilder@@IEAAHPEBDAEAVasCDataType@@AEAKPEAUasSNameSpace@@@Z 000000018000f694 f   as_builder.obj
 0001:0000e7b0       ??1?$asCMap@VasCString@@V?$asCArray@I@@@@QEAA@XZ 000000018000f7b0 f i as_builder.obj
 0001:0000e808       ??1?$asCArray@VasCDataType@@@@QEAA@XZ 000000018000f808 f i as_builder.obj
 0001:0000e814       ?Allocate@?$asCArray@VasCDataType@@@@QEAAX_K_N@Z 000000018000f814 f i as_builder.obj
 0001:0000e9c0       ?PushLast@?$asCArray@VasCDataType@@@@QEAAXAEBVasCDataType@@@Z 000000018000f9c0 f i as_builder.obj
 0001:0000ea64       ??4?$asCArray@VasCDataType@@@@QEAAAEAV0@AEBV0@@Z 000000018000fa64 f i as_builder.obj
 0001:0000eb1c       ?PushLast@?$asCArray@I@@QEAAXAEBI@Z 000000018000fb1c f i as_builder.obj
 0001:0000eb1c       ?PushLast@?$asCArray@H@@QEAAXAEBH@Z 000000018000fb1c f i as_builder.obj
 0001:0000eb1c       ?PushLast@?$asCArray@W4asETypeModifiers@@@@QEAAXAEBW4asETypeModifiers@@@Z 000000018000fb1c f i as_builder.obj
 0001:0000eb74       ??4?$asCArray@W4asETypeModifiers@@@@QEAAAEAV0@AEBV0@@Z 000000018000fb74 f i as_builder.obj
 0001:0000eb74       ??4?$asCArray@H@@QEAAAEAV0@AEBV0@@Z 000000018000fb74 f i as_builder.obj
 0001:0000ebd4       ??4?$asCArray@PEAVasCString@@@@QEAAAEAV0@AEBV0@@Z 000000018000fbd4 f i as_builder.obj
 0001:0000ec38       ??1?$asCArray@H@@QEAA@XZ   000000018000fc38 f i as_builder.obj
 0001:0000ec38       ??1?$asCArray@W4asETypeModifiers@@@@QEAA@XZ 000000018000fc38 f i as_builder.obj
 0001:0000ec38       ??1?$asCArray@I@@QEAA@XZ   000000018000fc38 f i as_builder.obj
 0001:0000ec44       ?GetIndexes@?$asCSymbolTable@VasCScriptFunction@@@@QEBAAEBV?$asCArray@I@@PEBUasSNameSpace@@AEBVasCString@@@Z 000000018000fc44 f i as_builder.obj
 0001:0000ed14       ?Put@?$asCSymbolTable@VasCScriptFunction@@@@QEAAHPEAVasCScriptFunction@@@Z 000000018000fd14 f i as_builder.obj
 0001:0000ee20       ?Erase@?$asCSymbolTable@VasCScriptFunction@@@@QEAA_NI@Z 000000018000fe20 f i as_builder.obj
 0001:0000ef14       ??0?$asCSymbolTable@VasCGlobalProperty@@@@QEAA@I@Z 000000018000ff14 f i as_builder.obj
 0001:0000ef88       ?Put@?$asCSymbolTable@VasCGlobalProperty@@@@QEAAHPEAVasCGlobalProperty@@@Z 000000018000ff88 f i as_builder.obj
 0001:0000f090       ?PushLast@?$asCArray@_N@@QEAAXAEB_N@Z 0000000180010090 f i as_builder.obj
 0001:0000f090       ?PushLast@?$asCArray@D@@QEAAXAEBD@Z 0000000180010090 f i as_compiler.obj
 0001:0000f0e8       ??1?$asCArray@VasCString@@@@QEAA@XZ 00000001800100e8 f i as_builder.obj
 0001:0000f0f4       ?Allocate@?$asCArray@VasCString@@@@QEAAX_K_N@Z 00000001800100f4 f i as_builder.obj
 0001:0000f298       ?PushLast@?$asCArray@VasCString@@@@QEAAXAEBVasCString@@@Z 0000000180010298 f i as_builder.obj
 0001:0000f300       ??4?$asCArray@VasCString@@@@QEAAAEAV0@AEBV0@@Z 0000000180010300 f i as_builder.obj
 0001:0000f380       ?GetFirst@?$asCSymbolTable@UsGlobalVariableDescription@@@@QEAAPEAUsGlobalVariableDescription@@PEBUasSNameSpace@@AEBVasCString@@@Z 0000000180010380 f i as_builder.obj
 0001:0000f434       ?Put@?$asCSymbolTable@UsGlobalVariableDescription@@@@QEAAHPEAUsGlobalVariableDescription@@@Z 0000000180010434 f i as_builder.obj
 0001:0000f578       ??1?$asSMapNode@VasCString@@V?$asCArray@I@@@@QEAA@XZ 0000000180010578 f i as_builder.obj
 0001:0000f5b8       ?RemoveValue@?$asCArray@I@@QEAAXAEBI@Z 00000001800105b8 f i as_builder.obj
 0001:0000f60c       ?Insert@?$asCMap@VasCString@@V?$asCArray@I@@@@QEAAHAEBVasCString@@AEBV?$asCArray@I@@@Z 000000018001060c f i as_builder.obj
 0001:0000f6e4       ?Erase@?$asCMap@VasCString@@V?$asCArray@I@@@@QEAAXPEAU?$asSMapNode@VasCString@@V?$asCArray@I@@@@@Z 00000001800106e4 f i as_builder.obj
 0001:0000f814       ?MoveTo@?$asCMap@VasCString@@V?$asCArray@I@@@@QEBA_NPEAPEAU?$asSMapNode@VasCString@@V?$asCArray@I@@@@AEBVasCString@@@Z 0000000180010814 f i as_builder.obj
 0001:0000f8bc       ??8?$asCArray@VasCDataType@@@@QEBA_NAEBV0@@Z 00000001800108bc f i as_builder.obj
 0001:0000f910       ?Allocate@?$asCArray@H@@QEAAX_K_N@Z 0000000180010910 f i as_builder.obj
 0001:0000f910       ?Allocate@?$asCArray@W4asETypeModifiers@@@@QEAAX_K_N@Z 0000000180010910 f i as_builder.obj
 0001:0000f910       ?Allocate@?$asCArray@I@@QEAAX_K_N@Z 0000000180010910 f i as_builder.obj
 0001:0000f910       ?Allocate@?$asCArray@K@@QEAAX_K_N@Z 0000000180010910 f i as_compiler.obj
 0001:0000fa2c       ?GetFirstIndex@?$asCSymbolTable@VasCGlobalProperty@@@@QEBAHPEBUasSNameSpace@@AEBVasCString@@@Z 0000000180010a2c f i as_builder.obj
 0001:0000fabc       ?Allocate@?$asCArray@UsPropertyInitializer@@@@QEAAX_K_N@Z 0000000180010abc f i as_builder.obj
 0001:0000fcc0       ?Insert@?$asCMap@VasCString@@V?$asCArray@I@@@@QEAAHPEAU?$asSMapNode@VasCString@@V?$asCArray@I@@@@@Z 0000000180010cc0 f i as_builder.obj
 0001:0000fe34       ?EraseAll@?$asCMap@VasCString@@V?$asCArray@I@@@@IEAAHPEAU?$asSMapNode@VasCString@@V?$asCArray@I@@@@@Z 0000000180010e34 f i as_builder.obj
 0001:0000feb0       ?BuildKey@?$asCSymbolTable@UsGlobalVariableDescription@@@@AEBAXPEBUasSNameSpace@@AEBVasCString@@AEAV3@@Z 0000000180010eb0 f i as_builder.obj
 0001:0000feb0       ?BuildKey@?$asCSymbolTable@VasCScriptFunction@@@@AEBAXPEBUasSNameSpace@@AEBVasCString@@AEAV3@@Z 0000000180010eb0 f i as_builder.obj
 0001:0000feb0       ?BuildKey@?$asCSymbolTable@VasCGlobalProperty@@@@AEBAXPEBUasSNameSpace@@AEBVasCString@@AEAV3@@Z 0000000180010eb0 f i as_builder.obj
 0001:0000ff34       ?BalanceErase@?$asCMap@HPEAVasCDataType@@@@IEAAXPEAU?$asSMapNode@HPEAVasCDataType@@@@0@Z 0000000180010f34 f i as_scriptengine.obj
 0001:0000ff34       ?BalanceErase@?$asCMap@VasCString@@V?$asCArray@I@@@@IEAAXPEAU?$asSMapNode@VasCString@@V?$asCArray@I@@@@0@Z 0000000180010f34 f i as_builder.obj
 0001:0000ff34       ?BalanceErase@?$asCMap@PEAXPEAVasCGlobalProperty@@@@IEAAXPEAU?$asSMapNode@PEAXPEAVasCGlobalProperty@@@@0@Z 0000000180010f34 f i as_scriptengine.obj
 0001:0000ff34       ?BalanceErase@?$asCMap@PEAXUasSIntTypePair@asCGarbageCollector@@@@IEAAXPEAU?$asSMapNode@PEAXUasSIntTypePair@asCGarbageCollector@@@@0@Z 0000000180010f34 f i as_gc.obj
 0001:000100f4       ??1asCByteCode@@QEAA@XZ    00000001800110f4 f   as_bytecode.obj
 0001:00010134       ?Finalize@asCByteCode@@QEAAXAEBV?$asCArray@H@@@Z 0000000180011134 f   as_bytecode.obj
 0001:00010378       ?ClearAll@asCByteCode@@QEAAXXZ 0000000180011378 f   as_bytecode.obj
 0001:000103c0       ?InsertIfNotExists@asCByteCode@@QEAAXAEAV?$asCArray@H@@H@Z 00000001800113c0 f   as_bytecode.obj
 0001:00010404       ?GetVarsUsed@asCByteCode@@QEAAXAEAV?$asCArray@H@@@Z 0000000180011404 f   as_bytecode.obj
 0001:000104ec       ?IsVarUsed@asCByteCode@@QEAA_NH@Z 00000001800114ec f   as_bytecode.obj
 0001:00010598       ?ExchangeVar@asCByteCode@@QEAAXHH@Z 0000000180011598 f   as_bytecode.obj
 0001:00010650       ?RemoveInstruction@asCByteCode@@IEAAXPEAVasCByteInstruction@@@Z 0000000180011650 f   as_bytecode.obj
 0001:0001069c       ?RemoveUnusedValue@asCByteCode@@IEAA_NPEAVasCByteInstruction@@PEAPEAV2@@Z 000000018001169c f   as_bytecode.obj
 0001:00010c04       ?IsTemporary@asCByteCode@@IEAA_NH@Z 0000000180011c04 f   as_bytecode.obj
 0001:00010c30       ?OptimizeLocally@asCByteCode@@QEAAXAEBV?$asCArray@H@@@Z 0000000180011c30 f   as_bytecode.obj
 0001:00011d30       ?IsTempVarReadByInstr@asCByteCode@@IEAA_NPEAVasCByteInstruction@@H@Z 0000000180012d30 f   as_bytecode.obj
 0001:00011dcc       ?IsTempVarOverwrittenByInstr@asCByteCode@@IEAA_NPEAVasCByteInstruction@@H@Z 0000000180012dcc f   as_bytecode.obj
 0001:00011e1c       ?IsTempVarRead@asCByteCode@@IEAA_NPEAVasCByteInstruction@@H@Z 0000000180012e1c f   as_bytecode.obj
 0001:0001215c       ?IsTempRegUsed@asCByteCode@@IEAA_NPEAVasCByteInstruction@@@Z 000000018001315c f   as_bytecode.obj
 0001:00012338       ?AddCode@asCByteCode@@QEAAXPEAV1@@Z 0000000180013338 f   as_bytecode.obj
 0001:0001237c       ?AddInstruction@asCByteCode@@IEAAHXZ 000000018001337c f   as_bytecode.obj
 0001:00012428       ?Call@asCByteCode@@QEAAXW4asEBCInstr@@HH@Z 0000000180013428 f   as_bytecode.obj
 0001:000124b0       ?Alloc@asCByteCode@@QEAAXW4asEBCInstr@@PEAXHH@Z 00000001800134b0 f   as_bytecode.obj
 0001:00012524       ?Ret@asCByteCode@@QEAAXH@Z 0000000180013524 f   as_bytecode.obj
 0001:00012570       ?Label@asCByteCode@@QEAAXF@Z 0000000180013570 f   as_bytecode.obj
 0001:000125b8       ?ObjInfo@asCByteCode@@QEAAXHH@Z 00000001800135b8 f   as_bytecode.obj
 0001:00012614       ?Block@asCByteCode@@QEAAX_N@Z 0000000180013614 f   as_bytecode.obj
 0001:00012668       ?FindLabel@asCByteCode@@QEAAHHPEAVasCByteInstruction@@PEAPEAV2@PEAH@Z 0000000180013668 f   as_bytecode.obj
 0001:000126d4       ?DeleteInstruction@asCByteCode@@IEAAPEAVasCByteInstruction@@PEAV2@@Z 00000001800136d4 f   as_bytecode.obj
 0001:00012710       ?PostProcess@asCByteCode@@QEAAXXZ 0000000180013710 f   as_bytecode.obj
 0001:000129bc       ?Instr@asCByteCode@@QEAAHW4asEBCInstr@@@Z 00000001800139bc f   as_bytecode.obj
 0001:00012a24       ?InstrW_W_W@asCByteCode@@QEAAHW4asEBCInstr@@HHH@Z 0000000180013a24 f   as_bytecode.obj
 0001:00012ac4       ?InstrW_W@asCByteCode@@QEAAHW4asEBCInstr@@HH@Z 0000000180013ac4 f   as_bytecode.obj
 0001:00012b1c       ?InstrW_PTR@asCByteCode@@QEAAHW4asEBCInstr@@FPEAX@Z 0000000180013b1c f   as_bytecode.obj
 0001:00012b88       ?InstrW_DW@asCByteCode@@QEAAHW4asEBCInstr@@GK@Z 0000000180013b88 f   as_bytecode.obj
 0001:00012c10       ?InstrSHORT_DW_DW@asCByteCode@@QEAAHW4asEBCInstr@@FKK@Z 0000000180013c10 f   as_bytecode.obj
 0001:00012cac       ?InstrSHORT_B@asCByteCode@@QEAAHW4asEBCInstr@@FE@Z 0000000180013cac f   as_bytecode.obj
 0001:00012d24       ?InstrSHORT_DW@asCByteCode@@QEAAHW4asEBCInstr@@FK@Z 0000000180013d24 f   as_bytecode.obj
 0001:00012d7c       ?InstrINT@asCByteCode@@QEAAHW4asEBCInstr@@H@Z 0000000180013d7c f   as_bytecode.obj
 0001:00012dac       ?InstrDWORD@asCByteCode@@QEAAHW4asEBCInstr@@K@Z 0000000180013dac f   as_bytecode.obj
 0001:00012dfc       ?InstrPTR@asCByteCode@@QEAAHW4asEBCInstr@@PEAX@Z 0000000180013dfc f   as_bytecode.obj
 0001:00012e78       ?InstrSHORT@asCByteCode@@QEAAHW4asEBCInstr@@F@Z 0000000180013e78 f   as_bytecode.obj
 0001:00012e78       ?InstrWORD@asCByteCode@@QEAAHW4asEBCInstr@@G@Z 0000000180013e78 f   as_bytecode.obj
 0001:00012ef8       ?SetLength@?$asCArray@H@@QEAA_N_K@Z 0000000180013ef8 f i as_bytecode.obj
 0001:00012ef8       ?SetLength@?$asCArray@K@@QEAA_N_K@Z 0000000180013ef8 f i as_compiler.obj
 0001:00012f34       ?PushLast@?$asCArray@UasSObjectVariableInfo@@@@QEAAXAEBUasSObjectVariableInfo@@@Z 0000000180013f34 f i as_bytecode.obj
 0001:00012fa0       ??1?$asCArray@F@@QEAA@XZ   0000000180013fa0 f i as_bytecode.obj
 0001:00012fac       ?Allocate@?$asCArray@UasSObjectVariableInfo@@@@QEAAX_K_N@Z 0000000180013fac f i as_bytecode.obj
 0001:000130f8       ?Allocate@?$asCArray@F@@QEAAX_K_N@Z 00000001800140f8 f i as_bytecode.obj
 0001:00013218       ?DetectCallingConvention@@YAH_NAEBUasSFuncPtr@@HPEAXPEAUasSSystemFunctionInterface@@@Z 0000000180014218 f   as_callfunc.obj
 0001:0001333c       ?PrepareSystemFunction@@YAHPEAVasCScriptFunction@@PEAUasSSystemFunctionInterface@@PEAVasCScriptEngine@@@Z 000000018001433c f   as_callfunc.obj
 0001:000137ac       ?CallSystemFunction@@YAHHPEAVasCContext@@PEAX@Z 00000001800147ac f   as_callfunc.obj
 0001:00013c2c       ?CallSystemFunctionNative@@YA_KPEAVasCContext@@PEAVasCScriptFunction@@PEAXPEAK2AEA_K@Z 0000000180014c2c f   as_callfunc_x64_msvc.obj
 0001:00013ef4       ??0asSExprContext@@QEAA@PEAVasCScriptEngine@@@Z 0000000180014ef4 f i as_compiler.obj
 0001:00013fa0       ??1asSExprContext@@QEAA@XZ 0000000180014fa0 f i as_compiler.obj
 0001:00014020       ?Clear@asSExprContext@@QEAAXXZ 0000000180015020 f i as_compiler.obj
 0001:000140b8       ??0asCCompiler@@QEAA@PEAVasCScriptEngine@@@Z 00000001800150b8 f   as_compiler.obj
 0001:000141c8       ??1asCCompiler@@QEAA@XZ    00000001800151c8 f   as_compiler.obj
 0001:000142d8       ?Reset@asCCompiler@@IEAAXPEAVasCBuilder@@PEAVasCScriptCode@@PEAVasCScriptFunction@@@Z 00000001800152d8 f   as_compiler.obj
 0001:00014344       ?CompileDefaultConstructor@asCCompiler@@QEAAHPEAVasCBuilder@@PEAVasCScriptCode@@PEAVasCScriptNode@@PEAVasCScriptFunction@@PEAUsClassDeclaration@@@Z 0000000180015344 f   as_compiler.obj
 0001:000144bc       ?CompileFactory@asCCompiler@@QEAAHPEAVasCBuilder@@PEAVasCScriptCode@@PEAVasCScriptFunction@@@Z 00000001800154bc f   as_compiler.obj
 0001:0001469c       ?FinalizeFunction@asCCompiler@@IEAAXXZ 000000018001569c f   as_compiler.obj
 0001:00014c4c       ?SetupParametersAndReturnVariable@asCCompiler@@IEAAHAEAV?$asCArray@VasCString@@@@PEAVasCScriptNode@@@Z 0000000180015c4c f   as_compiler.obj
 0001:000151c8       ?CompileMemberInitialization@asCCompiler@@IEAAXPEAVasCByteCode@@_N@Z 00000001800161c8 f   as_compiler.obj
 0001:0001545c       ?CompileFunction@asCCompiler@@QEAAHPEAVasCBuilder@@PEAVasCScriptCode@@AEAV?$asCArray@VasCString@@@@PEAVasCScriptNode@@PEAVasCScriptFunction@@PEAUsClassDeclaration@@@Z 000000018001645c f   as_compiler.obj
 0001:00015b7c       ?CallCopyConstructor@asCCompiler@@IEAAHAEAVasCDataType@@H_NPEAVasCByteCode@@PEAUasSExprContext@@PEAVasCScriptNode@@11@Z 0000000180016b7c f   as_compiler.obj
 0001:00015f04       ?CallDefaultConstructor@asCCompiler@@IEAAHAEAVasCDataType@@H_NPEAVasCByteCode@@PEAVasCScriptNode@@H1@Z 0000000180016f04 f   as_compiler.obj
 0001:00016418       ?CallDestructor@asCCompiler@@IEAAXAEAVasCDataType@@H_NPEAVasCByteCode@@@Z 0000000180017418 f   as_compiler.obj
 0001:00016588       ?LineInstr@asCCompiler@@IEAAXPEAVasCByteCode@@_K@Z 0000000180017588 f   as_compiler.obj
 0001:00016630       ?CompileStatementBlock@asCCompiler@@IEAAXPEAVasCScriptNode@@_NPEA_NPEAVasCByteCode@@@Z 0000000180017630 f   as_compiler.obj
 0001:0001688c       ?CompileGlobalVariable@asCCompiler@@QEAAHPEAVasCBuilder@@PEAVasCScriptCode@@PEAVasCScriptNode@@PEAUsGlobalVariableDescription@@PEAVasCScriptFunction@@@Z 000000018001788c f   as_compiler.obj
 0001:00016afc       ?DetermineSingleFunc@asCCompiler@@IEAAXPEAUasSExprContext@@PEAVasCScriptNode@@@Z 0000000180017afc f   as_compiler.obj
 0001:00016f10       ?PrepareArgument@asCCompiler@@IEAAXPEAVasCDataType@@PEAUasSExprContext@@PEAVasCScriptNode@@_NH3@Z 0000000180017f10 f   as_compiler.obj
 0001:000182ec       ??4asCTypeInfo@@QEAAAEAU0@AEBU0@@Z 00000001800192ec f i as_compiler.obj
 0001:000183ec       ?PrepareFunctionCall@asCCompiler@@IEAAXHPEAVasCByteCode@@AEAV?$asCArray@PEAUasSExprContext@@@@@Z 00000001800193ec f   as_compiler.obj
 0001:00018628       ?MoveArgsToStack@asCCompiler@@IEAAXHPEAVasCByteCode@@AEAV?$asCArray@PEAUasSExprContext@@@@_N@Z 0000000180019628 f   as_compiler.obj
 0001:00018860       ?CompileArgumentList@asCCompiler@@IEAAHPEAVasCScriptNode@@AEAV?$asCArray@PEAUasSExprContext@@@@@Z 0000000180019860 f   as_compiler.obj
 0001:000189b0       ?CompileDefaultArgs@asCCompiler@@IEAAHPEAVasCScriptNode@@AEAV?$asCArray@PEAUasSExprContext@@@@PEAVasCScriptFunction@@@Z 00000001800199b0 f   as_compiler.obj
 0001:00019140       ?MatchFunctions@asCCompiler@@IEAAIAEAV?$asCArray@H@@AEAV?$asCArray@PEAUasSExprContext@@@@PEAVasCScriptNode@@PEBDPEAVasCObjectType@@_N55AEBVasCString@@@Z 000000018001a140 f   as_compiler.obj
 0001:00019964       ?CompileDeclaration@asCCompiler@@IEAAXPEAVasCScriptNode@@PEAVasCByteCode@@@Z 000000018001a964 f   as_compiler.obj
 0001:00019e88       ?CompileInitialization@asCCompiler@@IEAA_NPEAVasCScriptNode@@PEAVasCByteCode@@AEAVasCDataType@@0HPEA_KH@Z 000000018001ae88 f   as_compiler.obj
 0001:0001ae94       ?CompileInitList@asCCompiler@@IEAAXPEAUasCTypeInfo@@PEAVasCScriptNode@@PEAVasCByteCode@@H@Z 000000018001be94 f   as_compiler.obj
 0001:0001b6b4       ?CompileInitListElement@asCCompiler@@IEAAHAEAPEAUasSListPatternNode@@AEAPEAVasCScriptNode@@HFAEAIAEAVasCByteCode@@@Z 000000018001c6b4 f   as_compiler.obj
 0001:0001c6ec       ?CompileStatement@asCCompiler@@IEAAXPEAVasCScriptNode@@PEA_NPEAVasCByteCode@@@Z 000000018001d6ec f   as_compiler.obj
 0001:0001c7b0       ?CompileSwitchStatement@asCCompiler@@IEAAXPEAVasCScriptNode@@PEA_NPEAVasCByteCode@@@Z 000000018001d7b0 f   as_compiler.obj
 0001:0001d480       ?CompileCase@asCCompiler@@IEAAXPEAVasCScriptNode@@PEAVasCByteCode@@@Z 000000018001e480 f   as_compiler.obj
 0001:0001d634       ?CompileIfStatement@asCCompiler@@IEAAXPEAVasCScriptNode@@PEA_NPEAVasCByteCode@@@Z 000000018001e634 f   as_compiler.obj
 0001:0001dc88       ?CompileForStatement@asCCompiler@@IEAAXPEAVasCScriptNode@@PEAVasCByteCode@@@Z 000000018001ec88 f   as_compiler.obj
 0001:0001e30c       ?CompileWhileStatement@asCCompiler@@IEAAXPEAVasCScriptNode@@PEAVasCByteCode@@@Z 000000018001f30c f   as_compiler.obj
 0001:0001e674       ?CompileDoWhileStatement@asCCompiler@@IEAAXPEAVasCScriptNode@@PEAVasCByteCode@@@Z 000000018001f674 f   as_compiler.obj
 0001:0001e9e8       ?CompileBreakStatement@asCCompiler@@IEAAXPEAVasCScriptNode@@PEAVasCByteCode@@@Z 000000018001f9e8 f   as_compiler.obj
 0001:0001eaf8       ?CompileContinueStatement@asCCompiler@@IEAAXPEAVasCScriptNode@@PEAVasCByteCode@@@Z 000000018001faf8 f   as_compiler.obj
 0001:0001ec08       ?CompileExpressionStatement@asCCompiler@@IEAAXPEAVasCScriptNode@@PEAVasCByteCode@@@Z 000000018001fc08 f   as_compiler.obj
 0001:0001ed18       ?PrepareTemporaryObject@asCCompiler@@IEAAXPEAVasCScriptNode@@PEAUasSExprContext@@_N@Z 000000018001fd18 f   as_compiler.obj
 0001:0001f148       ?CompileReturnStatement@asCCompiler@@IEAAXPEAVasCScriptNode@@PEAVasCByteCode@@@Z 0000000180020148 f   as_compiler.obj
 0001:0001fe30       ?DestroyVariables@asCCompiler@@IEAAXPEAVasCByteCode@@@Z 0000000180020e30 f   as_compiler.obj
 0001:0001feb8       ?AddVariableScope@asCCompiler@@IEAAX_N0@Z 0000000180020eb8 f   as_compiler.obj
 0001:0001ff3c       ?RemoveVariableScope@asCCompiler@@IEAAXXZ 0000000180020f3c f   as_compiler.obj
 0001:0001ff88       ?Error@asCCompiler@@IEAAXAEBVasCString@@PEAVasCScriptNode@@@Z 0000000180020f88 f   as_compiler.obj
 0001:0002000c       ?Warning@asCCompiler@@IEAAXAEBVasCString@@PEAVasCScriptNode@@@Z 000000018002100c f   as_compiler.obj
 0001:0002008c       ?PrintMatchingFuncs@asCCompiler@@IEAAXAEAV?$asCArray@H@@PEAVasCScriptNode@@@Z 000000018002108c f   as_compiler.obj
 0001:0002017c       ?AllocateVariableNotIn@asCCompiler@@IEAAHAEBVasCDataType@@_N1PEAUasSExprContext@@@Z 000000018002117c f   as_compiler.obj
 0001:000201e8       ?AllocateVariable@asCCompiler@@IEAAHAEBVasCDataType@@_N1@Z 00000001800211e8 f   as_compiler.obj
 0001:0002046c       ?GetVariableOffset@asCCompiler@@IEAAHH@Z 000000018002146c f   as_compiler.obj
 0001:00020560       ?GetVariableSlot@asCCompiler@@IEAAHH@Z 0000000180021560 f   as_compiler.obj
 0001:00020614       ?IsVariableOnHeap@asCCompiler@@IEAA_NH@Z 0000000180021614 f   as_compiler.obj
 0001:00020640       ?DeallocateVariable@asCCompiler@@IEAAXH@Z 0000000180021640 f   as_compiler.obj
 0001:000206c8       ?ReleaseTemporaryVariable@asCCompiler@@IEAAXAEAUasCTypeInfo@@PEAVasCByteCode@@@Z 00000001800216c8 f   as_compiler.obj
 0001:000206ec       ?ReleaseTemporaryVariable@asCCompiler@@IEAAXHPEAVasCByteCode@@@Z 00000001800216ec f   as_compiler.obj
 0001:00020788       ?Dereference@asCCompiler@@IEAAXPEAUasSExprContext@@_N@Z 0000000180021788 f   as_compiler.obj
 0001:000207d0       ?IsVariableInitialized@asCCompiler@@IEAA_NPEAUasCTypeInfo@@PEAVasCScriptNode@@@Z 00000001800217d0 f   as_compiler.obj
 0001:000208b0       ?PrepareForAssignment@asCCompiler@@IEAAXPEAVasCDataType@@PEAUasSExprContext@@PEAVasCScriptNode@@_N1@Z 00000001800218b0 f   as_compiler.obj
 0001:00020c44       ?PerformAssignment@asCCompiler@@IEAAHPEAUasCTypeInfo@@0PEAVasCByteCode@@PEAVasCScriptNode@@@Z 0000000180021c44 f   as_compiler.obj
 0001:000210d4       ?CompileRefCast@asCCompiler@@IEAA_NPEAUasSExprContext@@AEBVasCDataType@@_NPEAVasCScriptNode@@2@Z 00000001800220d4 f   as_compiler.obj
 0001:000219e0       ??0asCTypeInfo@@QEAA@AEBU0@@Z 00000001800229e0 f i as_compiler.obj
 0001:00021ae0       ?ImplicitConvPrimitiveToPrimitive@asCCompiler@@IEAAIPEAUasSExprContext@@AEBVasCDataType@@PEAVasCScriptNode@@W4EImplicitConv@@_N@Z 0000000180022ae0 f   as_compiler.obj
 0001:000232a8       ?ImplicitConversion@asCCompiler@@IEAAIPEAUasSExprContext@@AEBVasCDataType@@PEAVasCScriptNode@@W4EImplicitConv@@_N4@Z 00000001800242a8 f   as_compiler.obj
 0001:000233d4       ?ImplicitConvObjectToPrimitive@asCCompiler@@IEAAIPEAUasSExprContext@@AEBVasCDataType@@PEAVasCScriptNode@@W4EImplicitConv@@_N@Z 00000001800243d4 f   as_compiler.obj
 0001:00023cd0       ?ImplicitConvObjectRef@asCCompiler@@IEAAIPEAUasSExprContext@@AEBVasCDataType@@PEAVasCScriptNode@@W4EImplicitConv@@_N@Z 0000000180024cd0 f   as_compiler.obj
 0001:00024280       ?ImplicitConvObjectValue@asCCompiler@@IEAAIPEAUasSExprContext@@AEBVasCDataType@@PEAVasCScriptNode@@W4EImplicitConv@@_N@Z 0000000180025280 f   as_compiler.obj
 0001:00024558       ?ImplicitConvObjectToObject@asCCompiler@@IEAAIPEAUasSExprContext@@AEBVasCDataType@@PEAVasCScriptNode@@W4EImplicitConv@@_N4@Z 0000000180025558 f   as_compiler.obj
 0001:00025518       ?ImplicitConvPrimitiveToObject@asCCompiler@@IEAAIPEAUasSExprContext@@AEBVasCDataType@@PEAVasCScriptNode@@W4EImplicitConv@@_N4@Z 0000000180026518 f   as_compiler.obj
 0001:00025a30       ?ImplicitConversionConstant@asCCompiler@@IEAAXPEAUasSExprContext@@AEBVasCDataType@@PEAVasCScriptNode@@W4EImplicitConv@@@Z 0000000180026a30 f   as_compiler.obj
 0001:00027a24       ?DoAssignment@asCCompiler@@IEAAHPEAUasSExprContext@@00PEAVasCScriptNode@@1H1@Z 0000000180028a24 f   as_compiler.obj
 0001:000287dc       ?CompileAssignment@asCCompiler@@IEAAHPEAVasCScriptNode@@PEAUasSExprContext@@@Z 00000001800297dc f   as_compiler.obj
 0001:000288f8       ?CompileCondition@asCCompiler@@IEAAHPEAVasCScriptNode@@PEAUasSExprContext@@@Z 00000001800298f8 f   as_compiler.obj
 0001:0002960c       ?CompileExpression@asCCompiler@@IEAAHPEAVasCScriptNode@@PEAUasSExprContext@@@Z 000000018002a60c f   as_compiler.obj
 0001:000297a4       ?CompilePostFixExpression@asCCompiler@@IEAAHPEAV?$asCArray@PEAVasCScriptNode@@@@PEAUasSExprContext@@@Z 000000018002a7a4 f   as_compiler.obj
 0001:00029b58       ?CompileVariableAccess@asCCompiler@@IEAAHAEBVasCString@@0PEAUasSExprContext@@PEAVasCScriptNode@@_N33PEAVasCObjectType@@@Z 000000018002ab58 f   as_compiler.obj
 0001:0002b520       ?CompileExpressionValue@asCCompiler@@IEAAHPEAVasCScriptNode@@PEAUasSExprContext@@@Z 000000018002c520 f   as_compiler.obj
 0001:0002c434       ?ProcessStringConstant@asCCompiler@@IEAAIAEAVasCString@@PEAVasCScriptNode@@_N@Z 000000018002d434 f   as_compiler.obj
 0001:0002cc68       ?ProcessHeredocStringConstant@asCCompiler@@IEAAXAEAVasCString@@PEAVasCScriptNode@@@Z 000000018002dc68 f   as_compiler.obj
 0001:0002ce08       ?CompileConversion@asCCompiler@@IEAAXPEAVasCScriptNode@@PEAUasSExprContext@@@Z 000000018002de08 f   as_compiler.obj
 0001:0002d6f4       ?AfterFunctionCall@asCCompiler@@IEAAXHAEAV?$asCArray@PEAUasSExprContext@@@@PEAUasSExprContext@@_N@Z 000000018002e6f4 f   as_compiler.obj
 0001:0002d908       ?ProcessDeferredParams@asCCompiler@@IEAAXPEAUasSExprContext@@@Z 000000018002e908 f   as_compiler.obj
 0001:0002dd0c       ?CompileConstructCall@asCCompiler@@IEAAXPEAVasCScriptNode@@PEAUasSExprContext@@@Z 000000018002ed0c f   as_compiler.obj
 0001:0002ebb0       ?CompileFunctionCall@asCCompiler@@IEAAHPEAVasCScriptNode@@PEAUasSExprContext@@PEAVasCObjectType@@_NAEBVasCString@@@Z 000000018002fbb0 f   as_compiler.obj
 0001:0002f70c       ?DetermineNameSpace@asCCompiler@@IEAAPEAUasSNameSpace@@AEBVasCString@@@Z 000000018003070c f   as_compiler.obj
 0001:0002f7d0       ?CompileExpressionPreOp@asCCompiler@@IEAAHPEAVasCScriptNode@@PEAUasSExprContext@@@Z 00000001800307d0 f   as_compiler.obj
 0001:00030dfc       ?ConvertToReference@asCCompiler@@IEAAXPEAUasSExprContext@@@Z 0000000180031dfc f   as_compiler.obj
 0001:00030ed4       ?FindPropertyAccessor@asCCompiler@@IEAAHAEBVasCString@@PEAUasSExprContext@@1PEAVasCScriptNode@@PEAUasSNameSpace@@_N@Z 0000000180031ed4 f   as_compiler.obj
 0001:00031b84       ?ProcessPropertySetAccessor@asCCompiler@@IEAAHPEAUasSExprContext@@0PEAVasCScriptNode@@@Z 0000000180032b84 f   as_compiler.obj
 0001:00031f7c       ?ProcessPropertyGetAccessor@asCCompiler@@IEAAXPEAUasSExprContext@@PEAVasCScriptNode@@@Z 0000000180032f7c f   as_compiler.obj
 0001:000323a4       ?CompileExpressionPostOp@asCCompiler@@IEAAHPEAVasCScriptNode@@PEAUasSExprContext@@@Z 00000001800333a4 f   as_compiler.obj
 0001:00033c58       ?GetPrecedence@asCCompiler@@IEAAHPEAVasCScriptNode@@@Z 0000000180034c58 f   as_compiler.obj
 0001:00033d14       ?MatchArgument@asCCompiler@@IEAAIAEAV?$asCArray@H@@AEAV?$asCArray@UasSOverloadCandidate@@@@PEBUasSExprContext@@H_N@Z 0000000180034d14 f   as_compiler.obj
 0001:00034040       ?CompileOverloadedDualOperator@asCCompiler@@IEAA_NPEAVasCScriptNode@@PEAUasSExprContext@@11@Z 0000000180035040 f   as_compiler.obj
 0001:0003490c       ?CompileOverloadedDualOperator2@asCCompiler@@IEAAHPEAVasCScriptNode@@PEBDPEAUasSExprContext@@22_NAEBVasCDataType@@@Z 000000018003590c f   as_compiler.obj
 0001:00034dc4       ?MakeFunctionCall@asCCompiler@@IEAAXPEAUasSExprContext@@HPEAVasCObjectType@@AEAV?$asCArray@PEAUasSExprContext@@@@PEAVasCScriptNode@@_NHH@Z 0000000180035dc4 f   as_compiler.obj
 0001:000350e8       ?CompileOperator@asCCompiler@@IEAAHPEAVasCScriptNode@@PEAUasSExprContext@@11@Z 00000001800360e8 f   as_compiler.obj
 0001:0003561c       ?ConvertToTempVariableNotIn@asCCompiler@@IEAAXPEAUasSExprContext@@0@Z 000000018003661c f   as_compiler.obj
 0001:00035678       ?ConvertToTempVariable@asCCompiler@@IEAAXPEAUasSExprContext@@@Z 0000000180036678 f   as_compiler.obj
 0001:00035798       ?ConvertToVariable@asCCompiler@@IEAAXPEAUasSExprContext@@@Z 0000000180036798 f   as_compiler.obj
 0001:00035ba8       ?ConvertToVariableNotIn@asCCompiler@@IEAAXPEAUasSExprContext@@0@Z 0000000180036ba8 f   as_compiler.obj
 0001:00035c04       ?CompileMathOperator@asCCompiler@@IEAAXPEAVasCScriptNode@@PEAUasSExprContext@@11@Z 0000000180036c04 f   as_compiler.obj
 0001:00036b10       ?CompileBitwiseOperator@asCCompiler@@IEAAXPEAVasCScriptNode@@PEAUasSExprContext@@11@Z 0000000180037b10 f   as_compiler.obj
 0001:00037aa8       ?CompileComparisonOperator@asCCompiler@@IEAAXPEAVasCScriptNode@@PEAUasSExprContext@@11@Z 0000000180038aa8 f   as_compiler.obj
 0001:00038b38       ?PushVariableOnStack@asCCompiler@@IEAAXPEAUasSExprContext@@_N@Z 0000000180039b38 f   as_compiler.obj
 0001:00038b94       ?CompileBooleanOperator@asCCompiler@@IEAAXPEAVasCScriptNode@@PEAUasSExprContext@@11@Z 0000000180039b94 f   as_compiler.obj
 0001:00039414       ?CompileOperatorOnHandles@asCCompiler@@IEAAXPEAVasCScriptNode@@PEAUasSExprContext@@11@Z 000000018003a414 f   as_compiler.obj
 0001:00039f00       ?PerformFunctionCall@asCCompiler@@IEAAXHPEAUasSExprContext@@_NPEAV?$asCArray@PEAUasSExprContext@@@@PEAVasCObjectType@@1HH@Z 000000018003af00 f   as_compiler.obj
 0001:0003aa30       ?MergeExprBytecode@asCCompiler@@IEAAXPEAUasSExprContext@@0@Z 000000018003ba30 f   as_compiler.obj
 0001:0003aac4       ?MergeExprBytecodeAndType@asCCompiler@@IEAAXPEAUasSExprContext@@0@Z 000000018003bac4 f   as_compiler.obj
 0001:0003ab68       ?FilterConst@asCCompiler@@IEAAXAEAV?$asCArray@H@@_N@Z 000000018003bb68 f   as_compiler.obj
 0001:0003ac20       ??1?$asCArray@UasSDeferredParam@@@@QEAA@XZ 000000018003bc20 f i as_compiler.obj
 0001:0003ac2c       ?PushLast@?$asCArray@UasSDeferredParam@@@@QEAAXAEBUasSDeferredParam@@@Z 000000018003bc2c f i as_compiler.obj
 0001:0003acc4       ?SetLength@?$asCArray@PEAVasCScriptFunction@@@@QEAA_N_K@Z 000000018003bcc4 f i as_configgroup.obj
 0001:0003acc4       ?SetLength@?$asCArray@PEAUasSExprContext@@@@QEAA_N_K@Z 000000018003bcc4 f i as_compiler.obj
 0001:0003acc4       ?SetLength@?$asCArray@PEAVasCString@@@@QEAA_N_K@Z 000000018003bcc4 f i as_restore.obj
 0001:0003ad00       ??1?$asCArray@UasSOverloadCandidate@@@@QEAA@XZ 000000018003bd00 f i as_compiler.obj
 0001:0003ad0c       ?PushLast@?$asCArray@UasSOverloadCandidate@@@@QEAAXAEBUasSOverloadCandidate@@@Z 000000018003bd0c f i as_compiler.obj
 0001:0003ad68       ??1?$asCArray@_N@@QEAA@XZ  000000018003bd68 f i as_builder.obj
 0001:0003ad68       ??1?$asCArray@D@@QEAA@XZ   000000018003bd68 f i as_compiler.obj
 0001:0003ad74       ??1?$asCArray@USObjProp@asCReader@@@@QEAA@XZ 000000018003bd74 f i as_module.obj
 0001:0003ad74       ??1?$asCArray@UasCTypeInfo@@@@QEAA@XZ 000000018003bd74 f i as_compiler.obj
 0001:0003ad74       ??1?$asCArray@K@@QEAA@XZ   000000018003bd74 f i as_scriptfunction.obj
 0001:0003ada8       ?Allocate@?$asCArray@UasSDeferredParam@@@@QEAAX_K_N@Z 000000018003bda8 f i as_compiler.obj
 0001:0003af60       ?Allocate@?$asCArray@UasSOverloadCandidate@@@@QEAAX_K_N@Z 000000018003bf60 f i as_compiler.obj
 0001:0003b084       ?Allocate@?$asCArray@_N@@QEAAX_K_N@Z 000000018003c084 f i as_builder.obj
 0001:0003b084       ?Allocate@?$asCArray@D@@QEAAX_K_N@Z 000000018003c084 f i as_compiler.obj
 0001:0003b19c       ??1asCConfigGroup@@QEAA@XZ 000000018003c19c f   as_configgroup.obj
 0001:0003b220       ?FindType@asCConfigGroup@@QEAAPEAVasCObjectType@@PEBD@Z 000000018003c220 f   as_configgroup.obj
 0001:0003b294       ?RefConfigGroup@asCConfigGroup@@QEAAXPEAV1@@Z 000000018003c294 f   as_configgroup.obj
 0001:0003b2ec       ?RemoveConfiguration@asCConfigGroup@@QEAAXPEAVasCScriptEngine@@_N@Z 000000018003c2ec f   as_configgroup.obj
 0001:0003b5c4       ?RemoveValue@?$asCArray@PEAVasCScriptFunction@@@@QEAAXAEBQEAVasCScriptFunction@@@Z 000000018003c5c4 f i as_builder.obj
 0001:0003b5c4       ?RemoveValue@?$asCArray@PEAVasCObjectType@@@@QEAAXAEBQEAVasCObjectType@@@Z 000000018003c5c4 f i as_configgroup.obj
 0001:0003b618       ?Erase@?$asCSymbolTable@VasCGlobalProperty@@@@QEAA_NI@Z 000000018003c618 f i as_configgroup.obj
 0001:0003b708       ??1asIScriptContext@@MEAA@XZ 000000018003c708 f i as_context.obj
 0001:0003b714       ??_EasIScriptContext@@MEAAPEAXI@Z 000000018003c714 f i  CIL library: CIL module
 0001:0003b714       ??_GasIScriptContext@@MEAAPEAXI@Z 000000018003c714 f i as_context.obj
 0001:0003b73c       asGetActiveContext         000000018003c73c f   as_context.obj
 0001:0003b760       ??0asCContext@@QEAA@PEAVasCScriptEngine@@_N@Z 000000018003c760 f   as_context.obj
 0001:0003b870       ??_GasCContext@@UEAAPEAXI@Z 000000018003c870 f i as_context.obj
 0001:0003b870       ??_EasCContext@@UEAAPEAXI@Z 000000018003c870 f i  CIL library: CIL module
 0001:0003b8a0       ??1asCContext@@UEAA@XZ     000000018003c8a0 f   as_context.obj
 0001:0003b9dc       ?IsNested@asCContext@@UEBA_NPEAI@Z 000000018003c9dc f   as_context.obj
 0001:0003ba5c       ?AddRef@asCLockableSharedBool@@UEBAHXZ 000000018003ca5c f   as_scriptobject.obj
 0001:0003ba5c       ?AddRef@asCContext@@UEBAHXZ 000000018003ca5c f   as_context.obj
 0001:0003ba6c       ?Release@asCContext@@UEBAHXZ 000000018003ca6c f   as_context.obj
 0001:0003baa0       ?SetUserData@asCContext@@UEAAPEAXPEAX@Z 000000018003caa0 f   as_context.obj
 0001:0003bab0       ?GetUserData@asCContext@@UEBAPEAXXZ 000000018003cab0 f   as_context.obj
 0001:0003bab8       ?GetSystemFunction@asCContext@@UEAAPEAVasIScriptFunction@@XZ 000000018003cab8 f   as_context.obj
 0001:0003bac0       ?Prepare@asCContext@@UEAAHPEAVasIScriptFunction@@@Z 000000018003cac0 f   as_context.obj
 0001:0003bda4       ?Unprepare@asCContext@@UEAAHXZ 000000018003cda4 f   as_context.obj
 0001:0003be28       ?GetReturnByte@asCContext@@UEAAEXZ 000000018003ce28 f   as_context.obj
 0001:0003be64       ?GetReturnWord@asCContext@@UEAAGXZ 000000018003ce64 f   as_context.obj
 0001:0003bea0       ?GetReturnDWord@asCContext@@UEAAKXZ 000000018003cea0 f   as_context.obj
 0001:0003bed8       ?GetReturnQWord@asCContext@@UEAA_KXZ 000000018003ced8 f   as_context.obj
 0001:0003bf10       ?GetReturnFloat@asCContext@@UEAAMXZ 000000018003cf10 f   as_context.obj
 0001:0003bf48       ?GetReturnDouble@asCContext@@UEAANXZ 000000018003cf48 f   as_context.obj
 0001:0003bf84       ?GetReturnAddress@asCContext@@UEAAPEAXXZ 000000018003cf84 f   as_context.obj
 0001:0003bff8       ?GetReturnObject@asCContext@@UEAAPEAXXZ 000000018003cff8 f   as_context.obj
 0001:0003c074       ?GetAddressOfReturnValue@asCContext@@UEAAPEAXXZ 000000018003d074 f   as_context.obj
 0001:0003c0f8       ?SetObject@asCContext@@UEAAHPEAX@Z 000000018003d0f8 f   as_context.obj
 0001:0003c130       ?SetArgByte@asCContext@@UEAAHIE@Z 000000018003d130 f   as_context.obj
 0001:0003c200       ?SetArgWord@asCContext@@UEAAHIG@Z 000000018003d200 f   as_context.obj
 0001:0003c2d8       ?SetArgDWord@asCContext@@UEAAHIK@Z 000000018003d2d8 f   as_context.obj
 0001:0003c3a8       ?SetArgQWord@asCContext@@UEAAHI_K@Z 000000018003d3a8 f   as_context.obj
 0001:0003c494       ?SetArgFloat@asCContext@@UEAAHIM@Z 000000018003d494 f   as_context.obj
 0001:0003c574       ?SetArgDouble@asCContext@@UEAAHIN@Z 000000018003d574 f   as_context.obj
 0001:0003c654       ?SetArgAddress@asCContext@@UEAAHIPEAX@Z 000000018003d654 f   as_context.obj
 0001:0003c708       ?SetArgObject@asCContext@@UEAAHIPEAX@Z 000000018003d708 f   as_context.obj
 0001:0003c824       ?GetAddressOfArg@asCContext@@UEAAPEAXI@Z 000000018003d824 f   as_context.obj
 0001:0003c898       ?Abort@asCContext@@UEAAHXZ 000000018003d898 f   as_context.obj
 0001:0003c8c8       ?Suspend@asCContext@@UEAAHXZ 000000018003d8c8 f   as_context.obj
 0001:0003c8e8       ?Execute@asCContext@@UEAAHXZ 000000018003d8e8 f   as_context.obj
 0001:0003cc70       ?PushState@asCContext@@UEAAHXZ 000000018003dc70 f   as_context.obj
 0001:0003cd80       ?PopState@asCContext@@UEAAHXZ 000000018003dd80 f   as_context.obj
 0001:0003ce94       ?PushCallState@asCContext@@QEAAXXZ 000000018003de94 f   as_context.obj
 0001:0003cf38       ?PopCallState@asCContext@@QEAAXXZ 000000018003df38 f   as_context.obj
 0001:0003cfb0       ?GetCallstackSize@asCContext@@UEBAIXZ 000000018003dfb0 f   as_context.obj
 0001:0003cfd0       ?GetFunction@asCContext@@UEAAPEAVasIScriptFunction@@I@Z 000000018003dfd0 f   as_context.obj
 0001:0003d02c       ?GetLineNumber@asCContext@@UEAAHIPEAHPEAPEBD@Z 000000018003e02c f   as_context.obj
 0001:0003d13c       ?ReserveStackSpace@asCContext@@QEAA_NI@Z 000000018003e13c f   as_context.obj
 0001:0003d300       ?CallScriptFunction@asCContext@@QEAAXPEAVasCScriptFunction@@@Z 000000018003e300 f   as_context.obj
 0001:0003d3d8       ?PrepareScriptFunction@asCContext@@QEAAXXZ 000000018003e3d8 f   as_context.obj
 0001:0003d488       ?CallInterfaceMethod@asCContext@@QEAAXPEAVasCScriptFunction@@@Z 000000018003e488 f   as_context.obj
 0001:0003d554       ?ExecuteNext@asCContext@@QEAAXXZ 000000018003e554 f   as_context.obj
 0001:0003fb1c       ?SetException@asCContext@@UEAAHPEBD@Z 0000000180040b1c f   as_context.obj
 0001:0003fb38       ?SetInternalException@asCContext@@QEAAXPEBD@Z 0000000180040b38 f   as_context.obj
 0001:0003fc2c       ?CleanReturnObject@asCContext@@QEAAXXZ 0000000180040c2c f   as_context.obj
 0001:0003fd14       ?CleanStack@asCContext@@QEAAXXZ 0000000180040d14 f   as_context.obj
 0001:0003fd68       ?IsVarInScope@asCContext@@UEAA_NII@Z 0000000180040d68 f   as_context.obj
 0001:0003feb4       ?DetermineLiveObjects@asCContext@@QEAAXAEAV?$asCArray@H@@I@Z 0000000180040eb4 f   as_context.obj
 0001:00040090       ?CleanArgsOnStack@asCContext@@QEAAXXZ 0000000180041090 f   as_context.obj
 0001:0004033c       ?CleanStackFrame@asCContext@@QEAAXXZ 000000018004133c f   as_context.obj
 0001:000406e0       ?GetExceptionLineNumber@asCContext@@UEAAHPEAHPEAPEBD@Z 00000001800416e0 f   as_context.obj
 0001:00040768       ?GetExceptionFunction@asCContext@@UEAAPEAVasIScriptFunction@@XZ 0000000180041768 f   as_context.obj
 0001:0004079c       ?GetExceptionString@asCContext@@UEAAPEBDXZ 000000018004179c f   as_context.obj
 0001:000407d4       ?GetState@asCContext@@UEBA?AW4asEContextState@@XZ 00000001800417d4 f   as_context.obj
 0001:000407d8       ?SetLineCallback@asCContext@@UEAAHUasSFuncPtr@@PEAXH@Z 00000001800417d8 f   as_context.obj
 0001:0004087c       ?CallLineCallback@asCContext@@QEAAXXZ 000000018004187c f   as_context.obj
 0001:000408d4       ?SetExceptionCallback@asCContext@@UEAAHUasSFuncPtr@@PEAXH@Z 00000001800418d4 f   as_context.obj
 0001:00040938       ?ClearLineCallback@asCContext@@UEAAXXZ 0000000180041938 f   as_context.obj
 0001:0004094c       ?ClearExceptionCallback@asCContext@@UEAAXXZ 000000018004194c f   as_context.obj
 0001:00040954       ?CallGeneric@asCContext@@QEAAHHPEAX@Z 0000000180041954 f   as_context.obj
 0001:00040b50       ?GetVarCount@asCContext@@UEAAHI@Z 0000000180041b50 f   as_context.obj
 0001:00040b78       ?GetVarName@asCContext@@UEAAPEBDII@Z 0000000180041b78 f   as_context.obj
 0001:00040bd0       ?GetVarDeclaration@asCContext@@UEAAPEBDII_N@Z 0000000180041bd0 f   as_context.obj
 0001:00040c0c       ?GetVarTypeId@asCContext@@UEAAHII@Z 0000000180041c0c f   as_context.obj
 0001:00040c54       ?GetAddressOfVar@asCContext@@UEAAPEAXII@Z 0000000180041c54 f   as_context.obj
 0001:00040efc       ?GetThisTypeId@asCContext@@UEAAHI@Z 0000000180041efc f   as_context.obj
 0001:00040f60       ?GetThisPointer@asCContext@@UEAAPEAXI@Z 0000000180041f60 f   as_context.obj
 0001:00040fdc       ??1?$asCArray@PEAUasSEnumValue@@@@QEAA@XZ 0000000180041fdc f i as_objecttype.obj
 0001:00040fdc       ??1?$asCArray@PEAVasCScriptNode@@@@QEAA@XZ 0000000180041fdc f i as_compiler.obj
 0001:00040fdc       ??1?$asCArray@PEAVasCString@@@@QEAA@XZ 0000000180041fdc f i as_builder.obj
 0001:00040fdc       ??1?$asCArray@PEAVasCScriptCode@@@@QEAA@XZ 0000000180041fdc f i as_builder.obj
 0001:00040fdc       ??1?$asCArray@PEAUsVariable@@@@QEAA@XZ 0000000180041fdc f i as_variablescope.obj
 0001:00040fdc       ??1?$asCArray@PEAUmessage_t@asCOutputBuffer@@@@QEAA@XZ 0000000180041fdc f i as_builder.obj
 0001:00040fdc       ??1?$asCArray@PEAVasCConfigGroup@@@@QEAA@XZ 0000000180041fdc f i as_configgroup.obj
 0001:00040fdc       ??1?$asCArray@PEAUasSScriptVariable@@@@QEAA@XZ 0000000180041fdc f i as_scriptfunction.obj
 0001:00040fdc       ??1?$asCArray@PEAUsClassDeclaration@@@@QEAA@XZ 0000000180041fdc f i as_builder.obj
 0001:00040fdc       ??1?$asCArray@PEAK@@QEAA@XZ 0000000180041fdc f i as_context.obj
 0001:00040fdc       ??1?$asCArray@PEAUasSExprContext@@@@QEAA@XZ 0000000180041fdc f i as_compiler.obj
 0001:00040fdc       ??1?$asCArray@PEAUasSNameSpace@@@@QEAA@XZ 0000000180041fdc f i as_scriptengine.obj
 0001:00040fdc       ??1?$asCArray@PEAVasIScriptContext@@@@QEAA@XZ 0000000180041fdc f i as_thread.obj
 0001:00040fdc       ??1?$asCArray@PEAVasCModule@@@@QEAA@XZ 0000000180041fdc f i as_scriptengine.obj
 0001:00040fdc       ??1?$asCArray@_K@@QEAA@XZ  0000000180041fdc f i as_context.obj
 0001:00040fdc       ??1?$asCArray@PEAVasCGlobalProperty@@@@QEAA@XZ 0000000180041fdc f i as_builder.obj
 0001:00040fdc       ??1?$asCArray@PEAUsMixinClass@@@@QEAA@XZ 0000000180041fdc f i as_builder.obj
 0001:00040fdc       ??1?$asCArray@PEAVasCByteInstruction@@@@QEAA@XZ 0000000180041fdc f i as_bytecode.obj
 0001:00040fdc       ??1?$asCArray@PEAVasCObjectProperty@@@@QEAA@XZ 0000000180041fdc f i as_objecttype.obj
 0001:00040fdc       ??1?$asCArray@PEAUsBindInfo@@@@QEAA@XZ 0000000180041fdc f i as_module.obj
 0001:00040fdc       ??1?$asCArray@PEAVasCScriptFunction@@@@QEAA@XZ 0000000180041fdc f i as_configgroup.obj
 0001:00040fdc       ??1?$asCArray@PEAVasCObjectType@@@@QEAA@XZ 0000000180041fdc f i as_configgroup.obj
 0001:00040fdc       ??1?$asCArray@PEAUsFunctionDescription@@@@QEAA@XZ 0000000180041fdc f i as_builder.obj
 0001:00040fdc       ??1?$asCArray@PEAUsFuncDef@@@@QEAA@XZ 0000000180041fdc f i as_builder.obj
 0001:00040fdc       ??1?$asCArray@PEAVasCParser@@@@QEAA@XZ 0000000180041fdc f i as_builder.obj
 0001:00040fdc       ??1?$asCArray@PEAX@@QEAA@XZ 0000000180041fdc f i as_gc.obj
 0001:00040fdc       ??1?$asCArray@PEAU?$asSMapNode@PEAXUasSIntTypePair@asCGarbageCollector@@@@@@QEAA@XZ 0000000180041fdc f i as_gc.obj
 0001:00040fe8       ?AllocateNoConstruct@?$asCArray@_K@@QEAAX_K_N@Z 0000000180041fe8 f i as_context.obj
 0001:00041084       ?PushLast@?$asCArray@PEAK@@QEAAXAEBQEAK@Z 0000000180042084 f i as_context.obj
 0001:000410e0       ?Allocate@?$asCArray@PEAVasCByteInstruction@@@@QEAAX_K_N@Z 00000001800420e0 f i as_bytecode.obj
 0001:000410e0       ?Allocate@?$asCArray@PEAUasSExprContext@@@@QEAAX_K_N@Z 00000001800420e0 f i as_compiler.obj
 0001:000410e0       ?Allocate@?$asCArray@PEAUsMixinClass@@@@QEAAX_K_N@Z 00000001800420e0 f i as_builder.obj
 0001:000410e0       ?Allocate@?$asCArray@PEAVasCModule@@@@QEAAX_K_N@Z 00000001800420e0 f i as_scriptengine.obj
 0001:000410e0       ?Allocate@?$asCArray@PEAUasSEnumValue@@@@QEAAX_K_N@Z 00000001800420e0 f i as_builder.obj
 0001:000410e0       ?Allocate@?$asCArray@PEAUsBindInfo@@@@QEAAX_K_N@Z 00000001800420e0 f i as_module.obj
 0001:000410e0       ?Allocate@?$asCArray@PEAVasCGlobalProperty@@@@QEAAX_K_N@Z 00000001800420e0 f i as_builder.obj
 0001:000410e0       ?Allocate@?$asCArray@PEAUasSScriptVariable@@@@QEAAX_K_N@Z 00000001800420e0 f i as_restore.obj
 0001:000410e0       ?Allocate@?$asCArray@PEAVasCObjectProperty@@@@QEAAX_K_N@Z 00000001800420e0 f i as_objecttype.obj
 0001:000410e0       ?Allocate@?$asCArray@PEAUsGlobalVariableDescription@@@@QEAAX_K_N@Z 00000001800420e0 f i as_builder.obj
 0001:000410e0       ?Allocate@?$asCArray@PEAU?$asSMapNode@PEAXUasSIntTypePair@asCGarbageCollector@@@@@@QEAAX_K_N@Z 00000001800420e0 f i as_gc.obj
 0001:000410e0       ?Allocate@?$asCArray@PEAX@@QEAAX_K_N@Z 00000001800420e0 f i as_gc.obj
 0001:000410e0       ?Allocate@?$asCArray@PEAK@@QEAAX_K_N@Z 00000001800420e0 f i as_context.obj
 0001:000410e0       ?Allocate@?$asCArray@PEAVasCString@@@@QEAAX_K_N@Z 00000001800420e0 f i as_builder.obj
 0001:000410e0       ?Allocate@?$asCArray@PEAUsFuncDef@@@@QEAAX_K_N@Z 00000001800420e0 f i as_builder.obj
 0001:000410e0       ?Allocate@?$asCArray@PEAUSListAdjuster@asCWriter@@@@QEAAX_K_N@Z 00000001800420e0 f i as_module.obj
 0001:000410e0       ?Allocate@?$asCArray@PEAUmessage_t@asCOutputBuffer@@@@QEAAX_K_N@Z 00000001800420e0 f i as_builder.obj
 0001:000410e0       ?Allocate@?$asCArray@PEAVasCConfigGroup@@@@QEAAX_K_N@Z 00000001800420e0 f i as_configgroup.obj
 0001:000410e0       ?Allocate@?$asCArray@PEAUsClassDeclaration@@@@QEAAX_K_N@Z 00000001800420e0 f i as_builder.obj
 0001:000410e0       ?Allocate@?$asCArray@PEAVasCObjectType@@@@QEAAX_K_N@Z 00000001800420e0 f i as_builder.obj
 0001:000410e0       ?Allocate@?$asCArray@PEAUsFunctionDescription@@@@QEAAX_K_N@Z 00000001800420e0 f i as_builder.obj
 0001:000410e0       ?Allocate@?$asCArray@PEAVasCScriptFunction@@@@QEAAX_K_N@Z 00000001800420e0 f i as_builder.obj
 0001:000410e0       ?Allocate@?$asCArray@_K@@QEAAX_K_N@Z 00000001800420e0 f i as_context.obj
 0001:000410e0       ?Allocate@?$asCArray@PEAVasCParser@@@@QEAAX_K_N@Z 00000001800420e0 f i as_builder.obj
 0001:000410e0       ?Allocate@?$asCArray@PEAUSListAdjuster@asCReader@@@@QEAAX_K_N@Z 00000001800420e0 f i as_module.obj
 0001:000410e0       ?Allocate@?$asCArray@PEAVasCScriptNode@@@@QEAAX_K_N@Z 00000001800420e0 f i as_compiler.obj
 0001:000410e0       ?Allocate@?$asCArray@PEAUsVariable@@@@QEAAX_K_N@Z 00000001800420e0 f i as_variablescope.obj
 0001:000410e0       ?Allocate@?$asCArray@PEAUasSNameSpace@@@@QEAAX_K_N@Z 00000001800420e0 f i as_scriptengine.obj
 0001:000410e0       ?Allocate@?$asCArray@PEAVasIScriptContext@@@@QEAAX_K_N@Z 00000001800420e0 f i as_context.obj
 0001:000410e0       ?Allocate@?$asCArray@PEAVasCScriptCode@@@@QEAAX_K_N@Z 00000001800420e0 f i as_builder.obj
 0001:00041200       ?CreateObject@asCDataType@@SA?AV1@PEAVasCObjectType@@_N@Z 0000000180042200 f   as_datatype.obj
 0001:00041228       ?CreateObjectHandle@asCDataType@@SA?AV1@PEAVasCObjectType@@_N@Z 0000000180042228 f   as_datatype.obj
 0001:00041254       ?CreateFuncDef@asCDataType@@SA?AV1@PEAVasCScriptFunction@@@Z 0000000180042254 f   as_datatype.obj
 0001:00041274       ?CreatePrimitive@asCDataType@@SA?AV1@W4eTokenType@@_N@Z 0000000180042274 f   as_datatype.obj
 0001:00041298       ?CreateNullHandle@asCDataType@@SA?AV1@XZ 0000000180042298 f   as_datatype.obj
 0001:000412b4       ?Format@asCDataType@@QEBA?AVasCString@@_N@Z 00000001800422b4 f   as_datatype.obj
 0001:00041618       ?MakeHandle@asCDataType@@QEAAH_N0@Z 0000000180042618 f   as_datatype.obj
 0001:0004168c       ?CanBeInstanciated@asCDataType@@QEBA_NXZ 000000018004268c f   as_datatype.obj
 0001:000416cc       ?GetSubType@asCDataType@@QEBA?AV1@I@Z 00000001800426cc f   as_datatype.obj
 0001:000416fc       ??8asCDataType@@QEBA_NAEBV0@@Z 00000001800426fc f   as_datatype.obj
 0001:0004173c       ?IsEqualExceptRef@asCDataType@@QEBA_NAEBV1@@Z 000000018004273c f   as_datatype.obj
 0001:00041774       ?IsEqualExceptRefAndConst@asCDataType@@QEBA_NAEBV1@@Z 0000000180042774 f   as_datatype.obj
 0001:000417b8       ?IsPrimitive@asCDataType@@QEBA_NXZ 00000001800427b8 f   as_datatype.obj
 0001:000417e4       ?IsIntegerType@asCDataType@@QEBA_NXZ 00000001800427e4 f   as_datatype.obj
 0001:00041810       ?GetSizeInMemoryBytes@asCDataType@@QEBAHXZ 0000000180042810 f   as_datatype.obj
 0001:0004186c       ?GetSizeInMemoryDWords@asCDataType@@QEBAHXZ 000000018004286c f   as_datatype.obj
 0001:000418a0       ?GetSizeOnStackDWords@asCDataType@@QEBAHXZ 00000001800428a0 f   as_datatype.obj
 0001:000418dc       ??1asCGarbageCollector@@QEAA@XZ 00000001800428dc f   as_gc.obj
 0001:000419b0       ?AddScriptObjectToGC@asCGarbageCollector@@QEAAHPEAXPEAVasCObjectType@@@Z 00000001800429b0 f   as_gc.obj
 0001:00041aec       ?GetStatistics@asCGarbageCollector@@QEBAXPEAI0000@Z 0000000180042aec f   as_gc.obj
 0001:00041b38       ?GetOldObjectAtIdx@asCGarbageCollector@@IEAA?AUasSObjTypePair@1@H@Z 0000000180042b38 f   as_gc.obj
 0001:00041bac       ?RemoveOldObjectAtIdx@asCGarbageCollector@@IEAAXH@Z 0000000180042bac f   as_gc.obj
 0001:00041c28       ?MoveObjectToOldList@asCGarbageCollector@@IEAAXH@Z 0000000180042c28 f   as_gc.obj
 0001:00041cc0       ?DestroyNewGarbage@asCGarbageCollector@@IEAAHXZ 0000000180042cc0 f   as_gc.obj
 0001:00041eac       ?ReportAndReleaseUndestroyedObjects@asCGarbageCollector@@QEAAHXZ 0000000180042eac f   as_gc.obj
 0001:0004212c       ?DestroyOldGarbage@asCGarbageCollector@@IEAAHXZ 000000018004312c f   as_gc.obj
 0001:000422f4       ?IdentifyGarbageWithCyclicRefs@asCGarbageCollector@@IEAAHXZ 00000001800432f4 f   as_gc.obj
 0001:00042918       ?ReturnNode@asCGarbageCollector@@IEAAXPEAU?$asSMapNode@PEAXUasSIntTypePair@asCGarbageCollector@@@@@Z 0000000180043918 f   as_gc.obj
 0001:0004297c       ??1?$asCArray@UasSObjTypePair@asCGarbageCollector@@@@QEAA@XZ 000000018004397c f i as_gc.obj
 0001:00042988       ?PushLast@?$asCArray@UasSObjTypePair@asCGarbageCollector@@@@QEAAXAEBUasSObjTypePair@asCGarbageCollector@@@Z 0000000180043988 f i as_gc.obj
 0001:000429f8       ??1?$asCMap@PEAXUasSIntTypePair@asCGarbageCollector@@@@QEAA@XZ 00000001800439f8 f i as_gc.obj
 0001:00042a14       ?Insert@?$asCMap@PEAXUasSIntTypePair@asCGarbageCollector@@@@QEAAHPEAU?$asSMapNode@PEAXUasSIntTypePair@asCGarbageCollector@@@@@Z 0000000180043a14 f i as_gc.obj
 0001:00042b5c       ?Remove@?$asCMap@PEAXUasSIntTypePair@asCGarbageCollector@@@@QEAAPEAU?$asSMapNode@PEAXUasSIntTypePair@asCGarbageCollector@@@@PEAU2@@Z 0000000180043b5c f i as_gc.obj
 0001:00042c4c       ?MoveNext@?$asCMap@PEAXUasSIntTypePair@asCGarbageCollector@@@@QEBA_NPEAPEAU?$asSMapNode@PEAXUasSIntTypePair@asCGarbageCollector@@@@PEAU2@@Z 0000000180043c4c f i as_gc.obj
 0001:00042c9c       ?Allocate@?$asCArray@UasSObjTypePair@asCGarbageCollector@@@@QEAAX_K_N@Z 0000000180043c9c f i as_gc.obj
 0001:00042df4       ?EraseAll@?$asCMap@PEAXUasSIntTypePair@asCGarbageCollector@@@@IEAAHPEAU?$asSMapNode@PEAXUasSIntTypePair@asCGarbageCollector@@@@@Z 0000000180043df4 f i as_gc.obj
 0001:00042e3c       ??_EasIScriptGeneric@@MEAAPEAXI@Z 0000000180043e3c f i  CIL library: CIL module
 0001:00042e3c       ??_GasCGeneric@@UEAAPEAXI@Z 0000000180043e3c f i as_generic.obj
 0001:00042e3c       ??_GasIScriptGeneric@@MEAAPEAXI@Z 0000000180043e3c f i as_generic.obj
 0001:00042e3c       ??_EasCGeneric@@UEAAPEAXI@Z 0000000180043e3c f i  CIL library: CIL module
 0001:00042e64       ??1asCGeneric@@UEAA@XZ     0000000180043e64 f   as_generic.obj
 0001:00042e70       ?GetObjectTypeId@asCGeneric@@UEBAHXZ 0000000180043e70 f   as_generic.obj
 0001:00042ea4       ?GetArgCount@asCGeneric@@UEBAHXZ 0000000180043ea4 f   as_generic.obj
 0001:00042eac       ?GetArgByte@asCGeneric@@UEAAEI@Z 0000000180043eac f   as_generic.obj
 0001:00042f28       ?GetArgWord@asCGeneric@@UEAAGI@Z 0000000180043f28 f   as_generic.obj
 0001:00042fa8       ?GetArgDWord@asCGeneric@@UEAAKI@Z 0000000180043fa8 f   as_generic.obj
 0001:00043024       ?GetArgQWord@asCGeneric@@UEAA_KI@Z 0000000180044024 f   as_generic.obj
 0001:000430a0       ?GetArgFloat@asCGeneric@@UEAAMI@Z 00000001800440a0 f   as_generic.obj
 0001:00043120       ?GetArgDouble@asCGeneric@@UEAANI@Z 0000000180044120 f   as_generic.obj
 0001:000431a0       ?GetArgAddress@asCGeneric@@UEAAPEAXI@Z 00000001800441a0 f   as_generic.obj
 0001:00043200       ?GetArgObject@asCGeneric@@UEAAPEAXI@Z 0000000180044200 f   as_generic.obj
 0001:0004326c       ?GetAddressOfArg@asCGeneric@@UEAAPEAXI@Z 000000018004426c f   as_generic.obj
 0001:0004330c       ?GetArgTypeId@asCGeneric@@UEBAHIPEAK@Z 000000018004430c f   as_generic.obj
 0001:000433bc       ?SetReturnByte@asCGeneric@@UEAAHE@Z 00000001800443bc f   as_generic.obj
 0001:00043408       ?SetReturnWord@asCGeneric@@UEAAHG@Z 0000000180044408 f   as_generic.obj
 0001:00043454       ?SetReturnDWord@asCGeneric@@UEAAHK@Z 0000000180044454 f   as_generic.obj
 0001:000434a0       ?SetReturnQWord@asCGeneric@@UEAAH_K@Z 00000001800444a0 f   as_generic.obj
 0001:000434ec       ?SetReturnFloat@asCGeneric@@UEAAHM@Z 00000001800444ec f   as_generic.obj
 0001:00043538       ?SetReturnDouble@asCGeneric@@UEAAHN@Z 0000000180044538 f   as_generic.obj
 0001:00043584       ?SetReturnAddress@asCGeneric@@UEAAHPEAX@Z 0000000180044584 f   as_generic.obj
 0001:000435ac       ?SetReturnObject@asCGeneric@@UEAAHPEAX@Z 00000001800445ac f   as_generic.obj
 0001:00043670       ?GetReturnPointer@asCGeneric@@QEAAPEAXXZ 0000000180044670 f   as_generic.obj
 0001:0004369c       ?GetAddressOfReturnLocation@asCGeneric@@UEAAPEAXXZ 000000018004469c f   as_generic.obj
 0001:000436e8       ?GetReturnTypeId@asCGeneric@@UEBAHPEAK@Z 00000001800446e8 f   as_generic.obj
 0001:000436f8       ?AddRef@asCGlobalProperty@@QEAAXXZ 00000001800446f8 f   as_globalproperty.obj
 0001:00043704       ?Release@asCGlobalProperty@@QEAAXXZ 0000000180044704 f   as_globalproperty.obj
 0001:0004373c       ?GetRefCount@asCGlobalProperty@@QEAAHXZ 000000018004473c f   as_globalproperty.obj
 0001:00043740       ?SetGCFlag@asCGlobalProperty@@QEAAXXZ 0000000180044740 f   as_globalproperty.obj
 0001:00043748       ?GetGCFlag@asCGlobalProperty@@QEAA_NXZ 0000000180044748 f   as_globalproperty.obj
 0001:0004374c       ?EnumReferences@asCGlobalProperty@@QEAAXPEAVasIScriptEngine@@@Z 000000018004474c f   as_globalproperty.obj
 0001:00043760       ?ReleaseAllHandles@asCGlobalProperty@@QEAAXPEAVasIScriptEngine@@@Z 0000000180044760 f   as_globalproperty.obj
 0001:00043784       ?Orphan@asCGlobalProperty@@QEAAXPEAVasCModule@@@Z 0000000180044784 f   as_globalproperty.obj
 0001:000437e8       ?RegisterGCBehaviours@asCGlobalProperty@@SAXPEAVasCScriptEngine@@@Z 00000001800447e8 f   as_globalproperty.obj
 0001:00043a88       asSetGlobalMemoryFunctions 0000000180044a88 f   as_memory.obj
 0001:00043a9c       asResetGlobalMemoryFunctions 0000000180044a9c f   as_memory.obj
 0001:00043ac8       ??1asCMemoryMgr@@QEAA@XZ   0000000180044ac8 f   as_memory.obj
 0001:00043b14       ?FreeUnusedMemory@asCMemoryMgr@@QEAAXXZ 0000000180044b14 f   as_memory.obj
 0001:00043bb0       ?AllocScriptNode@asCMemoryMgr@@QEAAPEAXXZ 0000000180044bb0 f   as_memory.obj
 0001:00043c04       ?FreeByteInstruction@asCMemoryMgr@@QEAAXPEAX@Z 0000000180044c04 f   as_memory.obj
 0001:00043c3c       ??1asIScriptModule@@MEAA@XZ 0000000180044c3c f i as_module.obj
 0001:00043c48       ??_EasIScriptModule@@MEAAPEAXI@Z 0000000180044c48 f i  CIL library: CIL module
 0001:00043c48       ??_GasIScriptModule@@MEAAPEAXI@Z 0000000180044c48 f i as_module.obj
 0001:00043c70       ??RasCCompGlobPropType@@UEBA_NPEBX@Z 0000000180044c70 f i as_module.obj
 0001:00043c80       ??0asCModule@@QEAA@PEBDPEAVasCScriptEngine@@@Z 0000000180044c80 f   as_module.obj
 0001:00043df4       ??_GasCModule@@UEAAPEAXI@Z 0000000180044df4 f i as_module.obj
 0001:00043df4       ??_EasCModule@@UEAAPEAXI@Z 0000000180044df4 f i  CIL library: CIL module
 0001:00043e24       ??1asCModule@@UEAA@XZ      0000000180044e24 f   as_module.obj
 0001:00043fe4       ?Discard@asCModule@@UEAAXXZ 0000000180044fe4 f   as_module.obj
 0001:00044008       ?SetUserData@asCModule@@UEAAPEAXPEAX@Z 0000000180045008 f   as_module.obj
 0001:00044014       ?GetUserData@asCModule@@UEBAPEAXXZ 0000000180045014 f   as_module.obj
 0001:0004401c       ?GetEngine@asCModule@@UEBAPEAVasIScriptEngine@@XZ 000000018004501c f   as_module.obj
 0001:0004401c       ?GetUserData@asCScriptFunction@@UEBAPEAXXZ 000000018004501c f   as_scriptfunction.obj
 0001:00044024       ?SetName@asCModule@@UEAAXPEBD@Z 0000000180045024 f   as_module.obj
 0001:00044030       ?GetDefaultNamespace@asCModule@@UEBAPEBDXZ 0000000180045030 f   as_module.obj
 0001:00044044       ?SetDefaultNamespace@asCModule@@UEAAHPEBD@Z 0000000180045044 f   as_module.obj
 0001:0004418c       ?AddScriptSection@asCModule@@UEAAHPEBD0_KH@Z 000000018004518c f   as_module.obj
 0001:00044254       ?JITCompile@asCModule@@QEAAXXZ 0000000180045254 f   as_module.obj
 0001:000442ac       ?Build@asCModule@@UEAAHXZ  00000001800452ac f   as_module.obj
 0001:000443e8       ?ResetGlobalVars@asCModule@@UEAAHPEAVasIScriptContext@@@Z 00000001800453e8 f   as_module.obj
 0001:0004441c       ?GetFunctionByIndex@asCModule@@UEBAPEAVasIScriptFunction@@I@Z 000000018004541c f   as_module.obj
 0001:00044438       ?CallInit@asCModule@@QEAAHPEAVasIScriptContext@@@Z 0000000180045438 f   as_module.obj
 0001:00044760       ?CallExit@asCModule@@QEAAXXZ 0000000180045760 f   as_module.obj
 0001:00044838       ?InternalReset@asCModule@@QEAAXXZ 0000000180045838 f   as_module.obj
 0001:00044ba8       ?GetFunctionByName@asCModule@@UEBAPEAVasIScriptFunction@@PEBD@Z 0000000180045ba8 f   as_module.obj
 0001:00044c34       ?GetImportedFunctionCount@asCModule@@UEBAIXZ 0000000180045c34 f   as_module.obj
 0001:00044c3c       ?GetImportedFunctionIndexByDecl@asCModule@@UEBAHPEBD@Z 0000000180045c3c f   as_module.obj
 0001:00044de8       ?GetFunctionCount@asCModule@@UEBAIXZ 0000000180045de8 f   as_module.obj
 0001:00044df0       ?GetFunctionByDecl@asCModule@@UEBAPEAVasIScriptFunction@@PEBD@Z 0000000180045df0 f   as_module.obj
 0001:00045000       ?GetGlobalVarCount@asCModule@@UEBAIXZ 0000000180046000 f   as_module.obj
 0001:00045008       ?GetGlobalVarIndexByName@asCModule@@UEBAHPEBD@Z 0000000180046008 f   as_module.obj
 0001:00045068       ?RemoveGlobalVar@asCModule@@UEAAHI@Z 0000000180046068 f   as_module.obj
 0001:000450b4       ?GetGlobalVarIndexByDecl@asCModule@@UEBAHPEBD@Z 00000001800460b4 f   as_module.obj
 0001:000451f0       ?GetAddressOfGlobalVar@asCModule@@UEAAPEAXI@Z 00000001800461f0 f   as_module.obj
 0001:0004523c       ?GetGlobalVarDeclaration@asCModule@@UEBAPEBDI_N@Z 000000018004623c f   as_module.obj
 0001:00045334       ?GetGlobalVar@asCModule@@UEBAHIPEAPEBD0PEAHPEA_N@Z 0000000180046334 f   as_module.obj
 0001:000453cc       ?GetObjectTypeCount@asCModule@@UEBAIXZ 00000001800463cc f   as_module.obj
 0001:000453d4       ?GetObjectTypeByIndex@asCModule@@UEBAPEAVasIObjectType@@I@Z 00000001800463d4 f   as_module.obj
 0001:000453f0       ?GetObjectTypeByName@asCModule@@UEBAPEAVasIObjectType@@PEBD@Z 00000001800463f0 f   as_module.obj
 0001:0004547c       ?GetTypeIdByDecl@asCModule@@UEBAHPEBD@Z 000000018004647c f   as_module.obj
 0001:00045520       ?GetRefCount@asCObjectType@@QEAAHXZ 0000000180046520 f   as_objecttype.obj
 0001:00045520       ?GetEnumCount@asCModule@@UEBAIXZ 0000000180046520 f   as_module.obj
 0001:00045528       ?GetEnumByIndex@asCModule@@UEBAPEBDIPEAHPEAPEBD@Z 0000000180046528 f   as_module.obj
 0001:000455d4       ?GetEnumValueCount@asCModule@@UEBAHH@Z 00000001800465d4 f   as_module.obj
 0001:00045618       ?GetEnumValueByIndex@asCModule@@UEBAPEBDHIPEAH@Z 0000000180046618 f   as_module.obj
 0001:000456a4       ?GetTypedefCount@asCModule@@UEBAIXZ 00000001800466a4 f   as_module.obj
 0001:000456ac       ?GetTypedefByIndex@asCModule@@UEBAPEBDIPEAHPEAPEBD@Z 00000001800466ac f   as_module.obj
 0001:00045750       ?AddScriptFunction@asCModule@@QEAAHHHHAEBVasCString@@AEBVasCDataType@@AEBV?$asCArray@VasCDataType@@@@AEBV?$asCArray@W4asETypeModifiers@@@@AEBV?$asCArray@PEAVasCString@@@@_NPEAVasCObjectType@@555555PEAUasSNameSpace@@@Z 0000000180046750 f   as_module.obj
 0001:000459f8       ?AddScriptFunction@asCModule@@QEAAHPEAVasCScriptFunction@@@Z 00000001800469f8 f   as_module.obj
 0001:00045a40       ?AddImportedFunction@asCModule@@QEAAHHAEBVasCString@@AEBVasCDataType@@AEBV?$asCArray@VasCDataType@@@@AEBV?$asCArray@W4asETypeModifiers@@@@AEBV?$asCArray@PEAVasCString@@@@PEAUasSNameSpace@@0@Z 0000000180046a40 f   as_module.obj
 0001:00045c78       ?BindImportedFunction@asCModule@@UEAAHIPEAVasIScriptFunction@@@Z 0000000180046c78 f   as_module.obj
 0001:00045d98       ?UnbindImportedFunction@asCModule@@UEAAHI@Z 0000000180046d98 f   as_module.obj
 0001:00045df0       ?GetImportedFunctionDeclaration@asCModule@@UEBAPEBDI@Z 0000000180046df0 f   as_module.obj
 0001:00045e7c       ?GetImportedFunctionSourceModule@asCModule@@UEBAPEBDI@Z 0000000180046e7c f   as_module.obj
 0001:00045ea8       ?BindAllImportedFunctions@asCModule@@UEAAHXZ 0000000180046ea8 f   as_module.obj
 0001:00045ff0       ?UnbindAllImportedFunctions@asCModule@@UEAAHXZ 0000000180046ff0 f   as_module.obj
 0001:0004603c       ?GetObjectType@asCModule@@QEAAPEAVasCObjectType@@PEBDPEAUasSNameSpace@@@Z 000000018004703c f   as_module.obj
 0001:0004614c       ?AllocateGlobalProperty@asCModule@@QEAAPEAVasCGlobalProperty@@PEBDAEBVasCDataType@@PEAUasSNameSpace@@@Z 000000018004714c f   as_module.obj
 0001:00046248       ?SaveByteCode@asCModule@@UEBAHPEAVasIBinaryStream@@_N@Z 0000000180047248 f   as_module.obj
 0001:000462a0       ??1asCWriter@@QEAA@XZ      00000001800472a0 f i as_module.obj
 0001:000463dc       ?LoadByteCode@asCModule@@UEAAHPEAVasIBinaryStream@@PEA_N@Z 00000001800473dc f   as_module.obj
 0001:0004647c       ??1asCReader@@QEAA@XZ      000000018004747c f i as_module.obj
 0001:000465cc       ?CompileGlobalVar@asCModule@@UEAAHPEBD0H@Z 00000001800475cc f   as_module.obj
 0001:000467d0       ?CompileFunction@asCModule@@UEAAHPEBD0HKPEAPEAVasIScriptFunction@@@Z 00000001800477d0 f   as_module.obj
 0001:00046980       ?RemoveFunction@asCModule@@UEAAHPEAVasIScriptFunction@@@Z 0000000180047980 f   as_module.obj
 0001:000469fc       ?AddFuncDef@asCModule@@QEAAHAEBVasCString@@PEAUasSNameSpace@@@Z 00000001800479fc f   as_module.obj
 0001:00046af4       ?SetAccessMask@asCModule@@UEAAKK@Z 0000000180047af4 f   as_module.obj
 0001:00046afc       ?GetFirstIndex@?$asCSymbolTable@VasCGlobalProperty@@@@QEBAHPEBUasSNameSpace@@AEBVasCString@@AEBUasIFilter@@@Z 0000000180047afc f i as_module.obj
 0001:00046bf0       ?List@?$asCSymbolTable@VasCGlobalProperty@@@@QEAA?AV?$asCSymbolTableIterator@VasCGlobalProperty@@V1@@@XZ 0000000180047bf0 f i as_module.obj
 0001:00046c1c       ?Insert@?$asCMap@PEAXPEAVasCGlobalProperty@@@@QEAAHAEBQEAXAEBQEAVasCGlobalProperty@@@Z 0000000180047c1c f i as_module.obj
 0001:00046c90       ??1?$asCMap@VasCStringPointer@@H@@QEAA@XZ 0000000180047c90 f i as_module.obj
 0001:00046cac       ??1?$asCMap@PEAXPEAVasCGlobalProperty@@@@QEAA@XZ 0000000180047cac f i as_scriptengine.obj
 0001:00046cac       ??1?$asCMap@PEAVasCScriptFunction@@_N@@QEAA@XZ 0000000180047cac f i as_module.obj
 0001:00046cac       ??1?$asCMap@PEAX_N@@QEAA@XZ 0000000180047cac f i as_module.obj
 0001:00046cc8       ??1?$asCMap@HPEAVasCDataType@@@@QEAA@XZ 0000000180047cc8 f i as_scriptengine.obj
 0001:00046cc8       ??1?$asCMap@HH@@QEAA@XZ    0000000180047cc8 f i as_module.obj
 0001:00046ce4       ??E?$asCSymbolTableIterator@VasCGlobalProperty@@V1@@@QEAAAEAV0@H@Z 0000000180047ce4 f i as_module.obj
 0001:00046d18       ?Insert@?$asCMap@PEAVasCScriptFunction@@_N@@QEAAHPEAU?$asSMapNode@PEAVasCScriptFunction@@_N@@@Z 0000000180047d18 f i as_restore.obj
 0001:00046d18       ?Insert@?$asCMap@PEAXPEAVasCGlobalProperty@@@@QEAAHPEAU?$asSMapNode@PEAXPEAVasCGlobalProperty@@@@@Z 0000000180047d18 f i as_module.obj
 0001:00046d18       ?Insert@?$asCMap@PEAX_N@@QEAAHPEAU?$asSMapNode@PEAX_N@@@Z 0000000180047d18 f i as_restore.obj
 0001:00046e60       ?EraseAll@?$asCMap@VasCStringPointer@@H@@IEAAHPEAU?$asSMapNode@VasCStringPointer@@H@@@Z 0000000180047e60 f i as_module.obj
 0001:00046ea8       ?EraseAll@?$asCMap@PEAX_N@@IEAAHPEAU?$asSMapNode@PEAX_N@@@Z 0000000180047ea8 f i as_module.obj
 0001:00046ea8       ?EraseAll@?$asCMap@PEAXPEAVasCGlobalProperty@@@@IEAAHPEAU?$asSMapNode@PEAXPEAVasCGlobalProperty@@@@@Z 0000000180047ea8 f i as_scriptengine.obj
 0001:00046ea8       ?EraseAll@?$asCMap@PEAVasCScriptFunction@@_N@@IEAAHPEAU?$asSMapNode@PEAVasCScriptFunction@@_N@@@Z 0000000180047ea8 f i as_module.obj
 0001:00046ef0       ?EraseAll@?$asCMap@HPEAVasCDataType@@@@IEAAHPEAU?$asSMapNode@HPEAVasCDataType@@@@@Z 0000000180047ef0 f i as_scriptengine.obj
 0001:00046ef0       ?EraseAll@?$asCMap@HH@@IEAAHPEAU?$asSMapNode@HH@@@Z 0000000180047ef0 f i as_module.obj
 0001:00046f38       ??1asIObjectType@@MEAA@XZ  0000000180047f38 f i as_objecttype.obj
 0001:00046f44       ??_GasIObjectType@@MEAAPEAXI@Z 0000000180047f44 f i as_objecttype.obj
 0001:00046f44       ??_EasIObjectType@@MEAAPEAXI@Z 0000000180047f44 f i  CIL library: CIL module
 0001:00046f6c       ?RegisterObjectTypeGCBehaviours@@YAXPEAVasCScriptEngine@@@Z 0000000180047f6c f   as_objecttype.obj
 0001:0004720c       ??0asCObjectType@@IEAA@XZ  000000018004820c f   as_objecttype.obj
 0001:00047370       ??_GasCObjectType@@UEAAPEAXI@Z 0000000180048370 f i as_objecttype.obj
 0001:00047370       ??_EasCObjectType@@UEAAPEAXI@Z 0000000180048370 f i  CIL library: CIL module
 0001:000473a0       ??1asSTypeBehaviour@@QEAA@XZ 00000001800483a0 f i as_objecttype.obj
 0001:000473e8       ??0asCObjectType@@QEAA@PEAVasCScriptEngine@@@Z 00000001800483e8 f   as_objecttype.obj
 0001:0004755c       ?AddRef@asCObjectType@@UEBAHXZ 000000018004855c f   as_objecttype.obj
 0001:00047574       ?Release@asCObjectType@@UEBAHXZ 0000000180048574 f   as_objecttype.obj
 0001:0004758c       ?GetModule@asCObjectType@@UEBAPEAVasIScriptModule@@XZ 000000018004858c f   as_objecttype.obj
 0001:00047594       ?SetUserData@asCObjectType@@UEAAPEAXPEAX_K@Z 0000000180048594 f   as_objecttype.obj
 0001:0004765c       ?GetUserData@asCObjectType@@UEBAPEAX_K@Z 000000018004865c f   as_objecttype.obj
 0001:0004770c       ?GetGCFlag@asCObjectType@@QEAA_NXZ 000000018004870c f   as_objecttype.obj
 0001:00047714       ?SetGCFlag@asCObjectType@@QEAAXXZ 0000000180048714 f   as_objecttype.obj
 0001:0004771c       ??1asCObjectType@@UEAA@XZ  000000018004871c f   as_objecttype.obj
 0001:00047970       ?Implements@asCObjectType@@UEBA_NPEBVasIObjectType@@@Z 0000000180048970 f   as_objecttype.obj
 0001:000479a0       ?DerivesFrom@asCObjectType@@UEBA_NPEBVasIObjectType@@@Z 00000001800489a0 f   as_objecttype.obj
 0001:000479c4       ?GetName@asCModule@@UEBAPEBDXZ 00000001800489c4 f   as_module.obj
 0001:000479c4       ?GetName@asCObjectType@@UEBAPEBDXZ 00000001800489c4 f   as_objecttype.obj
 0001:000479d4       ?GetNamespace@asCObjectType@@UEBAPEBDXZ 00000001800489d4 f   as_objecttype.obj
 0001:000479e8       ?GetFlags@asCObjectType@@UEBAKXZ 00000001800489e8 f   as_objecttype.obj
 0001:000479e8       ?GetFuncType@asCScriptFunction@@UEBA?AW4asEFuncType@@XZ 00000001800489e8 f   as_scriptfunction.obj
 0001:000479f0       ?GetSize@asCObjectType@@UEBAIXZ 00000001800489f0 f   as_objecttype.obj
 0001:000479f4       ?GetTypeId@asCObjectType@@UEBAHXZ 00000001800489f4 f   as_objecttype.obj
 0001:00047a20       ?GetSubTypeId@asCObjectType@@UEBAHI@Z 0000000180048a20 f   as_objecttype.obj
 0001:00047a60       ?GetSubType@asCObjectType@@UEBAPEAVasIObjectType@@I@Z 0000000180048a60 f   as_objecttype.obj
 0001:00047a88       ?GetSubTypeCount@asCObjectType@@UEBAIXZ 0000000180048a88 f   as_objecttype.obj
 0001:00047a90       ?GetInterfaceCount@asCObjectType@@UEBAIXZ 0000000180048a90 f   as_objecttype.obj
 0001:00047a94       ?GetInterface@asCObjectType@@UEBAPEAVasIObjectType@@I@Z 0000000180048a94 f   as_objecttype.obj
 0001:00047aa0       ?GetEngine@asCObjectType@@UEBAPEAVasIScriptEngine@@XZ 0000000180048aa0 f   as_objecttype.obj
 0001:00047aa8       ?GetFactoryCount@asCObjectType@@UEBAIXZ 0000000180048aa8 f   as_objecttype.obj
 0001:00047ab0       ?GetFactoryByIndex@asCObjectType@@UEBAPEAVasIScriptFunction@@I@Z 0000000180048ab0 f   as_objecttype.obj
 0001:00047ae4       ?GetFactoryByDecl@asCObjectType@@UEBAPEAVasIScriptFunction@@PEBD@Z 0000000180048ae4 f   as_objecttype.obj
 0001:00047b34       ?GetMethodCount@asCObjectType@@UEBAIXZ 0000000180048b34 f   as_objecttype.obj
 0001:00047b38       ?GetMethodByIndex@asCObjectType@@UEBAPEAVasIScriptFunction@@I_N@Z 0000000180048b38 f   as_objecttype.obj
 0001:00047b88       ?GetMethodByName@asCObjectType@@UEBAPEAVasIScriptFunction@@PEBD_N@Z 0000000180048b88 f   as_objecttype.obj
 0001:00047c4c       ?GetMethodByDecl@asCObjectType@@UEBAPEAVasIScriptFunction@@PEBD_N@Z 0000000180048c4c f   as_objecttype.obj
 0001:00047cec       ?GetPropertyCount@asCObjectType@@UEBAIXZ 0000000180048cec f   as_objecttype.obj
 0001:00047cf0       ?GetProperty@asCObjectType@@UEBAHIPEAPEBDPEAHPEA_N12PEAK@Z 0000000180048cf0 f   as_objecttype.obj
 0001:00047dc8       ?GetPropertyDeclaration@asCObjectType@@UEBAPEBDI_N@Z 0000000180048dc8 f   as_objecttype.obj
 0001:00047eb4       ?GetBaseType@asCObjectType@@UEBAPEAVasIObjectType@@XZ 0000000180048eb4 f   as_objecttype.obj
 0001:00047ebc       ?GetBehaviourCount@asCObjectType@@UEBAIXZ 0000000180048ebc f   as_objecttype.obj
 0001:00047f50       ?GetBehaviourByIndex@asCObjectType@@UEBAPEAVasIScriptFunction@@IPEAW4asEBehaviours@@@Z 0000000180048f50 f   as_objecttype.obj
 0001:000481ac       ?GetConfigGroup@asCObjectType@@UEBAPEBDXZ 00000001800491ac f   as_objecttype.obj
 0001:000481d8       ?AddPropertyToClass@asCObjectType@@QEAAPEAVasCObjectProperty@@AEBVasCString@@AEBVasCDataType@@_N@Z 00000001800491d8 f   as_objecttype.obj
 0001:0004835c       ?ReleaseAllProperties@asCObjectType@@QEAAXXZ 000000018004935c f   as_objecttype.obj
 0001:00048414       ?ReleaseAllHandles@asCObjectType@@QEAAXPEAVasIScriptEngine@@@Z 0000000180049414 f   as_objecttype.obj
 0001:00048430       ?ReleaseAllFunctions@asCObjectType@@QEAAXXZ 0000000180049430 f   as_objecttype.obj
 0001:0004881c       ?EnumReferences@asCObjectType@@QEAAXPEAVasIScriptEngine@@@Z 000000018004981c f   as_objecttype.obj
 0001:00048c38       ??_9asCObjectType@@$BCA@AA 0000000180049c38 f i as_objecttype.obj
 0001:00048c40       ??_9asCObjectType@@$BCI@AA 0000000180049c40 f i as_objecttype.obj
 0001:00048c48       ??1asCOutputBuffer@@QEAA@XZ 0000000180049c48 f   as_outputbuffer.obj
 0001:00048c78       ?Clear@asCOutputBuffer@@QEAAXXZ 0000000180049c78 f   as_outputbuffer.obj
 0001:00048d14       ?Callback@asCOutputBuffer@@QEAAXPEAUasSMessageInfo@@@Z 0000000180049d14 f   as_outputbuffer.obj
 0001:00048da4       ?SendToCallback@asCOutputBuffer@@QEAAXPEAVasCScriptEngine@@PEAUasSSystemFunctionInterface@@PEAX@Z 0000000180049da4 f   as_outputbuffer.obj
 0001:00048ea4       ?PushLast@?$asCArray@PEAUasSEnumValue@@@@QEAAXAEBQEAUasSEnumValue@@@Z 0000000180049ea4 f i as_builder.obj
 0001:00048ea4       ?PushLast@?$asCArray@PEAUmessage_t@asCOutputBuffer@@@@QEAAXAEBQEAUmessage_t@asCOutputBuffer@@@Z 0000000180049ea4 f i as_outputbuffer.obj
 0001:00048ea4       ?PushLast@?$asCArray@PEAUasSExprContext@@@@QEAAXAEBQEAUasSExprContext@@@Z 0000000180049ea4 f i as_compiler.obj
 0001:00048ea4       ?PushLast@?$asCArray@PEAVasCScriptCode@@@@QEAAXAEBQEAVasCScriptCode@@@Z 0000000180049ea4 f i as_builder.obj
 0001:00048ea4       ?PushLast@?$asCArray@PEAVasCByteInstruction@@@@QEAAXAEBQEAVasCByteInstruction@@@Z 0000000180049ea4 f i as_bytecode.obj
 0001:00048ea4       ?PushLast@?$asCArray@PEAVasCGlobalProperty@@@@QEAAXAEBQEAVasCGlobalProperty@@@Z 0000000180049ea4 f i as_builder.obj
 0001:00048ea4       ?PushLast@?$asCArray@PEAVasCScriptFunction@@@@QEAAXAEBQEAVasCScriptFunction@@@Z 0000000180049ea4 f i as_builder.obj
 0001:00048ea4       ?PushLast@?$asCArray@PEAVasCObjectType@@@@QEAAXAEBQEAVasCObjectType@@@Z 0000000180049ea4 f i as_builder.obj
 0001:00048ea4       ?PushLast@?$asCArray@PEAUsClassDeclaration@@@@QEAAXAEBQEAUsClassDeclaration@@@Z 0000000180049ea4 f i as_builder.obj
 0001:00048ea4       ?PushLast@?$asCArray@PEAUsBindInfo@@@@QEAAXAEBQEAUsBindInfo@@@Z 0000000180049ea4 f i as_module.obj
 0001:00048ea4       ?PushLast@?$asCArray@PEAUasSScriptVariable@@@@QEAAXAEBQEAUasSScriptVariable@@@Z 0000000180049ea4 f i as_restore.obj
 0001:00048ea4       ?PushLast@?$asCArray@PEAVasCScriptNode@@@@QEAAXAEBQEAVasCScriptNode@@@Z 0000000180049ea4 f i as_compiler.obj
 0001:00048ea4       ?PushLast@?$asCArray@PEAVasCObjectProperty@@@@QEAAXAEBQEAVasCObjectProperty@@@Z 0000000180049ea4 f i as_objecttype.obj
 0001:00048ea4       ?PushLast@?$asCArray@PEAX@@QEAAXAEBQEAX@Z 0000000180049ea4 f i as_gc.obj
 0001:00048ea4       ?PushLast@?$asCArray@PEAVasCString@@@@QEAAXAEBQEAVasCString@@@Z 0000000180049ea4 f i as_builder.obj
 0001:00048ea4       ?PushLast@?$asCArray@PEAVasCConfigGroup@@@@QEAAXAEBQEAVasCConfigGroup@@@Z 0000000180049ea4 f i as_configgroup.obj
 0001:00048ea4       ?PushLast@?$asCArray@_K@@QEAAXAEB_K@Z 0000000180049ea4 f i as_objecttype.obj
 0001:00048ea4       ?PushLast@?$asCArray@PEAUsFunctionDescription@@@@QEAAXAEBQEAUsFunctionDescription@@@Z 0000000180049ea4 f i as_builder.obj
 0001:00048f00       ??1asCParser@@QEAA@XZ      0000000180049f00 f   as_parser.obj
 0001:00048f38       ?Reset@asCParser@@IEAAXXZ  0000000180049f38 f   as_parser.obj
 0001:00048f7c       ?CreateNode@asCParser@@IEAAPEAVasCScriptNode@@W4eScriptNode@@@Z 0000000180049f7c f   as_parser.obj
 0001:00048fd4       ?ParseTemplateDecl@asCParser@@QEAAHPEAVasCScriptCode@@@Z 0000000180049fd4 f   as_parser.obj
 0001:00049230       ?ParsePropertyDeclaration@asCParser@@QEAAHPEAVasCScriptCode@@@Z 000000018004a230 f   as_parser.obj
 0001:00049328       ?ParseOptionalScope@asCParser@@IEAAXPEAVasCScriptNode@@@Z 000000018004a328 f   as_parser.obj
 0001:00049464       ?ParseFunctionDefinition@asCParser@@IEAAPEAVasCScriptNode@@XZ 000000018004a464 f   as_parser.obj
 0001:00049564       ?ParseTypeMod@asCParser@@IEAAPEAVasCScriptNode@@_N@Z 000000018004a564 f   as_parser.obj
 0001:000496d0       ?ParseType@asCParser@@IEAAPEAVasCScriptNode@@_N0@Z 000000018004a6d0 f   as_parser.obj
 0001:00049a44       ?ParseToken@asCParser@@IEAAPEAVasCScriptNode@@H@Z 000000018004aa44 f   as_parser.obj
 0001:00049af8       ?ParseOneOf@asCParser@@IEAAPEAVasCScriptNode@@PEAHH@Z 000000018004aaf8 f   as_parser.obj
 0001:00049bc0       ?ParseDataType@asCParser@@IEAAPEAVasCScriptNode@@_N@Z 000000018004abc0 f   as_parser.obj
 0001:00049d0c       ?ParseRealType@asCParser@@IEAAPEAVasCScriptNode@@XZ 000000018004ad0c f   as_parser.obj
 0001:00049db8       ?ParseIdentifier@asCParser@@IEAAPEAVasCScriptNode@@XZ 000000018004adb8 f   as_parser.obj
 0001:00049e60       ?ParseParameterList@asCParser@@IEAAPEAVasCScriptNode@@XZ 000000018004ae60 f   as_parser.obj
 0001:0004a0ec       ?SuperficiallyParseExpression@asCParser@@IEAAPEAVasCScriptNode@@XZ 000000018004b0ec f   as_parser.obj
 0001:0004a614       ?GetToken@asCParser@@IEAAXPEAUsToken@@@Z 000000018004b614 f   as_parser.obj
 0001:0004a6ec       ?Error@asCParser@@IEAAXAEBVasCString@@PEAUsToken@@@Z 000000018004b6ec f   as_parser.obj
 0001:0004a76c       ?Info@asCParser@@IEAAXAEBVasCString@@PEAUsToken@@@Z 000000018004b76c f   as_parser.obj
 0001:0004a7f0       ?IsRealType@asCParser@@IEAA_NH@Z 000000018004b7f0 f   as_parser.obj
 0001:0004a834       ?IsDataType@asCParser@@IEAA_NAEBUsToken@@@Z 000000018004b834 f   as_parser.obj
 0001:0004a8d0       ?ExpectedToken@asCParser@@IEAA?AVasCString@@PEBD@Z 000000018004b8d0 f   as_parser.obj
 0001:0004a914       ?ExpectedTokens@asCParser@@IEAA?AVasCString@@PEBD0@Z 000000018004b914 f   as_parser.obj
 0001:0004a958       ?ExpectedOneOf@asCParser@@IEAA?AVasCString@@PEAHH@Z 000000018004b958 f   as_parser.obj
 0001:0004a9f8       ?ExpectedOneOf@asCParser@@IEAA?AVasCString@@PEAPEBDH@Z 000000018004b9f8 f   as_parser.obj
 0001:0004aa90       ?ParseListPattern@asCParser@@IEAAPEAVasCScriptNode@@XZ 000000018004ba90 f   as_parser.obj
 0001:0004af78       ?CheckTemplateType@asCParser@@IEAA_NAEAUsToken@@@Z 000000018004bf78 f   as_parser.obj
 0001:0004b0e4       ?ParseCast@asCParser@@IEAAPEAVasCScriptNode@@XZ 000000018004c0e4 f   as_parser.obj
 0001:0004b364       ?ParseExprValue@asCParser@@IEAAPEAVasCScriptNode@@XZ 000000018004c364 f   as_parser.obj
 0001:0004b754       ?ParseConstant@asCParser@@IEAAPEAVasCScriptNode@@XZ 000000018004c754 f   as_parser.obj
 0001:0004b960       ?ParseFunctionCall@asCParser@@IEAAPEAVasCScriptNode@@XZ 000000018004c960 f   as_parser.obj
 0001:0004b9c4       ?ParseConstructCall@asCParser@@IEAAPEAVasCScriptNode@@XZ 000000018004c9c4 f   as_parser.obj
 0001:0004ba24       ?ParseArgList@asCParser@@IEAAPEAVasCScriptNode@@XZ 000000018004ca24 f   as_parser.obj
 0001:0004bbb4       ?IsFunctionCall@asCParser@@IEAA_NXZ 000000018004cbb4 f   as_parser.obj
 0001:0004bcb4       ?ParseAssignment@asCParser@@IEAAPEAVasCScriptNode@@XZ 000000018004ccb4 f   as_parser.obj
 0001:0004bda0       ?ParseCondition@asCParser@@IEAAPEAVasCScriptNode@@XZ 000000018004cda0 f   as_parser.obj
 0001:0004bed0       ?ParseExpression@asCParser@@IEAAPEAVasCScriptNode@@XZ 000000018004ced0 f   as_parser.obj
 0001:0004c080       ?ParseExprTerm@asCParser@@IEAAPEAVasCScriptNode@@XZ 000000018004d080 f   as_parser.obj
 0001:0004c27c       ?ParseExprPostOp@asCParser@@IEAAPEAVasCScriptNode@@XZ 000000018004d27c f   as_parser.obj
 0001:0004c480       ?ParseAssignOperator@asCParser@@IEAAPEAVasCScriptNode@@XZ 000000018004d480 f   as_parser.obj
 0001:0004c570       ?IsOperator@asCParser@@IEAA_NH@Z 000000018004d570 f   as_parser.obj
 0001:0004c5e4       ?ParseImport@asCParser@@IEAAPEAVasCScriptNode@@XZ 000000018004d5e4 f   as_parser.obj
 0001:0004c8ac       ?ParseScript@asCParser@@IEAAPEAVasCScriptNode@@_N@Z 000000018004d8ac f   as_parser.obj
 0001:0004ccf0       ?ParseNamespace@asCParser@@IEAAPEAVasCScriptNode@@XZ 000000018004dcf0 f   as_parser.obj
 0001:0004cf60       ?ParseEnumeration@asCParser@@IEAAPEAVasCScriptNode@@XZ 000000018004df60 f   as_parser.obj
 0001:0004d3c0       ?IsVarDecl@asCParser@@IEAA_NXZ 000000018004e3c0 f   as_parser.obj
 0001:0004d624       ?IsVirtualPropertyDecl@asCParser@@IEAA_NXZ 000000018004e624 f   as_parser.obj
 0001:0004d794       ?IsFuncDecl@asCParser@@IEAA_N_N@Z 000000018004e794 f   as_parser.obj
 0001:0004db38       ?ParseFuncDef@asCParser@@IEAAPEAVasCScriptNode@@XZ 000000018004eb38 f   as_parser.obj
 0001:0004dcd0       ?ParseFunction@asCParser@@IEAAPEAVasCScriptNode@@_N@Z 000000018004ecd0 f   as_parser.obj
 0001:0004def0       ?ParseInterfaceMethod@asCParser@@IEAAPEAVasCScriptNode@@XZ 000000018004eef0 f   as_parser.obj
 0001:0004e070       ?ParseVirtualPropertyDecl@asCParser@@IEAAPEAVasCScriptNode@@_N0@Z 000000018004f070 f   as_parser.obj
 0001:0004e4e8       ?ParseInterface@asCParser@@IEAAPEAVasCScriptNode@@XZ 000000018004f4e8 f   as_parser.obj
 0001:0004e8c4       ?ParseMixin@asCParser@@IEAAPEAVasCScriptNode@@XZ 000000018004f8c4 f   as_parser.obj
 0001:0004e96c       ?ParseClass@asCParser@@IEAAPEAVasCScriptNode@@XZ 000000018004f96c f   as_parser.obj
 0001:0004ee08       ?ParseVarInit@asCParser@@QEAAHPEAVasCScriptCode@@PEAVasCScriptNode@@@Z 000000018004fe08 f   as_parser.obj
 0001:0004efd0       ?SuperficiallyParseVarInit@asCParser@@IEAAPEAVasCScriptNode@@XZ 000000018004ffd0 f   as_parser.obj
 0001:0004f478       ?SuperficiallyParseStatementBlock@asCParser@@IEAAPEAVasCScriptNode@@XZ 0000000180050478 f   as_parser.obj
 0001:0004f660       ?ParseStatementBlock@asCParser@@IEAAPEAVasCScriptNode@@XZ 0000000180050660 f   as_parser.obj
 0001:0004f908       ?ParseInitList@asCParser@@IEAAPEAVasCScriptNode@@XZ 0000000180050908 f   as_parser.obj
 0001:0004fc74       ?ParseDeclaration@asCParser@@IEAAPEAVasCScriptNode@@_N0@Z 0000000180050c74 f   as_parser.obj
 0001:0004ff6c       ?ParseStatement@asCParser@@IEAAPEAVasCScriptNode@@XZ 0000000180050f6c f   as_parser.obj
 0001:00050024       ?ParseExpressionStatement@asCParser@@IEAAPEAVasCScriptNode@@XZ 0000000180051024 f   as_parser.obj
 0001:00050138       ?ParseSwitch@asCParser@@IEAAPEAVasCScriptNode@@XZ 0000000180051138 f   as_parser.obj
 0001:00050434       ?ParseCase@asCParser@@IEAAPEAVasCScriptNode@@XZ 0000000180051434 f   as_parser.obj
 0001:00050654       ?ParseIf@asCParser@@IEAAPEAVasCScriptNode@@XZ 0000000180051654 f   as_parser.obj
 0001:0005083c       ?ParseFor@asCParser@@IEAAPEAVasCScriptNode@@XZ 000000018005183c f   as_parser.obj
 0001:00050a98       ?ParseWhile@asCParser@@IEAAPEAVasCScriptNode@@XZ 0000000180051a98 f   as_parser.obj
 0001:00050c20       ?ParseDoWhile@asCParser@@IEAAPEAVasCScriptNode@@XZ 0000000180051c20 f   as_parser.obj
 0001:00050e78       ?ParseReturn@asCParser@@IEAAPEAVasCScriptNode@@XZ 0000000180051e78 f   as_parser.obj
 0001:00050ff8       ?ParseBreak@asCParser@@IEAAPEAVasCScriptNode@@XZ 0000000180051ff8 f   as_parser.obj
 0001:00051100       ?ParseContinue@asCParser@@IEAAPEAVasCScriptNode@@XZ 0000000180052100 f   as_parser.obj
 0001:00051208       ?ParseTypedef@asCParser@@IEAAPEAVasCScriptNode@@XZ 0000000180052208 f   as_parser.obj
 0001:000513f8       ?ParseMethodOverrideBehaviors@asCParser@@IEAAXPEAVasCScriptNode@@@Z 00000001800523f8 f   as_parser.obj
 0001:000514a8       ??0asCReader@@QEAA@PEAVasCModule@@PEAVasIBinaryStream@@PEAVasCScriptEngine@@@Z 00000001800524a8 f   as_restore.obj
 0001:000515f0       ?ReadData@asCReader@@IEAAXPEAXI@Z 00000001800525f0 f   as_restore.obj
 0001:0005163c       ?Read@asCReader@@QEAAHPEA_N@Z 000000018005263c f   as_restore.obj
 0001:00051780       ?ReadInner@asCReader@@IEAAHXZ 0000000180052780 f   as_restore.obj
 0001:00052afc       ?ReadUsedFunctions@asCReader@@IEAAXXZ 0000000180053afc f   as_restore.obj
 0001:00052d34       ?ReadFunctionSignature@asCReader@@IEAAXPEAVasCScriptFunction@@@Z 0000000180053d34 f   as_restore.obj
 0001:0005307c       ?ReadFunction@asCReader@@IEAAPEAVasCScriptFunction@@AEA_N_N11@Z 000000018005407c f   as_restore.obj
 0001:00053674       ?ReadObjectTypeDeclaration@asCReader@@IEAAXPEAVasCObjectType@@H@Z 0000000180054674 f   as_restore.obj
 0001:00054814       ?ReadEncodedUInt16@asCReader@@IEAAGXZ 0000000180055814 f   as_restore.obj
 0001:00054840       ?ReadEncodedUInt@asCReader@@IEAAIXZ 0000000180055840 f   as_restore.obj
 0001:00054870       ?ReadEncodedUInt64@asCReader@@IEAA_KXZ 0000000180055870 f   as_restore.obj
 0001:00054a38       ?ReadString@asCReader@@IEAAXPEAVasCString@@@Z 0000000180055a38 f   as_restore.obj
 0001:00054afc       ?ReadObjectProperty@asCReader@@IEAAXPEAVasCObjectType@@@Z 0000000180055afc f   as_restore.obj
 0001:00054bc0       ?ReadDataType@asCReader@@IEAAXPEAVasCDataType@@@Z 0000000180055bc0 f   as_restore.obj
 0001:00055048       ?ReadObjectType@asCReader@@IEAAPEAVasCObjectType@@XZ 0000000180056048 f   as_restore.obj
 0001:0005576c       ?ReadByteCode@asCReader@@IEAAXPEAVasCScriptFunction@@@Z 000000018005676c f   as_restore.obj
 0001:00055b5c       ?ReadUsedGlobalProps@asCReader@@IEAAXXZ 0000000180056b5c f   as_restore.obj
 0001:00055d28       ?TranslateFunction@asCReader@@IEAAXPEAVasCScriptFunction@@@Z 0000000180056d28 f   as_restore.obj
 0001:00056e30       ?AdjustOffset@SListAdjuster@asCReader@@QEAAHHPEAVasCObjectType@@@Z 0000000180057e30 f   as_restore.obj
 0001:00057068       ?CalculateStackNeeded@asCReader@@IEAAXPEAVasCScriptFunction@@@Z 0000000180058068 f   as_restore.obj
 0001:000574b8       ?CalculateAdjustmentByPos@asCReader@@IEAAXPEAVasCScriptFunction@@@Z 00000001800584b8 f   as_restore.obj
 0001:00057840       ?AdjustStackPosition@asCReader@@IEAAHH@Z 0000000180058840 f   as_restore.obj
 0001:00057898       ?GetCalledFunction@asCReader@@IEAAPEAVasCScriptFunction@@PEAV2@K@Z 0000000180058898 f   as_restore.obj
 0001:000579c0       ??0asCWriter@@QEAA@PEAVasCModule@@PEAVasIBinaryStream@@PEAVasCScriptEngine@@_N@Z 00000001800589c0 f   as_restore.obj
 0001:00057b38       ?WriteData@asCWriter@@IEAAXPEBXI@Z 0000000180058b38 f   as_restore.obj
 0001:00057b84       ?Write@asCWriter@@QEAAHXZ  0000000180058b84 f   as_restore.obj
 0001:000582c0       ?WriteFunctionSignature@asCWriter@@IEAAXPEAVasCScriptFunction@@@Z 00000001800592c0 f   as_restore.obj
 0001:0005845c       ?WriteFunction@asCWriter@@IEAAXPEAVasCScriptFunction@@@Z 000000018005945c f   as_restore.obj
 0001:00058918       ?WriteObjectTypeDeclaration@asCWriter@@IEAAXPEAVasCObjectType@@H@Z 0000000180059918 f   as_restore.obj
 0001:00058c08       ?WriteEncodedInt64@asCWriter@@IEAAX_J@Z 0000000180059c08 f   as_restore.obj
 0001:00058e0c       ?WriteString@asCWriter@@IEAAXPEAVasCString@@@Z 0000000180059e0c f   as_restore.obj
 0001:00058f24       ?WriteDataType@asCWriter@@IEAAXPEBVasCDataType@@@Z 0000000180059f24 f   as_restore.obj
 0001:00059084       ?WriteObjectType@asCWriter@@IEAAXPEAVasCObjectType@@@Z 000000018005a084 f   as_restore.obj
 0001:00059210       ?CalculateAdjustmentByPos@asCWriter@@IEAAXPEAVasCScriptFunction@@@Z 000000018005a210 f   as_restore.obj
 0001:000595d4       ?AdjustStackPosition@asCWriter@@IEAAHH@Z 000000018005a5d4 f   as_restore.obj
 0001:00059620       ?AdjustGetOffset@asCWriter@@IEAAHHPEAVasCScriptFunction@@K@Z 000000018005a620 f   as_restore.obj
 0001:00059858       ?WriteByteCode@asCWriter@@IEAAXPEAVasCScriptFunction@@@Z 000000018005a858 f   as_restore.obj
 0001:0005a3cc       ?AdjustOffset@SListAdjuster@asCWriter@@QEAAHHPEAVasCObjectType@@@Z 000000018005b3cc f   as_restore.obj
 0001:0005a524       ?FindObjectPropIndex@asCWriter@@IEAAHFH@Z 000000018005b524 f   as_restore.obj
 0001:0005a5f8       ?FindFunctionIndex@asCWriter@@IEAAHPEAVasCScriptFunction@@@Z 000000018005b5f8 f   as_restore.obj
 0001:0005a648       ?FindTypeIdIdx@asCWriter@@IEAAHH@Z 000000018005b648 f   as_restore.obj
 0001:0005a694       ?FindObjectTypeIdx@asCWriter@@IEAAHPEAVasCObjectType@@@Z 000000018005b694 f   as_restore.obj
 0001:0005a6e4       ?AllocateNoConstruct@?$asCArray@K@@QEAAX_K_N@Z 000000018005b6e4 f i as_restore.obj
 0001:0005a7a4       ?Insert@?$asCMap@VasCStringPointer@@H@@QEAAHAEBVasCStringPointer@@AEBH@Z 000000018005b7a4 f i as_restore.obj
 0001:0005a830       ?MoveTo@?$asCMap@VasCStringPointer@@H@@QEBA_NPEAPEAU?$asSMapNode@VasCStringPointer@@H@@AEBVasCStringPointer@@@Z 000000018005b830 f i as_restore.obj
 0001:0005a900       ?Insert@?$asCMap@PEAVasCScriptFunction@@_N@@QEAAHAEBQEAVasCScriptFunction@@AEB_N@Z 000000018005b900 f i as_restore.obj
 0001:0005a900       ?Insert@?$asCMap@PEAX_N@@QEAAHAEBQEAXAEB_N@Z 000000018005b900 f i as_restore.obj
 0001:0005a970       ?Insert@?$asCMap@VasCStringPointer@@H@@QEAAHPEAU?$asSMapNode@VasCStringPointer@@H@@@Z 000000018005b970 f i as_restore.obj
 0001:0005aad0       ?Allocate@?$asCArray@USObjProp@asCReader@@@@QEAAX_K_N@Z 000000018005bad0 f i as_module.obj
 0001:0005aad0       ?Allocate@?$asCArray@USInfo@SListAdjuster@asCReader@@@@QEAAX_K_N@Z 000000018005bad0 f i as_restore.obj
 0001:0005aad0       ?Allocate@?$asCArray@USObjTypeClean@asCScriptEngine@@@@QEAAX_K_N@Z 000000018005bad0 f i as_scriptengine.obj
 0001:0005aad0       ?Allocate@?$asCArray@USInfo@SListAdjuster@asCWriter@@@@QEAAX_K_N@Z 000000018005bad0 f i as_restore.obj
 0001:0005aad0       ?Allocate@?$asCArray@USEngineClean@asCScriptEngine@@@@QEAAX_K_N@Z 000000018005bad0 f i as_scriptengine.obj
 0001:0005aad0       ?Allocate@?$asCArray@USObjProp@asCWriter@@@@QEAAX_K_N@Z 000000018005bad0 f i as_module.obj
 0001:0005ac08       ?RotateLeft@?$asCMap@PEAX_N@@IEAAHPEAU?$asSMapNode@PEAX_N@@@Z 000000018005bc08 f i as_restore.obj
 0001:0005ac08       ?RotateLeft@?$asCMap@HPEAVasCDataType@@@@IEAAHPEAU?$asSMapNode@HPEAVasCDataType@@@@@Z 000000018005bc08 f i as_scriptengine.obj
 0001:0005ac08       ?RotateLeft@?$asCMap@PEAVasCScriptFunction@@_N@@IEAAHPEAU?$asSMapNode@PEAVasCScriptFunction@@_N@@@Z 000000018005bc08 f i as_restore.obj
 0001:0005ac08       ?RotateLeft@?$asCMap@HH@@IEAAHPEAU?$asSMapNode@HH@@@Z 000000018005bc08 f i as_restore.obj
 0001:0005ac08       ?RotateLeft@?$asCMap@VasCStringPointer@@H@@IEAAHPEAU?$asSMapNode@VasCStringPointer@@H@@@Z 000000018005bc08 f i as_restore.obj
 0001:0005ac08       ?RotateLeft@?$asCMap@PEAXPEAVasCGlobalProperty@@@@IEAAHPEAU?$asSMapNode@PEAXPEAVasCGlobalProperty@@@@@Z 000000018005bc08 f i as_module.obj
 0001:0005ac08       ?RotateLeft@?$asCMap@VasCString@@V?$asCArray@I@@@@IEAAHPEAU?$asSMapNode@VasCString@@V?$asCArray@I@@@@@Z 000000018005bc08 f i as_builder.obj
 0001:0005ac08       ?RotateLeft@?$asCMap@PEAXUasSIntTypePair@asCGarbageCollector@@@@IEAAHPEAU?$asSMapNode@PEAXUasSIntTypePair@asCGarbageCollector@@@@@Z 000000018005bc08 f i as_gc.obj
 0001:0005ac58       ?RotateRight@?$asCMap@VasCString@@V?$asCArray@I@@@@IEAAHPEAU?$asSMapNode@VasCString@@V?$asCArray@I@@@@@Z 000000018005bc58 f i as_builder.obj
 0001:0005ac58       ?RotateRight@?$asCMap@PEAX_N@@IEAAHPEAU?$asSMapNode@PEAX_N@@@Z 000000018005bc58 f i as_restore.obj
 0001:0005ac58       ?RotateRight@?$asCMap@PEAXUasSIntTypePair@asCGarbageCollector@@@@IEAAHPEAU?$asSMapNode@PEAXUasSIntTypePair@asCGarbageCollector@@@@@Z 000000018005bc58 f i as_gc.obj
 0001:0005ac58       ?RotateRight@?$asCMap@HH@@IEAAHPEAU?$asSMapNode@HH@@@Z 000000018005bc58 f i as_restore.obj
 0001:0005ac58       ?RotateRight@?$asCMap@VasCStringPointer@@H@@IEAAHPEAU?$asSMapNode@VasCStringPointer@@H@@@Z 000000018005bc58 f i as_restore.obj
 0001:0005ac58       ?RotateRight@?$asCMap@PEAVasCScriptFunction@@_N@@IEAAHPEAU?$asSMapNode@PEAVasCScriptFunction@@_N@@@Z 000000018005bc58 f i as_restore.obj
 0001:0005ac58       ?RotateRight@?$asCMap@HPEAVasCDataType@@@@IEAAHPEAU?$asSMapNode@HPEAVasCDataType@@@@@Z 000000018005bc58 f i as_scriptengine.obj
 0001:0005ac58       ?RotateRight@?$asCMap@PEAXPEAVasCGlobalProperty@@@@IEAAHPEAU?$asSMapNode@PEAXPEAVasCGlobalProperty@@@@@Z 000000018005bc58 f i as_module.obj
 0001:0005aca8       ??1asCScriptCode@@QEAA@XZ  000000018005bca8 f   as_scriptcode.obj
 0001:0005ad00       ?SetCode@asCScriptCode@@QEAAHPEBD0_K_N@Z 000000018005bd00 f   as_scriptcode.obj
 0001:0005ae10       ?ConvertPosToRowCol@asCScriptCode@@QEAAX_KPEAH1@Z 000000018005be10 f   as_scriptcode.obj
 0001:0005aeb0       ?TokenEquals@asCScriptCode@@QEAA_N_K0PEBD@Z 000000018005beb0 f   as_scriptcode.obj
 0001:0005af04       ??1asIScriptEngine@@MEAA@XZ 000000018005bf04 f i as_scriptengine.obj
 0001:0005af10       ??_EasIScriptEngine@@MEAAPEAXI@Z 000000018005bf10 f i  CIL library: CIL module
 0001:0005af10       ??_GasIScriptEngine@@MEAAPEAXI@Z 000000018005bf10 f i as_scriptengine.obj
 0001:0005af38       asGetLibraryVersion        000000018005bf38 f   as_scriptengine.obj
 0001:0005af40       asGetLibraryOptions        000000018005bf40 f   as_scriptengine.obj
 0001:0005af48       asCreateScriptEngine       000000018005bf48 f   as_scriptengine.obj
 0001:0005afb0       ?SetEngineProperty@asCScriptEngine@@UEAAHW4asEEngineProp@@_K@Z 000000018005bfb0 f   as_scriptengine.obj
 0001:0005b1bc       ?GetEngineProperty@asCScriptEngine@@UEBA_KW4asEEngineProp@@@Z 000000018005c1bc f   as_scriptengine.obj
 0001:0005b2d4       ?CreateDelegate@asCScriptEngine@@UEAAPEAVasIScriptFunction@@PEAV2@PEAX@Z 000000018005c2d4 f   as_scriptengine.obj
 0001:0005b340       ??0asCScriptEngine@@QEAA@XZ 000000018005c340 f   as_scriptengine.obj
 0001:0005bbfc       ??_GasCScriptEngine@@UEAAPEAXI@Z 000000018005cbfc f i as_scriptengine.obj
 0001:0005bbfc       ??_EasCScriptEngine@@UEAAPEAXI@Z 000000018005cbfc f i  CIL library: CIL module
 0001:0005bc2c       ??1asCScriptEngine@@UEAA@XZ 000000018005cc2c f   as_scriptengine.obj
 0001:0005c790       ?AddRef@asCScriptEngine@@UEBAHXZ 000000018005d790 f   as_scriptengine.obj
 0001:0005c7a0       ?Release@asCScriptEngine@@UEBAHXZ 000000018005d7a0 f   as_scriptengine.obj
 0001:0005c7d8       ?AddNameSpace@asCScriptEngine@@QEAAPEAUasSNameSpace@@PEBD@Z 000000018005d7d8 f   as_scriptengine.obj
 0001:0005c894       ?FindNameSpace@asCScriptEngine@@QEAAPEAUasSNameSpace@@PEBD@Z 000000018005d894 f   as_scriptengine.obj
 0001:0005c908       ?GetDefaultNamespace@asCScriptEngine@@UEBAPEBDXZ 000000018005d908 f   as_scriptengine.obj
 0001:0005c920       ?SetDefaultNamespace@asCScriptEngine@@UEAAHPEBD@Z 000000018005d920 f   as_scriptengine.obj
 0001:0005caa8       ?SetUserData@asCScriptEngine@@UEAAPEAXPEAX_K@Z 000000018005daa8 f   as_scriptengine.obj
 0001:0005cb64       ?GetUserData@asCScriptEngine@@UEBAPEAX_K@Z 000000018005db64 f   as_scriptengine.obj
 0001:0005cbfc       ?SetMessageCallback@asCScriptEngine@@UEAAHAEBUasSFuncPtr@@PEAXK@Z 000000018005dbfc f   as_scriptengine.obj
 0001:0005cc60       ?ClearMessageCallback@asCScriptEngine@@UEAAHXZ 000000018005dc60 f   as_scriptengine.obj
 0001:0005cc6c       ?WriteMessage@asCScriptEngine@@UEAAHPEBDHHW4asEMsgType@@0@Z 000000018005dc6c f   as_scriptengine.obj
 0001:0005cd0c       ?SetJITCompiler@asCScriptEngine@@UEAAHPEAVasIJITCompiler@@@Z 000000018005dd0c f   as_scriptengine.obj
 0001:0005cd18       ?GetJITCompiler@asCScriptEngine@@UEBAPEAVasIJITCompiler@@XZ 000000018005dd18 f   as_scriptengine.obj
 0001:0005cd20       ?ParseToken@asCScriptEngine@@UEBA?AW4asETokenClass@@PEBD_KPEAH@Z 000000018005dd20 f   as_scriptengine.obj
 0001:0005cd7c       ?GetModule@asCScriptEngine@@UEAAPEAVasIScriptModule@@PEBDW4asEGMFlags@@@Z 000000018005dd7c f   as_scriptengine.obj
 0001:0005cddc       ?DiscardModule@asCScriptEngine@@UEAAHPEBD@Z 000000018005dddc f   as_scriptengine.obj
 0001:0005ce04       ?GetModuleCount@asCScriptEngine@@UEBAIXZ 000000018005de04 f   as_scriptengine.obj
 0001:0005ce0c       ?GetModuleByIndex@asCScriptEngine@@UEBAPEAVasIScriptModule@@I@Z 000000018005de0c f   as_scriptengine.obj
 0001:0005ce28       ?ClearUnusedTypes@asCScriptEngine@@QEAAHXZ 000000018005de28 f   as_scriptengine.obj
 0001:0005d418       ?RemoveTypeAndRelatedFromList@asCScriptEngine@@QEAAXAEAV?$asCArray@PEAVasCObjectType@@@@PEAVasCObjectType@@@Z 000000018005e418 f   as_scriptengine.obj
 0001:0005d518       ?GetFactoryIdByDecl@asCScriptEngine@@QEAAHPEBVasCObjectType@@PEBD@Z 000000018005e518 f   as_scriptengine.obj
 0001:0005d688       ?GetMethodIdByDecl@asCScriptEngine@@QEAAHPEBVasCObjectType@@PEBDPEAVasCModule@@@Z 000000018005e688 f   as_scriptengine.obj
 0001:0005d7e0       ?GetFunctionDeclaration@asCScriptEngine@@QEAA?AVasCString@@H@Z 000000018005e7e0 f   as_scriptengine.obj
 0001:0005d870       ?CreateContext@asCScriptEngine@@UEAAPEAVasIScriptContext@@XZ 000000018005e870 f   as_scriptengine.obj
 0001:0005d894       ?CreateContext@asCScriptEngine@@QEAAHPEAPEAVasIScriptContext@@_N@Z 000000018005e894 f   as_scriptengine.obj
 0001:0005d910       ?RegisterObjectProperty@asCScriptEngine@@UEAAHPEBD0H@Z 000000018005e910 f   as_scriptengine.obj
 0001:0005dc70       ?RegisterInterface@asCScriptEngine@@UEAAHPEBD@Z 000000018005ec70 f   as_scriptengine.obj
 0001:0005df9c       ?RegisterInterfaceMethod@asCScriptEngine@@UEAAHPEBD0@Z 000000018005ef9c f   as_scriptengine.obj
 0001:0005e290       ?RegisterObjectType@asCScriptEngine@@UEAAHPEBDHK@Z 000000018005f290 f   as_scriptengine.obj
 0001:0005f068       ?RegisterObjectBehaviour@asCScriptEngine@@UEAAHPEBDW4asEBehaviours@@0AEBUasSFuncPtr@@KPEAX@Z 0000000180060068 f   as_scriptengine.obj
 0001:0005f254       ?RegisterBehaviourToObjectType@asCScriptEngine@@QEAAHPEAVasCObjectType@@W4asEBehaviours@@PEBDAEBUasSFuncPtr@@KPEAX@Z 0000000180060254 f   as_scriptengine.obj
 0001:0006127c       ?AddBehaviourFunction@asCScriptEngine@@QEAAHAEAVasCScriptFunction@@AEAUasSSystemFunctionInterface@@@Z 000000018006227c f   as_scriptengine.obj
 0001:00061538       ?RegisterGlobalProperty@asCScriptEngine@@UEAAHPEBDPEAX@Z 0000000180062538 f   as_scriptengine.obj
 0001:000617b0       ?AllocateGlobalProperty@asCScriptEngine@@QEAAPEAVasCGlobalProperty@@XZ 00000001800627b0 f   as_scriptengine.obj
 0001:00061878       ?FreeUnusedGlobalProperties@asCScriptEngine@@QEAAXXZ 0000000180062878 f   as_scriptengine.obj
 0001:000619b0       ?GetGlobalPropertyCount@asCScriptEngine@@UEBAIXZ 00000001800629b0 f   as_scriptengine.obj
 0001:000619b8       ?GetGlobalPropertyByIndex@asCScriptEngine@@UEBAHIPEAPEBD0PEAHPEA_N0PEAPEAXPEAK@Z 00000001800629b8 f   as_scriptengine.obj
 0001:00061ac4       ?GetGlobalPropertyIndexByName@asCScriptEngine@@UEBAHPEBD@Z 0000000180062ac4 f   as_scriptengine.obj
 0001:00061b28       ?GetGlobalPropertyIndexByDecl@asCScriptEngine@@UEBAHPEBD@Z 0000000180062b28 f   as_scriptengine.obj
 0001:00061c68       ?RegisterObjectMethod@asCScriptEngine@@UEAAHPEBD0AEBUasSFuncPtr@@K@Z 0000000180062c68 f   as_scriptengine.obj
 0001:00061e00       ?RegisterMethodToObjectType@asCScriptEngine@@QEAAHPEAVasCObjectType@@PEBDAEBUasSFuncPtr@@K@Z 0000000180062e00 f   as_scriptengine.obj
 0001:00062474       ?RegisterGlobalFunction@asCScriptEngine@@UEAAHPEBDAEBUasSFuncPtr@@KPEAX@Z 0000000180063474 f   as_scriptengine.obj
 0001:00062938       ?GetGlobalFunctionCount@asCScriptEngine@@UEBAIXZ 0000000180063938 f   as_scriptengine.obj
 0001:00062944       ?GetGlobalFunctionByIndex@asCScriptEngine@@UEBAPEAVasIScriptFunction@@I@Z 0000000180063944 f   as_scriptengine.obj
 0001:00062964       ?GetGlobalFunctionByDecl@asCScriptEngine@@UEBAPEAVasIScriptFunction@@PEBD@Z 0000000180063964 f   as_scriptengine.obj
 0001:00062b4c       ?GetObjectType@asCScriptEngine@@QEBAPEAVasCObjectType@@PEBDPEAUasSNameSpace@@@Z 0000000180063b4c f   as_scriptengine.obj
 0001:00062bdc       ?PrepareEngine@asCScriptEngine@@QEAAXXZ 0000000180063bdc f   as_scriptengine.obj
 0001:00062e64       ?ConfigError@asCScriptEngine@@QEAAHHPEBD00@Z 0000000180063e64 f   as_scriptengine.obj
 0001:00062f48       ?RegisterDefaultArrayType@asCScriptEngine@@UEAAHPEBD@Z 0000000180063f48 f   as_scriptengine.obj
 0001:00063018       ?GetDefaultArrayTypeId@asCScriptEngine@@UEBAHXZ 0000000180064018 f   as_scriptengine.obj
 0001:00063050       ?RegisterStringFactory@asCScriptEngine@@UEAAHPEBDAEBUasSFuncPtr@@KPEAX@Z 0000000180064050 f   as_scriptengine.obj
 0001:000633b8       ?GetStringFactoryReturnTypeId@asCScriptEngine@@UEBAHXZ 00000001800643b8 f   as_scriptengine.obj
 0001:000633dc       ?GetModule@asCScriptEngine@@QEAAPEAVasCModule@@PEBD_N@Z 00000001800643dc f   as_scriptengine.obj
 0001:00063544       ?RequestBuild@asCScriptEngine@@QEAAHXZ 0000000180064544 f   as_scriptengine.obj
 0001:00063598       ?RemoveTemplateInstanceType@asCScriptEngine@@QEAAXPEAVasCObjectType@@@Z 0000000180064598 f   as_scriptengine.obj
 0001:0006378c       ?OrphanTemplateInstances@asCScriptEngine@@QEAAXPEAVasCObjectType@@@Z 000000018006478c f   as_scriptengine.obj
 0001:0006387c       ?GetTemplateInstanceType@asCScriptEngine@@QEAAPEAVasCObjectType@@PEAV2@AEAV?$asCArray@VasCDataType@@@@@Z 000000018006487c f   as_scriptengine.obj
 0001:00063fdc       ?GetWeakRefFlagOfScriptObject@asCScriptEngine@@UEBAPEAVasILockableSharedBool@@PEAXPEBVasIObjectType@@@Z 0000000180064fdc f   as_scriptengine.obj
 0001:000640a0       ?DetermineTypeForTemplate@asCScriptEngine@@QEAA?AVasCDataType@@AEBV2@PEAVasCObjectType@@1@Z 00000001800650a0 f   as_scriptengine.obj
 0001:00064314       ?GenerateTemplateFactoryStub@asCScriptEngine@@QEAAPEAVasCScriptFunction@@PEAVasCObjectType@@0H@Z 0000000180065314 f   as_scriptengine.obj
 0001:000646f4       ?GenerateNewTemplateFunction@asCScriptEngine@@QEAA_NPEAVasCObjectType@@0PEAVasCScriptFunction@@PEAPEAV3@@Z 00000001800656f4 f   as_scriptengine.obj
 0001:000649cc       ?CallObjectMethod@asCScriptEngine@@QEBAXPEAXH@Z 00000001800659cc f   as_scriptengine.obj
 0001:00064a48       ?CallObjectMethodRetBool@asCScriptEngine@@QEBA_NPEAXH@Z 0000000180065a48 f   as_scriptengine.obj
 0001:00064ad8       ?CallObjectMethodRetInt@asCScriptEngine@@QEBAHPEAXH@Z 0000000180065ad8 f   as_scriptengine.obj
 0001:00064b68       ?CallGlobalFunctionRetPtr@asCScriptEngine@@QEBAPEAXH@Z 0000000180065b68 f   as_scriptengine.obj
 0001:00064bec       ?CallGlobalFunctionRetPtr@asCScriptEngine@@QEBAPEAXHPEAX@Z 0000000180065bec f   as_scriptengine.obj
 0001:00064c80       ?CallObjectMethod@asCScriptEngine@@QEBAXPEAX0PEAUasSSystemFunctionInterface@@PEAVasCScriptFunction@@@Z 0000000180065c80 f   as_scriptengine.obj
 0001:00064d18       ?CallGlobalFunction@asCScriptEngine@@QEBAXPEAX0PEAUasSSystemFunctionInterface@@PEAVasCScriptFunction@@@Z 0000000180065d18 f   as_scriptengine.obj
 0001:00064d88       ?CallGlobalFunctionRetBool@asCScriptEngine@@QEBA_NPEAX0PEAUasSSystemFunctionInterface@@PEAVasCScriptFunction@@@Z 0000000180065d88 f   as_scriptengine.obj
 0001:00064e0c       ?NotifyGarbageCollectorOfNewObject@asCScriptEngine@@UEAAHPEAXPEAVasIObjectType@@@Z 0000000180065e0c f   as_scriptengine.obj
 0001:00064e18       ?GetObjectInGC@asCScriptEngine@@UEAAHIPEAIPEAPEAXPEAPEAVasIObjectType@@@Z 0000000180065e18 f   as_scriptengine.obj
 0001:00064f08       ?GarbageCollect@asCScriptEngine@@UEAAHK@Z 0000000180065f08 f   as_scriptengine.obj
 0001:00065070       ?GetGCStatistics@asCScriptEngine@@UEBAXPEAI0000@Z 0000000180066070 f   as_scriptengine.obj
 0001:0006509c       ?GCEnumCallback@asCScriptEngine@@UEAAXPEAX@Z 000000018006609c f   as_scriptengine.obj
 0001:00065114       ?GetTypeIdFromDataType@asCScriptEngine@@QEBAHAEBVasCDataType@@@Z 0000000180066114 f   as_scriptengine.obj
 0001:00065364       ?GetDataTypeFromTypeId@asCScriptEngine@@QEBA?AVasCDataType@@H@Z 0000000180066364 f   as_scriptengine.obj
 0001:00065434       ?GetTypeIdByDecl@asCScriptEngine@@UEBAHPEBD@Z 0000000180066434 f   as_scriptengine.obj
 0001:000654d8       ?GetTypeDeclaration@asCScriptEngine@@UEBAPEBDH_N@Z 00000001800664d8 f   as_scriptengine.obj
 0001:00065558       ?GetSizeOfPrimitiveType@asCScriptEngine@@UEBAHH@Z 0000000180066558 f   as_scriptengine.obj
 0001:0006558c       ?CreateScriptObject@asCScriptEngine@@UEAAPEAXPEBVasIObjectType@@@Z 000000018006658c f   as_scriptengine.obj
 0001:00065750       ?CreateUninitializedScriptObject@asCScriptEngine@@UEAAPEAXPEBVasIObjectType@@@Z 0000000180066750 f   as_scriptengine.obj
 0001:000657c8       ?CreateScriptObjectCopy@asCScriptEngine@@UEAAPEAXPEAXPEBVasIObjectType@@@Z 00000001800667c8 f   as_scriptengine.obj
 0001:00065828       ?AssignScriptObject@asCScriptEngine@@UEAAXPEAX0PEBVasIObjectType@@@Z 0000000180066828 f   as_scriptengine.obj
 0001:000658c4       ?AddRefScriptObject@asCScriptEngine@@UEAAXPEAXPEBVasIObjectType@@@Z 00000001800668c4 f   as_scriptengine.obj
 0001:000658e8       ?ReleaseScriptObject@asCScriptEngine@@UEAAXPEAXPEBVasIObjectType@@@Z 00000001800668e8 f   as_scriptengine.obj
 0001:00065950       ?IsHandleCompatibleWithObject@asCScriptEngine@@UEBA_NPEAXHH@Z 0000000180066950 f   as_scriptengine.obj
 0001:00065a10       ?BeginConfigGroup@asCScriptEngine@@UEAAHPEBD@Z 0000000180066a10 f   as_scriptengine.obj
 0001:00065b40       ?EndConfigGroup@asCScriptEngine@@UEAAHXZ 0000000180066b40 f   as_scriptengine.obj
 0001:00065b60       ?RemoveConfigGroup@asCScriptEngine@@UEAAHPEBD@Z 0000000180066b60 f   as_scriptengine.obj
 0001:00065c64       ?FindConfigGroupForFunction@asCScriptEngine@@QEBAPEAVasCConfigGroup@@H@Z 0000000180066c64 f   as_scriptengine.obj
 0001:00065cd8       ?FindConfigGroupForGlobalVar@asCScriptEngine@@QEBAPEAVasCConfigGroup@@H@Z 0000000180066cd8 f   as_scriptengine.obj
 0001:00065d4c       ?FindConfigGroupForObjectType@asCScriptEngine@@QEBAPEAVasCConfigGroup@@PEBVasCObjectType@@@Z 0000000180066d4c f   as_scriptengine.obj
 0001:00065dbc       ?SetDefaultAccessMask@asCScriptEngine@@UEAAKK@Z 0000000180066dbc f   as_scriptengine.obj
 0001:00065dcc       ?SetScriptFunction@asCScriptEngine@@QEAAXPEAVasCScriptFunction@@@Z 0000000180066dcc f   as_scriptengine.obj
 0001:00065e34       ?FreeScriptFunctionId@asCScriptEngine@@QEAAXH@Z 0000000180066e34 f   as_scriptengine.obj
 0001:00065f50       ?RegisterFuncdef@asCScriptEngine@@UEAAHPEBD@Z 0000000180066f50 f   as_scriptengine.obj
 0001:000661e8       ?GetFuncdefCount@asCScriptEngine@@UEBAIXZ 00000001800671e8 f   as_scriptengine.obj
 0001:000661f0       ?GetFuncdefByIndex@asCScriptEngine@@UEBAPEAVasIScriptFunction@@I@Z 00000001800671f0 f   as_scriptengine.obj
 0001:0006620c       ?RegisterTypedef@asCScriptEngine@@UEAAHPEBD0@Z 000000018006720c f   as_scriptengine.obj
 0001:000665a8       ?GetTypedefCount@asCScriptEngine@@UEBAIXZ 00000001800675a8 f   as_scriptengine.obj
 0001:000665b0       ?GetTypedefByIndex@asCScriptEngine@@UEBAPEBDIPEAHPEAPEBD1PEAK@Z 00000001800675b0 f   as_scriptengine.obj
 0001:000666ac       ?RegisterEnum@asCScriptEngine@@UEAAHPEBD@Z 00000001800676ac f   as_scriptengine.obj
 0001:0006698c       ?RegisterEnumValue@asCScriptEngine@@UEAAHPEBD0H@Z 000000018006798c f   as_scriptengine.obj
 0001:00066c28       ?GetEnumCount@asCScriptEngine@@UEBAIXZ 0000000180067c28 f   as_scriptengine.obj
 0001:00066c30       ?GetEnumByIndex@asCScriptEngine@@UEBAPEBDIPEAHPEAPEBD1PEAK@Z 0000000180067c30 f   as_scriptengine.obj
 0001:00066d40       ?GetEnumValueCount@asCScriptEngine@@UEBAHH@Z 0000000180067d40 f   as_scriptengine.obj
 0001:00066d80       ?GetEnumValueByIndex@asCScriptEngine@@UEBAPEBDHIPEAH@Z 0000000180067d80 f   as_scriptengine.obj
 0001:00066e08       ?GetObjectTypeCount@asCScriptEngine@@UEBAIXZ 0000000180067e08 f   as_scriptengine.obj
 0001:00066e10       ?GetObjectTypeByIndex@asCScriptEngine@@UEBAPEAVasIObjectType@@I@Z 0000000180067e10 f   as_scriptengine.obj
 0001:00066e2c       ?GetObjectTypeByName@asCScriptEngine@@UEBAPEAVasIObjectType@@PEBD@Z 0000000180067e2c f   as_scriptengine.obj
 0001:00066eb4       ?GetObjectTypeById@asCScriptEngine@@UEBAPEAVasIObjectType@@H@Z 0000000180067eb4 f   as_scriptengine.obj
 0001:00066efc       ?GetFunctionById@asCScriptEngine@@UEBAPEAVasIScriptFunction@@H@Z 0000000180067efc f   as_scriptengine.obj
 0001:00066f1c       ?GetFuncDefFromTypeId@asCScriptEngine@@UEBAPEAVasIScriptFunction@@H@Z 0000000180067f1c f   as_scriptengine.obj
 0001:00066f38       ?IsTemplateType@asCScriptEngine@@QEBA_NPEBD@Z 0000000180067f38 f   as_scriptengine.obj
 0001:00066fc4       ?AddConstantString@asCScriptEngine@@QEAAHPEBD_K@Z 0000000180067fc4 f   as_scriptengine.obj
 0001:000670c0       ?GetScriptSectionNameIndex@asCScriptEngine@@QEAAHPEBD@Z 00000001800680c0 f   as_scriptengine.obj
 0001:000671a8       ?SetEngineUserDataCleanupCallback@asCScriptEngine@@UEAAXP6AXPEAVasIScriptEngine@@@Z_K@Z 00000001800681a8 f   as_scriptengine.obj
 0001:00067290       ?SetModuleUserDataCleanupCallback@asCScriptEngine@@UEAAXP6AXPEAVasIScriptModule@@@Z@Z 0000000180068290 f   as_scriptengine.obj
 0001:00067298       ?SetContextUserDataCleanupCallback@asCScriptEngine@@UEAAXP6AXPEAVasIScriptContext@@@Z@Z 0000000180068298 f   as_scriptengine.obj
 0001:000672a0       ?SetFunctionUserDataCleanupCallback@asCScriptEngine@@UEAAXP6AXPEAVasIScriptFunction@@@Z@Z 00000001800682a0 f   as_scriptengine.obj
 0001:000672a8       ?SetObjectTypeUserDataCleanupCallback@asCScriptEngine@@UEAAXP6AXPEAVasIObjectType@@@Z_K@Z 00000001800682a8 f   as_scriptengine.obj
 0001:00067390       ?GetListPatternType@asCScriptEngine@@QEAAPEAVasCObjectType@@H@Z 0000000180068390 f   as_scriptengine.obj
 0001:00067470       ?DestroyList@asCScriptEngine@@QEAAXPEAEPEBVasCObjectType@@@Z 0000000180068470 f   as_scriptengine.obj
 0001:000674b8       ?DestroySubList@asCScriptEngine@@QEAAXAEAPEAEAEAPEAUasSListPatternNode@@@Z 00000001800684b8 f   as_scriptengine.obj
 0001:0006776c       ?SetLength@?$asCArray@VasCDataType@@@@QEAA_N_K@Z 000000018006876c f i as_scriptengine.obj
 0001:000677a8       ?Erase@?$asCMap@PEAXPEAVasCGlobalProperty@@@@QEAAXPEAU?$asSMapNode@PEAXPEAVasCGlobalProperty@@@@@Z 00000001800687a8 f i as_scriptengine.obj
 0001:000678ac       ?Erase@?$asCMap@HPEAVasCDataType@@@@QEAAXPEAU?$asSMapNode@HPEAVasCDataType@@@@@Z 00000001800688ac f i as_scriptengine.obj
 0001:000679b0       ??1?$asCArray@USEngineClean@asCScriptEngine@@@@QEAA@XZ 00000001800689b0 f i as_scriptengine.obj
 0001:000679b0       ??1?$asCArray@USObjProp@asCWriter@@@@QEAA@XZ 00000001800689b0 f i as_module.obj
 0001:000679b0       ??1?$asCArray@USObjTypeClean@asCScriptEngine@@@@QEAA@XZ 00000001800689b0 f i as_scriptengine.obj
 0001:000679bc       ?Insert@?$asCMap@HH@@QEAAHPEAU?$asSMapNode@HH@@@Z 00000001800689bc f i as_restore.obj
 0001:000679bc       ?Insert@?$asCMap@HPEAVasCDataType@@@@QEAAHPEAU?$asSMapNode@HPEAVasCDataType@@@@@Z 00000001800689bc f i as_scriptengine.obj
 0001:00067b00       ??1asIScriptFunction@@MEAA@XZ 0000000180068b00 f i as_scriptfunction.obj
 0001:00067b0c       ??_EasIScriptFunction@@MEAAPEAXI@Z 0000000180068b0c f i  CIL library: CIL module
 0001:00067b0c       ??_GasIScriptFunction@@MEAAPEAXI@Z 0000000180068b0c f i as_scriptfunction.obj
 0001:00067b34       ?Duplicate@asSListPatternNode@@UEAAPEAU1@XZ 0000000180068b34 f i as_scriptfunction.obj
 0001:00067b74       ??_EasSListPatternDataTypeNode@@UEAAPEAXI@Z 0000000180068b74 f i  CIL library: CIL module
 0001:00067b74       ??_GasSListPatternNode@@UEAAPEAXI@Z 0000000180068b74 f i as_scriptfunction.obj
 0001:00067b74       ??_GasSListPatternDataTypeNode@@UEAAPEAXI@Z 0000000180068b74 f i as_scriptfunction.obj
 0001:00067b74       ??_EasSListPatternNode@@UEAAPEAXI@Z 0000000180068b74 f i  CIL library: CIL module
 0001:00067b9c       ?Duplicate@asSListPatternDataTypeNode@@UEAAPEAUasSListPatternNode@@XZ 0000000180068b9c f i as_scriptfunction.obj
 0001:00067c2c       ?RegisterScriptFunction@@YAXPEAVasCScriptEngine@@@Z 0000000180068c2c f   as_scriptfunction.obj
 0001:00067fc8       ?CreateDelegate@@YAPEAVasCScriptFunction@@PEAV1@PEAX@Z 0000000180068fc8 f   as_scriptfunction.obj
 0001:0006805c       ?MakeDelegate@asCScriptFunction@@QEAAXPEAV1@PEAX@Z 000000018006905c f   as_scriptfunction.obj
 0001:00068164       ?GetDelegateObject@asCScriptFunction@@UEBAPEAXXZ 0000000180069164 f   as_scriptfunction.obj
 0001:0006816c       ?GetDelegateObjectType@asCScriptFunction@@UEBAPEAVasIObjectType@@XZ 000000018006916c f   as_scriptfunction.obj
 0001:00068190       ?GetDelegateFunction@asCScriptFunction@@UEBAPEAVasIScriptFunction@@XZ 0000000180069190 f   as_scriptfunction.obj
 0001:00068198       ?RegisterListPattern@asCScriptFunction@@QEAAHPEBDPEAVasCScriptNode@@@Z 0000000180069198 f   as_scriptfunction.obj
 0001:00068254       ?ParseListPattern@asCScriptFunction@@QEAAHAEAPEAUasSListPatternNode@@PEBDPEAVasCScriptNode@@@Z 0000000180069254 f   as_scriptfunction.obj
 0001:00068534       ??0asCScriptFunction@@QEAA@PEAVasCScriptEngine@@PEAVasCModule@@W4asEFuncType@@@Z 0000000180069534 f   as_scriptfunction.obj
 0001:000686bc       ??_EasCScriptFunction@@UEAAPEAXI@Z 00000001800696bc f i  CIL library: CIL module
 0001:000686bc       ??_GasCScriptFunction@@UEAAPEAXI@Z 00000001800696bc f i as_scriptfunction.obj
 0001:000686ec       ?AllocateScriptFunctionData@asCScriptFunction@@QEAAXXZ 00000001800696ec f   as_scriptfunction.obj
 0001:000687f0       ??1asCScriptFunction@@UEAA@XZ 00000001800697f0 f   as_scriptfunction.obj
 0001:000688a8       ?DestroyInternal@asCScriptFunction@@QEAAXXZ 00000001800698a8 f   as_scriptfunction.obj
 0001:00068b4c       ?GetId@asCScriptFunction@@UEBAHXZ 0000000180069b4c f   as_scriptfunction.obj
 0001:00068b54       ?AddRef@asCScriptFunction@@UEBAHXZ 0000000180069b54 f   as_scriptfunction.obj
 0001:00068b68       ?Release@asCScriptFunction@@UEBAHXZ 0000000180069b68 f   as_scriptfunction.obj
 0001:00068bb8       ?Orphan@asCScriptFunction@@QEAAXPEAVasIScriptModule@@@Z 0000000180069bb8 f   as_scriptfunction.obj
 0001:00068c0c       ?GetTypeId@asCScriptFunction@@UEBAHXZ 0000000180069c0c f   as_scriptfunction.obj
 0001:00068c34       ?IsCompatibleWithTypeId@asCScriptFunction@@UEBA_NH@Z 0000000180069c34 f   as_scriptfunction.obj
 0001:00068ca8       ?GetModuleName@asCScriptFunction@@UEBAPEBDXZ 0000000180069ca8 f   as_scriptfunction.obj
 0001:00068cc4       ?GetModule@asCScriptFunction@@UEBAPEAVasIScriptModule@@XZ 0000000180069cc4 f   as_scriptfunction.obj
 0001:00068cc4       ?GetObject@asCGeneric@@UEAAPEAXXZ 0000000180069cc4 f   as_generic.obj
 0001:00068ccc       ?GetObjectType@asCScriptFunction@@UEBAPEAVasIObjectType@@XZ 0000000180069ccc f   as_scriptfunction.obj
 0001:00068cd4       ?GetObjectName@asCScriptFunction@@UEBAPEBDXZ 0000000180069cd4 f   as_scriptfunction.obj
 0001:00068cf8       ?GetName@asCScriptFunction@@UEBAPEBDXZ 0000000180069cf8 f   as_scriptfunction.obj
 0001:00068d08       ?GetNamespace@asCScriptFunction@@UEBAPEBDXZ 0000000180069d08 f   as_scriptfunction.obj
 0001:00068d20       ?IsReadOnly@asCScriptFunction@@UEBA_NXZ 0000000180069d20 f   as_scriptfunction.obj
 0001:00068d28       ?IsPrivate@asCScriptFunction@@UEBA_NXZ 0000000180069d28 f   as_scriptfunction.obj
 0001:00068d30       ?GetSpaceNeededForArguments@asCScriptFunction@@QEAAHXZ 0000000180069d30 f   as_scriptfunction.obj
 0001:00068d70       ?GetDeclarationStr@asCScriptFunction@@QEBA?AVasCString@@_N0@Z 0000000180069d70 f   as_scriptfunction.obj
 0001:00069508       ?FindNextLineWithCode@asCScriptFunction@@UEBAHH@Z 000000018006a508 f   as_scriptfunction.obj
 0001:00069724       ?GetLineNumber@asCScriptFunction@@QEAAHHPEAH@Z 000000018006a724 f   as_scriptfunction.obj
 0001:0006981c       ?GetVarCount@asCScriptFunction@@UEBAIXZ 000000018006a81c f   as_scriptfunction.obj
 0001:00069834       ?GetVar@asCScriptFunction@@UEBAHIPEAPEBDPEAH@Z 000000018006a834 f   as_scriptfunction.obj
 0001:000698b8       ?GetVarDecl@asCScriptFunction@@UEBAPEBDI_N@Z 000000018006a8b8 f   as_scriptfunction.obj
 0001:000699bc       ?AddVariable@asCScriptFunction@@QEAAXAEAVasCString@@AEAVasCDataType@@H@Z 000000018006a9bc f   as_scriptfunction.obj
 0001:00069aa8       ?ComputeSignatureId@asCScriptFunction@@QEAAXXZ 000000018006aaa8 f   as_scriptfunction.obj
 0001:00069b40       ?IsSignatureEqual@asCScriptFunction@@QEBA_NPEBV1@@Z 000000018006ab40 f   as_scriptfunction.obj
 0001:00069ba0       ?IsSignatureExceptNameEqual@asCScriptFunction@@QEBA_NAEBVasCDataType@@AEBV?$asCArray@VasCDataType@@@@AEBV?$asCArray@W4asETypeModifiers@@@@PEBVasCObjectType@@_N@Z 000000018006aba0 f   as_scriptfunction.obj
 0001:00069bec       ?IsSignatureExceptNameAndReturnTypeEqual@asCScriptFunction@@QEBA_NAEBV?$asCArray@VasCDataType@@@@AEBV?$asCArray@W4asETypeModifiers@@@@PEBVasCObjectType@@_N@Z 000000018006abec f   as_scriptfunction.obj
 0001:00069c78       ?AddReferences@asCScriptFunction@@QEAAXXZ 000000018006ac78 f   as_scriptfunction.obj
 0001:00069fa0       ?ReleaseReferences@asCScriptFunction@@QEAAXXZ 000000018006afa0 f   as_scriptfunction.obj
 0001:0006a3ac       ?GetReturnTypeId@asCScriptFunction@@UEBAHPEAK@Z 000000018006b3ac f   as_scriptfunction.obj
 0001:0006a3f0       ?GetParamCount@asCScriptFunction@@UEBAIXZ 000000018006b3f0 f   as_scriptfunction.obj
 0001:0006a3f4       ?GetParamTypeId@asCScriptFunction@@UEBAHIPEAK@Z 000000018006b3f4 f   as_scriptfunction.obj
 0001:0006a460       ?GetEngine@asCScriptFunction@@UEBAPEAVasIScriptEngine@@XZ 000000018006b460 f   as_scriptfunction.obj
 0001:0006a460       ?GetEngine@asCContext@@UEBAPEAVasIScriptEngine@@XZ 000000018006b460 f   as_context.obj
 0001:0006a460       ?GetFunction@asCGeneric@@UEBAPEAVasIScriptFunction@@XZ 000000018006b460 f   as_generic.obj
 0001:0006a468       ?GetDeclaration@asCScriptFunction@@UEBAPEBD_N0@Z 000000018006b468 f   as_scriptfunction.obj
 0001:0006a4f4       ?GetScriptSectionName@asCScriptFunction@@UEBAPEBDXZ 000000018006b4f4 f   as_scriptfunction.obj
 0001:0006a52c       ?GetConfigGroup@asCScriptFunction@@UEBAPEBDXZ 000000018006b52c f   as_scriptfunction.obj
 0001:0006a5cc       ?GetAccessMask@asCScriptFunction@@UEBAKXZ 000000018006b5cc f   as_scriptfunction.obj
 0001:0006a5cc       ?GetAccessMask@asCObjectType@@UEBAKXZ 000000018006b5cc f   as_objecttype.obj
 0001:0006a5d4       ?JITCompile@asCScriptFunction@@QEAAXXZ 000000018006b5d4 f   as_scriptfunction.obj
 0001:0006a654       ?GetByteCode@asCScriptFunction@@UEAAPEAKPEAI@Z 000000018006b654 f   as_scriptfunction.obj
 0001:0006a680       ?SetUserData@asCScriptFunction@@UEAAPEAXPEAX@Z 000000018006b680 f   as_scriptfunction.obj
 0001:0006a68c       ?GetRefCount@asCScriptFunction@@QEAAHXZ 000000018006b68c f   as_scriptfunction.obj
 0001:0006a690       ?SetFlag@asCScriptFunction@@QEAAXXZ 000000018006b690 f   as_scriptfunction.obj
 0001:0006a698       ?EnumReferences@asCScriptFunction@@QEAAXPEAVasIScriptEngine@@@Z 000000018006b698 f   as_scriptfunction.obj
 0001:0006a91c       ?ReleaseAllHandles@asCScriptFunction@@QEAAXPEAVasIScriptEngine@@@Z 000000018006b91c f   as_scriptfunction.obj
 0001:0006ac70       ?IsShared@asCScriptFunction@@UEBA_NXZ 000000018006bc70 f   as_scriptfunction.obj
 0001:0006ac9c       ?IsFinal@asCScriptFunction@@UEBA_NXZ 000000018006bc9c f   as_scriptfunction.obj
 0001:0006aca4       ?IsOverride@asCScriptFunction@@UEBA_NXZ 000000018006bca4 f   as_scriptfunction.obj
 0001:0006acac       ??1?$asCArray@UasSObjectVariableInfo@@@@QEAA@XZ 000000018006bcac f i as_scriptfunction.obj
 0001:0006acb8       ??_9asCScriptFunction@@$BBA@AA 000000018006bcb8 f i as_scriptfunction.obj
 0001:0006acc0       ?Destroy@asCScriptNode@@QEAAXPEAVasCScriptEngine@@@Z 000000018006bcc0 f   as_scriptnode.obj
 0001:0006ad40       ?CreateCopy@asCScriptNode@@QEAAPEAV1@PEAVasCScriptEngine@@@Z 000000018006bd40 f   as_scriptnode.obj
 0001:0006ade0       ?UpdateSourcePos@asCScriptNode@@QEAAX_K0@Z 000000018006bde0 f   as_scriptnode.obj
 0001:0006ae38       ?AddChildLast@asCScriptNode@@QEAAXPEAV1@@Z 000000018006be38 f   as_scriptnode.obj
 0001:0006ae90       ?DisconnectParent@asCScriptNode@@QEAAXXZ 000000018006be90 f   as_scriptnode.obj
 0001:0006aeec       ??1asIScriptObject@@MEAA@XZ 000000018006beec f i as_scriptobject.obj
 0001:0006aef8       ??_EasIScriptObject@@MEAAPEAXI@Z 000000018006bef8 f i  CIL library: CIL module
 0001:0006aef8       ??_GasIScriptObject@@MEAAPEAXI@Z 000000018006bef8 f i as_scriptobject.obj
 0001:0006af20       ??_EasILockableSharedBool@@MEAAPEAXI@Z 000000018006bf20 f i  CIL library: CIL module
 0001:0006af20       ??_GasILockableSharedBool@@MEAAPEAXI@Z 000000018006bf20 f i as_scriptobject.obj
 0001:0006af48       ?ScriptObjectFactory@@YAPEAVasIScriptObject@@PEBVasCObjectType@@PEAVasCScriptEngine@@@Z 000000018006bf48 f   as_scriptobject.obj
 0001:0006b084       ?RegisterScriptObject@@YAXPEAVasCScriptEngine@@@Z 000000018006c084 f   as_scriptobject.obj
 0001:0006b414       ?ScriptObject_Construct@@YAXPEAVasCObjectType@@PEAVasCScriptObject@@@Z 000000018006c414 f   as_scriptobject.obj
 0001:0006b448       ??0asCScriptObject@@QEAA@PEAVasCObjectType@@_N@Z 000000018006c448 f   as_scriptobject.obj
 0001:0006b5a8       ??_GasCScriptObject@@UEAAPEAXI@Z 000000018006c5a8 f i as_scriptobject.obj
 0001:0006b5a8       ??_EasCScriptObject@@UEAAPEAXI@Z 000000018006c5a8 f i  CIL library: CIL module
 0001:0006b5d8       ??1asCScriptObject@@UEAA@XZ 000000018006c5d8 f   as_scriptobject.obj
 0001:0006b6d8       ?GetWeakRefFlag@asCScriptObject@@QEBAPEAVasILockableSharedBool@@XZ 000000018006c6d8 f   as_scriptobject.obj
 0001:0006b764       ?GetEngine@asCScriptObject@@UEBAPEAVasIScriptEngine@@XZ 000000018006c764 f   as_scriptobject.obj
 0001:0006b770       ?AddRef@asCScriptObject@@UEBAHXZ 000000018006c770 f   as_scriptobject.obj
 0001:0006b834       ?Release@asCScriptObject@@UEBAHXZ 000000018006c834 f   as_scriptobject.obj
 0001:0006b8a4       ?CallDestructor@asCScriptObject@@QEAAXXZ 000000018006c8a4 f   as_scriptobject.obj
 0001:0006b9e4       ?GetObjectType@asCScriptObject@@UEBAPEAVasIObjectType@@XZ 000000018006c9e4 f   as_scriptobject.obj
 0001:0006b9e4       ?GetEngine@asCGeneric@@UEBAPEAVasIScriptEngine@@XZ 000000018006c9e4 f   as_generic.obj
 0001:0006b9ec       ?GetRefCount@asCScriptObject@@QEAAHXZ 000000018006c9ec f   as_scriptobject.obj
 0001:0006b9f0       ?SetFlag@asCScriptObject@@QEAAXXZ 000000018006c9f0 f   as_scriptobject.obj
 0001:0006b9f8       ?GetFlag@asCScriptObject@@QEAA_NXZ 000000018006c9f8 f   as_scriptobject.obj
 0001:0006ba00       ?GetTypeId@asCScriptObject@@UEBAHXZ 000000018006ca00 f   as_scriptobject.obj
 0001:0006ba30       ?GetPropertyCount@asCScriptObject@@UEBAIXZ 000000018006ca30 f   as_scriptobject.obj
 0001:0006ba38       ?GetPropertyTypeId@asCScriptObject@@UEBAHI@Z 000000018006ca38 f   as_scriptobject.obj
 0001:0006ba6c       ?GetPropertyName@asCScriptObject@@UEBAPEBDI@Z 000000018006ca6c f   as_scriptobject.obj
 0001:0006ba94       ?GetAddressOfProperty@asCScriptObject@@UEAAPEAXI@Z 000000018006ca94 f   as_scriptobject.obj
 0001:0006bae0       ?EnumReferences@asCScriptObject@@QEAAXPEAVasIScriptEngine@@@Z 000000018006cae0 f   as_scriptobject.obj
 0001:0006bb6c       ?ReleaseAllHandles@asCScriptObject@@QEAAXPEAVasIScriptEngine@@@Z 000000018006cb6c f   as_scriptobject.obj
 0001:0006bc38       ?ScriptObject_Assignment@@YAAEAVasCScriptObject@@PEAV1@0@Z 000000018006cc38 f   as_scriptobject.obj
 0001:0006bc48       ??4asCScriptObject@@QEAAAEAV0@AEBV0@@Z 000000018006cc48 f   as_scriptobject.obj
 0001:0006bedc       ?CopyFrom@asCScriptObject@@UEAAHPEAVasIScriptObject@@@Z 000000018006cedc f   as_scriptobject.obj
 0001:0006bf38       ?AllocateUninitializedObject@asCScriptObject@@QEAAPEAXPEAVasCObjectType@@PEAVasCScriptEngine@@@Z 000000018006cf38 f   as_scriptobject.obj
 0001:0006c018       ??_EasCLockableSharedBool@@UEAAPEAXI@Z 000000018006d018 f i  CIL library: CIL module
 0001:0006c018       ??_GasCLockableSharedBool@@UEAAPEAXI@Z 000000018006d018 f i as_scriptobject.obj
 0001:0006c058       ?Release@asCLockableSharedBool@@UEBAHXZ 000000018006d058 f   as_scriptobject.obj
 0001:0006c094       ?GetFlag@asCScriptFunction@@QEAA_NXZ 000000018006d094 f   as_scriptfunction.obj
 0001:0006c094       ?Get@asCLockableSharedBool@@UEBA_NXZ 000000018006d094 f   as_scriptobject.obj
 0001:0006c098       ?Set@asCLockableSharedBool@@UEAAX_N@Z 000000018006d098 f   as_scriptobject.obj
 0001:0006c0c4       ?Lock@asCLockableSharedBool@@UEBAXXZ 000000018006d0c4 f   as_scriptobject.obj
 0001:0006c0d0       ?Unlock@asCLockableSharedBool@@UEBAXXZ 000000018006d0d0 f   as_scriptobject.obj
 0001:0006c0dc       asCreateLockableSharedBool 000000018006d0dc f   as_scriptobject.obj
 0001:0006c128       ??_9asCScriptObject@@$BA@AA 000000018006d128 f i as_scriptobject.obj
 0001:0006c130       ??_9asCScriptObject@@$B7AA 000000018006d130 f i as_scriptobject.obj
 0001:0006c130       ??_9asCScriptFunction@@$B7AA 000000018006d130 f i as_scriptfunction.obj
 0001:0006c138       ??0asCString@@QEAA@AEBV0@@Z 000000018006d138 f   as_string.obj
 0001:0006c16c       ??0asCString@@QEAA@PEBD@Z  000000018006d16c f   as_string.obj
 0001:0006c1a8       ??1sPropertyInitializer@@QEAA@XZ 000000018006d1a8 f   as_builder.obj
 0001:0006c1a8       ??1asCString@@QEAA@XZ      000000018006d1a8 f   as_string.obj
 0001:0006c1c8       ?Allocate@asCString@@QEAAX_K_N@Z 000000018006d1c8 f   as_string.obj
 0001:0006c290       ?Assign@asCString@@QEAAXPEBD_K@Z 000000018006d290 f   as_string.obj
 0001:0006c2ec       ??4asCString@@QEAAAEAV0@PEBD@Z 000000018006d2ec f   as_string.obj
 0001:0006c32c       ??4asCString@@QEAAAEAV0@AEBV0@@Z 000000018006d32c f   as_string.obj
 0001:0006c358       ?Concatenate@asCString@@QEAAXPEBD_K@Z 000000018006d358 f   as_string.obj
 0001:0006c3d0       ??YasCString@@QEAAAEAV0@PEBD@Z 000000018006d3d0 f   as_string.obj
 0001:0006c408       ??YasCString@@QEAAAEAV0@AEBV0@@Z 000000018006d408 f   as_string.obj
 0001:0006c434       ?Format@asCString@@QEAA_KPEBDZZ 000000018006d434 f   as_string.obj
 0001:0006c534       ?SubString@asCString@@QEBA?AV1@_K0@Z 000000018006d534 f   as_string.obj
 0001:0006c5dc       ?Compare@asCString@@QEBAHPEBD@Z 000000018006d5dc f   as_string.obj
 0001:0006c61c       ?FindLast@asCString@@QEBAHPEBDPEAH@Z 000000018006d61c f   as_string.obj
 0001:0006c690       ??8@YA_NAEBVasCString@@0@Z 000000018006d690 f   as_string.obj
 0001:0006c6cc       ??9@YA_NAEBVasCString@@0@Z 000000018006d6cc f   as_string.obj
 0001:0006c708       ??H@YA?AVasCString@@AEBV0@0@Z 000000018006d708 f   as_string.obj
 0001:0006c754       ??H@YA?AVasCString@@PEBDAEBV0@@Z 000000018006d754 f   as_string.obj
 0001:0006c7a0       ??H@YA?AVasCString@@AEBV0@PEBD@Z 000000018006d7a0 f   as_string.obj
 0001:0006c7ec       ??MasCStringPointer@@QEBA_NAEBV0@@Z 000000018006d7ec f   as_string.obj
 0001:0006c864       ?asCompareStrings@@YAHPEBD_K01@Z 000000018006d864 f   as_string_util.obj
 0001:0006c8d4       ?asStringScanDouble@@YANPEBDPEA_K@Z 000000018006d8d4 f   as_string_util.obj
 0001:0006ca20       ?asStringScanUInt64@@YA_KPEBDHPEA_K@Z 000000018006da20 f   as_string_util.obj
 0001:0006caf8       ?asStringDecodeUTF8@@YAHPEBDPEAI@Z 000000018006daf8 f   as_string_util.obj
 0001:0006cbcc       ??_EasIThreadManager@@MEAAPEAXI@Z 000000018006dbcc f i  CIL library: CIL module
 0001:0006cbcc       ??_GasIThreadManager@@MEAAPEAXI@Z 000000018006dbcc f i as_thread.obj
 0001:0006cbf4       asThreadCleanup            000000018006dbf4 f   as_thread.obj
 0001:0006cbfc       asGetThreadManager         000000018006dbfc f   as_thread.obj
 0001:0006cc04       asPrepareMultithread       000000018006dc04 f   as_thread.obj
 0001:0006cc0c       asUnprepareMultithread     000000018006dc0c f   as_thread.obj
 0001:0006cc14       asAcquireExclusiveLock     000000018006dc14 f   as_thread.obj
 0001:0006cc34       asReleaseExclusiveLock     000000018006dc34 f   as_thread.obj
 0001:0006cc5c       asAcquireSharedLock        000000018006dc5c f   as_thread.obj
 0001:0006cc80       asReleaseSharedLock        000000018006dc80 f   as_thread.obj
 0001:0006cca8       ??_EasCThreadManager@@MEAAPEAXI@Z 000000018006dca8 f i  CIL library: CIL module
 0001:0006cca8       ??_GasCThreadManager@@MEAAPEAXI@Z 000000018006dca8 f i as_thread.obj
 0001:0006cd18       ?Prepare@asCThreadManager@@SAHPEAVasIThreadManager@@@Z 000000018006dd18 f   as_thread.obj
 0001:0006cde8       ?Unprepare@asCThreadManager@@SAXXZ 000000018006dde8 f   as_thread.obj
 0001:0006ce58       ?CleanupLocalData@asCThreadManager@@SAHXZ 000000018006de58 f   as_thread.obj
 0001:0006cee0       ?GetLocalData@asCThreadManager@@SAPEAVasCThreadLocalData@@XZ 000000018006dee0 f   as_thread.obj
 0001:0006cf4c       ??1asCThreadCriticalSection@@QEAA@XZ 000000018006df4c f   as_thread.obj
 0001:0006cf54       ??1asCThreadReadWriteLock@@QEAA@XZ 000000018006df54 f   as_thread.obj
 0001:0006cf74       ?AcquireExclusive@asCThreadReadWriteLock@@QEAAXXZ 000000018006df74 f   as_thread.obj
 0001:0006cfb4       ??1asCTokenizer@@IEAA@XZ   000000018006dfb4 f   as_tokenizer.obj
 0001:0006cfec       ?GetDefinition@asCTokenizer@@SAPEBDH@Z 000000018006dfec f   as_tokenizer.obj
 0001:0006d0cc       ?GetToken@asCTokenizer@@QEBA?AW4eTokenType@@PEBD_KPEA_KPEAW4asETokenClass@@@Z 000000018006e0cc f   as_tokenizer.obj
 0001:0006d10c       ?ParseToken@asCTokenizer@@IEBA?AW4asETokenClass@@PEBD_KAEA_KAEAW4eTokenType@@@Z 000000018006e10c f   as_tokenizer.obj
 0001:0006d2ec       ?IsConstant@asCTokenizer@@IEBA_NPEBD_KAEA_KAEAW4eTokenType@@@Z 000000018006e2ec f   as_tokenizer.obj
 0001:0006d59c       ?IsKeyWord@asCTokenizer@@IEBA_NPEBD_KAEA_KAEAW4eTokenType@@@Z 000000018006e59c f   as_tokenizer.obj
 0001:0006d660       ?SetDummy@asCTypeInfo@@QEAAXXZ 000000018006e660 f   as_typeinfo.obj
 0001:0006d6e8       ??1asCVariableScope@@QEAA@XZ 000000018006e6e8 f   as_variablescope.obj
 0001:0006d718       ?Reset@asCVariableScope@@QEAAXXZ 000000018006e718 f   as_variablescope.obj
 0001:0006d798       ?DeclareVariable@asCVariableScope@@QEAAHPEBDAEBVasCDataType@@H_N@Z 000000018006e798 f   as_variablescope.obj
 0001:0006d914       ?GetVariable@asCVariableScope@@QEAAPEAUsVariable@@PEBD@Z 000000018006e914 f   as_variablescope.obj
 0001:0006d980       ?GetVariableByOffset@asCVariableScope@@QEAAPEAUsVariable@@H@Z 000000018006e980 f   as_variablescope.obj
 0001:0006d9c0       CallX64                    000000018006e9c0 f   as_callfunc_x64_msvc_asm.obj
 0001:0006da6b       GetReturnedFloat           000000018006ea6b f   as_callfunc_x64_msvc_asm.obj
 0001:0006da7c       GetReturnedDouble          000000018006ea7c f   as_callfunc_x64_msvc_asm.obj
 0001:0006da90       _onexit                    000000018006ea90 f   MSVCRT:atonexit.obj
 0001:0006db40       atexit                     000000018006eb40 f   MSVCRT:atonexit.obj
 0001:0006db58       _purecall                  000000018006eb58 f   MSVCRT:MSVCR90.dll
 0001:0006db5e       ??3@YAXPEAX@Z              000000018006eb5e f   MSVCRT:MSVCR90.dll
 0001:0006db64       ??_Etype_info@@UEAAPEAXI@Z 000000018006eb64 f i MSVCRT:ti_inst.obj
 0001:0006dc30       _CRT_INIT                  000000018006ec30 f   MSVCRT:crtdll.obj
 0001:0006dfc4       _DllMainCRTStartup         000000018006efc4 f   MSVCRT:crtdll.obj
 0001:0006e002       __C_specific_handler       000000018006f002 f   MSVCRT:MSVCR90.dll
 0001:0006e008       _unlock                    000000018006f008 f   MSVCRT:MSVCR90.dll
 0001:0006e00e       __dllonexit                000000018006f00e f   MSVCRT:MSVCR90.dll
 0001:0006e014       _lock                      000000018006f014 f   MSVCRT:MSVCR90.dll
 0001:0006e01c       ?__ArrayUnwind@@YAXPEAX_KHP6AX0@Z@Z 000000018006f01c f   MSVCRT:ehvecdtr.obj
 0001:0006e068       ??_M@YAXPEAX_KHP6AX0@Z@Z   000000018006f068 f   MSVCRT:ehvecdtr.obj
 0001:0006e0c8       __clean_type_info_names    000000018006f0c8 f   MSVCRT:tncleanup.obj
 0001:0006e0d4       _RTC_Initialize            000000018006f0d4 f   MSVCRT:_initsect_.obj
 0001:0006e10c       _RTC_Terminate             000000018006f10c f   MSVCRT:_initsect_.obj
 0001:0006e150       _ValidateImageBase         000000018006f150 f   MSVCRT:pesect.obj
 0001:0006e180       _FindPESection             000000018006f180 f   MSVCRT:pesect.obj
 0001:0006e1d0       _IsNonwritableInCurrentImage 000000018006f1d0 f   MSVCRT:pesect.obj
 0001:0006e212       _initterm                  000000018006f212 f   MSVCRT:MSVCR90.dll
 0001:0006e218       _initterm_e                000000018006f218 f   MSVCRT:MSVCR90.dll
 0001:0006e21e       _amsg_exit                 000000018006f21e f   MSVCRT:MSVCR90.dll
 0001:0006e224       __CppXcptFilter            000000018006f224 f   MSVCRT:MSVCR90.dll
 0001:0006e22c       DllMain                    000000018006f22c f   MSVCRT:dllmain.obj
 0001:0006e250       __security_init_cookie     000000018006f250 f   MSVCRT:gs_support.obj
 0001:0006e304       ?terminate@@YAXXZ          000000018006f304 f   MSVCRT:MSVCR90.dll
 0001:0006e30a       ?_type_info_dtor_internal_method@type_info@@QEAAXXZ 000000018006f30a f   MSVCRT:MSVCR90.dll
 0001:0006e30a       ??1type_info@@UEAA@XZ      000000018006f30a f   MSVCRT:MSVCR90.dll
 0001:0006e310       __clean_type_info_names_internal 000000018006f310 f   MSVCRT:MSVCR90.dll
 0001:0006e316       memset                     000000018006f316 f   MSVCRT:MSVCR90.dll
 0001:0006e31c       memcmp                     000000018006f31c f   MSVCRT:MSVCR90.dll
 0001:0006e322       memcpy                     000000018006f322 f   MSVCRT:MSVCR90.dll
 0001:0006e328       __CxxFrameHandler3         000000018006f328 f   MSVCRT:MSVCR90.dll
 0001:0006e32e       fmodf                      000000018006f32e f   MSVCRT:MSVCR90.dll
 0001:0006e334       fmod                       000000018006f334 f   MSVCRT:MSVCR90.dll
 0002:00000000       __imp_TryEnterCriticalSection 0000000180079000     kernel32:KERNEL32.dll
 0002:00000008       __imp_TlsGetValue          0000000180079008     kernel32:KERNEL32.dll
 0002:00000010       __imp_WaitForSingleObject  0000000180079010     kernel32:KERNEL32.dll
 0002:00000018       __imp_InitializeCriticalSection 0000000180079018     kernel32:KERNEL32.dll
 0002:00000020       __imp_TlsSetValue          0000000180079020     kernel32:KERNEL32.dll
 0002:00000028       __imp_LeaveCriticalSection 0000000180079028     kernel32:KERNEL32.dll
 0002:00000030       __imp_CreateSemaphoreA     0000000180079030     kernel32:KERNEL32.dll
 0002:00000038       __imp_ReleaseSemaphore     0000000180079038     kernel32:KERNEL32.dll
 0002:00000040       __imp_EnterCriticalSection 0000000180079040     kernel32:KERNEL32.dll
 0002:00000048       __imp_DeleteCriticalSection 0000000180079048     kernel32:KERNEL32.dll
 0002:00000050       __imp_TlsAlloc             0000000180079050     kernel32:KERNEL32.dll
 0002:00000058       __imp_CloseHandle          0000000180079058     kernel32:KERNEL32.dll
 0002:00000060       __imp_TlsFree              0000000180079060     kernel32:KERNEL32.dll
 0002:00000068       __imp_GetCurrentProcessId  0000000180079068     kernel32:KERNEL32.dll
 0002:00000070       __imp_GetCurrentThreadId   0000000180079070     kernel32:KERNEL32.dll
 0002:00000078       __imp_GetTickCount         0000000180079078     kernel32:KERNEL32.dll
 0002:00000080       __imp_QueryPerformanceCounter 0000000180079080     kernel32:KERNEL32.dll
 0002:00000088       __imp_DisableThreadLibraryCalls 0000000180079088     kernel32:KERNEL32.dll
 0002:00000090       __imp_Sleep                0000000180079090     kernel32:KERNEL32.dll
 0002:00000098       __imp_GetSystemTimeAsFileTime 0000000180079098     kernel32:KERNEL32.dll
 0002:000000a0       \177KERNEL32_NULL_THUNK_DATA 00000001800790a0     kernel32:KERNEL32.dll
 0002:000000a8       __imp___C_specific_handler 00000001800790a8     MSVCRT:MSVCR90.dll
 0002:000000b0       __imp__unlock              00000001800790b0     MSVCRT:MSVCR90.dll
 0002:000000b8       __imp_strstr               00000001800790b8     MSVCRT:MSVCR90.dll
 0002:000000c0       __imp__encode_pointer      00000001800790c0     MSVCRT:MSVCR90.dll
 0002:000000c8       __imp__lock                00000001800790c8     MSVCRT:MSVCR90.dll
 0002:000000d0       __imp__onexit              00000001800790d0     MSVCRT:MSVCR90.dll
 0002:000000d8       __imp__decode_pointer      00000001800790d8     MSVCRT:MSVCR90.dll
 0002:000000e0       __imp__vsnprintf_s         00000001800790e0     MSVCRT:MSVCR90.dll
 0002:000000e0       __imp_vsnprintf_s          00000001800790e0     MSVCRT:MSVCR90.dll
 0002:000000e8       __imp__malloc_crt          00000001800790e8     MSVCRT:MSVCR90.dll
 0002:000000f0       __imp__initterm            00000001800790f0     MSVCRT:MSVCR90.dll
 0002:000000f8       __imp__initterm_e          00000001800790f8     MSVCRT:MSVCR90.dll
 0002:00000100       __imp__encoded_null        0000000180079100     MSVCRT:MSVCR90.dll
 0002:00000108       __imp__amsg_exit           0000000180079108     MSVCRT:MSVCR90.dll
 0002:00000110       __imp___CppXcptFilter      0000000180079110     MSVCRT:MSVCR90.dll
 0002:00000118       __imp_?terminate@@YAXXZ    0000000180079118     MSVCRT:MSVCR90.dll
 0002:00000120       __imp_?_type_info_dtor_internal_method@type_info@@QEAAXXZ 0000000180079120     MSVCRT:MSVCR90.dll
 0002:00000128       __imp___clean_type_info_names_internal 0000000180079128     MSVCRT:MSVCR90.dll
 0002:00000130       __imp_qsort                0000000180079130     MSVCRT:MSVCR90.dll
 0002:00000138       __imp_strncmp              0000000180079138     MSVCRT:MSVCR90.dll
 0002:00000140       __imp_malloc               0000000180079140     MSVCRT:MSVCR90.dll
 0002:00000148       __imp_free                 0000000180079148     MSVCRT:MSVCR90.dll
 0002:00000150       __imp_??3@YAXPEAX@Z        0000000180079150     MSVCRT:MSVCR90.dll
 0002:00000158       __imp__purecall            0000000180079158     MSVCRT:MSVCR90.dll
 0002:00000160       __imp___dllonexit          0000000180079160     MSVCRT:MSVCR90.dll
 0002:00000168       __imp_memset               0000000180079168     MSVCRT:MSVCR90.dll
 0002:00000170       __imp_memcmp               0000000180079170     MSVCRT:MSVCR90.dll
 0002:00000178       __imp_memcpy               0000000180079178     MSVCRT:MSVCR90.dll
 0002:00000180       __imp___CxxFrameHandler3   0000000180079180     MSVCRT:MSVCR90.dll
 0002:00000188       __imp_fmodf                0000000180079188     MSVCRT:MSVCR90.dll
 0002:00000190       __imp_fmod                 0000000180079190     MSVCRT:MSVCR90.dll
 0002:00000198       \177MSVCR90_NULL_THUNK_DATA 0000000180079198     MSVCRT:MSVCR90.dll
 0002:000001a0       __xc_a                     00000001800791a0     MSVCRT:cinitexe.obj
 0002:000001b8       __xc_z                     00000001800791b8     MSVCRT:cinitexe.obj
 0002:000001c0       __xi_a                     00000001800791c0     MSVCRT:cinitexe.obj
 0002:000001d0       __xi_z                     00000001800791d0     MSVCRT:cinitexe.obj
 0002:000001e8       ??_7type_info@@6B@         00000001800791e8     MSVCRT:ti_inst.obj
 0002:000001f0       _pRawDllMain               00000001800791f0     MSVCRT:crtdll.obj
 0002:000001f0       _pDefaultRawDllMain        00000001800791f0     MSVCRT:crtdll.obj
 0002:000001f8       ??_C@_0P@GHFPNOJB@bad?5allocation?$AA@ 00000001800791f8     as_atomic.obj
 0002:00000208       ??_C@_03KCHOJKKI@set?$AA@  0000000180079208     as_builder.obj
 0002:0000020c       ??_C@_03HNAFFKGA@get?$AA@  000000018007920c     as_builder.obj
 0002:00000210       ??_C@_08PNBPAFID@override?$AA@ 0000000180079210     as_builder.obj
 0002:0000021c       ??_C@_05FPBGKCKL@final?$AA@ 000000018007921c     as_builder.obj
 0002:00000224       ??_C@_06HBFNPGIC@shared?$AA@ 0000000180079224     as_builder.obj
 0002:0000022c       ??_C@_02MOLJINC@?3?3?$AA@  000000018007922c     as_builder.obj
 0002:00000230       ??_C@_01PJKLJHI@?$HO?$AA@  0000000180079230     as_builder.obj
 0002:000085c0       ??_C@_00CNPNBAHC@?$AA@     00000001800815c0     as_builder.obj
 0002:000085c8       ??_C@_0DC@DLCFPOFC@Warnings?5are?5treated?5as?5errors?5b@ 00000001800815c8     as_builder.obj
 0002:00008600       ??_C@_0DH@LGCDOKPP@The?5code?5must?5contain?5one?5and?5on@ 0000000180081600     as_builder.obj
 0002:00008640       ??_C@_0GC@JNJFLPPF@All?5subsequent?5parameters?5after?5@ 0000000180081640     as_builder.obj
 0002:000086a8       ??_C@_0DA@MNLHKCL@The?5code?5must?5contain?5one?5and?5on@ 00000001800816a8     as_builder.obj
 0002:000086d8       ??_C@_0BD@LDIFFAPE@Unused?5script?5node?$AA@ 00000001800816d8     as_builder.obj
 0002:000086f0       ??_C@_0N@CNODKGIM@Compiling?5?$CFs?$AA@ 00000001800816f0     as_builder.obj
 0002:00008700       ??_C@_08MOOMJPBO@Property?$AA@ 0000000180081700     as_builder.obj
 0002:00008710       ??_C@_0BA@GGPNFPKA@System?5function?$AA@ 0000000180081710     as_builder.obj
 0002:00008720       ??_C@_0BF@IELMIHDF@Variable?5declaration?$AA@ 0000000180081720     as_builder.obj
 0002:00008738       ??_C@_0CL@KKPLDCEI@Name?5conflict?4?5?8?$CFs?8?5is?5an?5object@ 0000000180081738     as_builder.obj
 0002:00008768       ??_C@_0CH@NFHFGMAL@Name?5conflict?4?5?8?$CFs?8?5is?5a?5class?5m@ 0000000180081768     as_builder.obj
 0002:00008790       ??_C@_0CO@PGEHEBAB@Name?5conflict?4?5?8?$CFs?8?5is?5an?5extend@ 0000000180081790     as_builder.obj
 0002:000087c0       ??_C@_0CK@NHFBFLML@Name?5conflict?4?5?8?$CFs?8?5is?5a?5global?5@ 00000001800817c0     as_builder.obj
 0002:000087f0       ??_C@_0CA@EGBCNAEG@Name?5conflict?4?5?8?$CFs?8?5is?5a?5class?4?$AA@ 00000001800817f0     as_builder.obj
 0002:00008810       ??_C@_0CF@LEKPDCAM@Name?5conflict?4?5?8?$CFs?8?5is?5a?5named?5t@ 0000000180081810     as_builder.obj
 0002:00008838       ??_C@_0CC@CFIFELGI@Name?5conflict?4?5?8?$CFs?8?5is?5a?5funcdef@ 0000000180081838     as_builder.obj
 0002:00008860       ??_C@_0CG@FEIEMIGG@Name?5conflict?4?5?8?$CFs?8?5is?5a?5mixin?5c@ 0000000180081860     as_builder.obj
 0002:00008888       ??_C@_0DH@ENMBKGO@Global?5variables?5have?5been?5disab@ 0000000180081888     as_builder.obj
 0002:000088c0       ??_C@_0BI@MFEJNPFB@Data?5type?5can?8t?5be?5?8?$CFs?8?$AA@ 00000001800818c0     as_builder.obj
 0002:000088d8       ??_C@_0CH@JEBGLBCH@Mixin?5class?5cannot?5be?5declared?5a@ 00000001800818d8     as_builder.obj
 0002:00008900       ??_C@_01CLKCMJKC@?5?$AA@   0000000180081900     as_builder.obj
 0002:00008908       ??_C@_0CL@LKEEEEEP@Use?5of?5uninitialized?5global?5vari@ 0000000180081908     as_builder.obj
 0002:00008938       ??_C@_0CI@JNCKLEKG@Mixin?5class?5cannot?5inherit?5from?5@ 0000000180081938     as_builder.obj
 0002:00008960       ??_C@_0DH@JAJLJIOA@Shared?5type?5cannot?5implement?5non@ 0000000180081960     as_builder.obj
 0002:000089a0       ??_C@_0EI@OBOCNDAP@Shared?5type?5?8?$CFs?8?5doesn?8t?5match?5t@ 00000001800819a0     as_builder.obj
 0002:000089e8       ??_C@_0CP@HGHBGHME@Interfaces?5can?5only?5implement?5ot@ 00000001800819e8     as_builder.obj
 0002:00008a20       ??_C@_0EM@IIGMKJIK@Can?8t?5implement?5itself?0?5or?5anoth@ 0000000180081a20     as_builder.obj
 0002:00008a70       ??_C@_0CD@JPJPDDBJ@Identifier?5?8?$CFs?8?5is?5not?5a?5data?5ty@ 0000000180081a70     as_builder.obj
 0002:00008a98       ??_C@_0CO@BECEFHG@Can?8t?5inherit?5from?5class?5?8?$CFs?8?5ma@ 0000000180081a98     as_builder.obj
 0002:00008ac8       ??_C@_0CE@FMAHNMDI@Can?8t?5inherit?5from?5multiple?5clas@ 0000000180081ac8     as_builder.obj
 0002:00008af0       ??_C@_0EK@FNBIIOFJ@Can?8t?5inherit?5from?5itself?0?5or?5an@ 0000000180081af0     as_builder.obj
 0002:00008b40       ??_C@_0DH@DOKHPPDH@Shared?5class?5cannot?5inherit?5from@ 0000000180081b40     as_builder.obj
 0002:00008b80       ??_C@_0FK@IDENMLGF@The?5method?5in?5the?5derived?5class?5@ 0000000180081b80     as_builder.obj
 0002:00008be0       ??_C@_0DH@KJOJMPLI@Method?5?8?$CFs?8?5declared?5as?5final?5an@ 0000000180081be0     as_builder.obj
 0002:00008c18       ??_C@_0CM@FJIJECJP@Shared?5code?5cannot?5use?5non?9share@ 0000000180081c18     as_builder.obj
 0002:00008c48       ??_C@_0CN@NKEIIHPB@Class?5properties?5cannot?5be?5decla@ 0000000180081c48     as_builder.obj
 0002:00008c78       ??_C@_0BP@DKGJNLBL@Missing?5implementation?5of?5?8?$CFs?8?$AA@ 0000000180081c78     as_builder.obj
 0002:00008ca0       ??_C@_0FH@PIMEOEJD@Method?5?8?$CFs?8?5marked?5as?5override?5b@ 0000000180081ca0     as_builder.obj
 0002:00008cf8       ??_C@_0BE@JDMFFCCF@Illegal?5member?5type?$AA@ 0000000180081cf8     as_builder.obj
 0002:00008d10       ??_C@_0EJ@JBEHMCJH@The?5virtual?5property?5syntax?5is?5c@ 0000000180081d10     as_builder.obj
 0002:00008d60       ??_C@_0CO@HMBGDE@Previous?5error?5occurred?5while?5in@ 0000000180081d60     as_builder.obj
 0002:00008d90       ??_C@_0CF@CHEDBPAK@Name?5conflict?4?5?8?$CFs?8?5is?5already?5u@ 0000000180081d90     as_builder.obj
 0002:00008db8       ??_C@_0DL@LNOIHAOF@Reference?5types?5cannot?5be?5return@ 0000000180081db8     as_builder.obj
 0002:00008e00       ??_C@_0EB@BIPJOMJK@Reference?5types?5cannot?5be?5passed@ 0000000180081e00     as_builder.obj
 0002:00008e48       ??_C@_0CP@BPOIFNEP@The?5method?5cannot?5be?5named?5with?5@ 0000000180081e48     as_builder.obj
 0002:00008e78       ??_C@_0DG@IHMPJAE@Mixin?5classes?5cannot?5have?5constr@ 0000000180081e78     as_builder.obj
 0002:00008eb0       ??_C@_0EH@CPNMAPKJ@The?5name?5of?5constructors?5and?5des@ 0000000180081eb0     as_builder.obj
 0002:00008ef8       ??_C@_0CM@IBKPFGJG@The?5destructor?5must?5not?5have?5any@ 0000000180081ef8     as_builder.obj
 0002:00008f28       ??_C@_0DM@JHOAADEH@A?5function?5with?5the?5same?5name?5an@ 0000000180081f28     as_builder.obj
 0002:00008f68       ??_C@_08BHAMIMAM@opAssign?$AA@ 0000000180081f68     as_builder.obj
 0002:00008f78       ??_C@_0DJ@IPFONCNL@Property?5accessors?5have?5been?5dis@ 0000000180081f78     as_builder.obj
 0002:00008fb8       ??_C@_0DM@EOMBAKEM@Virtual?5property?5must?5have?5at?5le@ 0000000180081fb8     as_builder.obj
 0002:00008ff8       ??_C@_0CG@CMBKOKMC@Property?5accessor?5must?5be?5implem@ 0000000180081ff8     as_builder.obj
 0002:00009020       ??_C@_04HAOMCFJJ@get_?$AA@ 0000000180082020     as_builder.obj
 0002:00009028       ??_C@_05MFEJDJP@value?$AA@ 0000000180082028     as_builder.obj
 0002:00009030       ??_C@_04OFIMBENL@set_?$AA@ 0000000180082030     as_builder.obj
 0002:00009038       ??_C@_0CO@BHJGICBK@Virtual?5property?5contains?5unreco@ 0000000180082038     as_builder.obj
 0002:00009068       ??_C@_0BO@NIFOJHLG@Namespace?5?8?$CFs?8?5doesn?8t?5exist?4?$AA@ 0000000180082068     as_builder.obj
 0002:00009088       ??_C@_0CH@JBHEMDEC@Template?5subtype?5must?5not?5be?5rea@ 0000000180082088     as_builder.obj
 0002:000090b0       ??_C@_0CF@DCMBGEAO@Template?5?8?$CFs?8?5expects?5?$CFd?5sub?5typ@ 00000001800820b0     as_builder.obj
 0002:000090d8       ??_C@_0DC@EHLJLAGC@Can?8t?5instanciate?5template?5?8?$CFs?8?5@ 00000001800820d8     as_builder.obj
 0002:00009110       ??_C@_0CL@IMALILJG@Type?5?8?$CFs?8?5is?5not?5available?5for?5t@ 0000000180082110     as_builder.obj
 0002:00009140       ??_C@_0DI@JJENPGIM@The?5application?5doesn?8t?5support?5@ 0000000180082140     as_builder.obj
 0002:00009178       ??_C@_0CN@LHEBJPB@Object?5handle?5is?5not?5supported?5f@ 0000000180082178     as_builder.obj
 0002:000091b0       ??_C@_0FG@GJABBDN@Only?5object?5types?5that?5support?5o@ 00000001800821b0     as_builder.obj
 0002:00009210       ??_C@_0EN@PJKIFDNN@Autohandles?5cannot?5be?5used?5with?5@ 0000000180082210     as_builder.obj
 0002:00009268       ??_7asCCompGlobVarType@@6B@ 0000000180082268     as_builder.obj
 0002:00009270       ??_C@_05EILEDKCG@LABEL?$AA@ 0000000180082270     as_bytecode.obj
 0002:00009278       ??_C@_04LFMILBJH@LINE?$AA@ 0000000180082278     as_bytecode.obj
 0002:00009280       ??_C@_07PPADPLNF@ObjInfo?$AA@ 0000000180082280     as_bytecode.obj
 0002:00009288       ??_C@_05PPLCEPDH@Block?$AA@ 0000000180082288     as_bytecode.obj
 0002:00009290       ??_C@_07EAONJJCG@VarDecl?$AA@ 0000000180082290     as_bytecode.obj
 0002:00009298       ??_C@_06CFEMEFKL@BC_250?$AA@ 0000000180082298     as_bytecode.obj
 0002:000092a0       ??_C@_06PFEMJENF@BC_249?$AA@ 00000001800822a0     as_bytecode.obj
 0002:000092a8       ??_C@_06OMFHKFJE@BC_248?$AA@ 00000001800822a8     as_bytecode.obj
 0002:000092b0       ??_C@_06GLMPLJFL@BC_247?$AA@ 00000001800822b0     as_bytecode.obj
 0002:000092b8       ??_C@_06HCNEIIBK@BC_246?$AA@ 00000001800822b8     as_bytecode.obj
 0002:000092c0       ??_C@_06FJPJNLNJ@BC_245?$AA@ 00000001800822c0     as_bytecode.obj
 0002:000092c8       ??_C@_06EAOCOKJI@BC_244?$AA@ 00000001800822c8     as_bytecode.obj
 0002:000092d0       ??_C@_06PKDHMFP@BC_243?$AA@ 00000001800822d0     as_bytecode.obj
 0002:000092d8       ??_C@_06BGLIENBO@BC_242?$AA@ 00000001800822d8     as_bytecode.obj
 0002:000092e0       ??_C@_06DNJFBONN@BC_241?$AA@ 00000001800822e0     as_bytecode.obj
 0002:000092e8       ??_C@_06CEIOCPJM@BC_240?$AA@ 00000001800822e8     as_bytecode.obj
 0002:000092f0       ??_C@_06PAADICFA@BC_239?$AA@ 00000001800822f0     as_bytecode.obj
 0002:000092f8       ??_C@_06OJBILDBB@BC_238?$AA@ 00000001800822f8     as_bytecode.obj
 0002:00009300       ??_C@_06GOIAKPNO@BC_237?$AA@ 0000000180082300     as_bytecode.obj
 0002:00009308       ??_C@_06HHJLJOJP@BC_236?$AA@ 0000000180082308     as_bytecode.obj
 0002:00009310       ??_C@_06FMLGMNFM@BC_235?$AA@ 0000000180082310     as_bytecode.obj
 0002:00009318       ??_C@_06EFKNPMBN@BC_234?$AA@ 0000000180082318     as_bytecode.obj
 0002:00009320       ??_C@_06KOMGKNK@BC_233?$AA@ 0000000180082320     as_bytecode.obj
 0002:00009328       ??_C@_06BDPHFLJL@BC_232?$AA@ 0000000180082328     as_bytecode.obj
 0002:00009330       ??_C@_06DINKAIFI@BC_231?$AA@ 0000000180082330     as_bytecode.obj
 0002:00009338       ??_C@_06CBMBDJBJ@BC_230?$AA@ 0000000180082338     as_bytecode.obj
 0002:00009340       ??_C@_06PBMBOIGH@BC_229?$AA@ 0000000180082340     as_bytecode.obj
 0002:00009348       ??_C@_06OINKNJCG@BC_228?$AA@ 0000000180082348     as_bytecode.obj
 0002:00009350       ??_C@_06GPECMFOJ@BC_227?$AA@ 0000000180082350     as_bytecode.obj
 0002:00009358       ??_C@_06HGFJPEKI@BC_226?$AA@ 0000000180082358     as_bytecode.obj
 0002:00009360       ??_C@_06FNHEKHGL@BC_225?$AA@ 0000000180082360     as_bytecode.obj
 0002:00009368       ??_C@_06EEGPJGCK@BC_224?$AA@ 0000000180082368     as_bytecode.obj
 0002:00009370       ??_C@_06LCOAAON@BC_223?$AA@ 0000000180082370     as_bytecode.obj
 0002:00009378       ??_C@_06BCDFDBKM@BC_222?$AA@ 0000000180082378     as_bytecode.obj
 0002:00009380       ??_C@_06DJBIGCGP@BC_221?$AA@ 0000000180082380     as_bytecode.obj
 0002:00009388       ??_C@_06CAADFDCO@BC_220?$AA@ 0000000180082388     as_bytecode.obj
 0002:00009390       ??_C@_06PDIHFGDO@BC_219?$AA@ 0000000180082390     as_bytecode.obj
 0002:00009398       ??_C@_06OKJMGHHP@BC_218?$AA@ 0000000180082398     as_bytecode.obj
 0002:000093a0       ??_C@_06GNAEHLLA@BC_217?$AA@ 00000001800823a0     as_bytecode.obj
 0002:000093a8       ??_C@_06HEBPEKPB@BC_216?$AA@ 00000001800823a8     as_bytecode.obj
 0002:000093b0       ??_C@_06FPDCBJDC@BC_215?$AA@ 00000001800823b0     as_bytecode.obj
 0002:000093b8       ??_C@_06EGCJCIHD@BC_214?$AA@ 00000001800823b8     as_bytecode.obj
 0002:000093c0       ??_C@_06JGILOLE@BC_213?$AA@ 00000001800823c0     as_bytecode.obj
 0002:000093c8       ??_C@_06BAHDIPPF@BC_212?$AA@ 00000001800823c8     as_bytecode.obj
 0002:000093d0       ??_C@_06DLFONMDG@BC_211?$AA@ 00000001800823d0     as_bytecode.obj
 0002:000093d8       ??_C@_06CCEFONHH@BC_210?$AA@ 00000001800823d8     as_bytecode.obj
 0002:000093e0       ??_C@_06PCEFDMAJ@BC_209?$AA@ 00000001800823e0     as_bytecode.obj
 0002:000093e8       ??_C@_06OLFOANEI@BC_208?$AA@ 00000001800823e8     as_bytecode.obj
 0002:000093f0       ??_C@_06GMMGBBIH@BC_207?$AA@ 00000001800823f0     as_bytecode.obj
 0002:000093f8       ??_C@_06HFNNCAMG@BC_206?$AA@ 00000001800823f8     as_bytecode.obj
 0002:00009400       ??_C@_06FOPAHDAF@BC_205?$AA@ 0000000180082400     as_bytecode.obj
 0002:00009408       ??_C@_06EHOLECEE@BC_204?$AA@ 0000000180082408     as_bytecode.obj
 0002:00009410       ??_C@_06IKKNEID@BC_203?$AA@ 0000000180082410     as_bytecode.obj
 0002:00009418       ??_C@_06BBLBOFMC@BC_202?$AA@ 0000000180082418     as_bytecode.obj
 0002:00009420       ??_C@_06DKJMLGAB@BC_201?$AA@ 0000000180082420     as_bytecode.obj
 0002:00009428       ??_C@_06CDIHIHEA@BC_200?$AA@ 0000000180082428     as_bytecode.obj
 0002:00009430       ??_C@_06OPCBKIGI@BC_199?$AA@ 0000000180082430     as_bytecode.obj
 0002:00009438       ??_C@_06PGDKJJCJ@BC_198?$AA@ 0000000180082438     as_bytecode.obj
 0002:00009440       ??_C@_06HBKCIFOG@BC_197?$AA@ 0000000180082440     as_bytecode.obj
 0002:00009448       ??_C@_06GILJLEKH@BC_196?$AA@ 0000000180082448     as_bytecode.obj
 0002:00009450       ??_C@_06EDJEOHGE@BC_195?$AA@ 0000000180082450     as_bytecode.obj
 0002:00009458       ??_C@_06FKIPNGCF@BC_194?$AA@ 0000000180082458     as_bytecode.obj
 0002:00009460       ??_C@_06BFMOEAOC@BC_193?$AA@ 0000000180082460     as_bytecode.obj
 0002:00009468       ??_C@_0M@DMAABBLJ@SetListType?$AA@ 0000000180082468     as_bytecode.obj
 0002:00009478       ??_C@_0N@MNHNGMHK@PshListElmnt?$AA@ 0000000180082478     as_bytecode.obj
 0002:00009488       ??_C@_0M@NDKOBPOA@SetListSize?$AA@ 0000000180082488     as_bytecode.obj
 0002:00009498       ??_C@_08MLEMEDKD@AllocMem?$AA@ 0000000180082498     as_bytecode.obj
 0002:000094a4       ??_C@_06CNKIKNAM@JLowNZ?$AA@ 00000001800824a4     as_bytecode.obj
 0002:000094ac       ??_C@_05PFCOOEA@JLowZ?$AA@ 00000001800824ac     as_bytecode.obj
 0002:000094b8       ??_C@_07EJFAHACA@RefCpyV?$AA@ 00000001800824b8     as_bytecode.obj
 0002:000094c0       ??_C@_09CEAHJMNL@LoadVObjR?$AA@ 00000001800824c0     as_bytecode.obj
 0002:000094d0       ??_C@_09LPJGNOMN@LoadRObjR?$AA@ 00000001800824d0     as_bytecode.obj
 0002:000094dc       ??_C@_06NDBPEIHD@MODu64?$AA@ 00000001800824dc     as_bytecode.obj
 0002:000094e4       ??_C@_06IKPOCKFP@DIVu64?$AA@ 00000001800824e4     as_bytecode.obj
 0002:000094ec       ??_C@_04HPBCHENO@MODu?$AA@ 00000001800824ec     as_bytecode.obj
 0002:000094f4       ??_C@_04EIMLDOGN@DIVu?$AA@ 00000001800824f4     as_bytecode.obj
 0002:000094fc       ??_C@_05HNPNPNKB@PshV8?$AA@ 00000001800824fc     as_bytecode.obj
 0002:00009508       ??_C@_09NONINBDK@LoadThisR?$AA@ 0000000180082508     as_bytecode.obj
 0002:00009518       ??_C@_07KCOPKDJN@FuncPtr?$AA@ 0000000180082518     as_bytecode.obj
 0002:00009520       ??_C@_07LGAGCDPO@CallPtr?$AA@ 0000000180082520     as_bytecode.obj
 0002:00009528       ??_C@_08LBILDGNJ@JitEntry?$AA@ 0000000180082528     as_bytecode.obj
 0002:00009534       ??_C@_05JALDNIFD@ClrHi?$AA@ 0000000180082534     as_bytecode.obj
 0002:00009540       ??_C@_08NBJNAHEJ@ChkNullS?$AA@ 0000000180082540     as_bytecode.obj
 0002:0000954c       ??_C@_06FLIIKDGH@CMPu64?$AA@ 000000018008254c     as_bytecode.obj
 0002:00009554       ??_C@_06EBEHELEA@CMPi64?$AA@ 0000000180082554     as_bytecode.obj
 0002:0000955c       ??_C@_06MBKKPHKO@BSRA64?$AA@ 000000018008255c     as_bytecode.obj
 0002:00009564       ??_C@_06DDMACPHD@BSRL64?$AA@ 0000000180082564     as_bytecode.obj
 0002:0000956c       ??_C@_06OMBAAGJA@BSLL64?$AA@ 000000018008256c     as_bytecode.obj
 0002:00009574       ??_C@_06HBLBKMCP@BXOR64?$AA@ 0000000180082574     as_bytecode.obj
 0002:0000957c       ??_C@_05CMMGJHFP@BOR64?$AA@ 000000018008257c     as_bytecode.obj
 0002:00009584       ??_C@_06BNHKNOIP@BAND64?$AA@ 0000000180082584     as_bytecode.obj
 0002:0000958c       ??_C@_06MJNAKAFE@MODi64?$AA@ 000000018008258c     as_bytecode.obj
 0002:00009594       ??_C@_06JADBMCHI@DIVi64?$AA@ 0000000180082594     as_bytecode.obj
 0002:0000959c       ??_C@_06FLONMKGI@MULi64?$AA@ 000000018008259c     as_bytecode.obj
 0002:000095a4       ??_C@_06NDDMJDJK@SUBi64?$AA@ 00000001800825a4     as_bytecode.obj
 0002:000095ac       ??_C@_06GELHDKOD@ADDi64?$AA@ 00000001800825ac     as_bytecode.obj
 0002:000095b4       ??_C@_06IBFFBCHF@BNOT64?$AA@ 00000001800825b4     as_bytecode.obj
 0002:000095bc       ??_C@_06EPPDBKPB@DECi64?$AA@ 00000001800825bc     as_bytecode.obj
 0002:000095c4       ??_C@_06EEODILPC@INCi64?$AA@ 00000001800825c4     as_bytecode.obj
 0002:000095cc       ??_C@_06BOADODHP@NEGi64?$AA@ 00000001800825cc     as_bytecode.obj
 0002:000095d4       ??_C@_06GEHJNJFA@u64TOd?$AA@ 00000001800825d4     as_bytecode.obj
 0002:000095dc       ??_C@_06MEAHCPOK@i64TOd?$AA@ 00000001800825dc     as_bytecode.obj
 0002:000095e4       ??_C@_06FGEPLLNC@u64TOf?$AA@ 00000001800825e4     as_bytecode.obj
 0002:000095ec       ??_C@_06PGDBENGI@i64TOf?$AA@ 00000001800825ec     as_bytecode.obj
 0002:000095f4       ??_C@_06JHPLPHHF@dTOu64?$AA@ 00000001800825f4     as_bytecode.obj
 0002:000095fc       ??_C@_06GEOGFM@fTOu64?$AA@ 00000001800825fc     as_bytecode.obj
 0002:00009604       ??_C@_06INDEBPFC@dTOi64?$AA@ 0000000180082604     as_bytecode.obj
 0002:0000960c       ??_C@_06BKKLAOHL@fTOi64?$AA@ 000000018008260c     as_bytecode.obj
 0002:00009614       ??_C@_06OMODHOJC@iTOi64?$AA@ 0000000180082614     as_bytecode.obj
 0002:0000961c       ??_C@_06EMJNIICI@uTOi64?$AA@ 000000018008261c     as_bytecode.obj
 0002:00009624       ??_C@_06HBKJFBKH@i64TOi?$AA@ 0000000180082624     as_bytecode.obj
 0002:0000962c       ??_C@_04LIPANAOG@Cast?$AA@ 000000018008262c     as_bytecode.obj
 0002:00009634       ??_C@_05PEOJONIA@SetV2?$AA@ 0000000180082634     as_bytecode.obj
 0002:0000963c       ??_C@_05NPMELOED@SetV1?$AA@ 000000018008263c     as_bytecode.obj
 0002:00009644       ??_C@_04PCCIKAOH@iTOw?$AA@ 0000000180082644     as_bytecode.obj
 0002:0000964c       ??_C@_04MFJNEGPD@iTOb?$AA@ 000000018008264c     as_bytecode.obj
 0002:00009658       ??_C@_08DFBLICD@CALLINTF?$AA@ 0000000180082658     as_bytecode.obj
 0002:00009668       ??_C@_08KMOKPDAM@ChkNullV?$AA@ 0000000180082668     as_bytecode.obj
 0002:00009678       ??_C@_07HEECDKBM@ChkRefS?$AA@ 0000000180082678     as_bytecode.obj
 0002:00009680       ??_C@_05LPFHIDEB@SetG4?$AA@ 0000000180082680     as_bytecode.obj
 0002:00009688       ??_C@_05JACGJKLO@MULIf?$AA@ 0000000180082688     as_bytecode.obj
 0002:00009690       ??_C@_05EJCFIOGG@SUBIf?$AA@ 0000000180082690     as_bytecode.obj
 0002:00009698       ??_C@_05HPNAMMBI@ADDIf?$AA@ 0000000180082698     as_bytecode.obj
 0002:000096a0       ??_C@_05BHLOIGHB@MULIi?$AA@ 00000001800826a0     as_bytecode.obj
 0002:000096a8       ??_C@_05MOLNJCKJ@SUBIi?$AA@ 00000001800826a8     as_bytecode.obj
 0002:000096b0       ??_C@_05PIEINANH@ADDIi?$AA@ 00000001800826b0     as_bytecode.obj
 0002:000096b8       ??_C@_04CMMLFHMO@MODd?$AA@ 00000001800826b8     as_bytecode.obj
 0002:000096c0       ??_C@_04BLBCBNHN@DIVd?$AA@ 00000001800826c0     as_bytecode.obj
 0002:000096c8       ??_C@_04BNHMLBIN@MULd?$AA@ 00000001800826c8     as_bytecode.obj
 0002:000096d0       ??_C@_04MIDCLFGE@SUBd?$AA@ 00000001800826d0     as_bytecode.obj
 0002:000096d8       ??_C@_04DODKDNMO@ADDd?$AA@ 00000001800826d8     as_bytecode.obj
 0002:000096e0       ??_C@_04BOPNDFEM@MODf?$AA@ 00000001800826e0     as_bytecode.obj
 0002:000096e8       ??_C@_04CJCEHPPP@DIVf?$AA@ 00000001800826e8     as_bytecode.obj
 0002:000096f0       ??_C@_04CPEKNDAP@MULf?$AA@ 00000001800826f0     as_bytecode.obj
 0002:000096f8       ??_C@_04PKAENHOG@SUBf?$AA@ 00000001800826f8     as_bytecode.obj
 0002:00009700       ??_C@_04MAMFPEM@ADDf?$AA@  0000000180082700     as_bytecode.obj
 0002:00009708       ??_C@_04JJGFCJID@MODi?$AA@ 0000000180082708     as_bytecode.obj
 0002:00009710       ??_C@_04KOLMGDDA@DIVi?$AA@ 0000000180082710     as_bytecode.obj
 0002:00009718       ??_C@_04KINCMPMA@MULi?$AA@ 0000000180082718     as_bytecode.obj
 0002:00009720       ??_C@_04HNJMMLCJ@SUBi?$AA@ 0000000180082720     as_bytecode.obj
 0002:00009728       ??_C@_04ILJEEDID@ADDi?$AA@ 0000000180082728     as_bytecode.obj
 0002:00009730       ??_C@_04BBJHHGKE@fTOd?$AA@ 0000000180082730     as_bytecode.obj
 0002:00009738       ??_C@_04DGNHJLPG@uTOd?$AA@ 0000000180082738     as_bytecode.obj
 0002:00009740       ??_C@_04JDMHOBHF@iTOd?$AA@ 0000000180082740     as_bytecode.obj
 0002:00009748       ??_C@_04FJGBEHEG@dTOf?$AA@ 0000000180082748     as_bytecode.obj
 0002:00009750       ??_C@_04DIIOAGNE@dTOu?$AA@ 0000000180082750     as_bytecode.obj
 0002:00009758       ??_C@_04NOPJFLIJ@dTOi?$AA@ 0000000180082758     as_bytecode.obj
 0002:00009760       ??_C@_05NFLGHMBH@uwTOi?$AA@ 0000000180082760     as_bytecode.obj
 0002:00009768       ??_C@_05HNLGGEOF@ubTOi?$AA@ 0000000180082768     as_bytecode.obj
 0002:00009770       ??_C@_05DOPJPAK@swTOi?$AA@ 0000000180082770     as_bytecode.obj
 0002:00009778       ??_C@_05KLOPIHPI@sbTOi?$AA@ 0000000180082778     as_bytecode.obj
 0002:00009780       ??_C@_04ECEOFFLE@fTOu?$AA@ 0000000180082780     as_bytecode.obj
 0002:00009788       ??_C@_04EOBPJHE@uTOf?$AA@  0000000180082788     as_bytecode.obj
 0002:00009790       ??_C@_04KEDJAIOJ@fTOi?$AA@ 0000000180082790     as_bytecode.obj
 0002:00009798       ??_C@_04KBPBIDPH@iTOf?$AA@ 0000000180082798     as_bytecode.obj
 0002:000097a0       ??_C@_03MJAIKILM@VAR?$AA@  00000001800827a0     as_bytecode.obj
 0002:000097a4       ??_C@_06NPDEGHHE@CmpPtr?$AA@ 00000001800827a4     as_bytecode.obj
 0002:000097ac       ??_C@_03IJABMKEA@PGA?$AA@  00000001800827ac     as_bytecode.obj
 0002:000097b0       ??_C@_03JEALBIKI@LDV?$AA@  00000001800827b0     as_bytecode.obj
 0002:000097b4       ??_C@_03MHNCDLLI@LDG?$AA@  00000001800827b4     as_bytecode.obj
 0002:000097b8       ??_C@_04BHNPBNAG@RDR8?$AA@ 00000001800827b8     as_bytecode.obj
 0002:000097c0       ??_C@_04LLGKFCAK@RDR4?$AA@ 00000001800827c0     as_bytecode.obj
 0002:000097c8       ??_C@_04ONDAPFIM@RDR2?$AA@ 00000001800827c8     as_bytecode.obj
 0002:000097d0       ??_C@_04MGBNKGEP@RDR1?$AA@ 00000001800827d0     as_bytecode.obj
 0002:000097d8       ??_C@_05CGKEIMLE@WRTV8?$AA@ 00000001800827d8     as_bytecode.obj
 0002:000097e0       ??_C@_05IKBBMDLI@WRTV4?$AA@ 00000001800827e0     as_bytecode.obj
 0002:000097e8       ??_C@_05NMELGEDO@WRTV2?$AA@ 00000001800827e8     as_bytecode.obj
 0002:000097f0       ??_C@_05PHGGDHPN@WRTV1?$AA@ 00000001800827f0     as_bytecode.obj
 0002:000097f8       ??_C@_08IFBIOKIA@CpyGtoV4?$AA@ 00000001800827f8     as_bytecode.obj
 0002:00009808       ??_C@_08HKLGDGKE@CpyRtoV8?$AA@ 0000000180082808     as_bytecode.obj
 0002:00009818       ??_C@_08NGADHJKI@CpyRtoV4?$AA@ 0000000180082818     as_bytecode.obj
 0002:00009828       ??_C@_08FAHGPCPJ@CpyVtoG4?$AA@ 0000000180082828     as_bytecode.obj
 0002:00009838       ??_C@_08OGCONMGO@CpyVtoR8?$AA@ 0000000180082838     as_bytecode.obj
 0002:00009848       ??_C@_08EKJLJDGC@CpyVtoR4?$AA@ 0000000180082848     as_bytecode.obj
 0002:00009858       ??_C@_08OBCHHELC@CpyVtoV8?$AA@ 0000000180082858     as_bytecode.obj
 0002:00009868       ??_C@_08ENJCDLLO@CpyVtoV4?$AA@ 0000000180082868     as_bytecode.obj
 0002:00009874       ??_C@_05OJPJPGHB@ADDSi?$AA@ 0000000180082874     as_bytecode.obj
 0002:0000987c       ??_C@_05OAGAFAK@SetV8?$AA@ 000000018008287c     as_bytecode.obj
 0002:00009884       ??_C@_05KCLDEKAG@SetV4?$AA@ 0000000180082884     as_bytecode.obj
 0002:0000988c       ??_C@_06OBAPOPJA@TYPEID?$AA@ 000000018008288c     as_bytecode.obj
 0002:00009898       ??_C@_07INBDABFO@OBJTYPE?$AA@ 0000000180082898     as_bytecode.obj
 0002:000098a0       ??_C@_07FJMIBPC@ClrVPtr?$AA@ 00000001800828a0     as_bytecode.obj
 0002:000098a8       ??_C@_07MFHLDELI@PshNull?$AA@ 00000001800828a8     as_bytecode.obj
 0002:000098b0       ??_C@_06MAEPPJCD@GETREF?$AA@ 00000001800828b0     as_bytecode.obj
 0002:000098b8       ??_C@_09HGJMLOLK@GETOBJREF?$AA@ 00000001800828b8     as_bytecode.obj
 0002:000098c4       ??_C@_06GKCOMOLN@CHKREF?$AA@ 00000001800828c4     as_bytecode.obj
 0002:000098cc       ??_C@_06NAJLNBFH@REFCPY?$AA@ 00000001800828cc     as_bytecode.obj
 0002:000098d4       ??_C@_06MLMGCPOI@GETOBJ?$AA@ 00000001800828d4     as_bytecode.obj
 0002:000098e0       ??_C@_08FKKMKGMB@STOREOBJ?$AA@ 00000001800828e0     as_bytecode.obj
 0002:000098f0       ??_C@_07IFCEGDKO@LOADOBJ?$AA@ 00000001800828f0     as_bytecode.obj
 0002:000098f8       ??_C@_04HEDFJGEJ@FREE?$AA@ 00000001800828f8     as_bytecode.obj
 0002:00009900       ??_C@_05GGGKADGD@ALLOC?$AA@ 0000000180082900     as_bytecode.obj
 0002:00009908       ??_C@_07MAELCFPF@SUSPEND?$AA@ 0000000180082908     as_bytecode.obj
 0002:00009910       ??_C@_07OFCGFOHH@CALLBND?$AA@ 0000000180082910     as_bytecode.obj
 0002:00009918       ??_C@_07BBGJFPOO@CALLSYS?$AA@ 0000000180082918     as_bytecode.obj
 0002:00009920       ??_C@_03OEDLDJBF@STR?$AA@  0000000180082920     as_bytecode.obj
 0002:00009928       ??_C@_07DBPDNMCA@PshRPtr?$AA@ 0000000180082928     as_bytecode.obj
 0002:00009930       ??_C@_07HOAIKKGM@PopRPtr?$AA@ 0000000180082930     as_bytecode.obj
 0002:00009938       ??_C@_04JEOHLLAO@JMPP?$AA@ 0000000180082938     as_bytecode.obj
 0002:00009940       ??_C@_05IBJMIODI@CMPIu?$AA@ 0000000180082940     as_bytecode.obj
 0002:00009948       ??_C@_05OAHDMPKK@CMPIf?$AA@ 0000000180082948     as_bytecode.obj
 0002:00009950       ??_C@_05GHOLNDGF@CMPIi?$AA@ 0000000180082950     as_bytecode.obj
 0002:00009958       ??_C@_04JHHDFEMF@CMPi?$AA@ 0000000180082958     as_bytecode.obj
 0002:00009960       ??_C@_04BAOLEIAK@CMPf?$AA@ 0000000180082960     as_bytecode.obj
 0002:00009968       ??_C@_04HBAEAJJI@CMPu?$AA@ 0000000180082968     as_bytecode.obj
 0002:00009970       ??_C@_04CCNNCKII@CMPd?$AA@ 0000000180082970     as_bytecode.obj
 0002:00009978       ??_C@_06LIFPPBCE@RDSPtr?$AA@ 0000000180082978     as_bytecode.obj
 0002:00009980       ??_C@_07MEHDHKOA@PshVPtr?$AA@ 0000000180082980     as_bytecode.obj
 0002:00009988       ??_C@_05GHBAJMDK@PshC8?$AA@ 0000000180082988     as_bytecode.obj
 0002:00009990       ??_C@_04OCDMKKLN@COPY?$AA@ 0000000180082990     as_bytecode.obj
 0002:00009998       ??_C@_04EEAMCHBN@BSRA?$AA@ 0000000180082998     as_bytecode.obj
 0002:000099a0       ??_C@_04PBKCFJFA@BSRL?$AA@ 00000001800829a0     as_bytecode.obj
 0002:000099a8       ??_C@_04OHBKNHCK@BSLL?$AA@ 00000001800829a8     as_bytecode.obj
 0002:000099b0       ??_C@_04OGBMNBKN@BXOR?$AA@ 00000001800829b0     as_bytecode.obj
 0002:000099b8       ??_C@_03BMONEFHO@BOR?$AA@  00000001800829b8     as_bytecode.obj
 0002:000099bc       ??_C@_04NGFHBGFI@BAND?$AA@ 00000001800829bc     as_bytecode.obj
 0002:000099c4       ??_C@_04MFDEHOGI@BNOT?$AA@ 00000001800829c4     as_bytecode.obj
 0002:000099cc       ??_C@_05HOLLDEBK@DecVi?$AA@ 00000001800829cc     as_bytecode.obj
 0002:000099d4       ??_C@_05LFPFBGNF@IncVi?$AA@ 00000001800829d4     as_bytecode.obj
 0002:000099dc       ??_C@_04ELCJMDFO@DECd?$AA@ 00000001800829dc     as_bytecode.obj
 0002:000099e4       ??_C@_04GELIIAOO@INCd?$AA@ 00000001800829e4     as_bytecode.obj
 0002:000099ec       ??_C@_04HJBPKBNM@DECf?$AA@ 00000001800829ec     as_bytecode.obj
 0002:000099f4       ??_C@_04FGIOOCGM@INCf?$AA@ 00000001800829f4     as_bytecode.obj
 0002:000099fc       ??_C@_04POIHLNBD@DECi?$AA@ 00000001800829fc     as_bytecode.obj
 0002:00009a04       ??_C@_04NBBGPOKD@INCi?$AA@ 0000000180082a04     as_bytecode.obj
 0002:00009a0c       ??_C@_05JDNPHKJI@DECi8?$AA@ 0000000180082a0c     as_bytecode.obj
 0002:00009a14       ??_C@_06HIIKGOPG@DECi16?$AA@ 0000000180082a14     as_bytecode.obj
 0002:00009a1c       ??_C@_05FIJBFIFH@INCi8?$AA@ 0000000180082a1c     as_bytecode.obj
 0002:00009a24       ??_C@_06HDJKPPPF@INCi16?$AA@ 0000000180082a24     as_bytecode.obj
 0002:00009a2c       ??_C@_04GJAHDCD@NEGd?$AA@  0000000180082a2c     as_bytecode.obj
 0002:00009a34       ??_C@_04DEKGBBKB@NEGf?$AA@ 0000000180082a34     as_bytecode.obj
 0002:00009a3c       ??_C@_04LDDOANGO@NEGi?$AA@ 0000000180082a3c     as_bytecode.obj
 0002:00009a44       ??_C@_03FKGLEFII@TNP?$AA@  0000000180082a44     as_bytecode.obj
 0002:00009a48       ??_C@_02NBLAPNNF@TP?$AA@   0000000180082a48     as_bytecode.obj
 0002:00009a4c       ??_C@_03HBEGBGEL@TNS?$AA@  0000000180082a4c     as_bytecode.obj
 0002:00009a50       ??_C@_02PKJNKOBG@TS?$AA@   0000000180082a50     as_bytecode.obj
 0002:00009a54       ??_C@_03KAIEKNAC@TNZ?$AA@  0000000180082a54     as_bytecode.obj
 0002:00009a58       ??_C@_02CLFPBFFP@TZ?$AA@   0000000180082a58     as_bytecode.obj
 0002:00009a5c       ??_C@_03OKKNGFCE@JNP?$AA@  0000000180082a5c     as_bytecode.obj
 0002:00009a60       ??_C@_02MHAIHDKP@JP?$AA@   0000000180082a60     as_bytecode.obj
 0002:00009a64       ??_C@_03MBIADGOH@JNS?$AA@  0000000180082a64     as_bytecode.obj
 0002:00009a68       ??_C@_02OMCFCAGM@JS?$AA@   0000000180082a68     as_bytecode.obj
 0002:00009a6c       ??_C@_03BAECINKO@JNZ?$AA@  0000000180082a6c     as_bytecode.obj
 0002:00009a70       ??_C@_02DNOHJLCF@JZ?$AA@   0000000180082a70     as_bytecode.obj
 0002:00009a74       ??_C@_03OIOLNLHN@JMP?$AA@  0000000180082a74     as_bytecode.obj
 0002:00009a78       ??_C@_03BHDJDALB@RET?$AA@  0000000180082a78     as_bytecode.obj
 0002:00009a7c       ??_C@_04CAGKGBIO@CALL?$AA@ 0000000180082a7c     as_bytecode.obj
 0002:00009a88       ??_C@_07KLMOFAMA@LdGRdR4?$AA@ 0000000180082a88     as_bytecode.obj
 0002:00009a90       ??_C@_05MMKMHLOK@PshG4?$AA@ 0000000180082a90     as_bytecode.obj
 0002:00009a98       ??_C@_03GBFNEA@NOT?$AA@    0000000180082a98     as_bytecode.obj
 0002:00009aa0       ??_C@_07NHDNNCHM@SwapPtr?$AA@ 0000000180082aa0     as_bytecode.obj
 0002:00009aa8       ??_C@_03NNGPFHCL@PSF?$AA@  0000000180082aa8     as_bytecode.obj
 0002:00009aac       ??_C@_05NBEILCKN@PshV4?$AA@ 0000000180082aac     as_bytecode.obj
 0002:00009ab4       ??_C@_05MLKFNDDG@PshC4?$AA@ 0000000180082ab4     as_bytecode.obj
 0002:00009ac0       ??_C@_07JJPDMENC@PshGPtr?$AA@ 0000000180082ac0     as_bytecode.obj
 0002:00009ac8       ??_C@_06MEMKEACM@PopPtr?$AA@ 0000000180082ac8     as_bytecode.obj
 0002:00009ad0       ??_C@_0FM@MLFNNGIF@Can?8t?5return?5type?5?8?$CFs?8?5by?5value?5@ 0000000180082ad0     as_callfunc.obj
 0002:00009b30       ??_C@_0FK@BLOBMHOE@Can?8t?5pass?5type?5?8?$CFs?8?5by?5value?5un@ 0000000180082b30     as_callfunc.obj
 0002:00009b90       ??_C@_0BE@HJPGHDFB@Null?5pointer?5access?$AA@ 0000000180082b90     as_callfunc.obj
 0002:00009ba8       ??_C@_0CJ@OKAOMHCF@Caught?5an?5exception?5from?5the?5app@ 0000000180082ba8     as_callfunc.obj
 0002:00009bd8       ??_C@_0BC@KALBELH@?$CFdelegate_factory?$AA@ 0000000180082bd8     as_compiler.obj
 0002:00009bec       ??_C@_05MKJDPMKP@super?$AA@ 0000000180082bec     as_compiler.obj
 0002:00009bf4       ??_C@_04IIAJELJL@this?$AA@ 0000000180082bf4     as_compiler.obj
 0002:00009bfc       ??_C@_04EHNLIFAM@uint?$AA@ 0000000180082bfc     as_compiler.obj
 0002:00009c04       ??_C@_06LNOFJDNM@return?$AA@ 0000000180082c04     as_compiler.obj
 0002:00009c0c       ??_C@_03KEJHNBPP@out?$AA@  0000000180082c0c     as_compiler.obj
 0002:00009c10       ??_C@_02LMMGJAGL@in?$AA@   0000000180082c10     as_compiler.obj
 0002:00009c14       ??_C@_04DDKJGDCM@bool?$AA@ 0000000180082c14     as_compiler.obj
 0002:00009c1c       ??_C@_01OGPIMHDM@?$DP?$AA@ 0000000180082c1c     as_compiler.obj
 0002:00009c20       ??_C@_01PKGAHCOL@?$CJ?$AA@ 0000000180082c20     as_compiler.obj
 0002:00009c24       ??_C@_01ODHLEDKK@?$CI?$AA@ 0000000180082c24     as_compiler.obj
 0002:00009c30       ??_C@_0FE@GEOBKKLO@Base?5class?5doesn?8t?5have?5default?5@ 0000000180082c30     as_compiler.obj
 0002:00009c88       ??_C@_0BK@FJOEKAJB@Return?5type?5can?8t?5be?5?8?$CFs?8?$AA@ 0000000180082c88     as_compiler.obj
 0002:00009cb0       ??_C@_0EH@EPMCNDLO@Parameter?5type?5can?8t?5be?5?8?$CFs?8?0?5be@ 0000000180082cb0     as_compiler.obj
 0002:00009cf8       ??_C@_0BL@FNPIHGKM@Parameter?5already?5declared?$AA@ 0000000180082cf8     as_compiler.obj
 0002:00009d18       ??_C@_0BN@DKDABDJA@Not?5all?5paths?5return?5a?5value?$AA@ 0000000180082d18     as_compiler.obj
 0002:00009d38       ??_C@_0P@IOCPAGPI@return?5address?$AA@ 0000000180082d38     as_compiler.obj
 0002:00009d50       ??_C@_0FH@OFLKCIPJ@The?5function?5has?5too?5many?5jump?5l@ 0000000180082d50     as_compiler.obj
 0002:00009da8       ??_C@_0CN@MKGECEHO@No?5copy?5constructor?5for?5object?5o@ 0000000180082da8     as_compiler.obj
 0002:00009dd8       ??_C@_0DA@ICPNMHEM@No?5default?5constructor?5for?5objec@ 0000000180082dd8     as_compiler.obj
 0002:00009e08       ??_C@_0BB@KOCFCGHG@Unreachable?5code?$AA@ 0000000180082e08     as_compiler.obj
 0002:00009e20       ??_C@_0CF@CONEKCFP@Multiple?5matching?5signatures?5to?5@ 0000000180082e20     as_compiler.obj
 0002:00009e48       ??_C@_0DB@FKDGALJ@Shared?5code?5cannot?5call?5non?9shar@ 0000000180082e48     as_compiler.obj
 0002:00009e80       ??_C@_0CM@NBCODIJL@Can?8t?5implicitly?5convert?5from?5?8?$CF@ 0000000180082e80     as_compiler.obj
 0002:00009eb0       ??_C@_0BG@LIKLELOJ@Not?5a?5valid?5reference?$AA@ 0000000180082eb0     as_compiler.obj
 0002:00009ec8       ??_C@_0M@BOJLLNMD@default?5arg?$AA@ 0000000180082ec8     as_compiler.obj
 0002:00009ee0       ??_C@_0EF@KFOCADOD@Failed?5while?5compiling?5default?5a@ 0000000180082ee0     as_compiler.obj
 0002:00009f30       ??_C@_0FG@OGMMEFPJ@The?5type?5of?5the?5default?5argument@ 0000000180082f30     as_compiler.obj
 0002:00009f88       ??_C@_02KEGNLNML@?0?5?$AA@ 0000000180082f88     as_compiler.obj
 0002:00009f8c       ??_C@_06PODBGOLO@?5const?$AA@ 0000000180082f8c     as_compiler.obj
 0002:00009f98       ??_C@_0BP@NMAACKFA@No?5matching?5signatures?5to?5?8?$CFs?8?$AA@ 0000000180082f98     as_compiler.obj
 0002:00009fb8       ??_C@_0BA@OMFBMMHL@Candidates?5are?3?$AA@ 0000000180082fb8     as_compiler.obj
 0002:00009fc8       ??_C@_0BM@OEHPEAKO@Illegal?5variable?5name?5?8?$CFs?8?4?$AA@ 0000000180082fc8     as_compiler.obj
 0002:00009fe8       ??_C@_0BJ@KNGJOCBP@?8?$CFs?8?5is?5already?5declared?$AA@ 0000000180082fe8     as_compiler.obj
 0002:0000a008       ??_C@_0BP@LPKAJAPO@Only?5objects?5have?5constructors?$AA@ 0000000180083008     as_compiler.obj
 0002:0000a028       ??_C@_0CO@FPPFOGJN@Initialization?5lists?5cannot?5be?5u@ 0000000180083028     as_compiler.obj
 0002:0000a058       ??_C@_0DB@LFLDBBLH@Expected?5a?5list?5enclosed?5by?5?$HL?5?$HN?5@ 0000000180083058     as_compiler.obj
 0002:0000a090       ??_C@_0CD@DMKKAAPJ@Not?5enough?5values?5to?5match?5patte@ 0000000180083090     as_compiler.obj
 0002:0000a0b8       ??_C@_0CB@MPLMMCDL@Too?5many?5values?5to?5match?5pattern@ 00000001800830b8     as_compiler.obj
 0002:0000a0e0       ??_C@_0CM@BIPBBLLP@Switch?5expressions?5must?5be?5integ@ 00000001800830e0     as_compiler.obj
 0002:0000a110       ??_C@_0CD@GLGOADJJ@Case?5expressions?5must?5be?5constan@ 0000000180083110     as_compiler.obj
 0002:0000a138       ??_C@_0BG@EJDKNKOP@Duplicate?5switch?5case?$AA@ 0000000180083138     as_compiler.obj
 0002:0000a150       ??_C@_0CG@FCDJJPJK@The?5default?5case?5must?5be?5the?5las@ 0000000180083150     as_compiler.obj
 0002:0000a178       ??_C@_0BH@LAGDLMCM@Empty?5switch?5statement?$AA@ 0000000180083178     as_compiler.obj
 0002:0000a190       ??_C@_0EN@CNLCDLBG@Variables?5cannot?5be?5declared?5in?5@ 0000000180083190     as_compiler.obj
 0002:0000a1e0       ??_C@_0CD@PKBKIBNI@Expression?5must?5be?5of?5boolean?5ty@ 00000001800831e0     as_compiler.obj
 0002:0000a208       ??_C@_0BI@EIOGAENM@If?5with?5empty?5statement?$AA@ 0000000180083208     as_compiler.obj
 0002:0000a220       ??_C@_0BK@GNEDGDAG@Else?5with?5empty?5statement?$AA@ 0000000180083220     as_compiler.obj
 0002:0000a240       ??_C@_0CG@MJCLDDDJ@Both?5conditions?5must?5call?5constr@ 0000000180083240     as_compiler.obj
 0002:0000a268       ??_C@_0BA@DHIHCBBL@Invalid?5?8break?8?$AA@ 0000000180083268     as_compiler.obj
 0002:0000a278       ??_C@_0BD@OFOCFONC@Invalid?5?8continue?8?$AA@ 0000000180083278     as_compiler.obj
 0002:0000a290       ??_C@_0EO@PPHILEL@Previous?5error?5occurred?5while?5at@ 0000000180083290     as_compiler.obj
 0002:0000a2e0       ??_C@_0BE@MKOFGAJ@Must?5return?5a?5value?$AA@ 00000001800832e0     as_compiler.obj
 0002:0000a2f8       ??_C@_0CO@EEKPOENH@Can?8t?5return?5value?5when?5return?5t@ 00000001800832f8     as_compiler.obj
 0002:0000a328       ??_C@_0CH@PDLFDPHH@Can?8t?5return?5reference?5to?5local?5@ 0000000180083328     as_compiler.obj
 0002:0000a350       ??_C@_0FN@ELEJNEOK@Resulting?5reference?5cannot?5be?5re@ 0000000180083350     as_compiler.obj
 0002:0000a3b0       ??_C@_0GL@KNFFGOBG@Resulting?5reference?5cannot?5be?5re@ 00000001800833b0     as_compiler.obj
 0002:0000a420       ??_C@_0CL@BLNDCNGC@No?5conversion?5from?5?8?$CFs?8?5to?5?8?$CFs?8?5@ 0000000180083420     as_compiler.obj
 0002:0000a450       ??_C@_0BJ@JNEPNFJ@?8?$CFs?8?5is?5not?5initialized?4?$AA@ 0000000180083450     as_compiler.obj
 0002:0000a470       ??_C@_0BH@HCCKFEGN@Reference?5is?5read?9only?$AA@ 0000000180083470     as_compiler.obj
 0002:0000a488       ??_C@_0BD@PDEICFND@Not?5a?5valid?5lvalue?$AA@ 0000000180083488     as_compiler.obj
 0002:0000a4a0       ??_C@_0DH@OKBINHKG@There?5is?5no?5copy?5operator?5for?5th@ 00000001800834a0     as_compiler.obj
 0002:0000a4d8       ??_C@_0DI@GFOFDOME@Float?5value?5truncated?5in?5implici@ 00000001800834d8     as_compiler.obj
 0002:0000a510       ??_C@_0CK@NLJPFIFL@Implicit?5conversion?5of?5value?5is?5@ 0000000180083510     as_compiler.obj
 0002:0000a540       ??_C@_0CK@EGDKKEDF@Implicit?5conversion?5changed?5sign@ 0000000180083540     as_compiler.obj
 0002:0000a570       ??_C@_0CB@EAOMNPAG@Value?5is?5too?5large?5for?5data?5type@ 0000000180083570     as_compiler.obj
 0002:0000a598       ??_C@_0BM@PIIHPAJG@Invalid?5operation?5on?5method?$AA@ 0000000180083598     as_compiler.obj
 0002:0000a5b8       ??_C@_0DN@DLOBDBJ@Compound?5assignments?5with?5proper@ 00000001800835b8     as_compiler.obj
 0002:0000a600       ??_C@_0EK@DEBMGEPD@It?5is?5not?5allowed?5to?5perform?5a?5h@ 0000000180083600     as_compiler.obj
 0002:0000a650       ??_C@_0BN@NJAFBHFF@Expression?5is?5not?5an?5l?9value?$AA@ 0000000180083650     as_compiler.obj
 0002:0000a670       ??_C@_0BK@HBMAKNDM@Illegal?5operation?5on?5?8?$CFs?8?$AA@ 0000000180083670     as_compiler.obj
 0002:0000a690       ??_C@_0CF@MBCOPBHO@No?5appropriate?5opAssign?5method?5f@ 0000000180083690     as_compiler.obj
 0002:0000a6b8       ??_C@_0CJ@JCHOPPKA@Both?5expressions?5must?5have?5the?5s@ 00000001800836b8     as_compiler.obj
 0002:0000a6e8       ??_C@_0DK@EMHDAMCP@Shared?5code?5cannot?5access?5non?9sh@ 00000001800836e8     as_compiler.obj
 0002:0000a728       ??_C@_0CE@BCHHFPEF@Found?5multiple?5matching?5enum?5val@ 0000000180083728     as_compiler.obj
 0002:0000a750       ??_C@_0BD@NFIKOGGA@Unknown?5scope?5?8?$CFs?8?$AA@ 0000000180083750     as_compiler.obj
 0002:0000a768       ??_C@_0BF@NPPOIEBP@?8?$CFs?8?5is?5not?5declared?$AA@ 0000000180083768     as_compiler.obj
 0002:0000a780       ??_C@_0BK@LEDDMJII@Invalid?5character?5literal?$AA@ 0000000180083780     as_compiler.obj
 0002:0000a7a0       ??_C@_0DG@KKHKGIFA@Multiline?5strings?5are?5not?5allowe@ 00000001800837a0     as_compiler.obj
 0002:0000a7d8       ??_C@_0CO@CEPODNHA@Strings?5are?5not?5recognized?5by?5th@ 00000001800837d8     as_compiler.obj
 0002:0000a808       ??_C@_0DI@HMJMFOJ@Invalid?5unicode?5escape?5sequence?0@ 0000000180083808     as_compiler.obj
 0002:0000a840       ??_C@_0BI@IIBOGKEJ@Invalid?5escape?5sequence?$AA@ 0000000180083840     as_compiler.obj
 0002:0000a858       ??_C@_0CD@OCOHCHHK@Invalid?5unicode?5sequence?5in?5sour@ 0000000180083858     as_compiler.obj
 0002:0000a880       ??_C@_0BL@PJKJOEGB@Invalid?5unicode?5code?5point?$AA@ 0000000180083880     as_compiler.obj
 0002:0000a8a0       ??_C@_0CB@FGPFBHEF@A?5cast?5operator?5has?5one?5argument@ 00000001800838a0     as_compiler.obj
 0002:0000a8c8       ??_C@_0CH@KKAOPHNN@Illegal?5target?5type?5for?5referenc@ 00000001800838c8     as_compiler.obj
 0002:0000a8f0       ??_C@_0DH@IIANNFCN@Argument?5cannot?5be?5assigned?4?5Out@ 00000001800838f0     as_compiler.obj
 0002:0000a928       ??_C@_0DM@KBBNFADN@Can?8t?5create?5delegate?5for?5types?5@ 0000000180083928     as_compiler.obj
 0002:0000a970       ??_C@_0FD@HAHLIMBJ@Expression?5doesn?8t?5form?5a?5functi@ 0000000180083970     as_compiler.obj
 0002:0000a9c8       ??_C@_0CC@PMDIKHBO@Can?8t?5call?5a?5constructor?5in?5loop@ 00000001800839c8     as_compiler.obj
 0002:0000a9f0       ??_C@_0CD@DFMAEJDN@Can?8t?5call?5a?5constructor?5in?5swit@ 00000001800839f0     as_compiler.obj
 0002:0000aa18       ??_C@_0CI@HKBBFNJP@Can?8t?5call?5a?5constructor?5multipl@ 0000000180083a18     as_compiler.obj
 0002:0000aa40       ??_C@_0CJ@EKNAKNLJ@Void?5cannot?5be?5an?5operand?5in?5exp@ 0000000180083a40     as_compiler.obj
 0002:0000aa6c       ??_C@_05FBCGNILJ@opNeg?$AA@ 0000000180083a6c     as_compiler.obj
 0002:0000aa74       ??_C@_05FEDEGNDI@opCom?$AA@ 0000000180083a74     as_compiler.obj
 0002:0000aa80       ??_C@_08OIBEEAAN@opPreInc?$AA@ 0000000180083a80     as_compiler.obj
 0002:0000aa90       ??_C@_08BGCLHHDB@opPreDec?$AA@ 0000000180083a90     as_compiler.obj
 0002:0000aa9c       ??_C@_02HCKGKOFO@?$CI?$CJ?$AA@ 0000000180083a9c     as_compiler.obj
 0002:0000aaa0       ??_C@_0BI@POCPON@Function?5?8?$CFs?8?5not?5found?$AA@ 0000000180083aa0     as_compiler.obj
 0002:0000aab8       ??_C@_0CG@NOMBAIJA@Found?5more?5than?5one?5matching?5ope@ 0000000180083ab8     as_compiler.obj
 0002:0000aae0       ??_C@_0CD@KFKPDBON@Illegal?5operation?5on?5this?5dataty@ 0000000180083ae0     as_compiler.obj
 0002:0000ab08       ??_C@_0N@HIPKJAJN@Invalid?5type?$AA@ 0000000180083b08     as_compiler.obj
 0002:0000ab18       ??_C@_0BH@CPDBOPMA@Reference?5is?5temporary?$AA@ 0000000180083b18     as_compiler.obj
 0002:0000ab30       ??_C@_0FH@LMNIEIDM@Invalid?5reference?4?5Property?5acce@ 0000000180083b30     as_compiler.obj
 0002:0000ab88       ??_C@_0CP@FPPANEDO@Found?5multiple?5get?5accessors?5for@ 0000000180083b88     as_compiler.obj
 0002:0000abb8       ??_C@_0CP@DDCDKAPN@Found?5multiple?5set?5accessors?5for@ 0000000180083bb8     as_compiler.obj
 0002:0000abf0       ??_C@_0EG@ECOPKFH@The?5property?5?8?$CFs?8?5has?5mismatchin@ 0000000180083bf0     as_compiler.obj
 0002:0000ac38       ??_C@_0CB@EKJIEGND@The?5property?5has?5no?5set?5accessor@ 0000000180083c38     as_compiler.obj
 0002:0000ac60       ??_C@_0DE@PNEODJOF@Non?9const?5method?5call?5on?5read?9on@ 0000000180083c60     as_compiler.obj
 0002:0000ac98       ??_C@_0CB@DOCGIKJP@The?5property?5has?5no?5get?5accessor@ 0000000180083c98     as_compiler.obj
 0002:0000acc0       ??_C@_09IPIDDEPC@opPostInc?$AA@ 0000000180083cc0     as_compiler.obj
 0002:0000acd0       ??_C@_09HBLMADMO@opPostDec?$AA@ 0000000180083cd0     as_compiler.obj
 0002:0000ace0       ??_C@_0CI@NCGKGIEK@Illegal?5access?5to?5private?5proper@ 0000000180083ce0     as_compiler.obj
 0002:0000ad08       ??_C@_0BN@KOMOHMFD@?8?$CFs?8?5is?5not?5a?5member?5of?5?8?$CFs?8?$AA@ 0000000180083d08     as_compiler.obj
 0002:0000ad28       ??_C@_0DA@PLDFBNEB@Type?5?8?$CFs?8?5doesn?8t?5support?5the?5in@ 0000000180083d28     as_compiler.obj
 0002:0000ad58       ??_C@_07GMJFEKED@opIndex?$AA@ 0000000180083d58     as_compiler.obj
 0002:0000ad60       ??_C@_0CK@PJIGHBHM@Expression?5doesn?8t?5evaluate?5to?5a@ 0000000180083d60     as_compiler.obj
 0002:0000ad90       ??_C@_08BHEGFHKG@opEquals?$AA@ 0000000180083d90     as_compiler.obj
 0002:0000ad9c       ??_C@_05KINMNFEK@opCmp?$AA@ 0000000180083d9c     as_compiler.obj
 0002:0000ada4       ??_C@_05CDKKPBBL@opAdd?$AA@ 0000000180083da4     as_compiler.obj
 0002:0000adb0       ??_C@_07BJGFFIED@opAdd_r?$AA@ 0000000180083db0     as_compiler.obj
 0002:0000adb8       ??_C@_05JCAEAAMO@opSub?$AA@ 0000000180083db8     as_compiler.obj
 0002:0000adc0       ??_C@_07CPJABKDN@opSub_r?$AA@ 0000000180083dc0     as_compiler.obj
 0002:0000adc8       ??_C@_05LMEBANOM@opMul?$AA@ 0000000180083dc8     as_compiler.obj
 0002:0000add0       ??_C@_07PGJDAOOF@opMul_r?$AA@ 0000000180083dd0     as_compiler.obj
 0002:0000add8       ??_C@_05GEFIOCKJ@opDiv?$AA@ 0000000180083dd8     as_compiler.obj
 0002:0000ade0       ??_C@_07ELCIJCFF@opDiv_r?$AA@ 0000000180083de0     as_compiler.obj
 0002:0000ade8       ??_C@_05GFCJKBEC@opMod?$AA@ 0000000180083de8     as_compiler.obj
 0002:0000adf0       ??_C@_07BJHHKJCJ@opMod_r?$AA@ 0000000180083df0     as_compiler.obj
 0002:0000adf8       ??_C@_04CPEPJJGL@opOr?$AA@ 0000000180083df8     as_compiler.obj
 0002:0000ae00       ??_C@_06HFDDMEDK@opOr_r?$AA@ 0000000180083e00     as_compiler.obj
 0002:0000ae08       ??_C@_05CODNHEMN@opAnd?$AA@ 0000000180083e08     as_compiler.obj
 0002:0000ae10       ??_C@_07FDNFEAOC@opAnd_r?$AA@ 0000000180083e10     as_compiler.obj
 0002:0000ae18       ??_C@_05BOHGLDDI@opXor?$AA@ 0000000180083e18     as_compiler.obj
 0002:0000ae20       ??_C@_07DPBODCEC@opXor_r?$AA@ 0000000180083e20     as_compiler.obj
 0002:0000ae28       ??_C@_05BIHJBNGD@opShl?$AA@ 0000000180083e28     as_compiler.obj
 0002:0000ae30       ??_C@_07FHDPDODN@opShl_r?$AA@ 0000000180083e30     as_compiler.obj
 0002:0000ae38       ??_C@_05MMDICCLM@opShr?$AA@ 0000000180083e38     as_compiler.obj
 0002:0000ae40       ??_C@_07OHPJBOJB@opShr_r?$AA@ 0000000180083e40     as_compiler.obj
 0002:0000ae48       ??_C@_06GGMJHAFH@opUShr?$AA@ 0000000180083e48     as_compiler.obj
 0002:0000ae50       ??_C@_08NPBGKOJP@opUShr_r?$AA@ 0000000180083e50     as_compiler.obj
 0002:0000ae60       ??_C@_0M@CFOIDCNF@opAddAssign?$AA@ 0000000180083e60     as_compiler.obj
 0002:0000ae70       ??_C@_0M@HLGHDMLF@opSubAssign?$AA@ 0000000180083e70     as_compiler.obj
 0002:0000ae80       ??_C@_0M@FHIKJPNM@opMulAssign?$AA@ 0000000180083e80     as_compiler.obj
 0002:0000ae90       ??_C@_0M@MBACIJA@opDivAssign?$AA@ 0000000180083e90     as_compiler.obj
 0002:0000aea0       ??_C@_0M@LNIBEMIG@opModAssign?$AA@ 0000000180083ea0     as_compiler.obj
 0002:0000aeb0       ??_C@_0L@GPDDELPG@opOrAssign?$AA@ 0000000180083eb0     as_compiler.obj
 0002:0000aec0       ??_C@_0M@LAMGLIEL@opAndAssign?$AA@ 0000000180083ec0     as_compiler.obj
 0002:0000aed0       ??_C@_0M@MGNCDOIG@opXorAssign?$AA@ 0000000180083ed0     as_compiler.obj
 0002:0000aee0       ??_C@_0M@DDGCILKB@opShlAssign?$AA@ 0000000180083ee0     as_compiler.obj
 0002:0000aef0       ??_C@_0M@FKFDKILI@opShrAssign?$AA@ 0000000180083ef0     as_compiler.obj
 0002:0000af00       ??_C@_0N@IODGHGCG@opUShrAssign?$AA@ 0000000180083f00     as_compiler.obj
 0002:0000af10       ??_C@_0FM@MPLIONEI@Value?5assignment?5on?5reference?5ty@ 0000000180083f10     as_compiler.obj
 0002:0000af70       ??_C@_0DG@HMENGLNF@Compound?5assignment?5on?5reference@ 0000000180083f70     as_compiler.obj
 0002:0000afa8       ??_C@_0DO@EONJGCOI@No?5matching?5operator?5that?5takes?5@ 0000000180083fa8     as_compiler.obj
 0002:0000afe8       ??_C@_0DA@MEFPLBK@No?5conversion?5from?5?8?$CFs?8?5to?5math?5@ 0000000180083fe8     as_compiler.obj
 0002:0000b018       ??_C@_0P@FGOAMMID@Divide?5by?5zero?$AA@ 0000000180084018     as_compiler.obj
 0002:0000b028       ??_C@_0BJ@HHEDLNFG@Signed?1Unsigned?5mismatch?$AA@ 0000000180084028     as_compiler.obj
 0002:0000b050       ??_C@_0EH@EHINOEA@The?5operand?5is?5implicitly?5conver@ 0000000180084050     as_compiler.obj
 0002:0000b098       ??_C@_0CF@PBKMCJDD@No?5appropriate?5opEquals?5method?5f@ 0000000180084098     as_compiler.obj
 0002:0000b0c0       ??_C@_0DG@CLHMBCPE@Both?5operands?5must?5be?5handles?5wh@ 00000001800840c0     as_compiler.obj
 0002:0000b0f8       ??_C@_0CE@JAMLAJDL@Illegal?5call?5to?5private?5method?5?8@ 00000001800840f8     as_compiler.obj
 0002:0000b11c       ??_C@_04MLLLIHIP@null?$AA@ 000000018008411c     as_context.obj
 0002:0000b128       ??_C@_07NJICNPMO@Prepare?$AA@ 0000000180084128     as_context.obj
 0002:0000b130       ??_C@_0DF@BBPNJILH@Failed?5in?5call?5to?5function?5?8?$CFs?8?5@ 0000000180084130     as_context.obj
 0002:0000b168       ??_C@_0CL@CKFMKIND@Failed?5in?5call?5to?5function?5?8?$CFs?8?5@ 0000000180084168     as_context.obj
 0002:0000b198       ??_C@_07LFBPOOOH@Execute?$AA@ 0000000180084198     as_context.obj
 0002:0000b1a0       ??_C@_0P@MGPMFBBC@Stack?5overflow?$AA@ 00000001800841a0     as_context.obj
 0002:0000b1b0       ??_C@_0BI@GMOBLMLH@Unbound?5function?5called?$AA@ 00000001800841b0     as_context.obj
 0002:0000b1c8       ??_C@_0BN@OLLAEAOD@Overflow?5in?5integer?5division?$AA@ 00000001800841c8     as_context.obj
 0002:0000b1f8       ??_7asIScriptContext@@6B@  00000001800841f8     as_context.obj
 0002:0000b3b8       ??_7asCContext@@6B@        00000001800843b8     as_context.obj
 0002:0000b568       ??_C@_05BNCCCJPP@const?$AA@ 0000000180084568     as_datatype.obj
 0002:0000b570       ??_C@_01EOFPKCAF@?$EA?$AA@ 0000000180084570     as_datatype.obj
 0002:0000b574       ??_C@_01IHBHIGKO@?0?$AA@   0000000180084574     as_datatype.obj
 0002:0000b578       ??_C@_01PPODPGHN@?$DO?$AA@ 0000000180084578     as_datatype.obj
 0002:0000b57c       ??_C@_01MNNFJEPP@?$DM?$AA@ 000000018008457c     as_datatype.obj
 0002:0000b580       ??_C@_01HNPIGOCE@?$CG?$AA@ 0000000180084580     as_datatype.obj
 0002:0000b588       ??_C@_0O@PKNFAIPM@?$DMnull?5handle?$DO?$AA@ 0000000180084588     as_datatype.obj
 0002:0000b598       ??_C@_06LIJLOJAG@const?5?$AA@ 0000000180084598     as_datatype.obj
 0002:0000b5a0       ??_C@_02GPECMEKF@?$FL?$FN?$AA@ 00000001800845a0     as_datatype.obj
 0002:0000b5a8       ??_C@_09EEKGDCPH@?$DMunknown?$DO?$AA@ 00000001800845a8     as_datatype.obj
 0002:0000b5b8       ??_C@_0CN@BGCJADIN@AddScriptObjectToGC?5called?5with?5@ 00000001800845b8     as_gc.obj
 0002:0000b5f0       ??_C@_0GP@FKDLONCP@Object?5?$HL?$CFd?$HN?4?5GC?5cannot?5destroy?5a@ 00000001800845f0     as_gc.obj
 0002:0000b660       ??_C@_0BD@PIBKOPEB@_builtin_function_?$AA@ 0000000180084660     as_gc.obj
 0002:0000b678       ??_C@_0DD@IBGKHHCE@The?5builtin?5type?5in?5previous?5mes@ 0000000180084678     as_gc.obj
 0002:0000b6b0       ??_C@_0BF@PJIKMAFA@_builtin_objecttype_?$AA@ 00000001800846b0     as_gc.obj
 0002:0000b6c8       ??_C@_0BF@MHHKLLKE@_builtin_globalprop_?$AA@ 00000001800846c8     as_gc.obj
 0002:0000b6e0       ??_C@_0GL@EGHBEKOO@Object?5?$HL?$CFd?$HN?4?5GC?5cannot?5destroy?5a@ 00000001800846e0     as_gc.obj
 0002:0000b758       ??_7asIScriptGeneric@@6B@  0000000180084758     as_generic.obj
 0002:0000b838       ??_7asCGeneric@@6B@        0000000180084838     as_generic.obj
 0002:0000b908       ??_C@_08LDFLKIAL@void?5f?$CI?$CJ?$AA@ 0000000180084908     as_globalproperty.obj
 0002:0000b918       ??_C@_07LDNHOMAB@int?5f?$CI?$CJ?$AA@ 0000000180084918     as_globalproperty.obj
 0002:0000b920       ??_C@_08MNPEAMCB@bool?5f?$CI?$CJ?$AA@ 0000000180084920     as_globalproperty.obj
 0002:0000b930       ??_C@_0P@JNIDENBA@void?5f?$CIint?$CGin?$CJ?$AA@ 0000000180084930     as_globalproperty.obj
 0002:0000b940       ??_C@_0EE@IJHPBFIC@Invalid?5configuration?4?5Verify?5th@ 0000000180084940     as_module.obj
 0002:0000b988       ??_C@_0CK@NENIGDA@Failed?5to?5initialize?5global?5vari@ 0000000180084988     as_module.obj
 0002:0000b9b8       ??_C@_0BH@FNGIGOMO@Exception?5?8?$CFs?8?5in?5?8?$CFs?8?$AA@ 00000001800849b8     as_module.obj
 0002:0000b9d8       ??_7asIScriptModule@@6B@   00000001800849d8     as_module.obj
 0002:0000bb58       ??_7asCModule@@6B@         0000000180084b58     as_module.obj
 0002:0000bcd8       ??_7asCCompGlobPropType@@6B@ 0000000180084cd8     as_module.obj
 0002:0000bce0       ??_C@_08FPOCBNNM@private?5?$AA@ 0000000180084ce0     as_objecttype.obj
 0002:0000bcf8       ??_7asIObjectType@@6B@     0000000180084cf8     as_objecttype.obj
 0002:0000be18       ??_7asCObjectType@@6B@     0000000180084e18     as_objecttype.obj
 0002:0000bf28       ??_C@_04HNEBHLOP@from?$AA@ 0000000180084f28     as_parser.obj
 0002:0000bf30       ??_C@_05OODBEKIG@while?$AA@ 0000000180084f30     as_parser.obj
 0002:0000bf38       ??_C@_06DOPOGBGP@switch?$AA@ 0000000180084f38     as_parser.obj
 0002:0000bf40       ??_C@_05HMIGGJBB@mixin?$AA@ 0000000180084f40     as_parser.obj
 0002:0000bf48       ??_C@_09NFKLEKPH@interface?$AA@ 0000000180084f48     as_parser.obj
 0002:0000bf54       ??_C@_02HEBPBKGD@if?$AA@   0000000180084f54     as_parser.obj
 0002:0000bf58       ??_C@_03JOHEBPFF@for?$AA@  0000000180084f58     as_parser.obj
 0002:0000bf5c       ??_C@_02KNAFDCHJ@do?$AA@   0000000180084f5c     as_parser.obj
 0002:0000bf60       ??_C@_07DLHCIBDH@default?$AA@ 0000000180084f60     as_parser.obj
 0002:0000bf68       ??_C@_08DLICDMBN@continue?$AA@ 0000000180084f68     as_parser.obj
 0002:0000bf74       ??_C@_05ENKANFLO@class?$AA@ 0000000180084f74     as_parser.obj
 0002:0000bf7c       ??_C@_04HJDBPPOC@cast?$AA@ 0000000180084f7c     as_parser.obj
 0002:0000bf84       ??_C@_04CKOINMPC@case?$AA@ 0000000180084f84     as_parser.obj
 0002:0000bf8c       ??_C@_05ELPHFHOI@break?$AA@ 0000000180084f8c     as_parser.obj
 0002:0000bf94       ??_C@_01JLIPDDHJ@?3?$AA@   0000000180084f94     as_parser.obj
 0002:0000bf98       ??_C@_01LBDDMOBJ@?$FN?$AA@ 0000000180084f98     as_parser.obj
 0002:0000bf9c       ??_C@_01CELHOKLL@?$HN?$AA@ 0000000180084f9c     as_parser.obj
 0002:0000bfa0       ??_C@_01HCONENDN@?$HL?$AA@ 0000000180084fa0     as_parser.obj
 0002:0000bfa4       ??_C@_01ICJEACDI@?$DL?$AA@ 0000000180084fa4     as_parser.obj
 0002:0000bfa8       ??_C@_0BD@HGAJODMG@Expected?5data?5type?$AA@ 0000000180084fa8     as_parser.obj
 0002:0000bfc0       ??_C@_0BE@IHCNHDGI@Expected?5identifier?$AA@ 0000000180084fc0     as_parser.obj
 0002:0000bfd8       ??_C@_0BG@CKBODOKF@Unexpected?5token?5?8?$CFs?8?$AA@ 0000000180084fd8     as_parser.obj
 0002:0000bff0       ??_C@_0BO@EGEMEHBA@Non?9terminated?5string?5literal?$AA@ 0000000180084ff0     as_parser.obj
 0002:0000c010       ??_C@_0BH@CHGNDCAL@Unexpected?5end?5of?5file?$AA@ 0000000180085010     as_parser.obj
 0002:0000c028       ??_C@_0BJ@BOONNJMF@While?5parsing?5expression?$AA@ 0000000180085028     as_parser.obj
 0002:0000c048       ??_C@_0O@BBNOCNAC@Expected?5?8?$CFs?8?$AA@ 0000000180085048     as_parser.obj
 0002:0000c058       ??_C@_0BG@GOFKALI@Expected?5?8?$CFs?8?5or?5?8?$CFs?8?$AA@ 0000000180085058     as_parser.obj
 0002:0000c070       ??_C@_0BC@FOHGDPBE@Expected?5one?5of?3?5?$AA@ 0000000180085070     as_parser.obj
 0002:0000c084       ??_C@_06LGDBIFHB@repeat?$AA@ 0000000180085084     as_parser.obj
 0002:0000c090       ??_C@_0BO@JFFOFFGC@While?5parsing?5statement?5block?$AA@ 0000000180085090     as_parser.obj
 0002:0000c0b0       ??_C@_0BK@GALJCMKC@Expected?5expression?5value?$AA@ 00000001800850b0     as_parser.obj
 0002:0000c0d0       ??_C@_0BC@MDHAGCCL@Expected?5constant?$AA@ 00000001800850d0     as_parser.obj
 0002:0000c0e8       ??_C@_0BA@EJPPCECL@Expected?5string?$AA@ 00000001800850e8     as_parser.obj
 0002:0000c0f8       ??_C@_0BG@KPBNOFCF@Expected?5pre?5operator?$AA@ 00000001800850f8     as_parser.obj
 0002:0000c110       ??_C@_0BH@LKIFDGDA@Expected?5post?5operator?$AA@ 0000000180085110     as_parser.obj
 0002:0000c128       ??_C@_0BC@NBNLEHAJ@Expected?5operator?$AA@ 0000000180085128     as_parser.obj
 0002:0000c140       ??_C@_0BA@KFMHHHBG@?$DMunknown?5token?$DO?$AA@ 0000000180085140     as_parser.obj
 0002:0000c150       ??_C@_0BI@GECCABLE@While?5parsing?5namespace?$AA@ 0000000180085150     as_parser.obj
 0002:0000c168       ??_C@_0BM@BDNIFIKG@Expected?5method?5or?5property?$AA@ 0000000180085168     as_parser.obj
 0002:0000c188       ??_C@_0CC@DNLCLABP@While?5parsing?5initialization?5lis@ 0000000180085188     as_parser.obj
 0002:0000c1b0       ??_C@_0BM@JJNDNHLL@While?5parsing?5argument?5list?$AA@ 00000001800851b0     as_parser.obj
 0002:0000c1d0       ??_C@_0DJ@DNIJEN@Attempting?5to?5instanciate?5invali@ 00000001800851d0     as_restore.obj
 0002:0000c210       ??_C@_0CB@ONCMEAJC@Template?5type?5?8?$CFs?8?5doesn?8t?5exist@ 0000000180085210     as_restore.obj
 0002:0000c238       ??_C@_0CE@FBDJHPMN@Template?5subtype?5?8?$CFs?8?5doesn?8t?5ex@ 0000000180085238     as_restore.obj
 0002:0000c260       ??_C@_0BB@EDHKFEGD@_builtin_object_?$AA@ 0000000180085260     as_restore.obj
 0002:0000c278       ??_C@_0BP@KGCHOOGN@Object?5type?5?8?$CFs?8?5doesn?8t?5exist?$AA@ 0000000180085278     as_restore.obj
 0002:0000c298       ??_C@_06GDCCJGAN@2?428?40?$AA@ 0000000180085298     as_scriptengine.obj
 0002:0000c2a0       ??_C@_0CC@CKCKHPBA@?5AS_64BIT_PTR?5AS_WIN?5AS_X64_MSVC@ 00000001800852a0     as_scriptengine.obj
 0002:0000c2c8       ??_C@_0BE@DJKNMFEJ@SetDefaultNamespace?$AA@ 00000001800852c8     as_scriptengine.obj
 0002:0000c2e0       ??_C@_08FPPNKELP@factstub?$AA@ 00000001800852e0     as_scriptengine.obj
 0002:0000c2f0       ??_C@_0BH@OAJJJOML@RegisterObjectProperty?$AA@ 00000001800852f0     as_scriptengine.obj
 0002:0000c308       ??_C@_0BC@CNOEFLN@RegisterInterface?$AA@ 0000000180085308     as_scriptengine.obj
 0002:0000c320       ??_C@_0BI@DOHHPMFL@RegisterInterfaceMethod?$AA@ 0000000180085320     as_scriptengine.obj
 0002:0000c338       ??_C@_0BD@PIOMOIME@RegisterObjectType?$AA@ 0000000180085338     as_scriptengine.obj
 0002:0000c350       ??_C@_0DF@PHDBKJKN@A?5value?5type?5must?5be?5registered?5@ 0000000180085350     as_scriptengine.obj
 0002:0000c388       ??_C@_0BI@CNLJIGIA@RegisterObjectBehaviour?$AA@ 0000000180085388     as_scriptengine.obj
 0002:0000c3a0       ??_C@_08EEKIAJDE@_beh_?$CFd_?$AA@ 00000001800853a0     as_scriptengine.obj
 0002:0000c3b0       ??_C@_0CO@FGPHLAHF@The?5behaviour?5is?5not?5compatible?5@ 00000001800853b0     as_scriptengine.obj
 0002:0000c3e0       ??_C@_0HN@JMACBDKH@List?5factory?5expects?5only?5one?5re@ 00000001800853e0     as_scriptengine.obj
 0002:0000c460       ??_C@_0HD@PGLHEEFG@First?5parameter?5to?5template?5fact@ 0000000180085460     as_scriptengine.obj
 0002:0000c4e0       ??_C@_0GN@JHKNOGH@Template?5list?5factory?5expects?5tw@ 00000001800854e0     as_scriptengine.obj
 0002:0000c550       ??_C@_0BH@OBCJCFIN@RegisterGlobalProperty?$AA@ 0000000180085550     as_scriptengine.obj
 0002:0000c568       ??_C@_0BF@MCOFMHLC@RegisterObjectMethod?$AA@ 0000000180085568     as_scriptengine.obj
 0002:0000c580       ??_C@_0BH@NIGLMKEF@RegisterGlobalFunction?$AA@ 0000000180085580     as_scriptengine.obj
 0002:0000c5a0       ??_C@_0EO@GDAIIFLK@A?5garbage?5collected?5type?5must?5ha@ 00000001800855a0     as_scriptengine.obj
 0002:0000c5f0       ??_C@_0DI@PDLCMFDB@A?5scoped?5reference?5type?5must?5hav@ 00000001800855f0     as_scriptengine.obj
 0002:0000c628       ??_C@_0DN@NGMEOFFN@A?5reference?5type?5must?5have?5the?5a@ 0000000180085628     as_scriptengine.obj
 0002:0000c670       ??_C@_0FB@BBKHBEPJ@A?5non?9pod?5value?5type?5must?5have?5t@ 0000000180085670     as_scriptengine.obj
 0002:0000c6c8       ??_C@_0CA@IDFLJJHO@Type?5?8?$CFs?8?5is?5missing?5behaviours?$AA@ 00000001800856c8     as_scriptengine.obj
 0002:0000c6e8       ??_C@_0DO@OBPEACKD@Failed?5in?5call?5to?5function?5?8?$CFs?8?5@ 00000001800856e8     as_scriptengine.obj
 0002:0000c728       ??_C@_0BG@OJAFHCHI@RegisterStringFactory?$AA@ 0000000180085728     as_scriptengine.obj
 0002:0000c740       ??_C@_0BB@BHHNOEGH@_string_factory_?$AA@ 0000000180085740     as_scriptengine.obj
 0002:0000c758       ??_C@_0BD@CGHCNCC@CreateScriptObject?$AA@ 0000000180085758     as_scriptengine.obj
 0002:0000c770       ??_C@_0BA@MNPHPDGH@RegisterFuncdef?$AA@ 0000000180085770     as_scriptengine.obj
 0002:0000c780       ??_C@_0BA@ICFFDJAO@RegisterTypedef?$AA@ 0000000180085780     as_scriptengine.obj
 0002:0000c790       ??_C@_0N@MKGCMLPE@RegisterEnum?$AA@ 0000000180085790     as_scriptengine.obj
 0002:0000c7a0       ??_C@_0BC@CDHLHHOF@RegisterEnumValue?$AA@ 00000001800857a0     as_scriptengine.obj
 0002:0000c7c8       ??_7asIScriptEngine@@6B@   00000001800857c8     as_scriptengine.obj
 0002:0000ca68       ??_7asCScriptEngine@@6B@   0000000180085a68     as_scriptengine.obj
 0002:0000cd00       ??_C@_05DNOIDIPO@inout?$AA@ 0000000180085d00     as_scriptfunction.obj
 0002:0000cd08       ??_C@_0BJ@LANGEOPL@void?5f?$CIint?5?$CGin?0?5int?5?$CGin?$CJ?$AA@ 0000000180085d08     as_scriptfunction.obj
 0002:0000cd28       ??_C@_07HBKPIFKK@_beh_0_?$AA@ 0000000180085d28     as_scriptfunction.obj
 0002:0000cd30       ??_C@_07HCCLFBME@_beh_2_?$AA@ 0000000180085d30     as_scriptfunction.obj
 0002:0000cd38       ??_C@_0BB@FCGMAIGB@_unnamed_type_?3?3?$AA@ 0000000180085d38     as_scriptfunction.obj
 0002:0000cd50       ??_C@_0BE@NNBEBLEN@_unnamed_function_?$CI?$AA@ 0000000180085d50     as_scriptfunction.obj
 0002:0000cd64       ??_C@_05CHAIBMGB@_beh_?$AA@ 0000000180085d64     as_scriptfunction.obj
 0002:0000cd6c       ??_C@_05IKIGCGFN@?5?$DN?5?$CFs?$AA@ 0000000180085d6c     as_scriptfunction.obj
 0002:0000cd74       ??_C@_02PEDIMADA@?5?$HL?$AA@ 0000000180085d74     as_scriptfunction.obj
 0002:0000cd78       ??_C@_02KCGCGHLG@?5?$HN?$AA@ 0000000180085d78     as_scriptfunction.obj
 0002:0000cd80       ??_C@_07LHAJOHDA@?5repeat?$AA@ 0000000180085d80     as_scriptfunction.obj
 0002:0000cd98       ??_7asIScriptFunction@@6B@ 0000000180085d98     as_scriptfunction.obj
 0002:0000cec8       ??_7asCScriptFunction@@6B@ 0000000180085ec8     as_scriptfunction.obj
 0002:0000cff0       ??_7asSListPatternNode@@6B@ 0000000180085ff0     as_scriptfunction.obj
 0002:0000d008       ??_7asSListPatternDataTypeNode@@6B@ 0000000180086008     as_scriptfunction.obj
 0002:0000d018       ??_C@_0CH@JDPPNHJK@An?5exception?5occurred?5in?5a?5neste@ 0000000180086018     as_scriptobject.obj
 0002:0000d040       ??_C@_0BH@NIHONOMD@int?5?$CGopAssign?$CIint?5?$CGin?$CJ?$AA@ 0000000180086040     as_scriptobject.obj
 0002:0000d058       ??_C@_08BBAIGFOB@int?5?$CGf?$CI?$CJ?$AA@ 0000000180086058     as_scriptobject.obj
 0002:0000d070       ??_C@_0FB@LIJKNNFD@The?5script?5object?5of?5type?5?8?$CFs?8?5i@ 0000000180086070     as_scriptobject.obj
 0002:0000d0d8       ??_7asIScriptObject@@6B@   00000001800860d8     as_scriptobject.obj
 0002:0000d138       ??_7asILockableSharedBool@@6B@ 0000000180086138     as_scriptobject.obj
 0002:0000d178       ??_7asCLockableSharedBool@@6B@ 0000000180086178     as_scriptobject.obj
 0002:0000d1b8       ??_7asCScriptObject@@6B@   00000001800861b8     as_scriptobject.obj
 0002:0000d218       ??_7asIThreadManager@@6B@  0000000180086218     as_thread.obj
 0002:0000d228       ??_7asCThreadManager@@6B@  0000000180086228     as_thread.obj
 0002:0000d230       ??_C@_04HHCDBDLF@?5?7?$AN?6?$AA@ 0000000180086230     as_tokenizer.obj
 0002:0000d238       ??_C@_03COLCDPPJ@xor?$AA@  0000000180086238     as_tokenizer.obj
 0002:0000d23c       ??_C@_04GKJNKENE@void?$AA@ 000000018008623c     as_tokenizer.obj
 0002:0000d244       ??_C@_06KKKLBFKN@uint64?$AA@ 0000000180086244     as_tokenizer.obj
 0002:0000d24c       ??_C@_06PKDKHAMA@uint32?$AA@ 000000018008624c     as_tokenizer.obj
 0002:0000d254       ??_C@_06JNNCGBKK@uint16?$AA@ 0000000180086254     as_tokenizer.obj
 0002:0000d25c       ??_C@_05BOGOCLFF@uint8?$AA@ 000000018008625c     as_tokenizer.obj
 0002:0000d268       ??_C@_07FIDIHKEG@typedef?$AA@ 0000000180086268     as_tokenizer.obj
 0002:0000d270       ??_C@_04LOAJBDKD@true?$AA@ 0000000180086270     as_tokenizer.obj
 0002:0000d278       ??_C@_07NMPLPEPB@private?$AA@ 0000000180086278     as_tokenizer.obj
 0002:0000d280       ??_C@_02FODMLBIE@or?$AA@   0000000180086280     as_tokenizer.obj
 0002:0000d284       ??_C@_03NJKJADM@not?$AA@   0000000180086284     as_tokenizer.obj
 0002:0000d288       ??_C@_09KPMGAFNI@namespace?$AA@ 0000000180086288     as_tokenizer.obj
 0002:0000d294       ??_C@_02EDKKPMHH@is?$AA@   0000000180086294     as_tokenizer.obj
 0002:0000d298       ??_C@_05DIFFJEPM@int64?$AA@ 0000000180086298     as_tokenizer.obj
 0002:0000d2a0       ??_C@_05GIMEPBJB@int32?$AA@ 00000001800862a0     as_tokenizer.obj
 0002:0000d2a8       ??_C@_05PCMOAPL@int16?$AA@ 00000001800862a8     as_tokenizer.obj
 0002:0000d2b0       ??_C@_04DCGBOBJJ@int8?$AA@ 00000001800862b0     as_tokenizer.obj
 0002:0000d2b8       ??_C@_03JBIPMCLC@int?$AA@  00000001800862b8     as_tokenizer.obj
 0002:0000d2bc       ??_C@_06EOGGDCGF@import?$AA@ 00000001800862bc     as_tokenizer.obj
 0002:0000d2c8       ??_C@_07BHJKLACP@funcdef?$AA@ 00000001800862c8     as_tokenizer.obj
 0002:0000d2d0       ??_C@_05KNFBNCOH@float?$AA@ 00000001800862d0     as_tokenizer.obj
 0002:0000d2d8       ??_C@_05LAPONLG@false?$AA@ 00000001800862d8     as_tokenizer.obj
 0002:0000d2e0       ??_C@_04DBJPMPLO@enum?$AA@ 00000001800862e0     as_tokenizer.obj
 0002:0000d2e8       ??_C@_04FHMCPBIP@else?$AA@ 00000001800862e8     as_tokenizer.obj
 0002:0000d2f0       ??_C@_06BNJCAIGJ@double?$AA@ 00000001800862f0     as_tokenizer.obj
 0002:0000d2f8       ??_C@_03BOPJPIAM@and?$AA@  00000001800862f8     as_tokenizer.obj
 0002:0000d2fc       ??_C@_03IFCBDCCC@?$CBis?$AA@ 00000001800862fc     as_tokenizer.obj
 0002:0000d300       ??_C@_02FDNJECIE@?$CB?$DN?$AA@ 0000000180086300     as_tokenizer.obj
 0002:0000d304       ??_C@_01DCLJPIOD@?$CB?$AA@ 0000000180086304     as_tokenizer.obj
 0002:0000d308       ??_C@_01OHGJGJJP@?$FL?$AA@ 0000000180086308     as_tokenizer.obj
 0002:0000d30c       ??_C@_04HDCFABLD@?$DO?$DO?$DO?$DN?$AA@ 000000018008630c     as_tokenizer.obj
 0002:0000d314       ??_C@_03KBHPHMJG@?$DO?$DO?$DO?$AA@ 0000000180086314     as_tokenizer.obj
 0002:0000d318       ??_C@_03IKFCCPFF@?$DO?$DO?$DN?$AA@ 0000000180086318     as_tokenizer.obj
 0002:0000d31c       ??_C@_02GPIOPFAK@?$DO?$DO?$AA@ 000000018008631c     as_tokenizer.obj
 0002:0000d320       ??_C@_02EEKDKGMJ@?$DO?$DN?$AA@ 0000000180086320     as_tokenizer.obj
 0002:0000d324       ??_C@_03CDNPDDLA@?$DM?$DM?$DN?$AA@ 0000000180086324     as_tokenizer.obj
 0002:0000d328       ??_C@_02FODMEDOG@?$DM?$DM?$AA@ 0000000180086328     as_tokenizer.obj
 0002:0000d32c       ??_C@_02EHCHHCKH@?$DM?$DN?$AA@ 000000018008632c     as_tokenizer.obj
 0002:0000d330       ??_C@_02ECKEFFIN@?$FO?$FO?$AA@ 0000000180086330     as_tokenizer.obj
 0002:0000d334       ??_C@_02MHEGNOJ@?$FO?$DN?$AA@ 0000000180086334     as_tokenizer.obj
 0002:0000d338       ??_C@_01JKBOJNNK@?$FO?$AA@ 0000000180086338     as_tokenizer.obj
 0002:0000d33c       ??_C@_02PPKAJPJL@?$CG?$CG?$AA@ 000000018008633c     as_tokenizer.obj
 0002:0000d340       ??_C@_02FGJGFEAB@?$CG?$DN?$AA@ 0000000180086340     as_tokenizer.obj
 0002:0000d344       ??_C@_02NONPIBCD@?$HM?$HM?$AA@ 0000000180086344     as_tokenizer.obj
 0002:0000d348       ??_C@_02DHLNPPGH@?$HM?$DN?$AA@ 0000000180086348     as_tokenizer.obj
 0002:0000d34c       ??_C@_01DNKMNLPK@?$HM?$AA@ 000000018008634c     as_tokenizer.obj
 0002:0000d350       ??_C@_01LFCBOECM@?4?$AA@   0000000180086350     as_tokenizer.obj
 0002:0000d354       ??_C@_02EGOFBIJA@?$DN?$DN?$AA@ 0000000180086354     as_tokenizer.obj
 0002:0000d358       ??_C@_01NEMOKFLO@?$DN?$AA@ 0000000180086358     as_tokenizer.obj
 0002:0000d35c       ??_C@_02FENAOKFI@?$CF?$DN?$AA@ 000000018008635c     as_tokenizer.obj
 0002:0000d360       ??_C@_01FGNFDNOH@?$CF?$AA@ 0000000180086360     as_tokenizer.obj
 0002:0000d364       ??_C@_02FJEHGPIO@?1?$DN?$AA@ 0000000180086364     as_tokenizer.obj
 0002:0000d368       ??_C@_01KMDKNFGN@?1?$AA@   0000000180086368     as_tokenizer.obj
 0002:0000d36c       ??_C@_02FPIMKNGF@?$CK?$DN?$AA@ 000000018008636c     as_tokenizer.obj
 0002:0000d370       ??_C@_01NBENCBCI@?$CK?$AA@ 0000000180086370     as_tokenizer.obj
 0002:0000d374       ??_C@_02BAABKJLB@?9?9?$AA@ 0000000180086374     as_tokenizer.obj
 0002:0000d378       ??_C@_02FKMDLLOA@?9?$DN?$AA@ 0000000180086378     as_tokenizer.obj
 0002:0000d37c       ??_C@_01JOAMLHOP@?9?$AA@   000000018008637c     as_tokenizer.obj
 0002:0000d380       ??_C@_02ECNGHCIF@?$CL?$CL?$AA@ 0000000180086380     as_tokenizer.obj
 0002:0000d384       ??_C@_02FOEOMHFC@?$CL?$DN?$AA@ 0000000180086384     as_tokenizer.obj
 0002:0000d388       ??_C@_01MIFGBAGJ@?$CL?$AA@ 0000000180086388     as_tokenizer.obj
 0002:0000d390       ??_C@_0BF@HIPKNLOM@?$DMunrecognized?5token?$DO?$AA@ 0000000180086390     as_tokenizer.obj
 0002:0000d3a8       ??_C@_0O@LMMNBODD@?$DMend?5of?5file?$DO?$AA@ 00000001800863a8     as_tokenizer.obj
 0002:0000d3b8       ??_C@_0O@CJLNMLLI@?$DMwhite?5space?$DO?$AA@ 00000001800863b8     as_tokenizer.obj
 0002:0000d3c8       ??_C@_0BD@DCJLBDGD@?$DMone?5line?5comment?$DO?$AA@ 00000001800863c8     as_tokenizer.obj
 0002:0000d3e0       ??_C@_0BJ@OMNPBGLF@?$DMmultiple?5lines?5comment?$DO?$AA@ 00000001800863e0     as_tokenizer.obj
 0002:0000d400       ??_C@_0N@PNCCAENN@?$DMidentifier?$DO?$AA@ 0000000180086400     as_tokenizer.obj
 0002:0000d410       ??_C@_0BD@EPPAAPPA@?$DMinteger?5constant?$DO?$AA@ 0000000180086410     as_tokenizer.obj
 0002:0000d428       ??_C@_0BB@DNDALHK@?$DMfloat?5constant?$DO?$AA@ 0000000180086428     as_tokenizer.obj
 0002:0000d440       ??_C@_0BC@OGDMCMPH@?$DMdouble?5constant?$DO?$AA@ 0000000180086440     as_tokenizer.obj
 0002:0000d458       ??_C@_0BC@DFFNMDMB@?$DMstring?5constant?$DO?$AA@ 0000000180086458     as_tokenizer.obj
 0002:0000d470       ??_C@_0BM@KKNKMIKO@?$DMmultiline?5string?5constant?$DO?$AA@ 0000000180086470     as_tokenizer.obj
 0002:0000d490       ??_C@_0CA@CMAGINLB@?$DMnonterminated?5string?5constant?$DO?$AA@ 0000000180086490     as_tokenizer.obj
 0002:0000d4b0       ??_C@_0BA@HOIGKPIJ@?$DMbits?5constant?$DO?$AA@ 00000001800864b0     as_tokenizer.obj
 0002:0000d4c0       ??_C@_0BK@IKOJIINA@?$DMheredoc?5string?5constant?$DO?$AA@ 00000001800864c0     as_tokenizer.obj
 0002:0000d4e0       __real@3ff0000000000000    00000001800864e0      CIL library: CIL module
 0002:0000d548       __real@4024000000000000    0000000180086548      CIL library: CIL module
 0002:0000d550       __real@3fb999999999999a    0000000180086550      CIL library: CIL module
 0002:0000f268       __real@43f0000000000000    0000000180088268      CIL library: CIL module
 0002:0000f270       __real@43e0000000000000    0000000180088270      CIL library: CIL module
 0002:0000f278       __real@5f800000            0000000180088278      CIL library: CIL module
 0002:0000f27c       __real@5f000000            000000018008827c      CIL library: CIL module
 0002:0000f968       __real@00000000            0000000180088968      CIL library: CIL module
 0002:0000f96c       __real@3f800000            000000018008896c      CIL library: CIL module
 0002:0000f970       __mask@@NegDouble@         0000000180088970      CIL library: CIL module
 0002:0000f980       __mask@@NegFloat@          0000000180088980      CIL library: CIL module
 0002:0000f990       __real@0000000000000000    0000000180088990      CIL library: CIL module
 0002:000112e8       ??_R4type_info@@6B@        000000018008a2e8     MSVCRT:ti_inst.obj
 0002:00011310       ??_R3type_info@@8          000000018008a310     MSVCRT:ti_inst.obj
 0002:00011328       ??_R2type_info@@8          000000018008a328     MSVCRT:ti_inst.obj
 0002:00011338       ??_R1A@?0A@EA@type_info@@8 000000018008a338     MSVCRT:ti_inst.obj
 0002:00011360       ??_R4asCCompGlobVarType@@6B@ 000000018008a360     as_builder.obj
 0002:00011388       ??_R3asCCompGlobVarType@@8 000000018008a388     as_builder.obj
 0002:000113a0       ??_R2asCCompGlobVarType@@8 000000018008a3a0     as_builder.obj
 0002:000113b8       ??_R1A@?0A@EA@asCCompGlobVarType@@8 000000018008a3b8     as_builder.obj
 0002:000113e0       ??_R3asIFilter@@8          000000018008a3e0     as_builder.obj
 0002:000113f8       ??_R2asIFilter@@8          000000018008a3f8     as_builder.obj
 0002:00011408       ??_R1A@?0A@EA@asIFilter@@8 000000018008a408     as_builder.obj
 0002:00011430       ??_R4asCContext@@6B@       000000018008a430     as_context.obj
 0002:00011458       ??_R3asCContext@@8         000000018008a458     as_context.obj
 0002:00011470       ??_R2asCContext@@8         000000018008a470     as_context.obj
 0002:00011488       ??_R1A@?0A@EA@asCContext@@8 000000018008a488     as_context.obj
 0002:000114b0       ??_R4asIScriptContext@@6B@ 000000018008a4b0     as_context.obj
 0002:000114d8       ??_R3asIScriptContext@@8   000000018008a4d8     as_context.obj
 0002:000114f0       ??_R2asIScriptContext@@8   000000018008a4f0     as_context.obj
 0002:00011500       ??_R1A@?0A@EA@asIScriptContext@@8 000000018008a500     as_context.obj
 0002:00011528       ??_R4asCGeneric@@6B@       000000018008a528     as_generic.obj
 0002:00011550       ??_R3asCGeneric@@8         000000018008a550     as_generic.obj
 0002:00011568       ??_R2asCGeneric@@8         000000018008a568     as_generic.obj
 0002:00011580       ??_R1A@?0A@EA@asCGeneric@@8 000000018008a580     as_generic.obj
 0002:000115a8       ??_R4asIScriptGeneric@@6B@ 000000018008a5a8     as_generic.obj
 0002:000115d0       ??_R3asIScriptGeneric@@8   000000018008a5d0     as_generic.obj
 0002:000115e8       ??_R2asIScriptGeneric@@8   000000018008a5e8     as_generic.obj
 0002:000115f8       ??_R1A@?0A@EA@asIScriptGeneric@@8 000000018008a5f8     as_generic.obj
 0002:00011620       ??_R4asCCompGlobPropType@@6B@ 000000018008a620     as_module.obj
 0002:00011648       ??_R3asCCompGlobPropType@@8 000000018008a648     as_module.obj
 0002:00011660       ??_R2asCCompGlobPropType@@8 000000018008a660     as_module.obj
 0002:00011678       ??_R1A@?0A@EA@asCCompGlobPropType@@8 000000018008a678     as_module.obj
 0002:000116a0       ??_R4asCModule@@6B@        000000018008a6a0     as_module.obj
 0002:000116c8       ??_R3asCModule@@8          000000018008a6c8     as_module.obj
 0002:000116e0       ??_R2asCModule@@8          000000018008a6e0     as_module.obj
 0002:000116f8       ??_R1A@?0A@EA@asCModule@@8 000000018008a6f8     as_module.obj
 0002:00011720       ??_R4asIScriptModule@@6B@  000000018008a720     as_module.obj
 0002:00011748       ??_R3asIScriptModule@@8    000000018008a748     as_module.obj
 0002:00011760       ??_R2asIScriptModule@@8    000000018008a760     as_module.obj
 0002:00011770       ??_R1A@?0A@EA@asIScriptModule@@8 000000018008a770     as_module.obj
 0002:00011798       ??_R4asCObjectType@@6B@    000000018008a798     as_objecttype.obj
 0002:000117c0       ??_R3asCObjectType@@8      000000018008a7c0     as_objecttype.obj
 0002:000117d8       ??_R2asCObjectType@@8      000000018008a7d8     as_objecttype.obj
 0002:000117f0       ??_R1A@?0A@EA@asCObjectType@@8 000000018008a7f0     as_objecttype.obj
 0002:00011818       ??_R4asIObjectType@@6B@    000000018008a818     as_objecttype.obj
 0002:00011840       ??_R3asIObjectType@@8      000000018008a840     as_objecttype.obj
 0002:00011858       ??_R2asIObjectType@@8      000000018008a858     as_objecttype.obj
 0002:00011868       ??_R1A@?0A@EA@asIObjectType@@8 000000018008a868     as_objecttype.obj
 0002:00011890       ??_R4asCScriptEngine@@6B@  000000018008a890     as_scriptengine.obj
 0002:000118b8       ??_R3asCScriptEngine@@8    000000018008a8b8     as_scriptengine.obj
 0002:000118d0       ??_R2asCScriptEngine@@8    000000018008a8d0     as_scriptengine.obj
 0002:000118e8       ??_R1A@?0A@EA@asCScriptEngine@@8 000000018008a8e8     as_scriptengine.obj
 0002:00011910       ??_R4asIScriptEngine@@6B@  000000018008a910     as_scriptengine.obj
 0002:00011938       ??_R3asIScriptEngine@@8    000000018008a938     as_scriptengine.obj
 0002:00011950       ??_R2asIScriptEngine@@8    000000018008a950     as_scriptengine.obj
 0002:00011960       ??_R1A@?0A@EA@asIScriptEngine@@8 000000018008a960     as_scriptengine.obj
 0002:00011988       ??_R4asSListPatternDataTypeNode@@6B@ 000000018008a988     as_scriptfunction.obj
 0002:000119b0       ??_R3asSListPatternDataTypeNode@@8 000000018008a9b0     as_scriptfunction.obj
 0002:000119c8       ??_R2asSListPatternDataTypeNode@@8 000000018008a9c8     as_scriptfunction.obj
 0002:000119e0       ??_R1A@?0A@EA@asSListPatternDataTypeNode@@8 000000018008a9e0     as_scriptfunction.obj
 0002:00011a08       ??_R4asSListPatternNode@@6B@ 000000018008aa08     as_scriptfunction.obj
 0002:00011a30       ??_R3asSListPatternNode@@8 000000018008aa30     as_scriptfunction.obj
 0002:00011a48       ??_R2asSListPatternNode@@8 000000018008aa48     as_scriptfunction.obj
 0002:00011a58       ??_R1A@?0A@EA@asSListPatternNode@@8 000000018008aa58     as_scriptfunction.obj
 0002:00011a80       ??_R4asCScriptFunction@@6B@ 000000018008aa80     as_scriptfunction.obj
 0002:00011aa8       ??_R3asCScriptFunction@@8  000000018008aaa8     as_scriptfunction.obj
 0002:00011ac0       ??_R2asCScriptFunction@@8  000000018008aac0     as_scriptfunction.obj
 0002:00011ad8       ??_R1A@?0A@EA@asCScriptFunction@@8 000000018008aad8     as_scriptfunction.obj
 0002:00011b00       ??_R4asIScriptFunction@@6B@ 000000018008ab00     as_scriptfunction.obj
 0002:00011b28       ??_R3asIScriptFunction@@8  000000018008ab28     as_scriptfunction.obj
 0002:00011b40       ??_R2asIScriptFunction@@8  000000018008ab40     as_scriptfunction.obj
 0002:00011b50       ??_R1A@?0A@EA@asIScriptFunction@@8 000000018008ab50     as_scriptfunction.obj
 0002:00011b78       ??_R4asCScriptObject@@6B@  000000018008ab78     as_scriptobject.obj
 0002:00011ba0       ??_R3asCScriptObject@@8    000000018008aba0     as_scriptobject.obj
 0002:00011bb8       ??_R2asCScriptObject@@8    000000018008abb8     as_scriptobject.obj
 0002:00011bd0       ??_R1A@?0A@EA@asCScriptObject@@8 000000018008abd0     as_scriptobject.obj
 0002:00011bf8       ??_R4asCLockableSharedBool@@6B@ 000000018008abf8     as_scriptobject.obj
 0002:00011c20       ??_R3asCLockableSharedBool@@8 000000018008ac20     as_scriptobject.obj
 0002:00011c38       ??_R2asCLockableSharedBool@@8 000000018008ac38     as_scriptobject.obj
 0002:00011c50       ??_R1A@?0A@EA@asCLockableSharedBool@@8 000000018008ac50     as_scriptobject.obj
 0002:00011c78       ??_R4asILockableSharedBool@@6B@ 000000018008ac78     as_scriptobject.obj
 0002:00011ca0       ??_R3asILockableSharedBool@@8 000000018008aca0     as_scriptobject.obj
 0002:00011cb8       ??_R2asILockableSharedBool@@8 000000018008acb8     as_scriptobject.obj
 0002:00011cc8       ??_R1A@?0A@EA@asILockableSharedBool@@8 000000018008acc8     as_scriptobject.obj
 0002:00011cf0       ??_R4asIScriptObject@@6B@  000000018008acf0     as_scriptobject.obj
 0002:00011d18       ??_R3asIScriptObject@@8    000000018008ad18     as_scriptobject.obj
 0002:00011d30       ??_R2asIScriptObject@@8    000000018008ad30     as_scriptobject.obj
 0002:00011d40       ??_R1A@?0A@EA@asIScriptObject@@8 000000018008ad40     as_scriptobject.obj
 0002:00011d68       ??_R4asCThreadManager@@6B@ 000000018008ad68     as_thread.obj
 0002:00011d90       ??_R3asCThreadManager@@8   000000018008ad90     as_thread.obj
 0002:00011da8       ??_R2asCThreadManager@@8   000000018008ada8     as_thread.obj
 0002:00011dc0       ??_R1A@?0A@EA@asCThreadManager@@8 000000018008adc0     as_thread.obj
 0002:00011de8       ??_R4asIThreadManager@@6B@ 000000018008ade8     as_thread.obj
 0002:00011e10       ??_R3asIThreadManager@@8   000000018008ae10     as_thread.obj
 0002:00011e28       ??_R2asIThreadManager@@8   000000018008ae28     as_thread.obj
 0002:00011e38       ??_R1A@?0A@EA@asIThreadManager@@8 000000018008ae38     as_thread.obj
 0002:00011e60       __rtc_iaa                  000000018008ae60     MSVCRT:_initsect_.obj
 0002:00011e68       __rtc_izz                  000000018008ae68     MSVCRT:_initsect_.obj
 0002:00011e70       __rtc_taa                  000000018008ae70     MSVCRT:_initsect_.obj
 0002:00011e78       __rtc_tzz                  000000018008ae78     MSVCRT:_initsect_.obj
 0002:0001e008       __IMPORT_DESCRIPTOR_KERNEL32 0000000180097008     kernel32:KERNEL32.dll
 0002:0001e01c       __IMPORT_DESCRIPTOR_MSVCR90 000000018009701c     MSVCRT:MSVCR90.dll
 0002:0001e030       __NULL_IMPORT_DESCRIPTOR   0000000180097030     kernel32:KERNEL32.dll
 0003:00000000       ??_R0?AVtype_info@@@8      0000000180098000     MSVCRT:ti_inst.obj
 0003:00000020       __native_dllmain_reason    0000000180098020     MSVCRT:natstart.obj
 0003:00000024       __native_vcclrit_reason    0000000180098024     MSVCRT:natstart.obj
 0003:00000028       __security_cookie          0000000180098028     MSVCRT:gs_cookie.obj
 0003:00000030       __security_cookie_complement 0000000180098030     MSVCRT:gs_cookie.obj
 0003:00000168       ??_R0?AVasCCompGlobVarType@@@8 0000000180098168     as_builder.obj
 0003:00000198       ??_R0?AUasIFilter@@@8      0000000180098198     as_builder.obj
 0003:000001b8       ??_R0?AVasCContext@@@8     00000001800981b8     as_context.obj
 0003:000001e0       ??_R0?AVasIScriptContext@@@8 00000001800981e0     as_context.obj
 0003:00000208       ??_R0?AVasCGeneric@@@8     0000000180098208     as_generic.obj
 0003:00000230       ??_R0?AVasIScriptGeneric@@@8 0000000180098230     as_generic.obj
 0003:00000258       ??_R0?AVasCCompGlobPropType@@@8 0000000180098258     as_module.obj
 0003:00000288       ??_R0?AVasCModule@@@8      0000000180098288     as_module.obj
 0003:000002a8       ??_R0?AVasIScriptModule@@@8 00000001800982a8     as_module.obj
 0003:000002d0       ??_R0?AVasCObjectType@@@8  00000001800982d0     as_objecttype.obj
 0003:000002f8       ??_R0?AVasIObjectType@@@8  00000001800982f8     as_objecttype.obj
 0003:00000320       ??_R0?AVasCScriptEngine@@@8 0000000180098320     as_scriptengine.obj
 0003:00000348       ??_R0?AVasIScriptEngine@@@8 0000000180098348     as_scriptengine.obj
 0003:00000370       ??_R0?AUasSListPatternDataTypeNode@@@8 0000000180098370     as_scriptfunction.obj
 0003:000003a8       ??_R0?AUasSListPatternNode@@@8 00000001800983a8     as_scriptfunction.obj
 0003:000003d8       ??_R0?AVasCScriptFunction@@@8 00000001800983d8     as_scriptfunction.obj
 0003:00000400       ??_R0?AVasIScriptFunction@@@8 0000000180098400     as_scriptfunction.obj
 0003:00000428       ??_R0?AVasCScriptObject@@@8 0000000180098428     as_scriptobject.obj
 0003:00000450       ??_R0?AVasCLockableSharedBool@@@8 0000000180098450     as_scriptobject.obj
 0003:00000480       ??_R0?AVasILockableSharedBool@@@8 0000000180098480     as_scriptobject.obj
 0003:000004b0       ??_R0?AVasIScriptObject@@@8 00000001800984b0     as_scriptobject.obj
 0003:000004d8       ??_R0?AVasCThreadManager@@@8 00000001800984d8     as_thread.obj
 0003:00000500       ??_R0?AVasIThreadManager@@@8 0000000180098500     as_thread.obj
 0003:00000528       _fltused                   0000000180098528     MSVCRT:dllsupp.obj
 0003:00000534       _forceCRTManifestRTM       0000000180098534     MSVCRT:crtmanifestrtm.obj
 0003:00000538       ?__type_info_root_node@@3U__type_info_node@@A 0000000180098538     MSVCRT:tncleanup.obj
 0003:00000548       ??_B?3??GetIndexes@?$asCSymbolTable@VasCScriptFunction@@@@QEBAAEBV?$asCArray@I@@PEBUasSNameSpace@@AEBVasCString@@@Z@53 0000000180098548     as_builder.obj
 0003:00000550       ?dummy@?3??GetIndexes@?$asCSymbolTable@VasCScriptFunction@@@@QEBAAEBV?$asCArray@I@@PEBUasSNameSpace@@AEBVasCString@@@Z@4V3@A 0000000180098550     as_builder.obj
 0003:00000578       ?userFree@@3P6AXPEAX@ZEA   0000000180098578     as_memory.obj
 0003:00000580       ?userAlloc@@3P6APEAX_K@ZEA 0000000180098580     as_memory.obj
 0003:00000588       __native_startup_state     0000000180098588     <common>
 0003:00000590       __native_startup_lock      0000000180098590     <common>
 0003:00000598       __dyn_tls_init_callback    0000000180098598     <common>
 0003:000005a0       __onexitend                00000001800985a0     <common>
 0003:000005a8       __onexitbegin              00000001800985a8     <common>

 entry point at        0001:0006dfc4

 Static symbols

 0001:0006971c       ?cmp@C@?9??FindNextLineWithCode@asCScriptFunction@@UEBAHH@Z@SAHPEBX0@Z 000000018006a71c f    CIL library: CIL module
 0001:0006dbd0       pre_c_init                 000000018006ebd0 f   MSVCRT:crtdll.obj
 0001:0006de8c       __DllMainCRTStartup        000000018006ee8c f   MSVCRT:crtdll.obj
 0001:0006e340       _onexit$fin$0              000000018006f340 f   MSVCRT:atonexit.obj
 0001:0006e359       __DllMainCRTStartup$filt$0 000000018006f359 f   MSVCRT:crtdll.obj
 0001:0006e389       __DllMainCRTStartup$fin$1  000000018006f389 f   MSVCRT:crtdll.obj
 0001:0006e3a2       ?filt$0@?0??__ArrayUnwind@@YAXPEAX_KHP6AX0@Z@Z@4HA 000000018006f3a2 f   MSVCRT:ehvecdtr.obj
 0001:0006e3e1       ?fin$0@?0???_M@YAXPEAX_KHP6AX0@Z@Z@4HA 000000018006f3e1 f   MSVCRT:ehvecdtr.obj
 0001:0006e410       _IsNonwritableInCurrentImage$filt$0 000000018006f410 f   MSVCRT:pesect.obj
 0001:0006e431       ?dtor$0@?0???1preMessage_t@asCBuilder@@QEAA@XZ@4HA 000000018006f431 f    CIL library: CIL module
 0001:0006e44d       ?dtor$0@?0??RemoveVariableScope@asCCompiler@@IEAAXXZ@4HA 000000018006f44d f    CIL library: CIL module
 0001:0006e44d       ?dtor$0@?0???1asCVariableScope@@QEAA@XZ@4HA 000000018006f44d f    CIL library: CIL module
 0001:0006e469       ?dtor$0@?0???1asCGarbageCollector@@QEAA@XZ@4HA 000000018006f469 f    CIL library: CIL module
 0001:0006e489       ?dtor$1@?0???1asCGarbageCollector@@QEAA@XZ@4HA 000000018006f489 f    CIL library: CIL module
 0001:0006e4a9       ?dtor$2@?0???1asCGarbageCollector@@QEAA@XZ@4HA 000000018006f4a9 f    CIL library: CIL module
 0001:0006e4c9       ?dtor$3@?0???1asCGarbageCollector@@QEAA@XZ@4HA 000000018006f4c9 f    CIL library: CIL module
 0001:0006e4e9       ?dtor$4@?0???1asCGarbageCollector@@QEAA@XZ@4HA 000000018006f4e9 f    CIL library: CIL module
 0001:0006e509       ?dtor$5@?0???1asCGarbageCollector@@QEAA@XZ@4HA 000000018006f509 f    CIL library: CIL module
 0001:0006e529       ?dtor$6@?0???1asCGarbageCollector@@QEAA@XZ@4HA 000000018006f529 f    CIL library: CIL module
 0001:0006e548       ?dtor$0@?0??AddVariableScope@asCCompiler@@IEAAX_N0@Z@4HA 000000018006f548 f    CIL library: CIL module
 0001:0006e568       ?dtor$1@?0??AddVariableScope@asCCompiler@@IEAAX_N0@Z@4HA 000000018006f568 f    CIL library: CIL module
 0001:0006e584       ?dtor$0@?0??IsTempVarRead@asCByteCode@@IEAA_NPEAVasCByteInstruction@@H@Z@4HA 000000018006f584 f    CIL library: CIL module
 0001:0006e5a4       ?dtor$1@?0??IsTempVarRead@asCByteCode@@IEAA_NPEAVasCByteInstruction@@H@Z@4HA 000000018006f5a4 f    CIL library: CIL module
 0001:0006e5bc       ?dtor$0@?0???1?$asSMapNode@VasCString@@V?$asCArray@I@@@@QEAA@XZ@4HA 000000018006f5bc f    CIL library: CIL module
 0001:0006e5d8       ?dtor$0@?0??ClearUnusedTypes@asCScriptEngine@@QEAAHXZ@4HA 000000018006f5d8 f    CIL library: CIL module
 0001:0006e5d8       ?dtor$0@?0??AddReferences@asCScriptFunction@@QEAAXXZ@4HA 000000018006f5d8 f    CIL library: CIL module
 0001:0006e5d8       ?dtor$0@?0??ReleaseReferences@asCScriptFunction@@QEAAXXZ@4HA 000000018006f5d8 f    CIL library: CIL module
 0001:0006e5f0       ?dtor$0@?0??CalculateAdjustmentByPos@asCWriter@@IEAAXPEAVasCScriptFunction@@@Z@4HA 000000018006f5f0 f    CIL library: CIL module
 0001:0006e5f0       ?dtor$0@?0??CleanStackFrame@asCContext@@QEAAXXZ@4HA 000000018006f5f0 f    CIL library: CIL module
 0001:0006e5f0       ?dtor$0@?0??GetAddressOfVar@asCContext@@UEAAPEAXII@Z@4HA 000000018006f5f0 f    CIL library: CIL module
 0001:0006e5f0       ?dtor$0@?0??FindNextLineWithCode@asCScriptFunction@@UEBAHH@Z@4HA 000000018006f5f0 f    CIL library: CIL module
 0001:0006e5f0       ?dtor$0@?0??CalculateAdjustmentByPos@asCReader@@IEAAXPEAVasCScriptFunction@@@Z@4HA 000000018006f5f0 f    CIL library: CIL module
 0001:0006e608       ?dtor$0@?0??CallGlobalFunction@asCScriptEngine@@QEBAXPEAX0PEAUasSSystemFunctionInterface@@PEAVasCScriptFunction@@@Z@4HA 000000018006f608 f    CIL library: CIL module
 0001:0006e608       ?dtor$0@?0??CallGlobalFunctionRetBool@asCScriptEngine@@QEBA_NPEAX0PEAUasSSystemFunctionInterface@@PEAVasCScriptFunction@@@Z@4HA 000000018006f608 f    CIL library: CIL module
 0001:0006e620       ?dtor$0@?0??CallGeneric@asCContext@@QEAAHHPEAX@Z@4HA 000000018006f620 f    CIL library: CIL module
 0001:0006e620       ?dtor$0@?0??CallObjectMethod@asCScriptEngine@@QEBAXPEAX0PEAUasSSystemFunctionInterface@@PEAVasCScriptFunction@@@Z@4HA 000000018006f620 f    CIL library: CIL module
 0001:0006e620       ?dtor$0@?0??CallGlobalFunctionRetPtr@asCScriptEngine@@QEBAPEAXHPEAX@Z@4HA 000000018006f620 f    CIL library: CIL module
 0001:0006e620       ?dtor$0@?0??CallGlobalFunctionRetPtr@asCScriptEngine@@QEBAPEAXH@Z@4HA 000000018006f620 f    CIL library: CIL module
 0001:0006e620       ?dtor$0@?0??GetWeakRefFlagOfScriptObject@asCScriptEngine@@UEBAPEAVasILockableSharedBool@@PEAXPEBVasIObjectType@@@Z@4HA 000000018006f620 f    CIL library: CIL module
 0001:0006e620       ?dtor$0@?0??CallObjectMethodRetInt@asCScriptEngine@@QEBAHPEAXH@Z@4HA 000000018006f620 f    CIL library: CIL module
 0001:0006e620       ?dtor$0@?0??CallObjectMethod@asCScriptEngine@@QEBAXPEAXH@Z@4HA 000000018006f620 f    CIL library: CIL module
 0001:0006e620       ?dtor$0@?0??CallObjectMethodRetBool@asCScriptEngine@@QEBA_NPEAXH@Z@4HA 000000018006f620 f    CIL library: CIL module
 0001:0006e638       ?dtor$0@?0???1asCScriptCode@@QEAA@XZ@4HA 000000018006f638 f    CIL library: CIL module
 0001:0006e658       ?dtor$1@?0???1asCScriptCode@@QEAA@XZ@4HA 000000018006f658 f    CIL library: CIL module
 0001:0006e674       ?dtor$0@?0??Clear@asCOutputBuffer@@QEAAXXZ@4HA 000000018006f674 f    CIL library: CIL module
 0001:0006e674       ?dtor$0@?0??FreeUnusedGlobalProperties@asCScriptEngine@@QEAAXXZ@4HA 000000018006f674 f    CIL library: CIL module
 0001:0006e68c       ?dtor$0@?0???1asCOutputBuffer@@QEAA@XZ@4HA 000000018006f68c f    CIL library: CIL module
 0001:0006e68c       ?dtor$0@?0??CleanupLocalData@asCThreadManager@@SAHXZ@4HA 000000018006f68c f    CIL library: CIL module
 0001:0006e6a4       ?dtor$0@?0???1asSTypeBehaviour@@QEAA@XZ@4HA 000000018006f6a4 f    CIL library: CIL module
 0001:0006e6c4       ?dtor$1@?0???1asSTypeBehaviour@@QEAA@XZ@4HA 000000018006f6c4 f    CIL library: CIL module
 0001:0006e6e0       ?dtor$0@?0???1asCMemoryMgr@@QEAA@XZ@4HA 000000018006f6e0 f    CIL library: CIL module
 0001:0006e700       ?dtor$1@?0???1asCMemoryMgr@@QEAA@XZ@4HA 000000018006f700 f    CIL library: CIL module
 0001:0006e720       ?dtor$2@?0???1asCMemoryMgr@@QEAA@XZ@4HA 000000018006f720 f    CIL library: CIL module
 0001:0006e73c       ?dtor$0@?0???1asCConfigGroup@@QEAA@XZ@4HA 000000018006f73c f    CIL library: CIL module
 0001:0006e75c       ?dtor$1@?0???1asCConfigGroup@@QEAA@XZ@4HA 000000018006f75c f    CIL library: CIL module
 0001:0006e77c       ?dtor$2@?0???1asCConfigGroup@@QEAA@XZ@4HA 000000018006f77c f    CIL library: CIL module
 0001:0006e79c       ?dtor$3@?0???1asCConfigGroup@@QEAA@XZ@4HA 000000018006f79c f    CIL library: CIL module
 0001:0006e7bc       ?dtor$4@?0???1asCConfigGroup@@QEAA@XZ@4HA 000000018006f7bc f    CIL library: CIL module
 0001:0006e7db       ?dtor$0@?0???1asCByteCode@@QEAA@XZ@4HA 000000018006f7db f    CIL library: CIL module
 0001:0006e7fb       ?dtor$1@?0???1asCByteCode@@QEAA@XZ@4HA 000000018006f7fb f    CIL library: CIL module
 0001:0006e817       ?dtor$0@?0??Erase@?$asCMap@VasCString@@V?$asCArray@I@@@@QEAAXPEAU?$asSMapNode@VasCString@@V?$asCArray@I@@@@@Z@4HA 000000018006f817 f    CIL library: CIL module
 0001:0006e817       ?dtor$0@?0??EraseAll@?$asCMap@VasCString@@V?$asCArray@I@@@@IEAAHPEAU?$asSMapNode@VasCString@@V?$asCArray@I@@@@@Z@4HA 000000018006f817 f    CIL library: CIL module
 0001:0006e833       ?dtor$0@?0??SubString@asCString@@QEBA?AV1@_K0@Z@4HA 000000018006f833 f    CIL library: CIL module
 0001:0006e863       ?dtor$1@?0??SubString@asCString@@QEBA?AV1@_K0@Z@4HA 000000018006f863 f    CIL library: CIL module
 0001:0006e87b       ?dtor$0@?0??Format@asCString@@QEAA_KPEBDZZ@4HA 000000018006f87b f    CIL library: CIL module
 0001:0006e87b       ?dtor$0@?0??GetFirstIndex@?$asCSymbolTable@VasCGlobalProperty@@@@QEBAHPEBUasSNameSpace@@AEBVasCString@@AEBUasIFilter@@@Z@4HA 000000018006f87b f    CIL library: CIL module
 0001:0006e893       ?dtor$0@?0???0asCScriptObject@@QEAA@PEAVasCObjectType@@_N@Z@4HA 000000018006f893 f    CIL library: CIL module
 0001:0006e893       ?dtor$0@?0???1asCScriptObject@@UEAA@XZ@4HA 000000018006f893 f    CIL library: CIL module
 0001:0006e8ab       ?dtor$0@?0??GetScriptSectionNameIndex@asCScriptEngine@@QEAAHPEBD@Z@4HA 000000018006f8ab f    CIL library: CIL module
 0001:0006e8c7       ?dtor$0@?0??CalculateStackNeeded@asCReader@@IEAAXPEAVasCScriptFunction@@@Z@4HA 000000018006f8c7 f    CIL library: CIL module
 0001:0006e8e7       ?dtor$1@?0??CalculateStackNeeded@asCReader@@IEAAXPEAVasCScriptFunction@@@Z@4HA 000000018006f8e7 f    CIL library: CIL module
 0001:0006e8ff       ?dtor$0@?0??ExpectedOneOf@asCParser@@IEAA?AVasCString@@PEAPEBDH@Z@4HA 000000018006f8ff f    CIL library: CIL module
 0001:0006e8ff       ?dtor$0@?0??ExpectedOneOf@asCParser@@IEAA?AVasCString@@PEAHH@Z@4HA 000000018006f8ff f    CIL library: CIL module
 0001:0006e925       ?dtor$0@?0??ExpectedTokens@asCParser@@IEAA?AVasCString@@PEBD0@Z@4HA 000000018006f925 f    CIL library: CIL module
 0001:0006e94b       ?dtor$0@?0??ExpectedToken@asCParser@@IEAA?AVasCString@@PEBD@Z@4HA 000000018006f94b f    CIL library: CIL module
 0001:0006e971       ?dtor$0@?0???1asCParser@@QEAA@XZ@4HA 000000018006f971 f    CIL library: CIL module
 0001:0006e98d       ?dtor$0@?0???1asCObjectType@@UEAA@XZ@4HA 000000018006f98d f    CIL library: CIL module
 0001:0006e9ad       ?dtor$1@?0???1asCObjectType@@UEAA@XZ@4HA 000000018006f9ad f    CIL library: CIL module
 0001:0006e9cd       ?dtor$2@?0???1asCObjectType@@UEAA@XZ@4HA 000000018006f9cd f    CIL library: CIL module
 0001:0006e9ed       ?dtor$3@?0???1asCObjectType@@UEAA@XZ@4HA 000000018006f9ed f    CIL library: CIL module
 0001:0006ea0d       ?dtor$4@?0???1asCObjectType@@UEAA@XZ@4HA 000000018006fa0d f    CIL library: CIL module
 0001:0006ea2d       ?dtor$5@?0???1asCObjectType@@UEAA@XZ@4HA 000000018006fa2d f    CIL library: CIL module
 0001:0006ea4d       ?dtor$6@?0???1asCObjectType@@UEAA@XZ@4HA 000000018006fa4d f    CIL library: CIL module
 0001:0006ea6d       ?dtor$7@?0???1asCObjectType@@UEAA@XZ@4HA 000000018006fa6d f    CIL library: CIL module
 0001:0006ea8d       ?dtor$8@?0???1asCObjectType@@UEAA@XZ@4HA 000000018006fa8d f    CIL library: CIL module
 0001:0006eaad       ?dtor$9@?0???1asCObjectType@@UEAA@XZ@4HA 000000018006faad f    CIL library: CIL module
 0001:0006eacd       ?dtor$11@?0???1asCObjectType@@UEAA@XZ@4HA 000000018006facd f    CIL library: CIL module
 0001:0006eaed       ?dtor$12@?0???1asCObjectType@@UEAA@XZ@4HA 000000018006faed f    CIL library: CIL module
 0001:0006eb09       ?dtor$0@?0???1asCContext@@UEAA@XZ@4HA 000000018006fb09 f    CIL library: CIL module
 0001:0006eb09       ?dtor$0@?0???0asCContext@@QEAA@PEAVasCScriptEngine@@_N@Z@4HA 000000018006fb09 f    CIL library: CIL module
 0001:0006eb29       ?dtor$1@?0???1asCContext@@UEAA@XZ@4HA 000000018006fb29 f    CIL library: CIL module
 0001:0006eb29       ?dtor$1@?0???0asCContext@@QEAA@PEAVasCScriptEngine@@_N@Z@4HA 000000018006fb29 f    CIL library: CIL module
 0001:0006eb49       ?dtor$2@?0???0asCContext@@QEAA@PEAVasCScriptEngine@@_N@Z@4HA 000000018006fb49 f    CIL library: CIL module
 0001:0006eb49       ?dtor$2@?0???1asCContext@@UEAA@XZ@4HA 000000018006fb49 f    CIL library: CIL module
 0001:0006eb69       ?dtor$3@?0???1asCContext@@UEAA@XZ@4HA 000000018006fb69 f    CIL library: CIL module
 0001:0006eb69       ?dtor$3@?0???0asCContext@@QEAA@PEAVasCScriptEngine@@_N@Z@4HA 000000018006fb69 f    CIL library: CIL module
 0001:0006eb89       ?dtor$4@?0???0asCContext@@QEAA@PEAVasCScriptEngine@@_N@Z@4HA 000000018006fb89 f    CIL library: CIL module
 0001:0006eb89       ?dtor$4@?0???1asCContext@@UEAA@XZ@4HA 000000018006fb89 f    CIL library: CIL module
 0001:0006eba9       ?dtor$5@?0???0asCContext@@QEAA@PEAVasCScriptEngine@@_N@Z@4HA 000000018006fba9 f    CIL library: CIL module
 0001:0006eba9       ?dtor$5@?0???1asCContext@@UEAA@XZ@4HA 000000018006fba9 f    CIL library: CIL module
 0001:0006ebc8       ?dtor$0@?0???1asCCompiler@@QEAA@XZ@4HA 000000018006fbc8 f    CIL library: CIL module
 0001:0006ebe8       ?dtor$1@?0???1asCCompiler@@QEAA@XZ@4HA 000000018006fbe8 f    CIL library: CIL module
 0001:0006ec08       ?dtor$2@?0???1asCCompiler@@QEAA@XZ@4HA 000000018006fc08 f    CIL library: CIL module
 0001:0006ec28       ?dtor$3@?0???1asCCompiler@@QEAA@XZ@4HA 000000018006fc28 f    CIL library: CIL module
 0001:0006ec48       ?dtor$4@?0???1asCCompiler@@QEAA@XZ@4HA 000000018006fc48 f    CIL library: CIL module
 0001:0006ec68       ?dtor$5@?0???1asCCompiler@@QEAA@XZ@4HA 000000018006fc68 f    CIL library: CIL module
 0001:0006ec88       ?dtor$6@?0???1asCCompiler@@QEAA@XZ@4HA 000000018006fc88 f    CIL library: CIL module
 0001:0006eca8       ?dtor$7@?0???1asCCompiler@@QEAA@XZ@4HA 000000018006fca8 f    CIL library: CIL module
 0001:0006ecc8       ?dtor$8@?0???1asCCompiler@@QEAA@XZ@4HA 000000018006fcc8 f    CIL library: CIL module
 0001:0006ece8       ?dtor$9@?0???1asCCompiler@@QEAA@XZ@4HA 000000018006fce8 f    CIL library: CIL module
 0001:0006ed08       ?dtor$10@?0???1asCCompiler@@QEAA@XZ@4HA 000000018006fd08 f    CIL library: CIL module
 0001:0006ed24       ?dtor$0@?0???1asSExprContext@@QEAA@XZ@4HA 000000018006fd24 f    CIL library: CIL module
 0001:0006ed44       ?dtor$1@?0???1asSExprContext@@QEAA@XZ@4HA 000000018006fd44 f    CIL library: CIL module
 0001:0006ed64       ?dtor$2@?0???1asSExprContext@@QEAA@XZ@4HA 000000018006fd64 f    CIL library: CIL module
 0001:0006ed83       ?dtor$0@?0??PostProcess@asCByteCode@@QEAAXXZ@4HA 000000018006fd83 f    CIL library: CIL module
 0001:0006ed9b       ?dtor$0@?0??OptimizeLocally@asCByteCode@@QEAAXAEBV?$asCArray@H@@@Z@4HA 000000018006fd9b f    CIL library: CIL module
 0001:0006edb3       ?dtor$0@?0???1?$asCMap@VasCString@@V?$asCArray@I@@@@QEAA@XZ@4HA 000000018006fdb3 f    CIL library: CIL module
 0001:0006edd3       ?dtor$1@?0???1?$asCMap@VasCString@@V?$asCArray@I@@@@QEAA@XZ@4HA 000000018006fdd3 f    CIL library: CIL module
 0001:0006edef       ?dtor$0@?0??GetParentNameSpace@asCBuilder@@IEAAPEAUasSNameSpace@@PEAU2@@Z@4HA 000000018006fdef f    CIL library: CIL module
 0001:0006ee0f       ?dtor$1@?0??GetParentNameSpace@asCBuilder@@IEAAPEAUasSNameSpace@@PEAU2@@Z@4HA 000000018006fe0f f    CIL library: CIL module
 0001:0006ee27       ?dtor$0@?0??GetCleanExpressionString@asCBuilder@@IEAA?AVasCString@@PEAVasCScriptNode@@PEAVasCScriptCode@@@Z@4HA 000000018006fe27 f    CIL library: CIL module
 0001:0006ee47       ?dtor$1@?0??GetCleanExpressionString@asCBuilder@@IEAA?AVasCString@@PEAVasCScriptNode@@PEAVasCScriptCode@@@Z@4HA 000000018006fe47 f    CIL library: CIL module
 0001:0006ee6d       ?dtor$0@?0???0?$asCSymbolTable@VasCGlobalProperty@@@@QEAA@I@Z@4HA 000000018006fe6d f    CIL library: CIL module
 0001:0006ee6d       ?dtor$0@?0???1?$asCSymbolTable@VasCScriptFunction@@@@QEAA@XZ@4HA 000000018006fe6d f    CIL library: CIL module
 0001:0006ee6d       ?dtor$0@?0???1?$asCSymbolTable@UsGlobalVariableDescription@@@@QEAA@XZ@4HA 000000018006fe6d f    CIL library: CIL module
 0001:0006ee6d       ?dtor$0@?0???1?$asCSymbolTable@VasCGlobalProperty@@@@QEAA@XZ@4HA 000000018006fe6d f    CIL library: CIL module
 0001:0006ee85       ?dtor$0@?0???H@YA?AVasCString@@AEBV0@PEBD@Z@4HA 000000018006fe85 f    CIL library: CIL module
 0001:0006ee85       ?dtor$0@?0???H@YA?AVasCString@@AEBV0@0@Z@4HA 000000018006fe85 f    CIL library: CIL module
 0001:0006ee85       ?dtor$0@?0???H@YA?AVasCString@@PEBDAEBV0@@Z@4HA 000000018006fe85 f    CIL library: CIL module
 0001:0006eeab       ?dtor$2@?0??DestroyInternal@asCScriptFunction@@QEAAXXZ@4HA 000000018006feab f    CIL library: CIL module
 0001:0006eecb       ?dtor$3@?0??DestroyInternal@asCScriptFunction@@QEAAXXZ@4HA 000000018006fecb f    CIL library: CIL module
 0001:0006eeeb       ?dtor$4@?0??DestroyInternal@asCScriptFunction@@QEAAXXZ@4HA 000000018006feeb f    CIL library: CIL module
 0001:0006ef0b       ?dtor$5@?0??DestroyInternal@asCScriptFunction@@QEAAXXZ@4HA 000000018006ff0b f    CIL library: CIL module
 0001:0006ef2b       ?dtor$6@?0??DestroyInternal@asCScriptFunction@@QEAAXXZ@4HA 000000018006ff2b f    CIL library: CIL module
 0001:0006ef4b       ?dtor$7@?0??DestroyInternal@asCScriptFunction@@QEAAXXZ@4HA 000000018006ff4b f    CIL library: CIL module
 0001:0006ef6b       ?dtor$8@?0??DestroyInternal@asCScriptFunction@@QEAAXXZ@4HA 000000018006ff6b f    CIL library: CIL module
 0001:0006ef8a       ?dtor$0@?0??TranslateFunction@asCReader@@IEAAXPEAVasCScriptFunction@@@Z@4HA 000000018006ff8a f    CIL library: CIL module
 0001:0006efaa       ?dtor$1@?0??TranslateFunction@asCReader@@IEAAXPEAVasCScriptFunction@@@Z@4HA 000000018006ffaa f    CIL library: CIL module
 0001:0006efc2       ?dtor$0@?0???1asCReader@@QEAA@XZ@4HA 000000018006ffc2 f    CIL library: CIL module
 0001:0006efe2       ?dtor$1@?0???1asCReader@@QEAA@XZ@4HA 000000018006ffe2 f    CIL library: CIL module
 0001:0006f002       ?dtor$2@?0???1asCReader@@QEAA@XZ@4HA 0000000180070002 f    CIL library: CIL module
 0001:0006f022       ?dtor$3@?0???1asCReader@@QEAA@XZ@4HA 0000000180070022 f    CIL library: CIL module
 0001:0006f042       ?dtor$4@?0???1asCReader@@QEAA@XZ@4HA 0000000180070042 f    CIL library: CIL module
 0001:0006f062       ?dtor$5@?0???1asCReader@@QEAA@XZ@4HA 0000000180070062 f    CIL library: CIL module
 0001:0006f082       ?dtor$6@?0???1asCReader@@QEAA@XZ@4HA 0000000180070082 f    CIL library: CIL module
 0001:0006f0a2       ?dtor$7@?0???1asCReader@@QEAA@XZ@4HA 00000001800700a2 f    CIL library: CIL module
 0001:0006f0c2       ?dtor$8@?0???1asCReader@@QEAA@XZ@4HA 00000001800700c2 f    CIL library: CIL module
 0001:0006f0e2       ?dtor$9@?0???1asCReader@@QEAA@XZ@4HA 00000001800700e2 f    CIL library: CIL module
 0001:0006f102       ?dtor$10@?0???1asCReader@@QEAA@XZ@4HA 0000000180070102 f    CIL library: CIL module
 0001:0006f122       ?dtor$11@?0???1asCReader@@QEAA@XZ@4HA 0000000180070122 f    CIL library: CIL module
 0001:0006f142       ?dtor$12@?0???1asCReader@@QEAA@XZ@4HA 0000000180070142 f    CIL library: CIL module
 0001:0006f161       ?dtor$0@?0???1asCWriter@@QEAA@XZ@4HA 0000000180070161 f    CIL library: CIL module
 0001:0006f181       ?dtor$1@?0???1asCWriter@@QEAA@XZ@4HA 0000000180070181 f    CIL library: CIL module
 0001:0006f1a1       ?dtor$2@?0???1asCWriter@@QEAA@XZ@4HA 00000001800701a1 f    CIL library: CIL module
 0001:0006f1c1       ?dtor$3@?0???1asCWriter@@QEAA@XZ@4HA 00000001800701c1 f    CIL library: CIL module
 0001:0006f1e1       ?dtor$4@?0???1asCWriter@@QEAA@XZ@4HA 00000001800701e1 f    CIL library: CIL module
 0001:0006f201       ?dtor$5@?0???1asCWriter@@QEAA@XZ@4HA 0000000180070201 f    CIL library: CIL module
 0001:0006f221       ?dtor$6@?0???1asCWriter@@QEAA@XZ@4HA 0000000180070221 f    CIL library: CIL module
 0001:0006f241       ?dtor$7@?0???1asCWriter@@QEAA@XZ@4HA 0000000180070241 f    CIL library: CIL module
 0001:0006f261       ?dtor$8@?0???1asCWriter@@QEAA@XZ@4HA 0000000180070261 f    CIL library: CIL module
 0001:0006f281       ?dtor$9@?0???1asCWriter@@QEAA@XZ@4HA 0000000180070281 f    CIL library: CIL module
 0001:0006f2a1       ?dtor$10@?0???1asCWriter@@QEAA@XZ@4HA 00000001800702a1 f    CIL library: CIL module
 0001:0006f2c1       ?dtor$11@?0???1asCWriter@@QEAA@XZ@4HA 00000001800702c1 f    CIL library: CIL module
 0001:0006f2e1       ?dtor$12@?0???1asCWriter@@QEAA@XZ@4HA 00000001800702e1 f    CIL library: CIL module
 0001:0006f301       ?dtor$13@?0???1asCWriter@@QEAA@XZ@4HA 0000000180070301 f    CIL library: CIL module
 0001:0006f320       ?dtor$0@?0??Format@asCDataType@@QEBA?AVasCString@@_N@Z@4HA 0000000180070320 f    CIL library: CIL module
 0001:0006f350       ?dtor$1@?0??Format@asCDataType@@QEBA?AVasCString@@_N@Z@4HA 0000000180070350 f    CIL library: CIL module
 0001:0006f370       ?dtor$2@?0??Format@asCDataType@@QEBA?AVasCString@@_N@Z@4HA 0000000180070370 f    CIL library: CIL module
 0001:0006f390       ?dtor$3@?0??Format@asCDataType@@QEBA?AVasCString@@_N@Z@4HA 0000000180070390 f    CIL library: CIL module
 0001:0006f3b0       ?dtor$4@?0??Format@asCDataType@@QEBA?AVasCString@@_N@Z@4HA 00000001800703b0 f    CIL library: CIL module
 0001:0006f3d0       ?dtor$5@?0??Format@asCDataType@@QEBA?AVasCString@@_N@Z@4HA 00000001800703d0 f    CIL library: CIL module
 0001:0006f3e8       ?dtor$0@?0??CompileArgumentList@asCCompiler@@IEAAHPEAVasCScriptNode@@AEAV?$asCArray@PEAUasSExprContext@@@@@Z@4HA 00000001800703e8 f    CIL library: CIL module
 0001:0006f3e8       ?dtor$0@?0??CompileExpressionStatement@asCCompiler@@IEAAXPEAVasCScriptNode@@PEAVasCByteCode@@@Z@4HA 00000001800703e8 f    CIL library: CIL module
 0001:0006f400       ?catch$0@?0??CallSystemFunction@@YAHHPEAVasCContext@@PEAX@Z@4HA 0000000180070400 f    CIL library: CIL module
 0001:0006f40d       __catch$?CallSystemFunction@@YAHHPEAVasCContext@@PEAX@Z$0 000000018007040d f    CIL library: CIL module
 0001:0006f435       ?dtor$0@?0??ReadUsedGlobalProps@asCReader@@IEAAXXZ@4HA 0000000180070435 f    CIL library: CIL module
 0001:0006f435       ?dtor$0@?0??BuildKey@?$asCSymbolTable@UsGlobalVariableDescription@@@@AEBAXPEBUasSNameSpace@@AEBVasCString@@AEAV3@@Z@4HA 0000000180070435 f    CIL library: CIL module
 0001:0006f435       ?dtor$0@?0??BuildKey@?$asCSymbolTable@VasCScriptFunction@@@@AEBAXPEBUasSNameSpace@@AEBVasCString@@AEAV3@@Z@4HA 0000000180070435 f    CIL library: CIL module
 0001:0006f435       ?dtor$0@?0??BuildKey@?$asCSymbolTable@VasCGlobalProperty@@@@AEBAXPEBUasSNameSpace@@AEBVasCString@@AEAV3@@Z@4HA 0000000180070435 f    CIL library: CIL module
 0001:0006f455       ?dtor$1@?0??BuildKey@?$asCSymbolTable@VasCGlobalProperty@@@@AEBAXPEBUasSNameSpace@@AEBVasCString@@AEAV3@@Z@4HA 0000000180070455 f    CIL library: CIL module
 0001:0006f455       ?dtor$1@?0??BuildKey@?$asCSymbolTable@UsGlobalVariableDescription@@@@AEBAXPEBUasSNameSpace@@AEBVasCString@@AEAV3@@Z@4HA 0000000180070455 f    CIL library: CIL module
 0001:0006f455       ?dtor$1@?0??BuildKey@?$asCSymbolTable@VasCScriptFunction@@@@AEBAXPEBUasSNameSpace@@AEBVasCString@@AEAV3@@Z@4HA 0000000180070455 f    CIL library: CIL module
 0001:0006f455       ?dtor$1@?0??ReadUsedGlobalProps@asCReader@@IEAAXXZ@4HA 0000000180070455 f    CIL library: CIL module
 0001:0006f46d       ?dtor$0@?0??WriteError@asCBuilder@@IEAAXAEBVasCString@@PEAVasCScriptCode@@PEAVasCScriptNode@@@Z@4HA 000000018007046d f    CIL library: CIL module
 0001:0006f493       ?dtor$0@?0??CheckNameConflictMember@asCBuilder@@QEAAHPEAVasCObjectType@@PEBDPEAVasCScriptNode@@PEAVasCScriptCode@@_N@Z@4HA 0000000180070493 f    CIL library: CIL module
 0001:0006f4b3       ?dtor$1@?0??CheckNameConflictMember@asCBuilder@@QEAAHPEAVasCObjectType@@PEBDPEAVasCScriptNode@@PEAVasCScriptCode@@_N@Z@4HA 00000001800704b3 f    CIL library: CIL module
 0001:0006f4d3       ?dtor$2@?0??CheckNameConflictMember@asCBuilder@@QEAAHPEAVasCObjectType@@PEBDPEAVasCScriptNode@@PEAVasCScriptCode@@_N@Z@4HA 00000001800704d3 f    CIL library: CIL module
 0001:0006f4eb       ?dtor$0@?0??GetGlobalProperty@asCBuilder@@IEAAPEAVasCGlobalProperty@@PEBDPEAUasSNameSpace@@PEA_N2PEA_K2@Z@4HA 00000001800704eb f    CIL library: CIL module
 0001:0006f4eb       ?dtor$0@?0??AddPropertyToClass@asCBuilder@@IEAAPEAVasCObjectProperty@@PEAUsClassDeclaration@@AEBVasCString@@AEBVasCDataType@@_NPEAVasCScriptCode@@PEAVasCScriptNode@@@Z@4HA 00000001800704eb f    CIL library: CIL module
 0001:0006f50b       ?dtor$1@?0??AddPropertyToClass@asCBuilder@@IEAAPEAVasCObjectProperty@@PEAUsClassDeclaration@@AEBVasCString@@AEBVasCDataType@@_NPEAVasCScriptCode@@PEAVasCScriptNode@@@Z@4HA 000000018007050b f    CIL library: CIL module
 0001:0006f50b       ?dtor$1@?0??GetGlobalProperty@asCBuilder@@IEAAPEAVasCGlobalProperty@@PEBDPEAUasSNameSpace@@PEA_N2PEA_K2@Z@4HA 000000018007050b f    CIL library: CIL module
 0001:0006f52b       ?dtor$2@?0??GetGlobalProperty@asCBuilder@@IEAAPEAVasCGlobalProperty@@PEBDPEAUasSNameSpace@@PEA_N2PEA_K2@Z@4HA 000000018007052b f    CIL library: CIL module
 0001:0006f52b       ?dtor$2@?0??AddPropertyToClass@asCBuilder@@IEAAPEAVasCObjectProperty@@PEAUsClassDeclaration@@AEBVasCString@@AEBVasCDataType@@_NPEAVasCScriptCode@@PEAVasCScriptNode@@@Z@4HA 000000018007052b f    CIL library: CIL module
 0001:0006f543       ?dtor$0@?0???1asCBuilder@@QEAA@XZ@4HA 0000000180070543 f    CIL library: CIL module
 0001:0006f563       ?dtor$1@?0???1asCBuilder@@QEAA@XZ@4HA 0000000180070563 f    CIL library: CIL module
 0001:0006f583       ?dtor$2@?0???1asCBuilder@@QEAA@XZ@4HA 0000000180070583 f    CIL library: CIL module
 0001:0006f5a3       ?dtor$3@?0???1asCBuilder@@QEAA@XZ@4HA 00000001800705a3 f    CIL library: CIL module
 0001:0006f5c3       ?dtor$4@?0???1asCBuilder@@QEAA@XZ@4HA 00000001800705c3 f    CIL library: CIL module
 0001:0006f5e3       ?dtor$5@?0???1asCBuilder@@QEAA@XZ@4HA 00000001800705e3 f    CIL library: CIL module
 0001:0006f603       ?dtor$6@?0???1asCBuilder@@QEAA@XZ@4HA 0000000180070603 f    CIL library: CIL module
 0001:0006f623       ?dtor$7@?0???1asCBuilder@@QEAA@XZ@4HA 0000000180070623 f    CIL library: CIL module
 0001:0006f643       ?dtor$8@?0???1asCBuilder@@QEAA@XZ@4HA 0000000180070643 f    CIL library: CIL module
 0001:0006f663       ?dtor$9@?0???1asCBuilder@@QEAA@XZ@4HA 0000000180070663 f    CIL library: CIL module
 0001:0006f683       ?dtor$12@?0???1asCBuilder@@QEAA@XZ@4HA 0000000180070683 f    CIL library: CIL module
 0001:0006f6a3       ?dtor$14@?0???1asCBuilder@@QEAA@XZ@4HA 00000001800706a3 f    CIL library: CIL module
 0001:0006f6c3       ?dtor$16@?0???1asCBuilder@@QEAA@XZ@4HA 00000001800706c3 f    CIL library: CIL module
 0001:0006f6e3       ?dtor$20@?0???1asCBuilder@@QEAA@XZ@4HA 00000001800706e3 f    CIL library: CIL module
 0001:0006f703       ?dtor$22@?0???1asCBuilder@@QEAA@XZ@4HA 0000000180070703 f    CIL library: CIL module
 0001:0006f71f       ?dtor$0@?0???0asCBuilder@@QEAA@PEAVasCScriptEngine@@PEAVasCModule@@@Z@4HA 000000018007071f f    CIL library: CIL module
 0001:0006f73f       ?dtor$1@?0???0asCBuilder@@QEAA@PEAVasCScriptEngine@@PEAVasCModule@@@Z@4HA 000000018007073f f    CIL library: CIL module
 0001:0006f75f       ?dtor$2@?0???0asCBuilder@@QEAA@PEAVasCScriptEngine@@PEAVasCModule@@@Z@4HA 000000018007075f f    CIL library: CIL module
 0001:0006f77f       ?dtor$9@?0???0asCBuilder@@QEAA@PEAVasCScriptEngine@@PEAVasCModule@@@Z@4HA 000000018007077f f    CIL library: CIL module
 0001:0006f797       ?dtor$0@?0??RegisterTypesFromScript@asCBuilder@@IEAAXPEAVasCScriptNode@@PEAVasCScriptCode@@PEAUasSNameSpace@@@Z@4HA 0000000180070797 f    CIL library: CIL module
 0001:0006f797       ?dtor$0@?0??GetKey@?$asCSymbolTable@UsGlobalVariableDescription@@@@AEBAXPEBUsGlobalVariableDescription@@AEAVasCString@@@Z@4HA 0000000180070797 f    CIL library: CIL module
 0001:0006f7b7       ?dtor$1@?0??RegisterTypesFromScript@asCBuilder@@IEAAXPEAVasCScriptNode@@PEAVasCScriptCode@@PEAUasSNameSpace@@@Z@4HA 00000001800707b7 f    CIL library: CIL module
 0001:0006f7b7       ?dtor$1@?0??GetKey@?$asCSymbolTable@UsGlobalVariableDescription@@@@AEBAXPEBUsGlobalVariableDescription@@AEAVasCString@@@Z@4HA 00000001800707b7 f    CIL library: CIL module
 0001:0006f7d7       ?dtor$2@?0??RegisterTypesFromScript@asCBuilder@@IEAAXPEAVasCScriptNode@@PEAVasCScriptCode@@PEAUasSNameSpace@@@Z@4HA 00000001800707d7 f    CIL library: CIL module
 0001:0006f7d7       ?dtor$2@?0??GetKey@?$asCSymbolTable@UsGlobalVariableDescription@@@@AEBAXPEBUsGlobalVariableDescription@@AEAVasCString@@@Z@4HA 00000001800707d7 f    CIL library: CIL module
 0001:0006f7ef       ?dtor$0@?0??GetDeclarationStr@asCScriptFunction@@QEBA?AVasCString@@_N0@Z@4HA 00000001800707ef f    CIL library: CIL module
 0001:0006f81f       ?dtor$1@?0??GetDeclarationStr@asCScriptFunction@@QEBA?AVasCString@@_N0@Z@4HA 000000018007081f f    CIL library: CIL module
 0001:0006f83f       ?dtor$2@?0??GetDeclarationStr@asCScriptFunction@@QEBA?AVasCString@@_N0@Z@4HA 000000018007083f f    CIL library: CIL module
 0001:0006f85f       ?dtor$3@?0??GetDeclarationStr@asCScriptFunction@@QEBA?AVasCString@@_N0@Z@4HA 000000018007085f f    CIL library: CIL module
 0001:0006f87f       ?dtor$4@?0??GetDeclarationStr@asCScriptFunction@@QEBA?AVasCString@@_N0@Z@4HA 000000018007087f f    CIL library: CIL module
 0001:0006f89f       ?dtor$6@?0??GetDeclarationStr@asCScriptFunction@@QEBA?AVasCString@@_N0@Z@4HA 000000018007089f f    CIL library: CIL module
 0001:0006f8bf       ?dtor$7@?0??GetDeclarationStr@asCScriptFunction@@QEBA?AVasCString@@_N0@Z@4HA 00000001800708bf f    CIL library: CIL module
 0001:0006f8df       ?dtor$8@?0??GetDeclarationStr@asCScriptFunction@@QEBA?AVasCString@@_N0@Z@4HA 00000001800708df f    CIL library: CIL module
 0001:0006f8ff       ?dtor$9@?0??GetDeclarationStr@asCScriptFunction@@QEBA?AVasCString@@_N0@Z@4HA 00000001800708ff f    CIL library: CIL module
 0001:0006f91f       ?dtor$10@?0??GetDeclarationStr@asCScriptFunction@@QEBA?AVasCString@@_N0@Z@4HA 000000018007091f f    CIL library: CIL module
 0001:0006f93f       ?dtor$11@?0??GetDeclarationStr@asCScriptFunction@@QEBA?AVasCString@@_N0@Z@4HA 000000018007093f f    CIL library: CIL module
 0001:0006f95f       ?dtor$12@?0??GetDeclarationStr@asCScriptFunction@@QEBA?AVasCString@@_N0@Z@4HA 000000018007095f f    CIL library: CIL module
 0001:0006f97f       ?dtor$13@?0??GetDeclarationStr@asCScriptFunction@@QEBA?AVasCString@@_N0@Z@4HA 000000018007097f f    CIL library: CIL module
 0001:0006f99f       ?dtor$14@?0??GetDeclarationStr@asCScriptFunction@@QEBA?AVasCString@@_N0@Z@4HA 000000018007099f f    CIL library: CIL module
 0001:0006f9bf       ?dtor$15@?0??GetDeclarationStr@asCScriptFunction@@QEBA?AVasCString@@_N0@Z@4HA 00000001800709bf f    CIL library: CIL module
 0001:0006f9df       ?dtor$16@?0??GetDeclarationStr@asCScriptFunction@@QEBA?AVasCString@@_N0@Z@4HA 00000001800709df f    CIL library: CIL module
 0001:0006f9f7       ?dtor$0@?0??GetFunctionDeclaration@asCScriptEngine@@QEAA?AVasCString@@H@Z@4HA 00000001800709f7 f    CIL library: CIL module
 0001:0006f9f7       ?dtor$0@?0??GetScopeFromNode@asCBuilder@@IEAA?AVasCString@@PEAVasCScriptNode@@PEAVasCScriptCode@@PEAPEAV3@@Z@4HA 00000001800709f7 f    CIL library: CIL module
 0001:0006fa27       ?dtor$1@?0??GetFunctionDeclaration@asCScriptEngine@@QEAA?AVasCString@@H@Z@4HA 0000000180070a27 f    CIL library: CIL module
 0001:0006fa27       ?dtor$1@?0??GetScopeFromNode@asCBuilder@@IEAA?AVasCString@@PEAVasCScriptNode@@PEAVasCScriptCode@@PEAPEAV3@@Z@4HA 0000000180070a27 f    CIL library: CIL module
 0001:0006fa3f       ?dtor$0@?0??SuperficiallyParseExpression@asCParser@@IEAAPEAVasCScriptNode@@XZ@4HA 0000000180070a3f f    CIL library: CIL module
 0001:0006fa5f       ?dtor$1@?0??SuperficiallyParseExpression@asCParser@@IEAAPEAVasCScriptNode@@XZ@4HA 0000000180070a5f f    CIL library: CIL module
 0001:0006fa7f       ?dtor$2@?0??SuperficiallyParseExpression@asCParser@@IEAAPEAVasCScriptNode@@XZ@4HA 0000000180070a7f f    CIL library: CIL module
 0001:0006fa9f       ?dtor$3@?0??SuperficiallyParseExpression@asCParser@@IEAAPEAVasCScriptNode@@XZ@4HA 0000000180070a9f f    CIL library: CIL module
 0001:0006fabf       ?dtor$4@?0??SuperficiallyParseExpression@asCParser@@IEAAPEAVasCScriptNode@@XZ@4HA 0000000180070abf f    CIL library: CIL module
 0001:0006fadf       ?dtor$5@?0??SuperficiallyParseExpression@asCParser@@IEAAPEAVasCScriptNode@@XZ@4HA 0000000180070adf f    CIL library: CIL module
 0001:0006faff       ?dtor$6@?0??SuperficiallyParseExpression@asCParser@@IEAAPEAVasCScriptNode@@XZ@4HA 0000000180070aff f    CIL library: CIL module
 0001:0006fb17       ?dtor$0@?0??AddScriptSection@asCModule@@UEAAHPEBD0_KH@Z@4HA 0000000180070b17 f    CIL library: CIL module
 0001:0006fb33       ?dtor$0@?0???0asCModule@@QEAA@PEBDPEAVasCScriptEngine@@@Z@4HA 0000000180070b33 f    CIL library: CIL module
 0001:0006fb53       ?dtor$1@?0???0asCModule@@QEAA@PEBDPEAVasCScriptEngine@@@Z@4HA 0000000180070b53 f    CIL library: CIL module
 0001:0006fb73       ?dtor$2@?0???0asCModule@@QEAA@PEBDPEAVasCScriptEngine@@@Z@4HA 0000000180070b73 f    CIL library: CIL module
 0001:0006fb93       ?dtor$10@?0???0asCModule@@QEAA@PEBDPEAVasCScriptEngine@@@Z@4HA 0000000180070b93 f    CIL library: CIL module
 0001:0006fbb3       ?dtor$3@?0???0asCModule@@QEAA@PEBDPEAVasCScriptEngine@@@Z@4HA 0000000180070bb3 f    CIL library: CIL module
 0001:0006fbd3       ?dtor$4@?0???0asCModule@@QEAA@PEBDPEAVasCScriptEngine@@@Z@4HA 0000000180070bd3 f    CIL library: CIL module
 0001:0006fbf3       ?dtor$5@?0???0asCModule@@QEAA@PEBDPEAVasCScriptEngine@@@Z@4HA 0000000180070bf3 f    CIL library: CIL module
 0001:0006fc13       ?dtor$6@?0???0asCModule@@QEAA@PEBDPEAVasCScriptEngine@@@Z@4HA 0000000180070c13 f    CIL library: CIL module
 0001:0006fc33       ?dtor$7@?0???0asCModule@@QEAA@PEBDPEAVasCScriptEngine@@@Z@4HA 0000000180070c33 f    CIL library: CIL module
 0001:0006fc53       ?dtor$8@?0???0asCModule@@QEAA@PEBDPEAVasCScriptEngine@@@Z@4HA 0000000180070c53 f    CIL library: CIL module
 0001:0006fc73       ?dtor$9@?0???0asCModule@@QEAA@PEBDPEAVasCScriptEngine@@@Z@4HA 0000000180070c73 f    CIL library: CIL module
 0001:0006fc92       ?dtor$0@?0??DetermineSingleFunc@asCCompiler@@IEAAXPEAUasSExprContext@@PEAVasCScriptNode@@@Z@4HA 0000000180070c92 f    CIL library: CIL module
 0001:0006fcb2       ?dtor$1@?0??DetermineSingleFunc@asCCompiler@@IEAAXPEAUasSExprContext@@PEAVasCScriptNode@@@Z@4HA 0000000180070cb2 f    CIL library: CIL module
 0001:0006fcd2       ?dtor$2@?0??DetermineSingleFunc@asCCompiler@@IEAAXPEAUasSExprContext@@PEAVasCScriptNode@@@Z@4HA 0000000180070cd2 f    CIL library: CIL module
 0001:0006fcf2       ?dtor$4@?0??DetermineSingleFunc@asCCompiler@@IEAAXPEAUasSExprContext@@PEAVasCScriptNode@@@Z@4HA 0000000180070cf2 f    CIL library: CIL module
 0001:0006fd12       ?dtor$5@?0??DetermineSingleFunc@asCCompiler@@IEAAXPEAUasSExprContext@@PEAVasCScriptNode@@@Z@4HA 0000000180070d12 f    CIL library: CIL module
 0001:0006fd32       ?dtor$6@?0??DetermineSingleFunc@asCCompiler@@IEAAXPEAUasSExprContext@@PEAVasCScriptNode@@@Z@4HA 0000000180070d32 f    CIL library: CIL module
 0001:0006fd4a       ?dtor$0@?0??CallDefaultConstructor@asCCompiler@@IEAAHAEAVasCDataType@@H_NPEAVasCByteCode@@PEAVasCScriptNode@@H1@Z@4HA 0000000180070d4a f    CIL library: CIL module
 0001:0006fd6a       ?dtor$1@?0??CallDefaultConstructor@asCCompiler@@IEAAHAEAVasCDataType@@H_NPEAVasCByteCode@@PEAVasCScriptNode@@H1@Z@4HA 0000000180070d6a f    CIL library: CIL module
 0001:0006fd8a       ?dtor$2@?0??CallDefaultConstructor@asCCompiler@@IEAAHAEAVasCDataType@@H_NPEAVasCByteCode@@PEAVasCScriptNode@@H1@Z@4HA 0000000180070d8a f    CIL library: CIL module
 0001:0006fda2       ?dtor$0@?0??CallCopyConstructor@asCCompiler@@IEAAHAEAVasCDataType@@H_NPEAVasCByteCode@@PEAUasSExprContext@@PEAVasCScriptNode@@11@Z@4HA 0000000180070da2 f    CIL library: CIL module
 0001:0006fdc2       ?dtor$1@?0??CallCopyConstructor@asCCompiler@@IEAAHAEAVasCDataType@@H_NPEAVasCByteCode@@PEAUasSExprContext@@PEAVasCScriptNode@@11@Z@4HA 0000000180070dc2 f    CIL library: CIL module
 0001:0006fde2       ?dtor$2@?0??CallCopyConstructor@asCCompiler@@IEAAHAEAVasCDataType@@H_NPEAVasCByteCode@@PEAUasSExprContext@@PEAVasCScriptNode@@11@Z@4HA 0000000180070de2 f    CIL library: CIL module
 0001:0006fe02       ?dtor$3@?0??CallCopyConstructor@asCCompiler@@IEAAHAEAVasCDataType@@H_NPEAVasCByteCode@@PEAUasSExprContext@@PEAVasCScriptNode@@11@Z@4HA 0000000180070e02 f    CIL library: CIL module
 0001:0006fe22       ?dtor$4@?0??CallCopyConstructor@asCCompiler@@IEAAHAEAVasCDataType@@H_NPEAVasCByteCode@@PEAUasSExprContext@@PEAVasCScriptNode@@11@Z@4HA 0000000180070e22 f    CIL library: CIL module
 0001:0006fe3a       ?dtor$0@?0??SetupParametersAndReturnVariable@asCCompiler@@IEAAHAEAV?$asCArray@VasCString@@@@PEAVasCScriptNode@@@Z@4HA 0000000180070e3a f    CIL library: CIL module
 0001:0006fe5a       ?dtor$1@?0??SetupParametersAndReturnVariable@asCCompiler@@IEAAHAEAV?$asCArray@VasCString@@@@PEAVasCScriptNode@@@Z@4HA 0000000180070e5a f    CIL library: CIL module
 0001:0006fe7a       ?dtor$6@?0??SetupParametersAndReturnVariable@asCCompiler@@IEAAHAEAV?$asCArray@VasCString@@@@PEAVasCScriptNode@@@Z@4HA 0000000180070e7a f    CIL library: CIL module
 0001:0006fe9a       ?dtor$2@?0??SetupParametersAndReturnVariable@asCCompiler@@IEAAHAEAV?$asCArray@VasCString@@@@PEAVasCScriptNode@@@Z@4HA 0000000180070e9a f    CIL library: CIL module
 0001:0006feba       ?dtor$3@?0??SetupParametersAndReturnVariable@asCCompiler@@IEAAHAEAV?$asCArray@VasCString@@@@PEAVasCScriptNode@@@Z@4HA 0000000180070eba f    CIL library: CIL module
 0001:0006feda       ?dtor$4@?0??SetupParametersAndReturnVariable@asCCompiler@@IEAAHAEAV?$asCArray@VasCString@@@@PEAVasCScriptNode@@@Z@4HA 0000000180070eda f    CIL library: CIL module
 0001:0006fefa       ?dtor$5@?0??SetupParametersAndReturnVariable@asCCompiler@@IEAAHAEAV?$asCArray@VasCString@@@@PEAVasCScriptNode@@@Z@4HA 0000000180070efa f    CIL library: CIL module
 0001:0006ff1a       ?dtor$7@?0??SetupParametersAndReturnVariable@asCCompiler@@IEAAHAEAV?$asCArray@VasCString@@@@PEAVasCScriptNode@@@Z@4HA 0000000180070f1a f    CIL library: CIL module
 0001:0006ff39       ?dtor$0@?0??PrepareSystemFunction@@YAHPEAVasCScriptFunction@@PEAUasSSystemFunctionInterface@@PEAVasCScriptEngine@@@Z@4HA 0000000180070f39 f    CIL library: CIL module
 0001:0006ff59       ?dtor$1@?0??PrepareSystemFunction@@YAHPEAVasCScriptFunction@@PEAUasSSystemFunctionInterface@@PEAVasCScriptEngine@@@Z@4HA 0000000180070f59 f    CIL library: CIL module
 0001:0006ff79       ?dtor$2@?0??PrepareSystemFunction@@YAHPEAVasCScriptFunction@@PEAUasSSystemFunctionInterface@@PEAVasCScriptEngine@@@Z@4HA 0000000180070f79 f    CIL library: CIL module
 0001:0006ff99       ?dtor$3@?0??PrepareSystemFunction@@YAHPEAVasCScriptFunction@@PEAUasSSystemFunctionInterface@@PEAVasCScriptEngine@@@Z@4HA 0000000180070f99 f    CIL library: CIL module
 0001:0006ffb1       ?dtor$0@?0??Put@?$asCSymbolTable@UsGlobalVariableDescription@@@@QEAAHPEAUsGlobalVariableDescription@@@Z@4HA 0000000180070fb1 f    CIL library: CIL module
 0001:0006ffb1       ?dtor$0@?0??Put@?$asCSymbolTable@VasCScriptFunction@@@@QEAAHPEAVasCScriptFunction@@@Z@4HA 0000000180070fb1 f    CIL library: CIL module
 0001:0006ffb1       ?dtor$0@?0??Put@?$asCSymbolTable@VasCGlobalProperty@@@@QEAAHPEAVasCGlobalProperty@@@Z@4HA 0000000180070fb1 f    CIL library: CIL module
 0001:0006ffd1       ?dtor$1@?0??Put@?$asCSymbolTable@VasCScriptFunction@@@@QEAAHPEAVasCScriptFunction@@@Z@4HA 0000000180070fd1 f    CIL library: CIL module
 0001:0006ffd1       ?dtor$1@?0??Put@?$asCSymbolTable@VasCGlobalProperty@@@@QEAAHPEAVasCGlobalProperty@@@Z@4HA 0000000180070fd1 f    CIL library: CIL module
 0001:0006ffd1       ?dtor$1@?0??Put@?$asCSymbolTable@UsGlobalVariableDescription@@@@QEAAHPEAUsGlobalVariableDescription@@@Z@4HA 0000000180070fd1 f    CIL library: CIL module
 0001:0006ffe9       ?dtor$0@?0??GetGlobalVarDeclaration@asCModule@@UEBAPEBDI_N@Z@4HA 0000000180070fe9 f    CIL library: CIL module
 0001:0006ffe9       ?dtor$0@?0??GetVarDecl@asCScriptFunction@@UEBAPEBDI_N@Z@4HA 0000000180070fe9 f    CIL library: CIL module
 0001:0006ffe9       ?dtor$0@?0??AddInterfaceToClass@asCBuilder@@IEAAXPEAUsClassDeclaration@@PEAVasCScriptNode@@PEAVasCObjectType@@@Z@4HA 0000000180070fe9 f    CIL library: CIL module
 0001:0006ffe9       ?dtor$0@?0??ModifyDataTypeFromNode@asCBuilder@@IEAA?AVasCDataType@@AEBV2@PEAVasCScriptNode@@PEAVasCScriptCode@@PEAW4asETypeModifiers@@PEA_N@Z@4HA 0000000180070fe9 f    CIL library: CIL module
 0001:00070009       ?dtor$1@?0??ModifyDataTypeFromNode@asCBuilder@@IEAA?AVasCDataType@@AEBV2@PEAVasCScriptNode@@PEAVasCScriptCode@@PEAW4asETypeModifiers@@PEA_N@Z@4HA 0000000180071009 f    CIL library: CIL module
 0001:00070009       ?dtor$1@?0??AddInterfaceToClass@asCBuilder@@IEAAXPEAUsClassDeclaration@@PEAVasCScriptNode@@PEAVasCObjectType@@@Z@4HA 0000000180071009 f    CIL library: CIL module
 0001:00070009       ?dtor$1@?0??GetGlobalVarDeclaration@asCModule@@UEBAPEBDI_N@Z@4HA 0000000180071009 f    CIL library: CIL module
 0001:00070009       ?dtor$1@?0??GetVarDecl@asCScriptFunction@@UEBAPEBDI_N@Z@4HA 0000000180071009 f    CIL library: CIL module
 0001:00070021       ?dtor$0@?0??GetNameSpaceFromNode@asCBuilder@@IEAAPEAUasSNameSpace@@PEAVasCScriptNode@@PEAVasCScriptCode@@PEAU2@PEAPEAV3@@Z@4HA 0000000180071021 f    CIL library: CIL module
 0001:00070041       ?dtor$1@?0??GetNameSpaceFromNode@asCBuilder@@IEAAPEAUasSNameSpace@@PEAVasCScriptNode@@PEAVasCScriptCode@@PEAU2@PEAPEAV3@@Z@4HA 0000000180071041 f    CIL library: CIL module
 0001:00070059       ?dtor$0@?0??CheckNameConflict@asCBuilder@@QEAAHPEBDPEAVasCScriptNode@@PEAVasCScriptCode@@PEAUasSNameSpace@@@Z@4HA 0000000180071059 f    CIL library: CIL module
 0001:00070079       ?dtor$1@?0??CheckNameConflict@asCBuilder@@QEAAHPEBDPEAVasCScriptNode@@PEAVasCScriptCode@@PEAUasSNameSpace@@@Z@4HA 0000000180071079 f    CIL library: CIL module
 0001:00070099       ?dtor$2@?0??CheckNameConflict@asCBuilder@@QEAAHPEBDPEAVasCScriptNode@@PEAVasCScriptCode@@PEAUasSNameSpace@@@Z@4HA 0000000180071099 f    CIL library: CIL module
 0001:000700b9       ?dtor$3@?0??CheckNameConflict@asCBuilder@@QEAAHPEBDPEAVasCScriptNode@@PEAVasCScriptCode@@PEAUasSNameSpace@@@Z@4HA 00000001800710b9 f    CIL library: CIL module
 0001:000700d9       ?dtor$4@?0??CheckNameConflict@asCBuilder@@QEAAHPEBDPEAVasCScriptNode@@PEAVasCScriptCode@@PEAUasSNameSpace@@@Z@4HA 00000001800710d9 f    CIL library: CIL module
 0001:000700f9       ?dtor$5@?0??CheckNameConflict@asCBuilder@@QEAAHPEBDPEAVasCScriptNode@@PEAVasCScriptCode@@PEAUasSNameSpace@@@Z@4HA 00000001800710f9 f    CIL library: CIL module
 0001:00070111       ?dtor$0@?0??ParseTemplateDecl@asCBuilder@@QEAAHPEBDPEAVasCString@@AEAV?$asCArray@VasCString@@@@@Z@4HA 0000000180071111 f    CIL library: CIL module
 0001:00070131       ?dtor$1@?0??ParseTemplateDecl@asCBuilder@@QEAAHPEBDPEAVasCString@@AEAV?$asCArray@VasCString@@@@@Z@4HA 0000000180071131 f    CIL library: CIL module
 0001:00070151       ?dtor$2@?0??ParseTemplateDecl@asCBuilder@@QEAAHPEBDPEAVasCString@@AEAV?$asCArray@VasCString@@@@@Z@4HA 0000000180071151 f    CIL library: CIL module
 0001:00070169       ?dtor$0@?0??RegisterTypedef@asCScriptEngine@@UEAAHPEBD0@Z@4HA 0000000180071169 f    CIL library: CIL module
 0001:00070184       ?dtor$0@?0??GetModule@asCScriptEngine@@QEAAPEAVasCModule@@PEBD_N@Z@4HA 0000000180071184 f    CIL library: CIL module
 0001:00070184       ?dtor$0@?0??AddConstantString@asCScriptEngine@@QEAAHPEBD_K@Z@4HA 0000000180071184 f    CIL library: CIL module
 0001:000701a0       ?dtor$0@?0??SetDefaultNamespace@asCScriptEngine@@UEAAHPEBD@Z@4HA 00000001800711a0 f    CIL library: CIL module
 0001:000701a0       ?dtor$0@?0??PrepareEngine@asCScriptEngine@@QEAAXXZ@4HA 00000001800711a0 f    CIL library: CIL module
 0001:000701a0       ?dtor$0@?0??CompileBreakStatement@asCCompiler@@IEAAXPEAVasCScriptNode@@PEAVasCByteCode@@@Z@4HA 00000001800711a0 f    CIL library: CIL module
 0001:000701a0       ?dtor$0@?0??PrintMatchingFuncs@asCCompiler@@IEAAXAEAV?$asCArray@H@@PEAVasCScriptNode@@@Z@4HA 00000001800711a0 f    CIL library: CIL module
 0001:000701a0       ?dtor$0@?0??RegisterTypedef@asCBuilder@@IEAAHPEAVasCScriptNode@@PEAVasCScriptCode@@PEAUasSNameSpace@@@Z@4HA 00000001800711a0 f    CIL library: CIL module
 0001:000701a0       ?dtor$0@?0??RegisterFuncDef@asCBuilder@@IEAAHPEAVasCScriptNode@@PEAVasCScriptCode@@PEAUasSNameSpace@@@Z@4HA 00000001800711a0 f    CIL library: CIL module
 0001:000701a0       ?dtor$0@?0??Execute@asCContext@@UEAAHXZ@4HA 00000001800711a0 f    CIL library: CIL module
 0001:000701a0       ?dtor$0@?0??ReportAndReleaseUndestroyedObjects@asCGarbageCollector@@QEAAHXZ@4HA 00000001800711a0 f    CIL library: CIL module
 0001:000701a0       ?dtor$0@?0??DestroyOldGarbage@asCGarbageCollector@@IEAAHXZ@4HA 00000001800711a0 f    CIL library: CIL module
 0001:000701a0       ?dtor$0@?0??SetDefaultNamespace@asCModule@@UEAAHPEBD@Z@4HA 00000001800711a0 f    CIL library: CIL module
 0001:000701a0       ?dtor$0@?0??ConfigError@asCScriptEngine@@QEAAHHPEBD00@Z@4HA 00000001800711a0 f    CIL library: CIL module
 0001:000701a0       ?dtor$0@?0??AddRef@asCScriptObject@@UEBAHXZ@4HA 00000001800711a0 f    CIL library: CIL module
 0001:000701a0       ?dtor$0@?0??CompileContinueStatement@asCCompiler@@IEAAXPEAVasCScriptNode@@PEAVasCByteCode@@@Z@4HA 00000001800711a0 f    CIL library: CIL module
 0001:000701a0       ?dtor$0@?0??GetNamespaceAndNameFromNode@asCBuilder@@IEAAHPEAVasCScriptNode@@PEAVasCScriptCode@@PEAUasSNameSpace@@AEAPEAU4@AEAVasCString@@@Z@4HA 00000001800711a0 f    CIL library: CIL module
 0001:000701a0       ?dtor$0@?0??Warning@asCCompiler@@IEAAXAEBVasCString@@PEAVasCScriptNode@@@Z@4HA 00000001800711a0 f    CIL library: CIL module
 0001:000701a0       ?dtor$0@?0??RegisterInterface@asCBuilder@@IEAAHPEAVasCScriptNode@@PEAVasCScriptCode@@PEAUasSNameSpace@@@Z@4HA 00000001800711a0 f    CIL library: CIL module
 0001:000701a0       ?dtor$0@?0??Error@asCCompiler@@IEAAXAEBVasCString@@PEAVasCScriptNode@@@Z@4HA 00000001800711a0 f    CIL library: CIL module
 0001:000701b8       ?dtor$0@?0??CreateContext@asCScriptEngine@@QEAAHPEAPEAVasIScriptContext@@_N@Z@4HA 00000001800711b8 f    CIL library: CIL module
 0001:000701b8       ?dtor$0@?0??AllocateUninitializedObject@asCScriptObject@@QEAAPEAXPEAVasCObjectType@@PEAVasCScriptEngine@@@Z@4HA 00000001800711b8 f    CIL library: CIL module
 0001:000701d4       ?dtor$0@?0??SuperficiallyParseVarInit@asCParser@@IEAAPEAVasCScriptNode@@XZ@4HA 00000001800711d4 f    CIL library: CIL module
 0001:000701f4       ?dtor$1@?0??SuperficiallyParseVarInit@asCParser@@IEAAPEAVasCScriptNode@@XZ@4HA 00000001800711f4 f    CIL library: CIL module
 0001:00070214       ?dtor$2@?0??SuperficiallyParseVarInit@asCParser@@IEAAPEAVasCScriptNode@@XZ@4HA 0000000180071214 f    CIL library: CIL module
 0001:00070234       ?dtor$3@?0??SuperficiallyParseVarInit@asCParser@@IEAAPEAVasCScriptNode@@XZ@4HA 0000000180071234 f    CIL library: CIL module
 0001:00070254       ?dtor$4@?0??SuperficiallyParseVarInit@asCParser@@IEAAPEAVasCScriptNode@@XZ@4HA 0000000180071254 f    CIL library: CIL module
 0001:00070274       ?dtor$5@?0??SuperficiallyParseVarInit@asCParser@@IEAAPEAVasCScriptNode@@XZ@4HA 0000000180071274 f    CIL library: CIL module
 0001:00070294       ?dtor$6@?0??SuperficiallyParseVarInit@asCParser@@IEAAPEAVasCScriptNode@@XZ@4HA 0000000180071294 f    CIL library: CIL module
 0001:000702b4       ?dtor$7@?0??SuperficiallyParseVarInit@asCParser@@IEAAPEAVasCScriptNode@@XZ@4HA 00000001800712b4 f    CIL library: CIL module
 0001:000702d4       ?dtor$8@?0??SuperficiallyParseVarInit@asCParser@@IEAAPEAVasCScriptNode@@XZ@4HA 00000001800712d4 f    CIL library: CIL module
 0001:000702f4       ?dtor$9@?0??SuperficiallyParseVarInit@asCParser@@IEAAPEAVasCScriptNode@@XZ@4HA 00000001800712f4 f    CIL library: CIL module
 0001:0007030c       ?dtor$0@?0??ParseConstant@asCParser@@IEAAPEAVasCScriptNode@@XZ@4HA 000000018007130c f    CIL library: CIL module
 0001:0007032c       ?dtor$1@?0??ParseConstant@asCParser@@IEAAPEAVasCScriptNode@@XZ@4HA 000000018007132c f    CIL library: CIL module
 0001:00070344       ?dtor$0@?0??CallInit@asCModule@@QEAAHPEAVasIScriptContext@@@Z@4HA 0000000180071344 f    CIL library: CIL module
 0001:00070344       ?dtor$0@?0??RegisterClass@asCBuilder@@IEAAHPEAVasCScriptNode@@PEAVasCScriptCode@@PEAUasSNameSpace@@@Z@4HA 0000000180071344 f    CIL library: CIL module
 0001:0007035c       ?dtor$0@?0??CompileBooleanOperator@asCCompiler@@IEAAXPEAVasCScriptNode@@PEAUasSExprContext@@11@Z@4HA 000000018007135c f    CIL library: CIL module
 0001:0007037c       ?dtor$1@?0??CompileBooleanOperator@asCCompiler@@IEAAXPEAVasCScriptNode@@PEAUasSExprContext@@11@Z@4HA 000000018007137c f    CIL library: CIL module
 0001:0007039c       ?dtor$2@?0??CompileBooleanOperator@asCCompiler@@IEAAXPEAVasCScriptNode@@PEAUasSExprContext@@11@Z@4HA 000000018007139c f    CIL library: CIL module
 0001:000703bc       ?dtor$3@?0??CompileBooleanOperator@asCCompiler@@IEAAXPEAVasCScriptNode@@PEAUasSExprContext@@11@Z@4HA 00000001800713bc f    CIL library: CIL module
 0001:000703d4       ?dtor$0@?0??CompileComparisonOperator@asCCompiler@@IEAAXPEAVasCScriptNode@@PEAUasSExprContext@@11@Z@4HA 00000001800713d4 f    CIL library: CIL module
 0001:000703f4       ?dtor$1@?0??CompileComparisonOperator@asCCompiler@@IEAAXPEAVasCScriptNode@@PEAUasSExprContext@@11@Z@4HA 00000001800713f4 f    CIL library: CIL module
 0001:00070414       ?dtor$2@?0??CompileComparisonOperator@asCCompiler@@IEAAXPEAVasCScriptNode@@PEAUasSExprContext@@11@Z@4HA 0000000180071414 f    CIL library: CIL module
 0001:00070434       ?dtor$3@?0??CompileComparisonOperator@asCCompiler@@IEAAXPEAVasCScriptNode@@PEAUasSExprContext@@11@Z@4HA 0000000180071434 f    CIL library: CIL module
 0001:00070454       ?dtor$4@?0??CompileComparisonOperator@asCCompiler@@IEAAXPEAVasCScriptNode@@PEAUasSExprContext@@11@Z@4HA 0000000180071454 f    CIL library: CIL module
 0001:00070474       ?dtor$5@?0??CompileComparisonOperator@asCCompiler@@IEAAXPEAVasCScriptNode@@PEAUasSExprContext@@11@Z@4HA 0000000180071474 f    CIL library: CIL module
 0001:00070494       ?dtor$6@?0??CompileComparisonOperator@asCCompiler@@IEAAXPEAVasCScriptNode@@PEAUasSExprContext@@11@Z@4HA 0000000180071494 f    CIL library: CIL module
 0001:000704b4       ?dtor$7@?0??CompileComparisonOperator@asCCompiler@@IEAAXPEAVasCScriptNode@@PEAUasSExprContext@@11@Z@4HA 00000001800714b4 f    CIL library: CIL module
 0001:000704d4       ?dtor$8@?0??CompileComparisonOperator@asCCompiler@@IEAAXPEAVasCScriptNode@@PEAUasSExprContext@@11@Z@4HA 00000001800714d4 f    CIL library: CIL module
 0001:000704ec       ?dtor$0@?0??CompileBitwiseOperator@asCCompiler@@IEAAXPEAVasCScriptNode@@PEAUasSExprContext@@11@Z@4HA 00000001800714ec f    CIL library: CIL module
 0001:0007050c       ?dtor$1@?0??CompileBitwiseOperator@asCCompiler@@IEAAXPEAVasCScriptNode@@PEAUasSExprContext@@11@Z@4HA 000000018007150c f    CIL library: CIL module
 0001:0007052c       ?dtor$2@?0??CompileBitwiseOperator@asCCompiler@@IEAAXPEAVasCScriptNode@@PEAUasSExprContext@@11@Z@4HA 000000018007152c f    CIL library: CIL module
 0001:0007054c       ?dtor$3@?0??CompileBitwiseOperator@asCCompiler@@IEAAXPEAVasCScriptNode@@PEAUasSExprContext@@11@Z@4HA 000000018007154c f    CIL library: CIL module
 0001:0007056c       ?dtor$4@?0??CompileBitwiseOperator@asCCompiler@@IEAAXPEAVasCScriptNode@@PEAUasSExprContext@@11@Z@4HA 000000018007156c f    CIL library: CIL module
 0001:0007058c       ?dtor$5@?0??CompileBitwiseOperator@asCCompiler@@IEAAXPEAVasCScriptNode@@PEAUasSExprContext@@11@Z@4HA 000000018007158c f    CIL library: CIL module
 0001:000705ac       ?dtor$6@?0??CompileBitwiseOperator@asCCompiler@@IEAAXPEAVasCScriptNode@@PEAUasSExprContext@@11@Z@4HA 00000001800715ac f    CIL library: CIL module
 0001:000705cc       ?dtor$7@?0??CompileBitwiseOperator@asCCompiler@@IEAAXPEAVasCScriptNode@@PEAUasSExprContext@@11@Z@4HA 00000001800715cc f    CIL library: CIL module
 0001:000705ec       ?dtor$8@?0??CompileBitwiseOperator@asCCompiler@@IEAAXPEAVasCScriptNode@@PEAUasSExprContext@@11@Z@4HA 00000001800715ec f    CIL library: CIL module
 0001:0007060c       ?dtor$9@?0??CompileBitwiseOperator@asCCompiler@@IEAAXPEAVasCScriptNode@@PEAUasSExprContext@@11@Z@4HA 000000018007160c f    CIL library: CIL module
 0001:0007062c       ?dtor$10@?0??CompileBitwiseOperator@asCCompiler@@IEAAXPEAVasCScriptNode@@PEAUasSExprContext@@11@Z@4HA 000000018007162c f    CIL library: CIL module
 0001:0007064c       ?dtor$11@?0??CompileBitwiseOperator@asCCompiler@@IEAAXPEAVasCScriptNode@@PEAUasSExprContext@@11@Z@4HA 000000018007164c f    CIL library: CIL module
 0001:0007066c       ?dtor$12@?0??CompileBitwiseOperator@asCCompiler@@IEAAXPEAVasCScriptNode@@PEAUasSExprContext@@11@Z@4HA 000000018007166c f    CIL library: CIL module
 0001:00070687       ?dtor$0@?0??CompileMathOperator@asCCompiler@@IEAAXPEAVasCScriptNode@@PEAUasSExprContext@@11@Z@4HA 0000000180071687 f    CIL library: CIL module
 0001:000706a7       ?dtor$1@?0??CompileMathOperator@asCCompiler@@IEAAXPEAVasCScriptNode@@PEAUasSExprContext@@11@Z@4HA 00000001800716a7 f    CIL library: CIL module
 0001:000706c7       ?dtor$2@?0??CompileMathOperator@asCCompiler@@IEAAXPEAVasCScriptNode@@PEAUasSExprContext@@11@Z@4HA 00000001800716c7 f    CIL library: CIL module
 0001:000706e7       ?dtor$3@?0??CompileMathOperator@asCCompiler@@IEAAXPEAVasCScriptNode@@PEAUasSExprContext@@11@Z@4HA 00000001800716e7 f    CIL library: CIL module
 0001:00070707       ?dtor$4@?0??CompileMathOperator@asCCompiler@@IEAAXPEAVasCScriptNode@@PEAUasSExprContext@@11@Z@4HA 0000000180071707 f    CIL library: CIL module
 0001:0007071f       ?dtor$0@?0??FindPropertyAccessor@asCCompiler@@IEAAHAEBVasCString@@PEAUasSExprContext@@1PEAVasCScriptNode@@PEAUasSNameSpace@@_N@Z@4HA 000000018007171f f    CIL library: CIL module
 0001:0007073f       ?dtor$1@?0??FindPropertyAccessor@asCCompiler@@IEAAHAEBVasCString@@PEAUasSExprContext@@1PEAVasCScriptNode@@PEAUasSNameSpace@@_N@Z@4HA 000000018007173f f    CIL library: CIL module
 0001:0007075f       ?dtor$2@?0??FindPropertyAccessor@asCCompiler@@IEAAHAEBVasCString@@PEAUasSExprContext@@1PEAVasCScriptNode@@PEAUasSNameSpace@@_N@Z@4HA 000000018007175f f    CIL library: CIL module
 0001:0007077f       ?dtor$3@?0??FindPropertyAccessor@asCCompiler@@IEAAHAEBVasCString@@PEAUasSExprContext@@1PEAVasCScriptNode@@PEAUasSNameSpace@@_N@Z@4HA 000000018007177f f    CIL library: CIL module
 0001:0007079f       ?dtor$4@?0??FindPropertyAccessor@asCCompiler@@IEAAHAEBVasCString@@PEAUasSExprContext@@1PEAVasCScriptNode@@PEAUasSNameSpace@@_N@Z@4HA 000000018007179f f    CIL library: CIL module
 0001:000707bf       ?dtor$5@?0??FindPropertyAccessor@asCCompiler@@IEAAHAEBVasCString@@PEAUasSExprContext@@1PEAVasCScriptNode@@PEAUasSNameSpace@@_N@Z@4HA 00000001800717bf f    CIL library: CIL module
 0001:000707df       ?dtor$6@?0??FindPropertyAccessor@asCCompiler@@IEAAHAEBVasCString@@PEAUasSExprContext@@1PEAVasCScriptNode@@PEAUasSNameSpace@@_N@Z@4HA 00000001800717df f    CIL library: CIL module
 0001:000707ff       ?dtor$7@?0??FindPropertyAccessor@asCCompiler@@IEAAHAEBVasCString@@PEAUasSExprContext@@1PEAVasCScriptNode@@PEAUasSNameSpace@@_N@Z@4HA 00000001800717ff f    CIL library: CIL module
 0001:0007081f       ?dtor$8@?0??FindPropertyAccessor@asCCompiler@@IEAAHAEBVasCString@@PEAUasSExprContext@@1PEAVasCScriptNode@@PEAUasSNameSpace@@_N@Z@4HA 000000018007181f f    CIL library: CIL module
 0001:0007083a       ?dtor$0@?0??ProcessStringConstant@asCCompiler@@IEAAIAEAVasCString@@PEAVasCScriptNode@@_N@Z@4HA 000000018007183a f    CIL library: CIL module
 0001:0007085a       ?dtor$1@?0??ProcessStringConstant@asCCompiler@@IEAAIAEAVasCString@@PEAVasCScriptNode@@_N@Z@4HA 000000018007185a f    CIL library: CIL module
 0001:0007087a       ?dtor$2@?0??ProcessStringConstant@asCCompiler@@IEAAIAEAVasCString@@PEAVasCScriptNode@@_N@Z@4HA 000000018007187a f    CIL library: CIL module
 0001:0007089a       ?dtor$3@?0??ProcessStringConstant@asCCompiler@@IEAAIAEAVasCString@@PEAVasCScriptNode@@_N@Z@4HA 000000018007189a f    CIL library: CIL module
 0001:000708ba       ?dtor$4@?0??ProcessStringConstant@asCCompiler@@IEAAIAEAVasCString@@PEAVasCScriptNode@@_N@Z@4HA 00000001800718ba f    CIL library: CIL module
 0001:000708d2       ?dtor$0@?0??CompileVariableAccess@asCCompiler@@IEAAHAEBVasCString@@0PEAUasSExprContext@@PEAVasCScriptNode@@_N33PEAVasCObjectType@@@Z@4HA 00000001800718d2 f    CIL library: CIL module
 0001:000708f2       ?dtor$1@?0??CompileVariableAccess@asCCompiler@@IEAAHAEBVasCString@@0PEAUasSExprContext@@PEAVasCScriptNode@@_N33PEAVasCObjectType@@@Z@4HA 00000001800718f2 f    CIL library: CIL module
 0001:00070912       ?dtor$2@?0??CompileVariableAccess@asCCompiler@@IEAAHAEBVasCString@@0PEAUasSExprContext@@PEAVasCScriptNode@@_N33PEAVasCObjectType@@@Z@4HA 0000000180071912 f    CIL library: CIL module
 0001:00070932       ?dtor$3@?0??CompileVariableAccess@asCCompiler@@IEAAHAEBVasCString@@0PEAUasSExprContext@@PEAVasCScriptNode@@_N33PEAVasCObjectType@@@Z@4HA 0000000180071932 f    CIL library: CIL module
 0001:00070952       ?dtor$4@?0??CompileVariableAccess@asCCompiler@@IEAAHAEBVasCString@@0PEAUasSExprContext@@PEAVasCScriptNode@@_N33PEAVasCObjectType@@@Z@4HA 0000000180071952 f    CIL library: CIL module
 0001:00070972       ?dtor$5@?0??CompileVariableAccess@asCCompiler@@IEAAHAEBVasCString@@0PEAUasSExprContext@@PEAVasCScriptNode@@_N33PEAVasCObjectType@@@Z@4HA 0000000180071972 f    CIL library: CIL module
 0001:00070992       ?dtor$6@?0??CompileVariableAccess@asCCompiler@@IEAAHAEBVasCString@@0PEAUasSExprContext@@PEAVasCScriptNode@@_N33PEAVasCObjectType@@@Z@4HA 0000000180071992 f    CIL library: CIL module
 0001:000709b2       ?dtor$7@?0??CompileVariableAccess@asCCompiler@@IEAAHAEBVasCString@@0PEAUasSExprContext@@PEAVasCScriptNode@@_N33PEAVasCObjectType@@@Z@4HA 00000001800719b2 f    CIL library: CIL module
 0001:000709d2       ?dtor$8@?0??CompileVariableAccess@asCCompiler@@IEAAHAEBVasCString@@0PEAUasSExprContext@@PEAVasCScriptNode@@_N33PEAVasCObjectType@@@Z@4HA 00000001800719d2 f    CIL library: CIL module
 0001:00070a02       ?dtor$9@?0??CompileVariableAccess@asCCompiler@@IEAAHAEBVasCString@@0PEAUasSExprContext@@PEAVasCScriptNode@@_N33PEAVasCObjectType@@@Z@4HA 0000000180071a02 f    CIL library: CIL module
 0001:00070a32       ?dtor$10@?0??CompileVariableAccess@asCCompiler@@IEAAHAEBVasCString@@0PEAUasSExprContext@@PEAVasCScriptNode@@_N33PEAVasCObjectType@@@Z@4HA 0000000180071a32 f    CIL library: CIL module
 0001:00070a52       ?dtor$11@?0??CompileVariableAccess@asCCompiler@@IEAAHAEBVasCString@@0PEAUasSExprContext@@PEAVasCScriptNode@@_N33PEAVasCObjectType@@@Z@4HA 0000000180071a52 f    CIL library: CIL module
 0001:00070a72       ?dtor$12@?0??CompileVariableAccess@asCCompiler@@IEAAHAEBVasCString@@0PEAUasSExprContext@@PEAVasCScriptNode@@_N33PEAVasCObjectType@@@Z@4HA 0000000180071a72 f    CIL library: CIL module
 0001:00070a92       ?dtor$13@?0??CompileVariableAccess@asCCompiler@@IEAAHAEBVasCString@@0PEAUasSExprContext@@PEAVasCScriptNode@@_N33PEAVasCObjectType@@@Z@4HA 0000000180071a92 f    CIL library: CIL module
 0001:00070ab2       ?dtor$14@?0??CompileVariableAccess@asCCompiler@@IEAAHAEBVasCString@@0PEAUasSExprContext@@PEAVasCScriptNode@@_N33PEAVasCObjectType@@@Z@4HA 0000000180071ab2 f    CIL library: CIL module
 0001:00070ad2       ?dtor$15@?0??CompileVariableAccess@asCCompiler@@IEAAHAEBVasCString@@0PEAUasSExprContext@@PEAVasCScriptNode@@_N33PEAVasCObjectType@@@Z@4HA 0000000180071ad2 f    CIL library: CIL module
 0001:00070af2       ?dtor$16@?0??CompileVariableAccess@asCCompiler@@IEAAHAEBVasCString@@0PEAUasSExprContext@@PEAVasCScriptNode@@_N33PEAVasCObjectType@@@Z@4HA 0000000180071af2 f    CIL library: CIL module
 0001:00070b12       ?dtor$17@?0??CompileVariableAccess@asCCompiler@@IEAAHAEBVasCString@@0PEAUasSExprContext@@PEAVasCScriptNode@@_N33PEAVasCObjectType@@@Z@4HA 0000000180071b12 f    CIL library: CIL module
 0001:00070b32       ?dtor$18@?0??CompileVariableAccess@asCCompiler@@IEAAHAEBVasCString@@0PEAUasSExprContext@@PEAVasCScriptNode@@_N33PEAVasCObjectType@@@Z@4HA 0000000180071b32 f    CIL library: CIL module
 0001:00070b52       ?dtor$19@?0??CompileVariableAccess@asCCompiler@@IEAAHAEBVasCString@@0PEAUasSExprContext@@PEAVasCScriptNode@@_N33PEAVasCObjectType@@@Z@4HA 0000000180071b52 f    CIL library: CIL module
 0001:00070b6a       ?dtor$0@?0??ImplicitConversionConstant@asCCompiler@@IEAAXPEAUasSExprContext@@AEBVasCDataType@@PEAVasCScriptNode@@W4EImplicitConv@@@Z@4HA 0000000180071b6a f    CIL library: CIL module
 0001:00070b8a       ?dtor$1@?0??ImplicitConversionConstant@asCCompiler@@IEAAXPEAUasSExprContext@@AEBVasCDataType@@PEAVasCScriptNode@@W4EImplicitConv@@@Z@4HA 0000000180071b8a f    CIL library: CIL module
 0001:00070baa       ?dtor$2@?0??ImplicitConversionConstant@asCCompiler@@IEAAXPEAUasSExprContext@@AEBVasCDataType@@PEAVasCScriptNode@@W4EImplicitConv@@@Z@4HA 0000000180071baa f    CIL library: CIL module
 0001:00070bca       ?dtor$3@?0??ImplicitConversionConstant@asCCompiler@@IEAAXPEAUasSExprContext@@AEBVasCDataType@@PEAVasCScriptNode@@W4EImplicitConv@@@Z@4HA 0000000180071bca f    CIL library: CIL module
 0001:00070bea       ?dtor$4@?0??ImplicitConversionConstant@asCCompiler@@IEAAXPEAUasSExprContext@@AEBVasCDataType@@PEAVasCScriptNode@@W4EImplicitConv@@@Z@4HA 0000000180071bea f    CIL library: CIL module
 0001:00070c0a       ?dtor$5@?0??ImplicitConversionConstant@asCCompiler@@IEAAXPEAUasSExprContext@@AEBVasCDataType@@PEAVasCScriptNode@@W4EImplicitConv@@@Z@4HA 0000000180071c0a f    CIL library: CIL module
 0001:00070c2a       ?dtor$6@?0??ImplicitConversionConstant@asCCompiler@@IEAAXPEAUasSExprContext@@AEBVasCDataType@@PEAVasCScriptNode@@W4EImplicitConv@@@Z@4HA 0000000180071c2a f    CIL library: CIL module
 0001:00070c4a       ?dtor$7@?0??ImplicitConversionConstant@asCCompiler@@IEAAXPEAUasSExprContext@@AEBVasCDataType@@PEAVasCScriptNode@@W4EImplicitConv@@@Z@4HA 0000000180071c4a f    CIL library: CIL module
 0001:00070c6a       ?dtor$8@?0??ImplicitConversionConstant@asCCompiler@@IEAAXPEAUasSExprContext@@AEBVasCDataType@@PEAVasCScriptNode@@W4EImplicitConv@@@Z@4HA 0000000180071c6a f    CIL library: CIL module
 0001:00070c8a       ?dtor$9@?0??ImplicitConversionConstant@asCCompiler@@IEAAXPEAUasSExprContext@@AEBVasCDataType@@PEAVasCScriptNode@@W4EImplicitConv@@@Z@4HA 0000000180071c8a f    CIL library: CIL module
 0001:00070caa       ?dtor$10@?0??ImplicitConversionConstant@asCCompiler@@IEAAXPEAUasSExprContext@@AEBVasCDataType@@PEAVasCScriptNode@@W4EImplicitConv@@@Z@4HA 0000000180071caa f    CIL library: CIL module
 0001:00070cca       ?dtor$11@?0??ImplicitConversionConstant@asCCompiler@@IEAAXPEAUasSExprContext@@AEBVasCDataType@@PEAVasCScriptNode@@W4EImplicitConv@@@Z@4HA 0000000180071cca f    CIL library: CIL module
 0001:00070cea       ?dtor$12@?0??ImplicitConversionConstant@asCCompiler@@IEAAXPEAUasSExprContext@@AEBVasCDataType@@PEAVasCScriptNode@@W4EImplicitConv@@@Z@4HA 0000000180071cea f    CIL library: CIL module
 0001:00070d0a       ?dtor$13@?0??ImplicitConversionConstant@asCCompiler@@IEAAXPEAUasSExprContext@@AEBVasCDataType@@PEAVasCScriptNode@@W4EImplicitConv@@@Z@4HA 0000000180071d0a f    CIL library: CIL module
 0001:00070d2a       ?dtor$14@?0??ImplicitConversionConstant@asCCompiler@@IEAAXPEAUasSExprContext@@AEBVasCDataType@@PEAVasCScriptNode@@W4EImplicitConv@@@Z@4HA 0000000180071d2a f    CIL library: CIL module
 0001:00070d4a       ?dtor$15@?0??ImplicitConversionConstant@asCCompiler@@IEAAXPEAUasSExprContext@@AEBVasCDataType@@PEAVasCScriptNode@@W4EImplicitConv@@@Z@4HA 0000000180071d4a f    CIL library: CIL module
 0001:00070d6a       ?dtor$16@?0??ImplicitConversionConstant@asCCompiler@@IEAAXPEAUasSExprContext@@AEBVasCDataType@@PEAVasCScriptNode@@W4EImplicitConv@@@Z@4HA 0000000180071d6a f    CIL library: CIL module
 0001:00070d8a       ?dtor$17@?0??ImplicitConversionConstant@asCCompiler@@IEAAXPEAUasSExprContext@@AEBVasCDataType@@PEAVasCScriptNode@@W4EImplicitConv@@@Z@4HA 0000000180071d8a f    CIL library: CIL module
 0001:00070daa       ?dtor$18@?0??ImplicitConversionConstant@asCCompiler@@IEAAXPEAUasSExprContext@@AEBVasCDataType@@PEAVasCScriptNode@@W4EImplicitConv@@@Z@4HA 0000000180071daa f    CIL library: CIL module
 0001:00070dca       ?dtor$19@?0??ImplicitConversionConstant@asCCompiler@@IEAAXPEAUasSExprContext@@AEBVasCDataType@@PEAVasCScriptNode@@W4EImplicitConv@@@Z@4HA 0000000180071dca f    CIL library: CIL module
 0001:00070dea       ?dtor$20@?0??ImplicitConversionConstant@asCCompiler@@IEAAXPEAUasSExprContext@@AEBVasCDataType@@PEAVasCScriptNode@@W4EImplicitConv@@@Z@4HA 0000000180071dea f    CIL library: CIL module
 0001:00070e0a       ?dtor$21@?0??ImplicitConversionConstant@asCCompiler@@IEAAXPEAUasSExprContext@@AEBVasCDataType@@PEAVasCScriptNode@@W4EImplicitConv@@@Z@4HA 0000000180071e0a f    CIL library: CIL module
 0001:00070e2a       ?dtor$22@?0??ImplicitConversionConstant@asCCompiler@@IEAAXPEAUasSExprContext@@AEBVasCDataType@@PEAVasCScriptNode@@W4EImplicitConv@@@Z@4HA 0000000180071e2a f    CIL library: CIL module
 0001:00070e4a       ?dtor$23@?0??ImplicitConversionConstant@asCCompiler@@IEAAXPEAUasSExprContext@@AEBVasCDataType@@PEAVasCScriptNode@@W4EImplicitConv@@@Z@4HA 0000000180071e4a f    CIL library: CIL module
 0001:00070e6a       ?dtor$24@?0??ImplicitConversionConstant@asCCompiler@@IEAAXPEAUasSExprContext@@AEBVasCDataType@@PEAVasCScriptNode@@W4EImplicitConv@@@Z@4HA 0000000180071e6a f    CIL library: CIL module
 0001:00070e8a       ?dtor$25@?0??ImplicitConversionConstant@asCCompiler@@IEAAXPEAUasSExprContext@@AEBVasCDataType@@PEAVasCScriptNode@@W4EImplicitConv@@@Z@4HA 0000000180071e8a f    CIL library: CIL module
 0001:00070ea2       ?dtor$0@?0??PerformAssignment@asCCompiler@@IEAAHPEAUasCTypeInfo@@0PEAVasCByteCode@@PEAVasCScriptNode@@@Z@4HA 0000000180071ea2 f    CIL library: CIL module
 0001:00070ec2       ?dtor$1@?0??PerformAssignment@asCCompiler@@IEAAHPEAUasCTypeInfo@@0PEAVasCByteCode@@PEAVasCScriptNode@@@Z@4HA 0000000180071ec2 f    CIL library: CIL module
 0001:00070ee2       ?dtor$2@?0??PerformAssignment@asCCompiler@@IEAAHPEAUasCTypeInfo@@0PEAVasCByteCode@@PEAVasCScriptNode@@@Z@4HA 0000000180071ee2 f    CIL library: CIL module
 0001:00070f02       ?dtor$3@?0??PerformAssignment@asCCompiler@@IEAAHPEAUasCTypeInfo@@0PEAVasCByteCode@@PEAVasCScriptNode@@@Z@4HA 0000000180071f02 f    CIL library: CIL module
 0001:00070f22       ?dtor$4@?0??PerformAssignment@asCCompiler@@IEAAHPEAUasCTypeInfo@@0PEAVasCByteCode@@PEAVasCScriptNode@@@Z@4HA 0000000180071f22 f    CIL library: CIL module
 0001:00070f42       ?dtor$5@?0??PerformAssignment@asCCompiler@@IEAAHPEAUasCTypeInfo@@0PEAVasCByteCode@@PEAVasCScriptNode@@@Z@4HA 0000000180071f42 f    CIL library: CIL module
 0001:00070f5a       ?dtor$0@?0??CompileInterfaces@asCBuilder@@IEAAXXZ@4HA 0000000180071f5a f    CIL library: CIL module
 0001:00070f7a       ?dtor$1@?0??CompileInterfaces@asCBuilder@@IEAAXXZ@4HA 0000000180071f7a f    CIL library: CIL module
 0001:00070f9a       ?dtor$2@?0??CompileInterfaces@asCBuilder@@IEAAXXZ@4HA 0000000180071f9a f    CIL library: CIL module
 0001:00070fba       ?dtor$3@?0??CompileInterfaces@asCBuilder@@IEAAXXZ@4HA 0000000180071fba f    CIL library: CIL module
 0001:00070fd2       ?dtor$0@?0??RegisterMixinClass@asCBuilder@@IEAAHPEAVasCScriptNode@@PEAVasCScriptCode@@PEAUasSNameSpace@@@Z@4HA 0000000180071fd2 f    CIL library: CIL module
 0001:00070ff2       ?dtor$1@?0??RegisterMixinClass@asCBuilder@@IEAAHPEAVasCScriptNode@@PEAVasCScriptCode@@PEAUasSNameSpace@@@Z@4HA 0000000180071ff2 f    CIL library: CIL module
 0001:00071012       ?dtor$2@?0??RegisterMixinClass@asCBuilder@@IEAAHPEAVasCScriptNode@@PEAVasCScriptCode@@PEAUasSNameSpace@@@Z@4HA 0000000180072012 f    CIL library: CIL module
 0001:0007102a       ?dtor$0@?0??Prepare@asCContext@@UEAAHPEAVasIScriptFunction@@@Z@4HA 000000018007202a f    CIL library: CIL module
 0001:0007102a       ?dtor$0@?0??CreateScriptObject@asCScriptEngine@@UEAAPEAXPEBVasIObjectType@@@Z@4HA 000000018007202a f    CIL library: CIL module
 0001:0007104a       ?dtor$1@?0??CreateScriptObject@asCScriptEngine@@UEAAPEAXPEBVasIObjectType@@@Z@4HA 000000018007204a f    CIL library: CIL module
 0001:0007104a       ?dtor$1@?0??Prepare@asCContext@@UEAAHPEAVasIScriptFunction@@@Z@4HA 000000018007204a f    CIL library: CIL module
 0001:00071062       ?dtor$0@?0??ParseVirtualPropertyDecl@asCParser@@IEAAPEAVasCScriptNode@@_N0@Z@4HA 0000000180072062 f    CIL library: CIL module
 0001:00071082       ?dtor$1@?0??ParseVirtualPropertyDecl@asCParser@@IEAAPEAVasCScriptNode@@_N0@Z@4HA 0000000180072082 f    CIL library: CIL module
 0001:000710a2       ?dtor$2@?0??ParseVirtualPropertyDecl@asCParser@@IEAAPEAVasCScriptNode@@_N0@Z@4HA 00000001800720a2 f    CIL library: CIL module
 0001:000710c2       ?dtor$3@?0??ParseVirtualPropertyDecl@asCParser@@IEAAPEAVasCScriptNode@@_N0@Z@4HA 00000001800720c2 f    CIL library: CIL module
 0001:000710da       ?dtor$0@?0??ParseListPattern@asCParser@@IEAAPEAVasCScriptNode@@XZ@4HA 00000001800720da f    CIL library: CIL module
 0001:000710fa       ?dtor$1@?0??ParseListPattern@asCParser@@IEAAPEAVasCScriptNode@@XZ@4HA 00000001800720fa f    CIL library: CIL module
 0001:0007111a       ?dtor$2@?0??ParseListPattern@asCParser@@IEAAPEAVasCScriptNode@@XZ@4HA 000000018007211a f    CIL library: CIL module
 0001:0007113a       ?dtor$3@?0??ParseListPattern@asCParser@@IEAAPEAVasCScriptNode@@XZ@4HA 000000018007213a f    CIL library: CIL module
 0001:0007115a       ?dtor$4@?0??ParseListPattern@asCParser@@IEAAPEAVasCScriptNode@@XZ@4HA 000000018007215a f    CIL library: CIL module
 0001:0007117a       ?dtor$5@?0??ParseListPattern@asCParser@@IEAAPEAVasCScriptNode@@XZ@4HA 000000018007217a f    CIL library: CIL module
 0001:0007119a       ?dtor$6@?0??ParseListPattern@asCParser@@IEAAPEAVasCScriptNode@@XZ@4HA 000000018007219a f    CIL library: CIL module
 0001:000711ba       ?dtor$7@?0??ParseListPattern@asCParser@@IEAAPEAVasCScriptNode@@XZ@4HA 00000001800721ba f    CIL library: CIL module
 0001:000711da       ?dtor$8@?0??ParseListPattern@asCParser@@IEAAPEAVasCScriptNode@@XZ@4HA 00000001800721da f    CIL library: CIL module
 0001:000711fa       ?dtor$9@?0??ParseListPattern@asCParser@@IEAAPEAVasCScriptNode@@XZ@4HA 00000001800721fa f    CIL library: CIL module
 0001:0007121a       ?dtor$10@?0??ParseListPattern@asCParser@@IEAAPEAVasCScriptNode@@XZ@4HA 000000018007221a f    CIL library: CIL module
 0001:00071232       ?dtor$0@?0??PrepareForAssignment@asCCompiler@@IEAAXPEAVasCDataType@@PEAUasSExprContext@@PEAVasCScriptNode@@_N1@Z@4HA 0000000180072232 f    CIL library: CIL module
 0001:00071252       ?dtor$1@?0??PrepareForAssignment@asCCompiler@@IEAAXPEAVasCDataType@@PEAUasSExprContext@@PEAVasCScriptNode@@_N1@Z@4HA 0000000180072252 f    CIL library: CIL module
 0001:00071272       ?dtor$2@?0??PrepareForAssignment@asCCompiler@@IEAAXPEAVasCDataType@@PEAUasSExprContext@@PEAVasCScriptNode@@_N1@Z@4HA 0000000180072272 f    CIL library: CIL module
 0001:00071292       ?dtor$3@?0??PrepareForAssignment@asCCompiler@@IEAAXPEAVasCDataType@@PEAUasSExprContext@@PEAVasCScriptNode@@_N1@Z@4HA 0000000180072292 f    CIL library: CIL module
 0001:000712b2       ?dtor$4@?0??PrepareForAssignment@asCCompiler@@IEAAXPEAVasCDataType@@PEAUasSExprContext@@PEAVasCScriptNode@@_N1@Z@4HA 00000001800722b2 f    CIL library: CIL module
 0001:000712d2       ?dtor$5@?0??PrepareForAssignment@asCCompiler@@IEAAXPEAVasCDataType@@PEAUasSExprContext@@PEAVasCScriptNode@@_N1@Z@4HA 00000001800722d2 f    CIL library: CIL module
 0001:000712ed       ?dtor$0@?0??PrepareTemporaryObject@asCCompiler@@IEAAXPEAVasCScriptNode@@PEAUasSExprContext@@_N@Z@4HA 00000001800722ed f    CIL library: CIL module
 0001:0007130d       ?dtor$1@?0??PrepareTemporaryObject@asCCompiler@@IEAAXPEAVasCScriptNode@@PEAUasSExprContext@@_N@Z@4HA 000000018007230d f    CIL library: CIL module
 0001:00071325       ?dtor$0@?0??PrepareArgument@asCCompiler@@IEAAXPEAVasCDataType@@PEAUasSExprContext@@PEAVasCScriptNode@@_NH3@Z@4HA 0000000180072325 f    CIL library: CIL module
 0001:00071345       ?dtor$1@?0??PrepareArgument@asCCompiler@@IEAAXPEAVasCDataType@@PEAUasSExprContext@@PEAVasCScriptNode@@_NH3@Z@4HA 0000000180072345 f    CIL library: CIL module
 0001:00071365       ?dtor$2@?0??PrepareArgument@asCCompiler@@IEAAXPEAVasCDataType@@PEAUasSExprContext@@PEAVasCScriptNode@@_NH3@Z@4HA 0000000180072365 f    CIL library: CIL module
 0001:00071385       ?dtor$3@?0??PrepareArgument@asCCompiler@@IEAAXPEAVasCDataType@@PEAUasSExprContext@@PEAVasCScriptNode@@_NH3@Z@4HA 0000000180072385 f    CIL library: CIL module
 0001:000713a5       ?dtor$4@?0??PrepareArgument@asCCompiler@@IEAAXPEAVasCDataType@@PEAUasSExprContext@@PEAVasCScriptNode@@_NH3@Z@4HA 00000001800723a5 f    CIL library: CIL module
 0001:000713c5       ?dtor$5@?0??PrepareArgument@asCCompiler@@IEAAXPEAVasCDataType@@PEAUasSExprContext@@PEAVasCScriptNode@@_NH3@Z@4HA 00000001800723c5 f    CIL library: CIL module
 0001:000713e5       ?dtor$6@?0??PrepareArgument@asCCompiler@@IEAAXPEAVasCDataType@@PEAUasSExprContext@@PEAVasCScriptNode@@_NH3@Z@4HA 00000001800723e5 f    CIL library: CIL module
 0001:00071405       ?dtor$7@?0??PrepareArgument@asCCompiler@@IEAAXPEAVasCDataType@@PEAUasSExprContext@@PEAVasCScriptNode@@_NH3@Z@4HA 0000000180072405 f    CIL library: CIL module
 0001:00071425       ?dtor$8@?0??PrepareArgument@asCCompiler@@IEAAXPEAVasCDataType@@PEAUasSExprContext@@PEAVasCScriptNode@@_NH3@Z@4HA 0000000180072425 f    CIL library: CIL module
 0001:00071445       ?dtor$9@?0??PrepareArgument@asCCompiler@@IEAAXPEAVasCDataType@@PEAUasSExprContext@@PEAVasCScriptNode@@_NH3@Z@4HA 0000000180072445 f    CIL library: CIL module
 0001:00071465       ?dtor$10@?0??PrepareArgument@asCCompiler@@IEAAXPEAVasCDataType@@PEAUasSExprContext@@PEAVasCScriptNode@@_NH3@Z@4HA 0000000180072465 f    CIL library: CIL module
 0001:00071485       ?dtor$11@?0??PrepareArgument@asCCompiler@@IEAAXPEAVasCDataType@@PEAUasSExprContext@@PEAVasCScriptNode@@_NH3@Z@4HA 0000000180072485 f    CIL library: CIL module
 0001:000714a5       ?dtor$12@?0??PrepareArgument@asCCompiler@@IEAAXPEAVasCDataType@@PEAUasSExprContext@@PEAVasCScriptNode@@_NH3@Z@4HA 00000001800724a5 f    CIL library: CIL module
 0001:000714c0       ?dtor$0@?0???0asCScriptFunction@@QEAA@PEAVasCScriptEngine@@PEAVasCModule@@W4asEFuncType@@@Z@4HA 00000001800724c0 f    CIL library: CIL module
 0001:000714c0       ?dtor$0@?0???1asCScriptFunction@@UEAA@XZ@4HA 00000001800724c0 f    CIL library: CIL module
 0001:000714e0       ?dtor$1@?0???1asCScriptFunction@@UEAA@XZ@4HA 00000001800724e0 f    CIL library: CIL module
 0001:000714e0       ?dtor$1@?0???0asCScriptFunction@@QEAA@PEAVasCScriptEngine@@PEAVasCModule@@W4asEFuncType@@@Z@4HA 00000001800724e0 f    CIL library: CIL module
 0001:00071500       ?dtor$2@?0???1asCScriptFunction@@UEAA@XZ@4HA 0000000180072500 f    CIL library: CIL module
 0001:00071500       ?dtor$2@?0???0asCScriptFunction@@QEAA@PEAVasCScriptEngine@@PEAVasCModule@@W4asEFuncType@@@Z@4HA 0000000180072500 f    CIL library: CIL module
 0001:00071520       ?dtor$3@?0???1asCScriptFunction@@UEAA@XZ@4HA 0000000180072520 f    CIL library: CIL module
 0001:00071520       ?dtor$3@?0???0asCScriptFunction@@QEAA@PEAVasCScriptEngine@@PEAVasCModule@@W4asEFuncType@@@Z@4HA 0000000180072520 f    CIL library: CIL module
 0001:00071540       ?dtor$4@?0???1asCScriptFunction@@UEAA@XZ@4HA 0000000180072540 f    CIL library: CIL module
 0001:00071540       ?dtor$4@?0???0asCScriptFunction@@QEAA@PEAVasCScriptEngine@@PEAVasCModule@@W4asEFuncType@@@Z@4HA 0000000180072540 f    CIL library: CIL module
 0001:0007155f       ?dtor$0@?0??CreateDelegate@@YAPEAVasCScriptFunction@@PEAV1@PEAX@Z@4HA 000000018007255f f    CIL library: CIL module
 0001:0007157b       ?dtor$0@?0??CreateUninitializedScriptObject@asCScriptEngine@@UEAAPEAXPEBVasIObjectType@@@Z@4HA 000000018007257b f    CIL library: CIL module
 0001:0007157b       ?dtor$0@?0??ScriptObject_Construct@@YAXPEAVasCObjectType@@PEAVasCScriptObject@@@Z@4HA 000000018007257b f    CIL library: CIL module
 0001:00071597       ?dtor$0@?0??GenerateNewTemplateFunction@asCScriptEngine@@QEAA_NPEAVasCObjectType@@0PEAVasCScriptFunction@@PEAPEAV3@@Z@4HA 0000000180072597 f    CIL library: CIL module
 0001:000715b7       ?dtor$1@?0??GenerateNewTemplateFunction@asCScriptEngine@@QEAA_NPEAVasCObjectType@@0PEAVasCScriptFunction@@PEAPEAV3@@Z@4HA 00000001800725b7 f    CIL library: CIL module
 0001:000715d7       ?dtor$2@?0??GenerateNewTemplateFunction@asCScriptEngine@@QEAA_NPEAVasCObjectType@@0PEAVasCScriptFunction@@PEAPEAV3@@Z@4HA 00000001800725d7 f    CIL library: CIL module
 0001:000715f3       ?dtor$0@?0??GenerateTemplateFactoryStub@asCScriptEngine@@QEAAPEAVasCScriptFunction@@PEAVasCObjectType@@0H@Z@4HA 00000001800725f3 f    CIL library: CIL module
 0001:00071612       ?dtor$0@?0??AddBehaviourFunction@asCScriptEngine@@QEAAHAEAVasCScriptFunction@@AEAUasSSystemFunctionInterface@@@Z@4HA 0000000180072612 f    CIL library: CIL module
 0001:00071632       ?dtor$3@?0??AddBehaviourFunction@asCScriptEngine@@QEAAHAEAVasCScriptFunction@@AEAUasSSystemFunctionInterface@@@Z@4HA 0000000180072632 f    CIL library: CIL module
 0001:00071652       ?dtor$1@?0??AddBehaviourFunction@asCScriptEngine@@QEAAHAEAVasCScriptFunction@@AEAUasSSystemFunctionInterface@@@Z@4HA 0000000180072652 f    CIL library: CIL module
 0001:00071672       ?dtor$2@?0??AddBehaviourFunction@asCScriptEngine@@QEAAHAEAVasCScriptFunction@@AEAUasSSystemFunctionInterface@@@Z@4HA 0000000180072672 f    CIL library: CIL module
 0001:00071691       ?dtor$0@?0???1asCScriptEngine@@UEAA@XZ@4HA 0000000180072691 f    CIL library: CIL module
 0001:000716b1       ?dtor$1@?0???1asCScriptEngine@@UEAA@XZ@4HA 00000001800726b1 f    CIL library: CIL module
 0001:000716d1       ?dtor$2@?0???1asCScriptEngine@@UEAA@XZ@4HA 00000001800726d1 f    CIL library: CIL module
 0001:00071701       ?dtor$3@?0???1asCScriptEngine@@UEAA@XZ@4HA 0000000180072701 f    CIL library: CIL module
 0001:00071731       ?dtor$4@?0???1asCScriptEngine@@UEAA@XZ@4HA 0000000180072731 f    CIL library: CIL module
 0001:00071761       ?dtor$5@?0???1asCScriptEngine@@UEAA@XZ@4HA 0000000180072761 f    CIL library: CIL module
 0001:00071791       ?dtor$6@?0???1asCScriptEngine@@UEAA@XZ@4HA 0000000180072791 f    CIL library: CIL module
 0001:000717c1       ?dtor$7@?0???1asCScriptEngine@@UEAA@XZ@4HA 00000001800727c1 f    CIL library: CIL module
 0001:000717f1       ?dtor$8@?0???1asCScriptEngine@@UEAA@XZ@4HA 00000001800727f1 f    CIL library: CIL module
 0001:00071821       ?dtor$9@?0???1asCScriptEngine@@UEAA@XZ@4HA 0000000180072821 f    CIL library: CIL module
 0001:00071851       ?dtor$10@?0???1asCScriptEngine@@UEAA@XZ@4HA 0000000180072851 f    CIL library: CIL module
 0001:00071881       ?dtor$11@?0???1asCScriptEngine@@UEAA@XZ@4HA 0000000180072881 f    CIL library: CIL module
 0001:000718b1       ?dtor$12@?0???1asCScriptEngine@@UEAA@XZ@4HA 00000001800728b1 f    CIL library: CIL module
 0001:000718e1       ?dtor$13@?0???1asCScriptEngine@@UEAA@XZ@4HA 00000001800728e1 f    CIL library: CIL module
 0001:00071911       ?dtor$14@?0???1asCScriptEngine@@UEAA@XZ@4HA 0000000180072911 f    CIL library: CIL module
 0001:00071941       ?dtor$15@?0???1asCScriptEngine@@UEAA@XZ@4HA 0000000180072941 f    CIL library: CIL module
 0001:00071971       ?dtor$16@?0???1asCScriptEngine@@UEAA@XZ@4HA 0000000180072971 f    CIL library: CIL module
 0001:000719a1       ?dtor$17@?0???1asCScriptEngine@@UEAA@XZ@4HA 00000001800729a1 f    CIL library: CIL module
 0001:000719d1       ?dtor$18@?0???1asCScriptEngine@@UEAA@XZ@4HA 00000001800729d1 f    CIL library: CIL module
 0001:00071a01       ?dtor$19@?0???1asCScriptEngine@@UEAA@XZ@4HA 0000000180072a01 f    CIL library: CIL module
 0001:00071a31       ?dtor$20@?0???1asCScriptEngine@@UEAA@XZ@4HA 0000000180072a31 f    CIL library: CIL module
 0001:00071a61       ?dtor$21@?0???1asCScriptEngine@@UEAA@XZ@4HA 0000000180072a61 f    CIL library: CIL module
 0001:00071a91       ?dtor$22@?0???1asCScriptEngine@@UEAA@XZ@4HA 0000000180072a91 f    CIL library: CIL module
 0001:00071ac1       ?dtor$23@?0???1asCScriptEngine@@UEAA@XZ@4HA 0000000180072ac1 f    CIL library: CIL module
 0001:00071af1       ?dtor$24@?0???1asCScriptEngine@@UEAA@XZ@4HA 0000000180072af1 f    CIL library: CIL module
 0001:00071b21       ?dtor$25@?0???1asCScriptEngine@@UEAA@XZ@4HA 0000000180072b21 f    CIL library: CIL module
 0001:00071b51       ?dtor$26@?0???1asCScriptEngine@@UEAA@XZ@4HA 0000000180072b51 f    CIL library: CIL module
 0001:00071b81       ?dtor$27@?0???1asCScriptEngine@@UEAA@XZ@4HA 0000000180072b81 f    CIL library: CIL module
 0001:00071bb1       ?dtor$28@?0???1asCScriptEngine@@UEAA@XZ@4HA 0000000180072bb1 f    CIL library: CIL module
 0001:00071be1       ?dtor$29@?0???1asCScriptEngine@@UEAA@XZ@4HA 0000000180072be1 f    CIL library: CIL module
 0001:00071c11       ?dtor$30@?0???1asCScriptEngine@@UEAA@XZ@4HA 0000000180072c11 f    CIL library: CIL module
 0001:00071c41       ?dtor$31@?0???1asCScriptEngine@@UEAA@XZ@4HA 0000000180072c41 f    CIL library: CIL module
 0001:00071c71       ?dtor$32@?0???1asCScriptEngine@@UEAA@XZ@4HA 0000000180072c71 f    CIL library: CIL module
 0001:00071ca1       ?dtor$33@?0???1asCScriptEngine@@UEAA@XZ@4HA 0000000180072ca1 f    CIL library: CIL module
 0001:00071cd1       ?dtor$34@?0???1asCScriptEngine@@UEAA@XZ@4HA 0000000180072cd1 f    CIL library: CIL module
 0001:00071d01       ?dtor$35@?0???1asCScriptEngine@@UEAA@XZ@4HA 0000000180072d01 f    CIL library: CIL module
 0001:00071d31       ?dtor$36@?0???1asCScriptEngine@@UEAA@XZ@4HA 0000000180072d31 f    CIL library: CIL module
 0001:00071d61       ?dtor$37@?0???1asCScriptEngine@@UEAA@XZ@4HA 0000000180072d61 f    CIL library: CIL module
 0001:00071d91       ?dtor$38@?0???1asCScriptEngine@@UEAA@XZ@4HA 0000000180072d91 f    CIL library: CIL module
 0001:00071dc1       ?dtor$39@?0???1asCScriptEngine@@UEAA@XZ@4HA 0000000180072dc1 f    CIL library: CIL module
 0001:00071df1       ?dtor$40@?0???1asCScriptEngine@@UEAA@XZ@4HA 0000000180072df1 f    CIL library: CIL module
 0001:00071e21       ?dtor$41@?0???1asCScriptEngine@@UEAA@XZ@4HA 0000000180072e21 f    CIL library: CIL module
 0001:00071e51       ?dtor$44@?0???1asCScriptEngine@@UEAA@XZ@4HA 0000000180072e51 f    CIL library: CIL module
 0001:00071e6c       ?dtor$0@?0??ReadDataType@asCReader@@IEAAXPEAVasCDataType@@@Z@4HA 0000000180072e6c f    CIL library: CIL module
 0001:00071e84       ?dtor$0@?0??ReadUsedFunctions@asCReader@@IEAAXXZ@4HA 0000000180072e84 f    CIL library: CIL module
 0001:00071e9c       ?dtor$0@?0??ParseCase@asCParser@@IEAAPEAVasCScriptNode@@XZ@4HA 0000000180072e9c f    CIL library: CIL module
 0001:00071e9c       ?dtor$0@?0??ParseFuncDef@asCParser@@IEAAPEAVasCScriptNode@@XZ@4HA 0000000180072e9c f    CIL library: CIL module
 0001:00071e9c       ?dtor$0@?0??ParseArgList@asCParser@@IEAAPEAVasCScriptNode@@XZ@4HA 0000000180072e9c f    CIL library: CIL module
 0001:00071e9c       ?dtor$0@?0??ParseVarInit@asCParser@@QEAAHPEAVasCScriptCode@@PEAVasCScriptNode@@@Z@4HA 0000000180072e9c f    CIL library: CIL module
 0001:00071e9c       ?dtor$0@?0??ParseDataType@asCParser@@IEAAPEAVasCScriptNode@@_N@Z@4HA 0000000180072e9c f    CIL library: CIL module
 0001:00071e9c       ?dtor$0@?0??ParseContinue@asCParser@@IEAAPEAVasCScriptNode@@XZ@4HA 0000000180072e9c f    CIL library: CIL module
 0001:00071e9c       ?dtor$0@?0??ParseParameterList@asCParser@@IEAAPEAVasCScriptNode@@XZ@4HA 0000000180072e9c f    CIL library: CIL module
 0001:00071e9c       ?dtor$0@?0??ParseBreak@asCParser@@IEAAPEAVasCScriptNode@@XZ@4HA 0000000180072e9c f    CIL library: CIL module
 0001:00071e9c       ?dtor$0@?0??ParseExprValue@asCParser@@IEAAPEAVasCScriptNode@@XZ@4HA 0000000180072e9c f    CIL library: CIL module
 0001:00071e9c       ?dtor$0@?0??ParseReturn@asCParser@@IEAAPEAVasCScriptNode@@XZ@4HA 0000000180072e9c f    CIL library: CIL module
 0001:00071e9c       ?dtor$0@?0??ParseExprPostOp@asCParser@@IEAAPEAVasCScriptNode@@XZ@4HA 0000000180072e9c f    CIL library: CIL module
 0001:00071ebc       ?dtor$1@?0??ParseDataType@asCParser@@IEAAPEAVasCScriptNode@@_N@Z@4HA 0000000180072ebc f    CIL library: CIL module
 0001:00071ebc       ?dtor$1@?0??ParseFuncDef@asCParser@@IEAAPEAVasCScriptNode@@XZ@4HA 0000000180072ebc f    CIL library: CIL module
 0001:00071ebc       ?dtor$1@?0??ParseCase@asCParser@@IEAAPEAVasCScriptNode@@XZ@4HA 0000000180072ebc f    CIL library: CIL module
 0001:00071ebc       ?dtor$1@?0??ParseExprPostOp@asCParser@@IEAAPEAVasCScriptNode@@XZ@4HA 0000000180072ebc f    CIL library: CIL module
 0001:00071ebc       ?dtor$1@?0??ParseContinue@asCParser@@IEAAPEAVasCScriptNode@@XZ@4HA 0000000180072ebc f    CIL library: CIL module
 0001:00071ebc       ?dtor$1@?0??ParseParameterList@asCParser@@IEAAPEAVasCScriptNode@@XZ@4HA 0000000180072ebc f    CIL library: CIL module
 0001:00071ebc       ?dtor$1@?0??ParseReturn@asCParser@@IEAAPEAVasCScriptNode@@XZ@4HA 0000000180072ebc f    CIL library: CIL module
 0001:00071ebc       ?dtor$1@?0??ParseVarInit@asCParser@@QEAAHPEAVasCScriptCode@@PEAVasCScriptNode@@@Z@4HA 0000000180072ebc f    CIL library: CIL module
 0001:00071ebc       ?dtor$1@?0??ParseArgList@asCParser@@IEAAPEAVasCScriptNode@@XZ@4HA 0000000180072ebc f    CIL library: CIL module
 0001:00071ebc       ?dtor$1@?0??ParseBreak@asCParser@@IEAAPEAVasCScriptNode@@XZ@4HA 0000000180072ebc f    CIL library: CIL module
 0001:00071ebc       ?dtor$1@?0??ParseExprValue@asCParser@@IEAAPEAVasCScriptNode@@XZ@4HA 0000000180072ebc f    CIL library: CIL module
 0001:00071ed4       ?dtor$0@?0??ParseDoWhile@asCParser@@IEAAPEAVasCScriptNode@@XZ@4HA 0000000180072ed4 f    CIL library: CIL module
 0001:00071ed4       ?dtor$0@?0??ParseNamespace@asCParser@@IEAAPEAVasCScriptNode@@XZ@4HA 0000000180072ed4 f    CIL library: CIL module
 0001:00071ed4       ?dtor$0@?0??ParseImport@asCParser@@IEAAPEAVasCScriptNode@@XZ@4HA 0000000180072ed4 f    CIL library: CIL module
 0001:00071ed4       ?dtor$0@?0??ParseCast@asCParser@@IEAAPEAVasCScriptNode@@XZ@4HA 0000000180072ed4 f    CIL library: CIL module
 0001:00071ed4       ?dtor$0@?0??ParseEnumeration@asCParser@@IEAAPEAVasCScriptNode@@XZ@4HA 0000000180072ed4 f    CIL library: CIL module
 0001:00071ef4       ?dtor$1@?0??ParseImport@asCParser@@IEAAPEAVasCScriptNode@@XZ@4HA 0000000180072ef4 f    CIL library: CIL module
 0001:00071ef4       ?dtor$1@?0??ParseNamespace@asCParser@@IEAAPEAVasCScriptNode@@XZ@4HA 0000000180072ef4 f    CIL library: CIL module
 0001:00071ef4       ?dtor$1@?0??ParseDoWhile@asCParser@@IEAAPEAVasCScriptNode@@XZ@4HA 0000000180072ef4 f    CIL library: CIL module
 0001:00071ef4       ?dtor$1@?0??ParseCast@asCParser@@IEAAPEAVasCScriptNode@@XZ@4HA 0000000180072ef4 f    CIL library: CIL module
 0001:00071ef4       ?dtor$1@?0??ParseEnumeration@asCParser@@IEAAPEAVasCScriptNode@@XZ@4HA 0000000180072ef4 f    CIL library: CIL module
 0001:00071f14       ?dtor$2@?0??ParseNamespace@asCParser@@IEAAPEAVasCScriptNode@@XZ@4HA 0000000180072f14 f    CIL library: CIL module
 0001:00071f14       ?dtor$2@?0??ParseImport@asCParser@@IEAAPEAVasCScriptNode@@XZ@4HA 0000000180072f14 f    CIL library: CIL module
 0001:00071f14       ?dtor$2@?0??ParseCast@asCParser@@IEAAPEAVasCScriptNode@@XZ@4HA 0000000180072f14 f    CIL library: CIL module
 0001:00071f14       ?dtor$2@?0??ParseDoWhile@asCParser@@IEAAPEAVasCScriptNode@@XZ@4HA 0000000180072f14 f    CIL library: CIL module
 0001:00071f14       ?dtor$2@?0??ParseEnumeration@asCParser@@IEAAPEAVasCScriptNode@@XZ@4HA 0000000180072f14 f    CIL library: CIL module
 0001:00071f34       ?dtor$3@?0??ParseEnumeration@asCParser@@IEAAPEAVasCScriptNode@@XZ@4HA 0000000180072f34 f    CIL library: CIL module
 0001:00071f34       ?dtor$3@?0??ParseNamespace@asCParser@@IEAAPEAVasCScriptNode@@XZ@4HA 0000000180072f34 f    CIL library: CIL module
 0001:00071f34       ?dtor$3@?0??ParseImport@asCParser@@IEAAPEAVasCScriptNode@@XZ@4HA 0000000180072f34 f    CIL library: CIL module
 0001:00071f34       ?dtor$3@?0??ParseDoWhile@asCParser@@IEAAPEAVasCScriptNode@@XZ@4HA 0000000180072f34 f    CIL library: CIL module
 0001:00071f34       ?dtor$3@?0??ParseCast@asCParser@@IEAAPEAVasCScriptNode@@XZ@4HA 0000000180072f34 f    CIL library: CIL module
 0001:00071f54       ?dtor$4@?0??ParseEnumeration@asCParser@@IEAAPEAVasCScriptNode@@XZ@4HA 0000000180072f54 f    CIL library: CIL module
 0001:00071f54       ?dtor$4@?0??ParseDoWhile@asCParser@@IEAAPEAVasCScriptNode@@XZ@4HA 0000000180072f54 f    CIL library: CIL module
 0001:00071f54       ?dtor$4@?0??ParseNamespace@asCParser@@IEAAPEAVasCScriptNode@@XZ@4HA 0000000180072f54 f    CIL library: CIL module
 0001:00071f54       ?dtor$4@?0??ParseImport@asCParser@@IEAAPEAVasCScriptNode@@XZ@4HA 0000000180072f54 f    CIL library: CIL module
 0001:00071f54       ?dtor$4@?0??ParseCast@asCParser@@IEAAPEAVasCScriptNode@@XZ@4HA 0000000180072f54 f    CIL library: CIL module
 0001:00071f6c       ?dtor$0@?0??AddFuncDef@asCModule@@QEAAHAEBVasCString@@PEAUasSNameSpace@@@Z@4HA 0000000180072f6c f    CIL library: CIL module
 0001:00071f88       ?dtor$0@?0??SaveByteCode@asCModule@@UEBAHPEAVasIBinaryStream@@_N@Z@4HA 0000000180072f88 f    CIL library: CIL module
 0001:00071fa0       ?dtor$0@?0??AddScriptFunction@asCModule@@QEAAHHHHAEBVasCString@@AEBVasCDataType@@AEBV?$asCArray@VasCDataType@@@@AEBV?$asCArray@W4asETypeModifiers@@@@AEBV?$asCArray@PEAVasCString@@@@_NPEAVasCObjectType@@555555PEAUasSNameSpace@@@Z@4HA 0000000180072fa0 f    CIL library: CIL module
 0001:00071fa0       ?dtor$0@?0??AddImportedFunction@asCModule@@QEAAHHAEBVasCString@@AEBVasCDataType@@AEBV?$asCArray@VasCDataType@@@@AEBV?$asCArray@W4asETypeModifiers@@@@AEBV?$asCArray@PEAVasCString@@@@PEAUasSNameSpace@@0@Z@4HA 0000000180072fa0 f    CIL library: CIL module
 0001:00071fbc       ?dtor$0@?0??CreateDataTypeFromNode@asCBuilder@@IEAA?AVasCDataType@@PEAVasCScriptNode@@PEAVasCScriptCode@@PEAUasSNameSpace@@_NPEAVasCObjectType@@@Z@4HA 0000000180072fbc f    CIL library: CIL module
 0001:00071fdc       ?dtor$1@?0??CreateDataTypeFromNode@asCBuilder@@IEAA?AVasCDataType@@PEAVasCScriptNode@@PEAVasCScriptCode@@PEAUasSNameSpace@@_NPEAVasCObjectType@@@Z@4HA 0000000180072fdc f    CIL library: CIL module
 0001:00071ffc       ?dtor$2@?0??CreateDataTypeFromNode@asCBuilder@@IEAA?AVasCDataType@@PEAVasCScriptNode@@PEAVasCScriptCode@@PEAUasSNameSpace@@_NPEAVasCObjectType@@@Z@4HA 0000000180072ffc f    CIL library: CIL module
 0001:0007201c       ?dtor$3@?0??CreateDataTypeFromNode@asCBuilder@@IEAA?AVasCDataType@@PEAVasCScriptNode@@PEAVasCScriptCode@@PEAUasSNameSpace@@_NPEAVasCObjectType@@@Z@4HA 000000018007301c f    CIL library: CIL module
 0001:0007203c       ?dtor$4@?0??CreateDataTypeFromNode@asCBuilder@@IEAA?AVasCDataType@@PEAVasCScriptNode@@PEAVasCScriptCode@@PEAUasSNameSpace@@_NPEAVasCObjectType@@@Z@4HA 000000018007303c f    CIL library: CIL module
 0001:0007205c       ?dtor$5@?0??CreateDataTypeFromNode@asCBuilder@@IEAA?AVasCDataType@@PEAVasCScriptNode@@PEAVasCScriptCode@@PEAUasSNameSpace@@_NPEAVasCObjectType@@@Z@4HA 000000018007305c f    CIL library: CIL module
 0001:0007207c       ?dtor$6@?0??CreateDataTypeFromNode@asCBuilder@@IEAA?AVasCDataType@@PEAVasCScriptNode@@PEAVasCScriptCode@@PEAUasSNameSpace@@_NPEAVasCObjectType@@@Z@4HA 000000018007307c f    CIL library: CIL module
 0001:0007209c       ?dtor$7@?0??CreateDataTypeFromNode@asCBuilder@@IEAA?AVasCDataType@@PEAVasCScriptNode@@PEAVasCScriptCode@@PEAUasSNameSpace@@_NPEAVasCObjectType@@@Z@4HA 000000018007309c f    CIL library: CIL module
 0001:000720bc       ?dtor$8@?0??CreateDataTypeFromNode@asCBuilder@@IEAA?AVasCDataType@@PEAVasCScriptNode@@PEAVasCScriptCode@@PEAUasSNameSpace@@_NPEAVasCObjectType@@@Z@4HA 00000001800730bc f    CIL library: CIL module
 0001:000720dc       ?dtor$9@?0??CreateDataTypeFromNode@asCBuilder@@IEAA?AVasCDataType@@PEAVasCScriptNode@@PEAVasCScriptCode@@PEAUasSNameSpace@@_NPEAVasCObjectType@@@Z@4HA 00000001800730dc f    CIL library: CIL module
 0001:000720fc       ?dtor$13@?0??CreateDataTypeFromNode@asCBuilder@@IEAA?AVasCDataType@@PEAVasCScriptNode@@PEAVasCScriptCode@@PEAUasSNameSpace@@_NPEAVasCObjectType@@@Z@4HA 00000001800730fc f    CIL library: CIL module
 0001:0007211c       ?dtor$10@?0??CreateDataTypeFromNode@asCBuilder@@IEAA?AVasCDataType@@PEAVasCScriptNode@@PEAVasCScriptCode@@PEAUasSNameSpace@@_NPEAVasCObjectType@@@Z@4HA 000000018007311c f    CIL library: CIL module
 0001:0007213c       ?dtor$11@?0??CreateDataTypeFromNode@asCBuilder@@IEAA?AVasCDataType@@PEAVasCScriptNode@@PEAVasCScriptCode@@PEAUasSNameSpace@@_NPEAVasCObjectType@@@Z@4HA 000000018007313c f    CIL library: CIL module
 0001:0007215c       ?dtor$12@?0??CreateDataTypeFromNode@asCBuilder@@IEAA?AVasCDataType@@PEAVasCScriptNode@@PEAVasCScriptCode@@PEAUasSNameSpace@@_NPEAVasCObjectType@@@Z@4HA 000000018007315c f    CIL library: CIL module
 0001:00072174       ?dtor$0@?0??RegisterScriptFunction@asCBuilder@@IEAAHPEAVasCScriptNode@@PEAVasCScriptCode@@PEAVasCObjectType@@_N3PEAUasSNameSpace@@33AEAVasCString@@AEAVasCDataType@@AEAV?$asCArray@VasCString@@@@AEAV?$asCArray@VasCDataType@@@@AEAV?$asCArray@W4asETypeModifiers@@@@AEAV?$asCArray@PEAVasCString@@@@3333333@Z@4HA 0000000180073174 f    CIL library: CIL module
 0001:00072194       ?dtor$1@?0??RegisterScriptFunction@asCBuilder@@IEAAHPEAVasCScriptNode@@PEAVasCScriptCode@@PEAVasCObjectType@@_N3PEAUasSNameSpace@@33AEAVasCString@@AEAVasCDataType@@AEAV?$asCArray@VasCString@@@@AEAV?$asCArray@VasCDataType@@@@AEAV?$asCArray@W4asETypeModifiers@@@@AEAV?$asCArray@PEAVasCString@@@@3333333@Z@4HA 0000000180073194 f    CIL library: CIL module
 0001:000721b4       ?dtor$2@?0??RegisterScriptFunction@asCBuilder@@IEAAHPEAVasCScriptNode@@PEAVasCScriptCode@@PEAVasCObjectType@@_N3PEAUasSNameSpace@@33AEAVasCString@@AEAVasCDataType@@AEAV?$asCArray@VasCString@@@@AEAV?$asCArray@VasCDataType@@@@AEAV?$asCArray@W4asETypeModifiers@@@@AEAV?$asCArray@PEAVasCString@@@@3333333@Z@4HA 00000001800731b4 f    CIL library: CIL module
 0001:000721d4       ?dtor$3@?0??RegisterScriptFunction@asCBuilder@@IEAAHPEAVasCScriptNode@@PEAVasCScriptCode@@PEAVasCObjectType@@_N3PEAUasSNameSpace@@33AEAVasCString@@AEAVasCDataType@@AEAV?$asCArray@VasCString@@@@AEAV?$asCArray@VasCDataType@@@@AEAV?$asCArray@W4asETypeModifiers@@@@AEAV?$asCArray@PEAVasCString@@@@3333333@Z@4HA 00000001800731d4 f    CIL library: CIL module
 0001:000721f4       ?dtor$4@?0??RegisterScriptFunction@asCBuilder@@IEAAHPEAVasCScriptNode@@PEAVasCScriptCode@@PEAVasCObjectType@@_N3PEAUasSNameSpace@@33AEAVasCString@@AEAVasCDataType@@AEAV?$asCArray@VasCString@@@@AEAV?$asCArray@VasCDataType@@@@AEAV?$asCArray@W4asETypeModifiers@@@@AEAV?$asCArray@PEAVasCString@@@@3333333@Z@4HA 00000001800731f4 f    CIL library: CIL module
 0001:00072214       ?dtor$6@?0??RegisterScriptFunction@asCBuilder@@IEAAHPEAVasCScriptNode@@PEAVasCScriptCode@@PEAVasCObjectType@@_N3PEAUasSNameSpace@@33AEAVasCString@@AEAVasCDataType@@AEAV?$asCArray@VasCString@@@@AEAV?$asCArray@VasCDataType@@@@AEAV?$asCArray@W4asETypeModifiers@@@@AEAV?$asCArray@PEAVasCString@@@@3333333@Z@4HA 0000000180073214 f    CIL library: CIL module
 0001:00072234       ?dtor$7@?0??RegisterScriptFunction@asCBuilder@@IEAAHPEAVasCScriptNode@@PEAVasCScriptCode@@PEAVasCObjectType@@_N3PEAUasSNameSpace@@33AEAVasCString@@AEAVasCDataType@@AEAV?$asCArray@VasCString@@@@AEAV?$asCArray@VasCDataType@@@@AEAV?$asCArray@W4asETypeModifiers@@@@AEAV?$asCArray@PEAVasCString@@@@3333333@Z@4HA 0000000180073234 f    CIL library: CIL module
 0001:00072254       ?dtor$8@?0??RegisterScriptFunction@asCBuilder@@IEAAHPEAVasCScriptNode@@PEAVasCScriptCode@@PEAVasCObjectType@@_N3PEAUasSNameSpace@@33AEAVasCString@@AEAVasCDataType@@AEAV?$asCArray@VasCString@@@@AEAV?$asCArray@VasCDataType@@@@AEAV?$asCArray@W4asETypeModifiers@@@@AEAV?$asCArray@PEAVasCString@@@@3333333@Z@4HA 0000000180073254 f    CIL library: CIL module
 0001:00072274       ?dtor$9@?0??RegisterScriptFunction@asCBuilder@@IEAAHPEAVasCScriptNode@@PEAVasCScriptCode@@PEAVasCObjectType@@_N3PEAUasSNameSpace@@33AEAVasCString@@AEAVasCDataType@@AEAV?$asCArray@VasCString@@@@AEAV?$asCArray@VasCDataType@@@@AEAV?$asCArray@W4asETypeModifiers@@@@AEAV?$asCArray@PEAVasCString@@@@3333333@Z@4HA 0000000180073274 f    CIL library: CIL module
 0001:00072294       ?dtor$10@?0??RegisterScriptFunction@asCBuilder@@IEAAHPEAVasCScriptNode@@PEAVasCScriptCode@@PEAVasCObjectType@@_N3PEAUasSNameSpace@@33AEAVasCString@@AEAVasCDataType@@AEAV?$asCArray@VasCString@@@@AEAV?$asCArray@VasCDataType@@@@AEAV?$asCArray@W4asETypeModifiers@@@@AEAV?$asCArray@PEAVasCString@@@@3333333@Z@4HA 0000000180073294 f    CIL library: CIL module
 0001:000722b4       ?dtor$14@?0??RegisterScriptFunction@asCBuilder@@IEAAHPEAVasCScriptNode@@PEAVasCScriptCode@@PEAVasCObjectType@@_N3PEAUasSNameSpace@@33AEAVasCString@@AEAVasCDataType@@AEAV?$asCArray@VasCString@@@@AEAV?$asCArray@VasCDataType@@@@AEAV?$asCArray@W4asETypeModifiers@@@@AEAV?$asCArray@PEAVasCString@@@@3333333@Z@4HA 00000001800732b4 f    CIL library: CIL module
 0001:000722d4       ?dtor$11@?0??RegisterScriptFunction@asCBuilder@@IEAAHPEAVasCScriptNode@@PEAVasCScriptCode@@PEAVasCObjectType@@_N3PEAUasSNameSpace@@33AEAVasCString@@AEAVasCDataType@@AEAV?$asCArray@VasCString@@@@AEAV?$asCArray@VasCDataType@@@@AEAV?$asCArray@W4asETypeModifiers@@@@AEAV?$asCArray@PEAVasCString@@@@3333333@Z@4HA 00000001800732d4 f    CIL library: CIL module
 0001:000722f4       ?dtor$12@?0??RegisterScriptFunction@asCBuilder@@IEAAHPEAVasCScriptNode@@PEAVasCScriptCode@@PEAVasCObjectType@@_N3PEAUasSNameSpace@@33AEAVasCString@@AEAVasCDataType@@AEAV?$asCArray@VasCString@@@@AEAV?$asCArray@VasCDataType@@@@AEAV?$asCArray@W4asETypeModifiers@@@@AEAV?$asCArray@PEAVasCString@@@@3333333@Z@4HA 00000001800732f4 f    CIL library: CIL module
 0001:00072324       ?dtor$13@?0??RegisterScriptFunction@asCBuilder@@IEAAHPEAVasCScriptNode@@PEAVasCScriptCode@@PEAVasCObjectType@@_N3PEAUasSNameSpace@@33AEAVasCString@@AEAVasCDataType@@AEAV?$asCArray@VasCString@@@@AEAV?$asCArray@VasCDataType@@@@AEAV?$asCArray@W4asETypeModifiers@@@@AEAV?$asCArray@PEAVasCString@@@@3333333@Z@4HA 0000000180073324 f    CIL library: CIL module
 0001:0007233f       ?dtor$0@?0??GetParsedFunctionDetails@asCBuilder@@IEAAXPEAVasCScriptNode@@PEAVasCScriptCode@@PEAVasCObjectType@@AEAVasCString@@AEAVasCDataType@@AEAV?$asCArray@VasCString@@@@AEAV?$asCArray@VasCDataType@@@@AEAV?$asCArray@W4asETypeModifiers@@@@AEAV?$asCArray@PEAVasCString@@@@AEA_N999999PEAUasSNameSpace@@@Z@4HA 000000018007333f f    CIL library: CIL module
 0001:0007235f       ?dtor$1@?0??GetParsedFunctionDetails@asCBuilder@@IEAAXPEAVasCScriptNode@@PEAVasCScriptCode@@PEAVasCObjectType@@AEAVasCString@@AEAVasCDataType@@AEAV?$asCArray@VasCString@@@@AEAV?$asCArray@VasCDataType@@@@AEAV?$asCArray@W4asETypeModifiers@@@@AEAV?$asCArray@PEAVasCString@@@@AEA_N999999PEAUasSNameSpace@@@Z@4HA 000000018007335f f    CIL library: CIL module
 0001:0007237f       ?dtor$2@?0??GetParsedFunctionDetails@asCBuilder@@IEAAXPEAVasCScriptNode@@PEAVasCScriptCode@@PEAVasCObjectType@@AEAVasCString@@AEAVasCDataType@@AEAV?$asCArray@VasCString@@@@AEAV?$asCArray@VasCDataType@@@@AEAV?$asCArray@W4asETypeModifiers@@@@AEAV?$asCArray@PEAVasCString@@@@AEA_N999999PEAUasSNameSpace@@@Z@4HA 000000018007337f f    CIL library: CIL module
 0001:0007239f       ?dtor$3@?0??GetParsedFunctionDetails@asCBuilder@@IEAAXPEAVasCScriptNode@@PEAVasCScriptCode@@PEAVasCObjectType@@AEAVasCString@@AEAVasCDataType@@AEAV?$asCArray@VasCString@@@@AEAV?$asCArray@VasCDataType@@@@AEAV?$asCArray@W4asETypeModifiers@@@@AEAV?$asCArray@PEAVasCString@@@@AEA_N999999PEAUasSNameSpace@@@Z@4HA 000000018007339f f    CIL library: CIL module
 0001:000723bf       ?dtor$5@?0??GetParsedFunctionDetails@asCBuilder@@IEAAXPEAVasCScriptNode@@PEAVasCScriptCode@@PEAVasCObjectType@@AEAVasCString@@AEAVasCDataType@@AEAV?$asCArray@VasCString@@@@AEAV?$asCArray@VasCDataType@@@@AEAV?$asCArray@W4asETypeModifiers@@@@AEAV?$asCArray@PEAVasCString@@@@AEA_N999999PEAUasSNameSpace@@@Z@4HA 00000001800733bf f    CIL library: CIL module
 0001:000723d7       ?dtor$0@?0??RegisterEnum@asCBuilder@@IEAAHPEAVasCScriptNode@@PEAVasCScriptCode@@PEAUasSNameSpace@@@Z@4HA 00000001800733d7 f    CIL library: CIL module
 0001:000723f7       ?dtor$3@?0??RegisterEnum@asCBuilder@@IEAAHPEAVasCScriptNode@@PEAVasCScriptCode@@PEAUasSNameSpace@@@Z@4HA 00000001800733f7 f    CIL library: CIL module
 0001:00072417       ?dtor$4@?0??RegisterEnum@asCBuilder@@IEAAHPEAVasCScriptNode@@PEAVasCScriptCode@@PEAUasSNameSpace@@@Z@4HA 0000000180073417 f    CIL library: CIL module
 0001:00072437       ?dtor$8@?0??RegisterEnum@asCBuilder@@IEAAHPEAVasCScriptNode@@PEAVasCScriptCode@@PEAUasSNameSpace@@@Z@4HA 0000000180073437 f    CIL library: CIL module
 0001:00072457       ?dtor$5@?0??RegisterEnum@asCBuilder@@IEAAHPEAVasCScriptNode@@PEAVasCScriptCode@@PEAUasSNameSpace@@@Z@4HA 0000000180073457 f    CIL library: CIL module
 0001:00072472       ?dtor$0@?0??AddDefaultConstructor@asCBuilder@@IEAAXPEAVasCObjectType@@PEAVasCScriptCode@@@Z@4HA 0000000180073472 f    CIL library: CIL module
 0001:00072492       ?dtor$1@?0??AddDefaultConstructor@asCBuilder@@IEAAXPEAVasCObjectType@@PEAVasCScriptCode@@@Z@4HA 0000000180073492 f    CIL library: CIL module
 0001:000724b2       ?dtor$2@?0??AddDefaultConstructor@asCBuilder@@IEAAXPEAVasCObjectType@@PEAVasCScriptCode@@@Z@4HA 00000001800734b2 f    CIL library: CIL module
 0001:000724d2       ?dtor$4@?0??AddDefaultConstructor@asCBuilder@@IEAAXPEAVasCObjectType@@PEAVasCScriptCode@@@Z@4HA 00000001800734d2 f    CIL library: CIL module
 0001:000724ed       ?dtor$0@?0??CreateVirtualFunction@asCBuilder@@IEAAHPEAVasCScriptFunction@@H@Z@4HA 00000001800734ed f    CIL library: CIL module
 0001:0007250d       ?dtor$1@?0??CreateVirtualFunction@asCBuilder@@IEAAHPEAVasCScriptFunction@@H@Z@4HA 000000018007350d f    CIL library: CIL module
 0001:00072529       ?dtor$0@?0??IncludePropertiesFromMixins@asCBuilder@@IEAAXPEAUsClassDeclaration@@@Z@4HA 0000000180073529 f    CIL library: CIL module
 0001:00072549       ?dtor$1@?0??IncludePropertiesFromMixins@asCBuilder@@IEAAXPEAUsClassDeclaration@@@Z@4HA 0000000180073549 f    CIL library: CIL module
 0001:00072569       ?dtor$2@?0??IncludePropertiesFromMixins@asCBuilder@@IEAAXPEAUsClassDeclaration@@@Z@4HA 0000000180073569 f    CIL library: CIL module
 0001:00072589       ?dtor$3@?0??IncludePropertiesFromMixins@asCBuilder@@IEAAXPEAUsClassDeclaration@@@Z@4HA 0000000180073589 f    CIL library: CIL module
 0001:000725a9       ?dtor$4@?0??IncludePropertiesFromMixins@asCBuilder@@IEAAXPEAUsClassDeclaration@@@Z@4HA 00000001800735a9 f    CIL library: CIL module
 0001:000725c9       ?dtor$5@?0??IncludePropertiesFromMixins@asCBuilder@@IEAAXPEAUsClassDeclaration@@@Z@4HA 00000001800735c9 f    CIL library: CIL module
 0001:000725e9       ?dtor$6@?0??IncludePropertiesFromMixins@asCBuilder@@IEAAXPEAUsClassDeclaration@@@Z@4HA 00000001800735e9 f    CIL library: CIL module
 0001:00072609       ?dtor$7@?0??IncludePropertiesFromMixins@asCBuilder@@IEAAXPEAUsClassDeclaration@@@Z@4HA 0000000180073609 f    CIL library: CIL module
 0001:00072624       ?dtor$0@?0??RegisterGlobalVar@asCBuilder@@IEAAHPEAVasCScriptNode@@PEAVasCScriptCode@@PEAUasSNameSpace@@@Z@4HA 0000000180073624 f    CIL library: CIL module
 0001:00072644       ?dtor$1@?0??RegisterGlobalVar@asCBuilder@@IEAAHPEAVasCScriptNode@@PEAVasCScriptCode@@PEAUasSNameSpace@@@Z@4HA 0000000180073644 f    CIL library: CIL module
 0001:00072664       ?dtor$2@?0??RegisterGlobalVar@asCBuilder@@IEAAHPEAVasCScriptNode@@PEAVasCScriptCode@@PEAUasSNameSpace@@@Z@4HA 0000000180073664 f    CIL library: CIL module
 0001:00072684       ?dtor$3@?0??RegisterGlobalVar@asCBuilder@@IEAAHPEAVasCScriptNode@@PEAVasCScriptCode@@PEAUasSNameSpace@@@Z@4HA 0000000180073684 f    CIL library: CIL module
 0001:0007269c       ?dtor$0@?0??CompleteFuncDef@asCBuilder@@IEAAXPEAUsFuncDef@@@Z@4HA 000000018007369c f    CIL library: CIL module
 0001:000726bc       ?dtor$1@?0??CompleteFuncDef@asCBuilder@@IEAAXPEAUsFuncDef@@@Z@4HA 00000001800736bc f    CIL library: CIL module
 0001:000726d7       ?dtor$0@?0??ParseVariableDeclaration@asCBuilder@@QEAAHPEBDPEAUasSNameSpace@@AEAVasCString@@AEAPEAU2@AEAVasCDataType@@@Z@4HA 00000001800736d7 f    CIL library: CIL module
 0001:000726d7       ?dtor$0@?0??VerifyProperty@asCBuilder@@QEAAHPEAVasCDataType@@PEBDAEAVasCString@@AEAV2@PEAUasSNameSpace@@@Z@4HA 00000001800736d7 f    CIL library: CIL module
 0001:000726f7       ?dtor$1@?0??VerifyProperty@asCBuilder@@QEAAHPEAVasCDataType@@PEBDAEAVasCString@@AEAV2@PEAUasSNameSpace@@@Z@4HA 00000001800736f7 f    CIL library: CIL module
 0001:000726f7       ?dtor$1@?0??ParseVariableDeclaration@asCBuilder@@QEAAHPEBDPEAUasSNameSpace@@AEAVasCString@@AEAPEAU2@AEAVasCDataType@@@Z@4HA 00000001800736f7 f    CIL library: CIL module
 0001:00072712       ?dtor$0@?0??ParseFunctionDeclaration@asCBuilder@@QEAAHPEAVasCObjectType@@PEBDPEAVasCScriptFunction@@_NPEAV?$asCArray@_N@@PEA_NPEAUasSNameSpace@@PEAPEAVasCScriptNode@@@Z@4HA 0000000180073712 f    CIL library: CIL module
 0001:00072732       ?dtor$1@?0??ParseFunctionDeclaration@asCBuilder@@QEAAHPEAVasCObjectType@@PEBDPEAVasCScriptFunction@@_NPEAV?$asCArray@_N@@PEA_NPEAUasSNameSpace@@PEAPEAVasCScriptNode@@@Z@4HA 0000000180073732 f    CIL library: CIL module
 0001:00072752       ?dtor$5@?0??ParseFunctionDeclaration@asCBuilder@@QEAAHPEAVasCObjectType@@PEBDPEAVasCScriptFunction@@_NPEAV?$asCArray@_N@@PEA_NPEAUasSNameSpace@@PEAPEAVasCScriptNode@@@Z@4HA 0000000180073752 f    CIL library: CIL module
 0001:00072772       ?dtor$2@?0??ParseFunctionDeclaration@asCBuilder@@QEAAHPEAVasCObjectType@@PEBDPEAVasCScriptFunction@@_NPEAV?$asCArray@_N@@PEA_NPEAUasSNameSpace@@PEAPEAVasCScriptNode@@@Z@4HA 0000000180073772 f    CIL library: CIL module
 0001:00072792       ?dtor$4@?0??ParseFunctionDeclaration@asCBuilder@@QEAAHPEAVasCObjectType@@PEBDPEAVasCScriptFunction@@_NPEAV?$asCArray@_N@@PEA_NPEAUasSNameSpace@@PEAPEAVasCScriptNode@@@Z@4HA 0000000180073792 f    CIL library: CIL module
 0001:000727aa       ?dtor$0@?0??ParseDataType@asCBuilder@@QEAAHPEBDPEAVasCDataType@@PEAUasSNameSpace@@_N@Z@4HA 00000001800737aa f    CIL library: CIL module
 0001:000727ca       ?dtor$1@?0??ParseDataType@asCBuilder@@QEAAHPEBDPEAVasCDataType@@PEAUasSNameSpace@@_N@Z@4HA 00000001800737ca f    CIL library: CIL module
 0001:000727ea       ?dtor$2@?0??ParseDataType@asCBuilder@@QEAAHPEBDPEAVasCDataType@@PEAUasSNameSpace@@_N@Z@4HA 00000001800737ea f    CIL library: CIL module
 0001:00072805       ?dtor$1@?0??ParseListPattern@asCScriptFunction@@QEAAHAEAPEAUasSListPatternNode@@PEBDPEAVasCScriptNode@@@Z@4HA 0000000180073805 f    CIL library: CIL module
 0001:00072825       ?dtor$2@?0??ParseListPattern@asCScriptFunction@@QEAAHAEAPEAUasSListPatternNode@@PEBDPEAVasCScriptNode@@@Z@4HA 0000000180073825 f    CIL library: CIL module
 0001:0007283d       ?dtor$0@?0??RegisterFuncdef@asCScriptEngine@@UEAAHPEBD@Z@4HA 000000018007383d f    CIL library: CIL module
 0001:0007286d       ?dtor$1@?0??RegisterFuncdef@asCScriptEngine@@UEAAHPEBD@Z@4HA 000000018007386d f    CIL library: CIL module
 0001:00072885       ?dtor$0@?0??GetTypeIdByDecl@asCModule@@UEBAHPEBD@Z@4HA 0000000180073885 f    CIL library: CIL module
 0001:00072885       ?dtor$0@?0??RegisterDefaultArrayType@asCScriptEngine@@UEAAHPEBD@Z@4HA 0000000180073885 f    CIL library: CIL module
 0001:00072885       ?dtor$0@?0??RegisterEnum@asCScriptEngine@@UEAAHPEBD@Z@4HA 0000000180073885 f    CIL library: CIL module
 0001:00072885       ?dtor$0@?0??RegisterEnumValue@asCScriptEngine@@UEAAHPEBD0H@Z@4HA 0000000180073885 f    CIL library: CIL module
 0001:00072885       ?dtor$0@?0??RegisterInterface@asCScriptEngine@@UEAAHPEBD@Z@4HA 0000000180073885 f    CIL library: CIL module
 0001:00072885       ?dtor$0@?0??RegisterObjectMethod@asCScriptEngine@@UEAAHPEBD0AEBUasSFuncPtr@@K@Z@4HA 0000000180073885 f    CIL library: CIL module
 0001:00072885       ?dtor$0@?0??GetTypeIdByDecl@asCScriptEngine@@UEBAHPEBD@Z@4HA 0000000180073885 f    CIL library: CIL module
 0001:0007289d       ?dtor$0@?0??RegisterStringFactory@asCScriptEngine@@UEAAHPEBDAEBUasSFuncPtr@@KPEAX@Z@4HA 000000018007389d f    CIL library: CIL module
 0001:000728bd       ?dtor$1@?0??RegisterStringFactory@asCScriptEngine@@UEAAHPEBDAEBUasSFuncPtr@@KPEAX@Z@4HA 00000001800738bd f    CIL library: CIL module
 0001:000728dd       ?dtor$6@?0??RegisterStringFactory@asCScriptEngine@@UEAAHPEBDAEBUasSFuncPtr@@KPEAX@Z@4HA 00000001800738dd f    CIL library: CIL module
 0001:000728fd       ?dtor$2@?0??RegisterStringFactory@asCScriptEngine@@UEAAHPEBDAEBUasSFuncPtr@@KPEAX@Z@4HA 00000001800738fd f    CIL library: CIL module
 0001:0007291d       ?dtor$3@?0??RegisterStringFactory@asCScriptEngine@@UEAAHPEBDAEBUasSFuncPtr@@KPEAX@Z@4HA 000000018007391d f    CIL library: CIL module
 0001:00072938       ?dtor$0@?0??RegisterGlobalFunction@asCScriptEngine@@UEAAHPEBDAEBUasSFuncPtr@@KPEAX@Z@4HA 0000000180073938 f    CIL library: CIL module
 0001:00072958       ?dtor$1@?0??RegisterGlobalFunction@asCScriptEngine@@UEAAHPEBDAEBUasSFuncPtr@@KPEAX@Z@4HA 0000000180073958 f    CIL library: CIL module
 0001:00072978       ?dtor$6@?0??RegisterGlobalFunction@asCScriptEngine@@UEAAHPEBDAEBUasSFuncPtr@@KPEAX@Z@4HA 0000000180073978 f    CIL library: CIL module
 0001:00072998       ?dtor$2@?0??RegisterGlobalFunction@asCScriptEngine@@UEAAHPEBDAEBUasSFuncPtr@@KPEAX@Z@4HA 0000000180073998 f    CIL library: CIL module
 0001:000729b8       ?dtor$3@?0??RegisterGlobalFunction@asCScriptEngine@@UEAAHPEBDAEBUasSFuncPtr@@KPEAX@Z@4HA 00000001800739b8 f    CIL library: CIL module
 0001:000729d3       ?dtor$0@?0??RegisterMethodToObjectType@asCScriptEngine@@QEAAHPEAVasCObjectType@@PEBDAEBUasSFuncPtr@@K@Z@4HA 00000001800739d3 f    CIL library: CIL module
 0001:000729f3       ?dtor$1@?0??RegisterMethodToObjectType@asCScriptEngine@@QEAAHPEAVasCObjectType@@PEBDAEBUasSFuncPtr@@K@Z@4HA 00000001800739f3 f    CIL library: CIL module
 0001:00072a13       ?dtor$6@?0??RegisterMethodToObjectType@asCScriptEngine@@QEAAHPEAVasCObjectType@@PEBDAEBUasSFuncPtr@@K@Z@4HA 0000000180073a13 f    CIL library: CIL module
 0001:00072a33       ?dtor$2@?0??RegisterMethodToObjectType@asCScriptEngine@@QEAAHPEAVasCObjectType@@PEBDAEBUasSFuncPtr@@K@Z@4HA 0000000180073a33 f    CIL library: CIL module
 0001:00072a53       ?dtor$3@?0??RegisterMethodToObjectType@asCScriptEngine@@QEAAHPEAVasCObjectType@@PEBDAEBUasSFuncPtr@@K@Z@4HA 0000000180073a53 f    CIL library: CIL module
 0001:00072a6e       ?dtor$0@?0??RegisterGlobalProperty@asCScriptEngine@@UEAAHPEBDPEAX@Z@4HA 0000000180073a6e f    CIL library: CIL module
 0001:00072a8e       ?dtor$1@?0??RegisterGlobalProperty@asCScriptEngine@@UEAAHPEBDPEAX@Z@4HA 0000000180073a8e f    CIL library: CIL module
 0001:00072aa6       ?dtor$0@?0??RegisterBehaviourToObjectType@asCScriptEngine@@QEAAHPEAVasCObjectType@@W4asEBehaviours@@PEBDAEBUasSFuncPtr@@KPEAX@Z@4HA 0000000180073aa6 f    CIL library: CIL module
 0001:00072ac6       ?dtor$1@?0??RegisterBehaviourToObjectType@asCScriptEngine@@QEAAHPEAVasCObjectType@@W4asEBehaviours@@PEBDAEBUasSFuncPtr@@KPEAX@Z@4HA 0000000180073ac6 f    CIL library: CIL module
 0001:00072ae6       ?dtor$2@?0??RegisterBehaviourToObjectType@asCScriptEngine@@QEAAHPEAVasCObjectType@@W4asEBehaviours@@PEBDAEBUasSFuncPtr@@KPEAX@Z@4HA 0000000180073ae6 f    CIL library: CIL module
 0001:00072b01       ?dtor$0@?0??RegisterObjectBehaviour@asCScriptEngine@@UEAAHPEBDW4asEBehaviours@@0AEBUasSFuncPtr@@KPEAX@Z@4HA 0000000180073b01 f    CIL library: CIL module
 0001:00072b19       ?dtor$0@?0??RegisterObjectType@asCScriptEngine@@UEAAHPEBDHK@Z@4HA 0000000180073b19 f    CIL library: CIL module
 0001:00072b39       ?dtor$1@?0??RegisterObjectType@asCScriptEngine@@UEAAHPEBDHK@Z@4HA 0000000180073b39 f    CIL library: CIL module
 0001:00072b59       ?dtor$2@?0??RegisterObjectType@asCScriptEngine@@UEAAHPEBDHK@Z@4HA 0000000180073b59 f    CIL library: CIL module
 0001:00072b71       ?dtor$0@?0??RegisterInterfaceMethod@asCScriptEngine@@UEAAHPEBD0@Z@4HA 0000000180073b71 f    CIL library: CIL module
 0001:00072b91       ?dtor$1@?0??RegisterInterfaceMethod@asCScriptEngine@@UEAAHPEBD0@Z@4HA 0000000180073b91 f    CIL library: CIL module
 0001:00072bb3       ?dtor$0@?0??RegisterObjectProperty@asCScriptEngine@@UEAAHPEBD0H@Z@4HA 0000000180073bb3 f    CIL library: CIL module
 0001:00072bd3       ?dtor$1@?0??RegisterObjectProperty@asCScriptEngine@@UEAAHPEBD0H@Z@4HA 0000000180073bd3 f    CIL library: CIL module
 0001:00072beb       ?dtor$0@?0??ReadObjectType@asCReader@@IEAAPEAVasCObjectType@@XZ@4HA 0000000180073beb f    CIL library: CIL module
 0001:00072c0b       ?dtor$1@?0??ReadObjectType@asCReader@@IEAAPEAVasCObjectType@@XZ@4HA 0000000180073c0b f    CIL library: CIL module
 0001:00072c2b       ?dtor$2@?0??ReadObjectType@asCReader@@IEAAPEAVasCObjectType@@XZ@4HA 0000000180073c2b f    CIL library: CIL module
 0001:00072c4b       ?dtor$3@?0??ReadObjectType@asCReader@@IEAAPEAVasCObjectType@@XZ@4HA 0000000180073c4b f    CIL library: CIL module
 0001:00072c6b       ?dtor$4@?0??ReadObjectType@asCReader@@IEAAPEAVasCObjectType@@XZ@4HA 0000000180073c6b f    CIL library: CIL module
 0001:00072c8b       ?dtor$5@?0??ReadObjectType@asCReader@@IEAAPEAVasCObjectType@@XZ@4HA 0000000180073c8b f    CIL library: CIL module
 0001:00072cab       ?dtor$6@?0??ReadObjectType@asCReader@@IEAAPEAVasCObjectType@@XZ@4HA 0000000180073cab f    CIL library: CIL module
 0001:00072ccb       ?dtor$7@?0??ReadObjectType@asCReader@@IEAAPEAVasCObjectType@@XZ@4HA 0000000180073ccb f    CIL library: CIL module
 0001:00072ceb       ?dtor$8@?0??ReadObjectType@asCReader@@IEAAPEAVasCObjectType@@XZ@4HA 0000000180073ceb f    CIL library: CIL module
 0001:00072d0b       ?dtor$9@?0??ReadObjectType@asCReader@@IEAAPEAVasCObjectType@@XZ@4HA 0000000180073d0b f    CIL library: CIL module
 0001:00072d2b       ?dtor$10@?0??ReadObjectType@asCReader@@IEAAPEAVasCObjectType@@XZ@4HA 0000000180073d2b f    CIL library: CIL module
 0001:00072d43       ?dtor$0@?0??ReadFunction@asCReader@@IEAAPEAVasCScriptFunction@@AEA_N_N11@Z@4HA 0000000180073d43 f    CIL library: CIL module
 0001:00072d63       ?dtor$1@?0??ReadFunction@asCReader@@IEAAPEAVasCScriptFunction@@AEA_N_N11@Z@4HA 0000000180073d63 f    CIL library: CIL module
 0001:00072d83       ?dtor$3@?0??ReadFunction@asCReader@@IEAAPEAVasCScriptFunction@@AEA_N_N11@Z@4HA 0000000180073d83 f    CIL library: CIL module
 0001:00072d9b       ?dtor$0@?0??ParseClass@asCParser@@IEAAPEAVasCScriptNode@@XZ@4HA 0000000180073d9b f    CIL library: CIL module
 0001:00072d9b       ?dtor$0@?0??ParseInterface@asCParser@@IEAAPEAVasCScriptNode@@XZ@4HA 0000000180073d9b f    CIL library: CIL module
 0001:00072d9b       ?dtor$0@?0??SuperficiallyParseStatementBlock@asCParser@@IEAAPEAVasCScriptNode@@XZ@4HA 0000000180073d9b f    CIL library: CIL module
 0001:00072dbb       ?dtor$1@?0??ParseInterface@asCParser@@IEAAPEAVasCScriptNode@@XZ@4HA 0000000180073dbb f    CIL library: CIL module
 0001:00072dbb       ?dtor$1@?0??SuperficiallyParseStatementBlock@asCParser@@IEAAPEAVasCScriptNode@@XZ@4HA 0000000180073dbb f    CIL library: CIL module
 0001:00072dbb       ?dtor$1@?0??ParseClass@asCParser@@IEAAPEAVasCScriptNode@@XZ@4HA 0000000180073dbb f    CIL library: CIL module
 0001:00072ddb       ?dtor$2@?0??ParseClass@asCParser@@IEAAPEAVasCScriptNode@@XZ@4HA 0000000180073ddb f    CIL library: CIL module
 0001:00072ddb       ?dtor$2@?0??SuperficiallyParseStatementBlock@asCParser@@IEAAPEAVasCScriptNode@@XZ@4HA 0000000180073ddb f    CIL library: CIL module
 0001:00072ddb       ?dtor$2@?0??ParseInterface@asCParser@@IEAAPEAVasCScriptNode@@XZ@4HA 0000000180073ddb f    CIL library: CIL module
 0001:00072dfb       ?dtor$3@?0??ParseClass@asCParser@@IEAAPEAVasCScriptNode@@XZ@4HA 0000000180073dfb f    CIL library: CIL module
 0001:00072dfb       ?dtor$3@?0??SuperficiallyParseStatementBlock@asCParser@@IEAAPEAVasCScriptNode@@XZ@4HA 0000000180073dfb f    CIL library: CIL module
 0001:00072dfb       ?dtor$3@?0??ParseInterface@asCParser@@IEAAPEAVasCScriptNode@@XZ@4HA 0000000180073dfb f    CIL library: CIL module
 0001:00072e13       ?dtor$0@?0??ParseScript@asCParser@@IEAAPEAVasCScriptNode@@_N@Z@4HA 0000000180073e13 f    CIL library: CIL module
 0001:00072e13       ?dtor$0@?0??ParseExpression@asCParser@@IEAAPEAVasCScriptNode@@XZ@4HA 0000000180073e13 f    CIL library: CIL module
 0001:00072e13       ?dtor$0@?0??ParseExprTerm@asCParser@@IEAAPEAVasCScriptNode@@XZ@4HA 0000000180073e13 f    CIL library: CIL module
 0001:00072e2b       ?dtor$0@?0??GetGlobalVarIndexByDecl@asCModule@@UEBAHPEBD@Z@4HA 0000000180073e2b f    CIL library: CIL module
 0001:00072e2b       ?dtor$0@?0??GetGlobalPropertyIndexByDecl@asCScriptEngine@@UEBAHPEBD@Z@4HA 0000000180073e2b f    CIL library: CIL module
 0001:00072e4b       ?dtor$1@?0??GetGlobalVarIndexByDecl@asCModule@@UEBAHPEBD@Z@4HA 0000000180073e4b f    CIL library: CIL module
 0001:00072e4b       ?dtor$1@?0??GetGlobalPropertyIndexByDecl@asCScriptEngine@@UEBAHPEBD@Z@4HA 0000000180073e4b f    CIL library: CIL module
 0001:00072e63       ?dtor$0@?0??GetFunctionByDecl@asCModule@@UEBAPEAVasIScriptFunction@@PEBD@Z@4HA 0000000180073e63 f    CIL library: CIL module
 0001:00072e63       ?dtor$0@?0??GetGlobalFunctionByDecl@asCScriptEngine@@UEBAPEAVasIScriptFunction@@PEBD@Z@4HA 0000000180073e63 f    CIL library: CIL module
 0001:00072e63       ?dtor$0@?0??GetMethodIdByDecl@asCScriptEngine@@QEAAHPEBVasCObjectType@@PEBDPEAVasCModule@@@Z@4HA 0000000180073e63 f    CIL library: CIL module
 0001:00072e63       ?dtor$0@?0??GetFactoryIdByDecl@asCScriptEngine@@QEAAHPEBVasCObjectType@@PEBD@Z@4HA 0000000180073e63 f    CIL library: CIL module
 0001:00072e63       ?dtor$0@?0??GetImportedFunctionIndexByDecl@asCModule@@UEBAHPEBD@Z@4HA 0000000180073e63 f    CIL library: CIL module
 0001:00072e83       ?dtor$1@?0??GetGlobalFunctionByDecl@asCScriptEngine@@UEBAPEAVasIScriptFunction@@PEBD@Z@4HA 0000000180073e83 f    CIL library: CIL module
 0001:00072e83       ?dtor$1@?0??GetImportedFunctionIndexByDecl@asCModule@@UEBAHPEBD@Z@4HA 0000000180073e83 f    CIL library: CIL module
 0001:00072e83       ?dtor$1@?0??GetMethodIdByDecl@asCScriptEngine@@QEAAHPEBVasCObjectType@@PEBDPEAVasCModule@@@Z@4HA 0000000180073e83 f    CIL library: CIL module
 0001:00072e83       ?dtor$1@?0??GetFactoryIdByDecl@asCScriptEngine@@QEAAHPEBVasCObjectType@@PEBD@Z@4HA 0000000180073e83 f    CIL library: CIL module
 0001:00072e83       ?dtor$1@?0??GetFunctionByDecl@asCModule@@UEBAPEAVasIScriptFunction@@PEBD@Z@4HA 0000000180073e83 f    CIL library: CIL module
 0001:00072e9b       ?dtor$0@?0???1asCModule@@UEAA@XZ@4HA 0000000180073e9b f    CIL library: CIL module
 0001:00072ebb       ?dtor$1@?0???1asCModule@@UEAA@XZ@4HA 0000000180073ebb f    CIL library: CIL module
 0001:00072edb       ?dtor$2@?0???1asCModule@@UEAA@XZ@4HA 0000000180073edb f    CIL library: CIL module
 0001:00072efb       ?dtor$3@?0???1asCModule@@UEAA@XZ@4HA 0000000180073efb f    CIL library: CIL module
 0001:00072f1b       ?dtor$4@?0???1asCModule@@UEAA@XZ@4HA 0000000180073f1b f    CIL library: CIL module
 0001:00072f3b       ?dtor$5@?0???1asCModule@@UEAA@XZ@4HA 0000000180073f3b f    CIL library: CIL module
 0001:00072f5b       ?dtor$6@?0???1asCModule@@UEAA@XZ@4HA 0000000180073f5b f    CIL library: CIL module
 0001:00072f7b       ?dtor$7@?0???1asCModule@@UEAA@XZ@4HA 0000000180073f7b f    CIL library: CIL module
 0001:00072f9b       ?dtor$8@?0???1asCModule@@UEAA@XZ@4HA 0000000180073f9b f    CIL library: CIL module
 0001:00072fbb       ?dtor$9@?0???1asCModule@@UEAA@XZ@4HA 0000000180073fbb f    CIL library: CIL module
 0001:00072fdb       ?dtor$10@?0???1asCModule@@UEAA@XZ@4HA 0000000180073fdb f    CIL library: CIL module
 0001:00072ffb       ?dtor$12@?0???1asCModule@@UEAA@XZ@4HA 0000000180073ffb f    CIL library: CIL module
 0001:00073013       ?dtor$0@?0??MakeFunctionCall@asCCompiler@@IEAAXPEAUasSExprContext@@HPEAVasCObjectType@@AEAV?$asCArray@PEAUasSExprContext@@@@PEAVasCScriptNode@@_NHH@Z@4HA 0000000180074013 f    CIL library: CIL module
 0001:0007302b       ?dtor$0@?0??CompileOverloadedDualOperator2@asCCompiler@@IEAAHPEAVasCScriptNode@@PEBDPEAUasSExprContext@@22_NAEBVasCDataType@@@Z@4HA 000000018007402b f    CIL library: CIL module
 0001:0007304b       ?dtor$1@?0??CompileOverloadedDualOperator2@asCCompiler@@IEAAHPEAVasCScriptNode@@PEBDPEAUasSExprContext@@22_NAEBVasCDataType@@@Z@4HA 000000018007404b f    CIL library: CIL module
 0001:0007306b       ?dtor$2@?0??CompileOverloadedDualOperator2@asCCompiler@@IEAAHPEAVasCScriptNode@@PEBDPEAUasSExprContext@@22_NAEBVasCDataType@@@Z@4HA 000000018007406b f    CIL library: CIL module
 0001:0007308b       ?dtor$3@?0??CompileOverloadedDualOperator2@asCCompiler@@IEAAHPEAVasCScriptNode@@PEBDPEAUasSExprContext@@22_NAEBVasCDataType@@@Z@4HA 000000018007408b f    CIL library: CIL module
 0001:000730ab       ?dtor$4@?0??CompileOverloadedDualOperator2@asCCompiler@@IEAAHPEAVasCScriptNode@@PEBDPEAUasSExprContext@@22_NAEBVasCDataType@@@Z@4HA 00000001800740ab f    CIL library: CIL module
 0001:000730c6       ?dtor$0@?0??CompileOverloadedDualOperator@asCCompiler@@IEAA_NPEAVasCScriptNode@@PEAUasSExprContext@@11@Z@4HA 00000001800740c6 f    CIL library: CIL module
 0001:000730e6       ?dtor$1@?0??CompileOverloadedDualOperator@asCCompiler@@IEAA_NPEAVasCScriptNode@@PEAUasSExprContext@@11@Z@4HA 00000001800740e6 f    CIL library: CIL module
 0001:000730fe       ?dtor$0@?0??RegisterImportedFunction@asCBuilder@@IEAAHHPEAVasCScriptNode@@PEAVasCScriptCode@@PEAUasSNameSpace@@@Z@4HA 00000001800740fe f    CIL library: CIL module
 0001:0007311e       ?dtor$1@?0??RegisterImportedFunction@asCBuilder@@IEAAHHPEAVasCScriptNode@@PEAVasCScriptCode@@PEAUasSNameSpace@@@Z@4HA 000000018007411e f    CIL library: CIL module
 0001:0007313e       ?dtor$2@?0??RegisterImportedFunction@asCBuilder@@IEAAHHPEAVasCScriptNode@@PEAVasCScriptCode@@PEAUasSNameSpace@@@Z@4HA 000000018007413e f    CIL library: CIL module
 0001:0007315e       ?dtor$3@?0??RegisterImportedFunction@asCBuilder@@IEAAHHPEAVasCScriptNode@@PEAVasCScriptCode@@PEAUasSNameSpace@@@Z@4HA 000000018007415e f    CIL library: CIL module
 0001:0007317e       ?dtor$4@?0??RegisterImportedFunction@asCBuilder@@IEAAHHPEAVasCScriptNode@@PEAVasCScriptCode@@PEAUasSNameSpace@@@Z@4HA 000000018007417e f    CIL library: CIL module
 0001:0007319e       ?dtor$5@?0??RegisterImportedFunction@asCBuilder@@IEAAHHPEAVasCScriptNode@@PEAVasCScriptCode@@PEAUasSNameSpace@@@Z@4HA 000000018007419e f    CIL library: CIL module
 0001:000731be       ?dtor$6@?0??RegisterImportedFunction@asCBuilder@@IEAAHHPEAVasCScriptNode@@PEAVasCScriptCode@@PEAUasSNameSpace@@@Z@4HA 00000001800741be f    CIL library: CIL module
 0001:000731de       ?dtor$7@?0??RegisterImportedFunction@asCBuilder@@IEAAHHPEAVasCScriptNode@@PEAVasCScriptCode@@PEAUasSNameSpace@@@Z@4HA 00000001800741de f    CIL library: CIL module
 0001:000731f9       ?dtor$0@?0??RegisterVirtualProperty@asCBuilder@@IEAAHPEAVasCScriptNode@@PEAVasCScriptCode@@PEAVasCObjectType@@_N3PEAUasSNameSpace@@3@Z@4HA 00000001800741f9 f    CIL library: CIL module
 0001:00073219       ?dtor$1@?0??RegisterVirtualProperty@asCBuilder@@IEAAHPEAVasCScriptNode@@PEAVasCScriptCode@@PEAVasCObjectType@@_N3PEAUasSNameSpace@@3@Z@4HA 0000000180074219 f    CIL library: CIL module
 0001:00073239       ?dtor$2@?0??RegisterVirtualProperty@asCBuilder@@IEAAHPEAVasCScriptNode@@PEAVasCScriptCode@@PEAVasCObjectType@@_N3PEAUasSNameSpace@@3@Z@4HA 0000000180074239 f    CIL library: CIL module
 0001:00073259       ?dtor$3@?0??RegisterVirtualProperty@asCBuilder@@IEAAHPEAVasCScriptNode@@PEAVasCScriptCode@@PEAVasCObjectType@@_N3PEAUasSNameSpace@@3@Z@4HA 0000000180074259 f    CIL library: CIL module
 0001:00073279       ?dtor$4@?0??RegisterVirtualProperty@asCBuilder@@IEAAHPEAVasCScriptNode@@PEAVasCScriptCode@@PEAVasCObjectType@@_N3PEAUasSNameSpace@@3@Z@4HA 0000000180074279 f    CIL library: CIL module
 0001:00073299       ?dtor$5@?0??RegisterVirtualProperty@asCBuilder@@IEAAHPEAVasCScriptNode@@PEAVasCScriptCode@@PEAVasCObjectType@@_N3PEAUasSNameSpace@@3@Z@4HA 0000000180074299 f    CIL library: CIL module
 0001:000732b9       ?dtor$6@?0??RegisterVirtualProperty@asCBuilder@@IEAAHPEAVasCScriptNode@@PEAVasCScriptCode@@PEAVasCObjectType@@_N3PEAUasSNameSpace@@3@Z@4HA 00000001800742b9 f    CIL library: CIL module
 0001:000732d9       ?dtor$7@?0??RegisterVirtualProperty@asCBuilder@@IEAAHPEAVasCScriptNode@@PEAVasCScriptCode@@PEAVasCObjectType@@_N3PEAUasSNameSpace@@3@Z@4HA 00000001800742d9 f    CIL library: CIL module
 0001:000732f9       ?dtor$8@?0??RegisterVirtualProperty@asCBuilder@@IEAAHPEAVasCScriptNode@@PEAVasCScriptCode@@PEAVasCObjectType@@_N3PEAUasSNameSpace@@3@Z@4HA 00000001800742f9 f    CIL library: CIL module
 0001:00073319       ?dtor$9@?0??RegisterVirtualProperty@asCBuilder@@IEAAHPEAVasCScriptNode@@PEAVasCScriptCode@@PEAVasCObjectType@@_N3PEAUasSNameSpace@@3@Z@4HA 0000000180074319 f    CIL library: CIL module
 0001:00073339       ?dtor$10@?0??RegisterVirtualProperty@asCBuilder@@IEAAHPEAVasCScriptNode@@PEAVasCScriptCode@@PEAVasCObjectType@@_N3PEAUasSNameSpace@@3@Z@4HA 0000000180074339 f    CIL library: CIL module
 0001:00073359       ?dtor$11@?0??RegisterVirtualProperty@asCBuilder@@IEAAHPEAVasCScriptNode@@PEAVasCScriptCode@@PEAVasCObjectType@@_N3PEAUasSNameSpace@@3@Z@4HA 0000000180074359 f    CIL library: CIL module
 0001:00073379       ?dtor$12@?0??RegisterVirtualProperty@asCBuilder@@IEAAHPEAVasCScriptNode@@PEAVasCScriptCode@@PEAVasCObjectType@@_N3PEAUasSNameSpace@@3@Z@4HA 0000000180074379 f    CIL library: CIL module
 0001:00073399       ?dtor$13@?0??RegisterVirtualProperty@asCBuilder@@IEAAHPEAVasCScriptNode@@PEAVasCScriptCode@@PEAVasCObjectType@@_N3PEAUasSNameSpace@@3@Z@4HA 0000000180074399 f    CIL library: CIL module
 0001:000733b9       ?dtor$14@?0??RegisterVirtualProperty@asCBuilder@@IEAAHPEAVasCScriptNode@@PEAVasCScriptCode@@PEAVasCObjectType@@_N3PEAUasSNameSpace@@3@Z@4HA 00000001800743b9 f    CIL library: CIL module
 0001:000733d4       ?dtor$0@?0??RegisterScriptFunctionFromNode@asCBuilder@@IEAAHPEAVasCScriptNode@@PEAVasCScriptCode@@PEAVasCObjectType@@_N3PEAUasSNameSpace@@33@Z@4HA 00000001800743d4 f    CIL library: CIL module
 0001:000733f4       ?dtor$1@?0??RegisterScriptFunctionFromNode@asCBuilder@@IEAAHPEAVasCScriptNode@@PEAVasCScriptCode@@PEAVasCObjectType@@_N3PEAUasSNameSpace@@33@Z@4HA 00000001800743f4 f    CIL library: CIL module
 0001:00073414       ?dtor$2@?0??RegisterScriptFunctionFromNode@asCBuilder@@IEAAHPEAVasCScriptNode@@PEAVasCScriptCode@@PEAVasCObjectType@@_N3PEAUasSNameSpace@@33@Z@4HA 0000000180074414 f    CIL library: CIL module
 0001:00073434       ?dtor$3@?0??RegisterScriptFunctionFromNode@asCBuilder@@IEAAHPEAVasCScriptNode@@PEAVasCScriptCode@@PEAVasCObjectType@@_N3PEAUasSNameSpace@@33@Z@4HA 0000000180074434 f    CIL library: CIL module
 0001:00073454       ?dtor$4@?0??RegisterScriptFunctionFromNode@asCBuilder@@IEAAHPEAVasCScriptNode@@PEAVasCScriptCode@@PEAVasCObjectType@@_N3PEAUasSNameSpace@@33@Z@4HA 0000000180074454 f    CIL library: CIL module
 0001:0007346f       ?dtor$0@?0??IncludeMethodsFromMixins@asCBuilder@@IEAAXPEAUsClassDeclaration@@@Z@4HA 000000018007446f f    CIL library: CIL module
 0001:0007348f       ?dtor$1@?0??IncludeMethodsFromMixins@asCBuilder@@IEAAXPEAUsClassDeclaration@@@Z@4HA 000000018007448f f    CIL library: CIL module
 0001:000734a7       ?dtor$0@?0??CompileClasses@asCBuilder@@IEAAXXZ@4HA 00000001800744a7 f    CIL library: CIL module
 0001:000734c7       ?dtor$1@?0??CompileClasses@asCBuilder@@IEAAXXZ@4HA 00000001800744c7 f    CIL library: CIL module
 0001:000734e7       ?dtor$2@?0??CompileClasses@asCBuilder@@IEAAXXZ@4HA 00000001800744e7 f    CIL library: CIL module
 0001:00073507       ?dtor$21@?0??CompileClasses@asCBuilder@@IEAAXXZ@4HA 0000000180074507 f    CIL library: CIL module
 0001:00073527       ?dtor$22@?0??CompileClasses@asCBuilder@@IEAAXXZ@4HA 0000000180074527 f    CIL library: CIL module
 0001:00073547       ?dtor$3@?0??CompileClasses@asCBuilder@@IEAAXXZ@4HA 0000000180074547 f    CIL library: CIL module
 0001:00073567       ?dtor$4@?0??CompileClasses@asCBuilder@@IEAAXXZ@4HA 0000000180074567 f    CIL library: CIL module
 0001:00073587       ?dtor$5@?0??CompileClasses@asCBuilder@@IEAAXXZ@4HA 0000000180074587 f    CIL library: CIL module
 0001:000735a7       ?dtor$6@?0??CompileClasses@asCBuilder@@IEAAXXZ@4HA 00000001800745a7 f    CIL library: CIL module
 0001:000735c7       ?dtor$7@?0??CompileClasses@asCBuilder@@IEAAXXZ@4HA 00000001800745c7 f    CIL library: CIL module
 0001:000735e7       ?dtor$8@?0??CompileClasses@asCBuilder@@IEAAXXZ@4HA 00000001800745e7 f    CIL library: CIL module
 0001:00073607       ?dtor$9@?0??CompileClasses@asCBuilder@@IEAAXXZ@4HA 0000000180074607 f    CIL library: CIL module
 0001:00073627       ?dtor$10@?0??CompileClasses@asCBuilder@@IEAAXXZ@4HA 0000000180074627 f    CIL library: CIL module
 0001:00073647       ?dtor$11@?0??CompileClasses@asCBuilder@@IEAAXXZ@4HA 0000000180074647 f    CIL library: CIL module
 0001:00073667       ?dtor$12@?0??CompileClasses@asCBuilder@@IEAAXXZ@4HA 0000000180074667 f    CIL library: CIL module
 0001:00073687       ?dtor$13@?0??CompileClasses@asCBuilder@@IEAAXXZ@4HA 0000000180074687 f    CIL library: CIL module
 0001:000736a7       ?dtor$14@?0??CompileClasses@asCBuilder@@IEAAXXZ@4HA 00000001800746a7 f    CIL library: CIL module
 0001:000736c7       ?dtor$15@?0??CompileClasses@asCBuilder@@IEAAXXZ@4HA 00000001800746c7 f    CIL library: CIL module
 0001:000736e7       ?dtor$16@?0??CompileClasses@asCBuilder@@IEAAXXZ@4HA 00000001800746e7 f    CIL library: CIL module
 0001:00073707       ?dtor$17@?0??CompileClasses@asCBuilder@@IEAAXXZ@4HA 0000000180074707 f    CIL library: CIL module
 0001:00073727       ?dtor$18@?0??CompileClasses@asCBuilder@@IEAAXXZ@4HA 0000000180074727 f    CIL library: CIL module
 0001:00073747       ?dtor$19@?0??CompileClasses@asCBuilder@@IEAAXXZ@4HA 0000000180074747 f    CIL library: CIL module
 0001:00073767       ?dtor$20@?0??CompileClasses@asCBuilder@@IEAAXXZ@4HA 0000000180074767 f    CIL library: CIL module
 0001:0007377f       ?dtor$0@?0??RegisterNonTypesFromScript@asCBuilder@@IEAAXPEAVasCScriptNode@@PEAVasCScriptCode@@PEAUasSNameSpace@@@Z@4HA 000000018007477f f    CIL library: CIL module
 0001:0007379f       ?dtor$1@?0??RegisterNonTypesFromScript@asCBuilder@@IEAAXPEAVasCScriptNode@@PEAVasCScriptCode@@PEAUasSNameSpace@@@Z@4HA 000000018007479f f    CIL library: CIL module
 0001:000737bf       ?dtor$2@?0??RegisterNonTypesFromScript@asCBuilder@@IEAAXPEAVasCScriptNode@@PEAVasCScriptCode@@PEAUasSNameSpace@@@Z@4HA 00000001800747bf f    CIL library: CIL module
 0001:000737df       ?dtor$3@?0??RegisterNonTypesFromScript@asCBuilder@@IEAAXPEAVasCScriptNode@@PEAVasCScriptCode@@PEAUasSNameSpace@@@Z@4HA 00000001800747df f    CIL library: CIL module
 0001:000737f7       ?dtor$0@?0???0asCScriptEngine@@QEAA@XZ@4HA 00000001800747f7 f    CIL library: CIL module
 0001:00073817       ?dtor$1@?0???0asCScriptEngine@@QEAA@XZ@4HA 0000000180074817 f    CIL library: CIL module
 0001:00073837       ?dtor$2@?0???0asCScriptEngine@@QEAA@XZ@4HA 0000000180074837 f    CIL library: CIL module
 0001:00073867       ?dtor$3@?0???0asCScriptEngine@@QEAA@XZ@4HA 0000000180074867 f    CIL library: CIL module
 0001:00073897       ?dtor$4@?0???0asCScriptEngine@@QEAA@XZ@4HA 0000000180074897 f    CIL library: CIL module
 0001:000738c7       ?dtor$5@?0???0asCScriptEngine@@QEAA@XZ@4HA 00000001800748c7 f    CIL library: CIL module
 0001:000738f7       ?dtor$6@?0???0asCScriptEngine@@QEAA@XZ@4HA 00000001800748f7 f    CIL library: CIL module
 0001:00073927       ?dtor$7@?0???0asCScriptEngine@@QEAA@XZ@4HA 0000000180074927 f    CIL library: CIL module
 0001:00073957       ?dtor$8@?0???0asCScriptEngine@@QEAA@XZ@4HA 0000000180074957 f    CIL library: CIL module
 0001:00073987       ?dtor$9@?0???0asCScriptEngine@@QEAA@XZ@4HA 0000000180074987 f    CIL library: CIL module
 0001:000739b7       ?dtor$10@?0???0asCScriptEngine@@QEAA@XZ@4HA 00000001800749b7 f    CIL library: CIL module
 0001:000739e7       ?dtor$11@?0???0asCScriptEngine@@QEAA@XZ@4HA 00000001800749e7 f    CIL library: CIL module
 0001:00073a17       ?dtor$12@?0???0asCScriptEngine@@QEAA@XZ@4HA 0000000180074a17 f    CIL library: CIL module
 0001:00073a47       ?dtor$13@?0???0asCScriptEngine@@QEAA@XZ@4HA 0000000180074a47 f    CIL library: CIL module
 0001:00073a77       ?dtor$14@?0???0asCScriptEngine@@QEAA@XZ@4HA 0000000180074a77 f    CIL library: CIL module
 0001:00073aa7       ?dtor$15@?0???0asCScriptEngine@@QEAA@XZ@4HA 0000000180074aa7 f    CIL library: CIL module
 0001:00073ad7       ?dtor$16@?0???0asCScriptEngine@@QEAA@XZ@4HA 0000000180074ad7 f    CIL library: CIL module
 0001:00073b07       ?dtor$17@?0???0asCScriptEngine@@QEAA@XZ@4HA 0000000180074b07 f    CIL library: CIL module
 0001:00073b37       ?dtor$18@?0???0asCScriptEngine@@QEAA@XZ@4HA 0000000180074b37 f    CIL library: CIL module
 0001:00073b67       ?dtor$19@?0???0asCScriptEngine@@QEAA@XZ@4HA 0000000180074b67 f    CIL library: CIL module
 0001:00073b97       ?dtor$20@?0???0asCScriptEngine@@QEAA@XZ@4HA 0000000180074b97 f    CIL library: CIL module
 0001:00073bc7       ?dtor$21@?0???0asCScriptEngine@@QEAA@XZ@4HA 0000000180074bc7 f    CIL library: CIL module
 0001:00073bf7       ?dtor$22@?0???0asCScriptEngine@@QEAA@XZ@4HA 0000000180074bf7 f    CIL library: CIL module
 0001:00073c27       ?dtor$23@?0???0asCScriptEngine@@QEAA@XZ@4HA 0000000180074c27 f    CIL library: CIL module
 0001:00073c57       ?dtor$24@?0???0asCScriptEngine@@QEAA@XZ@4HA 0000000180074c57 f    CIL library: CIL module
 0001:00073c87       ?dtor$25@?0???0asCScriptEngine@@QEAA@XZ@4HA 0000000180074c87 f    CIL library: CIL module
 0001:00073cb7       ?dtor$26@?0???0asCScriptEngine@@QEAA@XZ@4HA 0000000180074cb7 f    CIL library: CIL module
 0001:00073ce7       ?dtor$27@?0???0asCScriptEngine@@QEAA@XZ@4HA 0000000180074ce7 f    CIL library: CIL module
 0001:00073d17       ?dtor$28@?0???0asCScriptEngine@@QEAA@XZ@4HA 0000000180074d17 f    CIL library: CIL module
 0001:00073d47       ?dtor$29@?0???0asCScriptEngine@@QEAA@XZ@4HA 0000000180074d47 f    CIL library: CIL module
 0001:00073d77       ?dtor$30@?0???0asCScriptEngine@@QEAA@XZ@4HA 0000000180074d77 f    CIL library: CIL module
 0001:00073da7       ?dtor$31@?0???0asCScriptEngine@@QEAA@XZ@4HA 0000000180074da7 f    CIL library: CIL module
 0001:00073dd7       ?dtor$32@?0???0asCScriptEngine@@QEAA@XZ@4HA 0000000180074dd7 f    CIL library: CIL module
 0001:00073e07       ?dtor$33@?0???0asCScriptEngine@@QEAA@XZ@4HA 0000000180074e07 f    CIL library: CIL module
 0001:00073e37       ?dtor$34@?0???0asCScriptEngine@@QEAA@XZ@4HA 0000000180074e37 f    CIL library: CIL module
 0001:00073e67       ?dtor$35@?0???0asCScriptEngine@@QEAA@XZ@4HA 0000000180074e67 f    CIL library: CIL module
 0001:00073e97       ?dtor$36@?0???0asCScriptEngine@@QEAA@XZ@4HA 0000000180074e97 f    CIL library: CIL module
 0001:00073ec7       ?dtor$37@?0???0asCScriptEngine@@QEAA@XZ@4HA 0000000180074ec7 f    CIL library: CIL module
 0001:00073ef7       ?dtor$38@?0???0asCScriptEngine@@QEAA@XZ@4HA 0000000180074ef7 f    CIL library: CIL module
 0001:00073f27       ?dtor$39@?0???0asCScriptEngine@@QEAA@XZ@4HA 0000000180074f27 f    CIL library: CIL module
 0001:00073f57       ?dtor$40@?0???0asCScriptEngine@@QEAA@XZ@4HA 0000000180074f57 f    CIL library: CIL module
 0001:00073f87       ?dtor$41@?0???0asCScriptEngine@@QEAA@XZ@4HA 0000000180074f87 f    CIL library: CIL module
 0001:00073fa9       ?dtor$0@?0??ReadObjectTypeDeclaration@asCReader@@IEAAXPEAVasCObjectType@@H@Z@4HA 0000000180074fa9 f    CIL library: CIL module
 0001:00073fc9       ?dtor$2@?0??ReadObjectTypeDeclaration@asCReader@@IEAAXPEAVasCObjectType@@H@Z@4HA 0000000180074fc9 f    CIL library: CIL module
 0001:00073fe9       ?dtor$3@?0??ReadObjectTypeDeclaration@asCReader@@IEAAXPEAVasCObjectType@@H@Z@4HA 0000000180074fe9 f    CIL library: CIL module
 0001:00074009       ?dtor$4@?0??ReadObjectTypeDeclaration@asCReader@@IEAAXPEAVasCObjectType@@H@Z@4HA 0000000180075009 f    CIL library: CIL module
 0001:00074029       ?dtor$5@?0??ReadObjectTypeDeclaration@asCReader@@IEAAXPEAVasCObjectType@@H@Z@4HA 0000000180075029 f    CIL library: CIL module
 0001:00074049       ?dtor$6@?0??ReadObjectTypeDeclaration@asCReader@@IEAAXPEAVasCObjectType@@H@Z@4HA 0000000180075049 f    CIL library: CIL module
 0001:00074069       ?dtor$7@?0??ReadObjectTypeDeclaration@asCReader@@IEAAXPEAVasCObjectType@@H@Z@4HA 0000000180075069 f    CIL library: CIL module
 0001:00074089       ?dtor$8@?0??ReadObjectTypeDeclaration@asCReader@@IEAAXPEAVasCObjectType@@H@Z@4HA 0000000180075089 f    CIL library: CIL module
 0001:000740a9       ?dtor$9@?0??ReadObjectTypeDeclaration@asCReader@@IEAAXPEAVasCObjectType@@H@Z@4HA 00000001800750a9 f    CIL library: CIL module
 0001:000740c9       ?dtor$10@?0??ReadObjectTypeDeclaration@asCReader@@IEAAXPEAVasCObjectType@@H@Z@4HA 00000001800750c9 f    CIL library: CIL module
 0001:000740e1       ?dtor$11@?0??ReadInner@asCReader@@IEAAHXZ@4HA 00000001800750e1 f    CIL library: CIL module
 0001:00074101       ?dtor$12@?0??ReadInner@asCReader@@IEAAHXZ@4HA 0000000180075101 f    CIL library: CIL module
 0001:00074121       ?dtor$29@?0??ReadInner@asCReader@@IEAAHXZ@4HA 0000000180075121 f    CIL library: CIL module
 0001:00074141       ?dtor$30@?0??ReadInner@asCReader@@IEAAHXZ@4HA 0000000180075141 f    CIL library: CIL module
 0001:00074161       ?dtor$4@?0??ReadInner@asCReader@@IEAAHXZ@4HA 0000000180075161 f    CIL library: CIL module
 0001:00074181       ?dtor$5@?0??ReadInner@asCReader@@IEAAHXZ@4HA 0000000180075181 f    CIL library: CIL module
 0001:000741a1       ?dtor$6@?0??ReadInner@asCReader@@IEAAHXZ@4HA 00000001800751a1 f    CIL library: CIL module
 0001:000741b9       ?dtor$0@?0??ParseAssignOperator@asCParser@@IEAAPEAVasCScriptNode@@XZ@4HA 00000001800751b9 f    CIL library: CIL module
 0001:000741b9       ?dtor$0@?0??ParseMixin@asCParser@@IEAAPEAVasCScriptNode@@XZ@4HA 00000001800751b9 f    CIL library: CIL module
 0001:000741b9       ?dtor$0@?0??ParsePropertyDeclaration@asCParser@@QEAAHPEAVasCScriptCode@@@Z@4HA 00000001800751b9 f    CIL library: CIL module
 0001:000741b9       ?dtor$0@?0??ParseToken@asCParser@@IEAAPEAVasCScriptNode@@H@Z@4HA 00000001800751b9 f    CIL library: CIL module
 0001:000741b9       ?dtor$0@?0??ParseOneOf@asCParser@@IEAAPEAVasCScriptNode@@PEAHH@Z@4HA 00000001800751b9 f    CIL library: CIL module
 0001:000741b9       ?dtor$0@?0??ParseCondition@asCParser@@IEAAPEAVasCScriptNode@@XZ@4HA 00000001800751b9 f    CIL library: CIL module
 0001:000741b9       ?dtor$0@?0??ParseRealType@asCParser@@IEAAPEAVasCScriptNode@@XZ@4HA 00000001800751b9 f    CIL library: CIL module
 0001:000741b9       ?dtor$0@?0??ParseIdentifier@asCParser@@IEAAPEAVasCScriptNode@@XZ@4HA 00000001800751b9 f    CIL library: CIL module
 0001:000741b9       ?dtor$0@?0??ParseDeclaration@asCParser@@IEAAPEAVasCScriptNode@@_N0@Z@4HA 00000001800751b9 f    CIL library: CIL module
 0001:000741b9       ?dtor$0@?0??ParseExpressionStatement@asCParser@@IEAAPEAVasCScriptNode@@XZ@4HA 00000001800751b9 f    CIL library: CIL module
 0001:000741b9       ?dtor$0@?0??ParseInterfaceMethod@asCParser@@IEAAPEAVasCScriptNode@@XZ@4HA 00000001800751b9 f    CIL library: CIL module
 0001:000741d1       ?dtor$0@?0??LoadByteCode@asCModule@@UEAAHPEAVasIBinaryStream@@PEA_N@Z@4HA 00000001800751d1 f    CIL library: CIL module
 0001:000741e9       ?dtor$0@?0??CompileOperatorOnHandles@asCCompiler@@IEAAXPEAVasCScriptNode@@PEAUasSExprContext@@11@Z@4HA 00000001800751e9 f    CIL library: CIL module
 0001:00074209       ?dtor$1@?0??CompileOperatorOnHandles@asCCompiler@@IEAAXPEAVasCScriptNode@@PEAUasSExprContext@@11@Z@4HA 0000000180075209 f    CIL library: CIL module
 0001:00074229       ?dtor$2@?0??CompileOperatorOnHandles@asCCompiler@@IEAAXPEAVasCScriptNode@@PEAUasSExprContext@@11@Z@4HA 0000000180075229 f    CIL library: CIL module
 0001:00074249       ?dtor$3@?0??CompileOperatorOnHandles@asCCompiler@@IEAAXPEAVasCScriptNode@@PEAUasSExprContext@@11@Z@4HA 0000000180075249 f    CIL library: CIL module
 0001:00074269       ?dtor$4@?0??CompileOperatorOnHandles@asCCompiler@@IEAAXPEAVasCScriptNode@@PEAUasSExprContext@@11@Z@4HA 0000000180075269 f    CIL library: CIL module
 0001:00074289       ?dtor$5@?0??CompileOperatorOnHandles@asCCompiler@@IEAAXPEAVasCScriptNode@@PEAUasSExprContext@@11@Z@4HA 0000000180075289 f    CIL library: CIL module
 0001:000742a9       ?dtor$6@?0??CompileOperatorOnHandles@asCCompiler@@IEAAXPEAVasCScriptNode@@PEAUasSExprContext@@11@Z@4HA 00000001800752a9 f    CIL library: CIL module
 0001:000742c9       ?dtor$7@?0??CompileOperatorOnHandles@asCCompiler@@IEAAXPEAVasCScriptNode@@PEAUasSExprContext@@11@Z@4HA 00000001800752c9 f    CIL library: CIL module
 0001:000742e9       ?dtor$8@?0??CompileOperatorOnHandles@asCCompiler@@IEAAXPEAVasCScriptNode@@PEAUasSExprContext@@11@Z@4HA 00000001800752e9 f    CIL library: CIL module
 0001:00074309       ?dtor$9@?0??CompileOperatorOnHandles@asCCompiler@@IEAAXPEAVasCScriptNode@@PEAUasSExprContext@@11@Z@4HA 0000000180075309 f    CIL library: CIL module
 0001:00074329       ?dtor$10@?0??CompileOperatorOnHandles@asCCompiler@@IEAAXPEAVasCScriptNode@@PEAUasSExprContext@@11@Z@4HA 0000000180075329 f    CIL library: CIL module
 0001:00074349       ?dtor$11@?0??CompileOperatorOnHandles@asCCompiler@@IEAAXPEAVasCScriptNode@@PEAUasSExprContext@@11@Z@4HA 0000000180075349 f    CIL library: CIL module
 0001:00074361       ?dtor$0@?0??CompileOperator@asCCompiler@@IEAAHPEAVasCScriptNode@@PEAUasSExprContext@@11@Z@4HA 0000000180075361 f    CIL library: CIL module
 0001:00074381       ?dtor$1@?0??CompileOperator@asCCompiler@@IEAAHPEAVasCScriptNode@@PEAUasSExprContext@@11@Z@4HA 0000000180075381 f    CIL library: CIL module
 0001:000743a1       ?dtor$2@?0??CompileOperator@asCCompiler@@IEAAHPEAVasCScriptNode@@PEAUasSExprContext@@11@Z@4HA 00000001800753a1 f    CIL library: CIL module
 0001:000743c1       ?dtor$3@?0??CompileOperator@asCCompiler@@IEAAHPEAVasCScriptNode@@PEAUasSExprContext@@11@Z@4HA 00000001800753c1 f    CIL library: CIL module
 0001:000743e1       ?dtor$4@?0??CompileOperator@asCCompiler@@IEAAHPEAVasCScriptNode@@PEAUasSExprContext@@11@Z@4HA 00000001800753e1 f    CIL library: CIL module
 0001:000743f9       ?dtor$0@?0??DoAssignment@asCCompiler@@IEAAHPEAUasSExprContext@@00PEAVasCScriptNode@@1H1@Z@4HA 00000001800753f9 f    CIL library: CIL module
 0001:00074419       ?dtor$1@?0??DoAssignment@asCCompiler@@IEAAHPEAUasSExprContext@@00PEAVasCScriptNode@@1H1@Z@4HA 0000000180075419 f    CIL library: CIL module
 0001:00074439       ?dtor$2@?0??DoAssignment@asCCompiler@@IEAAHPEAUasSExprContext@@00PEAVasCScriptNode@@1H1@Z@4HA 0000000180075439 f    CIL library: CIL module
 0001:00074459       ?dtor$3@?0??DoAssignment@asCCompiler@@IEAAHPEAUasSExprContext@@00PEAVasCScriptNode@@1H1@Z@4HA 0000000180075459 f    CIL library: CIL module
 0001:00074479       ?dtor$4@?0??DoAssignment@asCCompiler@@IEAAHPEAUasSExprContext@@00PEAVasCScriptNode@@1H1@Z@4HA 0000000180075479 f    CIL library: CIL module
 0001:00074499       ?dtor$5@?0??DoAssignment@asCCompiler@@IEAAHPEAUasSExprContext@@00PEAVasCScriptNode@@1H1@Z@4HA 0000000180075499 f    CIL library: CIL module
 0001:000744b9       ?dtor$6@?0??DoAssignment@asCCompiler@@IEAAHPEAUasSExprContext@@00PEAVasCScriptNode@@1H1@Z@4HA 00000001800754b9 f    CIL library: CIL module
 0001:000744d9       ?dtor$7@?0??DoAssignment@asCCompiler@@IEAAHPEAUasSExprContext@@00PEAVasCScriptNode@@1H1@Z@4HA 00000001800754d9 f    CIL library: CIL module
 0001:000744f9       ?dtor$8@?0??DoAssignment@asCCompiler@@IEAAHPEAUasSExprContext@@00PEAVasCScriptNode@@1H1@Z@4HA 00000001800754f9 f    CIL library: CIL module
 0001:00074519       ?dtor$9@?0??DoAssignment@asCCompiler@@IEAAHPEAUasSExprContext@@00PEAVasCScriptNode@@1H1@Z@4HA 0000000180075519 f    CIL library: CIL module
 0001:00074539       ?dtor$10@?0??DoAssignment@asCCompiler@@IEAAHPEAUasSExprContext@@00PEAVasCScriptNode@@1H1@Z@4HA 0000000180075539 f    CIL library: CIL module
 0001:00074559       ?dtor$11@?0??DoAssignment@asCCompiler@@IEAAHPEAUasSExprContext@@00PEAVasCScriptNode@@1H1@Z@4HA 0000000180075559 f    CIL library: CIL module
 0001:00074579       ?dtor$12@?0??DoAssignment@asCCompiler@@IEAAHPEAUasSExprContext@@00PEAVasCScriptNode@@1H1@Z@4HA 0000000180075579 f    CIL library: CIL module
 0001:00074599       ?dtor$13@?0??DoAssignment@asCCompiler@@IEAAHPEAUasSExprContext@@00PEAVasCScriptNode@@1H1@Z@4HA 0000000180075599 f    CIL library: CIL module
 0001:000745b9       ?dtor$14@?0??DoAssignment@asCCompiler@@IEAAHPEAUasSExprContext@@00PEAVasCScriptNode@@1H1@Z@4HA 00000001800755b9 f    CIL library: CIL module
 0001:000745d9       ?dtor$15@?0??DoAssignment@asCCompiler@@IEAAHPEAUasSExprContext@@00PEAVasCScriptNode@@1H1@Z@4HA 00000001800755d9 f    CIL library: CIL module
 0001:000745f9       ?dtor$16@?0??DoAssignment@asCCompiler@@IEAAHPEAUasSExprContext@@00PEAVasCScriptNode@@1H1@Z@4HA 00000001800755f9 f    CIL library: CIL module
 0001:00074619       ?dtor$17@?0??DoAssignment@asCCompiler@@IEAAHPEAUasSExprContext@@00PEAVasCScriptNode@@1H1@Z@4HA 0000000180075619 f    CIL library: CIL module
 0001:00074639       ?dtor$18@?0??DoAssignment@asCCompiler@@IEAAHPEAUasSExprContext@@00PEAVasCScriptNode@@1H1@Z@4HA 0000000180075639 f    CIL library: CIL module
 0001:00074659       ?dtor$19@?0??DoAssignment@asCCompiler@@IEAAHPEAUasSExprContext@@00PEAVasCScriptNode@@1H1@Z@4HA 0000000180075659 f    CIL library: CIL module
 0001:00074679       ?dtor$20@?0??DoAssignment@asCCompiler@@IEAAHPEAUasSExprContext@@00PEAVasCScriptNode@@1H1@Z@4HA 0000000180075679 f    CIL library: CIL module
 0001:00074699       ?dtor$21@?0??DoAssignment@asCCompiler@@IEAAHPEAUasSExprContext@@00PEAVasCScriptNode@@1H1@Z@4HA 0000000180075699 f    CIL library: CIL module
 0001:000746b1       ?dtor$0@?0??CompileMemberInitialization@asCCompiler@@IEAAXPEAVasCByteCode@@_N@Z@4HA 00000001800756b1 f    CIL library: CIL module
 0001:000746d1       ?dtor$1@?0??CompileMemberInitialization@asCCompiler@@IEAAXPEAVasCByteCode@@_N@Z@4HA 00000001800756d1 f    CIL library: CIL module
 0001:000746e9       ?dtor$0@?0??GetPropertyDeclaration@asCObjectType@@UEBAPEBDI_N@Z@4HA 00000001800756e9 f    CIL library: CIL module
 0001:000746e9       ?dtor$0@?0??GetImportedFunctionDeclaration@asCModule@@UEBAPEBDI@Z@4HA 00000001800756e9 f    CIL library: CIL module
 0001:000746e9       ?dtor$0@?0??BindAllImportedFunctions@asCModule@@UEAAHXZ@4HA 00000001800756e9 f    CIL library: CIL module
 0001:000746e9       ?dtor$0@?0??GetGlobalPropertyIndexByName@asCScriptEngine@@UEBAHPEBD@Z@4HA 00000001800756e9 f    CIL library: CIL module
 0001:000746e9       ?dtor$0@?0??GetGlobalVarIndexByName@asCModule@@UEBAHPEBD@Z@4HA 00000001800756e9 f    CIL library: CIL module
 0001:000746e9       ?dtor$0@?0??GetFunctionByName@asCModule@@UEBAPEAVasIScriptFunction@@PEBD@Z@4HA 00000001800756e9 f    CIL library: CIL module
 0001:000746e9       ?dtor$0@?0??ProcessHeredocStringConstant@asCCompiler@@IEAAXAEAVasCString@@PEAVasCScriptNode@@@Z@4HA 00000001800756e9 f    CIL library: CIL module
 0001:000746e9       ?dtor$0@?0??Build@asCBuilder@@QEAAHXZ@4HA 00000001800756e9 f    CIL library: CIL module
 0001:000746e9       ?dtor$0@?0??ReadObjectProperty@asCReader@@IEAAXPEAVasCObjectType@@@Z@4HA 00000001800756e9 f    CIL library: CIL module
 0001:000746e9       ?dtor$1@?0??ReadFunctionSignature@asCReader@@IEAAXPEAVasCScriptFunction@@@Z@4HA 00000001800756e9 f    CIL library: CIL module
 0001:000746e9       ?dtor$0@?0??GetFirstIndex@?$asCSymbolTable@VasCGlobalProperty@@@@QEBAHPEBUasSNameSpace@@AEBVasCString@@@Z@4HA 00000001800756e9 f    CIL library: CIL module
 0001:000746e9       ?dtor$0@?0??GetFirst@?$asCSymbolTable@UsGlobalVariableDescription@@@@QEAAPEAUsGlobalVariableDescription@@PEBUasSNameSpace@@AEBVasCString@@@Z@4HA 00000001800756e9 f    CIL library: CIL module
 0001:000746e9       ?dtor$0@?0??IsVariableInitialized@asCCompiler@@IEAA_NPEAUasCTypeInfo@@PEAVasCScriptNode@@@Z@4HA 00000001800756e9 f    CIL library: CIL module
 0001:000746e9       ?dtor$0@?0??Erase@?$asCSymbolTable@VasCScriptFunction@@@@QEAA_NI@Z@4HA 00000001800756e9 f    CIL library: CIL module
 0001:000746e9       ?dtor$0@?0??CompileDefaultConstructor@asCCompiler@@QEAAHPEAVasCBuilder@@PEAVasCScriptCode@@PEAVasCScriptNode@@PEAVasCScriptFunction@@PEAUsClassDeclaration@@@Z@4HA 00000001800756e9 f    CIL library: CIL module
 0001:000746e9       ?dtor$0@?0??GetTypeDeclaration@asCScriptEngine@@UEBAPEBDH_N@Z@4HA 00000001800756e9 f    CIL library: CIL module
 0001:000746e9       ?dtor$0@?0??Erase@?$asCSymbolTable@VasCGlobalProperty@@@@QEAA_NI@Z@4HA 00000001800756e9 f    CIL library: CIL module
 0001:000746e9       ?dtor$0@?0??GetDeclaration@asCScriptFunction@@UEBAPEBD_N0@Z@4HA 00000001800756e9 f    CIL library: CIL module
 0001:000746e9       ?dtor$0@?0??GetIndexes@?$asCSymbolTable@VasCScriptFunction@@@@QEBAAEBV?$asCArray@I@@PEBUasSNameSpace@@AEBVasCString@@@Z@4HA 00000001800756e9 f    CIL library: CIL module
 0001:000746e9       ?dtor$0@?0??ValidateDefaultArgs@asCBuilder@@IEAAHPEAVasCScriptCode@@PEAVasCScriptNode@@PEAVasCScriptFunction@@@Z@4HA 00000001800756e9 f    CIL library: CIL module
 0001:000746e9       ?dtor$0@?0??GetFunctionDescriptions@asCBuilder@@IEAAXPEBDAEAV?$asCArray@H@@PEAUasSNameSpace@@@Z@4HA 00000001800756e9 f    CIL library: CIL module
 0001:00074701       ?dtor$0@?0??ProcessDeferredParams@asCCompiler@@IEAAXPEAUasSExprContext@@@Z@4HA 0000000180075701 f    CIL library: CIL module
 0001:00074721       ?dtor$1@?0??ProcessDeferredParams@asCCompiler@@IEAAXPEAUasSExprContext@@@Z@4HA 0000000180075721 f    CIL library: CIL module
 0001:00074741       ?dtor$2@?0??ProcessDeferredParams@asCCompiler@@IEAAXPEAUasSExprContext@@@Z@4HA 0000000180075741 f    CIL library: CIL module
 0001:0007475c       ?dtor$0@?0??ParseScripts@asCBuilder@@IEAAXXZ@4HA 000000018007575c f    CIL library: CIL module
 0001:00074774       ?dtor$0@?0??ParseTemplateDecl@asCParser@@QEAAHPEAVasCScriptCode@@@Z@4HA 0000000180075774 f    CIL library: CIL module
 0001:00074774       ?dtor$0@?0??ParseTypedef@asCParser@@IEAAPEAVasCScriptNode@@XZ@4HA 0000000180075774 f    CIL library: CIL module
 0001:00074774       ?dtor$0@?0??ParseType@asCParser@@IEAAPEAVasCScriptNode@@_N0@Z@4HA 0000000180075774 f    CIL library: CIL module
 0001:00074774       ?dtor$0@?0??ParseIf@asCParser@@IEAAPEAVasCScriptNode@@XZ@4HA 0000000180075774 f    CIL library: CIL module
 0001:00074774       ?dtor$0@?0??ParseFor@asCParser@@IEAAPEAVasCScriptNode@@XZ@4HA 0000000180075774 f    CIL library: CIL module
 0001:00074774       ?dtor$0@?0??ParseInitList@asCParser@@IEAAPEAVasCScriptNode@@XZ@4HA 0000000180075774 f    CIL library: CIL module
 0001:00074774       ?dtor$0@?0??ParseWhile@asCParser@@IEAAPEAVasCScriptNode@@XZ@4HA 0000000180075774 f    CIL library: CIL module
 0001:00074774       ?dtor$0@?0??ParseStatementBlock@asCParser@@IEAAPEAVasCScriptNode@@XZ@4HA 0000000180075774 f    CIL library: CIL module
 0001:00074794       ?dtor$1@?0??ParseType@asCParser@@IEAAPEAVasCScriptNode@@_N0@Z@4HA 0000000180075794 f    CIL library: CIL module
 0001:00074794       ?dtor$1@?0??ParseTemplateDecl@asCParser@@QEAAHPEAVasCScriptCode@@@Z@4HA 0000000180075794 f    CIL library: CIL module
 0001:00074794       ?dtor$1@?0??ParseWhile@asCParser@@IEAAPEAVasCScriptNode@@XZ@4HA 0000000180075794 f    CIL library: CIL module
 0001:00074794       ?dtor$1@?0??ParseInitList@asCParser@@IEAAPEAVasCScriptNode@@XZ@4HA 0000000180075794 f    CIL library: CIL module
 0001:00074794       ?dtor$1@?0??ParseFor@asCParser@@IEAAPEAVasCScriptNode@@XZ@4HA 0000000180075794 f    CIL library: CIL module
 0001:00074794       ?dtor$1@?0??ParseStatementBlock@asCParser@@IEAAPEAVasCScriptNode@@XZ@4HA 0000000180075794 f    CIL library: CIL module
 0001:00074794       ?dtor$1@?0??ParseTypedef@asCParser@@IEAAPEAVasCScriptNode@@XZ@4HA 0000000180075794 f    CIL library: CIL module
 0001:00074794       ?dtor$1@?0??ParseIf@asCParser@@IEAAPEAVasCScriptNode@@XZ@4HA 0000000180075794 f    CIL library: CIL module
 0001:000747b4       ?dtor$2@?0??ParseWhile@asCParser@@IEAAPEAVasCScriptNode@@XZ@4HA 00000001800757b4 f    CIL library: CIL module
 0001:000747b4       ?dtor$2@?0??ParseInitList@asCParser@@IEAAPEAVasCScriptNode@@XZ@4HA 00000001800757b4 f    CIL library: CIL module
 0001:000747b4       ?dtor$2@?0??ParseTemplateDecl@asCParser@@QEAAHPEAVasCScriptCode@@@Z@4HA 00000001800757b4 f    CIL library: CIL module
 0001:000747b4       ?dtor$2@?0??ParseFor@asCParser@@IEAAPEAVasCScriptNode@@XZ@4HA 00000001800757b4 f    CIL library: CIL module
 0001:000747b4       ?dtor$2@?0??ParseTypedef@asCParser@@IEAAPEAVasCScriptNode@@XZ@4HA 00000001800757b4 f    CIL library: CIL module
 0001:000747b4       ?dtor$2@?0??ParseType@asCParser@@IEAAPEAVasCScriptNode@@_N0@Z@4HA 00000001800757b4 f    CIL library: CIL module
 0001:000747b4       ?dtor$2@?0??ParseStatementBlock@asCParser@@IEAAPEAVasCScriptNode@@XZ@4HA 00000001800757b4 f    CIL library: CIL module
 0001:000747b4       ?dtor$2@?0??ParseIf@asCParser@@IEAAPEAVasCScriptNode@@XZ@4HA 00000001800757b4 f    CIL library: CIL module
 0001:000747cc       ?dtor$0@?0??ParseSwitch@asCParser@@IEAAPEAVasCScriptNode@@XZ@4HA 00000001800757cc f    CIL library: CIL module
 0001:000747ec       ?dtor$1@?0??ParseSwitch@asCParser@@IEAAPEAVasCScriptNode@@XZ@4HA 00000001800757ec f    CIL library: CIL module
 0001:0007480c       ?dtor$2@?0??ParseSwitch@asCParser@@IEAAPEAVasCScriptNode@@XZ@4HA 000000018007580c f    CIL library: CIL module
 0001:0007482c       ?dtor$3@?0??ParseSwitch@asCParser@@IEAAPEAVasCScriptNode@@XZ@4HA 000000018007582c f    CIL library: CIL module
 0001:0007484c       ?dtor$4@?0??ParseSwitch@asCParser@@IEAAPEAVasCScriptNode@@XZ@4HA 000000018007584c f    CIL library: CIL module
 0001:0007486c       ?dtor$5@?0??ParseSwitch@asCParser@@IEAAPEAVasCScriptNode@@XZ@4HA 000000018007586c f    CIL library: CIL module
 0001:00074884       ?dtor$0@?0??PerformFunctionCall@asCCompiler@@IEAAXHPEAUasSExprContext@@_NPEAV?$asCArray@PEAUasSExprContext@@@@PEAVasCObjectType@@1HH@Z@4HA 0000000180075884 f    CIL library: CIL module
 0001:000748a4       ?dtor$1@?0??PerformFunctionCall@asCCompiler@@IEAAXHPEAUasSExprContext@@_NPEAV?$asCArray@PEAUasSExprContext@@@@PEAVasCObjectType@@1HH@Z@4HA 00000001800758a4 f    CIL library: CIL module
 0001:000748c4       ?dtor$2@?0??PerformFunctionCall@asCCompiler@@IEAAXHPEAUasSExprContext@@_NPEAV?$asCArray@PEAUasSExprContext@@@@PEAVasCObjectType@@1HH@Z@4HA 00000001800758c4 f    CIL library: CIL module
 0001:000748e4       ?dtor$3@?0??PerformFunctionCall@asCCompiler@@IEAAXHPEAUasSExprContext@@_NPEAV?$asCArray@PEAUasSExprContext@@@@PEAVasCObjectType@@1HH@Z@4HA 00000001800758e4 f    CIL library: CIL module
 0001:000748ff       ?dtor$0@?0??ImplicitConvPrimitiveToObject@asCCompiler@@IEAAIPEAUasSExprContext@@AEBVasCDataType@@PEAVasCScriptNode@@W4EImplicitConv@@_N4@Z@4HA 00000001800758ff f    CIL library: CIL module
 0001:0007491f       ?dtor$1@?0??ImplicitConvPrimitiveToObject@asCCompiler@@IEAAIPEAUasSExprContext@@AEBVasCDataType@@PEAVasCScriptNode@@W4EImplicitConv@@_N4@Z@4HA 000000018007591f f    CIL library: CIL module
 0001:0007493f       ?dtor$2@?0??ImplicitConvPrimitiveToObject@asCCompiler@@IEAAIPEAUasSExprContext@@AEBVasCDataType@@PEAVasCScriptNode@@W4EImplicitConv@@_N4@Z@4HA 000000018007593f f    CIL library: CIL module
 0001:0007495f       ?dtor$3@?0??ImplicitConvPrimitiveToObject@asCCompiler@@IEAAIPEAUasSExprContext@@AEBVasCDataType@@PEAVasCScriptNode@@W4EImplicitConv@@_N4@Z@4HA 000000018007595f f    CIL library: CIL module
 0001:0007497a       ?dtor$0@?0??ImplicitConvObjectValue@asCCompiler@@IEAAIPEAUasSExprContext@@AEBVasCDataType@@PEAVasCScriptNode@@W4EImplicitConv@@_N@Z@4HA 000000018007597a f    CIL library: CIL module
 0001:00074992       ?dtor$0@?0??ImplicitConvObjectToPrimitive@asCCompiler@@IEAAIPEAUasSExprContext@@AEBVasCDataType@@PEAVasCScriptNode@@W4EImplicitConv@@_N@Z@4HA 0000000180075992 f    CIL library: CIL module
 0001:000749b2       ?dtor$1@?0??ImplicitConvObjectToPrimitive@asCCompiler@@IEAAIPEAUasSExprContext@@AEBVasCDataType@@PEAVasCScriptNode@@W4EImplicitConv@@_N@Z@4HA 00000001800759b2 f    CIL library: CIL module
 0001:000749d2       ?dtor$2@?0??ImplicitConvObjectToPrimitive@asCCompiler@@IEAAIPEAUasSExprContext@@AEBVasCDataType@@PEAVasCScriptNode@@W4EImplicitConv@@_N@Z@4HA 00000001800759d2 f    CIL library: CIL module
 0001:000749f2       ?dtor$3@?0??ImplicitConvObjectToPrimitive@asCCompiler@@IEAAIPEAUasSExprContext@@AEBVasCDataType@@PEAVasCScriptNode@@W4EImplicitConv@@_N@Z@4HA 00000001800759f2 f    CIL library: CIL module
 0001:00074a12       ?dtor$4@?0??ImplicitConvObjectToPrimitive@asCCompiler@@IEAAIPEAUasSExprContext@@AEBVasCDataType@@PEAVasCScriptNode@@W4EImplicitConv@@_N@Z@4HA 0000000180075a12 f    CIL library: CIL module
 0001:00074a32       ?dtor$5@?0??ImplicitConvObjectToPrimitive@asCCompiler@@IEAAIPEAUasSExprContext@@AEBVasCDataType@@PEAVasCScriptNode@@W4EImplicitConv@@_N@Z@4HA 0000000180075a32 f    CIL library: CIL module
 0001:00074a52       ?dtor$6@?0??ImplicitConvObjectToPrimitive@asCCompiler@@IEAAIPEAUasSExprContext@@AEBVasCDataType@@PEAVasCScriptNode@@W4EImplicitConv@@_N@Z@4HA 0000000180075a52 f    CIL library: CIL module
 0001:00074a6a       ?dtor$0@?0??ImplicitConvPrimitiveToPrimitive@asCCompiler@@IEAAIPEAUasSExprContext@@AEBVasCDataType@@PEAVasCScriptNode@@W4EImplicitConv@@_N@Z@4HA 0000000180075a6a f    CIL library: CIL module
 0001:00074a8a       ?dtor$1@?0??ImplicitConvPrimitiveToPrimitive@asCCompiler@@IEAAIPEAUasSExprContext@@AEBVasCDataType@@PEAVasCScriptNode@@W4EImplicitConv@@_N@Z@4HA 0000000180075a8a f    CIL library: CIL module
 0001:00074aaa       ?dtor$2@?0??ImplicitConvPrimitiveToPrimitive@asCCompiler@@IEAAIPEAUasSExprContext@@AEBVasCDataType@@PEAVasCScriptNode@@W4EImplicitConv@@_N@Z@4HA 0000000180075aaa f    CIL library: CIL module
 0001:00074aca       ?dtor$3@?0??ImplicitConvPrimitiveToPrimitive@asCCompiler@@IEAAIPEAUasSExprContext@@AEBVasCDataType@@PEAVasCScriptNode@@W4EImplicitConv@@_N@Z@4HA 0000000180075aca f    CIL library: CIL module
 0001:00074aea       ?dtor$4@?0??ImplicitConvPrimitiveToPrimitive@asCCompiler@@IEAAIPEAUasSExprContext@@AEBVasCDataType@@PEAVasCScriptNode@@W4EImplicitConv@@_N@Z@4HA 0000000180075aea f    CIL library: CIL module
 0001:00074b0a       ?dtor$5@?0??ImplicitConvPrimitiveToPrimitive@asCCompiler@@IEAAIPEAUasSExprContext@@AEBVasCDataType@@PEAVasCScriptNode@@W4EImplicitConv@@_N@Z@4HA 0000000180075b0a f    CIL library: CIL module
 0001:00074b2a       ?dtor$6@?0??ImplicitConvPrimitiveToPrimitive@asCCompiler@@IEAAIPEAUasSExprContext@@AEBVasCDataType@@PEAVasCScriptNode@@W4EImplicitConv@@_N@Z@4HA 0000000180075b2a f    CIL library: CIL module
 0001:00074b4a       ?dtor$7@?0??ImplicitConvPrimitiveToPrimitive@asCCompiler@@IEAAIPEAUasSExprContext@@AEBVasCDataType@@PEAVasCScriptNode@@W4EImplicitConv@@_N@Z@4HA 0000000180075b4a f    CIL library: CIL module
 0001:00074b62       ?dtor$0@?0??CompileRefCast@asCCompiler@@IEAA_NPEAUasSExprContext@@AEBVasCDataType@@_NPEAVasCScriptNode@@2@Z@4HA 0000000180075b62 f    CIL library: CIL module
 0001:00074b82       ?dtor$1@?0??CompileRefCast@asCCompiler@@IEAA_NPEAUasSExprContext@@AEBVasCDataType@@_NPEAVasCScriptNode@@2@Z@4HA 0000000180075b82 f    CIL library: CIL module
 0001:00074ba2       ?dtor$2@?0??CompileRefCast@asCCompiler@@IEAA_NPEAUasSExprContext@@AEBVasCDataType@@_NPEAVasCScriptNode@@2@Z@4HA 0000000180075ba2 f    CIL library: CIL module
 0001:00074bc2       ?dtor$3@?0??CompileRefCast@asCCompiler@@IEAA_NPEAUasSExprContext@@AEBVasCDataType@@_NPEAVasCScriptNode@@2@Z@4HA 0000000180075bc2 f    CIL library: CIL module
 0001:00074bdd       ?dtor$0@?0??ImplicitConvObjectRef@asCCompiler@@IEAAIPEAUasSExprContext@@AEBVasCDataType@@PEAVasCScriptNode@@W4EImplicitConv@@_N@Z@4HA 0000000180075bdd f    CIL library: CIL module
 0001:00074bfd       ?dtor$1@?0??ImplicitConvObjectRef@asCCompiler@@IEAAIPEAUasSExprContext@@AEBVasCDataType@@PEAVasCScriptNode@@W4EImplicitConv@@_N@Z@4HA 0000000180075bfd f    CIL library: CIL module
 0001:00074c1d       ?dtor$2@?0??ImplicitConvObjectRef@asCCompiler@@IEAAIPEAUasSExprContext@@AEBVasCDataType@@PEAVasCScriptNode@@W4EImplicitConv@@_N@Z@4HA 0000000180075c1d f    CIL library: CIL module
 0001:00074c3d       ?dtor$4@?0??ImplicitConvObjectRef@asCCompiler@@IEAAIPEAUasSExprContext@@AEBVasCDataType@@PEAVasCScriptNode@@W4EImplicitConv@@_N@Z@4HA 0000000180075c3d f    CIL library: CIL module
 0001:00074c5d       ?dtor$5@?0??ImplicitConvObjectRef@asCCompiler@@IEAAIPEAUasSExprContext@@AEBVasCDataType@@PEAVasCScriptNode@@W4EImplicitConv@@_N@Z@4HA 0000000180075c5d f    CIL library: CIL module
 0001:00074c75       ?dtor$0@?0??ImplicitConvObjectToObject@asCCompiler@@IEAAIPEAUasSExprContext@@AEBVasCDataType@@PEAVasCScriptNode@@W4EImplicitConv@@_N4@Z@4HA 0000000180075c75 f    CIL library: CIL module
 0001:00074c95       ?dtor$1@?0??ImplicitConvObjectToObject@asCCompiler@@IEAAIPEAUasSExprContext@@AEBVasCDataType@@PEAVasCScriptNode@@W4EImplicitConv@@_N4@Z@4HA 0000000180075c95 f    CIL library: CIL module
 0001:00074cb5       ?dtor$2@?0??ImplicitConvObjectToObject@asCCompiler@@IEAAIPEAUasSExprContext@@AEBVasCDataType@@PEAVasCScriptNode@@W4EImplicitConv@@_N4@Z@4HA 0000000180075cb5 f    CIL library: CIL module
 0001:00074cd5       ?dtor$3@?0??ImplicitConvObjectToObject@asCCompiler@@IEAAIPEAUasSExprContext@@AEBVasCDataType@@PEAVasCScriptNode@@W4EImplicitConv@@_N4@Z@4HA 0000000180075cd5 f    CIL library: CIL module
 0001:00074cf5       ?dtor$4@?0??ImplicitConvObjectToObject@asCCompiler@@IEAAIPEAUasSExprContext@@AEBVasCDataType@@PEAVasCScriptNode@@W4EImplicitConv@@_N4@Z@4HA 0000000180075cf5 f    CIL library: CIL module
 0001:00074d15       ?dtor$5@?0??ImplicitConvObjectToObject@asCCompiler@@IEAAIPEAUasSExprContext@@AEBVasCDataType@@PEAVasCScriptNode@@W4EImplicitConv@@_N4@Z@4HA 0000000180075d15 f    CIL library: CIL module
 0001:00074d35       ?dtor$6@?0??ImplicitConvObjectToObject@asCCompiler@@IEAAIPEAUasSExprContext@@AEBVasCDataType@@PEAVasCScriptNode@@W4EImplicitConv@@_N4@Z@4HA 0000000180075d35 f    CIL library: CIL module
 0001:00074d50       ?dtor$0@?0??CallDestructor@asCCompiler@@IEAAXAEAVasCDataType@@H_NPEAVasCByteCode@@@Z@4HA 0000000180075d50 f    CIL library: CIL module
 0001:00074d50       ?dtor$0@?0??MatchArgument@asCCompiler@@IEAAIAEAV?$asCArray@H@@AEAV?$asCArray@UasSOverloadCandidate@@@@PEBUasSExprContext@@H_N@Z@4HA 0000000180075d50 f    CIL library: CIL module
 0001:00074d50       ?dtor$0@?0??PrepareFunctionCall@asCCompiler@@IEAAXHPEAVasCByteCode@@AEAV?$asCArray@PEAUasSExprContext@@@@@Z@4HA 0000000180075d50 f    CIL library: CIL module
 0001:00074d68       ?dtor$0@?0??MatchFunctions@asCCompiler@@IEAAIAEAV?$asCArray@H@@AEAV?$asCArray@PEAUasSExprContext@@@@PEAVasCScriptNode@@PEBDPEAVasCObjectType@@_N55AEBVasCString@@@Z@4HA 0000000180075d68 f    CIL library: CIL module
 0001:00074d88       ?dtor$1@?0??MatchFunctions@asCCompiler@@IEAAIAEAV?$asCArray@H@@AEAV?$asCArray@PEAUasSExprContext@@@@PEAVasCScriptNode@@PEBDPEAVasCObjectType@@_N55AEBVasCString@@@Z@4HA 0000000180075d88 f    CIL library: CIL module
 0001:00074da8       ?dtor$2@?0??MatchFunctions@asCCompiler@@IEAAIAEAV?$asCArray@H@@AEAV?$asCArray@PEAUasSExprContext@@@@PEAVasCScriptNode@@PEBDPEAVasCObjectType@@_N55AEBVasCString@@@Z@4HA 0000000180075da8 f    CIL library: CIL module
 0001:00074dc8       ?dtor$3@?0??MatchFunctions@asCCompiler@@IEAAIAEAV?$asCArray@H@@AEAV?$asCArray@PEAUasSExprContext@@@@PEAVasCScriptNode@@PEBDPEAVasCObjectType@@_N55AEBVasCString@@@Z@4HA 0000000180075dc8 f    CIL library: CIL module
 0001:00074de8       ?dtor$4@?0??MatchFunctions@asCCompiler@@IEAAIAEAV?$asCArray@H@@AEAV?$asCArray@PEAUasSExprContext@@@@PEAVasCScriptNode@@PEBDPEAVasCObjectType@@_N55AEBVasCString@@@Z@4HA 0000000180075de8 f    CIL library: CIL module
 0001:00074e08       ?dtor$5@?0??MatchFunctions@asCCompiler@@IEAAIAEAV?$asCArray@H@@AEAV?$asCArray@PEAUasSExprContext@@@@PEAVasCScriptNode@@PEBDPEAVasCObjectType@@_N55AEBVasCString@@@Z@4HA 0000000180075e08 f    CIL library: CIL module
 0001:00074e28       ?dtor$6@?0??MatchFunctions@asCCompiler@@IEAAIAEAV?$asCArray@H@@AEAV?$asCArray@PEAUasSExprContext@@@@PEAVasCScriptNode@@PEBDPEAVasCObjectType@@_N55AEBVasCString@@@Z@4HA 0000000180075e28 f    CIL library: CIL module
 0001:00074e48       ?dtor$7@?0??MatchFunctions@asCCompiler@@IEAAIAEAV?$asCArray@H@@AEAV?$asCArray@PEAUasSExprContext@@@@PEAVasCScriptNode@@PEBDPEAVasCObjectType@@_N55AEBVasCString@@@Z@4HA 0000000180075e48 f    CIL library: CIL module
 0001:00074e68       ?dtor$8@?0??MatchFunctions@asCCompiler@@IEAAIAEAV?$asCArray@H@@AEAV?$asCArray@PEAUasSExprContext@@@@PEAVasCScriptNode@@PEBDPEAVasCObjectType@@_N55AEBVasCString@@@Z@4HA 0000000180075e68 f    CIL library: CIL module
 0001:00074e88       ?dtor$9@?0??MatchFunctions@asCCompiler@@IEAAIAEAV?$asCArray@H@@AEAV?$asCArray@PEAUasSExprContext@@@@PEAVasCScriptNode@@PEBDPEAVasCObjectType@@_N55AEBVasCString@@@Z@4HA 0000000180075e88 f    CIL library: CIL module
 0001:00074ea8       ?dtor$10@?0??MatchFunctions@asCCompiler@@IEAAIAEAV?$asCArray@H@@AEAV?$asCArray@PEAUasSExprContext@@@@PEAVasCScriptNode@@PEBDPEAVasCObjectType@@_N55AEBVasCString@@@Z@4HA 0000000180075ea8 f    CIL library: CIL module
 0001:00074ec0       ?dtor$0@?0??CompileDefaultArgs@asCCompiler@@IEAAHPEAVasCScriptNode@@AEAV?$asCArray@PEAUasSExprContext@@@@PEAVasCScriptFunction@@@Z@4HA 0000000180075ec0 f    CIL library: CIL module
 0001:00074ee0       ?dtor$1@?0??CompileDefaultArgs@asCCompiler@@IEAAHPEAVasCScriptNode@@AEAV?$asCArray@PEAUasSExprContext@@@@PEAVasCScriptFunction@@@Z@4HA 0000000180075ee0 f    CIL library: CIL module
 0001:00074f00       ?dtor$2@?0??CompileDefaultArgs@asCCompiler@@IEAAHPEAVasCScriptNode@@AEAV?$asCArray@PEAUasSExprContext@@@@PEAVasCScriptFunction@@@Z@4HA 0000000180075f00 f    CIL library: CIL module
 0001:00074f20       ?dtor$3@?0??CompileDefaultArgs@asCCompiler@@IEAAHPEAVasCScriptNode@@AEAV?$asCArray@PEAUasSExprContext@@@@PEAVasCScriptFunction@@@Z@4HA 0000000180075f20 f    CIL library: CIL module
 0001:00074f40       ?dtor$4@?0??CompileDefaultArgs@asCCompiler@@IEAAHPEAVasCScriptNode@@AEAV?$asCArray@PEAUasSExprContext@@@@PEAVasCScriptFunction@@@Z@4HA 0000000180075f40 f    CIL library: CIL module
 0001:00074f60       ?dtor$5@?0??CompileDefaultArgs@asCCompiler@@IEAAHPEAVasCScriptNode@@AEAV?$asCArray@PEAUasSExprContext@@@@PEAVasCScriptFunction@@@Z@4HA 0000000180075f60 f    CIL library: CIL module
 0001:00074f80       ?dtor$6@?0??CompileDefaultArgs@asCCompiler@@IEAAHPEAVasCScriptNode@@AEAV?$asCArray@PEAUasSExprContext@@@@PEAVasCScriptFunction@@@Z@4HA 0000000180075f80 f    CIL library: CIL module
 0001:00074fa0       ?dtor$7@?0??CompileDefaultArgs@asCCompiler@@IEAAHPEAVasCScriptNode@@AEAV?$asCArray@PEAUasSExprContext@@@@PEAVasCScriptFunction@@@Z@4HA 0000000180075fa0 f    CIL library: CIL module
 0001:00074fc0       ?dtor$8@?0??CompileDefaultArgs@asCCompiler@@IEAAHPEAVasCScriptNode@@AEAV?$asCArray@PEAUasSExprContext@@@@PEAVasCScriptFunction@@@Z@4HA 0000000180075fc0 f    CIL library: CIL module
 0001:00074fe0       ?dtor$9@?0??CompileDefaultArgs@asCCompiler@@IEAAHPEAVasCScriptNode@@AEAV?$asCArray@PEAUasSExprContext@@@@PEAVasCScriptFunction@@@Z@4HA 0000000180075fe0 f    CIL library: CIL module
 0001:00075000       ?dtor$11@?0??CompileDefaultArgs@asCCompiler@@IEAAHPEAVasCScriptNode@@AEAV?$asCArray@PEAUasSExprContext@@@@PEAVasCScriptFunction@@@Z@4HA 0000000180076000 f    CIL library: CIL module
 0001:00075018       ?dtor$0@?0??ProcessPropertyGetAccessor@asCCompiler@@IEAAXPEAUasSExprContext@@PEAVasCScriptNode@@@Z@4HA 0000000180076018 f    CIL library: CIL module
 0001:00075018       ?dtor$0@?0??ProcessPropertySetAccessor@asCCompiler@@IEAAHPEAUasSExprContext@@0PEAVasCScriptNode@@@Z@4HA 0000000180076018 f    CIL library: CIL module
 0001:00075038       ?dtor$1@?0??ProcessPropertyGetAccessor@asCCompiler@@IEAAXPEAUasSExprContext@@PEAVasCScriptNode@@@Z@4HA 0000000180076038 f    CIL library: CIL module
 0001:00075038       ?dtor$1@?0??ProcessPropertySetAccessor@asCCompiler@@IEAAHPEAUasSExprContext@@0PEAVasCScriptNode@@@Z@4HA 0000000180076038 f    CIL library: CIL module
 0001:00075058       ?dtor$2@?0??ProcessPropertySetAccessor@asCCompiler@@IEAAHPEAUasSExprContext@@0PEAVasCScriptNode@@@Z@4HA 0000000180076058 f    CIL library: CIL module
 0001:00075058       ?dtor$2@?0??ProcessPropertyGetAccessor@asCCompiler@@IEAAXPEAUasSExprContext@@PEAVasCScriptNode@@@Z@4HA 0000000180076058 f    CIL library: CIL module
 0001:00075078       ?dtor$3@?0??ProcessPropertySetAccessor@asCCompiler@@IEAAHPEAUasSExprContext@@0PEAVasCScriptNode@@@Z@4HA 0000000180076078 f    CIL library: CIL module
 0001:00075078       ?dtor$3@?0??ProcessPropertyGetAccessor@asCCompiler@@IEAAXPEAUasSExprContext@@PEAVasCScriptNode@@@Z@4HA 0000000180076078 f    CIL library: CIL module
 0001:00075098       ?dtor$4@?0??ProcessPropertySetAccessor@asCCompiler@@IEAAHPEAUasSExprContext@@0PEAVasCScriptNode@@@Z@4HA 0000000180076098 f    CIL library: CIL module
 0001:00075098       ?dtor$4@?0??ProcessPropertyGetAccessor@asCCompiler@@IEAAXPEAUasSExprContext@@PEAVasCScriptNode@@@Z@4HA 0000000180076098 f    CIL library: CIL module
 0001:000750b8       ?dtor$5@?0??ProcessPropertyGetAccessor@asCCompiler@@IEAAXPEAUasSExprContext@@PEAVasCScriptNode@@@Z@4HA 00000001800760b8 f    CIL library: CIL module
 0001:000750b8       ?dtor$5@?0??ProcessPropertySetAccessor@asCCompiler@@IEAAHPEAUasSExprContext@@0PEAVasCScriptNode@@@Z@4HA 00000001800760b8 f    CIL library: CIL module
 0001:000750d3       ?dtor$0@?0??CompileExpressionPreOp@asCCompiler@@IEAAHPEAVasCScriptNode@@PEAUasSExprContext@@@Z@4HA 00000001800760d3 f    CIL library: CIL module
 0001:000750f3       ?dtor$1@?0??CompileExpressionPreOp@asCCompiler@@IEAAHPEAVasCScriptNode@@PEAUasSExprContext@@@Z@4HA 00000001800760f3 f    CIL library: CIL module
 0001:00075113       ?dtor$2@?0??CompileExpressionPreOp@asCCompiler@@IEAAHPEAVasCScriptNode@@PEAUasSExprContext@@@Z@4HA 0000000180076113 f    CIL library: CIL module
 0001:00075133       ?dtor$3@?0??CompileExpressionPreOp@asCCompiler@@IEAAHPEAVasCScriptNode@@PEAUasSExprContext@@@Z@4HA 0000000180076133 f    CIL library: CIL module
 0001:00075153       ?dtor$4@?0??CompileExpressionPreOp@asCCompiler@@IEAAHPEAVasCScriptNode@@PEAUasSExprContext@@@Z@4HA 0000000180076153 f    CIL library: CIL module
 0001:00075173       ?dtor$5@?0??CompileExpressionPreOp@asCCompiler@@IEAAHPEAVasCScriptNode@@PEAUasSExprContext@@@Z@4HA 0000000180076173 f    CIL library: CIL module
 0001:00075193       ?dtor$6@?0??CompileExpressionPreOp@asCCompiler@@IEAAHPEAVasCScriptNode@@PEAUasSExprContext@@@Z@4HA 0000000180076193 f    CIL library: CIL module
 0001:000751b3       ?dtor$7@?0??CompileExpressionPreOp@asCCompiler@@IEAAHPEAVasCScriptNode@@PEAUasSExprContext@@@Z@4HA 00000001800761b3 f    CIL library: CIL module
 0001:000751d3       ?dtor$8@?0??CompileExpressionPreOp@asCCompiler@@IEAAHPEAVasCScriptNode@@PEAUasSExprContext@@@Z@4HA 00000001800761d3 f    CIL library: CIL module
 0001:000751f3       ?dtor$9@?0??CompileExpressionPreOp@asCCompiler@@IEAAHPEAVasCScriptNode@@PEAUasSExprContext@@@Z@4HA 00000001800761f3 f    CIL library: CIL module
 0001:00075213       ?dtor$10@?0??CompileExpressionPreOp@asCCompiler@@IEAAHPEAVasCScriptNode@@PEAUasSExprContext@@@Z@4HA 0000000180076213 f    CIL library: CIL module
 0001:00075233       ?dtor$11@?0??CompileExpressionPreOp@asCCompiler@@IEAAHPEAVasCScriptNode@@PEAUasSExprContext@@@Z@4HA 0000000180076233 f    CIL library: CIL module
 0001:00075253       ?dtor$12@?0??CompileExpressionPreOp@asCCompiler@@IEAAHPEAVasCScriptNode@@PEAUasSExprContext@@@Z@4HA 0000000180076253 f    CIL library: CIL module
 0001:00075273       ?dtor$13@?0??CompileExpressionPreOp@asCCompiler@@IEAAHPEAVasCScriptNode@@PEAUasSExprContext@@@Z@4HA 0000000180076273 f    CIL library: CIL module
 0001:00075293       ?dtor$14@?0??CompileExpressionPreOp@asCCompiler@@IEAAHPEAVasCScriptNode@@PEAUasSExprContext@@@Z@4HA 0000000180076293 f    CIL library: CIL module
 0001:000752b3       ?dtor$15@?0??CompileExpressionPreOp@asCCompiler@@IEAAHPEAVasCScriptNode@@PEAUasSExprContext@@@Z@4HA 00000001800762b3 f    CIL library: CIL module
 0001:000752d3       ?dtor$16@?0??CompileExpressionPreOp@asCCompiler@@IEAAHPEAVasCScriptNode@@PEAUasSExprContext@@@Z@4HA 00000001800762d3 f    CIL library: CIL module
 0001:000752f3       ?dtor$17@?0??CompileExpressionPreOp@asCCompiler@@IEAAHPEAVasCScriptNode@@PEAUasSExprContext@@@Z@4HA 00000001800762f3 f    CIL library: CIL module
 0001:00075313       ?dtor$18@?0??CompileExpressionPreOp@asCCompiler@@IEAAHPEAVasCScriptNode@@PEAUasSExprContext@@@Z@4HA 0000000180076313 f    CIL library: CIL module
 0001:00075333       ?dtor$19@?0??CompileExpressionPreOp@asCCompiler@@IEAAHPEAVasCScriptNode@@PEAUasSExprContext@@@Z@4HA 0000000180076333 f    CIL library: CIL module
 0001:00075353       ?dtor$20@?0??CompileExpressionPreOp@asCCompiler@@IEAAHPEAVasCScriptNode@@PEAUasSExprContext@@@Z@4HA 0000000180076353 f    CIL library: CIL module
 0001:00075373       ?dtor$21@?0??CompileExpressionPreOp@asCCompiler@@IEAAHPEAVasCScriptNode@@PEAUasSExprContext@@@Z@4HA 0000000180076373 f    CIL library: CIL module
 0001:00075393       ?dtor$22@?0??CompileExpressionPreOp@asCCompiler@@IEAAHPEAVasCScriptNode@@PEAUasSExprContext@@@Z@4HA 0000000180076393 f    CIL library: CIL module
 0001:000753b3       ?dtor$23@?0??CompileExpressionPreOp@asCCompiler@@IEAAHPEAVasCScriptNode@@PEAUasSExprContext@@@Z@4HA 00000001800763b3 f    CIL library: CIL module
 0001:000753d3       ?dtor$24@?0??CompileExpressionPreOp@asCCompiler@@IEAAHPEAVasCScriptNode@@PEAUasSExprContext@@@Z@4HA 00000001800763d3 f    CIL library: CIL module
 0001:000753f3       ?dtor$25@?0??CompileExpressionPreOp@asCCompiler@@IEAAHPEAVasCScriptNode@@PEAUasSExprContext@@@Z@4HA 00000001800763f3 f    CIL library: CIL module
 0001:0007540b       ?dtor$0@?0??CompileFunctionCall@asCCompiler@@IEAAHPEAVasCScriptNode@@PEAUasSExprContext@@PEAVasCObjectType@@_NAEBVasCString@@@Z@4HA 000000018007640b f    CIL library: CIL module
 0001:0007542b       ?dtor$1@?0??CompileFunctionCall@asCCompiler@@IEAAHPEAVasCScriptNode@@PEAUasSExprContext@@PEAVasCObjectType@@_NAEBVasCString@@@Z@4HA 000000018007642b f    CIL library: CIL module
 0001:0007544b       ?dtor$2@?0??CompileFunctionCall@asCCompiler@@IEAAHPEAVasCScriptNode@@PEAUasSExprContext@@PEAVasCObjectType@@_NAEBVasCString@@@Z@4HA 000000018007644b f    CIL library: CIL module
 0001:0007546b       ?dtor$3@?0??CompileFunctionCall@asCCompiler@@IEAAHPEAVasCScriptNode@@PEAUasSExprContext@@PEAVasCObjectType@@_NAEBVasCString@@@Z@4HA 000000018007646b f    CIL library: CIL module
 0001:0007548b       ?dtor$4@?0??CompileFunctionCall@asCCompiler@@IEAAHPEAVasCScriptNode@@PEAUasSExprContext@@PEAVasCObjectType@@_NAEBVasCString@@@Z@4HA 000000018007648b f    CIL library: CIL module
 0001:000754ab       ?dtor$5@?0??CompileFunctionCall@asCCompiler@@IEAAHPEAVasCScriptNode@@PEAUasSExprContext@@PEAVasCObjectType@@_NAEBVasCString@@@Z@4HA 00000001800764ab f    CIL library: CIL module
 0001:000754cb       ?dtor$6@?0??CompileFunctionCall@asCCompiler@@IEAAHPEAVasCScriptNode@@PEAUasSExprContext@@PEAVasCObjectType@@_NAEBVasCString@@@Z@4HA 00000001800764cb f    CIL library: CIL module
 0001:000754eb       ?dtor$7@?0??CompileFunctionCall@asCCompiler@@IEAAHPEAVasCScriptNode@@PEAUasSExprContext@@PEAVasCObjectType@@_NAEBVasCString@@@Z@4HA 00000001800764eb f    CIL library: CIL module
 0001:0007550b       ?dtor$8@?0??CompileFunctionCall@asCCompiler@@IEAAHPEAVasCScriptNode@@PEAUasSExprContext@@PEAVasCObjectType@@_NAEBVasCString@@@Z@4HA 000000018007650b f    CIL library: CIL module
 0001:0007552b       ?dtor$9@?0??CompileFunctionCall@asCCompiler@@IEAAHPEAVasCScriptNode@@PEAUasSExprContext@@PEAVasCObjectType@@_NAEBVasCString@@@Z@4HA 000000018007652b f    CIL library: CIL module
 0001:0007554b       ?dtor$10@?0??CompileFunctionCall@asCCompiler@@IEAAHPEAVasCScriptNode@@PEAUasSExprContext@@PEAVasCObjectType@@_NAEBVasCString@@@Z@4HA 000000018007654b f    CIL library: CIL module
 0001:0007556b       ?dtor$11@?0??CompileFunctionCall@asCCompiler@@IEAAHPEAVasCScriptNode@@PEAUasSExprContext@@PEAVasCObjectType@@_NAEBVasCString@@@Z@4HA 000000018007656b f    CIL library: CIL module
 0001:00075583       ?dtor$0@?0??CompileConversion@asCCompiler@@IEAAXPEAVasCScriptNode@@PEAUasSExprContext@@@Z@4HA 0000000180076583 f    CIL library: CIL module
 0001:000755a3       ?dtor$1@?0??CompileConversion@asCCompiler@@IEAAXPEAVasCScriptNode@@PEAUasSExprContext@@@Z@4HA 00000001800765a3 f    CIL library: CIL module
 0001:000755c3       ?dtor$2@?0??CompileConversion@asCCompiler@@IEAAXPEAVasCScriptNode@@PEAUasSExprContext@@@Z@4HA 00000001800765c3 f    CIL library: CIL module
 0001:000755e3       ?dtor$3@?0??CompileConversion@asCCompiler@@IEAAXPEAVasCScriptNode@@PEAUasSExprContext@@@Z@4HA 00000001800765e3 f    CIL library: CIL module
 0001:00075603       ?dtor$4@?0??CompileConversion@asCCompiler@@IEAAXPEAVasCScriptNode@@PEAUasSExprContext@@@Z@4HA 0000000180076603 f    CIL library: CIL module
 0001:00075623       ?dtor$5@?0??CompileConversion@asCCompiler@@IEAAXPEAVasCScriptNode@@PEAUasSExprContext@@@Z@4HA 0000000180076623 f    CIL library: CIL module
 0001:00075643       ?dtor$6@?0??CompileConversion@asCCompiler@@IEAAXPEAVasCScriptNode@@PEAUasSExprContext@@@Z@4HA 0000000180076643 f    CIL library: CIL module
 0001:00075663       ?dtor$7@?0??CompileConversion@asCCompiler@@IEAAXPEAVasCScriptNode@@PEAUasSExprContext@@@Z@4HA 0000000180076663 f    CIL library: CIL module
 0001:00075683       ?dtor$8@?0??CompileConversion@asCCompiler@@IEAAXPEAVasCScriptNode@@PEAUasSExprContext@@@Z@4HA 0000000180076683 f    CIL library: CIL module
 0001:000756a3       ?dtor$9@?0??CompileConversion@asCCompiler@@IEAAXPEAVasCScriptNode@@PEAUasSExprContext@@@Z@4HA 00000001800766a3 f    CIL library: CIL module
 0001:000756be       ?dtor$0@?0??CompileExpressionPostOp@asCCompiler@@IEAAHPEAVasCScriptNode@@PEAUasSExprContext@@@Z@4HA 00000001800766be f    CIL library: CIL module
 0001:000756de       ?dtor$1@?0??CompileExpressionPostOp@asCCompiler@@IEAAHPEAVasCScriptNode@@PEAUasSExprContext@@@Z@4HA 00000001800766de f    CIL library: CIL module
 0001:000756fe       ?dtor$2@?0??CompileExpressionPostOp@asCCompiler@@IEAAHPEAVasCScriptNode@@PEAUasSExprContext@@@Z@4HA 00000001800766fe f    CIL library: CIL module
 0001:0007571e       ?dtor$3@?0??CompileExpressionPostOp@asCCompiler@@IEAAHPEAVasCScriptNode@@PEAUasSExprContext@@@Z@4HA 000000018007671e f    CIL library: CIL module
 0001:0007573e       ?dtor$4@?0??CompileExpressionPostOp@asCCompiler@@IEAAHPEAVasCScriptNode@@PEAUasSExprContext@@@Z@4HA 000000018007673e f    CIL library: CIL module
 0001:0007575e       ?dtor$5@?0??CompileExpressionPostOp@asCCompiler@@IEAAHPEAVasCScriptNode@@PEAUasSExprContext@@@Z@4HA 000000018007675e f    CIL library: CIL module
 0001:0007577e       ?dtor$6@?0??CompileExpressionPostOp@asCCompiler@@IEAAHPEAVasCScriptNode@@PEAUasSExprContext@@@Z@4HA 000000018007677e f    CIL library: CIL module
 0001:0007579e       ?dtor$7@?0??CompileExpressionPostOp@asCCompiler@@IEAAHPEAVasCScriptNode@@PEAUasSExprContext@@@Z@4HA 000000018007679e f    CIL library: CIL module
 0001:000757be       ?dtor$8@?0??CompileExpressionPostOp@asCCompiler@@IEAAHPEAVasCScriptNode@@PEAUasSExprContext@@@Z@4HA 00000001800767be f    CIL library: CIL module
 0001:000757de       ?dtor$9@?0??CompileExpressionPostOp@asCCompiler@@IEAAHPEAVasCScriptNode@@PEAUasSExprContext@@@Z@4HA 00000001800767de f    CIL library: CIL module
 0001:000757fe       ?dtor$10@?0??CompileExpressionPostOp@asCCompiler@@IEAAHPEAVasCScriptNode@@PEAUasSExprContext@@@Z@4HA 00000001800767fe f    CIL library: CIL module
 0001:0007581e       ?dtor$11@?0??CompileExpressionPostOp@asCCompiler@@IEAAHPEAVasCScriptNode@@PEAUasSExprContext@@@Z@4HA 000000018007681e f    CIL library: CIL module
 0001:0007583e       ?dtor$12@?0??CompileExpressionPostOp@asCCompiler@@IEAAHPEAVasCScriptNode@@PEAUasSExprContext@@@Z@4HA 000000018007683e f    CIL library: CIL module
 0001:0007585e       ?dtor$13@?0??CompileExpressionPostOp@asCCompiler@@IEAAHPEAVasCScriptNode@@PEAUasSExprContext@@@Z@4HA 000000018007685e f    CIL library: CIL module
 0001:0007587e       ?dtor$14@?0??CompileExpressionPostOp@asCCompiler@@IEAAHPEAVasCScriptNode@@PEAUasSExprContext@@@Z@4HA 000000018007687e f    CIL library: CIL module
 0001:0007589e       ?dtor$15@?0??CompileExpressionPostOp@asCCompiler@@IEAAHPEAVasCScriptNode@@PEAUasSExprContext@@@Z@4HA 000000018007689e f    CIL library: CIL module
 0001:000758be       ?dtor$16@?0??CompileExpressionPostOp@asCCompiler@@IEAAHPEAVasCScriptNode@@PEAUasSExprContext@@@Z@4HA 00000001800768be f    CIL library: CIL module
 0001:000758de       ?dtor$17@?0??CompileExpressionPostOp@asCCompiler@@IEAAHPEAVasCScriptNode@@PEAUasSExprContext@@@Z@4HA 00000001800768de f    CIL library: CIL module
 0001:000758fe       ?dtor$18@?0??CompileExpressionPostOp@asCCompiler@@IEAAHPEAVasCScriptNode@@PEAUasSExprContext@@@Z@4HA 00000001800768fe f    CIL library: CIL module
 0001:0007591e       ?dtor$19@?0??CompileExpressionPostOp@asCCompiler@@IEAAHPEAVasCScriptNode@@PEAUasSExprContext@@@Z@4HA 000000018007691e f    CIL library: CIL module
 0001:0007593e       ?dtor$20@?0??CompileExpressionPostOp@asCCompiler@@IEAAHPEAVasCScriptNode@@PEAUasSExprContext@@@Z@4HA 000000018007693e f    CIL library: CIL module
 0001:0007595e       ?dtor$21@?0??CompileExpressionPostOp@asCCompiler@@IEAAHPEAVasCScriptNode@@PEAUasSExprContext@@@Z@4HA 000000018007695e f    CIL library: CIL module
 0001:0007597e       ?dtor$22@?0??CompileExpressionPostOp@asCCompiler@@IEAAHPEAVasCScriptNode@@PEAUasSExprContext@@@Z@4HA 000000018007697e f    CIL library: CIL module
 0001:0007599e       ?dtor$23@?0??CompileExpressionPostOp@asCCompiler@@IEAAHPEAVasCScriptNode@@PEAUasSExprContext@@@Z@4HA 000000018007699e f    CIL library: CIL module
 0001:000759be       ?dtor$24@?0??CompileExpressionPostOp@asCCompiler@@IEAAHPEAVasCScriptNode@@PEAUasSExprContext@@@Z@4HA 00000001800769be f    CIL library: CIL module
 0001:000759de       ?dtor$25@?0??CompileExpressionPostOp@asCCompiler@@IEAAHPEAVasCScriptNode@@PEAUasSExprContext@@@Z@4HA 00000001800769de f    CIL library: CIL module
 0001:000759fe       ?dtor$26@?0??CompileExpressionPostOp@asCCompiler@@IEAAHPEAVasCScriptNode@@PEAUasSExprContext@@@Z@4HA 00000001800769fe f    CIL library: CIL module
 0001:00075a1e       ?dtor$27@?0??CompileExpressionPostOp@asCCompiler@@IEAAHPEAVasCScriptNode@@PEAUasSExprContext@@@Z@4HA 0000000180076a1e f    CIL library: CIL module
 0001:00075a3e       ?dtor$28@?0??CompileExpressionPostOp@asCCompiler@@IEAAHPEAVasCScriptNode@@PEAUasSExprContext@@@Z@4HA 0000000180076a3e f    CIL library: CIL module
 0001:00075a5e       ?dtor$29@?0??CompileExpressionPostOp@asCCompiler@@IEAAHPEAVasCScriptNode@@PEAUasSExprContext@@@Z@4HA 0000000180076a5e f    CIL library: CIL module
 0001:00075a7e       ?dtor$30@?0??CompileExpressionPostOp@asCCompiler@@IEAAHPEAVasCScriptNode@@PEAUasSExprContext@@@Z@4HA 0000000180076a7e f    CIL library: CIL module
 0001:00075a9e       ?dtor$31@?0??CompileExpressionPostOp@asCCompiler@@IEAAHPEAVasCScriptNode@@PEAUasSExprContext@@@Z@4HA 0000000180076a9e f    CIL library: CIL module
 0001:00075abe       ?dtor$32@?0??CompileExpressionPostOp@asCCompiler@@IEAAHPEAVasCScriptNode@@PEAUasSExprContext@@@Z@4HA 0000000180076abe f    CIL library: CIL module
 0001:00075ade       ?dtor$33@?0??CompileExpressionPostOp@asCCompiler@@IEAAHPEAVasCScriptNode@@PEAUasSExprContext@@@Z@4HA 0000000180076ade f    CIL library: CIL module
 0001:00075afe       ?dtor$34@?0??CompileExpressionPostOp@asCCompiler@@IEAAHPEAVasCScriptNode@@PEAUasSExprContext@@@Z@4HA 0000000180076afe f    CIL library: CIL module
 0001:00075b1e       ?dtor$35@?0??CompileExpressionPostOp@asCCompiler@@IEAAHPEAVasCScriptNode@@PEAUasSExprContext@@@Z@4HA 0000000180076b1e f    CIL library: CIL module
 0001:00075b3e       ?dtor$36@?0??CompileExpressionPostOp@asCCompiler@@IEAAHPEAVasCScriptNode@@PEAUasSExprContext@@@Z@4HA 0000000180076b3e f    CIL library: CIL module
 0001:00075b56       ?dtor$0@?0??CompileConstructCall@asCCompiler@@IEAAXPEAVasCScriptNode@@PEAUasSExprContext@@@Z@4HA 0000000180076b56 f    CIL library: CIL module
 0001:00075b76       ?dtor$1@?0??CompileConstructCall@asCCompiler@@IEAAXPEAVasCScriptNode@@PEAUasSExprContext@@@Z@4HA 0000000180076b76 f    CIL library: CIL module
 0001:00075b96       ?dtor$2@?0??CompileConstructCall@asCCompiler@@IEAAXPEAVasCScriptNode@@PEAUasSExprContext@@@Z@4HA 0000000180076b96 f    CIL library: CIL module
 0001:00075bb6       ?dtor$3@?0??CompileConstructCall@asCCompiler@@IEAAXPEAVasCScriptNode@@PEAUasSExprContext@@@Z@4HA 0000000180076bb6 f    CIL library: CIL module
 0001:00075bd6       ?dtor$4@?0??CompileConstructCall@asCCompiler@@IEAAXPEAVasCScriptNode@@PEAUasSExprContext@@@Z@4HA 0000000180076bd6 f    CIL library: CIL module
 0001:00075bf6       ?dtor$5@?0??CompileConstructCall@asCCompiler@@IEAAXPEAVasCScriptNode@@PEAUasSExprContext@@@Z@4HA 0000000180076bf6 f    CIL library: CIL module
 0001:00075c16       ?dtor$6@?0??CompileConstructCall@asCCompiler@@IEAAXPEAVasCScriptNode@@PEAUasSExprContext@@@Z@4HA 0000000180076c16 f    CIL library: CIL module
 0001:00075c36       ?dtor$7@?0??CompileConstructCall@asCCompiler@@IEAAXPEAVasCScriptNode@@PEAUasSExprContext@@@Z@4HA 0000000180076c36 f    CIL library: CIL module
 0001:00075c56       ?dtor$8@?0??CompileConstructCall@asCCompiler@@IEAAXPEAVasCScriptNode@@PEAUasSExprContext@@@Z@4HA 0000000180076c56 f    CIL library: CIL module
 0001:00075c76       ?dtor$9@?0??CompileConstructCall@asCCompiler@@IEAAXPEAVasCScriptNode@@PEAUasSExprContext@@@Z@4HA 0000000180076c76 f    CIL library: CIL module
 0001:00075c96       ?dtor$10@?0??CompileConstructCall@asCCompiler@@IEAAXPEAVasCScriptNode@@PEAUasSExprContext@@@Z@4HA 0000000180076c96 f    CIL library: CIL module
 0001:00075cb6       ?dtor$11@?0??CompileConstructCall@asCCompiler@@IEAAXPEAVasCScriptNode@@PEAUasSExprContext@@@Z@4HA 0000000180076cb6 f    CIL library: CIL module
 0001:00075cd6       ?dtor$12@?0??CompileConstructCall@asCCompiler@@IEAAXPEAVasCScriptNode@@PEAUasSExprContext@@@Z@4HA 0000000180076cd6 f    CIL library: CIL module
 0001:00075cf1       ?dtor$0@?0??CompileExpressionValue@asCCompiler@@IEAAHPEAVasCScriptNode@@PEAUasSExprContext@@@Z@4HA 0000000180076cf1 f    CIL library: CIL module
 0001:00075d11       ?dtor$1@?0??CompileExpressionValue@asCCompiler@@IEAAHPEAVasCScriptNode@@PEAUasSExprContext@@@Z@4HA 0000000180076d11 f    CIL library: CIL module
 0001:00075d31       ?dtor$6@?0??CompileExpressionValue@asCCompiler@@IEAAHPEAVasCScriptNode@@PEAUasSExprContext@@@Z@4HA 0000000180076d31 f    CIL library: CIL module
 0001:00075d51       ?dtor$7@?0??CompileExpressionValue@asCCompiler@@IEAAHPEAVasCScriptNode@@PEAUasSExprContext@@@Z@4HA 0000000180076d51 f    CIL library: CIL module
 0001:00075d71       ?dtor$8@?0??CompileExpressionValue@asCCompiler@@IEAAHPEAVasCScriptNode@@PEAUasSExprContext@@@Z@4HA 0000000180076d71 f    CIL library: CIL module
 0001:00075d91       ?dtor$9@?0??CompileExpressionValue@asCCompiler@@IEAAHPEAVasCScriptNode@@PEAUasSExprContext@@@Z@4HA 0000000180076d91 f    CIL library: CIL module
 0001:00075db1       ?dtor$10@?0??CompileExpressionValue@asCCompiler@@IEAAHPEAVasCScriptNode@@PEAUasSExprContext@@@Z@4HA 0000000180076db1 f    CIL library: CIL module
 0001:00075dd1       ?dtor$11@?0??CompileExpressionValue@asCCompiler@@IEAAHPEAVasCScriptNode@@PEAUasSExprContext@@@Z@4HA 0000000180076dd1 f    CIL library: CIL module
 0001:00075df1       ?dtor$12@?0??CompileExpressionValue@asCCompiler@@IEAAHPEAVasCScriptNode@@PEAUasSExprContext@@@Z@4HA 0000000180076df1 f    CIL library: CIL module
 0001:00075e11       ?dtor$13@?0??CompileExpressionValue@asCCompiler@@IEAAHPEAVasCScriptNode@@PEAUasSExprContext@@@Z@4HA 0000000180076e11 f    CIL library: CIL module
 0001:00075e2c       ?dtor$0@?0??CompilePostFixExpression@asCCompiler@@IEAAHPEAV?$asCArray@PEAVasCScriptNode@@@@PEAUasSExprContext@@@Z@4HA 0000000180076e2c f    CIL library: CIL module
 0001:00075e4c       ?dtor$1@?0??CompilePostFixExpression@asCCompiler@@IEAAHPEAV?$asCArray@PEAVasCScriptNode@@@@PEAUasSExprContext@@@Z@4HA 0000000180076e4c f    CIL library: CIL module
 0001:00075e6c       ?dtor$4@?0??CompilePostFixExpression@asCCompiler@@IEAAHPEAV?$asCArray@PEAVasCScriptNode@@@@PEAUasSExprContext@@@Z@4HA 0000000180076e6c f    CIL library: CIL module
 0001:00075e87       ?dtor$0@?0??CompileExpression@asCCompiler@@IEAAHPEAVasCScriptNode@@PEAUasSExprContext@@@Z@4HA 0000000180076e87 f    CIL library: CIL module
 0001:00075ea7       ?dtor$1@?0??CompileExpression@asCCompiler@@IEAAHPEAVasCScriptNode@@PEAUasSExprContext@@@Z@4HA 0000000180076ea7 f    CIL library: CIL module
 0001:00075ebf       ?dtor$0@?0??CompileCondition@asCCompiler@@IEAAHPEAVasCScriptNode@@PEAUasSExprContext@@@Z@4HA 0000000180076ebf f    CIL library: CIL module
 0001:00075edf       ?dtor$1@?0??CompileCondition@asCCompiler@@IEAAHPEAVasCScriptNode@@PEAUasSExprContext@@@Z@4HA 0000000180076edf f    CIL library: CIL module
 0001:00075eff       ?dtor$2@?0??CompileCondition@asCCompiler@@IEAAHPEAVasCScriptNode@@PEAUasSExprContext@@@Z@4HA 0000000180076eff f    CIL library: CIL module
 0001:00075f1f       ?dtor$3@?0??CompileCondition@asCCompiler@@IEAAHPEAVasCScriptNode@@PEAUasSExprContext@@@Z@4HA 0000000180076f1f f    CIL library: CIL module
 0001:00075f3f       ?dtor$4@?0??CompileCondition@asCCompiler@@IEAAHPEAVasCScriptNode@@PEAUasSExprContext@@@Z@4HA 0000000180076f3f f    CIL library: CIL module
 0001:00075f5f       ?dtor$5@?0??CompileCondition@asCCompiler@@IEAAHPEAVasCScriptNode@@PEAUasSExprContext@@@Z@4HA 0000000180076f5f f    CIL library: CIL module
 0001:00075f7f       ?dtor$6@?0??CompileCondition@asCCompiler@@IEAAHPEAVasCScriptNode@@PEAUasSExprContext@@@Z@4HA 0000000180076f7f f    CIL library: CIL module
 0001:00075f97       ?dtor$0@?0??CompileAssignment@asCCompiler@@IEAAHPEAVasCScriptNode@@PEAUasSExprContext@@@Z@4HA 0000000180076f97 f    CIL library: CIL module
 0001:00075fb7       ?dtor$1@?0??CompileAssignment@asCCompiler@@IEAAHPEAVasCScriptNode@@PEAUasSExprContext@@@Z@4HA 0000000180076fb7 f    CIL library: CIL module
 0001:00075fcf       ?dtor$0@?0??CompileReturnStatement@asCCompiler@@IEAAXPEAVasCScriptNode@@PEAVasCByteCode@@@Z@4HA 0000000180076fcf f    CIL library: CIL module
 0001:00075fef       ?dtor$1@?0??CompileReturnStatement@asCCompiler@@IEAAXPEAVasCScriptNode@@PEAVasCByteCode@@@Z@4HA 0000000180076fef f    CIL library: CIL module
 0001:0007600f       ?dtor$2@?0??CompileReturnStatement@asCCompiler@@IEAAXPEAVasCScriptNode@@PEAVasCByteCode@@@Z@4HA 000000018007700f f    CIL library: CIL module
 0001:0007602f       ?dtor$3@?0??CompileReturnStatement@asCCompiler@@IEAAXPEAVasCScriptNode@@PEAVasCByteCode@@@Z@4HA 000000018007702f f    CIL library: CIL module
 0001:0007604f       ?dtor$4@?0??CompileReturnStatement@asCCompiler@@IEAAXPEAVasCScriptNode@@PEAVasCByteCode@@@Z@4HA 000000018007704f f    CIL library: CIL module
 0001:0007606f       ?dtor$5@?0??CompileReturnStatement@asCCompiler@@IEAAXPEAVasCScriptNode@@PEAVasCByteCode@@@Z@4HA 000000018007706f f    CIL library: CIL module
 0001:0007608f       ?dtor$6@?0??CompileReturnStatement@asCCompiler@@IEAAXPEAVasCScriptNode@@PEAVasCByteCode@@@Z@4HA 000000018007708f f    CIL library: CIL module
 0001:000760af       ?dtor$7@?0??CompileReturnStatement@asCCompiler@@IEAAXPEAVasCScriptNode@@PEAVasCByteCode@@@Z@4HA 00000001800770af f    CIL library: CIL module
 0001:000760cf       ?dtor$8@?0??CompileReturnStatement@asCCompiler@@IEAAXPEAVasCScriptNode@@PEAVasCByteCode@@@Z@4HA 00000001800770cf f    CIL library: CIL module
 0001:000760ef       ?dtor$9@?0??CompileReturnStatement@asCCompiler@@IEAAXPEAVasCScriptNode@@PEAVasCByteCode@@@Z@4HA 00000001800770ef f    CIL library: CIL module
 0001:0007610f       ?dtor$10@?0??CompileReturnStatement@asCCompiler@@IEAAXPEAVasCScriptNode@@PEAVasCByteCode@@@Z@4HA 000000018007710f f    CIL library: CIL module
 0001:0007612f       ?dtor$11@?0??CompileReturnStatement@asCCompiler@@IEAAXPEAVasCScriptNode@@PEAVasCByteCode@@@Z@4HA 000000018007712f f    CIL library: CIL module
 0001:0007614f       ?dtor$12@?0??CompileReturnStatement@asCCompiler@@IEAAXPEAVasCScriptNode@@PEAVasCByteCode@@@Z@4HA 000000018007714f f    CIL library: CIL module
 0001:0007616f       ?dtor$13@?0??CompileReturnStatement@asCCompiler@@IEAAXPEAVasCScriptNode@@PEAVasCByteCode@@@Z@4HA 000000018007716f f    CIL library: CIL module
 0001:0007618f       ?dtor$14@?0??CompileReturnStatement@asCCompiler@@IEAAXPEAVasCScriptNode@@PEAVasCByteCode@@@Z@4HA 000000018007718f f    CIL library: CIL module
 0001:000761af       ?dtor$15@?0??CompileReturnStatement@asCCompiler@@IEAAXPEAVasCScriptNode@@PEAVasCByteCode@@@Z@4HA 00000001800771af f    CIL library: CIL module
 0001:000761cf       ?dtor$16@?0??CompileReturnStatement@asCCompiler@@IEAAXPEAVasCScriptNode@@PEAVasCByteCode@@@Z@4HA 00000001800771cf f    CIL library: CIL module
 0001:000761ef       ?dtor$17@?0??CompileReturnStatement@asCCompiler@@IEAAXPEAVasCScriptNode@@PEAVasCByteCode@@@Z@4HA 00000001800771ef f    CIL library: CIL module
 0001:0007620a       ?dtor$0@?0??CompileDoWhileStatement@asCCompiler@@IEAAXPEAVasCScriptNode@@PEAVasCByteCode@@@Z@4HA 000000018007720a f    CIL library: CIL module
 0001:0007622a       ?dtor$1@?0??CompileDoWhileStatement@asCCompiler@@IEAAXPEAVasCScriptNode@@PEAVasCByteCode@@@Z@4HA 000000018007722a f    CIL library: CIL module
 0001:0007624a       ?dtor$2@?0??CompileDoWhileStatement@asCCompiler@@IEAAXPEAVasCScriptNode@@PEAVasCByteCode@@@Z@4HA 000000018007724a f    CIL library: CIL module
 0001:00076262       ?dtor$0@?0??CompileWhileStatement@asCCompiler@@IEAAXPEAVasCScriptNode@@PEAVasCByteCode@@@Z@4HA 0000000180077262 f    CIL library: CIL module
 0001:00076282       ?dtor$1@?0??CompileWhileStatement@asCCompiler@@IEAAXPEAVasCScriptNode@@PEAVasCByteCode@@@Z@4HA 0000000180077282 f    CIL library: CIL module
 0001:000762a2       ?dtor$2@?0??CompileWhileStatement@asCCompiler@@IEAAXPEAVasCScriptNode@@PEAVasCByteCode@@@Z@4HA 00000001800772a2 f    CIL library: CIL module
 0001:000762ba       ?dtor$0@?0??CompileIfStatement@asCCompiler@@IEAAXPEAVasCScriptNode@@PEA_NPEAVasCByteCode@@@Z@4HA 00000001800772ba f    CIL library: CIL module
 0001:000762da       ?dtor$1@?0??CompileIfStatement@asCCompiler@@IEAAXPEAVasCScriptNode@@PEA_NPEAVasCByteCode@@@Z@4HA 00000001800772da f    CIL library: CIL module
 0001:000762fa       ?dtor$2@?0??CompileIfStatement@asCCompiler@@IEAAXPEAVasCScriptNode@@PEA_NPEAVasCByteCode@@@Z@4HA 00000001800772fa f    CIL library: CIL module
 0001:0007631a       ?dtor$3@?0??CompileIfStatement@asCCompiler@@IEAAXPEAVasCScriptNode@@PEA_NPEAVasCByteCode@@@Z@4HA 000000018007731a f    CIL library: CIL module
 0001:0007633a       ?dtor$4@?0??CompileIfStatement@asCCompiler@@IEAAXPEAVasCScriptNode@@PEA_NPEAVasCByteCode@@@Z@4HA 000000018007733a f    CIL library: CIL module
 0001:0007635a       ?dtor$5@?0??CompileIfStatement@asCCompiler@@IEAAXPEAVasCScriptNode@@PEA_NPEAVasCByteCode@@@Z@4HA 000000018007735a f    CIL library: CIL module
 0001:0007637a       ?dtor$6@?0??CompileIfStatement@asCCompiler@@IEAAXPEAVasCScriptNode@@PEA_NPEAVasCByteCode@@@Z@4HA 000000018007737a f    CIL library: CIL module
 0001:00076392       ?dtor$0@?0??CompileInitListElement@asCCompiler@@IEAAHAEAPEAUasSListPatternNode@@AEAPEAVasCScriptNode@@HFAEAIAEAVasCByteCode@@@Z@4HA 0000000180077392 f    CIL library: CIL module
 0001:000763b2       ?dtor$1@?0??CompileInitListElement@asCCompiler@@IEAAHAEAPEAUasSListPatternNode@@AEAPEAVasCScriptNode@@HFAEAIAEAVasCByteCode@@@Z@4HA 00000001800773b2 f    CIL library: CIL module
 0001:000763d2       ?dtor$2@?0??CompileInitListElement@asCCompiler@@IEAAHAEAPEAUasSListPatternNode@@AEAPEAVasCScriptNode@@HFAEAIAEAVasCByteCode@@@Z@4HA 00000001800773d2 f    CIL library: CIL module
 0001:000763f2       ?dtor$3@?0??CompileInitListElement@asCCompiler@@IEAAHAEAPEAUasSListPatternNode@@AEAPEAVasCScriptNode@@HFAEAIAEAVasCByteCode@@@Z@4HA 00000001800773f2 f    CIL library: CIL module
 0001:00076412       ?dtor$4@?0??CompileInitListElement@asCCompiler@@IEAAHAEAPEAUasSListPatternNode@@AEAPEAVasCScriptNode@@HFAEAIAEAVasCByteCode@@@Z@4HA 0000000180077412 f    CIL library: CIL module
 0001:00076432       ?dtor$5@?0??CompileInitListElement@asCCompiler@@IEAAHAEAPEAUasSListPatternNode@@AEAPEAVasCScriptNode@@HFAEAIAEAVasCByteCode@@@Z@4HA 0000000180077432 f    CIL library: CIL module
 0001:00076452       ?dtor$6@?0??CompileInitListElement@asCCompiler@@IEAAHAEAPEAUasSListPatternNode@@AEAPEAVasCScriptNode@@HFAEAIAEAVasCByteCode@@@Z@4HA 0000000180077452 f    CIL library: CIL module
 0001:00076472       ?dtor$7@?0??CompileInitListElement@asCCompiler@@IEAAHAEAPEAUasSListPatternNode@@AEAPEAVasCScriptNode@@HFAEAIAEAVasCByteCode@@@Z@4HA 0000000180077472 f    CIL library: CIL module
 0001:00076492       ?dtor$8@?0??CompileInitListElement@asCCompiler@@IEAAHAEAPEAUasSListPatternNode@@AEAPEAVasCScriptNode@@HFAEAIAEAVasCByteCode@@@Z@4HA 0000000180077492 f    CIL library: CIL module
 0001:000764b2       ?dtor$9@?0??CompileInitListElement@asCCompiler@@IEAAHAEAPEAUasSListPatternNode@@AEAPEAVasCScriptNode@@HFAEAIAEAVasCByteCode@@@Z@4HA 00000001800774b2 f    CIL library: CIL module
 0001:000764d2       ?dtor$10@?0??CompileInitListElement@asCCompiler@@IEAAHAEAPEAUasSListPatternNode@@AEAPEAVasCScriptNode@@HFAEAIAEAVasCByteCode@@@Z@4HA 00000001800774d2 f    CIL library: CIL module
 0001:000764f2       ?dtor$11@?0??CompileInitListElement@asCCompiler@@IEAAHAEAPEAUasSListPatternNode@@AEAPEAVasCScriptNode@@HFAEAIAEAVasCByteCode@@@Z@4HA 00000001800774f2 f    CIL library: CIL module
 0001:00076512       ?dtor$12@?0??CompileInitListElement@asCCompiler@@IEAAHAEAPEAUasSListPatternNode@@AEAPEAVasCScriptNode@@HFAEAIAEAVasCByteCode@@@Z@4HA 0000000180077512 f    CIL library: CIL module
 0001:00076532       ?dtor$13@?0??CompileInitListElement@asCCompiler@@IEAAHAEAPEAUasSListPatternNode@@AEAPEAVasCScriptNode@@HFAEAIAEAVasCByteCode@@@Z@4HA 0000000180077532 f    CIL library: CIL module
 0001:00076552       ?dtor$14@?0??CompileInitListElement@asCCompiler@@IEAAHAEAPEAUasSListPatternNode@@AEAPEAVasCScriptNode@@HFAEAIAEAVasCByteCode@@@Z@4HA 0000000180077552 f    CIL library: CIL module
 0001:00076572       ?dtor$15@?0??CompileInitListElement@asCCompiler@@IEAAHAEAPEAUasSListPatternNode@@AEAPEAVasCScriptNode@@HFAEAIAEAVasCByteCode@@@Z@4HA 0000000180077572 f    CIL library: CIL module
 0001:00076592       ?dtor$16@?0??CompileInitListElement@asCCompiler@@IEAAHAEAPEAUasSListPatternNode@@AEAPEAVasCScriptNode@@HFAEAIAEAVasCByteCode@@@Z@4HA 0000000180077592 f    CIL library: CIL module
 0001:000765ad       ?dtor$0@?0??CompileInitList@asCCompiler@@IEAAXPEAUasCTypeInfo@@PEAVasCScriptNode@@PEAVasCByteCode@@H@Z@4HA 00000001800775ad f    CIL library: CIL module
 0001:000765cd       ?dtor$1@?0??CompileInitList@asCCompiler@@IEAAXPEAUasCTypeInfo@@PEAVasCScriptNode@@PEAVasCByteCode@@H@Z@4HA 00000001800775cd f    CIL library: CIL module
 0001:000765ed       ?dtor$2@?0??CompileInitList@asCCompiler@@IEAAXPEAUasCTypeInfo@@PEAVasCScriptNode@@PEAVasCByteCode@@H@Z@4HA 00000001800775ed f    CIL library: CIL module
 0001:0007660d       ?dtor$3@?0??CompileInitList@asCCompiler@@IEAAXPEAUasCTypeInfo@@PEAVasCScriptNode@@PEAVasCByteCode@@H@Z@4HA 000000018007760d f    CIL library: CIL module
 0001:0007662d       ?dtor$4@?0??CompileInitList@asCCompiler@@IEAAXPEAUasCTypeInfo@@PEAVasCScriptNode@@PEAVasCByteCode@@H@Z@4HA 000000018007762d f    CIL library: CIL module
 0001:0007664d       ?dtor$5@?0??CompileInitList@asCCompiler@@IEAAXPEAUasCTypeInfo@@PEAVasCScriptNode@@PEAVasCByteCode@@H@Z@4HA 000000018007764d f    CIL library: CIL module
 0001:0007666d       ?dtor$6@?0??CompileInitList@asCCompiler@@IEAAXPEAUasCTypeInfo@@PEAVasCScriptNode@@PEAVasCByteCode@@H@Z@4HA 000000018007766d f    CIL library: CIL module
 0001:00076688       ?dtor$0@?0??CompileInitialization@asCCompiler@@IEAA_NPEAVasCScriptNode@@PEAVasCByteCode@@AEAVasCDataType@@0HPEA_KH@Z@4HA 0000000180077688 f    CIL library: CIL module
 0001:000766a8       ?dtor$1@?0??CompileInitialization@asCCompiler@@IEAA_NPEAVasCScriptNode@@PEAVasCByteCode@@AEAVasCDataType@@0HPEA_KH@Z@4HA 00000001800776a8 f    CIL library: CIL module
 0001:000766c8       ?dtor$2@?0??CompileInitialization@asCCompiler@@IEAA_NPEAVasCScriptNode@@PEAVasCByteCode@@AEAVasCDataType@@0HPEA_KH@Z@4HA 00000001800776c8 f    CIL library: CIL module
 0001:000766e8       ?dtor$3@?0??CompileInitialization@asCCompiler@@IEAA_NPEAVasCScriptNode@@PEAVasCByteCode@@AEAVasCDataType@@0HPEA_KH@Z@4HA 00000001800776e8 f    CIL library: CIL module
 0001:00076708       ?dtor$4@?0??CompileInitialization@asCCompiler@@IEAA_NPEAVasCScriptNode@@PEAVasCByteCode@@AEAVasCDataType@@0HPEA_KH@Z@4HA 0000000180077708 f    CIL library: CIL module
 0001:00076728       ?dtor$5@?0??CompileInitialization@asCCompiler@@IEAA_NPEAVasCScriptNode@@PEAVasCByteCode@@AEAVasCDataType@@0HPEA_KH@Z@4HA 0000000180077728 f    CIL library: CIL module
 0001:00076748       ?dtor$6@?0??CompileInitialization@asCCompiler@@IEAA_NPEAVasCScriptNode@@PEAVasCByteCode@@AEAVasCDataType@@0HPEA_KH@Z@4HA 0000000180077748 f    CIL library: CIL module
 0001:00076768       ?dtor$7@?0??CompileInitialization@asCCompiler@@IEAA_NPEAVasCScriptNode@@PEAVasCByteCode@@AEAVasCDataType@@0HPEA_KH@Z@4HA 0000000180077768 f    CIL library: CIL module
 0001:00076788       ?dtor$8@?0??CompileInitialization@asCCompiler@@IEAA_NPEAVasCScriptNode@@PEAVasCByteCode@@AEAVasCDataType@@0HPEA_KH@Z@4HA 0000000180077788 f    CIL library: CIL module
 0001:000767a8       ?dtor$9@?0??CompileInitialization@asCCompiler@@IEAA_NPEAVasCScriptNode@@PEAVasCByteCode@@AEAVasCDataType@@0HPEA_KH@Z@4HA 00000001800777a8 f    CIL library: CIL module
 0001:000767c3       ?dtor$0@?0??CompileDeclaration@asCCompiler@@IEAAXPEAVasCScriptNode@@PEAVasCByteCode@@@Z@4HA 00000001800777c3 f    CIL library: CIL module
 0001:000767e3       ?dtor$1@?0??CompileDeclaration@asCCompiler@@IEAAXPEAVasCScriptNode@@PEAVasCByteCode@@@Z@4HA 00000001800777e3 f    CIL library: CIL module
 0001:00076803       ?dtor$2@?0??CompileDeclaration@asCCompiler@@IEAAXPEAVasCScriptNode@@PEAVasCByteCode@@@Z@4HA 0000000180077803 f    CIL library: CIL module
 0001:00076823       ?dtor$3@?0??CompileDeclaration@asCCompiler@@IEAAXPEAVasCScriptNode@@PEAVasCByteCode@@@Z@4HA 0000000180077823 f    CIL library: CIL module
 0001:00076843       ?dtor$4@?0??CompileDeclaration@asCCompiler@@IEAAXPEAVasCScriptNode@@PEAVasCByteCode@@@Z@4HA 0000000180077843 f    CIL library: CIL module
 0001:00076863       ?dtor$5@?0??CompileDeclaration@asCCompiler@@IEAAXPEAVasCScriptNode@@PEAVasCByteCode@@@Z@4HA 0000000180077863 f    CIL library: CIL module
 0001:0007687b       ?dtor$0@?0??CompileGlobalVariable@asCCompiler@@QEAAHPEAVasCBuilder@@PEAVasCScriptCode@@PEAVasCScriptNode@@PEAUsGlobalVariableDescription@@PEAVasCScriptFunction@@@Z@4HA 000000018007787b f    CIL library: CIL module
 0001:0007689b       ?dtor$1@?0??CompileGlobalVariable@asCCompiler@@QEAAHPEAVasCBuilder@@PEAVasCScriptCode@@PEAVasCScriptNode@@PEAUsGlobalVariableDescription@@PEAVasCScriptFunction@@@Z@4HA 000000018007789b f    CIL library: CIL module
 0001:000768b6       ?dtor$14@?0??CompileGlobalVariables@asCBuilder@@IEAAXXZ@4HA 00000001800778b6 f    CIL library: CIL module
 0001:000768d6       ?dtor$0@?0??CompileGlobalVariables@asCBuilder@@IEAAXXZ@4HA 00000001800778d6 f    CIL library: CIL module
 0001:000768f6       ?dtor$1@?0??CompileGlobalVariables@asCBuilder@@IEAAXXZ@4HA 00000001800778f6 f    CIL library: CIL module
 0001:00076916       ?dtor$2@?0??CompileGlobalVariables@asCBuilder@@IEAAXXZ@4HA 0000000180077916 f    CIL library: CIL module
 0001:00076936       ?dtor$3@?0??CompileGlobalVariables@asCBuilder@@IEAAXXZ@4HA 0000000180077936 f    CIL library: CIL module
 0001:00076956       ?dtor$4@?0??CompileGlobalVariables@asCBuilder@@IEAAXXZ@4HA 0000000180077956 f    CIL library: CIL module
 0001:00076976       ?dtor$5@?0??CompileGlobalVariables@asCBuilder@@IEAAXXZ@4HA 0000000180077976 f    CIL library: CIL module
 0001:00076996       ?dtor$6@?0??CompileGlobalVariables@asCBuilder@@IEAAXXZ@4HA 0000000180077996 f    CIL library: CIL module
 0001:000769b6       ?dtor$7@?0??CompileGlobalVariables@asCBuilder@@IEAAXXZ@4HA 00000001800779b6 f    CIL library: CIL module
 0001:000769d6       ?dtor$8@?0??CompileGlobalVariables@asCBuilder@@IEAAXXZ@4HA 00000001800779d6 f    CIL library: CIL module
 0001:000769f6       ?dtor$9@?0??CompileGlobalVariables@asCBuilder@@IEAAXXZ@4HA 00000001800779f6 f    CIL library: CIL module
 0001:00076a16       ?dtor$10@?0??CompileGlobalVariables@asCBuilder@@IEAAXXZ@4HA 0000000180077a16 f    CIL library: CIL module
 0001:00076a36       ?dtor$11@?0??CompileGlobalVariables@asCBuilder@@IEAAXXZ@4HA 0000000180077a36 f    CIL library: CIL module
 0001:00076a56       ?dtor$15@?0??CompileGlobalVariables@asCBuilder@@IEAAXXZ@4HA 0000000180077a56 f    CIL library: CIL module
 0001:00076a76       ?dtor$17@?0??CompileGlobalVariables@asCBuilder@@IEAAXXZ@4HA 0000000180077a76 f    CIL library: CIL module
 0001:00076a96       ?dtor$18@?0??CompileGlobalVariables@asCBuilder@@IEAAXXZ@4HA 0000000180077a96 f    CIL library: CIL module
 0001:00076ab6       ?dtor$12@?0??CompileGlobalVariables@asCBuilder@@IEAAXXZ@4HA 0000000180077ab6 f    CIL library: CIL module
 0001:00076ad6       ?dtor$20@?0??CompileGlobalVariables@asCBuilder@@IEAAXXZ@4HA 0000000180077ad6 f    CIL library: CIL module
 0001:00076af6       ?dtor$22@?0??CompileGlobalVariables@asCBuilder@@IEAAXXZ@4HA 0000000180077af6 f    CIL library: CIL module
 0001:00076b16       ?dtor$23@?0??CompileGlobalVariables@asCBuilder@@IEAAXXZ@4HA 0000000180077b16 f    CIL library: CIL module
 0001:00076b36       ?dtor$25@?0??CompileGlobalVariables@asCBuilder@@IEAAXXZ@4HA 0000000180077b36 f    CIL library: CIL module
 0001:00076b56       ?dtor$26@?0??CompileGlobalVariables@asCBuilder@@IEAAXXZ@4HA 0000000180077b56 f    CIL library: CIL module
 0001:00076b76       ?dtor$28@?0??CompileGlobalVariables@asCBuilder@@IEAAXXZ@4HA 0000000180077b76 f    CIL library: CIL module
 0001:00076b96       ?dtor$30@?0??CompileGlobalVariables@asCBuilder@@IEAAXXZ@4HA 0000000180077b96 f    CIL library: CIL module
 0001:00076bb6       ?dtor$31@?0??CompileGlobalVariables@asCBuilder@@IEAAXXZ@4HA 0000000180077bb6 f    CIL library: CIL module
 0001:00076bd1       ?dtor$1@?0??CompileGlobalVar@asCBuilder@@QEAAHPEBD0H@Z@4HA 0000000180077bd1 f    CIL library: CIL module
 0001:00076bf1       ?dtor$2@?0??CompileGlobalVar@asCBuilder@@QEAAHPEBD0H@Z@4HA 0000000180077bf1 f    CIL library: CIL module
 0001:00076c11       ?dtor$3@?0??CompileGlobalVar@asCBuilder@@QEAAHPEBD0H@Z@4HA 0000000180077c11 f    CIL library: CIL module
 0001:00076c29       ?dtor$0@?0??CompileGlobalVar@asCModule@@UEAAHPEBD0H@Z@4HA 0000000180077c29 f    CIL library: CIL module
 0001:00076c29       ?dtor$0@?0??CompileFunction@asCModule@@UEAAHPEBD0HKPEAPEAVasIScriptFunction@@@Z@4HA 0000000180077c29 f    CIL library: CIL module
 0001:00076c49       ?dtor$1@?0??CompileFunction@asCModule@@UEAAHPEBD0HKPEAPEAVasIScriptFunction@@@Z@4HA 0000000180077c49 f    CIL library: CIL module
 0001:00076c49       ?dtor$1@?0??CompileGlobalVar@asCModule@@UEAAHPEBD0H@Z@4HA 0000000180077c49 f    CIL library: CIL module
 0001:00076c61       ?dtor$0@?0??CompileForStatement@asCCompiler@@IEAAXPEAVasCScriptNode@@PEAVasCByteCode@@@Z@4HA 0000000180077c61 f    CIL library: CIL module
 0001:00076c81       ?dtor$1@?0??CompileForStatement@asCCompiler@@IEAAXPEAVasCScriptNode@@PEAVasCByteCode@@@Z@4HA 0000000180077c81 f    CIL library: CIL module
 0001:00076ca1       ?dtor$2@?0??CompileForStatement@asCCompiler@@IEAAXPEAVasCScriptNode@@PEAVasCByteCode@@@Z@4HA 0000000180077ca1 f    CIL library: CIL module
 0001:00076cc1       ?dtor$3@?0??CompileForStatement@asCCompiler@@IEAAXPEAVasCScriptNode@@PEAVasCByteCode@@@Z@4HA 0000000180077cc1 f    CIL library: CIL module
 0001:00076ce1       ?dtor$4@?0??CompileForStatement@asCCompiler@@IEAAXPEAVasCScriptNode@@PEAVasCByteCode@@@Z@4HA 0000000180077ce1 f    CIL library: CIL module
 0001:00076d01       ?dtor$5@?0??CompileForStatement@asCCompiler@@IEAAXPEAVasCScriptNode@@PEAVasCByteCode@@@Z@4HA 0000000180077d01 f    CIL library: CIL module
 0001:00076d1c       ?dtor$0@?0??CompileCase@asCCompiler@@IEAAXPEAVasCScriptNode@@PEAVasCByteCode@@@Z@4HA 0000000180077d1c f    CIL library: CIL module
 0001:00076d3c       ?dtor$1@?0??CompileCase@asCCompiler@@IEAAXPEAVasCScriptNode@@PEAVasCByteCode@@@Z@4HA 0000000180077d3c f    CIL library: CIL module
 0001:00076d5c       ?dtor$2@?0??CompileCase@asCCompiler@@IEAAXPEAVasCScriptNode@@PEAVasCByteCode@@@Z@4HA 0000000180077d5c f    CIL library: CIL module
 0001:00076d74       ?dtor$0@?0??CompileSwitchStatement@asCCompiler@@IEAAXPEAVasCScriptNode@@PEA_NPEAVasCByteCode@@@Z@4HA 0000000180077d74 f    CIL library: CIL module
 0001:00076d94       ?dtor$1@?0??CompileSwitchStatement@asCCompiler@@IEAAXPEAVasCScriptNode@@PEA_NPEAVasCByteCode@@@Z@4HA 0000000180077d94 f    CIL library: CIL module
 0001:00076db4       ?dtor$2@?0??CompileSwitchStatement@asCCompiler@@IEAAXPEAVasCScriptNode@@PEA_NPEAVasCByteCode@@@Z@4HA 0000000180077db4 f    CIL library: CIL module
 0001:00076dd4       ?dtor$3@?0??CompileSwitchStatement@asCCompiler@@IEAAXPEAVasCScriptNode@@PEA_NPEAVasCByteCode@@@Z@4HA 0000000180077dd4 f    CIL library: CIL module
 0001:00076df4       ?dtor$4@?0??CompileSwitchStatement@asCCompiler@@IEAAXPEAVasCScriptNode@@PEA_NPEAVasCByteCode@@@Z@4HA 0000000180077df4 f    CIL library: CIL module
 0001:00076e14       ?dtor$5@?0??CompileSwitchStatement@asCCompiler@@IEAAXPEAVasCScriptNode@@PEA_NPEAVasCByteCode@@@Z@4HA 0000000180077e14 f    CIL library: CIL module
 0001:00076e34       ?dtor$6@?0??CompileSwitchStatement@asCCompiler@@IEAAXPEAVasCScriptNode@@PEA_NPEAVasCByteCode@@@Z@4HA 0000000180077e34 f    CIL library: CIL module
 0001:00076e54       ?dtor$7@?0??CompileSwitchStatement@asCCompiler@@IEAAXPEAVasCScriptNode@@PEA_NPEAVasCByteCode@@@Z@4HA 0000000180077e54 f    CIL library: CIL module
 0001:00076e74       ?dtor$8@?0??CompileSwitchStatement@asCCompiler@@IEAAXPEAVasCScriptNode@@PEA_NPEAVasCByteCode@@@Z@4HA 0000000180077e74 f    CIL library: CIL module
 0001:00076e94       ?dtor$9@?0??CompileSwitchStatement@asCCompiler@@IEAAXPEAVasCScriptNode@@PEA_NPEAVasCByteCode@@@Z@4HA 0000000180077e94 f    CIL library: CIL module
 0001:00076eb4       ?dtor$10@?0??CompileSwitchStatement@asCCompiler@@IEAAXPEAVasCScriptNode@@PEA_NPEAVasCByteCode@@@Z@4HA 0000000180077eb4 f    CIL library: CIL module
 0001:00076ecf       ?dtor$0@?0??CompileStatementBlock@asCCompiler@@IEAAXPEAVasCScriptNode@@_NPEA_NPEAVasCByteCode@@@Z@4HA 0000000180077ecf f    CIL library: CIL module
 0001:00076eef       ?dtor$1@?0??CompileStatementBlock@asCCompiler@@IEAAXPEAVasCScriptNode@@_NPEA_NPEAVasCByteCode@@@Z@4HA 0000000180077eef f    CIL library: CIL module
 0001:00076f07       ?dtor$0@?0??CompileFunction@asCCompiler@@QEAAHPEAVasCBuilder@@PEAVasCScriptCode@@AEAV?$asCArray@VasCString@@@@PEAVasCScriptNode@@PEAVasCScriptFunction@@PEAUsClassDeclaration@@@Z@4HA 0000000180077f07 f    CIL library: CIL module
 0001:00076f27       ?dtor$1@?0??CompileFunction@asCCompiler@@QEAAHPEAVasCBuilder@@PEAVasCScriptCode@@AEAV?$asCArray@VasCString@@@@PEAVasCScriptNode@@PEAVasCScriptFunction@@PEAUsClassDeclaration@@@Z@4HA 0000000180077f27 f    CIL library: CIL module
 0001:00076f47       ?dtor$2@?0??CompileFunction@asCCompiler@@QEAAHPEAVasCBuilder@@PEAVasCScriptCode@@AEAV?$asCArray@VasCString@@@@PEAVasCScriptNode@@PEAVasCScriptFunction@@PEAUsClassDeclaration@@@Z@4HA 0000000180077f47 f    CIL library: CIL module
 0001:00076f67       ?dtor$3@?0??CompileFunction@asCCompiler@@QEAAHPEAVasCBuilder@@PEAVasCScriptCode@@AEAV?$asCArray@VasCString@@@@PEAVasCScriptNode@@PEAVasCScriptFunction@@PEAUsClassDeclaration@@@Z@4HA 0000000180077f67 f    CIL library: CIL module
 0001:00076f87       ?dtor$4@?0??CompileFunction@asCCompiler@@QEAAHPEAVasCBuilder@@PEAVasCScriptCode@@AEAV?$asCArray@VasCString@@@@PEAVasCScriptNode@@PEAVasCScriptFunction@@PEAUsClassDeclaration@@@Z@4HA 0000000180077f87 f    CIL library: CIL module
 0001:00076fa7       ?dtor$5@?0??CompileFunction@asCCompiler@@QEAAHPEAVasCBuilder@@PEAVasCScriptCode@@AEAV?$asCArray@VasCString@@@@PEAVasCScriptNode@@PEAVasCScriptFunction@@PEAUsClassDeclaration@@@Z@4HA 0000000180077fa7 f    CIL library: CIL module
 0001:00076fc7       ?dtor$6@?0??CompileFunction@asCCompiler@@QEAAHPEAVasCBuilder@@PEAVasCScriptCode@@AEAV?$asCArray@VasCString@@@@PEAVasCScriptNode@@PEAVasCScriptFunction@@PEAUsClassDeclaration@@@Z@4HA 0000000180077fc7 f    CIL library: CIL module
 0001:00076fdf       ?dtor$0@?0??CompileFunctions@asCBuilder@@IEAAXXZ@4HA 0000000180077fdf f    CIL library: CIL module
 0001:00076fff       ?dtor$1@?0??CompileFunctions@asCBuilder@@IEAAXXZ@4HA 0000000180077fff f    CIL library: CIL module
 0001:0007701f       ?dtor$2@?0??CompileFunctions@asCBuilder@@IEAAXXZ@4HA 000000018007801f f    CIL library: CIL module
 0001:00077037       ?dtor$1@?0??CompileFunction@asCBuilder@@QEAAHPEBD0HKPEAPEAVasCScriptFunction@@@Z@4HA 0000000180078037 f    CIL library: CIL module
 0001:00077057       ?dtor$2@?0??CompileFunction@asCBuilder@@QEAAHPEBD0HKPEAPEAVasCScriptFunction@@@Z@4HA 0000000180078057 f    CIL library: CIL module
 0001:00077077       ?dtor$3@?0??CompileFunction@asCBuilder@@QEAAHPEBD0HKPEAPEAVasCScriptFunction@@@Z@4HA 0000000180078077 f    CIL library: CIL module
 0001:000770a7       ?dtor$4@?0??CompileFunction@asCBuilder@@QEAAHPEBD0HKPEAPEAVasCScriptFunction@@@Z@4HA 00000001800780a7 f    CIL library: CIL module
 0001:000770c7       ?dtor$6@?0??CompileFunction@asCBuilder@@QEAAHPEBD0HKPEAPEAVasCScriptFunction@@@Z@4HA 00000001800780c7 f    CIL library: CIL module
 0001:000770e7       ?dtor$7@?0??CompileFunction@asCBuilder@@QEAAHPEBD0HKPEAPEAVasCScriptFunction@@@Z@4HA 00000001800780e7 f    CIL library: CIL module
 0001:00077104       ??__EuserAlloc@@YAXXZ      0000000180078104 f    CIL library: CIL module
 0001:00077114       ??__EuserFree@@YAXXZ       0000000180078114 f    CIL library: CIL module
 0001:00077124       ??__Fdummy@?3??GetIndexes@?$asCSymbolTable@VasCScriptFunction@@@@QEBAAEBV?$asCArray@I@@PEBUasSNameSpace@@AEBVasCString@@@Z@YAXXZ 0000000180078124 f    CIL library: CIL module

 Exports

  ordinal    name

        1    asAcquireExclusiveLock
        2    asAcquireSharedLock
        3    asAtomicDec
        4    asAtomicInc
        5    asCreateLockableSharedBool
        6    asCreateScriptEngine
        7    asGetActiveContext
        8    asGetLibraryOptions
        9    asGetLibraryVersion
       10    asGetThreadManager
       11    asPrepareMultithread
       12    asReleaseExclusiveLock
       13    asReleaseSharedLock
       14    asResetGlobalMemoryFunctions
       15    asSetGlobalMemoryFunctions
       16    asThreadCleanup
       17    asUnprepareMultithread
