 lib_jpeglib

 Timestamp is 52d55280 (Tue Jan 14 18:06:40 2014)

 Preferred load address is 0000000180000000

 Start         Length     Name                   Class
 0001:00000000 000258ecH .text                   CODE
 0001:000258f0 00000091H .text$x                 CODE
 0002:00000000 00000148H .idata$5                DATA
 0002:00000148 00000008H .CRT$XCA                DATA
 0002:00000150 00000008H .CRT$XCZ                DATA
 0002:00000158 00000008H .CRT$XIA                DATA
 0002:00000160 00000008H .CRT$XIAA               DATA
 0002:00000168 00000008H .CRT$XIZ                DATA
 0002:00000170 00002968H .rdata                  DATA
 0002:00002ad8 00000008H .rtc$IAA                DATA
 0002:00002ae0 00000008H .rtc$IZZ                DATA
 0002:00002ae8 00000008H .rtc$TAA                DATA
 0002:00002af0 00000008H .rtc$TZZ                DATA
 0002:00002af8 00000d1cH .xdata                  DATA
 0002:00003814 00000028H .idata$2                DATA
 0002:0000383c 00000014H .idata$3                DATA
 0002:00003850 00000148H .idata$4                DATA
 0002:00003998 00000240H .idata$6                DATA
 0002:00003be0 00001183H .edata                  DATA
 0003:00000000 0000001cH .data                   DATA
 0003:00000020 00000040H .bss                    DATA
 0004:00000000 00001128H .pdata                  DATA

  Address         Publics by Value              Rva+Base               Lib:Object

 0000:00000000       ___safe_se_handler_count   0000000000000000     <absolute>
 0000:00000000       ___safe_se_handler_table   0000000000000000     <absolute>
 0000:00000000       __ImageBase                0000000180000000     <linker-defined>
 0001:00000000       jpeg_CreateCompress        0000000180001000 f   jcapimin.obj
 0001:00000134       jpeg_destroy_compress      0000000180001134 f   jcapimin.obj
 0001:00000134       jpeg_destroy_decompress    0000000180001134 f   jdapimin.obj
 0001:0000013c       jpeg_abort_decompress      000000018000113c f   jdapimin.obj
 0001:0000013c       jpeg_abort_compress        000000018000113c f   jcapimin.obj
 0001:00000144       jpeg_suppress_tables       0000000180001144 f   jcapimin.obj
 0001:0000019c       jpeg_finish_compress       000000018000119c f   jcapimin.obj
 0001:000002a0       jpeg_write_marker          00000001800012a0 f   jcapimin.obj
 0001:0000033c       jpeg_write_m_header        000000018000133c f   jcapimin.obj
 0001:000003ac       jpeg_write_m_byte          00000001800013ac f   jcapimin.obj
 0001:000003b8       jpeg_write_tables          00000001800013b8 f   jcapimin.obj
 0001:00000418       jpeg_start_compress        0000000180001418 f   jcapistd.obj
 0001:000004a4       jpeg_write_scanlines       00000001800014a4 f   jcapistd.obj
 0001:0000057c       jpeg_write_raw_data        000000018000157c f   jcapistd.obj
 0001:000017fc       jinit_arith_encoder        00000001800027fc f   jcarith.obj
 0001:00002024       jinit_c_coef_controller    0000000180003024 f   jccoefct.obj
 0001:00002770       jinit_color_converter      0000000180003770 f   jccolor.obj
 0001:0000308c       jinit_forward_dct          000000018000408c f   jcdctmgr.obj
 0001:00004b9c       jinit_huff_encoder         0000000180005b9c f   jchuff.obj
 0001:00004c00       jinit_compress_master      0000000180005c00 f   jcinit.obj
 0001:00004dd4       jinit_c_main_controller    0000000180005dd4 f   jcmainct.obj
 0001:00005a20       jinit_marker_writer        0000000180006a20 f   jcmarker.obj
 0001:00005a98       jpeg_calc_jpeg_dimensions  0000000180006a98 f   jcmaster.obj
 0001:00006e18       jinit_c_master_control     0000000180007e18 f   jcmaster.obj
 0001:00006f14       jpeg_abort                 0000000180007f14 f   jcomapi.obj
 0001:00006f54       jpeg_destroy               0000000180007f54 f   jcomapi.obj
 0001:00006f78       jpeg_alloc_quant_table     0000000180007f78 f   jcomapi.obj
 0001:00006f98       jpeg_alloc_huff_table      0000000180007f98 f   jcomapi.obj
 0001:00006fb8       jpeg_add_quant_table       0000000180007fb8 f   jcparam.obj
 0001:000070c0       jpeg_default_qtables       00000001800080c0 f   jcparam.obj
 0001:00007114       jpeg_set_linear_quality    0000000180008114 f   jcparam.obj
 0001:0000716c       jpeg_quality_scaling       000000018000816c f   jcparam.obj
 0001:00007194       jpeg_set_quality           0000000180008194 f   jcparam.obj
 0001:00007278       jpeg_set_defaults          0000000180008278 f   jcparam.obj
 0001:00007414       jpeg_default_colorspace    0000000180008414 f   jcparam.obj
 0001:00007470       jpeg_set_colorspace        0000000180008470 f   jcparam.obj
 0001:00007820       jpeg_simple_progression    0000000180008820 f   jcparam.obj
 0001:00008048       jinit_c_prep_controller    0000000180009048 f   jcprepct.obj
 0001:00008998       jinit_downsampler          0000000180009998 f   jcsample.obj
 0001:00008b70       jpeg_write_coefficients    0000000180009b70 f   jctrans.obj
 0001:00008c9c       jpeg_copy_critical_parameters 0000000180009c9c f   jctrans.obj
 0001:00009268       jpeg_CreateDecompress      000000018000a268 f   jdapimin.obj
 0001:00009524       jpeg_read_header           000000018000a524 f   jdapimin.obj
 0001:000095ac       jpeg_consume_input         000000018000a5ac f   jdapimin.obj
 0001:00009668       jpeg_input_complete        000000018000a668 f   jdapimin.obj
 0001:000096ac       jpeg_has_multiple_scans    000000018000a6ac f   jdapimin.obj
 0001:000096f0       jpeg_finish_decompress     000000018000a6f0 f   jdapimin.obj
 0001:000097b0       jpeg_start_decompress      000000018000a7b0 f   jdapistd.obj
 0001:00009964       jpeg_read_scanlines        000000018000a964 f   jdapistd.obj
 0001:00009a1c       jpeg_read_raw_data         000000018000aa1c f   jdapistd.obj
 0001:00009af4       jpeg_start_output          000000018000aaf4 f   jdapistd.obj
 0001:00009b68       jpeg_finish_output         000000018000ab68 f   jdapistd.obj
 0001:0000ab6c       jinit_arith_decoder        000000018000bb6c f   jdarith.obj
 0001:0000adfc       jpeg_stdio_dest            000000018000bdfc f   jdatadst.obj
 0001:0000ae58       jpeg_mem_dest              000000018000be58 f   jdatadst.obj
 0001:0000b074       jpeg_stdio_src             000000018000c074 f   jdatasrc.obj
 0001:0000b114       jpeg_mem_src               000000018000c114 f   jdatasrc.obj
 0001:0000c170       jinit_d_coef_controller    000000018000d170 f   jdcoefct.obj
 0001:0000cb2c       jinit_color_deconverter    000000018000db2c f   jdcolor.obj
 0001:0000d214       jinit_inverse_dct          000000018000e214 f   jddctmgr.obj
 0001:0000f190       jinit_huff_decoder         0000000180010190 f   jdhuff.obj
 0001:0000f258       jpeg_core_output_dimensions 0000000180010258 f   jdinput.obj
 0001:0000fea0       jinit_input_controller     0000000180010ea0 f   jdinput.obj
 0001:000105bc       jinit_d_main_controller    00000001800115bc f   jdmainct.obj
 0001:000128d8       jpeg_resync_to_restart     00000001800138d8 f   jdmarker.obj
 0001:00012a24       jinit_marker_reader        0000000180013a24 f   jdmarker.obj
 0001:00012ae4       jpeg_save_markers          0000000180013ae4 f   jdmarker.obj
 0001:00012bac       jpeg_set_marker_processor  0000000180013bac f   jdmarker.obj
 0001:00012ca4       jpeg_calc_output_dimensions 0000000180013ca4 f   jdmaster.obj
 0001:000132b8       jpeg_new_colormap          00000001800142b8 f   jdmaster.obj
 0001:00013338       jinit_master_decompress    0000000180014338 f   jdmaster.obj
 0001:00013840       jinit_merged_upsampler     0000000180014840 f   jdmerge.obj
 0001:00013cb0       jinit_d_post_controller    0000000180014cb0 f   jdpostct.obj
 0001:000140e4       jinit_upsampler            00000001800150e4 f   jdsample.obj
 0001:000142b4       jpeg_read_coefficients     00000001800152b4 f   jdtrans.obj
 0001:000145ac       jpeg_std_error             00000001800155ac f   jerror.obj
 0001:00014620       jpeg_fdct_float            0000000180015620 f   jfdctflt.obj
 0001:00014920       jpeg_fdct_ifast            0000000180015920 f   jfdctfst.obj
 0001:00014b50       jpeg_fdct_islow            0000000180015b50 f   jfdctint.obj
 0001:00014e3c       jpeg_fdct_7x7              0000000180015e3c f   jfdctint.obj
 0001:00015118       jpeg_fdct_6x6              0000000180016118 f   jfdctint.obj
 0001:00015300       jpeg_fdct_5x5              0000000180016300 f   jfdctint.obj
 0001:000154c4       jpeg_fdct_4x4              00000001800164c4 f   jfdctint.obj
 0001:00015608       jpeg_fdct_3x3              0000000180016608 f   jfdctint.obj
 0001:00015714       jpeg_fdct_2x2              0000000180016714 f   jfdctint.obj
 0001:000157a0       jpeg_fdct_1x1              00000001800167a0 f   jfdctint.obj
 0001:000157e4       jpeg_fdct_9x9              00000001800167e4 f   jfdctint.obj
 0001:00015b20       jpeg_fdct_10x10            0000000180016b20 f   jfdctint.obj
 0001:00015f48       jpeg_fdct_11x11            0000000180016f48 f   jfdctint.obj
 0001:00016478       jpeg_fdct_12x12            0000000180017478 f   jfdctint.obj
 0001:00016930       jpeg_fdct_13x13            0000000180017930 f   jfdctint.obj
 0001:00016f30       jpeg_fdct_14x14            0000000180017f30 f   jfdctint.obj
 0001:000174cc       jpeg_fdct_15x15            00000001800184cc f   jfdctint.obj
 0001:00017aec       jpeg_fdct_16x16            0000000180018aec f   jfdctint.obj
 0001:000181cc       jpeg_fdct_16x8             00000001800191cc f   jfdctint.obj
 0001:000186a4       jpeg_fdct_14x7             00000001800196a4 f   jfdctint.obj
 0001:00018ac0       jpeg_fdct_12x6             0000000180019ac0 f   jfdctint.obj
 0001:00018e10       jpeg_fdct_10x5             0000000180019e10 f   jfdctint.obj
 0001:000190f0       jpeg_fdct_8x4              000000018001a0f0 f   jfdctint.obj
 0001:00019334       jpeg_fdct_6x3              000000018001a334 f   jfdctint.obj
 0001:000194b4       jpeg_fdct_4x2              000000018001a4b4 f   jfdctint.obj
 0001:000195a8       jpeg_fdct_2x1              000000018001a5a8 f   jfdctint.obj
 0001:00019604       jpeg_fdct_8x16             000000018001a604 f   jfdctint.obj
 0001:00019b20       jpeg_fdct_7x14             000000018001ab20 f   jfdctint.obj
 0001:00019f94       jpeg_fdct_6x12             000000018001af94 f   jfdctint.obj
 0001:0001a300       jpeg_fdct_5x10             000000018001b300 f   jfdctint.obj
 0001:0001a610       jpeg_fdct_4x8              000000018001b610 f   jfdctint.obj
 0001:0001a828       jpeg_fdct_3x6              000000018001b828 f   jfdctint.obj
 0001:0001a9ac       jpeg_fdct_2x4              000000018001b9ac f   jfdctint.obj
 0001:0001aa84       jpeg_fdct_1x2              000000018001ba84 f   jfdctint.obj
 0001:0001aae4       jpeg_idct_float            000000018001bae4 f   jidctflt.obj
 0001:0001af30       jpeg_idct_ifast            000000018001bf30 f   jidctfst.obj
 0001:0001b320       jpeg_idct_islow            000000018001c320 f   jidctint.obj
 0001:0001b7b4       jpeg_idct_7x7              000000018001c7b4 f   jidctint.obj
 0001:0001bb10       jpeg_idct_6x6              000000018001cb10 f   jidctint.obj
 0001:0001bd74       jpeg_idct_5x5              000000018001cd74 f   jidctint.obj
 0001:0001bf78       jpeg_idct_4x4              000000018001cf78 f   jidctint.obj
 0001:0001c11c       jpeg_idct_3x3              000000018001d11c f   jidctint.obj
 0001:0001c260       jpeg_idct_2x2              000000018001d260 f   jidctint.obj
 0001:0001c334       jpeg_idct_1x1              000000018001d334 f   jidctint.obj
 0001:0001c36c       jpeg_idct_9x9              000000018001d36c f   jidctint.obj
 0001:0001c734       jpeg_idct_10x10            000000018001d734 f   jidctint.obj
 0001:0001cbac       jpeg_idct_11x11            000000018001dbac f   jidctint.obj
 0001:0001d124       jpeg_idct_12x12            000000018001e124 f   jidctint.obj
 0001:0001d634       jpeg_idct_13x13            000000018001e634 f   jidctint.obj
 0001:0001dc7c       jpeg_idct_14x14            000000018001ec7c f   jidctint.obj
 0001:0001e28c       jpeg_idct_15x15            000000018001f28c f   jidctint.obj
 0001:0001e8e0       jpeg_idct_16x16            000000018001f8e0 f   jidctint.obj
 0001:0001f010       jpeg_idct_16x8             0000000180020010 f   jidctint.obj
 0001:0001f610       jpeg_idct_14x7             0000000180020610 f   jidctint.obj
 0001:0001facc       jpeg_idct_12x6             0000000180020acc f   jidctint.obj
 0001:0001fe84       jpeg_idct_10x5             0000000180020e84 f   jidctint.obj
 0001:000201c8       jpeg_idct_8x4              00000001800211c8 f   jidctint.obj
 0001:00020478       jpeg_idct_6x3              0000000180021478 f   jidctint.obj
 0001:00020660       jpeg_idct_4x2              0000000180021660 f   jidctint.obj
 0001:000207a0       jpeg_idct_2x1              00000001800217a0 f   jidctint.obj
 0001:000207f8       jpeg_idct_8x16             00000001800217f8 f   jidctint.obj
 0001:00020d24       jpeg_idct_7x14             0000000180021d24 f   jidctint.obj
 0001:000211a4       jpeg_idct_6x12             00000001800221a4 f   jidctint.obj
 0001:00021538       jpeg_idct_5x10             0000000180022538 f   jidctint.obj
 0001:00021864       jpeg_idct_4x8              0000000180022864 f   jidctint.obj
 0001:00021b68       jpeg_idct_3x6              0000000180022b68 f   jidctint.obj
 0001:00021d34       jpeg_idct_2x4              0000000180022d34 f   jidctint.obj
 0001:00021e58       jpeg_idct_1x2              0000000180022e58 f   jidctint.obj
 0001:00021eb8       jpeg_get_large             0000000180022eb8 f   jmemansi.obj
 0001:00021eb8       jpeg_get_small             0000000180022eb8 f   jmemansi.obj
 0001:00021ec4       jpeg_free_large            0000000180022ec4 f   jmemansi.obj
 0001:00021ec4       jpeg_free_small            0000000180022ec4 f   jmemansi.obj
 0001:00021ed0       jpeg_mem_available         0000000180022ed0 f   jmemansi.obj
 0001:00022000       jpeg_open_backing_store    0000000180023000 f   jmemansi.obj
 0001:00022078       jpeg_mem_init              0000000180023078 f   jmemansi.obj
 0001:00022080       jpeg_mem_term              0000000180023080 f   jmemansi.obj
 0001:00022d54       jinit_memory_mgr           0000000180023d54 f   jmemmgr.obj
 0001:00023bd4       jinit_1pass_quantizer      0000000180024bd4 f   jquant1.obj
 0001:00024f7c       jinit_2pass_quantizer      0000000180025f7c f   jquant2.obj
 0001:000250f0       jdiv_round_up              00000001800260f0 f   jutils.obj
 0001:000250fc       jround_up                  00000001800260fc f   jutils.obj
 0001:00025114       jcopy_sample_rows          0000000180026114 f   jutils.obj
 0001:00025174       jcopy_block_row            0000000180026174 f   jutils.obj
 0001:000251ec       _CRT_INIT                  00000001800261ec f   MSVCRT:crtdll.obj
 0001:00025580       _DllMainCRTStartup         0000000180026580 f   MSVCRT:crtdll.obj
 0001:000255c0       __clean_type_info_names    00000001800265c0 f   MSVCRT:tncleanup.obj
 0001:000255cc       _onexit                    00000001800265cc f   MSVCRT:atonexit.obj
 0001:0002567c       atexit                     000000018002667c f   MSVCRT:atonexit.obj
 0001:00025694       _RTC_Initialize            0000000180026694 f   MSVCRT:_initsect_.obj
 0001:000256cc       _RTC_Terminate             00000001800266cc f   MSVCRT:_initsect_.obj
 0001:00025710       _ValidateImageBase         0000000180026710 f   MSVCRT:pesect.obj
 0001:00025740       _FindPESection             0000000180026740 f   MSVCRT:pesect.obj
 0001:00025790       _IsNonwritableInCurrentImage 0000000180026790 f   MSVCRT:pesect.obj
 0001:000257d2       _initterm                  00000001800267d2 f   MSVCRT:MSVCR90.dll
 0001:000257d8       _initterm_e                00000001800267d8 f   MSVCRT:MSVCR90.dll
 0001:000257de       _amsg_exit                 00000001800267de f   MSVCRT:MSVCR90.dll
 0001:000257e4       __C_specific_handler       00000001800267e4 f   MSVCRT:MSVCR90.dll
 0001:000257ea       __CppXcptFilter            00000001800267ea f   MSVCRT:MSVCR90.dll
 0001:000257f0       DllMain                    00000001800267f0 f   MSVCRT:dllmain.obj
 0001:00025814       __security_init_cookie     0000000180026814 f   MSVCRT:gs_support.obj
 0001:000258c8       __clean_type_info_names_internal 00000001800268c8 f   MSVCRT:MSVCR90.dll
 0001:000258ce       _unlock                    00000001800268ce f   MSVCRT:MSVCR90.dll
 0001:000258d4       __dllonexit                00000001800268d4 f   MSVCRT:MSVCR90.dll
 0001:000258da       _lock                      00000001800268da f   MSVCRT:MSVCR90.dll
 0001:000258e0       memcpy                     00000001800268e0 f   MSVCRT:MSVCR90.dll
 0001:000258e6       memset                     00000001800268e6 f   MSVCRT:MSVCR90.dll
 0002:00000000       __imp_GetCurrentProcessId  0000000180027000     kernel32:KERNEL32.dll
 0002:00000008       __imp_GetCurrentThreadId   0000000180027008     kernel32:KERNEL32.dll
 0002:00000010       __imp_GetTickCount         0000000180027010     kernel32:KERNEL32.dll
 0002:00000018       __imp_QueryPerformanceCounter 0000000180027018     kernel32:KERNEL32.dll
 0002:00000020       __imp_DisableThreadLibraryCalls 0000000180027020     kernel32:KERNEL32.dll
 0002:00000028       __imp_Sleep                0000000180027028     kernel32:KERNEL32.dll
 0002:00000030       __imp_GetSystemTimeAsFileTime 0000000180027030     kernel32:KERNEL32.dll
 0002:00000038       \177KERNEL32_NULL_THUNK_DATA 0000000180027038     kernel32:KERNEL32.dll
 0002:00000040       __imp___iob_func           0000000180027040     MSVCRT:MSVCR90.dll
 0002:00000048       __imp_fprintf              0000000180027048     MSVCRT:MSVCR90.dll
 0002:00000050       __imp_exit                 0000000180027050     MSVCRT:MSVCR90.dll
 0002:00000058       __imp_tmpfile              0000000180027058     MSVCRT:MSVCR90.dll
 0002:00000060       __imp_fseek                0000000180027060     MSVCRT:MSVCR90.dll
 0002:00000068       __imp_fclose               0000000180027068     MSVCRT:MSVCR90.dll
 0002:00000070       __imp_sscanf               0000000180027070     MSVCRT:MSVCR90.dll
 0002:00000078       __imp_getenv               0000000180027078     MSVCRT:MSVCR90.dll
 0002:00000080       __imp__encode_pointer      0000000180027080     MSVCRT:MSVCR90.dll
 0002:00000088       __imp__malloc_crt          0000000180027088     MSVCRT:MSVCR90.dll
 0002:00000090       __imp__initterm            0000000180027090     MSVCRT:MSVCR90.dll
 0002:00000098       __imp_sprintf              0000000180027098     MSVCRT:MSVCR90.dll
 0002:000000a0       __imp__encoded_null        00000001800270a0     MSVCRT:MSVCR90.dll
 0002:000000a8       __imp__decode_pointer      00000001800270a8     MSVCRT:MSVCR90.dll
 0002:000000b0       __imp__amsg_exit           00000001800270b0     MSVCRT:MSVCR90.dll
 0002:000000b8       __imp___C_specific_handler 00000001800270b8     MSVCRT:MSVCR90.dll
 0002:000000c0       __imp___CppXcptFilter      00000001800270c0     MSVCRT:MSVCR90.dll
 0002:000000c8       __imp___clean_type_info_names_internal 00000001800270c8     MSVCRT:MSVCR90.dll
 0002:000000d0       __imp__unlock              00000001800270d0     MSVCRT:MSVCR90.dll
 0002:000000d8       __imp___dllonexit          00000001800270d8     MSVCRT:MSVCR90.dll
 0002:000000e0       __imp__lock                00000001800270e0     MSVCRT:MSVCR90.dll
 0002:000000e8       __imp__onexit              00000001800270e8     MSVCRT:MSVCR90.dll
 0002:000000f0       __imp_strncpy              00000001800270f0     MSVCRT:MSVCR90.dll
 0002:000000f8       __imp_fread                00000001800270f8     MSVCRT:MSVCR90.dll
 0002:00000100       __imp_fwrite               0000000180027100     MSVCRT:MSVCR90.dll
 0002:00000108       __imp_ferror               0000000180027108     MSVCRT:MSVCR90.dll
 0002:00000110       __imp_fflush               0000000180027110     MSVCRT:MSVCR90.dll
 0002:00000118       __imp_malloc               0000000180027118     MSVCRT:MSVCR90.dll
 0002:00000120       __imp__initterm_e          0000000180027120     MSVCRT:MSVCR90.dll
 0002:00000128       __imp_free                 0000000180027128     MSVCRT:MSVCR90.dll
 0002:00000130       __imp_memcpy               0000000180027130     MSVCRT:MSVCR90.dll
 0002:00000138       __imp_memset               0000000180027138     MSVCRT:MSVCR90.dll
 0002:00000140       \177MSVCR90_NULL_THUNK_DATA 0000000180027140     MSVCRT:MSVCR90.dll
 0002:00000148       __xc_a                     0000000180027148     MSVCRT:cinitexe.obj
 0002:00000150       __xc_z                     0000000180027150     MSVCRT:cinitexe.obj
 0002:00000158       __xi_a                     0000000180027158     MSVCRT:cinitexe.obj
 0002:00000168       __xi_z                     0000000180027168     MSVCRT:cinitexe.obj
 0002:00000170       _pDefaultRawDllMain        0000000180027170     MSVCRT:crtdll.obj
 0002:00000170       _pRawDllMain               0000000180027170     MSVCRT:crtdll.obj
 0002:00000180       jpeg_natural_order         0000000180027180     jutils.obj
 0002:000002c0       jpeg_natural_order7        00000001800272c0     jutils.obj
 0002:000003f0       jpeg_natural_order6        00000001800273f0     jutils.obj
 0002:000004c0       jpeg_natural_order5        00000001800274c0     jutils.obj
 0002:00000570       jpeg_natural_order4        0000000180027570     jutils.obj
 0002:000005f0       jpeg_natural_order3        00000001800275f0     jutils.obj
 0002:00000660       jpeg_natural_order2        0000000180027660     jutils.obj
 0002:000007e0       jpeg_std_message_table     00000001800277e0     jerror.obj
 0002:000014a0       jpeg_aritab                00000001800284a0     jaricom.obj
 0002:00001668       ??_C@_03ONFDEEMF@SOS?$AA@  0000000180028668     jdmarker.obj
 0002:0000166c       ??_C@_03OMINOMMP@LSE?$AA@  000000018002866c     jdmarker.obj
 0002:00001670       ??_C@_0CL@OCGBAKPF@Application?5transferred?5too?5many@ 0000000180028670     jerror.obj
 0002:000016a0       ??_C@_0CL@BAKCGOKJ@Invalid?5SOS?5parameters?5for?5seque@ 00000001800286a0     jerror.obj
 0002:000016d0       ??_C@_0DI@NFMBADOH@Corrupt?5JPEG?5data?3?5found?5marker?5@ 00000001800286d0     jerror.obj
 0002:00001708       ??_C@_0BL@DPFPFMLM@Premature?5end?5of?5JPEG?5file?$AA@ 0000000180028708     jerror.obj
 0002:00001728       ??_C@_0CO@ODCCEDLN@Warning?3?5unknown?5JFIF?5revision?5n@ 0000000180028728     jerror.obj
 0002:00001758       ??_C@_0CE@PBLDOPKB@Corrupt?5JPEG?5data?3?5bad?5Huffman?5c@ 0000000180028758     jerror.obj
 0002:00001780       ??_C@_0DB@PGMEPGHN@Corrupt?5JPEG?5data?3?5premature?5end@ 0000000180028780     jerror.obj
 0002:000017b8       ??_C@_0DM@PCOGCKJB@Corrupt?5JPEG?5data?3?5?$CFu?5extraneous@ 00000001800287b8     jerror.obj
 0002:00001800       ??_C@_0EC@CBCJOINE@Inconsistent?5progression?5sequenc@ 0000000180028800     jerror.obj
 0002:00001848       ??_C@_0CH@LMKBDJBK@Corrupt?5JPEG?5data?3?5bad?5arithmeti@ 0000000180028848     jerror.obj
 0002:00001870       ??_C@_0CG@KEGHCDOM@Unknown?5Adobe?5color?5transform?5co@ 0000000180028870     jerror.obj
 0002:00001898       ??_C@_0BH@LJLGPEFF@Obtained?5XMS?5handle?5?$CFu?$AA@ 0000000180028898     jerror.obj
 0002:000018b0       ??_C@_0BE@FOGGKKAO@Freed?5XMS?5handle?5?$CFu?$AA@ 00000001800288b0     jerror.obj
 0002:000018c8       ??_C@_0DE@EEJCDLOO@Unrecognized?5component?5IDs?5?$CFd?5?$CFd@ 00000001800288c8     jerror.obj
 0002:00001900       ??_C@_0DG@FCFDGNHE@JFIF?5extension?5marker?3?5RGB?5thumb@ 0000000180028900     jerror.obj
 0002:00001938       ??_C@_0DK@JGAPDCJL@JFIF?5extension?5marker?3?5palette?5t@ 0000000180028938     jerror.obj
 0002:00001980       ??_C@_0EC@ELDEPOJP@JFIF?5extension?5marker?3?5JPEG?9comp@ 0000000180028980     jerror.obj
 0002:000019c8       ??_C@_0BJ@GOCABEP@Opened?5temporary?5file?5?$CFs?$AA@ 00000001800289c8     jerror.obj
 0002:000019e8       ??_C@_0BJ@KDCGAOJB@Closed?5temporary?5file?5?$CFs?$AA@ 00000001800289e8     jerror.obj
 0002:00001a08       ??_C@_0BN@GAMIJLDC@?5?5Ss?$DN?$CFd?0?5Se?$DN?$CFd?0?5Ah?$DN?$CFd?0?5Al?$DN?$CFd?$AA@ 0000000180028a08     jerror.obj
 0002:00001a28       ??_C@_0BO@CDEKFGLC@?5?5?5?5Component?5?$CFd?3?5dc?$DN?$CFd?5ac?$DN?$CFd?$AA@ 0000000180028a28     jerror.obj
 0002:00001a48       ??_C@_0BN@BLOOHNC@Start?5Of?5Scan?3?5?$CFd?5components?$AA@ 0000000180028a48     jerror.obj
 0002:00001a68       ??_C@_0P@JLCHJELA@Start?5of?5Image?$AA@ 0000000180028a68     jerror.obj
 0002:00001a78       ??_C@_0BP@EDCAMHHE@?5?5?5?5Component?5?$CFd?3?5?$CFdhx?$CFdv?5q?$DN?$CFd?$AA@ 0000000180028a78     jerror.obj
 0002:00001a98       ??_C@_0DK@DMINKOGN@Start?5Of?5Frame?50x?$CF02x?3?5width?$DN?$CFu?0@ 0000000180028a98     jerror.obj
 0002:00001ad8       ??_C@_0DJ@PCBCLFML@Smoothing?5not?5supported?5with?5non@ 0000000180028ad8     jerror.obj
 0002:00001b14       ??_C@_05LLAPAOG@RST?$CFd?$AA@ 0000000180028b14     jerror.obj
 0002:00001b20       ??_C@_0CF@NIMOLBCP@At?5marker?50x?$CF02x?0?5recovery?5actio@ 0000000180028b20     jerror.obj
 0002:00001b48       ??_C@_0CE@FDPBEAOO@Selected?5?$CFd?5colors?5for?5quantizat@ 0000000180028b48     jerror.obj
 0002:00001b70       ??_C@_0BI@NEIBNACE@Quantizing?5to?5?$CFd?5colors?$AA@ 0000000180028b70     jerror.obj
 0002:00001b88       ??_C@_0CD@CNNAOOFA@Quantizing?5to?5?$CFd?5?$DN?5?$CFd?$CK?$CFd?$CK?$CFd?5colo@ 0000000180028b88     jerror.obj
 0002:00001bb0       ??_C@_0CI@GHPOCOCL@?5?5?5?5?5?5?5?5?$CF4u?5?$CF4u?5?$CF4u?5?$CF4u?5?$CF4u?5?$CF4u?5@ 0000000180028bb0     jerror.obj
 0002:00001bd8       ??_C@_0BJ@COPODLDN@Unexpected?5marker?50x?$CF02x?$AA@ 0000000180028bd8     jerror.obj
 0002:00001bf8       ??_C@_0CH@EHHJCMGA@Miscellaneous?5marker?50x?$CF02x?0?5len@ 0000000180028bf8     jerror.obj
 0002:00001c20       ??_C@_0CB@BADBMAAB@?5?5?5?5with?5?$CFd?5x?5?$CFd?5thumbnail?5image@ 0000000180028c20     jerror.obj
 0002:00001c48       ??_C@_0CO@KKPHGHBA@JFIF?5extension?5marker?3?5type?50x?$CF0@ 0000000180028c48     jerror.obj
 0002:00001c78       ??_C@_0DM@JLHNPIBE@Warning?3?5thumbnail?5image?5size?5do@ 0000000180028c78     jerror.obj
 0002:00001cb8       ??_C@_0DF@LOKNABIG@JFIF?5APP0?5marker?3?5version?5?$CFd?4?$CF02@ 0000000180028cb8     jerror.obj
 0002:00001cf0       ??_C@_0CI@FKGPAJC@?5?5?5?5?5?5?5?5?$CF3d?5?$CF3d?5?$CF3d?5?$CF3d?5?$CF3d?5?$CF3d?5@ 0000000180028cf0     jerror.obj
 0002:00001d18       ??_C@_0N@HJHFKELG@End?5Of?5Image?$AA@ 0000000180028d18     jerror.obj
 0002:00001d28       ??_C@_0BH@GIPOLIGC@Obtained?5EMS?5handle?5?$CFu?$AA@ 0000000180028d28     jerror.obj
 0002:00001d40       ??_C@_0BE@IPCOOGDJ@Freed?5EMS?5handle?5?$CFu?$AA@ 0000000180028d40     jerror.obj
 0002:00001d58       ??_C@_0BL@EMFIKBEK@Define?5Restart?5Interval?5?$CFu?$AA@ 0000000180028d58     jerror.obj
 0002:00001d78       ??_C@_0CL@KLDOJIKN@Define?5Quantization?5Table?5?$CFd?5?5pr@ 0000000180028d78     jerror.obj
 0002:00001da8       ??_C@_0BM@MDIEILCE@Define?5Huffman?5Table?50x?$CF02x?$AA@ 0000000180028da8     jerror.obj
 0002:00001dc8       ??_C@_0CH@KIJGKPAA@Define?5Arithmetic?5Table?50x?$CF02x?3?5@ 0000000180028dc8     jerror.obj
 0002:00001df0       ??_C@_0CM@CAEPHFAA@Unknown?5APP14?5marker?5?$CInot?5Adobe?$CJ@ 0000000180028df0     jerror.obj
 0002:00001e20       ??_C@_0CK@HCPFFNKJ@Unknown?5APP0?5marker?5?$CInot?5JFIF?$CJ?0?5@ 0000000180028e20     jerror.obj
 0002:00001e50       ??_C@_0EC@EHPKAOHA@Adobe?5APP14?5marker?3?5version?5?$CFd?0?5@ 0000000180028e50     jerror.obj
 0002:00001e98       ??_C@_0DO@EGLODMBB@Caution?3?5quantization?5tables?5are@ 0000000180028e98     jerror.obj
 0002:00001ed8       ??_C@_0P@KFAKFHKB@9?5?513?9Jan?92013?$AA@ 0000000180028ed8     jerror.obj
 0002:00001ee8       ??_C@_0DF@DOEGEFJJ@Copyright?5?$CIC?$CJ?52013?0?5Thomas?5G?4?5La@ 0000000180028ee8     jerror.obj
 0002:00001f20       ??_C@_0BE@FDPDCBIN@Write?5to?5XMS?5failed?$AA@ 0000000180028f20     jerror.obj
 0002:00001f38       ??_C@_0BF@EKLGFGNM@Read?5from?5XMS?5failed?$AA@ 0000000180028f38     jerror.obj
 0002:00001f50       ??_C@_0CH@LJLHCCHC@Image?5too?5wide?5for?5this?5implemen@ 0000000180028f50     jerror.obj
 0002:00001f78       ??_C@_0CD@GCLFJCHC@Virtual?5array?5controller?5messed?5@ 0000000180028f78     jerror.obj
 0002:00001fa0       ??_C@_0BP@BPKOBOIP@Unsupported?5marker?5type?50x?$CF02x?$AA@ 0000000180028fa0     jerror.obj
 0002:00001fc0       ??_C@_0CK@EPADOAKC@Application?5transferred?5too?5few?5@ 0000000180028fc0     jerror.obj
 0002:00001ff0       ??_C@_0DG@KALDLIJB@Write?5failed?5on?5temporary?5file?5?9@ 0000000180028ff0     jerror.obj
 0002:00002028       ??_C@_0BO@GOBJOAAI@Seek?5failed?5on?5temporary?5file?$AA@ 0000000180029028     jerror.obj
 0002:00002048       ??_C@_0BO@EEPJGHHI@Read?5failed?5on?5temporary?5file?$AA@ 0000000180029048     jerror.obj
 0002:00002068       ??_C@_0CD@POKNOPOF@Failed?5to?5create?5temporary?5file?5@ 0000000180029068     jerror.obj
 0002:00002090       ??_C@_0CN@HGJCMLNE@Invalid?5JPEG?5file?5structure?3?5two@ 0000000180029090     jerror.obj
 0002:000020c0       ??_C@_0CK@HMKECJK@Unsupported?5JPEG?5process?3?5SOF?5ty@ 00000001800290c0     jerror.obj
 0002:000020f0       ??_C@_0DA@GJIJGINK@Invalid?5JPEG?5file?5structure?3?5mis@ 00000001800290f0     jerror.obj
 0002:00002120       ??_C@_0CN@IHJJJAFJ@Invalid?5JPEG?5file?5structure?3?5two@ 0000000180029120     jerror.obj
 0002:00002150       ??_C@_0CL@FGONDLAJ@Invalid?5JPEG?5file?5structure?3?5?$CFs?5@ 0000000180029150     jerror.obj
 0002:00002180       ??_C@_0CH@NHMNHHIB@Cannot?5quantize?5to?5more?5than?5?$CFd?5@ 0000000180029180     jerror.obj
 0002:000021a8       ??_C@_0CI@PLMPLCNO@Cannot?5quantize?5to?5fewer?5than?5?$CFd@ 00000001800291a8     jerror.obj
 0002:000021d0       ??_C@_0CO@HPDBAEEA@Cannot?5quantize?5more?5than?5?$CFd?5col@ 00000001800291d0     jerror.obj
 0002:00002200       ??_C@_0BO@DJPLELIB@Insufficient?5memory?5?$CIcase?5?$CFd?$CJ?$AA@ 0000000180029200     jerror.obj
 0002:00002220       ??_C@_0CL@GNLFDFCL@Not?5a?5JPEG?5file?3?5starts?5with?50x?$CF@ 0000000180029220     jerror.obj
 0002:00002250       ??_C@_0CK@CCHKIENB@Quantization?5table?50x?$CF02x?5was?5no@ 0000000180029250     jerror.obj
 0002:00002280       ??_C@_0CC@BKPLBDLJ@JPEG?5datastream?5contains?5no?5imag@ 0000000180029280     jerror.obj
 0002:000022a8       ??_C@_0CF@BKANFCCL@Huffman?5table?50x?$CF02x?5was?5not?5def@ 00000001800292a8     jerror.obj
 0002:000022d0       ??_C@_0BM@HJHFKLAF@Backing?5store?5not?5supported?$AA@ 00000001800292d0     jerror.obj
 0002:000022f0       ??_C@_0CI@NFDPNIK@Arithmetic?5table?50x?$CF02x?5was?5not?5@ 00000001800292f0     jerror.obj
 0002:00002318       ??_C@_0CO@BEHINNOI@Requested?5feature?5was?5omitted?5at@ 0000000180029318     jerror.obj
 0002:00002348       ??_C@_0BE@EOAAHHJ@Not?5implemented?5yet?$AA@ 0000000180029348     jerror.obj
 0002:00002360       ??_C@_0CH@EFBBPPCK@Invalid?5color?5quantization?5mode?5@ 0000000180029360     jerror.obj
 0002:00002388       ??_C@_0CH@NIBDNILP@Scan?5script?5does?5not?5transmit?5al@ 0000000180029388     jerror.obj
 0002:000023b0       ??_C@_0DO@OPNPKGO@Cannot?5transcode?5due?5to?5multiple@ 00000001800293b0     jerror.obj
 0002:000023f0       ??_C@_0BM@KEKMMNGA@Premature?5end?5of?5input?5file?$AA@ 00000001800293f0     jerror.obj
 0002:00002410       ??_C@_0BB@JJAIKFBB@Empty?5input?5file?$AA@ 0000000180029410     jerror.obj
 0002:00002428       ??_C@_0CP@EKFPGPNP@Maximum?5supported?5image?5dimensio@ 0000000180029428     jerror.obj
 0002:00002458       ??_C@_0CB@LFBMFPHI@Missing?5Huffman?5code?5table?5entry@ 0000000180029458     jerror.obj
 0002:00002480       ??_C@_0CB@LLDOGNPJ@Huffman?5code?5size?5table?5overflow@ 0000000180029480     jerror.obj
 0002:000024a8       ??_C@_0CI@EKDDDHFF@Fractional?5sampling?5not?5implemen@ 00000001800294a8     jerror.obj
 0002:000024d0       ??_C@_0CP@IDOBLGGD@Output?5file?5write?5error?5?9?9?9?5out?5@ 00000001800294d0     jerror.obj
 0002:00002500       ??_C@_0BG@BALCKDNL@Input?5file?5read?5error?$AA@ 0000000180029500     jerror.obj
 0002:00002518       ??_C@_0CB@DMGINPNE@Didn?8t?5expect?5more?5than?5one?5scan@ 0000000180029518     jerror.obj
 0002:00002540       ??_C@_0BE@DGJBKIEB@Write?5to?5EMS?5failed?$AA@ 0000000180029540     jerror.obj
 0002:00002558       ??_C@_0BF@CPNENPBA@Read?5from?5EMS?5failed?$AA@ 0000000180029558     jerror.obj
 0002:00002570       ??_C@_0CF@DAGGEAPM@Empty?5JPEG?5image?5?$CIDNL?5not?5suppor@ 0000000180029570     jerror.obj
 0002:00002598       ??_C@_0BD@DIMECAOP@Bogus?5DQT?5index?5?$CFd?$AA@ 0000000180029598     jerror.obj
 0002:000025b0       ??_C@_0BD@KJHFPHIC@Bogus?5DHT?5index?5?$CFd?$AA@ 00000001800295b0     jerror.obj
 0002:000025c8       ??_C@_0BF@CLIOOJFM@Bogus?5DAC?5value?50x?$CFx?$AA@ 00000001800295c8     jerror.obj
 0002:000025e0       ??_C@_0BD@LDBBBMFL@Bogus?5DAC?5index?5?$CFd?$AA@ 00000001800295e0     jerror.obj
 0002:000025f8       ??_C@_0CF@JDLOPNGO@Unsupported?5color?5conversion?5req@ 00000001800295f8     jerror.obj
 0002:00002620       ??_C@_0CG@BEBDNOCG@Too?5many?5color?5components?3?5?$CFd?0?5m@ 0000000180029620     jerror.obj
 0002:00002648       ??_C@_0CF@LAEFHNAH@CCIR601?5sampling?5not?5implemented@ 0000000180029648     jerror.obj
 0002:00002670       ??_C@_0BM@PKHCPJDH@Suspension?5not?5allowed?5here?$AA@ 0000000180029670     jerror.obj
 0002:00002690       ??_C@_0CL@JKHIPJLJ@Buffer?5passed?5to?5JPEG?5library?5is@ 0000000180029690     jerror.obj
 0002:000026c0       ??_C@_0BL@CBOEEPLK@Bogus?5virtual?5array?5access?$AA@ 00000001800296c0     jerror.obj
 0002:000026e0       ??_C@_0EN@DKAEGIBH@JPEG?5parameter?5struct?5mismatch?3?5@ 00000001800296e0     jerror.obj
 0002:00002730       ??_C@_0CK@BAMFIBMM@Improper?5call?5to?5JPEG?5library?5in@ 0000000180029730     jerror.obj
 0002:00002760       ??_C@_0CA@MJDDICLK@Invalid?5scan?5script?5at?5entry?5?$CFd?$AA@ 0000000180029760     jerror.obj
 0002:00002780       ??_C@_0BH@HMMHPOPE@Bogus?5sampling?5factors?$AA@ 0000000180029780     jerror.obj
 0002:00002798       ??_C@_0DH@HIKEGPKP@Invalid?5progressive?5parameters?5a@ 0000000180029798     jerror.obj
 0002:000027d0       ??_C@_0DH@LNGGEGOL@Invalid?5progressive?5parameters?5S@ 00000001800297d0     jerror.obj
 0002:00002808       ??_C@_0CD@LDBDNLHK@Unsupported?5JPEG?5data?5precision?5@ 0000000180029808     jerror.obj
 0002:00002830       ??_C@_0BM@OEMICEFD@Invalid?5memory?5pool?5code?5?$CFd?$AA@ 0000000180029830     jerror.obj
 0002:00002850       ??_C@_0DA@HLEOHNPA@Sampling?5factors?5too?5large?5for?5i@ 0000000180029850     jerror.obj
 0002:00002880       ??_C@_0DN@ELFKFKL@Wrong?5JPEG?5library?5version?3?5libr@ 0000000180029880     jerror.obj
 0002:000028c0       ??_C@_0BE@OGLAEMOG@Bogus?5marker?5length?$AA@ 00000001800298c0     jerror.obj
 0002:000028d8       ??_C@_0BG@NEGIHEMC@Bogus?5JPEG?5colorspace?$AA@ 00000001800298d8     jerror.obj
 0002:000028f0       ??_C@_0BH@BGDIGLHC@Bogus?5input?5colorspace?$AA@ 00000001800298f0     jerror.obj
 0002:00002908       ??_C@_0BP@EOFJNLFD@Bogus?5Huffman?5table?5definition?$AA@ 0000000180029908     jerror.obj
 0002:00002930       ??_C@_0EA@INILHCIJ@Component?5index?5?$CFd?3?5mismatching?5@ 0000000180029930     jerror.obj
 0002:00002970       ??_C@_0CK@JDGFICDL@DCT?5scaled?5block?5size?5?$CFdx?$CFd?5not?5@ 0000000180029970     jerror.obj
 0002:000029a0       ??_C@_0BN@OJEJKKDL@DCT?5coefficient?5out?5of?5range?$AA@ 00000001800299a0     jerror.obj
 0002:000029c0       ??_C@_0BF@DHNDJDFN@Invalid?5crop?5request?$AA@ 00000001800299c0     jerror.obj
 0002:000029d8       ??_C@_0BP@ONFLCDHG@Invalid?5component?5ID?5?$CFd?5in?5SOS?$AA@ 00000001800299d8     jerror.obj
 0002:000029f8       ??_C@_0BK@DKALDNKG@Bogus?5buffer?5control?5mode?$AA@ 00000001800299f8     jerror.obj
 0002:00002a18       ??_C@_0CF@DENLILGA@MAX_ALLOC_CHUNK?5is?5wrong?0?5please@ 0000000180029a18     jerror.obj
 0002:00002a40       ??_C@_0CA@FDMPGPNI@ALIGN_TYPE?5is?5wrong?0?5please?5fix?$AA@ 0000000180029a40     jerror.obj
 0002:00002a60       ??_C@_0BG@MIBALFBH@Bogus?5message?5code?5?$CFd?$AA@ 0000000180029a60     jerror.obj
 0002:00002a78       ??_C@_03OFAPEBGM@?$CFs?6?$AA@ 0000000180029a78     jerror.obj
 0002:00002a7c       ??_C@_00CNPNBAHC@?$AA@     0000000180029a7c     jmemansi.obj
 0002:00002a80       ??_C@_07OOOLPGAB@JPEGMEM?$AA@ 0000000180029a80     jmemmgr.obj
 0002:00002a88       ??_C@_05IBIMIMKO@?$CFld?$CFc?$AA@ 0000000180029a88     jmemmgr.obj
 0002:00002a90       __real@43008000            0000000180029a90      CIL library: CIL module
 0002:00002a94       __real@3fec835e            0000000180029a94      CIL library: CIL module
 0002:00002a98       __real@40273d75            0000000180029a98      CIL library: CIL module
 0002:00002a9c       __real@3f8a8bd4            0000000180029a9c      CIL library: CIL module
 0002:00002aa0       __real@3fb504f3            0000000180029aa0      CIL library: CIL module
 0002:00002aa4       __real@3ec3ef15            0000000180029aa4      CIL library: CIL module
 0002:00002aa8       __real@3fa73d75            0000000180029aa8      CIL library: CIL module
 0002:00002aac       __real@3f0a8bd4            0000000180029aac      CIL library: CIL module
 0002:00002ab0       __real@44800000            0000000180029ab0      CIL library: CIL module
 0002:00002ab4       __real@3f3504f3            0000000180029ab4      CIL library: CIL module
 0002:00002ab8       __real@3fc0000000000000    0000000180029ab8      CIL library: CIL module
 0002:00002ac0       __real@46800100            0000000180029ac0      CIL library: CIL module
 0002:00002ac8       __real@4020000000000000    0000000180029ac8      CIL library: CIL module
 0002:00002ad0       __real@3ff0000000000000    0000000180029ad0      CIL library: CIL module
 0002:00002ad8       __rtc_iaa                  0000000180029ad8     MSVCRT:_initsect_.obj
 0002:00002ae0       __rtc_izz                  0000000180029ae0     MSVCRT:_initsect_.obj
 0002:00002ae8       __rtc_taa                  0000000180029ae8     MSVCRT:_initsect_.obj
 0002:00002af0       __rtc_tzz                  0000000180029af0     MSVCRT:_initsect_.obj
 0002:00003814       __IMPORT_DESCRIPTOR_MSVCR90 000000018002a814     MSVCRT:MSVCR90.dll
 0002:00003828       __IMPORT_DESCRIPTOR_KERNEL32 000000018002a828     kernel32:KERNEL32.dll
 0002:0000383c       __NULL_IMPORT_DESCRIPTOR   000000018002a83c     MSVCRT:MSVCR90.dll
 0003:00000000       __native_dllmain_reason    000000018002c000     MSVCRT:natstart.obj
 0003:00000004       __native_vcclrit_reason    000000018002c004     MSVCRT:natstart.obj
 0003:00000008       __security_cookie          000000018002c008     MSVCRT:gs_cookie.obj
 0003:00000010       __security_cookie_complement 000000018002c010     MSVCRT:gs_cookie.obj
 0003:00000018       _fltused                   000000018002c018     MSVCRT:dllsupp.obj
 0003:00000024       _forceCRTManifestRTM       000000018002c024     MSVCRT:crtmanifestrtm.obj
 0003:00000028       ?__type_info_root_node@@3U__type_info_node@@A 000000018002c028     MSVCRT:tncleanup.obj
 0003:00000038       __native_startup_state     000000018002c038     <common>
 0003:00000040       __native_startup_lock      000000018002c040     <common>
 0003:00000048       __onexitend                000000018002c048     <common>
 0003:00000050       __onexitbegin              000000018002c050     <common>
 0003:00000058       __dyn_tls_init_callback    000000018002c058     <common>

 entry point at        0001:00025580

 Static symbols

 0001:00000660       emit_byte                  0000000180001660 f    CIL library: CIL module
 0001:000006a0       finish_pass                00000001800016a0 f    CIL library: CIL module
 0001:00000828       arith_encode               0000000180001828 f    CIL library: CIL module
 0001:000009c4       emit_restart               00000001800019c4 f    CIL library: CIL module
 0001:00000ac0       encode_mcu_DC_first        0000000180001ac0 f    CIL library: CIL module
 0001:00000ccc       encode_mcu_AC_first        0000000180001ccc f    CIL library: CIL module
 0001:00000f38       encode_mcu_DC_refine       0000000180001f38 f    CIL library: CIL module
 0001:00000fec       encode_mcu_AC_refine       0000000180001fec f    CIL library: CIL module
 0001:000011e0       encode_mcu                 00000001800021e0 f    CIL library: CIL module
 0001:00001620       start_pass                 0000000180002620 f    CIL library: CIL module
 0001:00001860       start_iMCU_row             0000000180002860 f    CIL library: CIL module
 0001:000018a4       start_pass_coef            00000001800028a4 f    CIL library: CIL module
 0001:00001954       compress_data              0000000180002954 f    CIL library: CIL module
 0001:00001bd0       compress_first_pass        0000000180002bd0 f    CIL library: CIL module
 0001:00001e54       compress_output            0000000180002e54 f    CIL library: CIL module
 0001:00002120       rgb_ycc_start              0000000180003120 f    CIL library: CIL module
 0001:000021e4       rgb_ycc_convert            00000001800031e4 f    CIL library: CIL module
 0001:000022fc       rgb_gray_convert           00000001800032fc f    CIL library: CIL module
 0001:000023a4       cmyk_ycck_convert          00000001800033a4 f    CIL library: CIL module
 0001:00002510       rgb_rgb1_convert           0000000180003510 f    CIL library: CIL module
 0001:000025bc       grayscale_convert          00000001800035bc f    CIL library: CIL module
 0001:00002634       rgb_convert                0000000180003634 f    CIL library: CIL module
 0001:000026cc       null_convert               00000001800036cc f    CIL library: CIL module
 0001:000029a8       forward_DCT                00000001800039a8 f    CIL library: CIL module
 0001:00002a90       forward_DCT_float          0000000180003a90 f    CIL library: CIL module
 0001:00002b64       start_pass_fdctmgr         0000000180003b64 f    CIL library: CIL module
 0001:000030dc       jpeg_make_c_derived_tbl    00000001800040dc f    CIL library: CIL module
 0001:000032d8       dump_buffer_s              00000001800042d8 f    CIL library: CIL module
 0001:00003310       dump_buffer_e              0000000180004310 f    CIL library: CIL module
 0001:0000336c       emit_bits_s                000000018000436c f    CIL library: CIL module
 0001:0000343c       emit_bits_e                000000018000443c f    CIL library: CIL module
 0001:00003540       emit_ac_symbol             0000000180004540 f    CIL library: CIL module
 0001:00003584       emit_buffered_bits         0000000180004584 f    CIL library: CIL module
 0001:000035d4       emit_eobrun                00000001800045d4 f    CIL library: CIL module
 0001:00003674       emit_restart_e             0000000180004674 f    CIL library: CIL module
 0001:00003748       encode_mcu_DC_first        0000000180004748 f    CIL library: CIL module
 0001:000038d8       encode_mcu_AC_first        00000001800048d8 f    CIL library: CIL module
 0001:00003ab0       encode_mcu_DC_refine       0000000180004ab0 f    CIL library: CIL module
 0001:00003ba8       encode_mcu_AC_refine       0000000180004ba8 f    CIL library: CIL module
 0001:00003e50       encode_mcu_huff            0000000180004e50 f    CIL library: CIL module
 0001:00004230       finish_pass_huff           0000000180005230 f    CIL library: CIL module
 0001:00004348       encode_mcu_gather          0000000180005348 f    CIL library: CIL module
 0001:00004574       jpeg_gen_optimal_table     0000000180005574 f    CIL library: CIL module
 0001:000047f8       finish_pass_gather         00000001800057f8 f    CIL library: CIL module
 0001:00004928       start_pass_huff            0000000180005928 f    CIL library: CIL module
 0001:00004cb0       start_pass_main            0000000180005cb0 f    CIL library: CIL module
 0001:00004cfc       process_data_simple_main   0000000180005cfc f    CIL library: CIL module
 0001:00004e90       emit_byte                  0000000180005e90 f    CIL library: CIL module
 0001:00004ecc       emit_marker                0000000180005ecc f    CIL library: CIL module
 0001:00004efc       emit_2bytes                0000000180005efc f    CIL library: CIL module
 0001:00004f30       emit_dqt                   0000000180005f30 f    CIL library: CIL module
 0001:00005064       emit_dht                   0000000180006064 f    CIL library: CIL module
 0001:00005158       emit_dac                   0000000180006158 f    CIL library: CIL module
 0001:00005274       emit_sof                   0000000180006274 f    CIL library: CIL module
 0001:0000533c       emit_jfif_app0             000000018000633c f    CIL library: CIL module
 0001:00005400       emit_adobe_app14           0000000180006400 f    CIL library: CIL module
 0001:000054ac       write_marker_header        00000001800064ac f    CIL library: CIL module
 0001:00005500       write_marker_byte          0000000180006500 f    CIL library: CIL module
 0001:00005508       write_file_header          0000000180006508 f    CIL library: CIL module
 0001:00005558       write_frame_header         0000000180006558 f    CIL library: CIL module
 0001:000057c8       write_scan_header          00000001800067c8 f    CIL library: CIL module
 0001:00005974       write_file_trailer         0000000180006974 f    CIL library: CIL module
 0001:00005980       write_tables_only          0000000180006980 f    CIL library: CIL module
 0001:0000603c       initial_setup              000000018000703c f    CIL library: CIL module
 0001:0000643c       validate_script            000000018000743c f    CIL library: CIL module
 0001:000067f8       reduce_script              00000001800077f8 f    CIL library: CIL module
 0001:000068a0       select_scan_parameters     00000001800078a0 f    CIL library: CIL module
 0001:000069d4       per_scan_setup             00000001800079d4 f    CIL library: CIL module
 0001:00006bc0       prepare_for_pass           0000000180007bc0 f    CIL library: CIL module
 0001:00006d78       pass_startup               0000000180007d78 f    CIL library: CIL module
 0001:00006dac       finish_pass_master         0000000180007dac f    CIL library: CIL module
 0001:000071b0       add_huff_table             00000001800081b0 f    CIL library: CIL module
 0001:000077bc       fill_dc_scans              00000001800087bc f    CIL library: CIL module
 0001:00007ab0       start_pass_prep            0000000180008ab0 f    CIL library: CIL module
 0001:00007afc       expand_bottom_edge         0000000180008afc f    CIL library: CIL module
 0001:00007b68       pre_process_data           0000000180008b68 f    CIL library: CIL module
 0001:00007d08       pre_process_context        0000000180008d08 f    CIL library: CIL module
 0001:00007f00       create_context_buffer      0000000180008f00 f    CIL library: CIL module
 0001:0000812c       expand_right_edge          000000018000912c f    CIL library: CIL module
 0001:00008198       sep_downsample             0000000180009198 f    CIL library: CIL module
 0001:00008234       int_downsample             0000000180009234 f    CIL library: CIL module
 0001:00008398       fullsize_downsample        0000000180009398 f    CIL library: CIL module
 0001:00008400       h2v1_downsample            0000000180009400 f    CIL library: CIL module
 0001:000084a0       h2v2_downsample            00000001800094a0 f    CIL library: CIL module
 0001:00008568       h2v2_smooth_downsample     0000000180009568 f    CIL library: CIL module
 0001:00008820       fullsize_smooth_downsample 0000000180009820 f    CIL library: CIL module
 0001:00008f24       start_pass_coef            0000000180009f24 f    CIL library: CIL module
 0001:00008fa0       compress_output            0000000180009fa0 f    CIL library: CIL module
 0001:00009374       default_decompress_parms   000000018000a374 f    CIL library: CIL module
 0001:0000988c       output_pass_setup          000000018000a88c f    CIL library: CIL module
 0001:00009bfc       get_byte                   000000018000abfc f    CIL library: CIL module
 0001:00009c4c       arith_decode               000000018000ac4c f    CIL library: CIL module
 0001:00009d70       process_restart            000000018000ad70 f    CIL library: CIL module
 0001:00009e88       decode_mcu_DC_first        000000018000ae88 f    CIL library: CIL module
 0001:0000a074       decode_mcu_AC_first        000000018000b074 f    CIL library: CIL module
 0001:0000a238       decode_mcu_DC_refine       000000018000b238 f    CIL library: CIL module
 0001:0000a2d4       decode_mcu_AC_refine       000000018000b2d4 f    CIL library: CIL module
 0001:0000a4a4       decode_mcu                 000000018000b4a4 f    CIL library: CIL module
 0001:0000a7f4       start_pass                 000000018000b7f4 f    CIL library: CIL module
 0001:0000ac20       init_destination           000000018000bc20 f    CIL library: CIL module
 0001:0000ac50       empty_output_buffer        000000018000bc50 f    CIL library: CIL module
 0001:0000acb8       empty_mem_output_buffer    000000018000bcb8 f    CIL library: CIL module
 0001:0000ad58       term_destination           000000018000bd58 f    CIL library: CIL module
 0001:0000ade0       term_mem_destination       000000018000bde0 f    CIL library: CIL module
 0001:0000af4c       init_source                000000018000bf4c f    CIL library: CIL module
 0001:0000af58       fill_input_buffer          000000018000bf58 f    CIL library: CIL module
 0001:0000afe8       fill_mem_input_buffer      000000018000bfe8 f    CIL library: CIL module
 0001:0000b028       skip_input_data            000000018000c028 f    CIL library: CIL module
 0001:0000b1b4       start_iMCU_row             000000018000c1b4 f    CIL library: CIL module
 0001:0000b1f8       start_input_pass           000000018000c1f8 f    CIL library: CIL module
 0001:0000b204       start_output_pass          000000018000c204 f    CIL library: CIL module
 0001:0000b254       decompress_onepass         000000018000c254 f    CIL library: CIL module
 0001:0000b4ec       dummy_consume_data         000000018000c4ec f    CIL library: CIL module
 0001:0000b4f0       consume_data               000000018000c4f0 f    CIL library: CIL module
 0001:0000b6dc       decompress_data            000000018000c6dc f    CIL library: CIL module
 0001:0000b8b0       smoothing_ok               000000018000c8b0 f    CIL library: CIL module
 0001:0000b9dc       decompress_smooth_data     000000018000c9dc f    CIL library: CIL module
 0001:0000c2f4       build_ycc_rgb_table        000000018000d2f4 f    CIL library: CIL module
 0001:0000c3e0       ycc_rgb_convert            000000018000d3e0 f    CIL library: CIL module
 0001:0000c554       rgb_gray_convert           000000018000d554 f    CIL library: CIL module
 0001:0000c61c       rgb1_rgb_convert           000000018000d61c f    CIL library: CIL module
 0001:0000c6c8       rgb1_gray_convert          000000018000d6c8 f    CIL library: CIL module
 0001:0000c7a0       rgb_convert                000000018000d7a0 f    CIL library: CIL module
 0001:0000c838       null_convert               000000018000d838 f    CIL library: CIL module
 0001:0000c8dc       grayscale_convert          000000018000d8dc f    CIL library: CIL module
 0001:0000c914       gray_rgb_convert           000000018000d914 f    CIL library: CIL module
 0001:0000c97c       ycck_cmyk_convert          000000018000d97c f    CIL library: CIL module
 0001:0000cd8c       start_pass                 000000018000dd8c f    CIL library: CIL module
 0001:0000d2b0       jpeg_make_d_derived_tbl    000000018000e2b0 f    CIL library: CIL module
 0001:0000d564       jpeg_fill_bit_buffer       000000018000e564 f    CIL library: CIL module
 0001:0000d6a8       jpeg_huff_decode           000000018000e6a8 f    CIL library: CIL module
 0001:0000d7a4       process_restart            000000018000e7a4 f    CIL library: CIL module
 0001:0000d828       decode_mcu_DC_first        000000018000e828 f    CIL library: CIL module
 0001:0000da64       decode_mcu_AC_first        000000018000ea64 f    CIL library: CIL module
 0001:0000dcd0       decode_mcu_DC_refine       000000018000ecd0 f    CIL library: CIL module
 0001:0000dddc       decode_mcu_AC_refine       000000018000eddc f    CIL library: CIL module
 0001:0000e268       decode_mcu_sub             000000018000f268 f    CIL library: CIL module
 0001:0000e72c       decode_mcu                 000000018000f72c f    CIL library: CIL module
 0001:0000ebe4       start_pass_huff_decoder    000000018000fbe4 f    CIL library: CIL module
 0001:0000f62c       initial_setup              000000018001062c f    CIL library: CIL module
 0001:0000fa84       per_scan_setup             0000000180010a84 f    CIL library: CIL module
 0001:0000fc50       start_input_pass           0000000180010c50 f    CIL library: CIL module
 0001:0000fd40       finish_input_pass          0000000180010d40 f    CIL library: CIL module
 0001:0000fd54       consume_markers            0000000180010d54 f    CIL library: CIL module
 0001:0000fe50       reset_input_controller     0000000180010e50 f    CIL library: CIL module
 0001:0000fefc       alloc_funny_pointers       0000000180010efc f    CIL library: CIL module
 0001:0000ffe8       make_funny_pointers        0000000180010fe8 f    CIL library: CIL module
 0001:00010138       set_wraparound_pointers    0000000180011138 f    CIL library: CIL module
 0001:00010230       set_bottom_pointers        0000000180011230 f    CIL library: CIL module
 0001:000102f0       start_pass_main            00000001800112f0 f    CIL library: CIL module
 0001:0001036c       process_data_simple_main   000000018001136c f    CIL library: CIL module
 0001:00010414       process_data_context_main  0000000180011414 f    CIL library: CIL module
 0001:00010590       process_data_crank_post    0000000180011590 f    CIL library: CIL module
 0001:000106d0       get_soi                    00000001800116d0 f    CIL library: CIL module
 0001:00010794       get_sof                    0000000180011794 f    CIL library: CIL module
 0001:00010b1c       get_sos                    0000000180011b1c f    CIL library: CIL module
 0001:00010e94       get_dac                    0000000180011e94 f    CIL library: CIL module
 0001:00011040       get_dht                    0000000180012040 f    CIL library: CIL module
 0001:00011348       get_dqt                    0000000180012348 f    CIL library: CIL module
 0001:0001169c       get_lse                    000000018001269c f    CIL library: CIL module
 0001:00011b7c       examine_app0               0000000180012b7c f    CIL library: CIL module
 0001:00011da4       examine_app14              0000000180012da4 f    CIL library: CIL module
 0001:00011e78       get_interesting_appn       0000000180012e78 f    CIL library: CIL module
 0001:00011fdc       save_marker                0000000180012fdc f    CIL library: CIL module
 0001:0001222c       skip_variable              000000018001322c f    CIL library: CIL module
 0001:00012304       next_marker                0000000180013304 f    CIL library: CIL module
 0001:00012414       read_markers               0000000180013414 f    CIL library: CIL module
 0001:00012848       read_restart_marker        0000000180013848 f    CIL library: CIL module
 0001:000129f4       reset_marker_reader        00000001800139f4 f    CIL library: CIL module
 0001:00012bf8       use_merged_upsample        0000000180013bf8 f    CIL library: CIL module
 0001:00012eac       master_selection           0000000180013eac f    CIL library: CIL module
 0001:00013128       prepare_for_output_pass    0000000180014128 f    CIL library: CIL module
 0001:00013290       finish_output_pass         0000000180014290 f    CIL library: CIL module
 0001:00013380       start_pass_merged_upsample 0000000180014380 f    CIL library: CIL module
 0001:00013394       merged_2v_upsample         0000000180014394 f    CIL library: CIL module
 0001:0001346c       merged_1v_upsample         000000018001446c f    CIL library: CIL module
 0001:000134a8       h2v1_merged_upsample       00000001800144a8 f    CIL library: CIL module
 0001:00013618       h2v2_merged_upsample       0000000180014618 f    CIL library: CIL module
 0001:000139c0       start_pass_dpost           00000001800149c0 f    CIL library: CIL module
 0001:00013a84       post_process_1pass         0000000180014a84 f    CIL library: CIL module
 0001:00013b18       post_process_prepass       0000000180014b18 f    CIL library: CIL module
 0001:00013bfc       post_process_2pass         0000000180014bfc f    CIL library: CIL module
 0001:00013d70       start_pass_upsample        0000000180014d70 f    CIL library: CIL module
 0001:00013d90       sep_upsample               0000000180014d90 f    CIL library: CIL module
 0001:00013eb8       fullsize_upsample          0000000180014eb8 f    CIL library: CIL module
 0001:00013ebc       noop_upsample              0000000180014ebc f    CIL library: CIL module
 0001:00013ec4       int_upsample               0000000180014ec4 f    CIL library: CIL module
 0001:00013fec       h2v1_upsample              0000000180014fec f    CIL library: CIL module
 0001:00014044       h2v2_upsample              0000000180015044 f    CIL library: CIL module
 0001:0001437c       transdecode_master_selection 000000018001537c f    CIL library: CIL module
 0001:00014428       error_exit                 0000000180015428 f    CIL library: CIL module
 0001:0001444c       output_message             000000018001544c f    CIL library: CIL module
 0001:00014484       emit_message               0000000180015484 f    CIL library: CIL module
 0001:000144bc       format_message             00000001800154bc f    CIL library: CIL module
 0001:00014598       reset_error_mgr            0000000180015598 f    CIL library: CIL module
 0001:00021edc       read_backing_store         0000000180022edc f    CIL library: CIL module
 0001:00021f68       write_backing_store        0000000180022f68 f    CIL library: CIL module
 0001:00021ff4       close_backing_store        0000000180022ff4 f    CIL library: CIL module
 0001:00022080       start_pass_dcolor          0000000180023080 f    CIL library: CIL module
 0001:00022080       term_source                0000000180023080 f    CIL library: CIL module
 0001:00022080       init_mem_source            0000000180023080 f    CIL library: CIL module
 0001:00022080       init_mem_destination       0000000180023080 f    CIL library: CIL module
 0001:00022080       finish_pass_1_quant        0000000180023080 f    CIL library: CIL module
 0001:00022080       start_pass_downsample      0000000180023080 f    CIL library: CIL module
 0001:00022080       null_method                0000000180023080 f    CIL library: CIL module
 0001:00022080       finish_pass2               0000000180023080 f    CIL library: CIL module
 0001:00022084       alloc_small                0000000180023084 f    CIL library: CIL module
 0001:000221f8       alloc_large                00000001800231f8 f    CIL library: CIL module
 0001:000222e4       alloc_sarray               00000001800232e4 f    CIL library: CIL module
 0001:000223c4       alloc_barray               00000001800233c4 f    CIL library: CIL module
 0001:000224b4       request_virt_sarray        00000001800234b4 f    CIL library: CIL module
 0001:00022550       request_virt_barray        0000000180023550 f    CIL library: CIL module
 0001:000225ec       realize_virt_arrays        00000001800235ec f    CIL library: CIL module
 0001:000227b8       do_sarray_io               00000001800237b8 f    CIL library: CIL module
 0001:00022870       do_barray_io               0000000180023870 f    CIL library: CIL module
 0001:0002292c       access_virt_sarray         000000018002392c f    CIL library: CIL module
 0001:00022a90       access_virt_barray         0000000180023a90 f    CIL library: CIL module
 0001:00022bfc       free_pool                  0000000180023bfc f    CIL library: CIL module
 0001:00022d18       self_destruct              0000000180023d18 f    CIL library: CIL module
 0001:00022ec0       create_colormap            0000000180023ec0 f    CIL library: CIL module
 0001:00023118       create_colorindex          0000000180024118 f    CIL library: CIL module
 0001:0002327c       create_odither_tables      000000018002427c f    CIL library: CIL module
 0001:00023380       color_quantize             0000000180024380 f    CIL library: CIL module
 0001:0002341c       color_quantize3            000000018002441c f    CIL library: CIL module
 0001:000234b8       quantize_ord_dither        00000001800244b8 f    CIL library: CIL module
 0001:00023634       quantize3_ord_dither       0000000180024634 f    CIL library: CIL module
 0001:00023794       quantize_fs_dither         0000000180024794 f    CIL library: CIL module
 0001:00023a44       alloc_fs_workspace         0000000180024a44 f    CIL library: CIL module
 0001:00023aac       start_pass_1_quant         0000000180024aac f    CIL library: CIL module
 0001:00023bc4       new_color_map_1_quant      0000000180024bc4 f    CIL library: CIL module
 0001:00023c88       prescan_quantize           0000000180024c88 f    CIL library: CIL module
 0001:00023d28       update_box                 0000000180024d28 f    CIL library: CIL module
 0001:00024078       compute_color              0000000180025078 f    CIL library: CIL module
 0001:00024228       select_colors              0000000180025228 f    CIL library: CIL module
 0001:00024440       find_nearby_colors         0000000180025440 f    CIL library: CIL module
 0001:0002461c       fill_inverse_cmap          000000018002561c f    CIL library: CIL module
 0001:00024898       pass2_no_dither            0000000180025898 f    CIL library: CIL module
 0001:00024988       pass2_fs_dither            0000000180025988 f    CIL library: CIL module
 0001:00024d44       init_error_limit           0000000180025d44 f    CIL library: CIL module
 0001:00024df8       finish_pass1               0000000180025df8 f    CIL library: CIL module
 0001:00024e24       start_pass_2_quant         0000000180025e24 f    CIL library: CIL module
 0001:00024f70       new_color_map_2_quant      0000000180025f70 f    CIL library: CIL module
 0001:0002518c       pre_c_init                 000000018002618c f   MSVCRT:crtdll.obj
 0001:00025448       __DllMainCRTStartup        0000000180026448 f   MSVCRT:crtdll.obj
 0001:000258f0       __DllMainCRTStartup$filt$0 00000001800268f0 f   MSVCRT:crtdll.obj
 0001:00025920       __DllMainCRTStartup$fin$1  0000000180026920 f   MSVCRT:crtdll.obj
 0001:00025939       _onexit$fin$0              0000000180026939 f   MSVCRT:atonexit.obj
 0001:00025960       _IsNonwritableInCurrentImage$filt$0 0000000180026960 f   MSVCRT:pesect.obj

 Exports

  ordinal    name

        1    jcopy_block_row
        2    jcopy_sample_rows
        3    jdiv_round_up
        4    jinit_1pass_quantizer
        5    jinit_2pass_quantizer
        6    jinit_arith_decoder
        7    jinit_arith_encoder
        8    jinit_c_coef_controller
        9    jinit_c_main_controller
       10    jinit_c_master_control
       11    jinit_c_prep_controller
       12    jinit_color_converter
       13    jinit_color_deconverter
       14    jinit_compress_master
       15    jinit_d_coef_controller
       16    jinit_d_main_controller
       17    jinit_d_post_controller
       18    jinit_downsampler
       19    jinit_forward_dct
       20    jinit_huff_decoder
       21    jinit_huff_encoder
       22    jinit_input_controller
       23    jinit_inverse_dct
       24    jinit_marker_reader
       25    jinit_marker_writer
       26    jinit_master_decompress
       27    jinit_memory_mgr
       28    jinit_merged_upsampler
       29    jinit_upsampler
       30    jpeg_CreateCompress
       31    jpeg_CreateDecompress
       32    jpeg_abort
       33    jpeg_abort_compress
       34    jpeg_abort_decompress
       35    jpeg_add_quant_table
       36    jpeg_alloc_huff_table
       37    jpeg_alloc_quant_table
       38    jpeg_calc_jpeg_dimensions
       39    jpeg_calc_output_dimensions
       40    jpeg_consume_input
       41    jpeg_copy_critical_parameters
       42    jpeg_core_output_dimensions
       43    jpeg_default_colorspace
       44    jpeg_default_qtables
       45    jpeg_destroy
       46    jpeg_destroy_compress
       47    jpeg_destroy_decompress
       48    jpeg_fdct_10x10
       49    jpeg_fdct_10x5
       50    jpeg_fdct_11x11
       51    jpeg_fdct_12x12
       52    jpeg_fdct_12x6
       53    jpeg_fdct_13x13
       54    jpeg_fdct_14x14
       55    jpeg_fdct_14x7
       56    jpeg_fdct_15x15
       57    jpeg_fdct_16x16
       58    jpeg_fdct_16x8
       59    jpeg_fdct_1x1
       60    jpeg_fdct_1x2
       61    jpeg_fdct_2x1
       62    jpeg_fdct_2x2
       63    jpeg_fdct_2x4
       64    jpeg_fdct_3x3
       65    jpeg_fdct_3x6
       66    jpeg_fdct_4x2
       67    jpeg_fdct_4x4
       68    jpeg_fdct_4x8
       69    jpeg_fdct_5x10
       70    jpeg_fdct_5x5
       71    jpeg_fdct_6x12
       72    jpeg_fdct_6x3
       73    jpeg_fdct_6x6
       74    jpeg_fdct_7x14
       75    jpeg_fdct_7x7
       76    jpeg_fdct_8x16
       77    jpeg_fdct_8x4
       78    jpeg_fdct_9x9
       79    jpeg_fdct_float
       80    jpeg_fdct_ifast
       81    jpeg_fdct_islow
       82    jpeg_finish_compress
       83    jpeg_finish_decompress
       84    jpeg_finish_output
       85    jpeg_free_large
       86    jpeg_free_small
       87    jpeg_get_large
       88    jpeg_get_small
       89    jpeg_has_multiple_scans
       90    jpeg_idct_10x10
       91    jpeg_idct_10x5
       92    jpeg_idct_11x11
       93    jpeg_idct_12x12
       94    jpeg_idct_12x6
       95    jpeg_idct_13x13
       96    jpeg_idct_14x14
       97    jpeg_idct_14x7
       98    jpeg_idct_15x15
       99    jpeg_idct_16x16
      100    jpeg_idct_16x8
      101    jpeg_idct_1x1
      102    jpeg_idct_1x2
      103    jpeg_idct_2x1
      104    jpeg_idct_2x2
      105    jpeg_idct_2x4
      106    jpeg_idct_3x3
      107    jpeg_idct_3x6
      108    jpeg_idct_4x2
      109    jpeg_idct_4x4
      110    jpeg_idct_4x8
      111    jpeg_idct_5x10
      112    jpeg_idct_5x5
      113    jpeg_idct_6x12
      114    jpeg_idct_6x3
      115    jpeg_idct_6x6
      116    jpeg_idct_7x14
      117    jpeg_idct_7x7
      118    jpeg_idct_8x16
      119    jpeg_idct_8x4
      120    jpeg_idct_9x9
      121    jpeg_idct_float
      122    jpeg_idct_ifast
      123    jpeg_idct_islow
      124    jpeg_input_complete
      125    jpeg_mem_available
      126    jpeg_mem_dest
      127    jpeg_mem_init
      128    jpeg_mem_src
      129    jpeg_mem_term
      130    jpeg_new_colormap
      131    jpeg_open_backing_store
      132    jpeg_quality_scaling
      133    jpeg_read_coefficients
      134    jpeg_read_header
      135    jpeg_read_raw_data
      136    jpeg_read_scanlines
      137    jpeg_resync_to_restart
      138    jpeg_save_markers
      139    jpeg_set_colorspace
      140    jpeg_set_defaults
      141    jpeg_set_linear_quality
      142    jpeg_set_marker_processor
      143    jpeg_set_quality
      144    jpeg_simple_progression
      145    jpeg_start_compress
      146    jpeg_start_decompress
      147    jpeg_start_output
      148    jpeg_std_error
      149    jpeg_stdio_dest
      150    jpeg_stdio_src
      151    jpeg_suppress_tables
      152    jpeg_write_coefficients
      153    jpeg_write_m_byte
      154    jpeg_write_m_header
      155    jpeg_write_marker
      156    jpeg_write_raw_data
      157    jpeg_write_scanlines
      158    jpeg_write_tables
      159    jround_up
