 libSDL2

 Timestamp is 526a9533 (Fri Oct 25 18:58:43 2013)

 Preferred load address is 0000000180000000

 Start         Length     Name                   Class
 0001:00000000 0008d048H .text                   CODE
 0001:0008d050 0000005eH .text$00                CODE
 0001:0008d0b0 00000091H .text$x                 CODE
 0002:00000000 00000838H .idata$5                DATA
 0002:00000838 00000008H .CRT$XCA                DATA
 0002:00000840 00000008H .CRT$XCZ                DATA
 0002:00000848 00000008H .CRT$XIA                DATA
 0002:00000850 00000008H .CRT$XIAA               DATA
 0002:00000858 00000008H .CRT$XIZ                DATA
 0002:00000860 0000c848H .rdata                  DATA
 0002:0000d0a8 00000008H .rtc$IAA                DATA
 0002:0000d0b0 00000008H .rtc$IZZ                DATA
 0002:0000d0b8 00000008H .rtc$TAA                DATA
 0002:0000d0c0 00000008H .rtc$TZZ                DATA
 0002:0000d0c8 00001cd4H .xdata                  DATA
 0002:0000ed9c 000000c8H .idata$2                DATA
 0002:0000ee64 00000014H .idata$3                DATA
 0002:0000ee78 00000838H .idata$4                DATA
 0002:0000f6b0 000010c8H .idata$6                DATA
 0002:00010780 000039a5H .edata                  DATA
 0003:00000000 00003758H .data                   DATA
 0003:00003760 0000b5f8H .bss                    DATA
 0004:00000000 0000447cH .pdata                  DATA

  Address         Publics by Value              Rva+Base               Lib:Object

 0000:00000000       ___safe_se_handler_table   0000000000000000     <absolute>
 0000:00000000       ___safe_se_handler_count   0000000000000000     <absolute>
 0000:00000000       __ImageBase                0000000180000000     <linker-defined>
 0001:00000000       SDL_AtomicCAS              0000000180001000 f   SDL_atomic.obj
 0001:00000070       SDL_AtomicCASPtr           0000000180001070 f   SDL_atomic.obj
 0001:000000e0       SDL_AtomicTryLock          00000001800010e0 f   SDL_spinlock.obj
 0001:000000f0       SDL_AtomicLock             00000001800010f0 f   SDL_spinlock.obj
 0001:00000120       SDL_AtomicUnlock           0000000180001120 f   SDL_spinlock.obj
 0001:000001c0       SDL_RunAudio               00000001800011c0 f   SDL_audio.obj
 0001:00000508       SDL_GetNumAudioDrivers     0000000180001508 f   SDL_audio.obj
 0001:00000510       SDL_GetAudioDriver         0000000180001510 f   SDL_audio.obj
 0001:0000052c       SDL_AudioInit              000000018000152c f   SDL_audio.obj
 0001:000007bc       SDL_GetCurrentAudioDriver  00000001800017bc f   SDL_audio.obj
 0001:000008d0       SDL_GetNumAudioDevices     00000001800018d0 f   SDL_audio.obj
 0001:0000096c       SDL_GetAudioDeviceName     000000018000196c f   SDL_audio.obj
 0001:00000fdc       SDL_OpenAudio              0000000180001fdc f   SDL_audio.obj
 0001:00001064       SDL_OpenAudioDevice        0000000180002064 f   SDL_audio.obj
 0001:00001084       SDL_GetAudioDeviceStatus   0000000180002084 f   SDL_audio.obj
 0001:000010b8       SDL_GetAudioStatus         00000001800020b8 f   SDL_audio.obj
 0001:000010c4       SDL_PauseAudioDevice       00000001800020c4 f   SDL_audio.obj
 0001:00001100       SDL_PauseAudio             0000000180002100 f   SDL_audio.obj
 0001:0000110c       SDL_LockAudioDevice        000000018000210c f   SDL_audio.obj
 0001:00001128       SDL_LockAudio              0000000180002128 f   SDL_audio.obj
 0001:0000114c       SDL_UnlockAudioDevice      000000018000214c f   SDL_audio.obj
 0001:00001168       SDL_UnlockAudio            0000000180002168 f   SDL_audio.obj
 0001:0000118c       SDL_CloseAudioDevice       000000018000218c f   SDL_audio.obj
 0001:000011bc       SDL_CloseAudio             00000001800021bc f   SDL_audio.obj
 0001:000011c8       SDL_AudioQuit              00000001800021c8 f   SDL_audio.obj
 0001:00001260       SDL_FirstAudioFormat       0000000180002260 f   SDL_audio.obj
 0001:0000129c       SDL_NextAudioFormat        000000018000229c f   SDL_audio.obj
 0001:000012d8       SDL_CalculateAudioSpec     00000001800022d8 f   SDL_audio.obj
 0001:00001304       SDL_MixAudio               0000000180002304 f   SDL_audio.obj
 0001:0000297c       SDL_ConvertAudio           000000018000397c f   SDL_audiocvt.obj
 0001:00002bfc       SDL_BuildAudioCVT          0000000180003bfc f   SDL_audiocvt.obj
 0001:0002507c       SDL_MixAudioFormat         000000018002607c f   SDL_mixer.obj
 0001:0002607c       SDL_LoadWAV_RW             000000018002707c f   SDL_wave.obj
 0001:0002640c       SDL_free                   000000018002740c f   SDL_malloc.obj
 0001:0002640c       SDL_FreeWAV                000000018002740c f   SDL_wave.obj
 0001:0002640c       SDL_FreeRW                 000000018002740c f   SDL_rwops.obj
 0001:000264a0       SDL_GetCPUCount            00000001800274a0 f   SDL_cpuinfo.obj
 0001:000264d4       SDL_GetCPUCacheLineSize    00000001800274d4 f   SDL_cpuinfo.obj
 0001:0002658c       SDL_HasRDTSC               000000018002758c f   SDL_cpuinfo.obj
 0001:000265a0       SDL_HasAltiVec             00000001800275a0 f   SDL_cpuinfo.obj
 0001:000265b8       SDL_HasMMX                 00000001800275b8 f   SDL_cpuinfo.obj
 0001:000265d0       SDL_Has3DNow               00000001800275d0 f   SDL_cpuinfo.obj
 0001:000265e8       SDL_HasSSE                 00000001800275e8 f   SDL_cpuinfo.obj
 0001:00026600       SDL_HasSSE2                0000000180027600 f   SDL_cpuinfo.obj
 0001:00026618       SDL_HasSSE3                0000000180027618 f   SDL_cpuinfo.obj
 0001:00026630       SDL_HasSSE41               0000000180027630 f   SDL_cpuinfo.obj
 0001:00026644       SDL_HasSSE42               0000000180027644 f   SDL_cpuinfo.obj
 0001:00026658       SDL_GetSystemRAM           0000000180027658 f   SDL_cpuinfo.obj
 0001:0002669c       SDL_SendClipboardUpdate    000000018002769c f   SDL_clipboardevents.obj
 0001:000266d4       SDL_SendDropFile           00000001800276d4 f   SDL_dropevents.obj
 0001:00026728       SDL_StopEventLoop          0000000180027728 f   SDL_events.obj
 0001:000269cc       SDL_PeepEvents             00000001800279cc f   SDL_events.obj
 0001:00026bd4       SDL_HasEvent               0000000180027bd4 f   SDL_events.obj
 0001:00026bfc       SDL_HasEvents              0000000180027bfc f   SDL_events.obj
 0001:00026c24       SDL_FlushEvent             0000000180027c24 f   SDL_events.obj
 0001:00026c2c       SDL_FlushEvents            0000000180027c2c f   SDL_events.obj
 0001:00026c90       SDL_PumpEvents             0000000180027c90 f   SDL_events.obj
 0001:00026cdc       SDL_PollEvent              0000000180027cdc f   SDL_events.obj
 0001:00026ce4       SDL_WaitEvent              0000000180027ce4 f   SDL_events.obj
 0001:00026cec       SDL_WaitEventTimeout       0000000180027cec f   SDL_events.obj
 0001:00026d70       SDL_PushEvent              0000000180027d70 f   SDL_events.obj
 0001:00026df4       SDL_SetEventFilter         0000000180027df4 f   SDL_events.obj
 0001:00026e34       SDL_GetEventFilter         0000000180027e34 f   SDL_events.obj
 0001:00026e60       SDL_AddEventWatch          0000000180027e60 f   SDL_events.obj
 0001:00026ea4       SDL_DelEventWatch          0000000180027ea4 f   SDL_events.obj
 0001:00026ef0       SDL_FilterEvents           0000000180027ef0 f   SDL_events.obj
 0001:00026f68       SDL_EventState             0000000180027f68 f   SDL_events.obj
 0001:00027044       SDL_RegisterEvents         0000000180028044 f   SDL_events.obj
 0001:00027064       SDL_SendSysWMEvent         0000000180028064 f   SDL_events.obj
 0001:000270c0       SDL_RecordGesture          00000001800280c0 f   SDL_gesture.obj
 0001:00027120       SDL_SaveAllDollarTemplates 0000000180028120 f   SDL_gesture.obj
 0001:000271e4       SDL_SaveDollarTemplate     00000001800281e4 f   SDL_gesture.obj
 0001:000273d0       SDL_LoadDollarTemplates    00000001800283d0 f   SDL_gesture.obj
 0001:00027b68       SDL_GestureProcessEvent    0000000180028b68 f   SDL_gesture.obj
 0001:00028038       SDL_UCS4ToUTF8             0000000180029038 f   SDL_keyboard.obj
 0001:000281a0       SDL_GetDefaultKeymap       00000001800291a0 f   SDL_keyboard.obj
 0001:000281b4       SDL_SetKeymap              00000001800291b4 f   SDL_keyboard.obj
 0001:000281e8       SDL_SetScancodeName        00000001800291e8 f   SDL_keyboard.obj
 0001:000281f8       SDL_GetKeyboardFocus       00000001800291f8 f   SDL_keyboard.obj
 0001:00028200       SDL_SetKeyboardFocus       0000000180029200 f   SDL_keyboard.obj
 0001:000282e8       SDL_SendKeyboardKey        00000001800292e8 f   SDL_keyboard.obj
 0001:00028530       SDL_SendKeyboardText       0000000180029530 f   SDL_keyboard.obj
 0001:000285b0       SDL_SendEditingText        00000001800295b0 f   SDL_keyboard.obj
 0001:00028644       SDL_GetKeyboardState       0000000180029644 f   SDL_keyboard.obj
 0001:00028658       SDL_GetModState            0000000180029658 f   SDL_keyboard.obj
 0001:00028660       SDL_SetModState            0000000180029660 f   SDL_keyboard.obj
 0001:00028668       SDL_GetKeyFromScancode     0000000180029668 f   SDL_keyboard.obj
 0001:000286a0       SDL_GetScancodeFromKey     00000001800296a0 f   SDL_keyboard.obj
 0001:000286c4       SDL_GetScancodeName        00000001800296c4 f   SDL_keyboard.obj
 0001:00028704       SDL_GetScancodeFromName    0000000180029704 f   SDL_keyboard.obj
 0001:00028778       SDL_GetKeyName             0000000180029778 f   SDL_keyboard.obj
 0001:00028810       SDL_GetKeyFromName         0000000180029810 f   SDL_keyboard.obj
 0001:00028914       SDL_SetDefaultCursor       0000000180029914 f   SDL_mouse.obj
 0001:00028934       SDL_GetMouse               0000000180029934 f   SDL_mouse.obj
 0001:0002893c       SDL_GetMouseFocus          000000018002993c f   SDL_mouse.obj
 0001:00028944       SDL_SetMouseFocus          0000000180029944 f   SDL_mouse.obj
 0001:00028a38       SDL_SendMouseMotion        0000000180029a38 f   SDL_mouse.obj
 0001:00028c5c       SDL_SendMouseButton        0000000180029c5c f   SDL_mouse.obj
 0001:00028db0       SDL_SendMouseWheel         0000000180029db0 f   SDL_mouse.obj
 0001:00028e4c       SDL_GetMouseState          0000000180029e4c f   SDL_mouse.obj
 0001:00028e70       SDL_GetRelativeMouseState  0000000180029e70 f   SDL_mouse.obj
 0001:00028ea0       SDL_WarpMouseInWindow      0000000180029ea0 f   SDL_mouse.obj
 0001:00028ee0       SDL_SetRelativeMouseMode   0000000180029ee0 f   SDL_mouse.obj
 0001:00028fd4       SDL_GetRelativeMouseMode   0000000180029fd4 f   SDL_mouse.obj
 0001:00028fdc       SDL_CreateCursor           0000000180029fdc f   SDL_mouse.obj
 0001:0002910c       SDL_CreateColorCursor      000000018002a10c f   SDL_mouse.obj
 0001:000291d0       SDL_CreateSystemCursor     000000018002a1d0 f   SDL_mouse.obj
 0001:00029210       SDL_SetCursor              000000018002a210 f   SDL_mouse.obj
 0001:000292a8       SDL_GetCursor              000000018002a2a8 f   SDL_mouse.obj
 0001:000292b0       SDL_GetDefaultCursor       000000018002a2b0 f   SDL_mouse.obj
 0001:000292b8       SDL_FreeCursor             000000018002a2b8 f   SDL_mouse.obj
 0001:00029324       SDL_ShowCursor             000000018002a324 f   SDL_mouse.obj
 0001:00029390       SDL_GetNumTouchDevices     000000018002a390 f   SDL_touch.obj
 0001:00029398       SDL_GetTouchDevice         000000018002a398 f   SDL_touch.obj
 0001:000293d0       SDL_GetTouch               000000018002a3d0 f   SDL_touch.obj
 0001:00029428       SDL_GetNumTouchFingers     000000018002a428 f   SDL_touch.obj
 0001:00029444       SDL_GetTouchFinger         000000018002a444 f   SDL_touch.obj
 0001:00029480       SDL_AddTouch               000000018002a480 f   SDL_touch.obj
 0001:00029688       SDL_SendTouch              000000018002a688 f   SDL_touch.obj
 0001:000298a0       SDL_SendTouchMotion        000000018002a8a0 f   SDL_touch.obj
 0001:00029a38       SDL_TouchQuit              000000018002aa38 f   SDL_touch.obj
 0001:00029b98       SDL_SendWindowEvent        000000018002ab98 f   SDL_windowevents.obj
 0001:0002a734       SDL_RWFromFile             000000018002b734 f   SDL_rwops.obj
 0001:0002a7e8       SDL_RWFromFP               000000018002b7e8 f   SDL_rwops.obj
 0001:0002a850       SDL_RWFromMem              000000018002b850 f   SDL_rwops.obj
 0001:0002a8f4       SDL_RWFromConstMem         000000018002b8f4 f   SDL_rwops.obj
 0001:0002a998       SDL_AllocRW                000000018002b998 f   SDL_rwops.obj
 0001:0002a9cc       SDL_ReadU8                 000000018002b9cc f   SDL_rwops.obj
 0001:0002a9f4       SDL_ReadLE16               000000018002b9f4 f   SDL_rwops.obj
 0001:0002aa20       SDL_ReadBE16               000000018002ba20 f   SDL_rwops.obj
 0001:0002aa5c       SDL_ReadLE32               000000018002ba5c f   SDL_rwops.obj
 0001:0002aa84       SDL_ReadBE32               000000018002ba84 f   SDL_rwops.obj
 0001:0002aad4       SDL_ReadLE64               000000018002bad4 f   SDL_rwops.obj
 0001:0002ab00       SDL_ReadBE64               000000018002bb00 f   SDL_rwops.obj
 0001:0002ab98       SDL_WriteU8                000000018002bb98 f   SDL_rwops.obj
 0001:0002abbc       SDL_WriteLE16              000000018002bbbc f   SDL_rwops.obj
 0001:0002abe0       SDL_WriteBE16              000000018002bbe0 f   SDL_rwops.obj
 0001:0002ac08       SDL_WriteLE32              000000018002bc08 f   SDL_rwops.obj
 0001:0002ac2c       SDL_WriteBE32              000000018002bc2c f   SDL_rwops.obj
 0001:0002ac78       SDL_WriteLE64              000000018002bc78 f   SDL_rwops.obj
 0001:0002ac9c       SDL_WriteBE64              000000018002bc9c f   SDL_rwops.obj
 0001:0002ad80       SDL_NumHaptics             000000018002bd80 f   SDL_haptic.obj
 0001:0002ad88       SDL_HapticName             000000018002bd88 f   SDL_haptic.obj
 0001:0002adbc       SDL_HapticOpen             000000018002bdbc f   SDL_haptic.obj
 0001:0002aef4       SDL_HapticOpened           000000018002bef4 f   SDL_haptic.obj
 0001:0002af54       SDL_HapticIndex            000000018002bf54 f   SDL_haptic.obj
 0001:0002af74       SDL_MouseIsHaptic          000000018002bf74 f   SDL_haptic.obj
 0001:0002af8c       SDL_HapticOpenFromMouse    000000018002bf8c f   SDL_haptic.obj
 0001:0002afb8       SDL_JoystickIsHaptic       000000018002bfb8 f   SDL_haptic.obj
 0001:0002afec       SDL_HapticOpenFromJoystick 000000018002bfec f   SDL_haptic.obj
 0001:0002b13c       SDL_HapticClose            000000018002c13c f   SDL_haptic.obj
 0001:0002b208       SDL_HapticNumEffects       000000018002c208 f   SDL_haptic.obj
 0001:0002b228       SDL_HapticNumEffectsPlaying 000000018002c228 f   SDL_haptic.obj
 0001:0002b248       SDL_HapticQuery            000000018002c248 f   SDL_haptic.obj
 0001:0002b264       SDL_HapticNumAxes          000000018002c264 f   SDL_haptic.obj
 0001:0002b284       SDL_HapticEffectSupported  000000018002c284 f   SDL_haptic.obj
 0001:0002b2c0       SDL_HapticNewEffect        000000018002c2c0 f   SDL_haptic.obj
 0001:0002b378       SDL_HapticUpdateEffect     000000018002c378 f   SDL_haptic.obj
 0001:0002b410       SDL_HapticRunEffect        000000018002c410 f   SDL_haptic.obj
 0001:0002b488       SDL_HapticStopEffect       000000018002c488 f   SDL_haptic.obj
 0001:0002b4f0       SDL_HapticDestroyEffect    000000018002c4f0 f   SDL_haptic.obj
 0001:0002b548       SDL_HapticGetEffectStatus  000000018002c548 f   SDL_haptic.obj
 0001:0002b5b0       SDL_HapticSetGain          000000018002c5b0 f   SDL_haptic.obj
 0001:0002b66c       SDL_HapticSetAutocenter    000000018002c66c f   SDL_haptic.obj
 0001:0002b6d8       SDL_HapticPause            000000018002c6d8 f   SDL_haptic.obj
 0001:0002b714       SDL_HapticUnpause          000000018002c714 f   SDL_haptic.obj
 0001:0002b744       SDL_HapticStopAll          000000018002c744 f   SDL_haptic.obj
 0001:0002b76c       SDL_HapticRumbleSupported  000000018002c76c f   SDL_haptic.obj
 0001:0002b794       SDL_HapticRumbleInit       000000018002c794 f   SDL_haptic.obj
 0001:0002b85c       SDL_HapticRumblePlay       000000018002c85c f   SDL_haptic.obj
 0001:0002b918       SDL_HapticRumbleStop       000000018002c918 f   SDL_haptic.obj
 0001:0002b954       SDL_GameControllerEventWatcher 000000018002c954 f   SDL_gamecontroller.obj
 0001:0002bca8       SDL_PrivateGetControllerMappingForGUID 000000018002cca8 f   SDL_gamecontroller.obj
 0001:0002bce0       SDL_PrivateGetControllerMapping 000000018002cce0 f   SDL_gamecontroller.obj
 0001:0002bd24       SDL_GameControllerGetAxisFromString 000000018002cd24 f   SDL_gamecontroller.obj
 0001:0002bd9c       SDL_GameControllerGetStringForAxis 000000018002cd9c f   SDL_gamecontroller.obj
 0001:0002bdb4       SDL_GameControllerGetButtonFromString 000000018002cdb4 f   SDL_gamecontroller.obj
 0001:0002be2c       SDL_GameControllerGetStringForButton 000000018002ce2c f   SDL_gamecontroller.obj
 0001:0002be44       SDL_PrivateGameControllerParseButton 000000018002ce44 f   SDL_gamecontroller.obj
 0001:0002bf7c       SDL_PrivateLoadButtonMapping 000000018002cf7c f   SDL_gamecontroller.obj
 0001:0002c124       SDL_PrivateGetControllerNameFromMappingString 000000018002d124 f   SDL_gamecontroller.obj
 0001:0002c1c8       SDL_GameControllerAddMapping 000000018002d1c8 f   SDL_gamecontroller.obj
 0001:0002c41c       SDL_GameControllerMappingForGUID 000000018002d41c f   SDL_gamecontroller.obj
 0001:0002c4e4       SDL_GameControllerMapping  000000018002d4e4 f   SDL_gamecontroller.obj
 0001:0002c504       SDL_GameControllerInit     000000018002d504 f   SDL_gamecontroller.obj
 0001:0002c5f0       SDL_GameControllerNameForIndex 000000018002d5f0 f   SDL_gamecontroller.obj
 0001:0002c60c       SDL_IsGameController       000000018002d60c f   SDL_gamecontroller.obj
 0001:0002c624       SDL_GameControllerOpen     000000018002d624 f   SDL_gamecontroller.obj
 0001:0002c750       SDL_GameControllerUpdate   000000018002d750 f   SDL_gamecontroller.obj
 0001:0002c758       SDL_GameControllerGetAxis  000000018002d758 f   SDL_gamecontroller.obj
 0001:0002c7c4       SDL_GameControllerGetButton 000000018002d7c4 f   SDL_gamecontroller.obj
 0001:0002c850       SDL_GameControllerGetAttached 000000018002d850 f   SDL_gamecontroller.obj
 0001:0002c88c       SDL_GameControllerName     000000018002d88c f   SDL_gamecontroller.obj
 0001:0002c89c       SDL_GameControllerGetJoystick 000000018002d89c f   SDL_gamecontroller.obj
 0001:0002c8a8       SDL_GameControllerGetBindForAxis 000000018002d8a8 f   SDL_gamecontroller.obj
 0001:0002c8e8       SDL_GameControllerGetBindForButton 000000018002d8e8 f   SDL_gamecontroller.obj
 0001:0002c94c       SDL_GameControllerClose    000000018002d94c f   SDL_gamecontroller.obj
 0001:0002c9c0       SDL_PrivateGameControllerAxis 000000018002d9c0 f   SDL_gamecontroller.obj
 0001:0002ca34       SDL_PrivateGameControllerButton 000000018002da34 f   SDL_gamecontroller.obj
 0001:0002cac0       SDL_GameControllerEventState 000000018002dac0 f   SDL_gamecontroller.obj
 0001:0002cb80       SDL_NumJoysticks           000000018002db80 f   SDL_joystick.obj
 0001:0002cb88       SDL_JoystickNameForIndex   000000018002db88 f   SDL_joystick.obj
 0001:0002cbc4       SDL_JoystickOpen           000000018002dbc4 f   SDL_joystick.obj
 0001:0002cdb8       SDL_PrivateJoystickValid   000000018002ddb8 f   SDL_joystick.obj
 0001:0002cdec       SDL_JoystickNumAxes        000000018002ddec f   SDL_joystick.obj
 0001:0002ce0c       SDL_JoystickNumHats        000000018002de0c f   SDL_joystick.obj
 0001:0002ce2c       SDL_JoystickNumBalls       000000018002de2c f   SDL_joystick.obj
 0001:0002ce4c       SDL_JoystickNumButtons     000000018002de4c f   SDL_joystick.obj
 0001:0002ce6c       SDL_JoystickGetAxis        000000018002de6c f   SDL_joystick.obj
 0001:0002cebc       SDL_JoystickGetHat         000000018002debc f   SDL_joystick.obj
 0001:0002cf10       SDL_JoystickGetBall        000000018002df10 f   SDL_joystick.obj
 0001:0002cf9c       SDL_JoystickGetButton      000000018002df9c f   SDL_joystick.obj
 0001:0002cff0       SDL_JoystickGetAttached    000000018002dff0 f   SDL_joystick.obj
 0001:0002d010       SDL_JoystickInstanceID     000000018002e010 f   SDL_joystick.obj
 0001:0002d030       SDL_JoystickName           000000018002e030 f   SDL_joystick.obj
 0001:0002d050       SDL_JoystickClose          000000018002e050 f   SDL_joystick.obj
 0001:0002d12c       SDL_PrivateJoystickAxis    000000018002e12c f   SDL_joystick.obj
 0001:0002d1cc       SDL_PrivateJoystickHat     000000018002e1cc f   SDL_joystick.obj
 0001:0002d264       SDL_PrivateJoystickButton  000000018002e264 f   SDL_joystick.obj
 0001:0002d314       SDL_JoystickUpdate         000000018002e314 f   SDL_joystick.obj
 0001:0002d3e0       SDL_JoystickEventState     000000018002e3e0 f   SDL_joystick.obj
 0001:0002d488       SDL_JoystickGetDeviceGUID  000000018002e488 f   SDL_joystick.obj
 0001:0002d4f0       SDL_JoystickGetGUID        000000018002e4f0 f   SDL_joystick.obj
 0001:0002d544       SDL_JoystickGetGUIDString  000000018002e544 f   SDL_joystick.obj
 0001:0002d5ac       SDL_JoystickGetGUIDFromString 000000018002e5ac f   SDL_joystick.obj
 0001:0002d678       SDL_uclibc_scalbn          000000018002e678 f   s_scalbn.obj
 0001:0002d7a4       SDL_GetPowerInfo           000000018002e7a4 f   SDL_power.obj
 0001:0002d804       SDL_GetNumRenderDrivers    000000018002e804 f   SDL_render.obj
 0001:0002d80c       SDL_GetRenderDriverInfo    000000018002e80c f   SDL_render.obj
 0001:0002dad4       SDL_CreateWindowAndRenderer 000000018002ead4 f   SDL_render.obj
 0001:0002db34       SDL_CreateRenderer         000000018002eb34 f   SDL_render.obj
 0001:0002dd38       SDL_CreateSoftwareRenderer 000000018002ed38 f   SDL_render.obj
 0001:0002dd7c       SDL_GetRenderer            000000018002ed7c f   SDL_render.obj
 0001:0002dd88       SDL_GetRendererInfo        000000018002ed88 f   SDL_render.obj
 0001:0002ddd0       SDL_GetRendererOutputSize  000000018002edd0 f   SDL_render.obj
 0001:0002df20       SDL_CreateTexture          000000018002ef20 f   SDL_render.obj
 0001:0002e1cc       SDL_CreateTextureFromSurface 000000018002f1cc f   SDL_render.obj
 0001:0002e3c8       SDL_QueryTexture           000000018002f3c8 f   SDL_render.obj
 0001:0002e424       SDL_SetTextureColorMod     000000018002f424 f   SDL_render.obj
 0001:0002e4a0       SDL_GetTextureColorMod     000000018002f4a0 f   SDL_render.obj
 0001:0002e4f0       SDL_SetTextureAlphaMod     000000018002f4f0 f   SDL_render.obj
 0001:0002e554       SDL_GetTextureAlphaMod     000000018002f554 f   SDL_render.obj
 0001:0002e58c       SDL_SetTextureBlendMode    000000018002f58c f   SDL_render.obj
 0001:0002e5e4       SDL_GetTextureBlendMode    000000018002f5e4 f   SDL_render.obj
 0001:0002e8e4       SDL_UpdateTexture          000000018002f8e4 f   SDL_render.obj
 0001:0002eb30       SDL_UpdateYUVTexture       000000018002fb30 f   SDL_render.obj
 0001:0002ecb0       SDL_LockTexture            000000018002fcb0 f   SDL_render.obj
 0001:0002ef20       SDL_UnlockTexture          000000018002ff20 f   SDL_render.obj
 0001:0002effc       SDL_RenderTargetSupported  000000018002fffc f   SDL_render.obj
 0001:0002f018       SDL_SetRenderTarget        0000000180030018 f   SDL_render.obj
 0001:0002f1dc       SDL_GetRenderTarget        00000001800301dc f   SDL_render.obj
 0001:0002f374       SDL_RenderSetLogicalSize   0000000180030374 f   SDL_render.obj
 0001:0002f3ec       SDL_RenderGetLogicalSize   00000001800303ec f   SDL_render.obj
 0001:0002f430       SDL_RenderSetViewport      0000000180030430 f   SDL_render.obj
 0001:0002f540       SDL_RenderGetViewport      0000000180030540 f   SDL_render.obj
 0001:0002f5d4       SDL_RenderSetClipRect      00000001800305d4 f   SDL_render.obj
 0001:0002f6d0       SDL_RenderGetClipRect      00000001800306d0 f   SDL_render.obj
 0001:0002f764       SDL_RenderSetScale         0000000180030764 f   SDL_render.obj
 0001:0002f7a4       SDL_RenderGetScale         00000001800307a4 f   SDL_render.obj
 0001:0002f7e8       SDL_SetRenderDrawColor     00000001800307e8 f   SDL_render.obj
 0001:0002f834       SDL_GetRenderDrawColor     0000000180030834 f   SDL_render.obj
 0001:0002f89c       SDL_SetRenderDrawBlendMode 000000018003089c f   SDL_render.obj
 0001:0002f8d0       SDL_GetRenderDrawBlendMode 00000001800308d0 f   SDL_render.obj
 0001:0002f908       SDL_RenderClear            0000000180030908 f   SDL_render.obj
 0001:0002f94c       SDL_RenderDrawPoint        000000018003094c f   SDL_render.obj
 0001:0002fa48       SDL_RenderDrawPoints       0000000180030a48 f   SDL_render.obj
 0001:0002fb98       SDL_RenderDrawLine         0000000180030b98 f   SDL_render.obj
 0001:0002fde8       SDL_RenderDrawLines        0000000180030de8 f   SDL_render.obj
 0001:0002ff3c       SDL_RenderDrawRect         0000000180030f3c f   SDL_render.obj
 0001:0002ffe8       SDL_RenderDrawRects        0000000180030fe8 f   SDL_render.obj
 0001:00030088       SDL_RenderFillRect         0000000180031088 f   SDL_render.obj
 0001:000300f8       SDL_RenderFillRects        00000001800310f8 f   SDL_render.obj
 0001:00030234       SDL_RenderCopy             0000000180031234 f   SDL_render.obj
 0001:000303f0       SDL_RenderCopyEx           00000001800313f0 f   SDL_render.obj
 0001:00030614       SDL_RenderReadPixels       0000000180031614 f   SDL_render.obj
 0001:00030774       SDL_RenderPresent          0000000180031774 f   SDL_render.obj
 0001:000307b4       SDL_DestroyTexture         00000001800317b4 f   SDL_render.obj
 0001:00030874       SDL_DestroyRenderer        0000000180031874 f   SDL_render.obj
 0001:000308f4       SDL_GL_BindTexture         00000001800318f4 f   SDL_render.obj
 0001:00030960       SDL_GL_UnbindTexture       0000000180031960 f   SDL_render.obj
 0001:00032400       SDL_SW_CreateYUVTexture    0000000180033400 f   SDL_yuv_sw.obj
 0001:000325f8       SDL_SW_UpdateYUVTexture    00000001800335f8 f   SDL_yuv_sw.obj
 0001:0003289c       SDL_SW_UpdateYUVTexturePlanar 000000018003389c f   SDL_yuv_sw.obj
 0001:00032a78       SDL_SW_CopyYUVToRGB        0000000180033a78 f   SDL_yuv_sw.obj
 0001:00032db4       SDL_SW_DestroyYUVTexture   0000000180033db4 f   SDL_yuv_sw.obj
 0001:00032e00       SDL_setenv                 0000000180033e00 f   SDL_getenv.obj
 0001:00032e5c       SDL_getenv                 0000000180033e5c f   SDL_getenv.obj
 0001:00032fb0       SDL_iconv_open             0000000180033fb0 f   SDL_iconv.obj
 0001:00033090       SDL_iconv                  0000000180034090 f   SDL_iconv.obj
 0001:00033a64       SDL_iconv_close            0000000180034a64 f   SDL_iconv.obj
 0001:00033a7c       SDL_iconv_string           0000000180034a7c f   SDL_iconv.obj
 0001:00033bdc       SDL_malloc                 0000000180034bdc f   SDL_malloc.obj
 0001:00033be4       SDL_calloc                 0000000180034be4 f   SDL_malloc.obj
 0001:00033bec       SDL_realloc                0000000180034bec f   SDL_malloc.obj
 0001:00033bf4       SDL_qsort                  0000000180034bf4 f   SDL_qsort.obj
 0001:00033bfc       SDL_atan                   0000000180034bfc f   SDL_stdlib.obj
 0001:00033c04       SDL_atan2                  0000000180034c04 f   SDL_stdlib.obj
 0001:00033c0c       SDL_ceil                   0000000180034c0c f   SDL_stdlib.obj
 0001:00033c14       SDL_copysign               0000000180034c14 f   SDL_stdlib.obj
 0001:00033c54       SDL_cos                    0000000180034c54 f   SDL_stdlib.obj
 0001:00033c5c       SDL_cosf                   0000000180034c5c f   SDL_stdlib.obj
 0001:00033c64       SDL_fabs                   0000000180034c64 f   SDL_stdlib.obj
 0001:00033c70       SDL_floor                  0000000180034c70 f   SDL_stdlib.obj
 0001:00033c78       SDL_log                    0000000180034c78 f   SDL_stdlib.obj
 0001:00033c80       SDL_pow                    0000000180034c80 f   SDL_stdlib.obj
 0001:00033c88       SDL_scalbn                 0000000180034c88 f   SDL_stdlib.obj
 0001:00033c90       SDL_sin                    0000000180034c90 f   SDL_stdlib.obj
 0001:00033c98       SDL_sinf                   0000000180034c98 f   SDL_stdlib.obj
 0001:00033ca0       SDL_sqrt                   0000000180034ca0 f   SDL_stdlib.obj
 0001:00033ca8       SDL_abs                    0000000180034ca8 f   SDL_stdlib.obj
 0001:00033cb0       SDL_isdigit                0000000180034cb0 f   SDL_stdlib.obj
 0001:00033cb8       SDL_isspace                0000000180034cb8 f   SDL_stdlib.obj
 0001:00033cc0       SDL_toupper                0000000180034cc0 f   SDL_stdlib.obj
 0001:00033cc8       SDL_tolower                0000000180034cc8 f   SDL_stdlib.obj
 0001:000340c0       SDL_memset                 00000001800350c0 f   SDL_string.obj
 0001:000340d8       SDL_memcpy                 00000001800350d8 f   SDL_string.obj
 0001:000340f0       SDL_memmove                00000001800350f0 f   SDL_string.obj
 0001:000340f8       SDL_memcmp                 00000001800350f8 f   SDL_string.obj
 0001:00034100       SDL_strlen                 0000000180035100 f   SDL_string.obj
 0001:00034120       SDL_wcslen                 0000000180035120 f   SDL_string.obj
 0001:00034138       SDL_wcslcpy                0000000180035138 f   SDL_string.obj
 0001:000341a4       SDL_wcslcat                00000001800351a4 f   SDL_string.obj
 0001:00034204       SDL_strlcpy                0000000180035204 f   SDL_string.obj
 0001:0003425c       SDL_utf8strlcpy            000000018003525c f   SDL_string.obj
 0001:00034318       SDL_strlcat                0000000180035318 f   SDL_string.obj
 0001:0003436c       SDL_strdup                 000000018003536c f   SDL_string.obj
 0001:000343c0       SDL_strrev                 00000001800353c0 f   SDL_string.obj
 0001:000343c8       SDL_strupr                 00000001800353c8 f   SDL_string.obj
 0001:000343d0       SDL_strlwr                 00000001800353d0 f   SDL_string.obj
 0001:000343d8       SDL_strchr                 00000001800353d8 f   SDL_string.obj
 0001:000343e0       SDL_strrchr                00000001800353e0 f   SDL_string.obj
 0001:000343e8       SDL_strstr                 00000001800353e8 f   SDL_string.obj
 0001:000343f0       SDL_ltoa                   00000001800353f0 f   SDL_string.obj
 0001:000343f0       SDL_itoa                   00000001800353f0 f   SDL_string.obj
 0001:000343f8       SDL_ultoa                  00000001800353f8 f   SDL_string.obj
 0001:000343f8       SDL_uitoa                  00000001800353f8 f   SDL_string.obj
 0001:00034400       SDL_lltoa                  0000000180035400 f   SDL_string.obj
 0001:00034470       SDL_ulltoa                 0000000180035470 f   SDL_string.obj
 0001:000344c4       SDL_atoi                   00000001800354c4 f   SDL_string.obj
 0001:000344cc       SDL_atof                   00000001800354cc f   SDL_string.obj
 0001:000344d4       SDL_strtol                 00000001800354d4 f   SDL_string.obj
 0001:000344dc       SDL_strtoul                00000001800354dc f   SDL_string.obj
 0001:000344e4       SDL_strtoll                00000001800354e4 f   SDL_string.obj
 0001:00034568       SDL_strtoull               0000000180035568 f   SDL_string.obj
 0001:000345ec       SDL_strtod                 00000001800355ec f   SDL_string.obj
 0001:000345f4       SDL_strcmp                 00000001800355f4 f   SDL_string.obj
 0001:00034610       SDL_strncmp                0000000180035610 f   SDL_string.obj
 0001:00034618       SDL_strcasecmp             0000000180035618 f   SDL_string.obj
 0001:00034620       SDL_strncasecmp            0000000180035620 f   SDL_string.obj
 0001:00034628       SDL_sscanf                 0000000180035628 f   SDL_string.obj
 0001:00034b18       SDL_snprintf               0000000180035b18 f   SDL_string.obj
 0001:00034ef4       SDL_vsnprintf              0000000180035ef4 f   SDL_string.obj
 0001:000352f8       SDL_TLSCreate              00000001800362f8 f   SDL_thread.obj
 0001:00035308       SDL_TLSGet                 0000000180036308 f   SDL_thread.obj
 0001:0003533c       SDL_TLSSet                 000000018003633c f   SDL_thread.obj
 0001:00035420       SDL_Generic_GetTLSData     0000000180036420 f   SDL_thread.obj
 0001:000354b8       SDL_Generic_SetTLSData     00000001800364b8 f   SDL_thread.obj
 0001:0003558c       SDL_GetErrBuf              000000018003658c f   SDL_thread.obj
 0001:00035674       SDL_RunThread              0000000180036674 f   SDL_thread.obj
 0001:00035714       SDL_CreateThread           0000000180036714 f   SDL_thread.obj
 0001:00035878       SDL_GetThreadID            0000000180036878 f   SDL_thread.obj
 0001:00035890       SDL_GetThreadName          0000000180036890 f   SDL_thread.obj
 0001:000358a0       SDL_SetThreadPriority      00000001800368a0 f   SDL_thread.obj
 0001:000358a8       SDL_WaitThread             00000001800368a8 f   SDL_thread.obj
 0001:00035ab4       SDL_TimerInit              0000000180036ab4 f   SDL_timer.obj
 0001:00035b44       SDL_TimerQuit              0000000180036b44 f   SDL_timer.obj
 0001:00035c28       SDL_AddTimer               0000000180036c28 f   SDL_timer.obj
 0001:00035da0       SDL_RemoveTimer            0000000180036da0 f   SDL_timer.obj
 0001:000360fc       SDL_CalculateBlit          00000001800370fc f   SDL_blit.obj
 0001:0003f61c       SDL_CalculateBlitA         000000018004061c f   SDL_blit_A.obj
 0001:0004de58       SDL_BlitCopy               000000018004ee58 f   SDL_blit_copy.obj
 0001:00055aa0       SDL_CalculateBlitN         0000000180056aa0 f   SDL_blit_N.obj
 0001:00055d18       SDL_Blit_Slow              0000000180056d18 f   SDL_blit_slow.obj
 0001:00056630       SDL_LoadBMP_RW             0000000180057630 f   SDL_bmp.obj
 0001:00056cb0       SDL_SaveBMP_RW             0000000180057cb0 f   SDL_bmp.obj
 0001:00057244       SDL_SetClipboardText       0000000180058244 f   SDL_clipboard.obj
 0001:000572a4       SDL_GetClipboardText       00000001800582a4 f   SDL_clipboard.obj
 0001:000572e4       SDL_HasClipboardText       00000001800582e4 f   SDL_clipboard.obj
 0001:00057790       SDL_FillRect               0000000180058790 f   SDL_fillrect.obj
 0001:000579a0       SDL_FillRects              00000001800589a0 f   SDL_fillrect.obj
 0001:00057a18       SDL_GetPixelFormatName     0000000180058a18 f   SDL_pixels.obj
 0001:00057c80       SDL_PixelFormatEnumToMasks 0000000180058c80 f   SDL_pixels.obj
 0001:00057f10       SDL_MasksToPixelFormatEnum 0000000180058f10 f   SDL_pixels.obj
 0001:00058304       SDL_AllocFormat            0000000180059304 f   SDL_pixels.obj
 0001:000583c0       SDL_InitFormat             00000001800593c0 f   SDL_pixels.obj
 0001:00058520       SDL_FreeFormat             0000000180059520 f   SDL_pixels.obj
 0001:000585ac       SDL_AllocPalette           00000001800595ac f   SDL_pixels.obj
 0001:00058654       SDL_SetPixelFormatPalette  0000000180059654 f   SDL_pixels.obj
 0001:000586c0       SDL_SetPaletteColors       00000001800596c0 f   SDL_pixels.obj
 0001:00058720       SDL_FreePalette            0000000180059720 f   SDL_pixels.obj
 0001:00058768       SDL_FindColor              0000000180059768 f   SDL_pixels.obj
 0001:00058818       SDL_MapRGB                 0000000180059818 f   SDL_pixels.obj
 0001:00058874       SDL_MapRGBA                0000000180059874 f   SDL_pixels.obj
 0001:000588ec       SDL_GetRGB                 00000001800598ec f   SDL_pixels.obj
 0001:000589b8       SDL_GetRGBA                00000001800599b8 f   SDL_pixels.obj
 0001:00058e00       SDL_InvalidateMap          0000000180059e00 f   SDL_pixels.obj
 0001:00058e48       SDL_MapSurface             0000000180059e48 f   SDL_pixels.obj
 0001:0005908c       SDL_CalculateGammaRamp     000000018005a08c f   SDL_pixels.obj
 0001:0005917c       SDL_HasIntersection        000000018005a17c f   SDL_rect.obj
 0001:00059228       SDL_IntersectRect          000000018005a228 f   SDL_rect.obj
 0001:00059310       SDL_UnionRect              000000018005a310 f   SDL_rect.obj
 0001:000593ec       SDL_EnclosePoints          000000018005a3ec f   SDL_rect.obj
 0001:000595c0       SDL_IntersectRectAndLine   000000018005a5c0 f   SDL_rect.obj
 0001:000598fc       SDL_GetSpanEnclosingRect   000000018005a8fc f   SDL_rect.obj
 0001:0005ae88       SDL_RLEBlit                000000018005be88 f   SDL_RLEaccel.obj
 0001:0005c46c       SDL_RLEAlphaBlit           000000018005d46c f   SDL_RLEaccel.obj
 0001:0005d984       SDL_RLESurface             000000018005e984 f   SDL_RLEaccel.obj
 0001:0005dbec       SDL_UnRLESurface           000000018005ebec f   SDL_RLEaccel.obj
 0001:0005dca8       SDL_CreateShapedWindow     000000018005eca8 f   SDL_shape.obj
 0001:0005dd50       SDL_IsShapedWindow         000000018005ed50 f   SDL_shape.obj
 0001:0005e0ac       SDL_CalculateShapeTree     000000018005f0ac f   SDL_shape.obj
 0001:0005e120       SDL_TraverseShapeTree      000000018005f120 f   SDL_shape.obj
 0001:0005e190       SDL_FreeShapeTree          000000018005f190 f   SDL_shape.obj
 0001:0005e1e4       SDL_SetWindowShape         000000018005f1e4 f   SDL_shape.obj
 0001:0005e294       SDL_GetShapedWindowMode    000000018005f294 f   SDL_shape.obj
 0001:0005e2d8       SDL_SoftStretch            000000018005f2d8 f   SDL_stretch.obj
 0001:0005e700       SDL_CreateRGBSurface       000000018005f700 f   SDL_surface.obj
 0001:0005e928       SDL_CreateRGBSurfaceFrom   000000018005f928 f   SDL_surface.obj
 0001:0005e9b8       SDL_SetSurfacePalette      000000018005f9b8 f   SDL_surface.obj
 0001:0005e9e0       SDL_SetSurfaceRLE          000000018005f9e0 f   SDL_surface.obj
 0001:0005ea20       SDL_SetColorKey            000000018005fa20 f   SDL_surface.obj
 0001:0005eb44       SDL_GetColorKey            000000018005fb44 f   SDL_surface.obj
 0001:0005ec8c       SDL_SetSurfaceColorMod     000000018005fc8c f   SDL_surface.obj
 0001:0005ecf4       SDL_GetSurfaceColorMod     000000018005fcf4 f   SDL_surface.obj
 0001:0005ed30       SDL_SetSurfaceAlphaMod     000000018005fd30 f   SDL_surface.obj
 0001:0005ed74       SDL_GetSurfaceAlphaMod     000000018005fd74 f   SDL_surface.obj
 0001:0005ed90       SDL_SetSurfaceBlendMode    000000018005fd90 f   SDL_surface.obj
 0001:0005ee1c       SDL_GetSurfaceBlendMode    000000018005fe1c f   SDL_surface.obj
 0001:0005ee64       SDL_SetClipRect            000000018005fe64 f   SDL_surface.obj
 0001:0005eeb8       SDL_GetClipRect            000000018005feb8 f   SDL_surface.obj
 0001:0005eecc       SDL_LowerBlit              000000018005fecc f   SDL_surface.obj
 0001:0005ef60       SDL_UpperBlit              000000018005ff60 f   SDL_surface.obj
 0001:0005f104       SDL_UpperBlitScaled        0000000180060104 f   SDL_surface.obj
 0001:0005f280       SDL_LowerBlitScaled        0000000180060280 f   SDL_surface.obj
 0001:0005f3e4       SDL_LockSurface            00000001800603e4 f   SDL_surface.obj
 0001:0005f410       SDL_UnlockSurface          0000000180060410 f   SDL_surface.obj
 0001:0005f43c       SDL_ConvertSurface         000000018006043c f   SDL_surface.obj
 0001:0005f73c       SDL_ConvertSurfaceFormat   000000018006073c f   SDL_surface.obj
 0001:0005f88c       SDL_ConvertPixels          000000018006088c f   SDL_surface.obj
 0001:0005fa54       SDL_FreeSurface            0000000180060a54 f   SDL_surface.obj
 0001:0005ff60       SDL_GetNumVideoDrivers     0000000180060f60 f   SDL_video.obj
 0001:0005ff68       SDL_GetVideoDriver         0000000180060f68 f   SDL_video.obj
 0001:0005ff84       SDL_VideoInit              0000000180060f84 f   SDL_video.obj
 0001:000602d0       SDL_GetCurrentVideoDriver  00000001800612d0 f   SDL_video.obj
 0001:000602f8       SDL_GetVideoDevice         00000001800612f8 f   SDL_video.obj
 0001:00060300       SDL_AddBasicVideoDisplay   0000000180061300 f   SDL_video.obj
 0001:00060370       SDL_AddVideoDisplay        0000000180061370 f   SDL_video.obj
 0001:00060448       SDL_GetNumVideoDisplays    0000000180061448 f   SDL_video.obj
 0001:00060474       SDL_GetDisplayDriverData   0000000180061474 f   SDL_video.obj
 0001:000604d4       SDL_GetDisplayName         00000001800614d4 f   SDL_video.obj
 0001:00060534       SDL_GetDisplayBounds       0000000180061534 f   SDL_video.obj
 0001:000605f0       SDL_AddDisplayMode         00000001800615f0 f   SDL_video.obj
 0001:00060704       SDL_GetNumDisplayModes     0000000180061704 f   SDL_video.obj
 0001:00060764       SDL_GetDisplayMode         0000000180061764 f   SDL_video.obj
 0001:00060830       SDL_GetDesktopDisplayMode  0000000180061830 f   SDL_video.obj
 0001:000608ac       SDL_GetCurrentDisplayMode  00000001800618ac f   SDL_video.obj
 0001:00060aa8       SDL_GetClosestDisplayMode  0000000180061aa8 f   SDL_video.obj
 0001:00060c78       SDL_GetWindowDisplayIndex  0000000180061c78 f   SDL_video.obj
 0001:00060e28       SDL_GetDisplayForWindow    0000000180061e28 f   SDL_video.obj
 0001:00060e58       SDL_SetWindowDisplayMode   0000000180061e58 f   SDL_video.obj
 0001:00060ec4       SDL_GetWindowDisplayMode   0000000180061ec4 f   SDL_video.obj
 0001:00060ff8       SDL_GetWindowPixelFormat   0000000180061ff8 f   SDL_video.obj
 0001:00061290       SDL_CreateWindow           0000000180062290 f   SDL_video.obj
 0001:00061528       SDL_CreateWindowFrom       0000000180062528 f   SDL_video.obj
 0001:00061600       SDL_RecreateWindow         0000000180062600 f   SDL_video.obj
 0001:00061780       SDL_GetWindowID            0000000180062780 f   SDL_video.obj
 0001:000617c4       SDL_GetWindowFromID        00000001800627c4 f   SDL_video.obj
 0001:000617f0       SDL_GetWindowFlags         00000001800627f0 f   SDL_video.obj
 0001:00061834       SDL_SetWindowTitle         0000000180062834 f   SDL_video.obj
 0001:000618d4       SDL_GetWindowTitle         00000001800628d4 f   SDL_video.obj
 0001:00061928       SDL_SetWindowIcon          0000000180062928 f   SDL_video.obj
 0001:000619b8       SDL_SetWindowData          00000001800629b8 f   SDL_video.obj
 0001:00061b04       SDL_GetWindowData          0000000180062b04 f   SDL_video.obj
 0001:00061ba0       SDL_SetWindowPosition      0000000180062ba0 f   SDL_video.obj
 0001:00061d1c       SDL_GetWindowPosition      0000000180062d1c f   SDL_video.obj
 0001:00061d88       SDL_SetWindowBordered      0000000180062d88 f   SDL_video.obj
 0001:00061e10       SDL_SetWindowSize          0000000180062e10 f   SDL_video.obj
 0001:00061ed0       SDL_GetWindowSize          0000000180062ed0 f   SDL_video.obj
 0001:00061f24       SDL_SetWindowMinimumSize   0000000180062f24 f   SDL_video.obj
 0001:00061fc8       SDL_GetWindowMinimumSize   0000000180062fc8 f   SDL_video.obj
 0001:0006201c       SDL_SetWindowMaximumSize   000000018006301c f   SDL_video.obj
 0001:000620c0       SDL_GetWindowMaximumSize   00000001800630c0 f   SDL_video.obj
 0001:00062114       SDL_ShowWindow             0000000180063114 f   SDL_video.obj
 0001:0006217c       SDL_HideWindow             000000018006317c f   SDL_video.obj
 0001:000621f0       SDL_RaiseWindow            00000001800631f0 f   SDL_video.obj
 0001:00062248       SDL_MaximizeWindow         0000000180063248 f   SDL_video.obj
 0001:000622a0       SDL_MinimizeWindow         00000001800632a0 f   SDL_video.obj
 0001:00062308       SDL_RestoreWindow          0000000180063308 f   SDL_video.obj
 0001:00062360       SDL_SetWindowFullscreen    0000000180063360 f   SDL_video.obj
 0001:000624b4       SDL_GetWindowSurface       00000001800634b4 f   SDL_video.obj
 0001:00062544       SDL_UpdateWindowSurface    0000000180063544 f   SDL_video.obj
 0001:000625ac       SDL_UpdateWindowSurfaceRects 00000001800635ac f   SDL_video.obj
 0001:00062618       SDL_SetWindowBrightness    0000000180063618 f   SDL_video.obj
 0001:000626a4       SDL_GetWindowBrightness    00000001800636a4 f   SDL_video.obj
 0001:000626f0       SDL_SetWindowGammaRamp     00000001800636f0 f   SDL_video.obj
 0001:00062810       SDL_GetWindowGammaRamp     0000000180063810 f   SDL_video.obj
 0001:00062998       SDL_UpdateWindowGrab       0000000180063998 f   SDL_video.obj
 0001:000629d4       SDL_SetWindowGrab          00000001800639d4 f   SDL_video.obj
 0001:00062a48       SDL_GetWindowGrab          0000000180063a48 f   SDL_video.obj
 0001:00062a90       SDL_OnWindowResized        0000000180063a90 f   SDL_video.obj
 0001:00062aa8       SDL_DestroyWindow          0000000180063aa8 f   SDL_video.obj
 0001:00062c54       SDL_IsScreenSaverEnabled   0000000180063c54 f   SDL_video.obj
 0001:00062c74       SDL_EnableScreenSaver      0000000180063c74 f   SDL_video.obj
 0001:00062ca8       SDL_DisableScreenSaver     0000000180063ca8 f   SDL_video.obj
 0001:00062ce0       SDL_VideoQuit              0000000180063ce0 f   SDL_video.obj
 0001:00062edc       SDL_GL_LoadLibrary         0000000180063edc f   SDL_video.obj
 0001:00062f90       SDL_GL_GetProcAddress      0000000180063f90 f   SDL_video.obj
 0001:00062ff0       SDL_GL_UnloadLibrary       0000000180063ff0 f   SDL_video.obj
 0001:00063038       SDL_GL_ExtensionSupported  0000000180064038 f   SDL_video.obj
 0001:0006318c       SDL_GL_SetAttribute        000000018006418c f   SDL_video.obj
 0001:000633a8       SDL_GL_GetAttribute        00000001800643a8 f   SDL_video.obj
 0001:0006366c       SDL_GL_CreateContext       000000018006466c f   SDL_video.obj
 0001:00063720       SDL_GL_MakeCurrent         0000000180064720 f   SDL_video.obj
 0001:00063808       SDL_GL_GetCurrentWindow    0000000180064808 f   SDL_video.obj
 0001:00063838       SDL_GL_GetCurrentContext   0000000180064838 f   SDL_video.obj
 0001:00063868       SDL_GL_GetDrawableSize     0000000180064868 f   SDL_video.obj
 0001:000638c8       SDL_GL_SetSwapInterval     00000001800648c8 f   SDL_video.obj
 0001:00063924       SDL_GL_GetSwapInterval     0000000180064924 f   SDL_video.obj
 0001:0006395c       SDL_GL_SwapWindow          000000018006495c f   SDL_video.obj
 0001:000639d4       SDL_GL_DeleteContext       00000001800649d4 f   SDL_video.obj
 0001:00063a18       SDL_GetWindowWMInfo        0000000180064a18 f   SDL_video.obj
 0001:00063a78       SDL_StartTextInput         0000000180064a78 f   SDL_video.obj
 0001:00063af4       SDL_IsTextInputActive      0000000180064af4 f   SDL_video.obj
 0001:00063b14       SDL_StopTextInput          0000000180064b14 f   SDL_video.obj
 0001:00063b8c       SDL_SetTextInputRect       0000000180064b8c f   SDL_video.obj
 0001:00063bb4       SDL_HasScreenKeyboardSupport 0000000180064bb4 f   SDL_video.obj
 0001:00063bdc       SDL_IsScreenKeyboardShown  0000000180064bdc f   SDL_video.obj
 0001:00063c0c       SDL_ShowMessageBox         0000000180064c0c f   SDL_video.obj
 0001:00063d24       SDL_ShowSimpleMessageBox   0000000180064d24 f   SDL_video.obj
 0001:00063db8       SDL_ShouldAllowTopmost     0000000180064db8 f   SDL_video.obj
 0001:00064058       SDL_SetMainReady           0000000180065058 f   SDL.obj
 0001:00064064       SDL_InitSubSystem          0000000180065064 f   SDL.obj
 0001:000642e4       SDL_Init                   00000001800652e4 f   SDL.obj
 0001:000642ec       SDL_QuitSubSystem          00000001800652ec f   SDL.obj
 0001:000644e0       SDL_WasInit                00000001800654e0 f   SDL.obj
 0001:00064640       SDL_Quit                   0000000180065640 f   SDL.obj
 0001:00064754       SDL_GetVersion             0000000180065754 f   SDL.obj
 0001:00064760       SDL_GetRevision            0000000180065760 f   SDL.obj
 0001:00064768       SDL_GetRevisionNumber      0000000180065768 f   SDL.obj
 0001:00064770       SDL_GetPlatform            0000000180065770 f   SDL.obj
 0001:00064b40       SDL_ReportAssertion        0000000180065b40 f   SDL_assert.obj
 0001:00064c94       SDL_SetAssertionHandler    0000000180065c94 f   SDL_assert.obj
 0001:00064cc0       SDL_GetAssertionReport     0000000180065cc0 f   SDL_assert.obj
 0001:00064cc8       SDL_ResetAssertionReport   0000000180065cc8 f   SDL_assert.obj
 0001:00064cf4       SDL_SetError               0000000180065cf4 f   SDL_error.obj
 0001:00064e80       SDL_GetError               0000000180065e80 f   SDL_error.obj
 0001:00065008       SDL_ClearError             0000000180066008 f   SDL_error.obj
 0001:0006501c       SDL_Error                  000000018006601c f   SDL_error.obj
 0001:00065070       SDL_SetHintWithPriority    0000000180066070 f   SDL_hints.obj
 0001:000651c0       SDL_SetHint                00000001800661c0 f   SDL_hints.obj
 0001:000651cc       SDL_GetHint                00000001800661cc f   SDL_hints.obj
 0001:0006522c       SDL_AddHintCallback        000000018006622c f   SDL_hints.obj
 0001:00065358       SDL_DelHintCallback        0000000180066358 f   SDL_hints.obj
 0001:000653d8       SDL_ClearHints             00000001800663d8 f   SDL_hints.obj
 0001:0006544c       SDL_LogSetAllPriority      000000018006644c f   SDL_log.obj
 0001:00065474       SDL_LogSetPriority         0000000180066474 f   SDL_log.obj
 0001:000654d8       SDL_LogGetPriority         00000001800664d8 f   SDL_log.obj
 0001:0006551c       SDL_LogResetPriorities     000000018006651c f   SDL_log.obj
 0001:00065578       SDL_Log                    0000000180066578 f   SDL_log.obj
 0001:000655a8       SDL_LogVerbose             00000001800665a8 f   SDL_log.obj
 0001:000655d4       SDL_LogDebug               00000001800665d4 f   SDL_log.obj
 0001:00065600       SDL_LogInfo                0000000180066600 f   SDL_log.obj
 0001:0006562c       SDL_LogWarn                000000018006662c f   SDL_log.obj
 0001:00065658       SDL_LogError               0000000180066658 f   SDL_log.obj
 0001:00065684       SDL_LogCritical            0000000180066684 f   SDL_log.obj
 0001:000656b0       SDL_LogMessage             00000001800666b0 f   SDL_log.obj
 0001:000656d0       SDL_LogMessageV            00000001800666d0 f   SDL_log.obj
 0001:00065940       SDL_LogGetOutputFunction   0000000180066940 f   SDL_log.obj
 0001:00065960       SDL_LogSetOutputFunction   0000000180066960 f   SDL_log.obj
 0001:00067004       XAudio2Create              0000000180068004 f i SDL_xaudio2.obj
 0001:000671c8       WIN_QuitModes              00000001800681c8 f   SDL_windowsmodes.obj
 0001:000671c8       SDL_SYS_SetupThread        00000001800681c8 f   SDL_systhread.obj
 0001:000671c8       DUMMY_PumpEvents           00000001800681c8 f   SDL_nullevents.obj
 0001:000678e8       WIN_SetError               00000001800688e8 f   SDL_windows.obj
 0001:000679a0       WIN_CoInitialize           00000001800689a0 f   SDL_windows.obj
 0001:000679bc       WIN_CoUninitialize         00000001800689bc f   SDL_windows.obj
 0001:000679c4       SDL_GetBasePath            00000001800689c4 f   SDL_sysfilesystem.obj
 0001:00067a40       SDL_GetPrefPath            0000000180068a40 f   SDL_sysfilesystem.obj
 0001:00067c80       SDL_SYS_HapticName         0000000180068c80 f   SDL_syshaptic.obj
 0001:00068070       SDL_SYS_HapticMouse        0000000180069070 f   SDL_syshaptic.obj
 0001:0006809c       SDL_SYS_JoystickIsHaptic   000000018006909c f   SDL_syshaptic.obj
 0001:000680b8       SDL_SYS_JoystickSameHaptic 00000001800690b8 f   SDL_syshaptic.obj
 0001:00068160       SDL_SYS_HapticClose        0000000180069160 f   SDL_syshaptic.obj
 0001:000681e4       SDL_SYS_HapticQuit         00000001800691e4 f   SDL_syshaptic.obj
 0001:00068c94       SDL_SYS_HapticUpdateEffect 0000000180069c94 f   SDL_syshaptic.obj
 0001:00068da4       SDL_SYS_HapticRunEffect    0000000180069da4 f   SDL_syshaptic.obj
 0001:00068eb0       SDL_SYS_HapticStopEffect   0000000180069eb0 f   SDL_syshaptic.obj
 0001:00068f40       SDL_SYS_HapticDestroyEffect 0000000180069f40 f   SDL_syshaptic.obj
 0001:00068fa0       SDL_SYS_HapticGetEffectStatus 0000000180069fa0 f   SDL_syshaptic.obj
 0001:00068fe0       SDL_SYS_HapticSetGain      0000000180069fe0 f   SDL_syshaptic.obj
 0001:0006903c       SDL_SYS_HapticSetAutocenter 000000018006a03c f   SDL_syshaptic.obj
 0001:0006909c       SDL_SYS_HapticPause        000000018006a09c f   SDL_syshaptic.obj
 0001:000690d8       SDL_SYS_HapticUnpause      000000018006a0d8 f   SDL_syshaptic.obj
 0001:00069114       SDL_SYS_HapticStopAll      000000018006a114 f   SDL_syshaptic.obj
 0001:0006922c       SDL_SYS_HapticInit         000000018006a22c f   SDL_syshaptic.obj
 0001:000695e0       SDL_SYS_HapticOpen         000000018006a5e0 f   SDL_syshaptic.obj
 0001:000696e4       SDL_SYS_HapticOpenFromJoystick 000000018006a6e4 f   SDL_syshaptic.obj
 0001:00069800       SDL_SYS_HapticNewEffect    000000018006a800 f   SDL_syshaptic.obj
 0001:000699c0       WIN_UnloadXInputDLL        000000018006a9c0 f   SDL_dxjoystick.obj
 0001:00069ba8       SDL_PrivateJoystickDetectProc 000000018006aba8 f   SDL_dxjoystick.obj
 0001:00069f00       SDL_SYS_NumJoysticks       000000018006af00 f   SDL_dxjoystick.obj
 0001:0006a1d0       SDL_SYS_JoystickDetect     000000018006b1d0 f   SDL_dxjoystick.obj
 0001:0006a3f4       SDL_SYS_JoystickNeedsPolling 000000018006b3f4 f   SDL_dxjoystick.obj
 0001:0006a410       SDL_SYS_JoystickNameForDeviceIndex 000000018006b410 f   SDL_dxjoystick.obj
 0001:0006a430       SDL_SYS_GetInstanceIdOfDeviceIndex 000000018006b430 f   SDL_dxjoystick.obj
 0001:0006a450       SDL_SYS_JoystickAttached   000000018006b450 f   SDL_dxjoystick.obj
 0001:0006a79c       SDL_SYS_JoystickUpdate_XInput 000000018006b79c f   SDL_dxjoystick.obj
 0001:0006ac3c       SDL_SYS_JoystickClose      000000018006bc3c f   SDL_dxjoystick.obj
 0001:0006ac7c       SDL_SYS_JoystickQuit       000000018006bc7c f   SDL_dxjoystick.obj
 0001:0006ad7c       SDL_SYS_JoystickGetDeviceGUID 000000018006bd7c f   SDL_dxjoystick.obj
 0001:0006ada0       SDL_SYS_JoystickGetGUID    000000018006bda0 f   SDL_dxjoystick.obj
 0001:0006adb4       SDL_SYS_IsXInputDeviceIndex 000000018006bdb4 f   SDL_dxjoystick.obj
 0001:0006add4       WIN_LoadXInputDLL          000000018006bdd4 f   SDL_dxjoystick.obj
 0001:0006aecc       SDL_SYS_JoystickInit       000000018006becc f   SDL_dxjoystick.obj
 0001:0006b060       SDL_SYS_JoystickOpen       000000018006c060 f   SDL_dxjoystick.obj
 0001:0006b388       SDL_SYS_JoystickUpdate_Polled 000000018006c388 f   SDL_dxjoystick.obj
 0001:0006b538       SDL_SYS_JoystickUpdate_Buffered 000000018006c538 f   SDL_dxjoystick.obj
 0001:0006b6a8       SDL_SYS_JoystickUpdate     000000018006c6a8 f   SDL_dxjoystick.obj
 0001:0006b744       SDL_LoadObject             000000018006c744 f   SDL_sysloadso.obj
 0001:0006b7e0       SDL_LoadFunction           000000018006c7e0 f   SDL_sysloadso.obj
 0001:0006b848       SDL_UnloadObject           000000018006c848 f   SDL_sysloadso.obj
 0001:0006b85c       SDL_GetPowerInfo_Windows   000000018006c85c f   SDL_syspower.obj
 0001:0006cc78       SDL_RenderGetD3D9Device    000000018006dc78 f   SDL_render_d3d.obj
 0001:000728d4       GL_SelectShader            00000001800738d4 f   SDL_shaders_gl.obj
 0001:000728e8       GL_DestroyShaderContext    00000001800738e8 f   SDL_shaders_gl.obj
 0001:00072938       GL_CreateShaderContext     0000000180073938 f   SDL_shaders_gl.obj
 0001:000779dc       SDL_BlendFillRects         00000001800789dc f   SDL_blendfillrect.obj
 0001:00080284       SDL_BlendLines             0000000180081284 f   SDL_blendline.obj
 0001:0008176c       SDL_BlendPoint             000000018008276c f   SDL_blendpoint.obj
 0001:00081948       SDL_BlendPoints            0000000180082948 f   SDL_blendpoint.obj
 0001:0008287c       SDL_DrawLines              000000018008387c f   SDL_drawline.obj
 0001:000829f0       SDL_DrawPoint              00000001800839f0 f   SDL_drawpoint.obj
 0001:00082abc       SDL_DrawPoints             0000000180083abc f   SDL_drawpoint.obj
 0001:00083be0       SW_CreateRendererForSurface 0000000180084be0 f   SDL_render_sw.obj
 0001:00083db0       SDLgfx_rotozoomSurfaceSizeTrig 0000000180084db0 f   SDL_rotate.obj
 0001:000849a0       SDLgfx_rotateSurface       00000001800859a0 f   SDL_rotate.obj
 0001:00084cc0       SDL_CreateMutex            0000000180085cc0 f   SDL_sysmutex.obj
 0001:00084cf8       SDL_DestroyMutex           0000000180085cf8 f   SDL_sysmutex.obj
 0001:00084d1c       SDL_LockMutex              0000000180085d1c f   SDL_sysmutex.obj
 0001:00084d40       SDL_TryLockMutex           0000000180085d40 f   SDL_sysmutex.obj
 0001:00084d74       SDL_UnlockMutex            0000000180085d74 f   SDL_sysmutex.obj
 0001:00084d98       SDL_CreateSemaphore        0000000180085d98 f   SDL_syssem.obj
 0001:00084e04       SDL_DestroySemaphore       0000000180085e04 f   SDL_syssem.obj
 0001:00084e34       SDL_SemWaitTimeout         0000000180085e34 f   SDL_syssem.obj
 0001:00084e9c       SDL_SemTryWait             0000000180085e9c f   SDL_syssem.obj
 0001:00084ea4       SDL_SemWait                0000000180085ea4 f   SDL_syssem.obj
 0001:00084eac       SDL_SemValue               0000000180085eac f   SDL_syssem.obj
 0001:00084ed0       SDL_SemPost                0000000180085ed0 f   SDL_syssem.obj
 0001:00084f50       SDL_SYS_CreateThread       0000000180085f50 f   SDL_systhread.obj
 0001:00084fec       SDL_ThreadID               0000000180085fec f   SDL_systhread.obj
 0001:00084ff4       SDL_SYS_SetThreadPriority  0000000180085ff4 f   SDL_systhread.obj
 0001:00085038       SDL_SYS_WaitThread         0000000180086038 f   SDL_systhread.obj
 0001:00085060       SDL_SYS_GetTLSData         0000000180086060 f   SDL_systls.obj
 0001:000850e0       SDL_SYS_SetTLSData         00000001800860e0 f   SDL_systls.obj
 0001:0008511c       SDL_DestroyCond            000000018008611c f   SDL_syscond.obj
 0001:00085160       SDL_CondSignal             0000000180086160 f   SDL_syscond.obj
 0001:000851c0       SDL_CondBroadcast          00000001800861c0 f   SDL_syscond.obj
 0001:0008524c       SDL_CondWaitTimeout        000000018008624c f   SDL_syscond.obj
 0001:000852f8       SDL_CondWait               00000001800862f8 f   SDL_syscond.obj
 0001:00085304       SDL_CreateCond             0000000180086304 f   SDL_syscond.obj
 0001:000853e0       SDL_InitTicks              00000001800863e0 f   SDL_systimer.obj
 0001:0008547c       SDL_GetTicks               000000018008647c f   SDL_systimer.obj
 0001:000854d4       SDL_GetPerformanceCounter  00000001800864d4 f   SDL_systimer.obj
 0001:000854fc       SDL_GetPerformanceFrequency 00000001800864fc f   SDL_systimer.obj
 0001:00085524       SDL_Delay                  0000000180086524 f   SDL_systimer.obj
 0001:0008552c       SDL_DUMMY_CreateWindowFramebuffer 000000018008652c f   SDL_nullframebuffer.obj
 0001:00085628       SDL_DUMMY_UpdateWindowFramebuffer 0000000180086628 f   SDL_nullframebuffer.obj
 0001:000856d4       SDL_DUMMY_DestroyWindowFramebuffer 00000001800866d4 f   SDL_nullframebuffer.obj
 0001:00085838       WIN_SetClipboardText       0000000180086838 f   SDL_windowsclipboard.obj
 0001:000859d8       WIN_GetClipboardText       00000001800869d8 f   SDL_windowsclipboard.obj
 0001:00085aa4       WIN_HasClipboardText       0000000180086aa4 f   SDL_windowsclipboard.obj
 0001:00085acc       WIN_CheckClipboardUpdate   0000000180086acc f   SDL_windowsclipboard.obj
 0001:00085e4c       WIN_CheckWParamMouseButtons 0000000180086e4c f   SDL_windowsevents.obj
 0001:00085f5c       WIN_CheckRawMouseButtons   0000000180086f5c f   SDL_windowsevents.obj
 0001:00086130       WIN_WindowProc             0000000180087130 f   SDL_windowsevents.obj
 0001:00086fe0       WIN_PumpEvents             0000000180087fe0 f   SDL_windowsevents.obj
 0001:0008707c       SDL_RegisterApp            000000018008807c f   SDL_windowsevents.obj
 0001:000871fc       SDL_UnregisterApp          00000001800881fc f   SDL_windowsevents.obj
 0001:00087260       WIN_CreateWindowFramebuffer 0000000180088260 f   SDL_windowsframebuffer.obj
 0001:00087478       WIN_UpdateWindowFramebuffer 0000000180088478 f   SDL_windowsframebuffer.obj
 0001:000874c0       WIN_DestroyWindowFramebuffer 00000001800884c0 f   SDL_windowsframebuffer.obj
 0001:00087500       WIN_UpdateKeymap           0000000180088500 f   SDL_windowskeyboard.obj
 0001:000875b0       WIN_SetTextInputRect       00000001800885b0 f   SDL_windowskeyboard.obj
 0001:00087ee4       TSFSink_AddRef             0000000180088ee4 f   SDL_windowskeyboard.obj
 0001:00087eec       TSFSink_Release            0000000180088eec f   SDL_windowskeyboard.obj
 0001:00087f08       UIElementSink_QueryInterface 0000000180088f08 f   SDL_windowskeyboard.obj
 0001:00087f88       UILess_GetUIElement        0000000180088f88 f   SDL_windowskeyboard.obj
 0001:00087fe0       IPPASink_QueryInterface    0000000180088fe0 f   SDL_windowskeyboard.obj
 0001:00088288       WIN_InitKeyboard           0000000180089288 f   SDL_windowskeyboard.obj
 0001:0008875c       IME_HandleMessage          000000018008975c f   SDL_windowskeyboard.obj
 0001:00088bec       UIElementSink_BeginUIElement 0000000180089bec f   SDL_windowskeyboard.obj
 0001:00088cb8       UIElementSink_UpdateUIElement 0000000180089cb8 f   SDL_windowskeyboard.obj
 0001:00088d90       UIElementSink_EndUIElement 0000000180089d90 f   SDL_windowskeyboard.obj
 0001:00088e6c       IPPASink_OnActivated       0000000180089e6c f   SDL_windowskeyboard.obj
 0001:00088ef0       WIN_QuitKeyboard           0000000180089ef0 f   SDL_windowskeyboard.obj
 0001:000891a4       WIN_StartTextInput         000000018008a1a4 f   SDL_windowskeyboard.obj
 0001:00089204       WIN_StopTextInput          000000018008a204 f   SDL_windowskeyboard.obj
 0001:00089784       WIN_ShowMessageBox         000000018008a784 f   SDL_windowsmessagebox.obj
 0001:00089d84       WIN_InitModes              000000018008ad84 f   SDL_windowsmodes.obj
 0001:00089ec4       WIN_GetDisplayBounds       000000018008aec4 f   SDL_windowsmodes.obj
 0001:00089eec       WIN_GetDisplayModes        000000018008aeec f   SDL_windowsmodes.obj
 0001:00089f7c       WIN_SetDisplayMode         000000018008af7c f   SDL_windowsmodes.obj
 0001:0008a458       WIN_InitMouse              000000018008b458 f   SDL_windowsmouse.obj
 0001:0008a4e0       WIN_QuitMouse              000000018008b4e0 f   SDL_windowsmouse.obj
 0001:0008a510       WIN_GL_LoadLibrary         000000018008b510 f   SDL_windowsopengl.obj
 0001:0008a65c       WIN_GL_GetProcAddress      000000018008b65c f   SDL_windowsopengl.obj
 0001:0008a69c       WIN_GL_UnloadLibrary       000000018008b69c f   SDL_windowsopengl.obj
 0001:0008af6c       WIN_GL_MakeCurrent         000000018008bf6c f   SDL_windowsopengl.obj
 0001:0008afe0       WIN_GL_SetSwapInterval     000000018008bfe0 f   SDL_windowsopengl.obj
 0001:0008b044       WIN_GL_GetSwapInterval     000000018008c044 f   SDL_windowsopengl.obj
 0001:0008b068       WIN_GL_SwapWindow          000000018008c068 f   SDL_windowsopengl.obj
 0001:0008b07c       WIN_GL_DeleteContext       000000018008c07c f   SDL_windowsopengl.obj
 0001:0008b098       WIN_GL_SetupWindow         000000018008c098 f   SDL_windowsopengl.obj
 0001:0008b0f4       WIN_GL_CreateContext       000000018008c0f4 f   SDL_windowsopengl.obj
 0001:0008b2fc       CombineRectRegions         000000018008c2fc f   SDL_windowsshape.obj
 0001:0008b374       Win32_SetWindowShape       000000018008c374 f   SDL_windowsshape.obj
 0001:0008b434       Win32_ResizeWindowShape    000000018008c434 f   SDL_windowsshape.obj
 0001:0008b4a0       Win32_CreateShaper         000000018008c4a0 f   SDL_windowsshape.obj
 0001:0008b5ac       D3D_LoadDLL                000000018008c5ac f   SDL_windowsvideo.obj
 0001:0008b61c       SDL_Direct3D9GetAdapterIndex 000000018008c61c f   SDL_windowsvideo.obj
 0001:0008bda4       WIN_CreateWindowFrom       000000018008cda4 f   SDL_windowswindow.obj
 0001:0008be74       WIN_SetWindowTitle         000000018008ce74 f   SDL_windowswindow.obj
 0001:0008bee8       WIN_SetWindowIcon          000000018008cee8 f   SDL_windowswindow.obj
 0001:0008c074       WIN_SetWindowPosition      000000018008d074 f   SDL_windowswindow.obj
 0001:0008c080       WIN_SetWindowSize          000000018008d080 f   SDL_windowswindow.obj
 0001:0008c08c       WIN_ShowWindow             000000018008d08c f   SDL_windowswindow.obj
 0001:0008c0a4       WIN_HideWindow             000000018008d0a4 f   SDL_windowswindow.obj
 0001:0008c0b8       WIN_MaximizeWindow         000000018008d0b8 f   SDL_windowswindow.obj
 0001:0008c0d0       WIN_MinimizeWindow         000000018008d0d0 f   SDL_windowswindow.obj
 0001:0008c0e8       WIN_SetWindowBordered      000000018008d0e8 f   SDL_windowswindow.obj
 0001:0008c170       WIN_RestoreWindow          000000018008d170 f   SDL_windowswindow.obj
 0001:0008c188       WIN_SetWindowFullscreen    000000018008d188 f   SDL_windowswindow.obj
 0001:0008c300       WIN_SetWindowGammaRamp     000000018008d300 f   SDL_windowswindow.obj
 0001:0008c378       WIN_GetWindowGammaRamp     000000018008d378 f   SDL_windowswindow.obj
 0001:0008c3f0       WIN_SetWindowGrab          000000018008d3f0 f   SDL_windowswindow.obj
 0001:0008c484       WIN_DestroyWindow          000000018008d484 f   SDL_windowswindow.obj
 0001:0008c4dc       WIN_GetWindowWMInfo        000000018008d4dc f   SDL_windowswindow.obj
 0001:0008c518       SDL_HelperWindowCreate     000000018008d518 f   SDL_windowswindow.obj
 0001:0008c614       SDL_HelperWindowDestroy    000000018008d614 f   SDL_windowswindow.obj
 0001:0008c690       WIN_OnWindowEnter          000000018008d690 f   SDL_windowswindow.obj
 0001:0008c6d0       WIN_CreateWindow           000000018008d6d0 f   SDL_windowswindow.obj
 0001:0008c828       WIN_RaiseWindow            000000018008d828 f   SDL_windowswindow.obj
 0001:0008c858       ImmGetIMEFileNameA         000000018008d858 f   Imm32:IMM32.dll
 0001:0008c85e       ImmReleaseContext          000000018008d85e f   Imm32:IMM32.dll
 0001:0008c864       ImmGetContext              000000018008d864 f   Imm32:IMM32.dll
 0001:0008c86a       ImmSetCompositionStringW   000000018008d86a f   Imm32:IMM32.dll
 0001:0008c870       ImmNotifyIME               000000018008d870 f   Imm32:IMM32.dll
 0001:0008c876       ImmGetCompositionStringW   000000018008d876 f   Imm32:IMM32.dll
 0001:0008c87c       ImmGetCandidateListW       000000018008d87c f   Imm32:IMM32.dll
 0001:0008c882       ImmAssociateContext        000000018008d882 f   Imm32:IMM32.dll
 0001:0008c888       VerQueryValueA             000000018008d888 f   Version:VERSION.dll
 0001:0008c88e       GetFileVersionInfoA        000000018008d88e f   Version:VERSION.dll
 0001:0008c894       GetFileVersionInfoSizeA    000000018008d894 f   Version:VERSION.dll
 0001:0008c89a       GetSystemPowerStatus       000000018008d89a f   kernel32:KERNEL32.dll
 0001:0008c8a0       memcpy                     000000018008d8a0 f   MSVCRT:MSVCR90.dll
 0001:0008c8b0       memset                     000000018008d8b0 f   MSVCRT:MSVCR90.dll
 0001:0008c918       _CRT_INIT                  000000018008d918 f   MSVCRT:crtdll.obj
 0001:0008ccac       _DllMainCRTStartup         000000018008dcac f   MSVCRT:crtdll.obj
 0001:0008ccec       __clean_type_info_names    000000018008dcec f   MSVCRT:tncleanup.obj
 0001:0008ccf8       _onexit                    000000018008dcf8 f   MSVCRT:atonexit.obj
 0001:0008cda8       atexit                     000000018008dda8 f   MSVCRT:atonexit.obj
 0001:0008cdc0       _RTC_Initialize            000000018008ddc0 f   MSVCRT:_initsect_.obj
 0001:0008cdf8       _RTC_Terminate             000000018008ddf8 f   MSVCRT:_initsect_.obj
 0001:0008ce30       _ValidateImageBase         000000018008de30 f   MSVCRT:pesect.obj
 0001:0008ce60       _FindPESection             000000018008de60 f   MSVCRT:pesect.obj
 0001:0008ceb0       _IsNonwritableInCurrentImage 000000018008deb0 f   MSVCRT:pesect.obj
 0001:0008cef2       _initterm                  000000018008def2 f   MSVCRT:MSVCR90.dll
 0001:0008cef8       _initterm_e                000000018008def8 f   MSVCRT:MSVCR90.dll
 0001:0008cefe       _amsg_exit                 000000018008defe f   MSVCRT:MSVCR90.dll
 0001:0008cf04       __C_specific_handler       000000018008df04 f   MSVCRT:MSVCR90.dll
 0001:0008cf0a       __CppXcptFilter            000000018008df0a f   MSVCRT:MSVCR90.dll
 0001:0008cf10       DllMain                    000000018008df10 f   MSVCRT:dllmain.obj
 0001:0008cf34       __security_init_cookie     000000018008df34 f   MSVCRT:gs_support.obj
 0001:0008cfe8       __clean_type_info_names_internal 000000018008dfe8 f   MSVCRT:MSVCR90.dll
 0001:0008cfee       _unlock                    000000018008dfee f   MSVCRT:MSVCR90.dll
 0001:0008cff4       __dllonexit                000000018008dff4 f   MSVCRT:MSVCR90.dll
 0001:0008cffa       _lock                      000000018008dffa f   MSVCRT:MSVCR90.dll
 0001:0008d000       memcmp                     000000018008e000 f   MSVCRT:MSVCR90.dll
 0001:0008d006       sqrt                       000000018008e006 f   MSVCRT:MSVCR90.dll
 0001:0008d00c       sinf                       000000018008e00c f   MSVCRT:MSVCR90.dll
 0001:0008d012       sin                        000000018008e012 f   MSVCRT:MSVCR90.dll
 0001:0008d018       pow                        000000018008e018 f   MSVCRT:MSVCR90.dll
 0001:0008d01e       log                        000000018008e01e f   MSVCRT:MSVCR90.dll
 0001:0008d024       floor                      000000018008e024 f   MSVCRT:MSVCR90.dll
 0001:0008d02a       cosf                       000000018008e02a f   MSVCRT:MSVCR90.dll
 0001:0008d030       cos                        000000018008e030 f   MSVCRT:MSVCR90.dll
 0001:0008d036       ceil                       000000018008e036 f   MSVCRT:MSVCR90.dll
 0001:0008d03c       atan2                      000000018008e03c f   MSVCRT:MSVCR90.dll
 0001:0008d042       atan                       000000018008e042 f   MSVCRT:MSVCR90.dll
 0001:0008d060       __chkstk                   000000018008e060 f   MSVCRT:chkstk.obj
 0001:0008d060       _alloca_probe              000000018008e060     MSVCRT:chkstk.obj
 0002:00000000       __imp_CreateCompatibleBitmap 000000018008f000     gdi32:GDI32.dll
 0002:00000008       __imp_CreateDIBSection     000000018008f008     gdi32:GDI32.dll
 0002:00000010       __imp_CreateCompatibleDC   000000018008f010     gdi32:GDI32.dll
 0002:00000018       __imp_GetDIBits            000000018008f018     gdi32:GDI32.dll
 0002:00000020       __imp_DeleteObject         000000018008f020     gdi32:GDI32.dll
 0002:00000028       __imp_DeleteDC             000000018008f028     gdi32:GDI32.dll
 0002:00000030       __imp_BitBlt               000000018008f030     gdi32:GDI32.dll
 0002:00000038       __imp_GetDeviceGammaRamp   000000018008f038     gdi32:GDI32.dll
 0002:00000040       __imp_SetDeviceGammaRamp   000000018008f040     gdi32:GDI32.dll
 0002:00000048       __imp_CreateRectRgn        000000018008f048     gdi32:GDI32.dll
 0002:00000050       __imp_CombineRgn           000000018008f050     gdi32:GDI32.dll
 0002:00000058       __imp_SwapBuffers          000000018008f058     gdi32:GDI32.dll
 0002:00000060       __imp_ChoosePixelFormat    000000018008f060     gdi32:GDI32.dll
 0002:00000068       __imp_SetPixelFormat       000000018008f068     gdi32:GDI32.dll
 0002:00000070       __imp_DescribePixelFormat  000000018008f070     gdi32:GDI32.dll
 0002:00000078       __imp_CreateBitmap         000000018008f078     gdi32:GDI32.dll
 0002:00000080       __imp_CreateDCW            000000018008f080     gdi32:GDI32.dll
 0002:00000088       __imp_CreateFontIndirectW  000000018008f088     gdi32:GDI32.dll
 0002:00000090       __imp_GetTextMetricsW      000000018008f090     gdi32:GDI32.dll
 0002:00000098       __imp_GetDeviceCaps        000000018008f098     gdi32:GDI32.dll
 0002:000000a0       __imp_SelectObject         000000018008f0a0     gdi32:GDI32.dll
 0002:000000a8       \177GDI32_NULL_THUNK_DATA  000000018008f0a8     gdi32:GDI32.dll
 0002:000000b0       __imp_ImmReleaseContext    000000018008f0b0     Imm32:IMM32.dll
 0002:000000b8       __imp_ImmGetContext        000000018008f0b8     Imm32:IMM32.dll
 0002:000000c0       __imp_ImmSetCompositionStringW 000000018008f0c0     Imm32:IMM32.dll
 0002:000000c8       __imp_ImmNotifyIME         000000018008f0c8     Imm32:IMM32.dll
 0002:000000d0       __imp_ImmAssociateContext  000000018008f0d0     Imm32:IMM32.dll
 0002:000000d8       __imp_ImmGetCompositionStringW 000000018008f0d8     Imm32:IMM32.dll
 0002:000000e0       __imp_ImmGetCandidateListW 000000018008f0e0     Imm32:IMM32.dll
 0002:000000e8       __imp_ImmGetIMEFileNameA   000000018008f0e8     Imm32:IMM32.dll
 0002:000000f0       \177IMM32_NULL_THUNK_DATA  000000018008f0f0     Imm32:IMM32.dll
 0002:000000f8       __imp_GetTickCount         000000018008f0f8     kernel32:KERNEL32.dll
 0002:00000100       __imp_WideCharToMultiByte  000000018008f100     kernel32:KERNEL32.dll
 0002:00000108       __imp_ReleaseSemaphore     000000018008f108     kernel32:KERNEL32.dll
 0002:00000110       __imp_AttachConsole        000000018008f110     kernel32:KERNEL32.dll
 0002:00000118       __imp_GetLastError         000000018008f118     kernel32:KERNEL32.dll
 0002:00000120       __imp_GetStdHandle         000000018008f120     kernel32:KERNEL32.dll
 0002:00000128       __imp_lstrlenW             000000018008f128     kernel32:KERNEL32.dll
 0002:00000130       __imp_WriteConsoleW        000000018008f130     kernel32:KERNEL32.dll
 0002:00000138       __imp_OutputDebugStringW   000000018008f138     kernel32:KERNEL32.dll
 0002:00000140       __imp_ExitProcess          000000018008f140     kernel32:KERNEL32.dll
 0002:00000148       __imp_SetEnvironmentVariableA 000000018008f148     kernel32:KERNEL32.dll
 0002:00000150       __imp_GetEnvironmentVariableA 000000018008f150     kernel32:KERNEL32.dll
 0002:00000158       __imp_CloseHandle          000000018008f158     kernel32:KERNEL32.dll
 0002:00000160       __imp_GetFileSizeEx        000000018008f160     kernel32:KERNEL32.dll
 0002:00000168       __imp_CreateFileW          000000018008f168     kernel32:KERNEL32.dll
 0002:00000170       __imp_ReadFile             000000018008f170     kernel32:KERNEL32.dll
 0002:00000178       __imp_WriteFile            000000018008f178     kernel32:KERNEL32.dll
 0002:00000180       __imp_SetFilePointerEx     000000018008f180     kernel32:KERNEL32.dll
 0002:00000188       __imp_SetErrorMode         000000018008f188     kernel32:KERNEL32.dll
 0002:00000190       __imp_SetFilePointer       000000018008f190     kernel32:KERNEL32.dll
 0002:00000198       __imp_GetSystemInfo        000000018008f198     kernel32:KERNEL32.dll
 0002:000001a0       __imp_GlobalMemoryStatusEx 000000018008f1a0     kernel32:KERNEL32.dll
 0002:000001a8       __imp_CreateSemaphoreW     000000018008f1a8     kernel32:KERNEL32.dll
 0002:000001b0       __imp_FormatMessageW       000000018008f1b0     kernel32:KERNEL32.dll
 0002:000001b8       __imp_GetModuleFileNameW   000000018008f1b8     kernel32:KERNEL32.dll
 0002:000001c0       __imp_GetModuleHandleW     000000018008f1c0     kernel32:KERNEL32.dll
 0002:000001c8       __imp_FreeLibrary          000000018008f1c8     kernel32:KERNEL32.dll
 0002:000001d0       __imp_GetProcAddress       000000018008f1d0     kernel32:KERNEL32.dll
 0002:000001d8       __imp_LoadLibraryW         000000018008f1d8     kernel32:KERNEL32.dll
 0002:000001e0       __imp_GetSystemPowerStatus 000000018008f1e0     kernel32:KERNEL32.dll
 0002:000001e8       __imp_InitializeCriticalSectionAndSpinCount 000000018008f1e8     kernel32:KERNEL32.dll
 0002:000001f0       __imp_DeleteCriticalSection 000000018008f1f0     kernel32:KERNEL32.dll
 0002:000001f8       __imp_EnterCriticalSection 000000018008f1f8     kernel32:KERNEL32.dll
 0002:00000200       __imp_MulDiv               000000018008f200     kernel32:KERNEL32.dll
 0002:00000208       __imp_GetVersionExA        000000018008f208     kernel32:KERNEL32.dll
 0002:00000210       __imp_CompareStringA       000000018008f210     kernel32:KERNEL32.dll
 0002:00000218       __imp_GlobalAlloc          000000018008f218     kernel32:KERNEL32.dll
 0002:00000220       __imp_TryEnterCriticalSection 000000018008f220     kernel32:KERNEL32.dll
 0002:00000228       __imp_LeaveCriticalSection 000000018008f228     kernel32:KERNEL32.dll
 0002:00000230       __imp_CreateThread         000000018008f230     kernel32:KERNEL32.dll
 0002:00000238       __imp_GetCurrentThreadId   000000018008f238     kernel32:KERNEL32.dll
 0002:00000240       __imp_SetThreadPriority    000000018008f240     kernel32:KERNEL32.dll
 0002:00000248       __imp_GetCurrentThread     000000018008f248     kernel32:KERNEL32.dll
 0002:00000250       __imp_TlsGetValue          000000018008f250     kernel32:KERNEL32.dll
 0002:00000258       __imp_TlsAlloc             000000018008f258     kernel32:KERNEL32.dll
 0002:00000260       __imp_TlsSetValue          000000018008f260     kernel32:KERNEL32.dll
 0002:00000268       __imp_QueryPerformanceCounter 000000018008f268     kernel32:KERNEL32.dll
 0002:00000270       __imp_QueryPerformanceFrequency 000000018008f270     kernel32:KERNEL32.dll
 0002:00000278       __imp_Sleep                000000018008f278     kernel32:KERNEL32.dll
 0002:00000280       __imp_GlobalUnlock         000000018008f280     kernel32:KERNEL32.dll
 0002:00000288       __imp_GlobalLock           000000018008f288     kernel32:KERNEL32.dll
 0002:00000290       __imp_GetSystemTimeAsFileTime 000000018008f290     kernel32:KERNEL32.dll
 0002:00000298       __imp_GetCurrentProcessId  000000018008f298     kernel32:KERNEL32.dll
 0002:000002a0       __imp_WaitForSingleObject  000000018008f2a0     kernel32:KERNEL32.dll
 0002:000002a8       __imp_DisableThreadLibraryCalls 000000018008f2a8     kernel32:KERNEL32.dll
 0002:000002b0       \177KERNEL32_NULL_THUNK_DATA 000000018008f2b0     kernel32:KERNEL32.dll
 0002:000002b8       __imp___clean_type_info_names_internal 000000018008f2b8     MSVCRT:MSVCR90.dll
 0002:000002c0       __imp__unlock              000000018008f2c0     MSVCRT:MSVCR90.dll
 0002:000002c8       __imp___dllonexit          000000018008f2c8     MSVCRT:MSVCR90.dll
 0002:000002d0       __imp__lock                000000018008f2d0     MSVCRT:MSVCR90.dll
 0002:000002d8       __imp__onexit              000000018008f2d8     MSVCRT:MSVCR90.dll
 0002:000002e0       __imp___CppXcptFilter      000000018008f2e0     MSVCRT:MSVCR90.dll
 0002:000002e8       __imp___C_specific_handler 000000018008f2e8     MSVCRT:MSVCR90.dll
 0002:000002f0       __imp__amsg_exit           000000018008f2f0     MSVCRT:MSVCR90.dll
 0002:000002f8       __imp_memcmp               000000018008f2f8     MSVCRT:MSVCR90.dll
 0002:00000300       __imp_sqrt                 000000018008f300     MSVCRT:MSVCR90.dll
 0002:00000308       __imp_sinf                 000000018008f308     MSVCRT:MSVCR90.dll
 0002:00000310       __imp__decode_pointer      000000018008f310     MSVCRT:MSVCR90.dll
 0002:00000318       __imp__encoded_null        000000018008f318     MSVCRT:MSVCR90.dll
 0002:00000320       __imp__initterm_e          000000018008f320     MSVCRT:MSVCR90.dll
 0002:00000328       __imp__initterm            000000018008f328     MSVCRT:MSVCR90.dll
 0002:00000330       __imp__malloc_crt          000000018008f330     MSVCRT:MSVCR90.dll
 0002:00000338       __imp__encode_pointer      000000018008f338     MSVCRT:MSVCR90.dll
 0002:00000340       __imp_memset               000000018008f340     MSVCRT:MSVCR90.dll
 0002:00000348       __imp__endthreadex         000000018008f348     MSVCRT:MSVCR90.dll
 0002:00000350       __imp__beginthreadex       000000018008f350     MSVCRT:MSVCR90.dll
 0002:00000358       __imp_memcpy               000000018008f358     MSVCRT:MSVCR90.dll
 0002:00000360       __imp_fprintf              000000018008f360     MSVCRT:MSVCR90.dll
 0002:00000368       __imp_fgets                000000018008f368     MSVCRT:MSVCR90.dll
 0002:00000370       __imp_fflush               000000018008f370     MSVCRT:MSVCR90.dll
 0002:00000378       __imp___iob_func           000000018008f378     MSVCRT:MSVCR90.dll
 0002:00000380       __imp_signal               000000018008f380     MSVCRT:MSVCR90.dll
 0002:00000388       __imp_fread                000000018008f388     MSVCRT:MSVCR90.dll
 0002:00000390       __imp_ferror               000000018008f390     MSVCRT:MSVCR90.dll
 0002:00000398       __imp_fwrite               000000018008f398     MSVCRT:MSVCR90.dll
 0002:000003a0       __imp_ftell                000000018008f3a0     MSVCRT:MSVCR90.dll
 0002:000003a8       __imp_fseek                000000018008f3a8     MSVCRT:MSVCR90.dll
 0002:000003b0       __imp_fclose               000000018008f3b0     MSVCRT:MSVCR90.dll
 0002:000003b8       __imp_sin                  000000018008f3b8     MSVCRT:MSVCR90.dll
 0002:000003c0       __imp_pow                  000000018008f3c0     MSVCRT:MSVCR90.dll
 0002:000003c8       __imp_log                  000000018008f3c8     MSVCRT:MSVCR90.dll
 0002:000003d0       __imp_floor                000000018008f3d0     MSVCRT:MSVCR90.dll
 0002:000003d8       __imp_cosf                 000000018008f3d8     MSVCRT:MSVCR90.dll
 0002:000003e0       __imp_cos                  000000018008f3e0     MSVCRT:MSVCR90.dll
 0002:000003e8       __imp_ceil                 000000018008f3e8     MSVCRT:MSVCR90.dll
 0002:000003f0       __imp_atan                 000000018008f3f0     MSVCRT:MSVCR90.dll
 0002:000003f8       __imp_atan2                000000018008f3f8     MSVCRT:MSVCR90.dll
 0002:00000400       __imp_free                 000000018008f400     MSVCRT:MSVCR90.dll
 0002:00000408       __imp_calloc               000000018008f408     MSVCRT:MSVCR90.dll
 0002:00000410       __imp_malloc               000000018008f410     MSVCRT:MSVCR90.dll
 0002:00000418       __imp_realloc              000000018008f418     MSVCRT:MSVCR90.dll
 0002:00000420       __imp_qsort                000000018008f420     MSVCRT:MSVCR90.dll
 0002:00000428       __imp_isspace              000000018008f428     MSVCRT:MSVCR90.dll
 0002:00000430       __imp_tolower              000000018008f430     MSVCRT:MSVCR90.dll
 0002:00000438       __imp_isdigit              000000018008f438     MSVCRT:MSVCR90.dll
 0002:00000440       __imp_toupper              000000018008f440     MSVCRT:MSVCR90.dll
 0002:00000448       __imp__stricmp             000000018008f448     MSVCRT:MSVCR90.dll
 0002:00000450       __imp_strtod               000000018008f450     MSVCRT:MSVCR90.dll
 0002:00000458       __imp__strnicmp            000000018008f458     MSVCRT:MSVCR90.dll
 0002:00000460       __imp_memmove              000000018008f460     MSVCRT:MSVCR90.dll
 0002:00000468       __imp_strncmp              000000018008f468     MSVCRT:MSVCR90.dll
 0002:00000470       __imp__strlwr              000000018008f470     MSVCRT:MSVCR90.dll
 0002:00000478       __imp__strrev              000000018008f478     MSVCRT:MSVCR90.dll
 0002:00000480       __imp_strstr               000000018008f480     MSVCRT:MSVCR90.dll
 0002:00000488       __imp_strchr               000000018008f488     MSVCRT:MSVCR90.dll
 0002:00000490       __imp_atoi                 000000018008f490     MSVCRT:MSVCR90.dll
 0002:00000498       __imp__strupr              000000018008f498     MSVCRT:MSVCR90.dll
 0002:000004a0       __imp_strtol               000000018008f4a0     MSVCRT:MSVCR90.dll
 0002:000004a8       __imp__ultoa               000000018008f4a8     MSVCRT:MSVCR90.dll
 0002:000004b0       __imp_strrchr              000000018008f4b0     MSVCRT:MSVCR90.dll
 0002:000004b8       __imp_strtoul              000000018008f4b8     MSVCRT:MSVCR90.dll
 0002:000004c0       __imp_atof                 000000018008f4c0     MSVCRT:MSVCR90.dll
 0002:000004c8       __imp__ltoa                000000018008f4c8     MSVCRT:MSVCR90.dll
 0002:000004d0       \177MSVCR90_NULL_THUNK_DATA 000000018008f4d0     MSVCRT:MSVCR90.dll
 0002:000004d8       __imp_SysFreeString        000000018008f4d8     oleaut32:OLEAUT32.dll
 0002:000004e0       \177OLEAUT32_NULL_THUNK_DATA 000000018008f4e0     oleaut32:OLEAUT32.dll
 0002:000004e8       __imp_SHGetFolderPathW     000000018008f4e8     shell32:SHELL32.dll
 0002:000004f0       __imp_DragQueryFileW       000000018008f4f0     shell32:SHELL32.dll
 0002:000004f8       __imp_DragAcceptFiles      000000018008f4f8     shell32:SHELL32.dll
 0002:00000500       __imp_DragFinish           000000018008f500     shell32:SHELL32.dll
 0002:00000508       \177SHELL32_NULL_THUNK_DATA 000000018008f508     shell32:SHELL32.dll
 0002:00000510       __imp_DispatchMessageW     000000018008f510     user32:USER32.dll
 0002:00000518       __imp_TranslateMessage     000000018008f518     user32:USER32.dll
 0002:00000520       __imp_GetMessageW          000000018008f520     user32:USER32.dll
 0002:00000528       __imp_PeekMessageW         000000018008f528     user32:USER32.dll
 0002:00000530       __imp_RegisterDeviceNotificationW 000000018008f530     user32:USER32.dll
 0002:00000538       __imp_CreateWindowExW      000000018008f538     user32:USER32.dll
 0002:00000540       __imp_UnregisterDeviceNotification 000000018008f540     user32:USER32.dll
 0002:00000548       __imp_CloseClipboard       000000018008f548     user32:USER32.dll
 0002:00000550       __imp_GetClipboardSequenceNumber 000000018008f550     user32:USER32.dll
 0002:00000558       __imp_SetClipboardData     000000018008f558     user32:USER32.dll
 0002:00000560       __imp_GetRawInputDeviceInfoA 000000018008f560     user32:USER32.dll
 0002:00000568       __imp_OpenClipboard        000000018008f568     user32:USER32.dll
 0002:00000570       __imp_GetClipboardData     000000018008f570     user32:USER32.dll
 0002:00000578       __imp_DestroyWindow        000000018008f578     user32:USER32.dll
 0002:00000580       __imp_UnregisterClassW     000000018008f580     user32:USER32.dll
 0002:00000588       __imp_DefWindowProcW       000000018008f588     user32:USER32.dll
 0002:00000590       __imp_RegisterClassExW     000000018008f590     user32:USER32.dll
 0002:00000598       __imp_GetRawInputDeviceList 000000018008f598     user32:USER32.dll
 0002:000005a0       __imp_TrackMouseEvent      000000018008f5a0     user32:USER32.dll
 0002:000005a8       __imp_SetWindowLongW       000000018008f5a8     user32:USER32.dll
 0002:000005b0       __imp_ShowWindow           000000018008f5b0     user32:USER32.dll
 0002:000005b8       __imp_CreateIconFromResource 000000018008f5b8     user32:USER32.dll
 0002:000005c0       __imp_IsClipboardFormatAvailable 000000018008f5c0     user32:USER32.dll
 0002:000005c8       __imp_CallWindowProcW      000000018008f5c8     user32:USER32.dll
 0002:000005d0       __imp_ScreenToClient       000000018008f5d0     user32:USER32.dll
 0002:000005d8       __imp_GetCursorPos         000000018008f5d8     user32:USER32.dll
 0002:000005e0       __imp_EmptyClipboard       000000018008f5e0     user32:USER32.dll
 0002:000005e8       __imp_EnumDisplaySettingsW 000000018008f5e8     user32:USER32.dll
 0002:000005f0       __imp_SendMessageW         000000018008f5f0     user32:USER32.dll
 0002:000005f8       __imp_SetWindowTextW       000000018008f5f8     user32:USER32.dll
 0002:00000600       __imp_GetWindowTextLengthW 000000018008f600     user32:USER32.dll
 0002:00000608       __imp_GetWindowTextW       000000018008f608     user32:USER32.dll
 0002:00000610       __imp_SetPropW             000000018008f610     user32:USER32.dll
 0002:00000618       __imp_GetWindowLongPtrW    000000018008f618     user32:USER32.dll
 0002:00000620       __imp_SetWindowLongPtrW    000000018008f620     user32:USER32.dll
 0002:00000628       __imp_GetFocus             000000018008f628     user32:USER32.dll
 0002:00000630       __imp_SetWindowPos         000000018008f630     user32:USER32.dll
 0002:00000638       __imp_SetWindowRgn         000000018008f638     user32:USER32.dll
 0002:00000640       __imp_GetActiveWindow      000000018008f640     user32:USER32.dll
 0002:00000648       __imp_RegisterRawInputDevices 000000018008f648     user32:USER32.dll
 0002:00000650       __imp_SetCursorPos         000000018008f650     user32:USER32.dll
 0002:00000658       __imp_CreateIconIndirect   000000018008f658     user32:USER32.dll
 0002:00000660       __imp_DestroyIcon          000000018008f660     user32:USER32.dll
 0002:00000668       __imp_LoadCursorW          000000018008f668     user32:USER32.dll
 0002:00000670       __imp_ChangeDisplaySettingsExW 000000018008f670     user32:USER32.dll
 0002:00000678       __imp_EnumDisplayDevicesW  000000018008f678     user32:USER32.dll
 0002:00000680       __imp_GetDesktopWindow     000000018008f680     user32:USER32.dll
 0002:00000688       __imp_SystemParametersInfoW 000000018008f688     user32:USER32.dll
 0002:00000690       __imp_DrawTextW            000000018008f690     user32:USER32.dll
 0002:00000698       __imp_DialogBoxIndirectParamW 000000018008f698     user32:USER32.dll
 0002:000006a0       __imp_SystemParametersInfoA 000000018008f6a0     user32:USER32.dll
 0002:000006a8       __imp_GetDC                000000018008f6a8     user32:USER32.dll
 0002:000006b0       __imp_ReleaseDC            000000018008f6b0     user32:USER32.dll
 0002:000006b8       __imp_EndDialog            000000018008f6b8     user32:USER32.dll
 0002:000006c0       __imp_GetKeyboardLayout    000000018008f6c0     user32:USER32.dll
 0002:000006c8       __imp_MapVirtualKeyW       000000018008f6c8     user32:USER32.dll
 0002:000006d0       __imp_GetClassInfoW        000000018008f6d0     user32:USER32.dll
 0002:000006d8       __imp_LoadImageW           000000018008f6d8     user32:USER32.dll
 0002:000006e0       __imp_RegisterClassW       000000018008f6e0     user32:USER32.dll
 0002:000006e8       __imp_GetKeyState          000000018008f6e8     user32:USER32.dll
 0002:000006f0       __imp_GetPropW             000000018008f6f0     user32:USER32.dll
 0002:000006f8       __imp_SetCursor            000000018008f6f8     user32:USER32.dll
 0002:00000700       __imp_GetUpdateRect        000000018008f700     user32:USER32.dll
 0002:00000708       __imp_ValidateRect         000000018008f708     user32:USER32.dll
 0002:00000710       __imp_IsZoomed             000000018008f710     user32:USER32.dll
 0002:00000718       __imp_GetAsyncKeyState     000000018008f718     user32:USER32.dll
 0002:00000720       __imp_GetWindowRect        000000018008f720     user32:USER32.dll
 0002:00000728       __imp_ClipCursor           000000018008f728     user32:USER32.dll
 0002:00000730       __imp_GetWindowLongW       000000018008f730     user32:USER32.dll
 0002:00000738       __imp_GetMenu              000000018008f738     user32:USER32.dll
 0002:00000740       __imp_AdjustWindowRectEx   000000018008f740     user32:USER32.dll
 0002:00000748       __imp_GetRawInputData      000000018008f748     user32:USER32.dll
 0002:00000750       __imp_GetClientRect        000000018008f750     user32:USER32.dll
 0002:00000758       __imp_ClientToScreen       000000018008f758     user32:USER32.dll
 0002:00000760       __imp_GetKeyboardState     000000018008f760     user32:USER32.dll
 0002:00000768       __imp_ToUnicode            000000018008f768     user32:USER32.dll
 0002:00000770       \177USER32_NULL_THUNK_DATA 000000018008f770     user32:USER32.dll
 0002:00000778       __imp_GetFileVersionInfoSizeA 000000018008f778     Version:VERSION.dll
 0002:00000780       __imp_GetFileVersionInfoA  000000018008f780     Version:VERSION.dll
 0002:00000788       __imp_VerQueryValueA       000000018008f788     Version:VERSION.dll
 0002:00000790       \177VERSION_NULL_THUNK_DATA 000000018008f790     Version:VERSION.dll
 0002:00000798       __imp_waveOutGetDevCapsW   000000018008f798     winmm:WINMM.dll
 0002:000007a0       __imp_waveOutGetNumDevs    000000018008f7a0     winmm:WINMM.dll
 0002:000007a8       __imp_waveInGetDevCapsW    000000018008f7a8     winmm:WINMM.dll
 0002:000007b0       __imp_waveInGetNumDevs     000000018008f7b0     winmm:WINMM.dll
 0002:000007b8       __imp_waveOutGetErrorTextW 000000018008f7b8     winmm:WINMM.dll
 0002:000007c0       __imp_waveOutWrite         000000018008f7c0     winmm:WINMM.dll
 0002:000007c8       __imp_waveOutClose         000000018008f7c8     winmm:WINMM.dll
 0002:000007d0       __imp_waveInClose          000000018008f7d0     winmm:WINMM.dll
 0002:000007d8       __imp_waveOutUnprepareHeader 000000018008f7d8     winmm:WINMM.dll
 0002:000007e0       __imp_waveOutOpen          000000018008f7e0     winmm:WINMM.dll
 0002:000007e8       __imp_waveInOpen           000000018008f7e8     winmm:WINMM.dll
 0002:000007f0       __imp_waveOutPrepareHeader 000000018008f7f0     winmm:WINMM.dll
 0002:000007f8       __imp_timeBeginPeriod      000000018008f7f8     winmm:WINMM.dll
 0002:00000800       __imp_timeEndPeriod        000000018008f800     winmm:WINMM.dll
 0002:00000808       __imp_timeGetTime          000000018008f808     winmm:WINMM.dll
 0002:00000810       \177WINMM_NULL_THUNK_DATA  000000018008f810     winmm:WINMM.dll
 0002:00000818       __imp_CoInitialize         000000018008f818     ole32:ole32.dll
 0002:00000820       __imp_CoUninitialize       000000018008f820     ole32:ole32.dll
 0002:00000828       __imp_CoCreateInstance     000000018008f828     ole32:ole32.dll
 0002:00000830       \177ole32_NULL_THUNK_DATA  000000018008f830     ole32:ole32.dll
 0002:00000838       __xc_a                     000000018008f838     MSVCRT:cinitexe.obj
 0002:00000840       __xc_z                     000000018008f840     MSVCRT:cinitexe.obj
 0002:00000848       __xi_a                     000000018008f848     MSVCRT:cinitexe.obj
 0002:00000858       __xi_z                     000000018008f858     MSVCRT:cinitexe.obj
 0002:00000860       ??_C@_0BH@JLDIBOEB@SDL?5dummy?5audio?5driver?$AA@ 000000018008f860     SDL_dummyaudio.obj
 0002:00000878       ??_C@_05JLNEMJLN@dummy?$AA@ 000000018008f878     SDL_dummyaudio.obj
 0002:00000880       ??_C@_0BH@GKJPCENE@Windows?5Waveform?5Audio?$AA@ 000000018008f880     SDL_winmm.obj
 0002:00000898       ??_C@_05IHJNLLLA@winmm?$AA@ 000000018008f898     SDL_winmm.obj
 0002:000008a0       ??_C@_04PFAOODAA@?$CFs?3?5?$AA@ 000000018008f8a0     SDL_winmm.obj
 0002:000008a8       ??_C@_0BH@BBOCBLHN@waveOutPrepareHeader?$CI?$CJ?$AA@ 000000018008f8a8     SDL_winmm.obj
 0002:000008c0       ??_C@_0BK@OJANNCMP@Couldn?8t?5create?5semaphore?$AA@ 000000018008f8c0     SDL_winmm.obj
 0002:000008e0       ??_C@_0O@CELKDPDK@waveOutOpen?$CI?$CJ?$AA@ 000000018008f8e0     SDL_winmm.obj
 0002:000008f0       ??_C@_0BL@OFHOFDGG@Requested?5device?5not?5found?$AA@ 000000018008f8f0     SDL_winmm.obj
 0002:00000910       ??_C@_07CBOKJLDC@XAudio2?$AA@ 000000018008f910     SDL_xaudio2.obj
 0002:00000918       ??_C@_07BHCBMAPI@xaudio2?$AA@ 000000018008f918     SDL_xaudio2.obj
 0002:00000920       CLSID_XAudio2              000000018008f920     SDL_xaudio2.obj
 0002:00000930       CLSID_XAudio2_Debug        000000018008f930     SDL_xaudio2.obj
 0002:00000940       IID_IXAudio2               000000018008f940     SDL_xaudio2.obj
 0002:00000950       ??_C@_0CM@JNBFMGBO@XAudio2?3?5IXAudio2?3?3GetDeviceCoun@ 000000018008f950     SDL_xaudio2.obj
 0002:00000980       ??_C@_0CO@ELNBNNFO@XAudio2?3?5XAudio2Create?$CI?$CJ?5failed?5@ 000000018008f980     SDL_xaudio2.obj
 0002:000009b0       ??_C@_0CG@BNIJJBF@XAudio2?3?5capture?5devices?5unsuppo@ 000000018008f9b0     SDL_xaudio2.obj
 0002:000009d8       ??_C@_0CF@JLGFHOBF@XAudio2?3?5Couldn?8t?5start?5source?5v@ 000000018008f9d8     SDL_xaudio2.obj
 0002:00000a00       ??_C@_0BP@OCHMIPBL@XAudio2?3?5Couldn?8t?5start?5engine?$AA@ 000000018008fa00     SDL_xaudio2.obj
 0002:00000a20       ??_C@_0CG@FOKNDGEM@XAudio2?3?5Couldn?8t?5create?5source?5@ 000000018008fa20     SDL_xaudio2.obj
 0002:00000a48       ??_C@_0CJ@DJKFDENO@XAudio2?3?5Couldn?8t?5create?5masteri@ 000000018008fa48     SDL_xaudio2.obj
 0002:00000a78       ??_C@_0CC@KNNHBGPH@XAudio2?3?5Unsupported?5audio?5forma@ 000000018008fa78     SDL_xaudio2.obj
 0002:00000aa0       ??_C@_0CD@DNEBDLGK@XAudio2?3?5CreateSemaphore?$CI?$CJ?5faile@ 000000018008faa0     SDL_xaudio2.obj
 0002:00000ac8       ??_C@_0CF@HIAGHDDL@XAudio2?3?5Requested?5device?5not?5fo@ 000000018008fac8     SDL_xaudio2.obj
 0002:00000af0       ??_C@_0CL@EDNIGOKA@XAudio2?3?5IXAudio2_GetDeviceCount@ 000000018008faf0     SDL_xaudio2.obj
 0002:00000b20       ??_C@_0CJ@DCAHGNEB@XAudio2?3?5XAudio2Create?$CI?$CJ?5failed?5@ 000000018008fb20     SDL_xaudio2.obj
 0002:00000b50       ??_C@_0DC@DAMIPGFE@XAudio2?3?5XAudio2Create?$CI?$CJ?5failed?5@ 000000018008fb50     SDL_xaudio2.obj
 0002:00000b88       ??_C@_0BP@NMMCGJNC@XAudio2?3?5CoInitialize?$CI?$CJ?5failed?$AA@ 000000018008fb88     SDL_xaudio2.obj
 0002:00000ba8       ??_C@_06DIJPEION@?$CFs?$CFs?$CFs?$AA@ 000000018008fba8     SDL_windows.obj
 0002:00000bb0       ??_C@_02LMMGGCAJ@?3?5?$AA@ 000000018008fbb0     SDL_windows.obj
 0002:00000bb8       ??_C@_0BJ@JHJFIDKK@Couldn?8t?5locate?5our?5?4exe?$AA@ 000000018008fbb8     SDL_sysfilesystem.obj
 0002:00000bd8       ??_C@_09EECDJGEH@?$CFs?2?$CFs?2?$CFs?2?$AA@ 000000018008fbd8     SDL_sysfilesystem.obj
 0002:00000be8       ??_C@_0BN@GLBPFIPM@Couldn?8t?5locate?5our?5prefpath?$AA@ 000000018008fbe8     SDL_sysfilesystem.obj
 0002:00000c08       ??_C@_0BA@HFDONPBH@Haptic?5error?5?$CFs?$AA@ 000000018008fc08     SDL_syshaptic.obj
 0002:00000c18       ??_C@_0DF@OBBOHBHK@Haptic?3?5Internal?5error?5on?5findin@ 000000018008fc18     SDL_syshaptic.obj
 0002:00000c50       ??_C@_0BO@DIPJPIHH@Enumerating?5supported?5effects?$AA@ 000000018008fc50     SDL_syshaptic.obj
 0002:00000c70       ??_C@_0BD@NLGLKAMF@Enabling?5actuators?$AA@ 000000018008fc70     SDL_syshaptic.obj
 0002:00000c88       ??_C@_0BB@MJNJGMLC@Resetting?5device?$AA@ 000000018008fc88     SDL_syshaptic.obj
 0002:00000ca0       ??_C@_0BN@KPNHDECB@Acquiring?5DirectInput?5device?$AA@ 000000018008fca0     SDL_syshaptic.obj
 0002:00000cc0       ??_C@_0BE@HECEPECB@Getting?5device?5axes?$AA@ 000000018008fcc0     SDL_syshaptic.obj
 0002:00000cd8       ??_C@_0BE@LFMAKGDE@Setting?5data?5format?$AA@ 000000018008fcd8     SDL_syshaptic.obj
 0002:00000cf0       ??_C@_0CH@CGNPPJHJ@Setting?5cooperative?5level?5to?5exc@ 000000018008fcf0     SDL_syshaptic.obj
 0002:00000d18       ??_C@_0CA@HKGKHKL@Haptic?3?5Unknown?5direction?5type?4?$AA@ 000000018008fd18     SDL_syshaptic.obj
 0002:00000d38       ??_C@_0BN@MEGCJADB@Haptic?3?5Unknown?5effect?5type?4?$AA@ 000000018008fd38     SDL_syshaptic.obj
 0002:00000d58       ??_C@_0BI@GLDPHDLK@Unable?5to?5update?5effect?$AA@ 000000018008fd58     SDL_syshaptic.obj
 0002:00000d70       ??_C@_0BD@GOAAEJJJ@Running?5the?5effect?$AA@ 000000018008fd70     SDL_syshaptic.obj
 0002:00000d88       ??_C@_0BG@DMHHBCEP@Unable?5to?5stop?5effect?$AA@ 000000018008fd88     SDL_syshaptic.obj
 0002:00000da0       ??_C@_0CA@OGBNMFGN@Removing?5effect?5from?5the?5device?$AA@ 000000018008fda0     SDL_syshaptic.obj
 0002:00000dc0       ??_C@_0BG@BCMPKABI@Getting?5effect?5status?$AA@ 000000018008fdc0     SDL_syshaptic.obj
 0002:00000dd8       ??_C@_0N@CNIPICNP@Setting?5gain?$AA@ 000000018008fdd8     SDL_syshaptic.obj
 0002:00000de8       ??_C@_0BD@IJBJFEHG@Setting?5autocenter?$AA@ 000000018008fde8     SDL_syshaptic.obj
 0002:00000e00       ??_C@_0BD@CLAFEHOG@Pausing?5the?5device?$AA@ 000000018008fe00     SDL_syshaptic.obj
 0002:00000e18       ??_C@_0BE@IPOIGCPM@Stopping?5the?5device?$AA@ 000000018008fe18     SDL_syshaptic.obj
 0002:00000e30       ??_C@_0BG@EJANGHHD@XInput?5Controller?5?$CD?$CFu?$AA@ 000000018008fe30     SDL_syshaptic.obj
 0002:00000e48       ??_C@_0CA@FDLBMNIL@Enumerating?5DirectInput?5devices?$AA@ 000000018008fe48     SDL_syshaptic.obj
 0002:00000e68       ??_C@_0CA@IAEMDCKI@Initializing?5DirectInput?5device?$AA@ 000000018008fe68     SDL_syshaptic.obj
 0002:00000e88       ??_C@_0CN@IHIHLPGF@GetModuleHandle?$CI?$CJ?5failed?5with?5er@ 000000018008fe88     SDL_syshaptic.obj
 0002:00000eb8       ??_C@_0BB@FBCNKNOO@CoCreateInstance?$AA@ 000000018008feb8     SDL_syshaptic.obj
 0002:00000ed0       ??_C@_0N@BAOBAGOC@Coinitialize?$AA@ 000000018008fed0     SDL_syshaptic.obj
 0002:00000ee0       ??_C@_0CA@OOHOCMID@Haptic?3?5SubSystem?5already?5open?4?$AA@ 000000018008fee0     SDL_syshaptic.obj
 0002:00000f00       ??_C@_0BD@IGMJGOIE@SDL_XINPUT_ENABLED?$AA@ 000000018008ff00     SDL_syshaptic.obj
 0002:00000f18       ??_C@_0BP@CEGFPCDM@Querying?5DirectInput?5interface?$AA@ 000000018008ff18     SDL_syshaptic.obj
 0002:00000f38       ??_C@_0BM@ICAKHFOB@Creating?5DirectInput?5device?$AA@ 000000018008ff38     SDL_syshaptic.obj
 0002:00000f58       ??_C@_0CF@NJPNFGFE@Couldn?8t?5create?5XInput?5haptic?5th@ 000000018008ff58     SDL_syshaptic.obj
 0002:00000f80       ??_C@_0P@CINKNAAE@SDLXInputDev?$CFd?$AA@ 000000018008ff80     SDL_syshaptic.obj
 0002:00000f90       ??_C@_0CE@GDBBNLAM@Couldn?8t?5create?5XInput?5haptic?5mu@ 000000018008ff90     SDL_syshaptic.obj
 0002:00000fb8       ??_C@_0BI@OLGPNEE@Unable?5to?5create?5effect?$AA@ 000000018008ffb8     SDL_syshaptic.obj
 0002:00000fd0       CLSID_DirectInput8         000000018008ffd0     SDL_dxjoystick.obj
 0002:00000fe0       IID_IDirectInput8W         000000018008ffe0     SDL_dxjoystick.obj
 0002:00000ff0       IID_IDirectInputDevice8W   000000018008fff0     SDL_dxjoystick.obj
 0002:00001000       GUID_XAxis                 0000000180090000     SDL_dxjoystick.obj
 0002:00001010       GUID_YAxis                 0000000180090010     SDL_dxjoystick.obj
 0002:00001020       GUID_ZAxis                 0000000180090020     SDL_dxjoystick.obj
 0002:00001030       GUID_RxAxis                0000000180090030     SDL_dxjoystick.obj
 0002:00001040       GUID_RyAxis                0000000180090040     SDL_dxjoystick.obj
 0002:00001050       GUID_RzAxis                0000000180090050     SDL_dxjoystick.obj
 0002:00001060       GUID_Slider                0000000180090060     SDL_dxjoystick.obj
 0002:00001070       GUID_POV                   0000000180090070     SDL_dxjoystick.obj
 0002:00001080       GUID_ConstantForce         0000000180090080     SDL_dxjoystick.obj
 0002:00001090       GUID_RampForce             0000000180090090     SDL_dxjoystick.obj
 0002:000010a0       GUID_Sine                  00000001800900a0     SDL_dxjoystick.obj
 0002:000010b0       GUID_Triangle              00000001800900b0     SDL_dxjoystick.obj
 0002:000010c0       GUID_SawtoothUp            00000001800900c0     SDL_dxjoystick.obj
 0002:000010d0       GUID_SawtoothDown          00000001800900d0     SDL_dxjoystick.obj
 0002:000010e0       GUID_Spring                00000001800900e0     SDL_dxjoystick.obj
 0002:000010f0       GUID_Damper                00000001800900f0     SDL_dxjoystick.obj
 0002:00001100       GUID_Inertia               0000000180090100     SDL_dxjoystick.obj
 0002:00001110       GUID_Friction              0000000180090110     SDL_dxjoystick.obj
 0002:00001120       GUID_CustomForce           0000000180090120     SDL_dxjoystick.obj
 0002:00001130       GUID_DEVINTERFACE_HID      0000000180090130     SDL_dxjoystick.obj
 0002:00001140       c_dfDIJoystick2            0000000180090140     SDL_dxjoystick.obj
 0002:00001160       IID_ValveStreamingGamepad  0000000180090160     SDL_dxjoystick.obj
 0002:00001170       IID_X360WiredGamepad       0000000180090170     SDL_dxjoystick.obj
 0002:00001180       IID_X360WirelessGamepad    0000000180090180     SDL_dxjoystick.obj
 0002:00001190       ??_C@_0BG@PGNDGGHJ@?$CFs?$CI?$CJ?5DirectX?5error?5?$CFd?$AA@ 0000000180090190     SDL_dxjoystick.obj
 0002:000011a8       ??_C@_03HAFBONIK@IG_?$AA@  00000001800901a8     SDL_dxjoystick.obj
 0002:000011b0       ??_C@_0DI@EMNBJMJJ@Failed?5to?5create?5notify?5device?5f@ 00000001800901b0     SDL_dxjoystick.obj
 0002:000011e8       ??_C@_0DJ@EBHOBMGJ@Failed?5to?5create?5message?5window?5@ 00000001800901e8     SDL_dxjoystick.obj
 0002:00001228       ??_C@_0DJ@IJFBKGMA@Failed?5to?5create?5register?5class?5@ 0000000180090228     SDL_dxjoystick.obj
 0002:00001268       ??_C@_1BA@HHOMBECE@?$AAM?$AAe?$AAs?$AAs?$AAa?$AAg?$AAe?$AA?$AA@ 0000000180090268     SDL_dxjoystick.obj
 0002:00001278       ??_C@_0BG@ELBNFOBA@XInputGetCapabilities?$AA@ 0000000180090278     SDL_dxjoystick.obj
 0002:00001290       ??_C@_0P@KDAIIEFP@XInputSetState?$AA@ 0000000180090290     SDL_dxjoystick.obj
 0002:000012a0       ??_C@_1CE@DAJCKNBI@?$AAb?$AAi?$AAn?$AA?2?$AAX?$AAI?$AAn?$AAp?$AAu?$AAt?$AA1?$AA_?$AA3?$AA?4?$AAd?$AAl?$AAl?$AA?$AA@ 00000001800902a0     SDL_dxjoystick.obj
 0002:000012c8       ??_C@_1BM@EDNBBGDO@?$AAX?$AAI?$AAn?$AAp?$AAu?$AAt?$AA1?$AA_?$AA3?$AA?4?$AAd?$AAl?$AAl?$AA?$AA@ 00000001800902c8     SDL_dxjoystick.obj
 0002:000012e8       ??_C@_1BM@DHEJPPLB@?$AAX?$AAI?$AAn?$AAp?$AAu?$AAt?$AA1?$AA_?$AA4?$AA?4?$AAd?$AAl?$AAl?$AA?$AA@ 00000001800902e8     SDL_dxjoystick.obj
 0002:00001308       ??_C@_0N@FBMHFCIJ@SDL_joystick?$AA@ 0000000180090308     SDL_dxjoystick.obj
 0002:00001318       ??_C@_0BJ@FLKLDKAH@IDirectInput?3?3Initialize?$AA@ 0000000180090318     SDL_dxjoystick.obj
 0002:00001338       ??_C@_0N@JGHNIJDF@CoInitialize?$AA@ 0000000180090338     SDL_dxjoystick.obj
 0002:00001348       ??_C@_0CB@KPCBBHIA@IDirectInputDevice8?3?3SetProperty@ 0000000180090348     SDL_dxjoystick.obj
 0002:00001370       ??_C@_0BP@FAFKDEAH@IDirectInputDevice8?3?3Unacquire?$AA@ 0000000180090370     SDL_dxjoystick.obj
 0002:00001390       ??_C@_0BN@LHLPHABN@IDirectInputDevice8?3?3Acquire?$AA@ 0000000180090390     SDL_dxjoystick.obj
 0002:000013b0       ??_C@_0CF@JJNMLIHA@IDirectInputDevice8?3?3GetCapabili@ 00000001800903b0     SDL_dxjoystick.obj
 0002:000013d8       ??_C@_0CD@OHACMINP@IDirectInputDevice8?3?3SetDataForm@ 00000001800903d8     SDL_dxjoystick.obj
 0002:00001400       ??_C@_0CJ@ONAFIIOJ@IDirectInputDevice8?3?3SetCooperat@ 0000000180090400     SDL_dxjoystick.obj
 0002:00001430       ??_C@_0CE@JBAFPFE@IDirectInputDevice8?3?3QueryInterf@ 0000000180090430     SDL_dxjoystick.obj
 0002:00001458       ??_C@_0BL@POPFKOJA@IDirectInput?3?3CreateDevice?$AA@ 0000000180090458     SDL_dxjoystick.obj
 0002:00001480       ??_C@_0EC@CBEGEJNB@Failed?5to?5obtain?5XInput?5device?5c@ 0000000180090480     SDL_dxjoystick.obj
 0002:000014c8       ??_C@_0BA@KGPCPNLA@Failed?5loading?5?$AA@ 00000001800904c8     SDL_sysloadso.obj
 0002:000014d8       ??_C@_08OJGABALO@direct3d?$AA@ 00000001800904d8     SDL_render_d3d.obj
 0002:000014e8       ??_C@_0N@KBHOOAEG@NOTAVAILABLE?$AA@ 00000001800904e8     SDL_render_d3d.obj
 0002:000014f8       ??_C@_0O@FIGMNLIE@INVALIDDEVICE?$AA@ 00000001800904f8     SDL_render_d3d.obj
 0002:00001508       ??_C@_0M@PCOCKBEN@INVALIDCALL?$AA@ 0000000180090508     SDL_render_d3d.obj
 0002:00001518       ??_C@_0BC@DCIILAAF@DRIVERINVALIDCALL?$AA@ 0000000180090518     SDL_render_d3d.obj
 0002:00001530       ??_C@_07NFANNNEC@UNKNOWN?$AA@ 0000000180090530     SDL_render_d3d.obj
 0002:00001538       ??_C@_0P@PDBGBNP@DEVICENOTRESET?$AA@ 0000000180090538     SDL_render_d3d.obj
 0002:00001548       ??_C@_0BK@CCHIJEEG@CONFLICTINGTEXTUREPALETTE?$AA@ 0000000180090548     SDL_render_d3d.obj
 0002:00001568       ??_C@_0BE@OJGIEDB@DRIVERINTERNALERROR?$AA@ 0000000180090568     SDL_render_d3d.obj
 0002:00001580       ??_C@_08DJOBNNJD@NOTFOUND?$AA@ 0000000180090580     SDL_render_d3d.obj
 0002:00001590       ??_C@_08CBEFIFPI@MOREDATA?$AA@ 0000000180090590     SDL_render_d3d.obj
 0002:000015a0       ??_C@_0L@HJMPAIAB@DEVICELOST?$AA@ 00000001800905a0     SDL_render_d3d.obj
 0002:000015b0       ??_C@_0BJ@ELJJPGHB@UNSUPPORTEDTEXTUREFILTER?$AA@ 00000001800905b0     SDL_render_d3d.obj
 0002:000015d0       ??_C@_0BE@MBMMPGHN@UNSUPPORTEDALPHAARG?$AA@ 00000001800905d0     SDL_render_d3d.obj
 0002:000015e8       ??_C@_0BC@EHAPNPON@TOOMANYOPERATIONS?$AA@ 00000001800905e8     SDL_render_d3d.obj
 0002:00001600       ??_C@_0BJ@DHHCDPAL@CONFLICTINGTEXTUREFILTER?$AA@ 0000000180090600     SDL_render_d3d.obj
 0002:00001620       ??_C@_0BH@NEKKIPCN@UNSUPPORTEDFACTORVALUE?$AA@ 0000000180090620     SDL_render_d3d.obj
 0002:00001638       ??_C@_0BH@FGAAPKGF@CONFLICTINGRENDERSTATE?$AA@ 0000000180090638     SDL_render_d3d.obj
 0002:00001650       ??_C@_0BK@OANJPOPO@UNSUPPORTEDALPHAOPERATION?$AA@ 0000000180090650     SDL_render_d3d.obj
 0002:00001670       ??_C@_0BB@IBMCGPFC@OUTOFVIDEOMEMORY?$AA@ 0000000180090670     SDL_render_d3d.obj
 0002:00001688       ??_C@_0BA@OABMFANH@WASSTILLDRAWING?$AA@ 0000000180090688     SDL_render_d3d.obj
 0002:00001698       ??_C@_0BD@DHLNJIBM@WRONGTEXTUREFORMAT?$AA@ 0000000180090698     SDL_render_d3d.obj
 0002:000016b0       ??_C@_0BK@FJAPDONA@UNSUPPORTEDCOLOROPERATION?$AA@ 00000001800906b0     SDL_render_d3d.obj
 0002:000016d0       ??_C@_0BE@PLIOPCEI@UNSUPPORTEDCOLORARG?$AA@ 00000001800906d0     SDL_render_d3d.obj
 0002:000016e8       ??_C@_07NHJEPDMH@nearest?$AA@ 00000001800906e8     SDL_render_d3d.obj
 0002:000016f0       ??_C@_0BJ@IKKFCKKE@SDL_RENDER_SCALE_QUALITY?$AA@ 00000001800906f0     SDL_render_d3d.obj
 0002:00001710       ??_C@_0BA@HIMDGK@CreateTexture?$CI?$CJ?$AA@ 0000000180090710     SDL_render_d3d.obj
 0002:00001720       ??_C@_0L@CEANEPNI@LockRect?$CI?$CJ?$AA@ 0000000180090720     SDL_render_d3d.obj
 0002:0000172c       __real@bf800000            000000018009072c     SDL_render_d3d.obj
 0002:00001730       __real@c0000000            0000000180090730     SDL_render_d3d.obj
 0002:00001734       __real@40000000            0000000180090734     SDL_render_d3d.obj
 0002:00001738       ??_C@_0N@LKNCFGPA@SetScissor?$CI?$CJ?$AA@ 0000000180090738     SDL_render_d3d.obj
 0002:00001748       ??_C@_0BG@EEMBJHPM@GetRenderTargetData?$CI?$CJ?$AA@ 0000000180090748     SDL_render_d3d.obj
 0002:00001760       ??_C@_0BO@GNHHPPBF@CreateOffscreenPlainSurface?$CI?$CJ?$AA@ 0000000180090760     SDL_render_d3d.obj
 0002:00001780       ??_C@_09FDHJFFBD@GetDesc?$CI?$CJ?$AA@ 0000000180090780     SDL_render_d3d.obj
 0002:00001790       ??_C@_0BA@MENEPFO@GetBackBuffer?$CI?$CJ?$AA@ 0000000180090790     SDL_render_d3d.obj
 0002:000017a0       ??_C@_0BP@NHLKALBC@Renderer?5is?5not?5a?5D3D?5renderer?$AA@ 00000001800907a0     SDL_render_d3d.obj
 0002:000017c0       ??_C@_07BOHBIPEF@Reset?$CI?$CJ?$AA@ 00000001800907c0     SDL_render_d3d.obj
 0002:000017c8       ??_C@_0N@DMDLAKKI@BeginScene?$CI?$CJ?$AA@ 00000001800907c8     SDL_render_d3d.obj
 0002:000017d8       ??_C@_0BC@NCCBNGOP@SetRenderTarget?$CI?$CJ?$AA@ 00000001800907d8     SDL_render_d3d.obj
 0002:000017f0       ??_C@_0BC@DGDHANIH@GetSurfaceLevel?$CI?$CJ?$AA@ 00000001800907f0     SDL_render_d3d.obj
 0002:00001808       ??_C@_07DOJMODLJ@Clear?$CI?$CJ?$AA@ 0000000180090808     SDL_render_d3d.obj
 0002:00001810       ??_C@_0BC@JBFLDFJF@DrawPrimitiveUP?$CI?$CJ?$AA@ 0000000180090810     SDL_render_d3d.obj
 0002:00001828       ??_C@_0N@NNEFOEDA@SetTexture?$CI?$CJ?$AA@ 0000000180090828     SDL_render_d3d.obj
 0002:00001838       ??_C@_0M@FGHHKMN@SetShader?$CI?$CJ?$AA@ 0000000180090838     SDL_render_d3d.obj
 0002:00001848       __real@4066800000000000    0000000180090848     SDL_render_d3d.obj
 0002:00001850       __real@400921fb54442d18    0000000180090850     SDL_render_d3d.obj
 0002:00001860       __mask@@NegFloat@          0000000180090860     SDL_render_d3d.obj
 0002:00001870       ??_C@_09NGMBHGEG@Present?$CI?$CJ?$AA@ 0000000180090870     SDL_render_d3d.obj
 0002:00001880       ??_C@_0CE@JPMMDFFJ@Unable?5to?5create?5Direct3D?5interf@ 0000000180090880     SDL_render_d3d.obj
 0002:000018a8       ??_C@_0BE@JJGHPJPJ@CreatePixelShader?$CI?$CJ?$AA@ 00000001800908a8     SDL_render_d3d.obj
 0002:000018c0       ??_C@_0BH@OACCMGIL@GetPresentParameters?$CI?$CJ?$AA@ 00000001800908c0     SDL_render_d3d.obj
 0002:000018d8       ??_C@_0P@LILPBKPC@GetSwapChain?$CI?$CJ?$AA@ 00000001800908d8     SDL_render_d3d.obj
 0002:000018e8       ??_C@_0P@DKPBPIND@CreateDevice?$CI?$CJ?$AA@ 00000001800908e8     SDL_render_d3d.obj
 0002:000018f8       ??_C@_0BP@FKMPCAOC@SDL_RENDER_DIRECT3D_THREADSAFE?$AA@ 00000001800908f8     SDL_render_d3d.obj
 0002:00001918       ??_C@_0BG@DFLMNNHG@D3DXCreateMatrixStack?$AA@ 0000000180090918     SDL_render_d3d.obj
 0002:00001930       ??_C@_0P@EAGFHGIC@D3DX9_?$CF02d?4dll?$AA@ 0000000180090930     SDL_render_d3d.obj
 0002:00001940       ??_C@_06BKLEJAEP@opengl?$AA@ 0000000180090940     SDL_render_gl.obj
 0002:00001950       ??_C@_0M@OIOFJFPO@GL_NO_ERROR?$AA@ 0000000180090950     SDL_render_gl.obj
 0002:00001960       ??_C@_0BA@LLPLHEDK@GL_INVALID_ENUM?$AA@ 0000000180090960     SDL_render_gl.obj
 0002:00001970       ??_C@_0BB@HDIPJELP@GL_INVALID_VALUE?$AA@ 0000000180090970     SDL_render_gl.obj
 0002:00001988       ??_C@_0BF@NFNGKHIL@GL_INVALID_OPERATION?$AA@ 0000000180090988     SDL_render_gl.obj
 0002:000019a0       ??_C@_0BC@DLCDMCHH@GL_STACK_OVERFLOW?$AA@ 00000001800909a0     SDL_render_gl.obj
 0002:000019b8       ??_C@_0BD@KAJAFKFC@GL_STACK_UNDERFLOW?$AA@ 00000001800909b8     SDL_render_gl.obj
 0002:000019d0       ??_C@_0BB@JMBJBKGI@GL_OUT_OF_MEMORY?$AA@ 00000001800909d0     SDL_render_gl.obj
 0002:000019e8       ??_C@_0BD@LDAMLOIE@GL_TABLE_TOO_LARGE?$AA@ 00000001800909e8     SDL_render_gl.obj
 0002:00001a00       ??_C@_0BK@COKHDDAG@?$CFs?3?5?$CFs?5?$CI?$CFd?$CJ?3?5?$CFs?5?$CFs?5?$CI0x?$CFX?$CJ?$AA@ 0000000180090a00     SDL_render_gl.obj
 0002:00001a20       ??_C@_07DCLBNMLN@generic?$AA@ 0000000180090a20     SDL_render_gl.obj
 0002:00001a28       ??_C@_0BD@CLGJLBBL@?$CFs?3?5?$CFs?5?$CI?$CFd?$CJ?3?5?$CFs?5?$CFs?$AA@ 0000000180090a28     SDL_render_gl.obj
 0002:00001a40       ??_C@_0L@KBLIPDFH@glViewport?$AA@ 0000000180090a40     SDL_render_gl.obj
 0002:00001a50       ??_C@_0BA@HAHECJNK@glVertexPointer?$AA@ 0000000180090a50     SDL_render_gl.obj
 0002:00001a60       ??_C@_0L@LPFKLMDB@glVertex2f?$AA@ 0000000180090a60     SDL_render_gl.obj
 0002:00001a70       ??_C@_0N@IFPDDBNE@glTranslatef?$AA@ 0000000180090a70     SDL_render_gl.obj
 0002:00001a80       ??_C@_0BA@NHKIJEMK@glTexSubImage2D?$AA@ 0000000180090a80     SDL_render_gl.obj
 0002:00001a90       ??_C@_0BA@KDNJAKA@glTexParameteri?$AA@ 0000000180090a90     SDL_render_gl.obj
 0002:00001aa0       ??_C@_0N@JBIKHLCC@glTexImage2D?$AA@ 0000000180090aa0     SDL_render_gl.obj
 0002:00001ab0       ??_C@_09FCLLGECI@glTexEnvf?$AA@ 0000000180090ab0     SDL_render_gl.obj
 0002:00001ac0       ??_C@_0N@BKNBCOAE@glTexCoord2f?$AA@ 0000000180090ac0     SDL_render_gl.obj
 0002:00001ad0       ??_C@_09ECGPAEPL@glScissor?$AA@ 0000000180090ad0     SDL_render_gl.obj
 0002:00001ae0       ??_C@_09GANFLDAO@glRotated?$AA@ 0000000180090ae0     SDL_render_gl.obj
 0002:00001af0       ??_C@_07FFLNKKCE@glRectf?$AA@ 0000000180090af0     SDL_render_gl.obj
 0002:00001af8       ??_C@_0N@CKFNNHOO@glReadPixels?$AA@ 0000000180090af8     SDL_render_gl.obj
 0002:00001b08       ??_C@_0N@HFKHBECK@glReadBuffer?$AA@ 0000000180090b08     SDL_render_gl.obj
 0002:00001b18       ??_C@_0O@LMHMIIIJ@glRasterPos2i?$AA@ 0000000180090b18     SDL_render_gl.obj
 0002:00001b28       ??_C@_0N@IHFNHGBL@glPushMatrix?$AA@ 0000000180090b28     SDL_render_gl.obj
 0002:00001b38       ??_C@_0M@JPEAAEEK@glPopMatrix?$AA@ 0000000180090b38     SDL_render_gl.obj
 0002:00001b48       ??_C@_0M@EEAPMMNM@glPointSize?$AA@ 0000000180090b48     SDL_render_gl.obj
 0002:00001b58       ??_C@_0O@JCCIGLOF@glPixelStorei?$AA@ 0000000180090b58     SDL_render_gl.obj
 0002:00001b68       ??_C@_07DBAFHOII@glOrtho?$AA@ 0000000180090b68     SDL_render_gl.obj
 0002:00001b70       ??_C@_0N@KDLNHKEJ@glMatrixMode?$AA@ 0000000180090b70     SDL_render_gl.obj
 0002:00001b80       ??_C@_0P@EJAFHEPO@glLoadIdentity?$AA@ 0000000180090b80     SDL_render_gl.obj
 0002:00001b90       ??_C@_0M@CFLGNFPG@glLineWidth?$AA@ 0000000180090b90     SDL_render_gl.obj
 0002:00001ba0       ??_C@_0O@LADEDGJO@glGetPointerv?$AA@ 0000000180090ba0     SDL_render_gl.obj
 0002:00001bb0       ??_C@_0O@LLMANLNK@glGenTextures?$AA@ 0000000180090bb0     SDL_render_gl.obj
 0002:00001bc0       ??_C@_05OIBMBLHE@glEnd?$AA@ 0000000180090bc0     SDL_render_gl.obj
 0002:00001bc8       ??_C@_0BE@KECPKGNE@glEnableClientState?$AA@ 0000000180090bc8     SDL_render_gl.obj
 0002:00001be0       ??_C@_08OOEHEKOP@glEnable?$AA@ 0000000180090be0     SDL_render_gl.obj
 0002:00001bf0       ??_C@_0N@FLFIHFDP@glDrawPixels?$AA@ 0000000180090bf0     SDL_render_gl.obj
 0002:00001c00       ??_C@_0N@CMNPPOHA@glDrawArrays?$AA@ 0000000180090c00     SDL_render_gl.obj
 0002:00001c10       ??_C@_0BF@LJDHBNBP@glDisableClientState?$AA@ 0000000180090c10     SDL_render_gl.obj
 0002:00001c28       ??_C@_09MHGMIMKN@glDisable?$AA@ 0000000180090c28     SDL_render_gl.obj
 0002:00001c38       ??_C@_0BB@KMPLFJIC@glDeleteTextures?$AA@ 0000000180090c38     SDL_render_gl.obj
 0002:00001c50       ??_C@_09PKFCMFPF@glColor4f?$AA@ 0000000180090c50     SDL_render_gl.obj
 0002:00001c60       ??_C@_0N@OGLMDNKC@glClearColor?$AA@ 0000000180090c60     SDL_render_gl.obj
 0002:00001c70       ??_C@_07IBAPPAHJ@glClear?$AA@ 0000000180090c70     SDL_render_gl.obj
 0002:00001c78       ??_C@_0BE@LLLCIIOO@glBlendFuncSeparate?$AA@ 0000000180090c78     SDL_render_gl.obj
 0002:00001c90       ??_C@_0M@PFBKOKOH@glBlendFunc?$AA@ 0000000180090c90     SDL_render_gl.obj
 0002:00001ca0       ??_C@_0O@JKKCIBGC@glBindTexture?$AA@ 0000000180090ca0     SDL_render_gl.obj
 0002:00001cb0       ??_C@_0CC@HOMNALC@Couldn?8t?5load?5GL?5function?5?$CFs?3?5?$CFs@ 0000000180090cb0     SDL_render_gl.obj
 0002:00001cd8       ??_C@_07FCOIFMD@glBegin?$AA@ 0000000180090cd8     SDL_render_gl.obj
 0002:00001ce0       ??_C@_0DI@KKCONEIB@?4?4?2?4?4?2?4?4?2depends?2SDL2?2src?2render@ 0000000180090ce0     SDL_render_gl.obj
 0002:00001d18       ??_C@_0BC@JJKHKFFK@GL_UpdateViewport?$AA@ 0000000180090d18     SDL_render_gl.obj
 0002:00001d30       __real@3ff0000000000000    0000000180090d30     SDL_render_gl.obj
 0002:00001d38       __real@45f00800            0000000180090d38     SDL_render_gl.obj
 0002:00001d3c       __real@46040000            0000000180090d3c     SDL_render_gl.obj
 0002:00001d40       ??_C@_0BD@CBCGLKNF@GL_DestroyRenderer?$AA@ 0000000180090d40     SDL_render_gl.obj
 0002:00001d58       ??_C@_0BK@IEHNBEGE@glDebugMessageCallbackARB?$AA@ 0000000180090d58     SDL_render_gl.obj
 0002:00001d78       ??_C@_0O@HDFGMLFM@GL_ResetState?$AA@ 0000000180090d78     SDL_render_gl.obj
 0002:00001d88       ??_C@_0P@BCHNPHKN@glTexImage2D?$CI?$CJ?$AA@ 0000000180090d88     SDL_render_gl.obj
 0002:00001d98       ??_C@_0P@FONCNNHG@glGenTexures?$CI?$CJ?$AA@ 0000000180090d98     SDL_render_gl.obj
 0002:00001da8       ??_C@_0BB@MHNLJJMD@GL_CreateTexture?$AA@ 0000000180090da8     SDL_render_gl.obj
 0002:00001dc0       ??_C@_0CK@BEJNMJGD@Texture?5format?5?$CFs?5not?5supported?5@ 0000000180090dc0     SDL_render_gl.obj
 0002:00001df0       ??_C@_0BB@KCFCBHDN@GL_UpdateTexture?$AA@ 0000000180090df0     SDL_render_gl.obj
 0002:00001e08       ??_C@_0BC@LEGPDHIC@glTexSubImage2D?$CI?$CJ?$AA@ 0000000180090e08     SDL_render_gl.obj
 0002:00001e20       ??_C@_0BE@JMMGJEIO@GL_UpdateTextureYUV?$AA@ 0000000180090e20     SDL_render_gl.obj
 0002:00001e38       ??_C@_0CD@NNDEHCIN@glFramebufferTexture2DEXT?$CI?$CJ?5fail@ 0000000180090e38     SDL_render_gl.obj
 0002:00001e5c       __real@bf000000            0000000180090e5c     SDL_render_gl.obj
 0002:00001e60       ??_C@_0BD@KIBGGFAN@GL_RenderDrawLines?$AA@ 0000000180090e60     SDL_render_gl.obj
 0002:00001e78       ??_C@_0BD@GPAICLAJ@GL_RenderFillRects?$AA@ 0000000180090e78     SDL_render_gl.obj
 0002:00001e90       ??_C@_0O@PNIKMJCJ@GL_RenderCopy?$AA@ 0000000180090e90     SDL_render_gl.obj
 0002:00001ea0       ??_C@_0BA@DHEJKEKA@GL_RenderCopyEx?$AA@ 0000000180090ea0     SDL_render_gl.obj
 0002:00001eb0       ??_C@_0BE@FDKKJCOJ@GL_RenderReadPixels?$AA@ 0000000180090eb0     SDL_render_gl.obj
 0002:00001ec8       ??_C@_0P@KKFCDLPL@glReadPixels?$CI?$CJ?$AA@ 0000000180090ec8     SDL_render_gl.obj
 0002:00001ed8       ??_C@_0BM@GOHPHGGE@glCheckFramebufferStatusEXT?$AA@ 0000000180090ed8     SDL_render_gl.obj
 0002:00001ef8       ??_C@_0BF@EMIECBAK@glBindFramebufferEXT?$AA@ 0000000180090ef8     SDL_render_gl.obj
 0002:00001f10       ??_C@_0BK@LFOBEPCF@glFramebufferTexture2DEXT?$AA@ 0000000180090f10     SDL_render_gl.obj
 0002:00001f30       ??_C@_0BI@NPEJNLO@glDeleteFramebuffersEXT?$AA@ 0000000180090f30     SDL_render_gl.obj
 0002:00001f48       ??_C@_0BF@FFIJGJAM@glGenFramebuffersEXT?$AA@ 0000000180090f48     SDL_render_gl.obj
 0002:00001f60       ??_C@_0BK@GDONINOA@GL_EXT_framebuffer_object?$AA@ 0000000180090f60     SDL_render_gl.obj
 0002:00001f80       ??_C@_0BD@GMFMGLNE@OpenGL?5shaders?3?5?$CFs?$AA@ 0000000180090f80     SDL_render_gl.obj
 0002:00001f98       ??_C@_08GLNGGDPJ@DISABLED?$AA@ 0000000180090f98     SDL_render_gl.obj
 0002:00001fa8       ??_C@_07DKCFBCHE@ENABLED?$AA@ 0000000180090fa8     SDL_render_gl.obj
 0002:00001fb0       ??_C@_0BK@NIFPALMB@SDL_RENDER_OPENGL_SHADERS?$AA@ 0000000180090fb0     SDL_render_gl.obj
 0002:00001fd0       ??_C@_0BD@IKCKKKNH@glActiveTextureARB?$AA@ 0000000180090fd0     SDL_render_gl.obj
 0002:00001fe8       ??_C@_0BE@MEMOPMEA@GL_ARB_multitexture?$AA@ 0000000180090fe8     SDL_render_gl.obj
 0002:00002000       ??_C@_0BJ@CDAOFBMC@GL_EXT_texture_rectangle?$AA@ 0000000180091000     SDL_render_gl.obj
 0002:00002020       ??_C@_0BJ@NKHMPMDJ@GL_ARB_texture_rectangle?$AA@ 0000000180091020     SDL_render_gl.obj
 0002:00002040       ??_C@_0BE@OHIPHHMJ@GL_ARB_debug_output?$AA@ 0000000180091040     SDL_render_gl.obj
 0002:00002060       ??_C@_0DFF@IBJPCLPC@varying?5vec4?5v_color?$DL?6varying?5ve@ 0000000180091060     SDL_shaders_gl.obj
 0002:000023c0       ??_C@_0JC@KPDEEJDO@varying?5vec4?5v_color?$DL?6varying?5ve@ 00000001800913c0     SDL_shaders_gl.obj
 0002:00002460       ??_C@_0LO@CAAGHOIK@varying?5vec4?5v_color?$DL?6varying?5ve@ 0000000180091460     SDL_shaders_gl.obj
 0002:00002520       ??_C@_0ED@IIANLGMK@varying?5vec4?5v_color?$DL?6?6void?5main@ 0000000180091520     SDL_shaders_gl.obj
 0002:00002570       ??_C@_0HL@BPKNAHMN@varying?5vec4?5v_color?$DL?6?6void?5main@ 0000000180091570     SDL_shaders_gl.obj
 0002:000025f0       ??_C@_0CC@FHAMENEF@Failed?5to?5compile?5shader?3?6?$CFs?$CFs?6?$CF@ 00000001800915f0     SDL_shaders_gl.obj
 0002:00002614       ??_C@_05BOMAELGN@tex?$CFd?$AA@ 0000000180091614     SDL_shaders_gl.obj
 0002:00002620       ??_C@_0EB@ODCDMOAP@?$CDdefine?5sampler2D?5sampler2DRect?6@ 0000000180091620     SDL_shaders_gl.obj
 0002:00002668       ??_C@_0BG@JEOFPDIM@glUseProgramObjectARB?$AA@ 0000000180091668     SDL_shaders_gl.obj
 0002:00002680       ??_C@_0P@KFNIAEEC@glUniform1fARB?$AA@ 0000000180091680     SDL_shaders_gl.obj
 0002:00002690       ??_C@_0P@CHIIJDJD@glUniform1iARB?$AA@ 0000000180091690     SDL_shaders_gl.obj
 0002:000026a0       ??_C@_0BC@MCCOFGJG@glShaderSourceARB?$AA@ 00000001800916a0     SDL_shaders_gl.obj
 0002:000026b8       ??_C@_0BB@HPIAOOAG@glLinkProgramARB?$AA@ 00000001800916b8     SDL_shaders_gl.obj
 0002:000026d0       ??_C@_0BI@CAFPPHDC@glGetUniformLocationARB?$AA@ 00000001800916d0     SDL_shaders_gl.obj
 0002:000026e8       ??_C@_0BK@IDAIKMOL@glGetObjectParameterivARB?$AA@ 00000001800916e8     SDL_shaders_gl.obj
 0002:00002708       ??_C@_0BA@FLIOBLOG@glGetInfoLogARB?$AA@ 0000000180091708     SDL_shaders_gl.obj
 0002:00002718       ??_C@_0BC@MJFNICLA@glDeleteObjectARB?$AA@ 0000000180091718     SDL_shaders_gl.obj
 0002:00002730       ??_C@_0BI@FMNPOEGE@glCreateShaderObjectARB?$AA@ 0000000180091730     SDL_shaders_gl.obj
 0002:00002748       ??_C@_0BJ@KGMBEPBI@glCreateProgramObjectARB?$AA@ 0000000180091748     SDL_shaders_gl.obj
 0002:00002768       ??_C@_0BD@BEDGBOPM@glCompileShaderARB?$AA@ 0000000180091768     SDL_shaders_gl.obj
 0002:00002780       ??_C@_0BC@GINLBKLJ@glAttachObjectARB?$AA@ 0000000180091780     SDL_shaders_gl.obj
 0002:00002798       ??_C@_0BH@MOFIMEJB@GL_ARB_fragment_shader?$AA@ 0000000180091798     SDL_shaders_gl.obj
 0002:000027b0       ??_C@_0BF@GNLBPIJF@GL_ARB_vertex_shader?$AA@ 00000001800917b0     SDL_shaders_gl.obj
 0002:000027c8       ??_C@_0BM@IABMMANC@GL_ARB_shading_language_100?$AA@ 00000001800917c8     SDL_shaders_gl.obj
 0002:000027e8       ??_C@_0BG@OLLFAEMA@GL_ARB_shader_objects?$AA@ 00000001800917e8     SDL_shaders_gl.obj
 0002:00002800       ??_C@_0DB@DMEFHBOK@SDL_BlendFillRects?$CI?$CJ?3?5Unsupporte@ 0000000180091800     SDL_blendfillrect.obj
 0002:00002838       ??_C@_0CN@NMDLPMAN@SDL_BlendLines?$CI?$CJ?3?5Unsupported?5su@ 0000000180091838     SDL_blendline.obj
 0002:00002868       ??_C@_0DC@OFMLCIFH@SDL_BlendLines?$CI?$CJ?3?5Passed?5NULL?5de@ 0000000180091868     SDL_blendline.obj
 0002:000028a0       ??_C@_0CN@MJLFJIEA@SDL_BlendPoint?$CI?$CJ?3?5Unsupported?5su@ 00000001800918a0     SDL_blendpoint.obj
 0002:000028d0       ??_C@_0CO@MJCFLEAC@SDL_BlendPoints?$CI?$CJ?3?5Unsupported?5s@ 00000001800918d0     SDL_blendpoint.obj
 0002:00002900       ??_C@_0CM@EGJBCCAD@SDL_DrawLines?$CI?$CJ?3?5Unsupported?5sur@ 0000000180091900     SDL_drawline.obj
 0002:00002930       ??_C@_0DB@MDDBOCLK@SDL_DrawLines?$CI?$CJ?3?5Passed?5NULL?5des@ 0000000180091930     SDL_drawline.obj
 0002:00002968       ??_C@_0CM@FDBPEGEO@SDL_DrawPoint?$CI?$CJ?3?5Unsupported?5sur@ 0000000180091968     SDL_drawpoint.obj
 0002:00002998       ??_C@_0CN@COAHDDNL@SDL_DrawPoints?$CI?$CJ?3?5Unsupported?5su@ 0000000180091998     SDL_drawpoint.obj
 0002:000029c8       ??_C@_0BH@DNELNPHN@Unknown?5texture?5format?$AA@ 00000001800919c8     SDL_render_sw.obj
 0002:000029e0       ??_C@_0DB@MNHOFIPN@Software?5renderer?5doesn?8t?5have?5a@ 00000001800919e0     SDL_render_sw.obj
 0002:00002a18       ??_C@_0CI@BAFMCAO@Tried?5to?5read?5outside?5of?5surface@ 0000000180091a18     SDL_render_sw.obj
 0002:00002a40       ??_C@_0CH@OACHJIDA@Can?8t?5create?5renderer?5for?5NULL?5s@ 0000000180091a40     SDL_render_sw.obj
 0002:00002a68       __real@3f91df46a2529d39    0000000180091a68     SDL_rotate.obj
 0002:00002a70       __real@40f0000000000000    0000000180091a70     SDL_rotate.obj
 0002:00002a78       ??_C@_0BE@JKAFKGBP@Passed?5a?5NULL?5mutex?$AA@ 0000000180091a78     SDL_sysmutex.obj
 0002:00002a90       ??_C@_0BN@CBILABAM@WaitForSingleObject?$CI?$CJ?5failed?$AA@ 0000000180091a90     SDL_syssem.obj
 0002:00002ab0       ??_C@_0BC@MPKHDLJP@Passed?5a?5NULL?5sem?$AA@ 0000000180091ab0     SDL_syssem.obj
 0002:00002ac8       ??_C@_0BK@PIIIPHLC@ReleaseSemaphore?$CI?$CJ?5failed?$AA@ 0000000180091ac8     SDL_syssem.obj
 0002:00002ae8       ??_C@_0CG@NEOFPKAN@Not?5enough?5resources?5to?5create?5t@ 0000000180091ae8     SDL_systhread.obj
 0002:00002b10       ??_C@_0BE@HPNLNCEL@SetThreadPriority?$CI?$CJ?$AA@ 0000000180091b10     SDL_systhread.obj
 0002:00002b28       ??_C@_0BF@HILEIFFM@TlsSetValue?$CI?$CJ?5failed?$AA@ 0000000180091b28     SDL_systls.obj
 0002:00002b40       ??_C@_0CB@LHOHCCCA@Passed?5a?5NULL?5condition?5variable@ 0000000180091b40     SDL_syscond.obj
 0002:00002b68       ??_C@_0BF@NCNBHJCC@SDL_TIMER_RESOLUTION?$AA@ 0000000180091b68     SDL_systimer.obj
 0002:00002b80       ??_C@_0BC@CBICHLPL@_SDL_DummySurface?$AA@ 0000000180091b80     SDL_nullframebuffer.obj
 0002:00002b98       ??_C@_0BH@PIFAGDNK@SDL_window?$CFd?9?$CF8?48d?4bmp?$AA@ 0000000180091b98     SDL_nullframebuffer.obj
 0002:00002bb0       ??_C@_0BM@HKOHMACG@SDL_VIDEO_DUMMY_SAVE_FRAMES?$AA@ 0000000180091bb0     SDL_nullframebuffer.obj
 0002:00002bd0       ??_C@_0CH@PGFAPKOK@Couldn?8t?5find?5dummy?5surface?5for?5@ 0000000180091bd0     SDL_nullframebuffer.obj
 0002:00002bf8       ??_C@_0BH@EBGCPODA@SDL?5dummy?5video?5driver?$AA@ 0000000180091bf8     SDL_nullvideo.obj
 0002:00002c10       ??_C@_0BI@FDMHAIB@Couldn?8t?5open?5clipboard?$AA@ 0000000180091c10     SDL_windowsclipboard.obj
 0002:00002c28       ??_C@_0BM@MNLLJAOA@Couldn?8t?5set?5clipboard?5data?$AA@ 0000000180091c28     SDL_windowsclipboard.obj
 0002:00002c48       ??_C@_0BM@DHJBKGAI@Couldn?8t?5get?5clipboard?5data?$AA@ 0000000180091c48     SDL_windowsclipboard.obj
 0002:00002e70       ??_C@_1BO@GJPGBFDB@?$AAS?$AAD?$AAL?$AA_?$AAW?$AAi?$AAn?$AAd?$AAo?$AAw?$AAD?$AAa?$AAt?$AAa?$AA?$AA@ 0000000180091e70     SDL_windowsevents.obj
 0002:00002e90       ??_C@_0CE@GEIOGHII@Couldn?8t?5register?5application?5cl@ 0000000180091e90     SDL_windowsevents.obj
 0002:00002eb8       ??_C@_07MLLNJGBE@SDL_app?$AA@ 0000000180091eb8     SDL_windowsevents.obj
 0002:00002ec0       ??_C@_0BF@BCJDIJDJ@Unable?5to?5create?5DIB?$AA@ 0000000180091ec0     SDL_windowsframebuffer.obj
 0002:000030f0       ??_C@_0N@ONOBNHOE@MSSCIPYA?4IME?$AA@ 00000001800920f0     SDL_windowskeyboard.obj
 0002:00003100       ??_C@_0N@JFHOELJF@PINTLGNT?4IME?$AA@ 0000000180092100     SDL_windowskeyboard.obj
 0002:00003110       ??_C@_0N@FHDFFBN@MSTCIPHA?4IME?$AA@ 0000000180092110     SDL_windowskeyboard.obj
 0002:00003120       ??_C@_0N@JMLDIBIB@CINTLGNT?4IME?$AA@ 0000000180092120     SDL_windowskeyboard.obj
 0002:00003130       ??_C@_0N@FFMHCBAD@TINTLGNT?4IME?$AA@ 0000000180092130     SDL_windowskeyboard.obj
 0002:00003140       ??_C@_0BC@MEELNKEC@ShowReadingWindow?$AA@ 0000000180092140     SDL_windowskeyboard.obj
 0002:00003158       ??_C@_0BB@EOIFCLLM@GetReadingString?$AA@ 0000000180092158     SDL_windowskeyboard.obj
 0002:0000316c       ??_C@_11LOCGONAA@?$AA?$AA@ 000000018009216c     SDL_windowskeyboard.obj
 0002:00003170       ??_C@_0O@IDKBPDPO@Right?5Windows?$AA@ 0000000180092170     SDL_windowskeyboard.obj
 0002:00003180       ??_C@_0N@ILBHIOPE@Left?5Windows?$AA@ 0000000180092180     SDL_windowskeyboard.obj
 0002:00003190       ??_C@_0O@GKKOACL@ImmUnlockIMCC?$AA@ 0000000180092190     SDL_windowskeyboard.obj
 0002:000031a0       ??_C@_0M@OKKMJOGM@ImmLockIMCC?$AA@ 00000001800921a0     SDL_windowskeyboard.obj
 0002:000031b0       ??_C@_0N@PDIACEGP@ImmUnlockIMC?$AA@ 00000001800921b0     SDL_windowskeyboard.obj
 0002:000031c0       ??_C@_0L@JGAMEFKO@ImmLockIMC?$AA@ 00000001800921c0     SDL_windowskeyboard.obj
 0002:000031d0       ??_C@_09EFEMJFBN@imm32?4dll?$AA@ 00000001800921d0     SDL_windowskeyboard.obj
 0002:000031e0       ??_C@_0BG@EEEBJAMO@No?5displays?5available?$AA@ 00000001800921e0     SDL_windowsmodes.obj
 0002:000031f8       ??_C@_0CF@HODIIFDI@ChangeDisplaySettingsEx?$CI?$CJ?5failed@ 00000001800921f8     SDL_windowsmodes.obj
 0002:00003220       ??_C@_0BF@NLGDBEAK@DISP_CHANGE_BADPARAM?$AA@ 0000000180092220     SDL_windowsmodes.obj
 0002:00003238       ??_C@_0BF@GEBMIKCB@DISP_CHANGE_BADFLAGS?$AA@ 0000000180092238     SDL_windowsmodes.obj
 0002:00003250       ??_C@_0BE@NENINPMB@DISP_CHANGE_BADMODE?$AA@ 0000000180092250     SDL_windowsmodes.obj
 0002:00003268       ??_C@_0BD@NMKNJEGN@DISP_CHANGE_FAILED?$AA@ 0000000180092268     SDL_windowsmodes.obj
 0002:00003280       ??_C@_0P@GKAKGMM@Unknown?5reason?$AA@ 0000000180092280     SDL_windowsmodes.obj
 0002:00003290       ??_C@_0BF@FOPPOLMK@CreateIconIndirect?$CI?$CJ?$AA@ 0000000180092290     SDL_windowsmouse.obj
 0002:000032a8       ??_C@_0CE@LLKDOCIF@Could?5not?5retrieve?5OpenGL?5functi@ 00000001800922a8     SDL_windowsopengl.obj
 0002:000032d0       ??_C@_0O@GCGJMHDL@wglShareLists?$AA@ 00000001800922d0     SDL_windowsopengl.obj
 0002:000032e0       ??_C@_0P@BBBFNDGG@wglMakeCurrent?$AA@ 00000001800922e0     SDL_windowsopengl.obj
 0002:000032f0       ??_C@_0BB@OGAIJNNO@wglDeleteContext?$AA@ 00000001800922f0     SDL_windowsopengl.obj
 0002:00003308       ??_C@_0BB@GHMBNOIP@wglCreateContext?$AA@ 0000000180092308     SDL_windowsopengl.obj
 0002:00003320       ??_C@_0BC@FFKMKEGM@wglGetProcAddress?$AA@ 0000000180092320     SDL_windowsopengl.obj
 0002:00003338       ??_C@_0N@CKFCKPPG@OPENGL32?4DLL?$AA@ 0000000180092338     SDL_windowsopengl.obj
 0002:00003348       ??_C@_0BD@HJLOMBBH@SDL_OPENGL_LIBRARY?$AA@ 0000000180092348     SDL_windowsopengl.obj
 0002:00003360       ??_C@_0BK@EAEHPPPH@WGL_EXT_swap_control_tear?$AA@ 0000000180092360     SDL_windowsopengl.obj
 0002:00003380       ??_C@_0BG@EDKPJPEA@wglGetSwapIntervalEXT?$AA@ 0000000180092380     SDL_windowsopengl.obj
 0002:00003398       ??_C@_0BD@IINOPBDD@wglSwapIntervalEXT?$AA@ 0000000180092398     SDL_windowsopengl.obj
 0002:000033b0       ??_C@_0BF@NPDKPIKE@WGL_EXT_swap_control?$AA@ 00000001800923b0     SDL_windowsopengl.obj
 0002:000033c8       ??_C@_0BN@GDKHKIAN@wglGetPixelFormatAttribivARB?$AA@ 00000001800923c8     SDL_windowsopengl.obj
 0002:000033e8       ??_C@_0BI@JPMGGILH@wglChoosePixelFormatARB?$AA@ 00000001800923e8     SDL_windowsopengl.obj
 0002:00003400       ??_C@_0BF@OGGDOHFN@WGL_ARB_pixel_format?$AA@ 0000000180092400     SDL_windowsopengl.obj
 0002:00003418       ??_C@_0BK@JOBLJGNA@wglGetExtensionsStringARB?$AA@ 0000000180092418     SDL_windowsopengl.obj
 0002:00003438       ??_C@_0BB@NPBPIACN@SetPixelFormat?$CI?$CJ?$AA@ 0000000180092438     SDL_windowsopengl.obj
 0002:00003450       ??_C@_0CG@MJCPNACG@No?5matching?5GL?5pixel?5format?5avai@ 0000000180092450     SDL_windowsopengl.obj
 0002:00003478       ??_C@_0BB@FOGFNGOJ@wglMakeCurrent?$CI?$CJ?$AA@ 0000000180092478     SDL_windowsopengl.obj
 0002:00003490       ??_C@_0BH@HIPGPHLC@OpenGL?5not?5initialized?$AA@ 0000000180092490     SDL_windowsopengl.obj
 0002:000034a8       ??_C@_0BF@EMMJKHNH@wglSwapIntervalEXT?$CI?$CJ?$AA@ 00000001800924a8     SDL_windowsopengl.obj
 0002:000034c0       ??_C@_0CO@BBIPCEKJ@Negative?5swap?5interval?5unsupport@ 00000001800924c0     SDL_windowsopengl.obj
 0002:000034f0       ??_C@_0BI@NLGKFGGC@GL?53?4x?5is?5not?5supported?$AA@ 00000001800924f0     SDL_windowsopengl.obj
 0002:00003508       ??_C@_0BL@PDDHMPGF@wglCreateContextAttribsARB?$AA@ 0000000180092508     SDL_windowsopengl.obj
 0002:00003528       ??_C@_0BM@FIACDMLK@Could?5not?5create?5GL?5context?$AA@ 0000000180092528     SDL_windowsopengl.obj
 0002:00003548       ??_C@_0BJ@OPANIJGA@SDL?5Windows?5video?5driver?$AA@ 0000000180092548     SDL_windowsvideo.obj
 0002:00003568       ??_C@_07EKMDLNDL@windows?$AA@ 0000000180092568     SDL_windowsvideo.obj
 0002:00003570       ??_C@_0BA@FAFMMBOF@Direct3DCreate9?$AA@ 0000000180092570     SDL_windowsvideo.obj
 0002:00003580       ??_C@_08ENDAMAGJ@D3D9?4DLL?$AA@ 0000000180092580     SDL_windowsvideo.obj
 0002:00003590       ??_C@_0BG@KBIJBEIN@Invalid?5display?5index?$AA@ 0000000180092590     SDL_windowsvideo.obj
 0002:000035a8       ??_C@_0BE@PENJIHMC@RegisterTouchWindow?$AA@ 00000001800925a8     SDL_windowsvideo.obj
 0002:000035c0       ??_C@_0BC@NHGPJPFD@GetTouchInputInfo?$AA@ 00000001800925c0     SDL_windowsvideo.obj
 0002:000035d8       ??_C@_0BG@NAJBBCHN@CloseTouchInputHandle?$AA@ 00000001800925d8     SDL_windowsvideo.obj
 0002:000035f0       ??_C@_0L@NDEGIDAG@USER32?4DLL?$AA@ 00000001800925f0     SDL_windowsvideo.obj
 0002:00003600       ??_C@_1DM@NIAKBFKG@?$AAS?$AAD?$AAL?$AAH?$AAe?$AAl?$AAp?$AAe?$AAr?$AAW?$AAi?$AAn?$AAd?$AAo?$AAw?$AAI?$AAn?$AAp?$AAu?$AAt?$AAM?$AAs?$AAg?$AAW?$AAi?$AAn?$AAd?$AAo?$AAw?$AA?$AA@ 0000000180092600     SDL_windowswindow.obj
 0002:00003640       ??_C@_1DI@HFFBEPOK@?$AAS?$AAD?$AAL?$AAH?$AAe?$AAl?$AAp?$AAe?$AAr?$AAW?$AAi?$AAn?$AAd?$AAo?$AAw?$AAI?$AAn?$AAp?$AAu?$AAt?$AAC?$AAa?$AAt?$AAc?$AAh?$AAe?$AAr?$AA?$AA@ 0000000180092640     SDL_windowswindow.obj
 0002:00003678       ??_C@_0BB@LDNNKPIM@SetProp?$CI?$CJ?5failed?$AA@ 0000000180092678     SDL_windowswindow.obj
 0002:00003690       ??_C@_0BF@MNMPNNFF@SetDeviceGammaRamp?$CI?$CJ?$AA@ 0000000180092690     SDL_windowswindow.obj
 0002:000036a8       ??_C@_0BF@JENCMLAC@GetDeviceGammaRamp?$CI?$CJ?$AA@ 00000001800926a8     SDL_windowswindow.obj
 0002:000036c0       ??_C@_0CJ@OMPJCJPJ@Application?5not?5compiled?5with?5SD@ 00000001800926c0     SDL_windowswindow.obj
 0002:000036f0       ??_C@_0BP@GLJKBNOL@Unable?5to?5create?5Helper?5Window?$AA@ 00000001800926f0     SDL_windowswindow.obj
 0002:00003710       ??_C@_0CF@LJAACKDL@Unable?5to?5create?5Helper?5Window?5C@ 0000000180092710     SDL_windowswindow.obj
 0002:00003738       ??_C@_0CG@PMABDENB@Unable?5to?5destroy?5Helper?5Window?5@ 0000000180092738     SDL_windowswindow.obj
 0002:00003760       ??_C@_0CA@IDNJGKMC@Unable?5to?5destroy?5Helper?5Window?$AA@ 0000000180092760     SDL_windowswindow.obj
 0002:00003780       ??_C@_0BH@GEFOGILD@Couldn?8t?5create?5window?$AA@ 0000000180092780     SDL_windowswindow.obj
 0002:00003798       IID_ITfThreadMgr           0000000180092798     uuid:msctf_i.obj
 0002:000037a8       IID_ITfThreadMgrEx         00000001800927a8     uuid:msctf_i.obj
 0002:000037b8       IID_ITfThreadMgrEventSink  00000001800927b8     uuid:msctf_i.obj
 0002:000037c8       IID_ITfConfigureSystemKeystrokeFeed 00000001800927c8     uuid:msctf_i.obj
 0002:000037d8       IID_IEnumTfDocumentMgrs    00000001800927d8     uuid:msctf_i.obj
 0002:000037e8       IID_ITfDocumentMgr         00000001800927e8     uuid:msctf_i.obj
 0002:000037f8       IID_IEnumTfContexts        00000001800927f8     uuid:msctf_i.obj
 0002:00003808       IID_ITfCompositionView     0000000180092808     uuid:msctf_i.obj
 0002:00003818       IID_IEnumITfCompositionView 0000000180092818     uuid:msctf_i.obj
 0002:00003828       IID_ITfComposition         0000000180092828     uuid:msctf_i.obj
 0002:00003838       IID_ITfCompositionSink     0000000180092838     uuid:msctf_i.obj
 0002:00003848       IID_ITfContextComposition  0000000180092848     uuid:msctf_i.obj
 0002:00003858       IID_ITfContextOwnerCompositionServices 0000000180092858     uuid:msctf_i.obj
 0002:00003868       IID_ITfContextOwnerCompositionSink 0000000180092868     uuid:msctf_i.obj
 0002:00003878       IID_ITfContextView         0000000180092878     uuid:msctf_i.obj
 0002:00003888       IID_IEnumTfContextViews    0000000180092888     uuid:msctf_i.obj
 0002:00003898       IID_ITfContext             0000000180092898     uuid:msctf_i.obj
 0002:000038a8       IID_ITfQueryEmbedded       00000001800928a8     uuid:msctf_i.obj
 0002:000038b8       IID_ITfInsertAtSelection   00000001800928b8     uuid:msctf_i.obj
 0002:000038c8       IID_ITfCleanupContextSink  00000001800928c8     uuid:msctf_i.obj
 0002:000038d8       IID_ITfCleanupContextDurationSink 00000001800928d8     uuid:msctf_i.obj
 0002:000038e8       IID_ITfReadOnlyProperty    00000001800928e8     uuid:msctf_i.obj
 0002:000038f8       IID_IEnumTfPropertyValue   00000001800928f8     uuid:msctf_i.obj
 0002:00003908       IID_ITfMouseTracker        0000000180092908     uuid:msctf_i.obj
 0002:00003918       IID_ITfMouseTrackerACP     0000000180092918     uuid:msctf_i.obj
 0002:00003928       IID_ITfMouseSink           0000000180092928     uuid:msctf_i.obj
 0002:00003938       IID_ITfEditRecord          0000000180092938     uuid:msctf_i.obj
 0002:00003948       IID_ITfTextEditSink        0000000180092948     uuid:msctf_i.obj
 0002:00003958       IID_ITfTextLayoutSink      0000000180092958     uuid:msctf_i.obj
 0002:00003968       IID_ITfStatusSink          0000000180092968     uuid:msctf_i.obj
 0002:00003978       IID_ITfEditTransactionSink 0000000180092978     uuid:msctf_i.obj
 0002:00003988       IID_ITfContextOwner        0000000180092988     uuid:msctf_i.obj
 0002:00003998       IID_ITfContextOwnerServices 0000000180092998     uuid:msctf_i.obj
 0002:000039a8       IID_ITfContextKeyEventSink 00000001800929a8     uuid:msctf_i.obj
 0002:000039b8       IID_ITfEditSession         00000001800929b8     uuid:msctf_i.obj
 0002:000039c8       IID_ITfRange               00000001800929c8     uuid:msctf_i.obj
 0002:000039d8       IID_ITfRangeACP            00000001800929d8     uuid:msctf_i.obj
 0002:000039e8       IID_ITextStoreACPServices  00000001800929e8     uuid:msctf_i.obj
 0002:000039f8       IID_ITfRangeBackup         00000001800929f8     uuid:msctf_i.obj
 0002:00003a08       IID_ITfPropertyStore       0000000180092a08     uuid:msctf_i.obj
 0002:00003a18       IID_IEnumTfRanges          0000000180092a18     uuid:msctf_i.obj
 0002:00003a28       IID_ITfCreatePropertyStore 0000000180092a28     uuid:msctf_i.obj
 0002:00003a38       IID_ITfPersistentPropertyLoaderACP 0000000180092a38     uuid:msctf_i.obj
 0002:00003a48       IID_ITfProperty            0000000180092a48     uuid:msctf_i.obj
 0002:00003a58       IID_IEnumTfProperties      0000000180092a58     uuid:msctf_i.obj
 0002:00003a68       IID_ITfCompartment         0000000180092a68     uuid:msctf_i.obj
 0002:00003a78       IID_ITfCompartmentEventSink 0000000180092a78     uuid:msctf_i.obj
 0002:00003a88       IID_ITfCompartmentMgr      0000000180092a88     uuid:msctf_i.obj
 0002:00003a98       IID_ITfFunction            0000000180092a98     uuid:msctf_i.obj
 0002:00003aa8       IID_ITfFunctionProvider    0000000180092aa8     uuid:msctf_i.obj
 0002:00003ab8       IID_IEnumTfFunctionProviders 0000000180092ab8     uuid:msctf_i.obj
 0002:00003ac8       IID_ITfInputProcessorProfiles 0000000180092ac8     uuid:msctf_i.obj
 0002:00003ad8       IID_ITfInputProcessorProfilesEx 0000000180092ad8     uuid:msctf_i.obj
 0002:00003ae8       IID_ITfInputProcessorProfileSubstituteLayout 0000000180092ae8     uuid:msctf_i.obj
 0002:00003af8       IID_ITfActiveLanguageProfileNotifySink 0000000180092af8     uuid:msctf_i.obj
 0002:00003b08       IID_IEnumTfLanguageProfiles 0000000180092b08     uuid:msctf_i.obj
 0002:00003b18       IID_ITfLanguageProfileNotifySink 0000000180092b18     uuid:msctf_i.obj
 0002:00003b28       IID_ITfInputProcessorProfileMgr 0000000180092b28     uuid:msctf_i.obj
 0002:00003b38       IID_IEnumTfInputProcessorProfiles 0000000180092b38     uuid:msctf_i.obj
 0002:00003b48       IID_ITfInputProcessorProfileActivationSink 0000000180092b48     uuid:msctf_i.obj
 0002:00003b58       IID_ITfKeystrokeMgr        0000000180092b58     uuid:msctf_i.obj
 0002:00003b68       IID_ITfKeyEventSink        0000000180092b68     uuid:msctf_i.obj
 0002:00003b78       IID_ITfKeyTraceEventSink   0000000180092b78     uuid:msctf_i.obj
 0002:00003b88       IID_ITfPreservedKeyNotifySink 0000000180092b88     uuid:msctf_i.obj
 0002:00003b98       IID_ITfMessagePump         0000000180092b98     uuid:msctf_i.obj
 0002:00003ba8       IID_ITfThreadFocusSink     0000000180092ba8     uuid:msctf_i.obj
 0002:00003bb8       IID_ITfTextInputProcessor  0000000180092bb8     uuid:msctf_i.obj
 0002:00003bc8       IID_ITfTextInputProcessorEx 0000000180092bc8     uuid:msctf_i.obj
 0002:00003bd8       IID_ITfClientId            0000000180092bd8     uuid:msctf_i.obj
 0002:00003be8       IID_ITfDisplayAttributeInfo 0000000180092be8     uuid:msctf_i.obj
 0002:00003bf8       IID_IEnumTfDisplayAttributeInfo 0000000180092bf8     uuid:msctf_i.obj
 0002:00003c08       IID_ITfDisplayAttributeProvider 0000000180092c08     uuid:msctf_i.obj
 0002:00003c18       IID_ITfDisplayAttributeMgr 0000000180092c18     uuid:msctf_i.obj
 0002:00003c28       IID_ITfDisplayAttributeNotifySink 0000000180092c28     uuid:msctf_i.obj
 0002:00003c38       IID_ITfCategoryMgr         0000000180092c38     uuid:msctf_i.obj
 0002:00003c48       IID_ITfSource              0000000180092c48     uuid:msctf_i.obj
 0002:00003c58       IID_ITfSourceSingle        0000000180092c58     uuid:msctf_i.obj
 0002:00003c68       IID_ITfUIElementMgr        0000000180092c68     uuid:msctf_i.obj
 0002:00003c78       IID_IEnumTfUIElements      0000000180092c78     uuid:msctf_i.obj
 0002:00003c88       IID_ITfUIElementSink       0000000180092c88     uuid:msctf_i.obj
 0002:00003c98       IID_ITfUIElement           0000000180092c98     uuid:msctf_i.obj
 0002:00003ca8       IID_ITfCandidateListUIElement 0000000180092ca8     uuid:msctf_i.obj
 0002:00003cb8       IID_ITfCandidateListUIElementBehavior 0000000180092cb8     uuid:msctf_i.obj
 0002:00003cc8       IID_ITfReadingInformationUIElement 0000000180092cc8     uuid:msctf_i.obj
 0002:00003cd8       IID_ITfTransitoryExtensionUIElement 0000000180092cd8     uuid:msctf_i.obj
 0002:00003ce8       IID_ITfTransitoryExtensionSink 0000000180092ce8     uuid:msctf_i.obj
 0002:00003cf8       IID_ITfToolTipUIElement    0000000180092cf8     uuid:msctf_i.obj
 0002:00003d08       IID_IUnknown               0000000180092d08     uuid:unknwn_i.obj
 0002:00003d18       CLSID_TF_ThreadMgr         0000000180092d18     uuid:msctf_g.obj
 0002:00003d28       CLSID_TF_LangBarMgr        0000000180092d28     uuid:msctf_g.obj
 0002:00003d38       CLSID_TF_DisplayAttributeMgr 0000000180092d38     uuid:msctf_g.obj
 0002:00003d48       CLSID_TF_CategoryMgr       0000000180092d48     uuid:msctf_g.obj
 0002:00003d58       CLSID_TF_InputProcessorProfiles 0000000180092d58     uuid:msctf_g.obj
 0002:00003d68       CLSID_TF_LangBarItemMgr    0000000180092d68     uuid:msctf_g.obj
 0002:00003d78       CLSID_TF_ClassicLangBar    0000000180092d78     uuid:msctf_g.obj
 0002:00003d88       CLSID_TF_TransitoryExtensionUIEntry 0000000180092d88     uuid:msctf_g.obj
 0002:00003d98       GUID_PROP_TEXTOWNER        0000000180092d98     uuid:msctf_g.obj
 0002:00003da8       GUID_PROP_ATTRIBUTE        0000000180092da8     uuid:msctf_g.obj
 0002:00003db8       GUID_PROP_LANGID           0000000180092db8     uuid:msctf_g.obj
 0002:00003dc8       GUID_PROP_READING          0000000180092dc8     uuid:msctf_g.obj
 0002:00003dd8       GUID_PROP_COMPOSING        0000000180092dd8     uuid:msctf_g.obj
 0002:00003de8       GUID_SYSTEM_FUNCTIONPROVIDER 0000000180092de8     uuid:msctf_g.obj
 0002:00003df8       GUID_APP_FUNCTIONPROVIDER  0000000180092df8     uuid:msctf_g.obj
 0002:00003e08       GUID_TFCAT_CATEGORY_OF_TIP 0000000180092e08     uuid:msctf_g.obj
 0002:00003e18       GUID_TFCAT_TIP_KEYBOARD    0000000180092e18     uuid:msctf_g.obj
 0002:00003e28       GUID_TFCAT_TIP_SPEECH      0000000180092e28     uuid:msctf_g.obj
 0002:00003e38       GUID_TFCAT_TIP_HANDWRITING 0000000180092e38     uuid:msctf_g.obj
 0002:00003e48       GUID_TFCAT_PROP_AUDIODATA  0000000180092e48     uuid:msctf_g.obj
 0002:00003e58       GUID_TFCAT_PROP_INKDATA    0000000180092e58     uuid:msctf_g.obj
 0002:00003e68       GUID_COMPARTMENT_SAPI_AUDIO 0000000180092e68     uuid:msctf_g.obj
 0002:00003e78       GUID_COMPARTMENT_KEYBOARD_DISABLED 0000000180092e78     uuid:msctf_g.obj
 0002:00003e88       GUID_COMPARTMENT_KEYBOARD_OPENCLOSE 0000000180092e88     uuid:msctf_g.obj
 0002:00003e98       GUID_COMPARTMENT_HANDWRITING_OPENCLOSE 0000000180092e98     uuid:msctf_g.obj
 0002:00003ea8       GUID_COMPARTMENT_SPEECH_DISABLED 0000000180092ea8     uuid:msctf_g.obj
 0002:00003eb8       GUID_COMPARTMENT_SPEECH_OPENCLOSE 0000000180092eb8     uuid:msctf_g.obj
 0002:00003ec8       GUID_COMPARTMENT_SPEECH_GLOBALSTATE 0000000180092ec8     uuid:msctf_g.obj
 0002:00003ed8       GUID_COMPARTMENT_CONVERSIONMODEBIAS 0000000180092ed8     uuid:msctf_g.obj
 0002:00003ee8       GUID_PROP_MODEBIAS         0000000180092ee8     uuid:msctf_g.obj
 0002:00003ef8       GUID_COMPARTMENT_KEYBOARD_INPUTMODE 0000000180092ef8     uuid:msctf_g.obj
 0002:00003f08       GUID_MODEBIAS_NONE         0000000180092f08     uuid:msctf_g.obj
 0002:00003f18       GUID_MODEBIAS_URLHISTORY   0000000180092f18     uuid:msctf_g.obj
 0002:00003f28       GUID_MODEBIAS_FILENAME     0000000180092f28     uuid:msctf_g.obj
 0002:00003f38       GUID_MODEBIAS_READING      0000000180092f38     uuid:msctf_g.obj
 0002:00003f48       GUID_MODEBIAS_DATETIME     0000000180092f48     uuid:msctf_g.obj
 0002:00003f58       GUID_MODEBIAS_NAME         0000000180092f58     uuid:msctf_g.obj
 0002:00003f68       GUID_MODEBIAS_CONVERSATION 0000000180092f68     uuid:msctf_g.obj
 0002:00003f78       GUID_MODEBIAS_NUMERIC      0000000180092f78     uuid:msctf_g.obj
 0002:00003f88       GUID_MODEBIAS_HIRAGANA     0000000180092f88     uuid:msctf_g.obj
 0002:00003f98       GUID_MODEBIAS_KATAKANA     0000000180092f98     uuid:msctf_g.obj
 0002:00003fa8       GUID_MODEBIAS_HANGUL       0000000180092fa8     uuid:msctf_g.obj
 0002:00003fb8       GUID_MODEBIAS_CHINESE      0000000180092fb8     uuid:msctf_g.obj
 0002:00003fc8       GUID_MODEBIAS_HALFWIDTHKATAKANA 0000000180092fc8     uuid:msctf_g.obj
 0002:00003fd8       GUID_MODEBIAS_FULLWIDTHALPHANUMERIC 0000000180092fd8     uuid:msctf_g.obj
 0002:00003fe8       GUID_MODEBIAS_HALFWIDTHALPHANUMERIC 0000000180092fe8     uuid:msctf_g.obj
 0002:00003ff8       GUID_MODEBIAS_FULLWIDTHHANGUL 0000000180092ff8     uuid:msctf_g.obj
 0002:00004008       GUID_TFCAT_PROPSTYLE_CUSTOM 0000000180093008     uuid:msctf_g.obj
 0002:00004018       GUID_TFCAT_PROPSTYLE_STATIC 0000000180093018     uuid:msctf_g.obj
 0002:00004028       GUID_TFCAT_PROPSTYLE_STATICCOMPACT 0000000180093028     uuid:msctf_g.obj
 0002:00004038       GUID_TFCAT_DISPLAYATTRIBUTEPROVIDER 0000000180093038     uuid:msctf_g.obj
 0002:00004048       GUID_TFCAT_DISPLAYATTRIBUTEPROPERTY 0000000180093048     uuid:msctf_g.obj
 0002:00004058       GUID_COMPARTMENT_SPEECH_DICTATIONSTAT 0000000180093058     uuid:msctf_g.obj
 0002:00004068       GUID_COMPARTMENT_PERSISTMENUENABLED 0000000180093068     uuid:msctf_g.obj
 0002:00004078       GUID_COMPARTMENT_SPEECH_UI_STATUS 0000000180093078     uuid:msctf_g.obj
 0002:00004088       GUID_COMPARTMENT_EMPTYCONTEXT 0000000180093088     uuid:msctf_g.obj
 0002:00004098       GUID_COMPARTMENT_TIPUISTATUS 0000000180093098     uuid:msctf_g.obj
 0002:000040a8       GUID_COMPARTMENT_SPEECH_CFGMENU 00000001800930a8     uuid:msctf_g.obj
 0002:000040b8       GUID_LBI_SAPILAYR_CFGMENUBUTTON 00000001800930b8     uuid:msctf_g.obj
 0002:000040c8       GUID_TFCAT_TIPCAP_SECUREMODE 00000001800930c8     uuid:msctf_g.obj
 0002:000040d8       GUID_TFCAT_TIPCAP_UIELEMENTENABLED 00000001800930d8     uuid:msctf_g.obj
 0002:000040e8       GUID_TFCAT_TIPCAP_INPUTMODECOMPARTMENT 00000001800930e8     uuid:msctf_g.obj
 0002:000040f8       GUID_TFCAT_TIPCAP_COMLESS  00000001800930f8     uuid:msctf_g.obj
 0002:00004108       GUID_TFCAT_TIPCAP_WOW16    0000000180093108     uuid:msctf_g.obj
 0002:00004118       GUID_COMPARTMENT_KEYBOARD_INPUTMODE_CONVERSION 0000000180093118     uuid:msctf_g.obj
 0002:00004128       GUID_COMPARTMENT_KEYBOARD_INPUTMODE_SENTENCE 0000000180093128     uuid:msctf_g.obj
 0002:00004138       GUID_COMPARTMENT_TRANSITORYEXTENSION 0000000180093138     uuid:msctf_g.obj
 0002:00004148       GUID_COMPARTMENT_TRANSITORYEXTENSION_DOCUMENTMANAGER 0000000180093148     uuid:msctf_g.obj
 0002:00004158       GUID_COMPARTMENT_TRANSITORYEXTENSION_PARENT 0000000180093158     uuid:msctf_g.obj
 0002:00004168       GUID_TFCAT_TRANSITORYEXTENSIONUI 0000000180093168     uuid:msctf_g.obj
 0002:00004178       _pRawDllMain               0000000180093178     MSVCRT:crtdll.obj
 0002:00004178       _pDefaultRawDllMain        0000000180093178     MSVCRT:crtdll.obj
 0002:00006f70       sdl_audio_type_filters     0000000180095f70     SDL_audiotypecvt.obj
 0002:00007520       sdl_audio_rate_filters     0000000180096520     SDL_audiotypecvt.obj
 0002:00009188       ??_C@_0BI@GBAHCMKM@Invalid?5audio?5device?5ID?$AA@ 0000000180098188     SDL_audio.obj
 0002:000091a0       ??_C@_02HNFGHGEN@U8?$AA@   00000001800981a0     SDL_audio.obj
 0002:000091a4       ??_C@_02HJNLAKPP@S8?$AA@   00000001800981a4     SDL_audio.obj
 0002:000091a8       ??_C@_06IPEOCFFE@U16LSB?$AA@ 00000001800981a8     SDL_audio.obj
 0002:000091b0       ??_C@_06OMJOBAGO@S16LSB?$AA@ 00000001800981b0     SDL_audio.obj
 0002:000091b8       ??_C@_06DHPCECDB@U16MSB?$AA@ 00000001800981b8     SDL_audio.obj
 0002:000091c0       ??_C@_06FECCHHAL@S16MSB?$AA@ 00000001800981c0     SDL_audio.obj
 0002:000091c8       ??_C@_06NJHKMEFL@U16SYS?$AA@ 00000001800981c8     SDL_audio.obj
 0002:000091d0       ??_C@_06LKKKPBGB@S16SYS?$AA@ 00000001800981d0     SDL_audio.obj
 0002:000091d8       ??_C@_03IONNMBKB@U16?$AA@  00000001800981d8     SDL_audio.obj
 0002:000091dc       ??_C@_03KLLGJOHN@S16?$AA@  00000001800981dc     SDL_audio.obj
 0002:000091e0       ??_C@_06FENGBHKF@S32LSB?$AA@ 00000001800981e0     SDL_audio.obj
 0002:000091e8       ??_C@_06OMGKHAMA@S32MSB?$AA@ 00000001800981e8     SDL_audio.obj
 0002:000091f0       ??_C@_06COCPGKK@S32SYS?$AA@ 00000001800981f0     SDL_audio.obj
 0002:000091f8       ??_C@_03MMFOIPBH@S32?$AA@  00000001800981f8     SDL_audio.obj
 0002:000091fc       ??_C@_06GBDAKEMM@F32LSB?$AA@ 00000001800981fc     SDL_audio.obj
 0002:00009204       ??_C@_06NJIMMDKJ@F32MSB?$AA@ 0000000180098204     SDL_audio.obj
 0002:0000920c       ??_C@_06DHAEEFMD@F32SYS?$AA@ 000000018009820c     SDL_audio.obj
 0002:00009214       ??_C@_03KLJJCILK@F32?$AA@  0000000180098214     SDL_audio.obj
 0002:00009218       ??_C@_0BA@PEENPIKJ@SDL_AUDIODRIVER?$AA@ 0000000180098218     SDL_audio.obj
 0002:00009228       ??_C@_0CA@JKJLPNCO@Audio?5target?5?8?$CFs?8?5not?5available?$AA@ 0000000180098228     SDL_audio.obj
 0002:00009248       ??_C@_0BK@FMHDHGOG@No?5available?5audio?5device?$AA@ 0000000180098248     SDL_audio.obj
 0002:00009268       ??_C@_0CD@HHOELEPA@Audio?5subsystem?5is?5not?5initializ@ 0000000180098268     SDL_audio.obj
 0002:00009290       ??_C@_0BD@GHPKDOM@No?5capture?5support?$AA@ 0000000180098290     SDL_audio.obj
 0002:000092a8       ??_C@_0BM@FHCHCIML@System?5audio?5capture?5device?$AA@ 00000001800982a8     SDL_audio.obj
 0002:000092c8       ??_C@_0BL@ICFJNBDI@System?5audio?5output?5device?$AA@ 00000001800982c8     SDL_audio.obj
 0002:000092e8       ??_C@_0P@NLEIANHE@No?5such?5device?$AA@ 00000001800982e8     SDL_audio.obj
 0002:000092f8       ??_C@_0CH@KOHFKNH@SDL_OpenAudio?$CI?$CJ?5passed?5a?5NULL?5ca@ 00000001800982f8     SDL_audio.obj
 0002:00009320       ??_C@_0BE@HHGJFOAF@SDL_AUDIO_FREQUENCY?$AA@ 0000000180098320     SDL_audio.obj
 0002:00009338       ??_C@_0BB@DLGECLFP@SDL_AUDIO_FORMAT?$AA@ 0000000180098338     SDL_audio.obj
 0002:00009350       ??_C@_0BD@IDIMOGAM@SDL_AUDIO_CHANNELS?$AA@ 0000000180098350     SDL_audio.obj
 0002:00009368       ??_C@_0CG@MFNBOJNE@Unsupported?5number?5of?5audio?5chan@ 0000000180098368     SDL_audio.obj
 0002:00009390       ??_C@_0BC@ILGDJACM@SDL_AUDIO_SAMPLES?$AA@ 0000000180098390     SDL_audio.obj
 0002:000093a8       ??_C@_0BG@KLPMJNAK@SDL_AUDIO_DEVICE_NAME?$AA@ 00000001800983a8     SDL_audio.obj
 0002:000093c0       ??_C@_0BK@NMAHONFG@Audio?5device?5already?5open?$AA@ 00000001800983c0     SDL_audio.obj
 0002:000093e0       ??_C@_0BL@JMFAHGBA@Couldn?8t?5create?5mixer?5lock?$AA@ 00000001800983e0     SDL_audio.obj
 0002:00009400       ??_C@_0BM@EMKILBGE@Too?5many?5open?5audio?5devices?$AA@ 0000000180098400     SDL_audio.obj
 0002:00009420       ??_C@_0O@DNFINDFK@SDLAudioDev?$CFd?$AA@ 0000000180098420     SDL_audio.obj
 0002:00009430       ??_C@_0BN@DPLMHEIO@Couldn?8t?5create?5audio?5thread?$AA@ 0000000180098430     SDL_audio.obj
 0002:00009450       ??_C@_0BP@FIICIEOD@Audio?5device?5is?5already?5opened?$AA@ 0000000180098450     SDL_audio.obj
 0002:00009470       ??_C@_0CD@DJIMOKAG@No?5buffer?5allocated?5for?5conversi@ 0000000180098470     SDL_audiocvt.obj
 0002:00009498       ??_C@_0CK@HCBIOFFL@No?5conversion?5available?5for?5thes@ 0000000180098498     SDL_audiocvt.obj
 0002:000094c8       ??_C@_0CI@HLMOJNNO@No?5conversion?5available?5for?5thes@ 00000001800984c8     SDL_audiocvt.obj
 0002:000094f0       ??_C@_03OMAHNABO@cvt?$AA@  00000001800984f0     SDL_audiocvt.obj
 0002:000094f8       ??_C@_0BK@OFPBKIMP@Parameter?5?8?$CFs?8?5is?5invalid?$AA@ 00000001800984f8     SDL_audiocvt.obj
 0002:00009518       ??_C@_0BG@NBOKNCDG@Invalid?5source?5format?$AA@ 0000000180098518     SDL_audiocvt.obj
 0002:00009530       ??_C@_0BL@COJNMENJ@Invalid?5destination?5format?$AA@ 0000000180098530     SDL_audiocvt.obj
 0002:00009550       ??_C@_0CH@MHFJAAGB@Source?5or?5destination?5channels?5i@ 0000000180098550     SDL_audiocvt.obj
 0002:00009578       ??_C@_0CD@IJPPMKEJ@Source?5or?5destination?5rate?5is?5ze@ 0000000180098578     SDL_audiocvt.obj
 0002:000095a0       ??_C@_0CF@KCBIJDPI@SDL_MixAudio?$CI?$CJ?3?5unknown?5audio?5fo@ 00000001800985a0     SDL_mixer.obj
 0002:000095c8       ??_C@_0CF@NFKCBAOA@Unknown?5set?5of?5MS_ADPCM?5coeffici@ 00000001800985c8     SDL_wave.obj
 0002:000095f0       ??_C@_0CO@DHPDNJHB@IMA?5ADPCM?5decoder?5can?5only?5handl@ 00000001800985f0     SDL_wave.obj
 0002:00009620       ??_C@_0CC@BJEGLMJD@Unrecognized?5file?5type?5?$CInot?5WAVE@ 0000000180098620     SDL_wave.obj
 0002:00009648       ??_C@_0CB@EABBOIIL@Complex?5WAVE?5files?5not?5supported@ 0000000180098648     SDL_wave.obj
 0002:00009670       ??_C@_0CA@JEIHHJCP@MPEG?5Layer?53?5data?5not?5supported?$AA@ 0000000180098670     SDL_wave.obj
 0002:00009690       ??_C@_0CB@EHGDPNNH@Unknown?5WAVE?5data?5format?3?50x?$CF?44x@ 0000000180098690     SDL_wave.obj
 0002:000096b8       ??_C@_0BP@ILCMBFOC@Unknown?5?$CFd?9bit?5PCM?5data?5format?$AA@ 00000001800986b8     SDL_wave.obj
 0002:000096d8       ??_C@_07NBCGADJA@Unknown?$AA@ 00000001800986d8     SDL_cpuinfo.obj
 0002:000096e0       ??_C@_0N@BDDFKIGD@GenuineIntel?$AA@ 00000001800986e0     SDL_cpuinfo.obj
 0002:000096f0       ??_C@_0N@FFJGBINN@AuthenticAMD?$AA@ 00000001800986f0     SDL_cpuinfo.obj
 0002:00009700       ??_C@_0CA@KEFOKNGF@Event?5queue?5is?5full?5?$CI?$CFd?5events?$CJ?$AA@ 0000000180098700     SDL_events.obj
 0002:00009720       ??_C@_0CE@CDPBMIFK@The?5event?5system?5has?5been?5shut?5d@ 0000000180098720     SDL_events.obj
 0002:00009748       ??_C@_0BK@HJKEJEPM@Couldn?8t?5lock?5event?5queue?$AA@ 0000000180098748     SDL_events.obj
 0002:00009768       ??_C@_0BC@PJPPNBHC@Unknown?5gestureId?$AA@ 0000000180098768     SDL_gesture.obj
 0002:00009780       ??_C@_0BH@INDOOHAJ@ERROR?3?5NumPoints?5?$DN?5?$CFi?6?$AA@ 0000000180098780     SDL_gesture.obj
 0002:00009798       ??_C@_05PFDOMJEF@Sleep?$AA@ 0000000180098798     SDL_keyboard.obj
 0002:000097a0       ??_C@_05MPBAGENF@Eject?$AA@ 00000001800987a0     SDL_keyboard.obj
 0002:000097a8       ??_C@_0L@MAOELAJE@KBDIllumUp?$AA@ 00000001800987a8     SDL_keyboard.obj
 0002:000097b8       ??_C@_0N@CBHGPNHB@KBDIllumDown?$AA@ 00000001800987b8     SDL_keyboard.obj
 0002:000097c8       ??_C@_0P@NGFJAOAA@KBDIllumToggle?$AA@ 00000001800987c8     SDL_keyboard.obj
 0002:000097d8       ??_C@_0O@PCMNKMED@DisplaySwitch?$AA@ 00000001800987d8     SDL_keyboard.obj
 0002:000097e8       ??_C@_0N@DDCICAAF@BrightnessUp?$AA@ 00000001800987e8     SDL_keyboard.obj
 0002:000097f8       ??_C@_0P@LJCDCGKC@BrightnessDown?$AA@ 00000001800987f8     SDL_keyboard.obj
 0002:00009808       ??_C@_0N@FJIAAMPO@AC?5Bookmarks?$AA@ 0000000180098808     SDL_keyboard.obj
 0002:00009818       ??_C@_0L@BAJLEOLK@AC?5Refresh?$AA@ 0000000180098818     SDL_keyboard.obj
 0002:00009828       ??_C@_07PKPPPPAM@AC?5Stop?$AA@ 0000000180098828     SDL_keyboard.obj
 0002:00009830       ??_C@_0L@DOKIFDLE@AC?5Forward?$AA@ 0000000180098830     SDL_keyboard.obj
 0002:00009840       ??_C@_07GAJENEGN@AC?5Back?$AA@ 0000000180098840     SDL_keyboard.obj
 0002:00009848       ??_C@_07FOOGLLHL@AC?5Home?$AA@ 0000000180098848     SDL_keyboard.obj
 0002:00009850       ??_C@_09LLLBGJHM@AC?5Search?$AA@ 0000000180098850     SDL_keyboard.obj
 0002:00009860       ??_C@_08JABLAMKL@Computer?$AA@ 0000000180098860     SDL_keyboard.obj
 0002:00009870       ??_C@_0L@NOCPEFKJ@Calculator?$AA@ 0000000180098870     SDL_keyboard.obj
 0002:0000987c       ??_C@_04JEGKNAHI@Mail?$AA@ 000000018009887c     SDL_keyboard.obj
 0002:00009884       ??_C@_03BEGIOEFO@WWW?$AA@  0000000180098884     SDL_keyboard.obj
 0002:00009888       ??_C@_0M@CEBELPBB@MediaSelect?$AA@ 0000000180098888     SDL_keyboard.obj
 0002:00009898       ??_C@_09NDOEPEEN@AudioMute?$AA@ 0000000180098898     SDL_keyboard.obj
 0002:000098a8       ??_C@_09JKBPIDKN@AudioPlay?$AA@ 00000001800988a8     SDL_keyboard.obj
 0002:000098b8       ??_C@_09JDEOBAEO@AudioStop?$AA@ 00000001800988b8     SDL_keyboard.obj
 0002:000098c8       ??_C@_09KKEIBHBC@AudioPrev?$AA@ 00000001800988c8     SDL_keyboard.obj
 0002:000098d8       ??_C@_09JOJOADHG@AudioNext?$AA@ 00000001800988d8     SDL_keyboard.obj
 0002:000098e8       ??_C@_0L@KDBMEDAD@ModeSwitch?$AA@ 00000001800988e8     SDL_keyboard.obj
 0002:000098f8       ??_C@_09CPFOEFGD@Right?5GUI?$AA@ 00000001800988f8     SDL_keyboard.obj
 0002:00009908       ??_C@_09ELGHIMBO@Right?5Alt?$AA@ 0000000180098908     SDL_keyboard.obj
 0002:00009918       ??_C@_0M@COKLDKMB@Right?5Shift?$AA@ 0000000180098918     SDL_keyboard.obj
 0002:00009928       ??_C@_0L@NIOMCOOG@Right?5Ctrl?$AA@ 0000000180098928     SDL_keyboard.obj
 0002:00009938       ??_C@_08ENEANEAC@Left?5GUI?$AA@ 0000000180098938     SDL_keyboard.obj
 0002:00009948       ??_C@_08CJHJBNHP@Left?5Alt?$AA@ 0000000180098948     SDL_keyboard.obj
 0002:00009958       ??_C@_0L@NFEFKBOL@Left?5Shift?$AA@ 0000000180098958     SDL_keyboard.obj
 0002:00009968       ??_C@_09OCDLGBLJ@Left?5Ctrl?$AA@ 0000000180098968     SDL_keyboard.obj
 0002:00009978       ??_C@_0BD@KBIBGAAO@Keypad?5Hexadecimal?$AA@ 0000000180098978     SDL_keyboard.obj
 0002:00009990       ??_C@_0P@MBNLDFOJ@Keypad?5Decimal?$AA@ 0000000180098990     SDL_keyboard.obj
 0002:000099a0       ??_C@_0N@PNIAGAOK@Keypad?5Octal?$AA@ 00000001800989a0     SDL_keyboard.obj
 0002:000099b0       ??_C@_0O@ECHLAKEG@Keypad?5Binary?$AA@ 00000001800989b0     SDL_keyboard.obj
 0002:000099c0       ??_C@_0BC@FKGMMPFP@Keypad?5ClearEntry?$AA@ 00000001800989c0     SDL_keyboard.obj
 0002:000099d8       ??_C@_0N@DEPGDIGF@Keypad?5Clear?$AA@ 00000001800989d8     SDL_keyboard.obj
 0002:000099e8       ??_C@_0L@LNOCKNIG@Keypad?5?$CL?1?9?$AA@ 00000001800989e8     SDL_keyboard.obj
 0002:000099f8       ??_C@_0BB@LHCBCJFB@Keypad?5MemDivide?$AA@ 00000001800989f8     SDL_keyboard.obj
 0002:00009a10       ??_C@_0BD@DKCEJAEF@Keypad?5MemMultiply?$AA@ 0000000180098a10     SDL_keyboard.obj
 0002:00009a28       ??_C@_0BD@EPHONNOC@Keypad?5MemSubtract?$AA@ 0000000180098a28     SDL_keyboard.obj
 0002:00009a40       ??_C@_0O@MDKENMOE@Keypad?5MemAdd?$AA@ 0000000180098a40     SDL_keyboard.obj
 0002:00009a50       ??_C@_0BA@CEGPFMHP@Keypad?5MemClear?$AA@ 0000000180098a50     SDL_keyboard.obj
 0002:00009a60       ??_C@_0BB@HGIIJKDC@Keypad?5MemRecall?$AA@ 0000000180098a60     SDL_keyboard.obj
 0002:00009a78       ??_C@_0BA@DHHPLHM@Keypad?5MemStore?$AA@ 0000000180098a78     SDL_keyboard.obj
 0002:00009a88       ??_C@_08LCMCNMH@Keypad?5?$CB?$AA@ 0000000180098a88     SDL_keyboard.obj
 0002:00009a98       ??_C@_08HHMKHHCB@Keypad?5?$EA?$AA@ 0000000180098a98     SDL_keyboard.obj
 0002:00009aa8       ??_C@_0N@BLFFIHNC@Keypad?5Space?$AA@ 0000000180098aa8     SDL_keyboard.obj
 0002:00009ab8       ??_C@_08DJBKEPEF@Keypad?5?$CD?$AA@ 0000000180098ab8     SDL_keyboard.obj
 0002:00009ac8       ??_C@_08KCBKOGFN@Keypad?5?3?$AA@ 0000000180098ac8     SDL_keyboard.obj
 0002:00009ad8       ??_C@_09OCOFPACH@Keypad?5?$HM?$HM?$AA@ 0000000180098ad8     SDL_keyboard.obj
 0002:00009ae8       ??_C@_08EDJAONO@Keypad?5?$HM?$AA@ 0000000180098ae8     SDL_keyboard.obj
 0002:00009af8       ??_C@_09MDJKOOJP@Keypad?5?$CG?$CG?$AA@ 0000000180098af8     SDL_keyboard.obj
 0002:00009b08       ??_C@_08EEGNLLAA@Keypad?5?$CG?$AA@ 0000000180098b08     SDL_keyboard.obj
 0002:00009b18       ??_C@_08MGHGCDFJ@Keypad?5?$DO?$AA@ 0000000180098b18     SDL_keyboard.obj
 0002:00009b28       ??_C@_08PEEAEBNL@Keypad?5?$DM?$AA@ 0000000180098b28     SDL_keyboard.obj
 0002:00009b38       ??_C@_08GPEAOIMD@Keypad?5?$CF?$AA@ 0000000180098b38     SDL_keyboard.obj
 0002:00009b48       ??_C@_08KDILEIPO@Keypad?5?$FO?$AA@ 0000000180098b48     SDL_keyboard.obj
 0002:00009b58       ??_C@_0L@CEBIAMON@Keypad?5XOR?$AA@ 0000000180098b58     SDL_keyboard.obj
 0002:00009b68       ??_C@_08CBJANAKH@Keypad?5F?$AA@ 0000000180098b68     SDL_keyboard.obj
 0002:00009b78       ??_C@_08KLNIDGE@Keypad?5E?$AA@ 0000000180098b78     SDL_keyboard.obj
 0002:00009b88       ??_C@_08BDKGLCCF@Keypad?5D?$AA@ 0000000180098b88     SDL_keyboard.obj
 0002:00009b98       ??_C@_08FMOHCEOC@Keypad?5C?$AA@ 0000000180098b98     SDL_keyboard.obj
 0002:00009ba8       ??_C@_08EFPMBFKD@Keypad?5B?$AA@ 0000000180098ba8     SDL_keyboard.obj
 0002:00009bb8       ??_C@_08GONBEGGA@Keypad?5A?$AA@ 0000000180098bb8     SDL_keyboard.obj
 0002:00009bc8       ??_C@_0BB@NKEPJCKA@Keypad?5Backspace?$AA@ 0000000180098bc8     SDL_keyboard.obj
 0002:00009be0       ??_C@_0L@IDFLOOEM@Keypad?5Tab?$AA@ 0000000180098be0     SDL_keyboard.obj
 0002:00009bf0       ??_C@_08BNCCDPJP@Keypad?5?$HN?$AA@ 0000000180098bf0     SDL_keyboard.obj
 0002:00009c00       ??_C@_08ELHIJIBJ@Keypad?5?$HL?$AA@ 0000000180098c00     SDL_keyboard.obj
 0002:00009c10       ??_C@_08MDPFKHMP@Keypad?5?$CJ?$AA@ 0000000180098c10     SDL_keyboard.obj
 0002:00009c20       ??_C@_08NKOOJGIO@Keypad?5?$CI?$AA@ 0000000180098c20     SDL_keyboard.obj
 0002:00009c30       ??_C@_0BA@CDJJGJFH@CurrencySubUnit?$AA@ 0000000180098c30     SDL_keyboard.obj
 0002:00009c40       ??_C@_0N@HKGOPMKO@CurrencyUnit?$AA@ 0000000180098c40     SDL_keyboard.obj
 0002:00009c50       ??_C@_0BB@BHEJKAFH@DecimalSeparator?$AA@ 0000000180098c50     SDL_keyboard.obj
 0002:00009c68       ??_C@_0BD@FBEEJGMN@ThousandsSeparator?$AA@ 0000000180098c68     SDL_keyboard.obj
 0002:00009c80       ??_C@_0L@NCOMPFEJ@Keypad?5000?$AA@ 0000000180098c80     SDL_keyboard.obj
 0002:00009c90       ??_C@_09MHKJIEIK@Keypad?500?$AA@ 0000000180098c90     SDL_keyboard.obj
 0002:00009c9c       ??_C@_05IGOGODKB@ExSel?$AA@ 0000000180098c9c     SDL_keyboard.obj
 0002:00009ca4       ??_C@_05BKAPBIBN@CrSel?$AA@ 0000000180098ca4     SDL_keyboard.obj
 0002:00009cb0       ??_C@_0O@OJCMKPED@Clear?5?1?5Again?$AA@ 0000000180098cb0     SDL_keyboard.obj
 0002:00009cc0       ??_C@_04NLFEHFFJ@Oper?$AA@ 0000000180098cc0     SDL_keyboard.obj
 0002:00009cc8       ??_C@_03EKFHOMB@Out?$AA@   0000000180098cc8     SDL_keyboard.obj
 0002:00009cd0       ??_C@_09IBFEOKHN@Separator?$AA@ 0000000180098cd0     SDL_keyboard.obj
 0002:00009cdc       ??_C@_05NJANMKOE@Prior?$AA@ 0000000180098cdc     SDL_keyboard.obj
 0002:00009ce4       ??_C@_05MDNHABIA@Clear?$AA@ 0000000180098ce4     SDL_keyboard.obj
 0002:00009cec       ??_C@_06FMBNCPDL@Cancel?$AA@ 0000000180098cec     SDL_keyboard.obj
 0002:00009cf4       ??_C@_06PLMNJDOI@SysReq?$AA@ 0000000180098cf4     SDL_keyboard.obj
 0002:00009d00       ??_C@_08FOFMEMCE@AltErase?$AA@ 0000000180098d00     SDL_keyboard.obj
 0002:00009d10       ??_C@_0BB@OAIGOAAA@Keypad?5?$DN?5?$CIAS400?$CJ?$AA@ 0000000180098d10     SDL_keyboard.obj
 0002:00009d28       ??_C@_08LOICFDIK@Keypad?5?0?$AA@ 0000000180098d28     SDL_keyboard.obj
 0002:00009d38       ??_C@_0L@KMNGHJCB@VolumeDown?$AA@ 0000000180098d38     SDL_keyboard.obj
 0002:00009d48       ??_C@_08COJOPKDJ@VolumeUp?$AA@ 0000000180098d48     SDL_keyboard.obj
 0002:00009d54       ??_C@_04IOCNJLNK@Mute?$AA@ 0000000180098d54     SDL_keyboard.obj
 0002:00009d5c       ??_C@_04OLJIFFAL@Find?$AA@ 0000000180098d5c     SDL_keyboard.obj
 0002:00009d64       ??_C@_05NEBJFIEK@Paste?$AA@ 0000000180098d64     SDL_keyboard.obj
 0002:00009d6c       ??_C@_04OPMHGHMB@Copy?$AA@ 0000000180098d6c     SDL_keyboard.obj
 0002:00009d74       ??_C@_03EOHDMBHJ@Cut?$AA@  0000000180098d74     SDL_keyboard.obj
 0002:00009d78       ??_C@_04LPGMNMPN@Undo?$AA@ 0000000180098d78     SDL_keyboard.obj
 0002:00009d80       ??_C@_05JOMJAKCI@Again?$AA@ 0000000180098d80     SDL_keyboard.obj
 0002:00009d88       ??_C@_04MOIHHPNJ@Stop?$AA@ 0000000180098d88     SDL_keyboard.obj
 0002:00009d90       ??_C@_06HJGPBJLE@Select?$AA@ 0000000180098d90     SDL_keyboard.obj
 0002:00009d98       ??_C@_04IFEHPILC@Menu?$AA@ 0000000180098d98     SDL_keyboard.obj
 0002:00009da0       ??_C@_04DDFEFHOJ@Help?$AA@ 0000000180098da0     SDL_keyboard.obj
 0002:00009da8       ??_C@_07LFBPOOOH@Execute?$AA@ 0000000180098da8     SDL_keyboard.obj
 0002:00009db0       ??_C@_03PMABOFAL@F24?$AA@  0000000180098db0     SDL_keyboard.obj
 0002:00009db4       ??_C@_03LDEAHDMM@F23?$AA@  0000000180098db4     SDL_keyboard.obj
 0002:00009db8       ??_C@_03KKFLECIN@F22?$AA@  0000000180098db8     SDL_keyboard.obj
 0002:00009dbc       ??_C@_03IBHGBBEO@F21?$AA@  0000000180098dbc     SDL_keyboard.obj
 0002:00009dc0       ??_C@_03JIGNCAAP@F20?$AA@  0000000180098dc0     SDL_keyboard.obj
 0002:00009dc4       ??_C@_03ELOJCFBP@F19?$AA@  0000000180098dc4     SDL_keyboard.obj
 0002:00009dc8       ??_C@_03FCPCBEFO@F18?$AA@  0000000180098dc8     SDL_keyboard.obj
 0002:00009dcc       ??_C@_03NFGKAIJB@F17?$AA@  0000000180098dcc     SDL_keyboard.obj
 0002:00009dd0       ??_C@_03MMHBDJNA@F16?$AA@  0000000180098dd0     SDL_keyboard.obj
 0002:00009dd4       ??_C@_03OHFMGKBD@F15?$AA@  0000000180098dd4     SDL_keyboard.obj
 0002:00009dd8       ??_C@_03POEHFLFC@F14?$AA@  0000000180098dd8     SDL_keyboard.obj
 0002:00009ddc       ??_C@_03LBAGMNJF@F13?$AA@  0000000180098ddc     SDL_keyboard.obj
 0002:00009de0       ??_C@_08ONFLHAJK@Keypad?5?$DN?$AA@ 0000000180098de0     SDL_keyboard.obj
 0002:00009dec       ??_C@_05PMCMDMKN@Power?$AA@ 0000000180098dec     SDL_keyboard.obj
 0002:00009df8       ??_C@_0M@NJALGCHB@Application?$AA@ 0000000180098df8     SDL_keyboard.obj
 0002:00009e08       ??_C@_08IMLEDBAI@Keypad?5?4?$AA@ 0000000180098e08     SDL_keyboard.obj
 0002:00009e18       ??_C@_08FIPFAONH@Keypad?50?$AA@ 0000000180098e18     SDL_keyboard.obj
 0002:00009e28       ??_C@_08IJDHLFJO@Keypad?59?$AA@ 0000000180098e28     SDL_keyboard.obj
 0002:00009e38       ??_C@_08JACMIENP@Keypad?58?$AA@ 0000000180098e38     SDL_keyboard.obj
 0002:00009e48       ??_C@_08BHLEJIBA@Keypad?57?$AA@ 0000000180098e48     SDL_keyboard.obj
 0002:00009e58       ??_C@_08OKPKJFB@Keypad?56?$AA@ 0000000180098e58     SDL_keyboard.obj
 0002:00009e68       ??_C@_08CFICPKJC@Keypad?55?$AA@ 0000000180098e68     SDL_keyboard.obj
 0002:00009e78       ??_C@_08DMJJMLND@Keypad?54?$AA@ 0000000180098e78     SDL_keyboard.obj
 0002:00009e88       ??_C@_08HDNIFNBE@Keypad?53?$AA@ 0000000180098e88     SDL_keyboard.obj
 0002:00009e98       ??_C@_08GKMDGMFF@Keypad?52?$AA@ 0000000180098e98     SDL_keyboard.obj
 0002:00009ea8       ??_C@_08EBOODPJG@Keypad?51?$AA@ 0000000180098ea8     SDL_keyboard.obj
 0002:00009eb8       ??_C@_0N@HHMDBADO@Keypad?5Enter?$AA@ 0000000180098eb8     SDL_keyboard.obj
 0002:00009ec8       ??_C@_08PBMDMFEN@Keypad?5?$CL?$AA@ 0000000180098ec8     SDL_keyboard.obj
 0002:00009ed8       ??_C@_08KHJJGCML@Keypad?5?9?$AA@ 0000000180098ed8     SDL_keyboard.obj
 0002:00009ee8       ??_C@_08OINIPEAM@Keypad?5?$CK?$AA@ 0000000180098ee8     SDL_keyboard.obj
 0002:00009ef8       ??_C@_08JFKPAAEJ@Keypad?5?1?$AA@ 0000000180098ef8     SDL_keyboard.obj
 0002:00009f08       ??_C@_07FPOPKJEN@Numlock?$AA@ 0000000180098f08     SDL_keyboard.obj
 0002:00009f10       ??_C@_02EFPGLDEA@Up?$AA@   0000000180098f10     SDL_keyboard.obj
 0002:00009f14       ??_C@_04FNCLCJMC@Down?$AA@ 0000000180098f14     SDL_keyboard.obj
 0002:00009f1c       ??_C@_04KPCPLBPL@Left?$AA@ 0000000180098f1c     SDL_keyboard.obj
 0002:00009f24       ??_C@_05DADPALEM@Right?$AA@ 0000000180098f24     SDL_keyboard.obj
 0002:00009f30       ??_C@_08FDLMHKA@PageDown?$AA@ 0000000180098f30     SDL_keyboard.obj
 0002:00009f3c       ??_C@_03DBKJMAGF@End?$AA@  0000000180098f3c     SDL_keyboard.obj
 0002:00009f40       ??_C@_06JBKGCNBB@Delete?$AA@ 0000000180098f40     SDL_keyboard.obj
 0002:00009f48       ??_C@_06OAEMCMAI@PageUp?$AA@ 0000000180098f48     SDL_keyboard.obj
 0002:00009f50       ??_C@_04GKJODLKO@Home?$AA@ 0000000180098f50     SDL_keyboard.obj
 0002:00009f58       ??_C@_06CPFCODOD@Insert?$AA@ 0000000180098f58     SDL_keyboard.obj
 0002:00009f60       ??_C@_05PEDNBBBD@Pause?$AA@ 0000000180098f60     SDL_keyboard.obj
 0002:00009f68       ??_C@_0L@JJJEGPLJ@ScrollLock?$AA@ 0000000180098f68     SDL_keyboard.obj
 0002:00009f78       ??_C@_0M@CJIDBHOK@PrintScreen?$AA@ 0000000180098f78     SDL_keyboard.obj
 0002:00009f84       ??_C@_03KIBNPMNE@F12?$AA@  0000000180098f84     SDL_keyboard.obj
 0002:00009f88       ??_C@_03IDDAKPBH@F11?$AA@  0000000180098f88     SDL_keyboard.obj
 0002:00009f8c       ??_C@_03JKCLJOFG@F10?$AA@  0000000180098f8c     SDL_keyboard.obj
 0002:00009f90       ??_C@_02HKCNFKCF@F9?$AA@   0000000180098f90     SDL_keyboard.obj
 0002:00009f94       ??_C@_02GDDGGLGE@F8?$AA@   0000000180098f94     SDL_keyboard.obj
 0002:00009f98       ??_C@_02OEKOHHKL@F7?$AA@   0000000180098f98     SDL_keyboard.obj
 0002:00009f9c       ??_C@_02PNLFEGOK@F6?$AA@   0000000180098f9c     SDL_keyboard.obj
 0002:00009fa0       ??_C@_02NGJIBFCJ@F5?$AA@   0000000180098fa0     SDL_keyboard.obj
 0002:00009fa4       ??_C@_02MPIDCEGI@F4?$AA@   0000000180098fa4     SDL_keyboard.obj
 0002:00009fa8       ??_C@_02IAMCLCKP@F3?$AA@   0000000180098fa8     SDL_keyboard.obj
 0002:00009fac       ??_C@_02JJNJIDOO@F2?$AA@   0000000180098fac     SDL_keyboard.obj
 0002:00009fb0       ??_C@_02LCPENACN@F1?$AA@   0000000180098fb0     SDL_keyboard.obj
 0002:00009fb8       ??_C@_08LBKIEOPK@CapsLock?$AA@ 0000000180098fb8     SDL_keyboard.obj
 0002:00009fc4       ??_C@_01KMDKNFGN@?1?$AA@   0000000180098fc4     SDL_keyboard.obj
 0002:00009fc8       ??_C@_01LFCBOECM@?4?$AA@   0000000180098fc8     SDL_keyboard.obj
 0002:00009fcc       ??_C@_01IHBHIGKO@?0?$AA@   0000000180098fcc     SDL_keyboard.obj
 0002:00009fd0       ??_C@_01NLNLIGKH@?$GA?$AA@ 0000000180098fd0     SDL_keyboard.obj
 0002:00009fd4       ??_C@_01GEODFPGF@?8?$AA@   0000000180098fd4     SDL_keyboard.obj
 0002:00009fd8       ??_C@_01ICJEACDI@?$DL?$AA@ 0000000180098fd8     SDL_keyboard.obj
 0002:00009fdc       ??_C@_01IPJKGB@?$CD?$AA@   0000000180098fdc     SDL_keyboard.obj
 0002:00009fe0       ??_C@_01KICIPPFI@?2?$AA@   0000000180098fe0     SDL_keyboard.obj
 0002:00009fe4       ??_C@_01LBDDMOBJ@?$FN?$AA@ 0000000180098fe4     SDL_keyboard.obj
 0002:00009fe8       ??_C@_01OHGJGJJP@?$FL?$AA@ 0000000180098fe8     SDL_keyboard.obj
 0002:00009fec       ??_C@_01NEMOKFLO@?$DN?$AA@ 0000000180098fec     SDL_keyboard.obj
 0002:00009ff0       ??_C@_01JOAMLHOP@?9?$AA@   0000000180098ff0     SDL_keyboard.obj
 0002:00009ff4       ??_C@_05OMHELODH@Space?$AA@ 0000000180098ff4     SDL_keyboard.obj
 0002:00009ffc       ??_C@_03IEAKBACE@Tab?$AA@  0000000180098ffc     SDL_keyboard.obj
 0002:0000a000       ??_C@_09LPBCIPOJ@Backspace?$AA@ 0000000180099000     SDL_keyboard.obj
 0002:0000a00c       ??_C@_06OIGFGPHJ@Escape?$AA@ 000000018009900c     SDL_keyboard.obj
 0002:0000a014       ??_C@_06HCFIKKEA@Return?$AA@ 0000000180099014     SDL_keyboard.obj
 0002:0000a01c       ??_C@_01GBGANLPD@0?$AA@    000000018009901c     SDL_keyboard.obj
 0002:0000a020       ??_C@_01LAKCGALK@9?$AA@    0000000180099020     SDL_keyboard.obj
 0002:0000a024       ??_C@_01KJLJFBPL@8?$AA@    0000000180099024     SDL_keyboard.obj
 0002:0000a028       ??_C@_01COCBENDE@7?$AA@    0000000180099028     SDL_keyboard.obj
 0002:0000a02c       ??_C@_01DHDKHMHF@6?$AA@    000000018009902c     SDL_keyboard.obj
 0002:0000a030       ??_C@_01BMBHCPLG@5?$AA@    0000000180099030     SDL_keyboard.obj
 0002:0000a034       ??_C@_01FAMBOPH@4?$AA@     0000000180099034     SDL_keyboard.obj
 0002:0000a038       ??_C@_01EKENIIDA@3?$AA@    0000000180099038     SDL_keyboard.obj
 0002:0000a03c       ??_C@_01FDFGLJHB@2?$AA@    000000018009903c     SDL_keyboard.obj
 0002:0000a040       ??_C@_01HIHLOKLC@1?$AA@    0000000180099040     SDL_keyboard.obj
 0002:0000a044       ??_C@_01POHCFINO@Z?$AA@    0000000180099044     SDL_keyboard.obj
 0002:0000a048       ??_C@_01NFFPALBN@Y?$AA@    0000000180099048     SDL_keyboard.obj
 0002:0000a04c       ??_C@_01MMEEDKFM@X?$AA@    000000018009904c     SDL_keyboard.obj
 0002:0000a050       ??_C@_01ELNMCGJD@W?$AA@    0000000180099050     SDL_keyboard.obj
 0002:0000a054       ??_C@_01FCMHBHNC@V?$AA@    0000000180099054     SDL_keyboard.obj
 0002:0000a058       ??_C@_01HJOKEEBB@U?$AA@    0000000180099058     SDL_keyboard.obj
 0002:0000a05c       ??_C@_01GAPBHFFA@T?$AA@    000000018009905c     SDL_keyboard.obj
 0002:0000a060       ??_C@_01CPLAODJH@S?$AA@    0000000180099060     SDL_keyboard.obj
 0002:0000a064       ??_C@_01DGKLNCNG@R?$AA@    0000000180099064     SDL_keyboard.obj
 0002:0000a068       ??_C@_01BNIGIBBF@Q?$AA@    0000000180099068     SDL_keyboard.obj
 0002:0000a06c       ??_C@_01EJNLAFE@P?$AA@     000000018009906c     SDL_keyboard.obj
 0002:0000a070       ??_C@_01MJMHLOMK@O?$AA@    0000000180099070     SDL_keyboard.obj
 0002:0000a074       ??_C@_01NANMIPIL@N?$AA@    0000000180099074     SDL_keyboard.obj
 0002:0000a078       ??_C@_01PLPBNMEI@M?$AA@    0000000180099078     SDL_keyboard.obj
 0002:0000a07c       ??_C@_01OCOKONAJ@L?$AA@    000000018009907c     SDL_keyboard.obj
 0002:0000a080       ??_C@_01KNKLHLMO@K?$AA@    0000000180099080     SDL_keyboard.obj
 0002:0000a084       ??_C@_01LELAEKIP@J?$AA@    0000000180099084     SDL_keyboard.obj
 0002:0000a088       ??_C@_01JPJNBJEM@I?$AA@    0000000180099088     SDL_keyboard.obj
 0002:0000a08c       ??_C@_01IGIGCIAN@H?$AA@    000000018009908c     SDL_keyboard.obj
 0002:0000a090       ??_C@_01BBODEMC@G?$AA@     0000000180099090     SDL_keyboard.obj
 0002:0000a094       ??_C@_01BIAFAFID@F?$AA@    0000000180099094     SDL_keyboard.obj
 0002:0000a098       ??_C@_01DDCIFGEA@E?$AA@    0000000180099098     SDL_keyboard.obj
 0002:0000a09c       ??_C@_01CKDDGHAB@D?$AA@    000000018009909c     SDL_keyboard.obj
 0002:0000a0a0       ??_C@_01GFHCPBMG@C?$AA@    00000001800990a0     SDL_keyboard.obj
 0002:0000a0a4       ??_C@_01HMGJMAIH@B?$AA@    00000001800990a4     SDL_keyboard.obj
 0002:0000a0a8       ??_C@_01FHEEJDEE@A?$AA@    00000001800990a8     SDL_keyboard.obj
 0002:0000a0b0       ??_C@_08HLAAIMLE@scancode?$AA@ 00000001800990b0     SDL_keyboard.obj
 0002:0000a0b9       ??_C@_00CNPNBAHC@?$AA@     00000001800990b9     SDL_keyboard.obj
 0002:0000a0bc       ??_C@_04MEMAJGDJ@name?$AA@ 00000001800990bc     SDL_keyboard.obj
 0002:0000a0c8       ??_C@_0BL@BGKPDNAH@Passed?5NULL?5cursor?5surface?$AA@ 00000001800990c8     SDL_mouse.obj
 0002:0000a0e8       ??_C@_0CE@ONCGMING@Cursors?5are?5not?5currently?5suppor@ 00000001800990e8     SDL_mouse.obj
 0002:0000a110       ??_C@_0CK@FOGGMOIE@Cursor?5hot?5spot?5doesn?8t?5lie?5with@ 0000000180099110     SDL_mouse.obj
 0002:0000a140       ??_C@_0CO@KIADCPBM@CreateSystemCursor?5is?5not?5curren@ 0000000180099140     SDL_mouse.obj
 0002:0000a170       ??_C@_0CN@KHNBINHD@Cursor?5not?5associated?5with?5the?5c@ 0000000180099170     SDL_mouse.obj
 0002:0000a1a0       ??_C@_0BF@LOOJNMCH@Unknown?5touch?5device?$AA@ 00000001800991a0     SDL_touch.obj
 0002:0000a1b8       ??_C@_0BF@OPPFFOCB@Unknown?5touch?5finger?$AA@ 00000001800991b8     SDL_touch.obj
 0002:0000a1d0       ??_C@_05EGJIMALK@UTF?98?$AA@ 00000001800991d0     SDL_rwops.obj
 0002:0000a1d8       ??_C@_08NBDJLNFA@UTF?916LE?$AA@ 00000001800991d8     SDL_rwops.obj
 0002:0000a1e8       ??_C@_0BB@MAHHKGJO@Couldn?8t?5open?5?$CFs?$AA@ 00000001800991e8     SDL_rwops.obj
 0002:0000a200       ??_C@_0DD@BONPLNKB@windows_file_size?3?5invalid?5conte@ 0000000180099200     SDL_rwops.obj
 0002:0000a238       ??_C@_0BC@OALHGCKK@windows_file_size?$AA@ 0000000180099238     SDL_rwops.obj
 0002:0000a250       ??_C@_0DD@GHOJGNAN@windows_file_seek?3?5invalid?5conte@ 0000000180099250     SDL_rwops.obj
 0002:0000a288       ??_C@_0CO@KPOKANFC@windows_file_seek?3?5Unknown?5value@ 0000000180099288     SDL_rwops.obj
 0002:0000a2b8       ??_C@_0BC@CDJIBENB@windows_file_seek?$AA@ 00000001800992b8     SDL_rwops.obj
 0002:0000a2d0       ??_C@_0BL@POAIIGEL@Unknown?5value?5for?5?8whence?8?$AA@ 00000001800992d0     SDL_rwops.obj
 0002:0000a2f0       ??_C@_0CA@JBFLDJAJ@Can?8t?5write?5to?5read?9only?5memory?$AA@ 00000001800992f0     SDL_rwops.obj
 0002:0000a310       ??_C@_0CP@CEKLGBGL@SDL_RWFromFile?$CI?$CJ?3?5No?5file?5or?5no?5@ 0000000180099310     SDL_rwops.obj
 0002:0000a340       ??_C@_03IJLIBDBM@mem?$AA@  0000000180099340     SDL_rwops.obj
 0002:0000a344       ??_C@_04IAGNFIBA@size?$AA@ 0000000180099344     SDL_rwops.obj
 0002:0000a350       ??_C@_0CJ@CLGEGAH@Haptic?3?5Invalid?5haptic?5device?5id@ 0000000180099350     SDL_haptic.obj
 0002:0000a380       ??_C@_0CO@IDKAEOOL@Haptic?3?5There?5are?5?$CFd?5haptic?5devi@ 0000000180099380     SDL_haptic.obj
 0002:0000a3b0       ??_C@_0EB@ICAOBCMF@Haptic?3?5Trying?5to?5add?5device?5pas@ 00000001800993b0     SDL_haptic.obj
 0002:0000a3f8       ??_C@_0CF@OLEHEDKL@Haptic?3?5Mouse?5isn?8t?5a?5haptic?5dev@ 00000001800993f8     SDL_haptic.obj
 0002:0000a420       ??_C@_0BO@OPPLHOL@Haptic?3?5Joystick?5isn?8t?5valid?4?$AA@ 0000000180099420     SDL_haptic.obj
 0002:0000a440       ??_C@_0CI@CDHFKME@Haptic?3?5Joystick?5isn?8t?5a?5haptic?5@ 0000000180099440     SDL_haptic.obj
 0002:0000a468       ??_C@_0CP@DJECPABH@Haptic?3?5Effect?5not?5supported?5by?5@ 0000000180099468     SDL_haptic.obj
 0002:0000a498       ??_C@_0CH@ICMCFNE@Haptic?3?5Device?5has?5no?5free?5space@ 0000000180099498     SDL_haptic.obj
 0002:0000a4c0       ??_C@_0CD@IMHNJKEL@Haptic?3?5Invalid?5effect?5identifie@ 00000001800994c0     SDL_haptic.obj
 0002:0000a4e8       ??_C@_0CJ@MDADBPFK@Haptic?3?5Updating?5effect?5type?5is?5@ 00000001800994e8     SDL_haptic.obj
 0002:0000a518       ??_C@_0DA@NGHOOEAB@Haptic?3?5Device?5does?5not?5support?5@ 0000000180099518     SDL_haptic.obj
 0002:0000a548       ??_C@_0CO@PILDIIIE@Haptic?3?5Device?5does?5not?5support?5@ 0000000180099548     SDL_haptic.obj
 0002:0000a578       ??_C@_0CI@HILODHLA@Haptic?3?5Gain?5must?5be?5between?50?5a@ 0000000180099578     SDL_haptic.obj
 0002:0000a5a0       ??_C@_0BE@FBEGKDN@SDL_HAPTIC_GAIN_MAX?$AA@ 00000001800995a0     SDL_haptic.obj
 0002:0000a5b8       ??_C@_0DE@IBKOEMEL@Haptic?3?5Device?5does?5not?5support?5@ 00000001800995b8     SDL_haptic.obj
 0002:0000a5f0       ??_C@_0CO@HOBGEPK@Haptic?3?5Autocenter?5must?5be?5betwe@ 00000001800995f0     SDL_haptic.obj
 0002:0000a620       ??_C@_0DB@OHCMFLHG@Haptic?3?5Device?5does?5not?5support?5@ 0000000180099620     SDL_haptic.obj
 0002:0000a658       ??_C@_0BO@DIDGIBMF@Device?5doesn?8t?5support?5rumble?$AA@ 0000000180099658     SDL_haptic.obj
 0002:0000a678       ??_C@_0DH@CCBEHCBA@Haptic?3?5Rumble?5effect?5not?5initia@ 0000000180099678     SDL_haptic.obj
 0002:0000a6b0       ??_C@_07FLLKAONK@dpright?$AA@ 00000001800996b0     SDL_gamecontroller.obj
 0002:0000a6b8       ??_C@_06EBHLNDKL@dpleft?$AA@ 00000001800996b8     SDL_gamecontroller.obj
 0002:0000a6c0       ??_C@_06LDHPELJC@dpdown?$AA@ 00000001800996c0     SDL_gamecontroller.obj
 0002:0000a6c8       ??_C@_04EDFFKKLO@dpup?$AA@ 00000001800996c8     SDL_gamecontroller.obj
 0002:0000a6d0       ??_C@_0O@LCPOPKLJ@rightshoulder?$AA@ 00000001800996d0     SDL_gamecontroller.obj
 0002:0000a6e0       ??_C@_0N@MEFCLEJO@leftshoulder?$AA@ 00000001800996e0     SDL_gamecontroller.obj
 0002:0000a6f0       ??_C@_0L@DHLNGPDM@rightstick?$AA@ 00000001800996f0     SDL_gamecontroller.obj
 0002:0000a700       ??_C@_09MEKLKMGE@leftstick?$AA@ 0000000180099700     SDL_gamecontroller.obj
 0002:0000a70c       ??_C@_05FAGFPHJG@start?$AA@ 000000018009970c     SDL_gamecontroller.obj
 0002:0000a714       ??_C@_05HLIEEKJG@guide?$AA@ 0000000180099714     SDL_gamecontroller.obj
 0002:0000a71c       ??_C@_04JFCNHLLM@back?$AA@ 000000018009971c     SDL_gamecontroller.obj
 0002:0000a724       ??_C@_01EANLCPLP@y?$AA@    0000000180099724     SDL_gamecontroller.obj
 0002:0000a728       ??_C@_01FJMABOPO@x?$AA@    0000000180099728     SDL_gamecontroller.obj
 0002:0000a72c       ??_C@_01OJONOECF@b?$AA@    000000018009972c     SDL_gamecontroller.obj
 0002:0000a730       ??_C@_01MCMALHOG@a?$AA@    0000000180099730     SDL_gamecontroller.obj
 0002:0000a738       ??_C@_0N@CLKIAFGP@righttrigger?$AA@ 0000000180099738     SDL_gamecontroller.obj
 0002:0000a748       ??_C@_0M@FLKHLCCP@lefttrigger?$AA@ 0000000180099748     SDL_gamecontroller.obj
 0002:0000a754       ??_C@_06EOBKMJJD@righty?$AA@ 0000000180099754     SDL_gamecontroller.obj
 0002:0000a75c       ??_C@_06FHABPINC@rightx?$AA@ 000000018009975c     SDL_gamecontroller.obj
 0002:0000a764       ??_C@_05NDJBMDKM@lefty?$AA@ 0000000180099764     SDL_gamecontroller.obj
 0002:0000a76c       ??_C@_05MKIKPCON@leftx?$AA@ 000000018009976c     SDL_gamecontroller.obj
 0002:0000a780       ??_C@_0PD@JKKLOKNP@xinput?0X360?5Controller?0a?3b10?0b?3b@ 0000000180099780     SDL_gamecontroller.obj
 0002:0000a880       ??_C@_0BAO@FMMLNAN@25090500000000000000504944564944@ 0000000180099880     SDL_gamecontroller.obj
 0002:0000a990       ??_C@_0BAO@DNPAEFIG@4c056802000000000000504944564944@ 0000000180099990     SDL_gamecontroller.obj
 0002:0000aaa0       ??_C@_0BBC@GBLINCAN@88880803000000000000504944564944@ 0000000180099aa0     SDL_gamecontroller.obj
 0002:0000abc0       ??_C@_0BAP@HGGFDEDO@6d0419c2000000000000504944564944@ 0000000180099bc0     SDL_gamecontroller.obj
 0002:0000acd0       ??_C@_0BBI@NPKHGDHN@6d0416c2000000000000504944564944@ 0000000180099cd0     SDL_gamecontroller.obj
 0002:0000adf0       ??_C@_0BBB@LPODHOOC@ffff0000000000000000504944564944@ 0000000180099df0     SDL_gamecontroller.obj
 0002:0000af10       ??_C@_0BBM@ENNFIHLO@341a3608000000000000504944564944@ 0000000180099f10     SDL_gamecontroller.obj
 0002:0000b030       ??_C@_0BJ@MJGIDEEP@Axis?5index?5too?5large?3?5?$CFd?$AA@ 000000018009a030     SDL_gamecontroller.obj
 0002:0000b050       ??_C@_0BL@NCEBLBBK@Button?5index?5too?5large?3?5?$CFd?$AA@ 000000018009a050     SDL_gamecontroller.obj
 0002:0000b070       ??_C@_0BI@HJBNAHDG@Hat?5index?5too?5large?3?5?$CFd?$AA@ 000000018009a070     SDL_gamecontroller.obj
 0002:0000b088       ??_C@_0BK@CCMLICPB@Button?5name?5too?5large?3?5?$CFs?$AA@ 000000018009a088     SDL_gamecontroller.obj
 0002:0000b0a8       ??_C@_0CD@NANNFFFE@Joystick?5button?5name?5too?5large?3?5@ 000000018009a0a8     SDL_gamecontroller.obj
 0002:0000b0cc       ??_C@_06MGLLJPKG@xinput?$AA@ 000000018009a0cc     SDL_gamecontroller.obj
 0002:0000b0d8       ??_C@_08MCDBFJAE@?$CFs?0?$CFs?0?$CFs?$AA@ 000000018009a0d8     SDL_gamecontroller.obj
 0002:0000b0e8       ??_C@_0BJ@IJEKINBN@SDL_GAMECONTROLLERCONFIG?$AA@ 000000018009a0e8     SDL_gamecontroller.obj
 0002:0000b108       ??_C@_0CB@KCPNOAKL@There?5are?5?$CFd?5joysticks?5available@ 000000018009a108     SDL_gamecontroller.obj
 0002:0000b130       ??_C@_0CG@GBEAHDNE@Couldn?8t?5find?5mapping?5for?5device@ 000000018009a130     SDL_gamecontroller.obj
 0002:0000b158       ??_C@_0CF@GPJAGHLN@SDL_JOYSTICK_ALLOW_BACKGROUND_EV@ 000000018009a158     SDL_joystick.obj
 0002:0000b180       ??_C@_0CA@FCHBKHPL@Joystick?5hasn?8t?5been?5opened?5yet?$AA@ 000000018009a180     SDL_joystick.obj
 0002:0000b1a0       ??_C@_0BK@DOKCBDHC@Joystick?5only?5has?5?$CFd?5axes?$AA@ 000000018009a1a0     SDL_joystick.obj
 0002:0000b1c0       ??_C@_0BK@DEHKAFB@Joystick?5only?5has?5?$CFd?5hats?$AA@ 000000018009a1c0     SDL_joystick.obj
 0002:0000b1e0       ??_C@_0BL@DLDBLEKM@Joystick?5only?5has?5?$CFd?5balls?$AA@ 000000018009a1e0     SDL_joystick.obj
 0002:0000b200       ??_C@_0BN@LOKOHPBB@Joystick?5only?5has?5?$CFd?5buttons?$AA@ 000000018009a200     SDL_joystick.obj
 0002:0000b220       ??_C@_0CF@LNPFIFJC@index?5must?5be?5in?5the?5range?5of?50?5@ 000000018009a220     SDL_render.obj
 0002:0000b248       ??_C@_0P@ECEHCKEF@Invalid?5window?$AA@ 000000018009a248     SDL_render.obj
 0002:0000b258       ??_C@_0CI@NCMHHKLK@Renderer?5already?5associated?5with@ 000000018009a258     SDL_render.obj
 0002:0000b280       ??_C@_0BB@BNJAOAFB@SDL_RENDER_VSYNC?$AA@ 000000018009a280     SDL_render.obj
 0002:0000b298       ??_C@_0BC@FOCBAEFG@SDL_RENDER_DRIVER?$AA@ 000000018009a298     SDL_render.obj
 0002:0000b2b0       ??_C@_0CF@DLEDKEIF@Couldn?8t?5find?5matching?5render?5dr@ 000000018009a2b0     SDL_render.obj
 0002:0000b2d8       ??_C@_0CL@KECFMKMA@index?5must?5be?5?91?5or?5in?5the?5range@ 000000018009a2d8     SDL_render.obj
 0002:0000b308       ??_C@_0BG@BMDGIALD@_SDL_WindowRenderData?$AA@ 000000018009a308     SDL_render.obj
 0002:0000b320       ??_C@_0BF@JODAKHNK@Created?5renderer?3?5?$CFs?$AA@ 000000018009a320     SDL_render.obj
 0002:0000b338       ??_C@_0BB@GFPGJKPN@Invalid?5renderer?$AA@ 000000018009a338     SDL_render.obj
 0002:0000b350       ??_C@_0CO@CJKFMNM@Renderer?5doesn?8t?5support?5queryin@ 000000018009a350     SDL_render.obj
 0002:0000b380       ??_C@_0CG@LJJJCNJI@Palettized?5textures?5are?5not?5supp@ 000000018009a380     SDL_render.obj
 0002:0000b3a8       ??_C@_0BO@KMOMBDEL@Texture?5dimensions?5can?8t?5be?50?$AA@ 000000018009a3a8     SDL_render.obj
 0002:0000b3c8       ??_C@_0CI@DIOFGJGK@Texture?5dimensions?5are?5limited?5t@ 000000018009a3c8     SDL_render.obj
 0002:0000b3f0       ??_C@_0DD@GCMDHNIP@SDL_CreateTextureFromSurface?$CI?$CJ?5p@ 000000018009a3f0     SDL_render.obj
 0002:0000b428       ??_C@_0BA@NLFBADFE@Invalid?5texture?$AA@ 000000018009a428     SDL_render.obj
 0002:0000b438       ??_C@_06CBIFBKHG@pixels?$AA@ 000000018009a438     SDL_render.obj
 0002:0000b440       ??_C@_05NCNFOFLM@pitch?$AA@ 000000018009a440     SDL_render.obj
 0002:0000b448       ??_C@_06FKGHPCMG@Yplane?$AA@ 000000018009a448     SDL_render.obj
 0002:0000b450       ??_C@_06EIDGDHAF@Ypitch?$AA@ 000000018009a450     SDL_render.obj
 0002:0000b458       ??_C@_06JNMHJILC@Uplane?$AA@ 000000018009a458     SDL_render.obj
 0002:0000b460       ??_C@_06IPJGFNHB@Upitch?$AA@ 000000018009a460     SDL_render.obj
 0002:0000b468       ??_C@_06KMCPICCP@Vplane?$AA@ 000000018009a468     SDL_render.obj
 0002:0000b470       ??_C@_06LOHOEHOM@Vpitch?$AA@ 000000018009a470     SDL_render.obj
 0002:0000b478       ??_C@_0CE@GPMMJMLE@Texture?5format?5must?5by?5YV12?5or?5I@ 000000018009a478     SDL_render.obj
 0002:0000b4a0       ??_C@_0CN@PFPBINLD@SDL_LockTexture?$CI?$CJ?3?5texture?5must?5@ 000000018009a4a0     SDL_render.obj
 0002:0000b4d0       ??_C@_0CL@DMDPPMKG@Texture?5was?5not?5created?5with?5thi@ 000000018009a4d0     SDL_render.obj
 0002:0000b500       ??_C@_0DC@GJADPECC@Texture?5not?5created?5with?5SDL_TEX@ 000000018009a500     SDL_render.obj
 0002:0000b538       ??_C@_0CL@EDIJBFA@SDL_RenderDrawPoints?$CI?$CJ?3?5Passed?5N@ 000000018009a538     SDL_render.obj
 0002:0000b568       ??_C@_0CK@LINDOKPA@SDL_RenderDrawLines?$CI?$CJ?3?5Passed?5NU@ 000000018009a568     SDL_render.obj
 0002:0000b598       ??_C@_0CJ@ECBHPODM@SDL_RenderDrawRects?$CI?$CJ?3?5Passed?5NU@ 000000018009a598     SDL_render.obj
 0002:0000b5c8       ??_C@_0CJ@NNHIGIMN@SDL_RenderFillRects?$CI?$CJ?3?5Passed?5NU@ 000000018009a5c8     SDL_render.obj
 0002:0000b5f8       ??_C@_0CH@BFFKFKID@Renderer?5does?5not?5support?5Render@ 000000018009a5f8     SDL_render.obj
 0002:0000b620       ??_C@_0CD@JCHGOJPA@Unsupported?5YUV?5destination?5form@ 000000018009a620     SDL_yuv_sw.obj
 0002:0000b648       ??_C@_0BH@NPDOPCKC@Unsupported?5YUV?5format?$AA@ 000000018009a648     SDL_yuv_sw.obj
 0002:0000b660       ??_C@_0DH@OKPODNGN@YV12?5and?5IYUV?5textures?5only?5supp@ 000000018009a660     SDL_yuv_sw.obj
 0002:0000b698       ??_C@_0BP@KIPHAOMO@Unsupported?5YUV?5format?5in?5copy?$AA@ 000000018009a698     SDL_yuv_sw.obj
 0002:0000b6b8       ??_C@_0P@GKIBCCHP@UCS?94?9INTERNAL?$AA@ 000000018009a6b8     SDL_iconv.obj
 0002:0000b6c8       ??_C@_07MAOKKOCE@UCS?94BE?$AA@ 000000018009a6c8     SDL_iconv.obj
 0002:0000b6d0       ??_C@_07MKHEIDCO@UCS?94LE?$AA@ 000000018009a6d0     SDL_iconv.obj
 0002:0000b6d8       ??_C@_05FPCKGDIJ@UCS?94?$AA@ 000000018009a6d8     SDL_iconv.obj
 0002:0000b6e0       ??_C@_04JFFPNMJE@UCS4?$AA@ 000000018009a6e0     SDL_iconv.obj
 0002:0000b6e8       ??_C@_0P@ICDEOIDM@UCS?92?9INTERNAL?$AA@ 000000018009a6e8     SDL_iconv.obj
 0002:0000b6f8       ??_C@_07OFIBPBPI@UCS?92BE?$AA@ 000000018009a6f8     SDL_iconv.obj
 0002:0000b700       ??_C@_07OPBPNMPC@UCS?92LE?$AA@ 000000018009a700     SDL_iconv.obj
 0002:0000b708       ??_C@_05JHAMEAP@UCS?92?$AA@ 000000018009a708     SDL_iconv.obj
 0002:0000b710       ??_C@_04MDAFHLBC@UCS2?$AA@ 000000018009a710     SDL_iconv.obj
 0002:0000b718       ??_C@_08CEJLHJGH@UTF?932LE?$AA@ 000000018009a718     SDL_iconv.obj
 0002:0000b728       ??_C@_07MBKNMEHJ@UTF32LE?$AA@ 000000018009a728     SDL_iconv.obj
 0002:0000b730       ??_C@_08COAFFEGN@UTF?932BE?$AA@ 000000018009a730     SDL_iconv.obj
 0002:0000b740       ??_C@_07MLDDOJHD@UTF32BE?$AA@ 000000018009a740     SDL_iconv.obj
 0002:0000b748       ??_C@_06MKNHHJMC@UTF?932?$AA@ 000000018009a748     SDL_iconv.obj
 0002:0000b750       ??_C@_05KKMPKGEK@UTF32?$AA@ 000000018009a750     SDL_iconv.obj
 0002:0000b758       ??_C@_07DEAPAAEO@UTF16LE?$AA@ 000000018009a758     SDL_iconv.obj
 0002:0000b760       ??_C@_08NLKHJAFK@UTF?916BE?$AA@ 000000018009a760     SDL_iconv.obj
 0002:0000b770       ??_C@_07DOJBCNEE@UTF16BE?$AA@ 000000018009a770     SDL_iconv.obj
 0002:0000b778       ??_C@_06KNDPGIKI@UTF?916?$AA@ 000000018009a778     SDL_iconv.obj
 0002:0000b780       ??_C@_05MNCHLHCA@UTF16?$AA@ 000000018009a780     SDL_iconv.obj
 0002:0000b788       ??_C@_04OOMJJNCF@UTF8?$AA@ 000000018009a788     SDL_iconv.obj
 0002:0000b790       ??_C@_0L@GJIJNDEK@ISO?98859?91?$AA@ 000000018009a790     SDL_iconv.obj
 0002:0000b79c       ??_C@_06DBMBMKI@8859?91?$AA@ 000000018009a79c     SDL_iconv.obj
 0002:0000b7a8       ??_C@_08DIBGJKBD@US?9ASCII?$AA@ 000000018009a7a8     SDL_iconv.obj
 0002:0000b7b4       ??_C@_05CCNLIHFO@ASCII?$AA@ 000000018009a7b4     SDL_iconv.obj
 0002:0000b7bc       ??_C@_06NEFDFEKB@LC_ALL?$AA@ 000000018009a7bc     SDL_iconv.obj
 0002:0000b7c8       ??_C@_08EADHIDAD@LC_CTYPE?$AA@ 000000018009a7c8     SDL_iconv.obj
 0002:0000b7d8       ??_C@_0M@OEOGJAKB@LC_MESSAGES?$AA@ 000000018009a7d8     SDL_iconv.obj
 0002:0000b7e4       ??_C@_04ECEKPLPK@LANG?$AA@ 000000018009a7e4     SDL_iconv.obj
 0002:0000b7ec       ??_C@_02MDDDDAID@0x?$AA@   000000018009a7ec     SDL_string.obj
 0002:0000b7f0       ??_C@_03KDGLFNIB@I64?$AA@  000000018009a7f0     SDL_string.obj
 0002:0000b7f4       ??_C@_02EGCJHIOB@id?$AA@   000000018009a7f4     SDL_thread.obj
 0002:0000b7f8       ??_C@_08OFDBCHEE@SDLTimer?$AA@ 000000018009a7f8     SDL_timer.obj
 0002:0000b808       ??_C@_0BG@FDAAEABG@SDL_BLIT_CPU_FEATURES?$AA@ 000000018009a808     SDL_blit.obj
 0002:0000b820       ??_C@_02GMHACPFF@?$CFu?$AA@ 000000018009a820     SDL_blit.obj
 0002:0000b828       ??_C@_0BP@DOEMAMAO@Blit?5combination?5not?5supported?$AA@ 000000018009a828     SDL_blit.obj
 0002:0000b848       ??_C@_02DGHHEOAL@BM?$AA@   000000018009a848     SDL_bmp.obj
 0002:0000b850       ??_C@_0BP@KFCLDKFK@File?5is?5not?5a?5Windows?5BMP?5file?$AA@ 000000018009a850     SDL_bmp.obj
 0002:0000b870       ??_C@_0CD@JAGEONDI@Compressed?5BMP?5files?5not?5support@ 000000018009a870     SDL_bmp.obj
 0002:0000b898       ??_C@_0BH@MBEMJCJD@Error?5reading?5from?5BMP?$AA@ 000000018009a898     SDL_bmp.obj
 0002:0000b8b0       ??_C@_0BP@EDKJCFAN@?$CFd?5bpp?5BMP?5files?5not?5supported?$AA@ 000000018009a8b0     SDL_bmp.obj
 0002:0000b8d0       ??_C@_0CB@KFIBCIJC@Couldn?8t?5convert?5image?5to?5?$CFd?5bpp@ 000000018009a8d0     SDL_bmp.obj
 0002:0000b8f8       ??_C@_0CA@JMOKMMHL@Passed?5NULL?5destination?5surface?$AA@ 000000018009a8f8     SDL_fillrect.obj
 0002:0000b918       ??_C@_0CL@EEMMFBLB@SDL_FillRect?$CI?$CJ?3?5Unsupported?5surf@ 000000018009a918     SDL_fillrect.obj
 0002:0000b948       ??_C@_0CK@NBGGFHE@SDL_FillRect?$CI?$CJ?3?5You?5must?5lock?5th@ 000000018009a948     SDL_fillrect.obj
 0002:0000b978       ??_C@_0CC@BHMHHMOO@SDL_FillRects?$CI?$CJ?5passed?5NULL?5rect@ 000000018009a978     SDL_fillrect.obj
 0002:0000b9a0       ??_C@_0BK@CDDKPENB@SDL_PIXELFORMAT_INDEX1LSB?$AA@ 000000018009a9a0     SDL_pixels.obj
 0002:0000b9c0       ??_C@_0BK@JLIGJDLE@SDL_PIXELFORMAT_INDEX1MSB?$AA@ 000000018009a9c0     SDL_pixels.obj
 0002:0000b9e0       ??_C@_0BK@OLNKHLKB@SDL_PIXELFORMAT_INDEX4LSB?$AA@ 000000018009a9e0     SDL_pixels.obj
 0002:0000ba00       ??_C@_0BK@FDGGBMME@SDL_PIXELFORMAT_INDEX4MSB?$AA@ 000000018009aa00     SDL_pixels.obj
 0002:0000ba20       ??_C@_0BH@MENODIDB@SDL_PIXELFORMAT_INDEX8?$AA@ 000000018009aa20     SDL_pixels.obj
 0002:0000ba38       ??_C@_0BH@PJHBGHGG@SDL_PIXELFORMAT_RGB332?$AA@ 000000018009aa38     SDL_pixels.obj
 0002:0000ba50       ??_C@_0BH@DHLDOONM@SDL_PIXELFORMAT_RGB444?$AA@ 000000018009aa50     SDL_pixels.obj
 0002:0000ba68       ??_C@_0BH@JHNGNCMP@SDL_PIXELFORMAT_RGB555?$AA@ 000000018009aa68     SDL_pixels.obj
 0002:0000ba80       ??_C@_0BH@JAOINJID@SDL_PIXELFORMAT_BGR555?$AA@ 000000018009aa80     SDL_pixels.obj
 0002:0000ba98       ??_C@_0BJ@NMCCEMOE@SDL_PIXELFORMAT_ARGB4444?$AA@ 000000018009aa98     SDL_pixels.obj
 0002:0000bab8       ??_C@_0BJ@KJJIFABG@SDL_PIXELFORMAT_RGBA4444?$AA@ 000000018009aab8     SDL_pixels.obj
 0002:0000bad8       ??_C@_0BJ@KDEPHPFE@SDL_PIXELFORMAT_ABGR4444?$AA@ 000000018009aad8     SDL_pixels.obj
 0002:0000baf8       ??_C@_0BJ@GCIGIOKJ@SDL_PIXELFORMAT_BGRA4444?$AA@ 000000018009aaf8     SDL_pixels.obj
 0002:0000bb18       ??_C@_0BJ@LEKHPPIH@SDL_PIXELFORMAT_ARGB1555?$AA@ 000000018009ab18     SDL_pixels.obj
 0002:0000bb38       ??_C@_0BJ@FAPBIALB@SDL_PIXELFORMAT_RGBA5551?$AA@ 000000018009ab38     SDL_pixels.obj
 0002:0000bb58       ??_C@_0BJ@MLMKMMDH@SDL_PIXELFORMAT_ABGR1555?$AA@ 000000018009ab58     SDL_pixels.obj
 0002:0000bb78       ??_C@_0BJ@JLOPFOAO@SDL_PIXELFORMAT_BGRA5551?$AA@ 000000018009ab78     SDL_pixels.obj
 0002:0000bb98       ??_C@_0BH@JFJAGMJG@SDL_PIXELFORMAT_RGB565?$AA@ 000000018009ab98     SDL_pixels.obj
 0002:0000bbb0       ??_C@_0BH@JCKOGHNK@SDL_PIXELFORMAT_BGR565?$AA@ 000000018009abb0     SDL_pixels.obj
 0002:0000bbc8       ??_C@_0BG@EOOMKEOM@SDL_PIXELFORMAT_RGB24?$AA@ 000000018009abc8     SDL_pixels.obj
 0002:0000bbe0       ??_C@_0BG@BNCDPBOI@SDL_PIXELFORMAT_BGR24?$AA@ 000000018009abe0     SDL_pixels.obj
 0002:0000bbf8       ??_C@_0BH@NIMKOHAM@SDL_PIXELFORMAT_RGB888?$AA@ 000000018009abf8     SDL_pixels.obj
 0002:0000bc10       ??_C@_0BJ@KHMIOHJE@SDL_PIXELFORMAT_RGBX8888?$AA@ 000000018009ac10     SDL_pixels.obj
 0002:0000bc30       ??_C@_0BH@NPPEOMEA@SDL_PIXELFORMAT_BGR888?$AA@ 000000018009ac30     SDL_pixels.obj
 0002:0000bc48       ??_C@_0BJ@GMNGDJCL@SDL_PIXELFORMAT_BGRX8888?$AA@ 000000018009ac48     SDL_pixels.obj
 0002:0000bc68       ??_C@_0BJ@PGKLKIDF@SDL_PIXELFORMAT_ARGB8888?$AA@ 000000018009ac68     SDL_pixels.obj
 0002:0000bc88       ??_C@_0BJ@IDBBLEMH@SDL_PIXELFORMAT_RGBA8888?$AA@ 000000018009ac88     SDL_pixels.obj
 0002:0000bca8       ??_C@_0BJ@IJMGJLIF@SDL_PIXELFORMAT_ABGR8888?$AA@ 000000018009aca8     SDL_pixels.obj
 0002:0000bcc8       ??_C@_0BJ@EIAPGKHI@SDL_PIXELFORMAT_BGRA8888?$AA@ 000000018009acc8     SDL_pixels.obj
 0002:0000bce8       ??_C@_0BM@OKKFJDPO@SDL_PIXELFORMAT_ARGB2101010?$AA@ 000000018009ace8     SDL_pixels.obj
 0002:0000bd08       ??_C@_0BF@FBJLLF@SDL_PIXELFORMAT_YV12?$AA@ 000000018009ad08     SDL_pixels.obj
 0002:0000bd20       ??_C@_0BF@HGJNNBDO@SDL_PIXELFORMAT_IYUV?$AA@ 000000018009ad20     SDL_pixels.obj
 0002:0000bd38       ??_C@_0BF@FECAKOMD@SDL_PIXELFORMAT_YUY2?$AA@ 000000018009ad38     SDL_pixels.obj
 0002:0000bd50       ??_C@_0BF@FGFDAJCL@SDL_PIXELFORMAT_UYVY?$AA@ 000000018009ad50     SDL_pixels.obj
 0002:0000bd68       ??_C@_0BF@GMCJPMEN@SDL_PIXELFORMAT_YVYU?$AA@ 000000018009ad68     SDL_pixels.obj
 0002:0000bd80       ??_C@_0BI@BMDHPIBC@SDL_PIXELFORMAT_UNKNOWN?$AA@ 000000018009ad80     SDL_pixels.obj
 0002:0000bd98       ??_C@_0CH@OBIBNFFP@FOURCC?5pixel?5formats?5are?5not?5sup@ 000000018009ad98     SDL_pixels.obj
 0002:0000bdc0       ??_C@_0BF@BGLAILLL@Unknown?5pixel?5format?$AA@ 000000018009adc0     SDL_pixels.obj
 0002:0000bdd8       ??_C@_06DLEPGFEF@format?$AA@ 000000018009add8     SDL_pixels.obj
 0002:0000bde0       ??_C@_07HAKAJCPK@ncolors?$AA@ 000000018009ade0     SDL_pixels.obj
 0002:0000bde8       ??_C@_0CP@FEFEDGPM@SDL_SetPixelFormatPalette?$CI?$CJ?5pass@ 000000018009ade8     SDL_pixels.obj
 0002:0000be20       ??_C@_0EL@BMJKHCAE@SDL_SetPixelFormatPalette?$CI?$CJ?5pass@ 000000018009ae20     SDL_pixels.obj
 0002:0000be70       ??_C@_07JKIHKJOO@palette?$AA@ 000000018009ae70     SDL_pixels.obj
 0002:0000be78       ??_C@_05KDLBCAI@gamma?$AA@ 000000018009ae78     SDL_pixels.obj
 0002:0000be80       ??_C@_04FGGFAKKO@ramp?$AA@ 000000018009ae80     SDL_pixels.obj
 0002:0000be88       ??_C@_06KJFADLGN@result?$AA@ 000000018009ae88     SDL_rect.obj
 0002:0000be90       ??_C@_06GPGIDCJA@points?$AA@ 000000018009ae90     SDL_rect.obj
 0002:0000be98       ??_C@_05IOMEMJEC@count?$AA@ 000000018009ae98     SDL_rect.obj
 0002:0000bea0       ??_C@_04LHPFHFPH@rect?$AA@ 000000018009aea0     SDL_rect.obj
 0002:0000bea8       ??_C@_02KEEMFOFH@X1?$AA@   000000018009aea8     SDL_rect.obj
 0002:0000beac       ??_C@_02KFIODEGA@Y1?$AA@   000000018009aeac     SDL_rect.obj
 0002:0000beb0       ??_C@_02IPGBANJE@X2?$AA@   000000018009aeb0     SDL_rect.obj
 0002:0000beb4       ??_C@_02IOKDGHKD@Y2?$AA@   000000018009aeb4     SDL_rect.obj
 0002:0000beb8       ??_C@_05IGKADHGO@width?$AA@ 000000018009aeb8     SDL_rect.obj
 0002:0000bec0       ??_C@_06LNLHEAAG@height?$AA@ 000000018009aec0     SDL_rect.obj
 0002:0000bec8       ??_C@_05CHHMLIPP@rects?$AA@ 000000018009aec8     SDL_rect.obj
 0002:0000bed0       ??_C@_04FOPLNFFP@span?$AA@ 000000018009aed0     SDL_rect.obj
 0002:0000bed8       ??_C@_08OKMHOFBF@numrects?$AA@ 000000018009aed8     SDL_rect.obj
 0002:0000bee8       ??_C@_0CF@MJPDNGPI@Only?5works?5with?5same?5format?5surf@ 000000018009aee8     SDL_stretch.obj
 0002:0000bf10       ??_C@_0BO@BIKFPOBL@Invalid?5source?5blit?5rectangle?$AA@ 000000018009af10     SDL_stretch.obj
 0002:0000bf30       ??_C@_0CD@JKBIJKNH@Invalid?5destination?5blit?5rectang@ 000000018009af30     SDL_stretch.obj
 0002:0000bf58       ??_C@_0CD@LPFFNOGB@Unable?5to?5lock?5destination?5surfa@ 000000018009af58     SDL_stretch.obj
 0002:0000bf80       ??_C@_0BO@HEMJFNN@Unable?5to?5lock?5source?5surface?$AA@ 000000018009af80     SDL_stretch.obj
 0002:0000bfa0       ??_C@_0CO@NKNMDJLH@SDL_SetSurfacePalette?$CI?$CJ?5passed?5a@ 000000018009afa0     SDL_surface.obj
 0002:0000bfd0       ??_C@_07IHELBNLD@surface?$AA@ 000000018009afd0     SDL_surface.obj
 0002:0000bfd8       ??_C@_03ICHNJLJF@key?$AA@  000000018009afd8     SDL_surface.obj
 0002:0000bfe0       ??_C@_0CF@ILLBAFPC@SDL_UpperBlit?3?5passed?5a?5NULL?5sur@ 000000018009afe0     SDL_surface.obj
 0002:0000c008       ??_C@_0CI@DBDIFOAL@Surfaces?5must?5not?5be?5locked?5duri@ 000000018009b008     SDL_surface.obj
 0002:0000c030       ??_C@_0CL@LLGPMFND@SDL_UpperBlitScaled?3?5passed?5a?5NU@ 000000018009b030     SDL_surface.obj
 0002:0000c060       ??_C@_0BK@EIJMFOLB@Empty?5destination?5palette?$AA@ 000000018009b060     SDL_surface.obj
 0002:0000c080       ??_C@_0CE@NLKAGGOI@Indexed?5pixel?5formats?5not?5suppor@ 000000018009b080     SDL_surface.obj
 0002:0000c0a4       ??_C@_03HHBLCKEM@dst?$AA@  000000018009b0a4     SDL_surface.obj
 0002:0000c0a8       ??_C@_09GMDIHBEH@dst_pitch?$AA@ 000000018009b0a8     SDL_surface.obj
 0002:0000c0b8       ??_C@_0BM@LNJEPOHC@Unknown?5FOURCC?5pixel?5format?$AA@ 000000018009b0b8     SDL_surface.obj
 0002:0000c0d8       ??_C@_08CGFBBPDL@software?$AA@ 000000018009b0d8     SDL_video.obj
 0002:0000c0e8       ??_C@_0BN@HCNOJOLL@SDL_FRAMEBUFFER_ACCELERATION?$AA@ 000000018009b0e8     SDL_video.obj
 0002:0000c108       ??_C@_0BH@IDJPBJJE@_SDL_WindowTextureData?$AA@ 000000018009b108     SDL_video.obj
 0002:0000c120       ??_C@_0CM@JJFMKOBB@No?5hardware?5accelerated?5renderer@ 000000018009b120     SDL_video.obj
 0002:0000c150       ??_C@_0BH@NFBPFOBG@No?5window?5texture?5data?$AA@ 000000018009b150     SDL_video.obj
 0002:0000c168       ??_C@_0CJ@DHBOLPOL@Video?5subsystem?5has?5not?5been?5ini@ 000000018009b168     SDL_video.obj
 0002:0000c198       ??_C@_0BA@MOBFFJMC@SDL_VIDEODRIVER?$AA@ 000000018009b198     SDL_video.obj
 0002:0000c1a8       ??_C@_0BB@PBJMHGCP@?$CFs?5not?5available?$AA@ 000000018009b1a8     SDL_video.obj
 0002:0000c1c0       ??_C@_0BK@IGCJJGJH@No?5available?5video?5device?$AA@ 000000018009b1c0     SDL_video.obj
 0002:0000c1e0       ??_C@_0CK@PJKOKGCO@The?5video?5driver?5did?5not?5add?5any@ 000000018009b1e0     SDL_video.obj
 0002:0000c210       ??_C@_0CJ@BDEGNDKI@displayIndex?5must?5be?5in?5the?5rang@ 000000018009b210     SDL_video.obj
 0002:0000c240       ??_C@_0CP@MMIDKBJN@Missing?5desired?5mode?5or?5closest?5@ 000000018009b240     SDL_video.obj
 0002:0000c270       ??_C@_0CF@DMFBCMNF@No?5video?5mode?5large?5enough?5for?5?$CF@ 000000018009b270     SDL_video.obj
 0002:0000c298       ??_C@_0DD@BKEAPIHL@Video?5driver?5doesn?8t?5support?5cha@ 000000018009b298     SDL_video.obj
 0002:0000c2d0       ??_C@_0BL@CMDGLANO@Couldn?8t?5find?5any?5displays?$AA@ 000000018009b2d0     SDL_video.obj
 0002:0000c2ec       ??_C@_04GMGOKAFF@mode?$AA@ 000000018009b2ec     SDL_video.obj
 0002:0000c2f8       ??_C@_0CB@OHLALJML@Couldn?8t?5find?5display?5mode?5match@ 000000018009b2f8     SDL_video.obj
 0002:0000c320       ??_C@_0CC@CAKIDHIB@No?5OpenGL?5support?5in?5video?5drive@ 000000018009b320     SDL_video.obj
 0002:0000c348       ??_C@_0BL@DGHGGGKK@SDL_VIDEO_HIGHDPI_DISABLED?$AA@ 000000018009b348     SDL_video.obj
 0002:0000c364       ??_C@_01NOFIACDB@w?$AA@    000000018009b364     SDL_video.obj
 0002:0000c368       ??_C@_01BDACAMKP@h?$AA@    000000018009b368     SDL_video.obj
 0002:0000c36c       ??_C@_05LCBCFBGI@min_w?$AA@ 000000018009b36c     SDL_video.obj
 0002:0000c374       ??_C@_05HPEIFPPG@min_h?$AA@ 000000018009b374     SDL_video.obj
 0002:0000c37c       ??_C@_05PHBABCOK@max_w?$AA@ 000000018009b37c     SDL_video.obj
 0002:0000c384       ??_C@_05DKEKBMHE@max_h?$AA@ 000000018009b384     SDL_video.obj
 0002:0000c390       ??_C@_0FD@MJKLOGDC@Window?5surface?5is?5invalid?0?5pleas@ 000000018009b390     SDL_video.obj
 0002:0000c3e8       ??_C@_0CB@HINFJDCH@SDL_VIDEO_MINIMIZE_ON_FOCUS_LOSS@ 000000018009b3e8     SDL_video.obj
 0002:0000c410       ??_C@_0BO@MEFFCKHK@OpenGL?5library?5already?5loaded?$AA@ 000000018009b410     SDL_video.obj
 0002:0000c430       ??_C@_0CG@ECAMDENE@No?5dynamic?5GL?5support?5in?5video?5d@ 000000018009b430     SDL_video.obj
 0002:0000c458       ??_C@_0BN@PLLLAMKF@No?5GL?5driver?5has?5been?5loaded?$AA@ 000000018009b458     SDL_video.obj
 0002:0000c478       ??_C@_0M@OPOBFDCB@glGetString?$AA@ 000000018009b478     SDL_video.obj
 0002:0000c488       ??_C@_0N@PILJCBOD@glGetStringi?$AA@ 000000018009b488     SDL_video.obj
 0002:0000c498       ??_C@_0O@DHHDCCLF@glGetIntegerv?$AA@ 000000018009b498     SDL_video.obj
 0002:0000c4a8       ??_C@_0BP@CHJEIHOP@Unknown?5OpenGL?5context?5flag?5?$CFd?$AA@ 000000018009b4a8     SDL_video.obj
 0002:0000c4c8       ??_C@_0CC@BNDGNJM@Unknown?5OpenGL?5context?5profile?5?$CF@ 000000018009b4c8     SDL_video.obj
 0002:0000c4f0       ??_C@_0BJ@FAFAIBBO@Unknown?5OpenGL?5attribute?$AA@ 000000018009b4f0     SDL_video.obj
 0002:0000c510       ??_C@_0L@FPKAMKHB@glGetError?$AA@ 000000018009b510     SDL_video.obj
 0002:0000c520       ??_C@_0BO@NDHCPHLG@OpenGL?5error?3?5GL_INVALID_ENUM?$AA@ 000000018009b520     SDL_video.obj
 0002:0000c540       ??_C@_0BP@JHOJNCDH@OpenGL?5error?3?5GL_INVALID_VALUE?$AA@ 000000018009b540     SDL_video.obj
 0002:0000c560       ??_C@_0BD@NGELPIEC@OpenGL?5error?3?5?$CF08X?$AA@ 000000018009b560     SDL_video.obj
 0002:0000c578       ??_C@_0CM@GIPMDBFE@The?5specified?5window?5isn?8t?5an?5Op@ 000000018009b578     SDL_video.obj
 0002:0000c5a8       ??_C@_0CI@OGHNAHBA@No?5OpenGL?5context?5has?5been?5made?5@ 000000018009b5a8     SDL_video.obj
 0002:0000c5d0       ??_C@_0CL@CJNDMCPL@Setting?5the?5swap?5interval?5is?5not@ 000000018009b5d0     SDL_video.obj
 0002:0000c600       ??_C@_0CP@OKIGHHPL@The?5specified?5window?5has?5not?5bee@ 000000018009b600     SDL_video.obj
 0002:0000c630       ??_C@_0P@LGGKDEAA@messageboxdata?$AA@ 000000018009b630     SDL_video.obj
 0002:0000c640       ??_C@_0BM@BELKCJEG@No?5message?5system?5available?$AA@ 000000018009b640     SDL_video.obj
 0002:0000c65c       ??_C@_02GIPFHKNO@OK?$AA@   000000018009b65c     SDL_video.obj
 0002:0000c660       ??_C@_0BC@FKKMJHGG@SDL_ALLOW_TOPMOST?$AA@ 000000018009b660     SDL_video.obj
 0002:0000c680       ??_C@_0HA@PAHJMIFJ@Application?5didn?8t?5initialize?5pr@ 000000018009b680     SDL.obj
 0002:0000c6f0       ??_C@_0BF@GFOHIHEC@hg?97890?3c031abe0b287?$AA@ 000000018009b6f0     SDL.obj
 0002:0000c708       ??_C@_07LDLFNPGN@Windows?$AA@ 000000018009b708     SDL.obj
 0002:0000c710       ??_C@_0BJ@EINIMBNM@?6?6SDL?5assertion?5report?4?6?$AA@ 000000018009b710     SDL_assert.obj
 0002:0000c730       ??_C@_0CN@NMLKMLNC@All?5SDL?5assertions?5between?5last?5@ 000000018009b730     SDL_assert.obj
 0002:0000c760       ??_C@_03ICICOMAL@yes?$AA@  000000018009b760     SDL_assert.obj
 0002:0000c764       ??_C@_02KAJCLHKP@no?$AA@   000000018009b764     SDL_assert.obj
 0002:0000c768       ??_C@_01LKDEMHDF@s?$AA@    000000018009b768     SDL_assert.obj
 0002:0000c770       ??_C@_0EL@KPNIHJHB@?8?$CFs?8?6?5?5?5?5?$CK?5?$CFs?5?$CI?$CFs?3?$CFd?$CJ?6?5?5?5?5?$CK?5trig@ 000000018009b770     SDL_assert.obj
 0002:0000c7bc       ??_C@_01EEMJAFIK@?6?$AA@   000000018009b7bc     SDL_assert.obj
 0002:0000c7c0       ??_C@_05BDHMEGNH@Retry?$AA@ 000000018009b7c0     SDL_assert.obj
 0002:0000c7c8       ??_C@_05EMFLFCNO@Break?$AA@ 000000018009b7c8     SDL_assert.obj
 0002:0000c7d0       ??_C@_05BGKIEECB@Abort?$AA@ 000000018009b7d0     SDL_assert.obj
 0002:0000c7d8       ??_C@_06KMEJCCGM@Ignore?$AA@ 000000018009b7d8     SDL_assert.obj
 0002:0000c7e0       ??_C@_0O@FDONODGA@Always?5Ignore?$AA@ 000000018009b7e0     SDL_assert.obj
 0002:0000c7f0       ??_C@_04CLCEDBPF@time?$AA@ 000000018009b7f0     SDL_assert.obj
 0002:0000c7f8       ??_C@_05MJOOAIJH@times?$AA@ 000000018009b7f8     SDL_assert.obj
 0002:0000c800       ??_C@_0DK@HEAEJLAB@Assertion?5failure?5at?5?$CFs?5?$CI?$CFs?3?$CFd?$CJ?0@ 000000018009b800     SDL_assert.obj
 0002:0000c83c       ??_C@_06OAKLJOPD@?6?6?$CFs?6?6?$AA@ 000000018009b83c     SDL_assert.obj
 0002:0000c848       ??_C@_0L@FMCFDIJL@SDL_ASSERT?$AA@ 000000018009b848     SDL_assert.obj
 0002:0000c854       ??_C@_05BBAEEBBH@abort?$AA@ 000000018009b854     SDL_assert.obj
 0002:0000c85c       ??_C@_05ELPHFHOI@break?$AA@ 000000018009b85c     SDL_assert.obj
 0002:0000c864       ??_C@_05BENAEDOB@retry?$AA@ 000000018009b864     SDL_assert.obj
 0002:0000c86c       ??_C@_06GDPEBLPA@ignore?$AA@ 000000018009b86c     SDL_assert.obj
 0002:0000c878       ??_C@_0O@CEEECBBI@always_ignore?$AA@ 000000018009b878     SDL_assert.obj
 0002:0000c888       ??_C@_0BB@NAGLCMLI@Assertion?5Failed?$AA@ 000000018009b888     SDL_assert.obj
 0002:0000c8a0       ??_C@_0DC@PAMILCEE@Abort?1Break?1Retry?1Ignore?1AlwaysI@ 000000018009b8a0     SDL_assert.obj
 0002:0000c8d4       ??_C@_01KDCPPGHE@r?$AA@    000000018009b8d4     SDL_assert.obj
 0002:0000c8d8       ??_C@_01KBJDNOO@i?$AA@     000000018009b8d8     SDL_assert.obj
 0002:0000c8dc       ??_C@_06OJHGLDPL@?$CInull?$CJ?$AA@ 000000018009b8dc     SDL_error.obj
 0002:0000c8e4       ??_C@_02DKCKIIND@?$CFs?$AA@ 000000018009b8e4     SDL_error.obj
 0002:0000c8e8       ??_C@_0O@NALGGDJF@Out?5of?5memory?$AA@ 000000018009b8e8     SDL_error.obj
 0002:0000c8f8       ??_C@_0BO@HOPHLHIA@Error?5reading?5from?5datastream?$AA@ 000000018009b8f8     SDL_error.obj
 0002:0000c918       ??_C@_0BM@HKBAIOID@Error?5writing?5to?5datastream?$AA@ 000000018009b918     SDL_error.obj
 0002:0000c938       ??_C@_0BM@ILIHIMKK@Error?5seeking?5in?5datastream?$AA@ 000000018009b938     SDL_error.obj
 0002:0000c958       ??_C@_0CA@FADPPBJI@That?5operation?5is?5not?5supported?$AA@ 000000018009b958     SDL_error.obj
 0002:0000c978       ??_C@_0BC@GIFKALJN@Unknown?5SDL?5error?$AA@ 000000018009b978     SDL_error.obj
 0002:0000c990       ??_C@_08PPIJGMPL@callback?$AA@ 000000018009b990     SDL_hints.obj
 0002:0000c9a0       ??_C@_08FOLAHAHG@CRITICAL?$AA@ 000000018009b9a0     SDL_log.obj
 0002:0000c9ac       ??_C@_05MBDEGLCK@ERROR?$AA@ 000000018009b9ac     SDL_log.obj
 0002:0000c9b4       ??_C@_04JBIELMDE@WARN?$AA@ 000000018009b9b4     SDL_log.obj
 0002:0000c9bc       ??_C@_04BEADLPGM@INFO?$AA@ 000000018009b9bc     SDL_log.obj
 0002:0000c9c4       ??_C@_05KOLFGEDA@DEBUG?$AA@ 000000018009b9c4     SDL_log.obj
 0002:0000c9d0       ??_C@_07FMFBEBBO@VERBOSE?$AA@ 000000018009b9d0     SDL_log.obj
 0002:0000c9e0       ??_C@_1EA@OPGHHGCB@?$AAP?$AAa?$AAr?$AAe?$AAn?$AAt?$AA?5?$AAp?$AAr?$AAo?$AAc?$AAe?$AAs?$AAs?$AA?5?$AAh?$AAa?$AAs?$AA?5?$AAn?$AAo?$AA?5?$AAc?$AAo?$AAn?$AAs?$AAo?$AAl?$AAe?$AA?$AN?$AA?6?$AA?$AA@ 000000018009b9e0     SDL_log.obj
 0002:0000ca20       ??_C@_1GA@DGPJMCOB@?$AAC?$AAo?$AAu?$AAl?$AAd?$AA?5?$AAn?$AAo?$AAt?$AA?5?$AAa?$AAt?$AAt?$AAa?$AAc?$AAh?$AA?5?$AAt?$AAo?$AA?5?$AAc?$AAo?$AAn?$AAs?$AAo?$AAl?$AAe?$AA?5?$AAo?$AAf?$AA?5?$AAp@ 000000018009ba20     SDL_log.obj
 0002:0000ca80       ??_C@_1DE@PLMANODD@?$AAE?$AAr?$AAr?$AAo?$AAr?$AA?5?$AAa?$AAt?$AAt?$AAa?$AAc?$AAh?$AAi?$AAn?$AAg?$AA?5?$AAc?$AAo?$AAn?$AAs?$AAo?$AAl?$AAe?$AA?$AN?$AA?6?$AA?$AA@ 000000018009ba80     SDL_log.obj
 0002:0000cab8       ??_C@_08HKGMJBDL@?$CFs?3?5?$CFs?$AN?6?$AA@ 000000018009bab8     SDL_log.obj
 0002:0000cac8       ??_C@_1DK@PCHLPFDO@?$AAE?$AAr?$AAr?$AAo?$AAr?$AA?5?$AAc?$AAa?$AAl?$AAl?$AAi?$AAn?$AAg?$AA?5?$AAW?$AAr?$AAi?$AAt?$AAe?$AAC?$AAo?$AAn?$AAs?$AAo?$AAl?$AAe?$AA?$AN?$AA?6?$AA?$AA@ 000000018009bac8     SDL_log.obj
 0002:0000cb10       ??_C@_1FI@MPFEIBNO@?$AAI?$AAn?$AAs?$AAu?$AAf?$AAf?$AAi?$AAc?$AAi?$AAe?$AAn?$AAt?$AA?5?$AAh?$AAe?$AAa?$AAp?$AA?5?$AAm?$AAe?$AAm?$AAo?$AAr?$AAy?$AA?5?$AAt?$AAo?$AA?5?$AAw?$AAr?$AAi?$AAt@ 000000018009bb10     SDL_log.obj
 0002:0000cb68       ??_C@_07KJFPOMFC@?$CFs?3?5?$CFs?6?$AA@ 000000018009bb68     SDL_log.obj
 0002:0000cb70       ??_C@_0M@LAJMFNGO@DirectSound?$AA@ 000000018009bb70     SDL_directsound.obj
 0002:0000cb80       ??_C@_0M@KPABIDKA@directsound?$AA@ 000000018009bb80     SDL_directsound.obj
 0002:0000cb90       ??_C@_0L@HDBBEELN@DSOUND?4DLL?$AA@ 000000018009bb90     SDL_directsound.obj
 0002:0000cba0       ??_C@_0CH@NFJKGABA@DirectSound?3?5failed?5to?5load?5DSOU@ 000000018009bba0     SDL_directsound.obj
 0002:0000cbc8       ??_C@_0BD@PPENOOPJ@DirectSoundCreate8?$AA@ 000000018009bbc8     SDL_directsound.obj
 0002:0000cbe0       ??_C@_0BG@OJAPKKIE@DirectSoundEnumerateW?$AA@ 000000018009bbe0     SDL_directsound.obj
 0002:0000cbf8       ??_C@_0BN@JKJKKMPN@DirectSoundCaptureEnumerateW?$AA@ 000000018009bbf8     SDL_directsound.obj
 0002:0000cc18       ??_C@_0DA@ELPKNKIN@DirectSound?3?5System?5doesn?8t?5appe@ 000000018009bc18     SDL_directsound.obj
 0002:0000cc48       ??_C@_0DM@JJOFOEI@Unsupported?5interface?5?9?9?5Is?5Dire@ 000000018009bc48     SDL_directsound.obj
 0002:0000cc88       ??_C@_0BE@GLHDGGEN@Audio?5device?5in?5use?$AA@ 000000018009bc88     SDL_directsound.obj
 0002:0000cca0       ??_C@_0BJ@BCDADOAG@Unsupported?5audio?5format?$AA@ 000000018009bca0     SDL_directsound.obj
 0002:0000ccc0       ??_C@_0BH@IKJEADGO@Mixing?5buffer?5was?5lost?$AA@ 000000018009bcc0     SDL_directsound.obj
 0002:0000ccd8       ??_C@_0CD@OGCOBAMK@Control?5requested?5is?5not?5availab@ 000000018009bcd8     SDL_directsound.obj
 0002:0000cd00       ??_C@_0CD@NGJIFEPO@Invalid?5call?5for?5the?5current?5sta@ 000000018009bd00     SDL_directsound.obj
 0002:0000cd28       ??_C@_0BC@DBAKKFEN@Invalid?5parameter?$AA@ 000000018009bd28     SDL_directsound.obj
 0002:0000cd40       ??_C@_0BG@GAGDGGKF@No?5audio?5device?5found?$AA@ 000000018009bd40     SDL_directsound.obj
 0002:0000cd58       ??_C@_0BN@BIOCBOLC@Caller?5doesn?8t?5have?5priority?$AA@ 000000018009bd58     SDL_directsound.obj
 0002:0000cd78       ??_C@_0BH@KGLDLPJN@Function?5not?5supported?$AA@ 000000018009bd78     SDL_directsound.obj
 0002:0000cd90       ??_C@_0CE@IOEIACHK@?$CFs?3?5Unknown?5DirectSound?5error?3?50@ 000000018009bd90     SDL_directsound.obj
 0002:0000cdb4       ??_C@_06DJHOIPC@?$CFs?3?5?$CFs?$AA@ 000000018009bdb4     SDL_directsound.obj
 0002:0000cdc0       ??_C@_0BP@NBENMCLC@DirectSound?5GetCurrentPosition?$AA@ 000000018009bdc0     SDL_directsound.obj
 0002:0000cde0       ??_C@_0BB@DKNLGBEB@DirectSound?5Lock?$AA@ 000000018009bde0     SDL_directsound.obj
 0002:0000cdf8       ??_C@_0CA@GJIJLPBI@DirectSound?5SetCooperativeLevel?$AA@ 000000018009bdf8     SDL_directsound.obj
 0002:0000ce18       ??_C@_0CM@NEEALHAF@Sound?5buffer?5size?5must?5be?5betwee@ 000000018009be18     SDL_directsound.obj
 0002:0000ce48       ??_C@_0BO@CMKKFKKH@DirectSound?5CreateSoundBuffer?$AA@ 000000018009be48     SDL_directsound.obj
 0002:0000ce68       ??_C@_0CI@KOMNGPLK@DirectSound?3?5Requested?5device?5no@ 000000018009be68     SDL_directsound.obj
 0002:0000ce90       ??_C@_0BC@GKIGDBEH@DirectSoundCreate?$AA@ 000000018009be90     SDL_directsound.obj
 0002:0000cea8       ??_C@_0CG@EHPHCAHI@DirectSound?3?5Unsupported?5audio?5f@ 000000018009bea8     SDL_directsound.obj
 0002:0000ced0       ??_C@_0BF@LBLFPHGI@direct?9to?9disk?5audio?$AA@ 000000018009bed0     SDL_diskaudio.obj
 0002:0000cee8       ??_C@_04MDPPAFID@disk?$AA@ 000000018009bee8     SDL_diskaudio.obj
 0002:0000cef0       ??_C@_0BC@EJBICNOJ@SDL_DISKAUDIOFILE?$AA@ 000000018009bef0     SDL_diskaudio.obj
 0002:0000cf08       ??_C@_0N@CHLPLOMH@sdlaudio?4raw?$AA@ 000000018009bf08     SDL_diskaudio.obj
 0002:0000cf18       ??_C@_0BD@DNNHEADK@SDL_DISKAUDIODELAY?$AA@ 000000018009bf18     SDL_diskaudio.obj
 0002:0000cf2c       ??_C@_02GMLFBBN@wb?$AA@    000000018009bf2c     SDL_diskaudio.obj
 0002:0000cf30       ??_C@_0FB@KJEPFHFP@WARNING?3?5You?5are?5using?5the?5SDL?5d@ 000000018009bf30     SDL_diskaudio.obj
 0002:0000cf90       __mask@@AbsDouble@         000000018009bf90      CIL library: CIL module
 0002:0000cfa0       __real@3c800000            000000018009bfa0      CIL library: CIL module
 0002:0000cfa8       __real@3fe0000000000000    000000018009bfa8      CIL library: CIL module
 0002:0000cfb0       __real@3fd0000000000000    000000018009bfb0      CIL library: CIL module
 0002:0000cfb8       __real@4008000000000000    000000018009bfb8      CIL library: CIL module
 0002:0000cfc0       __real@41dfffffffc00000    000000018009bfc0      CIL library: CIL module
 0002:0000cfc8       __real@46fffe00            000000018009bfc8      CIL library: CIL module
 0002:0000cfcc       __real@3f800000            000000018009bfcc      CIL library: CIL module
 0002:0000cfd0       __real@42fe0000            000000018009bfd0      CIL library: CIL module
 0002:0000cfd4       __real@30000000            000000018009bfd4      CIL library: CIL module
 0002:0000cfd8       __real@38000100            000000018009bfd8      CIL library: CIL module
 0002:0000cfdc       __real@3c010204            000000018009bfdc      CIL library: CIL module
 0002:0000cfe0       __real@3fd87221915b6dcc    000000018009bfe0      CIL library: CIL module
 0002:0000cfe8       __real@3fe3c6ef3752491a    000000018009bfe8      CIL library: CIL module
 0002:0000cff0       __real@3fa1df46a2529d39    000000018009bff0      CIL library: CIL module
 0002:0000cff8       __real@bff921fb54442d18    000000018009bff8      CIL library: CIL module
 0002:0000d000       __real@3e3ddb6d            000000018009c000      CIL library: CIL module
 0002:0000d008       __real@3fe921fb54442d18    000000018009c008      CIL library: CIL module
 0002:0000d010       __real@be3ddb6d            000000018009c010      CIL library: CIL module
 0002:0000d018       __real@bfe921fb54442d18    000000018009c018      CIL library: CIL module
 0002:0000d020       __mask@@NegDouble@         000000018009c020      CIL library: CIL module
 0002:0000d030       __real@0000000000000000    000000018009c030      CIL library: CIL module
 0002:0000d038       __real@3f000000            000000018009c038      CIL library: CIL module
 0002:0000d040       __real@40efffe000000000    000000018009c040      CIL library: CIL module
 0002:0000d048       __real@3f70000000000000    000000018009c048      CIL library: CIL module
 0002:0000d050       __real@43800000            000000018009c050      CIL library: CIL module
 0002:0000d054       __real@427c0000            000000018009c054      CIL library: CIL module
 0002:0000d058       __real@3c000000            000000018009c058      CIL library: CIL module
 0002:0000d060       __real@c7efffffe0000000    000000018009c060      CIL library: CIL module
 0002:0000d068       __real@47efffffe0000000    000000018009c068      CIL library: CIL module
 0002:0000d070       __real@461c4000            000000018009c070      CIL library: CIL module
 0002:0000d078       __real@4000000000000000    000000018009c078      CIL library: CIL module
 0002:0000d080       __real@3f1a36e2eb1c432d    000000018009c080      CIL library: CIL module
 0002:0000d088       __real@3ffc5fe740317f9c    000000018009c088      CIL library: CIL module
 0002:0000d090       __real@bfd60ad3ea582b50    000000018009c090      CIL library: CIL module
 0002:0000d098       __real@bfe6d5d7ace82bfe    000000018009c098      CIL library: CIL module
 0002:0000d0a0       __real@3ff66be12d60bfc9    000000018009c0a0      CIL library: CIL module
 0002:0000d0a8       __rtc_iaa                  000000018009c0a8     MSVCRT:_initsect_.obj
 0002:0000d0b0       __rtc_izz                  000000018009c0b0     MSVCRT:_initsect_.obj
 0002:0000d0b8       __rtc_taa                  000000018009c0b8     MSVCRT:_initsect_.obj
 0002:0000d0c0       __rtc_tzz                  000000018009c0c0     MSVCRT:_initsect_.obj
 0002:0000ed9c       __IMPORT_DESCRIPTOR_USER32 000000018009dd9c     user32:USER32.dll
 0002:0000edb0       __IMPORT_DESCRIPTOR_GDI32  000000018009ddb0     gdi32:GDI32.dll
 0002:0000edc4       __IMPORT_DESCRIPTOR_SHELL32 000000018009ddc4     shell32:SHELL32.dll
 0002:0000edd8       __IMPORT_DESCRIPTOR_WINMM  000000018009ddd8     winmm:WINMM.dll
 0002:0000edec       __IMPORT_DESCRIPTOR_IMM32  000000018009ddec     Imm32:IMM32.dll
 0002:0000ee00       __IMPORT_DESCRIPTOR_VERSION 000000018009de00     Version:VERSION.dll
 0002:0000ee14       __IMPORT_DESCRIPTOR_KERNEL32 000000018009de14     kernel32:KERNEL32.dll
 0002:0000ee28       __IMPORT_DESCRIPTOR_ole32  000000018009de28     ole32:ole32.dll
 0002:0000ee3c       __IMPORT_DESCRIPTOR_OLEAUT32 000000018009de3c     oleaut32:OLEAUT32.dll
 0002:0000ee50       __IMPORT_DESCRIPTOR_MSVCR90 000000018009de50     MSVCRT:MSVCR90.dll
 0002:0000ee64       __NULL_IMPORT_DESCRIPTOR   000000018009de64     user32:USER32.dll
 0003:00000000       DUMMYAUD_bootstrap         00000001800a4000     SDL_dummyaudio.obj
 0003:00000020       WINMM_bootstrap            00000001800a4020     SDL_winmm.obj
 0003:00000080       XAUDIO2_bootstrap          00000001800a4080     SDL_xaudio2.obj
 0003:000000c0       dfDIJoystick2              00000001800a40c0     SDL_dxjoystick.obj
 0003:00001020       D3D_RenderDriver           00000001800a5020     SDL_render_d3d.obj
 0003:00001080       GL_RenderDriver            00000001800a5080     SDL_render_gl.obj
 0003:00001120       SW_RenderDriver            00000001800a5120     SDL_render_sw.obj
 0003:00001188       DUMMY_bootstrap            00000001800a5188     SDL_nullvideo.obj
 0003:000011f8       WINDOWS_bootstrap          00000001800a51f8     SDL_windowsvideo.obj
 0003:00001228       _fltused                   00000001800a5228     MSVCRT:dllsupp.obj
 0003:00001230       __native_dllmain_reason    00000001800a5230     MSVCRT:natstart.obj
 0003:00001234       __native_vcclrit_reason    00000001800a5234     MSVCRT:natstart.obj
 0003:00001238       __security_cookie          00000001800a5238     MSVCRT:gs_cookie.obj
 0003:00001240       __security_cookie_complement 00000001800a5240     MSVCRT:gs_cookie.obj
 0003:00001250       DISKAUD_bootstrap          00000001800a5250     SDL_diskaudio.obj
 0003:00001270       DSOUND_bootstrap           00000001800a5270     SDL_directsound.obj
 0003:00001510       SDL_expand_byte            00000001800a5510     SDL_pixels.obj
 0003:00001560       SDL_GeneratedBlitFuncTable 00000001800a5560     SDL_blit_auto.obj
 0003:0000c9a8       SDL_XInputGetState         00000001800b09a8     SDL_dxjoystick.obj
 0003:0000c9b0       SDL_XInputSetState         00000001800b09b0     SDL_dxjoystick.obj
 0003:0000c9b8       SDL_XInputGetCapabilities  00000001800b09b8     SDL_dxjoystick.obj
 0003:0000c9c0       SDL_XInputVersion          00000001800b09c0     SDL_dxjoystick.obj
 0003:0000ca2c       SDL_Appstyle               00000001800b0a2c     SDL_windowsevents.obj
 0003:0000ca30       SDL_Appname                00000001800b0a30     SDL_windowsevents.obj
 0003:0000ca38       SDL_Instance               00000001800b0a38     SDL_windowsevents.obj
 0003:0000caf8       SDL_cursor                 00000001800b0af8     SDL_windowsmouse.obj
 0003:0000cb00       SDL_HelperWindow           00000001800b0b00     SDL_windowswindow.obj
 0003:0000cb10       _forceCRTManifestRTM       00000001800b0b10     MSVCRT:crtmanifestrtm.obj
 0003:0000cb18       ?__type_info_root_node@@3U__type_info_node@@A 00000001800b0b18     MSVCRT:tncleanup.obj
 0003:0000ec48       SDL_EventOK                00000001800b2c48     SDL_events.obj
 0003:0000ec58       SDL_numGestureTouches      00000001800b2c58     SDL_gesture.obj
 0003:0000ec68       SDL_numhaptics             00000001800b2c68     SDL_haptic.obj
 0003:0000ec70       SDL_haptics                00000001800b2c70     SDL_haptic.obj
 0003:0000ed18       __native_startup_state     00000001800b2d18     <common>
 0003:0000ed20       __native_startup_lock      00000001800b2d20     <common>
 0003:0000ed28       __onexitend                00000001800b2d28     <common>
 0003:0000ed30       __onexitbegin              00000001800b2d30     <common>
 0003:0000ed38       __dyn_tls_init_callback    00000001800b2d38     <common>
 0003:0000ed40       SDL_gestureTouch           00000001800b2d40     <common>
 0003:0000ed48       recordAll                  00000001800b2d48     <common>
 0003:0000ed50       SDL_EventOKParam           00000001800b2d50     <common>

 entry point at        0001:0008ccac

 Static symbols

 0001:00000124       get_audio_device           0000000180001124 f    CIL library: CIL module
 0001:00000154       SDL_AudioOpenDevice_Default 0000000180001154 f    CIL library: CIL module
 0001:00000158       SDL_AudioLockDevice_Default 0000000180001158 f    CIL library: CIL module
 0001:0000018c       SDL_AudioUnlockDevice_Default 000000018000118c f    CIL library: CIL module
 0001:00000348       SDL_ParseAudioFormat       0000000180001348 f    CIL library: CIL module
 0001:000007c4       free_device_list           00000001800017c4 f    CIL library: CIL module
 0001:00000820       SDL_AddCaptureAudioDevice  0000000180001820 f    CIL library: CIL module
 0001:00000878       SDL_AddOutputAudioDevice   0000000180001878 f    CIL library: CIL module
 0001:00000a14       close_audio_device         0000000180001a14 f    CIL library: CIL module
 0001:00000a90       prepare_audiospec          0000000180001a90 f    CIL library: CIL module
 0001:00000c04       open_audio_device          0000000180001c04 f    CIL library: CIL module
 0001:0000136c       SDL_ConvertMono            000000018000236c f    CIL library: CIL module
 0001:00001854       SDL_ConvertStrip           0000000180002854 f    CIL library: CIL module
 0001:00001974       SDL_ConvertStrip_2         0000000180002974 f    CIL library: CIL module
 0001:00001ad0       SDL_ConvertStereo          0000000180002ad0 f    CIL library: CIL module
 0001:00001bcc       SDL_ConvertSurround        0000000180002bcc f    CIL library: CIL module
 0001:00002410       SDL_ConvertSurround_4      0000000180003410 f    CIL library: CIL module
 0001:000029bc       SDL_BuildAudioTypeCVT      00000001800039bc f    CIL library: CIL module
 0001:00002ab0       SDL_BuildAudioResampleCVT  0000000180003ab0 f    CIL library: CIL module
 0001:00002f3c       SDL_Convert_U8_to_S8       0000000180003f3c f    CIL library: CIL module
 0001:00002f8c       SDL_Convert_U8_to_U16LSB   0000000180003f8c f    CIL library: CIL module
 0001:00002ffc       SDL_Convert_U8_to_S16LSB   0000000180003ffc f    CIL library: CIL module
 0001:00003070       SDL_Convert_U8_to_U16MSB   0000000180004070 f    CIL library: CIL module
 0001:000030e4       SDL_Convert_U8_to_S16MSB   00000001800040e4 f    CIL library: CIL module
 0001:00003160       SDL_Convert_U8_to_S32LSB   0000000180004160 f    CIL library: CIL module
 0001:000031d4       SDL_Convert_U8_to_S32MSB   00000001800041d4 f    CIL library: CIL module
 0001:0000326c       SDL_Convert_U8_to_F32LSB   000000018000426c f    CIL library: CIL module
 0001:000032f0       SDL_Convert_U8_to_F32MSB   00000001800042f0 f    CIL library: CIL module
 0001:000033a4       SDL_Convert_S8_to_U8       00000001800043a4 f    CIL library: CIL module
 0001:000033f4       SDL_Convert_S8_to_U16LSB   00000001800043f4 f    CIL library: CIL module
 0001:0000346c       SDL_Convert_S8_to_S16LSB   000000018000446c f    CIL library: CIL module
 0001:000034dc       SDL_Convert_S8_to_U16MSB   00000001800044dc f    CIL library: CIL module
 0001:00003558       SDL_Convert_S8_to_S16MSB   0000000180004558 f    CIL library: CIL module
 0001:000035cc       SDL_Convert_S8_to_S32LSB   00000001800045cc f    CIL library: CIL module
 0001:0000363c       SDL_Convert_S8_to_S32MSB   000000018000463c f    CIL library: CIL module
 0001:000036d0       SDL_Convert_S8_to_F32LSB   00000001800046d0 f    CIL library: CIL module
 0001:0000374c       SDL_Convert_S8_to_F32MSB   000000018000474c f    CIL library: CIL module
 0001:000037f8       SDL_Convert_U16LSB_to_U8   00000001800047f8 f    CIL library: CIL module
 0001:00003858       SDL_Convert_U16LSB_to_S8   0000000180004858 f    CIL library: CIL module
 0001:000038bc       SDL_Convert_U16LSB_to_S16LSB 00000001800048bc f    CIL library: CIL module
 0001:0000391c       SDL_Convert_U16LSB_to_U16MSB 000000018000491c f    CIL library: CIL module
 0001:00003978       SDL_Convert_U16LSB_to_S16MSB 0000000180004978 f    CIL library: CIL module
 0001:000039dc       SDL_Convert_U16LSB_to_S32LSB 00000001800049dc f    CIL library: CIL module
 0001:00003a54       SDL_Convert_U16LSB_to_S32MSB 0000000180004a54 f    CIL library: CIL module
 0001:00003af0       SDL_Convert_U16LSB_to_F32LSB 0000000180004af0 f    CIL library: CIL module
 0001:00003b78       SDL_Convert_U16LSB_to_F32MSB 0000000180004b78 f    CIL library: CIL module
 0001:00003c30       SDL_Convert_S16LSB_to_U8   0000000180004c30 f    CIL library: CIL module
 0001:00003c94       SDL_Convert_S16LSB_to_S8   0000000180004c94 f    CIL library: CIL module
 0001:00003cf4       SDL_Convert_S16LSB_to_U16LSB 0000000180004cf4 f    CIL library: CIL module
 0001:00003d54       SDL_Convert_S16LSB_to_U16MSB 0000000180004d54 f    CIL library: CIL module
 0001:00003db8       SDL_Convert_S16LSB_to_S16MSB 0000000180004db8 f    CIL library: CIL module
 0001:00003e14       SDL_Convert_S16LSB_to_S32LSB 0000000180004e14 f    CIL library: CIL module
 0001:00003e88       SDL_Convert_S16LSB_to_S32MSB 0000000180004e88 f    CIL library: CIL module
 0001:00003f20       SDL_Convert_S16LSB_to_F32LSB 0000000180004f20 f    CIL library: CIL module
 0001:00003fa0       SDL_Convert_S16LSB_to_F32MSB 0000000180004fa0 f    CIL library: CIL module
 0001:00004050       SDL_Convert_U16MSB_to_U8   0000000180005050 f    CIL library: CIL module
 0001:000040b8       SDL_Convert_U16MSB_to_S8   00000001800050b8 f    CIL library: CIL module
 0001:00004124       SDL_Convert_U16MSB_to_U16LSB 0000000180005124 f    CIL library: CIL module
 0001:00004180       SDL_Convert_U16MSB_to_S16LSB 0000000180005180 f    CIL library: CIL module
 0001:000041e4       SDL_Convert_U16MSB_to_S16MSB 00000001800051e4 f    CIL library: CIL module
 0001:0000424c       SDL_Convert_U16MSB_to_S32LSB 000000018000524c f    CIL library: CIL module
 0001:000042cc       SDL_Convert_U16MSB_to_S32MSB 00000001800052cc f    CIL library: CIL module
 0001:00004370       SDL_Convert_U16MSB_to_F32LSB 0000000180005370 f    CIL library: CIL module
 0001:00004400       SDL_Convert_U16MSB_to_F32MSB 0000000180005400 f    CIL library: CIL module
 0001:000044bc       SDL_Convert_S16MSB_to_U8   00000001800054bc f    CIL library: CIL module
 0001:00004528       SDL_Convert_S16MSB_to_S8   0000000180005528 f    CIL library: CIL module
 0001:00004590       SDL_Convert_S16MSB_to_U16LSB 0000000180005590 f    CIL library: CIL module
 0001:000045f4       SDL_Convert_S16MSB_to_S16LSB 00000001800055f4 f    CIL library: CIL module
 0001:00004650       SDL_Convert_S16MSB_to_U16MSB 0000000180005650 f    CIL library: CIL module
 0001:000046b8       SDL_Convert_S16MSB_to_S32LSB 00000001800056b8 f    CIL library: CIL module
 0001:00004734       SDL_Convert_S16MSB_to_S32MSB 0000000180005734 f    CIL library: CIL module
 0001:000047d4       SDL_Convert_S16MSB_to_F32LSB 00000001800057d4 f    CIL library: CIL module
 0001:00004858       SDL_Convert_S16MSB_to_F32MSB 0000000180005858 f    CIL library: CIL module
 0001:0000490c       SDL_Convert_S32LSB_to_U8   000000018000590c f    CIL library: CIL module
 0001:00004974       SDL_Convert_S32LSB_to_S8   0000000180005974 f    CIL library: CIL module
 0001:000049dc       SDL_Convert_S32LSB_to_U16LSB 00000001800059dc f    CIL library: CIL module
 0001:00004a4c       SDL_Convert_S32LSB_to_S16LSB 0000000180005a4c f    CIL library: CIL module
 0001:00004ab0       SDL_Convert_S32LSB_to_U16MSB 0000000180005ab0 f    CIL library: CIL module
 0001:00004b24       SDL_Convert_S32LSB_to_S16MSB 0000000180005b24 f    CIL library: CIL module
 0001:00004b8c       SDL_Convert_S32LSB_to_S32MSB 0000000180005b8c f    CIL library: CIL module
 0001:00004c08       SDL_Convert_S32LSB_to_F32LSB 0000000180005c08 f    CIL library: CIL module
 0001:00004c6c       SDL_Convert_S32LSB_to_F32MSB 0000000180005c6c f    CIL library: CIL module
 0001:00004d00       SDL_Convert_S32MSB_to_U8   0000000180005d00 f    CIL library: CIL module
 0001:00004d68       SDL_Convert_S32MSB_to_S8   0000000180005d68 f    CIL library: CIL module
 0001:00004de0       SDL_Convert_S32MSB_to_U16LSB 0000000180005de0 f    CIL library: CIL module
 0001:00004e64       SDL_Convert_S32MSB_to_S16LSB 0000000180005e64 f    CIL library: CIL module
 0001:00004ef0       SDL_Convert_S32MSB_to_U16MSB 0000000180005ef0 f    CIL library: CIL module
 0001:00004f78       SDL_Convert_S32MSB_to_S16MSB 0000000180005f78 f    CIL library: CIL module
 0001:00005008       SDL_Convert_S32MSB_to_S32LSB 0000000180006008 f    CIL library: CIL module
 0001:00005084       SDL_Convert_S32MSB_to_F32LSB 0000000180006084 f    CIL library: CIL module
 0001:00005110       SDL_Convert_S32MSB_to_F32MSB 0000000180006110 f    CIL library: CIL module
 0001:000051c8       SDL_Convert_F32LSB_to_U8   00000001800061c8 f    CIL library: CIL module
 0001:00005244       SDL_Convert_F32LSB_to_S8   0000000180006244 f    CIL library: CIL module
 0001:000052b8       SDL_Convert_F32LSB_to_U16LSB 00000001800062b8 f    CIL library: CIL module
 0001:00005334       SDL_Convert_F32LSB_to_S16LSB 0000000180006334 f    CIL library: CIL module
 0001:000053a4       SDL_Convert_F32LSB_to_U16MSB 00000001800063a4 f    CIL library: CIL module
 0001:00005424       SDL_Convert_F32LSB_to_S16MSB 0000000180006424 f    CIL library: CIL module
 0001:0000549c       SDL_Convert_F32LSB_to_S32LSB 000000018000649c f    CIL library: CIL module
 0001:00005504       SDL_Convert_F32LSB_to_S32MSB 0000000180006504 f    CIL library: CIL module
 0001:00005590       SDL_Convert_F32LSB_to_F32MSB 0000000180006590 f    CIL library: CIL module
 0001:00005618       SDL_Convert_F32MSB_to_U8   0000000180006618 f    CIL library: CIL module
 0001:000056d0       SDL_Convert_F32MSB_to_S8   00000001800066d0 f    CIL library: CIL module
 0001:00005780       SDL_Convert_F32MSB_to_U16LSB 0000000180006780 f    CIL library: CIL module
 0001:00005834       SDL_Convert_F32MSB_to_S16LSB 0000000180006834 f    CIL library: CIL module
 0001:000058e0       SDL_Convert_F32MSB_to_U16MSB 00000001800068e0 f    CIL library: CIL module
 0001:00005998       SDL_Convert_F32MSB_to_S16MSB 0000000180006998 f    CIL library: CIL module
 0001:00005a48       SDL_Convert_F32MSB_to_S32LSB 0000000180006a48 f    CIL library: CIL module
 0001:00005ae8       SDL_Convert_F32MSB_to_S32MSB 0000000180006ae8 f    CIL library: CIL module
 0001:00005bb0       SDL_Convert_F32MSB_to_F32LSB 0000000180006bb0 f    CIL library: CIL module
 0001:00005c38       SDL_Upsample_U8_1c         0000000180006c38 f    CIL library: CIL module
 0001:00005ce8       SDL_Downsample_U8_1c       0000000180006ce8 f    CIL library: CIL module
 0001:00005d90       SDL_Upsample_U8_2c         0000000180006d90 f    CIL library: CIL module
 0001:00005e64       SDL_Downsample_U8_2c       0000000180006e64 f    CIL library: CIL module
 0001:00005f30       SDL_Upsample_U8_4c         0000000180006f30 f    CIL library: CIL module
 0001:00006038       SDL_Downsample_U8_4c       0000000180007038 f    CIL library: CIL module
 0001:0000613c       SDL_Upsample_U8_6c         000000018000713c f    CIL library: CIL module
 0001:0000627c       SDL_Downsample_U8_6c       000000018000727c f    CIL library: CIL module
 0001:000063b4       SDL_Upsample_U8_8c         00000001800073b4 f    CIL library: CIL module
 0001:00006530       SDL_Downsample_U8_8c       0000000180007530 f    CIL library: CIL module
 0001:000066bc       SDL_Upsample_S8_1c         00000001800076bc f    CIL library: CIL module
 0001:0000676c       SDL_Downsample_S8_1c       000000018000776c f    CIL library: CIL module
 0001:00006814       SDL_Upsample_S8_2c         0000000180007814 f    CIL library: CIL module
 0001:000068e8       SDL_Downsample_S8_2c       00000001800078e8 f    CIL library: CIL module
 0001:000069b4       SDL_Upsample_S8_4c         00000001800079b4 f    CIL library: CIL module
 0001:00006abc       SDL_Downsample_S8_4c       0000000180007abc f    CIL library: CIL module
 0001:00006bc0       SDL_Upsample_S8_6c         0000000180007bc0 f    CIL library: CIL module
 0001:00006d00       SDL_Downsample_S8_6c       0000000180007d00 f    CIL library: CIL module
 0001:00006e38       SDL_Upsample_S8_8c         0000000180007e38 f    CIL library: CIL module
 0001:00006fb4       SDL_Downsample_S8_8c       0000000180007fb4 f    CIL library: CIL module
 0001:00007140       SDL_Upsample_U16LSB_1c     0000000180008140 f    CIL library: CIL module
 0001:000071f4       SDL_Downsample_U16LSB_1c   00000001800081f4 f    CIL library: CIL module
 0001:000072a0       SDL_Upsample_U16LSB_2c     00000001800082a0 f    CIL library: CIL module
 0001:00007378       SDL_Downsample_U16LSB_2c   0000000180008378 f    CIL library: CIL module
 0001:00007448       SDL_Upsample_U16LSB_4c     0000000180008448 f    CIL library: CIL module
 0001:00007558       SDL_Downsample_U16LSB_4c   0000000180008558 f    CIL library: CIL module
 0001:00007664       SDL_Upsample_U16LSB_6c     0000000180008664 f    CIL library: CIL module
 0001:000077b0       SDL_Downsample_U16LSB_6c   00000001800087b0 f    CIL library: CIL module
 0001:000078f4       SDL_Upsample_U16LSB_8c     00000001800088f4 f    CIL library: CIL module
 0001:00007a80       SDL_Downsample_U16LSB_8c   0000000180008a80 f    CIL library: CIL module
 0001:00007c20       SDL_Upsample_S16LSB_1c     0000000180008c20 f    CIL library: CIL module
 0001:00007cd4       SDL_Downsample_S16LSB_1c   0000000180008cd4 f    CIL library: CIL module
 0001:00007d80       SDL_Upsample_S16LSB_2c     0000000180008d80 f    CIL library: CIL module
 0001:00007e58       SDL_Downsample_S16LSB_2c   0000000180008e58 f    CIL library: CIL module
 0001:00007f28       SDL_Upsample_S16LSB_4c     0000000180008f28 f    CIL library: CIL module
 0001:00008038       SDL_Downsample_S16LSB_4c   0000000180009038 f    CIL library: CIL module
 0001:00008144       SDL_Upsample_S16LSB_6c     0000000180009144 f    CIL library: CIL module
 0001:00008290       SDL_Downsample_S16LSB_6c   0000000180009290 f    CIL library: CIL module
 0001:000083d4       SDL_Upsample_S16LSB_8c     00000001800093d4 f    CIL library: CIL module
 0001:00008560       SDL_Downsample_S16LSB_8c   0000000180009560 f    CIL library: CIL module
 0001:00008700       SDL_Upsample_U16MSB_1c     0000000180009700 f    CIL library: CIL module
 0001:000087c8       SDL_Downsample_U16MSB_1c   00000001800097c8 f    CIL library: CIL module
 0001:00008888       SDL_Upsample_U16MSB_2c     0000000180009888 f    CIL library: CIL module
 0001:00008984       SDL_Downsample_U16MSB_2c   0000000180009984 f    CIL library: CIL module
 0001:00008a7c       SDL_Upsample_U16MSB_4c     0000000180009a7c f    CIL library: CIL module
 0001:00008bdc       SDL_Downsample_U16MSB_4c   0000000180009bdc f    CIL library: CIL module
 0001:00008d38       SDL_Upsample_U16MSB_6c     0000000180009d38 f    CIL library: CIL module
 0001:00008ef8       SDL_Downsample_U16MSB_6c   0000000180009ef8 f    CIL library: CIL module
 0001:000090b8       SDL_Upsample_U16MSB_8c     000000018000a0b8 f    CIL library: CIL module
 0001:000092dc       SDL_Downsample_U16MSB_8c   000000018000a2dc f    CIL library: CIL module
 0001:000094fc       SDL_Upsample_S16MSB_1c     000000018000a4fc f    CIL library: CIL module
 0001:000095c4       SDL_Downsample_S16MSB_1c   000000018000a5c4 f    CIL library: CIL module
 0001:00009684       SDL_Upsample_S16MSB_2c     000000018000a684 f    CIL library: CIL module
 0001:00009780       SDL_Downsample_S16MSB_2c   000000018000a780 f    CIL library: CIL module
 0001:00009878       SDL_Upsample_S16MSB_4c     000000018000a878 f    CIL library: CIL module
 0001:000099d8       SDL_Downsample_S16MSB_4c   000000018000a9d8 f    CIL library: CIL module
 0001:00009b34       SDL_Upsample_S16MSB_6c     000000018000ab34 f    CIL library: CIL module
 0001:00009cf4       SDL_Downsample_S16MSB_6c   000000018000acf4 f    CIL library: CIL module
 0001:00009eb4       SDL_Upsample_S16MSB_8c     000000018000aeb4 f    CIL library: CIL module
 0001:0000a0d8       SDL_Downsample_S16MSB_8c   000000018000b0d8 f    CIL library: CIL module
 0001:0000a2f8       SDL_Upsample_S32LSB_1c     000000018000b2f8 f    CIL library: CIL module
 0001:0000a3ac       SDL_Downsample_S32LSB_1c   000000018000b3ac f    CIL library: CIL module
 0001:0000a458       SDL_Upsample_S32LSB_2c     000000018000b458 f    CIL library: CIL module
 0001:0000a52c       SDL_Downsample_S32LSB_2c   000000018000b52c f    CIL library: CIL module
 0001:0000a5f8       SDL_Upsample_S32LSB_4c     000000018000b5f8 f    CIL library: CIL module
 0001:0000a700       SDL_Downsample_S32LSB_4c   000000018000b700 f    CIL library: CIL module
 0001:0000a800       SDL_Upsample_S32LSB_6c     000000018000b800 f    CIL library: CIL module
 0001:0000a938       SDL_Downsample_S32LSB_6c   000000018000b938 f    CIL library: CIL module
 0001:0000aa68       SDL_Upsample_S32LSB_8c     000000018000ba68 f    CIL library: CIL module
 0001:0000abe4       SDL_Downsample_S32LSB_8c   000000018000bbe4 f    CIL library: CIL module
 0001:0000ad70       SDL_Upsample_S32MSB_1c     000000018000bd70 f    CIL library: CIL module
 0001:0000aea4       SDL_Downsample_S32MSB_1c   000000018000bea4 f    CIL library: CIL module
 0001:0000afd4       SDL_Upsample_S32MSB_2c     000000018000bfd4 f    CIL library: CIL module
 0001:0000b18c       SDL_Downsample_S32MSB_2c   000000018000c18c f    CIL library: CIL module
 0001:0000b340       SDL_Upsample_S32MSB_4c     000000018000c340 f    CIL library: CIL module
 0001:0000b614       SDL_Downsample_S32MSB_4c   000000018000c614 f    CIL library: CIL module
 0001:0000b8dc       SDL_Upsample_S32MSB_6c     000000018000c8dc f    CIL library: CIL module
 0001:0000bcc0       SDL_Downsample_S32MSB_6c   000000018000ccc0 f    CIL library: CIL module
 0001:0000c090       SDL_Upsample_S32MSB_8c     000000018000d090 f    CIL library: CIL module
 0001:0000c5b0       SDL_Downsample_S32MSB_8c   000000018000d5b0 f    CIL library: CIL module
 0001:0000cad0       SDL_Upsample_F32LSB_1c     000000018000dad0 f    CIL library: CIL module
 0001:0000cb80       SDL_Downsample_F32LSB_1c   000000018000db80 f    CIL library: CIL module
 0001:0000cc24       SDL_Upsample_F32LSB_2c     000000018000dc24 f    CIL library: CIL module
 0001:0000cd08       SDL_Downsample_F32LSB_2c   000000018000dd08 f    CIL library: CIL module
 0001:0000cde0       SDL_Upsample_F32LSB_4c     000000018000dde0 f    CIL library: CIL module
 0001:0000cf28       SDL_Downsample_F32LSB_4c   000000018000df28 f    CIL library: CIL module
 0001:0000d070       SDL_Upsample_F32LSB_6c     000000018000e070 f    CIL library: CIL module
 0001:0000d228       SDL_Downsample_F32LSB_6c   000000018000e228 f    CIL library: CIL module
 0001:0000d3d8       SDL_Upsample_F32LSB_8c     000000018000e3d8 f    CIL library: CIL module
 0001:0000d600       SDL_Downsample_F32LSB_8c   000000018000e600 f    CIL library: CIL module
 0001:0000d820       SDL_Upsample_F32MSB_1c     000000018000e820 f    CIL library: CIL module
 0001:0000d97c       SDL_Downsample_F32MSB_1c   000000018000e97c f    CIL library: CIL module
 0001:0000dad8       SDL_Upsample_F32MSB_2c     000000018000ead8 f    CIL library: CIL module
 0001:0000dcf0       SDL_Downsample_F32MSB_2c   000000018000ecf0 f    CIL library: CIL module
 0001:0000df04       SDL_Upsample_F32MSB_4c     000000018000ef04 f    CIL library: CIL module
 0001:0000e2b0       SDL_Downsample_F32MSB_4c   000000018000f2b0 f    CIL library: CIL module
 0001:0000e684       SDL_Upsample_F32MSB_6c     000000018000f684 f    CIL library: CIL module
 0001:0000ebec       SDL_Downsample_F32MSB_6c   000000018000fbec f    CIL library: CIL module
 0001:0000f14c       SDL_Upsample_F32MSB_8c     000000018001014c f    CIL library: CIL module
 0001:0000f844       SDL_Downsample_F32MSB_8c   0000000180010844 f    CIL library: CIL module
 0001:0000ff30       SDL_Upsample_U8_1c_x2      0000000180010f30 f    CIL library: CIL module
 0001:0000ffb4       SDL_Downsample_U8_1c_x2    0000000180010fb4 f    CIL library: CIL module
 0001:00010030       SDL_Upsample_U8_1c_x4      0000000180011030 f    CIL library: CIL module
 0001:000100e4       SDL_Downsample_U8_1c_x4    00000001800110e4 f    CIL library: CIL module
 0001:00010164       SDL_Upsample_U8_2c_x2      0000000180011164 f    CIL library: CIL module
 0001:00010214       SDL_Downsample_U8_2c_x2    0000000180011214 f    CIL library: CIL module
 0001:000102bc       SDL_Upsample_U8_2c_x4      00000001800112bc f    CIL library: CIL module
 0001:000103c0       SDL_Downsample_U8_2c_x4    00000001800113c0 f    CIL library: CIL module
 0001:0001046c       SDL_Upsample_U8_4c_x2      000000018001146c f    CIL library: CIL module
 0001:0001056c       SDL_Downsample_U8_4c_x2    000000018001156c f    CIL library: CIL module
 0001:00010658       SDL_Upsample_U8_4c_x4      0000000180011658 f    CIL library: CIL module
 0001:00010840       SDL_Downsample_U8_4c_x4    0000000180011840 f    CIL library: CIL module
 0001:00010930       SDL_Upsample_U8_6c_x2      0000000180011930 f    CIL library: CIL module
 0001:00010ab8       SDL_Downsample_U8_6c_x2    0000000180011ab8 f    CIL library: CIL module
 0001:00010c20       SDL_Upsample_U8_6c_x4      0000000180011c20 f    CIL library: CIL module
 0001:00010ec0       SDL_Downsample_U8_6c_x4    0000000180011ec0 f    CIL library: CIL module
 0001:0001102c       SDL_Upsample_U8_8c_x2      000000018001202c f    CIL library: CIL module
 0001:00011214       SDL_Downsample_U8_8c_x2    0000000180012214 f    CIL library: CIL module
 0001:000113dc       SDL_Upsample_U8_8c_x4      00000001800123dc f    CIL library: CIL module
 0001:00011770       SDL_Downsample_U8_8c_x4    0000000180012770 f    CIL library: CIL module
 0001:0001193c       SDL_Upsample_S8_1c_x2      000000018001293c f    CIL library: CIL module
 0001:000119c0       SDL_Downsample_S8_1c_x2    00000001800129c0 f    CIL library: CIL module
 0001:00011a3c       SDL_Upsample_S8_1c_x4      0000000180012a3c f    CIL library: CIL module
 0001:00011af0       SDL_Downsample_S8_1c_x4    0000000180012af0 f    CIL library: CIL module
 0001:00011b70       SDL_Upsample_S8_2c_x2      0000000180012b70 f    CIL library: CIL module
 0001:00011c20       SDL_Downsample_S8_2c_x2    0000000180012c20 f    CIL library: CIL module
 0001:00011cc8       SDL_Upsample_S8_2c_x4      0000000180012cc8 f    CIL library: CIL module
 0001:00011dcc       SDL_Downsample_S8_2c_x4    0000000180012dcc f    CIL library: CIL module
 0001:00011e78       SDL_Upsample_S8_4c_x2      0000000180012e78 f    CIL library: CIL module
 0001:00011f78       SDL_Downsample_S8_4c_x2    0000000180012f78 f    CIL library: CIL module
 0001:00012064       SDL_Upsample_S8_4c_x4      0000000180013064 f    CIL library: CIL module
 0001:0001224c       SDL_Downsample_S8_4c_x4    000000018001324c f    CIL library: CIL module
 0001:0001233c       SDL_Upsample_S8_6c_x2      000000018001333c f    CIL library: CIL module
 0001:000124c4       SDL_Downsample_S8_6c_x2    00000001800134c4 f    CIL library: CIL module
 0001:0001262c       SDL_Upsample_S8_6c_x4      000000018001362c f    CIL library: CIL module
 0001:000128cc       SDL_Downsample_S8_6c_x4    00000001800138cc f    CIL library: CIL module
 0001:00012a38       SDL_Upsample_S8_8c_x2      0000000180013a38 f    CIL library: CIL module
 0001:00012c20       SDL_Downsample_S8_8c_x2    0000000180013c20 f    CIL library: CIL module
 0001:00012de8       SDL_Upsample_S8_8c_x4      0000000180013de8 f    CIL library: CIL module
 0001:0001317c       SDL_Downsample_S8_8c_x4    000000018001417c f    CIL library: CIL module
 0001:00013348       SDL_Upsample_U16LSB_1c_x2  0000000180014348 f    CIL library: CIL module
 0001:000133b8       SDL_Downsample_U16LSB_1c_x2 00000001800143b8 f    CIL library: CIL module
 0001:00013434       SDL_Upsample_U16LSB_1c_x4  0000000180014434 f    CIL library: CIL module
 0001:000134d8       SDL_Downsample_U16LSB_1c_x4 00000001800144d8 f    CIL library: CIL module
 0001:00013558       SDL_Upsample_U16LSB_2c_x2  0000000180014558 f    CIL library: CIL module
 0001:00013600       SDL_Downsample_U16LSB_2c_x2 0000000180014600 f    CIL library: CIL module
 0001:0001369c       SDL_Upsample_U16LSB_2c_x4  000000018001469c f    CIL library: CIL module
 0001:0001378c       SDL_Downsample_U16LSB_2c_x4 000000018001478c f    CIL library: CIL module
 0001:0001382c       SDL_Upsample_U16LSB_4c_x2  000000018001482c f    CIL library: CIL module
 0001:00013924       SDL_Downsample_U16LSB_4c_x2 0000000180014924 f    CIL library: CIL module
 0001:00013a08       SDL_Upsample_U16LSB_4c_x4  0000000180014a08 f    CIL library: CIL module
 0001:00013b7c       SDL_Downsample_U16LSB_4c_x4 0000000180014b7c f    CIL library: CIL module
 0001:00013c64       SDL_Upsample_U16LSB_6c_x2  0000000180014c64 f    CIL library: CIL module
 0001:00013dc8       SDL_Downsample_U16LSB_6c_x2 0000000180014dc8 f    CIL library: CIL module
 0001:00013ef8       SDL_Upsample_U16LSB_6c_x4  0000000180014ef8 f    CIL library: CIL module
 0001:00014144       SDL_Downsample_U16LSB_6c_x4 0000000180015144 f    CIL library: CIL module
 0001:00014278       SDL_Upsample_U16LSB_8c_x2  0000000180015278 f    CIL library: CIL module
 0001:0001443c       SDL_Downsample_U16LSB_8c_x2 000000018001543c f    CIL library: CIL module
 0001:000145ec       SDL_Upsample_U16LSB_8c_x4  00000001800155ec f    CIL library: CIL module
 0001:000148e4       SDL_Downsample_U16LSB_8c_x4 00000001800158e4 f    CIL library: CIL module
 0001:00014a98       SDL_Upsample_S16LSB_1c_x2  0000000180015a98 f    CIL library: CIL module
 0001:00014b08       SDL_Downsample_S16LSB_1c_x2 0000000180015b08 f    CIL library: CIL module
 0001:00014b84       SDL_Upsample_S16LSB_1c_x4  0000000180015b84 f    CIL library: CIL module
 0001:00014c28       SDL_Downsample_S16LSB_1c_x4 0000000180015c28 f    CIL library: CIL module
 0001:00014ca8       SDL_Upsample_S16LSB_2c_x2  0000000180015ca8 f    CIL library: CIL module
 0001:00014d50       SDL_Downsample_S16LSB_2c_x2 0000000180015d50 f    CIL library: CIL module
 0001:00014dec       SDL_Upsample_S16LSB_2c_x4  0000000180015dec f    CIL library: CIL module
 0001:00014edc       SDL_Downsample_S16LSB_2c_x4 0000000180015edc f    CIL library: CIL module
 0001:00014f7c       SDL_Upsample_S16LSB_4c_x2  0000000180015f7c f    CIL library: CIL module
 0001:00015074       SDL_Downsample_S16LSB_4c_x2 0000000180016074 f    CIL library: CIL module
 0001:00015158       SDL_Upsample_S16LSB_4c_x4  0000000180016158 f    CIL library: CIL module
 0001:000152cc       SDL_Downsample_S16LSB_4c_x4 00000001800162cc f    CIL library: CIL module
 0001:000153b4       SDL_Upsample_S16LSB_6c_x2  00000001800163b4 f    CIL library: CIL module
 0001:00015518       SDL_Downsample_S16LSB_6c_x2 0000000180016518 f    CIL library: CIL module
 0001:00015648       SDL_Upsample_S16LSB_6c_x4  0000000180016648 f    CIL library: CIL module
 0001:00015894       SDL_Downsample_S16LSB_6c_x4 0000000180016894 f    CIL library: CIL module
 0001:000159c8       SDL_Upsample_S16LSB_8c_x2  00000001800169c8 f    CIL library: CIL module
 0001:00015b8c       SDL_Downsample_S16LSB_8c_x2 0000000180016b8c f    CIL library: CIL module
 0001:00015d3c       SDL_Upsample_S16LSB_8c_x4  0000000180016d3c f    CIL library: CIL module
 0001:00016034       SDL_Downsample_S16LSB_8c_x4 0000000180017034 f    CIL library: CIL module
 0001:000161e8       SDL_Upsample_U16MSB_1c_x2  00000001800171e8 f    CIL library: CIL module
 0001:00016270       SDL_Downsample_U16MSB_1c_x2 0000000180017270 f    CIL library: CIL module
 0001:000162f8       SDL_Upsample_U16MSB_1c_x4  00000001800172f8 f    CIL library: CIL module
 0001:000163ac       SDL_Downsample_U16MSB_1c_x4 00000001800173ac f    CIL library: CIL module
 0001:00016438       SDL_Upsample_U16MSB_2c_x2  0000000180017438 f    CIL library: CIL module
 0001:00016504       SDL_Downsample_U16MSB_2c_x2 0000000180017504 f    CIL library: CIL module
 0001:000165c4       SDL_Upsample_U16MSB_2c_x4  00000001800175c4 f    CIL library: CIL module
 0001:000166d4       SDL_Downsample_U16MSB_2c_x4 00000001800176d4 f    CIL library: CIL module
 0001:00016798       SDL_Upsample_U16MSB_4c_x2  0000000180017798 f    CIL library: CIL module
 0001:000168d4       SDL_Downsample_U16MSB_4c_x2 00000001800178d4 f    CIL library: CIL module
 0001:000169f0       SDL_Upsample_U16MSB_4c_x4  00000001800179f0 f    CIL library: CIL module
 0001:00016b9c       SDL_Downsample_U16MSB_4c_x4 0000000180017b9c f    CIL library: CIL module
 0001:00016cbc       SDL_Upsample_U16MSB_6c_x2  0000000180017cbc f    CIL library: CIL module
 0001:00016e8c       SDL_Downsample_U16MSB_6c_x2 0000000180017e8c f    CIL library: CIL module
 0001:0001702c       SDL_Upsample_U16MSB_6c_x4  000000018001802c f    CIL library: CIL module
 0001:000172cc       SDL_Downsample_U16MSB_6c_x4 00000001800182cc f    CIL library: CIL module
 0001:00017470       SDL_Upsample_U16MSB_8c_x2  0000000180018470 f    CIL library: CIL module
 0001:000176ac       SDL_Downsample_U16MSB_8c_x2 00000001800186ac f    CIL library: CIL module
 0001:000178dc       SDL_Upsample_U16MSB_8c_x4  00000001800188dc f    CIL library: CIL module
 0001:00017c4c       SDL_Downsample_U16MSB_8c_x4 0000000180018c4c f    CIL library: CIL module
 0001:00017e80       SDL_Upsample_S16MSB_1c_x2  0000000180018e80 f    CIL library: CIL module
 0001:00017f08       SDL_Downsample_S16MSB_1c_x2 0000000180018f08 f    CIL library: CIL module
 0001:00017f90       SDL_Upsample_S16MSB_1c_x4  0000000180018f90 f    CIL library: CIL module
 0001:00018044       SDL_Downsample_S16MSB_1c_x4 0000000180019044 f    CIL library: CIL module
 0001:000180d0       SDL_Upsample_S16MSB_2c_x2  00000001800190d0 f    CIL library: CIL module
 0001:0001819c       SDL_Downsample_S16MSB_2c_x2 000000018001919c f    CIL library: CIL module
 0001:0001825c       SDL_Upsample_S16MSB_2c_x4  000000018001925c f    CIL library: CIL module
 0001:0001836c       SDL_Downsample_S16MSB_2c_x4 000000018001936c f    CIL library: CIL module
 0001:00018430       SDL_Upsample_S16MSB_4c_x2  0000000180019430 f    CIL library: CIL module
 0001:0001856c       SDL_Downsample_S16MSB_4c_x2 000000018001956c f    CIL library: CIL module
 0001:00018688       SDL_Upsample_S16MSB_4c_x4  0000000180019688 f    CIL library: CIL module
 0001:00018834       SDL_Downsample_S16MSB_4c_x4 0000000180019834 f    CIL library: CIL module
 0001:00018954       SDL_Upsample_S16MSB_6c_x2  0000000180019954 f    CIL library: CIL module
 0001:00018b20       SDL_Downsample_S16MSB_6c_x2 0000000180019b20 f    CIL library: CIL module
 0001:00018cbc       SDL_Upsample_S16MSB_6c_x4  0000000180019cbc f    CIL library: CIL module
 0001:00018f58       SDL_Downsample_S16MSB_6c_x4 0000000180019f58 f    CIL library: CIL module
 0001:000190f8       SDL_Upsample_S16MSB_8c_x2  000000018001a0f8 f    CIL library: CIL module
 0001:0001932c       SDL_Downsample_S16MSB_8c_x2 000000018001a32c f    CIL library: CIL module
 0001:0001954c       SDL_Upsample_S16MSB_8c_x4  000000018001a54c f    CIL library: CIL module
 0001:000198b0       SDL_Downsample_S16MSB_8c_x4 000000018001a8b0 f    CIL library: CIL module
 0001:00019ad4       SDL_Upsample_S32LSB_1c_x2  000000018001aad4 f    CIL library: CIL module
 0001:00019b44       SDL_Downsample_S32LSB_1c_x2 000000018001ab44 f    CIL library: CIL module
 0001:00019bc0       SDL_Upsample_S32LSB_1c_x4  000000018001abc0 f    CIL library: CIL module
 0001:00019c68       SDL_Downsample_S32LSB_1c_x4 000000018001ac68 f    CIL library: CIL module
 0001:00019ce8       SDL_Upsample_S32LSB_2c_x2  000000018001ace8 f    CIL library: CIL module
 0001:00019d8c       SDL_Downsample_S32LSB_2c_x2 000000018001ad8c f    CIL library: CIL module
 0001:00019e28       SDL_Upsample_S32LSB_2c_x4  000000018001ae28 f    CIL library: CIL module
 0001:00019f18       SDL_Downsample_S32LSB_2c_x4 000000018001af18 f    CIL library: CIL module
 0001:00019fb8       SDL_Upsample_S32LSB_4c_x2  000000018001afb8 f    CIL library: CIL module
 0001:0001a0a8       SDL_Downsample_S32LSB_4c_x2 000000018001b0a8 f    CIL library: CIL module
 0001:0001a184       SDL_Upsample_S32LSB_4c_x4  000000018001b184 f    CIL library: CIL module
 0001:0001a2f0       SDL_Downsample_S32LSB_4c_x4 000000018001b2f0 f    CIL library: CIL module
 0001:0001a3d0       SDL_Upsample_S32LSB_6c_x2  000000018001b3d0 f    CIL library: CIL module
 0001:0001a534       SDL_Downsample_S32LSB_6c_x2 000000018001b534 f    CIL library: CIL module
 0001:0001a668       SDL_Upsample_S32LSB_6c_x4  000000018001b668 f    CIL library: CIL module
 0001:0001a8b4       SDL_Downsample_S32LSB_6c_x4 000000018001b8b4 f    CIL library: CIL module
 0001:0001a9ec       SDL_Upsample_S32LSB_8c_x2  000000018001b9ec f    CIL library: CIL module
 0001:0001abb0       SDL_Downsample_S32LSB_8c_x2 000000018001bbb0 f    CIL library: CIL module
 0001:0001ad60       SDL_Upsample_S32LSB_8c_x4  000000018001bd60 f    CIL library: CIL module
 0001:0001b080       SDL_Downsample_S32LSB_8c_x4 000000018001c080 f    CIL library: CIL module
 0001:0001b234       SDL_Upsample_S32MSB_1c_x2  000000018001c234 f    CIL library: CIL module
 0001:0001b31c       SDL_Downsample_S32MSB_1c_x2 000000018001c31c f    CIL library: CIL module
 0001:0001b3f0       SDL_Upsample_S32MSB_1c_x4  000000018001c3f0 f    CIL library: CIL module
 0001:0001b4f8       SDL_Downsample_S32MSB_1c_x4 000000018001c4f8 f    CIL library: CIL module
 0001:0001b5d0       SDL_Upsample_S32MSB_2c_x2  000000018001c5d0 f    CIL library: CIL module
 0001:0001b724       SDL_Downsample_S32MSB_2c_x2 000000018001c724 f    CIL library: CIL module
 0001:0001b86c       SDL_Upsample_S32MSB_2c_x4  000000018001c86c f    CIL library: CIL module
 0001:0001ba00       SDL_Downsample_S32MSB_2c_x4 000000018001ca00 f    CIL library: CIL module
 0001:0001bb4c       SDL_Upsample_S32MSB_4c_x2  000000018001cb4c f    CIL library: CIL module
 0001:0001bd80       SDL_Downsample_S32MSB_4c_x2 000000018001cd80 f    CIL library: CIL module
 0001:0001bf90       SDL_Upsample_S32MSB_4c_x4  000000018001cf90 f    CIL library: CIL module
 0001:0001c244       SDL_Downsample_S32MSB_4c_x4 000000018001d244 f    CIL library: CIL module
 0001:0001c458       SDL_Upsample_S32MSB_6c_x2  000000018001d458 f    CIL library: CIL module
 0001:0001c788       SDL_Downsample_S32MSB_6c_x2 000000018001d788 f    CIL library: CIL module
 0001:0001ca9c       SDL_Upsample_S32MSB_6c_x4  000000018001da9c f    CIL library: CIL module
 0001:0001cea4       SDL_Downsample_S32MSB_6c_x4 000000018001dea4 f    CIL library: CIL module
 0001:0001d1bc       SDL_Upsample_S32MSB_8c_x2  000000018001e1bc f    CIL library: CIL module
 0001:0001d5e0       SDL_Downsample_S32MSB_8c_x2 000000018001e5e0 f    CIL library: CIL module
 0001:0001d9d8       SDL_Upsample_S32MSB_8c_x4  000000018001e9d8 f    CIL library: CIL module
 0001:0001df5c       SDL_Downsample_S32MSB_8c_x4 000000018001ef5c f    CIL library: CIL module
 0001:0001e358       SDL_Upsample_F32LSB_1c_x2  000000018001f358 f    CIL library: CIL module
 0001:0001e3e8       SDL_Downsample_F32LSB_1c_x2 000000018001f3e8 f    CIL library: CIL module
 0001:0001e46c       SDL_Upsample_F32LSB_1c_x4  000000018001f46c f    CIL library: CIL module
 0001:0001e554       SDL_Downsample_F32LSB_1c_x4 000000018001f554 f    CIL library: CIL module
 0001:0001e5dc       SDL_Upsample_F32LSB_2c_x2  000000018001f5dc f    CIL library: CIL module
 0001:0001e6a8       SDL_Downsample_F32LSB_2c_x2 000000018001f6a8 f    CIL library: CIL module
 0001:0001e760       SDL_Upsample_F32LSB_2c_x4  000000018001f760 f    CIL library: CIL module
 0001:0001e8d8       SDL_Downsample_F32LSB_2c_x4 000000018001f8d8 f    CIL library: CIL module
 0001:0001e994       SDL_Upsample_F32LSB_4c_x2  000000018001f994 f    CIL library: CIL module
 0001:0001eafc       SDL_Downsample_F32LSB_4c_x2 000000018001fafc f    CIL library: CIL module
 0001:0001ec40       SDL_Upsample_F32LSB_4c_x4  000000018001fc40 f    CIL library: CIL module
 0001:0001eecc       SDL_Downsample_F32LSB_4c_x4 000000018001fecc f    CIL library: CIL module
 0001:0001f014       SDL_Upsample_F32LSB_6c_x2  0000000180020014 f    CIL library: CIL module
 0001:0001f228       SDL_Downsample_F32LSB_6c_x2 0000000180020228 f    CIL library: CIL module
 0001:0001f408       SDL_Upsample_F32LSB_6c_x4  0000000180020408 f    CIL library: CIL module
 0001:0001f7d0       SDL_Downsample_F32LSB_6c_x4 00000001800207d0 f    CIL library: CIL module
 0001:0001f9b4       SDL_Upsample_F32LSB_8c_x2  00000001800209b4 f    CIL library: CIL module
 0001:0001fc74       SDL_Downsample_F32LSB_8c_x2 0000000180020c74 f    CIL library: CIL module
 0001:0001fef4       SDL_Upsample_F32LSB_8c_x4  0000000180020ef4 f    CIL library: CIL module
 0001:000203d4       SDL_Downsample_F32LSB_8c_x4 00000001800213d4 f    CIL library: CIL module
 0001:00020658       SDL_Upsample_F32MSB_1c_x2  0000000180021658 f    CIL library: CIL module
 0001:00020768       SDL_Downsample_F32MSB_1c_x2 0000000180021768 f    CIL library: CIL module
 0001:00020878       SDL_Upsample_F32MSB_1c_x4  0000000180021878 f    CIL library: CIL module
 0001:000209e0       SDL_Downsample_F32MSB_1c_x4 00000001800219e0 f    CIL library: CIL module
 0001:00020af4       SDL_Upsample_F32MSB_2c_x2  0000000180021af4 f    CIL library: CIL module
 0001:00020ca4       SDL_Downsample_F32MSB_2c_x2 0000000180021ca4 f    CIL library: CIL module
 0001:00020e54       SDL_Upsample_F32MSB_2c_x4  0000000180021e54 f    CIL library: CIL module
 0001:000210a8       SDL_Downsample_F32MSB_2c_x4 00000001800220a8 f    CIL library: CIL module
 0001:0002125c       SDL_Upsample_F32MSB_4c_x2  000000018002225c f    CIL library: CIL module
 0001:000215b8       SDL_Downsample_F32MSB_4c_x2 00000001800225b8 f    CIL library: CIL module
 0001:000218f4       SDL_Upsample_F32MSB_4c_x4  00000001800228f4 f    CIL library: CIL module
 0001:00021d74       SDL_Downsample_F32MSB_4c_x4 0000000180022d74 f    CIL library: CIL module
 0001:000220b4       SDL_Upsample_F32MSB_6c_x2  00000001800230b4 f    CIL library: CIL module
 0001:00022598       SDL_Downsample_F32MSB_6c_x2 0000000180023598 f    CIL library: CIL module
 0001:00022a4c       SDL_Upsample_F32MSB_6c_x4  0000000180023a4c f    CIL library: CIL module
 0001:000230c4       SDL_Downsample_F32MSB_6c_x4 00000001800240c4 f    CIL library: CIL module
 0001:0002357c       SDL_Upsample_F32MSB_8c_x2  000000018002457c f    CIL library: CIL module
 0001:00023bd8       SDL_Downsample_F32MSB_8c_x2 0000000180024bd8 f    CIL library: CIL module
 0001:000241f4       SDL_Upsample_F32MSB_8c_x4  00000001800251f4 f    CIL library: CIL module
 0001:00024a5c       SDL_Downsample_F32MSB_8c_x4 0000000180025a5c f    CIL library: CIL module
 0001:00025550       InitMS_ADPCM               0000000180026550 f    CIL library: CIL module
 0001:0002562c       MS_ADPCM_nibble            000000018002662c f    CIL library: CIL module
 0001:00025720       MS_ADPCM_decode            0000000180026720 f    CIL library: CIL module
 0001:00025984       IMA_ADPCM_nibble           0000000180026984 f    CIL library: CIL module
 0001:00025e14       IMA_ADPCM_decode           0000000180026e14 f    CIL library: CIL module
 0001:00026414       ReadChunk                  0000000180027414 f    CIL library: CIL module
 0001:00026558       SDL_GetCPUFeatures         0000000180027558 f    CIL library: CIL module
 0001:00026888       SDL_AddEvent               0000000180027888 f    CIL library: CIL module
 0001:00026968       SDL_CutEvent               0000000180027968 f    CIL library: CIL module
 0001:0002729c       SDL_AddDollarGesture_one   000000018002829c f    CIL library: CIL module
 0001:0002736c       SDL_AddDollarGesture       000000018002836c f    CIL library: CIL module
 0001:000274d0       dollarDifference           00000001800284d0 f    CIL library: CIL module
 0001:000275dc       dollarNormalize            00000001800285dc f    CIL library: CIL module
 0001:00027954       dollarRecognize            0000000180028954 f    CIL library: CIL module
 0001:00028994       SDL_UpdateMouseFocus       0000000180029994 f    CIL library: CIL module
 0001:00028ab0       SDL_PrivateSendMouseMotion 0000000180029ab0 f    CIL library: CIL module
 0001:00029354       SDL_HandleSIG              000000018002a354 f    CIL library: CIL module
 0001:000295c4       SDL_AddFinger              000000018002a5c4 f    CIL library: CIL module
 0001:00029b38       RemovePendingResizedEvents 000000018002ab38 f    CIL library: CIL module
 0001:00029b58       RemovePendingSizeChangedEvents 000000018002ab58 f    CIL library: CIL module
 0001:00029b78       RemovePendingMoveEvents    000000018002ab78 f    CIL library: CIL module
 0001:00029f40       windows_file_open          000000018002af40 f    CIL library: CIL module
 0001:0002a124       windows_file_size          000000018002b124 f    CIL library: CIL module
 0001:0002a170       windows_file_seek          000000018002b170 f    CIL library: CIL module
 0001:0002a204       windows_file_read          000000018002b204 f    CIL library: CIL module
 0001:0002a324       windows_file_write         000000018002b324 f    CIL library: CIL module
 0001:0002a3f0       windows_file_close         000000018002b3f0 f    CIL library: CIL module
 0001:0002a434       stdio_size                 000000018002b434 f    CIL library: CIL module
 0001:0002a48c       stdio_seek                 000000018002b48c f    CIL library: CIL module
 0001:0002a4c4       stdio_read                 000000018002b4c4 f    CIL library: CIL module
 0001:0002a520       stdio_write                000000018002b520 f    CIL library: CIL module
 0001:0002a57c       stdio_close                000000018002b57c f    CIL library: CIL module
 0001:0002a5c8       mem_size                   000000018002b5c8 f    CIL library: CIL module
 0001:0002a5d4       mem_seek                   000000018002b5d4 f    CIL library: CIL module
 0001:0002a62c       mem_read                   000000018002b62c f    CIL library: CIL module
 0001:0002a6a0       mem_write                  000000018002b6a0 f    CIL library: CIL module
 0001:0002a704       mem_writeconst             000000018002b704 f    CIL library: CIL module
 0001:0002a71c       mem_close                  000000018002b71c f    CIL library: CIL module
 0001:0002ad30       ValidHaptic                000000018002bd30 f    CIL library: CIL module
 0001:0002cb60       SDL_JoystickAllowBackgroundEventsChanged 000000018002db60 f    CIL library: CIL module
 0001:0002d0f8       SDL_PrivateJoystickShouldIgnoreEvent 000000018002e0f8 f    CIL library: CIL module
 0001:0002d854       SDL_RendererEventWatch     000000018002e854 f    CIL library: CIL module
 0001:0002de48       GetClosestSupportedFormat  000000018002ee48 f    CIL library: CIL module
 0001:0002e61c       SDL_UpdateTextureYUV       000000018002f61c f    CIL library: CIL module
 0001:0002e78c       SDL_UpdateTextureNative    000000018002f78c f    CIL library: CIL module
 0001:0002e994       SDL_UpdateTextureYUVPlanar 000000018002f994 f    CIL library: CIL module
 0001:0002ee48       SDL_UnlockTextureNative    000000018002fe48 f    CIL library: CIL module
 0001:0002f1e4       UpdateLogicalSize          00000001800301e4 f    CIL library: CIL module
 0001:0002f970       RenderDrawPointsWithRects  0000000180030970 f    CIL library: CIL module
 0001:0002fbc8       RenderDrawLinesWithRects   0000000180030bc8 f    CIL library: CIL module
 0001:000309b8       Color16DitherYV12Mod1X     00000001800319b8 f    CIL library: CIL module
 0001:00030bb8       Color24DitherYV12Mod1X     0000000180031bb8 f    CIL library: CIL module
 0001:00030df8       Color32DitherYV12Mod1X     0000000180031df8 f    CIL library: CIL module
 0001:00030fe8       Color16DitherYV12Mod2X     0000000180031fe8 f    CIL library: CIL module
 0001:000311fc       Color24DitherYV12Mod2X     00000001800321fc f    CIL library: CIL module
 0001:000314e4       Color32DitherYV12Mod2X     00000001800324e4 f    CIL library: CIL module
 0001:00031718       Color16DitherYUY2Mod1X     0000000180032718 f    CIL library: CIL module
 0001:00031860       Color24DitherYUY2Mod1X     0000000180032860 f    CIL library: CIL module
 0001:000319c8       Color32DitherYUY2Mod1X     00000001800329c8 f    CIL library: CIL module
 0001:00031b08       Color16DitherYUY2Mod2X     0000000180032b08 f    CIL library: CIL module
 0001:00031c60       Color24DitherYUY2Mod2X     0000000180032c60 f    CIL library: CIL module
 0001:00031e18       Color32DitherYUY2Mod2X     0000000180032e18 f    CIL library: CIL module
 0001:00031f84       number_of_bits_set         0000000180032f84 f    CIL library: CIL module
 0001:00031fa8       free_bits_at_bottom        0000000180032fa8 f    CIL library: CIL module
 0001:00031fcc       SDL_SW_SetupYUVDisplay     0000000180032fcc f    CIL library: CIL module
 0001:00032ed4       getlocale                  0000000180033ed4 f    CIL library: CIL module
 0001:00033cd0       SDL_ScanLong               0000000180034cd0 f    CIL library: CIL module
 0001:00033d9c       SDL_ScanUnsignedLong       0000000180034d9c f    CIL library: CIL module
 0001:00033e4c       SDL_ScanLongLong           0000000180034e4c f    CIL library: CIL module
 0001:00033f24       SDL_ScanUnsignedLongLong   0000000180034f24 f    CIL library: CIL module
 0001:00033fe0       SDL_ScanFloat              0000000180034fe0 f    CIL library: CIL module
 0001:00034b38       SDL_PrintString            0000000180035b38 f    CIL library: CIL module
 0001:00034bf0       SDL_PrintLong              0000000180035bf0 f    CIL library: CIL module
 0001:00034c54       SDL_PrintUnsignedLong      0000000180035c54 f    CIL library: CIL module
 0001:00034cb8       SDL_PrintFloat             0000000180035cb8 f    CIL library: CIL module
 0001:000358f4       SDL_TimerThread            00000001800368f4 f    CIL library: CIL module
 0001:00035e38       SDL_SoftBlit               0000000180036e38 f    CIL library: CIL module
 0001:00035fb4       SDL_ChooseBlitFunc         0000000180036fb4 f    CIL library: CIL module
 0001:0003640c       BlitBto1                   000000018003740c f    CIL library: CIL module
 0001:000364d8       BlitBto2                   00000001800374d8 f    CIL library: CIL module
 0001:00036570       BlitBto3                   0000000180037570 f    CIL library: CIL module
 0001:00036628       BlitBto4                   0000000180037628 f    CIL library: CIL module
 0001:000366c4       BlitBto1Key                00000001800376c4 f    CIL library: CIL module
 0001:000367c4       BlitBto2Key                00000001800377c4 f    CIL library: CIL module
 0001:00036878       BlitBto3Key                0000000180037878 f    CIL library: CIL module
 0001:0003692c       BlitBto4Key                000000018003792c f    CIL library: CIL module
 0001:000369e0       BlitBtoNAlpha              00000001800379e0 f    CIL library: CIL module
 0001:00036d64       BlitBtoNAlphaKey           0000000180037d64 f    CIL library: CIL module
 0001:00037104       Blit1to1                   0000000180038104 f    CIL library: CIL module
 0001:00037240       Blit1to2                   0000000180038240 f    CIL library: CIL module
 0001:0003738c       Blit1to3                   000000018003838c f    CIL library: CIL module
 0001:000375c4       Blit1to4                   00000001800385c4 f    CIL library: CIL module
 0001:0003770c       Blit1to1Key                000000018003870c f    CIL library: CIL module
 0001:00037978       Blit1to2Key                0000000180038978 f    CIL library: CIL module
 0001:00037b00       Blit1to3Key                0000000180038b00 f    CIL library: CIL module
 0001:00037d6c       Blit1to4Key                0000000180038d6c f    CIL library: CIL module
 0001:00037ee8       Blit1toNAlpha              0000000180038ee8 f    CIL library: CIL module
 0001:000389e4       Blit1toNAlphaKey           00000001800399e4 f    CIL library: CIL module
 0001:00039f6c       BlitNto1SurfaceAlpha       000000018003af6c f    CIL library: CIL module
 0001:0003a614       BlitNto1PixelAlpha         000000018003b614 f    CIL library: CIL module
 0001:0003ad40       BlitNto1SurfaceAlphaKey    000000018003bd40 f    CIL library: CIL module
 0001:0003ba40       BlitRGBtoRGBSurfaceAlpha128 000000018003ca40 f    CIL library: CIL module
 0001:0003bbac       BlitRGBtoRGBSurfaceAlpha   000000018003cbac f    CIL library: CIL module
 0001:0003bda4       BlitRGBtoRGBPixelAlpha     000000018003cda4 f    CIL library: CIL module
 0001:0003c068       Blit16to16SurfaceAlpha128  000000018003d068 f    CIL library: CIL module
 0001:0003c2ac       Blit565to565SurfaceAlpha   000000018003d2ac f    CIL library: CIL module
 0001:0003c488       Blit555to555SurfaceAlpha   000000018003d488 f    CIL library: CIL module
 0001:0003c664       BlitARGBto565PixelAlpha    000000018003d664 f    CIL library: CIL module
 0001:0003c974       BlitARGBto555PixelAlpha    000000018003d974 f    CIL library: CIL module
 0001:0003cc84       BlitNtoNSurfaceAlpha       000000018003dc84 f    CIL library: CIL module
 0001:0003da28       BlitNtoNSurfaceAlphaKey    000000018003ea28 f    CIL library: CIL module
 0001:0003e7d4       BlitNtoNPixelAlpha         000000018003f7d4 f    CIL library: CIL module
 0001:0003f7cc       SDL_Blit_RGB888_RGB888_Blend 00000001800407cc f    CIL library: CIL module
 0001:0003f910       SDL_Blit_RGB888_RGB888_Blend_Scale 0000000180040910 f    CIL library: CIL module
 0001:0003fad4       SDL_Blit_RGB888_RGB888_Modulate_Blend 0000000180040ad4 f    CIL library: CIL module
 0001:0003fd74       SDL_Blit_RGB888_RGB888_Modulate_Blend_Scale 0000000180040d74 f    CIL library: CIL module
 0001:000400c0       SDL_Blit_RGB888_BGR888_Blend 00000001800410c0 f    CIL library: CIL module
 0001:00040204       SDL_Blit_RGB888_BGR888_Blend_Scale 0000000180041204 f    CIL library: CIL module
 0001:000403cc       SDL_Blit_RGB888_BGR888_Modulate_Blend 00000001800413cc f    CIL library: CIL module
 0001:00040668       SDL_Blit_RGB888_BGR888_Modulate_Blend_Scale 0000000180041668 f    CIL library: CIL module
 0001:000409b4       SDL_Blit_RGB888_ARGB8888_Scale 00000001800419b4 f    CIL library: CIL module
 0001:00040ac0       SDL_Blit_RGB888_ARGB8888_Blend 0000000180041ac0 f    CIL library: CIL module
 0001:00040c1c       SDL_Blit_RGB888_ARGB8888_Blend_Scale 0000000180041c1c f    CIL library: CIL module
 0001:00040e0c       SDL_Blit_RGB888_ARGB8888_Modulate 0000000180041e0c f    CIL library: CIL module
 0001:00040f44       SDL_Blit_RGB888_ARGB8888_Modulate_Scale 0000000180041f44 f    CIL library: CIL module
 0001:00041124       SDL_Blit_RGB888_ARGB8888_Modulate_Blend 0000000180042124 f    CIL library: CIL module
 0001:000413e8       SDL_Blit_RGB888_ARGB8888_Modulate_Blend_Scale 00000001800423e8 f    CIL library: CIL module
 0001:0004175c       SDL_Blit_BGR888_RGB888_Blend 000000018004275c f    CIL library: CIL module
 0001:000418a0       SDL_Blit_BGR888_RGB888_Blend_Scale 00000001800428a0 f    CIL library: CIL module
 0001:00041a64       SDL_Blit_ABGR8888_RGB888_Modulate 0000000180042a64 f    CIL library: CIL module
 0001:00041a64       SDL_Blit_BGR888_RGB888_Modulate 0000000180042a64 f    CIL library: CIL module
 0001:00041b54       SDL_Blit_ABGR8888_RGB888_Modulate_Scale 0000000180042b54 f    CIL library: CIL module
 0001:00041b54       SDL_Blit_BGR888_RGB888_Modulate_Scale 0000000180042b54 f    CIL library: CIL module
 0001:00041ce4       SDL_Blit_BGR888_RGB888_Modulate_Blend 0000000180042ce4 f    CIL library: CIL module
 0001:00041f84       SDL_Blit_BGR888_RGB888_Modulate_Blend_Scale 0000000180042f84 f    CIL library: CIL module
 0001:000422d0       SDL_Blit_RGB888_RGB888_Scale 00000001800432d0 f    CIL library: CIL module
 0001:000422d0       SDL_Blit_BGR888_BGR888_Scale 00000001800432d0 f    CIL library: CIL module
 0001:000422d0       SDL_Blit_ARGB8888_ARGB8888_Scale 00000001800432d0 f    CIL library: CIL module
 0001:000423b4       SDL_Blit_BGR888_BGR888_Blend 00000001800433b4 f    CIL library: CIL module
 0001:000424f8       SDL_Blit_BGR888_BGR888_Blend_Scale 00000001800434f8 f    CIL library: CIL module
 0001:000426c0       SDL_Blit_BGR888_BGR888_Modulate 00000001800436c0 f    CIL library: CIL module
 0001:000426c0       SDL_Blit_ABGR8888_BGR888_Modulate 00000001800436c0 f    CIL library: CIL module
 0001:000427b4       SDL_Blit_BGR888_BGR888_Modulate_Scale 00000001800437b4 f    CIL library: CIL module
 0001:000427b4       SDL_Blit_ABGR8888_BGR888_Modulate_Scale 00000001800437b4 f    CIL library: CIL module
 0001:00042944       SDL_Blit_BGR888_BGR888_Modulate_Blend 0000000180043944 f    CIL library: CIL module
 0001:00042be8       SDL_Blit_BGR888_BGR888_Modulate_Blend_Scale 0000000180043be8 f    CIL library: CIL module
 0001:00042f34       SDL_Blit_BGR888_ARGB8888_Scale 0000000180043f34 f    CIL library: CIL module
 0001:00043048       SDL_Blit_BGR888_ARGB8888_Blend 0000000180044048 f    CIL library: CIL module
 0001:000431a4       SDL_Blit_BGR888_ARGB8888_Blend_Scale 00000001800441a4 f    CIL library: CIL module
 0001:00043398       SDL_Blit_BGR888_ARGB8888_Modulate 0000000180044398 f    CIL library: CIL module
 0001:000434d0       SDL_Blit_BGR888_ARGB8888_Modulate_Scale 00000001800444d0 f    CIL library: CIL module
 0001:000436b0       SDL_Blit_BGR888_ARGB8888_Modulate_Blend 00000001800446b0 f    CIL library: CIL module
 0001:00043978       SDL_Blit_BGR888_ARGB8888_Modulate_Blend_Scale 0000000180044978 f    CIL library: CIL module
 0001:00043cf0       SDL_Blit_ABGR8888_BGR888_Scale 0000000180044cf0 f    CIL library: CIL module
 0001:00043cf0       SDL_Blit_ARGB8888_RGB888_Scale 0000000180044cf0 f    CIL library: CIL module
 0001:00043df4       SDL_Blit_ARGB8888_RGB888_Blend 0000000180044df4 f    CIL library: CIL module
 0001:00043fe4       SDL_Blit_ARGB8888_RGB888_Blend_Scale 0000000180044fe4 f    CIL library: CIL module
 0001:00044288       SDL_Blit_ARGB8888_RGB888_Modulate 0000000180045288 f    CIL library: CIL module
 0001:00044288       SDL_Blit_RGB888_RGB888_Modulate 0000000180045288 f    CIL library: CIL module
 0001:0004437c       SDL_Blit_ARGB8888_RGB888_Modulate_Scale 000000018004537c f    CIL library: CIL module
 0001:0004437c       SDL_Blit_RGB888_RGB888_Modulate_Scale 000000018004537c f    CIL library: CIL module
 0001:0004450c       SDL_Blit_ARGB8888_RGB888_Modulate_Blend 000000018004550c f    CIL library: CIL module
 0001:00044784       SDL_Blit_ARGB8888_RGB888_Modulate_Blend_Scale 0000000180045784 f    CIL library: CIL module
 0001:00044ab8       SDL_Blit_ARGB8888_BGR888_Blend 0000000180045ab8 f    CIL library: CIL module
 0001:00044ca4       SDL_Blit_ARGB8888_BGR888_Blend_Scale 0000000180045ca4 f    CIL library: CIL module
 0001:00044f48       SDL_Blit_ARGB8888_BGR888_Modulate 0000000180045f48 f    CIL library: CIL module
 0001:00044f48       SDL_Blit_RGB888_BGR888_Modulate 0000000180045f48 f    CIL library: CIL module
 0001:00045038       SDL_Blit_RGB888_BGR888_Modulate_Scale 0000000180046038 f    CIL library: CIL module
 0001:00045038       SDL_Blit_ARGB8888_BGR888_Modulate_Scale 0000000180046038 f    CIL library: CIL module
 0001:000451c8       SDL_Blit_ARGB8888_BGR888_Modulate_Blend 00000001800461c8 f    CIL library: CIL module
 0001:00045440       SDL_Blit_ARGB8888_BGR888_Modulate_Blend_Scale 0000000180046440 f    CIL library: CIL module
 0001:00045770       SDL_Blit_ARGB8888_ARGB8888_Blend 0000000180046770 f    CIL library: CIL module
 0001:00045988       SDL_Blit_ARGB8888_ARGB8888_Blend_Scale 0000000180046988 f    CIL library: CIL module
 0001:00045c54       SDL_Blit_ARGB8888_ARGB8888_Modulate 0000000180046c54 f    CIL library: CIL module
 0001:00045d88       SDL_Blit_ARGB8888_ARGB8888_Modulate_Scale 0000000180046d88 f    CIL library: CIL module
 0001:00045f60       SDL_Blit_ARGB8888_ARGB8888_Modulate_Blend 0000000180046f60 f    CIL library: CIL module
 0001:00046218       SDL_Blit_ARGB8888_ARGB8888_Modulate_Blend_Scale 0000000180047218 f    CIL library: CIL module
 0001:0004657c       SDL_Blit_RGBA8888_RGB888_Scale 000000018004757c f    CIL library: CIL module
 0001:0004657c       SDL_Blit_BGRA8888_BGR888_Scale 000000018004757c f    CIL library: CIL module
 0001:0004668c       SDL_Blit_RGBA8888_RGB888_Blend 000000018004768c f    CIL library: CIL module
 0001:00046878       SDL_Blit_RGBA8888_RGB888_Blend_Scale 0000000180047878 f    CIL library: CIL module
 0001:00046b04       SDL_Blit_RGBA8888_RGB888_Modulate 0000000180047b04 f    CIL library: CIL module
 0001:00046c00       SDL_Blit_RGBA8888_RGB888_Modulate_Scale 0000000180047c00 f    CIL library: CIL module
 0001:00046d98       SDL_Blit_RGBA8888_RGB888_Modulate_Blend 0000000180047d98 f    CIL library: CIL module
 0001:00047038       SDL_Blit_RGBA8888_RGB888_Modulate_Blend_Scale 0000000180048038 f    CIL library: CIL module
 0001:0004736c       SDL_Blit_RGBA8888_BGR888_Scale 000000018004836c f    CIL library: CIL module
 0001:0004736c       SDL_Blit_BGRA8888_RGB888_Scale 000000018004836c f    CIL library: CIL module
 0001:0004747c       SDL_Blit_RGBA8888_BGR888_Blend 000000018004847c f    CIL library: CIL module
 0001:00047668       SDL_Blit_RGBA8888_BGR888_Blend_Scale 0000000180048668 f    CIL library: CIL module
 0001:000478f4       SDL_Blit_RGBA8888_BGR888_Modulate 00000001800488f4 f    CIL library: CIL module
 0001:000479f0       SDL_Blit_RGBA8888_BGR888_Modulate_Scale 00000001800489f0 f    CIL library: CIL module
 0001:00047b80       SDL_Blit_RGBA8888_BGR888_Modulate_Blend 0000000180048b80 f    CIL library: CIL module
 0001:00047e1c       SDL_Blit_RGBA8888_BGR888_Modulate_Blend_Scale 0000000180048e1c f    CIL library: CIL module
 0001:0004814c       SDL_Blit_RGBA8888_ARGB8888_Scale 000000018004914c f    CIL library: CIL module
 0001:00048264       SDL_Blit_RGBA8888_ARGB8888_Blend 0000000180049264 f    CIL library: CIL module
 0001:00048480       SDL_Blit_RGBA8888_ARGB8888_Blend_Scale 0000000180049480 f    CIL library: CIL module
 0001:00048750       SDL_Blit_RGBA8888_ARGB8888_Modulate 0000000180049750 f    CIL library: CIL module
 0001:00048884       SDL_Blit_RGBA8888_ARGB8888_Modulate_Scale 0000000180049884 f    CIL library: CIL module
 0001:00048a5c       SDL_Blit_RGBA8888_ARGB8888_Modulate_Blend 0000000180049a5c f    CIL library: CIL module
 0001:00048d28       SDL_Blit_RGBA8888_ARGB8888_Modulate_Blend_Scale 0000000180049d28 f    CIL library: CIL module
 0001:00049094       SDL_Blit_ARGB8888_BGR888_Scale 000000018004a094 f    CIL library: CIL module
 0001:00049094       SDL_Blit_ABGR8888_RGB888_Scale 000000018004a094 f    CIL library: CIL module
 0001:00049094       SDL_Blit_BGR888_RGB888_Scale 000000018004a094 f    CIL library: CIL module
 0001:00049094       SDL_Blit_RGB888_BGR888_Scale 000000018004a094 f    CIL library: CIL module
 0001:00049198       SDL_Blit_ABGR8888_RGB888_Blend 000000018004a198 f    CIL library: CIL module
 0001:00049388       SDL_Blit_ABGR8888_RGB888_Blend_Scale 000000018004a388 f    CIL library: CIL module
 0001:00049624       SDL_Blit_ABGR8888_RGB888_Modulate_Blend 000000018004a624 f    CIL library: CIL module
 0001:0004989c       SDL_Blit_ABGR8888_RGB888_Modulate_Blend_Scale 000000018004a89c f    CIL library: CIL module
 0001:00049bd4       SDL_Blit_ABGR8888_BGR888_Blend 000000018004abd4 f    CIL library: CIL module
 0001:00049dc0       SDL_Blit_ABGR8888_BGR888_Blend_Scale 000000018004adc0 f    CIL library: CIL module
 0001:0004a05c       SDL_Blit_ABGR8888_BGR888_Modulate_Blend 000000018004b05c f    CIL library: CIL module
 0001:0004a2d4       SDL_Blit_ABGR8888_BGR888_Modulate_Blend_Scale 000000018004b2d4 f    CIL library: CIL module
 0001:0004a610       SDL_Blit_ABGR8888_ARGB8888_Scale 000000018004b610 f    CIL library: CIL module
 0001:0004a728       SDL_Blit_ABGR8888_ARGB8888_Blend 000000018004b728 f    CIL library: CIL module
 0001:0004a940       SDL_Blit_ABGR8888_ARGB8888_Blend_Scale 000000018004b940 f    CIL library: CIL module
 0001:0004ac10       SDL_Blit_ABGR8888_ARGB8888_Modulate 000000018004bc10 f    CIL library: CIL module
 0001:0004ad40       SDL_Blit_ABGR8888_ARGB8888_Modulate_Scale 000000018004bd40 f    CIL library: CIL module
 0001:0004af18       SDL_Blit_ABGR8888_ARGB8888_Modulate_Blend 000000018004bf18 f    CIL library: CIL module
 0001:0004b1d8       SDL_Blit_ABGR8888_ARGB8888_Modulate_Blend_Scale 000000018004c1d8 f    CIL library: CIL module
 0001:0004b548       SDL_Blit_BGRA8888_RGB888_Blend 000000018004c548 f    CIL library: CIL module
 0001:0004b738       SDL_Blit_BGRA8888_RGB888_Blend_Scale 000000018004c738 f    CIL library: CIL module
 0001:0004b9c8       SDL_Blit_BGRA8888_RGB888_Modulate 000000018004c9c8 f    CIL library: CIL module
 0001:0004bac4       SDL_Blit_BGRA8888_RGB888_Modulate_Scale 000000018004cac4 f    CIL library: CIL module
 0001:0004bc54       SDL_Blit_BGRA8888_RGB888_Modulate_Blend 000000018004cc54 f    CIL library: CIL module
 0001:0004bef0       SDL_Blit_BGRA8888_RGB888_Modulate_Blend_Scale 000000018004cef0 f    CIL library: CIL module
 0001:0004c220       SDL_Blit_BGRA8888_BGR888_Blend 000000018004d220 f    CIL library: CIL module
 0001:0004c410       SDL_Blit_BGRA8888_BGR888_Blend_Scale 000000018004d410 f    CIL library: CIL module
 0001:0004c69c       SDL_Blit_BGRA8888_BGR888_Modulate 000000018004d69c f    CIL library: CIL module
 0001:0004c798       SDL_Blit_BGRA8888_BGR888_Modulate_Scale 000000018004d798 f    CIL library: CIL module
 0001:0004c934       SDL_Blit_BGRA8888_BGR888_Modulate_Blend 000000018004d934 f    CIL library: CIL module
 0001:0004cbd0       SDL_Blit_BGRA8888_BGR888_Modulate_Blend_Scale 000000018004dbd0 f    CIL library: CIL module
 0001:0004cf04       SDL_Blit_BGRA8888_ARGB8888_Scale 000000018004df04 f    CIL library: CIL module
 0001:0004d01c       SDL_Blit_BGRA8888_ARGB8888_Blend 000000018004e01c f    CIL library: CIL module
 0001:0004d240       SDL_Blit_BGRA8888_ARGB8888_Blend_Scale 000000018004e240 f    CIL library: CIL module
 0001:0004d510       SDL_Blit_BGRA8888_ARGB8888_Modulate 000000018004e510 f    CIL library: CIL module
 0001:0004d640       SDL_Blit_BGRA8888_ARGB8888_Modulate_Scale 000000018004e640 f    CIL library: CIL module
 0001:0004d818       SDL_Blit_BGRA8888_ARGB8888_Modulate_Blend 000000018004e818 f    CIL library: CIL module
 0001:0004dae8       SDL_Blit_BGRA8888_ARGB8888_Modulate_Blend_Scale 000000018004eae8 f    CIL library: CIL module
 0001:0004dff0       Blit_RGB888_index8         000000018004eff0 f    CIL library: CIL module
 0001:0004e3c0       Blit_RGB101010_index8      000000018004f3c0 f    CIL library: CIL module
 0001:0004e790       Blit_RGB888_RGB555         000000018004f790 f    CIL library: CIL module
 0001:0004e9dc       Blit_RGB888_RGB565         000000018004f9dc f    CIL library: CIL module
 0001:0004ec28       Blit_RGB565_32             000000018004fc28 f    CIL library: CIL module
 0001:0004edcc       Blit_RGB565_ARGB8888       000000018004fdcc f    CIL library: CIL module
 0001:0004edd8       Blit_RGB565_ABGR8888       000000018004fdd8 f    CIL library: CIL module
 0001:0004ede4       Blit_RGB565_RGBA8888       000000018004fde4 f    CIL library: CIL module
 0001:0004edf0       Blit_RGB565_BGRA8888       000000018004fdf0 f    CIL library: CIL module
 0001:0004edfc       BlitNto1                   000000018004fdfc f    CIL library: CIL module
 0001:0004fd5c       Blit4to4MaskAlpha          0000000180050d5c f    CIL library: CIL module
 0001:0004ff80       BlitNtoN                   0000000180050f80 f    CIL library: CIL module
 0001:00050f28       BlitNtoNCopyAlpha          0000000180051f28 f    CIL library: CIL module
 0001:00051218       BlitNto1Key                0000000180052218 f    CIL library: CIL module
 0001:000521f4       Blit2to2Key                00000001800531f4 f    CIL library: CIL module
 0001:00052390       BlitNtoNKey                0000000180053390 f    CIL library: CIL module
 0001:000533b8       BlitNtoNKeyCopyAlpha       00000001800543b8 f    CIL library: CIL module
 0001:000544b4       Blit2101010toN             00000001800554b4 f    CIL library: CIL module
 0001:00054f90       BlitNto2101010             0000000180055f90 f    CIL library: CIL module
 0001:00057324       SDL_FillRect1SSE           0000000180058324 f    CIL library: CIL module
 0001:0005740c       SDL_FillRect2SSE           000000018005840c f    CIL library: CIL module
 0001:000574e8       SDL_FillRect4SSE           00000001800584e8 f    CIL library: CIL module
 0001:000575c4       SDL_FillRect1              00000001800585c4 f    CIL library: CIL module
 0001:000576d0       SDL_FillRect2              00000001800586d0 f    CIL library: CIL module
 0001:00058acc       Map1to1                    0000000180059acc f    CIL library: CIL module
 0001:00058b9c       Map1toN                    0000000180059b9c f    CIL library: CIL module
 0001:00059574       ComputeOutCode             000000018005a574 f    CIL library: CIL module
 0001:000599c8       RLEClipBlit                000000018005a9c8 f    CIL library: CIL module
 0001:0005bf80       RLEAlphaClipBlit           000000018005cf80 f    CIL library: CIL module
 0001:0005c8c8       copy_opaque_16             000000018005d8c8 f    CIL library: CIL module
 0001:0005c9bc       uncopy_opaque_16           000000018005d9bc f    CIL library: CIL module
 0001:0005cabc       copy_transl_565            000000018005dabc f    CIL library: CIL module
 0001:0005cb94       copy_transl_555            000000018005db94 f    CIL library: CIL module
 0001:0005cc6c       uncopy_transl_16           000000018005dc6c f    CIL library: CIL module
 0001:0005cd7c       copy_32                    000000018005dd7c f    CIL library: CIL module
 0001:0005ce20       uncopy_32                  000000018005de20 f    CIL library: CIL module
 0001:0005cf18       RLEAlphaSurface            000000018005df18 f    CIL library: CIL module
 0001:0005d56c       getpix_8                   000000018005e56c f    CIL library: CIL module
 0001:0005d570       getpix_16                  000000018005e570 f    CIL library: CIL module
 0001:0005d574       getpix_24                  000000018005e574 f    CIL library: CIL module
 0001:0005d58c       getpix_32                  000000018005e58c f    CIL library: CIL module
 0001:0005d590       RLEColorkeySurface         000000018005e590 f    CIL library: CIL module
 0001:0005da4c       UnRLEAlpha                 000000018005ea4c f    CIL library: CIL module
 0001:0005dd64       RecursivelyCalculateShapeTree 000000018005ed64 f    CIL library: CIL module
 0001:0005eb68       SDL_ConvertColorkeyToAlpha 000000018005fb68 f    CIL library: CIL module
 0001:0005f798       SDL_CreateSurfaceOnStack   0000000180060798 f    CIL library: CIL module
 0001:0005fb00       SDL_CreateWindowTexture    0000000180060b00 f    CIL library: CIL module
 0001:0005fdb8       SDL_UpdateWindowTexture    0000000180060db8 f    CIL library: CIL module
 0001:0005feb0       SDL_DestroyWindowTexture   0000000180060eb0 f    CIL library: CIL module
 0001:0005ff04       cmpmodes                   0000000180060f04 f    CIL library: CIL module
 0001:000606bc       SDL_GetNumDisplayModesForDisplay 00000001800616bc f    CIL library: CIL module
 0001:00060928       SDL_GetClosestDisplayModeForDisplay 0000000180061928 f    CIL library: CIL module
 0001:00060b28       SDL_SetDisplayModeForDisplay 0000000180061b28 f    CIL library: CIL module
 0001:00061040       SDL_UpdateFullscreenMode   0000000180062040 f    CIL library: CIL module
 0001:00061214       SDL_FinishWindowCreation   0000000180062214 f    CIL library: CIL module
 0001:000623e4       SDL_CreateWindowFramebuffer 00000001800633e4 f    CIL library: CIL module
 0001:00063de8       SDL_PrivateSubsystemRefCountIncr 0000000180064de8 f    CIL library: CIL module
 0001:00063e78       SDL_PrivateSubsystemRefCountDecr 0000000180064e78 f    CIL library: CIL module
 0001:00063f10       SDL_PrivateShouldInitSubsystem 0000000180064f10 f    CIL library: CIL module
 0001:00063fa8       SDL_PrivateShouldQuitSubsystem 0000000180064fa8 f    CIL library: CIL module
 0001:00064778       debug_print                0000000180065778 f    CIL library: CIL module
 0001:000647a8       SDL_PromptAssertion        00000001800657a8 f    CIL library: CIL module
 0001:00065784       SDL_LogOutput              0000000180066784 f    CIL library: CIL module
 0001:00065970       DSOUND_Unload              0000000180066970 f    CIL library: CIL module
 0001:000659ac       SetDSerror                 00000001800669ac f    CIL library: CIL module
 0001:00065b04       FindAllDevs                0000000180066b04 f    CIL library: CIL module
 0001:00065b7c       DSOUND_DetectDevices       0000000180066b7c f    CIL library: CIL module
 0001:00065ba0       DSOUND_WaitDevice          0000000180066ba0 f    CIL library: CIL module
 0001:00065cc8       DSOUND_PlayDevice          0000000180066cc8 f    CIL library: CIL module
 0001:00065d00       DSOUND_GetDeviceBuf        0000000180066d00 f    CIL library: CIL module
 0001:00065e70       DSOUND_WaitDone            0000000180066e70 f    CIL library: CIL module
 0001:00065ec4       DSOUND_CloseDevice         0000000180066ec4 f    CIL library: CIL module
 0001:00065f34       CreateSecondary            0000000180066f34 f    CIL library: CIL module
 0001:00066150       FindDevGUID                0000000180067150 f    CIL library: CIL module
 0001:00066208       DSOUND_OpenDevice          0000000180067208 f    CIL library: CIL module
 0001:00066398       DSOUND_Deinitialize        0000000180067398 f    CIL library: CIL module
 0001:000663a0       DSOUND_Init                00000001800673a0 f    CIL library: CIL module
 0001:000664bc       DISKAUD_WaitDevice         00000001800674bc f    CIL library: CIL module
 0001:000664cc       DISKAUD_PlayDevice         00000001800674cc f    CIL library: CIL module
 0001:00066510       DISKAUD_GetDeviceBuf       0000000180067510 f    CIL library: CIL module
 0001:0006651c       DISKAUD_CloseDevice        000000018006751c f    CIL library: CIL module
 0001:00066584       DISKAUD_OpenDevice         0000000180067584 f    CIL library: CIL module
 0001:000666c0       DISKAUD_Init               00000001800676c0 f    CIL library: CIL module
 0001:00066700       DUMMYAUD_Init              0000000180067700 f   SDL_dummyaudio.obj
 0001:00066714       WINMM_DetectDevices        0000000180067714 f   SDL_winmm.obj
 0001:00066828       CaptureSound               0000000180067828 f   SDL_winmm.obj
 0001:00066854       FillSound                  0000000180067854 f   SDL_winmm.obj
 0001:00066880       SetMMerror                 0000000180067880 f   SDL_winmm.obj
 0001:00066928       WINMM_WaitDevice           0000000180067928 f   SDL_winmm.obj
 0001:00066940       WINMM_GetDeviceBuf         0000000180067940 f   SDL_winmm.obj
 0001:0006695c       WINMM_PlayDevice           000000018006795c f   SDL_winmm.obj
 0001:000669b4       WINMM_WaitDone             00000001800679b4 f   SDL_winmm.obj
 0001:000669f8       WINMM_CloseDevice          00000001800679f8 f   SDL_winmm.obj
 0001:00066b0c       WINMM_OpenDevice           0000000180067b0c f   SDL_winmm.obj
 0001:00066fb0       WINMM_Init                 0000000180067fb0 f   SDL_winmm.obj
 0001:0006709c       XAUDIO2_DetectDevices      000000018006809c f   SDL_xaudio2.obj
 0001:000671ac       VoiceCBOnBufferEnd         00000001800681ac f   SDL_xaudio2.obj
 0001:000671c8       SDL_AudioDeinitialize_Default 00000001800681c8 f   SDL_xaudio2.obj
 0001:000671c8       SDL_AudioCloseDevice_Default 00000001800681c8 f   SDL_xaudio2.obj
 0001:000671c8       SDL_AudioWaitDevice_Default 00000001800681c8 f   SDL_xaudio2.obj
 0001:000671c8       SDL_AudioThreadInit_Default 00000001800681c8 f   SDL_xaudio2.obj
 0001:000671c8       SDL_AudioDetectDevices_Default 00000001800681c8 f   SDL_xaudio2.obj
 0001:000671c8       DUMMY_VideoQuit            00000001800681c8 f   SDL_xaudio2.obj
 0001:000671c8       SW_UnlockTexture           00000001800681c8 f   SDL_xaudio2.obj
 0001:000671c8       SDL_AudioWaitDone_Default  00000001800681c8 f   SDL_xaudio2.obj
 0001:000671c8       SDL_AudioPlayDevice_Default 00000001800681c8 f   SDL_xaudio2.obj
 0001:000671c8       VoiceCBOnVoiceError        00000001800681c8 f   SDL_xaudio2.obj
 0001:000671c8       VoiceCBOnStreamEnd         00000001800681c8 f   SDL_xaudio2.obj
 0001:000671c8       VoiceCBOnVoiceProcessPassStart 00000001800681c8 f   SDL_xaudio2.obj
 0001:000671c8       VoiceCBOnVoiceProcessPassEnd 00000001800681c8 f   SDL_xaudio2.obj
 0001:000671c8       VoiceCBOnLoopEnd           00000001800681c8 f   SDL_xaudio2.obj
 0001:000671c8       VoiceCBOnBufferStart       00000001800681c8 f   SDL_xaudio2.obj
 0001:000671cc       XAUDIO2_GetDeviceBuf       00000001800681cc f   SDL_xaudio2.obj
 0001:000671d8       XAUDIO2_PlayDevice         00000001800681d8 f   SDL_xaudio2.obj
 0001:00067290       XAUDIO2_WaitDevice         0000000180068290 f   SDL_xaudio2.obj
 0001:000672b8       XAUDIO2_WaitDone           00000001800682b8 f   SDL_xaudio2.obj
 0001:00067318       XAUDIO2_CloseDevice        0000000180068318 f   SDL_xaudio2.obj
 0001:000673fc       XAUDIO2_OpenDevice         00000001800683fc f   SDL_xaudio2.obj
 0001:00067824       XAUDIO2_Deinitialize       0000000180068824 f   SDL_xaudio2.obj
 0001:0006782c       XAUDIO2_Init               000000018006882c f   SDL_xaudio2.obj
 0001:00067b54       EnumHapticsCallback        0000000180068b54 f   SDL_syshaptic.obj
 0001:00067c98       DI_EffectCallback          0000000180068c98 f   SDL_syshaptic.obj
 0001:00067dec       DI_DeviceObjectCallback    0000000180068dec f   SDL_syshaptic.obj
 0001:00067e20       SDL_SYS_HapticOpenFromDevice8 0000000180068e20 f   SDL_syshaptic.obj
 0001:00068264       SDL_SYS_SetDirection       0000000180069264 f   SDL_syshaptic.obj
 0001:00068338       SDL_SYS_ToDIEFFECT         0000000180069338 f   SDL_syshaptic.obj
 0001:00068c18       SDL_SYS_HapticFreeDIEFFECT 0000000180069c18 f   SDL_syshaptic.obj
 0001:000691a8       SDL_RunXInputHaptic        000000018006a1a8 f   SDL_syshaptic.obj
 0001:0006946c       SDL_SYS_HapticOpenFromXInput 000000018006a46c f   SDL_syshaptic.obj
 0001:000699ec       SDL_IsXInputDevice         000000018006a9ec f   SDL_dxjoystick.obj
 0001:00069c00       SDL_JoystickThread         000000018006ac00 f   SDL_dxjoystick.obj
 0001:00069f1c       EnumJoysticksCallback      000000018006af1c f   SDL_dxjoystick.obj
 0001:0006a0a0       AddXInputDevice            000000018006b0a0 f   SDL_dxjoystick.obj
 0001:0006a46c       SortDevFunc                000000018006b46c f   SDL_dxjoystick.obj
 0001:0006a484       SortDevObjects             000000018006b484 f   SDL_dxjoystick.obj
 0001:0006a538       EnumDevObjectsCallback     000000018006b538 f   SDL_dxjoystick.obj
 0001:0006abbc       TranslatePOV               000000018006bbbc f   SDL_dxjoystick.obj
 0001:0006b90c       D3D_SetError               000000018006c90c f   SDL_render_d3d.obj
 0001:0006bad8       PixelFormatToD3DFMT        000000018006cad8 f   SDL_render_d3d.obj
 0001:0006bb1c       D3D_InitRenderState        000000018006cb1c f   SDL_render_d3d.obj
 0001:0006bd20       D3D_WindowEvent            000000018006cd20 f   SDL_render_d3d.obj
 0001:0006bd38       D3D_CreateTexture          000000018006cd38 f   SDL_render_d3d.obj
 0001:0006bf10       D3D_UpdateTextureInternal  000000018006cf10 f   SDL_render_d3d.obj
 0001:0006c074       D3D_UpdateTexture          000000018006d074 f   SDL_render_d3d.obj
 0001:0006c208       D3D_UpdateTextureYUV       000000018006d208 f   SDL_render_d3d.obj
 0001:0006c354       D3D_LockTexture            000000018006d354 f   SDL_render_d3d.obj
 0001:0006c4a8       D3D_UnlockTexture          000000018006d4a8 f   SDL_render_d3d.obj
 0001:0006c554       D3D_UpdateViewport         000000018006d554 f   SDL_render_d3d.obj
 0001:0006c6a8       D3D_UpdateClipRect         000000018006d6a8 f   SDL_render_d3d.obj
 0001:0006c758       D3D_SetBlendMode           000000018006d758 f   SDL_render_d3d.obj
 0001:0006c8b8       D3D_UpdateTextureScaleMode 000000018006d8b8 f   SDL_render_d3d.obj
 0001:0006c92c       D3D_RenderReadPixels       000000018006d92c f   SDL_render_d3d.obj
 0001:0006cb60       D3D_DestroyTexture         000000018006db60 f   SDL_render_d3d.obj
 0001:0006cbc8       D3D_DestroyRenderer        000000018006dbc8 f   SDL_render_d3d.obj
 0001:0006ccc0       D3D_Reset                  000000018006dcc0 f   SDL_render_d3d.obj
 0001:0006cd58       D3D_ActivateRenderer       000000018006dd58 f   SDL_render_d3d.obj
 0001:0006ce38       D3D_SetRenderTarget        000000018006de38 f   SDL_render_d3d.obj
 0001:0006ceec       D3D_RenderClear            000000018006deec f   SDL_render_d3d.obj
 0001:0006d0a4       D3D_RenderDrawPoints       000000018006e0a4 f   SDL_render_d3d.obj
 0001:0006d1f8       D3D_RenderDrawLines        000000018006e1f8 f   SDL_render_d3d.obj
 0001:0006d3a4       D3D_RenderFillRects        000000018006e3a4 f   SDL_render_d3d.obj
 0001:0006d574       D3D_RenderCopy             000000018006e574 f   SDL_render_d3d.obj
 0001:0006d84c       D3D_RenderCopyEx           000000018006e84c f   SDL_render_d3d.obj
 0001:0006dcac       D3D_RenderPresent          000000018006ecac f   SDL_render_d3d.obj
 0001:0006dd34       D3D_CreateRenderer         000000018006ed34 f   SDL_render_d3d.obj
 0001:0006e644       GL_LoadFunctions           000000018006f644 f   SDL_render_gl.obj
 0001:0006ed2c       GL_HandleDebugMessage      000000018006fd2c f   SDL_render_gl.obj
 0001:0006ee10       GL_WindowEvent             000000018006fe10 f   SDL_render_gl.obj
 0001:0006ee28       GL_GetOutputSize           000000018006fe28 f   SDL_render_gl.obj
 0001:0006ee40       GL_LockTexture             000000018006fe40 f   SDL_render_gl.obj
 0001:0006eeb8       GL_UpdateViewport          000000018006feb8 f   SDL_render_gl.obj
 0001:0006f16c       GL_UpdateClipRect          000000018007016c f   SDL_render_gl.obj
 0001:0006f1e4       GL_SetShader               00000001800701e4 f   SDL_render_gl.obj
 0001:0006f218       GL_SetColor                0000000180070218 f   SDL_render_gl.obj
 0001:0006f298       GL_SetBlendMode            0000000180070298 f   SDL_render_gl.obj
 0001:0006f3a4       GL_DestroyRenderer         00000001800703a4 f   SDL_render_gl.obj
 0001:0006f688       GL_ActivateRenderer        0000000180070688 f   SDL_render_gl.obj
 0001:0006f740       GL_ResetState              0000000180070740 f   SDL_render_gl.obj
 0001:0006f988       GL_CreateTexture           0000000180070988 f   SDL_render_gl.obj
 0001:00070660       GL_UpdateTexture           0000000180071660 f   SDL_render_gl.obj
 0001:00070a50       GL_UpdateTextureYUV        0000000180071a50 f   SDL_render_gl.obj
 0001:00070dc8       GL_UnlockTexture           0000000180071dc8 f   SDL_render_gl.obj
 0001:00070e5c       GL_SetRenderTarget         0000000180071e5c f   SDL_render_gl.obj
 0001:00070ee0       GL_SetDrawingState         0000000180071ee0 f   SDL_render_gl.obj
 0001:00070f48       GL_RenderClear             0000000180071f48 f   SDL_render_gl.obj
 0001:00070fd0       GL_RenderDrawPoints        0000000180071fd0 f   SDL_render_gl.obj
 0001:00071068       GL_RenderDrawLines         0000000180072068 f   SDL_render_gl.obj
 0001:00071318       GL_RenderFillRects         0000000180072318 f   SDL_render_gl.obj
 0001:00071568       GL_RenderCopy              0000000180072568 f   SDL_render_gl.obj
 0001:00071988       GL_RenderCopyEx            0000000180072988 f   SDL_render_gl.obj
 0001:00071e6c       GL_RenderReadPixels        0000000180072e6c f   SDL_render_gl.obj
 0001:000721f8       GL_RenderPresent           00000001800731f8 f   SDL_render_gl.obj
 0001:00072218       GL_DestroyTexture          0000000180073218 f   SDL_render_gl.obj
 0001:0007229c       GL_BindTexture             000000018007329c f   SDL_render_gl.obj
 0001:0007233c       GL_UnbindTexture           000000018007333c f   SDL_render_gl.obj
 0001:000723a8       GL_CreateRenderer          00000001800733a8 f   SDL_render_gl.obj
 0001:00072808       CompileShader              0000000180073808 f   SDL_shaders_gl.obj
 0001:00072ca8       SDL_BlendFillRect_RGB555   0000000180073ca8 f   SDL_blendfillrect.obj
 0001:000736dc       SDL_BlendFillRect_RGB565   00000001800746dc f   SDL_blendfillrect.obj
 0001:00074130       SDL_BlendFillRect_RGB888   0000000180075130 f   SDL_blendfillrect.obj
 0001:000747c4       SDL_BlendFillRect_ARGB8888 00000001800757c4 f   SDL_blendfillrect.obj
 0001:00074f78       SDL_BlendFillRect_RGB      0000000180075f78 f   SDL_blendfillrect.obj
 0001:00076968       SDL_BlendFillRect_RGBA     0000000180077968 f   SDL_blendfillrect.obj
 0001:00077ba8       SDL_BlendLine_RGB2         0000000180078ba8 f   SDL_blendline.obj
 0001:00079200       SDL_BlendLine_RGB555       000000018007a200 f   SDL_blendline.obj
 0001:0007a440       SDL_BlendLine_RGB565       000000018007b440 f   SDL_blendline.obj
 0001:0007b6f8       SDL_BlendLine_RGB4         000000018007c6f8 f   SDL_blendline.obj
 0001:0007ccf8       SDL_BlendLine_RGBA4        000000018007dcf8 f   SDL_blendline.obj
 0001:0007e4f8       SDL_BlendLine_RGB888       000000018007f4f8 f   SDL_blendline.obj
 0001:0007f310       SDL_BlendLine_ARGB8888     0000000180080310 f   SDL_blendline.obj
 0001:00080218       SDL_CalculateBlendLineFunc 0000000180081218 f   SDL_blendline.obj
 0001:0008042c       SDL_BlendPoint_RGB555      000000018008142c f   SDL_blendpoint.obj
 0001:000806c0       SDL_BlendPoint_RGB565      00000001800816c0 f   SDL_blendpoint.obj
 0001:00080968       SDL_BlendPoint_RGB888      0000000180081968 f   SDL_blendpoint.obj
 0001:00080b38       SDL_BlendPoint_ARGB8888    0000000180081b38 f   SDL_blendpoint.obj
 0001:00080d38       SDL_BlendPoint_RGB         0000000180081d38 f   SDL_blendpoint.obj
 0001:00081390       SDL_BlendPoint_RGBA        0000000180082390 f   SDL_blendpoint.obj
 0001:00081b48       SDL_DrawLine1              0000000180082b48 f   SDL_drawline.obj
 0001:00081e0c       SDL_DrawLine2              0000000180082e0c f   SDL_drawline.obj
 0001:00082350       SDL_DrawLine4              0000000180083350 f   SDL_drawline.obj
 0001:00082bcc       SW_WindowEvent             0000000180083bcc f   SDL_render_sw.obj
 0001:00082be4       SW_CreateTexture           0000000180083be4 f   SDL_render_sw.obj
 0001:00082cb4       SW_SetTextureColorMod      0000000180083cb4 f   SDL_render_sw.obj
 0001:00082cc8       SW_SetTextureAlphaMod      0000000180083cc8 f   SDL_render_sw.obj
 0001:00082cd4       SW_SetTextureBlendMode     0000000180083cd4 f   SDL_render_sw.obj
 0001:00082ce0       SW_UpdateTexture           0000000180083ce0 f   SDL_render_sw.obj
 0001:00082da0       SW_LockTexture             0000000180083da0 f   SDL_render_sw.obj
 0001:00082dd8       SW_SetRenderTarget         0000000180083dd8 f   SDL_render_sw.obj
 0001:00082df4       SW_UpdateViewport          0000000180083df4 f   SDL_render_sw.obj
 0001:00082e20       SW_UpdateClipRect          0000000180083e20 f   SDL_render_sw.obj
 0001:00082e5c       SW_RenderPresent           0000000180083e5c f   SDL_render_sw.obj
 0001:00082e78       SW_DestroyTexture          0000000180083e78 f   SDL_render_sw.obj
 0001:00082e84       SW_DestroyRenderer         0000000180083e84 f   SDL_render_sw.obj
 0001:00082ea8       SW_ActivateRenderer        0000000180083ea8 f   SDL_render_sw.obj
 0001:00082f04       SW_GetOutputSize           0000000180083f04 f   SDL_render_sw.obj
 0001:00082f50       SW_RenderClear             0000000180083f50 f   SDL_render_sw.obj
 0001:00082fd4       SW_RenderDrawPoints        0000000180083fd4 f   SDL_render_sw.obj
 0001:0008316c       SW_RenderDrawLines         000000018008416c f   SDL_render_sw.obj
 0001:00083304       SW_RenderFillRects         0000000180084304 f   SDL_render_sw.obj
 0001:00083508       SW_RenderCopy              0000000180084508 f   SDL_render_sw.obj
 0001:000835dc       SW_RenderCopyEx            00000001800845dc f   SDL_render_sw.obj
 0001:00083ae4       SW_RenderReadPixels        0000000180084ae4 f   SDL_render_sw.obj
 0001:00083d94       SW_CreateRenderer          0000000180084d94 f   SDL_render_sw.obj
 0001:0008437c       _transformSurfaceRGBA      000000018008537c f   SDL_rotate.obj
 0001:00084800       transformSurfaceY          0000000180085800 f   SDL_rotate.obj
 0001:00084f1c       RunThreadViaBeginThreadEx  0000000180085f1c f   SDL_systhread.obj
 0001:00084f1c       RunThreadViaCreateThread   0000000180085f1c f   SDL_systhread.obj
 0001:00085370       SDL_TimerResolutionChanged 0000000180086370 f   SDL_systimer.obj
 0001:000856f8       DUMMY_Available            00000001800866f8 f   SDL_nullvideo.obj
 0001:00085730       DUMMY_DeleteDevice         0000000180086730 f   SDL_nullvideo.obj
 0001:00085738       DUMMY_VideoInit            0000000180086738 f   SDL_nullvideo.obj
 0001:0008579c       DUMMY_SetDisplayMode       000000018008679c f   SDL_nullvideo.obj
 0001:0008579c       SDL_AudioGetDeviceBuf_Default 000000018008679c f   SDL_nullvideo.obj
 0001:0008579c       DUMMYAUD_OpenDevice        000000018008679c f   SDL_nullvideo.obj
 0001:000857a0       DUMMY_CreateDevice         00000001800867a0 f   SDL_nullvideo.obj
 0001:00085b00       WindowsScanCodeToSDLScanCode 0000000180086b00 f   SDL_windowsevents.obj
 0001:000875e8       IME_GetId                  00000001800885e8 f   SDL_windowskeyboard.obj
 0001:00087900       IME_SetupAPI               0000000180088900 f   SDL_windowskeyboard.obj
 0001:000879c4       IME_UpdateInputLocale      00000001800889c4 f   SDL_windowskeyboard.obj
 0001:00087a3c       IME_ClearComposition       0000000180088a3c f   SDL_windowskeyboard.obj
 0001:00087adc       IME_GetCompositionString   0000000180088adc f   SDL_windowskeyboard.obj
 0001:00087b94       IME_SendEditingEvent       0000000180088b94 f   SDL_windowskeyboard.obj
 0001:00087c98       IME_AddCandidate           0000000180088c98 f   SDL_windowskeyboard.obj
 0001:00087d3c       IME_GetCandidateList       0000000180088d3c f   SDL_windowskeyboard.obj
 0001:00088060       UILess_SetupSinks          0000000180089060 f   SDL_windowskeyboard.obj
 0001:000881b4       UILess_ReleaseSinks        00000001800891b4 f   SDL_windowskeyboard.obj
 0001:000883f0       IME_Disable                00000001800893f0 f   SDL_windowskeyboard.obj
 0001:0008847c       IME_GetReadingString       000000018008947c f   SDL_windowskeyboard.obj
 0001:000886e8       IME_InputLangChanged       00000001800896e8 f   SDL_windowskeyboard.obj
 0001:00088a50       UILess_GetCandidateList    0000000180089a50 f   SDL_windowskeyboard.obj
 0001:00088f70       IME_Init                   0000000180089f70 f   SDL_windowskeyboard.obj
 0001:000890ec       IME_Enable                 000000018008a0ec f   SDL_windowskeyboard.obj
 0001:00089250       MessageBoxDialogProc       000000018008a250 f   SDL_windowsmessagebox.obj
 0001:0008927c       ExpandDialogSpace          000000018008a27c f   SDL_windowsmessagebox.obj
 0001:000892f0       AddDialogData              000000018008a2f0 f   SDL_windowsmessagebox.obj
 0001:00089340       AddDialogString            000000018008a340 f   SDL_windowsmessagebox.obj
 0001:000893dc       Vec2ToDLU                  000000018008a3dc f   SDL_windowsmessagebox.obj
 0001:00089428       AddDialogControl           000000018008a428 f   SDL_windowsmessagebox.obj
 0001:00089564       CreateDialogData           000000018008a564 f   SDL_windowsmessagebox.obj
 0001:00089a18       WIN_GetDisplayMode         000000018008aa18 f   SDL_windowsmodes.obj
 0001:00089c60       WIN_AddDisplay             000000018008ac60 f   SDL_windowsmodes.obj
 0001:0008a014       WIN_CreateCursor           000000018008b014 f   SDL_windowsmouse.obj
 0001:0008a208       WIN_CreateSystemCursor     000000018008b208 f   SDL_windowsmouse.obj
 0001:0008a2e0       WIN_FreeCursor             000000018008b2e0 f   SDL_windowsmouse.obj
 0001:0008a300       WIN_ShowCursor             000000018008b300 f   SDL_windowsmouse.obj
 0001:0008a33c       WIN_WarpMouse              000000018008b33c f   SDL_windowsmouse.obj
 0001:0008a374       WIN_SetRelativeMouseMode   000000018008b374 f   SDL_windowsmouse.obj
 0001:0008a6d4       WIN_GL_SetupPixelFormat    000000018008b6d4 f   SDL_windowsopengl.obj
 0001:0008a7cc       WIN_GL_ChoosePixelFormat   000000018008b7cc f   SDL_windowsopengl.obj
 0001:0008a9d4       HasExtension               000000018008b9d4 f   SDL_windowsopengl.obj
 0001:0008aa54       WIN_GL_InitExtensions      000000018008ba54 f   SDL_windowsopengl.obj
 0001:0008ab8c       WIN_GL_ChoosePixelFormatARB 000000018008bb8c f   SDL_windowsopengl.obj
 0001:0008ad00       WIN_GL_SetupWindowInternal 000000018008bd00 f   SDL_windowsopengl.obj
 0001:0008b508       WIN_Available              000000018008c508 f   SDL_windowsvideo.obj
 0001:0008b510       WIN_DeleteDevice           000000018008c510 f   SDL_windowsvideo.obj
 0001:0008b558       WIN_VideoInit              000000018008c558 f   SDL_windowsvideo.obj
 0001:0008b588       WIN_VideoQuit              000000018008c588 f   SDL_windowsvideo.obj
 0001:0008b728       WIN_CreateDevice           000000018008c728 f   SDL_windowsvideo.obj
 0001:0008ba68       WIN_SetWindowPositionInternal 000000018008ca68 f   SDL_windowswindow.obj
 0001:0008bb60       SetupWindowData            000000018008cb60 f   SDL_windowswindow.obj
 0001:0008c8b8       pre_c_init                 000000018008d8b8 f   MSVCRT:crtdll.obj
 0001:0008cb74       __DllMainCRTStartup        000000018008db74 f   MSVCRT:crtdll.obj
 0001:0008d0b0       __DllMainCRTStartup$filt$0 000000018008e0b0 f   MSVCRT:crtdll.obj
 0001:0008d0e0       __DllMainCRTStartup$fin$1  000000018008e0e0 f   MSVCRT:crtdll.obj
 0001:0008d0f9       _onexit$fin$0              000000018008e0f9 f   MSVCRT:atonexit.obj
 0001:0008d120       _IsNonwritableInCurrentImage$filt$0 000000018008e120 f   MSVCRT:pesect.obj

 Exports

  ordinal    name

        1    SDL_AddEventWatch
        2    SDL_AddHintCallback
        3    SDL_AddTimer
        4    SDL_AllocFormat
        5    SDL_AllocPalette
        6    SDL_AllocRW
        7    SDL_AtomicCAS
        8    SDL_AtomicCASPtr
        9    SDL_AtomicLock
       10    SDL_AtomicTryLock
       11    SDL_AtomicUnlock
       12    SDL_AudioInit
       13    SDL_AudioQuit
       14    SDL_BuildAudioCVT
       15    SDL_CalculateGammaRamp
       16    SDL_ClearError
       17    SDL_ClearHints
       18    SDL_CloseAudio
       19    SDL_CloseAudioDevice
       20    SDL_CondBroadcast
       21    SDL_CondSignal
       22    SDL_CondWait
       23    SDL_CondWaitTimeout
       24    SDL_ConvertAudio
       25    SDL_ConvertPixels
       26    SDL_ConvertSurface
       27    SDL_ConvertSurfaceFormat
       28    SDL_CreateColorCursor
       29    SDL_CreateCond
       30    SDL_CreateCursor
       31    SDL_CreateMutex
       32    SDL_CreateRGBSurface
       33    SDL_CreateRGBSurfaceFrom
       34    SDL_CreateRenderer
       35    SDL_CreateSemaphore
       36    SDL_CreateShapedWindow
       37    SDL_CreateSoftwareRenderer
       38    SDL_CreateSystemCursor
       39    SDL_CreateTexture
       40    SDL_CreateTextureFromSurface
       41    SDL_CreateThread
       42    SDL_CreateWindow
       43    SDL_CreateWindowAndRenderer
       44    SDL_CreateWindowFrom
       45    SDL_DelEventWatch
       46    SDL_DelHintCallback
       47    SDL_Delay
       48    SDL_DestroyCond
       49    SDL_DestroyMutex
       50    SDL_DestroyRenderer
       51    SDL_DestroySemaphore
       52    SDL_DestroyTexture
       53    SDL_DestroyWindow
       54    SDL_Direct3D9GetAdapterIndex
       55    SDL_DisableScreenSaver
       56    SDL_EnableScreenSaver
       57    SDL_EnclosePoints
       58    SDL_Error
       59    SDL_EventState
       60    SDL_FillRect
       61    SDL_FillRects
       62    SDL_FilterEvents
       63    SDL_FlushEvent
       64    SDL_FlushEvents
       65    SDL_FreeCursor
       66    SDL_FreeFormat
       67    SDL_FreePalette
       68    SDL_FreeRW
       69    SDL_FreeSurface
       70    SDL_FreeWAV
       71    SDL_GL_BindTexture
       72    SDL_GL_CreateContext
       73    SDL_GL_DeleteContext
       74    SDL_GL_ExtensionSupported
       75    SDL_GL_GetAttribute
       76    SDL_GL_GetCurrentContext
       77    SDL_GL_GetCurrentWindow
       78    SDL_GL_GetDrawableSize
       79    SDL_GL_GetProcAddress
       80    SDL_GL_GetSwapInterval
       81    SDL_GL_LoadLibrary
       82    SDL_GL_MakeCurrent
       83    SDL_GL_SetAttribute
       84    SDL_GL_SetSwapInterval
       85    SDL_GL_SwapWindow
       86    SDL_GL_UnbindTexture
       87    SDL_GL_UnloadLibrary
       88    SDL_GameControllerAddMapping
       89    SDL_GameControllerClose
       90    SDL_GameControllerEventState
       91    SDL_GameControllerGetAttached
       92    SDL_GameControllerGetAxis
       93    SDL_GameControllerGetAxisFromString
       94    SDL_GameControllerGetBindForAxis
       95    SDL_GameControllerGetBindForButton
       96    SDL_GameControllerGetButton
       97    SDL_GameControllerGetButtonFromString
       98    SDL_GameControllerGetJoystick
       99    SDL_GameControllerGetStringForAxis
      100    SDL_GameControllerGetStringForButton
      101    SDL_GameControllerMapping
      102    SDL_GameControllerMappingForGUID
      103    SDL_GameControllerName
      104    SDL_GameControllerNameForIndex
      105    SDL_GameControllerOpen
      106    SDL_GameControllerUpdate
      107    SDL_GetAssertionReport
      108    SDL_GetAudioDeviceName
      109    SDL_GetAudioDeviceStatus
      110    SDL_GetAudioDriver
      111    SDL_GetAudioStatus
      112    SDL_GetBasePath
      113    SDL_GetCPUCacheLineSize
      114    SDL_GetCPUCount
      115    SDL_GetClipRect
      116    SDL_GetClipboardText
      117    SDL_GetClosestDisplayMode
      118    SDL_GetColorKey
      119    SDL_GetCurrentAudioDriver
      120    SDL_GetCurrentDisplayMode
      121    SDL_GetCurrentVideoDriver
      122    SDL_GetCursor
      123    SDL_GetDefaultCursor
      124    SDL_GetDesktopDisplayMode
      125    SDL_GetDisplayBounds
      126    SDL_GetDisplayMode
      127    SDL_GetDisplayName
      128    SDL_GetError
      129    SDL_GetEventFilter
      130    SDL_GetHint
      131    SDL_GetKeyFromName
      132    SDL_GetKeyFromScancode
      133    SDL_GetKeyName
      134    SDL_GetKeyboardFocus
      135    SDL_GetKeyboardState
      136    SDL_GetModState
      137    SDL_GetMouseFocus
      138    SDL_GetMouseState
      139    SDL_GetNumAudioDevices
      140    SDL_GetNumAudioDrivers
      141    SDL_GetNumDisplayModes
      142    SDL_GetNumRenderDrivers
      143    SDL_GetNumTouchDevices
      144    SDL_GetNumTouchFingers
      145    SDL_GetNumVideoDisplays
      146    SDL_GetNumVideoDrivers
      147    SDL_GetPerformanceCounter
      148    SDL_GetPerformanceFrequency
      149    SDL_GetPixelFormatName
      150    SDL_GetPlatform
      151    SDL_GetPowerInfo
      152    SDL_GetPrefPath
      153    SDL_GetRGB
      154    SDL_GetRGBA
      155    SDL_GetRelativeMouseMode
      156    SDL_GetRelativeMouseState
      157    SDL_GetRenderDrawBlendMode
      158    SDL_GetRenderDrawColor
      159    SDL_GetRenderDriverInfo
      160    SDL_GetRenderTarget
      161    SDL_GetRenderer
      162    SDL_GetRendererInfo
      163    SDL_GetRendererOutputSize
      164    SDL_GetRevision
      165    SDL_GetRevisionNumber
      166    SDL_GetScancodeFromKey
      167    SDL_GetScancodeFromName
      168    SDL_GetScancodeName
      169    SDL_GetShapedWindowMode
      170    SDL_GetSurfaceAlphaMod
      171    SDL_GetSurfaceBlendMode
      172    SDL_GetSurfaceColorMod
      173    SDL_GetSystemRAM
      174    SDL_GetTextureAlphaMod
      175    SDL_GetTextureBlendMode
      176    SDL_GetTextureColorMod
      177    SDL_GetThreadID
      178    SDL_GetThreadName
      179    SDL_GetTicks
      180    SDL_GetTouchDevice
      181    SDL_GetTouchFinger
      182    SDL_GetVersion
      183    SDL_GetVideoDriver
      184    SDL_GetWindowBrightness
      185    SDL_GetWindowData
      186    SDL_GetWindowDisplayIndex
      187    SDL_GetWindowDisplayMode
      188    SDL_GetWindowFlags
      189    SDL_GetWindowFromID
      190    SDL_GetWindowGammaRamp
      191    SDL_GetWindowGrab
      192    SDL_GetWindowID
      193    SDL_GetWindowMaximumSize
      194    SDL_GetWindowMinimumSize
      195    SDL_GetWindowPixelFormat
      196    SDL_GetWindowPosition
      197    SDL_GetWindowSize
      198    SDL_GetWindowSurface
      199    SDL_GetWindowTitle
      200    SDL_GetWindowWMInfo
      201    SDL_HapticClose
      202    SDL_HapticDestroyEffect
      203    SDL_HapticEffectSupported
      204    SDL_HapticGetEffectStatus
      205    SDL_HapticIndex
      206    SDL_HapticName
      207    SDL_HapticNewEffect
      208    SDL_HapticNumAxes
      209    SDL_HapticNumEffects
      210    SDL_HapticNumEffectsPlaying
      211    SDL_HapticOpen
      212    SDL_HapticOpenFromJoystick
      213    SDL_HapticOpenFromMouse
      214    SDL_HapticOpened
      215    SDL_HapticPause
      216    SDL_HapticQuery
      217    SDL_HapticRumbleInit
      218    SDL_HapticRumblePlay
      219    SDL_HapticRumbleStop
      220    SDL_HapticRumbleSupported
      221    SDL_HapticRunEffect
      222    SDL_HapticSetAutocenter
      223    SDL_HapticSetGain
      224    SDL_HapticStopAll
      225    SDL_HapticStopEffect
      226    SDL_HapticUnpause
      227    SDL_HapticUpdateEffect
      228    SDL_Has3DNow
      229    SDL_HasAltiVec
      230    SDL_HasClipboardText
      231    SDL_HasEvent
      232    SDL_HasEvents
      233    SDL_HasIntersection
      234    SDL_HasMMX
      235    SDL_HasRDTSC
      236    SDL_HasSSE
      237    SDL_HasSSE2
      238    SDL_HasSSE3
      239    SDL_HasSSE41
      240    SDL_HasSSE42
      241    SDL_HasScreenKeyboardSupport
      242    SDL_HideWindow
      243    SDL_Init
      244    SDL_InitSubSystem
      245    SDL_IntersectRect
      246    SDL_IntersectRectAndLine
      247    SDL_IsGameController
      248    SDL_IsScreenKeyboardShown
      249    SDL_IsScreenSaverEnabled
      250    SDL_IsShapedWindow
      251    SDL_IsTextInputActive
      252    SDL_JoystickClose
      253    SDL_JoystickEventState
      254    SDL_JoystickGetAttached
      255    SDL_JoystickGetAxis
      256    SDL_JoystickGetBall
      257    SDL_JoystickGetButton
      258    SDL_JoystickGetDeviceGUID
      259    SDL_JoystickGetGUID
      260    SDL_JoystickGetGUIDFromString
      261    SDL_JoystickGetGUIDString
      262    SDL_JoystickGetHat
      263    SDL_JoystickInstanceID
      264    SDL_JoystickIsHaptic
      265    SDL_JoystickName
      266    SDL_JoystickNameForIndex
      267    SDL_JoystickNumAxes
      268    SDL_JoystickNumBalls
      269    SDL_JoystickNumButtons
      270    SDL_JoystickNumHats
      271    SDL_JoystickOpen
      272    SDL_JoystickUpdate
      273    SDL_LoadBMP_RW
      274    SDL_LoadDollarTemplates
      275    SDL_LoadFunction
      276    SDL_LoadObject
      277    SDL_LoadWAV_RW
      278    SDL_LockAudio
      279    SDL_LockAudioDevice
      280    SDL_LockMutex
      281    SDL_LockSurface
      282    SDL_LockTexture
      283    SDL_Log
      284    SDL_LogCritical
      285    SDL_LogDebug
      286    SDL_LogError
      287    SDL_LogGetOutputFunction
      288    SDL_LogGetPriority
      289    SDL_LogInfo
      290    SDL_LogMessage
      291    SDL_LogMessageV
      292    SDL_LogResetPriorities
      293    SDL_LogSetAllPriority
      294    SDL_LogSetOutputFunction
      295    SDL_LogSetPriority
      296    SDL_LogVerbose
      297    SDL_LogWarn
      298    SDL_LowerBlit
      299    SDL_LowerBlitScaled
      300    SDL_MapRGB
      301    SDL_MapRGBA
      302    SDL_MasksToPixelFormatEnum
      303    SDL_MaximizeWindow
      304    SDL_MinimizeWindow
      305    SDL_MixAudio
      306    SDL_MixAudioFormat
      307    SDL_MouseIsHaptic
      308    SDL_NumHaptics
      309    SDL_NumJoysticks
      310    SDL_OpenAudio
      311    SDL_OpenAudioDevice
      312    SDL_PauseAudio
      313    SDL_PauseAudioDevice
      314    SDL_PeepEvents
      315    SDL_PixelFormatEnumToMasks
      316    SDL_PollEvent
      317    SDL_PumpEvents
      318    SDL_PushEvent
      319    SDL_QueryTexture
      320    SDL_Quit
      321    SDL_QuitSubSystem
      322    SDL_RWFromConstMem
      323    SDL_RWFromFP
      324    SDL_RWFromFile
      325    SDL_RWFromMem
      326    SDL_RaiseWindow
      327    SDL_ReadBE16
      328    SDL_ReadBE32
      329    SDL_ReadBE64
      330    SDL_ReadLE16
      331    SDL_ReadLE32
      332    SDL_ReadLE64
      333    SDL_ReadU8
      334    SDL_RecordGesture
      335    SDL_RegisterEvents
      336    SDL_RemoveTimer
      337    SDL_RenderClear
      338    SDL_RenderCopy
      339    SDL_RenderCopyEx
      340    SDL_RenderDrawLine
      341    SDL_RenderDrawLines
      342    SDL_RenderDrawPoint
      343    SDL_RenderDrawPoints
      344    SDL_RenderDrawRect
      345    SDL_RenderDrawRects
      346    SDL_RenderFillRect
      347    SDL_RenderFillRects
      348    SDL_RenderGetClipRect
      349    SDL_RenderGetD3D9Device
      350    SDL_RenderGetLogicalSize
      351    SDL_RenderGetScale
      352    SDL_RenderGetViewport
      353    SDL_RenderPresent
      354    SDL_RenderReadPixels
      355    SDL_RenderSetClipRect
      356    SDL_RenderSetLogicalSize
      357    SDL_RenderSetScale
      358    SDL_RenderSetViewport
      359    SDL_RenderTargetSupported
      360    SDL_ReportAssertion
      361    SDL_ResetAssertionReport
      362    SDL_RestoreWindow
      363    SDL_SaveAllDollarTemplates
      364    SDL_SaveBMP_RW
      365    SDL_SaveDollarTemplate
      366    SDL_SemPost
      367    SDL_SemTryWait
      368    SDL_SemValue
      369    SDL_SemWait
      370    SDL_SemWaitTimeout
      371    SDL_SetAssertionHandler
      372    SDL_SetClipRect
      373    SDL_SetClipboardText
      374    SDL_SetColorKey
      375    SDL_SetCursor
      376    SDL_SetError
      377    SDL_SetEventFilter
      378    SDL_SetHint
      379    SDL_SetHintWithPriority
      380    SDL_SetMainReady
      381    SDL_SetModState
      382    SDL_SetPaletteColors
      383    SDL_SetPixelFormatPalette
      384    SDL_SetRelativeMouseMode
      385    SDL_SetRenderDrawBlendMode
      386    SDL_SetRenderDrawColor
      387    SDL_SetRenderTarget
      388    SDL_SetSurfaceAlphaMod
      389    SDL_SetSurfaceBlendMode
      390    SDL_SetSurfaceColorMod
      391    SDL_SetSurfacePalette
      392    SDL_SetSurfaceRLE
      393    SDL_SetTextInputRect
      394    SDL_SetTextureAlphaMod
      395    SDL_SetTextureBlendMode
      396    SDL_SetTextureColorMod
      397    SDL_SetThreadPriority
      398    SDL_SetWindowBordered
      399    SDL_SetWindowBrightness
      400    SDL_SetWindowData
      401    SDL_SetWindowDisplayMode
      402    SDL_SetWindowFullscreen
      403    SDL_SetWindowGammaRamp
      404    SDL_SetWindowGrab
      405    SDL_SetWindowIcon
      406    SDL_SetWindowMaximumSize
      407    SDL_SetWindowMinimumSize
      408    SDL_SetWindowPosition
      409    SDL_SetWindowShape
      410    SDL_SetWindowSize
      411    SDL_SetWindowTitle
      412    SDL_ShowCursor
      413    SDL_ShowMessageBox
      414    SDL_ShowSimpleMessageBox
      415    SDL_ShowWindow
      416    SDL_SoftStretch
      417    SDL_StartTextInput
      418    SDL_StopTextInput
      419    SDL_TLSCreate
      420    SDL_TLSGet
      421    SDL_TLSSet
      422    SDL_ThreadID
      423    SDL_TryLockMutex
      424    SDL_UnionRect
      425    SDL_UnloadObject
      426    SDL_UnlockAudio
      427    SDL_UnlockAudioDevice
      428    SDL_UnlockMutex
      429    SDL_UnlockSurface
      430    SDL_UnlockTexture
      431    SDL_UpdateTexture
      432    SDL_UpdateWindowSurface
      433    SDL_UpdateWindowSurfaceRects
      434    SDL_UpdateYUVTexture
      435    SDL_UpperBlit
      436    SDL_UpperBlitScaled
      437    SDL_VideoInit
      438    SDL_VideoQuit
      439    SDL_WaitEvent
      440    SDL_WaitEventTimeout
      441    SDL_WaitThread
      442    SDL_WarpMouseInWindow
      443    SDL_WasInit
      444    SDL_WriteBE16
      445    SDL_WriteBE32
      446    SDL_WriteBE64
      447    SDL_WriteLE16
      448    SDL_WriteLE32
      449    SDL_WriteLE64
      450    SDL_WriteU8
      451    SDL_abs
      452    SDL_atan
      453    SDL_atan2
      454    SDL_atof
      455    SDL_atoi
      456    SDL_calloc
      457    SDL_ceil
      458    SDL_copysign
      459    SDL_cos
      460    SDL_cosf
      461    SDL_fabs
      462    SDL_floor
      463    SDL_free
      464    SDL_getenv
      465    SDL_iconv
      466    SDL_iconv_close
      467    SDL_iconv_open
      468    SDL_iconv_string
      469    SDL_isdigit
      470    SDL_isspace
      471    SDL_itoa
      472    SDL_lltoa
      473    SDL_log
      474    SDL_ltoa
      475    SDL_malloc
      476    SDL_memcmp
      477    SDL_memcpy
      478    SDL_memmove
      479    SDL_memset
      480    SDL_pow
      481    SDL_qsort
      482    SDL_realloc
      483    SDL_scalbn
      484    SDL_setenv
      485    SDL_sin
      486    SDL_sinf
      487    SDL_snprintf
      488    SDL_sqrt
      489    SDL_sscanf
      490    SDL_strcasecmp
      491    SDL_strchr
      492    SDL_strcmp
      493    SDL_strdup
      494    SDL_strlcat
      495    SDL_strlcpy
      496    SDL_strlen
      497    SDL_strlwr
      498    SDL_strncasecmp
      499    SDL_strncmp
      500    SDL_strrchr
      501    SDL_strrev
      502    SDL_strstr
      503    SDL_strtod
      504    SDL_strtol
      505    SDL_strtoll
      506    SDL_strtoul
      507    SDL_strtoull
      508    SDL_strupr
      509    SDL_tolower
      510    SDL_toupper
      511    SDL_uitoa
      512    SDL_ulltoa
      513    SDL_ultoa
      514    SDL_utf8strlcpy
      515    SDL_vsnprintf
      516    SDL_wcslcat
      517    SDL_wcslcpy
      518    SDL_wcslen
