 plugin_test1

 Timestamp is 52d63390 (Wed Jan 15 10:06:56 2014)

 Preferred load address is 0000000180000000

 Start         Length     Name                   Class
 0001:00000000 00019540H .text                   CODE
 0001:00019540 0000005eH .text$00                CODE
 0001:000195a0 000017d4H .text$x                 CODE
 0001:0001ad74 000015b0H .text$yc                CODE
 0001:0001c324 00000700H .text$yd                CODE
 0002:00000000 00000398H .idata$5                DATA
 0002:00000398 00000008H .CRT$XCA                DATA
 0002:000003a0 00001750H .CRT$XCU                DATA
 0002:00001af0 00000008H .CRT$XCZ                DATA
 0002:00001af8 00000008H .CRT$XIA                DATA
 0002:00001b00 00000008H .CRT$XIAA               DATA
 0002:00001b08 00000008H .CRT$XIZ                DATA
 0002:00001b10 000046c8H .rdata                  DATA
 0002:000061e0 000029a4H .rdata$r                DATA
 0002:00008b88 00000008H .rtc$IAA                DATA
 0002:00008b90 00000008H .rtc$IZZ                DATA
 0002:00008b98 00000008H .rtc$TAA                DATA
 0002:00008ba0 00000008H .rtc$TZZ                DATA
 0002:00008ba8 00002920H .xdata                  DATA
 0002:0000b4c8 00000078H .idata$2                DATA
 0002:0000b540 00000014H .idata$3                DATA
 0002:0000b558 00000398H .idata$4                DATA
 0002:0000b8f0 00000808H .idata$6                DATA
 0002:0000c100 00000059H .edata                  DATA
 0003:00000000 00001380H .data                   DATA
 0003:00001380 00001e28H .bss                    DATA
 0004:00000000 00001fa4H .pdata                  DATA

  Address         Publics by Value              Rva+Base               Lib:Object

 0000:00000000       ___safe_se_handler_table   0000000000000000     <absolute>
 0000:00000000       ___safe_se_handler_count   0000000000000000     <absolute>
 0000:00000000       __ImageBase                0000000180000000     <linker-defined>
 0001:00000000       ??1SCMemShared@core@UModSys@@QEAA@XZ 0000000180001000 f i plugin_test1.obj
 0001:00000000       ??1State@RImage_Memory@stdlib@lib2d@modules@UModSys@@QEAA@XZ 0000000180001000 f i umodsys_lib_lib2d:umodsys.mod.2d.stdlib.obj
 0001:00000000       ??1SMemShared@core@UModSys@@QEAA@XZ 0000000180001000 f i plugin_test1.obj
 0001:00000030       ??6SUniquePtrList@core@UModSys@@QEAAAEAU012@PEBUSUniquePointerInfo@12@@Z 0000000180001030 f i plugin_test1.obj
 0001:000000e8       ??3IRoot@core@UModSys@@SAXPEAXAEBUSIMemAlloc@12@@Z 00000001800010e8 f i plugin_test1.obj
 0001:00000114       ??1IBinObjFilter@libmedia@UModSys@@UEAA@XZ 0000000180001114 f i plugin_test1.obj
 0001:00000150       ?root_get_interface_info@RTest1_Shell@test1@test@modules@UModSys@@UEBAAEBUSUniquePointerInfo@core@5@XZ 0000000180001150 f i plugin_test1.obj
 0001:00000158       ?root_get_interface_type@RTest1_Shell@test1@test@modules@UModSys@@UEBAPEBUSUniquePointerInfo@core@5@XZ 0000000180001158 f i plugin_test1.obj
 0001:00000160       ?root_get_other_interface@RTest1_Shell@test1@test@modules@UModSys@@UEAAPEAUIRoot@core@5@PEBUSUniquePointerInfo@75@@Z 0000000180001160 f i plugin_test1.obj
 0001:00000160       ?root_get_other_interface@RTest1_Shell@test1@test@modules@UModSys@@UEBAPEBUIRoot@core@5@PEBUSUniquePointerInfo@75@@Z 0000000180001160 f i plugin_test1.obj
 0001:00000190       ?root_is_interface_supported@RTest1_Shell@test1@test@modules@UModSys@@UEBA_NPEBUSUniquePointerInfo@core@5@@Z 0000000180001190 f i plugin_test1.obj
 0001:000001c0       ?ref_add@RTest1_Shell@test1@test@modules@UModSys@@UEBAXXZ 00000001800011c0 f i plugin_test1.obj
 0001:000001c4       ?ref_remove@RTest1_Shell@test1@test@modules@UModSys@@UEBAXXZ 00000001800011c4 f i plugin_test1.obj
 0001:000001dc       ?ref_links@RTest1_Shell@test1@test@modules@UModSys@@UEBAHXZ 00000001800011dc f i plugin_test1.obj
 0001:000001e0       ?ref_weak@RTest1_Shell@test1@test@modules@UModSys@@UEBA_NAEAUWeakPointer@IRefObject@core@5@@Z 00000001800011e0 f i plugin_test1.obj
 0001:00000200       ?suicide@RTest1_Shell@test1@test@modules@UModSys@@UEAAXXZ 0000000180001200 f i plugin_test1.obj
 0001:0000024c       ??0RTest1_Shell@test1@test@modules@UModSys@@QEAA@PEAUIModObject@base@4@@Z 000000018000124c f i plugin_test1.obj
 0001:00000390       ?connect@RTest1_Shell@test1@test@modules@UModSys@@UEAA_NXZ 0000000180001390 f i plugin_test1.obj
 0001:000003b4       ?disconnect@RTest1_Shell@test1@test@modules@UModSys@@UEAA_NXZ 00000001800013b4 f i plugin_test1.obj
 0001:000003d8       ?process_tick@RTest1_Shell@test1@test@modules@UModSys@@UEAA_NAEBUSTimeMsec@core@5@@Z 00000001800013d8 f i plugin_test1.obj
 0001:00000414       ?process_command@RTest1_Shell@test1@test@modules@UModSys@@UEAA_NHQEBU?$TString@U?$TSCoreConst@D@su@tl@UModSys@@U?$TComparerBinaryHash@D@234@@tl@5@@Z 0000000180001414 f i plugin_test1.obj
 0001:0000043c       ??_ERTest1_Shell@test1@test@modules@UModSys@@UEAAPEAXI@Z 000000018000143c f i  CIL library: CIL module
 0001:0000043c       ??_GRTest1_Shell@test1@test@modules@UModSys@@UEAAPEAXI@Z 000000018000143c f i plugin_test1.obj
 0001:00000504       ?ui_newframes@RTest1_Shell@test1@test@modules@UModSys@@QEAA?AU?$TRefObject@UICollector@libui@UModSys@@U?$TRefObjectFunc@UICollector@libui@UModSys@@@tl@3@@tl@5@AEBU?$TString@U?$TSCoreConst@D@su@tl@UModSys@@U?$TComparerBinaryHash@D@234@@75@AEBUSParameters@core@5@@Z 0000000180001504 f   plugin_test1.obj
 0001:0000052c       ?ui_newterm@RTest1_Shell@test1@test@modules@UModSys@@QEAA?AU?$TRefObject@UITerminal@libui@UModSys@@U?$TRefObjectFunc@UITerminal@libui@UModSys@@@tl@3@@tl@5@AEBU?$TString@U?$TSCoreConst@D@su@tl@UModSys@@U?$TComparerBinaryHash@D@234@@75@AEBUSParameters@core@5@@Z 000000018000152c f   plugin_test1.obj
 0001:00000554       ?key_pressed@RTest1_Shell@test1@test@modules@UModSys@@UEAA_NAEBUSKeyboardInputRaw@libui@5@@Z 0000000180001554 f   plugin_test1.obj
 0001:000005bc       ?key_text@RTest1_Shell@test1@test@modules@UModSys@@UEAA_NAEBUSKeyboardInputText@libui@5@@Z 00000001800015bc f   plugin_test1.obj
 0001:00000610       ?mouse_event@RTest1_Shell@test1@test@modules@UModSys@@UEAA_NAEBUSMouseInput@libui@5@@Z 0000000180001610 f   plugin_test1.obj
 0001:000006ac       ?command@RTest1_Shell@test1@test@modules@UModSys@@UEAA_NAEBUSController@libui@5@HAEBUSFrameDataIn@75@@Z 00000001800016ac f   plugin_test1.obj
 0001:000006fc       ?db_get@RTest1_Shell@test1@test@modules@UModSys@@UEAA_NAEBUSController@libui@5@QEBDAEBUSFrameDataOut@75@@Z 00000001800016fc f   plugin_test1.obj
 0001:00000760       ?db_get@RTest1_Shell@test1@test@modules@UModSys@@UEAA_NAEBUSController@libui@5@QEBDHAEBUSFrameDataOut@75@@Z 0000000180001760 f   plugin_test1.obj
 0001:000007cc       ?ui_test1@RTest1_Shell@test1@test@modules@UModSys@@QEAAXXZ 00000001800017cc f   plugin_test1.obj
 0001:00001b00       ??1SFrameCreateParameters@libui@UModSys@@QEAA@XZ 0000000180002b00 f i plugin_test1.obj
 0001:00001b24       ?get_generated_names@RGenerator@test1@test@modules@UModSys@@UEBAHAEAUSUniquePtrList@core@5@@Z 0000000180002b24 f i plugin_test1.obj
 0001:00001b44       ?get_generated_types@RGenerator@test1@test@modules@UModSys@@UEBAHAEAUSUniquePtrList@core@5@PEBUSUniquePointerInfo@75@@Z 0000000180002b44 f i plugin_test1.obj
 0001:00001ba0       ?generate@RGenerator@test1@test@modules@UModSys@@UEAA_NAEAU?$TRefObject@UIRefObject@core@UModSys@@U?$TRefObjectFunc@UIRefObject@core@UModSys@@@tl@3@@tl@5@PEBUSUniquePointerInfo@core@5@AEBUSParameters@95@@Z 0000000180002ba0 f i plugin_test1.obj
 0001:00001c64       ?root_get_interface_info@RGenerator@test1@test@modules@UModSys@@UEBAAEBUSUniquePointerInfo@core@5@XZ 0000000180002c64 f i plugin_test1.obj
 0001:00001c6c       ?root_get_interface_type@RGenerator@test1@test@modules@UModSys@@UEBAPEBUSUniquePointerInfo@core@5@XZ 0000000180002c6c f i plugin_test1.obj
 0001:00001c74       ?root_get_other_interface@RGenerator@test1@test@modules@UModSys@@UEAAPEAUIRoot@core@5@PEBUSUniquePointerInfo@75@@Z 0000000180002c74 f i plugin_test1.obj
 0001:00001c74       ?root_get_other_interface@RGenerator@test1@test@modules@UModSys@@UEBAPEBUIRoot@core@5@PEBUSUniquePointerInfo@75@@Z 0000000180002c74 f i plugin_test1.obj
 0001:00001cac       ?root_is_interface_supported@RGenerator@test1@test@modules@UModSys@@UEBA_NPEBUSUniquePointerInfo@core@5@@Z 0000000180002cac f i plugin_test1.obj
 0001:00001ce4       ?get_uid@RGenerator@test1@test@modules@UModSys@@UEBAPEBUSUniquePointerInfo@core@5@XZ 0000000180002ce4 f i plugin_test1.obj
 0001:00001cec       ?do_open@RModuleReg@test1@test@modules@UModSys@@UEAA_NXZ 0000000180002cec f i plugin_test1.obj
 0001:00001d78       ?do_close@RModuleReg@test1@test@modules@UModSys@@UEAA_NXZ 0000000180002d78 f i plugin_test1.obj
 0001:00001de0       ?get_module@RGenerator@test1@test@modules@UModSys@@UEBAPEAUIModule@base@5@XZ 0000000180002de0 f   plugin_test1.obj
 0001:00001de8       ?mod_inc@RGenerator@test1@test@modules@UModSys@@UEBA_NXZ 0000000180002de8 f   plugin_test1.obj
 0001:00001dfc       ?mod_dec@RGenerator@test1@test@modules@UModSys@@UEBA_NXZ 0000000180002dfc f   plugin_test1.obj
 0001:00001e10       ?s_holder@RGenerator@test1@test@modules@UModSys@@SAAEAU?$TTypeStaticHolder@URGenerator@test1@test@modules@UModSys@@@tl@5@XZ 0000000180002e10 f   plugin_test1.obj
 0001:00001e54       ??0?$TString@U?$TSCoreConst@D@su@tl@UModSys@@U?$TComparerBinaryHash@D@234@@tl@UModSys@@QEAA@PEBD@Z 0000000180002e54 f i plugin_test1.obj
 0001:00001ed4       ??4?$TString@U?$TSCoreConst@D@su@tl@UModSys@@U?$TComparerBinaryHash@D@234@@tl@UModSys@@QEAAAEBU012@PEBD@Z 0000000180002ed4 f i plugin_test1.obj
 0001:00001f4c       ?info_release@?$TSCoreShared@USIMemAlloc@core@UModSys@@D@su@tl@UModSys@@QEAAXXZ 0000000180002f4c f i plugin_test1.obj
 0001:00002020       ?info_new@?$TSCoreShared@USIMemAlloc@core@UModSys@@D@su@tl@UModSys@@QEAA_NPEBD_K@Z 0000000180003020 f i plugin_test1.obj
 0001:000020f4       ??$generate_type@UICollector@libui@UModSys@@@RTest1_Shell@test1@test@modules@UModSys@@QEAA?AU?$TRefObject@UICollector@libui@UModSys@@U?$TRefObjectFunc@UICollector@libui@UModSys@@@tl@3@@tl@4@AEBU?$TString@U?$TSCoreConst@D@su@tl@UModSys@@U?$TComparerBinaryHash@D@234@@64@AEBUSParameters@core@4@PEBD@Z 00000001800030f4 f i plugin_test1.obj
 0001:000022f8       ??$generate_type@UITerminal@libui@UModSys@@@RTest1_Shell@test1@test@modules@UModSys@@QEAA?AU?$TRefObject@UITerminal@libui@UModSys@@U?$TRefObjectFunc@UITerminal@libui@UModSys@@@tl@3@@tl@4@AEBU?$TString@U?$TSCoreConst@D@su@tl@UModSys@@U?$TComparerBinaryHash@D@234@@64@AEBUSParameters@core@4@PEBD@Z 00000001800032f8 f i plugin_test1.obj
 0001:000024fc       ??1?$TRefObject@UIModObject@base@UModSys@@U?$TModObjectFunc@UIModObject@base@UModSys@@@tl@3@@tl@UModSys@@QEAA@XZ 00000001800034fc f i plugin_test1.obj
 0001:00002528       ?alloc@SMemShared@core@UModSys@@QEAA_N_KPEAUSSourceContext@23@@Z 0000000180003528 f i umodsys_lib_lib2d:umodsys.mod.2d.stdlib.obj
 0001:000025ac       ?Convert@stdlib@lib2d@modules@UModSys@@YA_NAEBU?$TBoundBox2@H@math3d@4@AEBUSImageInfo@24@AEBUSMem@core@4@01AEBUSCMem@94@@Z 00000001800035ac f i umodsys_lib_lib2d:umodsys.mod.2d.stdlib.obj
 0001:00002700       ?root_get_interface_info@RImage_Memory@stdlib@lib2d@modules@UModSys@@UEBAAEBUSUniquePointerInfo@core@5@XZ 0000000180003700 f i umodsys_lib_lib2d:umodsys.mod.2d.stdlib.obj
 0001:00002708       ?root_get_interface_type@RImage_Memory@stdlib@lib2d@modules@UModSys@@UEBAPEBUSUniquePointerInfo@core@5@XZ 0000000180003708 f i umodsys_lib_lib2d:umodsys.mod.2d.stdlib.obj
 0001:00002710       ?root_get_other_interface@RImage_Memory@stdlib@lib2d@modules@UModSys@@UEBAPEBUIRoot@core@5@PEBUSUniquePointerInfo@75@@Z 0000000180003710 f i umodsys_lib_lib2d:umodsys.mod.2d.stdlib.obj
 0001:00002710       ?root_get_other_interface@RImage_Memory@stdlib@lib2d@modules@UModSys@@UEAAPEAUIRoot@core@5@PEBUSUniquePointerInfo@75@@Z 0000000180003710 f i umodsys_lib_lib2d:umodsys.mod.2d.stdlib.obj
 0001:00002740       ?root_is_interface_supported@RImage_Memory@stdlib@lib2d@modules@UModSys@@UEBA_NPEBUSUniquePointerInfo@core@5@@Z 0000000180003740 f i umodsys_lib_lib2d:umodsys.mod.2d.stdlib.obj
 0001:00002770       ?suicide@RSerializeReader@serialize_json@media@modules@UModSys@@UEAAXXZ 0000000180003770 f i umodsys_lib_libmedia:umodsys.mod.media.serialize_json.obj
 0001:00002770       ?suicide@RImageFactory_Memory@stdlib@lib2d@modules@UModSys@@UEAAXXZ 0000000180003770 f i umodsys_lib_lib2d:umodsys.mod.2d.stdlib.obj
 0001:00002770       ?suicide@RImage_Memory@stdlib@lib2d@modules@UModSys@@UEAAXXZ 0000000180003770 f i umodsys_lib_lib2d:umodsys.mod.2d.stdlib.obj
 0001:00002770       ?suicide@RBinArchiveFrameClient_ZIP@zlib@media@modules@UModSys@@UEAAXXZ 0000000180003770 f i umodsys_lib_libmedia:umodsys.mod.media.zlib.obj
 0001:00002770       ?suicide@RMultiImage@stdlib@lib2d@modules@UModSys@@UEAAXXZ 0000000180003770 f i umodsys_lib_lib2d:umodsys.mod.2d.stdlib.obj
 0001:00002770       ?suicide@RTerminal@SDL_core@ui@modules@UModSys@@UEAAXXZ 0000000180003770 f i umodsys_lib_libui:umodsys.mod.ui.SDL_core.obj
 0001:000027bc       ?root_get_interface_info@RImageFactory_Memory@stdlib@lib2d@modules@UModSys@@UEBAAEBUSUniquePointerInfo@core@5@XZ 00000001800037bc f i umodsys_lib_lib2d:umodsys.mod.2d.stdlib.obj
 0001:000027c4       ?root_get_interface_type@RImageFactory_Memory@stdlib@lib2d@modules@UModSys@@UEBAPEBUSUniquePointerInfo@core@5@XZ 00000001800037c4 f i umodsys_lib_lib2d:umodsys.mod.2d.stdlib.obj
 0001:000027cc       ?root_get_other_interface@RImageFactory_Memory@stdlib@lib2d@modules@UModSys@@UEAAPEAUIRoot@core@5@PEBUSUniquePointerInfo@75@@Z 00000001800037cc f i umodsys_lib_lib2d:umodsys.mod.2d.stdlib.obj
 0001:000027cc       ?root_get_other_interface@RImageFactory_Memory@stdlib@lib2d@modules@UModSys@@UEBAPEBUIRoot@core@5@PEBUSUniquePointerInfo@75@@Z 00000001800037cc f i umodsys_lib_lib2d:umodsys.mod.2d.stdlib.obj
 0001:000027fc       ?root_is_interface_supported@RImageFactory_Memory@stdlib@lib2d@modules@UModSys@@UEBA_NPEBUSUniquePointerInfo@core@5@@Z 00000001800037fc f i umodsys_lib_lib2d:umodsys.mod.2d.stdlib.obj
 0001:0000282c       ?root_get_interface_info@RMultiImage@stdlib@lib2d@modules@UModSys@@UEBAAEBUSUniquePointerInfo@core@5@XZ 000000018000382c f i umodsys_lib_lib2d:umodsys.mod.2d.stdlib.obj
 0001:00002834       ?root_get_interface_type@RMultiImage@stdlib@lib2d@modules@UModSys@@UEBAPEBUSUniquePointerInfo@core@5@XZ 0000000180003834 f i umodsys_lib_lib2d:umodsys.mod.2d.stdlib.obj
 0001:0000283c       ?root_get_other_interface@RMultiImage@stdlib@lib2d@modules@UModSys@@UEAAPEAUIRoot@core@5@PEBUSUniquePointerInfo@75@@Z 000000018000383c f i umodsys_lib_lib2d:umodsys.mod.2d.stdlib.obj
 0001:0000283c       ?root_get_other_interface@RMultiImage@stdlib@lib2d@modules@UModSys@@UEBAPEBUIRoot@core@5@PEBUSUniquePointerInfo@75@@Z 000000018000383c f i umodsys_lib_lib2d:umodsys.mod.2d.stdlib.obj
 0001:0000286c       ?root_is_interface_supported@RMultiImage@stdlib@lib2d@modules@UModSys@@UEBA_NPEBUSUniquePointerInfo@core@5@@Z 000000018000386c f i umodsys_lib_lib2d:umodsys.mod.2d.stdlib.obj
 0001:0000289c       ?ref_weak@RTerminal@SDL_core@ui@modules@UModSys@@UEBA_NAEAUWeakPointer@IRefObject@core@5@@Z 000000018000389c f i umodsys_lib_libui:umodsys.mod.ui.SDL_core.obj
 0001:0000289c       ?ref_weak@RRenderDriver2D@SDL_core@ui@modules@UModSys@@UEBA_NAEAUWeakPointer@IRefObject@core@5@@Z 000000018000389c f i umodsys_lib_libui:umodsys.mod.ui.SDL_core.obj
 0001:0000289c       ?ref_weak@RBinArchiveFrameClient_ZIP@zlib@media@modules@UModSys@@UEBA_NAEAUWeakPointer@IRefObject@core@5@@Z 000000018000389c f i umodsys_lib_libmedia:umodsys.mod.media.zlib.obj
 0001:0000289c       ?ref_weak@RGenerator@test1@test@modules@UModSys@@UEBA_NAEAUWeakPointer@IRefObject@core@5@@Z 000000018000389c f i plugin_test1.obj
 0001:0000289c       ?ref_weak@RImageFactory_Memory@stdlib@lib2d@modules@UModSys@@UEBA_NAEAUWeakPointer@IRefObject@core@5@@Z 000000018000389c f i umodsys_lib_lib2d:umodsys.mod.2d.stdlib.obj
 0001:0000289c       ?ref_weak@RGenerator@images_std@media@modules@UModSys@@UEBA_NAEAUWeakPointer@IRefObject@core@5@@Z 000000018000389c f i umodsys_lib_libmedia:umodsys.mod.media.images_std.obj
 0001:0000289c       ?ref_weak@RMultiImage2D_SDL_ttf@SDL_core@ui@modules@UModSys@@UEBA_NAEAUWeakPointer@IRefObject@core@5@@Z 000000018000389c f i umodsys_lib_libui:umodsys.mod.ui.SDL_core.obj
 0001:0000289c       ?ref_weak@RImage_Memory@stdlib@lib2d@modules@UModSys@@UEBA_NAEAUWeakPointer@IRefObject@core@5@@Z 000000018000389c f i umodsys_lib_lib2d:umodsys.mod.2d.stdlib.obj
 0001:0000289c       ?ref_weak@RGenerator@serialize_json@media@modules@UModSys@@UEBA_NAEAUWeakPointer@IRefObject@core@5@@Z 000000018000389c f i umodsys_lib_libmedia:umodsys.mod.media.serialize_json.obj
 0001:0000289c       ?ref_weak@RMouseController@SDL_core@ui@modules@UModSys@@UEBA_NAEAUWeakPointer@IRefObject@core@5@@Z 000000018000389c f i umodsys_lib_libui:umodsys.mod.ui.SDL_core.obj
 0001:0000289c       ?ref_weak@RSerializeReader@serialize_json@media@modules@UModSys@@UEBA_NAEAUWeakPointer@IRefObject@core@5@@Z 000000018000389c f i umodsys_lib_libmedia:umodsys.mod.media.serialize_json.obj
 0001:0000289c       ?ref_weak@RGenerator@zlib@media@modules@UModSys@@UEBA_NAEAUWeakPointer@IRefObject@core@5@@Z 000000018000389c f i umodsys_lib_libmedia:umodsys.mod.media.zlib.obj
 0001:0000289c       ?ref_weak@RKeyboardController@SDL_core@ui@modules@UModSys@@UEBA_NAEAUWeakPointer@IRefObject@core@5@@Z 000000018000389c f i umodsys_lib_libui:umodsys.mod.ui.SDL_core.obj
 0001:0000289c       ?ref_weak@RGenerator@stdlib@lib2d@modules@UModSys@@UEBA_NAEAUWeakPointer@IRefObject@core@5@@Z 000000018000389c f i umodsys_lib_lib2d:umodsys.mod.2d.stdlib.obj
 0001:0000289c       ?ref_weak@RGenerator@frames@ui@modules@UModSys@@UEBA_NAEAUWeakPointer@IRefObject@core@5@@Z 000000018000389c f i umodsys_lib_libui:umodsys.mod.ui.frames.obj
 0001:0000289c       ?ref_weak@RMultiImage@stdlib@lib2d@modules@UModSys@@UEBA_NAEAUWeakPointer@IRefObject@core@5@@Z 000000018000389c f i umodsys_lib_lib2d:umodsys.mod.2d.stdlib.obj
 0001:0000289c       ?ref_weak@RGenerator@SDL_core@ui@modules@UModSys@@UEBA_NAEAUWeakPointer@IRefObject@core@5@@Z 000000018000389c f i umodsys_lib_libui:umodsys.mod.ui.SDL_core.obj
 0001:0000289c       ?ref_weak@RDialog@frames@ui@modules@UModSys@@UEBA_NAEAUWeakPointer@IRefObject@core@5@@Z 000000018000389c f i umodsys_lib_libui:umodsys.mod.ui.frames.obj
 0001:000028bc       ?get_generated_names@RGenerator@stdlib@lib2d@modules@UModSys@@UEBAHAEAUSUniquePtrList@core@5@@Z 00000001800038bc f i umodsys_lib_lib2d:umodsys.mod.2d.stdlib.obj
 0001:00002900       ?get_generated_types@RGenerator@stdlib@lib2d@modules@UModSys@@UEBAHAEAUSUniquePtrList@core@5@PEBUSUniquePointerInfo@75@@Z 0000000180003900 f i umodsys_lib_lib2d:umodsys.mod.2d.stdlib.obj
 0001:00002994       ?generate@RGenerator@stdlib@lib2d@modules@UModSys@@UEAA_NAEAU?$TRefObject@UIRefObject@core@UModSys@@U?$TRefObjectFunc@UIRefObject@core@UModSys@@@tl@3@@tl@5@PEBUSUniquePointerInfo@core@5@AEBUSParameters@95@@Z 0000000180003994 f i umodsys_lib_lib2d:umodsys.mod.2d.stdlib.obj
 0001:00002ac4       ?root_get_interface_info@RGenerator@stdlib@lib2d@modules@UModSys@@UEBAAEBUSUniquePointerInfo@core@5@XZ 0000000180003ac4 f i umodsys_lib_lib2d:umodsys.mod.2d.stdlib.obj
 0001:00002acc       ?root_get_interface_type@RGenerator@stdlib@lib2d@modules@UModSys@@UEBAPEBUSUniquePointerInfo@core@5@XZ 0000000180003acc f i umodsys_lib_lib2d:umodsys.mod.2d.stdlib.obj
 0001:00002ad4       ?root_get_other_interface@RGenerator@stdlib@lib2d@modules@UModSys@@UEAAPEAUIRoot@core@5@PEBUSUniquePointerInfo@75@@Z 0000000180003ad4 f i umodsys_lib_lib2d:umodsys.mod.2d.stdlib.obj
 0001:00002ad4       ?root_get_other_interface@RGenerator@stdlib@lib2d@modules@UModSys@@UEBAPEBUIRoot@core@5@PEBUSUniquePointerInfo@75@@Z 0000000180003ad4 f i umodsys_lib_lib2d:umodsys.mod.2d.stdlib.obj
 0001:00002b0c       ?root_is_interface_supported@RGenerator@stdlib@lib2d@modules@UModSys@@UEBA_NPEBUSUniquePointerInfo@core@5@@Z 0000000180003b0c f i umodsys_lib_lib2d:umodsys.mod.2d.stdlib.obj
 0001:00002b44       ?get_uid@RGenerator@stdlib@lib2d@modules@UModSys@@UEBAPEBUSUniquePointerInfo@core@5@XZ 0000000180003b44 f i umodsys_lib_lib2d:umodsys.mod.2d.stdlib.obj
 0001:00002b4c       ?set_info@RImage_Memory@stdlib@lib2d@modules@UModSys@@UEAA_NAEBUSImagePatchInfo@35@PEBD@Z 0000000180003b4c f   umodsys_lib_lib2d:umodsys.mod.2d.stdlib.obj
 0001:00002dac       ?set_data@RImage_Memory@stdlib@lib2d@modules@UModSys@@UEAA_NAEBUSImagePatchInfo@35@AEBUSCMem@core@5@H@Z 0000000180003dac f   umodsys_lib_lib2d:umodsys.mod.2d.stdlib.obj
 0001:00002e60       ?get_info@RImage_Memory@stdlib@lib2d@modules@UModSys@@UEBAAEBUSImageInfo@35@XZ 0000000180003e60 f   umodsys_lib_lib2d:umodsys.mod.2d.stdlib.obj
 0001:00002e68       ?get_data@RImage_Memory@stdlib@lib2d@modules@UModSys@@UEBA_NAEBUSImagePatchInfo@35@AEBUSMem@core@5@H@Z 0000000180003e68 f   umodsys_lib_lib2d:umodsys.mod.2d.stdlib.obj
 0001:00002f38       ??0RImage_Memory@stdlib@lib2d@modules@UModSys@@QEAA@PEAUIModObject@base@4@AEBUSParameters@core@4@@Z 0000000180003f38 f   umodsys_lib_lib2d:umodsys.mod.2d.stdlib.obj
 0001:00002fe0       ??_ERImage_Memory@stdlib@lib2d@modules@UModSys@@UEAAPEAXI@Z 0000000180003fe0 f i  CIL library: CIL module
 0001:00002fe0       ??_GRImage_Memory@stdlib@lib2d@modules@UModSys@@UEAAPEAXI@Z 0000000180003fe0 f i umodsys_lib_lib2d:umodsys.mod.2d.stdlib.obj
 0001:00003050       ?get_max_layer_size@RMultiImage2D_SDL_ttf@SDL_core@ui@modules@UModSys@@UEBA?AU?$TVector2@H@math3d@5@XZ 0000000180004050 f   umodsys_lib_libui:umodsys.mod.ui.SDL_core.obj
 0001:00003050       ?get_fixed_cell_size@RMultiImage2D_SDL_ttf@SDL_core@ui@modules@UModSys@@UEBA?AU?$TVector2@H@math3d@5@XZ 0000000180004050 f   umodsys_lib_libui:umodsys.mod.ui.SDL_core.obj
 0001:00003050       ?get_max_cell_size@RMultiImage2D_SDL_ttf@SDL_core@ui@modules@UModSys@@UEBA?AU?$TVector2@H@math3d@5@XZ 0000000180004050 f   umodsys_lib_libui:umodsys.mod.ui.SDL_core.obj
 0001:00003050       ?image_get_maxsize@RImageFactory_Memory@stdlib@lib2d@modules@UModSys@@UEBA?AU?$TVector2@H@math3d@5@XZ 0000000180004050 f   umodsys_lib_lib2d:umodsys.mod.2d.stdlib.obj
 0001:0000305c       ?image_new@RImageFactory_Memory@stdlib@lib2d@modules@UModSys@@UEAA?AU?$TRefObject@UIImage@lib2d@UModSys@@U?$TRefObjectFunc@UIImage@lib2d@UModSys@@@tl@3@@tl@5@XZ 000000018000405c f   umodsys_lib_lib2d:umodsys.mod.2d.stdlib.obj
 0001:000031e0       ??1SParameters@core@UModSys@@QEAA@XZ 00000001800041e0 f i plugin_test1.obj
 0001:000031e0       ??1?$TParametersA@$0BAA@@core@UModSys@@QEAA@XZ 00000001800041e0 f i umodsys_lib_libui:umodsys.mod.ui.SDL_core.obj
 0001:000031e0       ??1?$TParametersA@$0BAL@@core@UModSys@@QEAA@XZ 00000001800041e0 f i umodsys_lib_lib2d:umodsys.mod.2d.stdlib.obj
 0001:000031e0       ??1?$TParametersA@$0EAA@@core@UModSys@@QEAA@XZ 00000001800041e0 f i plugin_test1.obj
 0001:000031fc       ?image_new@RImageFactory_Memory@stdlib@lib2d@modules@UModSys@@UEAA?AU?$TRefObject@UIImage@lib2d@UModSys@@U?$TRefObjectFunc@UIImage@lib2d@UModSys@@@tl@3@@tl@5@AEBUSImagePatchInfo@35@PEBD@Z 00000001800041fc f   umodsys_lib_lib2d:umodsys.mod.2d.stdlib.obj
 0001:000033d0       ?get_max_layer_size@RMultiImage@stdlib@lib2d@modules@UModSys@@UEBA?AU?$TVector2@H@math3d@5@XZ 00000001800043d0 f   umodsys_lib_lib2d:umodsys.mod.2d.stdlib.obj
 0001:000033d0       ?get_max_cell_size@RMultiImage@stdlib@lib2d@modules@UModSys@@UEBA?AU?$TVector2@H@math3d@5@XZ 00000001800043d0 f   umodsys_lib_lib2d:umodsys.mod.2d.stdlib.obj
 0001:000033fc       ?get_fixed_cell_size@RMultiImage@stdlib@lib2d@modules@UModSys@@UEBA?AU?$TVector2@H@math3d@5@XZ 00000001800043fc f   umodsys_lib_lib2d:umodsys.mod.2d.stdlib.obj
 0001:0000341c       ?get_layer_count@RMultiImage@stdlib@lib2d@modules@UModSys@@UEBAGXZ 000000018000441c f   umodsys_lib_lib2d:umodsys.mod.2d.stdlib.obj
 0001:00003430       ?get_layer@RMultiImage@stdlib@lib2d@modules@UModSys@@UEBAPEAUIImage@35@G@Z 0000000180004430 f   umodsys_lib_lib2d:umodsys.mod.2d.stdlib.obj
 0001:00003454       ?get_cell_count@RMultiImage@stdlib@lib2d@modules@UModSys@@UEBAIXZ 0000000180004454 f   umodsys_lib_lib2d:umodsys.mod.2d.stdlib.obj
 0001:00003468       ?get_cell@RMultiImage@stdlib@lib2d@modules@UModSys@@UEBA_NIAEAU?$TVector2@H@math3d@5@PEAU675@PEAG@Z 0000000180004468 f   umodsys_lib_lib2d:umodsys.mod.2d.stdlib.obj
 0001:000034c0       ?get_cell@RMultiImage@stdlib@lib2d@modules@UModSys@@UEBA_NIAEAUSImageCellInfo@35@@Z 00000001800044c0 f   umodsys_lib_lib2d:umodsys.mod.2d.stdlib.obj
 0001:000034f8       ?set_layer_count@RMultiImage@stdlib@lib2d@modules@UModSys@@UEAA_NG@Z 00000001800044f8 f   umodsys_lib_lib2d:umodsys.mod.2d.stdlib.obj
 0001:00003600       ?setup_fixed_cell@RMultiImage@stdlib@lib2d@modules@UModSys@@UEAA_NHH@Z 0000000180004600 f   umodsys_lib_lib2d:umodsys.mod.2d.stdlib.obj
 0001:0000361c       ?setup_variable_cell@RMultiImage@stdlib@lib2d@modules@UModSys@@UEAA_NPEBUSImageCellInfo@35@KK@Z 000000018000461c f   umodsys_lib_lib2d:umodsys.mod.2d.stdlib.obj
 0001:000036c4       ??0RMultiImage@stdlib@lib2d@modules@UModSys@@QEAA@PEAUIModObject@base@4@AEBUSParameters@core@4@@Z 00000001800046c4 f   umodsys_lib_lib2d:umodsys.mod.2d.stdlib.obj
 0001:000037e0       ??_GRMultiImage@stdlib@lib2d@modules@UModSys@@UEAAPEAXI@Z 00000001800047e0 f i umodsys_lib_lib2d:umodsys.mod.2d.stdlib.obj
 0001:000037e0       ??_ERMultiImage@stdlib@lib2d@modules@UModSys@@UEAAPEAXI@Z 00000001800047e0 f i  CIL library: CIL module
 0001:000038b8       ?do_open@RModuleReg@stdlib@lib2d@modules@UModSys@@UEAA_NXZ 00000001800048b8 f i umodsys_lib_lib2d:umodsys.mod.2d.stdlib.obj
 0001:0000392c       ?do_close@RModuleReg@stdlib@lib2d@modules@UModSys@@UEAA_NXZ 000000018000492c f i umodsys_lib_lib2d:umodsys.mod.2d.stdlib.obj
 0001:0000397c       ??_ERModuleReg@stdlib@lib2d@modules@UModSys@@UEAAPEAXI@Z 000000018000497c f i  CIL library: CIL module
 0001:0000397c       ??_GRModuleReg@test1@test@modules@UModSys@@UEAAPEAXI@Z 000000018000497c f i plugin_test1.obj
 0001:0000397c       ??_GRModuleReg@serialize_json@media@modules@UModSys@@UEAAPEAXI@Z 000000018000497c f i umodsys_lib_libmedia:umodsys.mod.media.serialize_json.obj
 0001:0000397c       ??_ERModuleReg@frames@ui@modules@UModSys@@UEAAPEAXI@Z 000000018000497c f i  CIL library: CIL module
 0001:0000397c       ??_EIModuleReg@base@UModSys@@UEAAPEAXI@Z 000000018000497c f i  CIL library: CIL module
 0001:0000397c       ??_GRModuleReg@frames@ui@modules@UModSys@@UEAAPEAXI@Z 000000018000497c f i umodsys_lib_libui:umodsys.mod.ui.frames.obj
 0001:0000397c       ??_GRModuleReg@stdlib@lib2d@modules@UModSys@@UEAAPEAXI@Z 000000018000497c f i umodsys_lib_lib2d:umodsys.mod.2d.stdlib.obj
 0001:0000397c       ??_ERModuleReg@SDL_core@ui@modules@UModSys@@UEAAPEAXI@Z 000000018000497c f i  CIL library: CIL module
 0001:0000397c       ??_ERModuleReg@images_std@media@modules@UModSys@@UEAAPEAXI@Z 000000018000497c f i  CIL library: CIL module
 0001:0000397c       ??_GRModuleReg@images_std@media@modules@UModSys@@UEAAPEAXI@Z 000000018000497c f i umodsys_lib_libmedia:umodsys.mod.media.images_std.obj
 0001:0000397c       ??_GRModuleReg@zlib@media@modules@UModSys@@UEAAPEAXI@Z 000000018000497c f i umodsys_lib_libmedia:umodsys.mod.media.zlib.obj
 0001:0000397c       ??_ERModuleReg@serialize_json@media@modules@UModSys@@UEAAPEAXI@Z 000000018000497c f i  CIL library: CIL module
 0001:0000397c       ??_ERModuleReg@test1@test@modules@UModSys@@UEAAPEAXI@Z 000000018000497c f i  CIL library: CIL module
 0001:0000397c       ??_ERModuleReg@zlib@media@modules@UModSys@@UEAAPEAXI@Z 000000018000497c f i  CIL library: CIL module
 0001:0000397c       ??_GIModuleReg@base@UModSys@@UEAAPEAXI@Z 000000018000497c f i umodsys_lib_base:umodsys.base.modulereg.obj
 0001:0000397c       ??_GRModuleReg@SDL_core@ui@modules@UModSys@@UEAAPEAXI@Z 000000018000497c f i umodsys_lib_libui:umodsys.mod.ui.SDL_core.obj
 0001:000039a4       ?get_module@RGenerator@stdlib@lib2d@modules@UModSys@@UEBAPEAUIModule@base@5@XZ 00000001800049a4 f   umodsys_lib_lib2d:umodsys.mod.2d.stdlib.obj
 0001:000039ac       ?mod_inc@RGenerator@stdlib@lib2d@modules@UModSys@@UEBA_NXZ 00000001800049ac f   umodsys_lib_lib2d:umodsys.mod.2d.stdlib.obj
 0001:000039c0       ?mod_dec@RGenerator@stdlib@lib2d@modules@UModSys@@UEBA_NXZ 00000001800049c0 f   umodsys_lib_lib2d:umodsys.mod.2d.stdlib.obj
 0001:000039d4       ?s_holder@RGenerator@stdlib@lib2d@modules@UModSys@@SAAEAU?$TTypeStaticHolder@URGenerator@stdlib@lib2d@modules@UModSys@@@tl@5@XZ 00000001800049d4 f   umodsys_lib_lib2d:umodsys.mod.2d.stdlib.obj
 0001:00003a18       ??1?$TDynarrayDynamic@USImageCellInfo@lib2d@UModSys@@U?$TAllocator@USIMemAlloc@core@UModSys@@USCountCalcPower2@23@@tl@3@@tl@UModSys@@QEAA@XZ 0000000180004a18 f i umodsys_lib_lib2d:umodsys.mod.2d.stdlib.obj
 0001:00003a20       ?Resize@?$TDynarray@U?$TDynarrayHolderDynamic@USImageCellInfo@lib2d@UModSys@@U?$TAllocator@USIMemAlloc@core@UModSys@@USCountCalcPower2@23@@tl@3@@tl@UModSys@@@tl@UModSys@@QEAA_N_K@Z 0000000180004a20 f i umodsys_lib_lib2d:umodsys.mod.2d.stdlib.obj
 0001:00003ac0       ??1?$TDynarrayDynamic@U?$TRefObject@UIImage@lib2d@UModSys@@U?$TRefObjectFunc@UIImage@lib2d@UModSys@@@tl@3@@tl@UModSys@@U?$TAllocator@USIMemAlloc@core@UModSys@@USCountCalcPower2@23@@23@@tl@UModSys@@QEAA@XZ 0000000180004ac0 f i umodsys_lib_lib2d:umodsys.mod.2d.stdlib.obj
 0001:00003b20       ?Resize@?$TDynarray@U?$TDynarrayHolderDynamic@U?$TRefObject@UIImage@lib2d@UModSys@@U?$TRefObjectFunc@UIImage@lib2d@UModSys@@@tl@3@@tl@UModSys@@U?$TAllocator@USIMemAlloc@core@UModSys@@USCountCalcPower2@23@@23@@tl@UModSys@@@tl@UModSys@@QEAA_N_K@Z 0000000180004b20 f i umodsys_lib_lib2d:umodsys.mod.2d.stdlib.obj
 0001:00003c1c       ??1?$TDynarray@U?$TDynarrayHolderDynamic@USImageCellInfo@lib2d@UModSys@@U?$TAllocator@USIMemAlloc@core@UModSys@@USCountCalcPower2@23@@tl@3@@tl@UModSys@@@tl@UModSys@@QEAA@XZ 0000000180004c1c f i umodsys_lib_lib2d:umodsys.mod.2d.stdlib.obj
 0001:00003ce8       ??$t_gen_param@URImageFactory_Memory@stdlib@lib2d@modules@UModSys@@URGenerator@2345@@IGenerator@base@UModSys@@IEAA_NPEAURGenerator@stdlib@lib2d@modules@2@AEAU?$TRefObject@UIRefObject@core@UModSys@@U?$TRefObjectFunc@UIRefObject@core@UModSys@@@tl@3@@tl@2@PEBUSUniquePointerInfo@core@2@AEBUSParameters@core@2@@Z 0000000180004ce8 f i umodsys_lib_lib2d:umodsys.mod.2d.stdlib.obj
 0001:00003df8       ??$t_gen_param@URMultiImage@stdlib@lib2d@modules@UModSys@@URGenerator@2345@@IGenerator@base@UModSys@@IEAA_NPEAURGenerator@stdlib@lib2d@modules@2@AEAU?$TRefObject@UIRefObject@core@UModSys@@U?$TRefObjectFunc@UIRefObject@core@UModSys@@@tl@3@@tl@2@PEBUSUniquePointerInfo@core@2@AEBUSParameters@core@2@@Z 0000000180004df8 f i umodsys_lib_lib2d:umodsys.mod.2d.stdlib.obj
 0001:00003ef0       ??$ValidateConstruction@UIImage@lib2d@UModSys@@URImage_Memory@stdlib@2modules@3@@core@UModSys@@YA_NAEAU?$TRefObject@UIImage@lib2d@UModSys@@U?$TRefObjectFunc@UIImage@lib2d@UModSys@@@tl@3@@tl@1@PEAURImage_Memory@stdlib@lib2d@modules@1@@Z 0000000180004ef0 f i umodsys_lib_lib2d:umodsys.mod.2d.stdlib.obj
 0001:00003f48       ?root_get_interface_info@RMultiImage2D_SDL_ttf@SDL_core@ui@modules@UModSys@@UEBAAEBUSUniquePointerInfo@core@5@XZ 0000000180004f48 f i umodsys_lib_libui:umodsys.mod.ui.SDL_core.obj
 0001:00003f50       ?root_get_interface_type@RMultiImage2D_SDL_ttf@SDL_core@ui@modules@UModSys@@UEBAPEBUSUniquePointerInfo@core@5@XZ 0000000180004f50 f i umodsys_lib_libui:umodsys.mod.ui.SDL_core.obj
 0001:00003f58       ?root_get_other_interface@RMultiImage2D_SDL_ttf@SDL_core@ui@modules@UModSys@@UEAAPEAUIRoot@core@5@PEBUSUniquePointerInfo@75@@Z 0000000180004f58 f i umodsys_lib_libui:umodsys.mod.ui.SDL_core.obj
 0001:00003f58       ?root_get_other_interface@RMultiImage2D_SDL_ttf@SDL_core@ui@modules@UModSys@@UEBAPEBUIRoot@core@5@PEBUSUniquePointerInfo@75@@Z 0000000180004f58 f i umodsys_lib_libui:umodsys.mod.ui.SDL_core.obj
 0001:00003f88       ?root_is_interface_supported@RMultiImage2D_SDL_ttf@SDL_core@ui@modules@UModSys@@UEBA_NPEBUSUniquePointerInfo@core@5@@Z 0000000180004f88 f i umodsys_lib_libui:umodsys.mod.ui.SDL_core.obj
 0001:00003fb8       ?ref_add@RTerminal@SDL_core@ui@modules@UModSys@@UEBAXXZ 0000000180004fb8 f i umodsys_lib_libui:umodsys.mod.ui.SDL_core.obj
 0001:00003fb8       ?ref_add@RMultiImage@stdlib@lib2d@modules@UModSys@@UEBAXXZ 0000000180004fb8 f i umodsys_lib_lib2d:umodsys.mod.2d.stdlib.obj
 0001:00003fb8       ?ref_add@RDialog@frames@ui@modules@UModSys@@UEBAXXZ 0000000180004fb8 f i umodsys_lib_libui:umodsys.mod.ui.frames.obj
 0001:00003fb8       ?ref_add@RMouseController@SDL_core@ui@modules@UModSys@@UEBAXXZ 0000000180004fb8 f i umodsys_lib_libui:umodsys.mod.ui.SDL_core.obj
 0001:00003fb8       ?ref_add@RGenerator@serialize_json@media@modules@UModSys@@UEBAXXZ 0000000180004fb8 f i umodsys_lib_libmedia:umodsys.mod.media.serialize_json.obj
 0001:00003fb8       ?ref_add@RImage_Memory@stdlib@lib2d@modules@UModSys@@UEBAXXZ 0000000180004fb8 f i umodsys_lib_lib2d:umodsys.mod.2d.stdlib.obj
 0001:00003fb8       ?ref_add@RSerializeReader@serialize_json@media@modules@UModSys@@UEBAXXZ 0000000180004fb8 f i umodsys_lib_libmedia:umodsys.mod.media.serialize_json.obj
 0001:00003fb8       ?ref_add@RMultiImage2D_SDL_ttf@SDL_core@ui@modules@UModSys@@UEBAXXZ 0000000180004fb8 f i umodsys_lib_libui:umodsys.mod.ui.SDL_core.obj
 0001:00003fb8       ?ref_add@RBinArchiveFrameClient_ZIP@zlib@media@modules@UModSys@@UEBAXXZ 0000000180004fb8 f i umodsys_lib_libmedia:umodsys.mod.media.zlib.obj
 0001:00003fb8       ?ref_add@RGenerator@test1@test@modules@UModSys@@UEBAXXZ 0000000180004fb8 f i plugin_test1.obj
 0001:00003fb8       ?ref_add@RGenerator@frames@ui@modules@UModSys@@UEBAXXZ 0000000180004fb8 f i umodsys_lib_libui:umodsys.mod.ui.frames.obj
 0001:00003fb8       ?ref_add@RGenerator@images_std@media@modules@UModSys@@UEBAXXZ 0000000180004fb8 f i umodsys_lib_libmedia:umodsys.mod.media.images_std.obj
 0001:00003fb8       ?ref_add@RGenerator@zlib@media@modules@UModSys@@UEBAXXZ 0000000180004fb8 f i umodsys_lib_libmedia:umodsys.mod.media.zlib.obj
 0001:00003fb8       ?ref_add@RGenerator@SDL_core@ui@modules@UModSys@@UEBAXXZ 0000000180004fb8 f i umodsys_lib_libui:umodsys.mod.ui.SDL_core.obj
 0001:00003fb8       ?ref_add@RKeyboardController@SDL_core@ui@modules@UModSys@@UEBAXXZ 0000000180004fb8 f i umodsys_lib_libui:umodsys.mod.ui.SDL_core.obj
 0001:00003fb8       ?ref_add@RGenerator@stdlib@lib2d@modules@UModSys@@UEBAXXZ 0000000180004fb8 f i umodsys_lib_lib2d:umodsys.mod.2d.stdlib.obj
 0001:00003fb8       ?ref_add@RRenderDriver2D@SDL_core@ui@modules@UModSys@@UEBAXXZ 0000000180004fb8 f i umodsys_lib_libui:umodsys.mod.ui.SDL_core.obj
 0001:00003fb8       ?ref_add@RImageFactory_Memory@stdlib@lib2d@modules@UModSys@@UEBAXXZ 0000000180004fb8 f i umodsys_lib_lib2d:umodsys.mod.2d.stdlib.obj
 0001:00003fbc       ??0RMultiImage2D_SDL_ttf@SDL_core@ui@modules@UModSys@@QEAA@PEAURRenderDriver2D@1234@AEBUSParameters@core@4@@Z 0000000180004fbc f i umodsys_lib_libui:umodsys.mod.ui.SDL_core.obj
 0001:00004100       ?generate_glyphs@RMultiImage2D_SDL_ttf@SDL_core@ui@modules@UModSys@@QEAA_NXZ 0000000180005100 f i umodsys_lib_libui:umodsys.mod.ui.SDL_core.obj
 0001:000042dc       ??_ERMultiImage2D_SDL_ttf@SDL_core@ui@modules@UModSys@@UEAAPEAXI@Z 00000001800052dc f i  CIL library: CIL module
 0001:000042dc       ??_GRMultiImage2D_SDL_ttf@SDL_core@ui@modules@UModSys@@UEAAPEAXI@Z 00000001800052dc f i umodsys_lib_libui:umodsys.mod.ui.SDL_core.obj
 0001:000043a0       ?root_get_interface_info@RRenderDriver2D@SDL_core@ui@modules@UModSys@@UEBAAEBUSUniquePointerInfo@core@5@XZ 00000001800053a0 f i umodsys_lib_libui:umodsys.mod.ui.SDL_core.obj
 0001:000043a8       ?root_get_interface_type@RRenderDriver2D@SDL_core@ui@modules@UModSys@@UEBAPEBUSUniquePointerInfo@core@5@XZ 00000001800053a8 f i umodsys_lib_libui:umodsys.mod.ui.SDL_core.obj
 0001:000043b0       ?root_get_other_interface@RRenderDriver2D@SDL_core@ui@modules@UModSys@@UEBAPEBUIRoot@core@5@PEBUSUniquePointerInfo@75@@Z 00000001800053b0 f i umodsys_lib_libui:umodsys.mod.ui.SDL_core.obj
 0001:000043b0       ?root_get_other_interface@RRenderDriver2D@SDL_core@ui@modules@UModSys@@UEAAPEAUIRoot@core@5@PEBUSUniquePointerInfo@75@@Z 00000001800053b0 f i umodsys_lib_libui:umodsys.mod.ui.SDL_core.obj
 0001:000043e0       ?root_is_interface_supported@RRenderDriver2D@SDL_core@ui@modules@UModSys@@UEBA_NPEBUSUniquePointerInfo@core@5@@Z 00000001800053e0 f i umodsys_lib_libui:umodsys.mod.ui.SDL_core.obj
 0001:00004410       ??0RRenderDriver2D@SDL_core@ui@modules@UModSys@@QEAA@PEAURTerminal@1234@AEBUSParameters@core@4@@Z 0000000180005410 f i umodsys_lib_libui:umodsys.mod.ui.SDL_core.obj
 0001:00004570       ?open@RRenderDriver2D@SDL_core@ui@modules@UModSys@@QEAA_NAEBUSParameters@core@5@@Z 0000000180005570 f i umodsys_lib_libui:umodsys.mod.ui.SDL_core.obj
 0001:00004784       ?set_color@RRenderDriver2D@SDL_core@ui@modules@UModSys@@QEAAXXZ 0000000180005784 f i umodsys_lib_libui:umodsys.mod.ui.SDL_core.obj
 0001:000047f8       ?begin@RRenderDriver2D@SDL_core@ui@modules@UModSys@@UEAAXXZ 00000001800057f8 f i umodsys_lib_libui:umodsys.mod.ui.SDL_core.obj
 0001:00004864       ?end@RRenderDriver2D@SDL_core@ui@modules@UModSys@@UEAAXXZ 0000000180005864 f i umodsys_lib_libui:umodsys.mod.ui.SDL_core.obj
 0001:0000487c       ?get_max_values@RRenderDriver2D@SDL_core@ui@modules@UModSys@@UEBAPEBUSParameters@core@5@XZ 000000018000587c f i umodsys_lib_libui:umodsys.mod.ui.SDL_core.obj
 0001:00004884       ?get_frame_values@RRenderDriver2D@SDL_core@ui@modules@UModSys@@UEBAPEBUSParameters@core@5@XZ 0000000180005884 f i umodsys_lib_libui:umodsys.mod.ui.SDL_core.obj
 0001:0000488c       ?setup_font@RRenderDriver2D@SDL_core@ui@modules@UModSys@@UEAA_NPEAUIMultiImage@lib2d@5@PEBU?$TVector2@M@math3d@5@@Z 000000018000588c f i umodsys_lib_libui:umodsys.mod.ui.SDL_core.obj
 0001:00004950       ?setup_color@RRenderDriver2D@SDL_core@ui@modules@UModSys@@UEAAXAEBU?$TVector3@M@math3d@5@@Z 0000000180005950 f i umodsys_lib_libui:umodsys.mod.ui.SDL_core.obj
 0001:00004978       ?setup_color@RRenderDriver2D@SDL_core@ui@modules@UModSys@@UEAAXAEBU?$TVector3@H@math3d@5@@Z 0000000180005978 f i umodsys_lib_libui:umodsys.mod.ui.SDL_core.obj
 0001:000049c8       ?setup_coloralpha@RRenderDriver2D@SDL_core@ui@modules@UModSys@@UEAAXAEBU?$TVector4@M@math3d@5@H@Z 00000001800059c8 f i umodsys_lib_libui:umodsys.mod.ui.SDL_core.obj
 0001:000049ec       ?setup_coloralpha@RRenderDriver2D@SDL_core@ui@modules@UModSys@@UEAAXAEBU?$TVector4@H@math3d@5@H@Z 00000001800059ec f i umodsys_lib_libui:umodsys.mod.ui.SDL_core.obj
 0001:00004a50       ?setup_blendcolor@RRenderDriver2D@SDL_core@ui@modules@UModSys@@UEAAXAEBUSBlendColor@lib2d@5@@Z 0000000180005a50 f i umodsys_lib_libui:umodsys.mod.ui.SDL_core.obj
 0001:00004ab8       ?setup_blendcolor@RRenderDriver2D@SDL_core@ui@modules@UModSys@@UEAAXAEBUSBlendColorf@lib2d@5@@Z 0000000180005ab8 f i umodsys_lib_libui:umodsys.mod.ui.SDL_core.obj
 0001:00004af8       ?setup_alpha@RRenderDriver2D@SDL_core@ui@modules@UModSys@@UEAAXHH@Z 0000000180005af8 f i umodsys_lib_libui:umodsys.mod.ui.SDL_core.obj
 0001:00004b28       ?setup_alpha@RRenderDriver2D@SDL_core@ui@modules@UModSys@@UEAAXMH@Z 0000000180005b28 f i umodsys_lib_libui:umodsys.mod.ui.SDL_core.obj
 0001:00004b48       ?render_text_advanced@RRenderDriver2D@SDL_core@ui@modules@UModSys@@UEAA_NAEAUTextInfo@IRenderDriver@lib2d@5@PEBHH@Z 0000000180005b48 f i umodsys_lib_libui:umodsys.mod.ui.SDL_core.obj
 0001:00004d2c       ?render_box@RRenderDriver2D@SDL_core@ui@modules@UModSys@@UEAAXAEBU?$TVector2@H@math3d@5@0@Z 0000000180005d2c f i umodsys_lib_libui:umodsys.mod.ui.SDL_core.obj
 0001:00004d6c       ?render_tri@RRenderDriver2D@SDL_core@ui@modules@UModSys@@UEAAXAEBU?$TVector2@H@math3d@5@00@Z 0000000180005d6c f i umodsys_lib_libui:umodsys.mod.ui.SDL_core.obj
 0001:00004de4       ?render_quad@RRenderDriver2D@SDL_core@ui@modules@UModSys@@UEAAXAEBU?$TVector2@H@math3d@5@000@Z 0000000180005de4 f i umodsys_lib_libui:umodsys.mod.ui.SDL_core.obj
 0001:00004e8c       ??3@YAXPEAX0@Z             0000000180005e8c f i plugin_test1.obj
 0001:00004e8c       ?suicide@RGenerator@serialize_json@media@modules@UModSys@@UEAAXXZ 0000000180005e8c f i umodsys_lib_libmedia:umodsys.mod.media.serialize_json.obj
 0001:00004e8c       ?suicide@RGenerator@stdlib@lib2d@modules@UModSys@@UEAAXXZ 0000000180005e8c f i umodsys_lib_lib2d:umodsys.mod.2d.stdlib.obj
 0001:00004e8c       ?suicide@RGenerator@zlib@media@modules@UModSys@@UEAAXXZ 0000000180005e8c f i umodsys_lib_libmedia:umodsys.mod.media.zlib.obj
 0001:00004e8c       ?suicide@RGenerator@images_std@media@modules@UModSys@@UEAAXXZ 0000000180005e8c f i umodsys_lib_libmedia:umodsys.mod.media.images_std.obj
 0001:00004e8c       ?suicide@RGenerator@frames@ui@modules@UModSys@@UEAAXXZ 0000000180005e8c f i umodsys_lib_libui:umodsys.mod.ui.frames.obj
 0001:00004e8c       ?render_box@RRenderDriver2D@SDL_core@ui@modules@UModSys@@UEAAXPEAUIImage@lib2d@5@AEBU?$TVector2@H@math3d@5@1AEBU?$TVector2@M@95@2@Z 0000000180005e8c f i umodsys_lib_libui:umodsys.mod.ui.SDL_core.obj
 0001:00004e8c       ?suicide@RGenerator@test1@test@modules@UModSys@@UEAAXXZ 0000000180005e8c f i plugin_test1.obj
 0001:00004e8c       ?suicide@RGenerator@SDL_core@ui@modules@UModSys@@UEAAXXZ 0000000180005e8c f i umodsys_lib_libui:umodsys.mod.ui.SDL_core.obj
 0001:00004e90       ?render_line@RRenderDriver2D@SDL_core@ui@modules@UModSys@@UEAAXAEBU?$TVector2@H@math3d@5@0@Z 0000000180005e90 f i umodsys_lib_libui:umodsys.mod.ui.SDL_core.obj
 0001:00004eb8       ?render_rect@RRenderDriver2D@SDL_core@ui@modules@UModSys@@UEAAXAEBU?$TVector2@H@math3d@5@0@Z 0000000180005eb8 f i umodsys_lib_libui:umodsys.mod.ui.SDL_core.obj
 0001:00004ef8       ??_ERRenderDriver2D@SDL_core@ui@modules@UModSys@@UEAAPEAXI@Z 0000000180005ef8 f i  CIL library: CIL module
 0001:00004ef8       ??_GRRenderDriver2D@SDL_core@ui@modules@UModSys@@UEAAPEAXI@Z 0000000180005ef8 f i umodsys_lib_libui:umodsys.mod.ui.SDL_core.obj
 0001:00004fdc       ?root_get_interface_info@RMouseController@SDL_core@ui@modules@UModSys@@UEBAAEBUSUniquePointerInfo@core@5@XZ 0000000180005fdc f i umodsys_lib_libui:umodsys.mod.ui.SDL_core.obj
 0001:00004fe4       ?root_get_interface_type@RMouseController@SDL_core@ui@modules@UModSys@@UEBAPEBUSUniquePointerInfo@core@5@XZ 0000000180005fe4 f i umodsys_lib_libui:umodsys.mod.ui.SDL_core.obj
 0001:00004fec       ?root_get_other_interface@RMouseController@SDL_core@ui@modules@UModSys@@UEBAPEBUIRoot@core@5@PEBUSUniquePointerInfo@75@@Z 0000000180005fec f i umodsys_lib_libui:umodsys.mod.ui.SDL_core.obj
 0001:00004fec       ?root_get_other_interface@RMouseController@SDL_core@ui@modules@UModSys@@UEAAPEAUIRoot@core@5@PEBUSUniquePointerInfo@75@@Z 0000000180005fec f i umodsys_lib_libui:umodsys.mod.ui.SDL_core.obj
 0001:0000501c       ?root_is_interface_supported@RMouseController@SDL_core@ui@modules@UModSys@@UEBA_NPEBUSUniquePointerInfo@core@5@@Z 000000018000601c f i umodsys_lib_libui:umodsys.mod.ui.SDL_core.obj
 0001:0000504c       ?process@RMouseController@SDL_core@ui@modules@UModSys@@QEAA_NAEAUSDL_MouseMotionEvent@@@Z 000000018000604c f i umodsys_lib_libui:umodsys.mod.ui.SDL_core.obj
 0001:000051b8       ?process@RMouseController@SDL_core@ui@modules@UModSys@@QEAA_NAEAUSDL_MouseButtonEvent@@@Z 00000001800061b8 f i umodsys_lib_libui:umodsys.mod.ui.SDL_core.obj
 0001:000052e4       ?process@RMouseController@SDL_core@ui@modules@UModSys@@QEAA_NAEAUSDL_MouseWheelEvent@@@Z 00000001800062e4 f i umodsys_lib_libui:umodsys.mod.ui.SDL_core.obj
 0001:000053d4       ?mouse_unlink@RMouseController@SDL_core@ui@modules@UModSys@@UEAA_NH@Z 00000001800063d4 f i umodsys_lib_libui:umodsys.mod.ui.SDL_core.obj
 0001:000053d4       ?key_unlink@RKeyboardController@SDL_core@ui@modules@UModSys@@UEAA_NH@Z 00000001800063d4 f i umodsys_lib_libui:umodsys.mod.ui.SDL_core.obj
 0001:0000542c       ?mouse_link@RMouseController@SDL_core@ui@modules@UModSys@@UEAA_NHPEAUIRefObject@core@5@PEAUIMouseClient@libui@5@H@Z 000000018000642c f i umodsys_lib_libui:umodsys.mod.ui.SDL_core.obj
 0001:0000554c       ??_ERMouseController@SDL_core@ui@modules@UModSys@@UEAAPEAXI@Z 000000018000654c f i  CIL library: CIL module
 0001:0000554c       ??_GRMouseController@SDL_core@ui@modules@UModSys@@UEAAPEAXI@Z 000000018000654c f i umodsys_lib_libui:umodsys.mod.ui.SDL_core.obj
 0001:000055b0       ?root_get_interface_info@RKeyboardController@SDL_core@ui@modules@UModSys@@UEBAAEBUSUniquePointerInfo@core@5@XZ 00000001800065b0 f i umodsys_lib_libui:umodsys.mod.ui.SDL_core.obj
 0001:000055b8       ?root_get_interface_type@RKeyboardController@SDL_core@ui@modules@UModSys@@UEBAPEBUSUniquePointerInfo@core@5@XZ 00000001800065b8 f i umodsys_lib_libui:umodsys.mod.ui.SDL_core.obj
 0001:000055c0       ?root_get_other_interface@RKeyboardController@SDL_core@ui@modules@UModSys@@UEAAPEAUIRoot@core@5@PEBUSUniquePointerInfo@75@@Z 00000001800065c0 f i umodsys_lib_libui:umodsys.mod.ui.SDL_core.obj
 0001:000055c0       ?root_get_other_interface@RKeyboardController@SDL_core@ui@modules@UModSys@@UEBAPEBUIRoot@core@5@PEBUSUniquePointerInfo@75@@Z 00000001800065c0 f i umodsys_lib_libui:umodsys.mod.ui.SDL_core.obj
 0001:000055f0       ?root_is_interface_supported@RKeyboardController@SDL_core@ui@modules@UModSys@@UEBA_NPEBUSUniquePointerInfo@core@5@@Z 00000001800065f0 f i umodsys_lib_libui:umodsys.mod.ui.SDL_core.obj
 0001:00005620       ?suicide@RRenderDriver2D@SDL_core@ui@modules@UModSys@@UEAAXXZ 0000000180006620 f i umodsys_lib_libui:umodsys.mod.ui.SDL_core.obj
 0001:00005620       ?suicide@RMouseController@SDL_core@ui@modules@UModSys@@UEAAXXZ 0000000180006620 f i umodsys_lib_libui:umodsys.mod.ui.SDL_core.obj
 0001:00005620       ?suicide@RMultiImage2D_SDL_ttf@SDL_core@ui@modules@UModSys@@UEAAXXZ 0000000180006620 f i umodsys_lib_libui:umodsys.mod.ui.SDL_core.obj
 0001:00005620       ?suicide@RKeyboardController@SDL_core@ui@modules@UModSys@@UEAAXXZ 0000000180006620 f i umodsys_lib_libui:umodsys.mod.ui.SDL_core.obj
 0001:00005620       ?suicide@RDialog@frames@ui@modules@UModSys@@UEAAXXZ 0000000180006620 f i umodsys_lib_libui:umodsys.mod.ui.frames.obj
 0001:00005664       ?process@RKeyboardController@SDL_core@ui@modules@UModSys@@QEAA_NAEAUSDL_KeyboardEvent@@@Z 0000000180006664 f i umodsys_lib_libui:umodsys.mod.ui.SDL_core.obj
 0001:000057e0       ?map_keycode@RKeyboardController@SDL_core@ui@modules@UModSys@@QEAA?AW4eKeyCode@libui@5@H@Z 00000001800067e0 f i umodsys_lib_libui:umodsys.mod.ui.SDL_core.obj
 0001:00005d08       ?key_link@RKeyboardController@SDL_core@ui@modules@UModSys@@UEAA_NHPEAUIRefObject@core@5@PEAUIKeyboardClient@libui@5@@Z 0000000180006d08 f i umodsys_lib_libui:umodsys.mod.ui.SDL_core.obj
 0001:00005e14       ?key_setvisible@RKeyboardController@SDL_core@ui@modules@UModSys@@UEAA_N_N@Z 0000000180006e14 f i umodsys_lib_libui:umodsys.mod.ui.SDL_core.obj
 0001:00005e30       ??_GRKeyboardController@SDL_core@ui@modules@UModSys@@UEAAPEAXI@Z 0000000180006e30 f i umodsys_lib_libui:umodsys.mod.ui.SDL_core.obj
 0001:00005e30       ??_ERKeyboardController@SDL_core@ui@modules@UModSys@@UEAAPEAXI@Z 0000000180006e30 f i  CIL library: CIL module
 0001:00005e94       ?root_get_interface_info@RTerminal@SDL_core@ui@modules@UModSys@@UEBAAEBUSUniquePointerInfo@core@5@XZ 0000000180006e94 f i umodsys_lib_libui:umodsys.mod.ui.SDL_core.obj
 0001:00005e9c       ?root_get_interface_type@RTerminal@SDL_core@ui@modules@UModSys@@UEBAPEBUSUniquePointerInfo@core@5@XZ 0000000180006e9c f i umodsys_lib_libui:umodsys.mod.ui.SDL_core.obj
 0001:00005ea4       ?root_get_other_interface@RTerminal@SDL_core@ui@modules@UModSys@@UEAAPEAUIRoot@core@5@PEBUSUniquePointerInfo@75@@Z 0000000180006ea4 f i umodsys_lib_libui:umodsys.mod.ui.SDL_core.obj
 0001:00005ea4       ?root_get_other_interface@RTerminal@SDL_core@ui@modules@UModSys@@UEBAPEBUIRoot@core@5@PEBUSUniquePointerInfo@75@@Z 0000000180006ea4 f i umodsys_lib_libui:umodsys.mod.ui.SDL_core.obj
 0001:00005ed4       ?root_is_interface_supported@RTerminal@SDL_core@ui@modules@UModSys@@UEBA_NPEBUSUniquePointerInfo@core@5@@Z 0000000180006ed4 f i umodsys_lib_libui:umodsys.mod.ui.SDL_core.obj
 0001:00005f04       ?poll_events@RTerminal@SDL_core@ui@modules@UModSys@@UEAA_NH@Z 0000000180006f04 f i umodsys_lib_libui:umodsys.mod.ui.SDL_core.obj
 0001:000060fc       ?get_terminal_state@RTerminal@SDL_core@ui@modules@UModSys@@UEAA_NW4eTerminalState@libui@5@@Z 00000001800070fc f i umodsys_lib_libui:umodsys.mod.ui.SDL_core.obj
 0001:00006108       ?set_terminal_state@RTerminal@SDL_core@ui@modules@UModSys@@UEAA_NW4eTerminalState@libui@5@_N@Z 0000000180007108 f i umodsys_lib_libui:umodsys.mod.ui.SDL_core.obj
 0001:0000622c       ?get_clock@RTerminal@SDL_core@ui@modules@UModSys@@UEAANXZ 000000018000722c f i umodsys_lib_libui:umodsys.mod.ui.SDL_core.obj
 0001:00006248       ?wait@RTerminal@SDL_core@ui@modules@UModSys@@UEAA_NM@Z 0000000180007248 f i umodsys_lib_libui:umodsys.mod.ui.SDL_core.obj
 0001:00006268       ?get_count@RTerminal@SDL_core@ui@modules@UModSys@@UEBA_KPEBUSUniquePointerInfo@core@5@@Z 0000000180007268 f i umodsys_lib_libui:umodsys.mod.ui.SDL_core.obj
 0001:000062fc       ?get_handler@RTerminal@SDL_core@ui@modules@UModSys@@UEBAPEAUIRefObject@core@5@PEBUSUniquePointerInfo@75@_K@Z 00000001800072fc f i umodsys_lib_libui:umodsys.mod.ui.SDL_core.obj
 0001:0000639c       ?create_handler@RTerminal@SDL_core@ui@modules@UModSys@@UEAA_NPEBUSUniquePointerInfo@core@5@AEAU?$TRefObject@UIRefObject@core@UModSys@@U?$TRefObjectFunc@UIRefObject@core@UModSys@@@tl@3@@tl@5@PEBDPEBUSParameters@75@@Z 000000018000739c f i umodsys_lib_libui:umodsys.mod.ui.SDL_core.obj
 0001:00006784       ??_ERTerminal@SDL_core@ui@modules@UModSys@@UEAAPEAXI@Z 0000000180007784 f i  CIL library: CIL module
 0001:00006784       ??_GRTerminal@SDL_core@ui@modules@UModSys@@UEAAPEAXI@Z 0000000180007784 f i umodsys_lib_libui:umodsys.mod.ui.SDL_core.obj
 0001:00006854       ?get_terminal@RRenderDriver2D@SDL_core@ui@modules@UModSys@@UEBAPEAUITerminal@libui@5@XZ 0000000180007854 f   umodsys_lib_libui:umodsys.mod.ui.SDL_core.obj
 0001:0000685c       ?new_font@RRenderDriver2D@SDL_core@ui@modules@UModSys@@UEAA?AU?$TRefObject@UIMultiImage@lib2d@UModSys@@U?$TRefObjectFunc@UIMultiImage@lib2d@UModSys@@@tl@3@@tl@5@AEBUSParameters@core@5@AEBU?$TString@U?$TSCoreConst@D@su@tl@UModSys@@U?$TComparerBinaryHash@D@234@@75@@Z 000000018000785c f   umodsys_lib_libui:umodsys.mod.ui.SDL_core.obj
 0001:00006964       ?get_generated_names@RGenerator@SDL_core@ui@modules@UModSys@@UEBAHAEAUSUniquePtrList@core@5@@Z 0000000180007964 f i umodsys_lib_libui:umodsys.mod.ui.SDL_core.obj
 0001:00006984       ?get_generated_types@RGenerator@SDL_core@ui@modules@UModSys@@UEBAHAEAUSUniquePtrList@core@5@PEBUSUniquePointerInfo@75@@Z 0000000180007984 f i umodsys_lib_libui:umodsys.mod.ui.SDL_core.obj
 0001:000069dc       ?generate@RGenerator@SDL_core@ui@modules@UModSys@@UEAA_NAEAU?$TRefObject@UIRefObject@core@UModSys@@U?$TRefObjectFunc@UIRefObject@core@UModSys@@@tl@3@@tl@5@PEBUSUniquePointerInfo@core@5@AEBUSParameters@95@@Z 00000001800079dc f i umodsys_lib_libui:umodsys.mod.ui.SDL_core.obj
 0001:00006b20       ?root_get_interface_info@RGenerator@SDL_core@ui@modules@UModSys@@UEBAAEBUSUniquePointerInfo@core@5@XZ 0000000180007b20 f i umodsys_lib_libui:umodsys.mod.ui.SDL_core.obj
 0001:00006b28       ?root_get_interface_type@RGenerator@SDL_core@ui@modules@UModSys@@UEBAPEBUSUniquePointerInfo@core@5@XZ 0000000180007b28 f i umodsys_lib_libui:umodsys.mod.ui.SDL_core.obj
 0001:00006b30       ?root_get_other_interface@RGenerator@SDL_core@ui@modules@UModSys@@UEAAPEAUIRoot@core@5@PEBUSUniquePointerInfo@75@@Z 0000000180007b30 f i umodsys_lib_libui:umodsys.mod.ui.SDL_core.obj
 0001:00006b30       ?root_get_other_interface@RGenerator@SDL_core@ui@modules@UModSys@@UEBAPEBUIRoot@core@5@PEBUSUniquePointerInfo@75@@Z 0000000180007b30 f i umodsys_lib_libui:umodsys.mod.ui.SDL_core.obj
 0001:00006b68       ?root_is_interface_supported@RGenerator@SDL_core@ui@modules@UModSys@@UEBA_NPEBUSUniquePointerInfo@core@5@@Z 0000000180007b68 f i umodsys_lib_libui:umodsys.mod.ui.SDL_core.obj
 0001:00006ba0       ?get_uid@RGenerator@SDL_core@ui@modules@UModSys@@UEBAPEBUSUniquePointerInfo@core@5@XZ 0000000180007ba0 f i umodsys_lib_libui:umodsys.mod.ui.SDL_core.obj
 0001:00006ba8       ?do_open@RModuleReg@SDL_core@ui@modules@UModSys@@UEAA_NXZ 0000000180007ba8 f i umodsys_lib_libui:umodsys.mod.ui.SDL_core.obj
 0001:00006c1c       ?do_close@RModuleReg@SDL_core@ui@modules@UModSys@@UEAA_NXZ 0000000180007c1c f i umodsys_lib_libui:umodsys.mod.ui.SDL_core.obj
 0001:00006c6c       ?get_module@RGenerator@SDL_core@ui@modules@UModSys@@UEBAPEAUIModule@base@5@XZ 0000000180007c6c f   umodsys_lib_libui:umodsys.mod.ui.SDL_core.obj
 0001:00006c74       ?mod_inc@RGenerator@SDL_core@ui@modules@UModSys@@UEBA_NXZ 0000000180007c74 f   umodsys_lib_libui:umodsys.mod.ui.SDL_core.obj
 0001:00006c88       ?mod_dec@RGenerator@SDL_core@ui@modules@UModSys@@UEBA_NXZ 0000000180007c88 f   umodsys_lib_libui:umodsys.mod.ui.SDL_core.obj
 0001:00006c9c       ?s_holder@RGenerator@SDL_core@ui@modules@UModSys@@SAAEAU?$TTypeStaticHolder@URGenerator@SDL_core@ui@modules@UModSys@@@tl@5@XZ 0000000180007c9c f   umodsys_lib_libui:umodsys.mod.ui.SDL_core.obj
 0001:00006ce0       ??1?$TScatterArray@UGlyph@RMultiImage2D_SDL_ttf@SDL_core@ui@modules@UModSys@@HU?$TScalarCompare@H@core@6@U?$TNodeDeleter0@U?$TScatterArrayNode@UGlyph@RMultiImage2D_SDL_ttf@SDL_core@ui@modules@UModSys@@H@tl@UModSys@@@tl@6@@tl@UModSys@@QEAA@XZ 0000000180007ce0 f i umodsys_lib_libui:umodsys.mod.ui.SDL_core.obj
 0001:00006d5c       ??1?$TRefObject@URMultiImage2D_SDL_ttf@SDL_core@ui@modules@UModSys@@U?$TRefObjectWeakFunc@URMultiImage2D_SDL_ttf@SDL_core@ui@modules@UModSys@@@tl@5@@tl@UModSys@@QEAA@XZ 0000000180007d5c f i umodsys_lib_libui:umodsys.mod.ui.SDL_core.obj
 0001:00006d5c       ??1?$TRefObject@URRenderDriver2D@SDL_core@ui@modules@UModSys@@U?$TRefObjectWeakFunc@URRenderDriver2D@SDL_core@ui@modules@UModSys@@@tl@5@@tl@UModSys@@QEAA@XZ 0000000180007d5c f i umodsys_lib_libui:umodsys.mod.ui.SDL_core.obj
 0001:00006d90       ??1?$TRefObject@UIUtilities@libmedia@UModSys@@U?$TRefObjectFunc@UIUtilities@libmedia@UModSys@@@tl@3@@tl@UModSys@@QEAA@XZ 0000000180007d90 f i plugin_test1.obj
 0001:00006d90       ??1?$TRefObject@URFrame_Common@frames@ui@modules@UModSys@@U?$TRefObjectFunc@URFrame_Common@frames@ui@modules@UModSys@@@tl@5@@tl@UModSys@@QEAA@XZ 0000000180007d90 f i umodsys_lib_libui:umodsys.mod.ui.frames.obj
 0001:00006d90       ??1?$TRefObject@URKeyboardController@SDL_core@ui@modules@UModSys@@U?$TRefObjectFunc@URKeyboardController@SDL_core@ui@modules@UModSys@@@tl@5@@tl@UModSys@@QEAA@XZ 0000000180007d90 f i umodsys_lib_libui:umodsys.mod.ui.SDL_core.obj
 0001:00006d90       ??1?$TRefObject@URDialog@frames@ui@modules@UModSys@@U?$TRefObjectFunc@URDialog@frames@ui@modules@UModSys@@@tl@5@@tl@UModSys@@QEAA@XZ 0000000180007d90 f i umodsys_lib_libui:umodsys.mod.ui.frames.obj
 0001:00006d90       ??1?$TRefObject@URMultiImage@stdlib@lib2d@modules@UModSys@@U?$TRefObjectFunc@URMultiImage@stdlib@lib2d@modules@UModSys@@@tl@5@@tl@UModSys@@QEAA@XZ 0000000180007d90 f i umodsys_lib_lib2d:umodsys.mod.2d.stdlib.obj
 0001:00006d90       ??1?$TRefObject@URImage_Memory@stdlib@lib2d@modules@UModSys@@U?$TRefObjectFunc@URImage_Memory@stdlib@lib2d@modules@UModSys@@@tl@5@@tl@UModSys@@QEAA@XZ 0000000180007d90 f i umodsys_lib_lib2d:umodsys.mod.2d.stdlib.obj
 0001:00006d90       ??1?$TRefObject@UICollector@libui@UModSys@@U?$TRefObjectFunc@UICollector@libui@UModSys@@@tl@3@@tl@UModSys@@QEAA@XZ 0000000180007d90 f i plugin_test1.obj
 0001:00006d90       ??1?$TRefObject@URSerializeWriter@serialize_json@media@modules@UModSys@@U?$TRefObjectFunc@URSerializeWriter@serialize_json@media@modules@UModSys@@@tl@5@@tl@UModSys@@QEAA@XZ 0000000180007d90 f i umodsys_lib_libmedia:umodsys.mod.media.serialize_json.obj
 0001:00006d90       ??1?$TRefObject@UITerminal@libui@UModSys@@U?$TRefObjectFunc@UITerminal@libui@UModSys@@@tl@3@@tl@UModSys@@QEAA@XZ 0000000180007d90 f i plugin_test1.obj
 0001:00006d90       ??1?$TRefObject@URBinArchiveFrameClient_ZIP@zlib@media@modules@UModSys@@U?$TRefObjectFunc@URBinArchiveFrameClient_ZIP@zlib@media@modules@UModSys@@@tl@5@@tl@UModSys@@QEAA@XZ 0000000180007d90 f i umodsys_lib_libmedia:umodsys.mod.media.zlib.obj
 0001:00006d90       ??1?$TRefObject@URImageFactory_Memory@stdlib@lib2d@modules@UModSys@@U?$TRefObjectFunc@URImageFactory_Memory@stdlib@lib2d@modules@UModSys@@@tl@5@@tl@UModSys@@QEAA@XZ 0000000180007d90 f i umodsys_lib_lib2d:umodsys.mod.2d.stdlib.obj
 0001:00006d90       ??1?$TRefObject@URRenderDriver2D@SDL_core@ui@modules@UModSys@@U?$TRefObjectFunc@URRenderDriver2D@SDL_core@ui@modules@UModSys@@@tl@5@@tl@UModSys@@QEAA@XZ 0000000180007d90 f i umodsys_lib_libui:umodsys.mod.ui.SDL_core.obj
 0001:00006d90       ??1?$TRefObject@UIKeyboardController@libui@UModSys@@U?$TRefObjectFunc@UIKeyboardController@libui@UModSys@@@tl@3@@tl@UModSys@@QEAA@XZ 0000000180007d90 f i plugin_test1.obj
 0001:00006d90       ??1?$TRefObject@UIImageFactory@lib2d@UModSys@@U?$TRefObjectFunc@UIImageFactory@lib2d@UModSys@@@tl@3@@tl@UModSys@@QEAA@XZ 0000000180007d90 f i plugin_test1.obj
 0001:00006d90       ??1?$TRefObject@URCollector@frames@ui@modules@UModSys@@U?$TRefObjectFunc@URCollector@frames@ui@modules@UModSys@@@tl@5@@tl@UModSys@@QEAA@XZ 0000000180007d90 f i umodsys_lib_libui:umodsys.mod.ui.frames.obj
 0001:00006d90       ??1?$TRefObject@URMediaFilter@images_std@media@modules@UModSys@@U?$TRefObjectFunc@URMediaFilter@images_std@media@modules@UModSys@@@tl@5@@tl@UModSys@@QEAA@XZ 0000000180007d90 f i umodsys_lib_libmedia:umodsys.mod.media.images_std.obj
 0001:00006d90       ??1?$TRefObject@URMultiImage2D_SDL_ttf@SDL_core@ui@modules@UModSys@@U?$TRefObjectFunc@URMultiImage2D_SDL_ttf@SDL_core@ui@modules@UModSys@@@tl@5@@tl@UModSys@@QEAA@XZ 0000000180007d90 f i umodsys_lib_libui:umodsys.mod.ui.SDL_core.obj
 0001:00006d90       ??1?$TRefObject@UIRenderDriver@lib2d@UModSys@@U?$TRefObjectFunc@UIRenderDriver@lib2d@UModSys@@@tl@3@@tl@UModSys@@QEAA@XZ 0000000180007d90 f i plugin_test1.obj
 0001:00006d90       ??1?$TRefObject@UIStreamReader@libmedia@UModSys@@U?$TRefObjectFunc@UIStreamReader@libmedia@UModSys@@@tl@3@@tl@UModSys@@QEAA@XZ 0000000180007d90 f i plugin_test1.obj
 0001:00006d90       ??1?$TRefObject@UIImage@lib2d@UModSys@@U?$TRefObjectFunc@UIImage@lib2d@UModSys@@@tl@3@@tl@UModSys@@QEAA@XZ 0000000180007d90 f i plugin_test1.obj
 0001:00006d90       ??1?$TRefObject@URTerminal@SDL_core@ui@modules@UModSys@@U?$TRefObjectFunc@URTerminal@SDL_core@ui@modules@UModSys@@@tl@5@@tl@UModSys@@QEAA@XZ 0000000180007d90 f i umodsys_lib_libui:umodsys.mod.ui.SDL_core.obj
 0001:00006d90       ??1?$TRefObject@UIStreamWriter@libmedia@UModSys@@U?$TRefObjectFunc@UIStreamWriter@libmedia@UModSys@@@tl@3@@tl@UModSys@@QEAA@XZ 0000000180007d90 f i plugin_test1.obj
 0001:00006d90       ??1?$TRefObject@UIRefObject@core@UModSys@@U?$TRefObjectFunc@UIRefObject@core@UModSys@@@tl@3@@tl@UModSys@@QEAA@XZ 0000000180007d90 f i plugin_test1.obj
 0001:00006d90       ??1?$TRefObject@URMouseController@SDL_core@ui@modules@UModSys@@U?$TRefObjectFunc@URMouseController@SDL_core@ui@modules@UModSys@@@tl@5@@tl@UModSys@@QEAA@XZ 0000000180007d90 f i umodsys_lib_libui:umodsys.mod.ui.SDL_core.obj
 0001:00006d90       ??1?$TRefObject@UIMultiImage@lib2d@UModSys@@U?$TRefObjectFunc@UIMultiImage@lib2d@UModSys@@@tl@3@@tl@UModSys@@QEAA@XZ 0000000180007d90 f i plugin_test1.obj
 0001:00006d90       ??1?$TRefObject@UIMouseController@libui@UModSys@@U?$TRefObjectFunc@UIMouseController@libui@UModSys@@@tl@3@@tl@UModSys@@QEAA@XZ 0000000180007d90 f i plugin_test1.obj
 0001:00006d90       ??1?$TRefObject@URSerializeReader@serialize_json@media@modules@UModSys@@U?$TRefObjectFunc@URSerializeReader@serialize_json@media@modules@UModSys@@@tl@5@@tl@UModSys@@QEAA@XZ 0000000180007d90 f i umodsys_lib_libmedia:umodsys.mod.media.serialize_json.obj
 0001:00006d90       ??1?$TRefObject@UIFrame@libui@UModSys@@U?$TRefObjectFunc@UIFrame@libui@UModSys@@@tl@3@@tl@UModSys@@QEAA@XZ 0000000180007d90 f i umodsys_lib_libui:umodsys.mod.ui.frames.obj
 0001:00006db4       ?delete_node@?$TTreeHoldRBD@U?$TScatterArrayNode@U?$TRefObjectComposite@UIKeyboardClient@libui@UModSys@@UIRefObject@core@3@U?$TRefObjectFunc@UIRefObject@core@UModSys@@@tl@3@@tl@UModSys@@H@tl@UModSys@@U?$TNodeDeleter0@U?$TScatterArrayNode@U?$TRefObjectComposite@UIKeyboardClient@libui@UModSys@@UIRefObject@core@3@U?$TRefObjectFunc@UIRefObject@core@UModSys@@@tl@3@@tl@UModSys@@H@tl@UModSys@@@23@@tl@UModSys@@QEAAXPEAU?$TScatterArrayNode@U?$TRefObjectComposite@UIKeyboardClient@libui@UModSys@@UIRefObject@core@3@U?$TRefObjectFunc@UIRefObject@core@UModSys@@@tl@3@@tl@UModSys@@H@23@@Z 0000000180007db4 f i umodsys_lib_libui:umodsys.mod.ui.SDL_core.obj
 0001:00006db4       ?delete_node@?$TTreeHoldRBD@U?$TScatterArrayNode@U?$TRefObjectCompositeExtra@UIMouseClient@libui@UModSys@@HUIRefObject@core@3@U?$TRefObjectFunc@UIRefObject@core@UModSys@@@tl@3@@tl@UModSys@@H@tl@UModSys@@U?$TNodeDeleter0@U?$TScatterArrayNode@U?$TRefObjectCompositeExtra@UIMouseClient@libui@UModSys@@HUIRefObject@core@3@U?$TRefObjectFunc@UIRefObject@core@UModSys@@@tl@3@@tl@UModSys@@H@tl@UModSys@@@23@@tl@UModSys@@QEAAXPEAU?$TScatterArrayNode@U?$TRefObjectCompositeExtra@UIMouseClient@libui@UModSys@@HUIRefObject@core@3@U?$TRefObjectFunc@UIRefObject@core@UModSys@@@tl@3@@tl@UModSys@@H@23@@Z 0000000180007db4 f i umodsys_lib_libui:umodsys.mod.ui.SDL_core.obj
 0001:00006f1c       ??_GRImageFactory_Memory@stdlib@lib2d@modules@UModSys@@UEAAPEAXI@Z 0000000180007f1c f i umodsys_lib_lib2d:umodsys.mod.2d.stdlib.obj
 0001:00006f1c       ??_GRGenerator@images_std@media@modules@UModSys@@UEAAPEAXI@Z 0000000180007f1c f i umodsys_lib_libmedia:umodsys.mod.media.images_std.obj
 0001:00006f1c       ??_GRGenerator@SDL_core@ui@modules@UModSys@@UEAAPEAXI@Z 0000000180007f1c f i umodsys_lib_libui:umodsys.mod.ui.SDL_core.obj
 0001:00006f1c       ??_GRGenerator@serialize_json@media@modules@UModSys@@UEAAPEAXI@Z 0000000180007f1c f i umodsys_lib_libmedia:umodsys.mod.media.serialize_json.obj
 0001:00006f1c       ??_ERGenerator@stdlib@lib2d@modules@UModSys@@UEAAPEAXI@Z 0000000180007f1c f i  CIL library: CIL module
 0001:00006f1c       ??_ERGenerator@test1@test@modules@UModSys@@UEAAPEAXI@Z 0000000180007f1c f i  CIL library: CIL module
 0001:00006f1c       ??_ERBinArchiveFrameClient_ZIP@zlib@media@modules@UModSys@@UEAAPEAXI@Z 0000000180007f1c f i  CIL library: CIL module
 0001:00006f1c       ??_ERGenerator@SDL_core@ui@modules@UModSys@@UEAAPEAXI@Z 0000000180007f1c f i  CIL library: CIL module
 0001:00006f1c       ??_GRBinArchiveFrameClient_ZIP@zlib@media@modules@UModSys@@UEAAPEAXI@Z 0000000180007f1c f i umodsys_lib_libmedia:umodsys.mod.media.zlib.obj
 0001:00006f1c       ??_GRGenerator@zlib@media@modules@UModSys@@UEAAPEAXI@Z 0000000180007f1c f i umodsys_lib_libmedia:umodsys.mod.media.zlib.obj
 0001:00006f1c       ??_EIRoot@core@UModSys@@UEAAPEAXI@Z 0000000180007f1c f i  CIL library: CIL module
 0001:00006f1c       ??_GRGenerator@test1@test@modules@UModSys@@UEAAPEAXI@Z 0000000180007f1c f i plugin_test1.obj
 0001:00006f1c       ??_GIRoot@core@UModSys@@UEAAPEAXI@Z 0000000180007f1c f i plugin_test1.obj
 0001:00006f1c       ??_ERGenerator@serialize_json@media@modules@UModSys@@UEAAPEAXI@Z 0000000180007f1c f i  CIL library: CIL module
 0001:00006f1c       ??_ERGenerator@images_std@media@modules@UModSys@@UEAAPEAXI@Z 0000000180007f1c f i  CIL library: CIL module
 0001:00006f1c       ??_ERGenerator@frames@ui@modules@UModSys@@UEAAPEAXI@Z 0000000180007f1c f i  CIL library: CIL module
 0001:00006f1c       ??_GRGenerator@frames@ui@modules@UModSys@@UEAAPEAXI@Z 0000000180007f1c f i umodsys_lib_libui:umodsys.mod.ui.frames.obj
 0001:00006f1c       ??_GRGenerator@stdlib@lib2d@modules@UModSys@@UEAAPEAXI@Z 0000000180007f1c f i umodsys_lib_lib2d:umodsys.mod.2d.stdlib.obj
 0001:00006f1c       ??_ERGenerator@zlib@media@modules@UModSys@@UEAAPEAXI@Z 0000000180007f1c f i  CIL library: CIL module
 0001:00006f1c       ??_ERImageFactory_Memory@stdlib@lib2d@modules@UModSys@@UEAAPEAXI@Z 0000000180007f1c f i  CIL library: CIL module
 0001:00006f44       ??1?$TPair@HU?$TRefObjectCompositeExtra@UIMouseClient@libui@UModSys@@HUIRefObject@core@3@U?$TRefObjectFunc@UIRefObject@core@UModSys@@@tl@3@@tl@UModSys@@@tl@UModSys@@QEAA@XZ 0000000180007f44 f i umodsys_lib_libui:umodsys.mod.ui.SDL_core.obj
 0001:00006f44       ??1?$TPair@HU?$TRefObjectComposite@UIKeyboardClient@libui@UModSys@@UIRefObject@core@3@U?$TRefObjectFunc@UIRefObject@core@UModSys@@@tl@3@@tl@UModSys@@@tl@UModSys@@QEAA@XZ 0000000180007f44 f i umodsys_lib_libui:umodsys.mod.ui.SDL_core.obj
 0001:00006f8c       ??1?$TRefObjectComposite@UIKeyboardClient@libui@UModSys@@UIRefObject@core@3@U?$TRefObjectFunc@UIRefObject@core@UModSys@@@tl@3@@tl@UModSys@@QEAA@XZ 0000000180007f8c f i umodsys_lib_libui:umodsys.mod.ui.SDL_core.obj
 0001:00006f8c       ??1?$TRefObjectCompositeExtra@UIMouseClient@libui@UModSys@@HUIRefObject@core@3@U?$TRefObjectFunc@UIRefObject@core@UModSys@@@tl@3@@tl@UModSys@@QEAA@XZ 0000000180007f8c f i umodsys_lib_libui:umodsys.mod.ui.SDL_core.obj
 0001:00006fd4       ?remove_color@?$TTreeHoldRB@U?$TScatterArrayNode@U?$TRefObjectCompositeExtra@UIMouseClient@libui@UModSys@@HUIRefObject@core@3@U?$TRefObjectFunc@UIRefObject@core@UModSys@@@tl@3@@tl@UModSys@@H@tl@UModSys@@@tl@UModSys@@IEAAXPEAU?$TScatterArrayNode@U?$TRefObjectCompositeExtra@UIMouseClient@libui@UModSys@@HUIRefObject@core@3@U?$TRefObjectFunc@UIRefObject@core@UModSys@@@tl@3@@tl@UModSys@@H@23@0@Z 0000000180007fd4 f i umodsys_lib_libui:umodsys.mod.ui.SDL_core.obj
 0001:00006fd4       ?remove_color@?$TTreeHoldRB@U?$TScatterArrayNode@U?$TRefObjectComposite@UIKeyboardClient@libui@UModSys@@UIRefObject@core@3@U?$TRefObjectFunc@UIRefObject@core@UModSys@@@tl@3@@tl@UModSys@@H@tl@UModSys@@@tl@UModSys@@IEAAXPEAU?$TScatterArrayNode@U?$TRefObjectComposite@UIKeyboardClient@libui@UModSys@@UIRefObject@core@3@U?$TRefObjectFunc@UIRefObject@core@UModSys@@@tl@3@@tl@UModSys@@H@23@0@Z 0000000180007fd4 f i umodsys_lib_libui:umodsys.mod.ui.SDL_core.obj
 0001:00007274       ??$t_add@U?$TRefObject@URRenderDriver2D@SDL_core@ui@modules@UModSys@@U?$TRefObjectWeakFunc@URRenderDriver2D@SDL_core@ui@modules@UModSys@@@tl@5@@tl@UModSys@@URRenderDriver2D@SDL_core@ui@modules@3@@SDL_core@ui@modules@UModSys@@YA_NAEAU?$TScatterArray@U?$TRefObject@URRenderDriver2D@SDL_core@ui@modules@UModSys@@U?$TRefObjectWeakFunc@URRenderDriver2D@SDL_core@ui@modules@UModSys@@@tl@5@@tl@UModSys@@HU?$TScalarCompare@H@core@3@U?$TNodeDeleter0@U?$TScatterArrayNode@U?$TRefObject@URRenderDriver2D@SDL_core@ui@modules@UModSys@@U?$TRefObjectWeakFunc@URRenderDriver2D@SDL_core@ui@modules@UModSys@@@tl@5@@tl@UModSys@@H@tl@UModSys@@@23@@tl@3@PEAURRenderDriver2D@0123@@Z 0000000180008274 f i umodsys_lib_libui:umodsys.mod.ui.SDL_core.obj
 0001:000073f8       ?sub_insert_node@?$TTreeHoldRB@U?$TScatterArrayNode@UGlyph@RMultiImage2D_SDL_ttf@SDL_core@ui@modules@UModSys@@H@tl@UModSys@@@tl@UModSys@@QEAAXPEAU?$TScatterArrayNode@UGlyph@RMultiImage2D_SDL_ttf@SDL_core@ui@modules@UModSys@@H@23@0H@Z 00000001800083f8 f i umodsys_lib_libui:umodsys.mod.ui.SDL_core.obj
 0001:000073f8       ?sub_insert_node@?$TTreeHoldRB@U?$TScatterArrayNode@U?$TVector2@M@math3d@UModSys@@H@tl@UModSys@@@tl@UModSys@@QEAAXPEAU?$TScatterArrayNode@U?$TVector2@M@math3d@UModSys@@H@23@0H@Z 00000001800083f8 f i umodsys_lib_libui:umodsys.mod.ui.frames.obj
 0001:000073f8       ?sub_insert_node@?$TTreeHoldRB@U?$TScatterArrayNode@U?$TRefObjectComposite@UIKeyboardClient@libui@UModSys@@UIRefObject@core@3@U?$TRefObjectFunc@UIRefObject@core@UModSys@@@tl@3@@tl@UModSys@@H@tl@UModSys@@@tl@UModSys@@QEAAXPEAU?$TScatterArrayNode@U?$TRefObjectComposite@UIKeyboardClient@libui@UModSys@@UIRefObject@core@3@U?$TRefObjectFunc@UIRefObject@core@UModSys@@@tl@3@@tl@UModSys@@H@23@0H@Z 00000001800083f8 f i umodsys_lib_libui:umodsys.mod.ui.SDL_core.obj
 0001:000073f8       ?sub_insert_node@?$TTreeHoldRB@U?$TScatterArrayNode@HH@tl@UModSys@@@tl@UModSys@@QEAAXPEAU?$TScatterArrayNode@HH@23@0H@Z 00000001800083f8 f i umodsys_lib_libui:umodsys.mod.ui.frames.obj
 0001:000073f8       ?sub_insert_node@?$TTreeHoldRB@U?$TScatterArrayNode@U?$TRefObject@URRenderDriver2D@SDL_core@ui@modules@UModSys@@U?$TRefObjectWeakFunc@URRenderDriver2D@SDL_core@ui@modules@UModSys@@@tl@5@@tl@UModSys@@H@tl@UModSys@@@tl@UModSys@@QEAAXPEAU?$TScatterArrayNode@U?$TRefObject@URRenderDriver2D@SDL_core@ui@modules@UModSys@@U?$TRefObjectWeakFunc@URRenderDriver2D@SDL_core@ui@modules@UModSys@@@tl@5@@tl@UModSys@@H@23@0H@Z 00000001800083f8 f i umodsys_lib_libui:umodsys.mod.ui.SDL_core.obj
 0001:000073f8       ?sub_insert_node@?$TTreeHoldRB@U?$TScatterArrayNode@U?$TRefObjectCompositeExtra@UIMouseClient@libui@UModSys@@HUIRefObject@core@3@U?$TRefObjectFunc@UIRefObject@core@UModSys@@@tl@3@@tl@UModSys@@H@tl@UModSys@@@tl@UModSys@@QEAAXPEAU?$TScatterArrayNode@U?$TRefObjectCompositeExtra@UIMouseClient@libui@UModSys@@HUIRefObject@core@3@U?$TRefObjectFunc@UIRefObject@core@UModSys@@@tl@3@@tl@UModSys@@H@23@0H@Z 00000001800083f8 f i umodsys_lib_libui:umodsys.mod.ui.SDL_core.obj
 0001:000073f8       ?sub_insert_node@?$TTreeHoldRB@U?$TScatterArrayNode@U?$TVector4@M@math3d@UModSys@@H@tl@UModSys@@@tl@UModSys@@QEAAXPEAU?$TScatterArrayNode@U?$TVector4@M@math3d@UModSys@@H@23@0H@Z 00000001800083f8 f i umodsys_lib_libui:umodsys.mod.ui.frames.obj
 0001:000075d8       ??$process_nodes_r@U?$TNodeDeleter0@U?$TScatterArrayNode@UGlyph@RMultiImage2D_SDL_ttf@SDL_core@ui@modules@UModSys@@H@tl@UModSys@@@tl@UModSys@@@?$TTreeHoldRB@U?$TScatterArrayNode@UGlyph@RMultiImage2D_SDL_ttf@SDL_core@ui@modules@UModSys@@H@tl@UModSys@@@tl@UModSys@@KAHPEAU?$TScatterArrayNode@UGlyph@RMultiImage2D_SDL_ttf@SDL_core@ui@modules@UModSys@@H@12@AEBU?$TNodeDeleter0@U?$TScatterArrayNode@UGlyph@RMultiImage2D_SDL_ttf@SDL_core@ui@modules@UModSys@@H@tl@UModSys@@@12@@Z 00000001800085d8 f i umodsys_lib_libui:umodsys.mod.ui.SDL_core.obj
 0001:00007650       ??$process_nodes_r@U?$TNodeDeleter0@U?$TScatterArrayNode@U?$TRefObjectCompositeExtra@UIMouseClient@libui@UModSys@@HUIRefObject@core@3@U?$TRefObjectFunc@UIRefObject@core@UModSys@@@tl@3@@tl@UModSys@@H@tl@UModSys@@@tl@UModSys@@@?$TTreeHoldRB@U?$TScatterArrayNode@U?$TRefObjectCompositeExtra@UIMouseClient@libui@UModSys@@HUIRefObject@core@3@U?$TRefObjectFunc@UIRefObject@core@UModSys@@@tl@3@@tl@UModSys@@H@tl@UModSys@@@tl@UModSys@@KAHPEAU?$TScatterArrayNode@U?$TRefObjectCompositeExtra@UIMouseClient@libui@UModSys@@HUIRefObject@core@3@U?$TRefObjectFunc@UIRefObject@core@UModSys@@@tl@3@@tl@UModSys@@H@12@AEBU?$TNodeDeleter0@U?$TScatterArrayNode@U?$TRefObjectCompositeExtra@UIMouseClient@libui@UModSys@@HUIRefObject@core@3@U?$TRefObjectFunc@UIRefObject@core@UModSys@@@tl@3@@tl@UModSys@@H@tl@UModSys@@@12@@Z 0000000180008650 f i umodsys_lib_libui:umodsys.mod.ui.SDL_core.obj
 0001:00007650       ??$process_nodes_r@U?$TNodeDeleter0@U?$TScatterArrayNode@U?$TRefObjectComposite@UIKeyboardClient@libui@UModSys@@UIRefObject@core@3@U?$TRefObjectFunc@UIRefObject@core@UModSys@@@tl@3@@tl@UModSys@@H@tl@UModSys@@@tl@UModSys@@@?$TTreeHoldRB@U?$TScatterArrayNode@U?$TRefObjectComposite@UIKeyboardClient@libui@UModSys@@UIRefObject@core@3@U?$TRefObjectFunc@UIRefObject@core@UModSys@@@tl@3@@tl@UModSys@@H@tl@UModSys@@@tl@UModSys@@KAHPEAU?$TScatterArrayNode@U?$TRefObjectComposite@UIKeyboardClient@libui@UModSys@@UIRefObject@core@3@U?$TRefObjectFunc@UIRefObject@core@UModSys@@@tl@3@@tl@UModSys@@H@12@AEBU?$TNodeDeleter0@U?$TScatterArrayNode@U?$TRefObjectComposite@UIKeyboardClient@libui@UModSys@@UIRefObject@core@3@U?$TRefObjectFunc@UIRefObject@core@UModSys@@@tl@3@@tl@UModSys@@H@tl@UModSys@@@12@@Z 0000000180008650 f i umodsys_lib_libui:umodsys.mod.ui.SDL_core.obj
 0001:000076e4       ??$process_nodes_r@U?$TNodeDeleter0@U?$TScatterArrayNode@U?$TRefObject@URRenderDriver2D@SDL_core@ui@modules@UModSys@@U?$TRefObjectWeakFunc@URRenderDriver2D@SDL_core@ui@modules@UModSys@@@tl@5@@tl@UModSys@@H@tl@UModSys@@@tl@UModSys@@@?$TTreeHoldRB@U?$TScatterArrayNode@U?$TRefObject@URRenderDriver2D@SDL_core@ui@modules@UModSys@@U?$TRefObjectWeakFunc@URRenderDriver2D@SDL_core@ui@modules@UModSys@@@tl@5@@tl@UModSys@@H@tl@UModSys@@@tl@UModSys@@KAHPEAU?$TScatterArrayNode@U?$TRefObject@URRenderDriver2D@SDL_core@ui@modules@UModSys@@U?$TRefObjectWeakFunc@URRenderDriver2D@SDL_core@ui@modules@UModSys@@@tl@5@@tl@UModSys@@H@12@AEBU?$TNodeDeleter0@U?$TScatterArrayNode@U?$TRefObject@URRenderDriver2D@SDL_core@ui@modules@UModSys@@U?$TRefObjectWeakFunc@URRenderDriver2D@SDL_core@ui@modules@UModSys@@@tl@5@@tl@UModSys@@H@tl@UModSys@@@12@@Z 00000001800086e4 f i umodsys_lib_libui:umodsys.mod.ui.SDL_core.obj
 0001:00007778       ??1SController@libui@UModSys@@QEAA@XZ 0000000180008778 f i umodsys_lib_libui:umodsys.mod.ui.frames.obj
 0001:000077c0       ?db_get_i@SController@libui@UModSys@@QEAAHQEBD@Z 00000001800087c0 f i umodsys_lib_libui:umodsys.mod.ui.frames.obj
 0001:00007860       ?update_size@libui@UModSys@@YA_NAEAU?$TBoundBox2@H@math3d@2@AEBUSFrameSize@12@AEBU342@@Z 0000000180008860 f i umodsys_lib_libui:umodsys.mod.ui.frames.obj
 0001:00007998       ?command@SController@libui@UModSys@@QEAA_NHAEBUSFrameDataIn@23@@Z 0000000180008998 f i umodsys_lib_libui:umodsys.mod.ui.frames.obj
 0001:00007a0c       ?get_property@ICollectorThemeTemplate@libui@UModSys@@UEBA_NHHAEAU?$TVector4@M@math3d@3@@Z 0000000180008a0c f i umodsys_lib_libui:umodsys.mod.ui.frames.obj
 0001:00007ac0       ?get_property@ICollectorThemeTemplate@libui@UModSys@@UEBA_NHHAEAU?$TVector4@H@math3d@3@@Z 0000000180008ac0 f i umodsys_lib_libui:umodsys.mod.ui.frames.obj
 0001:00007bc4       ?get_property@ICollectorThemeTemplate@libui@UModSys@@UEBA_NHHAEAU?$TVector2@M@math3d@3@@Z 0000000180008bc4 f i umodsys_lib_libui:umodsys.mod.ui.frames.obj
 0001:00007c78       ?get_property@ICollectorThemeTemplate@libui@UModSys@@UEBA_NHHAEAU?$TVector2@H@math3d@3@@Z 0000000180008c78 f i umodsys_lib_libui:umodsys.mod.ui.frames.obj
 0001:00007d40       ?get_property@ICollectorThemeTemplate@libui@UModSys@@UEBA_NHHAEAH@Z 0000000180008d40 f i umodsys_lib_libui:umodsys.mod.ui.frames.obj
 0001:00007df0       ?set_property@ICollectorThemeTemplate@libui@UModSys@@UEAA_NHHAEBU?$TVector4@M@math3d@3@@Z 0000000180008df0 f i umodsys_lib_libui:umodsys.mod.ui.frames.obj
 0001:00007e34       ?set_property@ICollectorThemeTemplate@libui@UModSys@@UEAA_NHHAEBU?$TVector4@H@math3d@3@@Z 0000000180008e34 f i umodsys_lib_libui:umodsys.mod.ui.frames.obj
 0001:00007edc       ?set_property@ICollectorThemeTemplate@libui@UModSys@@UEAA_NHHAEBU?$TVector2@M@math3d@3@@Z 0000000180008edc f i umodsys_lib_libui:umodsys.mod.ui.frames.obj
 0001:00007f1c       ?set_property@ICollectorThemeTemplate@libui@UModSys@@UEAA_NHHAEBU?$TVector2@H@math3d@3@@Z 0000000180008f1c f i umodsys_lib_libui:umodsys.mod.ui.frames.obj
 0001:00007f78       ?set_property@ICollectorThemeTemplate@libui@UModSys@@UEAA_NHHH@Z 0000000180008f78 f i umodsys_lib_libui:umodsys.mod.ui.frames.obj
 0001:0000805c       ??1ICollectorThemeTemplate@libui@UModSys@@QEAA@XZ 000000018000905c f i umodsys_lib_libui:umodsys.mod.ui.frames.obj
 0001:00008158       ?get_group_index@RCollectorTheme@frames@ui@modules@UModSys@@UEAAHPEBD@Z 0000000180009158 f   umodsys_lib_libui:umodsys.mod.ui.frames.obj
 0001:0000822c       ?get_elem_index@RCollectorTheme@frames@ui@modules@UModSys@@UEAAHPEBD@Z 000000018000922c f   umodsys_lib_libui:umodsys.mod.ui.frames.obj
 0001:000083e8       ??1RCollectorTheme@frames@ui@modules@UModSys@@QEAA@XZ 00000001800093e8 f   umodsys_lib_libui:umodsys.mod.ui.frames.obj
 0001:000083f8       ?set_controller@RFrame_Common@frames@ui@modules@UModSys@@UEAA_NHPEAUIController@libui@5@PEAUIRefObject@core@5@@Z 00000001800093f8 f i umodsys_lib_libui:umodsys.mod.ui.frames.obj
 0001:00008484       ?get_controller@RFrame_Common@frames@ui@modules@UModSys@@UEAAPEAUIController@libui@5@XZ 0000000180009484 f i umodsys_lib_libui:umodsys.mod.ui.frames.obj
 0001:0000848c       ?get_controller_context@RFrame_Common@frames@ui@modules@UModSys@@UEAAHXZ 000000018000948c f i umodsys_lib_libui:umodsys.mod.ui.frames.obj
 0001:00008494       ?get_box@RFrame_Common@frames@ui@modules@UModSys@@UEAAAEBU?$TBoundBox2@H@math3d@5@XZ 0000000180009494 f i umodsys_lib_libui:umodsys.mod.ui.frames.obj
 0001:00008494       ?get_theme@RCollector@frames@ui@modules@UModSys@@UEAAPEAUICollectorTheme@libui@5@XZ 0000000180009494 f i umodsys_lib_libui:umodsys.mod.ui.frames.obj
 0001:0000849c       ?get_framesize@RFrame_Common@frames@ui@modules@UModSys@@UEAAAEBUSFrameSize@libui@5@XZ 000000018000949c f i umodsys_lib_libui:umodsys.mod.ui.frames.obj
 0001:000084a4       ?set_framesize@RFrame_Common@frames@ui@modules@UModSys@@UEAA_NAEBUSFrameSize@libui@5@@Z 00000001800094a4 f i umodsys_lib_libui:umodsys.mod.ui.frames.obj
 0001:000084c8       ?get_insize@RFrame_Common@frames@ui@modules@UModSys@@UEAA?AU?$TVector2@H@math3d@5@XZ 00000001800094c8 f i umodsys_lib_libui:umodsys.mod.ui.frames.obj
 0001:000084e0       ?get_theme@RFrame_Common@frames@ui@modules@UModSys@@UEAAPEAUICollectorTheme@libui@5@XZ 00000001800094e0 f i umodsys_lib_libui:umodsys.mod.ui.frames.obj
 0001:000084e8       ?draw_pre@RFrame_Common@frames@ui@modules@UModSys@@MEAA_NAEBUSDrawState@2345@@Z 00000001800094e8 f i umodsys_lib_libui:umodsys.mod.ui.frames.obj
 0001:000084e8       ?button_cmd@RFrame_Common@frames@ui@modules@UModSys@@MEAA_NPEAUSButton@2345@HH@Z 00000001800094e8 f i umodsys_lib_libui:umodsys.mod.ui.frames.obj
 0001:000084e8       ?button_draw@RFrame_Common@frames@ui@modules@UModSys@@MEAA_NPEAUSButton@2345@AEBUSDrawState@2345@H@Z 00000001800094e8 f i umodsys_lib_libui:umodsys.mod.ui.frames.obj
 0001:000084e8       ?controller_update@RFrame_Common@frames@ui@modules@UModSys@@UEAA_NXZ 00000001800094e8 f i umodsys_lib_libui:umodsys.mod.ui.frames.obj
 0001:000084e8       ?draw_post@RFrame_Common@frames@ui@modules@UModSys@@MEAA_NAEBUSDrawState@2345@@Z 00000001800094e8 f i umodsys_lib_libui:umodsys.mod.ui.frames.obj
 0001:000084ec       ?set_flag@RFrame_Common@frames@ui@modules@UModSys@@UEAA_NH_N@Z 00000001800094ec f   umodsys_lib_libui:umodsys.mod.ui.frames.obj
 0001:00008564       ?get_flag@RFrame_Common@frames@ui@modules@UModSys@@UEAA_NH@Z 0000000180009564 f   umodsys_lib_libui:umodsys.mod.ui.frames.obj
 0001:000085a0       ?get_parent@RFrame_Common@frames@ui@modules@UModSys@@UEAAPEAUIFrame@libui@5@XZ 00000001800095a0 f   umodsys_lib_libui:umodsys.mod.ui.frames.obj
 0001:000085a8       ?find_context@RFrame_Common@frames@ui@modules@UModSys@@UEAAPEAUIFrame@libui@5@HPEAUIController@75@@Z 00000001800095a8 f   umodsys_lib_libui:umodsys.mod.ui.frames.obj
 0001:00008638       ?configure@RFrame_Common@frames@ui@modules@UModSys@@UEAA_NPEBD0AEBUSParameters@core@5@@Z 0000000180009638 f   umodsys_lib_libui:umodsys.mod.ui.frames.obj
 0001:00008700       ?draw@RFrame_Common@frames@ui@modules@UModSys@@MEAA_NAEBUSDrawState@2345@@Z 0000000180009700 f   umodsys_lib_libui:umodsys.mod.ui.frames.obj
 0001:00008798       ?draw_focus@RFrame_Common@frames@ui@modules@UModSys@@MEAA_NAEBUSDrawState@2345@@Z 0000000180009798 f   umodsys_lib_libui:umodsys.mod.ui.frames.obj
 0001:00008830       ?update_size@RFrame_Common@frames@ui@modules@UModSys@@MEAA_NAEBU?$TBoundBox2@H@math3d@5@@Z 0000000180009830 f   umodsys_lib_libui:umodsys.mod.ui.frames.obj
 0001:00008864       ?set_fcp@RFrame_Common@frames@ui@modules@UModSys@@MEAA_NAEBUSFrameCreateParameters@libui@5@PEBUSParameters@core@5@@Z 0000000180009864 f   umodsys_lib_libui:umodsys.mod.ui.frames.obj
 0001:00008958       ?is_enabled@RFrame_Common@frames@ui@modules@UModSys@@MEAA_NXZ 0000000180009958 f   umodsys_lib_libui:umodsys.mod.ui.frames.obj
 0001:000089a0       ??0RFrame_Common@frames@ui@modules@UModSys@@QEAA@PEAURCollector@1234@PEAU01234@@Z 00000001800099a0 f   umodsys_lib_libui:umodsys.mod.ui.frames.obj
 0001:00008ac0       ??_GRFrame_Common@frames@ui@modules@UModSys@@UEAAPEAXI@Z 0000000180009ac0 f i umodsys_lib_libui:umodsys.mod.ui.frames.obj
 0001:00008ac0       ??_ERFrame_Common@frames@ui@modules@UModSys@@UEAAPEAXI@Z 0000000180009ac0 f i  CIL library: CIL module
 0001:00008af0       ??1RFrame_Common@frames@ui@modules@UModSys@@UEAA@XZ 0000000180009af0 f   umodsys_lib_libui:umodsys.mod.ui.frames.obj
 0001:00008c20       ?root_get_interface_info@RDialog@frames@ui@modules@UModSys@@UEBAAEBUSUniquePointerInfo@core@5@XZ 0000000180009c20 f i umodsys_lib_libui:umodsys.mod.ui.frames.obj
 0001:00008c28       ?root_get_interface_type@RDialog@frames@ui@modules@UModSys@@UEBAPEBUSUniquePointerInfo@core@5@XZ 0000000180009c28 f i umodsys_lib_libui:umodsys.mod.ui.frames.obj
 0001:00008c30       ?root_get_other_interface@RDialog@frames@ui@modules@UModSys@@UEBAPEBUIRoot@core@5@PEBUSUniquePointerInfo@75@@Z 0000000180009c30 f i umodsys_lib_libui:umodsys.mod.ui.frames.obj
 0001:00008c30       ?root_get_other_interface@RDialog@frames@ui@modules@UModSys@@UEAAPEAUIRoot@core@5@PEBUSUniquePointerInfo@75@@Z 0000000180009c30 f i umodsys_lib_libui:umodsys.mod.ui.frames.obj
 0001:00008c60       ?root_is_interface_supported@RDialog@frames@ui@modules@UModSys@@UEBA_NPEBUSUniquePointerInfo@core@5@@Z 0000000180009c60 f i umodsys_lib_libui:umodsys.mod.ui.frames.obj
 0001:00008c90       ?ref_remove@RImage_Memory@stdlib@lib2d@modules@UModSys@@UEBAXXZ 0000000180009c90 f i umodsys_lib_lib2d:umodsys.mod.2d.stdlib.obj
 0001:00008c90       ?ref_remove@RGenerator@frames@ui@modules@UModSys@@UEBAXXZ 0000000180009c90 f i umodsys_lib_libui:umodsys.mod.ui.frames.obj
 0001:00008c90       ?ref_remove@RImageFactory_Memory@stdlib@lib2d@modules@UModSys@@UEBAXXZ 0000000180009c90 f i umodsys_lib_lib2d:umodsys.mod.2d.stdlib.obj
 0001:00008c90       ?ref_remove@RGenerator@serialize_json@media@modules@UModSys@@UEBAXXZ 0000000180009c90 f i umodsys_lib_libmedia:umodsys.mod.media.serialize_json.obj
 0001:00008c90       ?ref_remove@RMultiImage@stdlib@lib2d@modules@UModSys@@UEBAXXZ 0000000180009c90 f i umodsys_lib_lib2d:umodsys.mod.2d.stdlib.obj
 0001:00008c90       ?ref_remove@RBinArchiveFrameClient_ZIP@zlib@media@modules@UModSys@@UEBAXXZ 0000000180009c90 f i umodsys_lib_libmedia:umodsys.mod.media.zlib.obj
 0001:00008c90       ?ref_remove@RRenderDriver2D@SDL_core@ui@modules@UModSys@@UEBAXXZ 0000000180009c90 f i umodsys_lib_libui:umodsys.mod.ui.SDL_core.obj
 0001:00008c90       ?ref_remove@RGenerator@stdlib@lib2d@modules@UModSys@@UEBAXXZ 0000000180009c90 f i umodsys_lib_lib2d:umodsys.mod.2d.stdlib.obj
 0001:00008c90       ?ref_remove@RKeyboardController@SDL_core@ui@modules@UModSys@@UEBAXXZ 0000000180009c90 f i umodsys_lib_libui:umodsys.mod.ui.SDL_core.obj
 0001:00008c90       ?ref_remove@RDialog@frames@ui@modules@UModSys@@UEBAXXZ 0000000180009c90 f i umodsys_lib_libui:umodsys.mod.ui.frames.obj
 0001:00008c90       ?ref_remove@RSerializeReader@serialize_json@media@modules@UModSys@@UEBAXXZ 0000000180009c90 f i umodsys_lib_libmedia:umodsys.mod.media.serialize_json.obj
 0001:00008c90       ?ref_remove@RGenerator@SDL_core@ui@modules@UModSys@@UEBAXXZ 0000000180009c90 f i umodsys_lib_libui:umodsys.mod.ui.SDL_core.obj
 0001:00008c90       ?ref_remove@RTerminal@SDL_core@ui@modules@UModSys@@UEBAXXZ 0000000180009c90 f i umodsys_lib_libui:umodsys.mod.ui.SDL_core.obj
 0001:00008c90       ?ref_remove@RGenerator@test1@test@modules@UModSys@@UEBAXXZ 0000000180009c90 f i plugin_test1.obj
 0001:00008c90       ?ref_remove@RMouseController@SDL_core@ui@modules@UModSys@@UEBAXXZ 0000000180009c90 f i umodsys_lib_libui:umodsys.mod.ui.SDL_core.obj
 0001:00008c90       ?ref_remove@RGenerator@images_std@media@modules@UModSys@@UEBAXXZ 0000000180009c90 f i umodsys_lib_libmedia:umodsys.mod.media.images_std.obj
 0001:00008c90       ?ref_remove@RMultiImage2D_SDL_ttf@SDL_core@ui@modules@UModSys@@UEBAXXZ 0000000180009c90 f i umodsys_lib_libui:umodsys.mod.ui.SDL_core.obj
 0001:00008c90       ?ref_remove@RGenerator@zlib@media@modules@UModSys@@UEBAXXZ 0000000180009c90 f i umodsys_lib_libmedia:umodsys.mod.media.zlib.obj
 0001:00008ca8       ?get_root@RDialog@frames@ui@modules@UModSys@@UEAAPEAUIFrame@libui@5@XZ 0000000180009ca8 f   umodsys_lib_libui:umodsys.mod.ui.frames.obj
 0001:00008cb0       ?get_focused@RDialog@frames@ui@modules@UModSys@@UEAAPEAUIFrame@libui@5@XZ 0000000180009cb0 f   umodsys_lib_libui:umodsys.mod.ui.frames.obj
 0001:00008cb8       ?set_focused@RDialog@frames@ui@modules@UModSys@@UEAA_NPEAUIFrame@libui@5@@Z 0000000180009cb8 f   umodsys_lib_libui:umodsys.mod.ui.frames.obj
 0001:00008d30       ??_ERDialog@frames@ui@modules@UModSys@@UEAAPEAXI@Z 0000000180009d30 f i  CIL library: CIL module
 0001:00008d30       ??_GRDialog@frames@ui@modules@UModSys@@UEAAPEAXI@Z 0000000180009d30 f i umodsys_lib_libui:umodsys.mod.ui.frames.obj
 0001:00008db4       ?root_get_interface_info@RFrame_Frame@frames@ui@modules@UModSys@@UEBAAEBUSUniquePointerInfo@core@5@XZ 0000000180009db4 f i umodsys_lib_libui:umodsys.mod.ui.frames.obj
 0001:00008dbc       ?root_get_interface_type@RFrame_Frame@frames@ui@modules@UModSys@@UEBAPEBUSUniquePointerInfo@core@5@XZ 0000000180009dbc f i umodsys_lib_libui:umodsys.mod.ui.frames.obj
 0001:00008dc4       ?root_get_other_interface@RFrame_Frame@frames@ui@modules@UModSys@@UEBAPEBUIRoot@core@5@PEBUSUniquePointerInfo@75@@Z 0000000180009dc4 f i umodsys_lib_libui:umodsys.mod.ui.frames.obj
 0001:00008dc4       ?root_get_other_interface@RFrame_Frame@frames@ui@modules@UModSys@@UEAAPEAUIRoot@core@5@PEBUSUniquePointerInfo@75@@Z 0000000180009dc4 f i umodsys_lib_libui:umodsys.mod.ui.frames.obj
 0001:00008dfc       ?root_is_interface_supported@RFrame_Frame@frames@ui@modules@UModSys@@UEBA_NPEBUSUniquePointerInfo@core@5@@Z 0000000180009dfc f i umodsys_lib_libui:umodsys.mod.ui.frames.obj
 0001:00008e34       ?get_cids@RFrame_Frame@frames@ui@modules@UModSys@@UEAA?AU?$TString@U?$TSCoreConst@D@su@tl@UModSys@@U?$TComparerBinaryHash@D@234@@tl@5@XZ 0000000180009e34 f i umodsys_lib_libui:umodsys.mod.ui.frames.obj
 0001:00008e58       ?get_cidn@RFrame_Frame@frames@ui@modules@UModSys@@UEAAHXZ 0000000180009e58 f i umodsys_lib_libui:umodsys.mod.ui.frames.obj
 0001:00008e60       ?root_get_interface_info@RFrame_Image@frames@ui@modules@UModSys@@UEBAAEBUSUniquePointerInfo@core@5@XZ 0000000180009e60 f i umodsys_lib_libui:umodsys.mod.ui.frames.obj
 0001:00008e68       ?root_get_interface_type@RFrame_Image@frames@ui@modules@UModSys@@UEBAPEBUSUniquePointerInfo@core@5@XZ 0000000180009e68 f i umodsys_lib_libui:umodsys.mod.ui.frames.obj
 0001:00008e70       ?root_get_other_interface@RFrame_Image@frames@ui@modules@UModSys@@UEBAPEBUIRoot@core@5@PEBUSUniquePointerInfo@75@@Z 0000000180009e70 f i umodsys_lib_libui:umodsys.mod.ui.frames.obj
 0001:00008e70       ?root_get_other_interface@RFrame_Image@frames@ui@modules@UModSys@@UEAAPEAUIRoot@core@5@PEBUSUniquePointerInfo@75@@Z 0000000180009e70 f i umodsys_lib_libui:umodsys.mod.ui.frames.obj
 0001:00008ea8       ?root_is_interface_supported@RFrame_Image@frames@ui@modules@UModSys@@UEBA_NPEBUSUniquePointerInfo@core@5@@Z 0000000180009ea8 f i umodsys_lib_libui:umodsys.mod.ui.frames.obj
 0001:00008ee0       ?ref_add@RFrame_Frame@frames@ui@modules@UModSys@@UEBAXXZ 0000000180009ee0 f i umodsys_lib_libui:umodsys.mod.ui.frames.obj
 0001:00008ee0       ?ref_add@RFrame_Button@frames@ui@modules@UModSys@@UEBAXXZ 0000000180009ee0 f i umodsys_lib_libui:umodsys.mod.ui.frames.obj
 0001:00008ee0       ?ref_add@RFrame_Image@frames@ui@modules@UModSys@@UEBAXXZ 0000000180009ee0 f i umodsys_lib_libui:umodsys.mod.ui.frames.obj
 0001:00008ee8       ?ref_remove@RFrame_Button@frames@ui@modules@UModSys@@UEBAXXZ 0000000180009ee8 f i umodsys_lib_libui:umodsys.mod.ui.frames.obj
 0001:00008ee8       ?ref_remove@RFrame_Image@frames@ui@modules@UModSys@@UEBAXXZ 0000000180009ee8 f i umodsys_lib_libui:umodsys.mod.ui.frames.obj
 0001:00008ee8       ?ref_remove@RFrame_Frame@frames@ui@modules@UModSys@@UEBAXXZ 0000000180009ee8 f i umodsys_lib_libui:umodsys.mod.ui.frames.obj
 0001:00008f00       ?get_cids@RFrame_Image@frames@ui@modules@UModSys@@UEAA?AU?$TString@U?$TSCoreConst@D@su@tl@UModSys@@U?$TComparerBinaryHash@D@234@@tl@5@XZ 0000000180009f00 f i umodsys_lib_libui:umodsys.mod.ui.frames.obj
 0001:00008f24       ?get_cidn@RFrame_Image@frames@ui@modules@UModSys@@UEAAHXZ 0000000180009f24 f i umodsys_lib_libui:umodsys.mod.ui.frames.obj
 0001:00008f2c       ?root_get_interface_info@RFrame_Text@frames@ui@modules@UModSys@@UEBAAEBUSUniquePointerInfo@core@5@XZ 0000000180009f2c f i umodsys_lib_libui:umodsys.mod.ui.frames.obj
 0001:00008f34       ?root_get_interface_type@RFrame_Text@frames@ui@modules@UModSys@@UEBAPEBUSUniquePointerInfo@core@5@XZ 0000000180009f34 f i umodsys_lib_libui:umodsys.mod.ui.frames.obj
 0001:00008f3c       ?root_get_other_interface@RFrame_Text@frames@ui@modules@UModSys@@UEBAPEBUIRoot@core@5@PEBUSUniquePointerInfo@75@@Z 0000000180009f3c f i umodsys_lib_libui:umodsys.mod.ui.frames.obj
 0001:00008f3c       ?root_get_other_interface@RFrame_Text@frames@ui@modules@UModSys@@UEAAPEAUIRoot@core@5@PEBUSUniquePointerInfo@75@@Z 0000000180009f3c f i umodsys_lib_libui:umodsys.mod.ui.frames.obj
 0001:00008f74       ?root_is_interface_supported@RFrame_Text@frames@ui@modules@UModSys@@UEBA_NPEBUSUniquePointerInfo@core@5@@Z 0000000180009f74 f i umodsys_lib_libui:umodsys.mod.ui.frames.obj
 0001:00008fac       ?ref_links@RFrame_Edit@frames@ui@modules@UModSys@@UEBAHXZ 0000000180009fac f i umodsys_lib_libui:umodsys.mod.ui.frames.obj
 0001:00008fac       ?ref_links@RFrame_Text@frames@ui@modules@UModSys@@UEBAHXZ 0000000180009fac f i umodsys_lib_libui:umodsys.mod.ui.frames.obj
 0001:00008fb4       ?ref_weak@RFrame_Edit@frames@ui@modules@UModSys@@UEBA_NAEAUWeakPointer@IRefObject@core@5@@Z 0000000180009fb4 f i umodsys_lib_libui:umodsys.mod.ui.frames.obj
 0001:00008fb4       ?ref_weak@RFrame_Text@frames@ui@modules@UModSys@@UEBA_NAEAUWeakPointer@IRefObject@core@5@@Z 0000000180009fb4 f i umodsys_lib_libui:umodsys.mod.ui.frames.obj
 0001:00008fd8       ??0RFrame_Frame@frames@ui@modules@UModSys@@QEAA@PEAURCollector@1234@PEAURFrame_Common@1234@@Z 0000000180009fd8 f   umodsys_lib_libui:umodsys.mod.ui.frames.obj
 0001:00009058       ??_GRFrame_Frame@frames@ui@modules@UModSys@@UEAAPEAXI@Z 000000018000a058 f i umodsys_lib_libui:umodsys.mod.ui.frames.obj
 0001:00009058       ??_ERFrame_Frame@frames@ui@modules@UModSys@@UEAAPEAXI@Z 000000018000a058 f i  CIL library: CIL module
 0001:0000909c       ?draw_post@RFrame_Text@frames@ui@modules@UModSys@@MEAA_NAEBUSDrawState@2345@@Z 000000018000a09c f   umodsys_lib_libui:umodsys.mod.ui.frames.obj
 0001:00009300       ?set_fcp@RFrame_Text@frames@ui@modules@UModSys@@MEAA_NAEBUSFrameCreateParameters@libui@5@PEBUSParameters@core@5@@Z 000000018000a300 f   umodsys_lib_libui:umodsys.mod.ui.frames.obj
 0001:000093d8       ?set_value@RFrame_Text@frames@ui@modules@UModSys@@UEAA_NHAEBUSFrameDataIn@libui@5@@Z 000000018000a3d8 f   umodsys_lib_libui:umodsys.mod.ui.frames.obj
 0001:000094a0       ?get_value@RFrame_Text@frames@ui@modules@UModSys@@UEAA_NHAEBUSFrameDataOut@libui@5@@Z 000000018000a4a0 f   umodsys_lib_libui:umodsys.mod.ui.frames.obj
 0001:0000957c       ??0RFrame_Text@frames@ui@modules@UModSys@@QEAA@PEAURCollector@1234@PEAURFrame_Common@1234@@Z 000000018000a57c f   umodsys_lib_libui:umodsys.mod.ui.frames.obj
 0001:00009678       ??_ERFrame_Text@frames@ui@modules@UModSys@@UEAAPEAXI@Z 000000018000a678 f i  CIL library: CIL module
 0001:00009678       ??_GRFrame_Text@frames@ui@modules@UModSys@@UEAAPEAXI@Z 000000018000a678 f i umodsys_lib_libui:umodsys.mod.ui.frames.obj
 0001:000096e8       ?set_fcp@RFrame_Image@frames@ui@modules@UModSys@@MEAA_NAEBUSFrameCreateParameters@libui@5@PEBUSParameters@core@5@@Z 000000018000a6e8 f   umodsys_lib_libui:umodsys.mod.ui.frames.obj
 0001:00009778       ?draw_pre@RFrame_Image@frames@ui@modules@UModSys@@MEAA_NAEBUSDrawState@2345@@Z 000000018000a778 f   umodsys_lib_libui:umodsys.mod.ui.frames.obj
 0001:000098c0       ??0RFrame_Image@frames@ui@modules@UModSys@@QEAA@PEAURCollector@1234@PEAURFrame_Common@1234@@Z 000000018000a8c0 f   umodsys_lib_libui:umodsys.mod.ui.frames.obj
 0001:00009950       ??_ERFrame_Image@frames@ui@modules@UModSys@@UEAAPEAXI@Z 000000018000a950 f i  CIL library: CIL module
 0001:00009950       ??_GRFrame_Image@frames@ui@modules@UModSys@@UEAAPEAXI@Z 000000018000a950 f i umodsys_lib_libui:umodsys.mod.ui.frames.obj
 0001:000099c0       ?root_get_interface_info@RFrame_Button@frames@ui@modules@UModSys@@UEBAAEBUSUniquePointerInfo@core@5@XZ 000000018000a9c0 f i umodsys_lib_libui:umodsys.mod.ui.frames.obj
 0001:000099c8       ?root_get_interface_type@RFrame_Button@frames@ui@modules@UModSys@@UEBAPEBUSUniquePointerInfo@core@5@XZ 000000018000a9c8 f i umodsys_lib_libui:umodsys.mod.ui.frames.obj
 0001:000099d0       ?root_get_interface_types@RFrame_Edit@frames@ui@modules@UModSys@@UEBA_KAEAUSUniquePtrList@core@5@@Z 000000018000a9d0 f i umodsys_lib_libui:umodsys.mod.ui.frames.obj
 0001:000099d0       ?root_get_interface_types@RGenerator@SDL_core@ui@modules@UModSys@@UEBA_KAEAUSUniquePtrList@core@5@@Z 000000018000a9d0 f i umodsys_lib_libui:umodsys.mod.ui.SDL_core.obj
 0001:000099d0       ?root_get_interface_types@RDialog@frames@ui@modules@UModSys@@UEBA_KAEAUSUniquePtrList@core@5@@Z 000000018000a9d0 f i umodsys_lib_libui:umodsys.mod.ui.frames.obj
 0001:000099d0       ?root_get_interface_types@RFrame_Button@frames@ui@modules@UModSys@@UEBA_KAEAUSUniquePtrList@core@5@@Z 000000018000a9d0 f i umodsys_lib_libui:umodsys.mod.ui.frames.obj
 0001:000099d0       ?root_get_interface_types@RMouseController@SDL_core@ui@modules@UModSys@@UEBA_KAEAUSUniquePtrList@core@5@@Z 000000018000a9d0 f i umodsys_lib_libui:umodsys.mod.ui.SDL_core.obj
 0001:000099d0       ?root_get_interface_types@RGenerator@zlib@media@modules@UModSys@@UEBA_KAEAUSUniquePtrList@core@5@@Z 000000018000a9d0 f i umodsys_lib_libmedia:umodsys.mod.media.zlib.obj
 0001:000099d0       ?root_get_interface_types@RSerializeReader@serialize_json@media@modules@UModSys@@UEBA_KAEAUSUniquePtrList@core@5@@Z 000000018000a9d0 f i umodsys_lib_libmedia:umodsys.mod.media.serialize_json.obj
 0001:000099d0       ?root_get_interface_types@RFrame_List@frames@ui@modules@UModSys@@UEBA_KAEAUSUniquePtrList@core@5@@Z 000000018000a9d0 f i umodsys_lib_libui:umodsys.mod.ui.frames.obj
 0001:000099d0       ?root_get_interface_types@RGenerator@test1@test@modules@UModSys@@UEBA_KAEAUSUniquePtrList@core@5@@Z 000000018000a9d0 f i plugin_test1.obj
 0001:000099d0       ?root_get_interface_types@RBinArchiveFrameClient_ZIP@zlib@media@modules@UModSys@@UEBA_KAEAUSUniquePtrList@core@5@@Z 000000018000a9d0 f i umodsys_lib_libmedia:umodsys.mod.media.zlib.obj
 0001:000099d0       ?root_get_interface_types@RSerializeWriter@serialize_json@media@modules@UModSys@@UEBA_KAEAUSUniquePtrList@core@5@@Z 000000018000a9d0 f i umodsys_lib_libmedia:umodsys.mod.media.serialize_json.obj
 0001:000099d0       ?root_get_interface_types@RCollector@frames@ui@modules@UModSys@@UEBA_KAEAUSUniquePtrList@core@5@@Z 000000018000a9d0 f i umodsys_lib_libui:umodsys.mod.ui.frames.obj
 0001:000099d0       ?root_get_interface_types@RFrame_Text@frames@ui@modules@UModSys@@UEBA_KAEAUSUniquePtrList@core@5@@Z 000000018000a9d0 f i umodsys_lib_libui:umodsys.mod.ui.frames.obj
 0001:000099d0       ?root_get_interface_types@RGenerator@stdlib@lib2d@modules@UModSys@@UEBA_KAEAUSUniquePtrList@core@5@@Z 000000018000a9d0 f i umodsys_lib_lib2d:umodsys.mod.2d.stdlib.obj
 0001:000099d0       ?root_get_interface_types@RGenerator@serialize_json@media@modules@UModSys@@UEBA_KAEAUSUniquePtrList@core@5@@Z 000000018000a9d0 f i umodsys_lib_libmedia:umodsys.mod.media.serialize_json.obj
 0001:000099d0       ?root_get_interface_types@RMultiImage2D_SDL_ttf@SDL_core@ui@modules@UModSys@@UEBA_KAEAUSUniquePtrList@core@5@@Z 000000018000a9d0 f i umodsys_lib_libui:umodsys.mod.ui.SDL_core.obj
 0001:000099d0       ?root_get_interface_types@RImageFactory_Memory@stdlib@lib2d@modules@UModSys@@UEBA_KAEAUSUniquePtrList@core@5@@Z 000000018000a9d0 f i umodsys_lib_lib2d:umodsys.mod.2d.stdlib.obj
 0001:000099d0       ?root_get_interface_types@RMultiImage@stdlib@lib2d@modules@UModSys@@UEBA_KAEAUSUniquePtrList@core@5@@Z 000000018000a9d0 f i umodsys_lib_lib2d:umodsys.mod.2d.stdlib.obj
 0001:000099d0       ?root_get_interface_types@RKeyboardController@SDL_core@ui@modules@UModSys@@UEBA_KAEAUSUniquePtrList@core@5@@Z 000000018000a9d0 f i umodsys_lib_libui:umodsys.mod.ui.SDL_core.obj
 0001:000099d0       ?root_get_interface_types@RGenerator@frames@ui@modules@UModSys@@UEBA_KAEAUSUniquePtrList@core@5@@Z 000000018000a9d0 f i umodsys_lib_libui:umodsys.mod.ui.frames.obj
 0001:000099d0       ?root_get_interface_types@RMediaFilter@images_std@media@modules@UModSys@@UEBA_KAEAUSUniquePtrList@core@5@@Z 000000018000a9d0 f i umodsys_lib_libmedia:umodsys.mod.media.images_std.obj
 0001:000099d0       ?root_get_interface_types@RGenerator@images_std@media@modules@UModSys@@UEBA_KAEAUSUniquePtrList@core@5@@Z 000000018000a9d0 f i umodsys_lib_libmedia:umodsys.mod.media.images_std.obj
 0001:000099d0       ?root_get_interface_types@RTerminal@SDL_core@ui@modules@UModSys@@UEBA_KAEAUSUniquePtrList@core@5@@Z 000000018000a9d0 f i umodsys_lib_libui:umodsys.mod.ui.SDL_core.obj
 0001:000099d0       ?root_get_interface_types@RFrame_Image@frames@ui@modules@UModSys@@UEBA_KAEAUSUniquePtrList@core@5@@Z 000000018000a9d0 f i umodsys_lib_libui:umodsys.mod.ui.frames.obj
 0001:000099d0       ?root_get_interface_types@RFrame_Frame@frames@ui@modules@UModSys@@UEBA_KAEAUSUniquePtrList@core@5@@Z 000000018000a9d0 f i umodsys_lib_libui:umodsys.mod.ui.frames.obj
 0001:000099d0       ?root_get_interface_types@RImage_Memory@stdlib@lib2d@modules@UModSys@@UEBA_KAEAUSUniquePtrList@core@5@@Z 000000018000a9d0 f i umodsys_lib_lib2d:umodsys.mod.2d.stdlib.obj
 0001:000099d0       ?root_get_interface_types@RTest1_Shell@test1@test@modules@UModSys@@UEBA_KAEAUSUniquePtrList@core@5@@Z 000000018000a9d0 f i plugin_test1.obj
 0001:000099d0       ?root_get_interface_types@RRenderDriver2D@SDL_core@ui@modules@UModSys@@UEBA_KAEAUSUniquePtrList@core@5@@Z 000000018000a9d0 f i umodsys_lib_libui:umodsys.mod.ui.SDL_core.obj
 0001:000099d8       ?root_get_other_interface@RFrame_Button@frames@ui@modules@UModSys@@UEAAPEAUIRoot@core@5@PEBUSUniquePointerInfo@75@@Z 000000018000a9d8 f i umodsys_lib_libui:umodsys.mod.ui.frames.obj
 0001:000099d8       ?root_get_other_interface@RFrame_Button@frames@ui@modules@UModSys@@UEBAPEBUIRoot@core@5@PEBUSUniquePointerInfo@75@@Z 000000018000a9d8 f i umodsys_lib_libui:umodsys.mod.ui.frames.obj
 0001:00009a10       ?root_is_interface_supported@RFrame_Button@frames@ui@modules@UModSys@@UEBA_NPEBUSUniquePointerInfo@core@5@@Z 000000018000aa10 f i umodsys_lib_libui:umodsys.mod.ui.frames.obj
 0001:00009a48       ?ref_links@RFrame_Image@frames@ui@modules@UModSys@@UEBAHXZ 000000018000aa48 f i umodsys_lib_libui:umodsys.mod.ui.frames.obj
 0001:00009a48       ?ref_links@RFrame_Button@frames@ui@modules@UModSys@@UEBAHXZ 000000018000aa48 f i umodsys_lib_libui:umodsys.mod.ui.frames.obj
 0001:00009a48       ?ref_links@RFrame_Frame@frames@ui@modules@UModSys@@UEBAHXZ 000000018000aa48 f i umodsys_lib_libui:umodsys.mod.ui.frames.obj
 0001:00009a50       ?ref_weak@RFrame_Button@frames@ui@modules@UModSys@@UEBA_NAEAUWeakPointer@IRefObject@core@5@@Z 000000018000aa50 f i umodsys_lib_libui:umodsys.mod.ui.frames.obj
 0001:00009a50       ?ref_weak@RFrame_Image@frames@ui@modules@UModSys@@UEBA_NAEAUWeakPointer@IRefObject@core@5@@Z 000000018000aa50 f i umodsys_lib_libui:umodsys.mod.ui.frames.obj
 0001:00009a50       ?ref_weak@RFrame_Frame@frames@ui@modules@UModSys@@UEBA_NAEAUWeakPointer@IRefObject@core@5@@Z 000000018000aa50 f i umodsys_lib_libui:umodsys.mod.ui.frames.obj
 0001:00009a74       ?suicide@RFrame_Frame@frames@ui@modules@UModSys@@UEAAXXZ 000000018000aa74 f i umodsys_lib_libui:umodsys.mod.ui.frames.obj
 0001:00009a74       ?suicide@RFrame_Image@frames@ui@modules@UModSys@@UEAAXXZ 000000018000aa74 f i umodsys_lib_libui:umodsys.mod.ui.frames.obj
 0001:00009a74       ?suicide@RFrame_Button@frames@ui@modules@UModSys@@UEAAXXZ 000000018000aa74 f i umodsys_lib_libui:umodsys.mod.ui.frames.obj
 0001:00009abc       ?button_cmd@RFrame_Button@frames@ui@modules@UModSys@@MEAA_NPEAUSButton@2345@HH@Z 000000018000aabc f   umodsys_lib_libui:umodsys.mod.ui.frames.obj
 0001:00009b0c       ?button_draw@RFrame_Button@frames@ui@modules@UModSys@@MEAA_NPEAUSButton@2345@AEBUSDrawState@2345@H@Z 000000018000ab0c f   umodsys_lib_libui:umodsys.mod.ui.frames.obj
 0001:00009cd4       ?key_event@RFrame_Button@frames@ui@modules@UModSys@@MEAA_NAEBUSKeyboardInputRaw@libui@5@@Z 000000018000acd4 f   umodsys_lib_libui:umodsys.mod.ui.frames.obj
 0001:00009d28       ?mouse_event@RFrame_Button@frames@ui@modules@UModSys@@MEAA_NPEBUSMouseInput@libui@5@@Z 000000018000ad28 f   umodsys_lib_libui:umodsys.mod.ui.frames.obj
 0001:00009d44       ?draw_post@RFrame_Button@frames@ui@modules@UModSys@@MEAA_NAEBUSDrawState@2345@@Z 000000018000ad44 f   umodsys_lib_libui:umodsys.mod.ui.frames.obj
 0001:00009d5c       ?update_size@RFrame_Button@frames@ui@modules@UModSys@@MEAA_NAEBU?$TBoundBox2@H@math3d@5@@Z 000000018000ad5c f   umodsys_lib_libui:umodsys.mod.ui.frames.obj
 0001:00009d8c       ?set_fcp@RFrame_Button@frames@ui@modules@UModSys@@MEAA_NAEBUSFrameCreateParameters@libui@5@PEBUSParameters@core@5@@Z 000000018000ad8c f   umodsys_lib_libui:umodsys.mod.ui.frames.obj
 0001:00009e64       ??0RFrame_Button@frames@ui@modules@UModSys@@QEAA@PEAURCollector@1234@PEAURFrame_Common@1234@@Z 000000018000ae64 f   umodsys_lib_libui:umodsys.mod.ui.frames.obj
 0001:00009fe4       ??_GRFrame_Button@frames@ui@modules@UModSys@@UEAAPEAXI@Z 000000018000afe4 f i umodsys_lib_libui:umodsys.mod.ui.frames.obj
 0001:00009fe4       ??_ERFrame_Button@frames@ui@modules@UModSys@@UEAAPEAXI@Z 000000018000afe4 f i  CIL library: CIL module
 0001:0000a048       ?root_get_interface_info@RFrame_Edit@frames@ui@modules@UModSys@@UEBAAEBUSUniquePointerInfo@core@5@XZ 000000018000b048 f i umodsys_lib_libui:umodsys.mod.ui.frames.obj
 0001:0000a050       ?root_get_interface_type@RFrame_Edit@frames@ui@modules@UModSys@@UEBAPEBUSUniquePointerInfo@core@5@XZ 000000018000b050 f i umodsys_lib_libui:umodsys.mod.ui.frames.obj
 0001:0000a058       ?root_get_other_interface@RFrame_Edit@frames@ui@modules@UModSys@@UEBAPEBUIRoot@core@5@PEBUSUniquePointerInfo@75@@Z 000000018000b058 f i umodsys_lib_libui:umodsys.mod.ui.frames.obj
 0001:0000a058       ?root_get_other_interface@RFrame_Edit@frames@ui@modules@UModSys@@UEAAPEAUIRoot@core@5@PEBUSUniquePointerInfo@75@@Z 000000018000b058 f i umodsys_lib_libui:umodsys.mod.ui.frames.obj
 0001:0000a090       ?root_is_interface_supported@RFrame_Edit@frames@ui@modules@UModSys@@UEBA_NPEBUSUniquePointerInfo@core@5@@Z 000000018000b090 f i umodsys_lib_libui:umodsys.mod.ui.frames.obj
 0001:0000a0c8       ?ref_add@RFrame_Text@frames@ui@modules@UModSys@@UEBAXXZ 000000018000b0c8 f i umodsys_lib_libui:umodsys.mod.ui.frames.obj
 0001:0000a0c8       ?ref_add@RFrame_Edit@frames@ui@modules@UModSys@@UEBAXXZ 000000018000b0c8 f i umodsys_lib_libui:umodsys.mod.ui.frames.obj
 0001:0000a0d0       ?ref_remove@RFrame_Text@frames@ui@modules@UModSys@@UEBAXXZ 000000018000b0d0 f i umodsys_lib_libui:umodsys.mod.ui.frames.obj
 0001:0000a0d0       ?ref_remove@RFrame_Edit@frames@ui@modules@UModSys@@UEBAXXZ 000000018000b0d0 f i umodsys_lib_libui:umodsys.mod.ui.frames.obj
 0001:0000a0e8       ?suicide@RFrame_Text@frames@ui@modules@UModSys@@UEAAXXZ 000000018000b0e8 f i umodsys_lib_libui:umodsys.mod.ui.frames.obj
 0001:0000a0e8       ?suicide@RFrame_Edit@frames@ui@modules@UModSys@@UEAAXXZ 000000018000b0e8 f i umodsys_lib_libui:umodsys.mod.ui.frames.obj
 0001:0000a130       ?get_cids@RFrame_Edit@frames@ui@modules@UModSys@@UEAA?AU?$TString@U?$TSCoreConst@D@su@tl@UModSys@@U?$TComparerBinaryHash@D@234@@tl@5@XZ 000000018000b130 f i umodsys_lib_libui:umodsys.mod.ui.frames.obj
 0001:0000a154       ?get_cidn@RFrame_Edit@frames@ui@modules@UModSys@@UEAAHXZ 000000018000b154 f i umodsys_lib_libui:umodsys.mod.ui.frames.obj
 0001:0000a15c       ?key_event@RFrame_Edit@frames@ui@modules@UModSys@@MEAA_NAEBUSKeyboardInputRaw@libui@5@@Z 000000018000b15c f   umodsys_lib_libui:umodsys.mod.ui.frames.obj
 0001:0000a20c       ?key_event@RFrame_Edit@frames@ui@modules@UModSys@@MEAA_NAEBUSKeyboardInputText@libui@5@@Z 000000018000b20c f   umodsys_lib_libui:umodsys.mod.ui.frames.obj
 0001:0000a2d4       ?mouse_event@RFrame_Edit@frames@ui@modules@UModSys@@MEAA_NPEBUSMouseInput@libui@5@@Z 000000018000b2d4 f   umodsys_lib_libui:umodsys.mod.ui.frames.obj
 0001:0000a340       ?draw_post@RFrame_Edit@frames@ui@modules@UModSys@@MEAA_NAEBUSDrawState@2345@@Z 000000018000b340 f   umodsys_lib_libui:umodsys.mod.ui.frames.obj
 0001:0000a578       ?set_fcp@RFrame_Edit@frames@ui@modules@UModSys@@MEAA_NAEBUSFrameCreateParameters@libui@5@PEBUSParameters@core@5@@Z 000000018000b578 f   umodsys_lib_libui:umodsys.mod.ui.frames.obj
 0001:0000a5f8       ?set_value@RFrame_Edit@frames@ui@modules@UModSys@@UEAA_NHAEBUSFrameDataIn@libui@5@@Z 000000018000b5f8 f   umodsys_lib_libui:umodsys.mod.ui.frames.obj
 0001:0000a654       ?get_value@RFrame_Edit@frames@ui@modules@UModSys@@UEAA_NHAEBUSFrameDataOut@libui@5@@Z 000000018000b654 f   umodsys_lib_libui:umodsys.mod.ui.frames.obj
 0001:0000a70c       ?update_last@RFrame_Edit@frames@ui@modules@UModSys@@IEAA_NXZ 000000018000b70c f   umodsys_lib_libui:umodsys.mod.ui.frames.obj
 0001:0000a920       ?set_buf@RFrame_Edit@frames@ui@modules@UModSys@@IEAA_NPEBDH@Z 000000018000b920 f   umodsys_lib_libui:umodsys.mod.ui.frames.obj
 0001:0000ab24       ?sdelete@RFrame_Edit@frames@ui@modules@UModSys@@IEAA_NHH@Z 000000018000bb24 f   umodsys_lib_libui:umodsys.mod.ui.frames.obj
 0001:0000abc0       ??0RFrame_Edit@frames@ui@modules@UModSys@@QEAA@PEAURCollector@1234@PEAURFrame_Common@1234@@Z 000000018000bbc0 f   umodsys_lib_libui:umodsys.mod.ui.frames.obj
 0001:0000ace4       ??_GRFrame_Edit@frames@ui@modules@UModSys@@UEAAPEAXI@Z 000000018000bce4 f i umodsys_lib_libui:umodsys.mod.ui.frames.obj
 0001:0000ace4       ??_ERFrame_Edit@frames@ui@modules@UModSys@@UEAAPEAXI@Z 000000018000bce4 f i  CIL library: CIL module
 0001:0000ad7c       ??1?$TStringBuf@U?$TSCoreShared@USIMemAlloc@core@UModSys@@D@su@tl@UModSys@@U?$TComparerBinaryHash@D@234@@tl@UModSys@@QEAA@XZ 000000018000bd7c f i umodsys_lib_libui:umodsys.mod.ui.frames.obj
 0001:0000ad84       ?root_get_interface_info@RFrame_List@frames@ui@modules@UModSys@@UEBAAEBUSUniquePointerInfo@core@5@XZ 000000018000bd84 f i umodsys_lib_libui:umodsys.mod.ui.frames.obj
 0001:0000ad8c       ?root_get_interface_type@RFrame_List@frames@ui@modules@UModSys@@UEBAPEBUSUniquePointerInfo@core@5@XZ 000000018000bd8c f i umodsys_lib_libui:umodsys.mod.ui.frames.obj
 0001:0000ad94       ?root_get_other_interface@RFrame_List@frames@ui@modules@UModSys@@UEAAPEAUIRoot@core@5@PEBUSUniquePointerInfo@75@@Z 000000018000bd94 f i umodsys_lib_libui:umodsys.mod.ui.frames.obj
 0001:0000ad94       ?root_get_other_interface@RFrame_List@frames@ui@modules@UModSys@@UEBAPEBUIRoot@core@5@PEBUSUniquePointerInfo@75@@Z 000000018000bd94 f i umodsys_lib_libui:umodsys.mod.ui.frames.obj
 0001:0000adcc       ?root_is_interface_supported@RFrame_List@frames@ui@modules@UModSys@@UEBA_NPEBUSUniquePointerInfo@core@5@@Z 000000018000bdcc f i umodsys_lib_libui:umodsys.mod.ui.frames.obj
 0001:0000ae04       ?ref_add@RFrame_List@frames@ui@modules@UModSys@@UEBAXXZ 000000018000be04 f i umodsys_lib_libui:umodsys.mod.ui.frames.obj
 0001:0000ae0c       ?ref_remove@RFrame_List@frames@ui@modules@UModSys@@UEBAXXZ 000000018000be0c f i umodsys_lib_libui:umodsys.mod.ui.frames.obj
 0001:0000ae24       ?ref_links@RFrame_List@frames@ui@modules@UModSys@@UEBAHXZ 000000018000be24 f i umodsys_lib_libui:umodsys.mod.ui.frames.obj
 0001:0000ae2c       ?ref_weak@RFrame_List@frames@ui@modules@UModSys@@UEBA_NAEAUWeakPointer@IRefObject@core@5@@Z 000000018000be2c f i umodsys_lib_libui:umodsys.mod.ui.frames.obj
 0001:0000ae50       ?suicide@RFrame_List@frames@ui@modules@UModSys@@UEAAXXZ 000000018000be50 f i umodsys_lib_libui:umodsys.mod.ui.frames.obj
 0001:0000ae98       ?get_cids@RFrame_Text@frames@ui@modules@UModSys@@UEAA?AU?$TString@U?$TSCoreConst@D@su@tl@UModSys@@U?$TComparerBinaryHash@D@234@@tl@5@XZ 000000018000be98 f i umodsys_lib_libui:umodsys.mod.ui.frames.obj
 0001:0000ae98       ?get_cids@RFrame_List@frames@ui@modules@UModSys@@UEAA?AU?$TString@U?$TSCoreConst@D@su@tl@UModSys@@U?$TComparerBinaryHash@D@234@@tl@5@XZ 000000018000be98 f i umodsys_lib_libui:umodsys.mod.ui.frames.obj
 0001:0000ae98       ?get_cids@RFrame_Button@frames@ui@modules@UModSys@@UEAA?AU?$TString@U?$TSCoreConst@D@su@tl@UModSys@@U?$TComparerBinaryHash@D@234@@tl@5@XZ 000000018000be98 f i umodsys_lib_libui:umodsys.mod.ui.frames.obj
 0001:0000aebc       ?get_cidn@RFrame_Button@frames@ui@modules@UModSys@@UEAAHXZ 000000018000bebc f i umodsys_lib_libui:umodsys.mod.ui.frames.obj
 0001:0000aebc       ?get_cidn@RFrame_List@frames@ui@modules@UModSys@@UEAAHXZ 000000018000bebc f i umodsys_lib_libui:umodsys.mod.ui.frames.obj
 0001:0000aebc       ?get_cidn@RFrame_Text@frames@ui@modules@UModSys@@UEAAHXZ 000000018000bebc f i umodsys_lib_libui:umodsys.mod.ui.frames.obj
 0001:0000aec4       ?get_data@RFrame_Edit@frames@ui@modules@UModSys@@UEAAPEAUIFrameData@libui@5@XZ 000000018000bec4 f i umodsys_lib_libui:umodsys.mod.ui.frames.obj
 0001:0000aec4       ?get_list@RFrame_List@frames@ui@modules@UModSys@@UEAAPEAUIFrameList@libui@5@XZ 000000018000bec4 f i umodsys_lib_libui:umodsys.mod.ui.frames.obj
 0001:0000aec4       ?get_data@RFrame_Text@frames@ui@modules@UModSys@@UEAAPEAUIFrameData@libui@5@XZ 000000018000bec4 f i umodsys_lib_libui:umodsys.mod.ui.frames.obj
 0001:0000aed4       ?get_data@RFrame_List@frames@ui@modules@UModSys@@UEAAPEAUIFrameData@libui@5@XZ 000000018000bed4 f i umodsys_lib_libui:umodsys.mod.ui.frames.obj
 0001:0000aee4       ?get_list@RFrame_Image@frames@ui@modules@UModSys@@UEAAPEAUIFrameList@libui@5@XZ 000000018000bee4 f i umodsys_lib_libui:umodsys.mod.ui.frames.obj
 0001:0000aee4       ?get_hwcinfo@RImage_Memory@stdlib@lib2d@modules@UModSys@@UEBAPEBXPEBUSUniquePointerInfo@core@5@@Z 000000018000bee4 f i umodsys_lib_lib2d:umodsys.mod.2d.stdlib.obj
 0001:0000aee4       ?get_ctrlcmd@RFrame_Image@frames@ui@modules@UModSys@@UEAAPEAUIControllerCommand@libui@5@XZ 000000018000bee4 f i umodsys_lib_libui:umodsys.mod.ui.frames.obj
 0001:0000aee4       ?get_up_theme@RCollector@frames@ui@modules@UModSys@@UEAAPEAUICollectorTheme@libui@5@XZ 000000018000bee4 f i umodsys_lib_libui:umodsys.mod.ui.frames.obj
 0001:0000aee4       ?get_ctrldata@RFrame_Frame@frames@ui@modules@UModSys@@UEAAPEAUIControllerData@libui@5@XZ 000000018000bee4 f i umodsys_lib_libui:umodsys.mod.ui.frames.obj
 0001:0000aee4       ?get_ctrlcmd@RFrame_Frame@frames@ui@modules@UModSys@@UEAAPEAUIControllerCommand@libui@5@XZ 000000018000bee4 f i umodsys_lib_libui:umodsys.mod.ui.frames.obj
 0001:0000aee4       ?get_controller@RRenderDriver2D@SDL_core@ui@modules@UModSys@@UEBAPEAUIRefObject@core@5@PEBUSUniquePointerInfo@75@@Z 000000018000bee4 f i umodsys_lib_libui:umodsys.mod.ui.SDL_core.obj
 0001:0000aee4       ?get_ctrldata@RFrame_Image@frames@ui@modules@UModSys@@UEAAPEAUIControllerData@libui@5@XZ 000000018000bee4 f i umodsys_lib_libui:umodsys.mod.ui.frames.obj
 0001:0000aee4       ?get_hwinfo@RImage_Memory@stdlib@lib2d@modules@UModSys@@UEAAPEAXPEBUSUniquePointerInfo@core@5@@Z 000000018000bee4 f i umodsys_lib_lib2d:umodsys.mod.2d.stdlib.obj
 0001:0000aee4       ?get_ctrldata@RFrame_List@frames@ui@modules@UModSys@@UEAAPEAUIControllerData@libui@5@XZ 000000018000bee4 f i umodsys_lib_libui:umodsys.mod.ui.frames.obj
 0001:0000aee4       ?get_ctrldata@RFrame_Text@frames@ui@modules@UModSys@@UEAAPEAUIControllerData@libui@5@XZ 000000018000bee4 f i umodsys_lib_libui:umodsys.mod.ui.frames.obj
 0001:0000aee4       ?get_ctrlcmd@RFrame_Text@frames@ui@modules@UModSys@@UEAAPEAUIControllerCommand@libui@5@XZ 000000018000bee4 f i umodsys_lib_libui:umodsys.mod.ui.frames.obj
 0001:0000aee4       ?get_ctrldata@RFrame_Button@frames@ui@modules@UModSys@@UEAAPEAUIControllerData@libui@5@XZ 000000018000bee4 f i umodsys_lib_libui:umodsys.mod.ui.frames.obj
 0001:0000aee4       ?get_ctrlcmd@RFrame_List@frames@ui@modules@UModSys@@UEAAPEAUIControllerCommand@libui@5@XZ 000000018000bee4 f i umodsys_lib_libui:umodsys.mod.ui.frames.obj
 0001:0000aee4       ?get_ctrlcmd@RFrame_Edit@frames@ui@modules@UModSys@@UEAAPEAUIControllerCommand@libui@5@XZ 000000018000bee4 f i umodsys_lib_libui:umodsys.mod.ui.frames.obj
 0001:0000aee4       ?get_list@RFrame_Edit@frames@ui@modules@UModSys@@UEAAPEAUIFrameList@libui@5@XZ 000000018000bee4 f i umodsys_lib_libui:umodsys.mod.ui.frames.obj
 0001:0000aee4       ?get_layer_count@RMultiImage2D_SDL_ttf@SDL_core@ui@modules@UModSys@@UEBAGXZ 000000018000bee4 f i umodsys_lib_libui:umodsys.mod.ui.SDL_core.obj
 0001:0000aee4       ?get_cell_count@RMultiImage2D_SDL_ttf@SDL_core@ui@modules@UModSys@@UEBAIXZ 000000018000bee4 f i umodsys_lib_libui:umodsys.mod.ui.SDL_core.obj
 0001:0000aee4       ?get_list@RFrame_Button@frames@ui@modules@UModSys@@UEAAPEAUIFrameList@libui@5@XZ 000000018000bee4 f i umodsys_lib_libui:umodsys.mod.ui.frames.obj
 0001:0000aee4       ?get_sub@RFrame_Common@frames@ui@modules@UModSys@@UEAAPEAUIFrame@libui@5@PEAU675@H@Z 000000018000bee4 f i umodsys_lib_libui:umodsys.mod.ui.frames.obj
 0001:0000aee4       ?get_data@RFrame_Image@frames@ui@modules@UModSys@@UEAAPEAUIFrameData@libui@5@XZ 000000018000bee4 f i umodsys_lib_libui:umodsys.mod.ui.frames.obj
 0001:0000aee4       ?get_list@RFrame_Text@frames@ui@modules@UModSys@@UEAAPEAUIFrameList@libui@5@XZ 000000018000bee4 f i umodsys_lib_libui:umodsys.mod.ui.frames.obj
 0001:0000aee4       ?get_ctrldata@RFrame_Edit@frames@ui@modules@UModSys@@UEAAPEAUIControllerData@libui@5@XZ 000000018000bee4 f i umodsys_lib_libui:umodsys.mod.ui.frames.obj
 0001:0000aee4       ?get_layer@RMultiImage2D_SDL_ttf@SDL_core@ui@modules@UModSys@@UEBAPEAUIImage@lib2d@5@G@Z 000000018000bee4 f i umodsys_lib_libui:umodsys.mod.ui.SDL_core.obj
 0001:0000aee4       ?get_data@RFrame_Frame@frames@ui@modules@UModSys@@UEAAPEAUIFrameData@libui@5@XZ 000000018000bee4 f i umodsys_lib_libui:umodsys.mod.ui.frames.obj
 0001:0000aee4       ?get_list@RFrame_Frame@frames@ui@modules@UModSys@@UEAAPEAUIFrameList@libui@5@XZ 000000018000bee4 f i umodsys_lib_libui:umodsys.mod.ui.frames.obj
 0001:0000aee4       ?get_friend_handler@RTerminal@SDL_core@ui@modules@UModSys@@UEBAPEAUIRefObject@core@5@PEBUSUniquePointerInfo@75@PEAU675@@Z 000000018000bee4 f i umodsys_lib_libui:umodsys.mod.ui.SDL_core.obj
 0001:0000aee4       ?get_ctrlcmd@RFrame_Button@frames@ui@modules@UModSys@@UEAAPEAUIControllerCommand@libui@5@XZ 000000018000bee4 f i umodsys_lib_libui:umodsys.mod.ui.frames.obj
 0001:0000aee4       ?get_handler@RTerminal@SDL_core@ui@modules@UModSys@@UEBAPEAUIRefObject@core@5@PEBUSUniquePointerInfo@75@PEBD@Z 000000018000bee4 f i umodsys_lib_libui:umodsys.mod.ui.SDL_core.obj
 0001:0000aee4       ?get_data@RFrame_Button@frames@ui@modules@UModSys@@UEAAPEAUIFrameData@libui@5@XZ 000000018000bee4 f i umodsys_lib_libui:umodsys.mod.ui.frames.obj
 0001:0000aee8       ?button_cmd@RFrame_List@frames@ui@modules@UModSys@@MEAA_NPEAUSButton@2345@HH@Z 000000018000bee8 f   umodsys_lib_libui:umodsys.mod.ui.frames.obj
 0001:0000affc       ?button_draw@RFrame_List@frames@ui@modules@UModSys@@MEAA_NPEAUSButton@2345@AEBUSDrawState@2345@H@Z 000000018000bffc f   umodsys_lib_libui:umodsys.mod.ui.frames.obj
 0001:0000b128       ?key_event@RFrame_List@frames@ui@modules@UModSys@@MEAA_NAEBUSKeyboardInputRaw@libui@5@@Z 000000018000c128 f   umodsys_lib_libui:umodsys.mod.ui.frames.obj
 0001:0000b1b0       ?mouse_event@RFrame_List@frames@ui@modules@UModSys@@MEAA_NPEBUSMouseInput@libui@5@@Z 000000018000c1b0 f   umodsys_lib_libui:umodsys.mod.ui.frames.obj
 0001:0000b340       ?draw_post@RFrame_List@frames@ui@modules@UModSys@@MEAA_NAEBUSDrawState@2345@@Z 000000018000c340 f   umodsys_lib_libui:umodsys.mod.ui.frames.obj
 0001:0000b9bc       ?update_size@RFrame_List@frames@ui@modules@UModSys@@MEAA_NAEBU?$TBoundBox2@H@math3d@5@@Z 000000018000c9bc f   umodsys_lib_libui:umodsys.mod.ui.frames.obj
 0001:0000ba20       ?set_fcp@RFrame_List@frames@ui@modules@UModSys@@MEAA_NAEBUSFrameCreateParameters@libui@5@PEBUSParameters@core@5@@Z 000000018000ca20 f   umodsys_lib_libui:umodsys.mod.ui.frames.obj
 0001:0000bb5c       ?controller_update@RFrame_List@frames@ui@modules@UModSys@@UEAA_NXZ 000000018000cb5c f   umodsys_lib_libui:umodsys.mod.ui.frames.obj
 0001:0000bc78       ?set_lcount@RFrame_List@frames@ui@modules@UModSys@@UEAA_NH@Z 000000018000cc78 f   umodsys_lib_libui:umodsys.mod.ui.frames.obj
 0001:0000bcbc       ?get_lcount@RFrame_List@frames@ui@modules@UModSys@@UEAAHXZ 000000018000ccbc f   umodsys_lib_libui:umodsys.mod.ui.frames.obj
 0001:0000bccc       ?set_lvalue@RFrame_List@frames@ui@modules@UModSys@@UEAA_NHHAEBUSFrameDataIn@libui@5@@Z 000000018000cccc f   umodsys_lib_libui:umodsys.mod.ui.frames.obj
 0001:0000bdc0       ?get_lvalue@RFrame_List@frames@ui@modules@UModSys@@UEAA_NHHAEBUSFrameDataOut@libui@5@@Z 000000018000cdc0 f   umodsys_lib_libui:umodsys.mod.ui.frames.obj
 0001:0000becc       ?set_value@RFrame_List@frames@ui@modules@UModSys@@UEAA_NHAEBUSFrameDataIn@libui@5@@Z 000000018000cecc f   umodsys_lib_libui:umodsys.mod.ui.frames.obj
 0001:0000bef4       ?get_value@RFrame_List@frames@ui@modules@UModSys@@UEAA_NHAEBUSFrameDataOut@libui@5@@Z 000000018000cef4 f   umodsys_lib_libui:umodsys.mod.ui.frames.obj
 0001:0000bf18       ?sselect@RFrame_List@frames@ui@modules@UModSys@@IEAA_NH@Z 000000018000cf18 f   umodsys_lib_libui:umodsys.mod.ui.frames.obj
 0001:0000bf80       ??0RFrame_List@frames@ui@modules@UModSys@@QEAA@PEAURCollector@1234@PEAURFrame_Common@1234@@Z 000000018000cf80 f   umodsys_lib_libui:umodsys.mod.ui.frames.obj
 0001:0000c240       ??_ERFrame_List@frames@ui@modules@UModSys@@UEAAPEAXI@Z 000000018000d240 f i  CIL library: CIL module
 0001:0000c240       ??_GRFrame_List@frames@ui@modules@UModSys@@UEAAPEAXI@Z 000000018000d240 f i umodsys_lib_libui:umodsys.mod.ui.frames.obj
 0001:0000c338       ?root_get_interface_info@RCollector@frames@ui@modules@UModSys@@UEBAAEBUSUniquePointerInfo@core@5@XZ 000000018000d338 f i umodsys_lib_libui:umodsys.mod.ui.frames.obj
 0001:0000c340       ?root_get_interface_type@RCollector@frames@ui@modules@UModSys@@UEBAPEBUSUniquePointerInfo@core@5@XZ 000000018000d340 f i umodsys_lib_libui:umodsys.mod.ui.frames.obj
 0001:0000c348       ?root_get_other_interface@RCollector@frames@ui@modules@UModSys@@UEBAPEBUIRoot@core@5@PEBUSUniquePointerInfo@75@@Z 000000018000d348 f i umodsys_lib_libui:umodsys.mod.ui.frames.obj
 0001:0000c348       ?root_get_other_interface@RCollector@frames@ui@modules@UModSys@@UEAAPEAUIRoot@core@5@PEBUSUniquePointerInfo@75@@Z 000000018000d348 f i umodsys_lib_libui:umodsys.mod.ui.frames.obj
 0001:0000c378       ?root_is_interface_supported@RCollector@frames@ui@modules@UModSys@@UEBA_NPEBUSUniquePointerInfo@core@5@@Z 000000018000d378 f i umodsys_lib_libui:umodsys.mod.ui.frames.obj
 0001:0000c3a8       ?ref_add@RCollector@frames@ui@modules@UModSys@@UEBAXXZ 000000018000d3a8 f i umodsys_lib_libui:umodsys.mod.ui.frames.obj
 0001:0000c3ac       ?ref_remove@RCollector@frames@ui@modules@UModSys@@UEBAXXZ 000000018000d3ac f i umodsys_lib_libui:umodsys.mod.ui.frames.obj
 0001:0000c3c4       ?ref_links@RCollector@frames@ui@modules@UModSys@@UEBAHXZ 000000018000d3c4 f i umodsys_lib_libui:umodsys.mod.ui.frames.obj
 0001:0000c3c8       ?ref_weak@RCollector@frames@ui@modules@UModSys@@UEBA_NAEAUWeakPointer@IRefObject@core@5@@Z 000000018000d3c8 f i umodsys_lib_libui:umodsys.mod.ui.frames.obj
 0001:0000c3e8       ?suicide@RCollector@frames@ui@modules@UModSys@@UEAAXXZ 000000018000d3e8 f i umodsys_lib_libui:umodsys.mod.ui.frames.obj
 0001:0000c434       ?broadcast@RCollector@frames@ui@modules@UModSys@@UEAAHHAEBUSFrameDataIn@libui@5@H@Z 000000018000d434 f i umodsys_lib_libui:umodsys.mod.ui.frames.obj
 0001:0000c458       ?frame_create_n@RCollector@frames@ui@modules@UModSys@@UEAAPEAUIFrame@libui@5@HAEBUSFrameCreateParameters@75@PEBUSParameters@core@5@@Z 000000018000d458 f   umodsys_lib_libui:umodsys.mod.ui.frames.obj
 0001:0000c798       ?frame_create_s@RCollector@frames@ui@modules@UModSys@@UEAAPEAUIFrame@libui@5@AEBU?$TString@U?$TSCoreConst@D@su@tl@UModSys@@U?$TComparerBinaryHash@D@234@@tl@5@AEBUSFrameCreateParameters@75@PEBUSParameters@core@5@@Z 000000018000d798 f   umodsys_lib_libui:umodsys.mod.ui.frames.obj
 0001:0000cbf8       ?output_process@RCollector@frames@ui@modules@UModSys@@UEAA_NXZ 000000018000dbf8 f   umodsys_lib_libui:umodsys.mod.ui.frames.obj
 0001:0000cd30       ?output_attach_2d@RCollector@frames@ui@modules@UModSys@@UEAA_NPEAUIRenderDriver@lib2d@5@H@Z 000000018000dd30 f   umodsys_lib_libui:umodsys.mod.ui.frames.obj
 0001:0000cd74       ?input_process@RCollector@frames@ui@modules@UModSys@@UEAA_NH@Z 000000018000dd74 f   umodsys_lib_libui:umodsys.mod.ui.frames.obj
 0001:0000cd94       ?input_attach_m@RCollector@frames@ui@modules@UModSys@@UEAA_NPEAUIMouseController@libui@5@H@Z 000000018000dd94 f   umodsys_lib_libui:umodsys.mod.ui.frames.obj
 0001:0000ce28       ?input_attach_k@RCollector@frames@ui@modules@UModSys@@UEAA_NPEAUIKeyboardController@libui@5@H@Z 000000018000de28 f   umodsys_lib_libui:umodsys.mod.ui.frames.obj
 0001:0000cea4       ?shutdown@RCollector@frames@ui@modules@UModSys@@UEAA_NXZ 000000018000dea4 f   umodsys_lib_libui:umodsys.mod.ui.frames.obj
 0001:0000cf60       ?mouse_event@RCollector@frames@ui@modules@UModSys@@UEAA_NAEBUSMouseInput@libui@5@@Z 000000018000df60 f   umodsys_lib_libui:umodsys.mod.ui.frames.obj
 0001:0000cffc       ?key_pressed@RCollector@frames@ui@modules@UModSys@@UEAA_NAEBUSKeyboardInputRaw@libui@5@@Z 000000018000dffc f   umodsys_lib_libui:umodsys.mod.ui.frames.obj
 0001:0000d050       ?key_text@RCollector@frames@ui@modules@UModSys@@UEAA_NAEBUSKeyboardInputText@libui@5@@Z 000000018000e050 f   umodsys_lib_libui:umodsys.mod.ui.frames.obj
 0001:0000d08c       ?insert@RCollector@frames@ui@modules@UModSys@@IEAA_NPEAURFrame_Common@2345@0@Z 000000018000e08c f   umodsys_lib_libui:umodsys.mod.ui.frames.obj
 0001:0000d108       ?evmouse@RCollector@frames@ui@modules@UModSys@@IEAA_NAEBU?$TBoundBox2@H@math3d@5@AEBU?$TDynarrayDynamic@U?$TRefObject@URFrame_Common@frames@ui@modules@UModSys@@U?$TRefObjectFunc@URFrame_Common@frames@ui@modules@UModSys@@@tl@5@@tl@UModSys@@U?$TAllocator@USIMemAlloc@core@UModSys@@USCountCalcPower2@23@@23@@tl@5@AEBUSMouseInput@libui@5@PEAURFrame_Common@2345@@Z 000000018000e108 f   umodsys_lib_libui:umodsys.mod.ui.frames.obj
 0001:0000d2c0       ?evmouse@RCollector@frames@ui@modules@UModSys@@IEAA_NAEBU?$TDynarrayDynamic@U?$TRefObject@URFrame_Common@frames@ui@modules@UModSys@@U?$TRefObjectFunc@URFrame_Common@frames@ui@modules@UModSys@@@tl@5@@tl@UModSys@@U?$TAllocator@USIMemAlloc@core@UModSys@@USCountCalcPower2@23@@23@@tl@5@@Z 000000018000e2c0 f   umodsys_lib_libui:umodsys.mod.ui.frames.obj
 0001:0000d358       ?draw@RCollector@frames@ui@modules@UModSys@@IEAA_NAEBUSDrawState@2345@AEBU?$TDynarrayDynamic@U?$TRefObject@URFrame_Common@frames@ui@modules@UModSys@@U?$TRefObjectFunc@URFrame_Common@frames@ui@modules@UModSys@@@tl@5@@tl@UModSys@@U?$TAllocator@USIMemAlloc@core@UModSys@@USCountCalcPower2@23@@23@@tl@5@@Z 000000018000e358 f   umodsys_lib_libui:umodsys.mod.ui.frames.obj
 0001:0000d438       ?broadcast@RCollector@frames@ui@modules@UModSys@@IEAAHAEBU?$TDynarrayDynamic@U?$TRefObject@URFrame_Common@frames@ui@modules@UModSys@@U?$TRefObjectFunc@URFrame_Common@frames@ui@modules@UModSys@@@tl@5@@tl@UModSys@@U?$TAllocator@USIMemAlloc@core@UModSys@@USCountCalcPower2@23@@23@@tl@5@HAEBUSFrameDataIn@libui@5@H@Z 000000018000e438 f   umodsys_lib_libui:umodsys.mod.ui.frames.obj
 0001:0000d510       ?update_size@RCollector@frames@ui@modules@UModSys@@IEAA_NXZ 000000018000e510 f   umodsys_lib_libui:umodsys.mod.ui.frames.obj
 0001:0000d718       ?update_size@RCollector@frames@ui@modules@UModSys@@IEAA_NAEBU?$TBoundBox2@H@math3d@5@AEBU?$TDynarrayDynamic@U?$TRefObject@URFrame_Common@frames@ui@modules@UModSys@@U?$TRefObjectFunc@URFrame_Common@frames@ui@modules@UModSys@@@tl@5@@tl@UModSys@@U?$TAllocator@USIMemAlloc@core@UModSys@@USCountCalcPower2@23@@23@@tl@5@_N@Z 000000018000e718 f   umodsys_lib_libui:umodsys.mod.ui.frames.obj
 0001:0000d7b4       ?set_focused@RCollector@frames@ui@modules@UModSys@@IEAA_NPEAUIFrame@libui@5@@Z 000000018000e7b4 f   umodsys_lib_libui:umodsys.mod.ui.frames.obj
 0001:0000d834       ?get_focused@RCollector@frames@ui@modules@UModSys@@IEAAPEAURFrame_Common@2345@XZ 000000018000e834 f   umodsys_lib_libui:umodsys.mod.ui.frames.obj
 0001:0000d880       ?find_next_focused@RCollector@frames@ui@modules@UModSys@@IEAAPEAURFrame_Common@2345@PEAU62345@0_N@Z 000000018000e880 f   umodsys_lib_libui:umodsys.mod.ui.frames.obj
 0001:0000dac0       ?master_key_pressed@RCollector@frames@ui@modules@UModSys@@IEAA_NAEBUSKeyboardInputRaw@libui@5@@Z 000000018000eac0 f   umodsys_lib_libui:umodsys.mod.ui.frames.obj
 0001:0000db60       ??0RCollector@frames@ui@modules@UModSys@@QEAA@PEAUIModObject@base@4@AEBUSParameters@core@4@@Z 000000018000eb60 f   umodsys_lib_libui:umodsys.mod.ui.frames.obj
 0001:0000e238       ??_ERCollector@frames@ui@modules@UModSys@@UEAAPEAXI@Z 000000018000f238 f i  CIL library: CIL module
 0001:0000e238       ??_GRCollector@frames@ui@modules@UModSys@@UEAAPEAXI@Z 000000018000f238 f i umodsys_lib_libui:umodsys.mod.ui.frames.obj
 0001:0000e268       ??1RCollector@frames@ui@modules@UModSys@@UEAA@XZ 000000018000f268 f   umodsys_lib_libui:umodsys.mod.ui.frames.obj
 0001:0000e480       ?dialog_open@RCollector@frames@ui@modules@UModSys@@UEAAPEAUIDialog@libui@5@PEAUIFrame@75@@Z 000000018000f480 f   umodsys_lib_libui:umodsys.mod.ui.frames.obj
 0001:0000e680       ?dialog_get@RCollector@frames@ui@modules@UModSys@@UEAAPEAUIDialog@libui@5@XZ 000000018000f680 f   umodsys_lib_libui:umodsys.mod.ui.frames.obj
 0001:0000e6a4       ?dialog_close@RCollector@frames@ui@modules@UModSys@@UEAA_NXZ 000000018000f6a4 f   umodsys_lib_libui:umodsys.mod.ui.frames.obj
 0001:0000e7a8       ?dialog_close_all@RCollector@frames@ui@modules@UModSys@@UEAA_NXZ 000000018000f7a8 f   umodsys_lib_libui:umodsys.mod.ui.frames.obj
 0001:0000e87c       ?get_up_theme@RFrame_Common@frames@ui@modules@UModSys@@UEAAPEAUICollectorTheme@libui@5@XZ 000000018000f87c f i umodsys_lib_libui:umodsys.mod.ui.frames.obj
 0001:0000e89c       ?get_collector@RFrame_Common@frames@ui@modules@UModSys@@UEAAPEAUICollector@libui@5@XZ 000000018000f89c f   umodsys_lib_libui:umodsys.mod.ui.frames.obj
 0001:0000e8a4       ?draw_sub@RFrame_Common@frames@ui@modules@UModSys@@MEAA_NAEBUSDrawState@2345@@Z 000000018000f8a4 f   umodsys_lib_libui:umodsys.mod.ui.frames.obj
 0001:0000e8b8       ?set_focus@RFrame_Common@frames@ui@modules@UModSys@@MEAA_N_N@Z 000000018000f8b8 f   umodsys_lib_libui:umodsys.mod.ui.frames.obj
 0001:0000e94c       ?cont_prev@RFrame_Common@frames@ui@modules@UModSys@@IEAAPEAU12345@PEAU12345@@Z 000000018000f94c f   umodsys_lib_libui:umodsys.mod.ui.frames.obj
 0001:0000e9f4       ?cont_next@RFrame_Common@frames@ui@modules@UModSys@@IEAAPEAU12345@PEAU12345@@Z 000000018000f9f4 f   umodsys_lib_libui:umodsys.mod.ui.frames.obj
 0001:0000ea9c       ?close@RDialog@frames@ui@modules@UModSys@@UEAA_NXZ 000000018000fa9c f   umodsys_lib_libui:umodsys.mod.ui.frames.obj
 0001:0000ead0       ?mouse@SButton@frames@ui@modules@UModSys@@QEAA_NPEBUSMouseInput@libui@5@@Z 000000018000fad0 f   umodsys_lib_libui:umodsys.mod.ui.frames.obj
 0001:0000ec50       ?draw@SButton@frames@ui@modules@UModSys@@QEAA_NAEBUSDrawState@2345@@Z 000000018000fc50 f   umodsys_lib_libui:umodsys.mod.ui.frames.obj
 0001:0000ed34       ?draw_text@SButton@frames@ui@modules@UModSys@@QEAA_NAEBUSDrawState@2345@AEBU?$TString@U?$TSCoreConst@D@su@tl@UModSys@@U?$TComparerBinaryHash@D@234@@tl@5@HH@Z 000000018000fd34 f i umodsys_lib_libui:umodsys.mod.ui.frames.obj
 0001:0000ee98       ?draw_arrow@SButton@frames@ui@modules@UModSys@@QEAA_NAEBUSDrawState@2345@HHH@Z 000000018000fe98 f   umodsys_lib_libui:umodsys.mod.ui.frames.obj
 0001:0000ef90       ?draw_progress@SButton@frames@ui@modules@UModSys@@QEAA_NAEBUSDrawState@2345@MHHH@Z 000000018000ff90 f   umodsys_lib_libui:umodsys.mod.ui.frames.obj
 0001:0000f07c       ?get_generated_names@RGenerator@frames@ui@modules@UModSys@@UEBAHAEAUSUniquePtrList@core@5@@Z 000000018001007c f i umodsys_lib_libui:umodsys.mod.ui.frames.obj
 0001:0000f09c       ?get_generated_types@RGenerator@frames@ui@modules@UModSys@@UEBAHAEAUSUniquePtrList@core@5@PEBUSUniquePointerInfo@75@@Z 000000018001009c f i umodsys_lib_libui:umodsys.mod.ui.frames.obj
 0001:0000f0f4       ?generate@RGenerator@frames@ui@modules@UModSys@@UEAA_NAEAU?$TRefObject@UIRefObject@core@UModSys@@U?$TRefObjectFunc@UIRefObject@core@UModSys@@@tl@3@@tl@5@PEBUSUniquePointerInfo@core@5@AEBUSParameters@95@@Z 00000001800100f4 f i umodsys_lib_libui:umodsys.mod.ui.frames.obj
 0001:0000f1e4       ?root_get_interface_info@RGenerator@frames@ui@modules@UModSys@@UEBAAEBUSUniquePointerInfo@core@5@XZ 00000001800101e4 f i umodsys_lib_libui:umodsys.mod.ui.frames.obj
 0001:0000f1ec       ?root_get_interface_type@RGenerator@frames@ui@modules@UModSys@@UEBAPEBUSUniquePointerInfo@core@5@XZ 00000001800101ec f i umodsys_lib_libui:umodsys.mod.ui.frames.obj
 0001:0000f1f4       ?root_get_other_interface@RGenerator@frames@ui@modules@UModSys@@UEBAPEBUIRoot@core@5@PEBUSUniquePointerInfo@75@@Z 00000001800101f4 f i umodsys_lib_libui:umodsys.mod.ui.frames.obj
 0001:0000f1f4       ?root_get_other_interface@RGenerator@frames@ui@modules@UModSys@@UEAAPEAUIRoot@core@5@PEBUSUniquePointerInfo@75@@Z 00000001800101f4 f i umodsys_lib_libui:umodsys.mod.ui.frames.obj
 0001:0000f22c       ?root_is_interface_supported@RGenerator@frames@ui@modules@UModSys@@UEBA_NPEBUSUniquePointerInfo@core@5@@Z 000000018001022c f i umodsys_lib_libui:umodsys.mod.ui.frames.obj
 0001:0000f264       ?ref_links@RGenerator@SDL_core@ui@modules@UModSys@@UEBAHXZ 0000000180010264 f i umodsys_lib_libui:umodsys.mod.ui.SDL_core.obj
 0001:0000f264       ?ref_links@RGenerator@zlib@media@modules@UModSys@@UEBAHXZ 0000000180010264 f i umodsys_lib_libmedia:umodsys.mod.media.zlib.obj
 0001:0000f264       ?ref_links@RGenerator@stdlib@lib2d@modules@UModSys@@UEBAHXZ 0000000180010264 f i umodsys_lib_lib2d:umodsys.mod.2d.stdlib.obj
 0001:0000f264       ?ref_links@RGenerator@frames@ui@modules@UModSys@@UEBAHXZ 0000000180010264 f i umodsys_lib_libui:umodsys.mod.ui.frames.obj
 0001:0000f264       ?ref_links@RDialog@frames@ui@modules@UModSys@@UEBAHXZ 0000000180010264 f i umodsys_lib_libui:umodsys.mod.ui.frames.obj
 0001:0000f264       ?ref_links@RTerminal@SDL_core@ui@modules@UModSys@@UEBAHXZ 0000000180010264 f i umodsys_lib_libui:umodsys.mod.ui.SDL_core.obj
 0001:0000f264       ?ref_links@RBinArchiveFrameClient_ZIP@zlib@media@modules@UModSys@@UEBAHXZ 0000000180010264 f i umodsys_lib_libmedia:umodsys.mod.media.zlib.obj
 0001:0000f264       ?ref_links@RSerializeReader@serialize_json@media@modules@UModSys@@UEBAHXZ 0000000180010264 f i umodsys_lib_libmedia:umodsys.mod.media.serialize_json.obj
 0001:0000f264       ?ref_links@RGenerator@images_std@media@modules@UModSys@@UEBAHXZ 0000000180010264 f i umodsys_lib_libmedia:umodsys.mod.media.images_std.obj
 0001:0000f264       ?ref_links@RImageFactory_Memory@stdlib@lib2d@modules@UModSys@@UEBAHXZ 0000000180010264 f i umodsys_lib_lib2d:umodsys.mod.2d.stdlib.obj
 0001:0000f264       ?ref_links@RGenerator@test1@test@modules@UModSys@@UEBAHXZ 0000000180010264 f i plugin_test1.obj
 0001:0000f264       ?ref_links@RMultiImage@stdlib@lib2d@modules@UModSys@@UEBAHXZ 0000000180010264 f i umodsys_lib_lib2d:umodsys.mod.2d.stdlib.obj
 0001:0000f264       ?ref_links@RKeyboardController@SDL_core@ui@modules@UModSys@@UEBAHXZ 0000000180010264 f i umodsys_lib_libui:umodsys.mod.ui.SDL_core.obj
 0001:0000f264       ?ref_links@RMultiImage2D_SDL_ttf@SDL_core@ui@modules@UModSys@@UEBAHXZ 0000000180010264 f i umodsys_lib_libui:umodsys.mod.ui.SDL_core.obj
 0001:0000f264       ?ref_links@RMouseController@SDL_core@ui@modules@UModSys@@UEBAHXZ 0000000180010264 f i umodsys_lib_libui:umodsys.mod.ui.SDL_core.obj
 0001:0000f264       ?ref_links@RGenerator@serialize_json@media@modules@UModSys@@UEBAHXZ 0000000180010264 f i umodsys_lib_libmedia:umodsys.mod.media.serialize_json.obj
 0001:0000f264       ?ref_links@RImage_Memory@stdlib@lib2d@modules@UModSys@@UEBAHXZ 0000000180010264 f i umodsys_lib_lib2d:umodsys.mod.2d.stdlib.obj
 0001:0000f264       ?ref_links@RRenderDriver2D@SDL_core@ui@modules@UModSys@@UEBAHXZ 0000000180010264 f i umodsys_lib_libui:umodsys.mod.ui.SDL_core.obj
 0001:0000f268       ?get_uid@RGenerator@frames@ui@modules@UModSys@@UEBAPEBUSUniquePointerInfo@core@5@XZ 0000000180010268 f i umodsys_lib_libui:umodsys.mod.ui.frames.obj
 0001:0000f270       ?do_open@RModuleReg@frames@ui@modules@UModSys@@UEAA_NXZ 0000000180010270 f i umodsys_lib_libui:umodsys.mod.ui.frames.obj
 0001:0000f2e4       ?do_close@RModuleReg@frames@ui@modules@UModSys@@UEAA_NXZ 00000001800102e4 f i umodsys_lib_libui:umodsys.mod.ui.frames.obj
 0001:0000f334       ?get_module@RGenerator@frames@ui@modules@UModSys@@UEBAPEAUIModule@base@5@XZ 0000000180010334 f   umodsys_lib_libui:umodsys.mod.ui.frames.obj
 0001:0000f33c       ?mod_inc@RGenerator@frames@ui@modules@UModSys@@UEBA_NXZ 000000018001033c f   umodsys_lib_libui:umodsys.mod.ui.frames.obj
 0001:0000f350       ?mod_dec@RGenerator@frames@ui@modules@UModSys@@UEBA_NXZ 0000000180010350 f   umodsys_lib_libui:umodsys.mod.ui.frames.obj
 0001:0000f364       ?s_holder@RGenerator@frames@ui@modules@UModSys@@SAAEAU?$TTypeStaticHolder@URGenerator@frames@ui@modules@UModSys@@@tl@5@XZ 0000000180010364 f   umodsys_lib_libui:umodsys.mod.ui.frames.obj
 0001:0000f3a8       ??1?$TScatterArray@U?$TVector2@M@math3d@UModSys@@HU?$TScalarCompare@H@core@3@U?$TNodeDeleter0@U?$TScatterArrayNode@U?$TVector2@M@math3d@UModSys@@H@tl@UModSys@@@tl@3@@tl@UModSys@@QEAA@XZ 00000001800103a8 f i umodsys_lib_libui:umodsys.mod.ui.frames.obj
 0001:0000f3a8       ??1?$TScatterArray@U?$TVector4@M@math3d@UModSys@@HU?$TScalarCompare@H@core@3@U?$TNodeDeleter0@U?$TScatterArrayNode@U?$TVector4@M@math3d@UModSys@@H@tl@UModSys@@@tl@3@@tl@UModSys@@QEAA@XZ 00000001800103a8 f i umodsys_lib_libui:umodsys.mod.ui.frames.obj
 0001:0000f410       ??1?$TDynarrayDynamic@U?$TRefObject@URFrame_Common@frames@ui@modules@UModSys@@U?$TRefObjectFunc@URFrame_Common@frames@ui@modules@UModSys@@@tl@5@@tl@UModSys@@U?$TAllocator@USIMemAlloc@core@UModSys@@USCountCalcPower2@23@@23@@tl@UModSys@@QEAA@XZ 0000000180010410 f i umodsys_lib_libui:umodsys.mod.ui.frames.obj
 0001:0000f410       ??1?$TDynarrayDynamic@U?$TRefObject@URDialog@frames@ui@modules@UModSys@@U?$TRefObjectFunc@URDialog@frames@ui@modules@UModSys@@@tl@5@@tl@UModSys@@U?$TAllocator@USIMemAlloc@core@UModSys@@USCountCalcPower2@23@@23@@tl@UModSys@@QEAA@XZ 0000000180010410 f i umodsys_lib_libui:umodsys.mod.ui.frames.obj
 0001:0000f478       ?Resize@?$TDynarray@U?$TDynarrayHolderDynamic@UListItem@RFrame_List@frames@ui@modules@UModSys@@U?$TAllocator@USIMemAlloc@core@UModSys@@USCountCalcPower2@23@@tl@6@@tl@UModSys@@@tl@UModSys@@QEAA_N_K@Z 0000000180010478 f i umodsys_lib_libui:umodsys.mod.ui.frames.obj
 0001:0000f5c8       ?ResizeRel@?$TDynarray@U?$TDynarrayHolderDynamic@U?$TRefObject@URDialog@frames@ui@modules@UModSys@@U?$TRefObjectFunc@URDialog@frames@ui@modules@UModSys@@@tl@5@@tl@UModSys@@U?$TAllocator@USIMemAlloc@core@UModSys@@USCountCalcPower2@23@@23@@tl@UModSys@@@tl@UModSys@@QEAA_N_J@Z 00000001800105c8 f i umodsys_lib_libui:umodsys.mod.ui.frames.obj
 0001:0000f5c8       ?ResizeRel@?$TDynarray@U?$TDynarrayHolderDynamic@U?$TRefObject@URFrame_Common@frames@ui@modules@UModSys@@U?$TRefObjectFunc@URFrame_Common@frames@ui@modules@UModSys@@@tl@5@@tl@UModSys@@U?$TAllocator@USIMemAlloc@core@UModSys@@USCountCalcPower2@23@@23@@tl@UModSys@@@tl@UModSys@@QEAA_N_J@Z 00000001800105c8 f i umodsys_lib_libui:umodsys.mod.ui.frames.obj
 0001:0000f6bc       ??R?$TScatterArray@U?$TVector4@M@math3d@UModSys@@HU?$TScalarCompare@H@core@3@U?$TNodeDeleter0@U?$TScatterArrayNode@U?$TVector4@M@math3d@UModSys@@H@tl@UModSys@@@tl@3@@tl@UModSys@@QEAAPEAU?$TVector4@M@math3d@2@AEBHPEAUVoid@core@2@@Z 00000001800106bc f i umodsys_lib_libui:umodsys.mod.ui.frames.obj
 0001:0000f78c       ??R?$TScatterArray@U?$TVector2@M@math3d@UModSys@@HU?$TScalarCompare@H@core@3@U?$TNodeDeleter0@U?$TScatterArrayNode@U?$TVector2@M@math3d@UModSys@@H@tl@UModSys@@@tl@3@@tl@UModSys@@QEAAPEAU?$TVector2@M@math3d@2@AEBHPEAUVoid@core@2@@Z 000000018001078c f i umodsys_lib_libui:umodsys.mod.ui.frames.obj
 0001:0000f84c       ??$process_nodes_r@U?$TNodeDeleter0@U?$TScatterArrayNode@HH@tl@UModSys@@@tl@UModSys@@@?$TTreeHoldRB@U?$TScatterArrayNode@HH@tl@UModSys@@@tl@UModSys@@KAHPEAU?$TScatterArrayNode@HH@12@AEBU?$TNodeDeleter0@U?$TScatterArrayNode@HH@tl@UModSys@@@12@@Z 000000018001084c f i umodsys_lib_libui:umodsys.mod.ui.frames.obj
 0001:0000f84c       ??$process_nodes_r@U?$TNodeDeleter0@U?$TScatterArrayNode@U?$TVector4@M@math3d@UModSys@@H@tl@UModSys@@@tl@UModSys@@@?$TTreeHoldRB@U?$TScatterArrayNode@U?$TVector4@M@math3d@UModSys@@H@tl@UModSys@@@tl@UModSys@@KAHPEAU?$TScatterArrayNode@U?$TVector4@M@math3d@UModSys@@H@12@AEBU?$TNodeDeleter0@U?$TScatterArrayNode@U?$TVector4@M@math3d@UModSys@@H@tl@UModSys@@@12@@Z 000000018001084c f i umodsys_lib_libui:umodsys.mod.ui.frames.obj
 0001:0000f84c       ??$process_nodes_r@U?$TNodeDeleter0@U?$TScatterArrayNode@U?$TVector2@M@math3d@UModSys@@H@tl@UModSys@@@tl@UModSys@@@?$TTreeHoldRB@U?$TScatterArrayNode@U?$TVector2@M@math3d@UModSys@@H@tl@UModSys@@@tl@UModSys@@KAHPEAU?$TScatterArrayNode@U?$TVector2@M@math3d@UModSys@@H@12@AEBU?$TNodeDeleter0@U?$TScatterArrayNode@U?$TVector2@M@math3d@UModSys@@H@tl@UModSys@@@12@@Z 000000018001084c f i umodsys_lib_libui:umodsys.mod.ui.frames.obj
 0001:0000f8b0       ?is_extension_nocase@libmedia@UModSys@@YA_NAEBU?$TString@U?$TSCoreConst@D@su@tl@UModSys@@U?$TComparerBinaryHash@D@234@@tl@2@0@Z 00000001800108b0 f i umodsys_lib_libmedia:umodsys.mod.media.images_std.obj
 0001:0000f96c       ?root_get_interface_info@RMediaFilter@images_std@media@modules@UModSys@@UEBAAEBUSUniquePointerInfo@core@5@XZ 000000018001096c f i umodsys_lib_libmedia:umodsys.mod.media.images_std.obj
 0001:0000f974       ?root_get_interface_type@RMediaFilter@images_std@media@modules@UModSys@@UEBAPEBUSUniquePointerInfo@core@5@XZ 0000000180010974 f i umodsys_lib_libmedia:umodsys.mod.media.images_std.obj
 0001:0000f97c       ?root_get_other_interface@RMediaFilter@images_std@media@modules@UModSys@@UEAAPEAUIRoot@core@5@PEBUSUniquePointerInfo@75@@Z 000000018001097c f i umodsys_lib_libmedia:umodsys.mod.media.images_std.obj
 0001:0000f97c       ?root_get_other_interface@RMediaFilter@images_std@media@modules@UModSys@@UEBAPEBUIRoot@core@5@PEBUSUniquePointerInfo@75@@Z 000000018001097c f i umodsys_lib_libmedia:umodsys.mod.media.images_std.obj
 0001:0000f9b4       ?root_is_interface_supported@RMediaFilter@images_std@media@modules@UModSys@@UEBA_NPEBUSUniquePointerInfo@core@5@@Z 00000001800109b4 f i umodsys_lib_libmedia:umodsys.mod.media.images_std.obj
 0001:0000f9ec       ?ref_add@RMediaFilter@images_std@media@modules@UModSys@@UEBAXXZ 00000001800109ec f i umodsys_lib_libmedia:umodsys.mod.media.images_std.obj
 0001:0000f9f0       ?ref_remove@RMediaFilter@images_std@media@modules@UModSys@@UEBAXXZ 00000001800109f0 f i umodsys_lib_libmedia:umodsys.mod.media.images_std.obj
 0001:0000fa08       ?ref_links@RMediaFilter@images_std@media@modules@UModSys@@UEBAHXZ 0000000180010a08 f i umodsys_lib_libmedia:umodsys.mod.media.images_std.obj
 0001:0000fa0c       ?ref_weak@RMediaFilter@images_std@media@modules@UModSys@@UEBA_NAEAUWeakPointer@IRefObject@core@5@@Z 0000000180010a0c f i umodsys_lib_libmedia:umodsys.mod.media.images_std.obj
 0001:0000fa2c       ?suicide@RMediaFilter@images_std@media@modules@UModSys@@UEAAXXZ 0000000180010a2c f i umodsys_lib_libmedia:umodsys.mod.media.images_std.obj
 0001:0000fa78       ?get_flag@RMediaFilter@images_std@media@modules@UModSys@@UEBA?AW4eStates@?$TFlags4State@USMediaFlagUid@libmedia@UModSys@@I@tl@5@H@Z 0000000180010a78 f i umodsys_lib_libmedia:umodsys.mod.media.images_std.obj
 0001:0000fa88       ?get_flags_auto@RMediaFilter@images_std@media@modules@UModSys@@UEBA?AU?$TFlags4State@USMediaFlagUid@libmedia@UModSys@@I@tl@5@XZ 0000000180010a88 f i umodsys_lib_libmedia:umodsys.mod.media.images_std.obj
 0001:0000fa94       ?set_flag@RMediaFilter@images_std@media@modules@UModSys@@UEAA?AW4eStates@?$TFlags4State@USMediaFlagUid@libmedia@UModSys@@I@tl@5@HW46785@@Z 0000000180010a94 f i umodsys_lib_libmedia:umodsys.mod.media.images_std.obj
 0001:0000fac8       ??0RMediaFilter@images_std@media@modules@UModSys@@QEAA@PEAUIModObject@base@4@AEBUSParameters@core@4@@Z 0000000180010ac8 f i umodsys_lib_libmedia:umodsys.mod.media.images_std.obj
 0001:0000fbc8       ??_ERMediaFilter@images_std@media@modules@UModSys@@UEAAPEAXI@Z 0000000180010bc8 f i  CIL library: CIL module
 0001:0000fbc8       ??_GRMediaFilter@images_std@media@modules@UModSys@@UEAAPEAXI@Z 0000000180010bc8 f i umodsys_lib_libmedia:umodsys.mod.media.images_std.obj
 0001:0000fc5c       ?filter_load@RMediaFilter@images_std@media@modules@UModSys@@UEAA_NAEBUSInfo@IBinObjFilter@libmedia@5@PEAUIRefObject@core@5@@Z 0000000180010c5c f   umodsys_lib_libmedia:umodsys.mod.media.images_std.obj
 0001:0000ff58       ?filter_save@RMediaFilter@images_std@media@modules@UModSys@@UEAA_NAEAUSInfo@IBinObjFilter@libmedia@5@PEBUIRefObject@core@5@@Z 0000000180010f58 f   umodsys_lib_libmedia:umodsys.mod.media.images_std.obj
 0001:00010208       ?loader_jpeg@RMediaFilter@images_std@media@modules@UModSys@@QEAA_NPEAUIImage@lib2d@5@AEBUSInfo@IBinObjFilter@libmedia@5@AEBUSParameters@core@5@HPEBD_N@Z 0000000180011208 f   umodsys_lib_libmedia:umodsys.mod.media.images_std.obj
 0001:00010604       ?png_err@RMediaFilter@images_std@media@modules@UModSys@@KAXPEAUpng_struct_def@@PEBD@Z 0000000180011604 f   umodsys_lib_libmedia:umodsys.mod.media.images_std.obj
 0001:0001062c       ?png_read@RMediaFilter@images_std@media@modules@UModSys@@KAXPEAUpng_struct_def@@PEAE_K@Z 000000018001162c f   umodsys_lib_libmedia:umodsys.mod.media.images_std.obj
 0001:00010694       ?png_write@RMediaFilter@images_std@media@modules@UModSys@@KAXPEAUpng_struct_def@@PEAE_K@Z 0000000180011694 f   umodsys_lib_libmedia:umodsys.mod.media.images_std.obj
 0001:000106fc       ?loader_png@RMediaFilter@images_std@media@modules@UModSys@@QEAA_NPEAUIImage@lib2d@5@AEBUSInfo@IBinObjFilter@libmedia@5@AEBUSParameters@core@5@HPEBD_N@Z 00000001800116fc f   umodsys_lib_libmedia:umodsys.mod.media.images_std.obj
 0001:00010bf0       ?saver_png@RMediaFilter@images_std@media@modules@UModSys@@QEAA_NPEBUIImage@lib2d@5@AEAUSInfo@IBinObjFilter@libmedia@5@AEBUSParameters@core@5@PEBD_N@Z 0000000180011bf0 f   umodsys_lib_libmedia:umodsys.mod.media.images_std.obj
 0001:000110e4       ?get_generated_names@RGenerator@images_std@media@modules@UModSys@@UEBAHAEAUSUniquePtrList@core@5@@Z 00000001800120e4 f i umodsys_lib_libmedia:umodsys.mod.media.images_std.obj
 0001:00011104       ?get_generated_types@RGenerator@images_std@media@modules@UModSys@@UEBAHAEAUSUniquePtrList@core@5@PEBUSUniquePointerInfo@75@@Z 0000000180012104 f i umodsys_lib_libmedia:umodsys.mod.media.images_std.obj
 0001:0001116c       ?generate@RGenerator@images_std@media@modules@UModSys@@UEAA_NAEAU?$TRefObject@UIRefObject@core@UModSys@@U?$TRefObjectFunc@UIRefObject@core@UModSys@@@tl@3@@tl@5@PEBUSUniquePointerInfo@core@5@AEBUSParameters@95@@Z 000000018001216c f i umodsys_lib_libmedia:umodsys.mod.media.images_std.obj
 0001:0001124c       ?root_get_interface_info@RGenerator@images_std@media@modules@UModSys@@UEBAAEBUSUniquePointerInfo@core@5@XZ 000000018001224c f i umodsys_lib_libmedia:umodsys.mod.media.images_std.obj
 0001:00011254       ?root_get_interface_type@RGenerator@images_std@media@modules@UModSys@@UEBAPEBUSUniquePointerInfo@core@5@XZ 0000000180012254 f i umodsys_lib_libmedia:umodsys.mod.media.images_std.obj
 0001:0001125c       ?root_get_other_interface@RGenerator@images_std@media@modules@UModSys@@UEAAPEAUIRoot@core@5@PEBUSUniquePointerInfo@75@@Z 000000018001225c f i umodsys_lib_libmedia:umodsys.mod.media.images_std.obj
 0001:0001125c       ?root_get_other_interface@RGenerator@images_std@media@modules@UModSys@@UEBAPEBUIRoot@core@5@PEBUSUniquePointerInfo@75@@Z 000000018001225c f i umodsys_lib_libmedia:umodsys.mod.media.images_std.obj
 0001:00011294       ?root_is_interface_supported@RGenerator@images_std@media@modules@UModSys@@UEBA_NPEBUSUniquePointerInfo@core@5@@Z 0000000180012294 f i umodsys_lib_libmedia:umodsys.mod.media.images_std.obj
 0001:000112cc       ?get_uid@RGenerator@images_std@media@modules@UModSys@@UEBAPEBUSUniquePointerInfo@core@5@XZ 00000001800122cc f i umodsys_lib_libmedia:umodsys.mod.media.images_std.obj
 0001:000112d4       ?do_open@RModuleReg@images_std@media@modules@UModSys@@UEAA_NXZ 00000001800122d4 f i umodsys_lib_libmedia:umodsys.mod.media.images_std.obj
 0001:00011348       ?do_close@RModuleReg@images_std@media@modules@UModSys@@UEAA_NXZ 0000000180012348 f i umodsys_lib_libmedia:umodsys.mod.media.images_std.obj
 0001:00011398       ?get_module@RGenerator@images_std@media@modules@UModSys@@UEBAPEAUIModule@base@5@XZ 0000000180012398 f   umodsys_lib_libmedia:umodsys.mod.media.images_std.obj
 0001:000113a0       ?mod_inc@RGenerator@images_std@media@modules@UModSys@@UEBA_NXZ 00000001800123a0 f   umodsys_lib_libmedia:umodsys.mod.media.images_std.obj
 0001:000113b4       ?mod_dec@RGenerator@images_std@media@modules@UModSys@@UEBA_NXZ 00000001800123b4 f   umodsys_lib_libmedia:umodsys.mod.media.images_std.obj
 0001:000113c8       ?s_holder@RGenerator@images_std@media@modules@UModSys@@SAAEAU?$TTypeStaticHolder@URGenerator@images_std@media@modules@UModSys@@@tl@5@XZ 00000001800123c8 f   umodsys_lib_libmedia:umodsys.mod.media.images_std.obj
 0001:0001140c       ?root_get_interface_info@RSerializeReader@serialize_json@media@modules@UModSys@@UEBAAEBUSUniquePointerInfo@core@5@XZ 000000018001240c f i umodsys_lib_libmedia:umodsys.mod.media.serialize_json.obj
 0001:00011414       ?root_get_interface_type@RSerializeReader@serialize_json@media@modules@UModSys@@UEBAPEBUSUniquePointerInfo@core@5@XZ 0000000180012414 f i umodsys_lib_libmedia:umodsys.mod.media.serialize_json.obj
 0001:0001141c       ?root_get_other_interface@RSerializeReader@serialize_json@media@modules@UModSys@@UEBAPEBUIRoot@core@5@PEBUSUniquePointerInfo@75@@Z 000000018001241c f i umodsys_lib_libmedia:umodsys.mod.media.serialize_json.obj
 0001:0001141c       ?root_get_other_interface@RSerializeReader@serialize_json@media@modules@UModSys@@UEAAPEAUIRoot@core@5@PEBUSUniquePointerInfo@75@@Z 000000018001241c f i umodsys_lib_libmedia:umodsys.mod.media.serialize_json.obj
 0001:0001144c       ?root_is_interface_supported@RSerializeReader@serialize_json@media@modules@UModSys@@UEBA_NPEBUSUniquePointerInfo@core@5@@Z 000000018001244c f i umodsys_lib_libmedia:umodsys.mod.media.serialize_json.obj
 0001:0001147c       ?reader_lasterror@RSerializeReader@serialize_json@media@modules@UModSys@@UEBAPEBDXZ 000000018001247c f i umodsys_lib_libmedia:umodsys.mod.media.serialize_json.obj
 0001:00011484       ?reader_parse@RSerializeReader@serialize_json@media@modules@UModSys@@UEAA_NPEAUISerializeParser@libmedia@5@@Z 0000000180012484 f i umodsys_lib_libmedia:umodsys.mod.media.serialize_json.obj
 0001:0001224c       ?uni@RSerializeReader@serialize_json@media@modules@UModSys@@IEAA_NHAEAH@Z 000000018001324c f i umodsys_lib_libmedia:umodsys.mod.media.serialize_json.obj
 0001:000122e8       ?emit@RSerializeReader@serialize_json@media@modules@UModSys@@IEAA_NPEAUISerializeParser@libmedia@5@PEAUNode@12345@_N@Z 00000001800132e8 f i umodsys_lib_libmedia:umodsys.mod.media.serialize_json.obj
 0001:00012524       ??0RSerializeReader@serialize_json@media@modules@UModSys@@QEAA@PEAUIModObject@base@4@AEBUSParameters@core@4@@Z 0000000180013524 f i umodsys_lib_libmedia:umodsys.mod.media.serialize_json.obj
 0001:000126e8       ??_ERSerializeReader@serialize_json@media@modules@UModSys@@UEAAPEAXI@Z 00000001800136e8 f i  CIL library: CIL module
 0001:000126e8       ??_GRSerializeReader@serialize_json@media@modules@UModSys@@UEAAPEAXI@Z 00000001800136e8 f i umodsys_lib_libmedia:umodsys.mod.media.serialize_json.obj
 0001:000127d8       ?root_get_interface_info@RSerializeWriter@serialize_json@media@modules@UModSys@@UEBAAEBUSUniquePointerInfo@core@5@XZ 00000001800137d8 f i umodsys_lib_libmedia:umodsys.mod.media.serialize_json.obj
 0001:000127e0       ?root_get_interface_type@RSerializeWriter@serialize_json@media@modules@UModSys@@UEBAPEBUSUniquePointerInfo@core@5@XZ 00000001800137e0 f i umodsys_lib_libmedia:umodsys.mod.media.serialize_json.obj
 0001:000127e8       ?root_get_other_interface@RSerializeWriter@serialize_json@media@modules@UModSys@@UEAAPEAUIRoot@core@5@PEBUSUniquePointerInfo@75@@Z 00000001800137e8 f i umodsys_lib_libmedia:umodsys.mod.media.serialize_json.obj
 0001:000127e8       ?root_get_other_interface@RSerializeWriter@serialize_json@media@modules@UModSys@@UEBAPEBUIRoot@core@5@PEBUSUniquePointerInfo@75@@Z 00000001800137e8 f i umodsys_lib_libmedia:umodsys.mod.media.serialize_json.obj
 0001:00012818       ?root_is_interface_supported@RSerializeWriter@serialize_json@media@modules@UModSys@@UEBA_NPEBUSUniquePointerInfo@core@5@@Z 0000000180013818 f i umodsys_lib_libmedia:umodsys.mod.media.serialize_json.obj
 0001:00012848       ?ref_add@RSerializeWriter@serialize_json@media@modules@UModSys@@UEBAXXZ 0000000180013848 f i umodsys_lib_libmedia:umodsys.mod.media.serialize_json.obj
 0001:0001284c       ?ref_remove@RSerializeWriter@serialize_json@media@modules@UModSys@@UEBAXXZ 000000018001384c f i umodsys_lib_libmedia:umodsys.mod.media.serialize_json.obj
 0001:00012864       ?ref_links@RSerializeWriter@serialize_json@media@modules@UModSys@@UEBAHXZ 0000000180013864 f i umodsys_lib_libmedia:umodsys.mod.media.serialize_json.obj
 0001:00012868       ?ref_weak@RSerializeWriter@serialize_json@media@modules@UModSys@@UEBA_NAEAUWeakPointer@IRefObject@core@5@@Z 0000000180013868 f i umodsys_lib_libmedia:umodsys.mod.media.serialize_json.obj
 0001:00012888       ?suicide@RSerializeWriter@serialize_json@media@modules@UModSys@@UEAAXXZ 0000000180013888 f i umodsys_lib_libmedia:umodsys.mod.media.serialize_json.obj
 0001:000128d4       ?writer_lasterror@RSerializeWriter@serialize_json@media@modules@UModSys@@UEBAPEBDXZ 00000001800138d4 f i umodsys_lib_libmedia:umodsys.mod.media.serialize_json.obj
 0001:000128dc       ?put_value@RSerializeWriter@serialize_json@media@modules@UModSys@@UEAA_NAEBU?$TString@U?$TSCoreConst@D@su@tl@UModSys@@U?$TComparerBinaryHash@D@234@@tl@5@AEBUSSerializeValue@libmedia@5@H@Z 00000001800138dc f i umodsys_lib_libmedia:umodsys.mod.media.serialize_json.obj
 0001:00012bbc       ?put_key@RSerializeWriter@serialize_json@media@modules@UModSys@@UEAA_NAEBU?$TString@U?$TSCoreConst@D@su@tl@UModSys@@U?$TComparerBinaryHash@D@234@@tl@5@AEBUSSerializeValue@libmedia@5@H@Z 0000000180013bbc f i umodsys_lib_libmedia:umodsys.mod.media.serialize_json.obj
 0001:00012c34       ?put_begin@RSerializeWriter@serialize_json@media@modules@UModSys@@UEAA_NAEBU?$TString@U?$TSCoreConst@D@su@tl@UModSys@@U?$TComparerBinaryHash@D@234@@tl@5@W4eType@SSerializeValue@libmedia@5@H@Z 0000000180013c34 f i umodsys_lib_libmedia:umodsys.mod.media.serialize_json.obj
 0001:00012d70       ?put_end@RSerializeWriter@serialize_json@media@modules@UModSys@@UEAA_NXZ 0000000180013d70 f i umodsys_lib_libmedia:umodsys.mod.media.serialize_json.obj
 0001:00012e70       ?begin_elem@RSerializeWriter@serialize_json@media@modules@UModSys@@IEAA_NH_N@Z 0000000180013e70 f i umodsys_lib_libmedia:umodsys.mod.media.serialize_json.obj
 0001:00012f8c       ?write_s@RSerializeWriter@serialize_json@media@modules@UModSys@@IEAA_NAEBUStr@SSerializeValue@libmedia@5@@Z 0000000180013f8c f i umodsys_lib_libmedia:umodsys.mod.media.serialize_json.obj
 0001:0001305c       ?writef@RSerializeWriter@serialize_json@media@modules@UModSys@@IEAA_NPEBDZZ 000000018001405c f i umodsys_lib_libmedia:umodsys.mod.media.serialize_json.obj
 0001:000130c0       ??0RSerializeWriter@serialize_json@media@modules@UModSys@@QEAA@PEAUIModObject@base@4@AEBUSParameters@core@4@@Z 00000001800140c0 f i umodsys_lib_libmedia:umodsys.mod.media.serialize_json.obj
 0001:0001323c       ??_GRSerializeWriter@serialize_json@media@modules@UModSys@@UEAAPEAXI@Z 000000018001423c f i umodsys_lib_libmedia:umodsys.mod.media.serialize_json.obj
 0001:0001323c       ??_ERSerializeWriter@serialize_json@media@modules@UModSys@@UEAAPEAXI@Z 000000018001423c f i  CIL library: CIL module
 0001:0001339c       ??1ISerializeReader@libmedia@UModSys@@UEAA@XZ 000000018001439c f i umodsys_lib_libmedia:umodsys.mod.media.serialize_json.obj
 0001:0001339c       ??1IRefObject@core@UModSys@@UEAA@XZ 000000018001439c f i umodsys_lib_core:umodsys.core.objects.obj
 0001:0001339c       ??1IKeyboardController@libui@UModSys@@UEAA@XZ 000000018001439c f i umodsys_lib_libui:umodsys.mod.ui.SDL_core.obj
 0001:0001339c       ??1ISerializeWriter@libmedia@UModSys@@UEAA@XZ 000000018001439c f i umodsys_lib_libmedia:umodsys.mod.media.serialize_json.obj
 0001:0001339c       ??1IMouseController@libui@UModSys@@UEAA@XZ 000000018001439c f i umodsys_lib_libui:umodsys.mod.ui.SDL_core.obj
 0001:0001339c       ??1IImage@lib2d@UModSys@@UEAA@XZ 000000018001439c f i umodsys_lib_lib2d:umodsys.mod.2d.stdlib.obj
 0001:0001339c       ??1ITerminal@libui@UModSys@@UEAA@XZ 000000018001439c f i umodsys_lib_libui:umodsys.mod.ui.SDL_core.obj
 0001:0001339c       ??1IMultiImage@lib2d@UModSys@@UEAA@XZ 000000018001439c f i umodsys_lib_lib2d:umodsys.mod.2d.stdlib.obj
 0001:0001339c       ??1IDialog@libui@UModSys@@UEAA@XZ 000000018001439c f i umodsys_lib_libui:umodsys.mod.ui.frames.obj
 0001:0001339c       ??1IImageFactory@lib2d@UModSys@@UEAA@XZ 000000018001439c f i umodsys_lib_lib2d:umodsys.mod.2d.stdlib.obj
 0001:0001339c       ??1IRenderDriver@lib2d@UModSys@@UEAA@XZ 000000018001439c f i umodsys_lib_libui:umodsys.mod.ui.SDL_core.obj
 0001:0001339c       ??1IFrame@libui@UModSys@@UEAA@XZ 000000018001439c f i umodsys_lib_libui:umodsys.mod.ui.frames.obj
 0001:0001339c       ??1ICollector@libui@UModSys@@UEAA@XZ 000000018001439c f i umodsys_lib_libui:umodsys.mod.ui.frames.obj
 0001:0001339c       ??1IClient@IBinArchiveFrame@libmedia@UModSys@@UEAA@XZ 000000018001439c f i umodsys_lib_libmedia:umodsys.mod.media.zlib.obj
 0001:0001339c       ??1IShell@base@UModSys@@UEAA@XZ 000000018001439c f i plugin_test1.obj
 0001:000133a8       ?get_generated_names@RGenerator@serialize_json@media@modules@UModSys@@UEBAHAEAUSUniquePtrList@core@5@@Z 00000001800143a8 f i umodsys_lib_libmedia:umodsys.mod.media.serialize_json.obj
 0001:000133dc       ?get_generated_types@RGenerator@serialize_json@media@modules@UModSys@@UEBAHAEAUSUniquePtrList@core@5@PEBUSUniquePointerInfo@75@@Z 00000001800143dc f i umodsys_lib_libmedia:umodsys.mod.media.serialize_json.obj
 0001:00013450       ?generate@RGenerator@serialize_json@media@modules@UModSys@@UEAA_NAEAU?$TRefObject@UIRefObject@core@UModSys@@U?$TRefObjectFunc@UIRefObject@core@UModSys@@@tl@3@@tl@5@PEBUSUniquePointerInfo@core@5@AEBUSParameters@95@@Z 0000000180014450 f i umodsys_lib_libmedia:umodsys.mod.media.serialize_json.obj
 0001:00013688       ?root_get_interface_info@RGenerator@serialize_json@media@modules@UModSys@@UEBAAEBUSUniquePointerInfo@core@5@XZ 0000000180014688 f i umodsys_lib_libmedia:umodsys.mod.media.serialize_json.obj
 0001:00013690       ?root_get_interface_type@RGenerator@serialize_json@media@modules@UModSys@@UEBAPEBUSUniquePointerInfo@core@5@XZ 0000000180014690 f i umodsys_lib_libmedia:umodsys.mod.media.serialize_json.obj
 0001:00013698       ?root_get_other_interface@RGenerator@serialize_json@media@modules@UModSys@@UEBAPEBUIRoot@core@5@PEBUSUniquePointerInfo@75@@Z 0000000180014698 f i umodsys_lib_libmedia:umodsys.mod.media.serialize_json.obj
 0001:00013698       ?root_get_other_interface@RGenerator@serialize_json@media@modules@UModSys@@UEAAPEAUIRoot@core@5@PEBUSUniquePointerInfo@75@@Z 0000000180014698 f i umodsys_lib_libmedia:umodsys.mod.media.serialize_json.obj
 0001:000136d0       ?root_is_interface_supported@RGenerator@serialize_json@media@modules@UModSys@@UEBA_NPEBUSUniquePointerInfo@core@5@@Z 00000001800146d0 f i umodsys_lib_libmedia:umodsys.mod.media.serialize_json.obj
 0001:00013708       ?get_uid@RGenerator@serialize_json@media@modules@UModSys@@UEBAPEBUSUniquePointerInfo@core@5@XZ 0000000180014708 f i umodsys_lib_libmedia:umodsys.mod.media.serialize_json.obj
 0001:00013710       ?do_open@RModuleReg@serialize_json@media@modules@UModSys@@UEAA_NXZ 0000000180014710 f i umodsys_lib_libmedia:umodsys.mod.media.serialize_json.obj
 0001:00013784       ?do_close@RModuleReg@serialize_json@media@modules@UModSys@@UEAA_NXZ 0000000180014784 f i umodsys_lib_libmedia:umodsys.mod.media.serialize_json.obj
 0001:000137d4       ?get_module@RGenerator@serialize_json@media@modules@UModSys@@UEBAPEAUIModule@base@5@XZ 00000001800147d4 f   umodsys_lib_libmedia:umodsys.mod.media.serialize_json.obj
 0001:000137dc       ?mod_inc@RGenerator@serialize_json@media@modules@UModSys@@UEBA_NXZ 00000001800147dc f   umodsys_lib_libmedia:umodsys.mod.media.serialize_json.obj
 0001:000137f0       ?mod_dec@RGenerator@serialize_json@media@modules@UModSys@@UEBA_NXZ 00000001800147f0 f   umodsys_lib_libmedia:umodsys.mod.media.serialize_json.obj
 0001:00013804       ?s_holder@RGenerator@serialize_json@media@modules@UModSys@@SAAEAU?$TTypeStaticHolder@URGenerator@serialize_json@media@modules@UModSys@@@tl@5@XZ 0000000180014804 f   umodsys_lib_libmedia:umodsys.mod.media.serialize_json.obj
 0001:00013848       ??1?$TTextStreamReaderBuf@D$0BAAA@@libmedia@UModSys@@QEAA@XZ 0000000180014848 f i umodsys_lib_libmedia:umodsys.mod.media.serialize_json.obj
 0001:0001386c       ??1?$TDynarrayDynamic@DU?$TAllocator@USIMemAlloc@core@UModSys@@USCountCalcPower2@23@@tl@UModSys@@@tl@UModSys@@QEAA@XZ 000000018001486c f i umodsys_lib_libmedia:umodsys.mod.media.serialize_json.obj
 0001:000138d0       ??1?$TDynarray@U?$TDynarrayHolderDynamic@UNode@RSerializeReader@serialize_json@media@modules@UModSys@@U?$TAllocator@USIMemAlloc@core@UModSys@@USCountCalcPower2@23@@tl@6@@tl@UModSys@@@tl@UModSys@@QEAA@XZ 00000001800148d0 f i umodsys_lib_libmedia:umodsys.mod.media.serialize_json.obj
 0001:000138d0       ??1?$TDynarrayDynamic@UNode@RSerializeReader@serialize_json@media@modules@UModSys@@U?$TAllocator@USIMemAlloc@core@UModSys@@USCountCalcPower2@23@@tl@6@@tl@UModSys@@QEAA@XZ 00000001800148d0 f i umodsys_lib_libmedia:umodsys.mod.media.serialize_json.obj
 0001:00013938       ??1?$TDynarrayDynamic@UNode@RSerializeWriter@serialize_json@media@modules@UModSys@@U?$TAllocator@USIMemAlloc@core@UModSys@@USCountCalcPower2@23@@tl@6@@tl@UModSys@@QEAA@XZ 0000000180014938 f i umodsys_lib_libmedia:umodsys.mod.media.serialize_json.obj
 0001:000139a0       ??1?$TTextStreamWriterBuf@D$0BAAA@@libmedia@UModSys@@QEAA@XZ 00000001800149a0 f i umodsys_lib_libmedia:umodsys.mod.media.serialize_json.obj
 0001:000139f4       ?check@?$TTextStreamReader@D@libmedia@UModSys@@IEAA_N_K@Z 00000001800149f4 f i umodsys_lib_libmedia:umodsys.mod.media.serialize_json.obj
 0001:00013ac0       ?put_chars@?$TTextStreamWriter@D@libmedia@UModSys@@QEAA_NPEBD_K@Z 0000000180014ac0 f i umodsys_lib_libmedia:umodsys.mod.media.serialize_json.obj
 0001:00013b6c       ?Push@?$TDynarray@U?$TDynarrayHolderDynamic@DU?$TAllocator@USIMemAlloc@core@UModSys@@USCountCalcPower2@23@@tl@UModSys@@@tl@UModSys@@@tl@UModSys@@QEAA_NAEBD@Z 0000000180014b6c f i umodsys_lib_libmedia:umodsys.mod.media.serialize_json.obj
 0001:00013c04       ?ResizeRel@?$TDynarray@U?$TDynarrayHolderDynamic@DU?$TAllocator@USIMemAlloc@core@UModSys@@USCountCalcPower2@23@@tl@UModSys@@@tl@UModSys@@@tl@UModSys@@QEAA_N_J@Z 0000000180014c04 f i umodsys_lib_libmedia:umodsys.mod.media.serialize_json.obj
 0001:00013ca0       ?Push@?$TDynarray@U?$TDynarrayHolderDynamic@UNode@RSerializeReader@serialize_json@media@modules@UModSys@@U?$TAllocator@USIMemAlloc@core@UModSys@@USCountCalcPower2@23@@tl@6@@tl@UModSys@@@tl@UModSys@@QEAA_NAEBUNode@RSerializeReader@serialize_json@media@modules@3@@Z 0000000180014ca0 f i umodsys_lib_libmedia:umodsys.mod.media.serialize_json.obj
 0001:00013d44       ?ResizeRel@?$TDynarray@U?$TDynarrayHolderDynamic@UNode@RSerializeReader@serialize_json@media@modules@UModSys@@U?$TAllocator@USIMemAlloc@core@UModSys@@USCountCalcPower2@23@@tl@6@@tl@UModSys@@@tl@UModSys@@QEAA_N_J@Z 0000000180014d44 f i umodsys_lib_libmedia:umodsys.mod.media.serialize_json.obj
 0001:00013e10       ?ResizeRel@?$TDynarray@U?$TDynarrayHolderDynamic@UNode@RSerializeWriter@serialize_json@media@modules@UModSys@@U?$TAllocator@USIMemAlloc@core@UModSys@@USCountCalcPower2@23@@tl@6@@tl@UModSys@@@tl@UModSys@@QEAA_N_J@Z 0000000180014e10 f i umodsys_lib_libmedia:umodsys.mod.media.serialize_json.obj
 0001:00013ef8       ??$t_gen_param@URSerializeWriter@serialize_json@media@modules@UModSys@@URGenerator@2345@@IGenerator@base@UModSys@@IEAA_NPEAURGenerator@serialize_json@media@modules@2@AEAU?$TRefObject@UIRefObject@core@UModSys@@U?$TRefObjectFunc@UIRefObject@core@UModSys@@@tl@3@@tl@2@PEBUSUniquePointerInfo@core@2@AEBUSParameters@core@2@@Z 0000000180014ef8 f i umodsys_lib_libmedia:umodsys.mod.media.serialize_json.obj
 0001:00013ff0       ??1SBuffer@libmedia@UModSys@@QEAA@XZ 0000000180014ff0 f i umodsys_lib_libmedia:umodsys.mod.media.zlib.obj
 0001:00014054       ?root_get_interface_info@RBinArchiveFrameClient_ZIP@zlib@media@modules@UModSys@@UEBAAEBUSUniquePointerInfo@core@5@XZ 0000000180015054 f i umodsys_lib_libmedia:umodsys.mod.media.zlib.obj
 0001:0001405c       ?root_get_interface_type@RBinArchiveFrameClient_ZIP@zlib@media@modules@UModSys@@UEBAPEBUSUniquePointerInfo@core@5@XZ 000000018001505c f i umodsys_lib_libmedia:umodsys.mod.media.zlib.obj
 0001:00014064       ?root_get_other_interface@RBinArchiveFrameClient_ZIP@zlib@media@modules@UModSys@@UEBAPEBUIRoot@core@5@PEBUSUniquePointerInfo@75@@Z 0000000180015064 f i umodsys_lib_libmedia:umodsys.mod.media.zlib.obj
 0001:00014064       ?root_get_other_interface@RBinArchiveFrameClient_ZIP@zlib@media@modules@UModSys@@UEAAPEAUIRoot@core@5@PEBUSUniquePointerInfo@75@@Z 0000000180015064 f i umodsys_lib_libmedia:umodsys.mod.media.zlib.obj
 0001:00014094       ?root_is_interface_supported@RBinArchiveFrameClient_ZIP@zlib@media@modules@UModSys@@UEBA_NPEBUSUniquePointerInfo@core@5@@Z 0000000180015094 f i umodsys_lib_libmedia:umodsys.mod.media.zlib.obj
 0001:000140c4       ?get_generated_names@RGenerator@zlib@media@modules@UModSys@@UEBAHAEAUSUniquePtrList@core@5@@Z 00000001800150c4 f i umodsys_lib_libmedia:umodsys.mod.media.zlib.obj
 0001:000140e4       ?get_generated_types@RGenerator@zlib@media@modules@UModSys@@UEBAHAEAUSUniquePtrList@core@5@PEBUSUniquePointerInfo@75@@Z 00000001800150e4 f i umodsys_lib_libmedia:umodsys.mod.media.zlib.obj
 0001:0001413c       ?generate@RGenerator@zlib@media@modules@UModSys@@UEAA_NAEAU?$TRefObject@UIRefObject@core@UModSys@@U?$TRefObjectFunc@UIRefObject@core@UModSys@@@tl@3@@tl@5@PEBUSUniquePointerInfo@core@5@AEBUSParameters@95@@Z 000000018001513c f i umodsys_lib_libmedia:umodsys.mod.media.zlib.obj
 0001:00014264       ?root_get_interface_info@RGenerator@zlib@media@modules@UModSys@@UEBAAEBUSUniquePointerInfo@core@5@XZ 0000000180015264 f i umodsys_lib_libmedia:umodsys.mod.media.zlib.obj
 0001:0001426c       ?root_get_interface_type@RGenerator@zlib@media@modules@UModSys@@UEBAPEBUSUniquePointerInfo@core@5@XZ 000000018001526c f i umodsys_lib_libmedia:umodsys.mod.media.zlib.obj
 0001:00014274       ?root_get_other_interface@RGenerator@zlib@media@modules@UModSys@@UEAAPEAUIRoot@core@5@PEBUSUniquePointerInfo@75@@Z 0000000180015274 f i umodsys_lib_libmedia:umodsys.mod.media.zlib.obj
 0001:00014274       ?root_get_other_interface@RGenerator@zlib@media@modules@UModSys@@UEBAPEBUIRoot@core@5@PEBUSUniquePointerInfo@75@@Z 0000000180015274 f i umodsys_lib_libmedia:umodsys.mod.media.zlib.obj
 0001:000142ac       ?root_is_interface_supported@RGenerator@zlib@media@modules@UModSys@@UEBA_NPEBUSUniquePointerInfo@core@5@@Z 00000001800152ac f i umodsys_lib_libmedia:umodsys.mod.media.zlib.obj
 0001:000142e4       ?get_uid@RGenerator@zlib@media@modules@UModSys@@UEBAPEBUSUniquePointerInfo@core@5@XZ 00000001800152e4 f i umodsys_lib_libmedia:umodsys.mod.media.zlib.obj
 0001:000142ec       ?data_load@RBinArchiveFrameClient_ZIP@zlib@media@modules@UModSys@@UEAA_NPEAUIBinArchiveFrame@libmedia@5@AEAUSCMemShared@core@5@PEAUNameNode@675@AEBUSFlags@75@@Z 00000001800152ec f   umodsys_lib_libmedia:umodsys.mod.media.zlib.obj
 0001:00014a9c       ?data_save@RBinArchiveFrameClient_ZIP@zlib@media@modules@UModSys@@UEAA_NPEAUIBinArchiveFrame@libmedia@5@AEBUSCMem@core@5@AEBU?$TString@U?$TSCoreConst@D@su@tl@UModSys@@U?$TComparerBinaryHash@D@234@@tl@5@AEBUSFlags@75@@Z 0000000180015a9c f   umodsys_lib_libmedia:umodsys.mod.media.zlib.obj
 0001:00015064       ?data_reader@RBinArchiveFrameClient_ZIP@zlib@media@modules@UModSys@@UEAA?AU?$TRefObject@UIStreamReader@libmedia@UModSys@@U?$TRefObjectFunc@UIStreamReader@libmedia@UModSys@@@tl@3@@tl@5@PEAUIBinArchiveFrame@libmedia@5@PEAUNameNode@895@AEBUSFlags@95@@Z 0000000180016064 f   umodsys_lib_libmedia:umodsys.mod.media.zlib.obj
 0001:00015300       ?data_writer@RBinArchiveFrameClient_ZIP@zlib@media@modules@UModSys@@UEAA?AU?$TRefObject@UIStreamWriter@libmedia@UModSys@@U?$TRefObjectFunc@UIStreamWriter@libmedia@UModSys@@@tl@3@@tl@5@PEAUIBinArchiveFrame@libmedia@5@AEBU?$TString@U?$TSCoreConst@D@su@tl@UModSys@@U?$TComparerBinaryHash@D@234@@75@AEBUSFlags@95@@Z 0000000180016300 f   umodsys_lib_libmedia:umodsys.mod.media.zlib.obj
 0001:00015300       ?new_picture@RRenderDriver2D@SDL_core@ui@modules@UModSys@@UEAA?AU?$TRefObject@UIImage@lib2d@UModSys@@U?$TRefObjectFunc@UIImage@lib2d@UModSys@@@tl@3@@tl@5@AEBUSParameters@core@5@AEBU?$TString@U?$TSCoreConst@D@su@tl@UModSys@@U?$TComparerBinaryHash@D@234@@75@@Z 0000000180016300 f   umodsys_lib_libui:umodsys.mod.ui.SDL_core.obj
 0001:00015310       ?node_info@RBinArchiveFrameClient_ZIP@zlib@media@modules@UModSys@@UEAA_NPEAUIBinArchiveFrame@libmedia@5@AEAUSFileInfo@75@PEAUNameNode@675@@Z 0000000180016310 f   umodsys_lib_libmedia:umodsys.mod.media.zlib.obj
 0001:00015324       ?arc_init@RBinArchiveFrameClient_ZIP@zlib@media@modules@UModSys@@UEAA_NPEAUIBinArchiveFrame@libmedia@5@PEBUSParameters@core@5@@Z 0000000180016324 f   umodsys_lib_libmedia:umodsys.mod.media.zlib.obj
 0001:00015384       ?setup_fixed_cell@RMultiImage2D_SDL_ttf@SDL_core@ui@modules@UModSys@@UEAA_NHH@Z 0000000180016384 f   umodsys_lib_libui:umodsys.mod.ui.SDL_core.obj
 0001:00015384       ?key_reset@RKeyboardController@SDL_core@ui@modules@UModSys@@UEAA_NXZ 0000000180016384 f   umodsys_lib_libui:umodsys.mod.ui.SDL_core.obj
 0001:00015384       ?frame_remove@RCollector@frames@ui@modules@UModSys@@UEAA_NPEAUIFrame@libui@5@@Z 0000000180016384 f   umodsys_lib_libui:umodsys.mod.ui.frames.obj
 0001:00015384       ?set_hint@RMultiImage@stdlib@lib2d@modules@UModSys@@UEAA_NPEBD0@Z 0000000180016384 f   umodsys_lib_lib2d:umodsys.mod.2d.stdlib.obj
 0001:00015384       ?mouse_event@RFrame_Common@frames@ui@modules@UModSys@@MEAA_NPEBUSMouseInput@libui@5@@Z 0000000180016384 f   umodsys_lib_libui:umodsys.mod.ui.frames.obj
 0001:00015384       ?key_setmodifier@RKeyboardController@SDL_core@ui@modules@UModSys@@UEAA_NHHH@Z 0000000180016384 f   umodsys_lib_libui:umodsys.mod.ui.SDL_core.obj
 0001:00015384       ?set_hint@RMultiImage2D_SDL_ttf@SDL_core@ui@modules@UModSys@@UEAA_NPEBD0@Z 0000000180016384 f   umodsys_lib_libui:umodsys.mod.ui.SDL_core.obj
 0001:00015384       ?set_repeater@RFrame_Common@frames@ui@modules@UModSys@@UEAA_NHH@Z 0000000180016384 f   umodsys_lib_libui:umodsys.mod.ui.frames.obj
 0001:00015384       ?output_attach_3d@RCollector@frames@ui@modules@UModSys@@UEAA_NPEAUIRenderDriver@lib3d@5@H@Z 0000000180016384 f   umodsys_lib_libui:umodsys.mod.ui.frames.obj
 0001:00015384       ?mouse_setposition@RMouseController@SDL_core@ui@modules@UModSys@@UEAA_NHH@Z 0000000180016384 f   umodsys_lib_libui:umodsys.mod.ui.SDL_core.obj
 0001:00015384       ?mouse_reset@RMouseController@SDL_core@ui@modules@UModSys@@UEAA_NXZ 0000000180016384 f   umodsys_lib_libui:umodsys.mod.ui.SDL_core.obj
 0001:00015384       ?set_layer_count@RMultiImage2D_SDL_ttf@SDL_core@ui@modules@UModSys@@UEAA_NG@Z 0000000180016384 f   umodsys_lib_libui:umodsys.mod.ui.SDL_core.obj
 0001:00015384       ?get_cell@RMultiImage2D_SDL_ttf@SDL_core@ui@modules@UModSys@@UEBA_NIAEAUSImageCellInfo@lib2d@5@@Z 0000000180016384 f   umodsys_lib_libui:umodsys.mod.ui.SDL_core.obj
 0001:00015384       ?mouse_setvisible@RMouseController@SDL_core@ui@modules@UModSys@@UEAA_N_N@Z 0000000180016384 f   umodsys_lib_libui:umodsys.mod.ui.SDL_core.obj
 0001:00015384       ?arc_deinit@RBinArchiveFrameClient_ZIP@zlib@media@modules@UModSys@@UEAA_NPEAUIBinArchiveFrame@libmedia@5@@Z 0000000180016384 f   umodsys_lib_libmedia:umodsys.mod.media.zlib.obj
 0001:00015384       ?key_setrepeat@RKeyboardController@SDL_core@ui@modules@UModSys@@UEAA_NMM@Z 0000000180016384 f   umodsys_lib_libui:umodsys.mod.ui.SDL_core.obj
 0001:00015384       ?set_insize@RFrame_Common@frames@ui@modules@UModSys@@UEAA_NAEBU?$TVector2@H@math3d@5@@Z 0000000180016384 f   umodsys_lib_libui:umodsys.mod.ui.frames.obj
 0001:00015384       ?get_minsize@RCollector@frames@ui@modules@UModSys@@UEAA_NAEAU?$TVector2@H@math3d@5@@Z 0000000180016384 f   umodsys_lib_libui:umodsys.mod.ui.frames.obj
 0001:00015384       ?key_event@RFrame_Common@frames@ui@modules@UModSys@@MEAA_NAEBUSKeyboardInputText@libui@5@@Z 0000000180016384 f   umodsys_lib_libui:umodsys.mod.ui.frames.obj
 0001:00015384       ?set_parameters@RRenderDriver2D@SDL_core@ui@modules@UModSys@@UEAA_NPEBDAEBUSParameters@core@5@@Z 0000000180016384 f   umodsys_lib_libui:umodsys.mod.ui.SDL_core.obj
 0001:00015384       ?key_event@RFrame_Common@frames@ui@modules@UModSys@@MEAA_NAEBUSKeyboardInputRaw@libui@5@@Z 0000000180016384 f   umodsys_lib_libui:umodsys.mod.ui.frames.obj
 0001:00015384       ?command_draw@RTest1_Shell@test1@test@modules@UModSys@@UEAA_NAEBUSController@libui@5@PEAUIRenderDriver@lib2d@5@AEBU?$TBoundBox2@H@math3d@5@@Z 0000000180016384 f   plugin_test1.obj
 0001:00015384       ?get_cell@RMultiImage2D_SDL_ttf@SDL_core@ui@modules@UModSys@@UEBA_NIAEAU?$TVector2@H@math3d@5@PEAU675@PEAG@Z 0000000180016384 f   umodsys_lib_libui:umodsys.mod.ui.SDL_core.obj
 0001:00015384       ?get_maxbox@RCollector@frames@ui@modules@UModSys@@UEAA_NAEAU?$TBoundBox2@H@math3d@5@@Z 0000000180016384 f   umodsys_lib_libui:umodsys.mod.ui.frames.obj
 0001:00015384       ?filter_load@RMediaFilter@images_std@media@modules@UModSys@@UEAA_NAEBUSInfo@IBinObjFilter@libmedia@5@AEAU?$TRefObject@UIRefObject@core@UModSys@@U?$TRefObjectFunc@UIRefObject@core@UModSys@@@tl@3@@tl@5@@Z 0000000180016384 f   umodsys_lib_libmedia:umodsys.mod.media.images_std.obj
 0001:00015384       ?setup_variable_cell@RMultiImage2D_SDL_ttf@SDL_core@ui@modules@UModSys@@UEAA_NPEBUSImageCellInfo@lib2d@5@KK@Z 0000000180016384 f   umodsys_lib_libui:umodsys.mod.ui.SDL_core.obj
 0001:00015388       ?filer_pre_scan@RBinArchiveFrameClient_ZIP@zlib@media@modules@UModSys@@UEAA_NPEAUIBinArchiveFrame@libmedia@5@AEA_KPEBUSParameters@core@5@@Z 0000000180016388 f   umodsys_lib_libmedia:umodsys.mod.media.zlib.obj
 0001:00015638       ?filer_scan@RBinArchiveFrameClient_ZIP@zlib@media@modules@UModSys@@UEAA_NPEAUIBinArchiveFrame@libmedia@5@AEAUSMem@core@5@PEBUSParameters@95@@Z 0000000180016638 f   umodsys_lib_libmedia:umodsys.mod.media.zlib.obj
 0001:00015850       ?filew_init@RBinArchiveFrameClient_ZIP@zlib@media@modules@UModSys@@UEAA_NPEAUIBinArchiveFrame@libmedia@5@PEBUSParameters@core@5@@Z 0000000180016850 f   umodsys_lib_libmedia:umodsys.mod.media.zlib.obj
 0001:0001586c       ?filew_copy_data@RBinArchiveFrameClient_ZIP@zlib@media@modules@UModSys@@UEAA_NPEAUIBinArchiveFrame@libmedia@5@PEAUNameNode@675@@Z 000000018001686c f   umodsys_lib_libmedia:umodsys.mod.media.zlib.obj
 0001:000159c0       ?filew_writedir_start@RBinArchiveFrameClient_ZIP@zlib@media@modules@UModSys@@UEAA_NPEAUIBinArchiveFrame@libmedia@5@@Z 00000001800169c0 f   umodsys_lib_libmedia:umodsys.mod.media.zlib.obj
 0001:000159ec       ?filew_writedir_entry@RBinArchiveFrameClient_ZIP@zlib@media@modules@UModSys@@UEAA_NPEAUIBinArchiveFrame@libmedia@5@PEAUNameNode@675@@Z 00000001800169ec f   umodsys_lib_libmedia:umodsys.mod.media.zlib.obj
 0001:00015b80       ?filew_writedir_end@RBinArchiveFrameClient_ZIP@zlib@media@modules@UModSys@@UEAA_NPEAUIBinArchiveFrame@libmedia@5@@Z 0000000180016b80 f   umodsys_lib_libmedia:umodsys.mod.media.zlib.obj
 0001:00015c28       ?do_open@RModuleReg@zlib@media@modules@UModSys@@UEAA_NXZ 0000000180016c28 f i umodsys_lib_libmedia:umodsys.mod.media.zlib.obj
 0001:00015c9c       ?do_close@RModuleReg@zlib@media@modules@UModSys@@UEAA_NXZ 0000000180016c9c f i umodsys_lib_libmedia:umodsys.mod.media.zlib.obj
 0001:00015cec       ?get_module@RGenerator@zlib@media@modules@UModSys@@UEBAPEAUIModule@base@5@XZ 0000000180016cec f   umodsys_lib_libmedia:umodsys.mod.media.zlib.obj
 0001:00015cf4       ?mod_inc@RGenerator@zlib@media@modules@UModSys@@UEBA_NXZ 0000000180016cf4 f   umodsys_lib_libmedia:umodsys.mod.media.zlib.obj
 0001:00015d08       ?mod_dec@RGenerator@zlib@media@modules@UModSys@@UEBA_NXZ 0000000180016d08 f   umodsys_lib_libmedia:umodsys.mod.media.zlib.obj
 0001:00015d1c       ?s_holder@RGenerator@zlib@media@modules@UModSys@@SAAEAU?$TTypeStaticHolder@URGenerator@zlib@media@modules@UModSys@@@tl@5@XZ 0000000180016d1c f   umodsys_lib_libmedia:umodsys.mod.media.zlib.obj
 0001:00015d60       ?Link@SModuleContext@base@UModSys@@QEAAXPEAUISystem@23@PEAUIMemAlloc@core@3@@Z 0000000180016d60 f   umodsys_lib_base:umodsys.base.modulecontext.obj
 0001:00015dd4       ?put@SDebug@base@UModSys@@QEBA_NEHPEBDZZ 0000000180016dd4 f   umodsys_lib_base:umodsys.base.debug.obj
 0001:00015e10       ??0SModuleRegChain@base@UModSys@@QEAA@AEAUIModuleReg@12@@Z 0000000180016e10 f   umodsys_lib_base:umodsys.base.moduleregchain.obj
 0001:00015e50       ?mlr_count@RModuleLibraryReg_Chain@base@UModSys@@UEBA_KXZ 0000000180016e50 f   umodsys_lib_base:umodsys.base.moduleregchain.obj
 0001:00015e88       ?mlr_get@RModuleLibraryReg_Chain@base@UModSys@@UEBAPEAUIModuleReg@23@_K@Z 0000000180016e88 f   umodsys_lib_base:umodsys.base.moduleregchain.obj
 0001:00015eb4       ?mlr_open@RModuleLibraryReg_Chain@base@UModSys@@UEAA_NPEAUISystem@23@PEAUIMemAlloc@core@3@@Z 0000000180016eb4 f   umodsys_lib_base:umodsys.base.moduleregchain.obj
 0001:00015f38       ?mlr_close@RModuleLibraryReg_Chain@base@UModSys@@UEAA_NXZ 0000000180016f38 f   umodsys_lib_base:umodsys.base.moduleregchain.obj
 0001:00015fc0       ?mlr_isopen@RModuleLibraryReg_Chain@base@UModSys@@UEBA_NXZ 0000000180016fc0 f   umodsys_lib_base:umodsys.base.moduleregchain.obj
 0001:00015fd0       ??_GRModuleLibraryReg_Chain@base@UModSys@@UEAAPEAXI@Z 0000000180016fd0 f i umodsys_lib_base:umodsys.base.moduleregchain.obj
 0001:00015fd0       ??_GIModuleLibraryReg@base@UModSys@@UEAAPEAXI@Z 0000000180016fd0 f i umodsys_lib_base:umodsys.base.modulereg.obj
 0001:00015fd0       ??_EIModuleLibraryReg@base@UModSys@@UEAAPEAXI@Z 0000000180016fd0 f i  CIL library: CIL module
 0001:00015fd0       ??_ERModuleLibraryReg_Chain@base@UModSys@@UEAAPEAXI@Z 0000000180016fd0 f i  CIL library: CIL module
 0001:00015ff8       UModSys_Plugin_Entry2      0000000180016ff8 f   umodsys_lib_base:umodsys.so_main.win32.obj
 0001:00016000       ??0IModuleReg@base@UModSys@@QEAA@PEBDGG0K_JPEAUSDebug@12@@Z 0000000180017000 f   umodsys_lib_base:umodsys.base.modulereg.obj
 0001:00016084       ?mr_getdebug@IModuleReg@base@UModSys@@UEBAPEAUSDebug@23@XZ 0000000180017084 f   umodsys_lib_base:umodsys.base.modulereg.obj
 0001:0001608c       ?mr_isopen@IModuleReg@base@UModSys@@UEBA_NXZ 000000018001708c f   umodsys_lib_base:umodsys.base.modulereg.obj
 0001:00016098       ?mr_open@IModuleReg@base@UModSys@@UEAA_NXZ 0000000180017098 f   umodsys_lib_base:umodsys.base.modulereg.obj
 0001:00016100       ?mr_close@IModuleReg@base@UModSys@@UEAA_NXZ 0000000180017100 f   umodsys_lib_base:umodsys.base.modulereg.obj
 0001:00016148       ?utf_32to8@su@tl@UModSys@@YA_KPEAD_KH@Z 0000000180017148 f   umodsys_lib_core:umodsys.tl.utf8.obj
 0001:0001623c       ?utf_32to8@su@tl@UModSys@@YA_KPEAD_KPEBH1_N@Z 000000018001723c f   umodsys_lib_core:umodsys.tl.utf8.obj
 0001:000162b0       ?utf_8to32@su@tl@UModSys@@YA_NAEAHAEAPEBDAEA_K@Z 00000001800172b0 f   umodsys_lib_core:umodsys.tl.utf8.obj
 0001:000163c4       ?utf_8to32@su@tl@UModSys@@YA_KPEAH_KPEBD1_N@Z 00000001800173c4 f   umodsys_lib_core:umodsys.tl.utf8.obj
 0001:00016428       ??0SUniquePointer@core@UModSys@@QEAA@PEBD0H@Z 0000000180017428 f   umodsys_lib_core:umodsys.core.uniqueptr.obj
 0001:00016478       ??1SModuleRegChain@base@UModSys@@QEAA@XZ 0000000180017478 f   umodsys_lib_base:umodsys.base.moduleregchain.obj
 0001:00016478       ??1SUniquePointer@core@UModSys@@QEAA@XZ 0000000180017478 f   umodsys_lib_core:umodsys.core.uniqueptr.obj
 0001:000164a0       ?suicide@IRoot@core@UModSys@@UEAAXXZ 00000001800174a0 f   umodsys_lib_core:umodsys.core.objects.obj
 0001:000164b8       ??3IRoot@core@UModSys@@SAXPEAX@Z 00000001800174b8 f   umodsys_lib_core:umodsys.core.objects.obj
 0001:000164e0       ?utf_nocase32@su@tl@UModSys@@YAHH@Z 00000001800174e0 f   umodsys_lib_core:umodsys.tl.utfcase.obj
 0001:00018a80       ?utf8_cmp_nocase_bin@su@tl@UModSys@@YAHPEBD0_K1@Z 0000000180019a80 f   umodsys_lib_core:umodsys.tl.utfcase.obj
 0001:00018b40       _onexit                    0000000180019b40 f   MSVCRT:atonexit.obj
 0001:00018bf0       atexit                     0000000180019bf0 f   MSVCRT:atonexit.obj
 0001:00018c08       _purecall                  0000000180019c08 f   MSVCRT:MSVCR90.dll
 0001:00018c0e       ??3@YAXPEAX@Z              0000000180019c0e f   MSVCRT:MSVCR90.dll
 0001:00018c14       ??_Etype_info@@UEAAPEAXI@Z 0000000180019c14 f i MSVCRT:ti_inst.obj
 0001:00018ce0       _CRT_INIT                  0000000180019ce0 f   MSVCRT:crtdll.obj
 0001:00019074       _DllMainCRTStartup         000000018001a074 f   MSVCRT:crtdll.obj
 0001:000190b2       ??2@YAPEAX_K@Z             000000018001a0b2 f   MSVCRT:MSVCR90.dll
 0001:000190b8       __C_specific_handler       000000018001a0b8 f   MSVCRT:MSVCR90.dll
 0001:000190be       _unlock                    000000018001a0be f   MSVCRT:MSVCR90.dll
 0001:000190c4       __dllonexit                000000018001a0c4 f   MSVCRT:MSVCR90.dll
 0001:000190ca       _lock                      000000018001a0ca f   MSVCRT:MSVCR90.dll
 0001:000190d0       ?__ArrayUnwind@@YAXPEAX_KHP6AX0@Z@Z 000000018001a0d0 f   MSVCRT:ehvecdtr.obj
 0001:0001911c       ??_M@YAXPEAX_KHP6AX0@Z@Z   000000018001a11c f   MSVCRT:ehvecdtr.obj
 0001:0001917c       __clean_type_info_names    000000018001a17c f   MSVCRT:tncleanup.obj
 0001:00019188       _RTC_Initialize            000000018001a188 f   MSVCRT:_initsect_.obj
 0001:000191c0       _RTC_Terminate             000000018001a1c0 f   MSVCRT:_initsect_.obj
 0001:00019200       _ValidateImageBase         000000018001a200 f   MSVCRT:pesect.obj
 0001:00019230       _FindPESection             000000018001a230 f   MSVCRT:pesect.obj
 0001:00019280       _IsNonwritableInCurrentImage 000000018001a280 f   MSVCRT:pesect.obj
 0001:000192c2       _initterm                  000000018001a2c2 f   MSVCRT:MSVCR90.dll
 0001:000192c8       _initterm_e                000000018001a2c8 f   MSVCRT:MSVCR90.dll
 0001:000192ce       _amsg_exit                 000000018001a2ce f   MSVCRT:MSVCR90.dll
 0001:000192d4       __CppXcptFilter            000000018001a2d4 f   MSVCRT:MSVCR90.dll
 0001:000192dc       DllMain                    000000018001a2dc f   MSVCRT:dllmain.obj
 0001:00019300       __security_init_cookie     000000018001a300 f   MSVCRT:gs_support.obj
 0001:000193b4       ?terminate@@YAXXZ          000000018001a3b4 f   MSVCRT:MSVCR90.dll
 0001:000193ba       ??1type_info@@UEAA@XZ      000000018001a3ba f   MSVCRT:MSVCR90.dll
 0001:000193ba       ?_type_info_dtor_internal_method@type_info@@QEAAXXZ 000000018001a3ba f   MSVCRT:MSVCR90.dll
 0001:000193c0       __clean_type_info_names_internal 000000018001a3c0 f   MSVCRT:MSVCR90.dll
 0001:000193c6       crc32                      000000018001a3c6 f   lib_zlib:lib_zlib.dll
 0001:000193cc       deflateEnd                 000000018001a3cc f   lib_zlib:lib_zlib.dll
 0001:000193d2       inflateInit2_              000000018001a3d2 f   lib_zlib:lib_zlib.dll
 0001:000193d8       inflate                    000000018001a3d8 f   lib_zlib:lib_zlib.dll
 0001:000193de       inflateEnd                 000000018001a3de f   lib_zlib:lib_zlib.dll
 0001:000193e4       deflate                    000000018001a3e4 f   lib_zlib:lib_zlib.dll
 0001:000193ea       deflateInit2_              000000018001a3ea f   lib_zlib:lib_zlib.dll
 0001:000193f0       png_get_IHDR               000000018001a3f0 f   lib_libpng:lib_libpng.dll
 0001:000193f6       png_write_info             000000018001a3f6 f   lib_libpng:lib_libpng.dll
 0001:000193fc       png_destroy_write_struct   000000018001a3fc f   lib_libpng:lib_libpng.dll
 0001:00019402       png_set_write_fn           000000018001a402 f   lib_libpng:lib_libpng.dll
 0001:00019408       png_read_info              000000018001a408 f   lib_libpng:lib_libpng.dll
 0001:0001940e       png_sig_cmp                000000018001a40e f   lib_libpng:lib_libpng.dll
 0001:00019414       png_write_rows             000000018001a414 f   lib_libpng:lib_libpng.dll
 0001:0001941a       png_create_read_struct     000000018001a41a f   lib_libpng:lib_libpng.dll
 0001:00019420       png_write_end              000000018001a420 f   lib_libpng:lib_libpng.dll
 0001:00019426       png_get_io_ptr             000000018001a426 f   lib_libpng:lib_libpng.dll
 0001:0001942c       png_create_info_struct     000000018001a42c f   lib_libpng:lib_libpng.dll
 0001:00019432       png_set_read_fn            000000018001a432 f   lib_libpng:lib_libpng.dll
 0001:00019438       png_read_update_info       000000018001a438 f   lib_libpng:lib_libpng.dll
 0001:0001943e       png_set_sig_bytes          000000018001a43e f   lib_libpng:lib_libpng.dll
 0001:00019444       png_set_longjmp_fn         000000018001a444 f   lib_libpng:lib_libpng.dll
 0001:0001944a       png_create_write_struct    000000018001a44a f   lib_libpng:lib_libpng.dll
 0001:00019450       png_read_row               000000018001a450 f   lib_libpng:lib_libpng.dll
 0001:00019456       png_error                  000000018001a456 f   lib_libpng:lib_libpng.dll
 0001:0001945c       png_set_IHDR               000000018001a45c f   lib_libpng:lib_libpng.dll
 0001:00019462       png_destroy_read_struct    000000018001a462 f   lib_libpng:lib_libpng.dll
 0001:00019468       SDL_StopTextInput          000000018001a468 f   lib_SDL2:lib_SDL2.dll
 0001:0001946e       SDL_RenderDrawLine         000000018001a46e f   lib_SDL2:lib_SDL2.dll
 0001:00019474       SDL_RenderDrawLines        000000018001a474 f   lib_SDL2:lib_SDL2.dll
 0001:0001947a       SDL_Init                   000000018001a47a f   lib_SDL2:lib_SDL2.dll
 0001:00019480       SDL_DestroyWindow          000000018001a480 f   lib_SDL2:lib_SDL2.dll
 0001:00019486       TTF_GlyphMetrics           000000018001a486 f   lib_SDL2:lib_SDL2.dll
 0001:0001948c       SDL_CreateWindow           000000018001a48c f   lib_SDL2:lib_SDL2.dll
 0001:00019492       SDL_RenderCopy             000000018001a492 f   lib_SDL2:lib_SDL2.dll
 0001:00019498       SDL_DestroyRenderer        000000018001a498 f   lib_SDL2:lib_SDL2.dll
 0001:0001949e       SDL_DestroyTexture         000000018001a49e f   lib_SDL2:lib_SDL2.dll
 0001:000194a4       SDL_CreateTextureFromSurface 000000018001a4a4 f   lib_SDL2:lib_SDL2.dll
 0001:000194aa       SDL_RenderPresent          000000018001a4aa f   lib_SDL2:lib_SDL2.dll
 0001:000194b0       SDL_SetRenderDrawBlendMode 000000018001a4b0 f   lib_SDL2:lib_SDL2.dll
 0001:000194b6       SDL_SetRenderDrawColor     000000018001a4b6 f   lib_SDL2:lib_SDL2.dll
 0001:000194bc       TTF_OpenFont               000000018001a4bc f   lib_SDL2:lib_SDL2.dll
 0001:000194c2       TTF_CloseFont              000000018001a4c2 f   lib_SDL2:lib_SDL2.dll
 0001:000194c8       TTF_Init                   000000018001a4c8 f   lib_SDL2:lib_SDL2.dll
 0001:000194ce       SDL_PumpEvents             000000018001a4ce f   lib_SDL2:lib_SDL2.dll
 0001:000194d4       TTF_RenderGlyph_Shaded     000000018001a4d4 f   lib_SDL2:lib_SDL2.dll
 0001:000194da       SDL_Delay                  000000018001a4da f   lib_SDL2:lib_SDL2.dll
 0001:000194e0       SDL_RenderClear            000000018001a4e0 f   lib_SDL2:lib_SDL2.dll
 0001:000194e6       SDL_CreateRenderer         000000018001a4e6 f   lib_SDL2:lib_SDL2.dll
 0001:000194ec       SDL_SetTextureColorMod     000000018001a4ec f   lib_SDL2:lib_SDL2.dll
 0001:000194f2       SDL_StartTextInput         000000018001a4f2 f   lib_SDL2:lib_SDL2.dll
 0001:000194f8       SDL_PeepEvents             000000018001a4f8 f   lib_SDL2:lib_SDL2.dll
 0001:000194fe       SDL_GetTicks               000000018001a4fe f   lib_SDL2:lib_SDL2.dll
 0001:00019504       SDL_RenderFillRect         000000018001a504 f   lib_SDL2:lib_SDL2.dll
 0001:0001950a       SDL_RenderDrawRect         000000018001a50a f   lib_SDL2:lib_SDL2.dll
 0001:00019510       TTF_Quit                   000000018001a510 f   lib_SDL2:lib_SDL2.dll
 0001:00019516       SDL_Quit                   000000018001a516 f   lib_SDL2:lib_SDL2.dll
 0001:0001951c       SDL_FreeSurface            000000018001a51c f   lib_SDL2:lib_SDL2.dll
 0001:00019522       memcpy                     000000018001a522 f   MSVCRT:MSVCR90.dll
 0001:00019528       __CxxFrameHandler3         000000018001a528 f   MSVCRT:MSVCR90.dll
 0001:0001952e       memset                     000000018001a52e f   MSVCRT:MSVCR90.dll
 0001:00019534       _setjmp                    000000018001a534 f   MSVCRT:MSVCR90.dll
 0001:00019550       _alloca_probe              000000018001a550     MSVCRT:chkstk.obj
 0001:00019550       __chkstk                   000000018001a550 f   MSVCRT:chkstk.obj
 0002:00000000       __imp_Sleep                000000018001e000     kernel32:KERNEL32.dll
 0002:00000008       __imp_QueryPerformanceCounter 000000018001e008     kernel32:KERNEL32.dll
 0002:00000010       __imp_GetTickCount         000000018001e010     kernel32:KERNEL32.dll
 0002:00000018       __imp_GetCurrentThreadId   000000018001e018     kernel32:KERNEL32.dll
 0002:00000020       __imp_GetCurrentProcessId  000000018001e020     kernel32:KERNEL32.dll
 0002:00000028       __imp_GetSystemTimeAsFileTime 000000018001e028     kernel32:KERNEL32.dll
 0002:00000030       __imp_DisableThreadLibraryCalls 000000018001e030     kernel32:KERNEL32.dll
 0002:00000038       \177KERNEL32_NULL_THUNK_DATA 000000018001e038     kernel32:KERNEL32.dll
 0002:00000040       __imp_longjmp              000000018001e040     MSVCRT:MSVCR90.dll
 0002:00000048       __imp_strtod               000000018001e048     MSVCRT:MSVCR90.dll
 0002:00000050       __imp__snprintf            000000018001e050     MSVCRT:MSVCR90.dll
 0002:00000058       __imp_strtol               000000018001e058     MSVCRT:MSVCR90.dll
 0002:00000060       __imp_strncpy              000000018001e060     MSVCRT:MSVCR90.dll
 0002:00000068       __imp___C_specific_handler 000000018001e068     MSVCRT:MSVCR90.dll
 0002:00000070       __imp__unlock              000000018001e070     MSVCRT:MSVCR90.dll
 0002:00000078       __imp___dllonexit          000000018001e078     MSVCRT:MSVCR90.dll
 0002:00000080       __imp__encode_pointer      000000018001e080     MSVCRT:MSVCR90.dll
 0002:00000088       __imp__lock                000000018001e088     MSVCRT:MSVCR90.dll
 0002:00000090       __imp__onexit              000000018001e090     MSVCRT:MSVCR90.dll
 0002:00000098       __imp__decode_pointer      000000018001e098     MSVCRT:MSVCR90.dll
 0002:000000a0       __imp__malloc_crt          000000018001e0a0     MSVCRT:MSVCR90.dll
 0002:000000a8       __imp_memchr               000000018001e0a8     MSVCRT:MSVCR90.dll
 0002:000000b0       __imp__initterm_e          000000018001e0b0     MSVCRT:MSVCR90.dll
 0002:000000b8       __imp_free                 000000018001e0b8     MSVCRT:MSVCR90.dll
 0002:000000c0       __imp__encoded_null        000000018001e0c0     MSVCRT:MSVCR90.dll
 0002:000000c8       __imp__amsg_exit           000000018001e0c8     MSVCRT:MSVCR90.dll
 0002:000000d0       __imp___CppXcptFilter      000000018001e0d0     MSVCRT:MSVCR90.dll
 0002:000000d8       __imp_vsnprintf            000000018001e0d8     MSVCRT:MSVCR90.dll
 0002:000000d8       __imp__vsnprintf           000000018001e0d8     MSVCRT:MSVCR90.dll
 0002:000000e0       __imp_?terminate@@YAXXZ    000000018001e0e0     MSVCRT:MSVCR90.dll
 0002:000000e8       __imp_?_type_info_dtor_internal_method@type_info@@QEAAXXZ 000000018001e0e8     MSVCRT:MSVCR90.dll
 0002:000000f0       __imp___clean_type_info_names_internal 000000018001e0f0     MSVCRT:MSVCR90.dll
 0002:000000f8       __imp_memset               000000018001e0f8     MSVCRT:MSVCR90.dll
 0002:00000100       __imp___CxxFrameHandler3   000000018001e100     MSVCRT:MSVCR90.dll
 0002:00000108       __imp_memcpy               000000018001e108     MSVCRT:MSVCR90.dll
 0002:00000110       __imp_strstr               000000018001e110     MSVCRT:MSVCR90.dll
 0002:00000118       __imp_memmove              000000018001e118     MSVCRT:MSVCR90.dll
 0002:00000120       __imp_??2@YAPEAX_K@Z       000000018001e120     MSVCRT:MSVCR90.dll
 0002:00000128       __imp_??3@YAXPEAX@Z        000000018001e128     MSVCRT:MSVCR90.dll
 0002:00000130       __imp__purecall            000000018001e130     MSVCRT:MSVCR90.dll
 0002:00000138       __imp_strncmp              000000018001e138     MSVCRT:MSVCR90.dll
 0002:00000140       __imp__initterm            000000018001e140     MSVCRT:MSVCR90.dll
 0002:00000148       __imp_sprintf              000000018001e148     MSVCRT:MSVCR90.dll
 0002:00000150       __imp__setjmp              000000018001e150     MSVCRT:MSVCR90.dll
 0002:00000158       \177MSVCR90_NULL_THUNK_DATA 000000018001e158     MSVCRT:MSVCR90.dll
 0002:00000160       __imp_SDL_DestroyRenderer  000000018001e160     lib_SDL2:lib_SDL2.dll
 0002:00000168       __imp_SDL_FreeSurface      000000018001e168     lib_SDL2:lib_SDL2.dll
 0002:00000170       __imp_SDL_Quit             000000018001e170     lib_SDL2:lib_SDL2.dll
 0002:00000178       __imp_TTF_Quit             000000018001e178     lib_SDL2:lib_SDL2.dll
 0002:00000180       __imp_SDL_RenderDrawRect   000000018001e180     lib_SDL2:lib_SDL2.dll
 0002:00000188       __imp_SDL_RenderFillRect   000000018001e188     lib_SDL2:lib_SDL2.dll
 0002:00000190       __imp_SDL_GetTicks         000000018001e190     lib_SDL2:lib_SDL2.dll
 0002:00000198       __imp_SDL_PeepEvents       000000018001e198     lib_SDL2:lib_SDL2.dll
 0002:000001a0       __imp_SDL_StartTextInput   000000018001e1a0     lib_SDL2:lib_SDL2.dll
 0002:000001a8       __imp_SDL_SetTextureColorMod 000000018001e1a8     lib_SDL2:lib_SDL2.dll
 0002:000001b0       __imp_SDL_CreateRenderer   000000018001e1b0     lib_SDL2:lib_SDL2.dll
 0002:000001b8       __imp_SDL_RenderClear      000000018001e1b8     lib_SDL2:lib_SDL2.dll
 0002:000001c0       __imp_SDL_Delay            000000018001e1c0     lib_SDL2:lib_SDL2.dll
 0002:000001c8       __imp_TTF_RenderGlyph_Shaded 000000018001e1c8     lib_SDL2:lib_SDL2.dll
 0002:000001d0       __imp_SDL_PumpEvents       000000018001e1d0     lib_SDL2:lib_SDL2.dll
 0002:000001d8       __imp_TTF_Init             000000018001e1d8     lib_SDL2:lib_SDL2.dll
 0002:000001e0       __imp_TTF_CloseFont        000000018001e1e0     lib_SDL2:lib_SDL2.dll
 0002:000001e8       __imp_TTF_OpenFont         000000018001e1e8     lib_SDL2:lib_SDL2.dll
 0002:000001f0       __imp_SDL_SetRenderDrawColor 000000018001e1f0     lib_SDL2:lib_SDL2.dll
 0002:000001f8       __imp_SDL_SetRenderDrawBlendMode 000000018001e1f8     lib_SDL2:lib_SDL2.dll
 0002:00000200       __imp_SDL_RenderPresent    000000018001e200     lib_SDL2:lib_SDL2.dll
 0002:00000208       __imp_SDL_CreateTextureFromSurface 000000018001e208     lib_SDL2:lib_SDL2.dll
 0002:00000210       __imp_SDL_DestroyTexture   000000018001e210     lib_SDL2:lib_SDL2.dll
 0002:00000218       __imp_SDL_RenderCopy       000000018001e218     lib_SDL2:lib_SDL2.dll
 0002:00000220       __imp_SDL_CreateWindow     000000018001e220     lib_SDL2:lib_SDL2.dll
 0002:00000228       __imp_TTF_GlyphMetrics     000000018001e228     lib_SDL2:lib_SDL2.dll
 0002:00000230       __imp_SDL_DestroyWindow    000000018001e230     lib_SDL2:lib_SDL2.dll
 0002:00000238       __imp_SDL_StopTextInput    000000018001e238     lib_SDL2:lib_SDL2.dll
 0002:00000240       __imp_SDL_RenderDrawLine   000000018001e240     lib_SDL2:lib_SDL2.dll
 0002:00000248       __imp_SDL_RenderDrawLines  000000018001e248     lib_SDL2:lib_SDL2.dll
 0002:00000250       __imp_SDL_Init             000000018001e250     lib_SDL2:lib_SDL2.dll
 0002:00000258       \177lib_SDL2_NULL_THUNK_DATA 000000018001e258     lib_SDL2:lib_SDL2.dll
 0002:00000260       __imp_jpeg_std_error       000000018001e260     lib_jpeglib:lib_jpeglib.dll
 0002:00000268       __imp_jpeg_read_scanlines  000000018001e268     lib_jpeglib:lib_jpeglib.dll
 0002:00000270       __imp_jpeg_finish_decompress 000000018001e270     lib_jpeglib:lib_jpeglib.dll
 0002:00000278       __imp_jpeg_read_header     000000018001e278     lib_jpeglib:lib_jpeglib.dll
 0002:00000280       __imp_jpeg_resync_to_restart 000000018001e280     lib_jpeglib:lib_jpeglib.dll
 0002:00000288       __imp_jpeg_destroy_decompress 000000018001e288     lib_jpeglib:lib_jpeglib.dll
 0002:00000290       __imp_jpeg_CreateDecompress 000000018001e290     lib_jpeglib:lib_jpeglib.dll
 0002:00000298       __imp_jpeg_start_decompress 000000018001e298     lib_jpeglib:lib_jpeglib.dll
 0002:000002a0       __imp_jpeg_destroy         000000018001e2a0     lib_jpeglib:lib_jpeglib.dll
 0002:000002a8       \177lib_jpeglib_NULL_THUNK_DATA 000000018001e2a8     lib_jpeglib:lib_jpeglib.dll
 0002:000002b0       __imp_png_destroy_read_struct 000000018001e2b0     lib_libpng:lib_libpng.dll
 0002:000002b8       __imp_png_set_IHDR         000000018001e2b8     lib_libpng:lib_libpng.dll
 0002:000002c0       __imp_png_read_info        000000018001e2c0     lib_libpng:lib_libpng.dll
 0002:000002c8       __imp_png_read_row         000000018001e2c8     lib_libpng:lib_libpng.dll
 0002:000002d0       __imp_png_create_write_struct 000000018001e2d0     lib_libpng:lib_libpng.dll
 0002:000002d8       __imp_png_set_longjmp_fn   000000018001e2d8     lib_libpng:lib_libpng.dll
 0002:000002e0       __imp_png_set_sig_bytes    000000018001e2e0     lib_libpng:lib_libpng.dll
 0002:000002e8       __imp_png_read_update_info 000000018001e2e8     lib_libpng:lib_libpng.dll
 0002:000002f0       __imp_png_set_read_fn      000000018001e2f0     lib_libpng:lib_libpng.dll
 0002:000002f8       __imp_png_create_info_struct 000000018001e2f8     lib_libpng:lib_libpng.dll
 0002:00000300       __imp_png_get_io_ptr       000000018001e300     lib_libpng:lib_libpng.dll
 0002:00000308       __imp_png_write_end        000000018001e308     lib_libpng:lib_libpng.dll
 0002:00000310       __imp_png_create_read_struct 000000018001e310     lib_libpng:lib_libpng.dll
 0002:00000318       __imp_png_write_rows       000000018001e318     lib_libpng:lib_libpng.dll
 0002:00000320       __imp_png_sig_cmp          000000018001e320     lib_libpng:lib_libpng.dll
 0002:00000328       __imp_png_set_write_fn     000000018001e328     lib_libpng:lib_libpng.dll
 0002:00000330       __imp_png_destroy_write_struct 000000018001e330     lib_libpng:lib_libpng.dll
 0002:00000338       __imp_png_write_info       000000018001e338     lib_libpng:lib_libpng.dll
 0002:00000340       __imp_png_get_IHDR         000000018001e340     lib_libpng:lib_libpng.dll
 0002:00000348       __imp_png_error            000000018001e348     lib_libpng:lib_libpng.dll
 0002:00000350       \177lib_libpng_NULL_THUNK_DATA 000000018001e350     lib_libpng:lib_libpng.dll
 0002:00000358       __imp_deflateInit2_        000000018001e358     lib_zlib:lib_zlib.dll
 0002:00000360       __imp_deflate              000000018001e360     lib_zlib:lib_zlib.dll
 0002:00000368       __imp_inflateEnd           000000018001e368     lib_zlib:lib_zlib.dll
 0002:00000370       __imp_inflate              000000018001e370     lib_zlib:lib_zlib.dll
 0002:00000378       __imp_inflateInit2_        000000018001e378     lib_zlib:lib_zlib.dll
 0002:00000380       __imp_deflateEnd           000000018001e380     lib_zlib:lib_zlib.dll
 0002:00000388       __imp_crc32                000000018001e388     lib_zlib:lib_zlib.dll
 0002:00000390       \177lib_zlib_NULL_THUNK_DATA 000000018001e390     lib_zlib:lib_zlib.dll
 0002:00000398       __xc_a                     000000018001e398     MSVCRT:cinitexe.obj
 0002:00001af0       __xc_z                     000000018001faf0     MSVCRT:cinitexe.obj
 0002:00001af8       __xi_a                     000000018001faf8     MSVCRT:cinitexe.obj
 0002:00001b08       __xi_z                     000000018001fb08     MSVCRT:cinitexe.obj
 0002:00001b18       ??_7type_info@@6B@         000000018001fb18     MSVCRT:ti_inst.obj
 0002:00001b20       _pRawDllMain               000000018001fb20     MSVCRT:crtdll.obj
 0002:00001b20       _pDefaultRawDllMain        000000018001fb20     MSVCRT:crtdll.obj
 0002:00001b28       ??_C@_0P@GHFPNOJB@bad?5allocation?$AA@ 000000018001fb28     plugin_test1.obj
 0002:00001b38       ??_C@_0BF@OCNNAADO@UModSys?3?3core?3?3IRoot?$AA@ 000000018001fb38     plugin_test1.obj
 0002:00001b50       ??_C@_0BK@EMIJFOPA@UModSys?3?3core?3?3IRefObject?$AA@ 000000018001fb50     plugin_test1.obj
 0002:00001b70       ??_C@_0BL@IOMMHELF@UModSys?3?3core?3?3IParameters?$AA@ 000000018001fb70     plugin_test1.obj
 0002:00001b90       ??_C@_0BI@IKAOEFAP@UModSys?3?3base?3?3IConsole?$AA@ 000000018001fb90     plugin_test1.obj
 0002:00001ba8       ??_C@_0BH@LKDEEPPM@UModSys?3?3base?3?3IModule?$AA@ 000000018001fba8     plugin_test1.obj
 0002:00001bc0       ??_C@_0BO@PHJOHFCB@UModSys?3?3base?3?3IModuleLibrary?$AA@ 000000018001fbc0     plugin_test1.obj
 0002:00001be0       ??_C@_0BK@FDPIOPHG@UModSys?3?3base?3?3IModObject?$AA@ 000000018001fbe0     plugin_test1.obj
 0002:00001c00       ??_C@_0BK@OIBKNCKJ@UModSys?3?3base?3?3IGenerator?$AA@ 000000018001fc00     plugin_test1.obj
 0002:00001c20       ??_C@_0BG@PJBGCMEC@UModSys?3?3base?3?3IShell?$AA@ 000000018001fc20     plugin_test1.obj
 0002:00001c38       ??_C@_0BH@PFCONEJJ@UModSys?3?3base?3?3ISystem?$AA@ 000000018001fc38     plugin_test1.obj
 0002:00001c50       ??_C@_0CB@CLGNFEGF@UModSys?3?3libmedia?3?3IStreamReader@ 000000018001fc50     plugin_test1.obj
 0002:00001c78       ??_C@_0CB@HOPFFLP@UModSys?3?3libmedia?3?3IStreamWriter@ 000000018001fc78     plugin_test1.obj
 0002:00001ca0       ??_C@_0BO@INLIIEII@UModSys?3?3libmedia?3?3IUtilities?$AA@ 000000018001fca0     plugin_test1.obj
 0002:00001cc0       ??_C@_0BO@BMLODIDG@UModSys?3?3libmedia?3?3ILibObject?$AA@ 000000018001fcc0     plugin_test1.obj
 0002:00001ce0       ??_C@_0BP@KCJMEDNO@UModSys?3?3libmedia?3?3IBinArchive?$AA@ 000000018001fce0     plugin_test1.obj
 0002:00001d00       ??_C@_0CB@FDEKNMGJ@UModSys?3?3libmedia?3?3IBinObjFilter@ 000000018001fd00     plugin_test1.obj
 0002:00001d28       ??_C@_0BM@DPCMOAPM@UModSys?3?3libmedia?3?3ILibrary?$AA@ 000000018001fd28     plugin_test1.obj
 0002:00001d48       ??_C@_0CD@ELIFEGE@UModSys?3?3libmedia?3?3ILibraryBinTr@ 000000018001fd48     plugin_test1.obj
 0002:00001d70       ??_C@_0CE@EGHBJBAJ@UModSys?3?3libmedia?3?3ILibraryBinCa@ 000000018001fd70     plugin_test1.obj
 0002:00001d98       ??_C@_0CF@LBIGBLOK@UModSys?3?3libmedia?3?3ILibraryObjFi@ 000000018001fd98     plugin_test1.obj
 0002:00001dc0       ??_C@_0CE@BOBLEOBL@UModSys?3?3libmedia?3?3ILibraryObjCa@ 000000018001fdc0     plugin_test1.obj
 0002:00001de8       ??_C@_0CD@LJFEJKGF@UModSys?3?3libmedia?3?3ILibraryLayer@ 000000018001fde8     plugin_test1.obj
 0002:00001e10       ??_C@_0CE@FGFAKEDN@UModSys?3?3libmedia?3?3IBinArchiveFr@ 000000018001fe10     plugin_test1.obj
 0002:00001e38       ??_C@_0CN@GBHCKFMF@UModSys?3?3libmedia?3?3IBinArchiveFr@ 000000018001fe38     plugin_test1.obj
 0002:00001e68       ??_C@_0CE@GJOHFLIN@UModSys?3?3libmedia?3?3ISerializeRea@ 000000018001fe68     plugin_test1.obj
 0002:00001e90       ??_C@_0CE@EFGFFKFH@UModSys?3?3libmedia?3?3ISerializeWri@ 000000018001fe90     plugin_test1.obj
 0002:00001ec0       ?utf_bytesFromUTF8@su@tl@UModSys@@3QBEB 000000018001fec0     umodsys_lib_core:umodsys.tl.utf8.obj
 0002:00001fc0       ?utf_firstByteMark@su@tl@UModSys@@3QBEB 000000018001ffc0     umodsys_lib_core:umodsys.tl.utf8.obj
 0002:00001fc8       ?utf_offsetsFromUTF8@su@tl@UModSys@@3QBHB 000000018001ffc8     umodsys_lib_core:umodsys.tl.utf8.obj
 0002:00002008       ??_C@_0BL@NMJBPMOF@UModSys?3?3base?3?3IConsoleExt?$AA@ 0000000180020008     plugin_test1.obj
 0002:00002028       ??_C@_0BO@CGANABBB@UModSys?3?3base?3?3IConsoleHelper?$AA@ 0000000180020028     plugin_test1.obj
 0002:00002048       ??_C@_0CF@NIEDAAFG@UModSys?3?3base?3?3IConsoleHelperHis@ 0000000180020048     plugin_test1.obj
 0002:00002070       ??_C@_0CD@FCDJONHN@UModSys?3?3base?3?3IConsoleHelperInp@ 0000000180020070     plugin_test1.obj
 0002:00002098       ??_C@_0CE@KMOIHDDJ@UModSys?3?3base?3?3IConsoleHelperOut@ 0000000180020098     plugin_test1.obj
 0002:000020c0       ??_C@_0CH@NMEMKECD@UModSys?3?3base?3?3IConsoleHelperOut@ 00000001800200c0     plugin_test1.obj
 0002:000020e8       ??_C@_0CE@DIFILHID@UModSys?3?3libui?3?3IKeyboardControl@ 00000001800200e8     plugin_test1.obj
 0002:00002110       ??_C@_0CB@MBIJAGJE@UModSys?3?3libui?3?3IMouseController@ 0000000180020110     plugin_test1.obj
 0002:00002138       ??_C@_0CE@HLKJKPC@UModSys?3?3libui?3?3IJoystickControl@ 0000000180020138     plugin_test1.obj
 0002:00002160       ??_C@_0BK@GJJNKGGD@UModSys?3?3libui?3?3ITerminal?$AA@ 0000000180020160     plugin_test1.obj
 0002:00002180       ??_C@_0CK@HENOKNKH@UModSys?3?3libui?3?3IConsoleHelperIn@ 0000000180020180     plugin_test1.obj
 0002:000021b0       ??_C@_0BL@LMBCJDKM@UModSys?3?3libui?3?3ICollector?$AA@ 00000001800201b0     plugin_test1.obj
 0002:000021d0       ??_C@_0CB@FBNPBBJO@UModSys?3?3libui?3?3IAsyncController@ 00000001800201d0     plugin_test1.obj
 0002:000021f8       ??_C@_0CA@OAEFPLGI@UModSys?3?3libui?3?3IAsyncCollector?$AA@ 00000001800201f8     plugin_test1.obj
 0002:00002218       ??_C@_0BH@IHOOLPEB@UModSys?3?3libui?3?3IFrame?$AA@ 0000000180020218     plugin_test1.obj
 0002:00002230       ??_C@_0BI@GAEFGDBL@UModSys?3?3libui?3?3IDialog?$AA@ 0000000180020230     plugin_test1.obj
 0002:00002248       ??_C@_0BH@JDBCAPMN@UModSys?3?3lib2d?3?3IImage?$AA@ 0000000180020248     plugin_test1.obj
 0002:00002260       ??_C@_0BO@GDIFOICC@UModSys?3?3lib2d?3?3IImageFactory?$AA@ 0000000180020260     plugin_test1.obj
 0002:00002280       ??_C@_0BM@NDCOKBPH@UModSys?3?3lib2d?3?3IMultiImage?$AA@ 0000000180020280     plugin_test1.obj
 0002:000022a0       ??_C@_0BO@FFPMHFPK@UModSys?3?3lib2d?3?3IRenderDriver?$AA@ 00000001800202a0     plugin_test1.obj
 0002:000022c0       ??_C@_0CG@DNABKNDD@UModSys?3?3modules?3?3test?3?3test1?3?3I@ 00000001800202c0     plugin_test1.obj
 0002:000022e8       ??_C@_0CG@FINIGFAH@UModSys?3?3modules?3?3test?3?3test1?3?3R@ 00000001800202e8     plugin_test1.obj
 0002:00002310       ??_C@_0CN@EFAOPDDB@UModSys?3?3modules?3?3test?3?3test1?3?3R@ 0000000180020310     plugin_test1.obj
 0002:00002340       ??_C@_0CM@LNHNHIJB@UModSys?3?3modules?3?3test?3?3test1?3?3R@ 0000000180020340     plugin_test1.obj
 0002:00002370       ??_C@_0BC@NIGGCDMG@RTest1_Shell?$CI?$CJ?5?$HL?6?$AA@ 0000000180020370     plugin_test1.obj
 0002:00002388       ??_C@_0DK@JIEMIEKA@UModSys?3?3modules?3?3test?3?3test1?3?3R@ 0000000180020388     plugin_test1.obj
 0002:000023c8       ??_C@_0CK@OICDGBDJ@?4?4?2?4?4?2?4?4?2src?2plugin?2test?2plugin_@ 00000001800203c8     plugin_test1.obj
 0002:000023f8       ??_C@_0BF@BMCPNMPN@?$HN?5?1?1?5RTest1_Shell?$CI?$CJ?6?$AA@ 00000001800203f8     plugin_test1.obj
 0002:00002410       ??_C@_0DL@OIAHAJF@UModSys?3?3modules?3?3test?3?3test1?3?3R@ 0000000180020410     plugin_test1.obj
 0002:00002450       ??_C@_0BB@MLDFLEML@?$HORTest1_Shell?$CI?$CJ?6?$AA@ 0000000180020450     plugin_test1.obj
 0002:00002468       ??_C@_0BJ@CCPCJEPP@RTest1_Shell?3?3connect?$CI?$CJ?6?$AA@ 0000000180020468     plugin_test1.obj
 0002:00002488       ??_C@_0BM@KBDBHLN@RTest1_Shell?3?3disconnect?$CI?$CJ?6?$AA@ 0000000180020488     plugin_test1.obj
 0002:000024a8       ??_C@_0BI@PGLACHLJ@RTest1_Shell?3?3tick?$CI?$CFg?$CJ?6?$AA@ 00000001800204a8     plugin_test1.obj
 0002:000024c0       ??_C@_0BM@JFIEEBE@RTest1_Shell?3?3command?$CI?$CD?$CFd?$CJ?6?$AA@ 00000001800204c0     plugin_test1.obj
 0002:000024dc       ??_C@_00CNPNBAHC@?$AA@     00000001800204dc     plugin_test1.obj
 0002:000024e0       ??_C@_07OJGHGMNE@factory?$AA@ 00000001800204e0     plugin_test1.obj
 0002:000024e8       ??_C@_08BABJIOEM@filename?$AA@ 00000001800204e8     plugin_test1.obj
 0002:000024f4       ??_C@_06DJAMKFID@stream?$AA@ 00000001800204f4     plugin_test1.obj
 0002:00002500       ??_C@_0O@IMJFODOA@lib2d?3?3IImage?$AA@ 0000000180020500     plugin_test1.obj
 0002:00002510       ??_C@_0L@DIAMDLBM@ICollector?$AA@ 0000000180020510     plugin_test1.obj
 0002:00002520       ??_C@_09MJHEMIHA@ITerminal?$AA@ 0000000180020520     plugin_test1.obj
 0002:00002530       ??_C@_0BH@GMHJDKHE@?$FLKEY?4KEY?5?$CFd?0?$CFd?0?$CFd?0?$CFd?$FN?6?$AA@ 0000000180020530     plugin_test1.obj
 0002:00002548       ??_C@_0P@DPHFCOMI@?$FLKEY?4TEXT?5?$CFs?$FN?6?$AA@ 0000000180020548     plugin_test1.obj
 0002:00002558       ??_C@_0CO@KGBDJAHA@?$FLMOUSE?5?$CFx?5B?$CFx?3?$CFd?5A?$CI?$CFd?0?$CFd?$CJ?5R?$CI?$CFd?0?$CF@ 0000000180020558     plugin_test1.obj
 0002:00002588       ??_C@_0BJ@OKPGIKIP@?$FLCOMMAND?5?$CFd?$EA?$CFp?5C?$CFd?5D?$CFd?$FN?6?$AA@ 0000000180020588     plugin_test1.obj
 0002:000025a4       ??_C@_05IOMEMJEC@count?$AA@ 00000001800205a4     plugin_test1.obj
 0002:000025ac       ??_C@_02LBJNIHKO@dy?$AA@   00000001800205ac     plugin_test1.obj
 0002:000025b0       ??_C@_04CIMGMMMG@text?$AA@ 00000001800205b0     plugin_test1.obj
 0002:000025b8       ??_C@_08GCGILLNN@Item?5?$CD?$CFd?$AA@ 00000001800205b8     plugin_test1.obj
 0002:000025c8       ??_C@_0L@DPNPMJNC@Neocyr?4ttf?$AA@ 00000001800205c8     plugin_test1.obj
 0002:000025d4       ??_C@_06NCODBMHO@driver?$AA@ 00000001800205d4     plugin_test1.obj
 0002:000025dc       ??_C@_04EFPADHIC@font?$AA@ 00000001800205dc     plugin_test1.obj
 0002:000025e8       ??_C@_0P@GKJLFKKG@?$CK?3?3SDL_core?3?3?$CK?$AA@ 00000001800205e8     plugin_test1.obj
 0002:000025f8       ??_C@_07EPLPNHLN@Test?5?$CD1?$AA@ 00000001800205f8     plugin_test1.obj
 0002:00002600       ??_C@_07BANDPJOM@caption?$AA@ 0000000180020600     plugin_test1.obj
 0002:00002608       ??_C@_0CE@HACAKFFL@?5?5not?5created?5lib2d?3?3IRenderDriv@ 0000000180020608     plugin_test1.obj
 0002:00002630       ??_C@_0CK@INONFMOM@?5?5created?5lib2d?3?3IRenderDriver?3?5@ 0000000180020630     plugin_test1.obj
 0002:00002660       ??_C@_09HPINFNJC@max_glyph?$AA@ 0000000180020660     plugin_test1.obj
 0002:00002670       ??_C@_0BF@OHNOFNLO@?5?5error?5create?5font?6?$AA@ 0000000180020670     plugin_test1.obj
 0002:00002688       ??_C@_0BK@EIEBINCJ@?5?5created?5font?3?5?$CFs?5?$DN?$DO?5?$CFp?6?$AA@ 0000000180020688     plugin_test1.obj
 0002:000026a8       ??_C@_0CE@KNEEOFOA@?5?5error?5create?5IKeyboardControll@ 00000001800206a8     plugin_test1.obj
 0002:000026d0       ??_C@_0CJ@OEBBFEFK@?5?5created?5IKeyboardController?3?5?$CF@ 00000001800206d0     plugin_test1.obj
 0002:00002700       ??_C@_0CB@NHAHJFLI@?5?5error?5create?5IMouseController?6@ 0000000180020700     plugin_test1.obj
 0002:00002728       ??_C@_0CG@IKOBAIJ@?5?5created?5IMouseController?3?5?$CFs?5?$DN@ 0000000180020728     plugin_test1.obj
 0002:00002750       ??_C@_0N@IGLHPLGK@?$CK?3?3frames?3?3?$CK?$AA@ 0000000180020750     plugin_test1.obj
 0002:00002760       ??_C@_05MIJNFGED@frame?$AA@ 0000000180020760     plugin_test1.obj
 0002:00002768       ??_C@_07OJKFJLLK@Caption?$AA@ 0000000180020768     plugin_test1.obj
 0002:00002770       ??_C@_08LLDNMFDF@Button?51?$AA@ 0000000180020770     plugin_test1.obj
 0002:0000277c       ??_C@_06HFKPFKMP@button?$AA@ 000000018002077c     plugin_test1.obj
 0002:00002788       ??_C@_08JABAJGPG@Button?52?$AA@ 0000000180020788     plugin_test1.obj
 0002:00002798       ??_C@_08IJALKHLH@Button?53?$AA@ 0000000180020798     plugin_test1.obj
 0002:000027a4       ??_C@_05MFEJDJP@value?$AA@ 00000001800207a4     plugin_test1.obj
 0002:000027b0       ??_C@_07GFFCACEC@max_len?$AA@ 00000001800207b0     plugin_test1.obj
 0002:000027b8       ??_C@_04NABONMNG@edit?$AA@ 00000001800207b8     plugin_test1.obj
 0002:000027c0       ??_C@_07PDLNCNLP@user_db?$AA@ 00000001800207c0     plugin_test1.obj
 0002:000027c8       ??_C@_04DONFEANM@list?$AA@ 00000001800207c8     plugin_test1.obj
 0002:000027e8       ??_C@_0CK@DEJPICLK@UModSys?3?3modules?3?3test?3?3test1?3?3R@ 00000001800207e8     plugin_test1.obj
 0002:00002818       ??_C@_0BJ@NOFIIAEK@U_MOD?3?3RGenerator?3unique?$AA@ 0000000180020818     plugin_test1.obj
 0002:00002838       ??_C@_0BA@NMEBLMNE@Test?51?5?9?5module?$AA@ 0000000180020838     plugin_test1.obj
 0002:00002848       ??_C@_0N@FOCLJAHI@tests?3?3test1?$AA@ 0000000180020848     plugin_test1.obj
 0002:00002858       ??_C@_0BE@HJEBHPIG@RModuleReg?3?3open?$CI?$CJ?6?$AA@ 0000000180020858     plugin_test1.obj
 0002:00002870       ??_C@_0BF@KIBBFLP@RModuleReg?3?3close?$CI?$CJ?6?$AA@ 0000000180020870     plugin_test1.obj
 0002:00002888       ??_C@_09JGNMLHG@modobject?$AA@ 0000000180020888     plugin_test1.obj
 0002:00002898       ??_C@_08FCBDOIAH@typeinfo?$AA@ 0000000180020898     plugin_test1.obj
 0002:000028a8       ??_C@_0BI@HCJDLBPI@?5?5fail?5generate?5?$CFs?$CI?$CFs?$CJ?6?$AA@ 00000001800208a8     plugin_test1.obj
 0002:000028c0       ??_C@_0BE@IGLAGOMC@?5?5fail?5find?5?$CFs?$CI?$CFs?$CJ?6?$AA@ 00000001800208c0     plugin_test1.obj
 0002:000028d8       ??_C@_0BK@IGGNHCDJ@?5?5generated?5?$CFs?$CI?$CFs?$CJ?5?$DN?$DO?5?$CFp?6?$AA@ 00000001800208d8     plugin_test1.obj
 0002:00002908       ??_7IRoot@core@UModSys@@6B@ 0000000180020908     plugin_test1.obj
 0002:00002958       ??_7RTest1_Shell@test1@test@modules@UModSys@@6BIShell@base@4@@ 0000000180020958     plugin_test1.obj
 0002:000029e0       ??_7RTest1_Shell@test1@test@modules@UModSys@@6BIKeyboardClient@libui@4@@ 00000001800209e0     plugin_test1.obj
 0002:000029f8       ??_7RTest1_Shell@test1@test@modules@UModSys@@6BIMouseClient@libui@4@@ 00000001800209f8     plugin_test1.obj
 0002:00002a08       ??_7RTest1_Shell@test1@test@modules@UModSys@@6BIControllerCommand@libui@4@@ 0000000180020a08     plugin_test1.obj
 0002:00002a20       ??_7RTest1_Shell@test1@test@modules@UModSys@@6BIControllerData@libui@4@@ 0000000180020a20     plugin_test1.obj
 0002:00002a38       ??_7RGenerator@test1@test@modules@UModSys@@6B@ 0000000180020a38     plugin_test1.obj
 0002:00002ad8       ??_7RModuleReg@test1@test@modules@UModSys@@6B@ 0000000180020ad8     plugin_test1.obj
 0002:00002b10       ??_C@_0CP@CHDLGDD@UModSys?3?3modules?3?3lib2d?3?3stdlib?3@ 0000000180020b10     umodsys_lib_lib2d:umodsys.mod.2d.stdlib.obj
 0002:00002b40       ??_C@_0DG@PPDKDFEE@UModSys?3?3modules?3?3lib2d?3?3stdlib?3@ 0000000180020b40     umodsys_lib_lib2d:umodsys.mod.2d.stdlib.obj
 0002:00002b78       ??_C@_0CN@LGOPIGAH@UModSys?3?3modules?3?3lib2d?3?3stdlib?3@ 0000000180020b78     umodsys_lib_lib2d:umodsys.mod.2d.stdlib.obj
 0002:00002ba8       ??_C@_0CM@EIHKIMB@UModSys?3?3modules?3?3lib2d?3?3stdlib?3@ 0000000180020ba8     umodsys_lib_lib2d:umodsys.mod.2d.stdlib.obj
 0002:00002bd8       ??_C@_0O@ICMHAMOO@lib2d?3?3stdlib?$AA@ 0000000180020bd8     umodsys_lib_lib2d:umodsys.mod.2d.stdlib.obj
 0002:00002bf8       ??_7RGenerator@stdlib@lib2d@modules@UModSys@@6B@ 0000000180020bf8     umodsys_lib_lib2d:umodsys.mod.2d.stdlib.obj
 0002:00002c98       ??_7RImage_Memory@stdlib@lib2d@modules@UModSys@@6B@ 0000000180020c98     umodsys_lib_lib2d:umodsys.mod.2d.stdlib.obj
 0002:00002d38       ??_7RImageFactory_Memory@stdlib@lib2d@modules@UModSys@@6B@ 0000000180020d38     umodsys_lib_lib2d:umodsys.mod.2d.stdlib.obj
 0002:00002db8       ??_7RMultiImage@stdlib@lib2d@modules@UModSys@@6B@ 0000000180020db8     umodsys_lib_lib2d:umodsys.mod.2d.stdlib.obj
 0002:00002e88       ??_7RModuleReg@stdlib@lib2d@modules@UModSys@@6B@ 0000000180020e88     umodsys_lib_lib2d:umodsys.mod.2d.stdlib.obj
 0002:00002ec0       ??_C@_0DG@EGPKIIPE@UModSys?3?3modules?3?3ui?3?3SDL_core?3?3@ 0000000180020ec0     umodsys_lib_libui:umodsys.mod.ui.SDL_core.obj
 0002:00002ef8       ??_C@_04IAGNFIBA@size?$AA@ 0000000180020ef8     umodsys_lib_libui:umodsys.mod.ui.SDL_core.obj
 0002:00002f00       ??_C@_0DA@ONKEJKMF@UModSys?3?3modules?3?3ui?3?3SDL_core?3?3@ 0000000180020f00     umodsys_lib_libui:umodsys.mod.ui.SDL_core.obj
 0002:00002f30       ??_C@_04MGOIFCEG@SDL2?$AA@ 0000000180020f30     umodsys_lib_libui:umodsys.mod.ui.SDL_core.obj
 0002:00002f38       ??_C@_01FJMABOPO@x?$AA@    0000000180020f38     umodsys_lib_libui:umodsys.mod.ui.SDL_core.obj
 0002:00002f3c       ??_C@_01EANLCPLP@y?$AA@    0000000180020f3c     umodsys_lib_libui:umodsys.mod.ui.SDL_core.obj
 0002:00002f40       ??_C@_02KIIGLGOP@dx?$AA@   0000000180020f40     umodsys_lib_libui:umodsys.mod.ui.SDL_core.obj
 0002:00002f48       ??_C@_07CMIMECFO@xoffset?$AA@ 0000000180020f48     umodsys_lib_libui:umodsys.mod.ui.SDL_core.obj
 0002:00002f50       ??_C@_07OACGECMA@yoffset?$AA@ 0000000180020f50     umodsys_lib_libui:umodsys.mod.ui.SDL_core.obj
 0002:00002f58       ??_C@_05IGKADHGO@width?$AA@ 0000000180020f58     umodsys_lib_libui:umodsys.mod.ui.SDL_core.obj
 0002:00002f60       ??_C@_06LNLHEAAG@height?$AA@ 0000000180020f60     umodsys_lib_libui:umodsys.mod.ui.SDL_core.obj
 0002:00002f68       ??_C@_0DB@HCJMIJNE@UModSys?3?3modules?3?3ui?3?3SDL_core?3?3@ 0000000180020f68     umodsys_lib_libui:umodsys.mod.ui.SDL_core.obj
 0002:00002fa0       ??_C@_0DE@JJAEFKJP@UModSys?3?3modules?3?3ui?3?3SDL_core?3?3@ 0000000180020fa0     umodsys_lib_libui:umodsys.mod.ui.SDL_core.obj
 0002:00002fd8       ??_C@_0CK@DOEIPGL@UModSys?3?3modules?3?3ui?3?3SDL_core?3?3@ 0000000180020fd8     umodsys_lib_libui:umodsys.mod.ui.SDL_core.obj
 0002:00003008       ??_C@_0CL@JNMIGLLO@UModSys?3?3modules?3?3ui?3?3SDL_core?3?3@ 0000000180021008     umodsys_lib_libui:umodsys.mod.ui.SDL_core.obj
 0002:00003038       ??_C@_0N@DNOMPMIF@ui?3?3SDL_core?$AA@ 0000000180021038     umodsys_lib_libui:umodsys.mod.ui.SDL_core.obj
 0002:00003058       ??_7RGenerator@SDL_core@ui@modules@UModSys@@6B@ 0000000180021058     umodsys_lib_libui:umodsys.mod.ui.SDL_core.obj
 0002:000030f8       ??_7RTerminal@SDL_core@ui@modules@UModSys@@6B@ 00000001800210f8     umodsys_lib_libui:umodsys.mod.ui.SDL_core.obj
 0002:000031b8       ??_7RRenderDriver2D@SDL_core@ui@modules@UModSys@@6B@ 00000001800211b8     umodsys_lib_libui:umodsys.mod.ui.SDL_core.obj
 0002:000032e8       ??_7RMultiImage2D_SDL_ttf@SDL_core@ui@modules@UModSys@@6B@ 00000001800212e8     umodsys_lib_libui:umodsys.mod.ui.SDL_core.obj
 0002:000033b8       ??_7RMouseController@SDL_core@ui@modules@UModSys@@6B@ 00000001800213b8     umodsys_lib_libui:umodsys.mod.ui.SDL_core.obj
 0002:00003448       ??_7RKeyboardController@SDL_core@ui@modules@UModSys@@6B@ 0000000180021448     umodsys_lib_libui:umodsys.mod.ui.SDL_core.obj
 0002:000034e8       ??_7RModuleReg@SDL_core@ui@modules@UModSys@@6B@ 00000001800214e8     umodsys_lib_libui:umodsys.mod.ui.SDL_core.obj
 0002:00003520       ??_C@_07LLDKJBMK@general?$AA@ 0000000180021520     umodsys_lib_libui:umodsys.mod.ui.frames.obj
 0002:00003528       ??_C@_06DBHEJNGA@common?$AA@ 0000000180021528     umodsys_lib_libui:umodsys.mod.ui.frames.obj
 0002:00003530       ??_C@_05NGOMGBBD@image?$AA@ 0000000180021530     umodsys_lib_libui:umodsys.mod.ui.frames.obj
 0002:00003538       ??_C@_07LJIPPALJ@picture?$AA@ 0000000180021538     umodsys_lib_libui:umodsys.mod.ui.frames.obj
 0002:00003540       ??_C@_05FEAGNAPL@edge1?$AA@ 0000000180021540     umodsys_lib_libui:umodsys.mod.ui.frames.obj
 0002:00003548       ??_C@_05HPCLIDDI@edge2?$AA@ 0000000180021548     umodsys_lib_libui:umodsys.mod.ui.frames.obj
 0002:00003550       ??_C@_05JGEJPNHM@edges?$AA@ 0000000180021550     umodsys_lib_libui:umodsys.mod.ui.frames.obj
 0002:00003558       ??_C@_05KAHGKAHL@caret?$AA@ 0000000180021558     umodsys_lib_libui:umodsys.mod.ui.frames.obj
 0002:00003560       ??_C@_04JFCNHLLM@back?$AA@ 0000000180021560     umodsys_lib_libui:umodsys.mod.ui.frames.obj
 0002:00003568       ??_C@_04DBFEOIG@fore?$AA@  0000000180021568     umodsys_lib_libui:umodsys.mod.ui.frames.obj
 0002:00003570       ??_C@_06LGNCCACI@select?$AA@ 0000000180021570     umodsys_lib_libui:umodsys.mod.ui.frames.obj
 0002:00003578       ??_C@_08CJLOJPNI@selected?$AA@ 0000000180021578     umodsys_lib_libui:umodsys.mod.ui.frames.obj
 0002:00003584       ??_C@_05PEEJIKOE@focus?$AA@ 0000000180021584     umodsys_lib_libui:umodsys.mod.ui.frames.obj
 0002:00003590       ??_C@_07HIPCAPPH@focused?$AA@ 0000000180021590     umodsys_lib_libui:umodsys.mod.ui.frames.obj
 0002:00003598       ??_C@_06MDLIGPKC@active?$AA@ 0000000180021598     umodsys_lib_libui:umodsys.mod.ui.frames.obj
 0002:000035a0       ??_C@_08BEHKFNNO@disabled?$AA@ 00000001800215a0     umodsys_lib_libui:umodsys.mod.ui.frames.obj
 0002:000035b0       ??_C@_0CM@PKBIIKNO@UModSys?3?3modules?3?3ui?3?3frames?3?3RF@ 00000001800215b0     umodsys_lib_libui:umodsys.mod.ui.frames.obj
 0002:000035dc       ??_C@_04CHADEDPO@view?$AA@ 00000001800215dc     umodsys_lib_libui:umodsys.mod.ui.frames.obj
 0002:000035e4       ??_C@_06ICIJKACG@valign?$AA@ 00000001800215e4     umodsys_lib_libui:umodsys.mod.ui.frames.obj
 0002:000035ec       ??_C@_06LFGIEHLF@halign?$AA@ 00000001800215ec     umodsys_lib_libui:umodsys.mod.ui.frames.obj
 0002:000035f8       ??_C@_0CG@IKFOGHCN@UModSys?3?3modules?3?3ui?3?3frames?3?3RD@ 00000001800215f8     umodsys_lib_libui:umodsys.mod.ui.frames.obj
 0002:00003620       ??_C@_0CL@MFDJGEPD@UModSys?3?3modules?3?3ui?3?3frames?3?3RF@ 0000000180021620     umodsys_lib_libui:umodsys.mod.ui.frames.obj
 0002:00003650       ??_C@_0CL@NLEIFDKD@UModSys?3?3modules?3?3ui?3?3frames?3?3RF@ 0000000180021650     umodsys_lib_libui:umodsys.mod.ui.frames.obj
 0002:00003680       ??_C@_0CK@OBJOECEM@UModSys?3?3modules?3?3ui?3?3frames?3?3RF@ 0000000180021680     umodsys_lib_libui:umodsys.mod.ui.frames.obj
 0002:000036b0       ??_C@_0CM@LOMDENHB@UModSys?3?3modules?3?3ui?3?3frames?3?3RF@ 00000001800216b0     umodsys_lib_libui:umodsys.mod.ui.frames.obj
 0002:000036e0       ??_C@_0CK@BJEGFCFM@UModSys?3?3modules?3?3ui?3?3frames?3?3RF@ 00000001800216e0     umodsys_lib_libui:umodsys.mod.ui.frames.obj
 0002:00003710       ??_C@_0CK@PHINMOFG@UModSys?3?3modules?3?3ui?3?3frames?3?3RF@ 0000000180021710     umodsys_lib_libui:umodsys.mod.ui.frames.obj
 0002:00003740       ??_C@_07IIAPCFMK@scrollx?$AA@ 0000000180021740     umodsys_lib_libui:umodsys.mod.ui.frames.obj
 0002:00003748       ??_C@_07JBBEBEIL@scrolly?$AA@ 0000000180021748     umodsys_lib_libui:umodsys.mod.ui.frames.obj
 0002:00003750       ??_C@_0CJ@HCPNAGIM@UModSys?3?3modules?3?3ui?3?3frames?3?3RC@ 0000000180021750     umodsys_lib_libui:umodsys.mod.ui.frames.obj
 0002:0000377c       ??_C@_05MGJOOGAJ@group?$AA@ 000000018002177c     umodsys_lib_libui:umodsys.mod.ui.frames.obj
 0002:00003788       ??_C@_0CJ@FNJGAPIF@UModSys?3?3modules?3?3ui?3?3frames?3?3RG@ 0000000180021788     umodsys_lib_libui:umodsys.mod.ui.frames.obj
 0002:000037b8       ??_C@_0L@BAHBBNCJ@ui?3?3frames?$AA@ 00000001800217b8     umodsys_lib_libui:umodsys.mod.ui.frames.obj
 0002:000037d8       ??_7ICollectorThemeTemplate@libui@UModSys@@6B@ 00000001800217d8     umodsys_lib_libui:umodsys.mod.ui.frames.obj
 0002:00003848       ??_7RGenerator@frames@ui@modules@UModSys@@6B@ 0000000180021848     umodsys_lib_libui:umodsys.mod.ui.frames.obj
 0002:000038e8       ??_7RCollector@frames@ui@modules@UModSys@@6BIRefObject@core@4@@ 00000001800218e8     umodsys_lib_libui:umodsys.mod.ui.frames.obj
 0002:000039e0       ??_7RCollector@frames@ui@modules@UModSys@@6BICollectorThemeTree@libui@4@@ 00000001800219e0     umodsys_lib_libui:umodsys.mod.ui.frames.obj
 0002:000039f0       ??_7RCollector@frames@ui@modules@UModSys@@6BIKeyboardClient@libui@4@@ 00000001800219f0     umodsys_lib_libui:umodsys.mod.ui.frames.obj
 0002:00003a08       ??_7RCollector@frames@ui@modules@UModSys@@6BIMouseClient@libui@4@@ 0000000180021a08     umodsys_lib_libui:umodsys.mod.ui.frames.obj
 0002:00003a18       ??_7RDialog@frames@ui@modules@UModSys@@6B@ 0000000180021a18     umodsys_lib_libui:umodsys.mod.ui.frames.obj
 0002:00003aa8       ??_7RFrame_Common@frames@ui@modules@UModSys@@6BIRefObject@core@4@@ 0000000180021aa8     umodsys_lib_libui:umodsys.mod.ui.frames.obj
 0002:00003c40       ??_7RFrame_Common@frames@ui@modules@UModSys@@6BICollectorThemeTree@libui@4@@ 0000000180021c40     umodsys_lib_libui:umodsys.mod.ui.frames.obj
 0002:00003c58       ??_7RCollectorTheme@frames@ui@modules@UModSys@@6B@ 0000000180021c58     umodsys_lib_libui:umodsys.mod.ui.frames.obj
 0002:00003cc8       ??_7RFrame_Frame@frames@ui@modules@UModSys@@6BIRefObject@core@4@@ 0000000180021cc8     umodsys_lib_libui:umodsys.mod.ui.frames.obj
 0002:00003e60       ??_7RFrame_Frame@frames@ui@modules@UModSys@@6BICollectorThemeTree@libui@4@@ 0000000180021e60     umodsys_lib_libui:umodsys.mod.ui.frames.obj
 0002:00003e78       ??_7RFrame_Image@frames@ui@modules@UModSys@@6BIRefObject@core@4@@ 0000000180021e78     umodsys_lib_libui:umodsys.mod.ui.frames.obj
 0002:00004010       ??_7RFrame_Image@frames@ui@modules@UModSys@@6BICollectorThemeTree@libui@4@@ 0000000180022010     umodsys_lib_libui:umodsys.mod.ui.frames.obj
 0002:00004028       ??_7RFrame_Text@frames@ui@modules@UModSys@@6BIRefObject@core@4@@ 0000000180022028     umodsys_lib_libui:umodsys.mod.ui.frames.obj
 0002:000041c0       ??_7RFrame_Text@frames@ui@modules@UModSys@@6BICollectorThemeTree@libui@4@@ 00000001800221c0     umodsys_lib_libui:umodsys.mod.ui.frames.obj
 0002:000041d0       ??_7RFrame_Text@frames@ui@modules@UModSys@@6B@ 00000001800221d0     umodsys_lib_libui:umodsys.mod.ui.frames.obj
 0002:000041e8       ??_7RFrame_Button@frames@ui@modules@UModSys@@6BIRefObject@core@4@@ 00000001800221e8     umodsys_lib_libui:umodsys.mod.ui.frames.obj
 0002:00004380       ??_7RFrame_Button@frames@ui@modules@UModSys@@6BICollectorThemeTree@libui@4@@ 0000000180022380     umodsys_lib_libui:umodsys.mod.ui.frames.obj
 0002:00004398       ??_7RFrame_Edit@frames@ui@modules@UModSys@@6BIRefObject@core@4@@ 0000000180022398     umodsys_lib_libui:umodsys.mod.ui.frames.obj
 0002:00004530       ??_7RFrame_Edit@frames@ui@modules@UModSys@@6BICollectorThemeTree@libui@4@@ 0000000180022530     umodsys_lib_libui:umodsys.mod.ui.frames.obj
 0002:00004540       ??_7RFrame_Edit@frames@ui@modules@UModSys@@6B@ 0000000180022540     umodsys_lib_libui:umodsys.mod.ui.frames.obj
 0002:00004558       ??_7RFrame_List@frames@ui@modules@UModSys@@6BIRefObject@core@4@@ 0000000180022558     umodsys_lib_libui:umodsys.mod.ui.frames.obj
 0002:000046f0       ??_7RFrame_List@frames@ui@modules@UModSys@@6BICollectorThemeTree@libui@4@@ 00000001800226f0     umodsys_lib_libui:umodsys.mod.ui.frames.obj
 0002:00004700       ??_7RFrame_List@frames@ui@modules@UModSys@@6BIFrameList@libui@4@@ 0000000180022700     umodsys_lib_libui:umodsys.mod.ui.frames.obj
 0002:00004728       ??_7RFrame_List@frames@ui@modules@UModSys@@6BIFrameData@libui@4@@ 0000000180022728     umodsys_lib_libui:umodsys.mod.ui.frames.obj
 0002:00004748       ??_7RModuleReg@frames@ui@modules@UModSys@@6B@ 0000000180022748     umodsys_lib_libui:umodsys.mod.ui.frames.obj
 0002:00004780       ??_C@_0DC@OJAOGACO@UModSys?3?3modules?3?3media?3?3images_@ 0000000180022780     umodsys_lib_libmedia:umodsys.mod.media.images_std.obj
 0002:000047b8       ??_C@_0BH@FAPHCJAO@image_palette_alphakey?$AA@ 00000001800227b8     umodsys_lib_libmedia:umodsys.mod.media.images_std.obj
 0002:000047d0       ??_C@_0L@MIOOFCJG@image_hint?$AA@ 00000001800227d0     umodsys_lib_libmedia:umodsys.mod.media.images_std.obj
 0002:000047e0       ??_C@_0M@CPFHCGMF@image_alpha?$AA@ 00000001800227e0     umodsys_lib_libmedia:umodsys.mod.media.images_std.obj
 0002:000047ec       ??_C@_04GNPKBLNA@?4jpg?$AA@ 00000001800227ec     umodsys_lib_libmedia:umodsys.mod.media.images_std.obj
 0002:000047f4       ??_C@_05KPIGABMB@?4jpeg?$AA@ 00000001800227f4     umodsys_lib_libmedia:umodsys.mod.media.images_std.obj
 0002:000047fc       ??_C@_04EEOGCCFB@?4png?$AA@ 00000001800227fc     umodsys_lib_libmedia:umodsys.mod.media.images_std.obj
 0002:00004808       ??_C@_0CB@LKENOGAK@PNG?5FATAL?5ERROR?3?5png?5error?5?9?5?$CFs?6@ 0000000180022808     umodsys_lib_libmedia:umodsys.mod.media.images_std.obj
 0002:00004830       ??_C@_0L@BAFDDAPG@Read?5Error?$AA@ 0000000180022830     umodsys_lib_libmedia:umodsys.mod.media.images_std.obj
 0002:00004840       ??_C@_0M@POLPJMAP@Write?5Error?$AA@ 0000000180022840     umodsys_lib_libmedia:umodsys.mod.media.images_std.obj
 0002:00004850       ??_C@_0M@PMDCBFIO@1?47?40beta06?$AA@ 0000000180022850     umodsys_lib_libmedia:umodsys.mod.media.images_std.obj
 0002:00004860       ??_C@_0DA@GEKJILHJ@UModSys?3?3modules?3?3media?3?3images_@ 0000000180022860     umodsys_lib_libmedia:umodsys.mod.media.images_std.obj
 0002:00004890       ??_C@_0BC@FLDHBKGG@media?3?3images_std?$AA@ 0000000180022890     umodsys_lib_libmedia:umodsys.mod.media.images_std.obj
 0002:000048b8       ??_7RGenerator@images_std@media@modules@UModSys@@6B@ 00000001800228b8     umodsys_lib_libmedia:umodsys.mod.media.images_std.obj
 0002:00004958       ??_7RMediaFilter@images_std@media@modules@UModSys@@6BIRefObject@core@4@@ 0000000180022958     umodsys_lib_libmedia:umodsys.mod.media.images_std.obj
 0002:000049d8       ??_7RMediaFilter@images_std@media@modules@UModSys@@6BISetter@SFlags@libmedia@4@@ 00000001800229d8     umodsys_lib_libmedia:umodsys.mod.media.images_std.obj
 0002:000049f8       ??_7RModuleReg@images_std@media@modules@UModSys@@6B@ 00000001800229f8     umodsys_lib_libmedia:umodsys.mod.media.images_std.obj
 0002:00004a30       ??_C@_02MCKKLHBJ@?2?$CC?$AA@ 0000000180022a30     umodsys_lib_libmedia:umodsys.mod.media.serialize_json.obj
 0002:00004a34       ??_C@_02HDBGODGB@?2?2?$AA@ 0000000180022a34     umodsys_lib_libmedia:umodsys.mod.media.serialize_json.obj
 0002:00004a38       ??_C@_02HHAEMJFE@?2?1?$AA@ 0000000180022a38     umodsys_lib_libmedia:umodsys.mod.media.serialize_json.obj
 0002:00004a3c       ??_C@_02DCNDPIBM@?2b?$AA@  0000000180022a3c     umodsys_lib_libmedia:umodsys.mod.media.serialize_json.obj
 0002:00004a40       ??_C@_02FGLPDNBI@?2f?$AA@  0000000180022a40     umodsys_lib_libmedia:umodsys.mod.media.serialize_json.obj
 0002:00004a44       ??_C@_02JOGGLHBA@?2n?$AA@  0000000180022a44     umodsys_lib_libmedia:umodsys.mod.media.serialize_json.obj
 0002:00004a48       ??_C@_02HIBBOKEN@?2r?$AA@  0000000180022a48     umodsys_lib_libmedia:umodsys.mod.media.serialize_json.obj
 0002:00004a4c       ??_C@_02COELENML@?2t?$AA@  0000000180022a4c     umodsys_lib_libmedia:umodsys.mod.media.serialize_json.obj
 0002:00004a50       ??_C@_06OAIHNJFH@?2u?$CF04x?$AA@ 0000000180022a50     umodsys_lib_libmedia:umodsys.mod.media.serialize_json.obj
 0002:00004a58       ??_C@_0DK@FEBMMGOH@UModSys?3?3modules?3?3media?3?3seriali@ 0000000180022a58     umodsys_lib_libmedia:umodsys.mod.media.serialize_json.obj
 0002:00004a98       ??_C@_09GAOHCOAP@No?5parser?$AA@ 0000000180022a98     umodsys_lib_libmedia:umodsys.mod.media.serialize_json.obj
 0002:00004aa8       ??_C@_0N@OHBPFNDO@Memory?5error?$AA@ 0000000180022aa8     umodsys_lib_libmedia:umodsys.mod.media.serialize_json.obj
 0002:00004ab8       ??_C@_0BE@NECDPAKH@Bad?5escape?5sequence?$AA@ 0000000180022ab8     umodsys_lib_libmedia:umodsys.mod.media.serialize_json.obj
 0002:00004ad0       ??_C@_0BA@BOAELAPB@Structure?5error?$AA@ 0000000180022ad0     umodsys_lib_libmedia:umodsys.mod.media.serialize_json.obj
 0002:00004ae0       ??_C@_0N@ICGFMCGA@Parser?5error?$AA@ 0000000180022ae0     umodsys_lib_libmedia:umodsys.mod.media.serialize_json.obj
 0002:00004af0       ??_C@_04LOAJBDKD@true?$AA@ 0000000180022af0     umodsys_lib_libmedia:umodsys.mod.media.serialize_json.obj
 0002:00004af8       ??_C@_05LAPONLG@false?$AA@ 0000000180022af8     umodsys_lib_libmedia:umodsys.mod.media.serialize_json.obj
 0002:00004b00       ??_C@_04MLLLIHIP@null?$AA@ 0000000180022b00     umodsys_lib_libmedia:umodsys.mod.media.serialize_json.obj
 0002:00004b08       ??_C@_0M@KEPAKIJL@Value?5error?$AA@ 0000000180022b08     umodsys_lib_libmedia:umodsys.mod.media.serialize_json.obj
 0002:00004b18       ??_C@_0M@JLCCDMKC@buffer_size?$AA@ 0000000180022b18     umodsys_lib_libmedia:umodsys.mod.media.serialize_json.obj
 0002:00004b28       ??_C@_0DK@HIJOMHDN@UModSys?3?3modules?3?3media?3?3seriali@ 0000000180022b28     umodsys_lib_libmedia:umodsys.mod.media.serialize_json.obj
 0002:00004b64       ??_C@_04PFHMOCHH@?$HL?$CFd?$HN?$AA@ 0000000180022b64     umodsys_lib_libmedia:umodsys.mod.media.serialize_json.obj
 0002:00004b70       ??_C@_09BONHALO@?$HL?$CFu?6?$CC?$CFs?$CC?$HN?$AA@ 0000000180022b70     umodsys_lib_libmedia:umodsys.mod.media.serialize_json.obj
 0002:00004b7c       ??_C@_03JALODAI@?$CFld?$AA@ 0000000180022b7c     umodsys_lib_libmedia:umodsys.mod.media.serialize_json.obj
 0002:00004b80       ??_C@_02CGLCDNAE@?$CFe?$AA@ 0000000180022b80     umodsys_lib_libmedia:umodsys.mod.media.serialize_json.obj
 0002:00004b88       ??_C@_09DKCFLKBL@skip_step?$AA@ 0000000180022b88     umodsys_lib_libmedia:umodsys.mod.media.serialize_json.obj
 0002:00004b98       ??_C@_0L@BBIOCPNN@?$HLSIZE?5?$CFld?$HN?$AA@ 0000000180022b98     umodsys_lib_libmedia:umodsys.mod.media.serialize_json.obj
 0002:00004ba8       ??_C@_0DE@EGKBDJOG@UModSys?3?3modules?3?3media?3?3seriali@ 0000000180022ba8     umodsys_lib_libmedia:umodsys.mod.media.serialize_json.obj
 0002:00004be8       ??_7RGenerator@serialize_json@media@modules@UModSys@@6B@ 0000000180022be8     umodsys_lib_libmedia:umodsys.mod.media.serialize_json.obj
 0002:00004c88       ??_7RSerializeReader@serialize_json@media@modules@UModSys@@6B@ 0000000180022c88     umodsys_lib_libmedia:umodsys.mod.media.serialize_json.obj
 0002:00004d08       ??_7RSerializeWriter@serialize_json@media@modules@UModSys@@6BIRefObject@core@4@@ 0000000180022d08     umodsys_lib_libmedia:umodsys.mod.media.serialize_json.obj
 0002:00004d78       ??_7RSerializeWriter@serialize_json@media@modules@UModSys@@6BISerializeParser@libmedia@4@@ 0000000180022d78     umodsys_lib_libmedia:umodsys.mod.media.serialize_json.obj
 0002:00004da8       ??_7RModuleReg@serialize_json@media@modules@UModSys@@6B@ 0000000180022da8     umodsys_lib_libmedia:umodsys.mod.media.serialize_json.obj
 0002:00004de0       ??_C@_0DK@HMIMBDB@UModSys?3?3modules?3?3media?3?3zlib?3?3R@ 0000000180022de0     umodsys_lib_libmedia:umodsys.mod.media.zlib.obj
 0002:00004e20       ??_C@_0CK@CJDDEOAL@UModSys?3?3modules?3?3media?3?3zlib?3?3R@ 0000000180022e20     umodsys_lib_libmedia:umodsys.mod.media.zlib.obj
 0002:00004e4c       ??_C@_05HBMOAMF@1?42?47?$AA@ 0000000180022e4c     umodsys_lib_libmedia:umodsys.mod.media.zlib.obj
 0002:00004e58       ??_C@_0M@DGJEMLOB@compression?$AA@ 0000000180022e58     umodsys_lib_libmedia:umodsys.mod.media.zlib.obj
 0002:00004e68       ??_C@_0M@FMHEMKFE@media?3?3zlib?$AA@ 0000000180022e68     umodsys_lib_libmedia:umodsys.mod.media.zlib.obj
 0002:00004e88       ??_7RGenerator@zlib@media@modules@UModSys@@6B@ 0000000180022e88     umodsys_lib_libmedia:umodsys.mod.media.zlib.obj
 0002:00004f28       ??_7RBinArchiveFrameClient_ZIP@zlib@media@modules@UModSys@@6B@ 0000000180022f28     umodsys_lib_libmedia:umodsys.mod.media.zlib.obj
 0002:00005008       ??_7RModuleReg@zlib@media@modules@UModSys@@6B@ 0000000180023008     umodsys_lib_libmedia:umodsys.mod.media.zlib.obj
 0002:00005048       ??_7RModuleLibraryReg_Chain@base@UModSys@@6B@ 0000000180023048     umodsys_lib_base:umodsys.base.moduleregchain.obj
 0002:00005088       ??_7IModuleReg@base@UModSys@@6B@ 0000000180023088     umodsys_lib_base:umodsys.base.modulereg.obj
 0002:000050c8       ??_7IModuleLibraryReg@base@UModSys@@6B@ 00000001800230c8     umodsys_lib_base:umodsys.base.modulereg.obj
 0002:00005128       __real@437f0000            0000000180023128      CIL library: CIL module
 0002:00005130       __real@406fe00000000000    0000000180023130      CIL library: CIL module
 0002:00005138       __real@447a0000            0000000180023138      CIL library: CIL module
 0002:00005140       __real@3f50624dd2f1a9fc    0000000180023140      CIL library: CIL module
 0002:00005298       __real@3fe0000000000000    0000000180023298      CIL library: CIL module
 0002:00005538       __real@3f800000            0000000180023538      CIL library: CIL module
 0002:000059b8       __real@3f19999a            00000001800239b8      CIL library: CIL module
 0002:000059bc       __real@3f333333            00000001800239bc      CIL library: CIL module
 0002:000059c0       __real@3f000000            00000001800239c0      CIL library: CIL module
 0002:00005fc8       __real@3c23d70a            0000000180023fc8      CIL library: CIL module
 0002:000061e0       ??_R4type_info@@6B@        00000001800241e0     MSVCRT:ti_inst.obj
 0002:00006208       ??_R3type_info@@8          0000000180024208     MSVCRT:ti_inst.obj
 0002:00006220       ??_R2type_info@@8          0000000180024220     MSVCRT:ti_inst.obj
 0002:00006230       ??_R1A@?0A@EA@type_info@@8 0000000180024230     MSVCRT:ti_inst.obj
 0002:00006258       ??_R4RModuleReg@test1@test@modules@UModSys@@6B@ 0000000180024258     plugin_test1.obj
 0002:00006280       ??_R3RModuleReg@test1@test@modules@UModSys@@8 0000000180024280     plugin_test1.obj
 0002:00006298       ??_R2RModuleReg@test1@test@modules@UModSys@@8 0000000180024298     plugin_test1.obj
 0002:000062b0       ??_R1A@?0A@EA@IModuleReg@base@UModSys@@8 00000001800242b0     plugin_test1.obj
 0002:000062d8       ??_R3IModuleReg@base@UModSys@@8 00000001800242d8     plugin_test1.obj
 0002:000062f0       ??_R2IModuleReg@base@UModSys@@8 00000001800242f0     plugin_test1.obj
 0002:00006300       ??_R1A@?0A@EA@RModuleReg@test1@test@modules@UModSys@@8 0000000180024300     plugin_test1.obj
 0002:00006328       ??_R4RGenerator@test1@test@modules@UModSys@@6B@ 0000000180024328     plugin_test1.obj
 0002:00006350       ??_R3RGenerator@test1@test@modules@UModSys@@8 0000000180024350     plugin_test1.obj
 0002:00006368       ??_R2RGenerator@test1@test@modules@UModSys@@8 0000000180024368     plugin_test1.obj
 0002:00006398       ??_R1A@?0A@EA@RGenerator@test1@test@modules@UModSys@@8 0000000180024398     plugin_test1.obj
 0002:000063c0       ??_R4RTest1_Shell@test1@test@modules@UModSys@@6BIControllerData@libui@4@@ 00000001800243c0     plugin_test1.obj
 0002:000063e8       ??_R4RTest1_Shell@test1@test@modules@UModSys@@6BIControllerCommand@libui@4@@ 00000001800243e8     plugin_test1.obj
 0002:00006410       ??_R4RTest1_Shell@test1@test@modules@UModSys@@6BIMouseClient@libui@4@@ 0000000180024410     plugin_test1.obj
 0002:00006438       ??_R4RTest1_Shell@test1@test@modules@UModSys@@6BIKeyboardClient@libui@4@@ 0000000180024438     plugin_test1.obj
 0002:00006460       ??_R4RTest1_Shell@test1@test@modules@UModSys@@6BIShell@base@4@@ 0000000180024460     plugin_test1.obj
 0002:00006488       ??_R3RTest1_Shell@test1@test@modules@UModSys@@8 0000000180024488     plugin_test1.obj
 0002:000064a0       ??_R2RTest1_Shell@test1@test@modules@UModSys@@8 00000001800244a0     plugin_test1.obj
 0002:000064f0       ??_R1CA@?0A@EA@IControllerData@libui@UModSys@@8 00000001800244f0     plugin_test1.obj
 0002:00006518       ??_R1BI@?0A@EA@IControllerCommand@libui@UModSys@@8 0000000180024518     plugin_test1.obj
 0002:00006540       ??_R1BI@?0A@EA@IController@libui@UModSys@@8 0000000180024540     plugin_test1.obj
 0002:00006568       ??_R1BA@?0A@EA@IMouseClient@libui@UModSys@@8 0000000180024568     plugin_test1.obj
 0002:00006590       ??_R17?0A@EA@IKeyboardClient@libui@UModSys@@8 0000000180024590     plugin_test1.obj
 0002:000065b8       ??_R1A@?0A@EA@RTest1_Shell@test1@test@modules@UModSys@@8 00000001800245b8     plugin_test1.obj
 0002:000065e0       ??_R3IController@libui@UModSys@@8 00000001800245e0     plugin_test1.obj
 0002:000065f8       ??_R2IController@libui@UModSys@@8 00000001800245f8     plugin_test1.obj
 0002:00006618       ??_R17?0A@EA@IControllerData@libui@UModSys@@8 0000000180024618     plugin_test1.obj
 0002:00006640       ??_R1A@?0A@EA@IController@libui@UModSys@@8 0000000180024640     plugin_test1.obj
 0002:00006668       ??_R3IControllerData@libui@UModSys@@8 0000000180024668     plugin_test1.obj
 0002:00006680       ??_R2IControllerData@libui@UModSys@@8 0000000180024680     plugin_test1.obj
 0002:00006690       ??_R1A@?0A@EA@IControllerData@libui@UModSys@@8 0000000180024690     plugin_test1.obj
 0002:000066b8       ??_R3IControllerCommand@libui@UModSys@@8 00000001800246b8     plugin_test1.obj
 0002:000066d0       ??_R2IControllerCommand@libui@UModSys@@8 00000001800246d0     plugin_test1.obj
 0002:000066e0       ??_R1A@?0A@EA@IControllerCommand@libui@UModSys@@8 00000001800246e0     plugin_test1.obj
 0002:00006708       ??_R3IMouseClient@libui@UModSys@@8 0000000180024708     plugin_test1.obj
 0002:00006720       ??_R2IMouseClient@libui@UModSys@@8 0000000180024720     plugin_test1.obj
 0002:00006730       ??_R1A@?0A@EA@IMouseClient@libui@UModSys@@8 0000000180024730     plugin_test1.obj
 0002:00006758       ??_R3IKeyboardClient@libui@UModSys@@8 0000000180024758     plugin_test1.obj
 0002:00006770       ??_R2IKeyboardClient@libui@UModSys@@8 0000000180024770     plugin_test1.obj
 0002:00006780       ??_R1A@?0A@EA@IKeyboardClient@libui@UModSys@@8 0000000180024780     plugin_test1.obj
 0002:000067a8       ??_R3IBinObjFilter@libmedia@UModSys@@8 00000001800247a8     plugin_test1.obj
 0002:000067c0       ??_R2IBinObjFilter@libmedia@UModSys@@8 00000001800247c0     plugin_test1.obj
 0002:00006800       ??_R1A@?0A@EA@IBinObjFilter@libmedia@UModSys@@8 0000000180024800     plugin_test1.obj
 0002:00006828       ??_R3ILibObject@libmedia@UModSys@@8 0000000180024828     plugin_test1.obj
 0002:00006840       ??_R2ILibObject@libmedia@UModSys@@8 0000000180024840     plugin_test1.obj
 0002:00006878       ??_R17?0A@EA@IResolver@SFlags@libmedia@UModSys@@8 0000000180024878     plugin_test1.obj
 0002:000068a0       ??_R17?0A@EA@IResolverAuto@SFlags@libmedia@UModSys@@8 00000001800248a0     plugin_test1.obj
 0002:000068c8       ??_R17?0A@EA@ISetter@SFlags@libmedia@UModSys@@8 00000001800248c8     plugin_test1.obj
 0002:000068f0       ??_R3ISetter@SFlags@libmedia@UModSys@@8 00000001800248f0     plugin_test1.obj
 0002:00006908       ??_R2ISetter@SFlags@libmedia@UModSys@@8 0000000180024908     plugin_test1.obj
 0002:00006928       ??_R1A@?0A@EA@IResolverAuto@SFlags@libmedia@UModSys@@8 0000000180024928     plugin_test1.obj
 0002:00006950       ??_R3IResolverAuto@SFlags@libmedia@UModSys@@8 0000000180024950     plugin_test1.obj
 0002:00006968       ??_R2IResolverAuto@SFlags@libmedia@UModSys@@8 0000000180024968     plugin_test1.obj
 0002:00006980       ??_R1A@?0A@EA@IResolver@SFlags@libmedia@UModSys@@8 0000000180024980     plugin_test1.obj
 0002:000069a8       ??_R3IResolver@SFlags@libmedia@UModSys@@8 00000001800249a8     plugin_test1.obj
 0002:000069c0       ??_R2IResolver@SFlags@libmedia@UModSys@@8 00000001800249c0     plugin_test1.obj
 0002:000069d0       ??_R1A@?0A@EA@ISetter@SFlags@libmedia@UModSys@@8 00000001800249d0     plugin_test1.obj
 0002:000069f8       ??_R1A@?0A@EA@ILibObject@libmedia@UModSys@@8 00000001800249f8     plugin_test1.obj
 0002:00006a20       ??_R3IShell@base@UModSys@@8 0000000180024a20     plugin_test1.obj
 0002:00006a38       ??_R2IShell@base@UModSys@@8 0000000180024a38     plugin_test1.obj
 0002:00006a58       ??_R1A@?0A@EA@IShell@base@UModSys@@8 0000000180024a58     plugin_test1.obj
 0002:00006a80       ??_R3IGenerator@base@UModSys@@8 0000000180024a80     plugin_test1.obj
 0002:00006a98       ??_R2IGenerator@base@UModSys@@8 0000000180024a98     plugin_test1.obj
 0002:00006ac0       ??_R1A@?0A@EA@IGenerator@base@UModSys@@8 0000000180024ac0     plugin_test1.obj
 0002:00006ae8       ??_R3IModObject@base@UModSys@@8 0000000180024ae8     plugin_test1.obj
 0002:00006b00       ??_R2IModObject@base@UModSys@@8 0000000180024b00     plugin_test1.obj
 0002:00006b20       ??_R1A@?0A@EA@IModObject@base@UModSys@@8 0000000180024b20     plugin_test1.obj
 0002:00006b48       ??_R3IRefObject@core@UModSys@@8 0000000180024b48     plugin_test1.obj
 0002:00006b60       ??_R2IRefObject@core@UModSys@@8 0000000180024b60     plugin_test1.obj
 0002:00006b78       ??_R1A@?0A@EA@IRefObject@core@UModSys@@8 0000000180024b78     plugin_test1.obj
 0002:00006ba0       ??_R4IRoot@core@UModSys@@6B@ 0000000180024ba0     plugin_test1.obj
 0002:00006bc8       ??_R3IRoot@core@UModSys@@8 0000000180024bc8     plugin_test1.obj
 0002:00006be0       ??_R2IRoot@core@UModSys@@8 0000000180024be0     plugin_test1.obj
 0002:00006bf0       ??_R1A@?0A@EA@IRoot@core@UModSys@@8 0000000180024bf0     plugin_test1.obj
 0002:00006c18       ??_R4RModuleReg@stdlib@lib2d@modules@UModSys@@6B@ 0000000180024c18     umodsys_lib_lib2d:umodsys.mod.2d.stdlib.obj
 0002:00006c40       ??_R3RModuleReg@stdlib@lib2d@modules@UModSys@@8 0000000180024c40     umodsys_lib_lib2d:umodsys.mod.2d.stdlib.obj
 0002:00006c58       ??_R2RModuleReg@stdlib@lib2d@modules@UModSys@@8 0000000180024c58     umodsys_lib_lib2d:umodsys.mod.2d.stdlib.obj
 0002:00006c70       ??_R1A@?0A@EA@RModuleReg@stdlib@lib2d@modules@UModSys@@8 0000000180024c70     umodsys_lib_lib2d:umodsys.mod.2d.stdlib.obj
 0002:00006c98       ??_R4RMultiImage@stdlib@lib2d@modules@UModSys@@6B@ 0000000180024c98     umodsys_lib_lib2d:umodsys.mod.2d.stdlib.obj
 0002:00006cc0       ??_R3RMultiImage@stdlib@lib2d@modules@UModSys@@8 0000000180024cc0     umodsys_lib_lib2d:umodsys.mod.2d.stdlib.obj
 0002:00006cd8       ??_R2RMultiImage@stdlib@lib2d@modules@UModSys@@8 0000000180024cd8     umodsys_lib_lib2d:umodsys.mod.2d.stdlib.obj
 0002:00006d00       ??_R1A@?0A@EA@RMultiImage@stdlib@lib2d@modules@UModSys@@8 0000000180024d00     umodsys_lib_lib2d:umodsys.mod.2d.stdlib.obj
 0002:00006d28       ??_R4RImageFactory_Memory@stdlib@lib2d@modules@UModSys@@6B@ 0000000180024d28     umodsys_lib_lib2d:umodsys.mod.2d.stdlib.obj
 0002:00006d50       ??_R3RImageFactory_Memory@stdlib@lib2d@modules@UModSys@@8 0000000180024d50     umodsys_lib_lib2d:umodsys.mod.2d.stdlib.obj
 0002:00006d68       ??_R2RImageFactory_Memory@stdlib@lib2d@modules@UModSys@@8 0000000180024d68     umodsys_lib_lib2d:umodsys.mod.2d.stdlib.obj
 0002:00006d90       ??_R1A@?0A@EA@RImageFactory_Memory@stdlib@lib2d@modules@UModSys@@8 0000000180024d90     umodsys_lib_lib2d:umodsys.mod.2d.stdlib.obj
 0002:00006db8       ??_R4RImage_Memory@stdlib@lib2d@modules@UModSys@@6B@ 0000000180024db8     umodsys_lib_lib2d:umodsys.mod.2d.stdlib.obj
 0002:00006de0       ??_R3RImage_Memory@stdlib@lib2d@modules@UModSys@@8 0000000180024de0     umodsys_lib_lib2d:umodsys.mod.2d.stdlib.obj
 0002:00006df8       ??_R2RImage_Memory@stdlib@lib2d@modules@UModSys@@8 0000000180024df8     umodsys_lib_lib2d:umodsys.mod.2d.stdlib.obj
 0002:00006e20       ??_R1A@?0A@EA@RImage_Memory@stdlib@lib2d@modules@UModSys@@8 0000000180024e20     umodsys_lib_lib2d:umodsys.mod.2d.stdlib.obj
 0002:00006e48       ??_R4RGenerator@stdlib@lib2d@modules@UModSys@@6B@ 0000000180024e48     umodsys_lib_lib2d:umodsys.mod.2d.stdlib.obj
 0002:00006e70       ??_R3RGenerator@stdlib@lib2d@modules@UModSys@@8 0000000180024e70     umodsys_lib_lib2d:umodsys.mod.2d.stdlib.obj
 0002:00006e88       ??_R2RGenerator@stdlib@lib2d@modules@UModSys@@8 0000000180024e88     umodsys_lib_lib2d:umodsys.mod.2d.stdlib.obj
 0002:00006eb8       ??_R1A@?0A@EA@RGenerator@stdlib@lib2d@modules@UModSys@@8 0000000180024eb8     umodsys_lib_lib2d:umodsys.mod.2d.stdlib.obj
 0002:00006ee0       ??_R3IMultiImage@lib2d@UModSys@@8 0000000180024ee0     umodsys_lib_lib2d:umodsys.mod.2d.stdlib.obj
 0002:00006ef8       ??_R2IMultiImage@lib2d@UModSys@@8 0000000180024ef8     umodsys_lib_lib2d:umodsys.mod.2d.stdlib.obj
 0002:00006f18       ??_R1A@?0A@EA@IMultiImage@lib2d@UModSys@@8 0000000180024f18     umodsys_lib_lib2d:umodsys.mod.2d.stdlib.obj
 0002:00006f40       ??_R3IImageFactory@lib2d@UModSys@@8 0000000180024f40     umodsys_lib_lib2d:umodsys.mod.2d.stdlib.obj
 0002:00006f58       ??_R2IImageFactory@lib2d@UModSys@@8 0000000180024f58     umodsys_lib_lib2d:umodsys.mod.2d.stdlib.obj
 0002:00006f78       ??_R1A@?0A@EA@IImageFactory@lib2d@UModSys@@8 0000000180024f78     umodsys_lib_lib2d:umodsys.mod.2d.stdlib.obj
 0002:00006fa0       ??_R3IImage@lib2d@UModSys@@8 0000000180024fa0     umodsys_lib_lib2d:umodsys.mod.2d.stdlib.obj
 0002:00006fb8       ??_R2IImage@lib2d@UModSys@@8 0000000180024fb8     umodsys_lib_lib2d:umodsys.mod.2d.stdlib.obj
 0002:00006fd8       ??_R1A@?0A@EA@IImage@lib2d@UModSys@@8 0000000180024fd8     umodsys_lib_lib2d:umodsys.mod.2d.stdlib.obj
 0002:00007000       ??_R4RModuleReg@SDL_core@ui@modules@UModSys@@6B@ 0000000180025000     umodsys_lib_libui:umodsys.mod.ui.SDL_core.obj
 0002:00007028       ??_R3RModuleReg@SDL_core@ui@modules@UModSys@@8 0000000180025028     umodsys_lib_libui:umodsys.mod.ui.SDL_core.obj
 0002:00007040       ??_R2RModuleReg@SDL_core@ui@modules@UModSys@@8 0000000180025040     umodsys_lib_libui:umodsys.mod.ui.SDL_core.obj
 0002:00007058       ??_R1A@?0A@EA@RModuleReg@SDL_core@ui@modules@UModSys@@8 0000000180025058     umodsys_lib_libui:umodsys.mod.ui.SDL_core.obj
 0002:00007080       ??_R4RKeyboardController@SDL_core@ui@modules@UModSys@@6B@ 0000000180025080     umodsys_lib_libui:umodsys.mod.ui.SDL_core.obj
 0002:000070a8       ??_R3RKeyboardController@SDL_core@ui@modules@UModSys@@8 00000001800250a8     umodsys_lib_libui:umodsys.mod.ui.SDL_core.obj
 0002:000070c0       ??_R2RKeyboardController@SDL_core@ui@modules@UModSys@@8 00000001800250c0     umodsys_lib_libui:umodsys.mod.ui.SDL_core.obj
 0002:000070e8       ??_R1A@?0A@EA@RKeyboardController@SDL_core@ui@modules@UModSys@@8 00000001800250e8     umodsys_lib_libui:umodsys.mod.ui.SDL_core.obj
 0002:00007110       ??_R4RMouseController@SDL_core@ui@modules@UModSys@@6B@ 0000000180025110     umodsys_lib_libui:umodsys.mod.ui.SDL_core.obj
 0002:00007138       ??_R3RMouseController@SDL_core@ui@modules@UModSys@@8 0000000180025138     umodsys_lib_libui:umodsys.mod.ui.SDL_core.obj
 0002:00007150       ??_R2RMouseController@SDL_core@ui@modules@UModSys@@8 0000000180025150     umodsys_lib_libui:umodsys.mod.ui.SDL_core.obj
 0002:00007178       ??_R1A@?0A@EA@RMouseController@SDL_core@ui@modules@UModSys@@8 0000000180025178     umodsys_lib_libui:umodsys.mod.ui.SDL_core.obj
 0002:000071a0       ??_R4RMultiImage2D_SDL_ttf@SDL_core@ui@modules@UModSys@@6B@ 00000001800251a0     umodsys_lib_libui:umodsys.mod.ui.SDL_core.obj
 0002:000071c8       ??_R3RMultiImage2D_SDL_ttf@SDL_core@ui@modules@UModSys@@8 00000001800251c8     umodsys_lib_libui:umodsys.mod.ui.SDL_core.obj
 0002:000071e0       ??_R2RMultiImage2D_SDL_ttf@SDL_core@ui@modules@UModSys@@8 00000001800251e0     umodsys_lib_libui:umodsys.mod.ui.SDL_core.obj
 0002:00007208       ??_R1A@?0A@EA@RMultiImage2D_SDL_ttf@SDL_core@ui@modules@UModSys@@8 0000000180025208     umodsys_lib_libui:umodsys.mod.ui.SDL_core.obj
 0002:00007230       ??_R4RRenderDriver2D@SDL_core@ui@modules@UModSys@@6B@ 0000000180025230     umodsys_lib_libui:umodsys.mod.ui.SDL_core.obj
 0002:00007258       ??_R3RRenderDriver2D@SDL_core@ui@modules@UModSys@@8 0000000180025258     umodsys_lib_libui:umodsys.mod.ui.SDL_core.obj
 0002:00007270       ??_R2RRenderDriver2D@SDL_core@ui@modules@UModSys@@8 0000000180025270     umodsys_lib_libui:umodsys.mod.ui.SDL_core.obj
 0002:00007298       ??_R1A@?0A@EA@RRenderDriver2D@SDL_core@ui@modules@UModSys@@8 0000000180025298     umodsys_lib_libui:umodsys.mod.ui.SDL_core.obj
 0002:000072c0       ??_R4RTerminal@SDL_core@ui@modules@UModSys@@6B@ 00000001800252c0     umodsys_lib_libui:umodsys.mod.ui.SDL_core.obj
 0002:000072e8       ??_R3RTerminal@SDL_core@ui@modules@UModSys@@8 00000001800252e8     umodsys_lib_libui:umodsys.mod.ui.SDL_core.obj
 0002:00007300       ??_R2RTerminal@SDL_core@ui@modules@UModSys@@8 0000000180025300     umodsys_lib_libui:umodsys.mod.ui.SDL_core.obj
 0002:00007328       ??_R1A@?0A@EA@RTerminal@SDL_core@ui@modules@UModSys@@8 0000000180025328     umodsys_lib_libui:umodsys.mod.ui.SDL_core.obj
 0002:00007350       ??_R4RGenerator@SDL_core@ui@modules@UModSys@@6B@ 0000000180025350     umodsys_lib_libui:umodsys.mod.ui.SDL_core.obj
 0002:00007378       ??_R3RGenerator@SDL_core@ui@modules@UModSys@@8 0000000180025378     umodsys_lib_libui:umodsys.mod.ui.SDL_core.obj
 0002:00007390       ??_R2RGenerator@SDL_core@ui@modules@UModSys@@8 0000000180025390     umodsys_lib_libui:umodsys.mod.ui.SDL_core.obj
 0002:000073c0       ??_R1A@?0A@EA@RGenerator@SDL_core@ui@modules@UModSys@@8 00000001800253c0     umodsys_lib_libui:umodsys.mod.ui.SDL_core.obj
 0002:000073e8       ??_R3IMouseController@libui@UModSys@@8 00000001800253e8     umodsys_lib_libui:umodsys.mod.ui.SDL_core.obj
 0002:00007400       ??_R2IMouseController@libui@UModSys@@8 0000000180025400     umodsys_lib_libui:umodsys.mod.ui.SDL_core.obj
 0002:00007420       ??_R1A@?0A@EA@IMouseController@libui@UModSys@@8 0000000180025420     umodsys_lib_libui:umodsys.mod.ui.SDL_core.obj
 0002:00007448       ??_R3IKeyboardController@libui@UModSys@@8 0000000180025448     umodsys_lib_libui:umodsys.mod.ui.SDL_core.obj
 0002:00007460       ??_R2IKeyboardController@libui@UModSys@@8 0000000180025460     umodsys_lib_libui:umodsys.mod.ui.SDL_core.obj
 0002:00007480       ??_R1A@?0A@EA@IKeyboardController@libui@UModSys@@8 0000000180025480     umodsys_lib_libui:umodsys.mod.ui.SDL_core.obj
 0002:000074a8       ??_R3ITerminal@libui@UModSys@@8 00000001800254a8     umodsys_lib_libui:umodsys.mod.ui.SDL_core.obj
 0002:000074c0       ??_R2ITerminal@libui@UModSys@@8 00000001800254c0     umodsys_lib_libui:umodsys.mod.ui.SDL_core.obj
 0002:000074e0       ??_R1A@?0A@EA@ITerminal@libui@UModSys@@8 00000001800254e0     umodsys_lib_libui:umodsys.mod.ui.SDL_core.obj
 0002:00007508       ??_R3IRenderDriver@lib2d@UModSys@@8 0000000180025508     umodsys_lib_libui:umodsys.mod.ui.SDL_core.obj
 0002:00007520       ??_R2IRenderDriver@lib2d@UModSys@@8 0000000180025520     umodsys_lib_libui:umodsys.mod.ui.SDL_core.obj
 0002:00007540       ??_R1A@?0A@EA@IRenderDriver@lib2d@UModSys@@8 0000000180025540     umodsys_lib_libui:umodsys.mod.ui.SDL_core.obj
 0002:00007568       ??_R4RModuleReg@frames@ui@modules@UModSys@@6B@ 0000000180025568     umodsys_lib_libui:umodsys.mod.ui.frames.obj
 0002:00007590       ??_R3RModuleReg@frames@ui@modules@UModSys@@8 0000000180025590     umodsys_lib_libui:umodsys.mod.ui.frames.obj
 0002:000075a8       ??_R2RModuleReg@frames@ui@modules@UModSys@@8 00000001800255a8     umodsys_lib_libui:umodsys.mod.ui.frames.obj
 0002:000075c0       ??_R1A@?0A@EA@RModuleReg@frames@ui@modules@UModSys@@8 00000001800255c0     umodsys_lib_libui:umodsys.mod.ui.frames.obj
 0002:000075e8       ??_R4RFrame_List@frames@ui@modules@UModSys@@6BIFrameData@libui@4@@ 00000001800255e8     umodsys_lib_libui:umodsys.mod.ui.frames.obj
 0002:00007610       ??_R4RFrame_List@frames@ui@modules@UModSys@@6BIFrameList@libui@4@@ 0000000180025610     umodsys_lib_libui:umodsys.mod.ui.frames.obj
 0002:00007638       ??_R4RFrame_List@frames@ui@modules@UModSys@@6BICollectorThemeTree@libui@4@@ 0000000180025638     umodsys_lib_libui:umodsys.mod.ui.frames.obj
 0002:00007660       ??_R4RFrame_List@frames@ui@modules@UModSys@@6BIRefObject@core@4@@ 0000000180025660     umodsys_lib_libui:umodsys.mod.ui.frames.obj
 0002:00007688       ??_R3RFrame_List@frames@ui@modules@UModSys@@8 0000000180025688     umodsys_lib_libui:umodsys.mod.ui.frames.obj
 0002:000076a0       ??_R2RFrame_List@frames@ui@modules@UModSys@@8 00000001800256a0     umodsys_lib_libui:umodsys.mod.ui.frames.obj
 0002:000076e8       ??_R1BAA@?0A@EA@IFrameData@libui@UModSys@@8 00000001800256e8     umodsys_lib_libui:umodsys.mod.ui.frames.obj
 0002:00007710       ??_R1PI@?0A@EA@IFrameList@libui@UModSys@@8 0000000180025710     umodsys_lib_libui:umodsys.mod.ui.frames.obj
 0002:00007738       ??_R1A@?0A@EA@RFrame_List@frames@ui@modules@UModSys@@8 0000000180025738     umodsys_lib_libui:umodsys.mod.ui.frames.obj
 0002:00007760       ??_R4RFrame_Edit@frames@ui@modules@UModSys@@6B@ 0000000180025760     umodsys_lib_libui:umodsys.mod.ui.frames.obj
 0002:00007788       ??_R4RFrame_Edit@frames@ui@modules@UModSys@@6BICollectorThemeTree@libui@4@@ 0000000180025788     umodsys_lib_libui:umodsys.mod.ui.frames.obj
 0002:000077b0       ??_R4RFrame_Edit@frames@ui@modules@UModSys@@6BIRefObject@core@4@@ 00000001800257b0     umodsys_lib_libui:umodsys.mod.ui.frames.obj
 0002:000077d8       ??_R3RFrame_Edit@frames@ui@modules@UModSys@@8 00000001800257d8     umodsys_lib_libui:umodsys.mod.ui.frames.obj
 0002:000077f0       ??_R2RFrame_Edit@frames@ui@modules@UModSys@@8 00000001800257f0     umodsys_lib_libui:umodsys.mod.ui.frames.obj
 0002:00007830       ??_R1A@?0A@EA@RFrame_Edit@frames@ui@modules@UModSys@@8 0000000180025830     umodsys_lib_libui:umodsys.mod.ui.frames.obj
 0002:00007858       ??_R4RFrame_Button@frames@ui@modules@UModSys@@6BICollectorThemeTree@libui@4@@ 0000000180025858     umodsys_lib_libui:umodsys.mod.ui.frames.obj
 0002:00007880       ??_R4RFrame_Button@frames@ui@modules@UModSys@@6BIRefObject@core@4@@ 0000000180025880     umodsys_lib_libui:umodsys.mod.ui.frames.obj
 0002:000078a8       ??_R3RFrame_Button@frames@ui@modules@UModSys@@8 00000001800258a8     umodsys_lib_libui:umodsys.mod.ui.frames.obj
 0002:000078c0       ??_R2RFrame_Button@frames@ui@modules@UModSys@@8 00000001800258c0     umodsys_lib_libui:umodsys.mod.ui.frames.obj
 0002:000078f8       ??_R1A@?0A@EA@RFrame_Button@frames@ui@modules@UModSys@@8 00000001800258f8     umodsys_lib_libui:umodsys.mod.ui.frames.obj
 0002:00007920       ??_R4RFrame_Text@frames@ui@modules@UModSys@@6B@ 0000000180025920     umodsys_lib_libui:umodsys.mod.ui.frames.obj
 0002:00007948       ??_R4RFrame_Text@frames@ui@modules@UModSys@@6BICollectorThemeTree@libui@4@@ 0000000180025948     umodsys_lib_libui:umodsys.mod.ui.frames.obj
 0002:00007970       ??_R4RFrame_Text@frames@ui@modules@UModSys@@6BIRefObject@core@4@@ 0000000180025970     umodsys_lib_libui:umodsys.mod.ui.frames.obj
 0002:00007998       ??_R3RFrame_Text@frames@ui@modules@UModSys@@8 0000000180025998     umodsys_lib_libui:umodsys.mod.ui.frames.obj
 0002:000079b0       ??_R2RFrame_Text@frames@ui@modules@UModSys@@8 00000001800259b0     umodsys_lib_libui:umodsys.mod.ui.frames.obj
 0002:000079f0       ??_R1PI@?0A@EA@IFrameData@libui@UModSys@@8 00000001800259f0     umodsys_lib_libui:umodsys.mod.ui.frames.obj
 0002:00007a18       ??_R1A@?0A@EA@RFrame_Text@frames@ui@modules@UModSys@@8 0000000180025a18     umodsys_lib_libui:umodsys.mod.ui.frames.obj
 0002:00007a40       ??_R4RFrame_Image@frames@ui@modules@UModSys@@6BICollectorThemeTree@libui@4@@ 0000000180025a40     umodsys_lib_libui:umodsys.mod.ui.frames.obj
 0002:00007a68       ??_R4RFrame_Image@frames@ui@modules@UModSys@@6BIRefObject@core@4@@ 0000000180025a68     umodsys_lib_libui:umodsys.mod.ui.frames.obj
 0002:00007a90       ??_R3RFrame_Image@frames@ui@modules@UModSys@@8 0000000180025a90     umodsys_lib_libui:umodsys.mod.ui.frames.obj
 0002:00007aa8       ??_R2RFrame_Image@frames@ui@modules@UModSys@@8 0000000180025aa8     umodsys_lib_libui:umodsys.mod.ui.frames.obj
 0002:00007ae0       ??_R1A@?0A@EA@RFrame_Image@frames@ui@modules@UModSys@@8 0000000180025ae0     umodsys_lib_libui:umodsys.mod.ui.frames.obj
 0002:00007b08       ??_R4RFrame_Frame@frames@ui@modules@UModSys@@6BICollectorThemeTree@libui@4@@ 0000000180025b08     umodsys_lib_libui:umodsys.mod.ui.frames.obj
 0002:00007b30       ??_R4RFrame_Frame@frames@ui@modules@UModSys@@6BIRefObject@core@4@@ 0000000180025b30     umodsys_lib_libui:umodsys.mod.ui.frames.obj
 0002:00007b58       ??_R3RFrame_Frame@frames@ui@modules@UModSys@@8 0000000180025b58     umodsys_lib_libui:umodsys.mod.ui.frames.obj
 0002:00007b70       ??_R2RFrame_Frame@frames@ui@modules@UModSys@@8 0000000180025b70     umodsys_lib_libui:umodsys.mod.ui.frames.obj
 0002:00007ba8       ??_R1A@?0A@EA@RFrame_Frame@frames@ui@modules@UModSys@@8 0000000180025ba8     umodsys_lib_libui:umodsys.mod.ui.frames.obj
 0002:00007bd0       ??_R4RCollectorTheme@frames@ui@modules@UModSys@@6B@ 0000000180025bd0     umodsys_lib_libui:umodsys.mod.ui.frames.obj
 0002:00007bf8       ??_R3RCollectorTheme@frames@ui@modules@UModSys@@8 0000000180025bf8     umodsys_lib_libui:umodsys.mod.ui.frames.obj
 0002:00007c10       ??_R2RCollectorTheme@frames@ui@modules@UModSys@@8 0000000180025c10     umodsys_lib_libui:umodsys.mod.ui.frames.obj
 0002:00007c30       ??_R1A@?0A@EA@RCollectorTheme@frames@ui@modules@UModSys@@8 0000000180025c30     umodsys_lib_libui:umodsys.mod.ui.frames.obj
 0002:00007c58       ??_R4RFrame_Common@frames@ui@modules@UModSys@@6BICollectorThemeTree@libui@4@@ 0000000180025c58     umodsys_lib_libui:umodsys.mod.ui.frames.obj
 0002:00007c80       ??_R4RFrame_Common@frames@ui@modules@UModSys@@6BIRefObject@core@4@@ 0000000180025c80     umodsys_lib_libui:umodsys.mod.ui.frames.obj
 0002:00007ca8       ??_R3RFrame_Common@frames@ui@modules@UModSys@@8 0000000180025ca8     umodsys_lib_libui:umodsys.mod.ui.frames.obj
 0002:00007cc0       ??_R2RFrame_Common@frames@ui@modules@UModSys@@8 0000000180025cc0     umodsys_lib_libui:umodsys.mod.ui.frames.obj
 0002:00007cf0       ??_R1A@?0A@EA@RFrame_Common@frames@ui@modules@UModSys@@8 0000000180025cf0     umodsys_lib_libui:umodsys.mod.ui.frames.obj
 0002:00007d18       ??_R4RDialog@frames@ui@modules@UModSys@@6B@ 0000000180025d18     umodsys_lib_libui:umodsys.mod.ui.frames.obj
 0002:00007d40       ??_R3RDialog@frames@ui@modules@UModSys@@8 0000000180025d40     umodsys_lib_libui:umodsys.mod.ui.frames.obj
 0002:00007d58       ??_R2RDialog@frames@ui@modules@UModSys@@8 0000000180025d58     umodsys_lib_libui:umodsys.mod.ui.frames.obj
 0002:00007d80       ??_R1A@?0A@EA@RDialog@frames@ui@modules@UModSys@@8 0000000180025d80     umodsys_lib_libui:umodsys.mod.ui.frames.obj
 0002:00007da8       ??_R4RCollector@frames@ui@modules@UModSys@@6BIMouseClient@libui@4@@ 0000000180025da8     umodsys_lib_libui:umodsys.mod.ui.frames.obj
 0002:00007dd0       ??_R4RCollector@frames@ui@modules@UModSys@@6BIKeyboardClient@libui@4@@ 0000000180025dd0     umodsys_lib_libui:umodsys.mod.ui.frames.obj
 0002:00007df8       ??_R4RCollector@frames@ui@modules@UModSys@@6BICollectorThemeTree@libui@4@@ 0000000180025df8     umodsys_lib_libui:umodsys.mod.ui.frames.obj
 0002:00007e20       ??_R4RCollector@frames@ui@modules@UModSys@@6BIRefObject@core@4@@ 0000000180025e20     umodsys_lib_libui:umodsys.mod.ui.frames.obj
 0002:00007e48       ??_R3RCollector@frames@ui@modules@UModSys@@8 0000000180025e48     umodsys_lib_libui:umodsys.mod.ui.frames.obj
 0002:00007e60       ??_R2RCollector@frames@ui@modules@UModSys@@8 0000000180025e60     umodsys_lib_libui:umodsys.mod.ui.frames.obj
 0002:00007ea0       ??_R1BI@?0A@EA@IMouseClient@libui@UModSys@@8 0000000180025ea0     umodsys_lib_libui:umodsys.mod.ui.frames.obj
 0002:00007ec8       ??_R1BA@?0A@EA@IKeyboardClient@libui@UModSys@@8 0000000180025ec8     umodsys_lib_libui:umodsys.mod.ui.frames.obj
 0002:00007ef0       ??_R1A@?0A@EA@RCollector@frames@ui@modules@UModSys@@8 0000000180025ef0     umodsys_lib_libui:umodsys.mod.ui.frames.obj
 0002:00007f18       ??_R4RGenerator@frames@ui@modules@UModSys@@6B@ 0000000180025f18     umodsys_lib_libui:umodsys.mod.ui.frames.obj
 0002:00007f40       ??_R3RGenerator@frames@ui@modules@UModSys@@8 0000000180025f40     umodsys_lib_libui:umodsys.mod.ui.frames.obj
 0002:00007f58       ??_R2RGenerator@frames@ui@modules@UModSys@@8 0000000180025f58     umodsys_lib_libui:umodsys.mod.ui.frames.obj
 0002:00007f88       ??_R1A@?0A@EA@RGenerator@frames@ui@modules@UModSys@@8 0000000180025f88     umodsys_lib_libui:umodsys.mod.ui.frames.obj
 0002:00007fb0       ??_R4ICollectorThemeTemplate@libui@UModSys@@6B@ 0000000180025fb0     umodsys_lib_libui:umodsys.mod.ui.frames.obj
 0002:00007fd8       ??_R3ICollectorThemeTemplate@libui@UModSys@@8 0000000180025fd8     umodsys_lib_libui:umodsys.mod.ui.frames.obj
 0002:00007ff0       ??_R2ICollectorThemeTemplate@libui@UModSys@@8 0000000180025ff0     umodsys_lib_libui:umodsys.mod.ui.frames.obj
 0002:00008008       ??_R1A@?0A@EA@ICollectorThemeTemplate@libui@UModSys@@8 0000000180026008     umodsys_lib_libui:umodsys.mod.ui.frames.obj
 0002:00008030       ??_R3IFrameList@libui@UModSys@@8 0000000180026030     umodsys_lib_libui:umodsys.mod.ui.frames.obj
 0002:00008048       ??_R2IFrameList@libui@UModSys@@8 0000000180026048     umodsys_lib_libui:umodsys.mod.ui.frames.obj
 0002:00008058       ??_R1A@?0A@EA@IFrameList@libui@UModSys@@8 0000000180026058     umodsys_lib_libui:umodsys.mod.ui.frames.obj
 0002:00008080       ??_R3IFrameData@libui@UModSys@@8 0000000180026080     umodsys_lib_libui:umodsys.mod.ui.frames.obj
 0002:00008098       ??_R2IFrameData@libui@UModSys@@8 0000000180026098     umodsys_lib_libui:umodsys.mod.ui.frames.obj
 0002:000080a8       ??_R1A@?0A@EA@IFrameData@libui@UModSys@@8 00000001800260a8     umodsys_lib_libui:umodsys.mod.ui.frames.obj
 0002:000080d0       ??_R3IDialog@libui@UModSys@@8 00000001800260d0     umodsys_lib_libui:umodsys.mod.ui.frames.obj
 0002:000080e8       ??_R2IDialog@libui@UModSys@@8 00000001800260e8     umodsys_lib_libui:umodsys.mod.ui.frames.obj
 0002:00008108       ??_R1A@?0A@EA@IDialog@libui@UModSys@@8 0000000180026108     umodsys_lib_libui:umodsys.mod.ui.frames.obj
 0002:00008130       ??_R3IFrame@libui@UModSys@@8 0000000180026130     umodsys_lib_libui:umodsys.mod.ui.frames.obj
 0002:00008148       ??_R2IFrame@libui@UModSys@@8 0000000180026148     umodsys_lib_libui:umodsys.mod.ui.frames.obj
 0002:00008170       ??_R1A@?0A@EA@IFrame@libui@UModSys@@8 0000000180026170     umodsys_lib_libui:umodsys.mod.ui.frames.obj
 0002:00008198       ??_R3ICollectorTheme@libui@UModSys@@8 0000000180026198     umodsys_lib_libui:umodsys.mod.ui.frames.obj
 0002:000081b0       ??_R2ICollectorTheme@libui@UModSys@@8 00000001800261b0     umodsys_lib_libui:umodsys.mod.ui.frames.obj
 0002:000081c0       ??_R1A@?0A@EA@ICollectorTheme@libui@UModSys@@8 00000001800261c0     umodsys_lib_libui:umodsys.mod.ui.frames.obj
 0002:000081e8       ??_R3ICollector@libui@UModSys@@8 00000001800261e8     umodsys_lib_libui:umodsys.mod.ui.frames.obj
 0002:00008200       ??_R2ICollector@libui@UModSys@@8 0000000180026200     umodsys_lib_libui:umodsys.mod.ui.frames.obj
 0002:00008228       ??_R17?0A@EA@ICollectorThemeTree@libui@UModSys@@8 0000000180026228     umodsys_lib_libui:umodsys.mod.ui.frames.obj
 0002:00008250       ??_R3ICollectorThemeTree@libui@UModSys@@8 0000000180026250     umodsys_lib_libui:umodsys.mod.ui.frames.obj
 0002:00008268       ??_R2ICollectorThemeTree@libui@UModSys@@8 0000000180026268     umodsys_lib_libui:umodsys.mod.ui.frames.obj
 0002:00008278       ??_R1A@?0A@EA@ICollectorThemeTree@libui@UModSys@@8 0000000180026278     umodsys_lib_libui:umodsys.mod.ui.frames.obj
 0002:000082a0       ??_R1A@?0A@EA@ICollector@libui@UModSys@@8 00000001800262a0     umodsys_lib_libui:umodsys.mod.ui.frames.obj
 0002:000082c8       ??_R4RModuleReg@images_std@media@modules@UModSys@@6B@ 00000001800262c8     umodsys_lib_libmedia:umodsys.mod.media.images_std.obj
 0002:000082f0       ??_R3RModuleReg@images_std@media@modules@UModSys@@8 00000001800262f0     umodsys_lib_libmedia:umodsys.mod.media.images_std.obj
 0002:00008308       ??_R2RModuleReg@images_std@media@modules@UModSys@@8 0000000180026308     umodsys_lib_libmedia:umodsys.mod.media.images_std.obj
 0002:00008320       ??_R1A@?0A@EA@RModuleReg@images_std@media@modules@UModSys@@8 0000000180026320     umodsys_lib_libmedia:umodsys.mod.media.images_std.obj
 0002:00008348       ??_R4RMediaFilter@images_std@media@modules@UModSys@@6BISetter@SFlags@libmedia@4@@ 0000000180026348     umodsys_lib_libmedia:umodsys.mod.media.images_std.obj
 0002:00008370       ??_R4RMediaFilter@images_std@media@modules@UModSys@@6BIRefObject@core@4@@ 0000000180026370     umodsys_lib_libmedia:umodsys.mod.media.images_std.obj
 0002:00008398       ??_R3RMediaFilter@images_std@media@modules@UModSys@@8 0000000180026398     umodsys_lib_libmedia:umodsys.mod.media.images_std.obj
 0002:000083b0       ??_R2RMediaFilter@images_std@media@modules@UModSys@@8 00000001800263b0     umodsys_lib_libmedia:umodsys.mod.media.images_std.obj
 0002:000083f8       ??_R1A@?0A@EA@RMediaFilter@images_std@media@modules@UModSys@@8 00000001800263f8     umodsys_lib_libmedia:umodsys.mod.media.images_std.obj
 0002:00008420       ??_R4RGenerator@images_std@media@modules@UModSys@@6B@ 0000000180026420     umodsys_lib_libmedia:umodsys.mod.media.images_std.obj
 0002:00008448       ??_R3RGenerator@images_std@media@modules@UModSys@@8 0000000180026448     umodsys_lib_libmedia:umodsys.mod.media.images_std.obj
 0002:00008460       ??_R2RGenerator@images_std@media@modules@UModSys@@8 0000000180026460     umodsys_lib_libmedia:umodsys.mod.media.images_std.obj
 0002:00008490       ??_R1A@?0A@EA@RGenerator@images_std@media@modules@UModSys@@8 0000000180026490     umodsys_lib_libmedia:umodsys.mod.media.images_std.obj
 0002:000084b8       ??_R4RModuleReg@serialize_json@media@modules@UModSys@@6B@ 00000001800264b8     umodsys_lib_libmedia:umodsys.mod.media.serialize_json.obj
 0002:000084e0       ??_R3RModuleReg@serialize_json@media@modules@UModSys@@8 00000001800264e0     umodsys_lib_libmedia:umodsys.mod.media.serialize_json.obj
 0002:000084f8       ??_R2RModuleReg@serialize_json@media@modules@UModSys@@8 00000001800264f8     umodsys_lib_libmedia:umodsys.mod.media.serialize_json.obj
 0002:00008510       ??_R1A@?0A@EA@RModuleReg@serialize_json@media@modules@UModSys@@8 0000000180026510     umodsys_lib_libmedia:umodsys.mod.media.serialize_json.obj
 0002:00008538       ??_R4RSerializeWriter@serialize_json@media@modules@UModSys@@6BISerializeParser@libmedia@4@@ 0000000180026538     umodsys_lib_libmedia:umodsys.mod.media.serialize_json.obj
 0002:00008560       ??_R4RSerializeWriter@serialize_json@media@modules@UModSys@@6BIRefObject@core@4@@ 0000000180026560     umodsys_lib_libmedia:umodsys.mod.media.serialize_json.obj
 0002:00008588       ??_R3RSerializeWriter@serialize_json@media@modules@UModSys@@8 0000000180026588     umodsys_lib_libmedia:umodsys.mod.media.serialize_json.obj
 0002:000085a0       ??_R2RSerializeWriter@serialize_json@media@modules@UModSys@@8 00000001800265a0     umodsys_lib_libmedia:umodsys.mod.media.serialize_json.obj
 0002:000085d0       ??_R1A@?0A@EA@RSerializeWriter@serialize_json@media@modules@UModSys@@8 00000001800265d0     umodsys_lib_libmedia:umodsys.mod.media.serialize_json.obj
 0002:000085f8       ??_R4RSerializeReader@serialize_json@media@modules@UModSys@@6B@ 00000001800265f8     umodsys_lib_libmedia:umodsys.mod.media.serialize_json.obj
 0002:00008620       ??_R3RSerializeReader@serialize_json@media@modules@UModSys@@8 0000000180026620     umodsys_lib_libmedia:umodsys.mod.media.serialize_json.obj
 0002:00008638       ??_R2RSerializeReader@serialize_json@media@modules@UModSys@@8 0000000180026638     umodsys_lib_libmedia:umodsys.mod.media.serialize_json.obj
 0002:00008660       ??_R1A@?0A@EA@RSerializeReader@serialize_json@media@modules@UModSys@@8 0000000180026660     umodsys_lib_libmedia:umodsys.mod.media.serialize_json.obj
 0002:00008688       ??_R4RGenerator@serialize_json@media@modules@UModSys@@6B@ 0000000180026688     umodsys_lib_libmedia:umodsys.mod.media.serialize_json.obj
 0002:000086b0       ??_R3RGenerator@serialize_json@media@modules@UModSys@@8 00000001800266b0     umodsys_lib_libmedia:umodsys.mod.media.serialize_json.obj
 0002:000086c8       ??_R2RGenerator@serialize_json@media@modules@UModSys@@8 00000001800266c8     umodsys_lib_libmedia:umodsys.mod.media.serialize_json.obj
 0002:000086f8       ??_R1A@?0A@EA@RGenerator@serialize_json@media@modules@UModSys@@8 00000001800266f8     umodsys_lib_libmedia:umodsys.mod.media.serialize_json.obj
 0002:00008720       ??_R3ISerializeWriter@libmedia@UModSys@@8 0000000180026720     umodsys_lib_libmedia:umodsys.mod.media.serialize_json.obj
 0002:00008738       ??_R2ISerializeWriter@libmedia@UModSys@@8 0000000180026738     umodsys_lib_libmedia:umodsys.mod.media.serialize_json.obj
 0002:00008760       ??_R17?0A@EA@ISerializeParser@libmedia@UModSys@@8 0000000180026760     umodsys_lib_libmedia:umodsys.mod.media.serialize_json.obj
 0002:00008788       ??_R3ISerializeParser@libmedia@UModSys@@8 0000000180026788     umodsys_lib_libmedia:umodsys.mod.media.serialize_json.obj
 0002:000087a0       ??_R2ISerializeParser@libmedia@UModSys@@8 00000001800267a0     umodsys_lib_libmedia:umodsys.mod.media.serialize_json.obj
 0002:000087b0       ??_R1A@?0A@EA@ISerializeParser@libmedia@UModSys@@8 00000001800267b0     umodsys_lib_libmedia:umodsys.mod.media.serialize_json.obj
 0002:000087d8       ??_R1A@?0A@EA@ISerializeWriter@libmedia@UModSys@@8 00000001800267d8     umodsys_lib_libmedia:umodsys.mod.media.serialize_json.obj
 0002:00008800       ??_R3ISerializeReader@libmedia@UModSys@@8 0000000180026800     umodsys_lib_libmedia:umodsys.mod.media.serialize_json.obj
 0002:00008818       ??_R2ISerializeReader@libmedia@UModSys@@8 0000000180026818     umodsys_lib_libmedia:umodsys.mod.media.serialize_json.obj
 0002:00008838       ??_R1A@?0A@EA@ISerializeReader@libmedia@UModSys@@8 0000000180026838     umodsys_lib_libmedia:umodsys.mod.media.serialize_json.obj
 0002:00008860       ??_R4RModuleReg@zlib@media@modules@UModSys@@6B@ 0000000180026860     umodsys_lib_libmedia:umodsys.mod.media.zlib.obj
 0002:00008888       ??_R3RModuleReg@zlib@media@modules@UModSys@@8 0000000180026888     umodsys_lib_libmedia:umodsys.mod.media.zlib.obj
 0002:000088a0       ??_R2RModuleReg@zlib@media@modules@UModSys@@8 00000001800268a0     umodsys_lib_libmedia:umodsys.mod.media.zlib.obj
 0002:000088b8       ??_R1A@?0A@EA@RModuleReg@zlib@media@modules@UModSys@@8 00000001800268b8     umodsys_lib_libmedia:umodsys.mod.media.zlib.obj
 0002:000088e0       ??_R4RBinArchiveFrameClient_ZIP@zlib@media@modules@UModSys@@6B@ 00000001800268e0     umodsys_lib_libmedia:umodsys.mod.media.zlib.obj
 0002:00008908       ??_R3RBinArchiveFrameClient_ZIP@zlib@media@modules@UModSys@@8 0000000180026908     umodsys_lib_libmedia:umodsys.mod.media.zlib.obj
 0002:00008920       ??_R2RBinArchiveFrameClient_ZIP@zlib@media@modules@UModSys@@8 0000000180026920     umodsys_lib_libmedia:umodsys.mod.media.zlib.obj
 0002:00008948       ??_R1A@?0A@EA@RBinArchiveFrameClient_ZIP@zlib@media@modules@UModSys@@8 0000000180026948     umodsys_lib_libmedia:umodsys.mod.media.zlib.obj
 0002:00008970       ??_R4RGenerator@zlib@media@modules@UModSys@@6B@ 0000000180026970     umodsys_lib_libmedia:umodsys.mod.media.zlib.obj
 0002:00008998       ??_R3RGenerator@zlib@media@modules@UModSys@@8 0000000180026998     umodsys_lib_libmedia:umodsys.mod.media.zlib.obj
 0002:000089b0       ??_R2RGenerator@zlib@media@modules@UModSys@@8 00000001800269b0     umodsys_lib_libmedia:umodsys.mod.media.zlib.obj
 0002:000089e0       ??_R1A@?0A@EA@RGenerator@zlib@media@modules@UModSys@@8 00000001800269e0     umodsys_lib_libmedia:umodsys.mod.media.zlib.obj
 0002:00008a08       ??_R3IClient@IBinArchiveFrame@libmedia@UModSys@@8 0000000180026a08     umodsys_lib_libmedia:umodsys.mod.media.zlib.obj
 0002:00008a20       ??_R2IClient@IBinArchiveFrame@libmedia@UModSys@@8 0000000180026a20     umodsys_lib_libmedia:umodsys.mod.media.zlib.obj
 0002:00008a40       ??_R1A@?0A@EA@IClient@IBinArchiveFrame@libmedia@UModSys@@8 0000000180026a40     umodsys_lib_libmedia:umodsys.mod.media.zlib.obj
 0002:00008a68       ??_R4RModuleLibraryReg_Chain@base@UModSys@@6B@ 0000000180026a68     umodsys_lib_base:umodsys.base.moduleregchain.obj
 0002:00008a90       ??_R3RModuleLibraryReg_Chain@base@UModSys@@8 0000000180026a90     umodsys_lib_base:umodsys.base.moduleregchain.obj
 0002:00008aa8       ??_R2RModuleLibraryReg_Chain@base@UModSys@@8 0000000180026aa8     umodsys_lib_base:umodsys.base.moduleregchain.obj
 0002:00008ac0       ??_R1A@?0A@EA@IModuleLibraryReg@base@UModSys@@8 0000000180026ac0     umodsys_lib_base:umodsys.base.moduleregchain.obj
 0002:00008ae8       ??_R3IModuleLibraryReg@base@UModSys@@8 0000000180026ae8     umodsys_lib_base:umodsys.base.moduleregchain.obj
 0002:00008b00       ??_R2IModuleLibraryReg@base@UModSys@@8 0000000180026b00     umodsys_lib_base:umodsys.base.moduleregchain.obj
 0002:00008b10       ??_R1A@?0A@EA@RModuleLibraryReg_Chain@base@UModSys@@8 0000000180026b10     umodsys_lib_base:umodsys.base.moduleregchain.obj
 0002:00008b38       ??_R4IModuleLibraryReg@base@UModSys@@6B@ 0000000180026b38     umodsys_lib_base:umodsys.base.modulereg.obj
 0002:00008b60       ??_R4IModuleReg@base@UModSys@@6B@ 0000000180026b60     umodsys_lib_base:umodsys.base.modulereg.obj
 0002:00008b88       __rtc_iaa                  0000000180026b88     MSVCRT:_initsect_.obj
 0002:00008b90       __rtc_izz                  0000000180026b90     MSVCRT:_initsect_.obj
 0002:00008b98       __rtc_taa                  0000000180026b98     MSVCRT:_initsect_.obj
 0002:00008ba0       __rtc_tzz                  0000000180026ba0     MSVCRT:_initsect_.obj
 0002:0000b4c8       __IMPORT_DESCRIPTOR_MSVCR90 00000001800294c8     MSVCRT:MSVCR90.dll
 0002:0000b4dc       __IMPORT_DESCRIPTOR_lib_zlib 00000001800294dc     lib_zlib:lib_zlib.dll
 0002:0000b4f0       __IMPORT_DESCRIPTOR_lib_libpng 00000001800294f0     lib_libpng:lib_libpng.dll
 0002:0000b504       __IMPORT_DESCRIPTOR_lib_jpeglib 0000000180029504     lib_jpeglib:lib_jpeglib.dll
 0002:0000b518       __IMPORT_DESCRIPTOR_lib_SDL2 0000000180029518     lib_SDL2:lib_SDL2.dll
 0002:0000b52c       __IMPORT_DESCRIPTOR_KERNEL32 000000018002952c     kernel32:KERNEL32.dll
 0002:0000b540       __NULL_IMPORT_DESCRIPTOR   0000000180029540     MSVCRT:MSVCR90.dll
 0003:00000000       ??_R0?AVtype_info@@@8      000000018002b000     MSVCRT:ti_inst.obj
 0003:00000020       __native_dllmain_reason    000000018002b020     MSVCRT:natstart.obj
 0003:00000024       __native_vcclrit_reason    000000018002b024     MSVCRT:natstart.obj
 0003:00000028       __security_cookie          000000018002b028     MSVCRT:gs_cookie.obj
 0003:00000030       __security_cookie_complement 000000018002b030     MSVCRT:gs_cookie.obj
 0003:00000038       ??_R0?AUIModuleReg@base@UModSys@@@8 000000018002b038     plugin_test1.obj
 0003:00000068       ??_R0?AURModuleReg@test1@test@modules@UModSys@@@8 000000018002b068     plugin_test1.obj
 0003:000000a8       ??_R0?AURGenerator@test1@test@modules@UModSys@@@8 000000018002b0a8     plugin_test1.obj
 0003:000000e8       ??_R0?AURTest1_Shell@test1@test@modules@UModSys@@@8 000000018002b0e8     plugin_test1.obj
 0003:00000128       ??_R0?AUIController@libui@UModSys@@@8 000000018002b128     plugin_test1.obj
 0003:00000158       ??_R0?AUIControllerData@libui@UModSys@@@8 000000018002b158     plugin_test1.obj
 0003:00000190       ??_R0?AUIControllerCommand@libui@UModSys@@@8 000000018002b190     plugin_test1.obj
 0003:000001c8       ??_R0?AUIMouseClient@libui@UModSys@@@8 000000018002b1c8     plugin_test1.obj
 0003:00000200       ??_R0?AUIKeyboardClient@libui@UModSys@@@8 000000018002b200     plugin_test1.obj
 0003:00000238       ??_R0?AUIBinObjFilter@libmedia@UModSys@@@8 000000018002b238     plugin_test1.obj
 0003:00000270       ??_R0?AUIResolver@SFlags@libmedia@UModSys@@@8 000000018002b270     plugin_test1.obj
 0003:000002a8       ??_R0?AUIResolverAuto@SFlags@libmedia@UModSys@@@8 000000018002b2a8     plugin_test1.obj
 0003:000002e8       ??_R0?AUISetter@SFlags@libmedia@UModSys@@@8 000000018002b2e8     plugin_test1.obj
 0003:00000320       ??_R0?AUILibObject@libmedia@UModSys@@@8 000000018002b320     plugin_test1.obj
 0003:00000358       ??_R0?AUIShell@base@UModSys@@@8 000000018002b358     plugin_test1.obj
 0003:00000388       ??_R0?AUIGenerator@base@UModSys@@@8 000000018002b388     plugin_test1.obj
 0003:000003b8       ??_R0?AUIModObject@base@UModSys@@@8 000000018002b3b8     plugin_test1.obj
 0003:000003e8       ??_R0?AUIRefObject@core@UModSys@@@8 000000018002b3e8     plugin_test1.obj
 0003:00000418       ??_R0?AUIRoot@core@UModSys@@@8 000000018002b418     plugin_test1.obj
 0003:00000490       ?so_entry_enabled_flag@base@UModSys@@3HA 000000018002b490     umodsys_lib_base:umodsys.so_main.win32.obj
 0003:000004f8       ?s_dbg@test1@test@modules@UModSys@@3USDebug@base@4@A 000000018002b4f8     plugin_test1.obj
 0003:00000508       ?auto_flags@RLines_Filter@test1@test@modules@UModSys@@2U?$TFlags4State@USMediaFlagUid@libmedia@UModSys@@I@tl@5@A 000000018002b508     plugin_test1.obj
 0003:00000520       ?s_dbg@stdlib@lib2d@modules@UModSys@@3USDebug@base@4@A 000000018002b520     umodsys_lib_lib2d:umodsys.mod.2d.stdlib.obj
 0003:00000540       ?s_dbg@SDL_core@ui@modules@UModSys@@3USDebug@base@4@A 000000018002b540     umodsys_lib_libui:umodsys.mod.ui.SDL_core.obj
 0003:00000560       ?s_dbg@frames@ui@modules@UModSys@@3USDebug@base@4@A 000000018002b560     umodsys_lib_libui:umodsys.mod.ui.frames.obj
 0003:00000580       ?s_dbg@images_std@media@modules@UModSys@@3USDebug@base@4@A 000000018002b580     umodsys_lib_libmedia:umodsys.mod.media.images_std.obj
 0003:00000590       ?s_dbg@serialize_json@media@modules@UModSys@@3USDebug@base@4@A 000000018002b590     umodsys_lib_libmedia:umodsys.mod.media.serialize_json.obj
 0003:000005a0       ?s_dbg@zlib@media@modules@UModSys@@3USDebug@base@4@A 000000018002b5a0     umodsys_lib_libmedia:umodsys.mod.media.zlib.obj
 0003:000005b0       ?s_library@RModuleLibraryReg_Chain@base@UModSys@@2U123@A 000000018002b5b0     umodsys_lib_base:umodsys.base.moduleregchain.obj
 0003:000005b8       ??_R0?AURModuleReg@stdlib@lib2d@modules@UModSys@@@8 000000018002b5b8     umodsys_lib_lib2d:umodsys.mod.2d.stdlib.obj
 0003:000005f8       ??_R0?AURMultiImage@stdlib@lib2d@modules@UModSys@@@8 000000018002b5f8     umodsys_lib_lib2d:umodsys.mod.2d.stdlib.obj
 0003:00000640       ??_R0?AURImageFactory_Memory@stdlib@lib2d@modules@UModSys@@@8 000000018002b640     umodsys_lib_lib2d:umodsys.mod.2d.stdlib.obj
 0003:00000690       ??_R0?AURImage_Memory@stdlib@lib2d@modules@UModSys@@@8 000000018002b690     umodsys_lib_lib2d:umodsys.mod.2d.stdlib.obj
 0003:000006d8       ??_R0?AURGenerator@stdlib@lib2d@modules@UModSys@@@8 000000018002b6d8     umodsys_lib_lib2d:umodsys.mod.2d.stdlib.obj
 0003:00000718       ??_R0?AUIMultiImage@lib2d@UModSys@@@8 000000018002b718     umodsys_lib_lib2d:umodsys.mod.2d.stdlib.obj
 0003:00000748       ??_R0?AUIImageFactory@lib2d@UModSys@@@8 000000018002b748     umodsys_lib_lib2d:umodsys.mod.2d.stdlib.obj
 0003:00000780       ??_R0?AUIImage@lib2d@UModSys@@@8 000000018002b780     umodsys_lib_lib2d:umodsys.mod.2d.stdlib.obj
 0003:000007b0       ??_R0?AURModuleReg@SDL_core@ui@modules@UModSys@@@8 000000018002b7b0     umodsys_lib_libui:umodsys.mod.ui.SDL_core.obj
 0003:000007f0       ??_R0?AURKeyboardController@SDL_core@ui@modules@UModSys@@@8 000000018002b7f0     umodsys_lib_libui:umodsys.mod.ui.SDL_core.obj
 0003:00000840       ??_R0?AURMouseController@SDL_core@ui@modules@UModSys@@@8 000000018002b840     umodsys_lib_libui:umodsys.mod.ui.SDL_core.obj
 0003:00000890       ??_R0?AURMultiImage2D_SDL_ttf@SDL_core@ui@modules@UModSys@@@8 000000018002b890     umodsys_lib_libui:umodsys.mod.ui.SDL_core.obj
 0003:000008e0       ??_R0?AURRenderDriver2D@SDL_core@ui@modules@UModSys@@@8 000000018002b8e0     umodsys_lib_libui:umodsys.mod.ui.SDL_core.obj
 0003:00000928       ??_R0?AURTerminal@SDL_core@ui@modules@UModSys@@@8 000000018002b928     umodsys_lib_libui:umodsys.mod.ui.SDL_core.obj
 0003:00000968       ??_R0?AURGenerator@SDL_core@ui@modules@UModSys@@@8 000000018002b968     umodsys_lib_libui:umodsys.mod.ui.SDL_core.obj
 0003:000009a8       ??_R0?AUIMouseController@libui@UModSys@@@8 000000018002b9a8     umodsys_lib_libui:umodsys.mod.ui.SDL_core.obj
 0003:000009e0       ??_R0?AUIKeyboardController@libui@UModSys@@@8 000000018002b9e0     umodsys_lib_libui:umodsys.mod.ui.SDL_core.obj
 0003:00000a18       ??_R0?AUITerminal@libui@UModSys@@@8 000000018002ba18     umodsys_lib_libui:umodsys.mod.ui.SDL_core.obj
 0003:00000a48       ??_R0?AUIRenderDriver@lib2d@UModSys@@@8 000000018002ba48     umodsys_lib_libui:umodsys.mod.ui.SDL_core.obj
 0003:00000a80       ??_R0?AURModuleReg@frames@ui@modules@UModSys@@@8 000000018002ba80     umodsys_lib_libui:umodsys.mod.ui.frames.obj
 0003:00000ac0       ??_R0?AURFrame_List@frames@ui@modules@UModSys@@@8 000000018002bac0     umodsys_lib_libui:umodsys.mod.ui.frames.obj
 0003:00000b00       ??_R0?AURFrame_Edit@frames@ui@modules@UModSys@@@8 000000018002bb00     umodsys_lib_libui:umodsys.mod.ui.frames.obj
 0003:00000b40       ??_R0?AURFrame_Button@frames@ui@modules@UModSys@@@8 000000018002bb40     umodsys_lib_libui:umodsys.mod.ui.frames.obj
 0003:00000b80       ??_R0?AURFrame_Text@frames@ui@modules@UModSys@@@8 000000018002bb80     umodsys_lib_libui:umodsys.mod.ui.frames.obj
 0003:00000bc0       ??_R0?AURFrame_Image@frames@ui@modules@UModSys@@@8 000000018002bbc0     umodsys_lib_libui:umodsys.mod.ui.frames.obj
 0003:00000c00       ??_R0?AURFrame_Frame@frames@ui@modules@UModSys@@@8 000000018002bc00     umodsys_lib_libui:umodsys.mod.ui.frames.obj
 0003:00000c40       ??_R0?AURCollectorTheme@frames@ui@modules@UModSys@@@8 000000018002bc40     umodsys_lib_libui:umodsys.mod.ui.frames.obj
 0003:00000c80       ??_R0?AURFrame_Common@frames@ui@modules@UModSys@@@8 000000018002bc80     umodsys_lib_libui:umodsys.mod.ui.frames.obj
 0003:00000cc0       ??_R0?AURDialog@frames@ui@modules@UModSys@@@8 000000018002bcc0     umodsys_lib_libui:umodsys.mod.ui.frames.obj
 0003:00000cf8       ??_R0?AURCollector@frames@ui@modules@UModSys@@@8 000000018002bcf8     umodsys_lib_libui:umodsys.mod.ui.frames.obj
 0003:00000d38       ??_R0?AURGenerator@frames@ui@modules@UModSys@@@8 000000018002bd38     umodsys_lib_libui:umodsys.mod.ui.frames.obj
 0003:00000d78       ??_R0?AUICollectorThemeTemplate@libui@UModSys@@@8 000000018002bd78     umodsys_lib_libui:umodsys.mod.ui.frames.obj
 0003:00000db8       ??_R0?AUIFrameList@libui@UModSys@@@8 000000018002bdb8     umodsys_lib_libui:umodsys.mod.ui.frames.obj
 0003:00000de8       ??_R0?AUIFrameData@libui@UModSys@@@8 000000018002bde8     umodsys_lib_libui:umodsys.mod.ui.frames.obj
 0003:00000e18       ??_R0?AUIDialog@libui@UModSys@@@8 000000018002be18     umodsys_lib_libui:umodsys.mod.ui.frames.obj
 0003:00000e48       ??_R0?AUIFrame@libui@UModSys@@@8 000000018002be48     umodsys_lib_libui:umodsys.mod.ui.frames.obj
 0003:00000e78       ??_R0?AUICollectorTheme@libui@UModSys@@@8 000000018002be78     umodsys_lib_libui:umodsys.mod.ui.frames.obj
 0003:00000eb0       ??_R0?AUICollectorThemeTree@libui@UModSys@@@8 000000018002beb0     umodsys_lib_libui:umodsys.mod.ui.frames.obj
 0003:00000ee8       ??_R0?AUICollector@libui@UModSys@@@8 000000018002bee8     umodsys_lib_libui:umodsys.mod.ui.frames.obj
 0003:00000f20       ??_R0?AURModuleReg@images_std@media@modules@UModSys@@@8 000000018002bf20     umodsys_lib_libmedia:umodsys.mod.media.images_std.obj
 0003:00000f70       ??_R0?AURMediaFilter@images_std@media@modules@UModSys@@@8 000000018002bf70     umodsys_lib_libmedia:umodsys.mod.media.images_std.obj
 0003:00000fc0       ??_R0?AURGenerator@images_std@media@modules@UModSys@@@8 000000018002bfc0     umodsys_lib_libmedia:umodsys.mod.media.images_std.obj
 0003:00001010       ??_R0?AURModuleReg@serialize_json@media@modules@UModSys@@@8 000000018002c010     umodsys_lib_libmedia:umodsys.mod.media.serialize_json.obj
 0003:00001060       ??_R0?AURSerializeWriter@serialize_json@media@modules@UModSys@@@8 000000018002c060     umodsys_lib_libmedia:umodsys.mod.media.serialize_json.obj
 0003:000010b0       ??_R0?AURSerializeReader@serialize_json@media@modules@UModSys@@@8 000000018002c0b0     umodsys_lib_libmedia:umodsys.mod.media.serialize_json.obj
 0003:00001100       ??_R0?AURGenerator@serialize_json@media@modules@UModSys@@@8 000000018002c100     umodsys_lib_libmedia:umodsys.mod.media.serialize_json.obj
 0003:00001148       ??_R0?AUISerializeParser@libmedia@UModSys@@@8 000000018002c148     umodsys_lib_libmedia:umodsys.mod.media.serialize_json.obj
 0003:00001180       ??_R0?AUISerializeWriter@libmedia@UModSys@@@8 000000018002c180     umodsys_lib_libmedia:umodsys.mod.media.serialize_json.obj
 0003:000011b8       ??_R0?AUISerializeReader@libmedia@UModSys@@@8 000000018002c1b8     umodsys_lib_libmedia:umodsys.mod.media.serialize_json.obj
 0003:000011f0       ??_R0?AURModuleReg@zlib@media@modules@UModSys@@@8 000000018002c1f0     umodsys_lib_libmedia:umodsys.mod.media.zlib.obj
 0003:00001230       ??_R0?AURBinArchiveFrameClient_ZIP@zlib@media@modules@UModSys@@@8 000000018002c230     umodsys_lib_libmedia:umodsys.mod.media.zlib.obj
 0003:00001280       ??_R0?AURGenerator@zlib@media@modules@UModSys@@@8 000000018002c280     umodsys_lib_libmedia:umodsys.mod.media.zlib.obj
 0003:000012c0       ??_R0?AUIClient@IBinArchiveFrame@libmedia@UModSys@@@8 000000018002c2c0     umodsys_lib_libmedia:umodsys.mod.media.zlib.obj
 0003:00001300       ??_R0?AUIModuleLibraryReg@base@UModSys@@@8 000000018002c300     umodsys_lib_base:umodsys.base.moduleregchain.obj
 0003:00001338       ??_R0?AURModuleLibraryReg_Chain@base@UModSys@@@8 000000018002c338     umodsys_lib_base:umodsys.base.moduleregchain.obj
 0003:00001374       _fltused                   000000018002c374     MSVCRT:dllsupp.obj
 0003:00001384       _forceCRTManifestRTM       000000018002c384     MSVCRT:crtmanifestrtm.obj
 0003:00001388       ?__type_info_root_node@@3U__type_info_node@@A 000000018002c388     MSVCRT:tncleanup.obj
 0003:00001398       ??_B?1??get_null@?$TSCoreShared@USIMemAlloc@core@UModSys@@D@su@tl@UModSys@@SAPEAU?$TSharedStringInfo@DUSIMemAlloc@core@UModSys@@@234@XZ@51 000000018002c398     plugin_test1.obj
 0003:000013a0       ?s_null@?1??get_null@?$TSCoreShared@USIMemAlloc@core@UModSys@@D@su@tl@UModSys@@SAPEAU?$TSharedStringInfo@DUSIMemAlloc@core@UModSys@@@345@XZ@4U6345@A 000000018002c3a0     plugin_test1.obj
 0003:000013d0       ?s_escapes@serialize_json@media@modules@UModSys@@3PAY07DA 000000018002c3d0     umodsys_lib_libmedia:umodsys.mod.media.serialize_json.obj
 0003:00001bd0       ?fmodule@stdlib@lib2d@modules@UModSys@@3DA 000000018002cbd0     umodsys_lib_lib2d:umodsys.mod.2d.stdlib.obj
 0003:00001bd1       ?fmodule@SDL_core@ui@modules@UModSys@@3DA 000000018002cbd1     umodsys_lib_libui:umodsys.mod.ui.SDL_core.obj
 0003:00001bd2       ?fmodule@frames@ui@modules@UModSys@@3DA 000000018002cbd2     umodsys_lib_libui:umodsys.mod.ui.frames.obj
 0003:00001bd3       ?fmodule@images_std@media@modules@UModSys@@3DA 000000018002cbd3     umodsys_lib_libmedia:umodsys.mod.media.images_std.obj
 0003:00001bd4       ?fmodule@serialize_json@media@modules@UModSys@@3DA 000000018002cbd4     umodsys_lib_libmedia:umodsys.mod.media.serialize_json.obj
 0003:00001bd5       ?fmodule@zlib@media@modules@UModSys@@3DA 000000018002cbd5     umodsys_lib_libmedia:umodsys.mod.media.zlib.obj
 0003:00001bd8       ?null_time@core@UModSys@@3_JA 000000018002cbd8     umodsys_lib_core:umodsys.core.stdtypedefs.obj
 0003:00001be0       ?s_modreg@RModuleReg@test1@test@modules@UModSys@@2U12345@A 000000018002cbe0     plugin_test1.obj
 0003:00001c48       ?s_modreg_chain@RModuleReg@test1@test@modules@UModSys@@2USModuleRegChain@base@5@A 000000018002cc48     plugin_test1.obj
 0003:00001c60       ?s_uid@RGenerator@test1@test@modules@UModSys@@2USUniquePointer@core@5@A 000000018002cc60     plugin_test1.obj
 0003:00001c90       ?s_modreg_chain@RModuleReg@stdlib@lib2d@modules@UModSys@@2USModuleRegChain@base@5@A 000000018002cc90     umodsys_lib_lib2d:umodsys.mod.2d.stdlib.obj
 0003:00001cb0       ?s_modreg@RModuleReg@stdlib@lib2d@modules@UModSys@@2U12345@A 000000018002ccb0     umodsys_lib_lib2d:umodsys.mod.2d.stdlib.obj
 0003:00001d18       ?s_uid@RGenerator@stdlib@lib2d@modules@UModSys@@2USUniquePointer@core@5@A 000000018002cd18     umodsys_lib_lib2d:umodsys.mod.2d.stdlib.obj
 0003:00001d48       ?s_modreg_chain@RModuleReg@SDL_core@ui@modules@UModSys@@2USModuleRegChain@base@5@A 000000018002cd48     umodsys_lib_libui:umodsys.mod.ui.SDL_core.obj
 0003:00001d60       ?s_modreg@RModuleReg@SDL_core@ui@modules@UModSys@@2U12345@A 000000018002cd60     umodsys_lib_libui:umodsys.mod.ui.SDL_core.obj
 0003:00001dc8       ?s_uid@RGenerator@SDL_core@ui@modules@UModSys@@2USUniquePointer@core@5@A 000000018002cdc8     umodsys_lib_libui:umodsys.mod.ui.SDL_core.obj
 0003:00001df8       ?s_uid@RGenerator@frames@ui@modules@UModSys@@2USUniquePointer@core@5@A 000000018002cdf8     umodsys_lib_libui:umodsys.mod.ui.frames.obj
 0003:00001e28       ?s_modreg_chain@RModuleReg@frames@ui@modules@UModSys@@2USModuleRegChain@base@5@A 000000018002ce28     umodsys_lib_libui:umodsys.mod.ui.frames.obj
 0003:00001e40       ?s_modreg@RModuleReg@frames@ui@modules@UModSys@@2U12345@A 000000018002ce40     umodsys_lib_libui:umodsys.mod.ui.frames.obj
 0003:00001ea8       ?auto_flags@RMediaFilter@images_std@media@modules@UModSys@@1U?$TFlags4State@USMediaFlagUid@libmedia@UModSys@@I@tl@5@A 000000018002cea8     umodsys_lib_libmedia:umodsys.mod.media.images_std.obj
 0003:00001eb0       ?s_uid@RGenerator@images_std@media@modules@UModSys@@2USUniquePointer@core@5@A 000000018002ceb0     umodsys_lib_libmedia:umodsys.mod.media.images_std.obj
 0003:00001ee0       ?s_modreg@RModuleReg@images_std@media@modules@UModSys@@2U12345@A 000000018002cee0     umodsys_lib_libmedia:umodsys.mod.media.images_std.obj
 0003:00001f48       ?s_modreg_chain@RModuleReg@images_std@media@modules@UModSys@@2USModuleRegChain@base@5@A 000000018002cf48     umodsys_lib_libmedia:umodsys.mod.media.images_std.obj
 0003:00001f60       ?s_modreg_chain@RModuleReg@serialize_json@media@modules@UModSys@@2USModuleRegChain@base@5@A 000000018002cf60     umodsys_lib_libmedia:umodsys.mod.media.serialize_json.obj
 0003:00001f78       ?s_uid@RGenerator@serialize_json@media@modules@UModSys@@2USUniquePointer@core@5@A 000000018002cf78     umodsys_lib_libmedia:umodsys.mod.media.serialize_json.obj
 0003:00001fb0       ?s_modreg@RModuleReg@serialize_json@media@modules@UModSys@@2U12345@A 000000018002cfb0     umodsys_lib_libmedia:umodsys.mod.media.serialize_json.obj
 0003:00002018       ?s_modreg_chain@RModuleReg@zlib@media@modules@UModSys@@2USModuleRegChain@base@5@A 000000018002d018     umodsys_lib_libmedia:umodsys.mod.media.zlib.obj
 0003:00002030       ?s_modreg@RModuleReg@zlib@media@modules@UModSys@@2U12345@A 000000018002d030     umodsys_lib_libmedia:umodsys.mod.media.zlib.obj
 0003:00002098       ?s_uid@RGenerator@zlib@media@modules@UModSys@@2USUniquePointer@core@5@A 000000018002d098     umodsys_lib_libmedia:umodsys.mod.media.zlib.obj
 0003:000020c8       ?M@UModSys@@3USModuleContext@base@1@A 000000018002d0c8     umodsys_lib_base:umodsys.base.modulecontext.obj
 0003:000020f0       ?root@SModuleRegChain@base@UModSys@@2U123@A 000000018002d0f0     umodsys_lib_base:umodsys.base.moduleregchain.obj
 0003:00002108       ?root@SUniquePointer@core@UModSys@@2U123@A 000000018002d108     umodsys_lib_core:umodsys.core.uniqueptr.obj
 0003:000022e0       ?s_id@?$TObjectUniqueID@UIUtilities@libmedia@UModSys@@@tl@UModSys@@2USUniquePointer@core@3@A 000000018002d2e0     plugin_test1.obj
 0003:00002310       ?s_id@?$TObjectUniqueID@UIBinObjFilter@libmedia@UModSys@@@tl@UModSys@@2USUniquePointer@core@3@A 000000018002d310     plugin_test1.obj
 0003:00002340       ?s_id@?$TObjectUniqueID@UIAsyncController@libui@UModSys@@@tl@UModSys@@2USUniquePointer@core@3@A 000000018002d340     plugin_test1.obj
 0003:00002370       ?s_id@?$TObjectUniqueID@UICollector@libui@UModSys@@@tl@UModSys@@2USUniquePointer@core@3@A 000000018002d370     plugin_test1.obj
 0003:000023a0       ?s_id@?$TObjectUniqueID@UIMouseController@libui@UModSys@@@tl@UModSys@@2USUniquePointer@core@3@A 000000018002d3a0     plugin_test1.obj
 0003:000023d0       ?s_id@?$TObjectUniqueID@UILibraryBinTree@libmedia@UModSys@@@tl@UModSys@@2USUniquePointer@core@3@A 000000018002d3d0     plugin_test1.obj
 0003:00002400       ?s_id@?$TObjectUniqueID@UIModObject@base@UModSys@@@tl@UModSys@@2USUniquePointer@core@3@A 000000018002d400     plugin_test1.obj
 0003:00002430       ?s_id@?$TObjectUniqueID@UIConsoleHelperOutputFCS@base@UModSys@@@tl@UModSys@@2USUniquePointer@core@3@A 000000018002d430     plugin_test1.obj
 0003:00002460       ?s_id@?$TObjectUniqueID@UILibObject@libmedia@UModSys@@@tl@UModSys@@2USUniquePointer@core@3@A 000000018002d460     plugin_test1.obj
 0003:00002490       ?s_id@?$TObjectUniqueID@UILines@test1@test@modules@UModSys@@@tl@UModSys@@2USUniquePointer@core@3@A 000000018002d490     plugin_test1.obj
 0003:000024c0       ?s_id@?$TObjectUniqueID@UIMultiImage@lib2d@UModSys@@@tl@UModSys@@2USUniquePointer@core@3@A 000000018002d4c0     plugin_test1.obj
 0003:000024f0       ?s_id@?$TObjectUniqueID@URLines_Filter@test1@test@modules@UModSys@@@tl@UModSys@@2USUniquePointer@core@3@A 000000018002d4f0     plugin_test1.obj
 0003:00002520       ?s_id@?$TObjectUniqueID@UIConsoleHelper@base@UModSys@@@tl@UModSys@@2USUniquePointer@core@3@A 000000018002d520     plugin_test1.obj
 0003:00002550       ?s_id@?$TObjectUniqueID@UIGenerator@base@UModSys@@@tl@UModSys@@2USUniquePointer@core@3@A 000000018002d550     plugin_test1.obj
 0003:00002580       ?s_id@?$TObjectUniqueID@UIModule@base@UModSys@@@tl@UModSys@@2USUniquePointer@core@3@A 000000018002d580     plugin_test1.obj
 0003:000025b0       ?s_id@?$TObjectUniqueID@UITerminal@libui@UModSys@@@tl@UModSys@@2USUniquePointer@core@3@A 000000018002d5b0     plugin_test1.obj
 0003:000025e0       ?s_id@?$TObjectUniqueID@UIJoystickController@libui@UModSys@@@tl@UModSys@@2USUniquePointer@core@3@A 000000018002d5e0     plugin_test1.obj
 0003:00002610       ?s_id@?$TObjectUniqueID@UIBinArchiveFrame@libmedia@UModSys@@@tl@UModSys@@2USUniquePointer@core@3@A 000000018002d610     plugin_test1.obj
 0003:00002640       ?s_id@?$TObjectUniqueID@UIDialog@libui@UModSys@@@tl@UModSys@@2USUniquePointer@core@3@A 000000018002d640     plugin_test1.obj
 0003:00002670       ?s_id@?$TObjectUniqueID@UIRenderDriver@lib2d@UModSys@@@tl@UModSys@@2USUniquePointer@core@3@A 000000018002d670     plugin_test1.obj
 0003:000026a0       ?s_id@?$TObjectUniqueID@UIBinArchive@libmedia@UModSys@@@tl@UModSys@@2USUniquePointer@core@3@A 000000018002d6a0     plugin_test1.obj
 0003:000026d0       ?s_id@?$TObjectUniqueID@UIRoot@core@UModSys@@@tl@UModSys@@2USUniquePointer@core@3@A 000000018002d6d0     plugin_test1.obj
 0003:00002700       ?s_id@?$TObjectUniqueID@UILibraryObjCache@libmedia@UModSys@@@tl@UModSys@@2USUniquePointer@core@3@A 000000018002d700     plugin_test1.obj
 0003:00002730       ?s_id@?$TObjectUniqueID@UIStreamWriter@libmedia@UModSys@@@tl@UModSys@@2USUniquePointer@core@3@A 000000018002d730     plugin_test1.obj
 0003:00002760       ?s_id@?$TObjectUniqueID@UISystem@base@UModSys@@@tl@UModSys@@2USUniquePointer@core@3@A 000000018002d760     plugin_test1.obj
 0003:00002790       ?s_id@?$TObjectUniqueID@URTest1_Shell@test1@test@modules@UModSys@@@tl@UModSys@@2USUniquePointer@core@3@A 000000018002d790     plugin_test1.obj
 0003:000027c0       ?s_id@?$TObjectUniqueID@UIRefObject@core@UModSys@@@tl@UModSys@@2USUniquePointer@core@3@A 000000018002d7c0     plugin_test1.obj
 0003:000027f0       ?s_id@?$TObjectUniqueID@UILibraryLayered@libmedia@UModSys@@@tl@UModSys@@2USUniquePointer@core@3@A 000000018002d7f0     plugin_test1.obj
 0003:00002820       ?s_id@?$TObjectUniqueID@UIShell@base@UModSys@@@tl@UModSys@@2USUniquePointer@core@3@A 000000018002d820     plugin_test1.obj
 0003:00002850       ?s_id@?$TObjectUniqueID@URLines@test1@test@modules@UModSys@@@tl@UModSys@@2USUniquePointer@core@3@A 000000018002d850     plugin_test1.obj
 0003:00002880       ?s_id@?$TObjectUniqueID@UISerializeReader@libmedia@UModSys@@@tl@UModSys@@2USUniquePointer@core@3@A 000000018002d880     plugin_test1.obj
 0003:000028b0       ?s_id@?$TObjectUniqueID@UILibraryBinCache@libmedia@UModSys@@@tl@UModSys@@2USUniquePointer@core@3@A 000000018002d8b0     plugin_test1.obj
 0003:000028e0       ?s_id@?$TObjectUniqueID@UIConsole@base@UModSys@@@tl@UModSys@@2USUniquePointer@core@3@A 000000018002d8e0     plugin_test1.obj
 0003:00002910       ?s_id@?$TObjectUniqueID@UIFrame@libui@UModSys@@@tl@UModSys@@2USUniquePointer@core@3@A 000000018002d910     plugin_test1.obj
 0003:00002940       ?s_id@?$TObjectUniqueID@URGenerator@test1@test@modules@UModSys@@@tl@UModSys@@2USUniquePointer@core@3@A 000000018002d940     plugin_test1.obj
 0003:00002970       ?s_id@?$TObjectUniqueID@UIImageFactory@lib2d@UModSys@@@tl@UModSys@@2USUniquePointer@core@3@A 000000018002d970     plugin_test1.obj
 0003:000029a0       ?s_id@?$TObjectUniqueID@UIConsoleHelperInput_UIKey@libui@UModSys@@@tl@UModSys@@2USUniquePointer@core@3@A 000000018002d9a0     plugin_test1.obj
 0003:000029d0       ?s_id@?$TObjectUniqueID@UIConsoleHelperHistory@base@UModSys@@@tl@UModSys@@2USUniquePointer@core@3@A 000000018002d9d0     plugin_test1.obj
 0003:00002a00       ?s_id@?$TObjectUniqueID@UIModuleLibrary@base@UModSys@@@tl@UModSys@@2USUniquePointer@core@3@A 000000018002da00     plugin_test1.obj
 0003:00002a30       ?s_id@?$TObjectUniqueID@UILibraryObjFilter@libmedia@UModSys@@@tl@UModSys@@2USUniquePointer@core@3@A 000000018002da30     plugin_test1.obj
 0003:00002a60       ?s_id@?$TObjectUniqueID@UILibrary@libmedia@UModSys@@@tl@UModSys@@2USUniquePointer@core@3@A 000000018002da60     plugin_test1.obj
 0003:00002a90       ?s_id@?$TObjectUniqueID@UIClient@IBinArchiveFrame@libmedia@UModSys@@@tl@UModSys@@2USUniquePointer@core@3@A 000000018002da90     plugin_test1.obj
 0003:00002ac0       ?s_id@?$TObjectUniqueID@UIImage@lib2d@UModSys@@@tl@UModSys@@2USUniquePointer@core@3@A 000000018002dac0     plugin_test1.obj
 0003:00002af0       ?s_id@?$TObjectUniqueID@UIKeyboardController@libui@UModSys@@@tl@UModSys@@2USUniquePointer@core@3@A 000000018002daf0     plugin_test1.obj
 0003:00002b20       ?s_id@?$TObjectUniqueID@UIStreamReader@libmedia@UModSys@@@tl@UModSys@@2USUniquePointer@core@3@A 000000018002db20     plugin_test1.obj
 0003:00002b50       ?s_id@?$TObjectUniqueID@UIParameters@core@UModSys@@@tl@UModSys@@2USUniquePointer@core@3@A 000000018002db50     plugin_test1.obj
 0003:00002b80       ?s_id@?$TObjectUniqueID@UIConsoleHelperOutput@base@UModSys@@@tl@UModSys@@2USUniquePointer@core@3@A 000000018002db80     plugin_test1.obj
 0003:00002bb0       ?s_id@?$TObjectUniqueID@UIConsoleExt@base@UModSys@@@tl@UModSys@@2USUniquePointer@core@3@A 000000018002dbb0     plugin_test1.obj
 0003:00002be0       ?s_id@?$TObjectUniqueID@UIConsoleHelperInput@base@UModSys@@@tl@UModSys@@2USUniquePointer@core@3@A 000000018002dbe0     plugin_test1.obj
 0003:00002c10       ?s_id@?$TObjectUniqueID@UIAsyncCollector@libui@UModSys@@@tl@UModSys@@2USUniquePointer@core@3@A 000000018002dc10     plugin_test1.obj
 0003:00002c40       ?s_id@?$TObjectUniqueID@UISerializeWriter@libmedia@UModSys@@@tl@UModSys@@2USUniquePointer@core@3@A 000000018002dc40     plugin_test1.obj
 0003:00002c70       ?s_id@?$TObjectUniqueID@URGenerator@stdlib@lib2d@modules@UModSys@@@tl@UModSys@@2USUniquePointer@core@3@A 000000018002dc70     umodsys_lib_lib2d:umodsys.mod.2d.stdlib.obj
 0003:00002ca0       ?s_id@?$TObjectUniqueID@URImage_Memory@stdlib@lib2d@modules@UModSys@@@tl@UModSys@@2USUniquePointer@core@3@A 000000018002dca0     umodsys_lib_lib2d:umodsys.mod.2d.stdlib.obj
 0003:00002cd0       ?s_id@?$TObjectUniqueID@URMultiImage@stdlib@lib2d@modules@UModSys@@@tl@UModSys@@2USUniquePointer@core@3@A 000000018002dcd0     umodsys_lib_lib2d:umodsys.mod.2d.stdlib.obj
 0003:00002d00       ?s_id@?$TObjectUniqueID@URImageFactory_Memory@stdlib@lib2d@modules@UModSys@@@tl@UModSys@@2USUniquePointer@core@3@A 000000018002dd00     umodsys_lib_lib2d:umodsys.mod.2d.stdlib.obj
 0003:00002d30       ?s_id@?$TObjectUniqueID@URKeyboardController@SDL_core@ui@modules@UModSys@@@tl@UModSys@@2USUniquePointer@core@3@A 000000018002dd30     umodsys_lib_libui:umodsys.mod.ui.SDL_core.obj
 0003:00002d60       ?s_id@?$TObjectUniqueID@URMouseController@SDL_core@ui@modules@UModSys@@@tl@UModSys@@2USUniquePointer@core@3@A 000000018002dd60     umodsys_lib_libui:umodsys.mod.ui.SDL_core.obj
 0003:00002d90       ?s_id@?$TObjectUniqueID@URGenerator@SDL_core@ui@modules@UModSys@@@tl@UModSys@@2USUniquePointer@core@3@A 000000018002dd90     umodsys_lib_libui:umodsys.mod.ui.SDL_core.obj
 0003:00002dc0       ?s_id@?$TObjectUniqueID@URTerminal@SDL_core@ui@modules@UModSys@@@tl@UModSys@@2USUniquePointer@core@3@A 000000018002ddc0     umodsys_lib_libui:umodsys.mod.ui.SDL_core.obj
 0003:00002df0       ?s_id@?$TObjectUniqueID@URRenderDriver2D@SDL_core@ui@modules@UModSys@@@tl@UModSys@@2USUniquePointer@core@3@A 000000018002ddf0     umodsys_lib_libui:umodsys.mod.ui.SDL_core.obj
 0003:00002e20       ?s_id@?$TObjectUniqueID@URMultiImage2D_SDL_ttf@SDL_core@ui@modules@UModSys@@@tl@UModSys@@2USUniquePointer@core@3@A 000000018002de20     umodsys_lib_libui:umodsys.mod.ui.SDL_core.obj
 0003:00002e50       ?s_id@?$TObjectUniqueID@URFrame_Button@frames@ui@modules@UModSys@@@tl@UModSys@@2USUniquePointer@core@3@A 000000018002de50     umodsys_lib_libui:umodsys.mod.ui.frames.obj
 0003:00002e80       ?s_id@?$TObjectUniqueID@URFrame_Edit@frames@ui@modules@UModSys@@@tl@UModSys@@2USUniquePointer@core@3@A 000000018002de80     umodsys_lib_libui:umodsys.mod.ui.frames.obj
 0003:00002eb0       ?s_id@?$TObjectUniqueID@URFrame_Text@frames@ui@modules@UModSys@@@tl@UModSys@@2USUniquePointer@core@3@A 000000018002deb0     umodsys_lib_libui:umodsys.mod.ui.frames.obj
 0003:00002ee0       ?s_id@?$TObjectUniqueID@URFrame_List@frames@ui@modules@UModSys@@@tl@UModSys@@2USUniquePointer@core@3@A 000000018002dee0     umodsys_lib_libui:umodsys.mod.ui.frames.obj
 0003:00002f10       ?s_id@?$TObjectUniqueID@URFrame_Image@frames@ui@modules@UModSys@@@tl@UModSys@@2USUniquePointer@core@3@A 000000018002df10     umodsys_lib_libui:umodsys.mod.ui.frames.obj
 0003:00002f40       ?s_id@?$TObjectUniqueID@URFrame_Common@frames@ui@modules@UModSys@@@tl@UModSys@@2USUniquePointer@core@3@A 000000018002df40     umodsys_lib_libui:umodsys.mod.ui.frames.obj
 0003:00002f70       ?s_id@?$TObjectUniqueID@URCollector@frames@ui@modules@UModSys@@@tl@UModSys@@2USUniquePointer@core@3@A 000000018002df70     umodsys_lib_libui:umodsys.mod.ui.frames.obj
 0003:00002fa0       ?s_id@?$TObjectUniqueID@URFrame_Frame@frames@ui@modules@UModSys@@@tl@UModSys@@2USUniquePointer@core@3@A 000000018002dfa0     umodsys_lib_libui:umodsys.mod.ui.frames.obj
 0003:00002fd0       ?s_id@?$TObjectUniqueID@URGenerator@frames@ui@modules@UModSys@@@tl@UModSys@@2USUniquePointer@core@3@A 000000018002dfd0     umodsys_lib_libui:umodsys.mod.ui.frames.obj
 0003:00003000       ?s_id@?$TObjectUniqueID@URDialog@frames@ui@modules@UModSys@@@tl@UModSys@@2USUniquePointer@core@3@A 000000018002e000     umodsys_lib_libui:umodsys.mod.ui.frames.obj
 0003:00003030       ?s_id@?$TObjectUniqueID@URMediaFilter@images_std@media@modules@UModSys@@@tl@UModSys@@2USUniquePointer@core@3@A 000000018002e030     umodsys_lib_libmedia:umodsys.mod.media.images_std.obj
 0003:00003060       ?s_id@?$TObjectUniqueID@URGenerator@images_std@media@modules@UModSys@@@tl@UModSys@@2USUniquePointer@core@3@A 000000018002e060     umodsys_lib_libmedia:umodsys.mod.media.images_std.obj
 0003:00003090       ?s_id@?$TObjectUniqueID@URGenerator@serialize_json@media@modules@UModSys@@@tl@UModSys@@2USUniquePointer@core@3@A 000000018002e090     umodsys_lib_libmedia:umodsys.mod.media.serialize_json.obj
 0003:000030c0       ?s_id@?$TObjectUniqueID@URSerializeReader@serialize_json@media@modules@UModSys@@@tl@UModSys@@2USUniquePointer@core@3@A 000000018002e0c0     umodsys_lib_libmedia:umodsys.mod.media.serialize_json.obj
 0003:000030f0       ?s_id@?$TObjectUniqueID@URSerializeWriter@serialize_json@media@modules@UModSys@@@tl@UModSys@@2USUniquePointer@core@3@A 000000018002e0f0     umodsys_lib_libmedia:umodsys.mod.media.serialize_json.obj
 0003:00003120       ?s_id@?$TObjectUniqueID@URGenerator@zlib@media@modules@UModSys@@@tl@UModSys@@2USUniquePointer@core@3@A 000000018002e120     umodsys_lib_libmedia:umodsys.mod.media.zlib.obj
 0003:00003150       ?s_id@?$TObjectUniqueID@URBinArchiveFrameClient_ZIP@zlib@media@modules@UModSys@@@tl@UModSys@@2USUniquePointer@core@3@A 000000018002e150     umodsys_lib_libmedia:umodsys.mod.media.zlib.obj
 0003:00003180       __native_startup_state     000000018002e180     <common>
 0003:00003188       __native_startup_lock      000000018002e188     <common>
 0003:00003190       __dyn_tls_init_callback    000000018002e190     <common>
 0003:00003198       __onexitend                000000018002e198     <common>
 0003:000031a0       __onexitbegin              000000018002e1a0     <common>

 entry point at        0001:00019074

 Static symbols

 0001:00004e8c       ?init_source@images_std@media@modules@UModSys@@YAXPEAUjpeg_decompress_struct@@@Z 0000000180005e8c f i  CIL library: CIL module
 0001:00004e8c       ?term_source@images_std@media@modules@UModSys@@YAXPEAUjpeg_decompress_struct@@@Z 0000000180005e8c f i  CIL library: CIL module
 0001:000084e8       ?fill_input_buffer@images_std@media@modules@UModSys@@YAEPEAUjpeg_decompress_struct@@@Z 00000001800094e8 f i  CIL library: CIL module
 0001:000101bc       ?error_exit@images_std@media@modules@UModSys@@YAXPEAUjpeg_common_struct@@@Z 00000001800111bc f    CIL library: CIL module
 0001:000101f4       ?skip_input_data@images_std@media@modules@UModSys@@YAXPEAUjpeg_decompress_struct@@J@Z 00000001800111f4 f    CIL library: CIL module
 0001:00018c80       pre_c_init                 0000000180019c80 f   MSVCRT:crtdll.obj
 0001:00018f3c       __DllMainCRTStartup        0000000180019f3c f   MSVCRT:crtdll.obj
 0001:000195a0       _onexit$fin$0              000000018001a5a0 f   MSVCRT:atonexit.obj
 0001:000195b9       __DllMainCRTStartup$filt$0 000000018001a5b9 f   MSVCRT:crtdll.obj
 0001:000195e9       __DllMainCRTStartup$fin$1  000000018001a5e9 f   MSVCRT:crtdll.obj
 0001:00019602       ?filt$0@?0??__ArrayUnwind@@YAXPEAX_KHP6AX0@Z@Z@4HA 000000018001a602 f   MSVCRT:ehvecdtr.obj
 0001:00019641       ?fin$0@?0???_M@YAXPEAX_KHP6AX0@Z@Z@4HA 000000018001a641 f   MSVCRT:ehvecdtr.obj
 0001:00019670       _IsNonwritableInCurrentImage$filt$0 000000018001a670 f   MSVCRT:pesect.obj
 0001:00019691       ?dtor$0@?0???1ICollectorThemeTemplate@libui@UModSys@@QEAA@XZ@4HA 000000018001a691 f    CIL library: CIL module
 0001:000196b1       ?dtor$1@?0???1ICollectorThemeTemplate@libui@UModSys@@QEAA@XZ@4HA 000000018001a6b1 f    CIL library: CIL module
 0001:000196cd       ?dtor$0@?0???1SBuffer@libmedia@UModSys@@QEAA@XZ@4HA 000000018001a6cd f    CIL library: CIL module
 0001:000196e9       ?dtor$1@?0???1?$TTextStreamWriterBuf@D$0BAAA@@libmedia@UModSys@@QEAA@XZ@4HA 000000018001a6e9 f    CIL library: CIL module
 0001:00019705       ?dtor$0@?0??suicide@RFrame_Button@frames@ui@modules@UModSys@@UEAAXXZ@4HA 000000018001a705 f    CIL library: CIL module
 0001:00019705       ?dtor$0@?0??suicide@RFrame_List@frames@ui@modules@UModSys@@UEAAXXZ@4HA 000000018001a705 f    CIL library: CIL module
 0001:00019705       ?dtor$0@?0??suicide@RFrame_Image@frames@ui@modules@UModSys@@UEAAXXZ@4HA 000000018001a705 f    CIL library: CIL module
 0001:00019705       ?dtor$0@?0??suicide@RFrame_Frame@frames@ui@modules@UModSys@@UEAAXXZ@4HA 000000018001a705 f    CIL library: CIL module
 0001:00019705       ?dtor$0@?0??suicide@RDialog@frames@ui@modules@UModSys@@UEAAXXZ@4HA 000000018001a705 f    CIL library: CIL module
 0001:00019705       ?dtor$0@?0??dialog_close@RCollector@frames@ui@modules@UModSys@@UEAA_NXZ@4HA 000000018001a705 f    CIL library: CIL module
 0001:00019705       ?dtor$0@?0??suicide@RFrame_Text@frames@ui@modules@UModSys@@UEAAXXZ@4HA 000000018001a705 f    CIL library: CIL module
 0001:00019705       ?dtor$0@?0??suicide@RFrame_Edit@frames@ui@modules@UModSys@@UEAAXXZ@4HA 000000018001a705 f    CIL library: CIL module
 0001:00019705       ?dtor$0@?0??suicide@RMultiImage2D_SDL_ttf@SDL_core@ui@modules@UModSys@@UEAAXXZ@4HA 000000018001a705 f    CIL library: CIL module
 0001:00019705       ?dtor$0@?0??suicide@RRenderDriver2D@SDL_core@ui@modules@UModSys@@UEAAXXZ@4HA 000000018001a705 f    CIL library: CIL module
 0001:00019705       ?dtor$0@?0??suicide@RMouseController@SDL_core@ui@modules@UModSys@@UEAAXXZ@4HA 000000018001a705 f    CIL library: CIL module
 0001:00019705       ?dtor$0@?0??suicide@RKeyboardController@SDL_core@ui@modules@UModSys@@UEAAXXZ@4HA 000000018001a705 f    CIL library: CIL module
 0001:00019705       ?dtor$0@?0??dialog_close_all@RCollector@frames@ui@modules@UModSys@@UEAA_NXZ@4HA 000000018001a705 f    CIL library: CIL module
 0001:0001971d       ?dtor$0@?0???1?$TRefObjectComposite@UIKeyboardClient@libui@UModSys@@UIRefObject@core@3@U?$TRefObjectFunc@UIRefObject@core@UModSys@@@tl@3@@tl@UModSys@@QEAA@XZ@4HA 000000018001a71d f    CIL library: CIL module
 0001:0001971d       ?dtor$1@?0???1?$TPair@HU?$TRefObjectCompositeExtra@UIMouseClient@libui@UModSys@@HUIRefObject@core@3@U?$TRefObjectFunc@UIRefObject@core@UModSys@@@tl@3@@tl@UModSys@@@tl@UModSys@@QEAA@XZ@4HA 000000018001a71d f    CIL library: CIL module
 0001:0001971d       ?dtor$1@?0???1?$TPair@HU?$TRefObjectComposite@UIKeyboardClient@libui@UModSys@@UIRefObject@core@3@U?$TRefObjectFunc@UIRefObject@core@UModSys@@@tl@3@@tl@UModSys@@@tl@UModSys@@QEAA@XZ@4HA 000000018001a71d f    CIL library: CIL module
 0001:0001971d       ?dtor$0@?0???1?$TRefObjectCompositeExtra@UIMouseClient@libui@UModSys@@HUIRefObject@core@3@U?$TRefObjectFunc@UIRefObject@core@UModSys@@@tl@3@@tl@UModSys@@QEAA@XZ@4HA 000000018001a71d f    CIL library: CIL module
 0001:0001971d       ?dtor$1@?0???1SController@libui@UModSys@@QEAA@XZ@4HA 000000018001a71d f    CIL library: CIL module
 0001:00019735       ?dtor$2@?0??delete_node@?$TTreeHoldRBD@U?$TScatterArrayNode@U?$TRefObjectComposite@UIKeyboardClient@libui@UModSys@@UIRefObject@core@3@U?$TRefObjectFunc@UIRefObject@core@UModSys@@@tl@3@@tl@UModSys@@H@tl@UModSys@@U?$TNodeDeleter0@U?$TScatterArrayNode@U?$TRefObjectComposite@UIKeyboardClient@libui@UModSys@@UIRefObject@core@3@U?$TRefObjectFunc@UIRefObject@core@UModSys@@@tl@3@@tl@UModSys@@H@tl@UModSys@@@23@@tl@UModSys@@QEAAXPEAU?$TScatterArrayNode@U?$TRefObjectComposite@UIKeyboardClient@libui@UModSys@@UIRefObject@core@3@U?$TRefObjectFunc@UIRefObject@core@UModSys@@@tl@3@@tl@UModSys@@H@23@@Z@4HA 000000018001a735 f    CIL library: CIL module
 0001:00019735       ?dtor$2@?0??delete_node@?$TTreeHoldRBD@U?$TScatterArrayNode@U?$TRefObjectCompositeExtra@UIMouseClient@libui@UModSys@@HUIRefObject@core@3@U?$TRefObjectFunc@UIRefObject@core@UModSys@@@tl@3@@tl@UModSys@@H@tl@UModSys@@U?$TNodeDeleter0@U?$TScatterArrayNode@U?$TRefObjectCompositeExtra@UIMouseClient@libui@UModSys@@HUIRefObject@core@3@U?$TRefObjectFunc@UIRefObject@core@UModSys@@@tl@3@@tl@UModSys@@H@tl@UModSys@@@23@@tl@UModSys@@QEAAXPEAU?$TScatterArrayNode@U?$TRefObjectCompositeExtra@UIMouseClient@libui@UModSys@@HUIRefObject@core@3@U?$TRefObjectFunc@UIRefObject@core@UModSys@@@tl@3@@tl@UModSys@@H@23@@Z@4HA 000000018001a735 f    CIL library: CIL module
 0001:0001974d       ?dtor$0@?0???$ValidateConstruction@UIImage@lib2d@UModSys@@URImage_Memory@stdlib@2modules@3@@core@UModSys@@YA_NAEAU?$TRefObject@UIImage@lib2d@UModSys@@U?$TRefObjectFunc@UIImage@lib2d@UModSys@@@tl@3@@tl@1@PEAURImage_Memory@stdlib@lib2d@modules@1@@Z@4HA 000000018001a74d f    CIL library: CIL module
 0001:00019765       ?dtor$0@?0??suicide@RTest1_Shell@test1@test@modules@UModSys@@UEAAXXZ@4HA 000000018001a765 f    CIL library: CIL module
 0001:00019765       ?dtor$0@?0??suicide@RSerializeWriter@serialize_json@media@modules@UModSys@@UEAAXXZ@4HA 000000018001a765 f    CIL library: CIL module
 0001:00019765       ?dtor$0@?0??suicide@RImage_Memory@stdlib@lib2d@modules@UModSys@@UEAAXXZ@4HA 000000018001a765 f    CIL library: CIL module
 0001:00019765       ?dtor$0@?0??suicide@RMultiImage@stdlib@lib2d@modules@UModSys@@UEAAXXZ@4HA 000000018001a765 f    CIL library: CIL module
 0001:00019765       ?dtor$0@?0??suicide@RImageFactory_Memory@stdlib@lib2d@modules@UModSys@@UEAAXXZ@4HA 000000018001a765 f    CIL library: CIL module
 0001:00019765       ?dtor$0@?0??suicide@RBinArchiveFrameClient_ZIP@zlib@media@modules@UModSys@@UEAAXXZ@4HA 000000018001a765 f    CIL library: CIL module
 0001:00019765       ?dtor$0@?0??suicide@RCollector@frames@ui@modules@UModSys@@UEAAXXZ@4HA 000000018001a765 f    CIL library: CIL module
 0001:00019765       ?dtor$0@?0??suicide@RTerminal@SDL_core@ui@modules@UModSys@@UEAAXXZ@4HA 000000018001a765 f    CIL library: CIL module
 0001:00019765       ?dtor$0@?0??suicide@RMediaFilter@images_std@media@modules@UModSys@@UEAAXXZ@4HA 000000018001a765 f    CIL library: CIL module
 0001:00019765       ?dtor$0@?0??suicide@RSerializeReader@serialize_json@media@modules@UModSys@@UEAAXXZ@4HA 000000018001a765 f    CIL library: CIL module
 0001:0001977d       ?dtor$0@?0??generate@RGenerator@SDL_core@ui@modules@UModSys@@UEAA_NAEAU?$TRefObject@UIRefObject@core@UModSys@@U?$TRefObjectFunc@UIRefObject@core@UModSys@@@tl@3@@tl@5@PEBUSUniquePointerInfo@core@5@AEBUSParameters@95@@Z@4HA 000000018001a77d f    CIL library: CIL module
 0001:0001977d       ?dtor$0@?0??generate@RGenerator@zlib@media@modules@UModSys@@UEAA_NAEAU?$TRefObject@UIRefObject@core@UModSys@@U?$TRefObjectFunc@UIRefObject@core@UModSys@@@tl@3@@tl@5@PEBUSUniquePointerInfo@core@5@AEBUSParameters@95@@Z@4HA 000000018001a77d f    CIL library: CIL module
 0001:0001979d       ?dtor$1@?0??generate@RGenerator@SDL_core@ui@modules@UModSys@@UEAA_NAEAU?$TRefObject@UIRefObject@core@UModSys@@U?$TRefObjectFunc@UIRefObject@core@UModSys@@@tl@3@@tl@5@PEBUSUniquePointerInfo@core@5@AEBUSParameters@95@@Z@4HA 000000018001a79d f    CIL library: CIL module
 0001:0001979d       ?dtor$1@?0??generate@RGenerator@zlib@media@modules@UModSys@@UEAA_NAEAU?$TRefObject@UIRefObject@core@UModSys@@U?$TRefObjectFunc@UIRefObject@core@UModSys@@@tl@3@@tl@5@PEBUSUniquePointerInfo@core@5@AEBUSParameters@95@@Z@4HA 000000018001a79d f    CIL library: CIL module
 0001:000197bd       ?dtor$5@?0??generate@RGenerator@SDL_core@ui@modules@UModSys@@UEAA_NAEAU?$TRefObject@UIRefObject@core@UModSys@@U?$TRefObjectFunc@UIRefObject@core@UModSys@@@tl@3@@tl@5@PEBUSUniquePointerInfo@core@5@AEBUSParameters@95@@Z@4HA 000000018001a7bd f    CIL library: CIL module
 0001:000197bd       ?dtor$2@?0??generate@RGenerator@zlib@media@modules@UModSys@@UEAA_NAEAU?$TRefObject@UIRefObject@core@UModSys@@U?$TRefObjectFunc@UIRefObject@core@UModSys@@@tl@3@@tl@5@PEBUSUniquePointerInfo@core@5@AEBUSParameters@95@@Z@4HA 000000018001a7bd f    CIL library: CIL module
 0001:000197d5       ?dtor$0@?0???_GRSerializeWriter@serialize_json@media@modules@UModSys@@UEAAPEAXI@Z@4HA 000000018001a7d5 f    CIL library: CIL module
 0001:000197f5       ?dtor$1@?0???_GRSerializeWriter@serialize_json@media@modules@UModSys@@UEAAPEAXI@Z@4HA 000000018001a7f5 f    CIL library: CIL module
 0001:00019815       ?dtor$2@?0???_GRSerializeWriter@serialize_json@media@modules@UModSys@@UEAAPEAXI@Z@4HA 000000018001a815 f    CIL library: CIL module
 0001:00019835       ?dtor$4@?0???_GRSerializeWriter@serialize_json@media@modules@UModSys@@UEAAPEAXI@Z@4HA 000000018001a835 f    CIL library: CIL module
 0001:00019851       ?dtor$0@?0??dialog_open@RCollector@frames@ui@modules@UModSys@@UEAAPEAUIDialog@libui@5@PEAUIFrame@75@@Z@4HA 000000018001a851 f    CIL library: CIL module
 0001:00019871       ?dtor$2@?0??dialog_open@RCollector@frames@ui@modules@UModSys@@UEAAPEAUIDialog@libui@5@PEAUIFrame@75@@Z@4HA 000000018001a871 f    CIL library: CIL module
 0001:00019891       ?dtor$1@?0??dialog_open@RCollector@frames@ui@modules@UModSys@@UEAAPEAUIDialog@libui@5@PEAUIFrame@75@@Z@4HA 000000018001a891 f    CIL library: CIL module
 0001:000198a9       ?dtor$0@?0???1RCollector@frames@ui@modules@UModSys@@UEAA@XZ@4HA 000000018001a8a9 f    CIL library: CIL module
 0001:000198c9       ?dtor$1@?0???1RCollector@frames@ui@modules@UModSys@@UEAA@XZ@4HA 000000018001a8c9 f    CIL library: CIL module
 0001:000198e9       ?dtor$2@?0???1RCollector@frames@ui@modules@UModSys@@UEAA@XZ@4HA 000000018001a8e9 f    CIL library: CIL module
 0001:00019909       ?dtor$3@?0???1RCollector@frames@ui@modules@UModSys@@UEAA@XZ@4HA 000000018001a909 f    CIL library: CIL module
 0001:00019929       ?dtor$4@?0???1RCollector@frames@ui@modules@UModSys@@UEAA@XZ@4HA 000000018001a929 f    CIL library: CIL module
 0001:00019949       ?dtor$5@?0???1RCollector@frames@ui@modules@UModSys@@UEAA@XZ@4HA 000000018001a949 f    CIL library: CIL module
 0001:00019969       ?dtor$6@?0???1RCollector@frames@ui@modules@UModSys@@UEAA@XZ@4HA 000000018001a969 f    CIL library: CIL module
 0001:00019989       ?dtor$7@?0???1RCollector@frames@ui@modules@UModSys@@UEAA@XZ@4HA 000000018001a989 f    CIL library: CIL module
 0001:000199a8       ?dtor$0@?0???_GRDialog@frames@ui@modules@UModSys@@UEAAPEAXI@Z@4HA 000000018001a9a8 f    CIL library: CIL module
 0001:000199c8       ?dtor$1@?0???_GRDialog@frames@ui@modules@UModSys@@UEAAPEAXI@Z@4HA 000000018001a9c8 f    CIL library: CIL module
 0001:000199e4       ?dtor$0@?0???1RFrame_Common@frames@ui@modules@UModSys@@UEAA@XZ@4HA 000000018001a9e4 f    CIL library: CIL module
 0001:00019a04       ?dtor$1@?0???1RFrame_Common@frames@ui@modules@UModSys@@UEAA@XZ@4HA 000000018001aa04 f    CIL library: CIL module
 0001:00019a24       ?dtor$2@?0???1RFrame_Common@frames@ui@modules@UModSys@@UEAA@XZ@4HA 000000018001aa24 f    CIL library: CIL module
 0001:00019a44       ?dtor$3@?0???1RFrame_Common@frames@ui@modules@UModSys@@UEAA@XZ@4HA 000000018001aa44 f    CIL library: CIL module
 0001:00019a64       ?dtor$6@?0???1RFrame_Common@frames@ui@modules@UModSys@@UEAA@XZ@4HA 000000018001aa64 f    CIL library: CIL module
 0001:00019a7c       ?dtor$2@?0???$process_nodes_r@U?$TNodeDeleter0@U?$TScatterArrayNode@U?$TRefObjectComposite@UIKeyboardClient@libui@UModSys@@UIRefObject@core@3@U?$TRefObjectFunc@UIRefObject@core@UModSys@@@tl@3@@tl@UModSys@@H@tl@UModSys@@@tl@UModSys@@@?$TTreeHoldRB@U?$TScatterArrayNode@U?$TRefObjectComposite@UIKeyboardClient@libui@UModSys@@UIRefObject@core@3@U?$TRefObjectFunc@UIRefObject@core@UModSys@@@tl@3@@tl@UModSys@@H@tl@UModSys@@@tl@UModSys@@KAHPEAU?$TScatterArrayNode@U?$TRefObjectComposite@UIKeyboardClient@libui@UModSys@@UIRefObject@core@3@U?$TRefObjectFunc@UIRefObject@core@UModSys@@@tl@3@@tl@UModSys@@H@12@AEBU?$TNodeDeleter0@U?$TScatterArrayNode@U?$TRefObjectComposite@UIKeyboardClient@libui@UModSys@@UIRefObject@core@3@U?$TRefObjectFunc@UIRefObject@core@UModSys@@@tl@3@@tl@UModSys@@H@tl@UModSys@@@12@@Z@4HA 000000018001aa7c f    CIL library: CIL module
 0001:00019a7c       ?dtor$2@?0???$process_nodes_r@U?$TNodeDeleter0@U?$TScatterArrayNode@U?$TRefObjectCompositeExtra@UIMouseClient@libui@UModSys@@HUIRefObject@core@3@U?$TRefObjectFunc@UIRefObject@core@UModSys@@@tl@3@@tl@UModSys@@H@tl@UModSys@@@tl@UModSys@@@?$TTreeHoldRB@U?$TScatterArrayNode@U?$TRefObjectCompositeExtra@UIMouseClient@libui@UModSys@@HUIRefObject@core@3@U?$TRefObjectFunc@UIRefObject@core@UModSys@@@tl@3@@tl@UModSys@@H@tl@UModSys@@@tl@UModSys@@KAHPEAU?$TScatterArrayNode@U?$TRefObjectCompositeExtra@UIMouseClient@libui@UModSys@@HUIRefObject@core@3@U?$TRefObjectFunc@UIRefObject@core@UModSys@@@tl@3@@tl@UModSys@@H@12@AEBU?$TNodeDeleter0@U?$TScatterArrayNode@U?$TRefObjectCompositeExtra@UIMouseClient@libui@UModSys@@HUIRefObject@core@3@U?$TRefObjectFunc@UIRefObject@core@UModSys@@@tl@3@@tl@UModSys@@H@tl@UModSys@@@12@@Z@4HA 000000018001aa7c f    CIL library: CIL module
 0001:00019a94       ?dtor$0@?0??key_link@RKeyboardController@SDL_core@ui@modules@UModSys@@UEAA_NHPEAUIRefObject@core@5@PEAUIKeyboardClient@libui@5@@Z@4HA 000000018001aa94 f    CIL library: CIL module
 0001:00019ab4       ?dtor$1@?0??key_link@RKeyboardController@SDL_core@ui@modules@UModSys@@UEAA_NHPEAUIRefObject@core@5@PEAUIKeyboardClient@libui@5@@Z@4HA 000000018001aab4 f    CIL library: CIL module
 0001:00019ad4       ?dtor$2@?0??key_link@RKeyboardController@SDL_core@ui@modules@UModSys@@UEAA_NHPEAUIRefObject@core@5@PEAUIKeyboardClient@libui@5@@Z@4HA 000000018001aad4 f    CIL library: CIL module
 0001:00019af4       ?dtor$6@?0??key_link@RKeyboardController@SDL_core@ui@modules@UModSys@@UEAA_NHPEAUIRefObject@core@5@PEAUIKeyboardClient@libui@5@@Z@4HA 000000018001aaf4 f    CIL library: CIL module
 0001:00019b0c       ?dtor$0@?0??mouse_link@RMouseController@SDL_core@ui@modules@UModSys@@UEAA_NHPEAUIRefObject@core@5@PEAUIMouseClient@libui@5@H@Z@4HA 000000018001ab0c f    CIL library: CIL module
 0001:00019b2c       ?dtor$1@?0??mouse_link@RMouseController@SDL_core@ui@modules@UModSys@@UEAA_NHPEAUIRefObject@core@5@PEAUIMouseClient@libui@5@H@Z@4HA 000000018001ab2c f    CIL library: CIL module
 0001:00019b4c       ?dtor$2@?0??mouse_link@RMouseController@SDL_core@ui@modules@UModSys@@UEAA_NHPEAUIRefObject@core@5@PEAUIMouseClient@libui@5@H@Z@4HA 000000018001ab4c f    CIL library: CIL module
 0001:00019b6c       ?dtor$6@?0??mouse_link@RMouseController@SDL_core@ui@modules@UModSys@@UEAA_NHPEAUIRefObject@core@5@PEAUIMouseClient@libui@5@H@Z@4HA 000000018001ab6c f    CIL library: CIL module
 0001:00019b84       ?dtor$0@?0???_GRRenderDriver2D@SDL_core@ui@modules@UModSys@@UEAAPEAXI@Z@4HA 000000018001ab84 f    CIL library: CIL module
 0001:00019ba4       ?dtor$1@?0???_GRRenderDriver2D@SDL_core@ui@modules@UModSys@@UEAAPEAXI@Z@4HA 000000018001aba4 f    CIL library: CIL module
 0001:00019bc0       ?dtor$0@?0???0RMultiImage2D_SDL_ttf@SDL_core@ui@modules@UModSys@@QEAA@PEAURRenderDriver2D@1234@AEBUSParameters@core@4@@Z@4HA 000000018001abc0 f    CIL library: CIL module
 0001:00019be0       ?dtor$1@?0???0RMultiImage2D_SDL_ttf@SDL_core@ui@modules@UModSys@@QEAA@PEAURRenderDriver2D@1234@AEBUSParameters@core@4@@Z@4HA 000000018001abe0 f    CIL library: CIL module
 0001:00019bfc       ?dtor$0@?0???$t_gen_param@URImageFactory_Memory@stdlib@lib2d@modules@UModSys@@URGenerator@2345@@IGenerator@base@UModSys@@IEAA_NPEAURGenerator@stdlib@lib2d@modules@2@AEAU?$TRefObject@UIRefObject@core@UModSys@@U?$TRefObjectFunc@UIRefObject@core@UModSys@@@tl@3@@tl@2@PEBUSUniquePointerInfo@core@2@AEBUSParameters@core@2@@Z@4HA 000000018001abfc f    CIL library: CIL module
 0001:00019c1c       ?dtor$1@?0???$t_gen_param@URImageFactory_Memory@stdlib@lib2d@modules@UModSys@@URGenerator@2345@@IGenerator@base@UModSys@@IEAA_NPEAURGenerator@stdlib@lib2d@modules@2@AEAU?$TRefObject@UIRefObject@core@UModSys@@U?$TRefObjectFunc@UIRefObject@core@UModSys@@@tl@3@@tl@2@PEBUSUniquePointerInfo@core@2@AEBUSParameters@core@2@@Z@4HA 000000018001ac1c f    CIL library: CIL module
 0001:00019c3c       ?dtor$2@?0???$t_gen_param@URImageFactory_Memory@stdlib@lib2d@modules@UModSys@@URGenerator@2345@@IGenerator@base@UModSys@@IEAA_NPEAURGenerator@stdlib@lib2d@modules@2@AEAU?$TRefObject@UIRefObject@core@UModSys@@U?$TRefObjectFunc@UIRefObject@core@UModSys@@@tl@3@@tl@2@PEBUSUniquePointerInfo@core@2@AEBUSParameters@core@2@@Z@4HA 000000018001ac3c f    CIL library: CIL module
 0001:00019c54       ?dtor$0@?0??set_layer_count@RMultiImage@stdlib@lib2d@modules@UModSys@@UEAA_NG@Z@4HA 000000018001ac54 f    CIL library: CIL module
 0001:00019c6c       ?dtor$0@?0???0RImage_Memory@stdlib@lib2d@modules@UModSys@@QEAA@PEAUIModObject@base@4@AEBUSParameters@core@4@@Z@4HA 000000018001ac6c f    CIL library: CIL module
 0001:00019c6c       ?dtor$0@?0???_GRMouseController@SDL_core@ui@modules@UModSys@@UEAAPEAXI@Z@4HA 000000018001ac6c f    CIL library: CIL module
 0001:00019c6c       ?dtor$0@?0???_GRKeyboardController@SDL_core@ui@modules@UModSys@@UEAAPEAXI@Z@4HA 000000018001ac6c f    CIL library: CIL module
 0001:00019c6c       ?dtor$0@?0???_GRImage_Memory@stdlib@lib2d@modules@UModSys@@UEAAPEAXI@Z@4HA 000000018001ac6c f    CIL library: CIL module
 0001:00019c6c       ?dtor$0@?0???_GRTerminal@SDL_core@ui@modules@UModSys@@UEAAPEAXI@Z@4HA 000000018001ac6c f    CIL library: CIL module
 0001:00019c6c       ?dtor$1@?0???1IBinObjFilter@libmedia@UModSys@@UEAA@XZ@4HA 000000018001ac6c f    CIL library: CIL module
 0001:00019c84       ?dtor$0@?0???$generate_type@UITerminal@libui@UModSys@@@RTest1_Shell@test1@test@modules@UModSys@@QEAA?AU?$TRefObject@UITerminal@libui@UModSys@@U?$TRefObjectFunc@UITerminal@libui@UModSys@@@tl@3@@tl@4@AEBU?$TString@U?$TSCoreConst@D@su@tl@UModSys@@U?$TComparerBinaryHash@D@234@@64@AEBUSParameters@core@4@PEBD@Z@4HA 000000018001ac84 f    CIL library: CIL module
 0001:00019c84       ?dtor$0@?0???$generate_type@UICollector@libui@UModSys@@@RTest1_Shell@test1@test@modules@UModSys@@QEAA?AU?$TRefObject@UICollector@libui@UModSys@@U?$TRefObjectFunc@UICollector@libui@UModSys@@@tl@3@@tl@4@AEBU?$TString@U?$TSCoreConst@D@su@tl@UModSys@@U?$TComparerBinaryHash@D@234@@64@AEBUSParameters@core@4@PEBD@Z@4HA 000000018001ac84 f    CIL library: CIL module
 0001:00019ca4       ?dtor$2@?0???$generate_type@UICollector@libui@UModSys@@@RTest1_Shell@test1@test@modules@UModSys@@QEAA?AU?$TRefObject@UICollector@libui@UModSys@@U?$TRefObjectFunc@UICollector@libui@UModSys@@@tl@3@@tl@4@AEBU?$TString@U?$TSCoreConst@D@su@tl@UModSys@@U?$TComparerBinaryHash@D@234@@64@AEBUSParameters@core@4@PEBD@Z@4HA 000000018001aca4 f    CIL library: CIL module
 0001:00019ca4       ?dtor$2@?0???$generate_type@UITerminal@libui@UModSys@@@RTest1_Shell@test1@test@modules@UModSys@@QEAA?AU?$TRefObject@UITerminal@libui@UModSys@@U?$TRefObjectFunc@UITerminal@libui@UModSys@@@tl@3@@tl@4@AEBU?$TString@U?$TSCoreConst@D@su@tl@UModSys@@U?$TComparerBinaryHash@D@234@@64@AEBUSParameters@core@4@PEBD@Z@4HA 000000018001aca4 f    CIL library: CIL module
 0001:00019cc4       ?dtor$1@?0???$generate_type@UITerminal@libui@UModSys@@@RTest1_Shell@test1@test@modules@UModSys@@QEAA?AU?$TRefObject@UITerminal@libui@UModSys@@U?$TRefObjectFunc@UITerminal@libui@UModSys@@@tl@3@@tl@4@AEBU?$TString@U?$TSCoreConst@D@su@tl@UModSys@@U?$TComparerBinaryHash@D@234@@64@AEBUSParameters@core@4@PEBD@Z@4HA 000000018001acc4 f    CIL library: CIL module
 0001:00019cc4       ?dtor$1@?0???$generate_type@UICollector@libui@UModSys@@@RTest1_Shell@test1@test@modules@UModSys@@QEAA?AU?$TRefObject@UICollector@libui@UModSys@@U?$TRefObjectFunc@UICollector@libui@UModSys@@@tl@3@@tl@4@AEBU?$TString@U?$TSCoreConst@D@su@tl@UModSys@@U?$TComparerBinaryHash@D@234@@64@AEBUSParameters@core@4@PEBD@Z@4HA 000000018001acc4 f    CIL library: CIL module
 0001:00019cf3       ?dtor$0@?0???0RTest1_Shell@test1@test@modules@UModSys@@QEAA@PEAUIModObject@base@4@@Z@4HA 000000018001acf3 f    CIL library: CIL module
 0001:00019cf3       ?dtor$0@?0???_GRTest1_Shell@test1@test@modules@UModSys@@UEAAPEAXI@Z@4HA 000000018001acf3 f    CIL library: CIL module
 0001:00019cf3       ?dtor$0@?0???_GRMultiImage2D_SDL_ttf@SDL_core@ui@modules@UModSys@@UEAAPEAXI@Z@4HA 000000018001acf3 f    CIL library: CIL module
 0001:00019d0b       ?dtor$0@?0???0RSerializeWriter@serialize_json@media@modules@UModSys@@QEAA@PEAUIModObject@base@4@AEBUSParameters@core@4@@Z@4HA 000000018001ad0b f    CIL library: CIL module
 0001:00019d2b       ?dtor$1@?0???0RSerializeWriter@serialize_json@media@modules@UModSys@@QEAA@PEAUIModObject@base@4@AEBUSParameters@core@4@@Z@4HA 000000018001ad2b f    CIL library: CIL module
 0001:00019d4b       ?dtor$2@?0???0RSerializeWriter@serialize_json@media@modules@UModSys@@QEAA@PEAUIModObject@base@4@AEBUSParameters@core@4@@Z@4HA 000000018001ad4b f    CIL library: CIL module
 0001:00019d6a       ?dtor$0@?0???_GRSerializeReader@serialize_json@media@modules@UModSys@@UEAAPEAXI@Z@4HA 000000018001ad6a f    CIL library: CIL module
 0001:00019d8a       ?dtor$1@?0???_GRSerializeReader@serialize_json@media@modules@UModSys@@UEAAPEAXI@Z@4HA 000000018001ad8a f    CIL library: CIL module
 0001:00019da6       ?dtor$0@?0???0RSerializeReader@serialize_json@media@modules@UModSys@@QEAA@PEAUIModObject@base@4@AEBUSParameters@core@4@@Z@4HA 000000018001ada6 f    CIL library: CIL module
 0001:00019dc6       ?dtor$1@?0???0RSerializeReader@serialize_json@media@modules@UModSys@@QEAA@PEAUIModObject@base@4@AEBUSParameters@core@4@@Z@4HA 000000018001adc6 f    CIL library: CIL module
 0001:00019de6       ?dtor$2@?0???0RSerializeReader@serialize_json@media@modules@UModSys@@QEAA@PEAUIModObject@base@4@AEBUSParameters@core@4@@Z@4HA 000000018001ade6 f    CIL library: CIL module
 0001:00019e05       ?dtor$0@?0??reader_parse@RSerializeReader@serialize_json@media@modules@UModSys@@UEAA_NPEAUISerializeParser@libmedia@5@@Z@4HA 000000018001ae05 f    CIL library: CIL module
 0001:00019e1d       ?dtor$0@?0??saver_png@RMediaFilter@images_std@media@modules@UModSys@@QEAA_NPEBUIImage@lib2d@5@AEAUSInfo@IBinObjFilter@libmedia@5@AEBUSParameters@core@5@PEBD_N@Z@4HA 000000018001ae1d f    CIL library: CIL module
 0001:00019e3d       ?dtor$1@?0??saver_png@RMediaFilter@images_std@media@modules@UModSys@@QEAA_NPEBUIImage@lib2d@5@AEAUSInfo@IBinObjFilter@libmedia@5@AEBUSParameters@core@5@PEBD_N@Z@4HA 000000018001ae3d f    CIL library: CIL module
 0001:00019e56       ?dtor$0@?0??loader_png@RMediaFilter@images_std@media@modules@UModSys@@QEAA_NPEAUIImage@lib2d@5@AEBUSInfo@IBinObjFilter@libmedia@5@AEBUSParameters@core@5@HPEBD_N@Z@4HA 000000018001ae56 f    CIL library: CIL module
 0001:00019e71       ?dtor$0@?0??loader_jpeg@RMediaFilter@images_std@media@modules@UModSys@@QEAA_NPEAUIImage@lib2d@5@AEBUSInfo@IBinObjFilter@libmedia@5@AEBUSParameters@core@5@HPEBD_N@Z@4HA 000000018001ae71 f    CIL library: CIL module
 0001:00019e89       ?dtor$0@?0???_GRMediaFilter@images_std@media@modules@UModSys@@UEAAPEAXI@Z@4HA 000000018001ae89 f    CIL library: CIL module
 0001:00019ea9       ?dtor$1@?0???_GRMediaFilter@images_std@media@modules@UModSys@@UEAAPEAXI@Z@4HA 000000018001aea9 f    CIL library: CIL module
 0001:00019ec9       ?dtor$4@?0???_GRMediaFilter@images_std@media@modules@UModSys@@UEAAPEAXI@Z@4HA 000000018001aec9 f    CIL library: CIL module
 0001:00019ee1       ?dtor$0@?0???0RCollector@frames@ui@modules@UModSys@@QEAA@PEAUIModObject@base@4@AEBUSParameters@core@4@@Z@4HA 000000018001aee1 f    CIL library: CIL module
 0001:00019f01       ?dtor$1@?0???0RCollector@frames@ui@modules@UModSys@@QEAA@PEAUIModObject@base@4@AEBUSParameters@core@4@@Z@4HA 000000018001af01 f    CIL library: CIL module
 0001:00019f21       ?dtor$2@?0???0RCollector@frames@ui@modules@UModSys@@QEAA@PEAUIModObject@base@4@AEBUSParameters@core@4@@Z@4HA 000000018001af21 f    CIL library: CIL module
 0001:00019f51       ?dtor$3@?0???0RCollector@frames@ui@modules@UModSys@@QEAA@PEAUIModObject@base@4@AEBUSParameters@core@4@@Z@4HA 000000018001af51 f    CIL library: CIL module
 0001:00019f81       ?dtor$4@?0???0RCollector@frames@ui@modules@UModSys@@QEAA@PEAUIModObject@base@4@AEBUSParameters@core@4@@Z@4HA 000000018001af81 f    CIL library: CIL module
 0001:00019fb1       ?dtor$5@?0???0RCollector@frames@ui@modules@UModSys@@QEAA@PEAUIModObject@base@4@AEBUSParameters@core@4@@Z@4HA 000000018001afb1 f    CIL library: CIL module
 0001:00019fe1       ?dtor$6@?0???0RCollector@frames@ui@modules@UModSys@@QEAA@PEAUIModObject@base@4@AEBUSParameters@core@4@@Z@4HA 000000018001afe1 f    CIL library: CIL module
 0001:0001a011       ?dtor$7@?0???0RCollector@frames@ui@modules@UModSys@@QEAA@PEAUIModObject@base@4@AEBUSParameters@core@4@@Z@4HA 000000018001b011 f    CIL library: CIL module
 0001:0001a041       ?dtor$8@?0???0RCollector@frames@ui@modules@UModSys@@QEAA@PEAUIModObject@base@4@AEBUSParameters@core@4@@Z@4HA 000000018001b041 f    CIL library: CIL module
 0001:0001a071       ?dtor$9@?0???0RCollector@frames@ui@modules@UModSys@@QEAA@PEAUIModObject@base@4@AEBUSParameters@core@4@@Z@4HA 000000018001b071 f    CIL library: CIL module
 0001:0001a093       ?dtor$0@?0??set_buf@RFrame_Edit@frames@ui@modules@UModSys@@IEAA_NPEBDH@Z@4HA 000000018001b093 f    CIL library: CIL module
 0001:0001a0ab       ?dtor$0@?0???0RFrame_Common@frames@ui@modules@UModSys@@QEAA@PEAURCollector@1234@PEAU01234@@Z@4HA 000000018001b0ab f    CIL library: CIL module
 0001:0001a0cb       ?dtor$1@?0???0RFrame_Common@frames@ui@modules@UModSys@@QEAA@PEAURCollector@1234@PEAU01234@@Z@4HA 000000018001b0cb f    CIL library: CIL module
 0001:0001a0e7       ?dtor$0@?0???$t_add@U?$TRefObject@URRenderDriver2D@SDL_core@ui@modules@UModSys@@U?$TRefObjectWeakFunc@URRenderDriver2D@SDL_core@ui@modules@UModSys@@@tl@5@@tl@UModSys@@URRenderDriver2D@SDL_core@ui@modules@3@@SDL_core@ui@modules@UModSys@@YA_NAEAU?$TScatterArray@U?$TRefObject@URRenderDriver2D@SDL_core@ui@modules@UModSys@@U?$TRefObjectWeakFunc@URRenderDriver2D@SDL_core@ui@modules@UModSys@@@tl@5@@tl@UModSys@@HU?$TScalarCompare@H@core@3@U?$TNodeDeleter0@U?$TScatterArrayNode@U?$TRefObject@URRenderDriver2D@SDL_core@ui@modules@UModSys@@U?$TRefObjectWeakFunc@URRenderDriver2D@SDL_core@ui@modules@UModSys@@@tl@5@@tl@UModSys@@H@tl@UModSys@@@23@@tl@3@PEAURRenderDriver2D@0123@@Z@4HA 000000018001b0e7 f    CIL library: CIL module
 0001:0001a107       ?dtor$1@?0???$t_add@U?$TRefObject@URRenderDriver2D@SDL_core@ui@modules@UModSys@@U?$TRefObjectWeakFunc@URRenderDriver2D@SDL_core@ui@modules@UModSys@@@tl@5@@tl@UModSys@@URRenderDriver2D@SDL_core@ui@modules@3@@SDL_core@ui@modules@UModSys@@YA_NAEAU?$TScatterArray@U?$TRefObject@URRenderDriver2D@SDL_core@ui@modules@UModSys@@U?$TRefObjectWeakFunc@URRenderDriver2D@SDL_core@ui@modules@UModSys@@@tl@5@@tl@UModSys@@HU?$TScalarCompare@H@core@3@U?$TNodeDeleter0@U?$TScatterArrayNode@U?$TRefObject@URRenderDriver2D@SDL_core@ui@modules@UModSys@@U?$TRefObjectWeakFunc@URRenderDriver2D@SDL_core@ui@modules@UModSys@@@tl@5@@tl@UModSys@@H@tl@UModSys@@@23@@tl@3@PEAURRenderDriver2D@0123@@Z@4HA 000000018001b107 f    CIL library: CIL module
 0001:0001a11f       ?dtor$0@?0??new_font@RRenderDriver2D@SDL_core@ui@modules@UModSys@@UEAA?AU?$TRefObject@UIMultiImage@lib2d@UModSys@@U?$TRefObjectFunc@UIMultiImage@lib2d@UModSys@@@tl@3@@tl@5@AEBUSParameters@core@5@AEBU?$TString@U?$TSCoreConst@D@su@tl@UModSys@@U?$TComparerBinaryHash@D@234@@75@@Z@4HA 000000018001b11f f    CIL library: CIL module
 0001:0001a13f       ?dtor$1@?0??new_font@RRenderDriver2D@SDL_core@ui@modules@UModSys@@UEAA?AU?$TRefObject@UIMultiImage@lib2d@UModSys@@U?$TRefObjectFunc@UIMultiImage@lib2d@UModSys@@@tl@3@@tl@5@AEBUSParameters@core@5@AEBU?$TString@U?$TSCoreConst@D@su@tl@UModSys@@U?$TComparerBinaryHash@D@234@@75@@Z@4HA 000000018001b13f f    CIL library: CIL module
 0001:0001a15f       ?dtor$3@?0??new_font@RRenderDriver2D@SDL_core@ui@modules@UModSys@@UEAA?AU?$TRefObject@UIMultiImage@lib2d@UModSys@@U?$TRefObjectFunc@UIMultiImage@lib2d@UModSys@@@tl@3@@tl@5@AEBUSParameters@core@5@AEBU?$TString@U?$TSCoreConst@D@su@tl@UModSys@@U?$TComparerBinaryHash@D@234@@75@@Z@4HA 000000018001b15f f    CIL library: CIL module
 0001:0001a17f       ?dtor$2@?0??new_font@RRenderDriver2D@SDL_core@ui@modules@UModSys@@UEAA?AU?$TRefObject@UIMultiImage@lib2d@UModSys@@U?$TRefObjectFunc@UIMultiImage@lib2d@UModSys@@@tl@3@@tl@5@AEBUSParameters@core@5@AEBU?$TString@U?$TSCoreConst@D@su@tl@UModSys@@U?$TComparerBinaryHash@D@234@@75@@Z@4HA 000000018001b17f f    CIL library: CIL module
 0001:0001a1a5       ?dtor$0@?0???_GRMultiImage@stdlib@lib2d@modules@UModSys@@UEAAPEAXI@Z@4HA 000000018001b1a5 f    CIL library: CIL module
 0001:0001a1c5       ?dtor$1@?0???_GRMultiImage@stdlib@lib2d@modules@UModSys@@UEAAPEAXI@Z@4HA 000000018001b1c5 f    CIL library: CIL module
 0001:0001a1e5       ?dtor$2@?0???_GRMultiImage@stdlib@lib2d@modules@UModSys@@UEAAPEAXI@Z@4HA 000000018001b1e5 f    CIL library: CIL module
 0001:0001a201       ?dtor$0@?0???0RMultiImage@stdlib@lib2d@modules@UModSys@@QEAA@PEAUIModObject@base@4@AEBUSParameters@core@4@@Z@4HA 000000018001b201 f    CIL library: CIL module
 0001:0001a221       ?dtor$1@?0???0RMultiImage@stdlib@lib2d@modules@UModSys@@QEAA@PEAUIModObject@base@4@AEBUSParameters@core@4@@Z@4HA 000000018001b221 f    CIL library: CIL module
 0001:0001a241       ?dtor$2@?0???0RMultiImage@stdlib@lib2d@modules@UModSys@@QEAA@PEAUIModObject@base@4@AEBUSParameters@core@4@@Z@4HA 000000018001b241 f    CIL library: CIL module
 0001:0001a261       ?dtor$3@?0???0RMultiImage@stdlib@lib2d@modules@UModSys@@QEAA@PEAUIModObject@base@4@AEBUSParameters@core@4@@Z@4HA 000000018001b261 f    CIL library: CIL module
 0001:0001a280       ?dtor$0@?0??set_info@RImage_Memory@stdlib@lib2d@modules@UModSys@@UEAA_NAEBUSImagePatchInfo@35@PEBD@Z@4HA 000000018001b280 f    CIL library: CIL module
 0001:0001a298       ?dtor$0@?0??generate@RGenerator@serialize_json@media@modules@UModSys@@UEAA_NAEAU?$TRefObject@UIRefObject@core@UModSys@@U?$TRefObjectFunc@UIRefObject@core@UModSys@@@tl@3@@tl@5@PEBUSUniquePointerInfo@core@5@AEBUSParameters@95@@Z@4HA 000000018001b298 f    CIL library: CIL module
 0001:0001a2b8       ?dtor$1@?0??generate@RGenerator@serialize_json@media@modules@UModSys@@UEAA_NAEAU?$TRefObject@UIRefObject@core@UModSys@@U?$TRefObjectFunc@UIRefObject@core@UModSys@@@tl@3@@tl@5@PEBUSUniquePointerInfo@core@5@AEBUSParameters@95@@Z@4HA 000000018001b2b8 f    CIL library: CIL module
 0001:0001a2d3       ?dtor$0@?0???0RMediaFilter@images_std@media@modules@UModSys@@QEAA@PEAUIModObject@base@4@AEBUSParameters@core@4@@Z@4HA 000000018001b2d3 f    CIL library: CIL module
 0001:0001a2f3       ?dtor$1@?0???0RMediaFilter@images_std@media@modules@UModSys@@QEAA@PEAUIModObject@base@4@AEBUSParameters@core@4@@Z@4HA 000000018001b2f3 f    CIL library: CIL module
 0001:0001a30f       ?dtor$0@?0???_GRFrame_Edit@frames@ui@modules@UModSys@@UEAAPEAXI@Z@4HA 000000018001b30f f    CIL library: CIL module
 0001:0001a32f       ?dtor$1@?0???_GRFrame_Edit@frames@ui@modules@UModSys@@UEAAPEAXI@Z@4HA 000000018001b32f f    CIL library: CIL module
 0001:0001a34e       ?dtor$0@?0???0RFrame_Button@frames@ui@modules@UModSys@@QEAA@PEAURCollector@1234@PEAURFrame_Common@1234@@Z@4HA 000000018001b34e f    CIL library: CIL module
 0001:0001a366       ?dtor$0@?0???0RRenderDriver2D@SDL_core@ui@modules@UModSys@@QEAA@PEAURTerminal@1234@AEBUSParameters@core@4@@Z@4HA 000000018001b366 f    CIL library: CIL module
 0001:0001a386       ?dtor$1@?0???0RRenderDriver2D@SDL_core@ui@modules@UModSys@@QEAA@PEAURTerminal@1234@AEBUSParameters@core@4@@Z@4HA 000000018001b386 f    CIL library: CIL module
 0001:0001a3a6       ?dtor$2@?0???0RRenderDriver2D@SDL_core@ui@modules@UModSys@@QEAA@PEAURTerminal@1234@AEBUSParameters@core@4@@Z@4HA 000000018001b3a6 f    CIL library: CIL module
 0001:0001a3c6       ?dtor$3@?0???0RRenderDriver2D@SDL_core@ui@modules@UModSys@@QEAA@PEAURTerminal@1234@AEBUSParameters@core@4@@Z@4HA 000000018001b3c6 f    CIL library: CIL module
 0001:0001a3e5       ?dtor$0@?0???$t_gen_param@URSerializeWriter@serialize_json@media@modules@UModSys@@URGenerator@2345@@IGenerator@base@UModSys@@IEAA_NPEAURGenerator@serialize_json@media@modules@2@AEAU?$TRefObject@UIRefObject@core@UModSys@@U?$TRefObjectFunc@UIRefObject@core@UModSys@@@tl@3@@tl@2@PEBUSUniquePointerInfo@core@2@AEBUSParameters@core@2@@Z@4HA 000000018001b3e5 f    CIL library: CIL module
 0001:0001a3e5       ?dtor$0@?0???$t_gen_param@URMultiImage@stdlib@lib2d@modules@UModSys@@URGenerator@2345@@IGenerator@base@UModSys@@IEAA_NPEAURGenerator@stdlib@lib2d@modules@2@AEAU?$TRefObject@UIRefObject@core@UModSys@@U?$TRefObjectFunc@UIRefObject@core@UModSys@@@tl@3@@tl@2@PEBUSUniquePointerInfo@core@2@AEBUSParameters@core@2@@Z@4HA 000000018001b3e5 f    CIL library: CIL module
 0001:0001a405       ?dtor$1@?0???$t_gen_param@URMultiImage@stdlib@lib2d@modules@UModSys@@URGenerator@2345@@IGenerator@base@UModSys@@IEAA_NPEAURGenerator@stdlib@lib2d@modules@2@AEAU?$TRefObject@UIRefObject@core@UModSys@@U?$TRefObjectFunc@UIRefObject@core@UModSys@@@tl@3@@tl@2@PEBUSUniquePointerInfo@core@2@AEBUSParameters@core@2@@Z@4HA 000000018001b405 f    CIL library: CIL module
 0001:0001a405       ?dtor$1@?0???$t_gen_param@URSerializeWriter@serialize_json@media@modules@UModSys@@URGenerator@2345@@IGenerator@base@UModSys@@IEAA_NPEAURGenerator@serialize_json@media@modules@2@AEAU?$TRefObject@UIRefObject@core@UModSys@@U?$TRefObjectFunc@UIRefObject@core@UModSys@@@tl@3@@tl@2@PEBUSUniquePointerInfo@core@2@AEBUSParameters@core@2@@Z@4HA 000000018001b405 f    CIL library: CIL module
 0001:0001a41d       ?dtor$0@?0??image_new@RImageFactory_Memory@stdlib@lib2d@modules@UModSys@@UEAA?AU?$TRefObject@UIImage@lib2d@UModSys@@U?$TRefObjectFunc@UIImage@lib2d@UModSys@@@tl@3@@tl@5@AEBUSImagePatchInfo@35@PEBD@Z@4HA 000000018001b41d f    CIL library: CIL module
 0001:0001a43d       ?dtor$1@?0??image_new@RImageFactory_Memory@stdlib@lib2d@modules@UModSys@@UEAA?AU?$TRefObject@UIImage@lib2d@UModSys@@U?$TRefObjectFunc@UIImage@lib2d@UModSys@@@tl@3@@tl@5@AEBUSImagePatchInfo@35@PEBD@Z@4HA 000000018001b43d f    CIL library: CIL module
 0001:0001a45d       ?dtor$2@?0??image_new@RImageFactory_Memory@stdlib@lib2d@modules@UModSys@@UEAA?AU?$TRefObject@UIImage@lib2d@UModSys@@U?$TRefObjectFunc@UIImage@lib2d@UModSys@@@tl@3@@tl@5@AEBUSImagePatchInfo@35@PEBD@Z@4HA 000000018001b45d f    CIL library: CIL module
 0001:0001a47d       ?dtor$3@?0??image_new@RImageFactory_Memory@stdlib@lib2d@modules@UModSys@@UEAA?AU?$TRefObject@UIImage@lib2d@UModSys@@U?$TRefObjectFunc@UIImage@lib2d@UModSys@@@tl@3@@tl@5@AEBUSImagePatchInfo@35@PEBD@Z@4HA 000000018001b47d f    CIL library: CIL module
 0001:0001a4a6       ?dtor$0@?0??image_new@RImageFactory_Memory@stdlib@lib2d@modules@UModSys@@UEAA?AU?$TRefObject@UIImage@lib2d@UModSys@@U?$TRefObjectFunc@UIImage@lib2d@UModSys@@@tl@3@@tl@5@XZ@4HA 000000018001b4a6 f    CIL library: CIL module
 0001:0001a4c6       ?dtor$1@?0??image_new@RImageFactory_Memory@stdlib@lib2d@modules@UModSys@@UEAA?AU?$TRefObject@UIImage@lib2d@UModSys@@U?$TRefObjectFunc@UIImage@lib2d@UModSys@@@tl@3@@tl@5@XZ@4HA 000000018001b4c6 f    CIL library: CIL module
 0001:0001a4e6       ?dtor$2@?0??image_new@RImageFactory_Memory@stdlib@lib2d@modules@UModSys@@UEAA?AU?$TRefObject@UIImage@lib2d@UModSys@@U?$TRefObjectFunc@UIImage@lib2d@UModSys@@@tl@3@@tl@5@XZ@4HA 000000018001b4e6 f    CIL library: CIL module
 0001:0001a506       ?dtor$3@?0??image_new@RImageFactory_Memory@stdlib@lib2d@modules@UModSys@@UEAA?AU?$TRefObject@UIImage@lib2d@UModSys@@U?$TRefObjectFunc@UIImage@lib2d@UModSys@@@tl@3@@tl@5@XZ@4HA 000000018001b506 f    CIL library: CIL module
 0001:0001a535       ?dtor$0@?0??generate@RGenerator@stdlib@lib2d@modules@UModSys@@UEAA_NAEAU?$TRefObject@UIRefObject@core@UModSys@@U?$TRefObjectFunc@UIRefObject@core@UModSys@@@tl@3@@tl@5@PEBUSUniquePointerInfo@core@5@AEBUSParameters@95@@Z@4HA 000000018001b535 f    CIL library: CIL module
 0001:0001a555       ?dtor$1@?0??generate@RGenerator@stdlib@lib2d@modules@UModSys@@UEAA_NAEAU?$TRefObject@UIRefObject@core@UModSys@@U?$TRefObjectFunc@UIRefObject@core@UModSys@@@tl@3@@tl@5@PEBUSUniquePointerInfo@core@5@AEBUSParameters@95@@Z@4HA 000000018001b555 f    CIL library: CIL module
 0001:0001a56d       ?dtor$0@?0??ui_test1@RTest1_Shell@test1@test@modules@UModSys@@QEAAXXZ@4HA 000000018001b56d f    CIL library: CIL module
 0001:0001a58d       ?dtor$1@?0??ui_test1@RTest1_Shell@test1@test@modules@UModSys@@QEAAXXZ@4HA 000000018001b58d f    CIL library: CIL module
 0001:0001a5ad       ?dtor$2@?0??ui_test1@RTest1_Shell@test1@test@modules@UModSys@@QEAAXXZ@4HA 000000018001b5ad f    CIL library: CIL module
 0001:0001a5cd       ?dtor$3@?0??ui_test1@RTest1_Shell@test1@test@modules@UModSys@@QEAAXXZ@4HA 000000018001b5cd f    CIL library: CIL module
 0001:0001a5ed       ?dtor$4@?0??ui_test1@RTest1_Shell@test1@test@modules@UModSys@@QEAAXXZ@4HA 000000018001b5ed f    CIL library: CIL module
 0001:0001a60d       ?dtor$5@?0??ui_test1@RTest1_Shell@test1@test@modules@UModSys@@QEAAXXZ@4HA 000000018001b60d f    CIL library: CIL module
 0001:0001a62d       ?dtor$8@?0??ui_test1@RTest1_Shell@test1@test@modules@UModSys@@QEAAXXZ@4HA 000000018001b62d f    CIL library: CIL module
 0001:0001a64d       ?dtor$9@?0??ui_test1@RTest1_Shell@test1@test@modules@UModSys@@QEAAXXZ@4HA 000000018001b64d f    CIL library: CIL module
 0001:0001a66d       ?dtor$10@?0??ui_test1@RTest1_Shell@test1@test@modules@UModSys@@QEAAXXZ@4HA 000000018001b66d f    CIL library: CIL module
 0001:0001a68d       ?dtor$27@?0??ui_test1@RTest1_Shell@test1@test@modules@UModSys@@QEAAXXZ@4HA 000000018001b68d f    CIL library: CIL module
 0001:0001a6ad       ?dtor$11@?0??ui_test1@RTest1_Shell@test1@test@modules@UModSys@@QEAAXXZ@4HA 000000018001b6ad f    CIL library: CIL module
 0001:0001a6cd       ?dtor$12@?0??ui_test1@RTest1_Shell@test1@test@modules@UModSys@@QEAAXXZ@4HA 000000018001b6cd f    CIL library: CIL module
 0001:0001a6ed       ?dtor$13@?0??ui_test1@RTest1_Shell@test1@test@modules@UModSys@@QEAAXXZ@4HA 000000018001b6ed f    CIL library: CIL module
 0001:0001a70d       ?dtor$34@?0??ui_test1@RTest1_Shell@test1@test@modules@UModSys@@QEAAXXZ@4HA 000000018001b70d f    CIL library: CIL module
 0001:0001a72d       ?dtor$14@?0??ui_test1@RTest1_Shell@test1@test@modules@UModSys@@QEAAXXZ@4HA 000000018001b72d f    CIL library: CIL module
 0001:0001a74d       ?dtor$38@?0??ui_test1@RTest1_Shell@test1@test@modules@UModSys@@QEAAXXZ@4HA 000000018001b74d f    CIL library: CIL module
 0001:0001a76d       ?dtor$15@?0??ui_test1@RTest1_Shell@test1@test@modules@UModSys@@QEAAXXZ@4HA 000000018001b76d f    CIL library: CIL module
 0001:0001a78d       ?dtor$16@?0??ui_test1@RTest1_Shell@test1@test@modules@UModSys@@QEAAXXZ@4HA 000000018001b78d f    CIL library: CIL module
 0001:0001a7ad       ?dtor$17@?0??ui_test1@RTest1_Shell@test1@test@modules@UModSys@@QEAAXXZ@4HA 000000018001b7ad f    CIL library: CIL module
 0001:0001a7cd       ?dtor$18@?0??ui_test1@RTest1_Shell@test1@test@modules@UModSys@@QEAAXXZ@4HA 000000018001b7cd f    CIL library: CIL module
 0001:0001a7ed       ?dtor$19@?0??ui_test1@RTest1_Shell@test1@test@modules@UModSys@@QEAAXXZ@4HA 000000018001b7ed f    CIL library: CIL module
 0001:0001a808       ?dtor$0@?0??generate@RGenerator@images_std@media@modules@UModSys@@UEAA_NAEAU?$TRefObject@UIRefObject@core@UModSys@@U?$TRefObjectFunc@UIRefObject@core@UModSys@@@tl@3@@tl@5@PEBUSUniquePointerInfo@core@5@AEBUSParameters@95@@Z@4HA 000000018001b808 f    CIL library: CIL module
 0001:0001a808       ?dtor$0@?0??generate@RGenerator@frames@ui@modules@UModSys@@UEAA_NAEAU?$TRefObject@UIRefObject@core@UModSys@@U?$TRefObjectFunc@UIRefObject@core@UModSys@@@tl@3@@tl@5@PEBUSUniquePointerInfo@core@5@AEBUSParameters@95@@Z@4HA 000000018001b808 f    CIL library: CIL module
 0001:0001a828       ?dtor$1@?0??generate@RGenerator@images_std@media@modules@UModSys@@UEAA_NAEAU?$TRefObject@UIRefObject@core@UModSys@@U?$TRefObjectFunc@UIRefObject@core@UModSys@@@tl@3@@tl@5@PEBUSUniquePointerInfo@core@5@AEBUSParameters@95@@Z@4HA 000000018001b828 f    CIL library: CIL module
 0001:0001a828       ?dtor$1@?0??generate@RGenerator@frames@ui@modules@UModSys@@UEAA_NAEAU?$TRefObject@UIRefObject@core@UModSys@@U?$TRefObjectFunc@UIRefObject@core@UModSys@@@tl@3@@tl@5@PEBUSUniquePointerInfo@core@5@AEBUSParameters@95@@Z@4HA 000000018001b828 f    CIL library: CIL module
 0001:0001a840       ?dtor$0@?0???_GRFrame_Button@frames@ui@modules@UModSys@@UEAAPEAXI@Z@4HA 000000018001b840 f    CIL library: CIL module
 0001:0001a840       ?dtor$0@?0???_GRFrame_Image@frames@ui@modules@UModSys@@UEAAPEAXI@Z@4HA 000000018001b840 f    CIL library: CIL module
 0001:0001a840       ?dtor$0@?0???_GRFrame_Text@frames@ui@modules@UModSys@@UEAAPEAXI@Z@4HA 000000018001b840 f    CIL library: CIL module
 0001:0001a840       ?dtor$0@?0???0RFrame_Edit@frames@ui@modules@UModSys@@QEAA@PEAURCollector@1234@PEAURFrame_Common@1234@@Z@4HA 000000018001b840 f    CIL library: CIL module
 0001:0001a840       ?dtor$0@?0???0RFrame_Image@frames@ui@modules@UModSys@@QEAA@PEAURCollector@1234@PEAURFrame_Common@1234@@Z@4HA 000000018001b840 f    CIL library: CIL module
 0001:0001a840       ?dtor$0@?0???0RFrame_Text@frames@ui@modules@UModSys@@QEAA@PEAURCollector@1234@PEAURFrame_Common@1234@@Z@4HA 000000018001b840 f    CIL library: CIL module
 0001:0001a840       ?dtor$0@?0???0RFrame_Frame@frames@ui@modules@UModSys@@QEAA@PEAURCollector@1234@PEAURFrame_Common@1234@@Z@4HA 000000018001b840 f    CIL library: CIL module
 0001:0001a840       ?dtor$0@?0???_GRFrame_List@frames@ui@modules@UModSys@@UEAAPEAXI@Z@4HA 000000018001b840 f    CIL library: CIL module
 0001:0001a858       ?dtor$0@?0???0RFrame_List@frames@ui@modules@UModSys@@QEAA@PEAURCollector@1234@PEAURFrame_Common@1234@@Z@4HA 000000018001b858 f    CIL library: CIL module
 0001:0001a870       ?dtor$0@?0??create_handler@RTerminal@SDL_core@ui@modules@UModSys@@UEAA_NPEBUSUniquePointerInfo@core@5@AEAU?$TRefObject@UIRefObject@core@UModSys@@U?$TRefObjectFunc@UIRefObject@core@UModSys@@@tl@3@@tl@5@PEBDPEBUSParameters@75@@Z@4HA 000000018001b870 f    CIL library: CIL module
 0001:0001a890       ?dtor$1@?0??create_handler@RTerminal@SDL_core@ui@modules@UModSys@@UEAA_NPEBUSUniquePointerInfo@core@5@AEAU?$TRefObject@UIRefObject@core@UModSys@@U?$TRefObjectFunc@UIRefObject@core@UModSys@@@tl@3@@tl@5@PEBDPEBUSParameters@75@@Z@4HA 000000018001b890 f    CIL library: CIL module
 0001:0001a8b0       ?dtor$9@?0??create_handler@RTerminal@SDL_core@ui@modules@UModSys@@UEAA_NPEBUSUniquePointerInfo@core@5@AEAU?$TRefObject@UIRefObject@core@UModSys@@U?$TRefObjectFunc@UIRefObject@core@UModSys@@@tl@3@@tl@5@PEBDPEBUSParameters@75@@Z@4HA 000000018001b8b0 f    CIL library: CIL module
 0001:0001a8d0       ?dtor$3@?0??create_handler@RTerminal@SDL_core@ui@modules@UModSys@@UEAA_NPEBUSUniquePointerInfo@core@5@AEAU?$TRefObject@UIRefObject@core@UModSys@@U?$TRefObjectFunc@UIRefObject@core@UModSys@@@tl@3@@tl@5@PEBDPEBUSParameters@75@@Z@4HA 000000018001b8d0 f    CIL library: CIL module
 0001:0001a8f0       ?dtor$10@?0??create_handler@RTerminal@SDL_core@ui@modules@UModSys@@UEAA_NPEBUSUniquePointerInfo@core@5@AEAU?$TRefObject@UIRefObject@core@UModSys@@U?$TRefObjectFunc@UIRefObject@core@UModSys@@@tl@3@@tl@5@PEBDPEBUSParameters@75@@Z@4HA 000000018001b8f0 f    CIL library: CIL module
 0001:0001a910       ?dtor$4@?0??create_handler@RTerminal@SDL_core@ui@modules@UModSys@@UEAA_NPEBUSUniquePointerInfo@core@5@AEAU?$TRefObject@UIRefObject@core@UModSys@@U?$TRefObjectFunc@UIRefObject@core@UModSys@@@tl@3@@tl@5@PEBDPEBUSParameters@75@@Z@4HA 000000018001b910 f    CIL library: CIL module
 0001:0001a930       ?dtor$12@?0??create_handler@RTerminal@SDL_core@ui@modules@UModSys@@UEAA_NPEBUSUniquePointerInfo@core@5@AEAU?$TRefObject@UIRefObject@core@UModSys@@U?$TRefObjectFunc@UIRefObject@core@UModSys@@@tl@3@@tl@5@PEBDPEBUSParameters@75@@Z@4HA 000000018001b930 f    CIL library: CIL module
 0001:0001a950       ?dtor$6@?0??create_handler@RTerminal@SDL_core@ui@modules@UModSys@@UEAA_NPEBUSUniquePointerInfo@core@5@AEAU?$TRefObject@UIRefObject@core@UModSys@@U?$TRefObjectFunc@UIRefObject@core@UModSys@@@tl@3@@tl@5@PEBDPEBUSParameters@75@@Z@4HA 000000018001b950 f    CIL library: CIL module
 0001:0001a970       ?dtor$13@?0??create_handler@RTerminal@SDL_core@ui@modules@UModSys@@UEAA_NPEBUSUniquePointerInfo@core@5@AEAU?$TRefObject@UIRefObject@core@UModSys@@U?$TRefObjectFunc@UIRefObject@core@UModSys@@@tl@3@@tl@5@PEBDPEBUSParameters@75@@Z@4HA 000000018001b970 f    CIL library: CIL module
 0001:0001a990       ?dtor$7@?0??create_handler@RTerminal@SDL_core@ui@modules@UModSys@@UEAA_NPEBUSUniquePointerInfo@core@5@AEAU?$TRefObject@UIRefObject@core@UModSys@@U?$TRefObjectFunc@UIRefObject@core@UModSys@@@tl@3@@tl@5@PEBDPEBUSParameters@75@@Z@4HA 000000018001b990 f    CIL library: CIL module
 0001:0001a9b0       ?dtor$15@?0??create_handler@RTerminal@SDL_core@ui@modules@UModSys@@UEAA_NPEBUSUniquePointerInfo@core@5@AEAU?$TRefObject@UIRefObject@core@UModSys@@U?$TRefObjectFunc@UIRefObject@core@UModSys@@@tl@3@@tl@5@PEBDPEBUSParameters@75@@Z@4HA 000000018001b9b0 f    CIL library: CIL module
 0001:0001a9c8       ?dtor$0@?0??generate@RGenerator@test1@test@modules@UModSys@@UEAA_NAEAU?$TRefObject@UIRefObject@core@UModSys@@U?$TRefObjectFunc@UIRefObject@core@UModSys@@@tl@3@@tl@5@PEBUSUniquePointerInfo@core@5@AEBUSParameters@95@@Z@4HA 000000018001b9c8 f    CIL library: CIL module
 0001:0001a9e4       ?dtor$0@?0??frame_create_s@RCollector@frames@ui@modules@UModSys@@UEAAPEAUIFrame@libui@5@AEBU?$TString@U?$TSCoreConst@D@su@tl@UModSys@@U?$TComparerBinaryHash@D@234@@tl@5@AEBUSFrameCreateParameters@75@PEBUSParameters@core@5@@Z@4HA 000000018001b9e4 f    CIL library: CIL module
 0001:0001aa04       ?dtor$1@?0??frame_create_s@RCollector@frames@ui@modules@UModSys@@UEAAPEAUIFrame@libui@5@AEBU?$TString@U?$TSCoreConst@D@su@tl@UModSys@@U?$TComparerBinaryHash@D@234@@tl@5@AEBUSFrameCreateParameters@75@PEBUSParameters@core@5@@Z@4HA 000000018001ba04 f    CIL library: CIL module
 0001:0001aa24       ?dtor$2@?0??frame_create_s@RCollector@frames@ui@modules@UModSys@@UEAAPEAUIFrame@libui@5@AEBU?$TString@U?$TSCoreConst@D@su@tl@UModSys@@U?$TComparerBinaryHash@D@234@@tl@5@AEBUSFrameCreateParameters@75@PEBUSParameters@core@5@@Z@4HA 000000018001ba24 f    CIL library: CIL module
 0001:0001aa44       ?dtor$3@?0??frame_create_s@RCollector@frames@ui@modules@UModSys@@UEAAPEAUIFrame@libui@5@AEBU?$TString@U?$TSCoreConst@D@su@tl@UModSys@@U?$TComparerBinaryHash@D@234@@tl@5@AEBUSFrameCreateParameters@75@PEBUSParameters@core@5@@Z@4HA 000000018001ba44 f    CIL library: CIL module
 0001:0001aa64       ?dtor$4@?0??frame_create_s@RCollector@frames@ui@modules@UModSys@@UEAAPEAUIFrame@libui@5@AEBU?$TString@U?$TSCoreConst@D@su@tl@UModSys@@U?$TComparerBinaryHash@D@234@@tl@5@AEBUSFrameCreateParameters@75@PEBUSParameters@core@5@@Z@4HA 000000018001ba64 f    CIL library: CIL module
 0001:0001aa84       ?dtor$5@?0??frame_create_s@RCollector@frames@ui@modules@UModSys@@UEAAPEAUIFrame@libui@5@AEBU?$TString@U?$TSCoreConst@D@su@tl@UModSys@@U?$TComparerBinaryHash@D@234@@tl@5@AEBUSFrameCreateParameters@75@PEBUSParameters@core@5@@Z@4HA 000000018001ba84 f    CIL library: CIL module
 0001:0001aaa4       ?dtor$6@?0??frame_create_s@RCollector@frames@ui@modules@UModSys@@UEAAPEAUIFrame@libui@5@AEBU?$TString@U?$TSCoreConst@D@su@tl@UModSys@@U?$TComparerBinaryHash@D@234@@tl@5@AEBUSFrameCreateParameters@75@PEBUSParameters@core@5@@Z@4HA 000000018001baa4 f    CIL library: CIL module
 0001:0001aabc       ?dtor$0@?0??frame_create_n@RCollector@frames@ui@modules@UModSys@@UEAAPEAUIFrame@libui@5@HAEBUSFrameCreateParameters@75@PEBUSParameters@core@5@@Z@4HA 000000018001babc f    CIL library: CIL module
 0001:0001aadc       ?dtor$1@?0??frame_create_n@RCollector@frames@ui@modules@UModSys@@UEAAPEAUIFrame@libui@5@HAEBUSFrameCreateParameters@75@PEBUSParameters@core@5@@Z@4HA 000000018001badc f    CIL library: CIL module
 0001:0001aafc       ?dtor$2@?0??frame_create_n@RCollector@frames@ui@modules@UModSys@@UEAAPEAUIFrame@libui@5@HAEBUSFrameCreateParameters@75@PEBUSParameters@core@5@@Z@4HA 000000018001bafc f    CIL library: CIL module
 0001:0001ab1c       ?dtor$3@?0??frame_create_n@RCollector@frames@ui@modules@UModSys@@UEAAPEAUIFrame@libui@5@HAEBUSFrameCreateParameters@75@PEBUSParameters@core@5@@Z@4HA 000000018001bb1c f    CIL library: CIL module
 0001:0001ab3c       ?dtor$4@?0??frame_create_n@RCollector@frames@ui@modules@UModSys@@UEAAPEAUIFrame@libui@5@HAEBUSFrameCreateParameters@75@PEBUSParameters@core@5@@Z@4HA 000000018001bb3c f    CIL library: CIL module
 0001:0001ab5c       ?dtor$5@?0??frame_create_n@RCollector@frames@ui@modules@UModSys@@UEAAPEAUIFrame@libui@5@HAEBUSFrameCreateParameters@75@PEBUSParameters@core@5@@Z@4HA 000000018001bb5c f    CIL library: CIL module
 0001:0001ab7c       ?dtor$6@?0??frame_create_n@RCollector@frames@ui@modules@UModSys@@UEAAPEAUIFrame@libui@5@HAEBUSFrameCreateParameters@75@PEBUSParameters@core@5@@Z@4HA 000000018001bb7c f    CIL library: CIL module
 0001:0001ab94       ?dtor$0@?0??data_reader@RBinArchiveFrameClient_ZIP@zlib@media@modules@UModSys@@UEAA?AU?$TRefObject@UIStreamReader@libmedia@UModSys@@U?$TRefObjectFunc@UIStreamReader@libmedia@UModSys@@@tl@3@@tl@5@PEAUIBinArchiveFrame@libmedia@5@PEAUNameNode@895@AEBUSFlags@95@@Z@4HA 000000018001bb94 f    CIL library: CIL module
 0001:0001abc4       ?dtor$1@?0??data_reader@RBinArchiveFrameClient_ZIP@zlib@media@modules@UModSys@@UEAA?AU?$TRefObject@UIStreamReader@libmedia@UModSys@@U?$TRefObjectFunc@UIStreamReader@libmedia@UModSys@@@tl@3@@tl@5@PEAUIBinArchiveFrame@libmedia@5@PEAUNameNode@895@AEBUSFlags@95@@Z@4HA 000000018001bbc4 f    CIL library: CIL module
 0001:0001abdc       ?dtor$0@?0??data_save@RBinArchiveFrameClient_ZIP@zlib@media@modules@UModSys@@UEAA_NPEAUIBinArchiveFrame@libmedia@5@AEBUSCMem@core@5@AEBU?$TString@U?$TSCoreConst@D@su@tl@UModSys@@U?$TComparerBinaryHash@D@234@@tl@5@AEBUSFlags@75@@Z@4HA 000000018001bbdc f    CIL library: CIL module
 0001:0001abfc       ?dtor$2@?0??data_save@RBinArchiveFrameClient_ZIP@zlib@media@modules@UModSys@@UEAA_NPEAUIBinArchiveFrame@libmedia@5@AEBUSCMem@core@5@AEBU?$TString@U?$TSCoreConst@D@su@tl@UModSys@@U?$TComparerBinaryHash@D@234@@tl@5@AEBUSFlags@75@@Z@4HA 000000018001bbfc f    CIL library: CIL module
 0001:0001ac1c       ?dtor$3@?0??data_save@RBinArchiveFrameClient_ZIP@zlib@media@modules@UModSys@@UEAA_NPEAUIBinArchiveFrame@libmedia@5@AEBUSCMem@core@5@AEBU?$TString@U?$TSCoreConst@D@su@tl@UModSys@@U?$TComparerBinaryHash@D@234@@tl@5@AEBUSFlags@75@@Z@4HA 000000018001bc1c f    CIL library: CIL module
 0001:0001ac3c       ?dtor$4@?0??data_save@RBinArchiveFrameClient_ZIP@zlib@media@modules@UModSys@@UEAA_NPEAUIBinArchiveFrame@libmedia@5@AEBUSCMem@core@5@AEBU?$TString@U?$TSCoreConst@D@su@tl@UModSys@@U?$TComparerBinaryHash@D@234@@tl@5@AEBUSFlags@75@@Z@4HA 000000018001bc3c f    CIL library: CIL module
 0001:0001ac5c       ?dtor$5@?0??data_save@RBinArchiveFrameClient_ZIP@zlib@media@modules@UModSys@@UEAA_NPEAUIBinArchiveFrame@libmedia@5@AEBUSCMem@core@5@AEBU?$TString@U?$TSCoreConst@D@su@tl@UModSys@@U?$TComparerBinaryHash@D@234@@tl@5@AEBUSFlags@75@@Z@4HA 000000018001bc5c f    CIL library: CIL module
 0001:0001ac78       ?dtor$0@?0??data_load@RBinArchiveFrameClient_ZIP@zlib@media@modules@UModSys@@UEAA_NPEAUIBinArchiveFrame@libmedia@5@AEAUSCMemShared@core@5@PEAUNameNode@675@AEBUSFlags@75@@Z@4HA 000000018001bc78 f    CIL library: CIL module
 0001:0001ac98       ?dtor$1@?0??data_load@RBinArchiveFrameClient_ZIP@zlib@media@modules@UModSys@@UEAA_NPEAUIBinArchiveFrame@libmedia@5@AEAUSCMemShared@core@5@PEAUNameNode@675@AEBUSFlags@75@@Z@4HA 000000018001bc98 f    CIL library: CIL module
 0001:0001acb8       ?dtor$3@?0??data_load@RBinArchiveFrameClient_ZIP@zlib@media@modules@UModSys@@UEAA_NPEAUIBinArchiveFrame@libmedia@5@AEAUSCMemShared@core@5@PEAUNameNode@675@AEBUSFlags@75@@Z@4HA 000000018001bcb8 f    CIL library: CIL module
 0001:0001acd8       ?dtor$4@?0??data_load@RBinArchiveFrameClient_ZIP@zlib@media@modules@UModSys@@UEAA_NPEAUIBinArchiveFrame@libmedia@5@AEAUSCMemShared@core@5@PEAUNameNode@675@AEBUSFlags@75@@Z@4HA 000000018001bcd8 f    CIL library: CIL module
 0001:0001acf8       ?dtor$5@?0??data_load@RBinArchiveFrameClient_ZIP@zlib@media@modules@UModSys@@UEAA_NPEAUIBinArchiveFrame@libmedia@5@AEAUSCMemShared@core@5@PEAUNameNode@675@AEBUSFlags@75@@Z@4HA 000000018001bcf8 f    CIL library: CIL module
 0001:0001ad18       ?dtor$6@?0??data_load@RBinArchiveFrameClient_ZIP@zlib@media@modules@UModSys@@UEAA_NPEAUIBinArchiveFrame@libmedia@5@AEAUSCMemShared@core@5@PEAUNameNode@675@AEBUSFlags@75@@Z@4HA 000000018001bd18 f    CIL library: CIL module
 0001:0001ad38       ?dtor$7@?0??data_load@RBinArchiveFrameClient_ZIP@zlib@media@modules@UModSys@@UEAA_NPEAUIBinArchiveFrame@libmedia@5@AEAUSCMemShared@core@5@PEAUNameNode@675@AEBUSFlags@75@@Z@4HA 000000018001bd38 f    CIL library: CIL module
 0001:0001ad58       ?dtor$8@?0??data_load@RBinArchiveFrameClient_ZIP@zlib@media@modules@UModSys@@UEAA_NPEAUIBinArchiveFrame@libmedia@5@AEAUSCMemShared@core@5@PEAUNameNode@675@AEBUSFlags@75@@Z@4HA 000000018001bd58 f    CIL library: CIL module
 0001:0001ad74       ??__Es_dbg@test1@test@modules@UModSys@@YAXXZ 000000018001bd74 f    CIL library: CIL module
 0001:0001ad80       ??__E?s_modreg@RModuleReg@test1@test@modules@UModSys@@2U12345@A@@YAXXZ 000000018001bd80 f    CIL library: CIL module
 0001:0001ade8       ??__E?s_modreg_chain@RModuleReg@test1@test@modules@UModSys@@2USModuleRegChain@base@5@A@@YAXXZ 000000018001bde8 f    CIL library: CIL module
 0001:0001ae10       ??__E?s_uid@RGenerator@test1@test@modules@UModSys@@2USUniquePointer@core@5@A@@YAXXZ 000000018001be10 f    CIL library: CIL module
 0001:0001ae44       ??__E?s_id@?$TObjectUniqueID@UIRoot@core@UModSys@@@tl@UModSys@@2USUniquePointer@core@3@A@@YAXXZ 000000018001be44 f    CIL library: CIL module
 0001:0001ae78       ??__E?s_id@?$TObjectUniqueID@UIRefObject@core@UModSys@@@tl@UModSys@@2USUniquePointer@core@3@A@@YAXXZ 000000018001be78 f    CIL library: CIL module
 0001:0001aeac       ??__E?s_id@?$TObjectUniqueID@UIParameters@core@UModSys@@@tl@UModSys@@2USUniquePointer@core@3@A@@YAXXZ 000000018001beac f    CIL library: CIL module
 0001:0001aee0       ??__E?s_id@?$TObjectUniqueID@UIConsole@base@UModSys@@@tl@UModSys@@2USUniquePointer@core@3@A@@YAXXZ 000000018001bee0 f    CIL library: CIL module
 0001:0001af14       ??__E?s_id@?$TObjectUniqueID@UIModule@base@UModSys@@@tl@UModSys@@2USUniquePointer@core@3@A@@YAXXZ 000000018001bf14 f    CIL library: CIL module
 0001:0001af48       ??__E?s_id@?$TObjectUniqueID@UIModuleLibrary@base@UModSys@@@tl@UModSys@@2USUniquePointer@core@3@A@@YAXXZ 000000018001bf48 f    CIL library: CIL module
 0001:0001af7c       ??__E?s_id@?$TObjectUniqueID@UIModObject@base@UModSys@@@tl@UModSys@@2USUniquePointer@core@3@A@@YAXXZ 000000018001bf7c f    CIL library: CIL module
 0001:0001afb0       ??__E?s_id@?$TObjectUniqueID@UIGenerator@base@UModSys@@@tl@UModSys@@2USUniquePointer@core@3@A@@YAXXZ 000000018001bfb0 f    CIL library: CIL module
 0001:0001afe4       ??__E?s_id@?$TObjectUniqueID@UIShell@base@UModSys@@@tl@UModSys@@2USUniquePointer@core@3@A@@YAXXZ 000000018001bfe4 f    CIL library: CIL module
 0001:0001b018       ??__E?s_id@?$TObjectUniqueID@UISystem@base@UModSys@@@tl@UModSys@@2USUniquePointer@core@3@A@@YAXXZ 000000018001c018 f    CIL library: CIL module
 0001:0001b04c       ??__E?s_id@?$TObjectUniqueID@UIStreamReader@libmedia@UModSys@@@tl@UModSys@@2USUniquePointer@core@3@A@@YAXXZ 000000018001c04c f    CIL library: CIL module
 0001:0001b080       ??__E?s_id@?$TObjectUniqueID@UIStreamWriter@libmedia@UModSys@@@tl@UModSys@@2USUniquePointer@core@3@A@@YAXXZ 000000018001c080 f    CIL library: CIL module
 0001:0001b0b4       ??__E?s_id@?$TObjectUniqueID@UIUtilities@libmedia@UModSys@@@tl@UModSys@@2USUniquePointer@core@3@A@@YAXXZ 000000018001c0b4 f    CIL library: CIL module
 0001:0001b0e8       ??__E?s_id@?$TObjectUniqueID@UILibObject@libmedia@UModSys@@@tl@UModSys@@2USUniquePointer@core@3@A@@YAXXZ 000000018001c0e8 f    CIL library: CIL module
 0001:0001b11c       ??__E?s_id@?$TObjectUniqueID@UIBinArchive@libmedia@UModSys@@@tl@UModSys@@2USUniquePointer@core@3@A@@YAXXZ 000000018001c11c f    CIL library: CIL module
 0001:0001b150       ??__E?s_id@?$TObjectUniqueID@UIBinObjFilter@libmedia@UModSys@@@tl@UModSys@@2USUniquePointer@core@3@A@@YAXXZ 000000018001c150 f    CIL library: CIL module
 0001:0001b184       ??__E?s_id@?$TObjectUniqueID@UILibrary@libmedia@UModSys@@@tl@UModSys@@2USUniquePointer@core@3@A@@YAXXZ 000000018001c184 f    CIL library: CIL module
 0001:0001b1b8       ??__E?s_id@?$TObjectUniqueID@UILibraryBinTree@libmedia@UModSys@@@tl@UModSys@@2USUniquePointer@core@3@A@@YAXXZ 000000018001c1b8 f    CIL library: CIL module
 0001:0001b1ec       ??__E?s_id@?$TObjectUniqueID@UILibraryBinCache@libmedia@UModSys@@@tl@UModSys@@2USUniquePointer@core@3@A@@YAXXZ 000000018001c1ec f    CIL library: CIL module
 0001:0001b220       ??__E?s_id@?$TObjectUniqueID@UILibraryObjFilter@libmedia@UModSys@@@tl@UModSys@@2USUniquePointer@core@3@A@@YAXXZ 000000018001c220 f    CIL library: CIL module
 0001:0001b254       ??__E?s_id@?$TObjectUniqueID@UILibraryObjCache@libmedia@UModSys@@@tl@UModSys@@2USUniquePointer@core@3@A@@YAXXZ 000000018001c254 f    CIL library: CIL module
 0001:0001b288       ??__E?s_id@?$TObjectUniqueID@UILibraryLayered@libmedia@UModSys@@@tl@UModSys@@2USUniquePointer@core@3@A@@YAXXZ 000000018001c288 f    CIL library: CIL module
 0001:0001b2bc       ??__E?s_id@?$TObjectUniqueID@UIBinArchiveFrame@libmedia@UModSys@@@tl@UModSys@@2USUniquePointer@core@3@A@@YAXXZ 000000018001c2bc f    CIL library: CIL module
 0001:0001b2f0       ??__E?s_id@?$TObjectUniqueID@UIClient@IBinArchiveFrame@libmedia@UModSys@@@tl@UModSys@@2USUniquePointer@core@3@A@@YAXXZ 000000018001c2f0 f    CIL library: CIL module
 0001:0001b324       ??__E?s_id@?$TObjectUniqueID@UISerializeReader@libmedia@UModSys@@@tl@UModSys@@2USUniquePointer@core@3@A@@YAXXZ 000000018001c324 f    CIL library: CIL module
 0001:0001b358       ??__E?s_id@?$TObjectUniqueID@UISerializeWriter@libmedia@UModSys@@@tl@UModSys@@2USUniquePointer@core@3@A@@YAXXZ 000000018001c358 f    CIL library: CIL module
 0001:0001b38c       ??__E?s_id@?$TObjectUniqueID@UIConsoleExt@base@UModSys@@@tl@UModSys@@2USUniquePointer@core@3@A@@YAXXZ 000000018001c38c f    CIL library: CIL module
 0001:0001b3c0       ??__E?s_id@?$TObjectUniqueID@UIConsoleHelper@base@UModSys@@@tl@UModSys@@2USUniquePointer@core@3@A@@YAXXZ 000000018001c3c0 f    CIL library: CIL module
 0001:0001b3f4       ??__E?s_id@?$TObjectUniqueID@UIConsoleHelperHistory@base@UModSys@@@tl@UModSys@@2USUniquePointer@core@3@A@@YAXXZ 000000018001c3f4 f    CIL library: CIL module
 0001:0001b428       ??__E?s_id@?$TObjectUniqueID@UIConsoleHelperInput@base@UModSys@@@tl@UModSys@@2USUniquePointer@core@3@A@@YAXXZ 000000018001c428 f    CIL library: CIL module
 0001:0001b45c       ??__E?s_id@?$TObjectUniqueID@UIConsoleHelperOutput@base@UModSys@@@tl@UModSys@@2USUniquePointer@core@3@A@@YAXXZ 000000018001c45c f    CIL library: CIL module
 0001:0001b490       ??__E?s_id@?$TObjectUniqueID@UIConsoleHelperOutputFCS@base@UModSys@@@tl@UModSys@@2USUniquePointer@core@3@A@@YAXXZ 000000018001c490 f    CIL library: CIL module
 0001:0001b4c4       ??__E?s_id@?$TObjectUniqueID@UIKeyboardController@libui@UModSys@@@tl@UModSys@@2USUniquePointer@core@3@A@@YAXXZ 000000018001c4c4 f    CIL library: CIL module
 0001:0001b4f8       ??__E?s_id@?$TObjectUniqueID@UIMouseController@libui@UModSys@@@tl@UModSys@@2USUniquePointer@core@3@A@@YAXXZ 000000018001c4f8 f    CIL library: CIL module
 0001:0001b52c       ??__E?s_id@?$TObjectUniqueID@UIJoystickController@libui@UModSys@@@tl@UModSys@@2USUniquePointer@core@3@A@@YAXXZ 000000018001c52c f    CIL library: CIL module
 0001:0001b560       ??__E?s_id@?$TObjectUniqueID@UITerminal@libui@UModSys@@@tl@UModSys@@2USUniquePointer@core@3@A@@YAXXZ 000000018001c560 f    CIL library: CIL module
 0001:0001b594       ??__E?s_id@?$TObjectUniqueID@UIConsoleHelperInput_UIKey@libui@UModSys@@@tl@UModSys@@2USUniquePointer@core@3@A@@YAXXZ 000000018001c594 f    CIL library: CIL module
 0001:0001b5c8       ??__E?s_id@?$TObjectUniqueID@UICollector@libui@UModSys@@@tl@UModSys@@2USUniquePointer@core@3@A@@YAXXZ 000000018001c5c8 f    CIL library: CIL module
 0001:0001b5fc       ??__E?s_id@?$TObjectUniqueID@UIAsyncController@libui@UModSys@@@tl@UModSys@@2USUniquePointer@core@3@A@@YAXXZ 000000018001c5fc f    CIL library: CIL module
 0001:0001b630       ??__E?s_id@?$TObjectUniqueID@UIAsyncCollector@libui@UModSys@@@tl@UModSys@@2USUniquePointer@core@3@A@@YAXXZ 000000018001c630 f    CIL library: CIL module
 0001:0001b664       ??__E?s_id@?$TObjectUniqueID@UIFrame@libui@UModSys@@@tl@UModSys@@2USUniquePointer@core@3@A@@YAXXZ 000000018001c664 f    CIL library: CIL module
 0001:0001b698       ??__E?s_id@?$TObjectUniqueID@UIDialog@libui@UModSys@@@tl@UModSys@@2USUniquePointer@core@3@A@@YAXXZ 000000018001c698 f    CIL library: CIL module
 0001:0001b6cc       ??__E?s_id@?$TObjectUniqueID@UIImage@lib2d@UModSys@@@tl@UModSys@@2USUniquePointer@core@3@A@@YAXXZ 000000018001c6cc f    CIL library: CIL module
 0001:0001b700       ??__E?s_id@?$TObjectUniqueID@UIImageFactory@lib2d@UModSys@@@tl@UModSys@@2USUniquePointer@core@3@A@@YAXXZ 000000018001c700 f    CIL library: CIL module
 0001:0001b734       ??__E?s_id@?$TObjectUniqueID@UIMultiImage@lib2d@UModSys@@@tl@UModSys@@2USUniquePointer@core@3@A@@YAXXZ 000000018001c734 f    CIL library: CIL module
 0001:0001b768       ??__E?s_id@?$TObjectUniqueID@UIRenderDriver@lib2d@UModSys@@@tl@UModSys@@2USUniquePointer@core@3@A@@YAXXZ 000000018001c768 f    CIL library: CIL module
 0001:0001b79c       ??__E?s_id@?$TObjectUniqueID@UILines@test1@test@modules@UModSys@@@tl@UModSys@@2USUniquePointer@core@3@A@@YAXXZ 000000018001c79c f    CIL library: CIL module
 0001:0001b7d0       ??__E?s_id@?$TObjectUniqueID@URLines@test1@test@modules@UModSys@@@tl@UModSys@@2USUniquePointer@core@3@A@@YAXXZ 000000018001c7d0 f    CIL library: CIL module
 0001:0001b804       ??__E?s_id@?$TObjectUniqueID@URLines_Filter@test1@test@modules@UModSys@@@tl@UModSys@@2USUniquePointer@core@3@A@@YAXXZ 000000018001c804 f    CIL library: CIL module
 0001:0001b838       ??__E?s_id@?$TObjectUniqueID@URTest1_Shell@test1@test@modules@UModSys@@@tl@UModSys@@2USUniquePointer@core@3@A@@YAXXZ 000000018001c838 f    CIL library: CIL module
 0001:0001b86c       ??__E?s_id@?$TObjectUniqueID@URGenerator@test1@test@modules@UModSys@@@tl@UModSys@@2USUniquePointer@core@3@A@@YAXXZ 000000018001c86c f    CIL library: CIL module
 0001:0001b8a0       ??__Es_dbg@stdlib@lib2d@modules@UModSys@@YAXXZ 000000018001c8a0 f    CIL library: CIL module
 0001:0001b8ac       ??__E?s_modreg@RModuleReg@stdlib@lib2d@modules@UModSys@@2U12345@A@@YAXXZ 000000018001c8ac f    CIL library: CIL module
 0001:0001b914       ??__E?s_modreg_chain@RModuleReg@stdlib@lib2d@modules@UModSys@@2USModuleRegChain@base@5@A@@YAXXZ 000000018001c914 f    CIL library: CIL module
 0001:0001b93c       ??__E?s_uid@RGenerator@stdlib@lib2d@modules@UModSys@@2USUniquePointer@core@5@A@@YAXXZ 000000018001c93c f    CIL library: CIL module
 0001:0001b970       ??__E?s_id@?$TObjectUniqueID@URImage_Memory@stdlib@lib2d@modules@UModSys@@@tl@UModSys@@2USUniquePointer@core@3@A@@YAXXZ 000000018001c970 f    CIL library: CIL module
 0001:0001b9a4       ??__E?s_id@?$TObjectUniqueID@URImageFactory_Memory@stdlib@lib2d@modules@UModSys@@@tl@UModSys@@2USUniquePointer@core@3@A@@YAXXZ 000000018001c9a4 f    CIL library: CIL module
 0001:0001b9d8       ??__E?s_id@?$TObjectUniqueID@URMultiImage@stdlib@lib2d@modules@UModSys@@@tl@UModSys@@2USUniquePointer@core@3@A@@YAXXZ 000000018001c9d8 f    CIL library: CIL module
 0001:0001ba0c       ??__E?s_id@?$TObjectUniqueID@URGenerator@stdlib@lib2d@modules@UModSys@@@tl@UModSys@@2USUniquePointer@core@3@A@@YAXXZ 000000018001ca0c f    CIL library: CIL module
 0001:0001ba40       ??__Es_dbg@SDL_core@ui@modules@UModSys@@YAXXZ 000000018001ca40 f    CIL library: CIL module
 0001:0001ba4c       ??__E?s_modreg@RModuleReg@SDL_core@ui@modules@UModSys@@2U12345@A@@YAXXZ 000000018001ca4c f    CIL library: CIL module
 0001:0001bab4       ??__E?s_modreg_chain@RModuleReg@SDL_core@ui@modules@UModSys@@2USModuleRegChain@base@5@A@@YAXXZ 000000018001cab4 f    CIL library: CIL module
 0001:0001badc       ??__E?s_uid@RGenerator@SDL_core@ui@modules@UModSys@@2USUniquePointer@core@5@A@@YAXXZ 000000018001cadc f    CIL library: CIL module
 0001:0001bb10       ??__E?s_id@?$TObjectUniqueID@URMultiImage2D_SDL_ttf@SDL_core@ui@modules@UModSys@@@tl@UModSys@@2USUniquePointer@core@3@A@@YAXXZ 000000018001cb10 f    CIL library: CIL module
 0001:0001bb44       ??__E?s_id@?$TObjectUniqueID@URRenderDriver2D@SDL_core@ui@modules@UModSys@@@tl@UModSys@@2USUniquePointer@core@3@A@@YAXXZ 000000018001cb44 f    CIL library: CIL module
 0001:0001bb78       ??__E?s_id@?$TObjectUniqueID@URMouseController@SDL_core@ui@modules@UModSys@@@tl@UModSys@@2USUniquePointer@core@3@A@@YAXXZ 000000018001cb78 f    CIL library: CIL module
 0001:0001bbac       ??__E?s_id@?$TObjectUniqueID@URKeyboardController@SDL_core@ui@modules@UModSys@@@tl@UModSys@@2USUniquePointer@core@3@A@@YAXXZ 000000018001cbac f    CIL library: CIL module
 0001:0001bbe0       ??__E?s_id@?$TObjectUniqueID@URTerminal@SDL_core@ui@modules@UModSys@@@tl@UModSys@@2USUniquePointer@core@3@A@@YAXXZ 000000018001cbe0 f    CIL library: CIL module
 0001:0001bc14       ??__E?s_id@?$TObjectUniqueID@URGenerator@SDL_core@ui@modules@UModSys@@@tl@UModSys@@2USUniquePointer@core@3@A@@YAXXZ 000000018001cc14 f    CIL library: CIL module
 0001:0001bc48       ??__Es_dbg@frames@ui@modules@UModSys@@YAXXZ 000000018001cc48 f    CIL library: CIL module
 0001:0001bc54       ??__E?s_modreg@RModuleReg@frames@ui@modules@UModSys@@2U12345@A@@YAXXZ 000000018001cc54 f    CIL library: CIL module
 0001:0001bcbc       ??__E?s_modreg_chain@RModuleReg@frames@ui@modules@UModSys@@2USModuleRegChain@base@5@A@@YAXXZ 000000018001ccbc f    CIL library: CIL module
 0001:0001bce4       ??__E?s_uid@RGenerator@frames@ui@modules@UModSys@@2USUniquePointer@core@5@A@@YAXXZ 000000018001cce4 f    CIL library: CIL module
 0001:0001bd18       ??__E?s_id@?$TObjectUniqueID@URFrame_Common@frames@ui@modules@UModSys@@@tl@UModSys@@2USUniquePointer@core@3@A@@YAXXZ 000000018001cd18 f    CIL library: CIL module
 0001:0001bd4c       ??__E?s_id@?$TObjectUniqueID@URDialog@frames@ui@modules@UModSys@@@tl@UModSys@@2USUniquePointer@core@3@A@@YAXXZ 000000018001cd4c f    CIL library: CIL module
 0001:0001bd80       ??__E?s_id@?$TObjectUniqueID@URFrame_Frame@frames@ui@modules@UModSys@@@tl@UModSys@@2USUniquePointer@core@3@A@@YAXXZ 000000018001cd80 f    CIL library: CIL module
 0001:0001bdb4       ??__E?s_id@?$TObjectUniqueID@URFrame_Image@frames@ui@modules@UModSys@@@tl@UModSys@@2USUniquePointer@core@3@A@@YAXXZ 000000018001cdb4 f    CIL library: CIL module
 0001:0001bde8       ??__E?s_id@?$TObjectUniqueID@URFrame_Text@frames@ui@modules@UModSys@@@tl@UModSys@@2USUniquePointer@core@3@A@@YAXXZ 000000018001cde8 f    CIL library: CIL module
 0001:0001be1c       ??__E?s_id@?$TObjectUniqueID@URFrame_Button@frames@ui@modules@UModSys@@@tl@UModSys@@2USUniquePointer@core@3@A@@YAXXZ 000000018001ce1c f    CIL library: CIL module
 0001:0001be50       ??__E?s_id@?$TObjectUniqueID@URFrame_Edit@frames@ui@modules@UModSys@@@tl@UModSys@@2USUniquePointer@core@3@A@@YAXXZ 000000018001ce50 f    CIL library: CIL module
 0001:0001be84       ??__E?s_id@?$TObjectUniqueID@URFrame_List@frames@ui@modules@UModSys@@@tl@UModSys@@2USUniquePointer@core@3@A@@YAXXZ 000000018001ce84 f    CIL library: CIL module
 0001:0001beb8       ??__E?s_id@?$TObjectUniqueID@URCollector@frames@ui@modules@UModSys@@@tl@UModSys@@2USUniquePointer@core@3@A@@YAXXZ 000000018001ceb8 f    CIL library: CIL module
 0001:0001beec       ??__E?s_id@?$TObjectUniqueID@URGenerator@frames@ui@modules@UModSys@@@tl@UModSys@@2USUniquePointer@core@3@A@@YAXXZ 000000018001ceec f    CIL library: CIL module
 0001:0001bf20       ??__Es_dbg@images_std@media@modules@UModSys@@YAXXZ 000000018001cf20 f    CIL library: CIL module
 0001:0001bf2c       ??__E?s_modreg@RModuleReg@images_std@media@modules@UModSys@@2U12345@A@@YAXXZ 000000018001cf2c f    CIL library: CIL module
 0001:0001bf94       ??__E?s_modreg_chain@RModuleReg@images_std@media@modules@UModSys@@2USModuleRegChain@base@5@A@@YAXXZ 000000018001cf94 f    CIL library: CIL module
 0001:0001bfbc       ??__E?s_uid@RGenerator@images_std@media@modules@UModSys@@2USUniquePointer@core@5@A@@YAXXZ 000000018001cfbc f    CIL library: CIL module
 0001:0001bff0       ??__E?s_id@?$TObjectUniqueID@URMediaFilter@images_std@media@modules@UModSys@@@tl@UModSys@@2USUniquePointer@core@3@A@@YAXXZ 000000018001cff0 f    CIL library: CIL module
 0001:0001c024       ??__E?s_id@?$TObjectUniqueID@URGenerator@images_std@media@modules@UModSys@@@tl@UModSys@@2USUniquePointer@core@3@A@@YAXXZ 000000018001d024 f    CIL library: CIL module
 0001:0001c058       ??__Es_dbg@serialize_json@media@modules@UModSys@@YAXXZ 000000018001d058 f    CIL library: CIL module
 0001:0001c064       ??__E?s_modreg@RModuleReg@serialize_json@media@modules@UModSys@@2U12345@A@@YAXXZ 000000018001d064 f    CIL library: CIL module
 0001:0001c0c8       ??__E?s_modreg_chain@RModuleReg@serialize_json@media@modules@UModSys@@2USModuleRegChain@base@5@A@@YAXXZ 000000018001d0c8 f    CIL library: CIL module
 0001:0001c0f0       ??__E?s_uid@RGenerator@serialize_json@media@modules@UModSys@@2USUniquePointer@core@5@A@@YAXXZ 000000018001d0f0 f    CIL library: CIL module
 0001:0001c124       ??__E?s_id@?$TObjectUniqueID@URSerializeReader@serialize_json@media@modules@UModSys@@@tl@UModSys@@2USUniquePointer@core@3@A@@YAXXZ 000000018001d124 f    CIL library: CIL module
 0001:0001c158       ??__E?s_id@?$TObjectUniqueID@URSerializeWriter@serialize_json@media@modules@UModSys@@@tl@UModSys@@2USUniquePointer@core@3@A@@YAXXZ 000000018001d158 f    CIL library: CIL module
 0001:0001c18c       ??__E?s_id@?$TObjectUniqueID@URGenerator@serialize_json@media@modules@UModSys@@@tl@UModSys@@2USUniquePointer@core@3@A@@YAXXZ 000000018001d18c f    CIL library: CIL module
 0001:0001c1c0       ??__Es_dbg@zlib@media@modules@UModSys@@YAXXZ 000000018001d1c0 f    CIL library: CIL module
 0001:0001c1cc       ??__E?s_modreg@RModuleReg@zlib@media@modules@UModSys@@2U12345@A@@YAXXZ 000000018001d1cc f    CIL library: CIL module
 0001:0001c230       ??__E?s_modreg_chain@RModuleReg@zlib@media@modules@UModSys@@2USModuleRegChain@base@5@A@@YAXXZ 000000018001d230 f    CIL library: CIL module
 0001:0001c258       ??__E?s_uid@RGenerator@zlib@media@modules@UModSys@@2USUniquePointer@core@5@A@@YAXXZ 000000018001d258 f    CIL library: CIL module
 0001:0001c28c       ??__E?s_id@?$TObjectUniqueID@URBinArchiveFrameClient_ZIP@zlib@media@modules@UModSys@@@tl@UModSys@@2USUniquePointer@core@3@A@@YAXXZ 000000018001d28c f    CIL library: CIL module
 0001:0001c2c0       ??__E?s_id@?$TObjectUniqueID@URGenerator@zlib@media@modules@UModSys@@@tl@UModSys@@2USUniquePointer@core@3@A@@YAXXZ 000000018001d2c0 f    CIL library: CIL module
 0001:0001c2f4       ??__EM@UModSys@@YAXXZ      000000018001d2f4 f    CIL library: CIL module
 0001:0001c300       ??__E?root@SModuleRegChain@base@UModSys@@2U123@A@@YAXXZ 000000018001d300 f    CIL library: CIL module
 0001:0001c30c       ??__E?s_library@RModuleLibraryReg_Chain@base@UModSys@@2U123@A@@YAXXZ 000000018001d30c f    CIL library: CIL module
 0001:0001c318       ??__E?root@SUniquePointer@core@UModSys@@2U123@A@@YAXXZ 000000018001d318 f    CIL library: CIL module
 0001:0001c324       ??__Fs_dbg@test1@test@modules@UModSys@@YAXXZ 000000018001d324 f    CIL library: CIL module
 0001:0001c348       ??__F?s_modreg@RModuleReg@test1@test@modules@UModSys@@2U12345@A@@YAXXZ 000000018001d348 f    CIL library: CIL module
 0001:0001c358       ??__F?s_modreg_chain@RModuleReg@test1@test@modules@UModSys@@2USModuleRegChain@base@5@A@@YAXXZ 000000018001d358 f    CIL library: CIL module
 0001:0001c364       ??__F?s_uid@RGenerator@test1@test@modules@UModSys@@2USUniquePointer@core@5@A@@YAXXZ 000000018001d364 f    CIL library: CIL module
 0001:0001c370       ??__Fh@?1??s_holder@RGenerator@test1@test@modules@UModSys@@SAAEAU?$TTypeStaticHolder@URGenerator@test1@test@modules@UModSys@@@tl@5@XZ@YAXXZ 000000018001d370 f    CIL library: CIL module
 0001:0001c398       ??__F?s_id@?$TObjectUniqueID@URGenerator@test1@test@modules@UModSys@@@tl@UModSys@@2USUniquePointer@core@3@A@@YAXXZ 000000018001d398 f    CIL library: CIL module
 0001:0001c3a4       ??__F?s_id@?$TObjectUniqueID@URTest1_Shell@test1@test@modules@UModSys@@@tl@UModSys@@2USUniquePointer@core@3@A@@YAXXZ 000000018001d3a4 f    CIL library: CIL module
 0001:0001c3b0       ??__F?s_id@?$TObjectUniqueID@URLines_Filter@test1@test@modules@UModSys@@@tl@UModSys@@2USUniquePointer@core@3@A@@YAXXZ 000000018001d3b0 f    CIL library: CIL module
 0001:0001c3bc       ??__F?s_id@?$TObjectUniqueID@URLines@test1@test@modules@UModSys@@@tl@UModSys@@2USUniquePointer@core@3@A@@YAXXZ 000000018001d3bc f    CIL library: CIL module
 0001:0001c3c8       ??__F?s_id@?$TObjectUniqueID@UILines@test1@test@modules@UModSys@@@tl@UModSys@@2USUniquePointer@core@3@A@@YAXXZ 000000018001d3c8 f    CIL library: CIL module
 0001:0001c3d4       ??__F?s_id@?$TObjectUniqueID@UIRenderDriver@lib2d@UModSys@@@tl@UModSys@@2USUniquePointer@core@3@A@@YAXXZ 000000018001d3d4 f    CIL library: CIL module
 0001:0001c3e0       ??__F?s_id@?$TObjectUniqueID@UIMultiImage@lib2d@UModSys@@@tl@UModSys@@2USUniquePointer@core@3@A@@YAXXZ 000000018001d3e0 f    CIL library: CIL module
 0001:0001c3ec       ??__F?s_id@?$TObjectUniqueID@UIImageFactory@lib2d@UModSys@@@tl@UModSys@@2USUniquePointer@core@3@A@@YAXXZ 000000018001d3ec f    CIL library: CIL module
 0001:0001c3f8       ??__F?s_id@?$TObjectUniqueID@UIImage@lib2d@UModSys@@@tl@UModSys@@2USUniquePointer@core@3@A@@YAXXZ 000000018001d3f8 f    CIL library: CIL module
 0001:0001c404       ??__F?s_id@?$TObjectUniqueID@UIDialog@libui@UModSys@@@tl@UModSys@@2USUniquePointer@core@3@A@@YAXXZ 000000018001d404 f    CIL library: CIL module
 0001:0001c410       ??__F?s_id@?$TObjectUniqueID@UIFrame@libui@UModSys@@@tl@UModSys@@2USUniquePointer@core@3@A@@YAXXZ 000000018001d410 f    CIL library: CIL module
 0001:0001c41c       ??__F?s_id@?$TObjectUniqueID@UIAsyncCollector@libui@UModSys@@@tl@UModSys@@2USUniquePointer@core@3@A@@YAXXZ 000000018001d41c f    CIL library: CIL module
 0001:0001c428       ??__F?s_id@?$TObjectUniqueID@UIAsyncController@libui@UModSys@@@tl@UModSys@@2USUniquePointer@core@3@A@@YAXXZ 000000018001d428 f    CIL library: CIL module
 0001:0001c434       ??__F?s_id@?$TObjectUniqueID@UICollector@libui@UModSys@@@tl@UModSys@@2USUniquePointer@core@3@A@@YAXXZ 000000018001d434 f    CIL library: CIL module
 0001:0001c440       ??__F?s_id@?$TObjectUniqueID@UIConsoleHelperInput_UIKey@libui@UModSys@@@tl@UModSys@@2USUniquePointer@core@3@A@@YAXXZ 000000018001d440 f    CIL library: CIL module
 0001:0001c44c       ??__F?s_id@?$TObjectUniqueID@UITerminal@libui@UModSys@@@tl@UModSys@@2USUniquePointer@core@3@A@@YAXXZ 000000018001d44c f    CIL library: CIL module
 0001:0001c458       ??__F?s_id@?$TObjectUniqueID@UIJoystickController@libui@UModSys@@@tl@UModSys@@2USUniquePointer@core@3@A@@YAXXZ 000000018001d458 f    CIL library: CIL module
 0001:0001c464       ??__F?s_id@?$TObjectUniqueID@UIMouseController@libui@UModSys@@@tl@UModSys@@2USUniquePointer@core@3@A@@YAXXZ 000000018001d464 f    CIL library: CIL module
 0001:0001c470       ??__F?s_id@?$TObjectUniqueID@UIKeyboardController@libui@UModSys@@@tl@UModSys@@2USUniquePointer@core@3@A@@YAXXZ 000000018001d470 f    CIL library: CIL module
 0001:0001c47c       ??__F?s_id@?$TObjectUniqueID@UIConsoleHelperOutputFCS@base@UModSys@@@tl@UModSys@@2USUniquePointer@core@3@A@@YAXXZ 000000018001d47c f    CIL library: CIL module
 0001:0001c488       ??__F?s_id@?$TObjectUniqueID@UIConsoleHelperOutput@base@UModSys@@@tl@UModSys@@2USUniquePointer@core@3@A@@YAXXZ 000000018001d488 f    CIL library: CIL module
 0001:0001c494       ??__F?s_id@?$TObjectUniqueID@UIConsoleHelperInput@base@UModSys@@@tl@UModSys@@2USUniquePointer@core@3@A@@YAXXZ 000000018001d494 f    CIL library: CIL module
 0001:0001c4a0       ??__F?s_id@?$TObjectUniqueID@UIConsoleHelperHistory@base@UModSys@@@tl@UModSys@@2USUniquePointer@core@3@A@@YAXXZ 000000018001d4a0 f    CIL library: CIL module
 0001:0001c4ac       ??__F?s_id@?$TObjectUniqueID@UIConsoleHelper@base@UModSys@@@tl@UModSys@@2USUniquePointer@core@3@A@@YAXXZ 000000018001d4ac f    CIL library: CIL module
 0001:0001c4b8       ??__F?s_id@?$TObjectUniqueID@UIConsoleExt@base@UModSys@@@tl@UModSys@@2USUniquePointer@core@3@A@@YAXXZ 000000018001d4b8 f    CIL library: CIL module
 0001:0001c4c4       ??__F?s_id@?$TObjectUniqueID@UISerializeWriter@libmedia@UModSys@@@tl@UModSys@@2USUniquePointer@core@3@A@@YAXXZ 000000018001d4c4 f    CIL library: CIL module
 0001:0001c4d0       ??__F?s_id@?$TObjectUniqueID@UISerializeReader@libmedia@UModSys@@@tl@UModSys@@2USUniquePointer@core@3@A@@YAXXZ 000000018001d4d0 f    CIL library: CIL module
 0001:0001c4dc       ??__F?s_id@?$TObjectUniqueID@UIClient@IBinArchiveFrame@libmedia@UModSys@@@tl@UModSys@@2USUniquePointer@core@3@A@@YAXXZ 000000018001d4dc f    CIL library: CIL module
 0001:0001c4e8       ??__F?s_id@?$TObjectUniqueID@UIBinArchiveFrame@libmedia@UModSys@@@tl@UModSys@@2USUniquePointer@core@3@A@@YAXXZ 000000018001d4e8 f    CIL library: CIL module
 0001:0001c4f4       ??__F?s_id@?$TObjectUniqueID@UILibraryLayered@libmedia@UModSys@@@tl@UModSys@@2USUniquePointer@core@3@A@@YAXXZ 000000018001d4f4 f    CIL library: CIL module
 0001:0001c500       ??__F?s_id@?$TObjectUniqueID@UILibraryObjCache@libmedia@UModSys@@@tl@UModSys@@2USUniquePointer@core@3@A@@YAXXZ 000000018001d500 f    CIL library: CIL module
 0001:0001c50c       ??__F?s_id@?$TObjectUniqueID@UILibraryObjFilter@libmedia@UModSys@@@tl@UModSys@@2USUniquePointer@core@3@A@@YAXXZ 000000018001d50c f    CIL library: CIL module
 0001:0001c518       ??__F?s_id@?$TObjectUniqueID@UILibraryBinCache@libmedia@UModSys@@@tl@UModSys@@2USUniquePointer@core@3@A@@YAXXZ 000000018001d518 f    CIL library: CIL module
 0001:0001c524       ??__F?s_id@?$TObjectUniqueID@UILibraryBinTree@libmedia@UModSys@@@tl@UModSys@@2USUniquePointer@core@3@A@@YAXXZ 000000018001d524 f    CIL library: CIL module
 0001:0001c530       ??__F?s_id@?$TObjectUniqueID@UILibrary@libmedia@UModSys@@@tl@UModSys@@2USUniquePointer@core@3@A@@YAXXZ 000000018001d530 f    CIL library: CIL module
 0001:0001c53c       ??__F?s_id@?$TObjectUniqueID@UIBinObjFilter@libmedia@UModSys@@@tl@UModSys@@2USUniquePointer@core@3@A@@YAXXZ 000000018001d53c f    CIL library: CIL module
 0001:0001c548       ??__F?s_id@?$TObjectUniqueID@UIBinArchive@libmedia@UModSys@@@tl@UModSys@@2USUniquePointer@core@3@A@@YAXXZ 000000018001d548 f    CIL library: CIL module
 0001:0001c554       ??__F?s_id@?$TObjectUniqueID@UILibObject@libmedia@UModSys@@@tl@UModSys@@2USUniquePointer@core@3@A@@YAXXZ 000000018001d554 f    CIL library: CIL module
 0001:0001c560       ??__F?s_id@?$TObjectUniqueID@UIUtilities@libmedia@UModSys@@@tl@UModSys@@2USUniquePointer@core@3@A@@YAXXZ 000000018001d560 f    CIL library: CIL module
 0001:0001c56c       ??__F?s_id@?$TObjectUniqueID@UIStreamWriter@libmedia@UModSys@@@tl@UModSys@@2USUniquePointer@core@3@A@@YAXXZ 000000018001d56c f    CIL library: CIL module
 0001:0001c578       ??__F?s_id@?$TObjectUniqueID@UIStreamReader@libmedia@UModSys@@@tl@UModSys@@2USUniquePointer@core@3@A@@YAXXZ 000000018001d578 f    CIL library: CIL module
 0001:0001c584       ??__F?s_id@?$TObjectUniqueID@UISystem@base@UModSys@@@tl@UModSys@@2USUniquePointer@core@3@A@@YAXXZ 000000018001d584 f    CIL library: CIL module
 0001:0001c590       ??__F?s_id@?$TObjectUniqueID@UIShell@base@UModSys@@@tl@UModSys@@2USUniquePointer@core@3@A@@YAXXZ 000000018001d590 f    CIL library: CIL module
 0001:0001c59c       ??__F?s_id@?$TObjectUniqueID@UIGenerator@base@UModSys@@@tl@UModSys@@2USUniquePointer@core@3@A@@YAXXZ 000000018001d59c f    CIL library: CIL module
 0001:0001c5a8       ??__F?s_id@?$TObjectUniqueID@UIModObject@base@UModSys@@@tl@UModSys@@2USUniquePointer@core@3@A@@YAXXZ 000000018001d5a8 f    CIL library: CIL module
 0001:0001c5b4       ??__F?s_id@?$TObjectUniqueID@UIModuleLibrary@base@UModSys@@@tl@UModSys@@2USUniquePointer@core@3@A@@YAXXZ 000000018001d5b4 f    CIL library: CIL module
 0001:0001c5c0       ??__F?s_id@?$TObjectUniqueID@UIModule@base@UModSys@@@tl@UModSys@@2USUniquePointer@core@3@A@@YAXXZ 000000018001d5c0 f    CIL library: CIL module
 0001:0001c5cc       ??__F?s_id@?$TObjectUniqueID@UIConsole@base@UModSys@@@tl@UModSys@@2USUniquePointer@core@3@A@@YAXXZ 000000018001d5cc f    CIL library: CIL module
 0001:0001c5d8       ??__F?s_id@?$TObjectUniqueID@UIParameters@core@UModSys@@@tl@UModSys@@2USUniquePointer@core@3@A@@YAXXZ 000000018001d5d8 f    CIL library: CIL module
 0001:0001c5e4       ??__F?s_id@?$TObjectUniqueID@UIRefObject@core@UModSys@@@tl@UModSys@@2USUniquePointer@core@3@A@@YAXXZ 000000018001d5e4 f    CIL library: CIL module
 0001:0001c5f0       ??__F?s_id@?$TObjectUniqueID@UIRoot@core@UModSys@@@tl@UModSys@@2USUniquePointer@core@3@A@@YAXXZ 000000018001d5f0 f    CIL library: CIL module
 0001:0001c5fc       ??__Fs_dbg@stdlib@lib2d@modules@UModSys@@YAXXZ 000000018001d5fc f    CIL library: CIL module
 0001:0001c620       ??__F?s_modreg@RModuleReg@stdlib@lib2d@modules@UModSys@@2U12345@A@@YAXXZ 000000018001d620 f    CIL library: CIL module
 0001:0001c630       ??__F?s_modreg_chain@RModuleReg@stdlib@lib2d@modules@UModSys@@2USModuleRegChain@base@5@A@@YAXXZ 000000018001d630 f    CIL library: CIL module
 0001:0001c63c       ??__F?s_uid@RGenerator@stdlib@lib2d@modules@UModSys@@2USUniquePointer@core@5@A@@YAXXZ 000000018001d63c f    CIL library: CIL module
 0001:0001c648       ??__Fh@?1??s_holder@RGenerator@stdlib@lib2d@modules@UModSys@@SAAEAU?$TTypeStaticHolder@URGenerator@stdlib@lib2d@modules@UModSys@@@tl@5@XZ@YAXXZ 000000018001d648 f    CIL library: CIL module
 0001:0001c670       ??__F?s_id@?$TObjectUniqueID@URGenerator@stdlib@lib2d@modules@UModSys@@@tl@UModSys@@2USUniquePointer@core@3@A@@YAXXZ 000000018001d670 f    CIL library: CIL module
 0001:0001c67c       ??__F?s_id@?$TObjectUniqueID@URMultiImage@stdlib@lib2d@modules@UModSys@@@tl@UModSys@@2USUniquePointer@core@3@A@@YAXXZ 000000018001d67c f    CIL library: CIL module
 0001:0001c688       ??__F?s_id@?$TObjectUniqueID@URImageFactory_Memory@stdlib@lib2d@modules@UModSys@@@tl@UModSys@@2USUniquePointer@core@3@A@@YAXXZ 000000018001d688 f    CIL library: CIL module
 0001:0001c694       ??__F?s_id@?$TObjectUniqueID@URImage_Memory@stdlib@lib2d@modules@UModSys@@@tl@UModSys@@2USUniquePointer@core@3@A@@YAXXZ 000000018001d694 f    CIL library: CIL module
 0001:0001c6a0       ??__Fs_dbg@SDL_core@ui@modules@UModSys@@YAXXZ 000000018001d6a0 f    CIL library: CIL module
 0001:0001c6c4       ??__F?s_modreg@RModuleReg@SDL_core@ui@modules@UModSys@@2U12345@A@@YAXXZ 000000018001d6c4 f    CIL library: CIL module
 0001:0001c6d4       ??__F?s_modreg_chain@RModuleReg@SDL_core@ui@modules@UModSys@@2USModuleRegChain@base@5@A@@YAXXZ 000000018001d6d4 f    CIL library: CIL module
 0001:0001c6e0       ??__F?s_uid@RGenerator@SDL_core@ui@modules@UModSys@@2USUniquePointer@core@5@A@@YAXXZ 000000018001d6e0 f    CIL library: CIL module
 0001:0001c6ec       ??__Fh@?1??s_holder@RGenerator@SDL_core@ui@modules@UModSys@@SAAEAU?$TTypeStaticHolder@URGenerator@SDL_core@ui@modules@UModSys@@@tl@5@XZ@YAXXZ 000000018001d6ec f    CIL library: CIL module
 0001:0001c714       ??__F?s_id@?$TObjectUniqueID@URGenerator@SDL_core@ui@modules@UModSys@@@tl@UModSys@@2USUniquePointer@core@3@A@@YAXXZ 000000018001d714 f    CIL library: CIL module
 0001:0001c720       ??__F?s_id@?$TObjectUniqueID@URTerminal@SDL_core@ui@modules@UModSys@@@tl@UModSys@@2USUniquePointer@core@3@A@@YAXXZ 000000018001d720 f    CIL library: CIL module
 0001:0001c72c       ??__F?s_id@?$TObjectUniqueID@URKeyboardController@SDL_core@ui@modules@UModSys@@@tl@UModSys@@2USUniquePointer@core@3@A@@YAXXZ 000000018001d72c f    CIL library: CIL module
 0001:0001c738       ??__F?s_id@?$TObjectUniqueID@URMouseController@SDL_core@ui@modules@UModSys@@@tl@UModSys@@2USUniquePointer@core@3@A@@YAXXZ 000000018001d738 f    CIL library: CIL module
 0001:0001c744       ??__F?s_id@?$TObjectUniqueID@URRenderDriver2D@SDL_core@ui@modules@UModSys@@@tl@UModSys@@2USUniquePointer@core@3@A@@YAXXZ 000000018001d744 f    CIL library: CIL module
 0001:0001c750       ??__F?s_id@?$TObjectUniqueID@URMultiImage2D_SDL_ttf@SDL_core@ui@modules@UModSys@@@tl@UModSys@@2USUniquePointer@core@3@A@@YAXXZ 000000018001d750 f    CIL library: CIL module
 0001:0001c75c       ??__Fs_dbg@frames@ui@modules@UModSys@@YAXXZ 000000018001d75c f    CIL library: CIL module
 0001:0001c780       ??__F?s_modreg@RModuleReg@frames@ui@modules@UModSys@@2U12345@A@@YAXXZ 000000018001d780 f    CIL library: CIL module
 0001:0001c790       ??__F?s_modreg_chain@RModuleReg@frames@ui@modules@UModSys@@2USModuleRegChain@base@5@A@@YAXXZ 000000018001d790 f    CIL library: CIL module
 0001:0001c79c       ??__F?s_uid@RGenerator@frames@ui@modules@UModSys@@2USUniquePointer@core@5@A@@YAXXZ 000000018001d79c f    CIL library: CIL module
 0001:0001c7a8       ??__Fh@?1??s_holder@RGenerator@frames@ui@modules@UModSys@@SAAEAU?$TTypeStaticHolder@URGenerator@frames@ui@modules@UModSys@@@tl@5@XZ@YAXXZ 000000018001d7a8 f    CIL library: CIL module
 0001:0001c7d0       ??__F?s_id@?$TObjectUniqueID@URGenerator@frames@ui@modules@UModSys@@@tl@UModSys@@2USUniquePointer@core@3@A@@YAXXZ 000000018001d7d0 f    CIL library: CIL module
 0001:0001c7dc       ??__F?s_id@?$TObjectUniqueID@URCollector@frames@ui@modules@UModSys@@@tl@UModSys@@2USUniquePointer@core@3@A@@YAXXZ 000000018001d7dc f    CIL library: CIL module
 0001:0001c7e8       ??__F?s_id@?$TObjectUniqueID@URFrame_List@frames@ui@modules@UModSys@@@tl@UModSys@@2USUniquePointer@core@3@A@@YAXXZ 000000018001d7e8 f    CIL library: CIL module
 0001:0001c7f4       ??__F?s_id@?$TObjectUniqueID@URFrame_Edit@frames@ui@modules@UModSys@@@tl@UModSys@@2USUniquePointer@core@3@A@@YAXXZ 000000018001d7f4 f    CIL library: CIL module
 0001:0001c800       ??__F?s_id@?$TObjectUniqueID@URFrame_Button@frames@ui@modules@UModSys@@@tl@UModSys@@2USUniquePointer@core@3@A@@YAXXZ 000000018001d800 f    CIL library: CIL module
 0001:0001c80c       ??__F?s_id@?$TObjectUniqueID@URFrame_Text@frames@ui@modules@UModSys@@@tl@UModSys@@2USUniquePointer@core@3@A@@YAXXZ 000000018001d80c f    CIL library: CIL module
 0001:0001c818       ??__F?s_id@?$TObjectUniqueID@URFrame_Image@frames@ui@modules@UModSys@@@tl@UModSys@@2USUniquePointer@core@3@A@@YAXXZ 000000018001d818 f    CIL library: CIL module
 0001:0001c824       ??__F?s_id@?$TObjectUniqueID@URFrame_Frame@frames@ui@modules@UModSys@@@tl@UModSys@@2USUniquePointer@core@3@A@@YAXXZ 000000018001d824 f    CIL library: CIL module
 0001:0001c830       ??__F?s_id@?$TObjectUniqueID@URDialog@frames@ui@modules@UModSys@@@tl@UModSys@@2USUniquePointer@core@3@A@@YAXXZ 000000018001d830 f    CIL library: CIL module
 0001:0001c83c       ??__F?s_id@?$TObjectUniqueID@URFrame_Common@frames@ui@modules@UModSys@@@tl@UModSys@@2USUniquePointer@core@3@A@@YAXXZ 000000018001d83c f    CIL library: CIL module
 0001:0001c848       ??__Fs_dbg@images_std@media@modules@UModSys@@YAXXZ 000000018001d848 f    CIL library: CIL module
 0001:0001c86c       ??__F?s_modreg@RModuleReg@images_std@media@modules@UModSys@@2U12345@A@@YAXXZ 000000018001d86c f    CIL library: CIL module
 0001:0001c87c       ??__F?s_modreg_chain@RModuleReg@images_std@media@modules@UModSys@@2USModuleRegChain@base@5@A@@YAXXZ 000000018001d87c f    CIL library: CIL module
 0001:0001c888       ??__F?s_uid@RGenerator@images_std@media@modules@UModSys@@2USUniquePointer@core@5@A@@YAXXZ 000000018001d888 f    CIL library: CIL module
 0001:0001c894       ??__Fh@?1??s_holder@RGenerator@images_std@media@modules@UModSys@@SAAEAU?$TTypeStaticHolder@URGenerator@images_std@media@modules@UModSys@@@tl@5@XZ@YAXXZ 000000018001d894 f    CIL library: CIL module
 0001:0001c8bc       ??__F?s_id@?$TObjectUniqueID@URGenerator@images_std@media@modules@UModSys@@@tl@UModSys@@2USUniquePointer@core@3@A@@YAXXZ 000000018001d8bc f    CIL library: CIL module
 0001:0001c8c8       ??__F?s_id@?$TObjectUniqueID@URMediaFilter@images_std@media@modules@UModSys@@@tl@UModSys@@2USUniquePointer@core@3@A@@YAXXZ 000000018001d8c8 f    CIL library: CIL module
 0001:0001c8d4       ??__Fs_dbg@serialize_json@media@modules@UModSys@@YAXXZ 000000018001d8d4 f    CIL library: CIL module
 0001:0001c8f8       ??__F?s_modreg@RModuleReg@serialize_json@media@modules@UModSys@@2U12345@A@@YAXXZ 000000018001d8f8 f    CIL library: CIL module
 0001:0001c908       ??__F?s_modreg_chain@RModuleReg@serialize_json@media@modules@UModSys@@2USModuleRegChain@base@5@A@@YAXXZ 000000018001d908 f    CIL library: CIL module
 0001:0001c914       ??__F?s_uid@RGenerator@serialize_json@media@modules@UModSys@@2USUniquePointer@core@5@A@@YAXXZ 000000018001d914 f    CIL library: CIL module
 0001:0001c920       ??__Fh@?1??s_holder@RGenerator@serialize_json@media@modules@UModSys@@SAAEAU?$TTypeStaticHolder@URGenerator@serialize_json@media@modules@UModSys@@@tl@5@XZ@YAXXZ 000000018001d920 f    CIL library: CIL module
 0001:0001c948       ??__F?s_id@?$TObjectUniqueID@URGenerator@serialize_json@media@modules@UModSys@@@tl@UModSys@@2USUniquePointer@core@3@A@@YAXXZ 000000018001d948 f    CIL library: CIL module
 0001:0001c954       ??__F?s_id@?$TObjectUniqueID@URSerializeWriter@serialize_json@media@modules@UModSys@@@tl@UModSys@@2USUniquePointer@core@3@A@@YAXXZ 000000018001d954 f    CIL library: CIL module
 0001:0001c960       ??__F?s_id@?$TObjectUniqueID@URSerializeReader@serialize_json@media@modules@UModSys@@@tl@UModSys@@2USUniquePointer@core@3@A@@YAXXZ 000000018001d960 f    CIL library: CIL module
 0001:0001c96c       ??__Fs_dbg@zlib@media@modules@UModSys@@YAXXZ 000000018001d96c f    CIL library: CIL module
 0001:0001c990       ??__F?s_modreg@RModuleReg@zlib@media@modules@UModSys@@2U12345@A@@YAXXZ 000000018001d990 f    CIL library: CIL module
 0001:0001c9a0       ??__F?s_modreg_chain@RModuleReg@zlib@media@modules@UModSys@@2USModuleRegChain@base@5@A@@YAXXZ 000000018001d9a0 f    CIL library: CIL module
 0001:0001c9ac       ??__F?s_uid@RGenerator@zlib@media@modules@UModSys@@2USUniquePointer@core@5@A@@YAXXZ 000000018001d9ac f    CIL library: CIL module
 0001:0001c9b8       ??__Fh@?1??s_holder@RGenerator@zlib@media@modules@UModSys@@SAAEAU?$TTypeStaticHolder@URGenerator@zlib@media@modules@UModSys@@@tl@5@XZ@YAXXZ 000000018001d9b8 f    CIL library: CIL module
 0001:0001c9e0       ??__F?s_id@?$TObjectUniqueID@URGenerator@zlib@media@modules@UModSys@@@tl@UModSys@@2USUniquePointer@core@3@A@@YAXXZ 000000018001d9e0 f    CIL library: CIL module
 0001:0001c9ec       ??__F?s_id@?$TObjectUniqueID@URBinArchiveFrameClient_ZIP@zlib@media@modules@UModSys@@@tl@UModSys@@2USUniquePointer@core@3@A@@YAXXZ 000000018001d9ec f    CIL library: CIL module
 0001:0001c9f8       ??__FM@UModSys@@YAXXZ      000000018001d9f8 f    CIL library: CIL module
 0001:0001c9fc       ??__F?root@SModuleRegChain@base@UModSys@@2U123@A@@YAXXZ 000000018001d9fc f    CIL library: CIL module
 0001:0001ca08       ??__F?s_library@RModuleLibraryReg_Chain@base@UModSys@@2U123@A@@YAXXZ 000000018001da08 f    CIL library: CIL module
 0001:0001ca18       ??__F?root@SUniquePointer@core@UModSys@@2U123@A@@YAXXZ 000000018001da18 f    CIL library: CIL module

 Exports

  ordinal    name

        1    UModSys_Plugin_Entry2
