 umodsysc

 Timestamp is 533591a5 (Fri Mar 28 18:13:41 2014)

 Preferred load address is 0000000140000000

 Start         Length     Name                   Class
 0001:00000000 000133bcH .text                   CODE
 0001:000133c0 0000005eH .text$00                CODE
 0001:00013420 00000e70H .text$x                 CODE
 0001:00014290 00000ae0H .text$yc                CODE
 0001:00014d70 00000424H .text$yd                CODE
 0002:00000000 00000268H .idata$5                DATA
 0002:00000268 00000008H .CRT$XCA                DATA
 0002:00000270 00000008H .CRT$XCAA               DATA
 0002:00000278 000006f0H .CRT$XCU                DATA
 0002:00000968 00000008H .CRT$XCZ                DATA
 0002:00000970 00000008H .CRT$XIA                DATA
 0002:00000978 00000008H .CRT$XIAA               DATA
 0002:00000980 00000008H .CRT$XIY                DATA
 0002:00000988 00000008H .CRT$XIZ                DATA
 0002:00000990 00003428H .rdata                  DATA
 0002:00003dc0 0000207cH .rdata$r                DATA
 0002:00005e40 00000008H .rtc$IAA                DATA
 0002:00005e48 00000008H .rtc$IZZ                DATA
 0002:00005e50 00000008H .rtc$TAA                DATA
 0002:00005e58 00000008H .rtc$TZZ                DATA
 0002:00005e60 00001f00H .xdata                  DATA
 0002:00007d60 000000e4H .xdata$x                DATA
 0002:00007e44 00000028H .idata$2                DATA
 0002:00007e6c 00000014H .idata$3                DATA
 0002:00007e80 00000268H .idata$4                DATA
 0002:000080e8 000004a4H .idata$6                DATA
 0002:00008590 00000055H .edata                  DATA
 0003:00000000 000012a4H .data                   DATA
 0003:000012b0 00002b50H .bss                    DATA
 0004:00000000 00001800H .pdata                  DATA

  Address         Publics by Value              Rva+Base               Lib:Object

 0000:00000000       ___safe_se_handler_count   0000000000000000     <absolute>
 0000:00000000       ___safe_se_handler_table   0000000000000000     <absolute>
 0000:00000000       __ImageBase                0000000140000000     <linker-defined>
 0001:00000000       main                       0000000140001000 f   umodsys.c_main.obj
 0001:000004ec       ??0?$TString@U?$TSCoreConst@D@su@tl@UModSys@@U?$TComparerBinaryHash@D@234@@tl@UModSys@@QEAA@PEBD@Z 00000001400014ec f i umodsys.c_main.obj
 0001:0000056c       ??6SUniquePtrList@core@UModSys@@QEAAAEAU012@PEBUSUniquePointerInfo@12@@Z 000000014000156c f i umodsys_lib_libmedia:umodsys.mod.media.stdio.obj
 0001:00000624       ??3IRoot@core@UModSys@@SAXPEAXAEBUSIMemAlloc@12@@Z 0000000140001624 f i umodsys_lib_libmedia:umodsys.mod.media.stdio.obj
 0001:00000650       ??1?$TString@U?$TSCoreShared@USIMemAlloc@core@UModSys@@D@su@tl@UModSys@@U?$TComparerBinaryHash@D@234@@tl@UModSys@@QEAA@XZ 0000000140001650 f i umodsys_lib_libmedia:umodsys.mod.media.stdio.obj
 0001:00000650       ??1?$TSCoreShared@USIMemAlloc@core@UModSys@@D@su@tl@UModSys@@QEAA@XZ 0000000140001650 f i umodsys_lib_libmedia:umodsys.mod.media.stdio.obj
 0001:00000650       ??1?$TStringBuf@U?$TSCoreShared@USIMemAlloc@core@UModSys@@D@su@tl@UModSys@@U?$TComparerBinaryHash@D@234@@tl@UModSys@@QEAA@XZ 0000000140001650 f i umodsys_lib_libmedia:umodsys.mod.media.stdlib.obj
 0001:00000658       ?archive_load_data@libmedia@UModSys@@YA_NAEAUIBinArchive@12@AEBU?$TString@U?$TSCoreConst@D@su@tl@UModSys@@U?$TComparerBinaryHash@D@234@@tl@2@AEAUSCMemShared@core@2@AEBUSFlags@12@@Z 0000000140001658 f i umodsys_lib_libmedia:umodsys.mod.media.stdio.obj
 0001:0000084c       ?root_get_interface_info@RStreamReader_FILE@stdio@media@modules@UModSys@@UEBAAEBUSUniquePointerInfo@core@5@XZ 000000014000184c f i umodsys_lib_libmedia:umodsys.mod.media.stdio.obj
 0001:00000854       ?root_get_interface_type@RStreamReader_FILE@stdio@media@modules@UModSys@@UEBAPEBUSUniquePointerInfo@core@5@XZ 0000000140001854 f i umodsys_lib_libmedia:umodsys.mod.media.stdio.obj
 0001:0000085c       ?root_get_other_interface@RStreamReader_FILE@stdio@media@modules@UModSys@@UEBAPEBUIRoot@core@5@PEBUSUniquePointerInfo@75@@Z 000000014000185c f i umodsys_lib_libmedia:umodsys.mod.media.stdio.obj
 0001:0000085c       ?root_get_other_interface@RStreamReader_FILE@stdio@media@modules@UModSys@@UEAAPEAUIRoot@core@5@PEBUSUniquePointerInfo@75@@Z 000000014000185c f i umodsys_lib_libmedia:umodsys.mod.media.stdio.obj
 0001:0000088c       ?root_is_interface_supported@RStreamReader_FILE@stdio@media@modules@UModSys@@UEBA_NPEBUSUniquePointerInfo@core@5@@Z 000000014000188c f i umodsys_lib_libmedia:umodsys.mod.media.stdio.obj
 0001:000008bc       ?ref_add@RGenerator@stdlib@media@modules@UModSys@@UEBAXXZ 00000001400018bc f i umodsys_lib_libmedia:umodsys.mod.media.stdlib.obj
 0001:000008bc       ?ref_add@RGenerator@stdio@media@modules@UModSys@@UEBAXXZ 00000001400018bc f i umodsys_lib_libmedia:umodsys.mod.media.stdio.obj
 0001:000008bc       ?ref_add@RStreamWriter_FILE@stdio@media@modules@UModSys@@UEBAXXZ 00000001400018bc f i umodsys_lib_libmedia:umodsys.mod.media.stdio.obj
 0001:000008bc       ?ref_add@RUtilities@stdlib@media@modules@UModSys@@UEBAXXZ 00000001400018bc f i umodsys_lib_libmedia:umodsys.mod.media.stdlib.obj
 0001:000008bc       ?ref_add@RStreamReader_FILE@stdio@media@modules@UModSys@@UEBAXXZ 00000001400018bc f i umodsys_lib_libmedia:umodsys.mod.media.stdio.obj
 0001:000008c0       ?suicide@RUtilities@stdlib@media@modules@UModSys@@UEAAXXZ 00000001400018c0 f i umodsys_lib_libmedia:umodsys.mod.media.stdlib.obj
 0001:000008c0       ?suicide@RStreamReader_FILE@stdio@media@modules@UModSys@@UEAAXXZ 00000001400018c0 f i umodsys_lib_libmedia:umodsys.mod.media.stdio.obj
 0001:000008c0       ?suicide@RStreamWriter_FILE@stdio@media@modules@UModSys@@UEAAXXZ 00000001400018c0 f i umodsys_lib_libmedia:umodsys.mod.media.stdio.obj
 0001:0000090c       ??0RStreamReader_FILE@stdio@media@modules@UModSys@@QEAA@PEAUIModObject@base@4@AEBUSParameters@core@4@@Z 000000014000190c f i umodsys_lib_libmedia:umodsys.mod.media.stdio.obj
 0001:00000a08       ?reader_seek@RStreamReader_FILE@stdio@media@modules@UModSys@@UEAA_N_J@Z 0000000140001a08 f i umodsys_lib_libmedia:umodsys.mod.media.stdio.obj
 0001:00000a34       ?reader_seekend@RStreamReader_FILE@stdio@media@modules@UModSys@@UEAA_N_J@Z 0000000140001a34 f i umodsys_lib_libmedia:umodsys.mod.media.stdio.obj
 0001:00000a64       ?reader_seekdelta@RStreamReader_FILE@stdio@media@modules@UModSys@@UEAA_N_J@Z 0000000140001a64 f i umodsys_lib_libmedia:umodsys.mod.media.stdio.obj
 0001:00000a90       ?reader_pos@RStreamReader_FILE@stdio@media@modules@UModSys@@UEAA_JXZ 0000000140001a90 f i umodsys_lib_libmedia:umodsys.mod.media.stdio.obj
 0001:00000aac       ?reader_size@RStreamReader_FILE@stdio@media@modules@UModSys@@UEAA_JXZ 0000000140001aac f i umodsys_lib_libmedia:umodsys.mod.media.stdio.obj
 0001:00000ab4       ?reader_read@RStreamReader_FILE@stdio@media@modules@UModSys@@UEAA_NPEAX_K@Z 0000000140001ab4 f i umodsys_lib_libmedia:umodsys.mod.media.stdio.obj
 0001:00000b34       ?reader_close@RStreamReader_FILE@stdio@media@modules@UModSys@@UEAAXXZ 0000000140001b34 f i umodsys_lib_libmedia:umodsys.mod.media.stdio.obj
 0001:00000b58       ??_ERStreamReader_FILE@stdio@media@modules@UModSys@@UEAAPEAXI@Z 0000000140001b58 f i  CIL library: CIL module
 0001:00000b58       ??_GRStreamReader_FILE@stdio@media@modules@UModSys@@UEAAPEAXI@Z 0000000140001b58 f i umodsys_lib_libmedia:umodsys.mod.media.stdio.obj
 0001:00000bac       ??1IStreamWriter@libmedia@UModSys@@UEAA@XZ 0000000140001bac f i umodsys_lib_libmedia:umodsys.mod.media.stdio.obj
 0001:00000bac       ??1IStreamReader@libmedia@UModSys@@UEAA@XZ 0000000140001bac f i umodsys_lib_libmedia:umodsys.mod.media.stdio.obj
 0001:00000bac       ??1IModule@base@UModSys@@UEAA@XZ 0000000140001bac f i umodsys_lib_base:umodsys.base.module.obj
 0001:00000bac       ??1IUtilities@libmedia@UModSys@@UEAA@XZ 0000000140001bac f i umodsys_lib_libmedia:umodsys.mod.media.stdlib.obj
 0001:00000bac       ??1ISystem@base@UModSys@@UEAA@XZ 0000000140001bac f i umodsys_lib_base:umodsys.base.system.obj
 0001:00000bac       ??1IRefObject@core@UModSys@@UEAA@XZ 0000000140001bac f i umodsys_lib_core:umodsys.core.objects.obj
 0001:00000bb8       ??_GRGenerator@stdio@media@modules@UModSys@@UEAAPEAXI@Z 0000000140001bb8 f i umodsys_lib_libmedia:umodsys.mod.media.stdio.obj
 0001:00000bb8       ??_GIRoot@core@UModSys@@UEAAPEAXI@Z 0000000140001bb8 f i umodsys_lib_libmedia:umodsys.mod.media.stdio.obj
 0001:00000bb8       ??_GRGenerator@stdlib@media@modules@UModSys@@UEAAPEAXI@Z 0000000140001bb8 f i umodsys_lib_libmedia:umodsys.mod.media.stdlib.obj
 0001:00000bb8       ??_GRParameters@rsystem@base@UModSys@@UEAAPEAXI@Z 0000000140001bb8 f i umodsys_lib_basesys:umodsys.basesys.rparameters.obj
 0001:00000bb8       ??_EIRoot@core@UModSys@@UEAAPEAXI@Z 0000000140001bb8 f i  CIL library: CIL module
 0001:00000bb8       ??_ERGenerator@stdio@media@modules@UModSys@@UEAAPEAXI@Z 0000000140001bb8 f i  CIL library: CIL module
 0001:00000bb8       ??_ERParameters@rsystem@base@UModSys@@UEAAPEAXI@Z 0000000140001bb8 f i  CIL library: CIL module
 0001:00000bb8       ??_ERGenerator@stdlib@media@modules@UModSys@@UEAAPEAXI@Z 0000000140001bb8 f i  CIL library: CIL module
 0001:00000be0       ?root_get_interface_info@RStreamWriter_FILE@stdio@media@modules@UModSys@@UEBAAEBUSUniquePointerInfo@core@5@XZ 0000000140001be0 f i umodsys_lib_libmedia:umodsys.mod.media.stdio.obj
 0001:00000be8       ?root_get_interface_type@RStreamWriter_FILE@stdio@media@modules@UModSys@@UEBAPEBUSUniquePointerInfo@core@5@XZ 0000000140001be8 f i umodsys_lib_libmedia:umodsys.mod.media.stdio.obj
 0001:00000bf0       ?root_get_other_interface@RStreamWriter_FILE@stdio@media@modules@UModSys@@UEAAPEAUIRoot@core@5@PEBUSUniquePointerInfo@75@@Z 0000000140001bf0 f i umodsys_lib_libmedia:umodsys.mod.media.stdio.obj
 0001:00000bf0       ?root_get_other_interface@RStreamWriter_FILE@stdio@media@modules@UModSys@@UEBAPEBUIRoot@core@5@PEBUSUniquePointerInfo@75@@Z 0000000140001bf0 f i umodsys_lib_libmedia:umodsys.mod.media.stdio.obj
 0001:00000c20       ?root_is_interface_supported@RStreamWriter_FILE@stdio@media@modules@UModSys@@UEBA_NPEBUSUniquePointerInfo@core@5@@Z 0000000140001c20 f i umodsys_lib_libmedia:umodsys.mod.media.stdio.obj
 0001:00000c50       ??0RStreamWriter_FILE@stdio@media@modules@UModSys@@QEAA@PEAUIModObject@base@4@AEBUSParameters@core@4@@Z 0000000140001c50 f i umodsys_lib_libmedia:umodsys.mod.media.stdio.obj
 0001:00000d40       ?open@RStreamWriter_FILE@stdio@media@modules@UModSys@@QEAAXPEBD_N@Z 0000000140001d40 f i umodsys_lib_libmedia:umodsys.mod.media.stdio.obj
 0001:00000de4       ?writer_seek@RStreamWriter_FILE@stdio@media@modules@UModSys@@UEAA_N_J@Z 0000000140001de4 f i umodsys_lib_libmedia:umodsys.mod.media.stdio.obj
 0001:00000e10       ?writer_seekend@RStreamWriter_FILE@stdio@media@modules@UModSys@@UEAA_N_J@Z 0000000140001e10 f i umodsys_lib_libmedia:umodsys.mod.media.stdio.obj
 0001:00000e40       ?writer_seekdelta@RStreamWriter_FILE@stdio@media@modules@UModSys@@UEAA_N_J@Z 0000000140001e40 f i umodsys_lib_libmedia:umodsys.mod.media.stdio.obj
 0001:00000e6c       ?writer_setsize@RStreamWriter_FILE@stdio@media@modules@UModSys@@UEAA_N_J@Z 0000000140001e6c f i umodsys_lib_libmedia:umodsys.mod.media.stdio.obj
 0001:00000ec0       ?writer_pos@RStreamWriter_FILE@stdio@media@modules@UModSys@@UEAA_JXZ 0000000140001ec0 f i umodsys_lib_libmedia:umodsys.mod.media.stdio.obj
 0001:00000edc       ?writer_size@RStreamWriter_FILE@stdio@media@modules@UModSys@@UEAA_JXZ 0000000140001edc f i umodsys_lib_libmedia:umodsys.mod.media.stdio.obj
 0001:00000f5c       ?writer_write@RStreamWriter_FILE@stdio@media@modules@UModSys@@UEAA_NPEBX_K@Z 0000000140001f5c f i umodsys_lib_libmedia:umodsys.mod.media.stdio.obj
 0001:00000fdc       ?writer_copy@RStreamWriter_FILE@stdio@media@modules@UModSys@@UEAA_NPEAUIStreamReader@libmedia@5@_J@Z 0000000140001fdc f i umodsys_lib_libmedia:umodsys.mod.media.stdio.obj
 0001:0000107c       ?writer_copy@RStreamWriter_FILE@stdio@media@modules@UModSys@@UEAA_NPEAUIStreamReader@libmedia@5@_J1@Z 000000014000207c f i umodsys_lib_libmedia:umodsys.mod.media.stdio.obj
 0001:000010d0       ?writer_close@RStreamWriter_FILE@stdio@media@modules@UModSys@@UEAAXXZ 00000001400020d0 f i umodsys_lib_libmedia:umodsys.mod.media.stdio.obj
 0001:0000110c       ?writer_abort@RStreamWriter_FILE@stdio@media@modules@UModSys@@UEAAXXZ 000000014000210c f i umodsys_lib_libmedia:umodsys.mod.media.stdio.obj
 0001:00001148       ??_GRStreamWriter_FILE@stdio@media@modules@UModSys@@UEAAPEAXI@Z 0000000140002148 f i umodsys_lib_libmedia:umodsys.mod.media.stdio.obj
 0001:00001148       ??_ERStreamWriter_FILE@stdio@media@modules@UModSys@@UEAAPEAXI@Z 0000000140002148 f i  CIL library: CIL module
 0001:000011c0       ?root_get_interface_info@RDataArchiver_OsDir@stdio@media@modules@UModSys@@UEBAAEBUSUniquePointerInfo@core@5@XZ 00000001400021c0 f i umodsys_lib_libmedia:umodsys.mod.media.stdio.obj
 0001:000011c8       ?root_get_interface_type@RDataArchiver_OsDir@stdio@media@modules@UModSys@@UEBAPEBUSUniquePointerInfo@core@5@XZ 00000001400021c8 f i umodsys_lib_libmedia:umodsys.mod.media.stdio.obj
 0001:000011d0       ?root_get_other_interface@RDataArchiver_OsDir@stdio@media@modules@UModSys@@UEAAPEAUIRoot@core@5@PEBUSUniquePointerInfo@75@@Z 00000001400021d0 f i umodsys_lib_libmedia:umodsys.mod.media.stdio.obj
 0001:000011d0       ?root_get_other_interface@RDataArchiver_OsDir@stdio@media@modules@UModSys@@UEBAPEBUIRoot@core@5@PEBUSUniquePointerInfo@75@@Z 00000001400021d0 f i umodsys_lib_libmedia:umodsys.mod.media.stdio.obj
 0001:00001208       ?root_is_interface_supported@RDataArchiver_OsDir@stdio@media@modules@UModSys@@UEBA_NPEBUSUniquePointerInfo@core@5@@Z 0000000140002208 f i umodsys_lib_libmedia:umodsys.mod.media.stdio.obj
 0001:00001240       ?suicide@RLibraryLayered@stdlib@media@modules@UModSys@@UEAAXXZ 0000000140002240 f i umodsys_lib_libmedia:umodsys.mod.media.stdlib.obj
 0001:00001240       ?suicide@RDataArchiver_OsDir@stdio@media@modules@UModSys@@UEAAXXZ 0000000140002240 f i umodsys_lib_libmedia:umodsys.mod.media.stdio.obj
 0001:00001240       ?suicide@RLibraryObjFilter@stdlib@media@modules@UModSys@@UEAAXXZ 0000000140002240 f i umodsys_lib_libmedia:umodsys.mod.media.stdlib.obj
 0001:00001240       ?suicide@RLibraryObjCache@stdlib@media@modules@UModSys@@UEAAXXZ 0000000140002240 f i umodsys_lib_libmedia:umodsys.mod.media.stdlib.obj
 0001:00001240       ?suicide@RLibraryBinCache@stdlib@media@modules@UModSys@@UEAAXXZ 0000000140002240 f i umodsys_lib_libmedia:umodsys.mod.media.stdlib.obj
 0001:00001240       ?suicide@RLibraryBinTree@stdlib@media@modules@UModSys@@UEAAXXZ 0000000140002240 f i umodsys_lib_libmedia:umodsys.mod.media.stdlib.obj
 0001:0000128c       ??0RDataArchiver_OsDir@stdio@media@modules@UModSys@@QEAA@PEAUIModObject@base@4@AEBUSParameters@core@4@U?$TFlags4State@USMediaFlagUid@libmedia@UModSys@@I@tl@4@@Z 000000014000228c f i umodsys_lib_libmedia:umodsys.mod.media.stdio.obj
 0001:00001500       ?get_flag@RDataArchiver_OsDir@stdio@media@modules@UModSys@@UEBA?AW4eStates@?$TFlags4State@USMediaFlagUid@libmedia@UModSys@@I@tl@5@H@Z 0000000140002500 f i umodsys_lib_libmedia:umodsys.mod.media.stdio.obj
 0001:0000150c       ?get_flags_auto@RDataArchiver_OsDir@stdio@media@modules@UModSys@@UEBA?AU?$TFlags4State@USMediaFlagUid@libmedia@UModSys@@I@tl@5@XZ 000000014000250c f i umodsys_lib_libmedia:umodsys.mod.media.stdio.obj
 0001:00001518       ?set_flag@RDataArchiver_OsDir@stdio@media@modules@UModSys@@UEAA?AW4eStates@?$TFlags4State@USMediaFlagUid@libmedia@UModSys@@I@tl@5@HW46785@@Z 0000000140002518 f i umodsys_lib_libmedia:umodsys.mod.media.stdio.obj
 0001:00001540       ?data_load@RDataArchiver_OsDir@stdio@media@modules@UModSys@@UEAA_NAEBU?$TString@U?$TSCoreConst@D@su@tl@UModSys@@U?$TComparerBinaryHash@D@234@@tl@5@AEAUSCMemShared@core@5@AEBUSFlags@libmedia@5@@Z 0000000140002540 f i umodsys_lib_libmedia:umodsys.mod.media.stdio.obj
 0001:000015a8       ?data_save@RDataArchiver_OsDir@stdio@media@modules@UModSys@@UEAA_NAEBU?$TString@U?$TSCoreConst@D@su@tl@UModSys@@U?$TComparerBinaryHash@D@234@@tl@5@AEBUSCMem@core@5@AEBUSFlags@libmedia@5@@Z 00000001400025a8 f i umodsys_lib_libmedia:umodsys.mod.media.stdio.obj
 0001:00001640       ?data_reader@RDataArchiver_OsDir@stdio@media@modules@UModSys@@UEAA?AU?$TRefObject@UIStreamReader@libmedia@UModSys@@U?$TRefObjectFunc@UIStreamReader@libmedia@UModSys@@@tl@3@@tl@5@AEBU?$TString@U?$TSCoreConst@D@su@tl@UModSys@@U?$TComparerBinaryHash@D@234@@75@AEBUSFlags@libmedia@5@@Z 0000000140002640 f i umodsys_lib_libmedia:umodsys.mod.media.stdio.obj
 0001:00001854       ?data_writer@RDataArchiver_OsDir@stdio@media@modules@UModSys@@UEAA?AU?$TRefObject@UIStreamWriter@libmedia@UModSys@@U?$TRefObjectFunc@UIStreamWriter@libmedia@UModSys@@@tl@3@@tl@5@AEBU?$TString@U?$TSCoreConst@D@su@tl@UModSys@@U?$TComparerBinaryHash@D@234@@75@AEBUSFlags@libmedia@5@@Z 0000000140002854 f i umodsys_lib_libmedia:umodsys.mod.media.stdio.obj
 0001:00001aa0       ?data_list@RDataArchiver_OsDir@stdio@media@modules@UModSys@@UEAA_NAEBU?$TString@U?$TSCoreConst@D@su@tl@UModSys@@U?$TComparerBinaryHash@D@234@@tl@5@_KAEAU?$TIStackSocket@USFileInfo@libmedia@UModSys@@@75@AEBUSFlags@libmedia@5@@Z 0000000140002aa0 f i umodsys_lib_libmedia:umodsys.mod.media.stdio.obj
 0001:00001aa0       ?data_info@RDataArchiver_OsDir@stdio@media@modules@UModSys@@UEAA_NAEBU?$TString@U?$TSCoreConst@D@su@tl@UModSys@@U?$TComparerBinaryHash@D@234@@tl@5@_KAEAUSFileInfo@libmedia@5@AEBUSFlags@95@@Z 0000000140002aa0 f i umodsys_lib_libmedia:umodsys.mod.media.stdio.obj
 0001:00001af4       ?get_permissions@RDataArchiver_OsDir@stdio@media@modules@UModSys@@UEAAHXZ 0000000140002af4 f i umodsys_lib_libmedia:umodsys.mod.media.stdio.obj
 0001:00001af8       ??_ERDataArchiver_OsDir@stdio@media@modules@UModSys@@UEAAPEAXI@Z 0000000140002af8 f i  CIL library: CIL module
 0001:00001af8       ??_GRDataArchiver_OsDir@stdio@media@modules@UModSys@@UEAAPEAXI@Z 0000000140002af8 f i umodsys_lib_libmedia:umodsys.mod.media.stdio.obj
 0001:00001b70       ?get_generated_names@RGenerator@stdio@media@modules@UModSys@@UEBAHAEAUSUniquePtrList@core@5@@Z 0000000140002b70 f i umodsys_lib_libmedia:umodsys.mod.media.stdio.obj
 0001:00001bb4       ?get_generated_types@RGenerator@stdio@media@modules@UModSys@@UEBAHAEAUSUniquePtrList@core@5@PEBUSUniquePointerInfo@75@@Z 0000000140002bb4 f i umodsys_lib_libmedia:umodsys.mod.media.stdio.obj
 0001:00001c80       ?generate@RGenerator@stdio@media@modules@UModSys@@UEAA_NAEAU?$TRefObject@UIRefObject@core@UModSys@@U?$TRefObjectFunc@UIRefObject@core@UModSys@@@tl@3@@tl@5@PEBUSUniquePointerInfo@core@5@AEBUSParameters@95@@Z 0000000140002c80 f i umodsys_lib_libmedia:umodsys.mod.media.stdio.obj
 0001:00001e60       ?root_get_interface_info@RGenerator@stdio@media@modules@UModSys@@UEBAAEBUSUniquePointerInfo@core@5@XZ 0000000140002e60 f i umodsys_lib_libmedia:umodsys.mod.media.stdio.obj
 0001:00001e68       ?root_get_interface_type@RGenerator@stdio@media@modules@UModSys@@UEBAPEBUSUniquePointerInfo@core@5@XZ 0000000140002e68 f i umodsys_lib_libmedia:umodsys.mod.media.stdio.obj
 0001:00001e70       ?root_get_other_interface@RGenerator@stdio@media@modules@UModSys@@UEBAPEBUIRoot@core@5@PEBUSUniquePointerInfo@75@@Z 0000000140002e70 f i umodsys_lib_libmedia:umodsys.mod.media.stdio.obj
 0001:00001e70       ?root_get_other_interface@RGenerator@stdio@media@modules@UModSys@@UEAAPEAUIRoot@core@5@PEBUSUniquePointerInfo@75@@Z 0000000140002e70 f i umodsys_lib_libmedia:umodsys.mod.media.stdio.obj
 0001:00001ea8       ?root_is_interface_supported@RGenerator@stdio@media@modules@UModSys@@UEBA_NPEBUSUniquePointerInfo@core@5@@Z 0000000140002ea8 f i umodsys_lib_libmedia:umodsys.mod.media.stdio.obj
 0001:00001ee0       ?ref_remove@RUtilities@stdlib@media@modules@UModSys@@UEBAXXZ 0000000140002ee0 f i umodsys_lib_libmedia:umodsys.mod.media.stdlib.obj
 0001:00001ee0       ?ref_remove@RGenerator@stdio@media@modules@UModSys@@UEBAXXZ 0000000140002ee0 f i umodsys_lib_libmedia:umodsys.mod.media.stdio.obj
 0001:00001ee0       ?ref_remove@RStreamReader_FILE@stdio@media@modules@UModSys@@UEBAXXZ 0000000140002ee0 f i umodsys_lib_libmedia:umodsys.mod.media.stdio.obj
 0001:00001ee0       ?ref_remove@RGenerator@stdlib@media@modules@UModSys@@UEBAXXZ 0000000140002ee0 f i umodsys_lib_libmedia:umodsys.mod.media.stdlib.obj
 0001:00001ee0       ?ref_remove@RStreamWriter_FILE@stdio@media@modules@UModSys@@UEBAXXZ 0000000140002ee0 f i umodsys_lib_libmedia:umodsys.mod.media.stdio.obj
 0001:00001ef8       ?ref_links@RStreamReader_FILE@stdio@media@modules@UModSys@@UEBAHXZ 0000000140002ef8 f i umodsys_lib_libmedia:umodsys.mod.media.stdio.obj
 0001:00001ef8       ?ref_links@RUtilities@stdlib@media@modules@UModSys@@UEBAHXZ 0000000140002ef8 f i umodsys_lib_libmedia:umodsys.mod.media.stdlib.obj
 0001:00001ef8       ?ref_links@RGenerator@stdio@media@modules@UModSys@@UEBAHXZ 0000000140002ef8 f i umodsys_lib_libmedia:umodsys.mod.media.stdio.obj
 0001:00001ef8       ?ref_links@RStreamWriter_FILE@stdio@media@modules@UModSys@@UEBAHXZ 0000000140002ef8 f i umodsys_lib_libmedia:umodsys.mod.media.stdio.obj
 0001:00001ef8       ?ref_links@RGenerator@stdlib@media@modules@UModSys@@UEBAHXZ 0000000140002ef8 f i umodsys_lib_libmedia:umodsys.mod.media.stdlib.obj
 0001:00001efc       ?ref_weak@RUtilities@stdlib@media@modules@UModSys@@UEBA_NAEAUWeakPointer@IRefObject@core@5@@Z 0000000140002efc f i umodsys_lib_libmedia:umodsys.mod.media.stdlib.obj
 0001:00001efc       ?ref_weak@RStreamReader_FILE@stdio@media@modules@UModSys@@UEBA_NAEAUWeakPointer@IRefObject@core@5@@Z 0000000140002efc f i umodsys_lib_libmedia:umodsys.mod.media.stdio.obj
 0001:00001efc       ?ref_weak@RGenerator@stdio@media@modules@UModSys@@UEBA_NAEAUWeakPointer@IRefObject@core@5@@Z 0000000140002efc f i umodsys_lib_libmedia:umodsys.mod.media.stdio.obj
 0001:00001efc       ?ref_weak@RStreamWriter_FILE@stdio@media@modules@UModSys@@UEBA_NAEAUWeakPointer@IRefObject@core@5@@Z 0000000140002efc f i umodsys_lib_libmedia:umodsys.mod.media.stdio.obj
 0001:00001efc       ?ref_weak@RGenerator@stdlib@media@modules@UModSys@@UEBA_NAEAUWeakPointer@IRefObject@core@5@@Z 0000000140002efc f i umodsys_lib_libmedia:umodsys.mod.media.stdlib.obj
 0001:00001f1c       ?ref_remove@RConsole_std@rsystem@base@UModSys@@UEBAXXZ 0000000140002f1c f i umodsys_lib_basesys:umodsys.basesys.rconsole_std.obj
 0001:00001f1c       ??3@YAXPEAX0@Z             0000000140002f1c f i umodsys_lib_libmedia:umodsys.mod.media.stdio.obj
 0001:00001f1c       ?ref_add@RConsole_std@rsystem@base@UModSys@@UEBAXXZ 0000000140002f1c f i umodsys_lib_basesys:umodsys.basesys.rconsole_std.obj
 0001:00001f1c       ?suicide@RGenerator@stdio@media@modules@UModSys@@UEAAXXZ 0000000140002f1c f i umodsys_lib_libmedia:umodsys.mod.media.stdio.obj
 0001:00001f1c       ?suicide@RGenerator@stdlib@media@modules@UModSys@@UEAAXXZ 0000000140002f1c f i umodsys_lib_libmedia:umodsys.mod.media.stdlib.obj
 0001:00001f20       ?get_uid@RGenerator@stdio@media@modules@UModSys@@UEBAPEBUSUniquePointerInfo@core@5@XZ 0000000140002f20 f i umodsys_lib_libmedia:umodsys.mod.media.stdio.obj
 0001:00001f28       ?do_open@RModuleReg@stdio@media@modules@UModSys@@UEAA_NXZ 0000000140002f28 f i umodsys_lib_libmedia:umodsys.mod.media.stdio.obj
 0001:00001f9c       ?do_close@RModuleReg@stdio@media@modules@UModSys@@UEAA_NXZ 0000000140002f9c f i umodsys_lib_libmedia:umodsys.mod.media.stdio.obj
 0001:00001fec       ??_GRModuleReg@stdio@media@modules@UModSys@@UEAAPEAXI@Z 0000000140002fec f i umodsys_lib_libmedia:umodsys.mod.media.stdio.obj
 0001:00001fec       ??_ERModuleReg@stdlib@media@modules@UModSys@@UEAAPEAXI@Z 0000000140002fec f i  CIL library: CIL module
 0001:00001fec       ??_EIModuleReg@base@UModSys@@UEAAPEAXI@Z 0000000140002fec f i  CIL library: CIL module
 0001:00001fec       ??_GIModuleReg@base@UModSys@@UEAAPEAXI@Z 0000000140002fec f i umodsys_lib_base:umodsys.base.modulereg.obj
 0001:00001fec       ??_ERModuleReg@stdio@media@modules@UModSys@@UEAAPEAXI@Z 0000000140002fec f i  CIL library: CIL module
 0001:00001fec       ??_GRModuleReg@stdlib@media@modules@UModSys@@UEAAPEAXI@Z 0000000140002fec f i umodsys_lib_libmedia:umodsys.mod.media.stdlib.obj
 0001:00002014       ?get_module@RGenerator@stdio@media@modules@UModSys@@UEBAPEAUIModule@base@5@XZ 0000000140003014 f   umodsys_lib_libmedia:umodsys.mod.media.stdio.obj
 0001:0000201c       ?mod_inc@RGenerator@stdio@media@modules@UModSys@@UEBA_NXZ 000000014000301c f   umodsys_lib_libmedia:umodsys.mod.media.stdio.obj
 0001:00002030       ?mod_dec@RGenerator@stdio@media@modules@UModSys@@UEBA_NXZ 0000000140003030 f   umodsys_lib_libmedia:umodsys.mod.media.stdio.obj
 0001:00002044       ?s_holder@RGenerator@stdio@media@modules@UModSys@@SAAEAU?$TTypeStaticHolder@URGenerator@stdio@media@modules@UModSys@@@tl@5@XZ 0000000140003044 f   umodsys_lib_libmedia:umodsys.mod.media.stdio.obj
 0001:00002088       ??1?$TRefObject@UIStreamReader@libmedia@UModSys@@U?$TRefObjectFunc@UIStreamReader@libmedia@UModSys@@@tl@3@@tl@UModSys@@QEAA@XZ 0000000140003088 f i umodsys_lib_libmedia:umodsys.mod.media.stdio.obj
 0001:00002088       ??1?$TRefObject@UIBinObjFilter@libmedia@UModSys@@U?$TRefObjectFunc@UIBinObjFilter@libmedia@UModSys@@@tl@3@@tl@UModSys@@QEAA@XZ 0000000140003088 f i umodsys_lib_libmedia:umodsys.mod.media.stdlib.obj
 0001:00002088       ??1?$TRefObject@URLibraryObjCache@stdlib@media@modules@UModSys@@U?$TRefObjectFunc@URLibraryObjCache@stdlib@media@modules@UModSys@@@tl@5@@tl@UModSys@@QEAA@XZ 0000000140003088 f i umodsys_lib_libmedia:umodsys.mod.media.stdlib.obj
 0001:00002088       ??1?$TRefObject@URLibraryLayered@stdlib@media@modules@UModSys@@U?$TRefObjectFunc@URLibraryLayered@stdlib@media@modules@UModSys@@@tl@5@@tl@UModSys@@QEAA@XZ 0000000140003088 f i umodsys_lib_libmedia:umodsys.mod.media.stdlib.obj
 0001:00002088       ??1?$TRefObject@URBinArchiveFrame@stdlib@media@modules@UModSys@@U?$TRefObjectFunc@URBinArchiveFrame@stdlib@media@modules@UModSys@@@tl@5@@tl@UModSys@@QEAA@XZ 0000000140003088 f i umodsys_lib_libmedia:umodsys.mod.media.stdlib.obj
 0001:00002088       ??1?$TRefObject@URStreamWriter_FILE@stdio@media@modules@UModSys@@U?$TRefObjectFunc@URStreamWriter_FILE@stdio@media@modules@UModSys@@@tl@5@@tl@UModSys@@QEAA@XZ 0000000140003088 f i umodsys_lib_libmedia:umodsys.mod.media.stdio.obj
 0001:00002088       ??1?$TRefObject@UIRefObject@core@UModSys@@U?$TRefObjectFunc@UIRefObject@core@UModSys@@@tl@3@@tl@UModSys@@QEAA@XZ 0000000140003088 f i umodsys_lib_libmedia:umodsys.mod.media.stdlib.obj
 0001:00002088       ??1?$TRefObject@URUtilities@stdlib@media@modules@UModSys@@U?$TRefObjectFunc@URUtilities@stdlib@media@modules@UModSys@@@tl@5@@tl@UModSys@@QEAA@XZ 0000000140003088 f i umodsys_lib_libmedia:umodsys.mod.media.stdlib.obj
 0001:00002088       ??1?$TRefObject@URModuleLibrarySO@rsystem@base@UModSys@@U?$TRefObjectFunc@URModuleLibrarySO@rsystem@base@UModSys@@@tl@4@@tl@UModSys@@QEAA@XZ 0000000140003088 f i umodsys_lib_basesys:umodsys.basesys.rmoduleloader.obj
 0001:00002088       ??1?$TRefObject@URLibraryObjFilter@stdlib@media@modules@UModSys@@U?$TRefObjectFunc@URLibraryObjFilter@stdlib@media@modules@UModSys@@@tl@5@@tl@UModSys@@QEAA@XZ 0000000140003088 f i umodsys_lib_libmedia:umodsys.mod.media.stdlib.obj
 0001:00002088       ??1SFilter@RLibraryObjFilter@stdlib@media@modules@UModSys@@QEAA@XZ 0000000140003088 f i umodsys_lib_libmedia:umodsys.mod.media.stdlib.obj
 0001:00002088       ??1?$TRefObject@URLibraryBinTree@stdlib@media@modules@UModSys@@U?$TRefObjectFunc@URLibraryBinTree@stdlib@media@modules@UModSys@@@tl@5@@tl@UModSys@@QEAA@XZ 0000000140003088 f i umodsys_lib_libmedia:umodsys.mod.media.stdlib.obj
 0001:00002088       ??1?$TRefObject@UIClient@IBinArchiveFrame@libmedia@UModSys@@U?$TRefObjectFunc@UIClient@IBinArchiveFrame@libmedia@UModSys@@@tl@4@@tl@UModSys@@QEAA@XZ 0000000140003088 f i umodsys_lib_libmedia:umodsys.mod.media.stdlib.obj
 0001:00002088       ??1?$TRefObject@URParameters@rsystem@base@UModSys@@U?$TRefObjectFunc@URParameters@rsystem@base@UModSys@@@tl@4@@tl@UModSys@@QEAA@XZ 0000000140003088 f i umodsys_lib_basesys:umodsys.basesys.rsystem_main.obj
 0001:00002088       ??1?$TRefObject@URDataArchiver_OsDir@stdio@media@modules@UModSys@@U?$TRefObjectFunc@URDataArchiver_OsDir@stdio@media@modules@UModSys@@@tl@5@@tl@UModSys@@QEAA@XZ 0000000140003088 f i umodsys_lib_libmedia:umodsys.mod.media.stdio.obj
 0001:00002088       ??1?$TRefObject@UIBinArchive@libmedia@UModSys@@U?$TRefObjectFunc@UIBinArchive@libmedia@UModSys@@@tl@3@@tl@UModSys@@QEAA@XZ 0000000140003088 f i umodsys_lib_libmedia:umodsys.mod.media.stdlib.obj
 0001:00002088       ??1?$TRefObject@URStreamReader_FILE@stdio@media@modules@UModSys@@U?$TRefObjectFunc@URStreamReader_FILE@stdio@media@modules@UModSys@@@tl@5@@tl@UModSys@@QEAA@XZ 0000000140003088 f i umodsys_lib_libmedia:umodsys.mod.media.stdio.obj
 0001:00002088       ??1?$TRefObject@URLibraryBinCache@stdlib@media@modules@UModSys@@U?$TRefObjectFunc@URLibraryBinCache@stdlib@media@modules@UModSys@@@tl@5@@tl@UModSys@@QEAA@XZ 0000000140003088 f i umodsys_lib_libmedia:umodsys.mod.media.stdlib.obj
 0001:00002088       ??1?$TRefObject@UIModuleLibraryUni@rsystem@base@UModSys@@U?$TRefObjectFunc@UIModuleLibraryUni@rsystem@base@UModSys@@@tl@4@@tl@UModSys@@QEAA@XZ 0000000140003088 f i umodsys_lib_basesys:umodsys.basesys.rmodule.obj
 0001:00002088       ??1?$TRefObject@UIStreamWriter@libmedia@UModSys@@U?$TRefObjectFunc@UIStreamWriter@libmedia@UModSys@@@tl@3@@tl@UModSys@@QEAA@XZ 0000000140003088 f i umodsys_lib_libmedia:umodsys.mod.media.stdio.obj
 0001:00002088       ??1?$TRefObject@UILibrary@libmedia@UModSys@@U?$TRefObjectFunc@UILibrary@libmedia@UModSys@@@tl@3@@tl@UModSys@@QEAA@XZ 0000000140003088 f i umodsys_lib_libmedia:umodsys.mod.media.stdlib.obj
 0001:00002088       ??1?$TRefObject@UIShell@base@UModSys@@U?$TRefObjectFunc@UIShell@base@UModSys@@@tl@3@@tl@UModSys@@QEAA@XZ 0000000140003088 f i umodsys_lib_basesys:umodsys.basesys.rsystem_tests.obj
 0001:000020ac       ?info_release@?$TSCoreShared@USIMemAlloc@core@UModSys@@D@su@tl@UModSys@@QEAAXXZ 00000001400030ac f i umodsys_lib_libmedia:umodsys.mod.media.stdio.obj
 0001:00002180       ?info_new@?$TSCoreShared@USIMemAlloc@core@UModSys@@D@su@tl@UModSys@@QEAA_NPEBD_K@Z 0000000140003180 f i umodsys_lib_libmedia:umodsys.mod.media.stdio.obj
 0001:00002254       ??$t_gen_param@URStreamWriter_FILE@stdio@media@modules@UModSys@@URGenerator@2345@@IGenerator@base@UModSys@@IEAA_NPEAURGenerator@stdio@media@modules@2@AEAU?$TRefObject@UIRefObject@core@UModSys@@U?$TRefObjectFunc@UIRefObject@core@UModSys@@@tl@3@@tl@2@PEBUSUniquePointerInfo@core@2@AEBUSParameters@core@2@@Z 0000000140003254 f i umodsys_lib_libmedia:umodsys.mod.media.stdio.obj
 0001:00002348       ??1?$TRefObject@UIModObject@base@UModSys@@U?$TModObjectFunc@UIModObject@base@UModSys@@@tl@3@@tl@UModSys@@QEAA@XZ 0000000140003348 f i umodsys_lib_libmedia:umodsys.mod.media.stdio.obj
 0001:00002374       ??1SInfo@IBinObjFilter@libmedia@UModSys@@QEAA@XZ 0000000140003374 f i umodsys_lib_libmedia:umodsys.mod.media.stdlib.obj
 0001:00002374       ??1SCMemShared@core@UModSys@@QEAA@XZ 0000000140003374 f i umodsys_lib_libmedia:umodsys.mod.media.stdlib.obj
 0001:00002374       ??1SMemShared@core@UModSys@@QEAA@XZ 0000000140003374 f i umodsys_lib_libmedia:umodsys.mod.media.stdio.obj
 0001:000023a4       ??1SFileInfo@libmedia@UModSys@@QEAA@XZ 00000001400033a4 f i umodsys_lib_libmedia:umodsys.mod.media.stdlib.obj
 0001:000023e8       ?get_flag@RResolverChain@SFlagsChain@libmedia@UModSys@@UEBA?AW4eStates@?$TFlags4State@USMediaFlagUid@libmedia@UModSys@@I@tl@4@H@Z 00000001400033e8 f i umodsys_lib_libmedia:umodsys.mod.media.stdlib.obj
 0001:00002428       ?bin_reader@ILibrary@libmedia@UModSys@@QEAA?AU?$TRefObject@UIStreamReader@libmedia@UModSys@@U?$TRefObjectFunc@UIStreamReader@libmedia@UModSys@@@tl@3@@tl@3@AEBU?$TString@U?$TSCoreConst@D@su@tl@UModSys@@U?$TComparerBinaryHash@D@234@@53@AEBU?$TFlags4State@USMediaFlagUid@libmedia@UModSys@@I@53@@Z 0000000140003428 f i umodsys_lib_libmedia:umodsys.mod.media.stdlib.obj
 0001:00002464       ?bin_writer@ILibrary@libmedia@UModSys@@QEAA?AU?$TRefObject@UIStreamWriter@libmedia@UModSys@@U?$TRefObjectFunc@UIStreamWriter@libmedia@UModSys@@@tl@3@@tl@3@AEBU?$TString@U?$TSCoreConst@D@su@tl@UModSys@@U?$TComparerBinaryHash@D@234@@53@AEBU?$TFlags4State@USMediaFlagUid@libmedia@UModSys@@I@53@@Z 0000000140003464 f i umodsys_lib_libmedia:umodsys.mod.media.stdlib.obj
 0001:000024a0       ??1SPoint@ILibraryBinTree@libmedia@UModSys@@QEAA@XZ 00000001400034a0 f i umodsys_lib_libmedia:umodsys.mod.media.stdlib.obj
 0001:000024c4       ??0NameNodeCmpUC@IBinArchiveFrame@libmedia@UModSys@@QEAA@AEBU?$TString@U?$TSCoreConst@D@su@tl@UModSys@@U?$TComparerBinaryHash@D@234@@tl@3@@Z 00000001400034c4 f i umodsys_lib_libmedia:umodsys.mod.media.stdlib.obj
 0001:00002540       ?root_get_interface_info@RUtilities@stdlib@media@modules@UModSys@@UEBAAEBUSUniquePointerInfo@core@5@XZ 0000000140003540 f i umodsys_lib_libmedia:umodsys.mod.media.stdlib.obj
 0001:00002548       ?root_get_interface_type@RUtilities@stdlib@media@modules@UModSys@@UEBAPEBUSUniquePointerInfo@core@5@XZ 0000000140003548 f i umodsys_lib_libmedia:umodsys.mod.media.stdlib.obj
 0001:00002550       ?root_get_interface_types@RStreamReader_FILE@stdio@media@modules@UModSys@@UEBA_KAEAUSUniquePtrList@core@5@@Z 0000000140003550 f i umodsys_lib_libmedia:umodsys.mod.media.stdio.obj
 0001:00002550       ?root_get_interface_types@RBinArchiveFrame@stdlib@media@modules@UModSys@@UEBA_KAEAUSUniquePtrList@core@5@@Z 0000000140003550 f i umodsys_lib_libmedia:umodsys.mod.media.stdlib.obj
 0001:00002550       ?root_get_interface_types@RGenerator@stdio@media@modules@UModSys@@UEBA_KAEAUSUniquePtrList@core@5@@Z 0000000140003550 f i umodsys_lib_libmedia:umodsys.mod.media.stdio.obj
 0001:00002550       ?root_get_interface_types@RParameters@rsystem@base@UModSys@@UEBA_KAEAUSUniquePtrList@core@4@@Z 0000000140003550 f i umodsys_lib_basesys:umodsys.basesys.rparameters.obj
 0001:00002550       ?root_get_interface_types@RModuleLibraryThis@rsystem@base@UModSys@@UEBA_KAEAUSUniquePtrList@core@4@@Z 0000000140003550 f i umodsys_lib_basesys:umodsys.basesys.rmodulelibthis.obj
 0001:00002550       ?root_get_interface_types@RModuleLibrarySO@rsystem@base@UModSys@@UEBA_KAEAUSUniquePtrList@core@4@@Z 0000000140003550 f i umodsys_lib_basesys:umodsys.basesys.rmodulelibso.obj
 0001:00002550       ?root_get_interface_types@RDataArchiver_OsDir@stdio@media@modules@UModSys@@UEBA_KAEAUSUniquePtrList@core@5@@Z 0000000140003550 f i umodsys_lib_libmedia:umodsys.mod.media.stdio.obj
 0001:00002550       ?root_get_interface_types@RUtilities@stdlib@media@modules@UModSys@@UEBA_KAEAUSUniquePtrList@core@5@@Z 0000000140003550 f i umodsys_lib_libmedia:umodsys.mod.media.stdlib.obj
 0001:00002550       ?root_get_interface_types@RLibraryObjFilter@stdlib@media@modules@UModSys@@UEBA_KAEAUSUniquePtrList@core@5@@Z 0000000140003550 f i umodsys_lib_libmedia:umodsys.mod.media.stdlib.obj
 0001:00002550       ?root_get_interface_types@RSystem@rsystem@base@UModSys@@UEBA_KAEAUSUniquePtrList@core@4@@Z 0000000140003550 f i umodsys_lib_basesys:umodsys.basesys.rsystem_main.obj
 0001:00002550       ?root_get_interface_types@RLibraryBinCache@stdlib@media@modules@UModSys@@UEBA_KAEAUSUniquePtrList@core@5@@Z 0000000140003550 f i umodsys_lib_libmedia:umodsys.mod.media.stdlib.obj
 0001:00002550       ?root_get_interface_types@RLibraryLayered@stdlib@media@modules@UModSys@@UEBA_KAEAUSUniquePtrList@core@5@@Z 0000000140003550 f i umodsys_lib_libmedia:umodsys.mod.media.stdlib.obj
 0001:00002550       ?root_get_interface_types@RStreamWriter_FILE@stdio@media@modules@UModSys@@UEBA_KAEAUSUniquePtrList@core@5@@Z 0000000140003550 f i umodsys_lib_libmedia:umodsys.mod.media.stdio.obj
 0001:00002550       ?root_get_interface_types@RGenerator@stdlib@media@modules@UModSys@@UEBA_KAEAUSUniquePtrList@core@5@@Z 0000000140003550 f i umodsys_lib_libmedia:umodsys.mod.media.stdlib.obj
 0001:00002550       ?root_get_interface_types@RConsole_std@rsystem@base@UModSys@@UEBA_KAEAUSUniquePtrList@core@4@@Z 0000000140003550 f i umodsys_lib_basesys:umodsys.basesys.rconsole_std.obj
 0001:00002550       ?root_get_interface_types@RLibraryBinTree@stdlib@media@modules@UModSys@@UEBA_KAEAUSUniquePtrList@core@5@@Z 0000000140003550 f i umodsys_lib_libmedia:umodsys.mod.media.stdlib.obj
 0001:00002550       ?root_get_interface_types@RModule@rsystem@base@UModSys@@UEBA_KAEAUSUniquePtrList@core@4@@Z 0000000140003550 f i umodsys_lib_basesys:umodsys.basesys.rmodule.obj
 0001:00002550       ?root_get_interface_types@RLibraryObjCache@stdlib@media@modules@UModSys@@UEBA_KAEAUSUniquePtrList@core@5@@Z 0000000140003550 f i umodsys_lib_libmedia:umodsys.mod.media.stdlib.obj
 0001:00002558       ?root_get_other_interface@RUtilities@stdlib@media@modules@UModSys@@UEBAPEBUIRoot@core@5@PEBUSUniquePointerInfo@75@@Z 0000000140003558 f i umodsys_lib_libmedia:umodsys.mod.media.stdlib.obj
 0001:00002558       ?root_get_other_interface@RUtilities@stdlib@media@modules@UModSys@@UEAAPEAUIRoot@core@5@PEBUSUniquePointerInfo@75@@Z 0000000140003558 f i umodsys_lib_libmedia:umodsys.mod.media.stdlib.obj
 0001:00002588       ?root_is_interface_supported@RUtilities@stdlib@media@modules@UModSys@@UEBA_NPEBUSUniquePointerInfo@core@5@@Z 0000000140003588 f i umodsys_lib_libmedia:umodsys.mod.media.stdlib.obj
 0001:000025b8       ?root_get_interface_info@RBinArchiveFrame@stdlib@media@modules@UModSys@@UEBAAEBUSUniquePointerInfo@core@5@XZ 00000001400035b8 f i umodsys_lib_libmedia:umodsys.mod.media.stdlib.obj
 0001:000025c0       ?root_get_interface_type@RBinArchiveFrame@stdlib@media@modules@UModSys@@UEBAPEBUSUniquePointerInfo@core@5@XZ 00000001400035c0 f i umodsys_lib_libmedia:umodsys.mod.media.stdlib.obj
 0001:000025c8       ?root_get_other_interface@RBinArchiveFrame@stdlib@media@modules@UModSys@@UEAAPEAUIRoot@core@5@PEBUSUniquePointerInfo@75@@Z 00000001400035c8 f i umodsys_lib_libmedia:umodsys.mod.media.stdlib.obj
 0001:000025c8       ?root_get_other_interface@RBinArchiveFrame@stdlib@media@modules@UModSys@@UEBAPEBUIRoot@core@5@PEBUSUniquePointerInfo@75@@Z 00000001400035c8 f i umodsys_lib_libmedia:umodsys.mod.media.stdlib.obj
 0001:0000260c       ?root_is_interface_supported@RBinArchiveFrame@stdlib@media@modules@UModSys@@UEBA_NPEBUSUniquePointerInfo@core@5@@Z 000000014000360c f i umodsys_lib_libmedia:umodsys.mod.media.stdlib.obj
 0001:0000264c       ?ref_add@RBinArchiveFrame@stdlib@media@modules@UModSys@@UEBAXXZ 000000014000364c f i umodsys_lib_libmedia:umodsys.mod.media.stdlib.obj
 0001:00002650       ?ref_remove@RBinArchiveFrame@stdlib@media@modules@UModSys@@UEBAXXZ 0000000140003650 f i umodsys_lib_libmedia:umodsys.mod.media.stdlib.obj
 0001:00002668       ?ref_links@RBinArchiveFrame@stdlib@media@modules@UModSys@@UEBAHXZ 0000000140003668 f i umodsys_lib_libmedia:umodsys.mod.media.stdlib.obj
 0001:0000266c       ?ref_weak@RBinArchiveFrame@stdlib@media@modules@UModSys@@UEBA_NAEAUWeakPointer@IRefObject@core@5@@Z 000000014000366c f i umodsys_lib_libmedia:umodsys.mod.media.stdlib.obj
 0001:0000268c       ?suicide@RBinArchiveFrame@stdlib@media@modules@UModSys@@UEAAXXZ 000000014000368c f i umodsys_lib_libmedia:umodsys.mod.media.stdlib.obj
 0001:000026d8       ??RNN_Add@RBinArchiveFrame@stdlib@media@modules@UModSys@@QEBAPEAUNameNode@IBinArchiveFrame@libmedia@5@AEAUNameNodeCmpUC@785@@Z 00000001400036d8 f i umodsys_lib_libmedia:umodsys.mod.media.stdlib.obj
 0001:00002838       ??RNN_Add@RBinArchiveFrame@stdlib@media@modules@UModSys@@QEBAPEAUNameNode@IBinArchiveFrame@libmedia@5@AEAUNameNodeCmpC@785@@Z 0000000140003838 f i umodsys_lib_libmedia:umodsys.mod.media.stdlib.obj
 0001:0000299c       ?root_get_interface_info@RLibraryBinTree@stdlib@media@modules@UModSys@@UEBAAEBUSUniquePointerInfo@core@5@XZ 000000014000399c f i umodsys_lib_libmedia:umodsys.mod.media.stdlib.obj
 0001:000029a4       ?root_get_interface_type@RLibraryBinTree@stdlib@media@modules@UModSys@@UEBAPEBUSUniquePointerInfo@core@5@XZ 00000001400039a4 f i umodsys_lib_libmedia:umodsys.mod.media.stdlib.obj
 0001:000029ac       ?root_get_other_interface@RLibraryBinTree@stdlib@media@modules@UModSys@@UEBAPEBUIRoot@core@5@PEBUSUniquePointerInfo@75@@Z 00000001400039ac f i umodsys_lib_libmedia:umodsys.mod.media.stdlib.obj
 0001:000029ac       ?root_get_other_interface@RLibraryBinTree@stdlib@media@modules@UModSys@@UEAAPEAUIRoot@core@5@PEBUSUniquePointerInfo@75@@Z 00000001400039ac f i umodsys_lib_libmedia:umodsys.mod.media.stdlib.obj
 0001:000029f0       ?root_is_interface_supported@RLibraryBinTree@stdlib@media@modules@UModSys@@UEBA_NPEBUSUniquePointerInfo@core@5@@Z 00000001400039f0 f i umodsys_lib_libmedia:umodsys.mod.media.stdlib.obj
 0001:00002a30       ?ref_remove@RLibraryObjFilter@stdlib@media@modules@UModSys@@UEBAXXZ 0000000140003a30 f i umodsys_lib_libmedia:umodsys.mod.media.stdlib.obj
 0001:00002a30       ?ref_remove@RLibraryObjCache@stdlib@media@modules@UModSys@@UEBAXXZ 0000000140003a30 f i umodsys_lib_libmedia:umodsys.mod.media.stdlib.obj
 0001:00002a30       ?ref_remove@RLibraryLayered@stdlib@media@modules@UModSys@@UEBAXXZ 0000000140003a30 f i umodsys_lib_libmedia:umodsys.mod.media.stdlib.obj
 0001:00002a30       ?ref_remove@RLibraryBinCache@stdlib@media@modules@UModSys@@UEBAXXZ 0000000140003a30 f i umodsys_lib_libmedia:umodsys.mod.media.stdlib.obj
 0001:00002a30       ?ref_remove@RLibraryBinTree@stdlib@media@modules@UModSys@@UEBAXXZ 0000000140003a30 f i umodsys_lib_libmedia:umodsys.mod.media.stdlib.obj
 0001:00002a30       ?ref_remove@RParameters@rsystem@base@UModSys@@UEBAXXZ 0000000140003a30 f i umodsys_lib_basesys:umodsys.basesys.rparameters.obj
 0001:00002a30       ?ref_remove@RDataArchiver_OsDir@stdio@media@modules@UModSys@@UEBAXXZ 0000000140003a30 f i umodsys_lib_libmedia:umodsys.mod.media.stdio.obj
 0001:00002a48       ?root_get_interface_info@RLibraryBinCache@stdlib@media@modules@UModSys@@UEBAAEBUSUniquePointerInfo@core@5@XZ 0000000140003a48 f i umodsys_lib_libmedia:umodsys.mod.media.stdlib.obj
 0001:00002a50       ?root_get_interface_type@RLibraryBinCache@stdlib@media@modules@UModSys@@UEBAPEBUSUniquePointerInfo@core@5@XZ 0000000140003a50 f i umodsys_lib_libmedia:umodsys.mod.media.stdlib.obj
 0001:00002a58       ?root_get_other_interface@RLibraryBinCache@stdlib@media@modules@UModSys@@UEBAPEBUIRoot@core@5@PEBUSUniquePointerInfo@75@@Z 0000000140003a58 f i umodsys_lib_libmedia:umodsys.mod.media.stdlib.obj
 0001:00002a58       ?root_get_other_interface@RLibraryBinCache@stdlib@media@modules@UModSys@@UEAAPEAUIRoot@core@5@PEBUSUniquePointerInfo@75@@Z 0000000140003a58 f i umodsys_lib_libmedia:umodsys.mod.media.stdlib.obj
 0001:00002a9c       ?root_is_interface_supported@RLibraryBinCache@stdlib@media@modules@UModSys@@UEBA_NPEBUSUniquePointerInfo@core@5@@Z 0000000140003a9c f i umodsys_lib_libmedia:umodsys.mod.media.stdlib.obj
 0001:00002adc       ?ref_links@RLibraryBinTree@stdlib@media@modules@UModSys@@UEBAHXZ 0000000140003adc f i umodsys_lib_libmedia:umodsys.mod.media.stdlib.obj
 0001:00002adc       ?ref_links@RLibraryLayered@stdlib@media@modules@UModSys@@UEBAHXZ 0000000140003adc f i umodsys_lib_libmedia:umodsys.mod.media.stdlib.obj
 0001:00002adc       ?ref_links@RDataArchiver_OsDir@stdio@media@modules@UModSys@@UEBAHXZ 0000000140003adc f i umodsys_lib_libmedia:umodsys.mod.media.stdio.obj
 0001:00002adc       ?ref_links@RLibraryObjCache@stdlib@media@modules@UModSys@@UEBAHXZ 0000000140003adc f i umodsys_lib_libmedia:umodsys.mod.media.stdlib.obj
 0001:00002adc       ?ref_links@RParameters@rsystem@base@UModSys@@UEBAHXZ 0000000140003adc f i umodsys_lib_basesys:umodsys.basesys.rparameters.obj
 0001:00002adc       ?ref_links@RLibraryBinCache@stdlib@media@modules@UModSys@@UEBAHXZ 0000000140003adc f i umodsys_lib_libmedia:umodsys.mod.media.stdlib.obj
 0001:00002adc       ?ref_links@RLibraryObjFilter@stdlib@media@modules@UModSys@@UEBAHXZ 0000000140003adc f i umodsys_lib_libmedia:umodsys.mod.media.stdlib.obj
 0001:00002ae0       ?root_get_interface_info@RLibraryLayered@stdlib@media@modules@UModSys@@UEBAAEBUSUniquePointerInfo@core@5@XZ 0000000140003ae0 f i umodsys_lib_libmedia:umodsys.mod.media.stdlib.obj
 0001:00002ae8       ?root_get_interface_type@RLibraryLayered@stdlib@media@modules@UModSys@@UEBAPEBUSUniquePointerInfo@core@5@XZ 0000000140003ae8 f i umodsys_lib_libmedia:umodsys.mod.media.stdlib.obj
 0001:00002af0       ?root_get_other_interface@RLibraryLayered@stdlib@media@modules@UModSys@@UEAAPEAUIRoot@core@5@PEBUSUniquePointerInfo@75@@Z 0000000140003af0 f i umodsys_lib_libmedia:umodsys.mod.media.stdlib.obj
 0001:00002af0       ?root_get_other_interface@RLibraryLayered@stdlib@media@modules@UModSys@@UEBAPEBUIRoot@core@5@PEBUSUniquePointerInfo@75@@Z 0000000140003af0 f i umodsys_lib_libmedia:umodsys.mod.media.stdlib.obj
 0001:00002b34       ?root_is_interface_supported@RLibraryLayered@stdlib@media@modules@UModSys@@UEBA_NPEBUSUniquePointerInfo@core@5@@Z 0000000140003b34 f i umodsys_lib_libmedia:umodsys.mod.media.stdlib.obj
 0001:00002b74       ?root_get_interface_info@RLibraryObjCache@stdlib@media@modules@UModSys@@UEBAAEBUSUniquePointerInfo@core@5@XZ 0000000140003b74 f i umodsys_lib_libmedia:umodsys.mod.media.stdlib.obj
 0001:00002b7c       ?root_get_interface_type@RLibraryObjCache@stdlib@media@modules@UModSys@@UEBAPEBUSUniquePointerInfo@core@5@XZ 0000000140003b7c f i umodsys_lib_libmedia:umodsys.mod.media.stdlib.obj
 0001:00002b84       ?root_get_other_interface@RLibraryObjCache@stdlib@media@modules@UModSys@@UEAAPEAUIRoot@core@5@PEBUSUniquePointerInfo@75@@Z 0000000140003b84 f i umodsys_lib_libmedia:umodsys.mod.media.stdlib.obj
 0001:00002b84       ?root_get_other_interface@RLibraryObjCache@stdlib@media@modules@UModSys@@UEBAPEBUIRoot@core@5@PEBUSUniquePointerInfo@75@@Z 0000000140003b84 f i umodsys_lib_libmedia:umodsys.mod.media.stdlib.obj
 0001:00002bc8       ?root_is_interface_supported@RLibraryObjCache@stdlib@media@modules@UModSys@@UEBA_NPEBUSUniquePointerInfo@core@5@@Z 0000000140003bc8 f i umodsys_lib_libmedia:umodsys.mod.media.stdlib.obj
 0001:00002c08       ?ref_add@RLibraryObjFilter@stdlib@media@modules@UModSys@@UEBAXXZ 0000000140003c08 f i umodsys_lib_libmedia:umodsys.mod.media.stdlib.obj
 0001:00002c08       ?ref_add@RLibraryLayered@stdlib@media@modules@UModSys@@UEBAXXZ 0000000140003c08 f i umodsys_lib_libmedia:umodsys.mod.media.stdlib.obj
 0001:00002c08       ?ref_add@RDataArchiver_OsDir@stdio@media@modules@UModSys@@UEBAXXZ 0000000140003c08 f i umodsys_lib_libmedia:umodsys.mod.media.stdio.obj
 0001:00002c08       ?ref_add@RLibraryObjCache@stdlib@media@modules@UModSys@@UEBAXXZ 0000000140003c08 f i umodsys_lib_libmedia:umodsys.mod.media.stdlib.obj
 0001:00002c08       ?ref_add@RParameters@rsystem@base@UModSys@@UEBAXXZ 0000000140003c08 f i umodsys_lib_basesys:umodsys.basesys.rparameters.obj
 0001:00002c08       ?ref_add@RLibraryBinCache@stdlib@media@modules@UModSys@@UEBAXXZ 0000000140003c08 f i umodsys_lib_libmedia:umodsys.mod.media.stdlib.obj
 0001:00002c08       ?ref_add@RLibraryBinTree@stdlib@media@modules@UModSys@@UEBAXXZ 0000000140003c08 f i umodsys_lib_libmedia:umodsys.mod.media.stdlib.obj
 0001:00002c0c       ?ref_weak@RLibraryObjCache@stdlib@media@modules@UModSys@@UEBA_NAEAUWeakPointer@IRefObject@core@5@@Z 0000000140003c0c f i umodsys_lib_libmedia:umodsys.mod.media.stdlib.obj
 0001:00002c0c       ?ref_weak@RLibraryObjFilter@stdlib@media@modules@UModSys@@UEBA_NAEAUWeakPointer@IRefObject@core@5@@Z 0000000140003c0c f i umodsys_lib_libmedia:umodsys.mod.media.stdlib.obj
 0001:00002c0c       ?ref_weak@RDataArchiver_OsDir@stdio@media@modules@UModSys@@UEBA_NAEAUWeakPointer@IRefObject@core@5@@Z 0000000140003c0c f i umodsys_lib_libmedia:umodsys.mod.media.stdio.obj
 0001:00002c0c       ?ref_weak@RLibraryLayered@stdlib@media@modules@UModSys@@UEBA_NAEAUWeakPointer@IRefObject@core@5@@Z 0000000140003c0c f i umodsys_lib_libmedia:umodsys.mod.media.stdlib.obj
 0001:00002c0c       ?ref_weak@RLibraryBinCache@stdlib@media@modules@UModSys@@UEBA_NAEAUWeakPointer@IRefObject@core@5@@Z 0000000140003c0c f i umodsys_lib_libmedia:umodsys.mod.media.stdlib.obj
 0001:00002c0c       ?ref_weak@RLibraryBinTree@stdlib@media@modules@UModSys@@UEBA_NAEAUWeakPointer@IRefObject@core@5@@Z 0000000140003c0c f i umodsys_lib_libmedia:umodsys.mod.media.stdlib.obj
 0001:00002c0c       ?ref_weak@RParameters@rsystem@base@UModSys@@UEBA_NAEAUWeakPointer@IRefObject@core@4@@Z 0000000140003c0c f i umodsys_lib_basesys:umodsys.basesys.rparameters.obj
 0001:00002c2c       ?root_get_interface_info@RLibraryObjFilter@stdlib@media@modules@UModSys@@UEBAAEBUSUniquePointerInfo@core@5@XZ 0000000140003c2c f i umodsys_lib_libmedia:umodsys.mod.media.stdlib.obj
 0001:00002c34       ?root_get_interface_type@RLibraryObjFilter@stdlib@media@modules@UModSys@@UEBAPEBUSUniquePointerInfo@core@5@XZ 0000000140003c34 f i umodsys_lib_libmedia:umodsys.mod.media.stdlib.obj
 0001:00002c3c       ?root_get_other_interface@RLibraryObjFilter@stdlib@media@modules@UModSys@@UEBAPEBUIRoot@core@5@PEBUSUniquePointerInfo@75@@Z 0000000140003c3c f i umodsys_lib_libmedia:umodsys.mod.media.stdlib.obj
 0001:00002c3c       ?root_get_other_interface@RLibraryObjFilter@stdlib@media@modules@UModSys@@UEAAPEAUIRoot@core@5@PEBUSUniquePointerInfo@75@@Z 0000000140003c3c f i umodsys_lib_libmedia:umodsys.mod.media.stdlib.obj
 0001:00002c80       ?root_is_interface_supported@RLibraryObjFilter@stdlib@media@modules@UModSys@@UEBA_NPEBUSUniquePointerInfo@core@5@@Z 0000000140003c80 f i umodsys_lib_libmedia:umodsys.mod.media.stdlib.obj
 0001:00002cc0       ?get_generated_names@RGenerator@stdlib@media@modules@UModSys@@UEBAHAEAUSUniquePtrList@core@5@@Z 0000000140003cc0 f i umodsys_lib_libmedia:umodsys.mod.media.stdlib.obj
 0001:00002d40       ?get_generated_types@RGenerator@stdlib@media@modules@UModSys@@UEBAHAEAUSUniquePtrList@core@5@PEBUSUniquePointerInfo@75@@Z 0000000140003d40 f i umodsys_lib_libmedia:umodsys.mod.media.stdlib.obj
 0001:00002eac       ?generate@RGenerator@stdlib@media@modules@UModSys@@UEAA_NAEAU?$TRefObject@UIRefObject@core@UModSys@@U?$TRefObjectFunc@UIRefObject@core@UModSys@@@tl@3@@tl@5@PEBUSUniquePointerInfo@core@5@AEBUSParameters@95@@Z 0000000140003eac f i umodsys_lib_libmedia:umodsys.mod.media.stdlib.obj
 0001:00003128       ?root_get_interface_info@RGenerator@stdlib@media@modules@UModSys@@UEBAAEBUSUniquePointerInfo@core@5@XZ 0000000140004128 f i umodsys_lib_libmedia:umodsys.mod.media.stdlib.obj
 0001:00003130       ?root_get_interface_type@RGenerator@stdlib@media@modules@UModSys@@UEBAPEBUSUniquePointerInfo@core@5@XZ 0000000140004130 f i umodsys_lib_libmedia:umodsys.mod.media.stdlib.obj
 0001:00003138       ?root_get_other_interface@RGenerator@stdlib@media@modules@UModSys@@UEAAPEAUIRoot@core@5@PEBUSUniquePointerInfo@75@@Z 0000000140004138 f i umodsys_lib_libmedia:umodsys.mod.media.stdlib.obj
 0001:00003138       ?root_get_other_interface@RGenerator@stdlib@media@modules@UModSys@@UEBAPEBUIRoot@core@5@PEBUSUniquePointerInfo@75@@Z 0000000140004138 f i umodsys_lib_libmedia:umodsys.mod.media.stdlib.obj
 0001:00003170       ?root_is_interface_supported@RGenerator@stdlib@media@modules@UModSys@@UEBA_NPEBUSUniquePointerInfo@core@5@@Z 0000000140004170 f i umodsys_lib_libmedia:umodsys.mod.media.stdlib.obj
 0001:000031a8       ?get_uid@RGenerator@stdlib@media@modules@UModSys@@UEBAPEBUSUniquePointerInfo@core@5@XZ 00000001400041a8 f i umodsys_lib_libmedia:umodsys.mod.media.stdlib.obj
 0001:000031b0       ?buffer_free@RUtilities@stdlib@media@modules@UModSys@@UEAA_NAEAUSBuffer@libmedia@5@PEBUSSourceContext@core@5@@Z 00000001400041b0 f   umodsys_lib_libmedia:umodsys.mod.media.stdlib.obj
 0001:000031fc       ?buffer_alloc@RUtilities@stdlib@media@modules@UModSys@@UEAA_NAEAUSBuffer@libmedia@5@_KPEBUSSourceContext@core@5@@Z 00000001400041fc f   umodsys_lib_libmedia:umodsys.mod.media.stdlib.obj
 0001:00003304       ?bin_reader@RLibraryBinCache@stdlib@media@modules@UModSys@@UEAA?AU?$TRefObject@UIStreamReader@libmedia@UModSys@@U?$TRefObjectFunc@UIStreamReader@libmedia@UModSys@@@tl@3@@tl@5@AEBU?$TString@U?$TSCoreConst@D@su@tl@UModSys@@U?$TComparerBinaryHash@D@234@@75@AEBUSFlags@libmedia@5@@Z 0000000140004304 f   umodsys_lib_libmedia:umodsys.mod.media.stdlib.obj
 0001:00003304       ?sub_reader@RUtilities@stdlib@media@modules@UModSys@@UEAA?AU?$TRefObject@UIStreamReader@libmedia@UModSys@@U?$TRefObjectFunc@UIStreamReader@libmedia@UModSys@@@tl@3@@tl@5@PEAUIStreamReader@libmedia@5@_J1@Z 0000000140004304 f   umodsys_lib_libmedia:umodsys.mod.media.stdlib.obj
 0001:00003304       ?bin_reader@ILibrary@libmedia@UModSys@@UEAA?AU?$TRefObject@UIStreamReader@libmedia@UModSys@@U?$TRefObjectFunc@UIStreamReader@libmedia@UModSys@@@tl@3@@tl@3@AEBU?$TString@U?$TSCoreConst@D@su@tl@UModSys@@U?$TComparerBinaryHash@D@234@@53@AEBUSFlags@23@@Z 0000000140004304 f   umodsys_lib_libmedia:umodsys.lib.media.library.obj
 0001:00003304       ?sub_writer@RUtilities@stdlib@media@modules@UModSys@@UEAA?AU?$TRefObject@UIStreamWriter@libmedia@UModSys@@U?$TRefObjectFunc@UIStreamWriter@libmedia@UModSys@@@tl@3@@tl@5@PEAUIStreamWriter@libmedia@5@_J1@Z 0000000140004304 f   umodsys_lib_libmedia:umodsys.mod.media.stdlib.obj
 0001:00003304       ?mem_writer@RUtilities@stdlib@media@modules@UModSys@@UEAA?AU?$TRefObject@UIStreamWriter@libmedia@UModSys@@U?$TRefObjectFunc@UIStreamWriter@libmedia@UModSys@@@tl@3@@tl@5@PEBUSMem@core@5@PEAUIMemWriterCompleted@IUtilities@libmedia@5@PEAUIRefObject@95@@Z 0000000140004304 f   umodsys_lib_libmedia:umodsys.mod.media.stdlib.obj
 0001:00003304       ?bin_writer@RLibraryBinCache@stdlib@media@modules@UModSys@@UEAA?AU?$TRefObject@UIStreamWriter@libmedia@UModSys@@U?$TRefObjectFunc@UIStreamWriter@libmedia@UModSys@@@tl@3@@tl@5@AEBU?$TString@U?$TSCoreConst@D@su@tl@UModSys@@U?$TComparerBinaryHash@D@234@@75@AEBUSFlags@libmedia@5@@Z 0000000140004304 f   umodsys_lib_libmedia:umodsys.mod.media.stdlib.obj
 0001:00003304       ?bin_writer@ILibrary@libmedia@UModSys@@UEAA?AU?$TRefObject@UIStreamWriter@libmedia@UModSys@@U?$TRefObjectFunc@UIStreamWriter@libmedia@UModSys@@@tl@3@@tl@3@AEBU?$TString@U?$TSCoreConst@D@su@tl@UModSys@@U?$TComparerBinaryHash@D@234@@53@AEBUSFlags@23@@Z 0000000140004304 f   umodsys_lib_libmedia:umodsys.lib.media.library.obj
 0001:00003304       ?mem_reader@RUtilities@stdlib@media@modules@UModSys@@UEAA?AU?$TRefObject@UIStreamReader@libmedia@UModSys@@U?$TRefObjectFunc@UIStreamReader@libmedia@UModSys@@@tl@3@@tl@5@AEBUSCMemShared@core@5@@Z 0000000140004304 f   umodsys_lib_libmedia:umodsys.mod.media.stdlib.obj
 0001:00003304       ?mem_reader@RUtilities@stdlib@media@modules@UModSys@@UEAA?AU?$TRefObject@UIStreamReader@libmedia@UModSys@@U?$TRefObjectFunc@UIStreamReader@libmedia@UModSys@@@tl@3@@tl@5@AEBUSCMem@core@5@@Z 0000000140004304 f   umodsys_lib_libmedia:umodsys.mod.media.stdlib.obj
 0001:00003314       ??_ERUtilities@stdlib@media@modules@UModSys@@UEAAPEAXI@Z 0000000140004314 f i  CIL library: CIL module
 0001:00003314       ??_GRUtilities@stdlib@media@modules@UModSys@@UEAAPEAXI@Z 0000000140004314 f i umodsys_lib_libmedia:umodsys.mod.media.stdlib.obj
 0001:000033bc       ?get_flag@RBinArchiveFrame@stdlib@media@modules@UModSys@@UEBA?AW4eStates@?$TFlags4State@USMediaFlagUid@libmedia@UModSys@@I@tl@5@H@Z 00000001400043bc f   umodsys_lib_libmedia:umodsys.mod.media.stdlib.obj
 0001:000033cc       ?get_flags_auto@RBinArchiveFrame@stdlib@media@modules@UModSys@@UEBA?AU?$TFlags4State@USMediaFlagUid@libmedia@UModSys@@I@tl@5@XZ 00000001400043cc f   umodsys_lib_libmedia:umodsys.mod.media.stdlib.obj
 0001:000033d8       ?set_flag@RBinArchiveFrame@stdlib@media@modules@UModSys@@UEAA?AW4eStates@?$TFlags4State@USMediaFlagUid@libmedia@UModSys@@I@tl@5@HW46785@@Z 00000001400043d8 f   umodsys_lib_libmedia:umodsys.mod.media.stdlib.obj
 0001:0000340c       ?data_reader@RBinArchiveFrame@stdlib@media@modules@UModSys@@UEAA?AU?$TRefObject@UIStreamReader@libmedia@UModSys@@U?$TRefObjectFunc@UIStreamReader@libmedia@UModSys@@@tl@3@@tl@5@AEBU?$TString@U?$TSCoreConst@D@su@tl@UModSys@@U?$TComparerBinaryHash@D@234@@75@AEBUSFlags@libmedia@5@@Z 000000014000440c f   umodsys_lib_libmedia:umodsys.mod.media.stdlib.obj
 0001:000034cc       ?data_writer@RBinArchiveFrame@stdlib@media@modules@UModSys@@UEAA?AU?$TRefObject@UIStreamWriter@libmedia@UModSys@@U?$TRefObjectFunc@UIStreamWriter@libmedia@UModSys@@@tl@3@@tl@5@AEBU?$TString@U?$TSCoreConst@D@su@tl@UModSys@@U?$TComparerBinaryHash@D@234@@75@AEBUSFlags@libmedia@5@@Z 00000001400044cc f   umodsys_lib_libmedia:umodsys.mod.media.stdlib.obj
 0001:00003514       ?data_load@RBinArchiveFrame@stdlib@media@modules@UModSys@@UEAA_NAEBU?$TString@U?$TSCoreConst@D@su@tl@UModSys@@U?$TComparerBinaryHash@D@234@@tl@5@AEAUSCMemShared@core@5@AEBUSFlags@libmedia@5@@Z 0000000140004514 f   umodsys_lib_libmedia:umodsys.mod.media.stdlib.obj
 0001:00003588       ?data_save@RBinArchiveFrame@stdlib@media@modules@UModSys@@UEAA_NAEBU?$TString@U?$TSCoreConst@D@su@tl@UModSys@@U?$TComparerBinaryHash@D@234@@tl@5@AEBUSCMem@core@5@AEBUSFlags@libmedia@5@@Z 0000000140004588 f   umodsys_lib_libmedia:umodsys.mod.media.stdlib.obj
 0001:000035c0       ?data_list@RBinArchiveFrame@stdlib@media@modules@UModSys@@UEAA_NAEBU?$TString@U?$TSCoreConst@D@su@tl@UModSys@@U?$TComparerBinaryHash@D@234@@tl@5@_KAEAU?$TIStackSocket@USFileInfo@libmedia@UModSys@@@75@AEBUSFlags@libmedia@5@@Z 00000001400045c0 f   umodsys_lib_libmedia:umodsys.mod.media.stdlib.obj
 0001:00003868       ?data_info@RBinArchiveFrame@stdlib@media@modules@UModSys@@UEAA_NAEBU?$TString@U?$TSCoreConst@D@su@tl@UModSys@@U?$TComparerBinaryHash@D@234@@tl@5@_KAEAUSFileInfo@libmedia@5@AEBUSFlags@95@@Z 0000000140004868 f   umodsys_lib_libmedia:umodsys.mod.media.stdlib.obj
 0001:00003988       ?get_permissions@RBinArchiveFrame@stdlib@media@modules@UModSys@@UEAAHXZ 0000000140004988 f   umodsys_lib_libmedia:umodsys.mod.media.stdlib.obj
 0001:0000399c       ?open@RBinArchiveFrame@stdlib@media@modules@UModSys@@UEAA_NPEAUIClient@IBinArchiveFrame@libmedia@5@PEBUSParameters@core@5@@Z 000000014000499c f   umodsys_lib_libmedia:umodsys.mod.media.stdlib.obj
 0001:00003df4       ?close@RBinArchiveFrame@stdlib@media@modules@UModSys@@UEAA_NXZ 0000000140004df4 f   umodsys_lib_libmedia:umodsys.mod.media.stdlib.obj
 0001:00003f00       ?add_node_r@RBinArchiveFrame@stdlib@media@modules@UModSys@@UEAAPEAUNameNode@IBinArchiveFrame@libmedia@5@AEBU?$TString@U?$TSCoreConst@D@su@tl@UModSys@@U?$TComparerBinaryHash@D@234@@tl@5@_KAEAUSMem@core@5@@Z 0000000140004f00 f   umodsys_lib_libmedia:umodsys.mod.media.stdlib.obj
 0001:00003fb8       ?add_node_w@RBinArchiveFrame@stdlib@media@modules@UModSys@@UEAAPEAUNameNode@IBinArchiveFrame@libmedia@5@AEBU?$TString@U?$TSCoreConst@D@su@tl@UModSys@@U?$TComparerBinaryHash@D@234@@tl@5@_K@Z 0000000140004fb8 f   umodsys_lib_libmedia:umodsys.mod.media.stdlib.obj
 0001:000040ac       ?remove_node@RBinArchiveFrame@stdlib@media@modules@UModSys@@UEAA_NPEAUNameNode@IBinArchiveFrame@libmedia@5@@Z 00000001400050ac f   umodsys_lib_libmedia:umodsys.mod.media.stdlib.obj
 0001:000040d8       ?find_node@RBinArchiveFrame@stdlib@media@modules@UModSys@@UEAAPEAUNameNode@IBinArchiveFrame@libmedia@5@AEBU?$TString@U?$TSCoreConst@D@su@tl@UModSys@@U?$TComparerBinaryHash@D@234@@tl@5@@Z 00000001400050d8 f   umodsys_lib_libmedia:umodsys.mod.media.stdlib.obj
 0001:00004210       ?node_size@RBinArchiveFrame@stdlib@media@modules@UModSys@@UEAA_KAEBU?$TString@U?$TSCoreConst@D@su@tl@UModSys@@U?$TComparerBinaryHash@D@234@@tl@5@H@Z 0000000140005210 f   umodsys_lib_libmedia:umodsys.mod.media.stdlib.obj
 0001:00004228       ?kill_node@RBinArchiveFrame@stdlib@media@modules@UModSys@@SA_NPEAUNameNode@IBinArchiveFrame@libmedia@5@@Z 0000000140005228 f   umodsys_lib_libmedia:umodsys.mod.media.stdlib.obj
 0001:00004250       ?fill_info@RBinArchiveFrame@stdlib@media@modules@UModSys@@QEAA_NAEAUSFileInfo@libmedia@5@PEAUNameNode@IBinArchiveFrame@75@AEBU?$TString@U?$TSCoreConst@D@su@tl@UModSys@@U?$TComparerBinaryHash@D@234@@tl@5@_K@Z 0000000140005250 f   umodsys_lib_libmedia:umodsys.mod.media.stdlib.obj
 0001:0000456c       ?openr@RBinArchiveFrame@stdlib@media@modules@UModSys@@QEAA_NPEAUILibrary@libmedia@5@AEBU?$TString@U?$TSCoreConst@D@su@tl@UModSys@@U?$TComparerBinaryHash@D@234@@tl@5@PEBUSParameters@core@5@@Z 000000014000556c f   umodsys_lib_libmedia:umodsys.mod.media.stdlib.obj
 0001:000046e4       ?closew@RBinArchiveFrame@stdlib@media@modules@UModSys@@QEAA_N_N@Z 00000001400056e4 f   umodsys_lib_libmedia:umodsys.mod.media.stdlib.obj
 0001:0000488c       ??0RBinArchiveFrame@stdlib@media@modules@UModSys@@QEAA@PEAUIModObject@base@4@AEBUSParameters@core@4@U?$TFlags4State@USMediaFlagUid@libmedia@UModSys@@I@tl@4@@Z 000000014000588c f   umodsys_lib_libmedia:umodsys.mod.media.stdlib.obj
 0001:00004998       ??_ERBinArchiveFrame@stdlib@media@modules@UModSys@@UEAAPEAXI@Z 0000000140005998 f i  CIL library: CIL module
 0001:00004998       ??_GRBinArchiveFrame@stdlib@media@modules@UModSys@@UEAAPEAXI@Z 0000000140005998 f i umodsys_lib_libmedia:umodsys.mod.media.stdlib.obj
 0001:00004a90       ??1IBinArchiveFrame@libmedia@UModSys@@UEAA@XZ 0000000140005a90 f i umodsys_lib_libmedia:umodsys.mod.media.stdlib.obj
 0001:00004b08       ??_ERLibraryBinTree@stdlib@media@modules@UModSys@@UEAAPEAXI@Z 0000000140005b08 f i  CIL library: CIL module
 0001:00004b08       ??_GRLibraryBinTree@stdlib@media@modules@UModSys@@UEAAPEAXI@Z 0000000140005b08 f i umodsys_lib_libmedia:umodsys.mod.media.stdlib.obj
 0001:00004b8c       ??1IBinArchive@libmedia@UModSys@@UEAA@XZ 0000000140005b8c f i umodsys_lib_libmedia:umodsys.mod.media.stdio.obj
 0001:00004b8c       ??1ILibraryBinCache@libmedia@UModSys@@UEAA@XZ 0000000140005b8c f i umodsys_lib_libmedia:umodsys.mod.media.stdlib.obj
 0001:00004b8c       ??1ILibraryObjCache@libmedia@UModSys@@UEAA@XZ 0000000140005b8c f i umodsys_lib_libmedia:umodsys.mod.media.stdlib.obj
 0001:00004b8c       ??1ILibraryBinTree@libmedia@UModSys@@UEAA@XZ 0000000140005b8c f i umodsys_lib_libmedia:umodsys.mod.media.stdlib.obj
 0001:00004b8c       ??1ILibraryObjFilter@libmedia@UModSys@@UEAA@XZ 0000000140005b8c f i umodsys_lib_libmedia:umodsys.mod.media.stdlib.obj
 0001:00004b8c       ??1ILibraryLayered@libmedia@UModSys@@UEAA@XZ 0000000140005b8c f i umodsys_lib_libmedia:umodsys.mod.media.stdlib.obj
 0001:00004bc8       ?get_flags_auto@RLibraryBinTree@stdlib@media@modules@UModSys@@UEBA?AU?$TFlags4State@USMediaFlagUid@libmedia@UModSys@@I@tl@5@XZ 0000000140005bc8 f   umodsys_lib_libmedia:umodsys.mod.media.stdlib.obj
 0001:00004bd4       ?bin_reader@RLibraryBinTree@stdlib@media@modules@UModSys@@UEAA?AU?$TRefObject@UIStreamReader@libmedia@UModSys@@U?$TRefObjectFunc@UIStreamReader@libmedia@UModSys@@@tl@3@@tl@5@AEBU?$TString@U?$TSCoreConst@D@su@tl@UModSys@@U?$TComparerBinaryHash@D@234@@75@AEBUSFlags@libmedia@5@@Z 0000000140005bd4 f   umodsys_lib_libmedia:umodsys.mod.media.stdlib.obj
 0001:00004d34       ?bin_writer@RLibraryBinTree@stdlib@media@modules@UModSys@@UEAA?AU?$TRefObject@UIStreamWriter@libmedia@UModSys@@U?$TRefObjectFunc@UIStreamWriter@libmedia@UModSys@@@tl@3@@tl@5@AEBU?$TString@U?$TSCoreConst@D@su@tl@UModSys@@U?$TComparerBinaryHash@D@234@@75@AEBUSFlags@libmedia@5@@Z 0000000140005d34 f   umodsys_lib_libmedia:umodsys.mod.media.stdlib.obj
 0001:00004e94       ?bin_load@RLibraryBinTree@stdlib@media@modules@UModSys@@UEAA_NAEBU?$TString@U?$TSCoreConst@D@su@tl@UModSys@@U?$TComparerBinaryHash@D@234@@tl@5@AEAUSCMemShared@core@5@AEBUSFlags@libmedia@5@@Z 0000000140005e94 f   umodsys_lib_libmedia:umodsys.mod.media.stdlib.obj
 0001:00004fc0       ?bin_save@RLibraryBinTree@stdlib@media@modules@UModSys@@UEAA_NAEBU?$TString@U?$TSCoreConst@D@su@tl@UModSys@@U?$TComparerBinaryHash@D@234@@tl@5@AEBUSCMem@core@5@AEBUSFlags@libmedia@5@@Z 0000000140005fc0 f   umodsys_lib_libmedia:umodsys.mod.media.stdlib.obj
 0001:000050c8       ?bin_info@RLibraryBinTree@stdlib@media@modules@UModSys@@UEAA_NAEBU?$TString@U?$TSCoreConst@D@su@tl@UModSys@@U?$TComparerBinaryHash@D@234@@tl@5@AEAUSFileInfo@libmedia@5@AEBUSFlags@95@@Z 00000001400060c8 f   umodsys_lib_libmedia:umodsys.mod.media.stdlib.obj
 0001:000051c4       ?bin_list@RLibraryBinTree@stdlib@media@modules@UModSys@@UEAA_NAEBU?$TString@U?$TSCoreConst@D@su@tl@UModSys@@U?$TComparerBinaryHash@D@234@@tl@5@AEAU?$TIStackSocket@USFileInfo@libmedia@UModSys@@@75@AEBUSFlags@libmedia@5@@Z 00000001400061c4 f   umodsys_lib_libmedia:umodsys.mod.media.stdlib.obj
 0001:000052d0       ?mount_get@RLibraryBinTree@stdlib@media@modules@UModSys@@UEBA?AUSPoint@ILibraryBinTree@libmedia@5@AEBUSId@785@@Z 00000001400062d0 f   umodsys_lib_libmedia:umodsys.mod.media.stdlib.obj
 0001:00005334       ?mount_add@RLibraryBinTree@stdlib@media@modules@UModSys@@UEAA_NAEBUSId@ILibraryBinTree@libmedia@5@AEBUSPoint@785@@Z 0000000140006334 f   umodsys_lib_libmedia:umodsys.mod.media.stdlib.obj
 0001:0000545c       ?mount_remove@RLibraryBinTree@stdlib@media@modules@UModSys@@UEAA_NAEBUSId@ILibraryBinTree@libmedia@5@@Z 000000014000645c f   umodsys_lib_libmedia:umodsys.mod.media.stdlib.obj
 0001:00005488       ?mount_clear@RLibraryBinTree@stdlib@media@modules@UModSys@@UEAA_NXZ 0000000140006488 f   umodsys_lib_libmedia:umodsys.mod.media.stdlib.obj
 0001:000054b0       ??_ERLibraryBinCache@stdlib@media@modules@UModSys@@UEAAPEAXI@Z 00000001400064b0 f i  CIL library: CIL module
 0001:000054b0       ??_GRLibraryBinCache@stdlib@media@modules@UModSys@@UEAAPEAXI@Z 00000001400064b0 f i umodsys_lib_libmedia:umodsys.mod.media.stdlib.obj
 0001:00005534       ?get_flags_auto@RLibraryBinCache@stdlib@media@modules@UModSys@@UEBA?AU?$TFlags4State@USMediaFlagUid@libmedia@UModSys@@I@tl@5@XZ 0000000140006534 f   umodsys_lib_libmedia:umodsys.mod.media.stdlib.obj
 0001:00005540       ?bin_load@RLibraryBinCache@stdlib@media@modules@UModSys@@UEAA_NAEBU?$TString@U?$TSCoreConst@D@su@tl@UModSys@@U?$TComparerBinaryHash@D@234@@tl@5@AEAUSCMemShared@core@5@AEBUSFlags@libmedia@5@@Z 0000000140006540 f   umodsys_lib_libmedia:umodsys.mod.media.stdlib.obj
 0001:00005664       ?bin_get@RLibraryBinCache@stdlib@media@modules@UModSys@@UEAA_NAEBU?$TString@U?$TSCoreConst@D@su@tl@UModSys@@U?$TComparerBinaryHash@D@234@@tl@5@AEAUSCMemShared@core@5@_N@Z 0000000140006664 f   umodsys_lib_libmedia:umodsys.mod.media.stdlib.obj
 0001:00005664       ?obj_cget@RLibraryObjCache@stdlib@media@modules@UModSys@@UEAA_NAEBU?$TString@U?$TSCoreConst@D@su@tl@UModSys@@U?$TComparerBinaryHash@D@234@@tl@5@AEAU?$TRefObject@UIRefObject@core@UModSys@@U?$TRefObjectFunc@UIRefObject@core@UModSys@@@tl@3@@75@_N@Z 0000000140006664 f   umodsys_lib_libmedia:umodsys.mod.media.stdlib.obj
 0001:00005698       ?bin_put@RLibraryBinCache@stdlib@media@modules@UModSys@@UEAA_NAEBU?$TString@U?$TSCoreConst@D@su@tl@UModSys@@U?$TComparerBinaryHash@D@234@@tl@5@PEBUSCMemShared@core@5@@Z 0000000140006698 f   umodsys_lib_libmedia:umodsys.mod.media.stdlib.obj
 0001:000056b8       ?bincache_get@RLibraryBinCache@stdlib@media@modules@UModSys@@UEBA_NAEBU?$TString@U?$TSCoreConst@D@su@tl@UModSys@@U?$TComparerBinaryHash@D@234@@tl@5@PEAUSCMemShared@core@5@PEA_N@Z 00000001400066b8 f   umodsys_lib_libmedia:umodsys.mod.media.stdlib.obj
 0001:00005770       ?bincache_add@RLibraryBinCache@stdlib@media@modules@UModSys@@UEAA_NAEBU?$TString@U?$TSCoreConst@D@su@tl@UModSys@@U?$TComparerBinaryHash@D@234@@tl@5@@Z 0000000140006770 f   umodsys_lib_libmedia:umodsys.mod.media.stdlib.obj
 0001:00005798       ?bincache_add@RLibraryBinCache@stdlib@media@modules@UModSys@@UEAA_NAEBU?$TString@U?$TSCoreConst@D@su@tl@UModSys@@U?$TComparerBinaryHash@D@234@@tl@5@AEBUSCMemShared@core@5@@Z 0000000140006798 f   umodsys_lib_libmedia:umodsys.mod.media.stdlib.obj
 0001:000057a0       ?bincache_remove@RLibraryBinCache@stdlib@media@modules@UModSys@@UEAA_NAEBU?$TString@U?$TSCoreConst@D@su@tl@UModSys@@U?$TComparerBinaryHash@D@234@@tl@5@@Z 00000001400067a0 f   umodsys_lib_libmedia:umodsys.mod.media.stdlib.obj
 0001:000057cc       ?bincache_clear@RLibraryBinCache@stdlib@media@modules@UModSys@@UEAA_NXZ 00000001400067cc f   umodsys_lib_libmedia:umodsys.mod.media.stdlib.obj
 0001:000057f4       ?bincache_add@RLibraryBinCache@stdlib@media@modules@UModSys@@QEAA_NAEBU?$TString@U?$TSCoreConst@D@su@tl@UModSys@@U?$TComparerBinaryHash@D@234@@tl@5@AEBUSCMemShared@core@5@_N@Z 00000001400067f4 f   umodsys_lib_libmedia:umodsys.mod.media.stdlib.obj
 0001:00005900       ??0RLibraryLayered@stdlib@media@modules@UModSys@@QEAA@PEAUIModObject@base@4@AEBUSParameters@core@4@U?$TFlags4State@USMediaFlagUid@libmedia@UModSys@@I@tl@4@@Z 0000000140006900 f   umodsys_lib_libmedia:umodsys.mod.media.stdlib.obj
 0001:000059c0       ??_ERLibraryLayered@stdlib@media@modules@UModSys@@UEAAPEAXI@Z 00000001400069c0 f i  CIL library: CIL module
 0001:000059c0       ??_GRLibraryLayered@stdlib@media@modules@UModSys@@UEAAPEAXI@Z 00000001400069c0 f i umodsys_lib_libmedia:umodsys.mod.media.stdlib.obj
 0001:00005a8c       ?get_flag@RLibraryLayered@stdlib@media@modules@UModSys@@UEBA?AW4eStates@?$TFlags4State@USMediaFlagUid@libmedia@UModSys@@I@tl@5@H@Z 0000000140006a8c f   umodsys_lib_libmedia:umodsys.mod.media.stdlib.obj
 0001:00005a98       ?get_flags_auto@RLibraryLayered@stdlib@media@modules@UModSys@@UEBA?AU?$TFlags4State@USMediaFlagUid@libmedia@UModSys@@I@tl@5@XZ 0000000140006a98 f   umodsys_lib_libmedia:umodsys.mod.media.stdlib.obj
 0001:00005aa4       ?set_flag@RLibraryLayered@stdlib@media@modules@UModSys@@UEAA?AW4eStates@?$TFlags4State@USMediaFlagUid@libmedia@UModSys@@I@tl@5@HW46785@@Z 0000000140006aa4 f   umodsys_lib_libmedia:umodsys.mod.media.stdlib.obj
 0001:00005acc       ?bin_reader@RLibraryLayered@stdlib@media@modules@UModSys@@UEAA?AU?$TRefObject@UIStreamReader@libmedia@UModSys@@U?$TRefObjectFunc@UIStreamReader@libmedia@UModSys@@@tl@3@@tl@5@AEBU?$TString@U?$TSCoreConst@D@su@tl@UModSys@@U?$TComparerBinaryHash@D@234@@75@AEBUSFlags@libmedia@5@@Z 0000000140006acc f   umodsys_lib_libmedia:umodsys.mod.media.stdlib.obj
 0001:00005bb4       ?bin_writer@RLibraryLayered@stdlib@media@modules@UModSys@@UEAA?AU?$TRefObject@UIStreamWriter@libmedia@UModSys@@U?$TRefObjectFunc@UIStreamWriter@libmedia@UModSys@@@tl@3@@tl@5@AEBU?$TString@U?$TSCoreConst@D@su@tl@UModSys@@U?$TComparerBinaryHash@D@234@@75@AEBUSFlags@libmedia@5@@Z 0000000140006bb4 f   umodsys_lib_libmedia:umodsys.mod.media.stdlib.obj
 0001:00005c9c       ?bin_load@RLibraryLayered@stdlib@media@modules@UModSys@@UEAA_NAEBU?$TString@U?$TSCoreConst@D@su@tl@UModSys@@U?$TComparerBinaryHash@D@234@@tl@5@AEAUSCMemShared@core@5@AEBUSFlags@libmedia@5@@Z 0000000140006c9c f   umodsys_lib_libmedia:umodsys.mod.media.stdlib.obj
 0001:00005f44       ?bin_save@RLibraryLayered@stdlib@media@modules@UModSys@@UEAA_NAEBU?$TString@U?$TSCoreConst@D@su@tl@UModSys@@U?$TComparerBinaryHash@D@234@@tl@5@AEBUSCMem@core@5@AEBUSFlags@libmedia@5@@Z 0000000140006f44 f   umodsys_lib_libmedia:umodsys.mod.media.stdlib.obj
 0001:000061a0       ?bin_info@RLibraryLayered@stdlib@media@modules@UModSys@@UEAA_NAEBU?$TString@U?$TSCoreConst@D@su@tl@UModSys@@U?$TComparerBinaryHash@D@234@@tl@5@AEAUSFileInfo@libmedia@5@AEBUSFlags@95@@Z 00000001400071a0 f   umodsys_lib_libmedia:umodsys.mod.media.stdlib.obj
 0001:00006250       ?bin_list@RLibraryLayered@stdlib@media@modules@UModSys@@UEAA_NAEBU?$TString@U?$TSCoreConst@D@su@tl@UModSys@@U?$TComparerBinaryHash@D@234@@tl@5@AEAU?$TIStackSocket@USFileInfo@libmedia@UModSys@@@75@AEBUSFlags@libmedia@5@@Z 0000000140007250 f   umodsys_lib_libmedia:umodsys.mod.media.stdlib.obj
 0001:00006314       ?bin_get@RLibraryLayered@stdlib@media@modules@UModSys@@UEAA_NAEBU?$TString@U?$TSCoreConst@D@su@tl@UModSys@@U?$TComparerBinaryHash@D@234@@tl@5@AEAUSCMemShared@core@5@_N@Z 0000000140007314 f   umodsys_lib_libmedia:umodsys.mod.media.stdlib.obj
 0001:00006398       ?bin_put@RLibraryLayered@stdlib@media@modules@UModSys@@UEAA_NAEBU?$TString@U?$TSCoreConst@D@su@tl@UModSys@@U?$TComparerBinaryHash@D@234@@tl@5@PEBUSCMemShared@core@5@@Z 0000000140007398 f   umodsys_lib_libmedia:umodsys.mod.media.stdlib.obj
 0001:00006408       ?obj_fget@RLibraryLayered@stdlib@media@modules@UModSys@@UEAA_NAEBUSInfo@IBinObjFilter@libmedia@5@AEAU?$TRefObject@UIRefObject@core@UModSys@@U?$TRefObjectFunc@UIRefObject@core@UModSys@@@tl@3@@tl@5@@Z 0000000140007408 f   umodsys_lib_libmedia:umodsys.mod.media.stdlib.obj
 0001:00006478       ?obj_fload@RLibraryLayered@stdlib@media@modules@UModSys@@UEAA_NAEBUSInfo@IBinObjFilter@libmedia@5@PEAUIRefObject@core@5@@Z 0000000140007478 f   umodsys_lib_libmedia:umodsys.mod.media.stdlib.obj
 0001:000064e8       ?obj_fsave@RLibraryLayered@stdlib@media@modules@UModSys@@UEAA_NAEAUSInfo@IBinObjFilter@libmedia@5@PEBUIRefObject@core@5@@Z 00000001400074e8 f   umodsys_lib_libmedia:umodsys.mod.media.stdlib.obj
 0001:00006558       ?obj_cget@RLibraryLayered@stdlib@media@modules@UModSys@@UEAA_NAEBU?$TString@U?$TSCoreConst@D@su@tl@UModSys@@U?$TComparerBinaryHash@D@234@@tl@5@AEAU?$TRefObject@UIRefObject@core@UModSys@@U?$TRefObjectFunc@UIRefObject@core@UModSys@@@tl@3@@75@_N@Z 0000000140007558 f   umodsys_lib_libmedia:umodsys.mod.media.stdlib.obj
 0001:000065dc       ?obj_cput@RLibraryLayered@stdlib@media@modules@UModSys@@UEAA_NAEBU?$TString@U?$TSCoreConst@D@su@tl@UModSys@@U?$TComparerBinaryHash@D@234@@tl@5@PEAUIRefObject@core@5@@Z 00000001400075dc f   umodsys_lib_libmedia:umodsys.mod.media.stdlib.obj
 0001:0000664c       ?obj_get@RLibraryLayered@stdlib@media@modules@UModSys@@UEAA_NAEBU?$TString@U?$TSCoreConst@D@su@tl@UModSys@@U?$TComparerBinaryHash@D@234@@tl@5@AEAU?$TRefObject@UIRefObject@core@UModSys@@U?$TRefObjectFunc@UIRefObject@core@UModSys@@@tl@3@@75@AEBUSObjOptions@ILibrary@libmedia@5@@Z 000000014000764c f   umodsys_lib_libmedia:umodsys.mod.media.stdlib.obj
 0001:00006aa0       ?obj_load@RLibraryLayered@stdlib@media@modules@UModSys@@UEAA_NAEBU?$TString@U?$TSCoreConst@D@su@tl@UModSys@@U?$TComparerBinaryHash@D@234@@tl@5@PEAUIRefObject@core@5@AEBUSObjOptions@ILibrary@libmedia@5@@Z 0000000140007aa0 f   umodsys_lib_libmedia:umodsys.mod.media.stdlib.obj
 0001:00006c78       ?obj_save@RLibraryLayered@stdlib@media@modules@UModSys@@UEAA_NAEBU?$TString@U?$TSCoreConst@D@su@tl@UModSys@@U?$TComparerBinaryHash@D@234@@tl@5@PEBUIRefObject@core@5@AEBUSObjOptions@ILibrary@libmedia@5@@Z 0000000140007c78 f   umodsys_lib_libmedia:umodsys.mod.media.stdlib.obj
 0001:00006ec4       ?layer_get@RLibraryLayered@stdlib@media@modules@UModSys@@UEBA?AUSLayer@ILibraryLayered@libmedia@5@_K@Z 0000000140007ec4 f   umodsys_lib_libmedia:umodsys.mod.media.stdlib.obj
 0001:00006f2c       ?layer_find@RLibraryLayered@stdlib@media@modules@UModSys@@UEBA_KAEBU?$TString@U?$TSCoreConst@D@su@tl@UModSys@@U?$TComparerBinaryHash@D@234@@tl@5@_K@Z 0000000140007f2c f   umodsys_lib_libmedia:umodsys.mod.media.stdlib.obj
 0001:00006fc8       ?layer_insert@RLibraryLayered@stdlib@media@modules@UModSys@@UEAA_NAEBUSLayer@ILibraryLayered@libmedia@5@_K@Z 0000000140007fc8 f   umodsys_lib_libmedia:umodsys.mod.media.stdlib.obj
 0001:000071ec       ?layer_remove@RLibraryLayered@stdlib@media@modules@UModSys@@UEAA_N_K@Z 00000001400081ec f   umodsys_lib_libmedia:umodsys.mod.media.stdlib.obj
 0001:0000731c       ?layer_clear@RLibraryLayered@stdlib@media@modules@UModSys@@UEAA_NXZ 000000014000831c f   umodsys_lib_libmedia:umodsys.mod.media.stdlib.obj
 0001:00007328       ??_ERLibraryObjCache@stdlib@media@modules@UModSys@@UEAAPEAXI@Z 0000000140008328 f i  CIL library: CIL module
 0001:00007328       ??_GRLibraryObjCache@stdlib@media@modules@UModSys@@UEAAPEAXI@Z 0000000140008328 f i umodsys_lib_libmedia:umodsys.mod.media.stdlib.obj
 0001:000073ac       ?get_flag@RLibraryBinCache@stdlib@media@modules@UModSys@@UEBA?AW4eStates@?$TFlags4State@USMediaFlagUid@libmedia@UModSys@@I@tl@5@H@Z 00000001400083ac f   umodsys_lib_libmedia:umodsys.mod.media.stdlib.obj
 0001:000073ac       ?get_flag@RLibraryObjFilter@stdlib@media@modules@UModSys@@UEBA?AW4eStates@?$TFlags4State@USMediaFlagUid@libmedia@UModSys@@I@tl@5@H@Z 00000001400083ac f   umodsys_lib_libmedia:umodsys.mod.media.stdlib.obj
 0001:000073ac       ?get_flag@RLibraryObjCache@stdlib@media@modules@UModSys@@UEBA?AW4eStates@?$TFlags4State@USMediaFlagUid@libmedia@UModSys@@I@tl@5@H@Z 00000001400083ac f   umodsys_lib_libmedia:umodsys.mod.media.stdlib.obj
 0001:000073ac       ?get_flag@RLibraryBinTree@stdlib@media@modules@UModSys@@UEBA?AW4eStates@?$TFlags4State@USMediaFlagUid@libmedia@UModSys@@I@tl@5@H@Z 00000001400083ac f   umodsys_lib_libmedia:umodsys.mod.media.stdlib.obj
 0001:000073b8       ?get_flags_auto@RLibraryObjCache@stdlib@media@modules@UModSys@@UEBA?AU?$TFlags4State@USMediaFlagUid@libmedia@UModSys@@I@tl@5@XZ 00000001400083b8 f   umodsys_lib_libmedia:umodsys.mod.media.stdlib.obj
 0001:000073c4       ?obj_cput@RLibraryObjCache@stdlib@media@modules@UModSys@@UEAA_NAEBU?$TString@U?$TSCoreConst@D@su@tl@UModSys@@U?$TComparerBinaryHash@D@234@@tl@5@PEAUIRefObject@core@5@@Z 00000001400083c4 f   umodsys_lib_libmedia:umodsys.mod.media.stdlib.obj
 0001:000073d0       ?obj_get@RLibraryObjCache@stdlib@media@modules@UModSys@@UEAA_NAEBU?$TString@U?$TSCoreConst@D@su@tl@UModSys@@U?$TComparerBinaryHash@D@234@@tl@5@AEAU?$TRefObject@UIRefObject@core@UModSys@@U?$TRefObjectFunc@UIRefObject@core@UModSys@@@tl@3@@75@AEBUSObjOptions@ILibrary@libmedia@5@@Z 00000001400083d0 f   umodsys_lib_libmedia:umodsys.mod.media.stdlib.obj
 0001:0000753c       ?objcache_get@RLibraryObjCache@stdlib@media@modules@UModSys@@UEBA_NAEBU?$TString@U?$TSCoreConst@D@su@tl@UModSys@@U?$TComparerBinaryHash@D@234@@tl@5@PEAU?$TRefObject@UIRefObject@core@UModSys@@U?$TRefObjectFunc@UIRefObject@core@UModSys@@@tl@3@@75@PEA_N@Z 000000014000853c f   umodsys_lib_libmedia:umodsys.mod.media.stdlib.obj
 0001:000075dc       ?objcache_add@RLibraryObjCache@stdlib@media@modules@UModSys@@UEAA_NAEBU?$TString@U?$TSCoreConst@D@su@tl@UModSys@@U?$TComparerBinaryHash@D@234@@tl@5@PEAUIRefObject@core@5@@Z 00000001400085dc f   umodsys_lib_libmedia:umodsys.mod.media.stdlib.obj
 0001:000076d0       ?objcache_remove@RLibraryObjCache@stdlib@media@modules@UModSys@@UEAA_NAEBU?$TString@U?$TSCoreConst@D@su@tl@UModSys@@U?$TComparerBinaryHash@D@234@@tl@5@@Z 00000001400086d0 f   umodsys_lib_libmedia:umodsys.mod.media.stdlib.obj
 0001:000076fc       ?objcache_clear@RLibraryObjCache@stdlib@media@modules@UModSys@@UEAA_NXZ 00000001400086fc f   umodsys_lib_libmedia:umodsys.mod.media.stdlib.obj
 0001:00007724       ??_ERLibraryObjFilter@stdlib@media@modules@UModSys@@UEAAPEAXI@Z 0000000140008724 f i  CIL library: CIL module
 0001:00007724       ??_GRLibraryObjFilter@stdlib@media@modules@UModSys@@UEAAPEAXI@Z 0000000140008724 f i umodsys_lib_libmedia:umodsys.mod.media.stdlib.obj
 0001:000077f4       ?get_flags_auto@RLibraryObjFilter@stdlib@media@modules@UModSys@@UEBA?AU?$TFlags4State@USMediaFlagUid@libmedia@UModSys@@I@tl@5@XZ 00000001400087f4 f   umodsys_lib_libmedia:umodsys.mod.media.stdlib.obj
 0001:00007800       ?set_flag@RLibraryObjFilter@stdlib@media@modules@UModSys@@UEAA?AW4eStates@?$TFlags4State@USMediaFlagUid@libmedia@UModSys@@I@tl@5@HW46785@@Z 0000000140008800 f   umodsys_lib_libmedia:umodsys.mod.media.stdlib.obj
 0001:00007800       ?set_flag@RLibraryBinCache@stdlib@media@modules@UModSys@@UEAA?AW4eStates@?$TFlags4State@USMediaFlagUid@libmedia@UModSys@@I@tl@5@HW46785@@Z 0000000140008800 f   umodsys_lib_libmedia:umodsys.mod.media.stdlib.obj
 0001:00007800       ?set_flag@RLibraryObjCache@stdlib@media@modules@UModSys@@UEAA?AW4eStates@?$TFlags4State@USMediaFlagUid@libmedia@UModSys@@I@tl@5@HW46785@@Z 0000000140008800 f   umodsys_lib_libmedia:umodsys.mod.media.stdlib.obj
 0001:00007800       ?set_flag@RLibraryBinTree@stdlib@media@modules@UModSys@@UEAA?AW4eStates@?$TFlags4State@USMediaFlagUid@libmedia@UModSys@@I@tl@5@HW46785@@Z 0000000140008800 f   umodsys_lib_libmedia:umodsys.mod.media.stdlib.obj
 0001:00007828       ?obj_fget@RLibraryObjFilter@stdlib@media@modules@UModSys@@UEAA_NAEBUSInfo@IBinObjFilter@libmedia@5@AEAU?$TRefObject@UIRefObject@core@UModSys@@U?$TRefObjectFunc@UIRefObject@core@UModSys@@@tl@3@@tl@5@@Z 0000000140008828 f   umodsys_lib_libmedia:umodsys.mod.media.stdlib.obj
 0001:00007834       ?obj_fload@RLibraryObjFilter@stdlib@media@modules@UModSys@@UEAA_NAEBUSInfo@IBinObjFilter@libmedia@5@PEAUIRefObject@core@5@@Z 0000000140008834 f   umodsys_lib_libmedia:umodsys.mod.media.stdlib.obj
 0001:00007840       ?obj_fsave@RLibraryObjFilter@stdlib@media@modules@UModSys@@UEAA_NAEAUSInfo@IBinObjFilter@libmedia@5@PEBUIRefObject@core@5@@Z 0000000140008840 f   umodsys_lib_libmedia:umodsys.mod.media.stdlib.obj
 0001:0000784c       ?filters_add@RLibraryObjFilter@stdlib@media@modules@UModSys@@UEAA_NU?$TRefObject@UIBinObjFilter@libmedia@UModSys@@U?$TRefObjectFunc@UIBinObjFilter@libmedia@UModSys@@@tl@3@@tl@5@PEBUSParameters@core@5@H@Z 000000014000884c f   umodsys_lib_libmedia:umodsys.mod.media.stdlib.obj
 0001:00007948       ?filters_remove@RLibraryObjFilter@stdlib@media@modules@UModSys@@UEAA_NPEAUIBinObjFilter@libmedia@5@H@Z 0000000140008948 f   umodsys_lib_libmedia:umodsys.mod.media.stdlib.obj
 0001:000079bc       ?filters_clear@RLibraryObjFilter@stdlib@media@modules@UModSys@@UEAA_NXZ 00000001400089bc f   umodsys_lib_libmedia:umodsys.mod.media.stdlib.obj
 0001:00007a3c       ?filters_load@RLibraryObjFilter@stdlib@media@modules@UModSys@@UEAA_NAEBUSInfo@IBinObjFilter@libmedia@5@AEAU?$TRefObject@UIRefObject@core@UModSys@@U?$TRefObjectFunc@UIRefObject@core@UModSys@@@tl@3@@tl@5@@Z 0000000140008a3c f   umodsys_lib_libmedia:umodsys.mod.media.stdlib.obj
 0001:00007ad4       ?filters_load@RLibraryObjFilter@stdlib@media@modules@UModSys@@UEAA_NAEBUSInfo@IBinObjFilter@libmedia@5@PEAUIRefObject@core@5@@Z 0000000140008ad4 f   umodsys_lib_libmedia:umodsys.mod.media.stdlib.obj
 0001:00007b6c       ?filters_save@RLibraryObjFilter@stdlib@media@modules@UModSys@@UEAA_NAEAUSInfo@IBinObjFilter@libmedia@5@PEBUIRefObject@core@5@@Z 0000000140008b6c f   umodsys_lib_libmedia:umodsys.mod.media.stdlib.obj
 0001:00007c04       ?do_open@RModuleReg@stdlib@media@modules@UModSys@@UEAA_NXZ 0000000140008c04 f i umodsys_lib_libmedia:umodsys.mod.media.stdlib.obj
 0001:00007c78       ?do_close@RModuleReg@stdlib@media@modules@UModSys@@UEAA_NXZ 0000000140008c78 f i umodsys_lib_libmedia:umodsys.mod.media.stdlib.obj
 0001:00007cc8       ?get_module@RGenerator@stdlib@media@modules@UModSys@@UEBAPEAUIModule@base@5@XZ 0000000140008cc8 f   umodsys_lib_libmedia:umodsys.mod.media.stdlib.obj
 0001:00007cd0       ?mod_inc@RGenerator@stdlib@media@modules@UModSys@@UEBA_NXZ 0000000140008cd0 f   umodsys_lib_libmedia:umodsys.mod.media.stdlib.obj
 0001:00007ce4       ?mod_dec@RGenerator@stdlib@media@modules@UModSys@@UEBA_NXZ 0000000140008ce4 f   umodsys_lib_libmedia:umodsys.mod.media.stdlib.obj
 0001:00007cf8       ?s_holder@RGenerator@stdlib@media@modules@UModSys@@SAAEAU?$TTypeStaticHolder@URGenerator@stdlib@media@modules@UModSys@@@tl@5@XZ 0000000140008cf8 f   umodsys_lib_libmedia:umodsys.mod.media.stdlib.obj
 0001:00007d3c       ??4?$TString@U?$TSCoreConst@D@su@tl@UModSys@@U?$TComparerBinaryHash@D@234@@tl@UModSys@@QEAAAEBU012@PEBD@Z 0000000140008d3c f i umodsys_lib_libmedia:umodsys.mod.media.stdlib.obj
 0001:00007db4       ??0?$TString@U?$TSCoreShared@USIMemAlloc@core@UModSys@@D@su@tl@UModSys@@U?$TComparerBinaryHash@D@234@@tl@UModSys@@QEAA@AEBU?$TSCoreConst@D@su@12@@Z 0000000140008db4 f i umodsys_lib_libmedia:umodsys.mod.media.stdlib.obj
 0001:00007e60       ?Resize@?$TDynarray@U?$TDynarrayHolderDynamic@EU?$TAllocator@USIMemAlloc@core@UModSys@@USCountCalcPower2@23@@tl@UModSys@@@tl@UModSys@@@tl@UModSys@@QEAA_N_K@Z 0000000140008e60 f i umodsys_lib_libmedia:umodsys.mod.media.stdlib.obj
 0001:00007ef8       ??1?$TTreeHoldRBD@UNameNode@IBinArchiveFrame@libmedia@UModSys@@U?$TNodeDeleter0@UNameNode@IBinArchiveFrame@libmedia@UModSys@@@tl@4@@tl@UModSys@@QEAA@XZ 0000000140008ef8 f i umodsys_lib_libmedia:umodsys.mod.media.stdlib.obj
 0001:00007f60       ?remove_node@?$TTreeHoldRB@UNameNode@IBinArchiveFrame@libmedia@UModSys@@@tl@UModSys@@QEAAXPEAUNameNode@IBinArchiveFrame@libmedia@3@@Z 0000000140008f60 f i umodsys_lib_libmedia:umodsys.mod.media.stdlib.obj
 0001:00008074       ??R?$TScatterArray@USMountInfo@RLibraryBinTree@stdlib@media@modules@UModSys@@USId@ILibraryBinTree@libmedia@6@U7896@U?$TNodeDeleter0@U?$TScatterArrayNode@USMountInfo@RLibraryBinTree@stdlib@media@modules@UModSys@@USId@ILibraryBinTree@libmedia@6@@tl@UModSys@@@tl@6@@tl@UModSys@@QEAAPEAUSMountInfo@RLibraryBinTree@stdlib@media@modules@2@AEBUSId@ILibraryBinTree@libmedia@2@PEAUVoid@core@2@@Z 0000000140009074 f i umodsys_lib_libmedia:umodsys.mod.media.stdlib.obj
 0001:00008198       ??R?$TScatterArray@USCacheElem@RLibraryBinCache@stdlib@media@modules@UModSys@@U?$TString@U?$TSCoreConst@D@su@tl@UModSys@@U?$TComparerBinaryHash@D@234@@tl@6@U?$TObjectCompare@U?$TString@U?$TSCoreConst@D@su@tl@UModSys@@U?$TComparerBinaryHash@D@234@@tl@UModSys@@@core@6@U?$TNodeDeleter0@U?$TScatterArrayNode@USCacheElem@RLibraryBinCache@stdlib@media@modules@UModSys@@U?$TString@U?$TSCoreConst@D@su@tl@UModSys@@U?$TComparerBinaryHash@D@234@@tl@6@@tl@UModSys@@@86@@tl@UModSys@@QEAAPEAUSCacheElem@RLibraryBinCache@stdlib@media@modules@2@AEBU?$TString@U?$TSCoreConst@D@su@tl@UModSys@@U?$TComparerBinaryHash@D@234@@12@PEAUVoid@core@2@@Z 0000000140009198 f i umodsys_lib_libmedia:umodsys.mod.media.stdlib.obj
 0001:00008294       ??R?$TScatterArray@USCacheElem@RLibraryObjCache@stdlib@media@modules@UModSys@@U?$TString@U?$TSCoreConst@D@su@tl@UModSys@@U?$TComparerBinaryHash@D@234@@tl@6@U?$TObjectCompare@U?$TString@U?$TSCoreConst@D@su@tl@UModSys@@U?$TComparerBinaryHash@D@234@@tl@UModSys@@@core@6@U?$TNodeDeleter0@U?$TScatterArrayNode@USCacheElem@RLibraryObjCache@stdlib@media@modules@UModSys@@U?$TString@U?$TSCoreConst@D@su@tl@UModSys@@U?$TComparerBinaryHash@D@234@@tl@6@@tl@UModSys@@@86@@tl@UModSys@@QEAAPEAUSCacheElem@RLibraryObjCache@stdlib@media@modules@2@AEBU?$TString@U?$TSCoreConst@D@su@tl@UModSys@@U?$TComparerBinaryHash@D@234@@12@PEAUVoid@core@2@@Z 0000000140009294 f i umodsys_lib_libmedia:umodsys.mod.media.stdlib.obj
 0001:00008390       ??R?$TScatterArray@USFilter@RLibraryObjFilter@stdlib@media@modules@UModSys@@USId@23456@U723456@U?$TNodeDeleter0@U?$TScatterArrayNode@USFilter@RLibraryObjFilter@stdlib@media@modules@UModSys@@USId@23456@@tl@UModSys@@@tl@6@@tl@UModSys@@QEAAPEAUSFilter@RLibraryObjFilter@stdlib@media@modules@2@AEBUSId@45672@PEAUVoid@core@2@@Z 0000000140009390 f i umodsys_lib_libmedia:umodsys.mod.media.stdlib.obj
 0001:00008480       ??1?$TDynarray@U?$TDynarrayHolderDynamic@EU?$TAllocator@USIMemAlloc@core@UModSys@@USCountCalcPower2@23@@tl@UModSys@@@tl@UModSys@@@tl@UModSys@@QEAA@XZ 0000000140009480 f i umodsys_lib_libmedia:umodsys.mod.media.stdlib.obj
 0001:00008548       ?delete_node@?$TTreeHoldRBD@U?$TScatterArrayNode@USMountInfo@RLibraryBinTree@stdlib@media@modules@UModSys@@USId@ILibraryBinTree@libmedia@6@@tl@UModSys@@U?$TNodeDeleter0@U?$TScatterArrayNode@USMountInfo@RLibraryBinTree@stdlib@media@modules@UModSys@@USId@ILibraryBinTree@libmedia@6@@tl@UModSys@@@23@@tl@UModSys@@QEAAXPEAU?$TScatterArrayNode@USMountInfo@RLibraryBinTree@stdlib@media@modules@UModSys@@USId@ILibraryBinTree@libmedia@6@@23@@Z 0000000140009548 f i umodsys_lib_libmedia:umodsys.mod.media.stdlib.obj
 0001:000086a4       ?delete_node@?$TTreeHoldRBD@U?$TScatterArrayNode@USCacheElem@RLibraryBinCache@stdlib@media@modules@UModSys@@U?$TString@U?$TSCoreConst@D@su@tl@UModSys@@U?$TComparerBinaryHash@D@234@@tl@6@@tl@UModSys@@U?$TNodeDeleter0@U?$TScatterArrayNode@USCacheElem@RLibraryBinCache@stdlib@media@modules@UModSys@@U?$TString@U?$TSCoreConst@D@su@tl@UModSys@@U?$TComparerBinaryHash@D@234@@tl@6@@tl@UModSys@@@23@@tl@UModSys@@QEAAXPEAU?$TScatterArrayNode@USCacheElem@RLibraryBinCache@stdlib@media@modules@UModSys@@U?$TString@U?$TSCoreConst@D@su@tl@UModSys@@U?$TComparerBinaryHash@D@234@@tl@6@@23@@Z 00000001400096a4 f i umodsys_lib_libmedia:umodsys.mod.media.stdlib.obj
 0001:0000880c       ?Resize@?$TDynarray@U?$TDynarrayHolderDynamic@USLayerX@RLibraryLayered@stdlib@media@modules@UModSys@@U?$TAllocator@USIMemAlloc@core@UModSys@@USCountCalcPower2@23@@tl@6@@tl@UModSys@@@tl@UModSys@@QEAA_N_K@Z 000000014000980c f i umodsys_lib_libmedia:umodsys.mod.media.stdlib.obj
 0001:00008900       ?delete_node@?$TTreeHoldRBD@U?$TScatterArrayNode@USCacheElem@RLibraryObjCache@stdlib@media@modules@UModSys@@U?$TString@U?$TSCoreConst@D@su@tl@UModSys@@U?$TComparerBinaryHash@D@234@@tl@6@@tl@UModSys@@U?$TNodeDeleter0@U?$TScatterArrayNode@USCacheElem@RLibraryObjCache@stdlib@media@modules@UModSys@@U?$TString@U?$TSCoreConst@D@su@tl@UModSys@@U?$TComparerBinaryHash@D@234@@tl@6@@tl@UModSys@@@23@@tl@UModSys@@QEAAXPEAU?$TScatterArrayNode@USCacheElem@RLibraryObjCache@stdlib@media@modules@UModSys@@U?$TString@U?$TSCoreConst@D@su@tl@UModSys@@U?$TComparerBinaryHash@D@234@@tl@6@@23@@Z 0000000140009900 f i umodsys_lib_libmedia:umodsys.mod.media.stdlib.obj
 0001:00008a5c       ?delete_node@?$TTreeHoldRBD@U?$TScatterArrayNode@USFilter@RLibraryObjFilter@stdlib@media@modules@UModSys@@USId@23456@@tl@UModSys@@U?$TNodeDeleter0@U?$TScatterArrayNode@USFilter@RLibraryObjFilter@stdlib@media@modules@UModSys@@USId@23456@@tl@UModSys@@@23@@tl@UModSys@@QEAAXPEAU?$TScatterArrayNode@USFilter@RLibraryObjFilter@stdlib@media@modules@UModSys@@USId@23456@@23@@Z 0000000140009a5c f i umodsys_lib_libmedia:umodsys.mod.media.stdlib.obj
 0001:00008b88       ??1?$TPair@USId@ILibraryBinTree@libmedia@UModSys@@USMountInfo@RLibraryBinTree@stdlib@media@modules@4@@tl@UModSys@@QEAA@XZ 0000000140009b88 f i umodsys_lib_libmedia:umodsys.mod.media.stdlib.obj
 0001:00008bc4       ??1?$TPair@U?$TString@U?$TSCoreConst@D@su@tl@UModSys@@U?$TComparerBinaryHash@D@234@@tl@UModSys@@USCacheElem@RLibraryBinCache@stdlib@media@modules@3@@tl@UModSys@@QEAA@XZ 0000000140009bc4 f i umodsys_lib_libmedia:umodsys.mod.media.stdlib.obj
 0001:00008c0c       ??1?$TPair@U?$TString@U?$TSCoreConst@D@su@tl@UModSys@@U?$TComparerBinaryHash@D@234@@tl@UModSys@@USCacheElem@RLibraryObjCache@stdlib@media@modules@3@@tl@UModSys@@QEAA@XZ 0000000140009c0c f i umodsys_lib_libmedia:umodsys.mod.media.stdlib.obj
 0001:00008c48       ??1?$TPair@USId@RLibraryObjFilter@stdlib@media@modules@UModSys@@USFilter@23456@@tl@UModSys@@QEAA@XZ 0000000140009c48 f i umodsys_lib_libmedia:umodsys.mod.media.stdlib.obj
 0001:00008c6c       ??1SMountInfo@RLibraryBinTree@stdlib@media@modules@UModSys@@QEAA@XZ 0000000140009c6c f i umodsys_lib_libmedia:umodsys.mod.media.stdlib.obj
 0001:00008ca8       ??1SCacheElem@RLibraryBinCache@stdlib@media@modules@UModSys@@QEAA@XZ 0000000140009ca8 f i umodsys_lib_libmedia:umodsys.mod.media.stdlib.obj
 0001:00008cec       ??1SCacheElem@RLibraryObjCache@stdlib@media@modules@UModSys@@QEAA@XZ 0000000140009cec f i umodsys_lib_libmedia:umodsys.mod.media.stdlib.obj
 0001:00008d24       ?ResizeRel@?$TDynarray@U?$TDynarrayHolderDynamic@UBuffer@RUtilities@stdlib@media@modules@UModSys@@U?$TAllocator@USIMemAlloc@core@UModSys@@USCountCalcPower2@23@@tl@6@@tl@UModSys@@@tl@UModSys@@QEAA_N_J@Z 0000000140009d24 f i umodsys_lib_libmedia:umodsys.mod.media.stdlib.obj
 0001:00008e34       ?remove_color@?$TTreeHoldRB@U?$TScatterArrayNode@USCacheElem@RLibraryBinCache@stdlib@media@modules@UModSys@@U?$TString@U?$TSCoreConst@D@su@tl@UModSys@@U?$TComparerBinaryHash@D@234@@tl@6@@tl@UModSys@@@tl@UModSys@@IEAAXPEAU?$TScatterArrayNode@USCacheElem@RLibraryBinCache@stdlib@media@modules@UModSys@@U?$TString@U?$TSCoreConst@D@su@tl@UModSys@@U?$TComparerBinaryHash@D@234@@tl@6@@23@0@Z 0000000140009e34 f i umodsys_lib_libmedia:umodsys.mod.media.stdlib.obj
 0001:00008e34       ?remove_color@?$TTreeHoldRB@U?$TScatterArrayNode@USMountInfo@RLibraryBinTree@stdlib@media@modules@UModSys@@USId@ILibraryBinTree@libmedia@6@@tl@UModSys@@@tl@UModSys@@IEAAXPEAU?$TScatterArrayNode@USMountInfo@RLibraryBinTree@stdlib@media@modules@UModSys@@USId@ILibraryBinTree@libmedia@6@@23@0@Z 0000000140009e34 f i umodsys_lib_libmedia:umodsys.mod.media.stdlib.obj
 0001:00008e34       ?remove_color@?$TTreeHoldRB@U?$TScatterArrayNode@USCacheElem@RLibraryObjCache@stdlib@media@modules@UModSys@@U?$TString@U?$TSCoreConst@D@su@tl@UModSys@@U?$TComparerBinaryHash@D@234@@tl@6@@tl@UModSys@@@tl@UModSys@@IEAAXPEAU?$TScatterArrayNode@USCacheElem@RLibraryObjCache@stdlib@media@modules@UModSys@@U?$TString@U?$TSCoreConst@D@su@tl@UModSys@@U?$TComparerBinaryHash@D@234@@tl@6@@23@0@Z 0000000140009e34 f i umodsys_lib_libmedia:umodsys.mod.media.stdlib.obj
 0001:00008e34       ?remove_color@?$TTreeHoldRB@U?$TScatterArrayNode@USFilter@RLibraryObjFilter@stdlib@media@modules@UModSys@@USId@23456@@tl@UModSys@@@tl@UModSys@@IEAAXPEAU?$TScatterArrayNode@USFilter@RLibraryObjFilter@stdlib@media@modules@UModSys@@USId@23456@@23@0@Z 0000000140009e34 f i umodsys_lib_libmedia:umodsys.mod.media.stdlib.obj
 0001:00008e34       ?remove_color@?$TTreeHoldRB@UNameNode@IBinArchiveFrame@libmedia@UModSys@@@tl@UModSys@@IEAAXPEAUNameNode@IBinArchiveFrame@libmedia@3@0@Z 0000000140009e34 f i umodsys_lib_libmedia:umodsys.mod.media.stdlib.obj
 0001:000090d4       ??$t_gen_param@URLibraryBinTree@stdlib@media@modules@UModSys@@URGenerator@2345@@IGenerator@base@UModSys@@IEAA_NPEAURGenerator@stdlib@media@modules@2@AEAU?$TRefObject@UIRefObject@core@UModSys@@U?$TRefObjectFunc@UIRefObject@core@UModSys@@@tl@3@@tl@2@PEBUSUniquePointerInfo@core@2@AEBUSParameters@core@2@@Z 000000014000a0d4 f i umodsys_lib_libmedia:umodsys.mod.media.stdlib.obj
 0001:000091fc       ??$t_gen_param@URLibraryObjFilter@stdlib@media@modules@UModSys@@URGenerator@2345@@IGenerator@base@UModSys@@IEAA_NPEAURGenerator@stdlib@media@modules@2@AEAU?$TRefObject@UIRefObject@core@UModSys@@U?$TRefObjectFunc@UIRefObject@core@UModSys@@@tl@3@@tl@2@PEBUSUniquePointerInfo@core@2@AEBUSParameters@core@2@@Z 000000014000a1fc f i umodsys_lib_libmedia:umodsys.mod.media.stdlib.obj
 0001:00009324       ??$t_gen_param@URLibraryObjCache@stdlib@media@modules@UModSys@@URGenerator@2345@@IGenerator@base@UModSys@@IEAA_NPEAURGenerator@stdlib@media@modules@2@AEAU?$TRefObject@UIRefObject@core@UModSys@@U?$TRefObjectFunc@UIRefObject@core@UModSys@@@tl@3@@tl@2@PEBUSUniquePointerInfo@core@2@AEBUSParameters@core@2@@Z 000000014000a324 f i umodsys_lib_libmedia:umodsys.mod.media.stdlib.obj
 0001:0000944c       ??$t_gen_param@URBinArchiveFrame@stdlib@media@modules@UModSys@@URGenerator@2345@@IGenerator@base@UModSys@@IEAA_NPEAURGenerator@stdlib@media@modules@2@AEAU?$TRefObject@UIRefObject@core@UModSys@@U?$TRefObjectFunc@UIRefObject@core@UModSys@@@tl@3@@tl@2@PEBUSUniquePointerInfo@core@2@AEBUSParameters@core@2@@Z 000000014000a44c f i umodsys_lib_libmedia:umodsys.mod.media.stdlib.obj
 0001:00009544       ??$t_gen_param@URUtilities@stdlib@media@modules@UModSys@@URGenerator@2345@@IGenerator@base@UModSys@@IEAA_NPEAURGenerator@stdlib@media@modules@2@AEAU?$TRefObject@UIRefObject@core@UModSys@@U?$TRefObjectFunc@UIRefObject@core@UModSys@@@tl@3@@tl@2@PEBUSUniquePointerInfo@core@2@AEBUSParameters@core@2@@Z 000000014000a544 f i umodsys_lib_libmedia:umodsys.mod.media.stdlib.obj
 0001:00009670       ??$wildcmp@D@su@tl@UModSys@@YA_NPEBD0@Z 000000014000a670 f i umodsys_lib_libmedia:umodsys.mod.media.stdlib.obj
 0001:000096f8       ??$gen_node@UNameNodeCmpUC@IBinArchiveFrame@libmedia@UModSys@@UNN_Add@RBinArchiveFrame@stdlib@media@modules@4@@?$TTreeHoldRB@UNameNode@IBinArchiveFrame@libmedia@UModSys@@@tl@UModSys@@QEAAPEAUNameNode@IBinArchiveFrame@libmedia@2@UNameNodeCmpUC@452@AEBUNN_Add@RBinArchiveFrame@stdlib@media@modules@2@PEAPEAU3452@2_N@Z 000000014000a6f8 f i umodsys_lib_libmedia:umodsys.mod.media.stdlib.obj
 0001:00009814       ??$gen_node@UNameNodeCmpC@IBinArchiveFrame@libmedia@UModSys@@UNN_Add@RBinArchiveFrame@stdlib@media@modules@4@@?$TTreeHoldRB@UNameNode@IBinArchiveFrame@libmedia@UModSys@@@tl@UModSys@@QEAAPEAUNameNode@IBinArchiveFrame@libmedia@2@UNameNodeCmpC@452@AEBUNN_Add@RBinArchiveFrame@stdlib@media@modules@2@PEAPEAU3452@2_N@Z 000000014000a814 f i umodsys_lib_libmedia:umodsys.mod.media.stdlib.obj
 0001:00009930       ??$find_node_u@UCmp@?$TScatterArray@USMountInfo@RLibraryBinTree@stdlib@media@modules@UModSys@@USId@ILibraryBinTree@libmedia@6@U7896@U?$TNodeDeleter0@U?$TScatterArrayNode@USMountInfo@RLibraryBinTree@stdlib@media@modules@UModSys@@USId@ILibraryBinTree@libmedia@6@@tl@UModSys@@@tl@6@@tl@UModSys@@@?$TTreeHoldRB@U?$TScatterArrayNode@USMountInfo@RLibraryBinTree@stdlib@media@modules@UModSys@@USId@ILibraryBinTree@libmedia@6@@tl@UModSys@@@tl@UModSys@@QEBAPEAU?$TScatterArrayNode@USMountInfo@RLibraryBinTree@stdlib@media@modules@UModSys@@USId@ILibraryBinTree@libmedia@6@@12@UCmp@?$TScatterArray@USMountInfo@RLibraryBinTree@stdlib@media@modules@UModSys@@USId@ILibraryBinTree@libmedia@6@U7896@U?$TNodeDeleter0@U?$TScatterArrayNode@USMountInfo@RLibraryBinTree@stdlib@media@modules@UModSys@@USId@ILibraryBinTree@libmedia@6@@tl@UModSys@@@tl@6@@12@@Z 000000014000a930 f i umodsys_lib_libmedia:umodsys.mod.media.stdlib.obj
 0001:000099f4       ??$find_node_u@UCmp@?$TScatterArray@USCacheElem@RLibraryBinCache@stdlib@media@modules@UModSys@@U?$TString@U?$TSCoreConst@D@su@tl@UModSys@@U?$TComparerBinaryHash@D@234@@tl@6@U?$TObjectCompare@U?$TString@U?$TSCoreConst@D@su@tl@UModSys@@U?$TComparerBinaryHash@D@234@@tl@UModSys@@@core@6@U?$TNodeDeleter0@U?$TScatterArrayNode@USCacheElem@RLibraryBinCache@stdlib@media@modules@UModSys@@U?$TString@U?$TSCoreConst@D@su@tl@UModSys@@U?$TComparerBinaryHash@D@234@@tl@6@@tl@UModSys@@@86@@tl@UModSys@@@?$TTreeHoldRB@U?$TScatterArrayNode@USCacheElem@RLibraryBinCache@stdlib@media@modules@UModSys@@U?$TString@U?$TSCoreConst@D@su@tl@UModSys@@U?$TComparerBinaryHash@D@234@@tl@6@@tl@UModSys@@@tl@UModSys@@QEBAPEAU?$TScatterArrayNode@USCacheElem@RLibraryBinCache@stdlib@media@modules@UModSys@@U?$TString@U?$TSCoreConst@D@su@tl@UModSys@@U?$TComparerBinaryHash@D@234@@tl@6@@12@UCmp@?$TScatterArray@USCacheElem@RLibraryBinCache@stdlib@media@modules@UModSys@@U?$TString@U?$TSCoreConst@D@su@tl@UModSys@@U?$TComparerBinaryHash@D@234@@tl@6@U?$TObjectCompare@U?$TString@U?$TSCoreConst@D@su@tl@UModSys@@U?$TComparerBinaryHash@D@234@@tl@UModSys@@@core@6@U?$TNodeDeleter0@U?$TScatterArrayNode@USCacheElem@RLibraryBinCache@stdlib@media@modules@UModSys@@U?$TString@U?$TSCoreConst@D@su@tl@UModSys@@U?$TComparerBinaryHash@D@234@@tl@6@@tl@UModSys@@@86@@12@@Z 000000014000a9f4 f i umodsys_lib_libmedia:umodsys.mod.media.stdlib.obj
 0001:000099f4       ??$find_node_u@UCmp@?$TScatterArray@USCacheElem@RLibraryObjCache@stdlib@media@modules@UModSys@@U?$TString@U?$TSCoreConst@D@su@tl@UModSys@@U?$TComparerBinaryHash@D@234@@tl@6@U?$TObjectCompare@U?$TString@U?$TSCoreConst@D@su@tl@UModSys@@U?$TComparerBinaryHash@D@234@@tl@UModSys@@@core@6@U?$TNodeDeleter0@U?$TScatterArrayNode@USCacheElem@RLibraryObjCache@stdlib@media@modules@UModSys@@U?$TString@U?$TSCoreConst@D@su@tl@UModSys@@U?$TComparerBinaryHash@D@234@@tl@6@@tl@UModSys@@@86@@tl@UModSys@@@?$TTreeHoldRB@U?$TScatterArrayNode@USCacheElem@RLibraryObjCache@stdlib@media@modules@UModSys@@U?$TString@U?$TSCoreConst@D@su@tl@UModSys@@U?$TComparerBinaryHash@D@234@@tl@6@@tl@UModSys@@@tl@UModSys@@QEBAPEAU?$TScatterArrayNode@USCacheElem@RLibraryObjCache@stdlib@media@modules@UModSys@@U?$TString@U?$TSCoreConst@D@su@tl@UModSys@@U?$TComparerBinaryHash@D@234@@tl@6@@12@UCmp@?$TScatterArray@USCacheElem@RLibraryObjCache@stdlib@media@modules@UModSys@@U?$TString@U?$TSCoreConst@D@su@tl@UModSys@@U?$TComparerBinaryHash@D@234@@tl@6@U?$TObjectCompare@U?$TString@U?$TSCoreConst@D@su@tl@UModSys@@U?$TComparerBinaryHash@D@234@@tl@UModSys@@@core@6@U?$TNodeDeleter0@U?$TScatterArrayNode@USCacheElem@RLibraryObjCache@stdlib@media@modules@UModSys@@U?$TString@U?$TSCoreConst@D@su@tl@UModSys@@U?$TComparerBinaryHash@D@234@@tl@6@@tl@UModSys@@@86@@12@@Z 000000014000a9f4 f i umodsys_lib_libmedia:umodsys.mod.media.stdlib.obj
 0001:00009a98       ?sub_insert_node@?$TTreeHoldRB@U?$TScatterArrayNode@USMountInfo@RLibraryBinTree@stdlib@media@modules@UModSys@@USId@ILibraryBinTree@libmedia@6@@tl@UModSys@@@tl@UModSys@@QEAAXPEAU?$TScatterArrayNode@USMountInfo@RLibraryBinTree@stdlib@media@modules@UModSys@@USId@ILibraryBinTree@libmedia@6@@23@0H@Z 000000014000aa98 f i umodsys_lib_libmedia:umodsys.mod.media.stdlib.obj
 0001:00009a98       ?sub_insert_node@?$TTreeHoldRB@U?$TScatterArrayNode@USCacheElem@RLibraryObjCache@stdlib@media@modules@UModSys@@U?$TString@U?$TSCoreConst@D@su@tl@UModSys@@U?$TComparerBinaryHash@D@234@@tl@6@@tl@UModSys@@@tl@UModSys@@QEAAXPEAU?$TScatterArrayNode@USCacheElem@RLibraryObjCache@stdlib@media@modules@UModSys@@U?$TString@U?$TSCoreConst@D@su@tl@UModSys@@U?$TComparerBinaryHash@D@234@@tl@6@@23@0H@Z 000000014000aa98 f i umodsys_lib_libmedia:umodsys.mod.media.stdlib.obj
 0001:00009a98       ?sub_insert_node@?$TTreeHoldRB@U?$TScatterArrayNode@USFilter@RLibraryObjFilter@stdlib@media@modules@UModSys@@USId@23456@@tl@UModSys@@@tl@UModSys@@QEAAXPEAU?$TScatterArrayNode@USFilter@RLibraryObjFilter@stdlib@media@modules@UModSys@@USId@23456@@23@0H@Z 000000014000aa98 f i umodsys_lib_libmedia:umodsys.mod.media.stdlib.obj
 0001:00009a98       ?sub_insert_node@?$TTreeHoldRB@UNameNode@IBinArchiveFrame@libmedia@UModSys@@@tl@UModSys@@QEAAXPEAUNameNode@IBinArchiveFrame@libmedia@3@0H@Z 000000014000aa98 f i umodsys_lib_libmedia:umodsys.mod.media.stdlib.obj
 0001:00009a98       ?sub_insert_node@?$TTreeHoldRB@U?$TScatterArrayNode@USCacheElem@RLibraryBinCache@stdlib@media@modules@UModSys@@U?$TString@U?$TSCoreConst@D@su@tl@UModSys@@U?$TComparerBinaryHash@D@234@@tl@6@@tl@UModSys@@@tl@UModSys@@QEAAXPEAU?$TScatterArrayNode@USCacheElem@RLibraryBinCache@stdlib@media@modules@UModSys@@U?$TString@U?$TSCoreConst@D@su@tl@UModSys@@U?$TComparerBinaryHash@D@234@@tl@6@@23@0H@Z 000000014000aa98 f i umodsys_lib_libmedia:umodsys.mod.media.stdlib.obj
 0001:00009c78       ?items_construct@?$TDynarray@U?$TDynarrayHolderDynamic@USLayerX@RLibraryLayered@stdlib@media@modules@UModSys@@U?$TAllocator@USIMemAlloc@core@UModSys@@USCountCalcPower2@23@@tl@6@@tl@UModSys@@@tl@UModSys@@IEAAX_K0@Z 000000014000ac78 f i umodsys_lib_libmedia:umodsys.mod.media.stdlib.obj
 0001:00009d18       ??0?$TString@U?$TSCoreShared@USIMemAlloc@core@UModSys@@D@su@tl@UModSys@@U?$TComparerBinaryHash@D@234@@tl@UModSys@@QEAA@AEBU012@@Z 000000014000ad18 f i umodsys_lib_libmedia:umodsys.mod.media.stdlib.obj
 0001:00009dac       ??0?$TScatterArrayNode@USMountInfo@RLibraryBinTree@stdlib@media@modules@UModSys@@USId@ILibraryBinTree@libmedia@6@@tl@UModSys@@QEAA@AEBUSId@ILibraryBinTree@libmedia@2@@Z 000000014000adac f i umodsys_lib_libmedia:umodsys.mod.media.stdlib.obj
 0001:00009e9c       ??0?$TScatterArrayNode@USCacheElem@RLibraryBinCache@stdlib@media@modules@UModSys@@U?$TString@U?$TSCoreConst@D@su@tl@UModSys@@U?$TComparerBinaryHash@D@234@@tl@6@@tl@UModSys@@QEAA@AEBU?$TString@U?$TSCoreConst@D@su@tl@UModSys@@U?$TComparerBinaryHash@D@234@@12@@Z 000000014000ae9c f i umodsys_lib_libmedia:umodsys.mod.media.stdlib.obj
 0001:00009fa8       ??0?$TScatterArrayNode@USCacheElem@RLibraryObjCache@stdlib@media@modules@UModSys@@U?$TString@U?$TSCoreConst@D@su@tl@UModSys@@U?$TComparerBinaryHash@D@234@@tl@6@@tl@UModSys@@QEAA@AEBU?$TString@U?$TSCoreConst@D@su@tl@UModSys@@U?$TComparerBinaryHash@D@234@@12@@Z 000000014000afa8 f i umodsys_lib_libmedia:umodsys.mod.media.stdlib.obj
 0001:0000a0b8       ??$process_nodes_r@U?$TNodeDeleter0@UNameNode@IBinArchiveFrame@libmedia@UModSys@@@tl@UModSys@@@?$TTreeHoldRB@UNameNode@IBinArchiveFrame@libmedia@UModSys@@@tl@UModSys@@KAHPEAUNameNode@IBinArchiveFrame@libmedia@2@AEBU?$TNodeDeleter0@UNameNode@IBinArchiveFrame@libmedia@UModSys@@@12@@Z 000000014000b0b8 f i umodsys_lib_libmedia:umodsys.mod.media.stdlib.obj
 0001:0000a11c       ??$process_nodes_r@U?$TNodeDeleter0@U?$TScatterArrayNode@USMountInfo@RLibraryBinTree@stdlib@media@modules@UModSys@@USId@ILibraryBinTree@libmedia@6@@tl@UModSys@@@tl@UModSys@@@?$TTreeHoldRB@U?$TScatterArrayNode@USMountInfo@RLibraryBinTree@stdlib@media@modules@UModSys@@USId@ILibraryBinTree@libmedia@6@@tl@UModSys@@@tl@UModSys@@KAHPEAU?$TScatterArrayNode@USMountInfo@RLibraryBinTree@stdlib@media@modules@UModSys@@USId@ILibraryBinTree@libmedia@6@@12@AEBU?$TNodeDeleter0@U?$TScatterArrayNode@USMountInfo@RLibraryBinTree@stdlib@media@modules@UModSys@@USId@ILibraryBinTree@libmedia@6@@tl@UModSys@@@12@@Z 000000014000b11c f i umodsys_lib_libmedia:umodsys.mod.media.stdlib.obj
 0001:0000a1b0       ??$process_nodes_r@U?$TNodeDeleter0@U?$TScatterArrayNode@USCacheElem@RLibraryBinCache@stdlib@media@modules@UModSys@@U?$TString@U?$TSCoreConst@D@su@tl@UModSys@@U?$TComparerBinaryHash@D@234@@tl@6@@tl@UModSys@@@tl@UModSys@@@?$TTreeHoldRB@U?$TScatterArrayNode@USCacheElem@RLibraryBinCache@stdlib@media@modules@UModSys@@U?$TString@U?$TSCoreConst@D@su@tl@UModSys@@U?$TComparerBinaryHash@D@234@@tl@6@@tl@UModSys@@@tl@UModSys@@KAHPEAU?$TScatterArrayNode@USCacheElem@RLibraryBinCache@stdlib@media@modules@UModSys@@U?$TString@U?$TSCoreConst@D@su@tl@UModSys@@U?$TComparerBinaryHash@D@234@@tl@6@@12@AEBU?$TNodeDeleter0@U?$TScatterArrayNode@USCacheElem@RLibraryBinCache@stdlib@media@modules@UModSys@@U?$TString@U?$TSCoreConst@D@su@tl@UModSys@@U?$TComparerBinaryHash@D@234@@tl@6@@tl@UModSys@@@12@@Z 000000014000b1b0 f i umodsys_lib_libmedia:umodsys.mod.media.stdlib.obj
 0001:0000a244       ??$process_nodes_r@U?$TNodeDeleter0@U?$TScatterArrayNode@USCacheElem@RLibraryObjCache@stdlib@media@modules@UModSys@@U?$TString@U?$TSCoreConst@D@su@tl@UModSys@@U?$TComparerBinaryHash@D@234@@tl@6@@tl@UModSys@@@tl@UModSys@@@?$TTreeHoldRB@U?$TScatterArrayNode@USCacheElem@RLibraryObjCache@stdlib@media@modules@UModSys@@U?$TString@U?$TSCoreConst@D@su@tl@UModSys@@U?$TComparerBinaryHash@D@234@@tl@6@@tl@UModSys@@@tl@UModSys@@KAHPEAU?$TScatterArrayNode@USCacheElem@RLibraryObjCache@stdlib@media@modules@UModSys@@U?$TString@U?$TSCoreConst@D@su@tl@UModSys@@U?$TComparerBinaryHash@D@234@@tl@6@@12@AEBU?$TNodeDeleter0@U?$TScatterArrayNode@USCacheElem@RLibraryObjCache@stdlib@media@modules@UModSys@@U?$TString@U?$TSCoreConst@D@su@tl@UModSys@@U?$TComparerBinaryHash@D@234@@tl@6@@tl@UModSys@@@12@@Z 000000014000b244 f i umodsys_lib_libmedia:umodsys.mod.media.stdlib.obj
 0001:0000a2cc       ??$process_nodes_r@U?$TNodeDeleter0@U?$TScatterArrayNode@USFilter@RLibraryObjFilter@stdlib@media@modules@UModSys@@USId@23456@@tl@UModSys@@@tl@UModSys@@@?$TTreeHoldRB@U?$TScatterArrayNode@USFilter@RLibraryObjFilter@stdlib@media@modules@UModSys@@USId@23456@@tl@UModSys@@@tl@UModSys@@KAHPEAU?$TScatterArrayNode@USFilter@RLibraryObjFilter@stdlib@media@modules@UModSys@@USId@23456@@12@AEBU?$TNodeDeleter0@U?$TScatterArrayNode@USFilter@RLibraryObjFilter@stdlib@media@modules@UModSys@@USId@23456@@tl@UModSys@@@12@@Z 000000014000b2cc f i umodsys_lib_libmedia:umodsys.mod.media.stdlib.obj
 0001:0000a344       ??0SVFileName@libmedia@UModSys@@QEAA@AEBU?$TString@U?$TSCoreConst@D@su@tl@UModSys@@U?$TComparerBinaryHash@D@234@@tl@2@0_N@Z 000000014000b344 f   umodsys_lib_libmedia:umodsys.lib.media.common.obj
 0001:0000a3bc       ?init@SVFileName@libmedia@UModSys@@QEAAXPEBDH_N@Z 000000014000b3bc f   umodsys_lib_libmedia:umodsys.lib.media.common.obj
 0001:0000a4b4       ??$safe_snprintf@D@syshlp@core@UModSys@@YA_KPEAD_KPEBDZZ 000000014000b4b4 f i umodsys_lib_libmedia:umodsys.lib.media.common.obj
 0001:0000a4e8       ?root_get_interface_info@RConsole_std@rsystem@base@UModSys@@UEBAAEBUSUniquePointerInfo@core@4@XZ 000000014000b4e8 f i umodsys_lib_basesys:umodsys.basesys.rconsole_std.obj
 0001:0000a4f0       ?root_get_interface_type@RConsole_std@rsystem@base@UModSys@@UEBAPEBUSUniquePointerInfo@core@4@XZ 000000014000b4f0 f i umodsys_lib_basesys:umodsys.basesys.rconsole_std.obj
 0001:0000a4f8       ?root_get_other_interface@RConsole_std@rsystem@base@UModSys@@UEBAPEBUIRoot@core@4@PEBUSUniquePointerInfo@64@@Z 000000014000b4f8 f i umodsys_lib_basesys:umodsys.basesys.rconsole_std.obj
 0001:0000a4f8       ?root_get_other_interface@RConsole_std@rsystem@base@UModSys@@UEAAPEAUIRoot@core@4@PEBUSUniquePointerInfo@64@@Z 000000014000b4f8 f i umodsys_lib_basesys:umodsys.basesys.rconsole_std.obj
 0001:0000a528       ?root_is_interface_supported@RConsole_std@rsystem@base@UModSys@@UEBA_NPEBUSUniquePointerInfo@core@4@@Z 000000014000b528 f i umodsys_lib_basesys:umodsys.basesys.rconsole_std.obj
 0001:0000a558       _matherr                   000000014000b558 f   MSVCRT:merr.obj
 0001:0000a558       _setargv                   000000014000b558 f   MSVCRT:dllargv.obj
 0001:0000a558       ?ref_links@RConsole_std@rsystem@base@UModSys@@UEBAHXZ 000000014000b558 f   umodsys_lib_basesys:umodsys.basesys.rconsole_std.obj
 0001:0000a558       ?get_syslib@RSystem@rsystem@base@UModSys@@UEAAPEAUIModuleLibrary@34@XZ 000000014000b558 f   umodsys_lib_basesys:umodsys.basesys.rsystem.obj
 0001:0000a55c       ?vput@RConsole_std@rsystem@base@UModSys@@UEAA_NW4eConsoleLevels@34@PEBDPEAD@Z 000000014000b55c f   umodsys_lib_basesys:umodsys.basesys.rconsole_std.obj
 0001:0000a644       ?put@RConsole_std@rsystem@base@UModSys@@UEAA_NW4eConsoleLevels@34@PEBDZZ 000000014000b644 f   umodsys_lib_basesys:umodsys.basesys.rconsole_std.obj
 0001:0000a664       ?get_c@RConsole_std@rsystem@base@UModSys@@UEAA_NPEAHPEBDZZ 000000014000b664 f   umodsys_lib_basesys:umodsys.basesys.rconsole_std.obj
 0001:0000a66c       ?reflect@RConsole_std@rsystem@base@UModSys@@QEAA_NPEBD@Z 000000014000b66c f   umodsys_lib_basesys:umodsys.basesys.rconsole_std.obj
 0001:0000a6d0       ??_GRConsole_std@rsystem@base@UModSys@@UEAAPEAXI@Z 000000014000b6d0 f i umodsys_lib_basesys:umodsys.basesys.rconsole_std.obj
 0001:0000a6d0       ??_ERConsole_std@rsystem@base@UModSys@@UEAAPEAXI@Z 000000014000b6d0 f i  CIL library: CIL module
 0001:0000a724       ?decode_error@EExceptionBase@core@UModSys@@UEBAHPEAD_K@Z 000000014000b724 f i umodsys_lib_basesys:umodsys.basesys.rsystem_main.obj
 0001:0000a760       ??_GEWarning@core@UModSys@@UEAAPEAXI@Z 000000014000b760 f i umodsys_lib_basesys:umodsys.basesys.rsystem_main.obj
 0001:0000a760       ??_EEWarning@core@UModSys@@UEAAPEAXI@Z 000000014000b760 f i  CIL library: CIL module
 0001:0000a760       ??_EEExceptionBase@core@UModSys@@UEAAPEAXI@Z 000000014000b760 f i  CIL library: CIL module
 0001:0000a760       ??_GEFatal@core@UModSys@@UEAAPEAXI@Z 000000014000b760 f i umodsys_lib_basesys:umodsys.basesys.rsystem_main.obj
 0001:0000a760       ??_EEFatal@core@UModSys@@UEAAPEAXI@Z 000000014000b760 f i  CIL library: CIL module
 0001:0000a760       ??_GEExceptionBase@core@UModSys@@UEAAPEAXI@Z 000000014000b760 f i umodsys_lib_basesys:umodsys.basesys.rsystem_main.obj
 0001:0000a788       ?decode_error@EFatal@core@UModSys@@UEBAHPEAD_K@Z 000000014000b788 f i umodsys_lib_basesys:umodsys.basesys.rsystem_main.obj
 0001:0000a7c4       ??1EWarning@core@UModSys@@UEAA@XZ 000000014000b7c4 f i umodsys_lib_basesys:umodsys.basesys.rsystem_main.obj
 0001:0000a7c4       ??1EFatal@core@UModSys@@UEAA@XZ 000000014000b7c4 f i umodsys_lib_basesys:umodsys.basesys.rsystem_main.obj
 0001:0000a7d0       ?decode_error@EWarning@core@UModSys@@UEBAHPEAD_K@Z 000000014000b7d0 f i umodsys_lib_basesys:umodsys.basesys.rsystem_main.obj
 0001:0000a80c       ?root_get_interface_info@RSystem@rsystem@base@UModSys@@UEBAAEBUSUniquePointerInfo@core@4@XZ 000000014000b80c f i umodsys_lib_basesys:umodsys.basesys.rsystem_main.obj
 0001:0000a814       ?root_get_interface_type@RSystem@rsystem@base@UModSys@@UEBAPEBUSUniquePointerInfo@core@4@XZ 000000014000b814 f i umodsys_lib_basesys:umodsys.basesys.rsystem_main.obj
 0001:0000a81c       ?root_get_other_interface@RSystem@rsystem@base@UModSys@@UEAAPEAUIRoot@core@4@PEBUSUniquePointerInfo@64@@Z 000000014000b81c f i umodsys_lib_basesys:umodsys.basesys.rsystem_main.obj
 0001:0000a81c       ?root_get_other_interface@RSystem@rsystem@base@UModSys@@UEBAPEBUIRoot@core@4@PEBUSUniquePointerInfo@64@@Z 000000014000b81c f i umodsys_lib_basesys:umodsys.basesys.rsystem_main.obj
 0001:0000a83c       ?root_is_interface_supported@RSystem@rsystem@base@UModSys@@UEBA_NPEBUSUniquePointerInfo@core@4@@Z 000000014000b83c f i umodsys_lib_basesys:umodsys.basesys.rsystem_main.obj
 0001:0000a860       ??_GRSystem@rsystem@base@UModSys@@UEAAPEAXI@Z 000000014000b860 f i umodsys_lib_basesys:umodsys.basesys.rsystem_main.obj
 0001:0000a860       ??_ERSystem@rsystem@base@UModSys@@UEAAPEAXI@Z 000000014000b860 f i  CIL library: CIL module
 0001:0000a890       ??1RSystem@rsystem@base@UModSys@@UEAA@XZ 000000014000b890 f   umodsys_lib_basesys:umodsys.basesys.rsystem_main.obj
 0001:0000a9d8       ?dbg_put@rsystem@base@UModSys@@YAXW4eRSystemDebugLevels@123@PEBDZZ 000000014000b9d8 f   umodsys_lib_basesys:umodsys.basesys.rsystem_main.obj
 0001:0000aa1c       ?err_put@rsystem@base@UModSys@@YAXW4eRSystemDebugLevels@123@PEBDZZ 000000014000ba1c f   umodsys_lib_basesys:umodsys.basesys.rsystem_main.obj
 0001:0000aa60       ??1?$TStaticStringPool@DU?$TComparerBinaryHash@D@su@tl@UModSys@@USMemAlloc_Malloc@core@4@@tl@UModSys@@QEAA@XZ 000000014000ba60 f i umodsys_lib_basesys:umodsys.basesys.rsystem_main.obj
 0001:0000aa68       ??1?$TQuantArrayUnique@USUniquePointerInfo@core@UModSys@@$0BAA@USMemAlloc_Malloc@23@@tl@UModSys@@QEAA@XZ 000000014000ba68 f i umodsys_lib_basesys:umodsys.basesys.rsystem_main.obj
 0001:0000aae0       ??1?$TTreeHoldRBD@U?$TQuantArrayNode@USUniquePointerInfo@core@UModSys@@$0BAA@@tl@UModSys@@U?$TNodeDeleter@U?$TQuantArrayNode@USUniquePointerInfo@core@UModSys@@$0BAA@@tl@UModSys@@USMemAlloc_Malloc@core@3@@23@@tl@UModSys@@QEAA@XZ 000000014000bae0 f i umodsys_lib_basesys:umodsys.basesys.rsystem_main.obj
 0001:0000aae0       ??1?$TTreeHoldRBD@U?$TQuantArrayNode@USSourceContext@core@UModSys@@$0BAA@@tl@UModSys@@U?$TNodeDeleter@U?$TQuantArrayNode@USSourceContext@core@UModSys@@$0BAA@@tl@UModSys@@USMemAlloc_Malloc@core@3@@23@@tl@UModSys@@QEAA@XZ 000000014000bae0 f i umodsys_lib_basesys:umodsys.basesys.rsystem_main.obj
 0001:0000ab48       ?mem_alloc@?$TRMemAlloc_CC@U?$TMemAllocHeader@USMagic@mem_headers@rsystem@base@UModSys@@U?$TPool@X@2345@USDebug@2345@UVoid@core@5@U895@@rsystem@base@UModSys@@USMemAlloc_Malloc@core@4@@rsystem@base@UModSys@@UEAAPEAX_KPEBUSSourceContext@core@4@@Z 000000014000bb48 f i umodsys_lib_basesys:umodsys.basesys.rsystem_main.obj
 0001:0000abcc       ?mem_realloc@?$TRMemAlloc_CC@U?$TMemAllocHeader@USMagic@mem_headers@rsystem@base@UModSys@@U?$TPool@X@2345@USDebug@2345@UVoid@core@5@U895@@rsystem@base@UModSys@@USMemAlloc_Malloc@core@4@@rsystem@base@UModSys@@UEAAPEAXPEAX_KPEBUSSourceContext@core@4@@Z 000000014000bbcc f i umodsys_lib_basesys:umodsys.basesys.rsystem_main.obj
 0001:0000aec0       ?mem_free@?$TRMemAlloc_CC@U?$TMemAllocHeader@USMagic@mem_headers@rsystem@base@UModSys@@U?$TPool@X@2345@USDebug@2345@UVoid@core@5@U895@@rsystem@base@UModSys@@USMemAlloc_Malloc@core@4@@rsystem@base@UModSys@@UEAAXPEAXPEBUSSourceContext@core@4@@Z 000000014000bec0 f i umodsys_lib_basesys:umodsys.basesys.rsystem_main.obj
 0001:0000b02c       ?free@?$TStaticStringPool@DU?$TComparerBinaryHash@D@su@tl@UModSys@@USMemAlloc_Malloc@core@4@@tl@UModSys@@QEAAXXZ 000000014000c02c f i umodsys_lib_basesys:umodsys.basesys.rsystem_main.obj
 0001:0000b080       ??$process_nodes_r@U?$TNodeDeleter@U?$TQuantArrayNode@USUniquePointerInfo@core@UModSys@@$0BAA@@tl@UModSys@@USMemAlloc_Malloc@core@3@@tl@UModSys@@@?$TTreeHoldRB@U?$TQuantArrayNode@USUniquePointerInfo@core@UModSys@@$0BAA@@tl@UModSys@@@tl@UModSys@@KAHPEAU?$TQuantArrayNode@USUniquePointerInfo@core@UModSys@@$0BAA@@12@AEBU?$TNodeDeleter@U?$TQuantArrayNode@USUniquePointerInfo@core@UModSys@@$0BAA@@tl@UModSys@@USMemAlloc_Malloc@core@3@@12@@Z 000000014000c080 f i umodsys_lib_basesys:umodsys.basesys.rsystem_main.obj
 0001:0000b080       ??$process_nodes_r@U?$TNodeDeleter@U?$TQuantArrayNode@USSourceContext@core@UModSys@@$0BAA@@tl@UModSys@@USMemAlloc_Malloc@core@3@@tl@UModSys@@@?$TTreeHoldRB@U?$TQuantArrayNode@USSourceContext@core@UModSys@@$0BAA@@tl@UModSys@@@tl@UModSys@@KAHPEAU?$TQuantArrayNode@USSourceContext@core@UModSys@@$0BAA@@12@AEBU?$TNodeDeleter@U?$TQuantArrayNode@USSourceContext@core@UModSys@@$0BAA@@tl@UModSys@@USMemAlloc_Malloc@core@3@@12@@Z 000000014000c080 f i umodsys_lib_basesys:umodsys.basesys.rsystem_main.obj
 0001:0000b0e4       ??0EFatal@core@UModSys@@QEAA@AEBU012@@Z 000000014000c0e4 f i umodsys_lib_basesys:umodsys.basesys.rsystem_main.obj
 0001:0000b124       ??0EExceptionBase@core@UModSys@@QEAA@AEBU012@@Z 000000014000c124 f i umodsys_lib_basesys:umodsys.basesys.rsystem_main.obj
 0001:0000b158       ??0EWarning@core@UModSys@@QEAA@AEBU012@@Z 000000014000c158 f i umodsys_lib_basesys:umodsys.basesys.rsystem_main.obj
 0001:0000b198       ?exec_test_shells@RSystem@rsystem@base@UModSys@@QEAA_NXZ 000000014000c198 f   umodsys_lib_basesys:umodsys.basesys.rsystem_tests.obj
 0001:0000b38c       ??1?$TParametersA@$0EAA@@core@UModSys@@QEAA@XZ 000000014000c38c f i umodsys_lib_basesys:umodsys.basesys.rsystem_tests.obj
 0001:0000b3a8       ?moduledb_findobjname@RModuleLoader@rsystem@base@UModSys@@UEAA_KPEBUSUniquePointerInfo@core@4@QEAPEBU564@_KPEBD@Z 000000014000c3a8 f   umodsys_lib_basesys:umodsys.basesys.rmoduleloader.obj
 0001:0000b458       ?moduledb_generate@RModuleLoader@rsystem@base@UModSys@@UEAA_NAEAU?$TRefObject@UIRefObject@core@UModSys@@U?$TRefObjectFunc@UIRefObject@core@UModSys@@@tl@3@@tl@4@PEBUSUniquePointerInfo@core@4@AEBUSParameters@84@@Z 000000014000c458 f   umodsys_lib_basesys:umodsys.basesys.rmoduleloader.obj
 0001:0000b4e4       ?moduledb_lib_count@RModuleLoader@rsystem@base@UModSys@@UEAA_KXZ 000000014000c4e4 f   umodsys_lib_basesys:umodsys.basesys.rmoduleloader.obj
 0001:0000b4ec       ?moduledb_lib_get@RModuleLoader@rsystem@base@UModSys@@UEBAPEAUIModuleLibrary@34@_K@Z 000000014000c4ec f   umodsys_lib_basesys:umodsys.basesys.rmoduleloader.obj
 0001:0000b50c       ?moduledb_module_count@RModuleLoader@rsystem@base@UModSys@@UEAA_KXZ 000000014000c50c f   umodsys_lib_basesys:umodsys.basesys.rmoduleloader.obj
 0001:0000b53c       ?moduledb_module_get@RModuleLoader@rsystem@base@UModSys@@UEBAPEAUIModule@34@_K@Z 000000014000c53c f   umodsys_lib_basesys:umodsys.basesys.rmoduleloader.obj
 0001:0000b588       ?moduledb_find@RModuleLoader@rsystem@base@UModSys@@UEBAPEAUIModule@34@AEBU?$TString@U?$TSCoreConst@D@su@tl@UModSys@@U?$TComparerBinaryHash@D@234@@tl@4@AEBUSVersion@core@4@@Z 000000014000c588 f   umodsys_lib_basesys:umodsys.basesys.rmoduleloader.obj
 0001:0000b6c8       ?moduledb_clear@RModuleLoader@rsystem@base@UModSys@@UEAAXXZ 000000014000c6c8 f   umodsys_lib_basesys:umodsys.basesys.rmoduleloader.obj
 0001:0000b770       ?moduledb_cleanup@RModuleLoader@rsystem@base@UModSys@@UEAA_KXZ 000000014000c770 f   umodsys_lib_basesys:umodsys.basesys.rmoduleloader.obj
 0001:0000b8dc       ?get_s@RConsole_std@rsystem@base@UModSys@@UEAA_NPEAD_KPEBDZZ 000000014000c8dc f   umodsys_lib_basesys:umodsys.basesys.rconsole_std.obj
 0001:0000b8dc       ?obj_get@ILibrary@libmedia@UModSys@@UEAA_NAEBU?$TString@U?$TSCoreConst@D@su@tl@UModSys@@U?$TComparerBinaryHash@D@234@@tl@3@AEAU?$TRefObject@UIRefObject@core@UModSys@@U?$TRefObjectFunc@UIRefObject@core@UModSys@@@tl@3@@53@AEBUSObjOptions@123@@Z 000000014000c8dc f   umodsys_lib_libmedia:umodsys.lib.media.library.obj
 0001:0000b8dc       ?obj_cget@ILibrary@libmedia@UModSys@@UEAA_NAEBU?$TString@U?$TSCoreConst@D@su@tl@UModSys@@U?$TComparerBinaryHash@D@234@@tl@3@AEAU?$TRefObject@UIRefObject@core@UModSys@@U?$TRefObjectFunc@UIRefObject@core@UModSys@@@tl@3@@53@_N@Z 000000014000c8dc f   umodsys_lib_libmedia:umodsys.lib.media.library.obj
 0001:0000b8dc       ?obj_fload@ILibrary@libmedia@UModSys@@UEAA_NAEBUSInfo@IBinObjFilter@23@PEAUIRefObject@core@3@@Z 000000014000c8dc f   umodsys_lib_libmedia:umodsys.lib.media.library.obj
 0001:0000b8dc       ?obj_fsave@ILibrary@libmedia@UModSys@@UEAA_NAEAUSInfo@IBinObjFilter@23@PEBUIRefObject@core@3@@Z 000000014000c8dc f   umodsys_lib_libmedia:umodsys.lib.media.library.obj
 0001:0000b8dc       ?ref_weak@RConsole_std@rsystem@base@UModSys@@UEBA_NAEAUWeakPointer@IRefObject@core@4@@Z 000000014000c8dc f   umodsys_lib_basesys:umodsys.basesys.rconsole_std.obj
 0001:0000b8dc       ?obj_save@ILibrary@libmedia@UModSys@@UEAA_NAEBU?$TString@U?$TSCoreConst@D@su@tl@UModSys@@U?$TComparerBinaryHash@D@234@@tl@3@PEBUIRefObject@core@3@AEBUSObjOptions@123@@Z 000000014000c8dc f   umodsys_lib_libmedia:umodsys.lib.media.library.obj
 0001:0000b8dc       ?bin_load@ILibrary@libmedia@UModSys@@UEAA_NAEBU?$TString@U?$TSCoreConst@D@su@tl@UModSys@@U?$TComparerBinaryHash@D@234@@tl@3@AEAUSCMemShared@core@3@AEBUSFlags@23@@Z 000000014000c8dc f   umodsys_lib_libmedia:umodsys.lib.media.library.obj
 0001:0000b8dc       ?moduledb_load@RModuleLoader@rsystem@base@UModSys@@UEAA_NAEBU?$TString@U?$TSCoreConst@D@su@tl@UModSys@@U?$TComparerBinaryHash@D@234@@tl@4@@Z 000000014000c8dc f   umodsys_lib_basesys:umodsys.basesys.rmoduleloader.obj
 0001:0000b8dc       ?obj_cput@ILibrary@libmedia@UModSys@@UEAA_NAEBU?$TString@U?$TSCoreConst@D@su@tl@UModSys@@U?$TComparerBinaryHash@D@234@@tl@3@PEAUIRefObject@core@3@@Z 000000014000c8dc f   umodsys_lib_libmedia:umodsys.lib.media.library.obj
 0001:0000b8dc       ?bin_get@ILibrary@libmedia@UModSys@@UEAA_NAEBU?$TString@U?$TSCoreConst@D@su@tl@UModSys@@U?$TComparerBinaryHash@D@234@@tl@3@AEAUSCMemShared@core@3@_N@Z 000000014000c8dc f   umodsys_lib_libmedia:umodsys.lib.media.library.obj
 0001:0000b8dc       ?bin_put@ILibrary@libmedia@UModSys@@UEAA_NAEBU?$TString@U?$TSCoreConst@D@su@tl@UModSys@@U?$TComparerBinaryHash@D@234@@tl@3@PEBUSCMemShared@core@3@@Z 000000014000c8dc f   umodsys_lib_libmedia:umodsys.lib.media.library.obj
 0001:0000b8dc       ?obj_load@ILibrary@libmedia@UModSys@@UEAA_NAEBU?$TString@U?$TSCoreConst@D@su@tl@UModSys@@U?$TComparerBinaryHash@D@234@@tl@3@PEAUIRefObject@core@3@AEBUSObjOptions@123@@Z 000000014000c8dc f   umodsys_lib_libmedia:umodsys.lib.media.library.obj
 0001:0000b8dc       ?bin_info@ILibrary@libmedia@UModSys@@UEAA_NAEBU?$TString@U?$TSCoreConst@D@su@tl@UModSys@@U?$TComparerBinaryHash@D@234@@tl@3@AEAUSFileInfo@23@AEBUSFlags@23@@Z 000000014000c8dc f   umodsys_lib_libmedia:umodsys.lib.media.library.obj
 0001:0000b8dc       ?bin_save@ILibrary@libmedia@UModSys@@UEAA_NAEBU?$TString@U?$TSCoreConst@D@su@tl@UModSys@@U?$TComparerBinaryHash@D@234@@tl@3@AEBUSCMem@core@3@AEBUSFlags@23@@Z 000000014000c8dc f   umodsys_lib_libmedia:umodsys.lib.media.library.obj
 0001:0000b8dc       ?vget_s@RConsole_std@rsystem@base@UModSys@@UEAA_NPEAD_KPEBD0@Z 000000014000c8dc f   umodsys_lib_basesys:umodsys.basesys.rconsole_std.obj
 0001:0000b8dc       ?vget_c@RConsole_std@rsystem@base@UModSys@@UEAA_NPEAHPEBDPEAD@Z 000000014000c8dc f   umodsys_lib_basesys:umodsys.basesys.rconsole_std.obj
 0001:0000b8dc       ?obj_fget@ILibrary@libmedia@UModSys@@UEAA_NAEBUSInfo@IBinObjFilter@23@AEAU?$TRefObject@UIRefObject@core@UModSys@@U?$TRefObjectFunc@UIRefObject@core@UModSys@@@tl@3@@tl@3@@Z 000000014000c8dc f   umodsys_lib_libmedia:umodsys.lib.media.library.obj
 0001:0000b8dc       ?bin_list@ILibrary@libmedia@UModSys@@UEAA_NAEBU?$TString@U?$TSCoreConst@D@su@tl@UModSys@@U?$TComparerBinaryHash@D@234@@tl@3@AEAU?$TIStackSocket@USFileInfo@libmedia@UModSys@@@53@AEBUSFlags@23@@Z 000000014000c8dc f   umodsys_lib_libmedia:umodsys.lib.media.library.obj
 0001:0000b8dc       ?moduledb_lib_drop@RModuleLoader@rsystem@base@UModSys@@UEAA_NPEAUIModuleLibrary@34@@Z 000000014000c8dc f   umodsys_lib_basesys:umodsys.basesys.rmoduleloader.obj
 0001:0000b8e0       ?moduledb_save@RModuleLoader@rsystem@base@UModSys@@UEAA_NAEBU?$TString@U?$TSCoreConst@D@su@tl@UModSys@@U?$TComparerBinaryHash@D@234@@tl@4@@Z 000000014000c8e0 f   umodsys_lib_basesys:umodsys.basesys.rmoduleloader.obj
 0001:0000b990       ?moduledb_scan@RModuleLoader@rsystem@base@UModSys@@UEAA_KAEBU?$TString@U?$TSCoreConst@D@su@tl@UModSys@@U?$TComparerBinaryHash@D@234@@tl@4@_N@Z 000000014000c990 f   umodsys_lib_basesys:umodsys.basesys.rmoduleloader.obj
 0001:0000bb04       ?moduledb_get_string@RModuleLoader@rsystem@base@UModSys@@UEAAAEBU?$TString@U?$TSCoreConst@D@su@tl@UModSys@@U?$TComparerBinaryHash@D@234@@tl@4@AEBU564@@Z 000000014000cb04 f   umodsys_lib_basesys:umodsys.basesys.rmoduleloader.obj
 0001:0000bb48       ??_ERModuleLoader@rsystem@base@UModSys@@UEAAPEAXI@Z 000000014000cb48 f i  CIL library: CIL module
 0001:0000bb48       ??_GRModuleLoader@rsystem@base@UModSys@@UEAAPEAXI@Z 000000014000cb48 f i umodsys_lib_basesys:umodsys.basesys.rmoduleloader.obj
 0001:0000bb78       ??_GIModuleLoader@base@UModSys@@UEAAPEAXI@Z 000000014000cb78 f i umodsys_lib_basesys:umodsys.basesys.rmoduleloader.obj
 0001:0000bb78       ??_EIModuleLoader@base@UModSys@@UEAAPEAXI@Z 000000014000cb78 f i  CIL library: CIL module
 0001:0000bba0       ??1RModuleLoader@rsystem@base@UModSys@@UEAA@XZ 000000014000cba0 f   umodsys_lib_basesys:umodsys.basesys.rmoduleloader.obj
 0001:0000bc38       ??1?$TDynarrayDynamic@U?$TRefObject@URModuleLibrarySO@rsystem@base@UModSys@@U?$TRefObjectFunc@URModuleLibrarySO@rsystem@base@UModSys@@@tl@4@@tl@UModSys@@U?$TAllocator@USMemAlloc_Malloc@core@UModSys@@USCountCalcPower2@23@@23@@tl@UModSys@@QEAA@XZ 000000014000cc38 f i umodsys_lib_basesys:umodsys.basesys.rmoduleloader.obj
 0001:0000bc80       ?append@?$TStaticStringPool@DU?$TComparerBinaryHash@D@su@tl@UModSys@@USMemAlloc_Malloc@core@4@@tl@UModSys@@QEAAPEBU?$TString@U?$TSCoreConst@D@su@tl@UModSys@@U?$TComparerBinaryHash@D@234@@23@PEBD_K@Z 000000014000cc80 f i umodsys_lib_basesys:umodsys.basesys.rmoduleloader.obj
 0001:0000bed4       ?root_get_interface_info@RModuleLibraryThis@rsystem@base@UModSys@@UEBAAEBUSUniquePointerInfo@core@4@XZ 000000014000ced4 f i umodsys_lib_basesys:umodsys.basesys.rmodulelibthis.obj
 0001:0000bedc       ?root_get_interface_type@RModuleLibraryThis@rsystem@base@UModSys@@UEBAPEBUSUniquePointerInfo@core@4@XZ 000000014000cedc f i umodsys_lib_basesys:umodsys.basesys.rmodulelibthis.obj
 0001:0000bee4       ?root_get_other_interface@RModuleLibraryThis@rsystem@base@UModSys@@UEAAPEAUIRoot@core@4@PEBUSUniquePointerInfo@64@@Z 000000014000cee4 f i umodsys_lib_basesys:umodsys.basesys.rmodulelibthis.obj
 0001:0000bee4       ?root_get_other_interface@RModuleLibraryThis@rsystem@base@UModSys@@UEBAPEBUIRoot@core@4@PEBUSUniquePointerInfo@64@@Z 000000014000cee4 f i umodsys_lib_basesys:umodsys.basesys.rmodulelibthis.obj
 0001:0000bf1c       ?root_is_interface_supported@RModuleLibraryThis@rsystem@base@UModSys@@UEBA_NPEBUSUniquePointerInfo@core@4@@Z 000000014000cf1c f i umodsys_lib_basesys:umodsys.basesys.rmodulelibthis.obj
 0001:0000bf54       ?ref_add@RModuleLibraryThis@rsystem@base@UModSys@@UEBAXXZ 000000014000cf54 f i umodsys_lib_basesys:umodsys.basesys.rmodulelibthis.obj
 0001:0000bf5c       ?ref_remove@RModuleLibraryThis@rsystem@base@UModSys@@UEBAXXZ 000000014000cf5c f i umodsys_lib_basesys:umodsys.basesys.rmodulelibthis.obj
 0001:0000bf74       ?ref_links@RModuleLibraryThis@rsystem@base@UModSys@@UEBAHXZ 000000014000cf74 f i umodsys_lib_basesys:umodsys.basesys.rmodulelibthis.obj
 0001:0000bf7c       ?ref_weak@RModuleLibraryThis@rsystem@base@UModSys@@UEBA_NAEAUWeakPointer@IRefObject@core@4@@Z 000000014000cf7c f i umodsys_lib_basesys:umodsys.basesys.rmodulelibthis.obj
 0001:0000bfa0       ?uni_load@RModuleLibraryThis@rsystem@base@UModSys@@UEAA_NXZ 000000014000cfa0 f   umodsys_lib_basesys:umodsys.basesys.rmodulelibthis.obj
 0001:0000bfb0       ?uni_close@RModuleLibraryThis@rsystem@base@UModSys@@UEAA_NXZ 000000014000cfb0 f   umodsys_lib_basesys:umodsys.basesys.rmodulelibthis.obj
 0001:0000bfb0       ?uni_open@RModuleLibraryThis@rsystem@base@UModSys@@UEAA_NXZ 000000014000cfb0 f   umodsys_lib_basesys:umodsys.basesys.rmodulelibthis.obj
 0001:0000bfb0       ?uni_unload@RModuleLibraryThis@rsystem@base@UModSys@@UEAA_NXZ 000000014000cfb0 f   umodsys_lib_basesys:umodsys.basesys.rmodulelibthis.obj
 0001:0000bfb4       ??_ERModuleLibraryThis@rsystem@base@UModSys@@UEAAPEAXI@Z 000000014000cfb4 f i  CIL library: CIL module
 0001:0000bfb4       ??_GRModuleLibraryThis@rsystem@base@UModSys@@UEAAPEAXI@Z 000000014000cfb4 f i umodsys_lib_basesys:umodsys.basesys.rmodulelibthis.obj
 0001:0000c004       ?get_sys_libname@IModuleLibraryUni@rsystem@base@UModSys@@UEBA?AU?$TString@U?$TSCoreConst@D@su@tl@UModSys@@U?$TComparerBinaryHash@D@234@@tl@4@XZ 000000014000d004 f   umodsys_lib_basesys:umodsys.basesys.rmodulelib.obj
 0001:0000c018       ?get_privmem@IModuleLibraryUni@rsystem@base@UModSys@@UEBAPEAUIMemAlloc@core@4@XZ 000000014000d018 f   umodsys_lib_basesys:umodsys.basesys.rmodulelib.obj
 0001:0000c020       ?get_system@IModuleLibraryUni@rsystem@base@UModSys@@UEBAPEAUISystem@34@XZ 000000014000d020 f   umodsys_lib_basesys:umodsys.basesys.rmodulelib.obj
 0001:0000c028       ?get_module_count@IModuleLibraryUni@rsystem@base@UModSys@@UEBA_KXZ 000000014000d028 f   umodsys_lib_basesys:umodsys.basesys.rmodulelib.obj
 0001:0000c030       ?get_module@IModuleLibraryUni@rsystem@base@UModSys@@UEBAPEAUIModule@34@_K@Z 000000014000d030 f   umodsys_lib_basesys:umodsys.basesys.rmodulelib.obj
 0001:0000c044       ?lib_loaded@IModuleLibraryUni@rsystem@base@UModSys@@UEBA_NXZ 000000014000d044 f   umodsys_lib_basesys:umodsys.basesys.rmodulelib.obj
 0001:0000c050       ?lib_load@IModuleLibraryUni@rsystem@base@UModSys@@UEAA_NXZ 000000014000d050 f   umodsys_lib_basesys:umodsys.basesys.rmodulelib.obj
 0001:0000c07c       ?lib_unload@IModuleLibraryUni@rsystem@base@UModSys@@UEAA_NXZ 000000014000d07c f   umodsys_lib_basesys:umodsys.basesys.rmodulelib.obj
 0001:0000c090       ?lib_free@IModuleLibraryUni@rsystem@base@UModSys@@UEAA_NXZ 000000014000d090 f   umodsys_lib_basesys:umodsys.basesys.rmodulelib.obj
 0001:0000c0b0       ?lib_findobjname@IModuleLibraryUni@rsystem@base@UModSys@@UEAA_KPEBUSUniquePointerInfo@core@4@QEAPEBU564@_KPEBD@Z 000000014000d0b0 f   umodsys_lib_basesys:umodsys.basesys.rmodulelib.obj
 0001:0000c154       ?lib_generate@IModuleLibraryUni@rsystem@base@UModSys@@UEAA_NAEAU?$TRefObject@UIRefObject@core@UModSys@@U?$TRefObjectFunc@UIRefObject@core@UModSys@@@tl@3@@tl@4@PEBUSUniquePointerInfo@core@4@AEBUSParameters@84@@Z 000000014000d154 f   umodsys_lib_basesys:umodsys.basesys.rmodulelib.obj
 0001:0000c1d0       ?cleanup@IModuleLibraryUni@rsystem@base@UModSys@@QEAA_KXZ 000000014000d1d0 f   umodsys_lib_basesys:umodsys.basesys.rmodulelib.obj
 0001:0000c21c       ?load0@IModuleLibraryUni@rsystem@base@UModSys@@QEAA_NXZ 000000014000d21c f   umodsys_lib_basesys:umodsys.basesys.rmodulelib.obj
 0001:0000c280       ?link@IModuleLibraryUni@rsystem@base@UModSys@@QEAA_NXZ 000000014000d280 f   umodsys_lib_basesys:umodsys.basesys.rmodulelib.obj
 0001:0000c59c       ?unlink@IModuleLibraryUni@rsystem@base@UModSys@@QEAA_NXZ 000000014000d59c f   umodsys_lib_basesys:umodsys.basesys.rmodulelib.obj
 0001:0000c5ec       ?scan@IModuleLibraryUni@rsystem@base@UModSys@@QEAA_NXZ 000000014000d5ec f   umodsys_lib_basesys:umodsys.basesys.rmodulelib.obj
 0001:0000c668       ?save_db@IModuleLibraryUni@rsystem@base@UModSys@@QEAA_NPEAU_iobuf@@@Z 000000014000d668 f   umodsys_lib_basesys:umodsys.basesys.rmodulelib.obj
 0001:0000c6f0       ??0IModuleLibraryUni@rsystem@base@UModSys@@QEAA@PEAUISystem@23@PEAUIModuleLibraryReg@23@@Z 000000014000d6f0 f   umodsys_lib_basesys:umodsys.basesys.rmodulelib.obj
 0001:0000c784       ??_GIModuleLibraryUni@rsystem@base@UModSys@@UEAAPEAXI@Z 000000014000d784 f i umodsys_lib_basesys:umodsys.basesys.rmodulelib.obj
 0001:0000c784       ??_EIModuleLibraryUni@rsystem@base@UModSys@@UEAAPEAXI@Z 000000014000d784 f i  CIL library: CIL module
 0001:0000c7b4       ??1IModuleLibraryUni@rsystem@base@UModSys@@UEAA@XZ 000000014000d7b4 f   umodsys_lib_basesys:umodsys.basesys.rmodulelib.obj
 0001:0000c834       ?Resize@?$TDynarray@U?$TDynarrayHolderDynamic@U?$TRefObject@URModule@rsystem@base@UModSys@@U?$TRefObjectFunc@URModule@rsystem@base@UModSys@@@tl@4@@tl@UModSys@@U?$TAllocator@USMemAlloc_Malloc@core@UModSys@@USCountCalcPower2@23@@23@@tl@UModSys@@@tl@UModSys@@QEAA_N_K@Z 000000014000d834 f i umodsys_lib_basesys:umodsys.basesys.rmodulelib.obj
 0001:0000c834       ?Resize@?$TDynarray@U?$TDynarrayHolderDynamic@U?$TRefObject@URModuleLibrarySO@rsystem@base@UModSys@@U?$TRefObjectFunc@URModuleLibrarySO@rsystem@base@UModSys@@@tl@4@@tl@UModSys@@U?$TAllocator@USMemAlloc_Malloc@core@UModSys@@USCountCalcPower2@23@@23@@tl@UModSys@@@tl@UModSys@@QEAA_N_K@Z 000000014000d834 f i umodsys_lib_basesys:umodsys.basesys.rmoduleloader.obj
 0001:0000c924       ?info_release@?$TSCoreShared@USMemAlloc_Malloc@core@UModSys@@D@su@tl@UModSys@@QEAAXXZ 000000014000d924 f i umodsys_lib_basesys:umodsys.basesys.rmodulelib.obj
 0001:0000c9e0       ?check_leaks@?$TRMemAlloc_CC@U?$TMemAllocHeader@USMagic@mem_headers@rsystem@base@UModSys@@U?$TPool@X@2345@USDebug@2345@UVoid@core@5@U895@@rsystem@base@UModSys@@USMemAlloc_Malloc@core@4@@rsystem@base@UModSys@@QEAA_K_NPEAUIExceptionHandler@core@4@@Z 000000014000d9e0 f i umodsys_lib_basesys:umodsys.basesys.rmodulelib.obj
 0001:0000ca8c       ?upi_add@RSystem@rsystem@base@UModSys@@UEAAPEBUSUniquePointerInfo@core@4@PEBU564@@Z 000000014000da8c f   umodsys_lib_basesys:umodsys.basesys.rsystem.obj
 0001:0000cbdc       ?upi_remove@RSystem@rsystem@base@UModSys@@UEAAHPEBUSUniquePointerInfo@core@4@@Z 000000014000dbdc f   umodsys_lib_basesys:umodsys.basesys.rsystem.obj
 0001:0000cbe0       ?persist_ctx@RSystem@rsystem@base@UModSys@@UEAAPEBUSSourceContext@core@4@PEBU564@@Z 000000014000dbe0 f   umodsys_lib_basesys:umodsys.basesys.rsystem.obj
 0001:0000cd08       ?get_params@RSystem@rsystem@base@UModSys@@UEAAPEAUIParameters@core@4@XZ 000000014000dd08 f   umodsys_lib_basesys:umodsys.basesys.rsystem.obj
 0001:0000cd10       ?get_console@RSystem@rsystem@base@UModSys@@UEAAPEAUIConsole@34@XZ 000000014000dd10 f   umodsys_lib_basesys:umodsys.basesys.rsystem.obj
 0001:0000cd18       ?get_sysmem@RSystem@rsystem@base@UModSys@@UEAAPEAUIMemAlloc@core@4@XZ 000000014000dd18 f   umodsys_lib_basesys:umodsys.basesys.rsystem.obj
 0001:0000cd20       ?get_sharemem@RSystem@rsystem@base@UModSys@@UEAAPEAUIMemAlloc@core@4@XZ 000000014000dd20 f   umodsys_lib_basesys:umodsys.basesys.rsystem.obj
 0001:0000cd28       ?get_modloader@RSystem@rsystem@base@UModSys@@UEAAPEAUIModuleLoader@34@XZ 000000014000dd28 f   umodsys_lib_basesys:umodsys.basesys.rsystem.obj
 0001:0000cd30       ?get_upr@RSystem@rsystem@base@UModSys@@UEAAPEAUIUniquePointerResolver@core@4@XZ 000000014000dd30 f   umodsys_lib_basesys:umodsys.basesys.rsystem.obj
 0001:0000cd3c       ?get_sca@RSystem@rsystem@base@UModSys@@UEAAPEAUISourceContextAdapter@core@4@XZ 000000014000dd3c f   umodsys_lib_basesys:umodsys.basesys.rsystem.obj
 0001:0000cd48       ?add@?$TQuantArrayUnique@USSourceContext@core@UModSys@@$0BAA@USMemAlloc_Malloc@23@@tl@UModSys@@QEAAPEAUSSourceContext@core@3@AEBU453@@Z 000000014000dd48 f i umodsys_lib_basesys:umodsys.basesys.rsystem.obj
 0001:0000cd48       ?add@?$TQuantArrayUnique@USUniquePointerInfo@core@UModSys@@$0BAA@USMemAlloc_Malloc@23@@tl@UModSys@@QEAAPEAUSUniquePointerInfo@core@3@AEBU453@@Z 000000014000dd48 f i umodsys_lib_basesys:umodsys.basesys.rsystem.obj
 0001:0000ce88       ?find@?$TQuantArrayUnique@USSourceContext@core@UModSys@@$0BAA@USMemAlloc_Malloc@23@@tl@UModSys@@QEAAPEBUSSourceContext@core@3@AEBU453@@Z 000000014000de88 f i umodsys_lib_basesys:umodsys.basesys.rsystem.obj
 0001:0000ce88       ?find@?$TQuantArrayUnique@USUniquePointerInfo@core@UModSys@@$0BAA@USMemAlloc_Malloc@23@@tl@UModSys@@QEAAPEBUSUniquePointerInfo@core@3@AEBU453@@Z 000000014000de88 f i umodsys_lib_basesys:umodsys.basesys.rsystem.obj
 0001:0000cf64       ?s_last@?$TQuantArrayUnique@USSourceContext@core@UModSys@@$0BAA@USMemAlloc_Malloc@23@@tl@UModSys@@KAHPEBU?$TQuantArrayNode@USSourceContext@core@UModSys@@$0BAA@@23@0@Z 000000014000df64 f i umodsys_lib_basesys:umodsys.basesys.rsystem.obj
 0001:0000cf64       ?s_last@?$TQuantArrayUnique@USUniquePointerInfo@core@UModSys@@$0BAA@USMemAlloc_Malloc@23@@tl@UModSys@@KAHPEBU?$TQuantArrayNode@USUniquePointerInfo@core@UModSys@@$0BAA@@23@0@Z 000000014000df64 f i umodsys_lib_basesys:umodsys.basesys.rsystem.obj
 0001:0000cf6c       ??$insert_node_m@P6AHPEBU?$TQuantArrayNode@USUniquePointerInfo@core@UModSys@@$0BAA@@tl@UModSys@@0@Z@?$TTreeHoldRB@U?$TQuantArrayNode@USUniquePointerInfo@core@UModSys@@$0BAA@@tl@UModSys@@@tl@UModSys@@QEAAPEAU?$TQuantArrayNode@USUniquePointerInfo@core@UModSys@@$0BAA@@12@PEAU312@P6AHPEBU312@1@Z@Z 000000014000df6c f i umodsys_lib_basesys:umodsys.basesys.rsystem.obj
 0001:0000cf6c       ??$insert_node_m@P6AHPEBU?$TQuantArrayNode@USSourceContext@core@UModSys@@$0BAA@@tl@UModSys@@0@Z@?$TTreeHoldRB@U?$TQuantArrayNode@USSourceContext@core@UModSys@@$0BAA@@tl@UModSys@@@tl@UModSys@@QEAAPEAU?$TQuantArrayNode@USSourceContext@core@UModSys@@$0BAA@@12@PEAU312@P6AHPEBU312@1@Z@Z 000000014000df6c f i umodsys_lib_basesys:umodsys.basesys.rsystem.obj
 0001:0000d170       ?root_get_interface_info@RParameters@rsystem@base@UModSys@@UEBAAEBUSUniquePointerInfo@core@4@XZ 000000014000e170 f i umodsys_lib_basesys:umodsys.basesys.rparameters.obj
 0001:0000d178       ?root_get_interface_type@RParameters@rsystem@base@UModSys@@UEBAPEBUSUniquePointerInfo@core@4@XZ 000000014000e178 f i umodsys_lib_basesys:umodsys.basesys.rparameters.obj
 0001:0000d180       ?root_get_other_interface@RParameters@rsystem@base@UModSys@@UEBAPEBUIRoot@core@4@PEBUSUniquePointerInfo@64@@Z 000000014000e180 f i umodsys_lib_basesys:umodsys.basesys.rparameters.obj
 0001:0000d180       ?root_get_other_interface@RParameters@rsystem@base@UModSys@@UEAAPEAUIRoot@core@4@PEBUSUniquePointerInfo@64@@Z 000000014000e180 f i umodsys_lib_basesys:umodsys.basesys.rparameters.obj
 0001:0000d1b0       ?root_is_interface_supported@RParameters@rsystem@base@UModSys@@UEBA_NPEBUSUniquePointerInfo@core@4@@Z 000000014000e1b0 f i umodsys_lib_basesys:umodsys.basesys.rparameters.obj
 0001:0000d1e0       ?find_elem@RParameters@rsystem@base@UModSys@@IEAAPEBUElem@1234@PEBXHHHPEBD@Z 000000014000e1e0 f   umodsys_lib_basesys:umodsys.basesys.rparameters.obj
 0001:0000d278       ?free_elems@RParameters@rsystem@base@UModSys@@IEAAXPEAXH@Z 000000014000e278 f   umodsys_lib_basesys:umodsys.basesys.rparameters.obj
 0001:0000d310       ?alloc_elems@RParameters@rsystem@base@UModSys@@IEAAXPEAXH@Z 000000014000e310 f   umodsys_lib_basesys:umodsys.basesys.rparameters.obj
 0001:0000d394       ?add_last@RParameters@rsystem@base@UModSys@@IEAA_NPEAUSParametersData@core@4@PEBDPEBX_KH@Z 000000014000e394 f   umodsys_lib_basesys:umodsys.basesys.rparameters.obj
 0001:0000d628       ?p_deinit@RParameters@rsystem@base@UModSys@@UEAAXPEAUSParametersData@core@4@@Z 000000014000e628 f   umodsys_lib_basesys:umodsys.basesys.rparameters.obj
 0001:0000d698       ?p_init@RParameters@rsystem@base@UModSys@@UEAAXPEAUSParametersData@core@4@H@Z 000000014000e698 f   umodsys_lib_basesys:umodsys.basesys.rparameters.obj
 0001:0000d740       ?p_init@RParameters@rsystem@base@UModSys@@UEAAXPEAUSParametersData@core@4@AEBU564@@Z 000000014000e740 f   umodsys_lib_basesys:umodsys.basesys.rparameters.obj
 0001:0000d834       ?p_copy@RParameters@rsystem@base@UModSys@@UEAAXPEAUSParametersData@core@4@AEBU564@@Z 000000014000e834 f   umodsys_lib_basesys:umodsys.basesys.rparameters.obj
 0001:0000d980       ?p_init_s@RParameters@rsystem@base@UModSys@@UEAAXPEAUSParametersData@core@4@PEAXH@Z 000000014000e980 f   umodsys_lib_basesys:umodsys.basesys.rparameters.obj
 0001:0000d9b8       ?p_init_s@RParameters@rsystem@base@UModSys@@UEAAXPEAUSParametersData@core@4@AEBU564@PEAXH@Z 000000014000e9b8 f   umodsys_lib_basesys:umodsys.basesys.rparameters.obj
 0001:0000da38       ?next@RParameters@rsystem@base@UModSys@@UEAA_NPEBUSParametersData@core@4@AEAPEBD@Z 000000014000ea38 f   umodsys_lib_basesys:umodsys.basesys.rparameters.obj
 0001:0000db10       ?next@RParameters@rsystem@base@UModSys@@UEAA_NPEBUSParametersData@core@4@AEAU?$TString@U?$TSCoreConst@D@su@tl@UModSys@@U?$TComparerBinaryHash@D@234@@tl@4@@Z 000000014000eb10 f   umodsys_lib_basesys:umodsys.basesys.rparameters.obj
 0001:0000dbc4       ?add@RParameters@rsystem@base@UModSys@@UEAA_NPEAUSParametersData@core@4@PEBD1@Z 000000014000ebc4 f   umodsys_lib_basesys:umodsys.basesys.rparameters.obj
 0001:0000dc08       ?add@RParameters@rsystem@base@UModSys@@UEAA_NPEAUSParametersData@core@4@PEBDAEBU?$TString@U?$TSCoreConst@D@su@tl@UModSys@@U?$TComparerBinaryHash@D@234@@tl@4@@Z 000000014000ec08 f   umodsys_lib_basesys:umodsys.basesys.rparameters.obj
 0001:0000dc2c       ?add@RParameters@rsystem@base@UModSys@@UEAA_NPEAUSParametersData@core@4@PEBDH@Z 000000014000ec2c f   umodsys_lib_basesys:umodsys.basesys.rparameters.obj
 0001:0000dc54       ?add@RParameters@rsystem@base@UModSys@@UEAA_NPEAUSParametersData@core@4@PEBDAEBN@Z 000000014000ec54 f   umodsys_lib_basesys:umodsys.basesys.rparameters.obj
 0001:0000dc74       ?add@RParameters@rsystem@base@UModSys@@UEAA_NPEAUSParametersData@core@4@PEBDPEAUIRefObject@64@@Z 000000014000ec74 f   umodsys_lib_basesys:umodsys.basesys.rparameters.obj
 0001:0000dc9c       ?get@RParameters@rsystem@base@UModSys@@UEAA_NPEBUSParametersData@core@4@PEBDAEAPEBD@Z 000000014000ec9c f   umodsys_lib_basesys:umodsys.basesys.rparameters.obj
 0001:0000dd28       ?get@RParameters@rsystem@base@UModSys@@UEAA_NPEBUSParametersData@core@4@PEBDAEAU?$TString@U?$TSCoreConst@D@su@tl@UModSys@@U?$TComparerBinaryHash@D@234@@tl@4@@Z 000000014000ed28 f   umodsys_lib_basesys:umodsys.basesys.rparameters.obj
 0001:0000ddbc       ?get@RParameters@rsystem@base@UModSys@@UEAA_NPEBUSParametersData@core@4@PEBDAEAH@Z 000000014000edbc f   umodsys_lib_basesys:umodsys.basesys.rparameters.obj
 0001:0000de44       ?get@RParameters@rsystem@base@UModSys@@UEAA_NPEBUSParametersData@core@4@PEBDAEAN@Z 000000014000ee44 f   umodsys_lib_basesys:umodsys.basesys.rparameters.obj
 0001:0000ded0       ?get@RParameters@rsystem@base@UModSys@@UEAA_NPEBUSParametersData@core@4@PEBDAEAPEAUIRefObject@64@@Z 000000014000eed0 f   umodsys_lib_basesys:umodsys.basesys.rparameters.obj
 0001:0000df5c       ??$shash@D@su@tl@UModSys@@YA_KPEBD@Z 000000014000ef5c f i umodsys_lib_basesys:umodsys.basesys.rparameters.obj
 0001:0000e02c       ?pfd_load@RModuleLibrarySO@rsystem@base@UModSys@@SAPEAUIModuleLibraryReg@34@PEAUPFD_Data@1234@AEBU?$TString@U?$TSCoreConst@D@su@tl@UModSys@@U?$TComparerBinaryHash@D@234@@tl@4@@Z 000000014000f02c f   umodsys_lib_basesys:umodsys.basesys.rmodule.win32.obj
 0001:0000e16c       ?pfd_unload@RModuleLibrarySO@rsystem@base@UModSys@@SA_NPEAUPFD_Data@1234@@Z 000000014000f16c f   umodsys_lib_basesys:umodsys.basesys.rmodule.win32.obj
 0001:0000e4cc       ??0?$WinPath@$0BAAA@@syshlp@core@UModSys@@QEAA@PEB_W0@Z 000000014000f4cc f i umodsys_lib_basesys:umodsys.basesys.rmodule.win32.obj
 0001:0000e5b8       ??0?$U16String@$0BAAA@@syshlp@core@UModSys@@QEAA@PEBD@Z 000000014000f5b8 f i umodsys_lib_basesys:umodsys.basesys.rmodule.win32.obj
 0001:0000e630       ?root_get_interface_info@RModule@rsystem@base@UModSys@@UEBAAEBUSUniquePointerInfo@core@4@XZ 000000014000f630 f i umodsys_lib_basesys:umodsys.basesys.rmodule.obj
 0001:0000e638       ?root_get_interface_type@RModule@rsystem@base@UModSys@@UEBAPEBUSUniquePointerInfo@core@4@XZ 000000014000f638 f i umodsys_lib_basesys:umodsys.basesys.rmodule.obj
 0001:0000e640       ?root_get_other_interface@RModule@rsystem@base@UModSys@@UEBAPEBUIRoot@core@4@PEBUSUniquePointerInfo@64@@Z 000000014000f640 f i umodsys_lib_basesys:umodsys.basesys.rmodule.obj
 0001:0000e640       ?root_get_other_interface@RModule@rsystem@base@UModSys@@UEAAPEAUIRoot@core@4@PEBUSUniquePointerInfo@64@@Z 000000014000f640 f i umodsys_lib_basesys:umodsys.basesys.rmodule.obj
 0001:0000e670       ?root_is_interface_supported@RModule@rsystem@base@UModSys@@UEBA_NPEBUSUniquePointerInfo@core@4@@Z 000000014000f670 f i umodsys_lib_basesys:umodsys.basesys.rmodule.obj
 0001:0000e6a0       ?ref_add@RModule@rsystem@base@UModSys@@UEBAXXZ 000000014000f6a0 f i umodsys_lib_basesys:umodsys.basesys.rmodule.obj
 0001:0000e6a8       ?ref_remove@RModule@rsystem@base@UModSys@@UEBAXXZ 000000014000f6a8 f i umodsys_lib_basesys:umodsys.basesys.rmodule.obj
 0001:0000e6c0       ?ref_links@RModule@rsystem@base@UModSys@@UEBAHXZ 000000014000f6c0 f i umodsys_lib_basesys:umodsys.basesys.rmodule.obj
 0001:0000e6c8       ?ref_weak@RModule@rsystem@base@UModSys@@UEBA_NAEAUWeakPointer@IRefObject@core@4@@Z 000000014000f6c8 f i umodsys_lib_basesys:umodsys.basesys.rmodule.obj
 0001:0000e6ec       ?suicide@RModule@rsystem@base@UModSys@@UEAAXXZ 000000014000f6ec f i umodsys_lib_basesys:umodsys.basesys.rmodule.obj
 0001:0000e734       ?get_library@RModule@rsystem@base@UModSys@@UEBAPEAUIModuleLibrary@34@XZ 000000014000f734 f   umodsys_lib_basesys:umodsys.basesys.rmodule.obj
 0001:0000e73c       ?get_info@RModule@rsystem@base@UModSys@@UEBAAEBUSModuleInfo@34@XZ 000000014000f73c f   umodsys_lib_basesys:umodsys.basesys.rmodule.obj
 0001:0000e744       ?getdebug@RModule@rsystem@base@UModSys@@UEBAPEAUSDebug@34@XZ 000000014000f744 f   umodsys_lib_basesys:umodsys.basesys.rmodule.obj
 0001:0000e760       ?is_open@RModule@rsystem@base@UModSys@@UEBA_NXZ 000000014000f760 f   umodsys_lib_basesys:umodsys.basesys.rmodule.obj
 0001:0000e78c       ?open@RModule@rsystem@base@UModSys@@UEAA_NXZ 000000014000f78c f   umodsys_lib_basesys:umodsys.basesys.rmodule.obj
 0001:0000e804       ?close@RModule@rsystem@base@UModSys@@UEAA_NXZ 000000014000f804 f   umodsys_lib_basesys:umodsys.basesys.rmodule.obj
 0001:0000e85c       ?reg@RModule@rsystem@base@UModSys@@UEAA_NPEAUIModObject@34@_N@Z 000000014000f85c f   umodsys_lib_basesys:umodsys.basesys.rmodule.obj
 0001:0000e87c       ?reg@RModule@rsystem@base@UModSys@@UEAA_NPEAUIGenerator@34@_N@Z 000000014000f87c f   umodsys_lib_basesys:umodsys.basesys.rmodule.obj
 0001:0000e8c8       ?mod_findobjname@RModule@rsystem@base@UModSys@@UEAA_KPEBUSUniquePointerInfo@core@4@QEAPEBU564@_KPEBD@Z 000000014000f8c8 f   umodsys_lib_basesys:umodsys.basesys.rmodule.obj
 0001:0000ea1c       ?mod_generate@RModule@rsystem@base@UModSys@@UEAA_NAEAU?$TRefObject@UIRefObject@core@UModSys@@U?$TRefObjectFunc@UIRefObject@core@UModSys@@@tl@3@@tl@4@PEBUSUniquePointerInfo@core@4@AEBUSParameters@84@@Z 000000014000fa1c f   umodsys_lib_basesys:umodsys.basesys.rmodule.obj
 0001:0000eb80       ?reg_generator@RModule@rsystem@base@UModSys@@QEAA_NPEAUModuleObjInfo@1234@PEAUIGenerator@34@@Z 000000014000fb80 f   umodsys_lib_basesys:umodsys.basesys.rmodule.obj
 0001:0000ed80       ?reg_obj@RModule@rsystem@base@UModSys@@QEAAPEAUModuleObjInfo@1234@PEAUIModObject@34@@Z 000000014000fd80 f   umodsys_lib_basesys:umodsys.basesys.rmodule.obj
 0001:0000ef0c       ?unreg_obj@RModule@rsystem@base@UModSys@@QEAA_NPEAUIModObject@34@@Z 000000014000ff0c f   umodsys_lib_basesys:umodsys.basesys.rmodule.obj
 0001:0000f014       ?alloc_minfo@RModule@rsystem@base@UModSys@@QEAA_NAEBUSModuleInfo@34@@Z 0000000140010014 f   umodsys_lib_basesys:umodsys.basesys.rmodule.obj
 0001:0000f0d8       ?save_db@RModule@rsystem@base@UModSys@@QEAA_NPEAU_iobuf@@@Z 00000001400100d8 f   umodsys_lib_basesys:umodsys.basesys.rmodule.obj
 0001:0000f2cc       ??_ERModule@rsystem@base@UModSys@@UEAAPEAXI@Z 00000001400102cc f i  CIL library: CIL module
 0001:0000f2cc       ??_GRModule@rsystem@base@UModSys@@UEAAPEAXI@Z 00000001400102cc f i umodsys_lib_basesys:umodsys.basesys.rmodule.obj
 0001:0000f424       ??1?$TDynarrayDynamic@UModuleObjInfo@RModule@rsystem@base@UModSys@@U?$TAllocator@USMemAlloc_Malloc@core@UModSys@@USCountCalcPower2@23@@tl@5@@tl@UModSys@@QEAA@XZ 0000000140010424 f i umodsys_lib_basesys:umodsys.basesys.rmodule.obj
 0001:0000f474       ??1?$TDynarrayDynamic@UGeneratedObjInfo@RModule@rsystem@base@UModSys@@U?$TAllocator@USMemAlloc_Malloc@core@UModSys@@USCountCalcPower2@23@@tl@5@@tl@UModSys@@QEAA@XZ 0000000140010474 f i umodsys_lib_basesys:umodsys.basesys.rmodule.obj
 0001:0000f4c0       ??1?$TDynarrayDynamic@PEBUSUniquePointerInfo@core@UModSys@@U?$TAllocator@USMemAlloc_Malloc@core@UModSys@@USCountCalcPower2@23@@tl@3@@tl@UModSys@@QEAA@XZ 00000001400104c0 f i umodsys_lib_basesys:umodsys.basesys.rmodule.obj
 0001:0000f50c       ?ResizeRel@?$TDynarray@U?$TDynarrayHolderDynamic@UModuleObjInfo@RModule@rsystem@base@UModSys@@U?$TAllocator@USMemAlloc_Malloc@core@UModSys@@USCountCalcPower2@23@@tl@5@@tl@UModSys@@@tl@UModSys@@QEAA_N_J@Z 000000014001050c f i umodsys_lib_basesys:umodsys.basesys.rmodule.obj
 0001:0000f5f0       ?ResizeRel@?$TDynarray@U?$TDynarrayHolderDynamic@UGeneratedObjInfo@RModule@rsystem@base@UModSys@@U?$TAllocator@USMemAlloc_Malloc@core@UModSys@@USCountCalcPower2@23@@tl@5@@tl@UModSys@@@tl@UModSys@@QEAA_N_J@Z 00000001400105f0 f i umodsys_lib_basesys:umodsys.basesys.rmodule.obj
 0001:0000f6cc       ?ResizeRel@?$TDynarray@U?$TDynarrayHolderDynamic@PEBUSUniquePointerInfo@core@UModSys@@U?$TAllocator@USMemAlloc_Malloc@core@UModSys@@USCountCalcPower2@23@@tl@3@@tl@UModSys@@@tl@UModSys@@QEAA_N_J@Z 00000001400106cc f i umodsys_lib_basesys:umodsys.basesys.rmodule.obj
 0001:0000f764       ?root_get_interface_info@RModuleLibrarySO@rsystem@base@UModSys@@UEBAAEBUSUniquePointerInfo@core@4@XZ 0000000140010764 f i umodsys_lib_basesys:umodsys.basesys.rmodulelibso.obj
 0001:0000f76c       ?root_get_interface_type@RModuleLibrarySO@rsystem@base@UModSys@@UEBAPEBUSUniquePointerInfo@core@4@XZ 000000014001076c f i umodsys_lib_basesys:umodsys.basesys.rmodulelibso.obj
 0001:0000f774       ?root_get_other_interface@RModuleLibrarySO@rsystem@base@UModSys@@UEAAPEAUIRoot@core@4@PEBUSUniquePointerInfo@64@@Z 0000000140010774 f i umodsys_lib_basesys:umodsys.basesys.rmodulelibso.obj
 0001:0000f774       ?root_get_other_interface@RModuleLibrarySO@rsystem@base@UModSys@@UEBAPEBUIRoot@core@4@PEBUSUniquePointerInfo@64@@Z 0000000140010774 f i umodsys_lib_basesys:umodsys.basesys.rmodulelibso.obj
 0001:0000f7ac       ?root_is_interface_supported@RModuleLibrarySO@rsystem@base@UModSys@@UEBA_NPEBUSUniquePointerInfo@core@4@@Z 00000001400107ac f i umodsys_lib_basesys:umodsys.basesys.rmodulelibso.obj
 0001:0000f7e4       ?ref_add@RModuleLibrarySO@rsystem@base@UModSys@@UEBAXXZ 00000001400107e4 f i umodsys_lib_basesys:umodsys.basesys.rmodulelibso.obj
 0001:0000f7ec       ?ref_remove@RModuleLibrarySO@rsystem@base@UModSys@@UEBAXXZ 00000001400107ec f i umodsys_lib_basesys:umodsys.basesys.rmodulelibso.obj
 0001:0000f804       ?ref_links@RModuleLibrarySO@rsystem@base@UModSys@@UEBAHXZ 0000000140010804 f i umodsys_lib_basesys:umodsys.basesys.rmodulelibso.obj
 0001:0000f80c       ?ref_weak@RModuleLibrarySO@rsystem@base@UModSys@@UEBA_NAEAUWeakPointer@IRefObject@core@4@@Z 000000014001080c f i umodsys_lib_basesys:umodsys.basesys.rmodulelibso.obj
 0001:0000f830       ?suicide@IRoot@core@UModSys@@UEAAXXZ 0000000140010830 f i umodsys_lib_core:umodsys.core.objects.obj
 0001:0000f830       ?suicide@RParameters@rsystem@base@UModSys@@UEAAXXZ 0000000140010830 f i umodsys_lib_basesys:umodsys.basesys.rparameters.obj
 0001:0000f830       ?suicide@RModuleLibrarySO@rsystem@base@UModSys@@UEAAXXZ 0000000140010830 f i umodsys_lib_basesys:umodsys.basesys.rmodulelibso.obj
 0001:0000f830       ?suicide@RModuleLibraryThis@rsystem@base@UModSys@@UEAAXXZ 0000000140010830 f i umodsys_lib_basesys:umodsys.basesys.rmodulelibthis.obj
 0001:0000f848       ?uni_load@RModuleLibrarySO@rsystem@base@UModSys@@UEAA_NXZ 0000000140010848 f   umodsys_lib_basesys:umodsys.basesys.rmodulelibso.obj
 0001:0000f88c       ?uni_unload@RModuleLibrarySO@rsystem@base@UModSys@@UEAA_NXZ 000000014001088c f   umodsys_lib_basesys:umodsys.basesys.rmodulelibso.obj
 0001:0000f898       ?uni_open@RModuleLibrarySO@rsystem@base@UModSys@@UEAA_NXZ 0000000140010898 f   umodsys_lib_basesys:umodsys.basesys.rmodulelibso.obj
 0001:0000f8d4       ?uni_close@RModuleLibrarySO@rsystem@base@UModSys@@UEAA_NXZ 00000001400108d4 f   umodsys_lib_basesys:umodsys.basesys.rmodulelibso.obj
 0001:0000f8f0       ?s_add@RModuleLibrarySO@rsystem@base@UModSys@@SA_NPEAUISystem@34@AEAU?$TDynarrayDynamic@U?$TRefObject@URModuleLibrarySO@rsystem@base@UModSys@@U?$TRefObjectFunc@URModuleLibrarySO@rsystem@base@UModSys@@@tl@4@@tl@UModSys@@U?$TAllocator@USMemAlloc_Malloc@core@UModSys@@USCountCalcPower2@23@@23@@tl@4@PEBD@Z 00000001400108f0 f   umodsys_lib_basesys:umodsys.basesys.rmodulelibso.obj
 0001:0000fb34       ??_GRModuleLibrarySO@rsystem@base@UModSys@@UEAAPEAXI@Z 0000000140010b34 f i umodsys_lib_basesys:umodsys.basesys.rmodulelibso.obj
 0001:0000fb34       ??_ERModuleLibrarySO@rsystem@base@UModSys@@UEAAPEAXI@Z 0000000140010b34 f i  CIL library: CIL module
 0001:0000fb90       ??4?$TString@U?$TSCoreShared@USMemAlloc_Malloc@core@UModSys@@D@su@tl@UModSys@@U?$TComparerBinaryHash@D@234@@tl@UModSys@@QEAAAEBU012@PEBD@Z 0000000140010b90 f i umodsys_lib_basesys:umodsys.basesys.rmodulelibso.obj
 0001:0000fca4       ?Link@SModuleContext@base@UModSys@@QEAAXPEAUISystem@23@PEAUIMemAlloc@core@3@@Z 0000000140010ca4 f   umodsys_lib_base:umodsys.base.modulecontext.obj
 0001:0000fd18       ?put@SDebug@base@UModSys@@QEBA_NEW4eConsoleLevels@23@PEBDZZ 0000000140010d18 f   umodsys_lib_base:umodsys.base.debug.obj
 0001:0000fd54       ?mlr_count@RModuleLibraryReg_Chain@base@UModSys@@UEBA_KXZ 0000000140010d54 f   umodsys_lib_base:umodsys.base.moduleregchain.obj
 0001:0000fd8c       ?mlr_get@RModuleLibraryReg_Chain@base@UModSys@@UEBAPEAUIModuleReg@23@_K@Z 0000000140010d8c f   umodsys_lib_base:umodsys.base.moduleregchain.obj
 0001:0000fdb8       ?mlr_open@RModuleLibraryReg_Chain@base@UModSys@@UEAA_NPEAUISystem@23@PEAUIMemAlloc@core@3@@Z 0000000140010db8 f   umodsys_lib_base:umodsys.base.moduleregchain.obj
 0001:0000fde4       ?mlr_close@RModuleLibraryReg_Chain@base@UModSys@@UEAA_NXZ 0000000140010de4 f   umodsys_lib_base:umodsys.base.moduleregchain.obj
 0001:0000fe2c       ?mlr_isopen@RModuleLibraryReg_Chain@base@UModSys@@UEBA_NXZ 0000000140010e2c f   umodsys_lib_base:umodsys.base.moduleregchain.obj
 0001:0000fe3c       ??_EIModuleLibraryReg@base@UModSys@@UEAAPEAXI@Z 0000000140010e3c f i  CIL library: CIL module
 0001:0000fe3c       ??_GIModuleLibraryReg@base@UModSys@@UEAAPEAXI@Z 0000000140010e3c f i umodsys_lib_base:umodsys.base.modulereg.obj
 0001:0000fe3c       ??_GRModuleLibraryReg_Chain@base@UModSys@@UEAAPEAXI@Z 0000000140010e3c f i umodsys_lib_base:umodsys.base.moduleregchain.obj
 0001:0000fe3c       ??_ERModuleLibraryReg_Chain@base@UModSys@@UEAAPEAXI@Z 0000000140010e3c f i  CIL library: CIL module
 0001:0000fe64       UModSys_Plugin_Entry2      0000000140010e64 f   umodsys_lib_base:umodsys.so_main.win32.obj
 0001:0000fe6c       ??0IModuleReg@base@UModSys@@QEAA@PEBDGG0K_JPEAUSDebug@12@@Z 0000000140010e6c f   umodsys_lib_base:umodsys.base.modulereg.obj
 0001:0000feec       ?layer_count@RLibraryLayered@stdlib@media@modules@UModSys@@UEBA_KAEBUSLayer@ILibraryLayered@libmedia@5@@Z 0000000140010eec f   umodsys_lib_libmedia:umodsys.mod.media.stdlib.obj
 0001:0000feec       ?mr_getdebug@IModuleReg@base@UModSys@@UEBAPEAUSDebug@23@XZ 0000000140010eec f   umodsys_lib_base:umodsys.base.modulereg.obj
 0001:0000fef4       ?mr_isopen@IModuleReg@base@UModSys@@UEBA_NXZ 0000000140010ef4 f   umodsys_lib_base:umodsys.base.modulereg.obj
 0001:0000ff00       ?mr_open@IModuleReg@base@UModSys@@UEAA_NXZ 0000000140010f00 f   umodsys_lib_base:umodsys.base.modulereg.obj
 0001:0000ff68       ?mr_close@IModuleReg@base@UModSys@@UEAA_NXZ 0000000140010f68 f   umodsys_lib_base:umodsys.base.modulereg.obj
 0001:0000ffb0       ??1IModuleLoader@base@UModSys@@UEAA@XZ 0000000140010fb0 f   umodsys_lib_base:umodsys.base.moduleloader.obj
 0001:0000ffbc       ??0SUniquePointer@core@UModSys@@QEAA@PEBD0H@Z 0000000140010fbc f   umodsys_lib_core:umodsys.core.uniqueptr.obj
 0001:0001000c       ??1SUniquePointer@core@UModSys@@QEAA@XZ 000000014001100c f   umodsys_lib_core:umodsys.core.uniqueptr.obj
 0001:00010034       ?s_resolve@SUniquePointer@core@UModSys@@SAXPEAUIUniquePointerResolver@23@@Z 0000000140011034 f   umodsys_lib_core:umodsys.core.uniqueptr.obj
 0001:0001009c       ?s_unresolve@SUniquePointer@core@UModSys@@SAXPEAUIUniquePointerResolver@23@@Z 000000014001109c f   umodsys_lib_core:umodsys.core.uniqueptr.obj
 0001:000100f0       ?con_setcolor@syshlp@core@UModSys@@YAXPEAU_iobuf@@PEBE@Z 00000001400110f0 f   umodsys_lib_core:umodsys.core.syshlp_files.win32.obj
 0001:000101b0       ?u_fopen@syshlp@core@UModSys@@YAPEAU_iobuf@@PEBD0@Z 00000001400111b0 f   umodsys_lib_core:umodsys.core.syshlp_files.win32.obj
 0001:00010284       ?u_fopentemp@syshlp@core@UModSys@@YAPEAU_iobuf@@AEAPEADPEBD@Z 0000000140011284 f   umodsys_lib_core:umodsys.core.syshlp_files.win32.obj
 0001:0001034c       ?u_fendtemp@syshlp@core@UModSys@@YA_NAEAPEAU_iobuf@@AEAPEAD_N@Z 000000014001134c f   umodsys_lib_core:umodsys.core.syshlp_files.win32.obj
 0001:00010420       ??3IRoot@core@UModSys@@SAXPEAX@Z 0000000140011420 f   umodsys_lib_core:umodsys.core.objects.obj
 0001:00010448       ?utf_nocase32@su@tl@UModSys@@YAHH@Z 0000000140011448 f   umodsys_lib_core:umodsys.tl.utfcase.obj
 0001:000129e8       ?utf8_cmp_nocase_bin@su@tl@UModSys@@YAHPEBD0_K1@Z 00000001400139e8 f   umodsys_lib_core:umodsys.tl.utfcase.obj
 0001:00012ae8       ?gracial_convert@syshlp@core@UModSys@@YA_NPEADHPEB_WH@Z 0000000140013ae8 f   umodsys_lib_core:umodsys.core.syshlp_charcode.win32.obj
 0001:00012b30       ?utf_8to32@su@tl@UModSys@@YA_NAEAHAEAPEBDAEA_K@Z 0000000140013b30 f   umodsys_lib_core:umodsys.tl.utf8.obj
 0001:00012c48       _onexit                    0000000140013c48 f   MSVCRT:atonexit.obj
 0001:00012cf8       atexit                     0000000140013cf8 f   MSVCRT:atonexit.obj
 0001:00012fe0       mainCRTStartup             0000000140013fe0 f   MSVCRT:crtexe.obj
 0001:00012ff2       _purecall                  0000000140013ff2 f   MSVCRT:MSVCR90.dll
 0001:00012ff8       ??3@YAXPEAX@Z              0000000140013ff8 f   MSVCRT:MSVCR90.dll
 0001:00013000       ??_Etype_info@@UEAAPEAXI@Z 0000000140014000 f i MSVCRT:ti_inst.obj
 0001:0001306a       ??2@YAPEAX_K@Z             000000014001406a f   MSVCRT:MSVCR90.dll
 0001:00013070       __C_specific_handler       0000000140014070 f   MSVCRT:MSVCR90.dll
 0001:00013076       _unlock                    0000000140014076 f   MSVCRT:MSVCR90.dll
 0001:0001307c       __dllonexit                000000014001407c f   MSVCRT:MSVCR90.dll
 0001:00013082       _lock                      0000000140014082 f   MSVCRT:MSVCR90.dll
 0001:00013088       ?__CxxUnhandledExceptionFilter@@YAJPEAU_EXCEPTION_POINTERS@@@Z 0000000140014088 f   MSVCRT:unhandld.obj
 0001:000130cc       __CxxSetUnhandledExceptionFilter 00000001400140cc f   MSVCRT:unhandld.obj
 0001:000130e4       _amsg_exit                 00000001400140e4 f   MSVCRT:MSVCR90.dll
 0001:000130ec       _RTC_Initialize            00000001400140ec f   MSVCRT:_initsect_.obj
 0001:00013124       _RTC_Terminate             0000000140014124 f   MSVCRT:_initsect_.obj
 0001:0001315c       _XcptFilter                000000014001415c f   MSVCRT:MSVCR90.dll
 0001:00013170       _ValidateImageBase         0000000140014170 f   MSVCRT:pesect.obj
 0001:000131a0       _FindPESection             00000001400141a0 f   MSVCRT:pesect.obj
 0001:000131f0       _IsNonwritableInCurrentImage 00000001400141f0 f   MSVCRT:pesect.obj
 0001:00013232       _initterm                  0000000140014232 f   MSVCRT:MSVCR90.dll
 0001:00013238       _initterm_e                0000000140014238 f   MSVCRT:MSVCR90.dll
 0001:00013240       __security_init_cookie     0000000140014240 f   MSVCRT:gs_support.obj
 0001:000132f4       ?__ArrayUnwind@@YAXPEAX_KHP6AX0@Z@Z 00000001400142f4 f   MSVCRT:ehvecdtr.obj
 0001:00013340       ??_M@YAXPEAX_KHP6AX0@Z@Z   0000000140014340 f   MSVCRT:ehvecdtr.obj
 0001:0001339e       ?terminate@@YAXXZ          000000014001439e f   MSVCRT:MSVCR90.dll
 0001:000133a4       ??1type_info@@UEAA@XZ      00000001400143a4 f   MSVCRT:MSVCR90.dll
 0001:000133a4       ?_type_info_dtor_internal_method@type_info@@QEAAXXZ 00000001400143a4 f   MSVCRT:MSVCR90.dll
 0001:000133aa       memcpy                     00000001400143aa f   MSVCRT:MSVCR90.dll
 0001:000133b0       __CxxFrameHandler3         00000001400143b0 f   MSVCRT:MSVCR90.dll
 0001:000133b6       _CxxThrowException         00000001400143b6 f   MSVCRT:MSVCR90.dll
 0001:000133d0       __chkstk                   00000001400143d0 f   MSVCRT:chkstk.obj
 0001:000133d0       _alloca_probe              00000001400143d0     MSVCRT:chkstk.obj
 0002:00000000       __imp_GetCurrentProcessId  0000000140017000     kernel32:KERNEL32.dll
 0002:00000008       __imp_GetCurrentThreadId   0000000140017008     kernel32:KERNEL32.dll
 0002:00000010       __imp_GetTickCount         0000000140017010     kernel32:KERNEL32.dll
 0002:00000018       __imp_QueryPerformanceCounter 0000000140017018     kernel32:KERNEL32.dll
 0002:00000020       __imp_SetUnhandledExceptionFilter 0000000140017020     kernel32:KERNEL32.dll
 0002:00000028       __imp_Sleep                0000000140017028     kernel32:KERNEL32.dll
 0002:00000030       __imp_MultiByteToWideChar  0000000140017030     kernel32:KERNEL32.dll
 0002:00000038       __imp_WideCharToMultiByte  0000000140017038     kernel32:KERNEL32.dll
 0002:00000040       __imp_SetConsoleOutputCP   0000000140017040     kernel32:KERNEL32.dll
 0002:00000048       __imp_GetLastError         0000000140017048     kernel32:KERNEL32.dll
 0002:00000050       __imp_GetConsoleOutputCP   0000000140017050     kernel32:KERNEL32.dll
 0002:00000058       __imp_SetConsoleTextAttribute 0000000140017058     kernel32:KERNEL32.dll
 0002:00000060       __imp_FindNextFileW        0000000140017060     kernel32:KERNEL32.dll
 0002:00000068       __imp_FindClose            0000000140017068     kernel32:KERNEL32.dll
 0002:00000070       __imp_GetProcAddress       0000000140017070     kernel32:KERNEL32.dll
 0002:00000078       __imp_GetModuleFileNameW   0000000140017078     kernel32:KERNEL32.dll
 0002:00000080       __imp_GetModuleHandleW     0000000140017080     kernel32:KERNEL32.dll
 0002:00000088       __imp_LoadLibraryExW       0000000140017088     kernel32:KERNEL32.dll
 0002:00000090       __imp_FreeLibrary          0000000140017090     kernel32:KERNEL32.dll
 0002:00000098       __imp_SetErrorMode         0000000140017098     kernel32:KERNEL32.dll
 0002:000000a0       __imp_FindFirstFileW       00000001400170a0     kernel32:KERNEL32.dll
 0002:000000a8       __imp_GetFullPathNameW     00000001400170a8     kernel32:KERNEL32.dll
 0002:000000b0       __imp_GetSystemTimeAsFileTime 00000001400170b0     kernel32:KERNEL32.dll
 0002:000000b8       \177KERNEL32_NULL_THUNK_DATA 00000001400170b8     kernel32:KERNEL32.dll
 0002:000000c0       __imp__vsnprintf           00000001400170c0     MSVCRT:MSVCR90.dll
 0002:000000c8       __imp___C_specific_handler 00000001400170c8     MSVCRT:MSVCR90.dll
 0002:000000d0       __imp__unlock              00000001400170d0     MSVCRT:MSVCR90.dll
 0002:000000d8       __imp___dllonexit          00000001400170d8     MSVCRT:MSVCR90.dll
 0002:000000e0       __imp__encode_pointer      00000001400170e0     MSVCRT:MSVCR90.dll
 0002:000000e8       __imp__lock                00000001400170e8     MSVCRT:MSVCR90.dll
 0002:000000f0       __imp__onexit              00000001400170f0     MSVCRT:MSVCR90.dll
 0002:000000f8       __imp__decode_pointer      00000001400170f8     MSVCRT:MSVCR90.dll
 0002:00000100       __imp__amsg_exit           0000000140017100     MSVCRT:MSVCR90.dll
 0002:00000108       __imp___getmainargs        0000000140017108     MSVCRT:MSVCR90.dll
 0002:00000110       __imp__XcptFilter          0000000140017110     MSVCRT:MSVCR90.dll
 0002:00000118       __imp__get_osfhandle       0000000140017118     MSVCRT:MSVCR90.dll
 0002:00000120       __imp__cexit               0000000140017120     MSVCRT:MSVCR90.dll
 0002:00000128       __imp_exit                 0000000140017128     MSVCRT:MSVCR90.dll
 0002:00000130       __imp___initenv            0000000140017130     MSVCRT:MSVCR90.dll
 0002:00000138       __imp__initterm            0000000140017138     MSVCRT:MSVCR90.dll
 0002:00000140       __imp__initterm_e          0000000140017140     MSVCRT:MSVCR90.dll
 0002:00000148       __imp__configthreadlocale  0000000140017148     MSVCRT:MSVCR90.dll
 0002:00000150       __imp___setusermatherr     0000000140017150     MSVCRT:MSVCR90.dll
 0002:00000158       __imp__commode             0000000140017158     MSVCRT:MSVCR90.dll
 0002:00000160       __imp__fmode               0000000140017160     MSVCRT:MSVCR90.dll
 0002:00000168       __imp___set_app_type       0000000140017168     MSVCRT:MSVCR90.dll
 0002:00000170       __imp_?terminate@@YAXXZ    0000000140017170     MSVCRT:MSVCR90.dll
 0002:00000178       __imp_?_type_info_dtor_internal_method@type_info@@QEAAXXZ 0000000140017178     MSVCRT:MSVCR90.dll
 0002:00000180       __imp__fileno              0000000140017180     MSVCRT:MSVCR90.dll
 0002:00000188       __imp__chsize              0000000140017188     MSVCRT:MSVCR90.dll
 0002:00000190       __imp_remove               0000000140017190     MSVCRT:MSVCR90.dll
 0002:00000198       __imp__wfopen              0000000140017198     MSVCRT:MSVCR90.dll
 0002:000001a0       __imp_rename               00000001400171a0     MSVCRT:MSVCR90.dll
 0002:000001a8       __imp_realloc              00000001400171a8     MSVCRT:MSVCR90.dll
 0002:000001b0       __imp_fprintf              00000001400171b0     MSVCRT:MSVCR90.dll
 0002:000001b8       __imp_strncpy              00000001400171b8     MSVCRT:MSVCR90.dll
 0002:000001c0       __imp__snprintf            00000001400171c0     MSVCRT:MSVCR90.dll
 0002:000001c8       __imp_malloc               00000001400171c8     MSVCRT:MSVCR90.dll
 0002:000001d0       __imp_free                 00000001400171d0     MSVCRT:MSVCR90.dll
 0002:000001d8       __imp_vfprintf             00000001400171d8     MSVCRT:MSVCR90.dll
 0002:000001e0       __imp___iob_func           00000001400171e0     MSVCRT:MSVCR90.dll
 0002:000001e8       __imp_strstr               00000001400171e8     MSVCRT:MSVCR90.dll
 0002:000001f0       __imp_??2@YAPEAX_K@Z       00000001400171f0     MSVCRT:MSVCR90.dll
 0002:000001f8       __imp_strncmp              00000001400171f8     MSVCRT:MSVCR90.dll
 0002:00000200       __imp_fclose               0000000140017200     MSVCRT:MSVCR90.dll
 0002:00000208       __imp_fseek                0000000140017208     MSVCRT:MSVCR90.dll
 0002:00000210       __imp_ftell                0000000140017210     MSVCRT:MSVCR90.dll
 0002:00000218       __imp_fwrite               0000000140017218     MSVCRT:MSVCR90.dll
 0002:00000220       __imp_??3@YAXPEAX@Z        0000000140017220     MSVCRT:MSVCR90.dll
 0002:00000228       __imp__purecall            0000000140017228     MSVCRT:MSVCR90.dll
 0002:00000230       __imp_fread                0000000140017230     MSVCRT:MSVCR90.dll
 0002:00000238       __imp__exit                0000000140017238     MSVCRT:MSVCR90.dll
 0002:00000240       __imp_fflush               0000000140017240     MSVCRT:MSVCR90.dll
 0002:00000248       __imp_memcpy               0000000140017248     MSVCRT:MSVCR90.dll
 0002:00000250       __imp___CxxFrameHandler3   0000000140017250     MSVCRT:MSVCR90.dll
 0002:00000258       __imp__CxxThrowException   0000000140017258     MSVCRT:MSVCR90.dll
 0002:00000260       \177MSVCR90_NULL_THUNK_DATA 0000000140017260     MSVCRT:MSVCR90.dll
 0002:00000268       __xc_a                     0000000140017268     MSVCRT:cinitexe.obj
 0002:00000968       __xc_z                     0000000140017968     MSVCRT:cinitexe.obj
 0002:00000970       __xi_a                     0000000140017970     MSVCRT:cinitexe.obj
 0002:00000988       __xi_z                     0000000140017988     MSVCRT:cinitexe.obj
 0002:00000998       ??_7type_info@@6B@         0000000140017998     MSVCRT:ti_inst.obj
 0002:000009a0       ??_C@_0P@GHFPNOJB@bad?5allocation?$AA@ 00000001400179a0     umodsys.c_main.obj
 0002:000009b0       ??_C@_0BF@OCNNAADO@UModSys?3?3core?3?3IRoot?$AA@ 00000001400179b0     umodsys.c_main.obj
 0002:000009c8       ??_C@_0BK@EMIJFOPA@UModSys?3?3core?3?3IRefObject?$AA@ 00000001400179c8     umodsys.c_main.obj
 0002:000009e8       ??_C@_0BL@IOMMHELF@UModSys?3?3core?3?3IParameters?$AA@ 00000001400179e8     umodsys.c_main.obj
 0002:00000a08       ??_C@_0BI@IKAOEFAP@UModSys?3?3base?3?3IConsole?$AA@ 0000000140017a08     umodsys.c_main.obj
 0002:00000a20       ??_C@_0BH@LKDEEPPM@UModSys?3?3base?3?3IModule?$AA@ 0000000140017a20     umodsys.c_main.obj
 0002:00000a38       ??_C@_0BO@PHJOHFCB@UModSys?3?3base?3?3IModuleLibrary?$AA@ 0000000140017a38     umodsys.c_main.obj
 0002:00000a58       ??_C@_0BK@FDPIOPHG@UModSys?3?3base?3?3IModObject?$AA@ 0000000140017a58     umodsys.c_main.obj
 0002:00000a78       ??_C@_0BK@OIBKNCKJ@UModSys?3?3base?3?3IGenerator?$AA@ 0000000140017a78     umodsys.c_main.obj
 0002:00000a98       ??_C@_0BG@PJBGCMEC@UModSys?3?3base?3?3IShell?$AA@ 0000000140017a98     umodsys.c_main.obj
 0002:00000ab0       ??_C@_0BH@PFCONEJJ@UModSys?3?3base?3?3ISystem?$AA@ 0000000140017ab0     umodsys.c_main.obj
 0002:00000ac8       ??_C@_0CA@MDFMKLLN@UModSys?3?3base?3?3rsystem?3?3RModule?$AA@ 0000000140017ac8     umodsys.c_main.obj
 0002:00000ae8       ??_C@_0CK@MJPNGLHN@UModSys?3?3base?3?3rsystem?3?3IModuleL@ 0000000140017ae8     umodsys.c_main.obj
 0002:00000b18       ??_C@_0CJ@OPOMMGLJ@UModSys?3?3base?3?3rsystem?3?3RModuleL@ 0000000140017b18     umodsys.c_main.obj
 0002:00000b48       ??_C@_0CL@ILNBAMJF@UModSys?3?3base?3?3rsystem?3?3RModuleL@ 0000000140017b48     umodsys.c_main.obj
 0002:00000b78       ??_C@_0CE@IHGMMEEA@UModSys?3?3base?3?3rsystem?3?3RParamet@ 0000000140017b78     umodsys.c_main.obj
 0002:00000ba0       ??_C@_0CA@IMEGDANI@UModSys?3?3base?3?3rsystem?3?3RSystem?$AA@ 0000000140017ba0     umodsys.c_main.obj
 0002:00000bc0       ??_C@_0CF@KIMLNODL@UModSys?3?3base?3?3rsystem?3?3RConsole@ 0000000140017bc0     umodsys.c_main.obj
 0002:00000be8       ??_C@_0M@DCEPEPFJ@umodsys?4log?$AA@ 0000000140017be8     umodsys.c_main.obj
 0002:00000bf4       ??_C@_00CNPNBAHC@?$AA@     0000000140017bf4     umodsys.c_main.obj
 0002:00000bf8       ??_C@_01NBENCBCI@?$CK?$AA@ 0000000140017bf8     umodsys.c_main.obj
 0002:00000c00       ??_C@_0BC@JABDEAFI@moduledb?4conf?9hdb?$AA@ 0000000140017c00     umodsys.c_main.obj
 0002:00000c18       ??_C@_08FCBDOIAH@typeinfo?$AA@ 0000000140017c18     umodsys.c_main.obj
 0002:00000c28       ??_C@_0CB@CLGNFEGF@UModSys?3?3libmedia?3?3IStreamReader@ 0000000140017c28     umodsys_lib_libmedia:umodsys.mod.media.stdio.obj
 0002:00000c50       ??_C@_0CB@HOPFFLP@UModSys?3?3libmedia?3?3IStreamWriter@ 0000000140017c50     umodsys_lib_libmedia:umodsys.mod.media.stdio.obj
 0002:00000c78       ??_C@_0BO@INLIIEII@UModSys?3?3libmedia?3?3IUtilities?$AA@ 0000000140017c78     umodsys_lib_libmedia:umodsys.mod.media.stdio.obj
 0002:00000c98       ??_C@_0BO@BMLODIDG@UModSys?3?3libmedia?3?3ILibObject?$AA@ 0000000140017c98     umodsys_lib_libmedia:umodsys.mod.media.stdio.obj
 0002:00000cb8       ??_C@_0BP@KCJMEDNO@UModSys?3?3libmedia?3?3IBinArchive?$AA@ 0000000140017cb8     umodsys_lib_libmedia:umodsys.mod.media.stdio.obj
 0002:00000cd8       ??_C@_0CB@FDEKNMGJ@UModSys?3?3libmedia?3?3IBinObjFilter@ 0000000140017cd8     umodsys_lib_libmedia:umodsys.mod.media.stdio.obj
 0002:00000d00       ??_C@_0BM@DPCMOAPM@UModSys?3?3libmedia?3?3ILibrary?$AA@ 0000000140017d00     umodsys_lib_libmedia:umodsys.mod.media.stdio.obj
 0002:00000d20       ??_C@_0DD@HMDIDEEB@UModSys?3?3modules?3?3media?3?3stdio?3?3@ 0000000140017d20     umodsys_lib_libmedia:umodsys.mod.media.stdio.obj
 0002:00000d58       ??_C@_08BABJIOEM@filename?$AA@ 0000000140017d58     umodsys_lib_libmedia:umodsys.mod.media.stdio.obj
 0002:00000d64       ??_C@_02JDPG@rb?$AA@       0000000140017d64     umodsys_lib_libmedia:umodsys.mod.media.stdio.obj
 0002:00000d68       ??_C@_0DD@NMEBJAJM@UModSys?3?3modules?3?3media?3?3stdio?3?3@ 0000000140017d68     umodsys_lib_libmedia:umodsys.mod.media.stdio.obj
 0002:00000d9c       ??_C@_04FAOFCKOL@safe?$AA@ 0000000140017d9c     umodsys_lib_libmedia:umodsys.mod.media.stdio.obj
 0002:00000da4       ??_C@_02GMLFBBN@wb?$AA@    0000000140017da4     umodsys_lib_libmedia:umodsys.mod.media.stdio.obj
 0002:00000da8       ??_C@_0DE@KBMIHBCD@UModSys?3?3modules?3?3media?3?3stdio?3?3@ 0000000140017da8     umodsys_lib_libmedia:umodsys.mod.media.stdio.obj
 0002:00000ddc       ??_C@_01LFCBOECM@?4?$AA@   0000000140017ddc     umodsys_lib_libmedia:umodsys.mod.media.stdio.obj
 0002:00000de0       ??_C@_04LNEJFJGI@path?$AA@ 0000000140017de0     umodsys_lib_libmedia:umodsys.mod.media.stdio.obj
 0002:00000de8       ??_C@_08PEIJGPHF@pathname?$AA@ 0000000140017de8     umodsys_lib_libmedia:umodsys.mod.media.stdio.obj
 0002:00000df8       ??_C@_0M@PANNIBHH@permissions?$AA@ 0000000140017df8     umodsys_lib_libmedia:umodsys.mod.media.stdio.obj
 0002:00000e08       ??_C@_0P@DDBOOPIK@?$HL?$HLos?5load?5?$CFs?$HN?$HN?$AA@ 0000000140017e08     umodsys_lib_libmedia:umodsys.mod.media.stdio.obj
 0002:00000e18       ??_C@_0CL@IOBDHHMI@UModSys?3?3modules?3?3media?3?3stdio?3?3@ 0000000140017e18     umodsys_lib_libmedia:umodsys.mod.media.stdio.obj
 0002:00000e48       ??_C@_0BJ@NOFIIAEK@U_MOD?3?3RGenerator?3unique?$AA@ 0000000140017e48     umodsys_lib_libmedia:umodsys.mod.media.stdio.obj
 0002:00000e68       ??_C@_0N@HJPCMPI@media?3?3stdio?$AA@ 0000000140017e68     umodsys_lib_libmedia:umodsys.mod.media.stdio.obj
 0002:00000e78       ??_C@_09JGNMLHG@modobject?$AA@ 0000000140017e78     umodsys_lib_libmedia:umodsys.mod.media.stdio.obj
 0002:00000e98       ??_7IRoot@core@UModSys@@6B@ 0000000140017e98     umodsys_lib_libmedia:umodsys.mod.media.stdio.obj
 0002:00000ee0       ??_7ISetter@SFlags@libmedia@UModSys@@6B@ 0000000140017ee0     umodsys_lib_libmedia:umodsys.mod.media.stdio.obj
 0002:00000f08       ??_7RGenerator@stdio@media@modules@UModSys@@6B@ 0000000140017f08     umodsys_lib_libmedia:umodsys.mod.media.stdio.obj
 0002:00000fa8       ??_7RStreamReader_FILE@stdio@media@modules@UModSys@@6B@ 0000000140017fa8     umodsys_lib_libmedia:umodsys.mod.media.stdio.obj
 0002:00001048       ??_7RStreamWriter_FILE@stdio@media@modules@UModSys@@6B@ 0000000140018048     umodsys_lib_libmedia:umodsys.mod.media.stdio.obj
 0002:00001108       ??_7RDataArchiver_OsDir@stdio@media@modules@UModSys@@6BIRefObject@core@4@@ 0000000140018108     umodsys_lib_libmedia:umodsys.mod.media.stdio.obj
 0002:000011a8       ??_7RDataArchiver_OsDir@stdio@media@modules@UModSys@@6BISetter@SFlags@libmedia@4@@ 00000001400181a8     umodsys_lib_libmedia:umodsys.mod.media.stdio.obj
 0002:000011c8       ??_7RModuleReg@stdio@media@modules@UModSys@@6B@ 00000001400181c8     umodsys_lib_libmedia:umodsys.mod.media.stdio.obj
 0002:00001200       ??_C@_0CD@ELIFEGE@UModSys?3?3libmedia?3?3ILibraryBinTr@ 0000000140018200     umodsys_lib_libmedia:umodsys.mod.media.stdlib.obj
 0002:00001228       ??_C@_0CE@EGHBJBAJ@UModSys?3?3libmedia?3?3ILibraryBinCa@ 0000000140018228     umodsys_lib_libmedia:umodsys.mod.media.stdlib.obj
 0002:00001250       ??_C@_0CF@LBIGBLOK@UModSys?3?3libmedia?3?3ILibraryObjFi@ 0000000140018250     umodsys_lib_libmedia:umodsys.mod.media.stdlib.obj
 0002:00001278       ??_C@_0CE@BOBLEOBL@UModSys?3?3libmedia?3?3ILibraryObjCa@ 0000000140018278     umodsys_lib_libmedia:umodsys.mod.media.stdlib.obj
 0002:000012a0       ??_C@_0CD@LJFEJKGF@UModSys?3?3libmedia?3?3ILibraryLayer@ 00000001400182a0     umodsys_lib_libmedia:umodsys.mod.media.stdlib.obj
 0002:000012c8       ??_C@_0CE@FGFAKEDN@UModSys?3?3libmedia?3?3IBinArchiveFr@ 00000001400182c8     umodsys_lib_libmedia:umodsys.mod.media.stdlib.obj
 0002:000012f0       ??_C@_0CN@GBHCKFMF@UModSys?3?3libmedia?3?3IBinArchiveFr@ 00000001400182f0     umodsys_lib_libmedia:umodsys.mod.media.stdlib.obj
 0002:00001320       ??_C@_0CM@MNCPANLP@UModSys?3?3modules?3?3media?3?3stdlib?3@ 0000000140018320     umodsys_lib_libmedia:umodsys.mod.media.stdlib.obj
 0002:00001350       ??_C@_0DC@KDNEBFBG@UModSys?3?3modules?3?3media?3?3stdlib?3@ 0000000140018350     umodsys_lib_libmedia:umodsys.mod.media.stdlib.obj
 0002:00001388       ??_C@_0DB@IPMNCIDD@UModSys?3?3modules?3?3media?3?3stdlib?3@ 0000000140018388     umodsys_lib_libmedia:umodsys.mod.media.stdlib.obj
 0002:000013c0       ??_C@_0DC@LDPFCACC@UModSys?3?3modules?3?3media?3?3stdlib?3@ 00000001400183c0     umodsys_lib_libmedia:umodsys.mod.media.stdlib.obj
 0002:000013f8       ??_C@_0DB@DCCBOGDC@UModSys?3?3modules?3?3media?3?3stdlib?3@ 00000001400183f8     umodsys_lib_libmedia:umodsys.mod.media.stdlib.obj
 0002:00001430       ??_C@_0DC@OLJPPPDA@UModSys?3?3modules?3?3media?3?3stdlib?3@ 0000000140018430     umodsys_lib_libmedia:umodsys.mod.media.stdlib.obj
 0002:00001468       ??_C@_0DD@BNMPGGBL@UModSys?3?3modules?3?3media?3?3stdlib?3@ 0000000140018468     umodsys_lib_libmedia:umodsys.mod.media.stdlib.obj
 0002:000014a0       ??_C@_0CM@LNHMJHON@UModSys?3?3modules?3?3media?3?3stdlib?3@ 00000001400184a0     umodsys_lib_libmedia:umodsys.mod.media.stdlib.obj
 0002:000014cc       ??_C@_06DGDLPBAN@client?$AA@ 00000001400184cc     umodsys_lib_libmedia:umodsys.mod.media.stdlib.obj
 0002:000014d8       ??_C@_07OPILGPEN@library?$AA@ 00000001400184d8     umodsys_lib_libmedia:umodsys.mod.media.stdlib.obj
 0002:000014e0       ??_C@_05NGFEDHGN@write?$AA@ 00000001400184e0     umodsys_lib_libmedia:umodsys.mod.media.stdlib.obj
 0002:000014e8       ??_C@_0L@LOIPJDMA@media?3?3std?$AA@ 00000001400184e8     umodsys_lib_libmedia:umodsys.mod.media.stdlib.obj
 0002:00001500       ??_7RResolverChain@SFlagsChain@libmedia@UModSys@@6B@ 0000000140018500     umodsys_lib_libmedia:umodsys.mod.media.stdlib.obj
 0002:00001518       ??_7RGenerator@stdlib@media@modules@UModSys@@6B@ 0000000140018518     umodsys_lib_libmedia:umodsys.mod.media.stdlib.obj
 0002:000015b8       ??_7RUtilities@stdlib@media@modules@UModSys@@6B@ 00000001400185b8     umodsys_lib_libmedia:umodsys.mod.media.stdlib.obj
 0002:00001658       ??_7RBinArchiveFrame@stdlib@media@modules@UModSys@@6BIRefObject@core@4@@ 0000000140018658     umodsys_lib_libmedia:umodsys.mod.media.stdlib.obj
 0002:00001730       ??_7RBinArchiveFrame@stdlib@media@modules@UModSys@@6BISetter@SFlags@libmedia@4@@ 0000000140018730     umodsys_lib_libmedia:umodsys.mod.media.stdlib.obj
 0002:00001758       ??_7RLibraryBinTree@stdlib@media@modules@UModSys@@6BIRefObject@core@4@@ 0000000140018758     umodsys_lib_libmedia:umodsys.mod.media.stdlib.obj
 0002:00001860       ??_7RLibraryBinTree@stdlib@media@modules@UModSys@@6BISetter@SFlags@libmedia@4@@ 0000000140018860     umodsys_lib_libmedia:umodsys.mod.media.stdlib.obj
 0002:00001888       ??_7RLibraryBinCache@stdlib@media@modules@UModSys@@6BIRefObject@core@4@@ 0000000140018888     umodsys_lib_libmedia:umodsys.mod.media.stdlib.obj
 0002:00001998       ??_7RLibraryBinCache@stdlib@media@modules@UModSys@@6BISetter@SFlags@libmedia@4@@ 0000000140018998     umodsys_lib_libmedia:umodsys.mod.media.stdlib.obj
 0002:000019b8       ??_7RLibraryLayered@stdlib@media@modules@UModSys@@6BIRefObject@core@4@@ 00000001400189b8     umodsys_lib_libmedia:umodsys.mod.media.stdlib.obj
 0002:00001ad0       ??_7RLibraryLayered@stdlib@media@modules@UModSys@@6BISetter@SFlags@libmedia@4@@ 0000000140018ad0     umodsys_lib_libmedia:umodsys.mod.media.stdlib.obj
 0002:00001af8       ??_7RLibraryObjCache@stdlib@media@modules@UModSys@@6BIRefObject@core@4@@ 0000000140018af8     umodsys_lib_libmedia:umodsys.mod.media.stdlib.obj
 0002:00001c00       ??_7RLibraryObjCache@stdlib@media@modules@UModSys@@6BISetter@SFlags@libmedia@4@@ 0000000140018c00     umodsys_lib_libmedia:umodsys.mod.media.stdlib.obj
 0002:00001c28       ??_7RLibraryObjFilter@stdlib@media@modules@UModSys@@6BIRefObject@core@4@@ 0000000140018c28     umodsys_lib_libmedia:umodsys.mod.media.stdlib.obj
 0002:00001d40       ??_7RLibraryObjFilter@stdlib@media@modules@UModSys@@6BISetter@SFlags@libmedia@4@@ 0000000140018d40     umodsys_lib_libmedia:umodsys.mod.media.stdlib.obj
 0002:00001d68       ??_7RModuleReg@stdlib@media@modules@UModSys@@6B@ 0000000140018d68     umodsys_lib_libmedia:umodsys.mod.media.stdlib.obj
 0002:00001da0       ??_C@_04HDOCAJNK@?$CFs?$CFs?$AA@ 0000000140018da0     umodsys_lib_libmedia:umodsys.lib.media.common.obj
 0002:00001da8       ??_C@_02CBLDBPFN@?1?1?$AA@ 0000000140018da8     umodsys_lib_libmedia:umodsys.lib.media.common.obj
 0002:00001dac       ??_C@_02BKFDOEMK@wt?$AA@   0000000140018dac     umodsys_lib_basesys:umodsys.basesys.rconsole_std.obj
 0002:00001db8       ??_7RConsole_std@rsystem@base@UModSys@@6B@ 0000000140018db8     umodsys_lib_basesys:umodsys.basesys.rconsole_std.obj
 0002:00001e48       ??_C@_04HIBGFPH@NULL?$AA@  0000000140018e48     umodsys_lib_basesys:umodsys.basesys.rsystem_main.obj
 0002:00001e50       ??_C@_0L@FPKIMPHA@?$CD?$CF08x?5?$CC?$CFs?$CC?$AA@ 0000000140018e50     umodsys_lib_basesys:umodsys.basesys.rsystem_main.obj
 0002:00001e60       ??_C@_0BC@HBJCAHHB@EFatal?5?$CD?$CF08x?5?$CC?$CFs?$CC?$AA@ 0000000140018e60     umodsys_lib_basesys:umodsys.basesys.rsystem_main.obj
 0002:00001e78       ??_C@_0BE@IIJFBNID@EWarning?5?$CD?$CF08x?5?$CC?$CFs?$CC?$AA@ 0000000140018e78     umodsys_lib_basesys:umodsys.basesys.rsystem_main.obj
 0002:00001e90       ??_C@_0BB@KFMJENMO@RSystem?3?3init?$CI?$CJ?6?$AA@ 0000000140018e90     umodsys_lib_basesys:umodsys.basesys.rsystem_main.obj
 0002:00001ea8       ??_C@_0BI@FKDCNCM@RSystem?3?3exec_args?$CI?$CFd?$CJ?6?$AA@ 0000000140018ea8     umodsys_lib_basesys:umodsys.basesys.rsystem_main.obj
 0002:00001ec0       ??_C@_0BG@NFAKDFBG@RSystem?3?3exec_main?$CI?$CJ?6?$AA@ 0000000140018ec0     umodsys_lib_basesys:umodsys.basesys.rsystem_main.obj
 0002:00001ed8       ??_C@_0BD@CKNOJECK@RSystem?3?3deinit?$CI?$CJ?6?$AA@ 0000000140018ed8     umodsys_lib_basesys:umodsys.basesys.rsystem_main.obj
 0002:00001ef8       ??_7EExceptionBase@core@UModSys@@6B@ 0000000140018ef8     umodsys_lib_basesys:umodsys.basesys.rsystem_main.obj
 0002:00001f10       ??_7EFatal@core@UModSys@@6B@ 0000000140018f10     umodsys_lib_basesys:umodsys.basesys.rsystem_main.obj
 0002:00001f28       ??_7EWarning@core@UModSys@@6B@ 0000000140018f28     umodsys_lib_basesys:umodsys.basesys.rsystem_main.obj
 0002:00001f40       ??_7?$TRMemAlloc_CC@U?$TMemAllocHeader@USMagic@mem_headers@rsystem@base@UModSys@@U?$TPool@X@2345@USDebug@2345@UVoid@core@5@U895@@rsystem@base@UModSys@@USMemAlloc_Malloc@core@4@@rsystem@base@UModSys@@6B@ 0000000140018f40     umodsys_lib_basesys:umodsys.basesys.rsystem_main.obj
 0002:00001f68       ??_7RSystem@rsystem@base@UModSys@@6BISystem@23@@ 0000000140018f68     umodsys_lib_basesys:umodsys.basesys.rsystem_main.obj
 0002:00001ff0       ??_7RSystem@rsystem@base@UModSys@@6BIUniquePointerResolver@core@3@@ 0000000140018ff0     umodsys_lib_basesys:umodsys.basesys.rsystem_main.obj
 0002:00002008       ??_7RSystem@rsystem@base@UModSys@@6BISourceContextAdapter@core@3@@ 0000000140019008     umodsys_lib_basesys:umodsys.basesys.rsystem_main.obj
 0002:00002010       ??_C@_0BC@NNHIIPO@shells?5found?3?5?$CFd?6?$AA@ 0000000140019010     umodsys_lib_basesys:umodsys.basesys.rsystem_tests.obj
 0002:00002028       ??_C@_0BA@EBBPOIJG@?5?5shell?3?5?$CFp?5?$CFs?6?$AA@ 0000000140019028     umodsys_lib_basesys:umodsys.basesys.rsystem_tests.obj
 0002:00002038       ??_C@_0BF@JPMHOAKE@?5?5?5?5shell?5gen?5error?6?$AA@ 0000000140019038     umodsys_lib_basesys:umodsys.basesys.rsystem_tests.obj
 0002:00002050       ??_C@_0BL@NANLGMEE@?5?5?5?5shell?5generated?5as?5?$CFp?6?$AA@ 0000000140019050     umodsys_lib_basesys:umodsys.basesys.rsystem_tests.obj
 0002:00002070       ??_C@_0BD@NFNPGOAG@?1shells?5found?3?5?$CFd?6?$AA@ 0000000140019070     umodsys_lib_basesys:umodsys.basesys.rsystem_tests.obj
 0002:00002088       ??_C@_0CJ@BMAKALAG@?$CK?$CK?$CK?$CK?$CK?$CK?$CK?$CK?$CK?$CK?$CK?$CK?$CK?$CK?$CK?$CK?$CK?$CK?$CK?$CK?$CK?$CK?$CK?$CK?$CK?$CK?$CK?$CK?$CK?$CK?$CK?5@ 0000000140019088     umodsys_lib_basesys:umodsys.basesys.rsystem_tests.obj
 0002:000020c0       ??_C@_0IM@GKLDAEGO@sizeof?$CIDRMemAlloc?$CJ?$DN?$CFu?5sizeof?$CIDRM@ 00000001400190c0     umodsys_lib_basesys:umodsys.basesys.rsystem_tests.obj
 0002:00002150       ??_C@_0CJ@HFHNFOAC@?$CK?$CK?$CK?$CK?$CK?$CK?$CK?$CK?$CK?$CK?$CK?$CK?$CK?$CK?$CK?$CK?$CK?$CK?$CK?$CK?$CK?$CK?$CK?$CK?$CK?$CK?$CK?$CK?$CK?$CK?$CK?5@ 0000000140019150     umodsys_lib_basesys:umodsys.basesys.rsystem_tests.obj
 0002:00002180       ??_C@_0DG@DMGFJEPO@RModuleLoader?3?3moduledb_cleanup?$CI@ 0000000140019180     umodsys_lib_basesys:umodsys.basesys.rmoduleloader.obj
 0002:000021b8       ??_C@_0BN@BDEAMLC@?$CD?5LIST?5OF?5LIBRARY?5MODULES?3?6?6?$AA@ 00000001400191b8     umodsys_lib_basesys:umodsys.basesys.rmoduleloader.obj
 0002:000021d8       ??_C@_0BF@PLOHEFDA@?5?$HL?5mod_list?$DN?$CFd?3?$FL?$FN?5?$HN?6?$AA@ 00000001400191d8     umodsys_lib_basesys:umodsys.basesys.rmoduleloader.obj
 0002:000021f8       ??_7IModuleLoader@base@UModSys@@6B@ 00000001400191f8     umodsys_lib_basesys:umodsys.basesys.rmoduleloader.obj
 0002:00002278       ??_7RModuleLoader@rsystem@base@UModSys@@6B@ 0000000140019278     umodsys_lib_basesys:umodsys.basesys.rmoduleloader.obj
 0002:000022f8       ??_7RModuleLibraryThis@rsystem@base@UModSys@@6B@ 00000001400192f8     umodsys_lib_basesys:umodsys.basesys.rmodulelibthis.obj
 0002:000023d0       ??_C@_0CN@ONDMHEFN@IModuleLibraryUni?$CI?$CFp?$CJ?3?3link?$CI?$CJ?5?9?9@ 00000001400193d0     umodsys_lib_basesys:umodsys.basesys.rmodulelib.obj
 0002:00002400       ??_C@_0BA@LBGMEMKJ@LIBRARY?5?$CC?$CFs?$CC?5?$HL?6?$AA@ 0000000140019400     umodsys_lib_basesys:umodsys.basesys.rmodulelib.obj
 0002:00002410       ??_C@_0BH@CLNAAMEM@?$HN?5?$CD?5END?5LIBRARY?5?$CC?$CFs?$CC?6?6?$AA@ 0000000140019410     umodsys_lib_basesys:umodsys.basesys.rmodulelib.obj
 0002:00002428       ??_C@_0BI@OEALOBHC@NULL?5detected?5after?5?$CFp?6?$AA@ 0000000140019428     umodsys_lib_basesys:umodsys.basesys.rmodulelib.obj
 0002:00002440       ??_C@_0CH@LDLHHCGC@leak?5detected?5?$CFp?5size?5?$CFu?5at?5?$CFs?$CI?$CF@ 0000000140019440     umodsys_lib_basesys:umodsys.basesys.rmodulelib.obj
 0002:00002468       ??_C@_0BK@NDLOCOMD@leak?5detected?5?$CFp?5size?5?$CFu?6?$AA@ 0000000140019468     umodsys_lib_basesys:umodsys.basesys.rmodulelib.obj
 0002:00002498       ??_7IModuleLibraryUni@rsystem@base@UModSys@@6B@ 0000000140019498     umodsys_lib_basesys:umodsys.basesys.rmodulelib.obj
 0002:00002570       ??_C@_0CI@BLONPINK@RSystem?3?3upi_add?$CI?$CFp?3?$HL?$CC?$CFs?$CC?0?$CC?$CFs?$CC?0?$CF@ 0000000140019570     umodsys_lib_basesys:umodsys.basesys.rsystem.obj
 0002:000025a8       ??_7RParameters@rsystem@base@UModSys@@6B@ 00000001400195a8     umodsys_lib_basesys:umodsys.basesys.rparameters.obj
 0002:00002698       ??_C@_0BG@LJFEMLCK@UModSys_Plugin_Entry2?$AA@ 0000000140019698     umodsys_lib_basesys:umodsys.basesys.rmodule.win32.obj
 0002:000026b0       ??_C@_0CI@IABKIJLA@?5?5?5?5?5?5?5?5?5?5load?5so?$CI?$CC?$CFs?$CC?$CJ?5?$HL?$CFp?0?5?$CFp?$HN@ 00000001400196b0     umodsys_lib_basesys:umodsys.basesys.rmodule.win32.obj
 0002:000026d8       ??_C@_0BP@EBMDLOGD@?5?5?5?5?5?5?5?5?5?5unload?5so?$CI?$HL?$CFp?0?5?$CFp?$HN?$CJ?6?$AA@ 00000001400196d8     umodsys_lib_basesys:umodsys.basesys.rmodule.win32.obj
 0002:000026f8       ??_C@_0BD@FBMHCLKB@scan?5so?3?5?$CC?$CFs?$CFs?$CFs?$CC?6?$AA@ 00000001400196f8     umodsys_lib_basesys:umodsys.basesys.rmodule.win32.obj
 0002:00002710       ??_C@_0BC@GMLCPHOK@?1scan?5so?3?5?$CC?$CFs?$CFs?$CC?6?$AA@ 0000000140019710     umodsys_lib_basesys:umodsys.basesys.rmodule.win32.obj
 0002:00002724       ??_C@_02CAHBHFGK@?4?1?$AA@ 0000000140019724     umodsys_lib_basesys:umodsys.basesys.rmodule.win32.obj
 0002:00002728       ??_C@_04HLONOPDM@?4dll?$AA@ 0000000140019728     umodsys_lib_basesys:umodsys.basesys.rmodule.win32.obj
 0002:00002730       ??_C@_0BF@KDHHIHAN@RModule?$CI?$CFp?$CJ?3?3open?$CI?$CJ?6?$AA@ 0000000140019730     umodsys_lib_basesys:umodsys.basesys.rmodule.obj
 0002:00002748       ??_C@_0BG@HADBHJOP@RModule?$CI?$CFp?$CJ?3?3close?$CI?$CJ?6?$AA@ 0000000140019748     umodsys_lib_basesys:umodsys.basesys.rmodule.obj
 0002:00002760       ??_C@_0BK@FNONNOFM@RModule?$CI?$CFp?$CJ?3?3?5pre?9loaded?6?$AA@ 0000000140019760     umodsys_lib_basesys:umodsys.basesys.rmodule.obj
 0002:00002780       ??_C@_0CE@HBBEEAED@RModule?$CI?$CFp?$CJ?3?3generate?$CI?$CJ?5?$HL?5gen?$DN?$CFp@ 0000000140019780     umodsys_lib_basesys:umodsys.basesys.rmodule.obj
 0002:000027a8       ??_C@_0DL@FHDKGKAD@RModule?$CI?$CFp?$CJ?3?3reg_generator?$CI?$CFs?5?$CFp@ 00000001400197a8     umodsys_lib_basesys:umodsys.basesys.rmodule.obj
 0002:000027e8       ??_C@_0DL@ECFHLNEB@RModule?$CI?$CFp?$CJ?3?3reg_generator?$CI?$CFs?5?$CFp@ 00000001400197e8     umodsys_lib_basesys:umodsys.basesys.rmodule.obj
 0002:00002828       ??_C@_0DI@EBNLDEPD@RModule?$CI?$CFp?$CJ?3?3reg_obj?$CI?$CFs?5?$CFp?$CJ?5?9?9?5?$HL@ 0000000140019828     umodsys_lib_basesys:umodsys.basesys.rmodule.obj
 0002:00002860       ??_C@_0GC@IAELDHPB@RModule?$CI?$CFp?$CJ?3?3reg_obj?$CI?$CFs?5?$CFp?$CJ?5?9?9?5i@ 0000000140019860     umodsys_lib_basesys:umodsys.basesys.rmodule.obj
 0002:000028c8       ??_C@_0CM@JCLMIGEB@RModule?$CI?$CFp?$CJ?3?3reg_obj?$CI?$CFs?5?$CFp?$CJ?5?9?9?5a@ 00000001400198c8     umodsys_lib_basesys:umodsys.basesys.rmodule.obj
 0002:000028f8       ??_C@_0DK@NJCECDIC@RModule?$CI?$CFp?$CJ?3?3unreg_obj?$CI?$CFs?5?$CFp?$CJ?5?9?9@ 00000001400198f8     umodsys_lib_basesys:umodsys.basesys.rmodule.obj
 0002:00002940       ??_C@_0GE@MGLAJHFG@RModule?$CI?$CFp?$CJ?3?3unreg_obj?$CI?$CFs?5?$CFp?$CJ?5?9?9@ 0000000140019940     umodsys_lib_basesys:umodsys.basesys.rmodule.obj
 0002:000029a8       ??_C@_0CO@DAMPCAGA@RModule?3?3alloc_minfo?$CI?$HL?$CC?$CFs?$CC?0?5?$CC?$CFs?$CC@ 00000001400199a8     umodsys_lib_basesys:umodsys.basesys.rmodule.obj
 0002:000029d8       ??_C@_0BG@HANHHGHE@?5?5MODULE?5?$CFs?$CI?$CFd?0?$CFd?$CJ?5?$HL?6?$AA@ 00000001400199d8     umodsys_lib_basesys:umodsys.basesys.rmodule.obj
 0002:000029f0       ??_C@_0CI@FMDENPAM@RModule?$CI?$CFp?$CJ?3?3save_db?$CI?4?4?4?$CJ?5?9?9?5?$HL?5?$CF@ 00000001400199f0     umodsys_lib_basesys:umodsys.basesys.rmodule.obj
 0002:00002a18       ??_C@_0BN@CFNKPKCH@?5?5?5?5MODOBJECT?5?$CFs?$CI?$CFd?$CJ?5?$CFs?$CI?$CFd?$CJ?6?$AA@ 0000000140019a18     umodsys_lib_basesys:umodsys.basesys.rmodule.obj
 0002:00002a38       ??_C@_0BP@BJFGMFNK@?5?5?5?5GENERATOR?5?$CFs?$CI?$CFd?$CJ?5?$CFs?$CI?$CFd?$CJ?5?$HL?6?$AA@ 0000000140019a38     umodsys_lib_basesys:umodsys.basesys.rmodule.obj
 0002:00002a58       ??_C@_0BK@DNNMLLHP@?5?5?5?5?5?5REFOBJECT?5?$CFs?$CI?$CFd?$CJ?5?$HL?6?$AA@ 0000000140019a58     umodsys_lib_basesys:umodsys.basesys.rmodule.obj
 0002:00002a78       ??_C@_0BF@CJPCFEEB@?5?5?5?5?5?5?5?5TYPE?5?$CFs?$CI?$CFd?$CJ?6?$AA@ 0000000140019a78     umodsys_lib_basesys:umodsys.basesys.rmodule.obj
 0002:00002a90       ??_C@_0BM@PFPEFHDC@?5?5?5?5?5?5?$HN?5?$CD?5REFOBJECT?5?$CFs?$CI?$CFd?$CJ?6?$AA@ 0000000140019a90     umodsys_lib_basesys:umodsys.basesys.rmodule.obj
 0002:00002ab0       ??_C@_0CB@PCDHJLII@?5?5?5?5?$HN?5?$CD?5GENERATOR?5?$CFs?$CI?$CFd?$CJ?5?$CFs?$CI?$CFd?$CJ?6@ 0000000140019ab0     umodsys_lib_basesys:umodsys.basesys.rmodule.obj
 0002:00002ad8       ??_C@_0BI@OGBPJMLO@?5?5?$HN?5?$CD?5MODULE?5?$CFs?$CI?$CFd?0?$CFd?$CJ?6?$AA@ 0000000140019ad8     umodsys_lib_basesys:umodsys.basesys.rmodule.obj
 0002:00002af8       ??_7RModule@rsystem@base@UModSys@@6B@ 0000000140019af8     umodsys_lib_basesys:umodsys.basesys.rmodule.obj
 0002:00002ba8       ??_C@_0M@KEHKBKEH@?5?5so?3?5?$CC?$CFs?$CC?6?$AA@ 0000000140019ba8     umodsys_lib_basesys:umodsys.basesys.rmodulelibso.obj
 0002:00002bb8       ??_C@_0BF@IKAEAMGP@?5?5?5?5so?5loaded?3?5?$CC?$CFs?$CC?6?$AA@ 0000000140019bb8     umodsys_lib_basesys:umodsys.basesys.rmodulelibso.obj
 0002:00002bd0       ??_C@_0O@MCPOKEFF@?5?5?5?5so?5added?6?$AA@ 0000000140019bd0     umodsys_lib_basesys:umodsys.basesys.rmodulelibso.obj
 0002:00002be0       ??_C@_0BE@BFONLBBI@?5?5?5?5so?5dup?5with?5?$CFd?6?$AA@ 0000000140019be0     umodsys_lib_basesys:umodsys.basesys.rmodulelibso.obj
 0002:00002c08       ??_7RModuleLibrarySO@rsystem@base@UModSys@@6B@ 0000000140019c08     umodsys_lib_basesys:umodsys.basesys.rmodulelibso.obj
 0002:00002ce8       ??_7RModuleLibraryReg_Chain@base@UModSys@@6B@ 0000000140019ce8     umodsys_lib_base:umodsys.base.moduleregchain.obj
 0002:00002d28       ??_7IModuleReg@base@UModSys@@6B@ 0000000140019d28     umodsys_lib_base:umodsys.base.modulereg.obj
 0002:00002d68       ??_7IModuleLibraryReg@base@UModSys@@6B@ 0000000140019d68     umodsys_lib_base:umodsys.base.modulereg.obj
 0002:00002d98       ??_C@_04MMEBIPMJ@?4tmp?$AA@ 0000000140019d98     umodsys_lib_core:umodsys.core.syshlp_files.win32.obj
 0002:00002da0       ?utf_bytesFromUTF8@su@tl@UModSys@@3QBEB 0000000140019da0     umodsys_lib_core:umodsys.tl.utf8.obj
 0002:00002ea0       ?utf_firstByteMark@su@tl@UModSys@@3QBEB 0000000140019ea0     umodsys_lib_core:umodsys.tl.utf8.obj
 0002:00002ea8       ?utf_offsetsFromUTF8@su@tl@UModSys@@3QBHB 0000000140019ea8     umodsys_lib_core:umodsys.tl.utf8.obj
 0002:00003dc0       ??_R4type_info@@6B@        000000014001adc0     MSVCRT:ti_inst.obj
 0002:00003de8       ??_R3type_info@@8          000000014001ade8     MSVCRT:ti_inst.obj
 0002:00003e00       ??_R2type_info@@8          000000014001ae00     MSVCRT:ti_inst.obj
 0002:00003e10       ??_R1A@?0A@EA@type_info@@8 000000014001ae10     MSVCRT:ti_inst.obj
 0002:00003e38       ??_R4RModuleReg@stdio@media@modules@UModSys@@6B@ 000000014001ae38     umodsys_lib_libmedia:umodsys.mod.media.stdio.obj
 0002:00003e60       ??_R3RModuleReg@stdio@media@modules@UModSys@@8 000000014001ae60     umodsys_lib_libmedia:umodsys.mod.media.stdio.obj
 0002:00003e78       ??_R2RModuleReg@stdio@media@modules@UModSys@@8 000000014001ae78     umodsys_lib_libmedia:umodsys.mod.media.stdio.obj
 0002:00003e90       ??_R1A@?0A@EA@IModuleReg@base@UModSys@@8 000000014001ae90     umodsys_lib_libmedia:umodsys.mod.media.stdio.obj
 0002:00003eb8       ??_R3IModuleReg@base@UModSys@@8 000000014001aeb8     umodsys_lib_libmedia:umodsys.mod.media.stdio.obj
 0002:00003ed0       ??_R2IModuleReg@base@UModSys@@8 000000014001aed0     umodsys_lib_libmedia:umodsys.mod.media.stdio.obj
 0002:00003ee0       ??_R1A@?0A@EA@RModuleReg@stdio@media@modules@UModSys@@8 000000014001aee0     umodsys_lib_libmedia:umodsys.mod.media.stdio.obj
 0002:00003f08       ??_R4RDataArchiver_OsDir@stdio@media@modules@UModSys@@6BISetter@SFlags@libmedia@4@@ 000000014001af08     umodsys_lib_libmedia:umodsys.mod.media.stdio.obj
 0002:00003f30       ??_R4RDataArchiver_OsDir@stdio@media@modules@UModSys@@6BIRefObject@core@4@@ 000000014001af30     umodsys_lib_libmedia:umodsys.mod.media.stdio.obj
 0002:00003f58       ??_R3RDataArchiver_OsDir@stdio@media@modules@UModSys@@8 000000014001af58     umodsys_lib_libmedia:umodsys.mod.media.stdio.obj
 0002:00003f70       ??_R2RDataArchiver_OsDir@stdio@media@modules@UModSys@@8 000000014001af70     umodsys_lib_libmedia:umodsys.mod.media.stdio.obj
 0002:00003fb8       ??_R1A@?0A@EA@RDataArchiver_OsDir@stdio@media@modules@UModSys@@8 000000014001afb8     umodsys_lib_libmedia:umodsys.mod.media.stdio.obj
 0002:00003fe0       ??_R4RStreamWriter_FILE@stdio@media@modules@UModSys@@6B@ 000000014001afe0     umodsys_lib_libmedia:umodsys.mod.media.stdio.obj
 0002:00004008       ??_R3RStreamWriter_FILE@stdio@media@modules@UModSys@@8 000000014001b008     umodsys_lib_libmedia:umodsys.mod.media.stdio.obj
 0002:00004020       ??_R2RStreamWriter_FILE@stdio@media@modules@UModSys@@8 000000014001b020     umodsys_lib_libmedia:umodsys.mod.media.stdio.obj
 0002:00004048       ??_R1A@?0A@EA@RStreamWriter_FILE@stdio@media@modules@UModSys@@8 000000014001b048     umodsys_lib_libmedia:umodsys.mod.media.stdio.obj
 0002:00004070       ??_R4RStreamReader_FILE@stdio@media@modules@UModSys@@6B@ 000000014001b070     umodsys_lib_libmedia:umodsys.mod.media.stdio.obj
 0002:00004098       ??_R3RStreamReader_FILE@stdio@media@modules@UModSys@@8 000000014001b098     umodsys_lib_libmedia:umodsys.mod.media.stdio.obj
 0002:000040b0       ??_R2RStreamReader_FILE@stdio@media@modules@UModSys@@8 000000014001b0b0     umodsys_lib_libmedia:umodsys.mod.media.stdio.obj
 0002:000040d8       ??_R1A@?0A@EA@RStreamReader_FILE@stdio@media@modules@UModSys@@8 000000014001b0d8     umodsys_lib_libmedia:umodsys.mod.media.stdio.obj
 0002:00004100       ??_R4RGenerator@stdio@media@modules@UModSys@@6B@ 000000014001b100     umodsys_lib_libmedia:umodsys.mod.media.stdio.obj
 0002:00004128       ??_R3RGenerator@stdio@media@modules@UModSys@@8 000000014001b128     umodsys_lib_libmedia:umodsys.mod.media.stdio.obj
 0002:00004140       ??_R2RGenerator@stdio@media@modules@UModSys@@8 000000014001b140     umodsys_lib_libmedia:umodsys.mod.media.stdio.obj
 0002:00004170       ??_R1A@?0A@EA@RGenerator@stdio@media@modules@UModSys@@8 000000014001b170     umodsys_lib_libmedia:umodsys.mod.media.stdio.obj
 0002:00004198       ??_R4ISetter@SFlags@libmedia@UModSys@@6B@ 000000014001b198     umodsys_lib_libmedia:umodsys.mod.media.stdio.obj
 0002:000041c0       ??_R3IBinArchive@libmedia@UModSys@@8 000000014001b1c0     umodsys_lib_libmedia:umodsys.mod.media.stdio.obj
 0002:000041d8       ??_R2IBinArchive@libmedia@UModSys@@8 000000014001b1d8     umodsys_lib_libmedia:umodsys.mod.media.stdio.obj
 0002:00004218       ??_R1A@?0A@EA@IBinArchive@libmedia@UModSys@@8 000000014001b218     umodsys_lib_libmedia:umodsys.mod.media.stdio.obj
 0002:00004240       ??_R3ILibObject@libmedia@UModSys@@8 000000014001b240     umodsys_lib_libmedia:umodsys.mod.media.stdio.obj
 0002:00004258       ??_R2ILibObject@libmedia@UModSys@@8 000000014001b258     umodsys_lib_libmedia:umodsys.mod.media.stdio.obj
 0002:00004290       ??_R17?0A@EA@IResolver@SFlags@libmedia@UModSys@@8 000000014001b290     umodsys_lib_libmedia:umodsys.mod.media.stdio.obj
 0002:000042b8       ??_R17?0A@EA@IResolverAuto@SFlags@libmedia@UModSys@@8 000000014001b2b8     umodsys_lib_libmedia:umodsys.mod.media.stdio.obj
 0002:000042e0       ??_R17?0A@EA@ISetter@SFlags@libmedia@UModSys@@8 000000014001b2e0     umodsys_lib_libmedia:umodsys.mod.media.stdio.obj
 0002:00004308       ??_R3ISetter@SFlags@libmedia@UModSys@@8 000000014001b308     umodsys_lib_libmedia:umodsys.mod.media.stdio.obj
 0002:00004320       ??_R2ISetter@SFlags@libmedia@UModSys@@8 000000014001b320     umodsys_lib_libmedia:umodsys.mod.media.stdio.obj
 0002:00004340       ??_R1A@?0A@EA@IResolverAuto@SFlags@libmedia@UModSys@@8 000000014001b340     umodsys_lib_libmedia:umodsys.mod.media.stdio.obj
 0002:00004368       ??_R3IResolverAuto@SFlags@libmedia@UModSys@@8 000000014001b368     umodsys_lib_libmedia:umodsys.mod.media.stdio.obj
 0002:00004380       ??_R2IResolverAuto@SFlags@libmedia@UModSys@@8 000000014001b380     umodsys_lib_libmedia:umodsys.mod.media.stdio.obj
 0002:00004398       ??_R1A@?0A@EA@IResolver@SFlags@libmedia@UModSys@@8 000000014001b398     umodsys_lib_libmedia:umodsys.mod.media.stdio.obj
 0002:000043c0       ??_R3IResolver@SFlags@libmedia@UModSys@@8 000000014001b3c0     umodsys_lib_libmedia:umodsys.mod.media.stdio.obj
 0002:000043d8       ??_R2IResolver@SFlags@libmedia@UModSys@@8 000000014001b3d8     umodsys_lib_libmedia:umodsys.mod.media.stdio.obj
 0002:000043e8       ??_R1A@?0A@EA@ISetter@SFlags@libmedia@UModSys@@8 000000014001b3e8     umodsys_lib_libmedia:umodsys.mod.media.stdio.obj
 0002:00004410       ??_R1A@?0A@EA@ILibObject@libmedia@UModSys@@8 000000014001b410     umodsys_lib_libmedia:umodsys.mod.media.stdio.obj
 0002:00004438       ??_R3IStreamWriter@libmedia@UModSys@@8 000000014001b438     umodsys_lib_libmedia:umodsys.mod.media.stdio.obj
 0002:00004450       ??_R2IStreamWriter@libmedia@UModSys@@8 000000014001b450     umodsys_lib_libmedia:umodsys.mod.media.stdio.obj
 0002:00004470       ??_R1A@?0A@EA@IStreamWriter@libmedia@UModSys@@8 000000014001b470     umodsys_lib_libmedia:umodsys.mod.media.stdio.obj
 0002:00004498       ??_R3IStreamReader@libmedia@UModSys@@8 000000014001b498     umodsys_lib_libmedia:umodsys.mod.media.stdio.obj
 0002:000044b0       ??_R2IStreamReader@libmedia@UModSys@@8 000000014001b4b0     umodsys_lib_libmedia:umodsys.mod.media.stdio.obj
 0002:000044d0       ??_R1A@?0A@EA@IStreamReader@libmedia@UModSys@@8 000000014001b4d0     umodsys_lib_libmedia:umodsys.mod.media.stdio.obj
 0002:000044f8       ??_R3IGenerator@base@UModSys@@8 000000014001b4f8     umodsys_lib_libmedia:umodsys.mod.media.stdio.obj
 0002:00004510       ??_R2IGenerator@base@UModSys@@8 000000014001b510     umodsys_lib_libmedia:umodsys.mod.media.stdio.obj
 0002:00004538       ??_R1A@?0A@EA@IGenerator@base@UModSys@@8 000000014001b538     umodsys_lib_libmedia:umodsys.mod.media.stdio.obj
 0002:00004560       ??_R3IModObject@base@UModSys@@8 000000014001b560     umodsys_lib_libmedia:umodsys.mod.media.stdio.obj
 0002:00004578       ??_R2IModObject@base@UModSys@@8 000000014001b578     umodsys_lib_libmedia:umodsys.mod.media.stdio.obj
 0002:00004598       ??_R1A@?0A@EA@IModObject@base@UModSys@@8 000000014001b598     umodsys_lib_libmedia:umodsys.mod.media.stdio.obj
 0002:000045c0       ??_R3IRefObject@core@UModSys@@8 000000014001b5c0     umodsys_lib_libmedia:umodsys.mod.media.stdio.obj
 0002:000045d8       ??_R2IRefObject@core@UModSys@@8 000000014001b5d8     umodsys_lib_libmedia:umodsys.mod.media.stdio.obj
 0002:000045f0       ??_R1A@?0A@EA@IRefObject@core@UModSys@@8 000000014001b5f0     umodsys_lib_libmedia:umodsys.mod.media.stdio.obj
 0002:00004618       ??_R4IRoot@core@UModSys@@6B@ 000000014001b618     umodsys_lib_libmedia:umodsys.mod.media.stdio.obj
 0002:00004640       ??_R3IRoot@core@UModSys@@8 000000014001b640     umodsys_lib_libmedia:umodsys.mod.media.stdio.obj
 0002:00004658       ??_R2IRoot@core@UModSys@@8 000000014001b658     umodsys_lib_libmedia:umodsys.mod.media.stdio.obj
 0002:00004668       ??_R1A@?0A@EA@IRoot@core@UModSys@@8 000000014001b668     umodsys_lib_libmedia:umodsys.mod.media.stdio.obj
 0002:00004690       ??_R4RModuleReg@stdlib@media@modules@UModSys@@6B@ 000000014001b690     umodsys_lib_libmedia:umodsys.mod.media.stdlib.obj
 0002:000046b8       ??_R3RModuleReg@stdlib@media@modules@UModSys@@8 000000014001b6b8     umodsys_lib_libmedia:umodsys.mod.media.stdlib.obj
 0002:000046d0       ??_R2RModuleReg@stdlib@media@modules@UModSys@@8 000000014001b6d0     umodsys_lib_libmedia:umodsys.mod.media.stdlib.obj
 0002:000046e8       ??_R1A@?0A@EA@RModuleReg@stdlib@media@modules@UModSys@@8 000000014001b6e8     umodsys_lib_libmedia:umodsys.mod.media.stdlib.obj
 0002:00004710       ??_R4RLibraryObjFilter@stdlib@media@modules@UModSys@@6BISetter@SFlags@libmedia@4@@ 000000014001b710     umodsys_lib_libmedia:umodsys.mod.media.stdlib.obj
 0002:00004738       ??_R4RLibraryObjFilter@stdlib@media@modules@UModSys@@6BIRefObject@core@4@@ 000000014001b738     umodsys_lib_libmedia:umodsys.mod.media.stdlib.obj
 0002:00004760       ??_R3RLibraryObjFilter@stdlib@media@modules@UModSys@@8 000000014001b760     umodsys_lib_libmedia:umodsys.mod.media.stdlib.obj
 0002:00004780       ??_R2RLibraryObjFilter@stdlib@media@modules@UModSys@@8 000000014001b780     umodsys_lib_libmedia:umodsys.mod.media.stdlib.obj
 0002:000047d0       ??_R1A@?0A@EA@RLibraryObjFilter@stdlib@media@modules@UModSys@@8 000000014001b7d0     umodsys_lib_libmedia:umodsys.mod.media.stdlib.obj
 0002:000047f8       ??_R4RLibraryObjCache@stdlib@media@modules@UModSys@@6BISetter@SFlags@libmedia@4@@ 000000014001b7f8     umodsys_lib_libmedia:umodsys.mod.media.stdlib.obj
 0002:00004820       ??_R4RLibraryObjCache@stdlib@media@modules@UModSys@@6BIRefObject@core@4@@ 000000014001b820     umodsys_lib_libmedia:umodsys.mod.media.stdlib.obj
 0002:00004848       ??_R3RLibraryObjCache@stdlib@media@modules@UModSys@@8 000000014001b848     umodsys_lib_libmedia:umodsys.mod.media.stdlib.obj
 0002:00004860       ??_R2RLibraryObjCache@stdlib@media@modules@UModSys@@8 000000014001b860     umodsys_lib_libmedia:umodsys.mod.media.stdlib.obj
 0002:000048b0       ??_R1A@?0A@EA@RLibraryObjCache@stdlib@media@modules@UModSys@@8 000000014001b8b0     umodsys_lib_libmedia:umodsys.mod.media.stdlib.obj
 0002:000048d8       ??_R4RLibraryLayered@stdlib@media@modules@UModSys@@6BISetter@SFlags@libmedia@4@@ 000000014001b8d8     umodsys_lib_libmedia:umodsys.mod.media.stdlib.obj
 0002:00004900       ??_R4RLibraryLayered@stdlib@media@modules@UModSys@@6BIRefObject@core@4@@ 000000014001b900     umodsys_lib_libmedia:umodsys.mod.media.stdlib.obj
 0002:00004928       ??_R3RLibraryLayered@stdlib@media@modules@UModSys@@8 000000014001b928     umodsys_lib_libmedia:umodsys.mod.media.stdlib.obj
 0002:00004940       ??_R2RLibraryLayered@stdlib@media@modules@UModSys@@8 000000014001b940     umodsys_lib_libmedia:umodsys.mod.media.stdlib.obj
 0002:00004990       ??_R1A@?0A@EA@RLibraryLayered@stdlib@media@modules@UModSys@@8 000000014001b990     umodsys_lib_libmedia:umodsys.mod.media.stdlib.obj
 0002:000049b8       ??_R4RLibraryBinCache@stdlib@media@modules@UModSys@@6BISetter@SFlags@libmedia@4@@ 000000014001b9b8     umodsys_lib_libmedia:umodsys.mod.media.stdlib.obj
 0002:000049e0       ??_R4RLibraryBinCache@stdlib@media@modules@UModSys@@6BIRefObject@core@4@@ 000000014001b9e0     umodsys_lib_libmedia:umodsys.mod.media.stdlib.obj
 0002:00004a08       ??_R3RLibraryBinCache@stdlib@media@modules@UModSys@@8 000000014001ba08     umodsys_lib_libmedia:umodsys.mod.media.stdlib.obj
 0002:00004a20       ??_R2RLibraryBinCache@stdlib@media@modules@UModSys@@8 000000014001ba20     umodsys_lib_libmedia:umodsys.mod.media.stdlib.obj
 0002:00004a70       ??_R1A@?0A@EA@RLibraryBinCache@stdlib@media@modules@UModSys@@8 000000014001ba70     umodsys_lib_libmedia:umodsys.mod.media.stdlib.obj
 0002:00004a98       ??_R4RLibraryBinTree@stdlib@media@modules@UModSys@@6BISetter@SFlags@libmedia@4@@ 000000014001ba98     umodsys_lib_libmedia:umodsys.mod.media.stdlib.obj
 0002:00004ac0       ??_R4RLibraryBinTree@stdlib@media@modules@UModSys@@6BIRefObject@core@4@@ 000000014001bac0     umodsys_lib_libmedia:umodsys.mod.media.stdlib.obj
 0002:00004ae8       ??_R3RLibraryBinTree@stdlib@media@modules@UModSys@@8 000000014001bae8     umodsys_lib_libmedia:umodsys.mod.media.stdlib.obj
 0002:00004b00       ??_R2RLibraryBinTree@stdlib@media@modules@UModSys@@8 000000014001bb00     umodsys_lib_libmedia:umodsys.mod.media.stdlib.obj
 0002:00004b50       ??_R1A@?0A@EA@RLibraryBinTree@stdlib@media@modules@UModSys@@8 000000014001bb50     umodsys_lib_libmedia:umodsys.mod.media.stdlib.obj
 0002:00004b78       ??_R4RBinArchiveFrame@stdlib@media@modules@UModSys@@6BISetter@SFlags@libmedia@4@@ 000000014001bb78     umodsys_lib_libmedia:umodsys.mod.media.stdlib.obj
 0002:00004ba0       ??_R4RBinArchiveFrame@stdlib@media@modules@UModSys@@6BIRefObject@core@4@@ 000000014001bba0     umodsys_lib_libmedia:umodsys.mod.media.stdlib.obj
 0002:00004bc8       ??_R3RBinArchiveFrame@stdlib@media@modules@UModSys@@8 000000014001bbc8     umodsys_lib_libmedia:umodsys.mod.media.stdlib.obj
 0002:00004be0       ??_R2RBinArchiveFrame@stdlib@media@modules@UModSys@@8 000000014001bbe0     umodsys_lib_libmedia:umodsys.mod.media.stdlib.obj
 0002:00004c30       ??_R1A@?0A@EA@RBinArchiveFrame@stdlib@media@modules@UModSys@@8 000000014001bc30     umodsys_lib_libmedia:umodsys.mod.media.stdlib.obj
 0002:00004c58       ??_R4RUtilities@stdlib@media@modules@UModSys@@6B@ 000000014001bc58     umodsys_lib_libmedia:umodsys.mod.media.stdlib.obj
 0002:00004c80       ??_R3RUtilities@stdlib@media@modules@UModSys@@8 000000014001bc80     umodsys_lib_libmedia:umodsys.mod.media.stdlib.obj
 0002:00004c98       ??_R2RUtilities@stdlib@media@modules@UModSys@@8 000000014001bc98     umodsys_lib_libmedia:umodsys.mod.media.stdlib.obj
 0002:00004cc0       ??_R1A@?0A@EA@RUtilities@stdlib@media@modules@UModSys@@8 000000014001bcc0     umodsys_lib_libmedia:umodsys.mod.media.stdlib.obj
 0002:00004ce8       ??_R4RGenerator@stdlib@media@modules@UModSys@@6B@ 000000014001bce8     umodsys_lib_libmedia:umodsys.mod.media.stdlib.obj
 0002:00004d10       ??_R3RGenerator@stdlib@media@modules@UModSys@@8 000000014001bd10     umodsys_lib_libmedia:umodsys.mod.media.stdlib.obj
 0002:00004d28       ??_R2RGenerator@stdlib@media@modules@UModSys@@8 000000014001bd28     umodsys_lib_libmedia:umodsys.mod.media.stdlib.obj
 0002:00004d58       ??_R1A@?0A@EA@RGenerator@stdlib@media@modules@UModSys@@8 000000014001bd58     umodsys_lib_libmedia:umodsys.mod.media.stdlib.obj
 0002:00004d80       ??_R4RResolverChain@SFlagsChain@libmedia@UModSys@@6B@ 000000014001bd80     umodsys_lib_libmedia:umodsys.mod.media.stdlib.obj
 0002:00004da8       ??_R3RResolverChain@SFlagsChain@libmedia@UModSys@@8 000000014001bda8     umodsys_lib_libmedia:umodsys.mod.media.stdlib.obj
 0002:00004dc0       ??_R2RResolverChain@SFlagsChain@libmedia@UModSys@@8 000000014001bdc0     umodsys_lib_libmedia:umodsys.mod.media.stdlib.obj
 0002:00004dd8       ??_R1A@?0A@EA@RResolverChain@SFlagsChain@libmedia@UModSys@@8 000000014001bdd8     umodsys_lib_libmedia:umodsys.mod.media.stdlib.obj
 0002:00004e00       ??_R3ILibraryLayered@libmedia@UModSys@@8 000000014001be00     umodsys_lib_libmedia:umodsys.mod.media.stdlib.obj
 0002:00004e20       ??_R2ILibraryLayered@libmedia@UModSys@@8 000000014001be20     umodsys_lib_libmedia:umodsys.mod.media.stdlib.obj
 0002:00004e68       ??_R1A@?0A@EA@ILibraryLayered@libmedia@UModSys@@8 000000014001be68     umodsys_lib_libmedia:umodsys.mod.media.stdlib.obj
 0002:00004e90       ??_R3ILibraryObjCache@libmedia@UModSys@@8 000000014001be90     umodsys_lib_libmedia:umodsys.mod.media.stdlib.obj
 0002:00004eb0       ??_R2ILibraryObjCache@libmedia@UModSys@@8 000000014001beb0     umodsys_lib_libmedia:umodsys.mod.media.stdlib.obj
 0002:00004ef8       ??_R1A@?0A@EA@ILibraryObjCache@libmedia@UModSys@@8 000000014001bef8     umodsys_lib_libmedia:umodsys.mod.media.stdlib.obj
 0002:00004f20       ??_R3ILibraryObjFilter@libmedia@UModSys@@8 000000014001bf20     umodsys_lib_libmedia:umodsys.mod.media.stdlib.obj
 0002:00004f40       ??_R2ILibraryObjFilter@libmedia@UModSys@@8 000000014001bf40     umodsys_lib_libmedia:umodsys.mod.media.stdlib.obj
 0002:00004f88       ??_R1A@?0A@EA@ILibraryObjFilter@libmedia@UModSys@@8 000000014001bf88     umodsys_lib_libmedia:umodsys.mod.media.stdlib.obj
 0002:00004fb0       ??_R3ILibraryBinCache@libmedia@UModSys@@8 000000014001bfb0     umodsys_lib_libmedia:umodsys.mod.media.stdlib.obj
 0002:00004fd0       ??_R2ILibraryBinCache@libmedia@UModSys@@8 000000014001bfd0     umodsys_lib_libmedia:umodsys.mod.media.stdlib.obj
 0002:00005018       ??_R1A@?0A@EA@ILibraryBinCache@libmedia@UModSys@@8 000000014001c018     umodsys_lib_libmedia:umodsys.mod.media.stdlib.obj
 0002:00005040       ??_R3ILibraryBinTree@libmedia@UModSys@@8 000000014001c040     umodsys_lib_libmedia:umodsys.mod.media.stdlib.obj
 0002:00005060       ??_R2ILibraryBinTree@libmedia@UModSys@@8 000000014001c060     umodsys_lib_libmedia:umodsys.mod.media.stdlib.obj
 0002:000050a8       ??_R1A@?0A@EA@ILibraryBinTree@libmedia@UModSys@@8 000000014001c0a8     umodsys_lib_libmedia:umodsys.mod.media.stdlib.obj
 0002:000050d0       ??_R3ILibrary@libmedia@UModSys@@8 000000014001c0d0     umodsys_lib_libmedia:umodsys.mod.media.stdlib.obj
 0002:000050e8       ??_R2ILibrary@libmedia@UModSys@@8 000000014001c0e8     umodsys_lib_libmedia:umodsys.mod.media.stdlib.obj
 0002:00005128       ??_R1A@?0A@EA@ILibrary@libmedia@UModSys@@8 000000014001c128     umodsys_lib_libmedia:umodsys.mod.media.stdlib.obj
 0002:00005150       ??_R3IBinArchiveFrame@libmedia@UModSys@@8 000000014001c150     umodsys_lib_libmedia:umodsys.mod.media.stdlib.obj
 0002:00005170       ??_R2IBinArchiveFrame@libmedia@UModSys@@8 000000014001c170     umodsys_lib_libmedia:umodsys.mod.media.stdlib.obj
 0002:000051b8       ??_R1A@?0A@EA@IBinArchiveFrame@libmedia@UModSys@@8 000000014001c1b8     umodsys_lib_libmedia:umodsys.mod.media.stdlib.obj
 0002:000051e0       ??_R3IUtilities@libmedia@UModSys@@8 000000014001c1e0     umodsys_lib_libmedia:umodsys.mod.media.stdlib.obj
 0002:000051f8       ??_R2IUtilities@libmedia@UModSys@@8 000000014001c1f8     umodsys_lib_libmedia:umodsys.mod.media.stdlib.obj
 0002:00005218       ??_R1A@?0A@EA@IUtilities@libmedia@UModSys@@8 000000014001c218     umodsys_lib_libmedia:umodsys.mod.media.stdlib.obj
 0002:00005240       ??_R4RConsole_std@rsystem@base@UModSys@@6B@ 000000014001c240     umodsys_lib_basesys:umodsys.basesys.rconsole_std.obj
 0002:00005268       ??_R3RConsole_std@rsystem@base@UModSys@@8 000000014001c268     umodsys_lib_basesys:umodsys.basesys.rconsole_std.obj
 0002:00005280       ??_R2RConsole_std@rsystem@base@UModSys@@8 000000014001c280     umodsys_lib_basesys:umodsys.basesys.rconsole_std.obj
 0002:000052a8       ??_R1A@?0A@EA@RConsole_std@rsystem@base@UModSys@@8 000000014001c2a8     umodsys_lib_basesys:umodsys.basesys.rconsole_std.obj
 0002:000052d0       ??_R3IConsole@base@UModSys@@8 000000014001c2d0     umodsys_lib_basesys:umodsys.basesys.rconsole_std.obj
 0002:000052e8       ??_R2IConsole@base@UModSys@@8 000000014001c2e8     umodsys_lib_basesys:umodsys.basesys.rconsole_std.obj
 0002:00005308       ??_R1A@?0A@EA@IConsole@base@UModSys@@8 000000014001c308     umodsys_lib_basesys:umodsys.basesys.rconsole_std.obj
 0002:00005330       ??_R4RSystem@rsystem@base@UModSys@@6BISourceContextAdapter@core@3@@ 000000014001c330     umodsys_lib_basesys:umodsys.basesys.rsystem_main.obj
 0002:00005358       ??_R4RSystem@rsystem@base@UModSys@@6BIUniquePointerResolver@core@3@@ 000000014001c358     umodsys_lib_basesys:umodsys.basesys.rsystem_main.obj
 0002:00005380       ??_R4RSystem@rsystem@base@UModSys@@6BISystem@23@@ 000000014001c380     umodsys_lib_basesys:umodsys.basesys.rsystem_main.obj
 0002:000053a8       ??_R3RSystem@rsystem@base@UModSys@@8 000000014001c3a8     umodsys_lib_basesys:umodsys.basesys.rsystem_main.obj
 0002:000053c0       ??_R2RSystem@rsystem@base@UModSys@@8 000000014001c3c0     umodsys_lib_basesys:umodsys.basesys.rsystem_main.obj
 0002:000053f0       ??_R1BA@?0A@EA@ISourceContextAdapter@core@UModSys@@8 000000014001c3f0     umodsys_lib_basesys:umodsys.basesys.rsystem_main.obj
 0002:00005418       ??_R17?0A@EA@IUniquePointerResolver@core@UModSys@@8 000000014001c418     umodsys_lib_basesys:umodsys.basesys.rsystem_main.obj
 0002:00005440       ??_R1A@?0A@EA@RSystem@rsystem@base@UModSys@@8 000000014001c440     umodsys_lib_basesys:umodsys.basesys.rsystem_main.obj
 0002:00005468       ??_R4?$TRMemAlloc_CC@U?$TMemAllocHeader@USMagic@mem_headers@rsystem@base@UModSys@@U?$TPool@X@2345@USDebug@2345@UVoid@core@5@U895@@rsystem@base@UModSys@@USMemAlloc_Malloc@core@4@@rsystem@base@UModSys@@6B@ 000000014001c468     umodsys_lib_basesys:umodsys.basesys.rsystem_main.obj
 0002:00005490       ??_R3?$TRMemAlloc_CC@U?$TMemAllocHeader@USMagic@mem_headers@rsystem@base@UModSys@@U?$TPool@X@2345@USDebug@2345@UVoid@core@5@U895@@rsystem@base@UModSys@@USMemAlloc_Malloc@core@4@@rsystem@base@UModSys@@8 000000014001c490     umodsys_lib_basesys:umodsys.basesys.rsystem_main.obj
 0002:000054a8       ??_R2?$TRMemAlloc_CC@U?$TMemAllocHeader@USMagic@mem_headers@rsystem@base@UModSys@@U?$TPool@X@2345@USDebug@2345@UVoid@core@5@U895@@rsystem@base@UModSys@@USMemAlloc_Malloc@core@4@@rsystem@base@UModSys@@8 000000014001c4a8     umodsys_lib_basesys:umodsys.basesys.rsystem_main.obj
 0002:000054c8       ??_R17?0A@EA@SMemAlloc_Malloc@core@UModSys@@8 000000014001c4c8     umodsys_lib_basesys:umodsys.basesys.rsystem_main.obj
 0002:000054f0       ??_R3SMemAlloc_Malloc@core@UModSys@@8 000000014001c4f0     umodsys_lib_basesys:umodsys.basesys.rsystem_main.obj
 0002:00005508       ??_R2SMemAlloc_Malloc@core@UModSys@@8 000000014001c508     umodsys_lib_basesys:umodsys.basesys.rsystem_main.obj
 0002:00005518       ??_R1A@?0A@EA@SMemAlloc_Malloc@core@UModSys@@8 000000014001c518     umodsys_lib_basesys:umodsys.basesys.rsystem_main.obj
 0002:00005540       ??_R1A@?0A@EA@?$TRMemAlloc_CC@U?$TMemAllocHeader@USMagic@mem_headers@rsystem@base@UModSys@@U?$TPool@X@2345@USDebug@2345@UVoid@core@5@U895@@rsystem@base@UModSys@@USMemAlloc_Malloc@core@4@@rsystem@base@UModSys@@8 000000014001c540     umodsys_lib_basesys:umodsys.basesys.rsystem_main.obj
 0002:00005568       ??_R3IUniquePointerResolver@core@UModSys@@8 000000014001c568     umodsys_lib_basesys:umodsys.basesys.rsystem_main.obj
 0002:00005580       ??_R2IUniquePointerResolver@core@UModSys@@8 000000014001c580     umodsys_lib_basesys:umodsys.basesys.rsystem_main.obj
 0002:00005590       ??_R1A@?0A@EA@IUniquePointerResolver@core@UModSys@@8 000000014001c590     umodsys_lib_basesys:umodsys.basesys.rsystem_main.obj
 0002:000055b8       ??_R3ISourceContextAdapter@core@UModSys@@8 000000014001c5b8     umodsys_lib_basesys:umodsys.basesys.rsystem_main.obj
 0002:000055d0       ??_R2ISourceContextAdapter@core@UModSys@@8 000000014001c5d0     umodsys_lib_basesys:umodsys.basesys.rsystem_main.obj
 0002:000055e0       ??_R1A@?0A@EA@ISourceContextAdapter@core@UModSys@@8 000000014001c5e0     umodsys_lib_basesys:umodsys.basesys.rsystem_main.obj
 0002:00005608       ??_R3ISystem@base@UModSys@@8 000000014001c608     umodsys_lib_basesys:umodsys.basesys.rsystem_main.obj
 0002:00005620       ??_R2ISystem@base@UModSys@@8 000000014001c620     umodsys_lib_basesys:umodsys.basesys.rsystem_main.obj
 0002:00005638       ??_R1A@?0A@EA@ISystem@base@UModSys@@8 000000014001c638     umodsys_lib_basesys:umodsys.basesys.rsystem_main.obj
 0002:00005660       ??_R3IMemAlloc@core@UModSys@@8 000000014001c660     umodsys_lib_basesys:umodsys.basesys.rsystem_main.obj
 0002:00005678       ??_R2IMemAlloc@core@UModSys@@8 000000014001c678     umodsys_lib_basesys:umodsys.basesys.rsystem_main.obj
 0002:00005688       ??_R1A@?0A@EA@IMemAlloc@core@UModSys@@8 000000014001c688     umodsys_lib_basesys:umodsys.basesys.rsystem_main.obj
 0002:000056b0       ??_R4EWarning@core@UModSys@@6B@ 000000014001c6b0     umodsys_lib_basesys:umodsys.basesys.rsystem_main.obj
 0002:000056d8       ??_R3EWarning@core@UModSys@@8 000000014001c6d8     umodsys_lib_basesys:umodsys.basesys.rsystem_main.obj
 0002:000056f0       ??_R2EWarning@core@UModSys@@8 000000014001c6f0     umodsys_lib_basesys:umodsys.basesys.rsystem_main.obj
 0002:00005708       ??_R1A@?0A@EA@EWarning@core@UModSys@@8 000000014001c708     umodsys_lib_basesys:umodsys.basesys.rsystem_main.obj
 0002:00005730       ??_R4EFatal@core@UModSys@@6B@ 000000014001c730     umodsys_lib_basesys:umodsys.basesys.rsystem_main.obj
 0002:00005758       ??_R3EFatal@core@UModSys@@8 000000014001c758     umodsys_lib_basesys:umodsys.basesys.rsystem_main.obj
 0002:00005770       ??_R2EFatal@core@UModSys@@8 000000014001c770     umodsys_lib_basesys:umodsys.basesys.rsystem_main.obj
 0002:00005788       ??_R1A@?0A@EA@EFatal@core@UModSys@@8 000000014001c788     umodsys_lib_basesys:umodsys.basesys.rsystem_main.obj
 0002:000057b0       ??_R4EExceptionBase@core@UModSys@@6B@ 000000014001c7b0     umodsys_lib_basesys:umodsys.basesys.rsystem_main.obj
 0002:000057d8       ??_R3EExceptionBase@core@UModSys@@8 000000014001c7d8     umodsys_lib_basesys:umodsys.basesys.rsystem_main.obj
 0002:000057f0       ??_R2EExceptionBase@core@UModSys@@8 000000014001c7f0     umodsys_lib_basesys:umodsys.basesys.rsystem_main.obj
 0002:00005800       ??_R1A@?0A@EA@EExceptionBase@core@UModSys@@8 000000014001c800     umodsys_lib_basesys:umodsys.basesys.rsystem_main.obj
 0002:00005828       ??_R4RModuleLoader@rsystem@base@UModSys@@6B@ 000000014001c828     umodsys_lib_basesys:umodsys.basesys.rmoduleloader.obj
 0002:00005850       ??_R3RModuleLoader@rsystem@base@UModSys@@8 000000014001c850     umodsys_lib_basesys:umodsys.basesys.rmoduleloader.obj
 0002:00005868       ??_R2RModuleLoader@rsystem@base@UModSys@@8 000000014001c868     umodsys_lib_basesys:umodsys.basesys.rmoduleloader.obj
 0002:00005880       ??_R1A@?0A@EA@RModuleLoader@rsystem@base@UModSys@@8 000000014001c880     umodsys_lib_basesys:umodsys.basesys.rmoduleloader.obj
 0002:000058a8       ??_R4IModuleLoader@base@UModSys@@6B@ 000000014001c8a8     umodsys_lib_basesys:umodsys.basesys.rmoduleloader.obj
 0002:000058d0       ??_R3IModuleLoader@base@UModSys@@8 000000014001c8d0     umodsys_lib_basesys:umodsys.basesys.rmoduleloader.obj
 0002:000058e8       ??_R2IModuleLoader@base@UModSys@@8 000000014001c8e8     umodsys_lib_basesys:umodsys.basesys.rmoduleloader.obj
 0002:000058f8       ??_R1A@?0A@EA@IModuleLoader@base@UModSys@@8 000000014001c8f8     umodsys_lib_basesys:umodsys.basesys.rmoduleloader.obj
 0002:00005920       ??_R4RModuleLibraryThis@rsystem@base@UModSys@@6B@ 000000014001c920     umodsys_lib_basesys:umodsys.basesys.rmodulelibthis.obj
 0002:00005948       ??_R3RModuleLibraryThis@rsystem@base@UModSys@@8 000000014001c948     umodsys_lib_basesys:umodsys.basesys.rmodulelibthis.obj
 0002:00005960       ??_R2RModuleLibraryThis@rsystem@base@UModSys@@8 000000014001c960     umodsys_lib_basesys:umodsys.basesys.rmodulelibthis.obj
 0002:00005990       ??_R1A@?0A@EA@IModuleLibraryUni@rsystem@base@UModSys@@8 000000014001c990     umodsys_lib_basesys:umodsys.basesys.rmodulelibthis.obj
 0002:000059b8       ??_R3IModuleLibraryUni@rsystem@base@UModSys@@8 000000014001c9b8     umodsys_lib_basesys:umodsys.basesys.rmodulelibthis.obj
 0002:000059d0       ??_R2IModuleLibraryUni@rsystem@base@UModSys@@8 000000014001c9d0     umodsys_lib_basesys:umodsys.basesys.rmodulelibthis.obj
 0002:000059f8       ??_R1A@?0A@EA@IModuleLibrary@base@UModSys@@8 000000014001c9f8     umodsys_lib_basesys:umodsys.basesys.rmodulelibthis.obj
 0002:00005a20       ??_R3IModuleLibrary@base@UModSys@@8 000000014001ca20     umodsys_lib_basesys:umodsys.basesys.rmodulelibthis.obj
 0002:00005a38       ??_R2IModuleLibrary@base@UModSys@@8 000000014001ca38     umodsys_lib_basesys:umodsys.basesys.rmodulelibthis.obj
 0002:00005a58       ??_R1A@?0A@EA@RModuleLibraryThis@rsystem@base@UModSys@@8 000000014001ca58     umodsys_lib_basesys:umodsys.basesys.rmodulelibthis.obj
 0002:00005a80       ??_R4IModuleLibraryUni@rsystem@base@UModSys@@6B@ 000000014001ca80     umodsys_lib_basesys:umodsys.basesys.rmodulelib.obj
 0002:00005aa8       ??_R4RParameters@rsystem@base@UModSys@@6B@ 000000014001caa8     umodsys_lib_basesys:umodsys.basesys.rparameters.obj
 0002:00005ad0       ??_R3RParameters@rsystem@base@UModSys@@8 000000014001cad0     umodsys_lib_basesys:umodsys.basesys.rparameters.obj
 0002:00005ae8       ??_R2RParameters@rsystem@base@UModSys@@8 000000014001cae8     umodsys_lib_basesys:umodsys.basesys.rparameters.obj
 0002:00005b10       ??_R1A@?0A@EA@RParameters@rsystem@base@UModSys@@8 000000014001cb10     umodsys_lib_basesys:umodsys.basesys.rparameters.obj
 0002:00005b38       ??_R3IParameters@core@UModSys@@8 000000014001cb38     umodsys_lib_basesys:umodsys.basesys.rparameters.obj
 0002:00005b50       ??_R2IParameters@core@UModSys@@8 000000014001cb50     umodsys_lib_basesys:umodsys.basesys.rparameters.obj
 0002:00005b70       ??_R1A@?0A@EA@IParameters@core@UModSys@@8 000000014001cb70     umodsys_lib_basesys:umodsys.basesys.rparameters.obj
 0002:00005b98       ??_R4RModule@rsystem@base@UModSys@@6B@ 000000014001cb98     umodsys_lib_basesys:umodsys.basesys.rmodule.obj
 0002:00005bc0       ??_R3RModule@rsystem@base@UModSys@@8 000000014001cbc0     umodsys_lib_basesys:umodsys.basesys.rmodule.obj
 0002:00005bd8       ??_R2RModule@rsystem@base@UModSys@@8 000000014001cbd8     umodsys_lib_basesys:umodsys.basesys.rmodule.obj
 0002:00005c00       ??_R1A@?0A@EA@RModule@rsystem@base@UModSys@@8 000000014001cc00     umodsys_lib_basesys:umodsys.basesys.rmodule.obj
 0002:00005c28       ??_R3IModule@base@UModSys@@8 000000014001cc28     umodsys_lib_basesys:umodsys.basesys.rmodule.obj
 0002:00005c40       ??_R2IModule@base@UModSys@@8 000000014001cc40     umodsys_lib_basesys:umodsys.basesys.rmodule.obj
 0002:00005c60       ??_R1A@?0A@EA@IModule@base@UModSys@@8 000000014001cc60     umodsys_lib_basesys:umodsys.basesys.rmodule.obj
 0002:00005c88       ??_R4RModuleLibrarySO@rsystem@base@UModSys@@6B@ 000000014001cc88     umodsys_lib_basesys:umodsys.basesys.rmodulelibso.obj
 0002:00005cb0       ??_R3RModuleLibrarySO@rsystem@base@UModSys@@8 000000014001ccb0     umodsys_lib_basesys:umodsys.basesys.rmodulelibso.obj
 0002:00005cc8       ??_R2RModuleLibrarySO@rsystem@base@UModSys@@8 000000014001ccc8     umodsys_lib_basesys:umodsys.basesys.rmodulelibso.obj
 0002:00005cf8       ??_R1A@?0A@EA@RModuleLibrarySO@rsystem@base@UModSys@@8 000000014001ccf8     umodsys_lib_basesys:umodsys.basesys.rmodulelibso.obj
 0002:00005d20       ??_R4RModuleLibraryReg_Chain@base@UModSys@@6B@ 000000014001cd20     umodsys_lib_base:umodsys.base.moduleregchain.obj
 0002:00005d48       ??_R3RModuleLibraryReg_Chain@base@UModSys@@8 000000014001cd48     umodsys_lib_base:umodsys.base.moduleregchain.obj
 0002:00005d60       ??_R2RModuleLibraryReg_Chain@base@UModSys@@8 000000014001cd60     umodsys_lib_base:umodsys.base.moduleregchain.obj
 0002:00005d78       ??_R1A@?0A@EA@IModuleLibraryReg@base@UModSys@@8 000000014001cd78     umodsys_lib_base:umodsys.base.moduleregchain.obj
 0002:00005da0       ??_R3IModuleLibraryReg@base@UModSys@@8 000000014001cda0     umodsys_lib_base:umodsys.base.moduleregchain.obj
 0002:00005db8       ??_R2IModuleLibraryReg@base@UModSys@@8 000000014001cdb8     umodsys_lib_base:umodsys.base.moduleregchain.obj
 0002:00005dc8       ??_R1A@?0A@EA@RModuleLibraryReg_Chain@base@UModSys@@8 000000014001cdc8     umodsys_lib_base:umodsys.base.moduleregchain.obj
 0002:00005df0       ??_R4IModuleLibraryReg@base@UModSys@@6B@ 000000014001cdf0     umodsys_lib_base:umodsys.base.modulereg.obj
 0002:00005e18       ??_R4IModuleReg@base@UModSys@@6B@ 000000014001ce18     umodsys_lib_base:umodsys.base.modulereg.obj
 0002:00005e40       __rtc_iaa                  000000014001ce40     MSVCRT:_initsect_.obj
 0002:00005e48       __rtc_izz                  000000014001ce48     MSVCRT:_initsect_.obj
 0002:00005e50       __rtc_taa                  000000014001ce50     MSVCRT:_initsect_.obj
 0002:00005e58       __rtc_tzz                  000000014001ce58     MSVCRT:_initsect_.obj
 0002:00007d60       _CT??_R0?AUEFatal@core@UModSys@@@8??0EFatal@core@UModSys@@QEAA@AEBU012@@Z48 000000014001ed60     umodsys_lib_basesys:umodsys.basesys.rsystem_main.obj
 0002:00007d88       _CT??_R0?AUEExceptionBase@core@UModSys@@@8??0EExceptionBase@core@UModSys@@QEAA@AEBU012@@Z48 000000014001ed88     umodsys_lib_basesys:umodsys.basesys.rsystem_main.obj
 0002:00007db0       _CTA2?AUEFatal@core@UModSys@@ 000000014001edb0     umodsys_lib_basesys:umodsys.basesys.rsystem_main.obj
 0002:00007dc8       _TI2?AUEFatal@core@UModSys@@ 000000014001edc8     umodsys_lib_basesys:umodsys.basesys.rsystem_main.obj
 0002:00007de8       _CT??_R0?AUEWarning@core@UModSys@@@8??0EWarning@core@UModSys@@QEAA@AEBU012@@Z48 000000014001ede8     umodsys_lib_basesys:umodsys.basesys.rsystem_main.obj
 0002:00007e10       _CTA2?AUEWarning@core@UModSys@@ 000000014001ee10     umodsys_lib_basesys:umodsys.basesys.rsystem_main.obj
 0002:00007e28       _TI2?AUEWarning@core@UModSys@@ 000000014001ee28     umodsys_lib_basesys:umodsys.basesys.rsystem_main.obj
 0002:00007e44       __IMPORT_DESCRIPTOR_MSVCR90 000000014001ee44     MSVCRT:MSVCR90.dll
 0002:00007e58       __IMPORT_DESCRIPTOR_KERNEL32 000000014001ee58     kernel32:KERNEL32.dll
 0002:00007e6c       __NULL_IMPORT_DESCRIPTOR   000000014001ee6c     MSVCRT:MSVCR90.dll
 0003:00000000       ??_R0?AVtype_info@@@8      0000000140020000     MSVCRT:ti_inst.obj
 0003:00000020       __native_dllmain_reason    0000000140020020     MSVCRT:natstart.obj
 0003:00000024       __native_vcclrit_reason    0000000140020024     MSVCRT:natstart.obj
 0003:00000028       __globallocalestatus       0000000140020028     MSVCRT:xthdloc.obj
 0003:0000002c       __defaultmatherr           000000014002002c     MSVCRT:merr.obj
 0003:00000030       __security_cookie          0000000140020030     MSVCRT:gs_cookie.obj
 0003:00000038       __security_cookie_complement 0000000140020038     MSVCRT:gs_cookie.obj
 0003:000000c0       ?so_entry_enabled_flag@base@UModSys@@3HA 00000001400200c0     umodsys_lib_base:umodsys.so_main.win32.obj
 0003:00000140       ?s_colors@RConsole_std@rsystem@base@UModSys@@2PAY07EA 0000000140020140     umodsys_lib_basesys:umodsys.basesys.rconsole_std.obj
 0003:000001e0       ?auto_flags@RDataArchiver_OsDir@stdio@media@modules@UModSys@@2U?$TFlags4State@USMediaFlagUid@libmedia@UModSys@@I@tl@5@A 00000001400201e0     umodsys_lib_libmedia:umodsys.mod.media.stdio.obj
 0003:000001e8       ?s_dbg@stdio@media@modules@UModSys@@3USDebug@base@4@A 00000001400201e8     umodsys_lib_libmedia:umodsys.mod.media.stdio.obj
 0003:000001f8       ?s_modreg_chain@RModuleReg@stdio@media@modules@UModSys@@2USModuleRegChain@base@5@A 00000001400201f8     umodsys_lib_libmedia:umodsys.mod.media.stdio.obj
 0003:00000210       ?s_dbg@stdlib@media@modules@UModSys@@3USDebug@base@4@A 0000000140020210     umodsys_lib_libmedia:umodsys.mod.media.stdlib.obj
 0003:00000220       ?auto_flags@RLibraryLayered@stdlib@media@modules@UModSys@@2U?$TFlags4State@USMediaFlagUid@libmedia@UModSys@@I@tl@5@A 0000000140020220     umodsys_lib_libmedia:umodsys.mod.media.stdlib.obj
 0003:00000228       ?s_modreg_chain@RModuleReg@stdlib@media@modules@UModSys@@2USModuleRegChain@base@5@A 0000000140020228     umodsys_lib_libmedia:umodsys.mod.media.stdlib.obj
 0003:00000240       ?s_console@RConsole_std@rsystem@base@UModSys@@2U1234@A 0000000140020240     umodsys_lib_basesys:umodsys.basesys.rconsole_std.obj
 0003:00000250       ?s_sys@RSystem@rsystem@base@UModSys@@2U1234@A 0000000140020250     umodsys_lib_basesys:umodsys.basesys.rsystem_main.obj
 0003:00000400       ?rsys_dbg@rsystem@base@UModSys@@3USDebug@23@A 0000000140020400     umodsys_lib_basesys:umodsys.basesys.rsystem_main.obj
 0003:00000410       ?s_library@RModuleLibraryReg_Chain@base@UModSys@@2U123@A 0000000140020410     umodsys_lib_base:umodsys.base.moduleregchain.obj
 0003:00000418       ??_R0?AUIModuleReg@base@UModSys@@@8 0000000140020418     umodsys_lib_libmedia:umodsys.mod.media.stdio.obj
 0003:00000448       ??_R0?AURModuleReg@stdio@media@modules@UModSys@@@8 0000000140020448     umodsys_lib_libmedia:umodsys.mod.media.stdio.obj
 0003:00000490       ??_R0?AURDataArchiver_OsDir@stdio@media@modules@UModSys@@@8 0000000140020490     umodsys_lib_libmedia:umodsys.mod.media.stdio.obj
 0003:000004e0       ??_R0?AURStreamWriter_FILE@stdio@media@modules@UModSys@@@8 00000001400204e0     umodsys_lib_libmedia:umodsys.mod.media.stdio.obj
 0003:00000530       ??_R0?AURStreamReader_FILE@stdio@media@modules@UModSys@@@8 0000000140020530     umodsys_lib_libmedia:umodsys.mod.media.stdio.obj
 0003:00000578       ??_R0?AURGenerator@stdio@media@modules@UModSys@@@8 0000000140020578     umodsys_lib_libmedia:umodsys.mod.media.stdio.obj
 0003:000005b8       ??_R0?AUIBinArchive@libmedia@UModSys@@@8 00000001400205b8     umodsys_lib_libmedia:umodsys.mod.media.stdio.obj
 0003:000005f0       ??_R0?AUIResolver@SFlags@libmedia@UModSys@@@8 00000001400205f0     umodsys_lib_libmedia:umodsys.mod.media.stdio.obj
 0003:00000628       ??_R0?AUIResolverAuto@SFlags@libmedia@UModSys@@@8 0000000140020628     umodsys_lib_libmedia:umodsys.mod.media.stdio.obj
 0003:00000668       ??_R0?AUISetter@SFlags@libmedia@UModSys@@@8 0000000140020668     umodsys_lib_libmedia:umodsys.mod.media.stdio.obj
 0003:000006a0       ??_R0?AUILibObject@libmedia@UModSys@@@8 00000001400206a0     umodsys_lib_libmedia:umodsys.mod.media.stdio.obj
 0003:000006d8       ??_R0?AUIStreamWriter@libmedia@UModSys@@@8 00000001400206d8     umodsys_lib_libmedia:umodsys.mod.media.stdio.obj
 0003:00000710       ??_R0?AUIStreamReader@libmedia@UModSys@@@8 0000000140020710     umodsys_lib_libmedia:umodsys.mod.media.stdio.obj
 0003:00000748       ??_R0?AUIGenerator@base@UModSys@@@8 0000000140020748     umodsys_lib_libmedia:umodsys.mod.media.stdio.obj
 0003:00000778       ??_R0?AUIModObject@base@UModSys@@@8 0000000140020778     umodsys_lib_libmedia:umodsys.mod.media.stdio.obj
 0003:000007a8       ??_R0?AUIRefObject@core@UModSys@@@8 00000001400207a8     umodsys_lib_libmedia:umodsys.mod.media.stdio.obj
 0003:000007d8       ??_R0?AUIRoot@core@UModSys@@@8 00000001400207d8     umodsys_lib_libmedia:umodsys.mod.media.stdio.obj
 0003:00000808       ??_R0?AURModuleReg@stdlib@media@modules@UModSys@@@8 0000000140020808     umodsys_lib_libmedia:umodsys.mod.media.stdlib.obj
 0003:00000850       ??_R0?AURLibraryObjFilter@stdlib@media@modules@UModSys@@@8 0000000140020850     umodsys_lib_libmedia:umodsys.mod.media.stdlib.obj
 0003:000008a0       ??_R0?AURLibraryObjCache@stdlib@media@modules@UModSys@@@8 00000001400208a0     umodsys_lib_libmedia:umodsys.mod.media.stdlib.obj
 0003:000008f0       ??_R0?AURLibraryLayered@stdlib@media@modules@UModSys@@@8 00000001400208f0     umodsys_lib_libmedia:umodsys.mod.media.stdlib.obj
 0003:00000940       ??_R0?AURLibraryBinCache@stdlib@media@modules@UModSys@@@8 0000000140020940     umodsys_lib_libmedia:umodsys.mod.media.stdlib.obj
 0003:00000990       ??_R0?AURLibraryBinTree@stdlib@media@modules@UModSys@@@8 0000000140020990     umodsys_lib_libmedia:umodsys.mod.media.stdlib.obj
 0003:000009e0       ??_R0?AURBinArchiveFrame@stdlib@media@modules@UModSys@@@8 00000001400209e0     umodsys_lib_libmedia:umodsys.mod.media.stdlib.obj
 0003:00000a28       ??_R0?AURUtilities@stdlib@media@modules@UModSys@@@8 0000000140020a28     umodsys_lib_libmedia:umodsys.mod.media.stdlib.obj
 0003:00000a68       ??_R0?AURGenerator@stdlib@media@modules@UModSys@@@8 0000000140020a68     umodsys_lib_libmedia:umodsys.mod.media.stdlib.obj
 0003:00000ab0       ??_R0?AURResolverChain@SFlagsChain@libmedia@UModSys@@@8 0000000140020ab0     umodsys_lib_libmedia:umodsys.mod.media.stdlib.obj
 0003:00000af8       ??_R0?AUILibraryLayered@libmedia@UModSys@@@8 0000000140020af8     umodsys_lib_libmedia:umodsys.mod.media.stdlib.obj
 0003:00000b30       ??_R0?AUILibraryObjCache@libmedia@UModSys@@@8 0000000140020b30     umodsys_lib_libmedia:umodsys.mod.media.stdlib.obj
 0003:00000b68       ??_R0?AUILibraryObjFilter@libmedia@UModSys@@@8 0000000140020b68     umodsys_lib_libmedia:umodsys.mod.media.stdlib.obj
 0003:00000ba8       ??_R0?AUILibraryBinCache@libmedia@UModSys@@@8 0000000140020ba8     umodsys_lib_libmedia:umodsys.mod.media.stdlib.obj
 0003:00000be0       ??_R0?AUILibraryBinTree@libmedia@UModSys@@@8 0000000140020be0     umodsys_lib_libmedia:umodsys.mod.media.stdlib.obj
 0003:00000c18       ??_R0?AUILibrary@libmedia@UModSys@@@8 0000000140020c18     umodsys_lib_libmedia:umodsys.mod.media.stdlib.obj
 0003:00000c48       ??_R0?AUIBinArchiveFrame@libmedia@UModSys@@@8 0000000140020c48     umodsys_lib_libmedia:umodsys.mod.media.stdlib.obj
 0003:00000c80       ??_R0?AUIUtilities@libmedia@UModSys@@@8 0000000140020c80     umodsys_lib_libmedia:umodsys.mod.media.stdlib.obj
 0003:00000cb8       ??_R0?AURConsole_std@rsystem@base@UModSys@@@8 0000000140020cb8     umodsys_lib_basesys:umodsys.basesys.rconsole_std.obj
 0003:00000cf0       ??_R0?AUIConsole@base@UModSys@@@8 0000000140020cf0     umodsys_lib_basesys:umodsys.basesys.rconsole_std.obj
 0003:00000d20       ??_R0?AURSystem@rsystem@base@UModSys@@@8 0000000140020d20     umodsys_lib_basesys:umodsys.basesys.rsystem_main.obj
 0003:00000d58       ??_R0?AUSMemAlloc_Malloc@core@UModSys@@@8 0000000140020d58     umodsys_lib_basesys:umodsys.basesys.rsystem_main.obj
 0003:00000d90       ??_R0?AU?$TRMemAlloc_CC@U?$TMemAllocHeader@USMagic@mem_headers@rsystem@base@UModSys@@U?$TPool@X@2345@USDebug@2345@UVoid@core@5@U895@@rsystem@base@UModSys@@USMemAlloc_Malloc@core@4@@rsystem@base@UModSys@@@8 0000000140020d90     umodsys_lib_basesys:umodsys.basesys.rsystem_main.obj
 0003:00000e68       ??_R0?AUIUniquePointerResolver@core@UModSys@@@8 0000000140020e68     umodsys_lib_basesys:umodsys.basesys.rsystem_main.obj
 0003:00000ea8       ??_R0?AUISourceContextAdapter@core@UModSys@@@8 0000000140020ea8     umodsys_lib_basesys:umodsys.basesys.rsystem_main.obj
 0003:00000ee8       ??_R0?AUISystem@base@UModSys@@@8 0000000140020ee8     umodsys_lib_basesys:umodsys.basesys.rsystem_main.obj
 0003:00000f18       ??_R0?AUIMemAlloc@core@UModSys@@@8 0000000140020f18     umodsys_lib_basesys:umodsys.basesys.rsystem_main.obj
 0003:00000f48       ??_R0?AUEFatal@core@UModSys@@@8 0000000140020f48     umodsys_lib_basesys:umodsys.basesys.rsystem_main.obj
 0003:00000f78       ??_R0?AUEExceptionBase@core@UModSys@@@8 0000000140020f78     umodsys_lib_basesys:umodsys.basesys.rsystem_main.obj
 0003:00000fb0       ??_R0?AUEWarning@core@UModSys@@@8 0000000140020fb0     umodsys_lib_basesys:umodsys.basesys.rsystem_main.obj
 0003:00000fe0       ??_R0?AURModuleLoader@rsystem@base@UModSys@@@8 0000000140020fe0     umodsys_lib_basesys:umodsys.basesys.rmoduleloader.obj
 0003:00001020       ??_R0?AUIModuleLoader@base@UModSys@@@8 0000000140021020     umodsys_lib_basesys:umodsys.basesys.rmoduleloader.obj
 0003:00001058       ??_R0?AUIModuleLibrary@base@UModSys@@@8 0000000140021058     umodsys_lib_basesys:umodsys.basesys.rmodulelibthis.obj
 0003:00001090       ??_R0?AUIModuleLibraryUni@rsystem@base@UModSys@@@8 0000000140021090     umodsys_lib_basesys:umodsys.basesys.rmodulelibthis.obj
 0003:000010d0       ??_R0?AURModuleLibraryThis@rsystem@base@UModSys@@@8 00000001400210d0     umodsys_lib_basesys:umodsys.basesys.rmodulelibthis.obj
 0003:00001110       ??_R0?AURParameters@rsystem@base@UModSys@@@8 0000000140021110     umodsys_lib_basesys:umodsys.basesys.rparameters.obj
 0003:00001148       ??_R0?AUIParameters@core@UModSys@@@8 0000000140021148     umodsys_lib_basesys:umodsys.basesys.rparameters.obj
 0003:00001178       ??_R0?AURModule@rsystem@base@UModSys@@@8 0000000140021178     umodsys_lib_basesys:umodsys.basesys.rmodule.obj
 0003:000011b0       ??_R0?AUIModule@base@UModSys@@@8 00000001400211b0     umodsys_lib_basesys:umodsys.basesys.rmodule.obj
 0003:000011e0       ??_R0?AURModuleLibrarySO@rsystem@base@UModSys@@@8 00000001400211e0     umodsys_lib_basesys:umodsys.basesys.rmodulelibso.obj
 0003:00001220       ??_R0?AUIModuleLibraryReg@base@UModSys@@@8 0000000140021220     umodsys_lib_base:umodsys.base.moduleregchain.obj
 0003:00001258       ??_R0?AURModuleLibraryReg_Chain@base@UModSys@@@8 0000000140021258     umodsys_lib_base:umodsys.base.moduleregchain.obj
 0003:000012a0       _fltused                   00000001400212a0     MSVCRT:dllsupp.obj
 0003:000012d8       _forceCRTManifestRTM       00000001400212d8     MSVCRT:crtmanifestrtm.obj
 0003:000012dc       _dowildcard                00000001400212dc     MSVCRT:wildcard.obj
 0003:000012e0       _newmode                   00000001400212e0     MSVCRT:_newmode.obj
 0003:000012e4       _commode                   00000001400212e4     MSVCRT:xncommod.obj
 0003:000012e8       _fmode                     00000001400212e8     MSVCRT:xtxtmode.obj
 0003:000012ec       ??_B?1??get_null@?$TSCoreShared@USIMemAlloc@core@UModSys@@D@su@tl@UModSys@@SAPEAU?$TSharedStringInfo@DUSIMemAlloc@core@UModSys@@@234@XZ@51 00000001400212ec     umodsys_lib_libmedia:umodsys.mod.media.stdio.obj
 0003:000012f0       ?s_null@?1??get_null@?$TSCoreShared@USIMemAlloc@core@UModSys@@D@su@tl@UModSys@@SAPEAU?$TSharedStringInfo@DUSIMemAlloc@core@UModSys@@@345@XZ@4U6345@A 00000001400212f0     umodsys_lib_libmedia:umodsys.mod.media.stdio.obj
 0003:00001320       ?fmodule@stdio@media@modules@UModSys@@3DA 0000000140021320     umodsys_lib_libmedia:umodsys.mod.media.stdio.obj
 0003:00001321       ?fmodule@stdlib@media@modules@UModSys@@3DA 0000000140021321     umodsys_lib_libmedia:umodsys.mod.media.stdlib.obj
 0003:00001328       ?null_time@core@UModSys@@3_JA 0000000140021328     umodsys_lib_core:umodsys.core.stdtypedefs.obj
 0003:00001340       ?s_modreg@RModuleReg@stdio@media@modules@UModSys@@2U12345@A 0000000140021340     umodsys_lib_libmedia:umodsys.mod.media.stdio.obj
 0003:000013a8       ?s_uid@RGenerator@stdio@media@modules@UModSys@@2USUniquePointer@core@5@A 00000001400213a8     umodsys_lib_libmedia:umodsys.mod.media.stdio.obj
 0003:000013d8       ?auto_flags@RLibraryBinCache@stdlib@media@modules@UModSys@@2U?$TFlags4State@USMediaFlagUid@libmedia@UModSys@@I@tl@5@A 00000001400213d8     umodsys_lib_libmedia:umodsys.mod.media.stdlib.obj
 0003:000013dc       ?auto_flags@RLibraryObjFilter@stdlib@media@modules@UModSys@@2U?$TFlags4State@USMediaFlagUid@libmedia@UModSys@@I@tl@5@A 00000001400213dc     umodsys_lib_libmedia:umodsys.mod.media.stdlib.obj
 0003:000013e0       ?s_modreg@RModuleReg@stdlib@media@modules@UModSys@@2U12345@A 00000001400213e0     umodsys_lib_libmedia:umodsys.mod.media.stdlib.obj
 0003:00001448       ?s_uid@RGenerator@stdlib@media@modules@UModSys@@2USUniquePointer@core@5@A 0000000140021448     umodsys_lib_libmedia:umodsys.mod.media.stdlib.obj
 0003:00001478       ?auto_flags@RLibraryBinTree@stdlib@media@modules@UModSys@@2U?$TFlags4State@USMediaFlagUid@libmedia@UModSys@@I@tl@5@A 0000000140021478     umodsys_lib_libmedia:umodsys.mod.media.stdlib.obj
 0003:0000147c       ?auto_flags@RLibraryObjCache@stdlib@media@modules@UModSys@@2U?$TFlags4State@USMediaFlagUid@libmedia@UModSys@@I@tl@5@A 000000014002147c     umodsys_lib_libmedia:umodsys.mod.media.stdlib.obj
 0003:00001480       ?auto_flags@RBinArchiveFrame@stdlib@media@modules@UModSys@@2U?$TFlags4State@USMediaFlagUid@libmedia@UModSys@@I@tl@5@A 0000000140021480     umodsys_lib_libmedia:umodsys.mod.media.stdlib.obj
 0003:00003498       ?M@UModSys@@3USModuleContext@base@1@A 0000000140023498     umodsys_lib_base:umodsys.base.modulecontext.obj
 0003:000034c0       ?root@SModuleRegChain@base@UModSys@@2U123@A 00000001400234c0     umodsys_lib_base:umodsys.base.moduleregchain.obj
 0003:000034d8       ?root@SUniquePointer@core@UModSys@@2U123@A 00000001400234d8     umodsys_lib_core:umodsys.core.uniqueptr.obj
 0003:00003508       ?rv@?1??get_default@SMemAlloc_Malloc@core@UModSys@@SAAEBU234@XZ@4U234@A 0000000140023508     umodsys_lib_basesys:umodsys.basesys.rsystem_main.obj
 0003:00003510       ?s_null@?1??get_null@?$TSCoreShared@USMemAlloc_Malloc@core@UModSys@@D@su@tl@UModSys@@SAPEAU?$TSharedStringInfo@DUSMemAlloc_Malloc@core@UModSys@@@345@XZ@4U6345@A 0000000140023510     umodsys_lib_basesys:umodsys.basesys.rmodulelib.obj
 0003:00003530       ??_B?1??get_null@?$TSCoreShared@USMemAlloc_Malloc@core@UModSys@@D@su@tl@UModSys@@SAPEAU?$TSharedStringInfo@DUSMemAlloc_Malloc@core@UModSys@@@234@XZ@51 0000000140023530     umodsys_lib_basesys:umodsys.basesys.rmodulelib.obj
 0003:000035b0       ?s_id@?$TObjectUniqueID@UIModObject@base@UModSys@@@tl@UModSys@@2USUniquePointer@core@3@A 00000001400235b0     umodsys.c_main.obj
 0003:000035e0       ?s_null@?$TStaticStringPool@DU?$TComparerBinaryHash@D@su@tl@UModSys@@USMemAlloc_Malloc@core@4@@tl@UModSys@@2U?$TString@U?$TSCoreConst@D@su@tl@UModSys@@U?$TComparerBinaryHash@D@234@@23@A 00000001400235e0     umodsys.c_main.obj
 0003:000035f8       ?s_id@?$TObjectUniqueID@UIGenerator@base@UModSys@@@tl@UModSys@@2USUniquePointer@core@3@A 00000001400235f8     umodsys.c_main.obj
 0003:00003628       ?s_id@?$TObjectUniqueID@UIModule@base@UModSys@@@tl@UModSys@@2USUniquePointer@core@3@A 0000000140023628     umodsys.c_main.obj
 0003:00003658       ?s_id@?$TObjectUniqueID@UIRoot@core@UModSys@@@tl@UModSys@@2USUniquePointer@core@3@A 0000000140023658     umodsys.c_main.obj
 0003:00003688       ?s_id@?$TObjectUniqueID@URConsole_std@rsystem@base@UModSys@@@tl@UModSys@@2USUniquePointer@core@3@A 0000000140023688     umodsys.c_main.obj
 0003:000036b8       ?s_id@?$TObjectUniqueID@UIModuleLibraryUni@rsystem@base@UModSys@@@tl@UModSys@@2USUniquePointer@core@3@A 00000001400236b8     umodsys.c_main.obj
 0003:000036e8       ?s_id@?$TObjectUniqueID@UISystem@base@UModSys@@@tl@UModSys@@2USUniquePointer@core@3@A 00000001400236e8     umodsys.c_main.obj
 0003:00003718       ?s_id@?$TObjectUniqueID@UIRefObject@core@UModSys@@@tl@UModSys@@2USUniquePointer@core@3@A 0000000140023718     umodsys.c_main.obj
 0003:00003748       ?s_id@?$TObjectUniqueID@URModule@rsystem@base@UModSys@@@tl@UModSys@@2USUniquePointer@core@3@A 0000000140023748     umodsys.c_main.obj
 0003:00003778       ?s_id@?$TObjectUniqueID@UIShell@base@UModSys@@@tl@UModSys@@2USUniquePointer@core@3@A 0000000140023778     umodsys.c_main.obj
 0003:000037a8       ?s_id@?$TObjectUniqueID@UIConsole@base@UModSys@@@tl@UModSys@@2USUniquePointer@core@3@A 00000001400237a8     umodsys.c_main.obj
 0003:000037d8       ?s_id@?$TObjectUniqueID@UIModuleLibrary@base@UModSys@@@tl@UModSys@@2USUniquePointer@core@3@A 00000001400237d8     umodsys.c_main.obj
 0003:00003808       ?s_id@?$TObjectUniqueID@URModuleLibraryThis@rsystem@base@UModSys@@@tl@UModSys@@2USUniquePointer@core@3@A 0000000140023808     umodsys.c_main.obj
 0003:00003838       ?s_id@?$TObjectUniqueID@URModuleLibrarySO@rsystem@base@UModSys@@@tl@UModSys@@2USUniquePointer@core@3@A 0000000140023838     umodsys.c_main.obj
 0003:00003868       ?s_id@?$TObjectUniqueID@UIParameters@core@UModSys@@@tl@UModSys@@2USUniquePointer@core@3@A 0000000140023868     umodsys.c_main.obj
 0003:00003898       ?s_id@?$TObjectUniqueID@URSystem@rsystem@base@UModSys@@@tl@UModSys@@2USUniquePointer@core@3@A 0000000140023898     umodsys.c_main.obj
 0003:000038c8       ?s_id@?$TObjectUniqueID@URParameters@rsystem@base@UModSys@@@tl@UModSys@@2USUniquePointer@core@3@A 00000001400238c8     umodsys.c_main.obj
 0003:000038f8       ?s_id@?$TObjectUniqueID@UIUtilities@libmedia@UModSys@@@tl@UModSys@@2USUniquePointer@core@3@A 00000001400238f8     umodsys_lib_libmedia:umodsys.mod.media.stdio.obj
 0003:00003928       ?s_id@?$TObjectUniqueID@UIBinObjFilter@libmedia@UModSys@@@tl@UModSys@@2USUniquePointer@core@3@A 0000000140023928     umodsys_lib_libmedia:umodsys.mod.media.stdio.obj
 0003:00003958       ?s_id@?$TObjectUniqueID@UILibObject@libmedia@UModSys@@@tl@UModSys@@2USUniquePointer@core@3@A 0000000140023958     umodsys_lib_libmedia:umodsys.mod.media.stdio.obj
 0003:00003988       ?s_id@?$TObjectUniqueID@URStreamReader_FILE@stdio@media@modules@UModSys@@@tl@UModSys@@2USUniquePointer@core@3@A 0000000140023988     umodsys_lib_libmedia:umodsys.mod.media.stdio.obj
 0003:000039b8       ?s_id@?$TObjectUniqueID@UIBinArchive@libmedia@UModSys@@@tl@UModSys@@2USUniquePointer@core@3@A 00000001400239b8     umodsys_lib_libmedia:umodsys.mod.media.stdio.obj
 0003:000039e8       ?s_id@?$TObjectUniqueID@UIStreamWriter@libmedia@UModSys@@@tl@UModSys@@2USUniquePointer@core@3@A 00000001400239e8     umodsys_lib_libmedia:umodsys.mod.media.stdio.obj
 0003:00003a18       ?s_id@?$TObjectUniqueID@URStreamWriter_FILE@stdio@media@modules@UModSys@@@tl@UModSys@@2USUniquePointer@core@3@A 0000000140023a18     umodsys_lib_libmedia:umodsys.mod.media.stdio.obj
 0003:00003a48       ?s_id@?$TObjectUniqueID@UILibrary@libmedia@UModSys@@@tl@UModSys@@2USUniquePointer@core@3@A 0000000140023a48     umodsys_lib_libmedia:umodsys.mod.media.stdio.obj
 0003:00003a78       ?s_id@?$TObjectUniqueID@URDataArchiver_OsDir@stdio@media@modules@UModSys@@@tl@UModSys@@2USUniquePointer@core@3@A 0000000140023a78     umodsys_lib_libmedia:umodsys.mod.media.stdio.obj
 0003:00003aa8       ?s_id@?$TObjectUniqueID@URGenerator@stdio@media@modules@UModSys@@@tl@UModSys@@2USUniquePointer@core@3@A 0000000140023aa8     umodsys_lib_libmedia:umodsys.mod.media.stdio.obj
 0003:00003ad8       ?s_id@?$TObjectUniqueID@UIStreamReader@libmedia@UModSys@@@tl@UModSys@@2USUniquePointer@core@3@A 0000000140023ad8     umodsys_lib_libmedia:umodsys.mod.media.stdio.obj
 0003:00003b08       ?s_id@?$TObjectUniqueID@URLibraryObjCache@stdlib@media@modules@UModSys@@@tl@UModSys@@2USUniquePointer@core@3@A 0000000140023b08     umodsys_lib_libmedia:umodsys.mod.media.stdlib.obj
 0003:00003b38       ?s_id@?$TObjectUniqueID@URLibraryBinCache@stdlib@media@modules@UModSys@@@tl@UModSys@@2USUniquePointer@core@3@A 0000000140023b38     umodsys_lib_libmedia:umodsys.mod.media.stdlib.obj
 0003:00003b68       ?s_id@?$TObjectUniqueID@UILibraryBinTree@libmedia@UModSys@@@tl@UModSys@@2USUniquePointer@core@3@A 0000000140023b68     umodsys_lib_libmedia:umodsys.mod.media.stdlib.obj
 0003:00003b98       ?s_id@?$TObjectUniqueID@URGenerator@stdlib@media@modules@UModSys@@@tl@UModSys@@2USUniquePointer@core@3@A 0000000140023b98     umodsys_lib_libmedia:umodsys.mod.media.stdlib.obj
 0003:00003bc8       ?s_id@?$TObjectUniqueID@URLibraryObjFilter@stdlib@media@modules@UModSys@@@tl@UModSys@@2USUniquePointer@core@3@A 0000000140023bc8     umodsys_lib_libmedia:umodsys.mod.media.stdlib.obj
 0003:00003bf8       ?s_id@?$TObjectUniqueID@UIBinArchiveFrame@libmedia@UModSys@@@tl@UModSys@@2USUniquePointer@core@3@A 0000000140023bf8     umodsys_lib_libmedia:umodsys.mod.media.stdlib.obj
 0003:00003c28       ?s_id@?$TObjectUniqueID@URLibraryLayered@stdlib@media@modules@UModSys@@@tl@UModSys@@2USUniquePointer@core@3@A 0000000140023c28     umodsys_lib_libmedia:umodsys.mod.media.stdlib.obj
 0003:00003c58       ?s_id@?$TObjectUniqueID@UILibraryObjCache@libmedia@UModSys@@@tl@UModSys@@2USUniquePointer@core@3@A 0000000140023c58     umodsys_lib_libmedia:umodsys.mod.media.stdlib.obj
 0003:00003c88       ?s_id@?$TObjectUniqueID@UILibraryLayered@libmedia@UModSys@@@tl@UModSys@@2USUniquePointer@core@3@A 0000000140023c88     umodsys_lib_libmedia:umodsys.mod.media.stdlib.obj
 0003:00003cb8       ?s_id@?$TObjectUniqueID@UILibraryBinCache@libmedia@UModSys@@@tl@UModSys@@2USUniquePointer@core@3@A 0000000140023cb8     umodsys_lib_libmedia:umodsys.mod.media.stdlib.obj
 0003:00003ce8       ?s_id@?$TObjectUniqueID@URUtilities@stdlib@media@modules@UModSys@@@tl@UModSys@@2USUniquePointer@core@3@A 0000000140023ce8     umodsys_lib_libmedia:umodsys.mod.media.stdlib.obj
 0003:00003d18       ?s_id@?$TObjectUniqueID@UILibraryObjFilter@libmedia@UModSys@@@tl@UModSys@@2USUniquePointer@core@3@A 0000000140023d18     umodsys_lib_libmedia:umodsys.mod.media.stdlib.obj
 0003:00003d48       ?s_id@?$TObjectUniqueID@UIClient@IBinArchiveFrame@libmedia@UModSys@@@tl@UModSys@@2USUniquePointer@core@3@A 0000000140023d48     umodsys_lib_libmedia:umodsys.mod.media.stdlib.obj
 0003:00003d78       ?s_id@?$TObjectUniqueID@URBinArchiveFrame@stdlib@media@modules@UModSys@@@tl@UModSys@@2USUniquePointer@core@3@A 0000000140023d78     umodsys_lib_libmedia:umodsys.mod.media.stdlib.obj
 0003:00003da8       ?s_id@?$TObjectUniqueID@URLibraryBinTree@stdlib@media@modules@UModSys@@@tl@UModSys@@2USUniquePointer@core@3@A 0000000140023da8     umodsys_lib_libmedia:umodsys.mod.media.stdlib.obj
 0003:00003dd8       __native_startup_state     0000000140023dd8     <common>
 0003:00003de0       __native_startup_lock      0000000140023de0     <common>
 0003:00003de8       __dyn_tls_init_callback    0000000140023de8     <common>
 0003:00003df0       __onexitend                0000000140023df0     <common>
 0003:00003df8       __onexitbegin              0000000140023df8     <common>

 entry point at        0001:00012fe0

 Static symbols

 0001:0000df8c       ?s_pwd_init@@YAXXZ         000000014000ef8c f    CIL library: CIL module
 0001:0000e1ac       ?s_pfd_scan@@YA_KPEAUISystem@base@UModSys@@AEAU?$TDynarrayDynamic@U?$TRefObject@URModuleLibrarySO@rsystem@base@UModSys@@U?$TRefObjectFunc@URModuleLibrarySO@rsystem@base@UModSys@@@tl@4@@tl@UModSys@@U?$TAllocator@USMemAlloc_Malloc@core@UModSys@@USCountCalcPower2@23@@23@@tl@3@PEBD22@Z 000000014000f1ac f    CIL library: CIL module
 0001:00012d10       pre_cpp_init               0000000140013d10 f   MSVCRT:crtexe.obj
 0001:00012d78       __tmainCRTStartup          0000000140013d78 f   MSVCRT:crtexe.obj
 0001:00012ef8       pre_c_init                 0000000140013ef8 f   MSVCRT:crtexe.obj
 0001:00013420       _onexit$fin$0              0000000140014420 f   MSVCRT:atonexit.obj
 0001:00013439       __tmainCRTStartup$filt$0   0000000140014439 f   MSVCRT:crtexe.obj
 0001:00013460       _IsNonwritableInCurrentImage$filt$0 0000000140014460 f   MSVCRT:pesect.obj
 0001:00013481       ?filt$0@?0??__ArrayUnwind@@YAXPEAX_KHP6AX0@Z@Z@4HA 0000000140014481 f   MSVCRT:ehvecdtr.obj
 0001:000134c0       ?fin$0@?0???_M@YAXPEAX_KHP6AX0@Z@Z@4HA 00000001400144c0 f   MSVCRT:ehvecdtr.obj
 0001:000134ea       ?dtor$0@?0??suicide@RModule@rsystem@base@UModSys@@UEAAXXZ@4HA 00000001400144ea f    CIL library: CIL module
 0001:000134ea       ?dtor$0@?0??data_save@RDataArchiver_OsDir@stdio@media@modules@UModSys@@UEAA_NAEBU?$TString@U?$TSCoreConst@D@su@tl@UModSys@@U?$TComparerBinaryHash@D@234@@tl@5@AEBUSCMem@core@5@AEBUSFlags@libmedia@5@@Z@4HA 00000001400144ea f    CIL library: CIL module
 0001:00013502       ?dtor$0@?0???1?$TQuantArrayUnique@USUniquePointerInfo@core@UModSys@@$0BAA@USMemAlloc_Malloc@23@@tl@UModSys@@QEAA@XZ@4HA 0000000140014502 f    CIL library: CIL module
 0001:0001351a       ?dtor$0@?0??data_reader@RBinArchiveFrame@stdlib@media@modules@UModSys@@UEAA?AU?$TRefObject@UIStreamReader@libmedia@UModSys@@U?$TRefObjectFunc@UIStreamReader@libmedia@UModSys@@@tl@3@@tl@5@AEBU?$TString@U?$TSCoreConst@D@su@tl@UModSys@@U?$TComparerBinaryHash@D@234@@75@AEBUSFlags@libmedia@5@@Z@4HA 000000014001451a f    CIL library: CIL module
 0001:0001354a       ?dtor$1@?0??data_reader@RBinArchiveFrame@stdlib@media@modules@UModSys@@UEAA?AU?$TRefObject@UIStreamReader@libmedia@UModSys@@U?$TRefObjectFunc@UIStreamReader@libmedia@UModSys@@@tl@3@@tl@5@AEBU?$TString@U?$TSCoreConst@D@su@tl@UModSys@@U?$TComparerBinaryHash@D@234@@75@AEBUSFlags@libmedia@5@@Z@4HA 000000014001454a f    CIL library: CIL module
 0001:00013570       ?dtor$0@?0??suicide@RBinArchiveFrame@stdlib@media@modules@UModSys@@UEAAXXZ@4HA 0000000140014570 f    CIL library: CIL module
 0001:00013570       ?dtor$0@?0??suicide@RUtilities@stdlib@media@modules@UModSys@@UEAAXXZ@4HA 0000000140014570 f    CIL library: CIL module
 0001:00013570       ?dtor$0@?0??suicide@RLibraryBinTree@stdlib@media@modules@UModSys@@UEAAXXZ@4HA 0000000140014570 f    CIL library: CIL module
 0001:00013570       ?dtor$0@?0??suicide@RLibraryObjFilter@stdlib@media@modules@UModSys@@UEAAXXZ@4HA 0000000140014570 f    CIL library: CIL module
 0001:00013570       ?dtor$0@?0??suicide@RStreamWriter_FILE@stdio@media@modules@UModSys@@UEAAXXZ@4HA 0000000140014570 f    CIL library: CIL module
 0001:00013570       ?dtor$0@?0??suicide@RStreamReader_FILE@stdio@media@modules@UModSys@@UEAAXXZ@4HA 0000000140014570 f    CIL library: CIL module
 0001:00013570       ?dtor$0@?0??suicide@RDataArchiver_OsDir@stdio@media@modules@UModSys@@UEAAXXZ@4HA 0000000140014570 f    CIL library: CIL module
 0001:00013570       ?dtor$0@?0??suicide@RLibraryObjCache@stdlib@media@modules@UModSys@@UEAAXXZ@4HA 0000000140014570 f    CIL library: CIL module
 0001:00013570       ?dtor$0@?0??suicide@RLibraryBinCache@stdlib@media@modules@UModSys@@UEAAXXZ@4HA 0000000140014570 f    CIL library: CIL module
 0001:00013570       ?dtor$0@?0??suicide@RLibraryLayered@stdlib@media@modules@UModSys@@UEAAXXZ@4HA 0000000140014570 f    CIL library: CIL module
 0001:00013588       ?dtor$0@?0???0RStreamReader_FILE@stdio@media@modules@UModSys@@QEAA@PEAUIModObject@base@4@AEBUSParameters@core@4@@Z@4HA 0000000140014588 f    CIL library: CIL module
 0001:00013588       ?dtor$0@?0???0RStreamWriter_FILE@stdio@media@modules@UModSys@@QEAA@PEAUIModObject@base@4@AEBUSParameters@core@4@@Z@4HA 0000000140014588 f    CIL library: CIL module
 0001:000135a0       ?dtor$0@?0???_GRModuleLibraryThis@rsystem@base@UModSys@@UEAAPEAXI@Z@4HA 00000001400145a0 f    CIL library: CIL module
 0001:000135a0       ?dtor$0@?0???_GRModuleLibrarySO@rsystem@base@UModSys@@UEAAPEAXI@Z@4HA 00000001400145a0 f    CIL library: CIL module
 0001:000135b8       ?dtor$0@?0???1RModuleLoader@rsystem@base@UModSys@@UEAA@XZ@4HA 00000001400145b8 f    CIL library: CIL module
 0001:000135d8       ?dtor$1@?0???1RModuleLoader@rsystem@base@UModSys@@UEAA@XZ@4HA 00000001400145d8 f    CIL library: CIL module
 0001:000135f8       ?dtor$2@?0???1RModuleLoader@rsystem@base@UModSys@@UEAA@XZ@4HA 00000001400145f8 f    CIL library: CIL module
 0001:00013614       ?dtor$0@?0???1RSystem@rsystem@base@UModSys@@UEAA@XZ@4HA 0000000140014614 f    CIL library: CIL module
 0001:00013634       ?dtor$1@?0???1RSystem@rsystem@base@UModSys@@UEAA@XZ@4HA 0000000140014634 f    CIL library: CIL module
 0001:00013654       ?dtor$2@?0???1RSystem@rsystem@base@UModSys@@UEAA@XZ@4HA 0000000140014654 f    CIL library: CIL module
 0001:00013674       ?dtor$3@?0???1RSystem@rsystem@base@UModSys@@UEAA@XZ@4HA 0000000140014674 f    CIL library: CIL module
 0001:00013694       ?dtor$4@?0???1RSystem@rsystem@base@UModSys@@UEAA@XZ@4HA 0000000140014694 f    CIL library: CIL module
 0001:000136b4       ?dtor$5@?0???1RSystem@rsystem@base@UModSys@@UEAA@XZ@4HA 00000001400146b4 f    CIL library: CIL module
 0001:000136d4       ?dtor$9@?0???1RSystem@rsystem@base@UModSys@@UEAA@XZ@4HA 00000001400146d4 f    CIL library: CIL module
 0001:000136f4       ?dtor$10@?0???1RSystem@rsystem@base@UModSys@@UEAA@XZ@4HA 00000001400146f4 f    CIL library: CIL module
 0001:0001370c       ?dtor$0@?0???R?$TScatterArray@USFilter@RLibraryObjFilter@stdlib@media@modules@UModSys@@USId@23456@U723456@U?$TNodeDeleter0@U?$TScatterArrayNode@USFilter@RLibraryObjFilter@stdlib@media@modules@UModSys@@USId@23456@@tl@UModSys@@@tl@6@@tl@UModSys@@QEAAPEAUSFilter@RLibraryObjFilter@stdlib@media@modules@2@AEBUSId@45672@PEAUVoid@core@2@@Z@4HA 000000014001470c f    CIL library: CIL module
 0001:0001372c       ?dtor$1@?0???R?$TScatterArray@USFilter@RLibraryObjFilter@stdlib@media@modules@UModSys@@USId@23456@U723456@U?$TNodeDeleter0@U?$TScatterArrayNode@USFilter@RLibraryObjFilter@stdlib@media@modules@UModSys@@USId@23456@@tl@UModSys@@@tl@6@@tl@UModSys@@QEAAPEAUSFilter@RLibraryObjFilter@stdlib@media@modules@2@AEBUSId@45672@PEAUVoid@core@2@@Z@4HA 000000014001472c f    CIL library: CIL module
 0001:0001374c       ?dtor$2@?0???R?$TScatterArray@USFilter@RLibraryObjFilter@stdlib@media@modules@UModSys@@USId@23456@U723456@U?$TNodeDeleter0@U?$TScatterArrayNode@USFilter@RLibraryObjFilter@stdlib@media@modules@UModSys@@USId@23456@@tl@UModSys@@@tl@6@@tl@UModSys@@QEAAPEAUSFilter@RLibraryObjFilter@stdlib@media@modules@2@AEBUSId@45672@PEAUVoid@core@2@@Z@4HA 000000014001474c f    CIL library: CIL module
 0001:00013768       ?dtor$0@?0??filters_add@RLibraryObjFilter@stdlib@media@modules@UModSys@@UEAA_NU?$TRefObject@UIBinObjFilter@libmedia@UModSys@@U?$TRefObjectFunc@UIBinObjFilter@libmedia@UModSys@@@tl@3@@tl@5@PEBUSParameters@core@5@H@Z@4HA 0000000140014768 f    CIL library: CIL module
 0001:00013780       ?dtor$0@?0??bin_reader@RLibraryBinTree@stdlib@media@modules@UModSys@@UEAA?AU?$TRefObject@UIStreamReader@libmedia@UModSys@@U?$TRefObjectFunc@UIStreamReader@libmedia@UModSys@@@tl@3@@tl@5@AEBU?$TString@U?$TSCoreConst@D@su@tl@UModSys@@U?$TComparerBinaryHash@D@234@@75@AEBUSFlags@libmedia@5@@Z@4HA 0000000140014780 f    CIL library: CIL module
 0001:00013780       ?dtor$0@?0??bin_writer@RLibraryBinTree@stdlib@media@modules@UModSys@@UEAA?AU?$TRefObject@UIStreamWriter@libmedia@UModSys@@U?$TRefObjectFunc@UIStreamWriter@libmedia@UModSys@@@tl@3@@tl@5@AEBU?$TString@U?$TSCoreConst@D@su@tl@UModSys@@U?$TComparerBinaryHash@D@234@@75@AEBUSFlags@libmedia@5@@Z@4HA 0000000140014780 f    CIL library: CIL module
 0001:00013798       ?dtor$0@?0???1IBinArchiveFrame@libmedia@UModSys@@UEAA@XZ@4HA 0000000140014798 f    CIL library: CIL module
 0001:000137b8       ?dtor$1@?0???1IBinArchiveFrame@libmedia@UModSys@@UEAA@XZ@4HA 00000001400147b8 f    CIL library: CIL module
 0001:000137d8       ?dtor$2@?0???1IBinArchiveFrame@libmedia@UModSys@@UEAA@XZ@4HA 00000001400147d8 f    CIL library: CIL module
 0001:000137f8       ?dtor$5@?0???1IBinArchiveFrame@libmedia@UModSys@@UEAA@XZ@4HA 00000001400147f8 f    CIL library: CIL module
 0001:00013810       ?dtor$0@?0??archive_load_data@libmedia@UModSys@@YA_NAEAUIBinArchive@12@AEBU?$TString@U?$TSCoreConst@D@su@tl@UModSys@@U?$TComparerBinaryHash@D@234@@tl@2@AEAUSCMemShared@core@2@AEBUSFlags@12@@Z@4HA 0000000140014810 f    CIL library: CIL module
 0001:00013830       ?dtor$1@?0??archive_load_data@libmedia@UModSys@@YA_NAEAUIBinArchive@12@AEBU?$TString@U?$TSCoreConst@D@su@tl@UModSys@@U?$TComparerBinaryHash@D@234@@tl@2@AEAUSCMemShared@core@2@AEBUSFlags@12@@Z@4HA 0000000140014830 f    CIL library: CIL module
 0001:00013848       ?dtor$0@?0???$t_gen_param@URBinArchiveFrame@stdlib@media@modules@UModSys@@URGenerator@2345@@IGenerator@base@UModSys@@IEAA_NPEAURGenerator@stdlib@media@modules@2@AEAU?$TRefObject@UIRefObject@core@UModSys@@U?$TRefObjectFunc@UIRefObject@core@UModSys@@@tl@3@@tl@2@PEBUSUniquePointerInfo@core@2@AEBUSParameters@core@2@@Z@4HA 0000000140014848 f    CIL library: CIL module
 0001:00013848       ?dtor$0@?0???$t_gen_param@URStreamWriter_FILE@stdio@media@modules@UModSys@@URGenerator@2345@@IGenerator@base@UModSys@@IEAA_NPEAURGenerator@stdio@media@modules@2@AEAU?$TRefObject@UIRefObject@core@UModSys@@U?$TRefObjectFunc@UIRefObject@core@UModSys@@@tl@3@@tl@2@PEBUSUniquePointerInfo@core@2@AEBUSParameters@core@2@@Z@4HA 0000000140014848 f    CIL library: CIL module
 0001:00013868       ?dtor$1@?0???$t_gen_param@URStreamWriter_FILE@stdio@media@modules@UModSys@@URGenerator@2345@@IGenerator@base@UModSys@@IEAA_NPEAURGenerator@stdio@media@modules@2@AEAU?$TRefObject@UIRefObject@core@UModSys@@U?$TRefObjectFunc@UIRefObject@core@UModSys@@@tl@3@@tl@2@PEBUSUniquePointerInfo@core@2@AEBUSParameters@core@2@@Z@4HA 0000000140014868 f    CIL library: CIL module
 0001:00013868       ?dtor$1@?0???$t_gen_param@URBinArchiveFrame@stdlib@media@modules@UModSys@@URGenerator@2345@@IGenerator@base@UModSys@@IEAA_NPEAURGenerator@stdlib@media@modules@2@AEAU?$TRefObject@UIRefObject@core@UModSys@@U?$TRefObjectFunc@UIRefObject@core@UModSys@@@tl@3@@tl@2@PEBUSUniquePointerInfo@core@2@AEBUSParameters@core@2@@Z@4HA 0000000140014868 f    CIL library: CIL module
 0001:00013880       ?dtor$1@?0???1?$TPair@U?$TString@U?$TSCoreConst@D@su@tl@UModSys@@U?$TComparerBinaryHash@D@234@@tl@UModSys@@USCacheElem@RLibraryBinCache@stdlib@media@modules@3@@tl@UModSys@@QEAA@XZ@4HA 0000000140014880 f    CIL library: CIL module
 0001:00013880       ?dtor$0@?0???1SCacheElem@RLibraryObjCache@stdlib@media@modules@UModSys@@QEAA@XZ@4HA 0000000140014880 f    CIL library: CIL module
 0001:00013880       ?dtor$0@?0???1SCacheElem@RLibraryBinCache@stdlib@media@modules@UModSys@@QEAA@XZ@4HA 0000000140014880 f    CIL library: CIL module
 0001:00013880       ?dtor$1@?0???1?$TPair@U?$TString@U?$TSCoreConst@D@su@tl@UModSys@@U?$TComparerBinaryHash@D@234@@tl@UModSys@@USCacheElem@RLibraryObjCache@stdlib@media@modules@3@@tl@UModSys@@QEAA@XZ@4HA 0000000140014880 f    CIL library: CIL module
 0001:00013880       ?dtor$0@?0???0?$TString@U?$TSCoreShared@USIMemAlloc@core@UModSys@@D@su@tl@UModSys@@U?$TComparerBinaryHash@D@234@@tl@UModSys@@QEAA@AEBU?$TSCoreConst@D@su@12@@Z@4HA 0000000140014880 f    CIL library: CIL module
 0001:00013898       ?dtor$0@?0???1SMountInfo@RLibraryBinTree@stdlib@media@modules@UModSys@@QEAA@XZ@4HA 0000000140014898 f    CIL library: CIL module
 0001:00013898       ?dtor$1@?0???1?$TPair@USId@ILibraryBinTree@libmedia@UModSys@@USMountInfo@RLibraryBinTree@stdlib@media@modules@4@@tl@UModSys@@QEAA@XZ@4HA 0000000140014898 f    CIL library: CIL module
 0001:00013898       ?dtor$2@?0???$process_nodes_r@U?$TNodeDeleter0@U?$TScatterArrayNode@USMountInfo@RLibraryBinTree@stdlib@media@modules@UModSys@@USId@ILibraryBinTree@libmedia@6@@tl@UModSys@@@tl@UModSys@@@?$TTreeHoldRB@U?$TScatterArrayNode@USMountInfo@RLibraryBinTree@stdlib@media@modules@UModSys@@USId@ILibraryBinTree@libmedia@6@@tl@UModSys@@@tl@UModSys@@KAHPEAU?$TScatterArrayNode@USMountInfo@RLibraryBinTree@stdlib@media@modules@UModSys@@USId@ILibraryBinTree@libmedia@6@@12@AEBU?$TNodeDeleter0@U?$TScatterArrayNode@USMountInfo@RLibraryBinTree@stdlib@media@modules@UModSys@@USId@ILibraryBinTree@libmedia@6@@tl@UModSys@@@12@@Z@4HA 0000000140014898 f    CIL library: CIL module
 0001:000138b0       ?dtor$2@?0??delete_node@?$TTreeHoldRBD@U?$TScatterArrayNode@USCacheElem@RLibraryObjCache@stdlib@media@modules@UModSys@@U?$TString@U?$TSCoreConst@D@su@tl@UModSys@@U?$TComparerBinaryHash@D@234@@tl@6@@tl@UModSys@@U?$TNodeDeleter0@U?$TScatterArrayNode@USCacheElem@RLibraryObjCache@stdlib@media@modules@UModSys@@U?$TString@U?$TSCoreConst@D@su@tl@UModSys@@U?$TComparerBinaryHash@D@234@@tl@6@@tl@UModSys@@@23@@tl@UModSys@@QEAAXPEAU?$TScatterArrayNode@USCacheElem@RLibraryObjCache@stdlib@media@modules@UModSys@@U?$TString@U?$TSCoreConst@D@su@tl@UModSys@@U?$TComparerBinaryHash@D@234@@tl@6@@23@@Z@4HA 00000001400148b0 f    CIL library: CIL module
 0001:000138b0       ?dtor$2@?0??delete_node@?$TTreeHoldRBD@U?$TScatterArrayNode@USCacheElem@RLibraryBinCache@stdlib@media@modules@UModSys@@U?$TString@U?$TSCoreConst@D@su@tl@UModSys@@U?$TComparerBinaryHash@D@234@@tl@6@@tl@UModSys@@U?$TNodeDeleter0@U?$TScatterArrayNode@USCacheElem@RLibraryBinCache@stdlib@media@modules@UModSys@@U?$TString@U?$TSCoreConst@D@su@tl@UModSys@@U?$TComparerBinaryHash@D@234@@tl@6@@tl@UModSys@@@23@@tl@UModSys@@QEAAXPEAU?$TScatterArrayNode@USCacheElem@RLibraryBinCache@stdlib@media@modules@UModSys@@U?$TString@U?$TSCoreConst@D@su@tl@UModSys@@U?$TComparerBinaryHash@D@234@@tl@6@@23@@Z@4HA 00000001400148b0 f    CIL library: CIL module
 0001:000138c8       ?dtor$2@?0??delete_node@?$TTreeHoldRBD@U?$TScatterArrayNode@USMountInfo@RLibraryBinTree@stdlib@media@modules@UModSys@@USId@ILibraryBinTree@libmedia@6@@tl@UModSys@@U?$TNodeDeleter0@U?$TScatterArrayNode@USMountInfo@RLibraryBinTree@stdlib@media@modules@UModSys@@USId@ILibraryBinTree@libmedia@6@@tl@UModSys@@@23@@tl@UModSys@@QEAAXPEAU?$TScatterArrayNode@USMountInfo@RLibraryBinTree@stdlib@media@modules@UModSys@@USId@ILibraryBinTree@libmedia@6@@23@@Z@4HA 00000001400148c8 f    CIL library: CIL module
 0001:000138e0       ?dtor$0@?0??obj_get@RLibraryLayered@stdlib@media@modules@UModSys@@UEAA_NAEBU?$TString@U?$TSCoreConst@D@su@tl@UModSys@@U?$TComparerBinaryHash@D@234@@tl@5@AEAU?$TRefObject@UIRefObject@core@UModSys@@U?$TRefObjectFunc@UIRefObject@core@UModSys@@@tl@3@@75@AEBUSObjOptions@ILibrary@libmedia@5@@Z@4HA 00000001400148e0 f    CIL library: CIL module
 0001:000138e0       ?dtor$0@?0??bincache_add@RLibraryBinCache@stdlib@media@modules@UModSys@@UEAA_NAEBU?$TString@U?$TSCoreConst@D@su@tl@UModSys@@U?$TComparerBinaryHash@D@234@@tl@5@@Z@4HA 00000001400148e0 f    CIL library: CIL module
 0001:000138f8       ?dtor$0@?0??bin_save@RLibraryLayered@stdlib@media@modules@UModSys@@UEAA_NAEBU?$TString@U?$TSCoreConst@D@su@tl@UModSys@@U?$TComparerBinaryHash@D@234@@tl@5@AEBUSCMem@core@5@AEBUSFlags@libmedia@5@@Z@4HA 00000001400148f8 f    CIL library: CIL module
 0001:00013918       ?dtor$1@?0??bin_save@RLibraryLayered@stdlib@media@modules@UModSys@@UEAA_NAEBU?$TString@U?$TSCoreConst@D@su@tl@UModSys@@U?$TComparerBinaryHash@D@234@@tl@5@AEBUSCMem@core@5@AEBUSFlags@libmedia@5@@Z@4HA 0000000140014918 f    CIL library: CIL module
 0001:00013933       ?dtor$0@?0??bin_writer@RLibraryLayered@stdlib@media@modules@UModSys@@UEAA?AU?$TRefObject@UIStreamWriter@libmedia@UModSys@@U?$TRefObjectFunc@UIStreamWriter@libmedia@UModSys@@@tl@3@@tl@5@AEBU?$TString@U?$TSCoreConst@D@su@tl@UModSys@@U?$TComparerBinaryHash@D@234@@75@AEBUSFlags@libmedia@5@@Z@4HA 0000000140014933 f    CIL library: CIL module
 0001:00013933       ?dtor$0@?0??bin_reader@RLibraryLayered@stdlib@media@modules@UModSys@@UEAA?AU?$TRefObject@UIStreamReader@libmedia@UModSys@@U?$TRefObjectFunc@UIStreamReader@libmedia@UModSys@@@tl@3@@tl@5@AEBU?$TString@U?$TSCoreConst@D@su@tl@UModSys@@U?$TComparerBinaryHash@D@234@@75@AEBUSFlags@libmedia@5@@Z@4HA 0000000140014933 f    CIL library: CIL module
 0001:0001394b       ?dtor$0@?0???0RBinArchiveFrame@stdlib@media@modules@UModSys@@QEAA@PEAUIModObject@base@4@AEBUSParameters@core@4@U?$TFlags4State@USMediaFlagUid@libmedia@UModSys@@I@tl@4@@Z@4HA 000000014001494b f    CIL library: CIL module
 0001:0001394b       ?dtor$0@?0???_GRBinArchiveFrame@stdlib@media@modules@UModSys@@UEAAPEAXI@Z@4HA 000000014001494b f    CIL library: CIL module
 0001:0001396b       ?dtor$1@?0???0RBinArchiveFrame@stdlib@media@modules@UModSys@@QEAA@PEAUIModObject@base@4@AEBUSParameters@core@4@U?$TFlags4State@USMediaFlagUid@libmedia@UModSys@@I@tl@4@@Z@4HA 000000014001496b f    CIL library: CIL module
 0001:0001396b       ?dtor$1@?0???_GRBinArchiveFrame@stdlib@media@modules@UModSys@@UEAAPEAXI@Z@4HA 000000014001496b f    CIL library: CIL module
 0001:0001398b       ?dtor$2@?0???_GRBinArchiveFrame@stdlib@media@modules@UModSys@@UEAAPEAXI@Z@4HA 000000014001498b f    CIL library: CIL module
 0001:0001398b       ?dtor$2@?0???0RBinArchiveFrame@stdlib@media@modules@UModSys@@QEAA@PEAUIModObject@base@4@AEBUSParameters@core@4@U?$TFlags4State@USMediaFlagUid@libmedia@UModSys@@I@tl@4@@Z@4HA 000000014001498b f    CIL library: CIL module
 0001:000139ab       ?dtor$3@?0???_GRBinArchiveFrame@stdlib@media@modules@UModSys@@UEAAPEAXI@Z@4HA 00000001400149ab f    CIL library: CIL module
 0001:000139ab       ?dtor$3@?0???0RBinArchiveFrame@stdlib@media@modules@UModSys@@QEAA@PEAUIModObject@base@4@AEBUSParameters@core@4@U?$TFlags4State@USMediaFlagUid@libmedia@UModSys@@I@tl@4@@Z@4HA 00000001400149ab f    CIL library: CIL module
 0001:000139ca       ?dtor$0@?0??openr@RBinArchiveFrame@stdlib@media@modules@UModSys@@QEAA_NPEAUILibrary@libmedia@5@AEBU?$TString@U?$TSCoreConst@D@su@tl@UModSys@@U?$TComparerBinaryHash@D@234@@tl@5@PEBUSParameters@core@5@@Z@4HA 00000001400149ca f    CIL library: CIL module
 0001:000139e2       ?dtor$0@?0??open@RBinArchiveFrame@stdlib@media@modules@UModSys@@UEAA_NPEAUIClient@IBinArchiveFrame@libmedia@5@PEBUSParameters@core@5@@Z@4HA 00000001400149e2 f    CIL library: CIL module
 0001:00013a02       ?dtor$1@?0??open@RBinArchiveFrame@stdlib@media@modules@UModSys@@UEAA_NPEAUIClient@IBinArchiveFrame@libmedia@5@PEBUSParameters@core@5@@Z@4HA 0000000140014a02 f    CIL library: CIL module
 0001:00013a22       ?dtor$2@?0??open@RBinArchiveFrame@stdlib@media@modules@UModSys@@UEAA_NPEAUIClient@IBinArchiveFrame@libmedia@5@PEBUSParameters@core@5@@Z@4HA 0000000140014a22 f    CIL library: CIL module
 0001:00013a3a       ?dtor$0@?0???1SFileInfo@libmedia@UModSys@@QEAA@XZ@4HA 0000000140014a3a f    CIL library: CIL module
 0001:00013a5a       ?dtor$1@?0???1SFileInfo@libmedia@UModSys@@QEAA@XZ@4HA 0000000140014a5a f    CIL library: CIL module
 0001:00013a76       ?dtor$0@?0??data_writer@RDataArchiver_OsDir@stdio@media@modules@UModSys@@UEAA?AU?$TRefObject@UIStreamWriter@libmedia@UModSys@@U?$TRefObjectFunc@UIStreamWriter@libmedia@UModSys@@@tl@3@@tl@5@AEBU?$TString@U?$TSCoreConst@D@su@tl@UModSys@@U?$TComparerBinaryHash@D@234@@75@AEBUSFlags@libmedia@5@@Z@4HA 0000000140014a76 f    CIL library: CIL module
 0001:00013aa6       ?dtor$1@?0??data_writer@RDataArchiver_OsDir@stdio@media@modules@UModSys@@UEAA?AU?$TRefObject@UIStreamWriter@libmedia@UModSys@@U?$TRefObjectFunc@UIStreamWriter@libmedia@UModSys@@@tl@3@@tl@5@AEBU?$TString@U?$TSCoreConst@D@su@tl@UModSys@@U?$TComparerBinaryHash@D@234@@75@AEBUSFlags@libmedia@5@@Z@4HA 0000000140014aa6 f    CIL library: CIL module
 0001:00013ac6       ?dtor$2@?0??data_writer@RDataArchiver_OsDir@stdio@media@modules@UModSys@@UEAA?AU?$TRefObject@UIStreamWriter@libmedia@UModSys@@U?$TRefObjectFunc@UIStreamWriter@libmedia@UModSys@@@tl@3@@tl@5@AEBU?$TString@U?$TSCoreConst@D@su@tl@UModSys@@U?$TComparerBinaryHash@D@234@@75@AEBUSFlags@libmedia@5@@Z@4HA 0000000140014ac6 f    CIL library: CIL module
 0001:00013ae6       ?dtor$3@?0??data_writer@RDataArchiver_OsDir@stdio@media@modules@UModSys@@UEAA?AU?$TRefObject@UIStreamWriter@libmedia@UModSys@@U?$TRefObjectFunc@UIStreamWriter@libmedia@UModSys@@@tl@3@@tl@5@AEBU?$TString@U?$TSCoreConst@D@su@tl@UModSys@@U?$TComparerBinaryHash@D@234@@75@AEBUSFlags@libmedia@5@@Z@4HA 0000000140014ae6 f    CIL library: CIL module
 0001:00013b06       ?dtor$4@?0??data_writer@RDataArchiver_OsDir@stdio@media@modules@UModSys@@UEAA?AU?$TRefObject@UIStreamWriter@libmedia@UModSys@@U?$TRefObjectFunc@UIStreamWriter@libmedia@UModSys@@@tl@3@@tl@5@AEBU?$TString@U?$TSCoreConst@D@su@tl@UModSys@@U?$TComparerBinaryHash@D@234@@75@AEBUSFlags@libmedia@5@@Z@4HA 0000000140014b06 f    CIL library: CIL module
 0001:00013b1e       ?dtor$0@?0??data_reader@RDataArchiver_OsDir@stdio@media@modules@UModSys@@UEAA?AU?$TRefObject@UIStreamReader@libmedia@UModSys@@U?$TRefObjectFunc@UIStreamReader@libmedia@UModSys@@@tl@3@@tl@5@AEBU?$TString@U?$TSCoreConst@D@su@tl@UModSys@@U?$TComparerBinaryHash@D@234@@75@AEBUSFlags@libmedia@5@@Z@4HA 0000000140014b1e f    CIL library: CIL module
 0001:00013b4e       ?dtor$1@?0??data_reader@RDataArchiver_OsDir@stdio@media@modules@UModSys@@UEAA?AU?$TRefObject@UIStreamReader@libmedia@UModSys@@U?$TRefObjectFunc@UIStreamReader@libmedia@UModSys@@@tl@3@@tl@5@AEBU?$TString@U?$TSCoreConst@D@su@tl@UModSys@@U?$TComparerBinaryHash@D@234@@75@AEBUSFlags@libmedia@5@@Z@4HA 0000000140014b4e f    CIL library: CIL module
 0001:00013b6e       ?dtor$2@?0??data_reader@RDataArchiver_OsDir@stdio@media@modules@UModSys@@UEAA?AU?$TRefObject@UIStreamReader@libmedia@UModSys@@U?$TRefObjectFunc@UIStreamReader@libmedia@UModSys@@@tl@3@@tl@5@AEBU?$TString@U?$TSCoreConst@D@su@tl@UModSys@@U?$TComparerBinaryHash@D@234@@75@AEBUSFlags@libmedia@5@@Z@4HA 0000000140014b6e f    CIL library: CIL module
 0001:00013b8e       ?dtor$3@?0??data_reader@RDataArchiver_OsDir@stdio@media@modules@UModSys@@UEAA?AU?$TRefObject@UIStreamReader@libmedia@UModSys@@U?$TRefObjectFunc@UIStreamReader@libmedia@UModSys@@@tl@3@@tl@5@AEBU?$TString@U?$TSCoreConst@D@su@tl@UModSys@@U?$TComparerBinaryHash@D@234@@75@AEBUSFlags@libmedia@5@@Z@4HA 0000000140014b8e f    CIL library: CIL module
 0001:00013bae       ?dtor$4@?0??data_reader@RDataArchiver_OsDir@stdio@media@modules@UModSys@@UEAA?AU?$TRefObject@UIStreamReader@libmedia@UModSys@@U?$TRefObjectFunc@UIStreamReader@libmedia@UModSys@@@tl@3@@tl@5@AEBU?$TString@U?$TSCoreConst@D@su@tl@UModSys@@U?$TComparerBinaryHash@D@234@@75@AEBUSFlags@libmedia@5@@Z@4HA 0000000140014bae f    CIL library: CIL module
 0001:00013bc6       ?dtor$0@?0???0RDataArchiver_OsDir@stdio@media@modules@UModSys@@QEAA@PEAUIModObject@base@4@AEBUSParameters@core@4@U?$TFlags4State@USMediaFlagUid@libmedia@UModSys@@I@tl@4@@Z@4HA 0000000140014bc6 f    CIL library: CIL module
 0001:00013be6       ?dtor$1@?0???0RDataArchiver_OsDir@stdio@media@modules@UModSys@@QEAA@PEAUIModObject@base@4@AEBUSParameters@core@4@U?$TFlags4State@USMediaFlagUid@libmedia@UModSys@@I@tl@4@@Z@4HA 0000000140014be6 f    CIL library: CIL module
 0001:00013c05       ?dtor$2@?0???1ILibraryBinCache@libmedia@UModSys@@UEAA@XZ@4HA 0000000140014c05 f    CIL library: CIL module
 0001:00013c05       ?dtor$2@?0???1ILibraryObjCache@libmedia@UModSys@@UEAA@XZ@4HA 0000000140014c05 f    CIL library: CIL module
 0001:00013c05       ?dtor$2@?0???1ILibraryObjFilter@libmedia@UModSys@@UEAA@XZ@4HA 0000000140014c05 f    CIL library: CIL module
 0001:00013c05       ?dtor$0@?0???_GRStreamWriter_FILE@stdio@media@modules@UModSys@@UEAAPEAXI@Z@4HA 0000000140014c05 f    CIL library: CIL module
 0001:00013c05       ?dtor$2@?0???1ILibraryBinTree@libmedia@UModSys@@UEAA@XZ@4HA 0000000140014c05 f    CIL library: CIL module
 0001:00013c05       ?dtor$1@?0???1IBinArchive@libmedia@UModSys@@UEAA@XZ@4HA 0000000140014c05 f    CIL library: CIL module
 0001:00013c05       ?dtor$2@?0???1ILibraryLayered@libmedia@UModSys@@UEAA@XZ@4HA 0000000140014c05 f    CIL library: CIL module
 0001:00013c1d       ?dtor$0@?0??link@IModuleLibraryUni@rsystem@base@UModSys@@QEAA_NXZ@4HA 0000000140014c1d f    CIL library: CIL module
 0001:00013c3d       ?dtor$2@?0??link@IModuleLibraryUni@rsystem@base@UModSys@@QEAA_NXZ@4HA 0000000140014c3d f    CIL library: CIL module
 0001:00013c5d       ?dtor$3@?0??link@IModuleLibraryUni@rsystem@base@UModSys@@QEAA_NXZ@4HA 0000000140014c5d f    CIL library: CIL module
 0001:00013c7d       ?dtor$4@?0??link@IModuleLibraryUni@rsystem@base@UModSys@@QEAA_NXZ@4HA 0000000140014c7d f    CIL library: CIL module
 0001:00013c9d       ?dtor$5@?0??link@IModuleLibraryUni@rsystem@base@UModSys@@QEAA_NXZ@4HA 0000000140014c9d f    CIL library: CIL module
 0001:00013cbc       ?dtor$0@?0??exec_test_shells@RSystem@rsystem@base@UModSys@@QEAA_NXZ@4HA 0000000140014cbc f    CIL library: CIL module
 0001:00013cdc       ?dtor$1@?0??exec_test_shells@RSystem@rsystem@base@UModSys@@QEAA_NXZ@4HA 0000000140014cdc f    CIL library: CIL module
 0001:00013cfc       ?dtor$3@?0??exec_test_shells@RSystem@rsystem@base@UModSys@@QEAA_NXZ@4HA 0000000140014cfc f    CIL library: CIL module
 0001:00013d17       ?dtor$2@?0???$process_nodes_r@U?$TNodeDeleter0@U?$TScatterArrayNode@USCacheElem@RLibraryBinCache@stdlib@media@modules@UModSys@@U?$TString@U?$TSCoreConst@D@su@tl@UModSys@@U?$TComparerBinaryHash@D@234@@tl@6@@tl@UModSys@@@tl@UModSys@@@?$TTreeHoldRB@U?$TScatterArrayNode@USCacheElem@RLibraryBinCache@stdlib@media@modules@UModSys@@U?$TString@U?$TSCoreConst@D@su@tl@UModSys@@U?$TComparerBinaryHash@D@234@@tl@6@@tl@UModSys@@@tl@UModSys@@KAHPEAU?$TScatterArrayNode@USCacheElem@RLibraryBinCache@stdlib@media@modules@UModSys@@U?$TString@U?$TSCoreConst@D@su@tl@UModSys@@U?$TComparerBinaryHash@D@234@@tl@6@@12@AEBU?$TNodeDeleter0@U?$TScatterArrayNode@USCacheElem@RLibraryBinCache@stdlib@media@modules@UModSys@@U?$TString@U?$TSCoreConst@D@su@tl@UModSys@@U?$TComparerBinaryHash@D@234@@tl@6@@tl@UModSys@@@12@@Z@4HA 0000000140014d17 f    CIL library: CIL module
 0001:00013d17       ?dtor$2@?0???$process_nodes_r@U?$TNodeDeleter0@U?$TScatterArrayNode@USCacheElem@RLibraryObjCache@stdlib@media@modules@UModSys@@U?$TString@U?$TSCoreConst@D@su@tl@UModSys@@U?$TComparerBinaryHash@D@234@@tl@6@@tl@UModSys@@@tl@UModSys@@@?$TTreeHoldRB@U?$TScatterArrayNode@USCacheElem@RLibraryObjCache@stdlib@media@modules@UModSys@@U?$TString@U?$TSCoreConst@D@su@tl@UModSys@@U?$TComparerBinaryHash@D@234@@tl@6@@tl@UModSys@@@tl@UModSys@@KAHPEAU?$TScatterArrayNode@USCacheElem@RLibraryObjCache@stdlib@media@modules@UModSys@@U?$TString@U?$TSCoreConst@D@su@tl@UModSys@@U?$TComparerBinaryHash@D@234@@tl@6@@12@AEBU?$TNodeDeleter0@U?$TScatterArrayNode@USCacheElem@RLibraryObjCache@stdlib@media@modules@UModSys@@U?$TString@U?$TSCoreConst@D@su@tl@UModSys@@U?$TComparerBinaryHash@D@234@@tl@6@@tl@UModSys@@@12@@Z@4HA 0000000140014d17 f    CIL library: CIL module
 0001:00013d2f       ?dtor$0@?0???$t_gen_param@URUtilities@stdlib@media@modules@UModSys@@URGenerator@2345@@IGenerator@base@UModSys@@IEAA_NPEAURGenerator@stdlib@media@modules@2@AEAU?$TRefObject@UIRefObject@core@UModSys@@U?$TRefObjectFunc@UIRefObject@core@UModSys@@@tl@3@@tl@2@PEBUSUniquePointerInfo@core@2@AEBUSParameters@core@2@@Z@4HA 0000000140014d2f f    CIL library: CIL module
 0001:00013d4f       ?dtor$1@?0???$t_gen_param@URUtilities@stdlib@media@modules@UModSys@@URGenerator@2345@@IGenerator@base@UModSys@@IEAA_NPEAURGenerator@stdlib@media@modules@2@AEAU?$TRefObject@UIRefObject@core@UModSys@@U?$TRefObjectFunc@UIRefObject@core@UModSys@@@tl@3@@tl@2@PEBUSUniquePointerInfo@core@2@AEBUSParameters@core@2@@Z@4HA 0000000140014d4f f    CIL library: CIL module
 0001:00013d6f       ?dtor$3@?0???$t_gen_param@URUtilities@stdlib@media@modules@UModSys@@URGenerator@2345@@IGenerator@base@UModSys@@IEAA_NPEAURGenerator@stdlib@media@modules@2@AEAU?$TRefObject@UIRefObject@core@UModSys@@U?$TRefObjectFunc@UIRefObject@core@UModSys@@@tl@3@@tl@2@PEBUSUniquePointerInfo@core@2@AEBUSParameters@core@2@@Z@4HA 0000000140014d6f f    CIL library: CIL module
 0001:00013d87       ?dtor$0@?0???$t_gen_param@URLibraryObjCache@stdlib@media@modules@UModSys@@URGenerator@2345@@IGenerator@base@UModSys@@IEAA_NPEAURGenerator@stdlib@media@modules@2@AEAU?$TRefObject@UIRefObject@core@UModSys@@U?$TRefObjectFunc@UIRefObject@core@UModSys@@@tl@3@@tl@2@PEBUSUniquePointerInfo@core@2@AEBUSParameters@core@2@@Z@4HA 0000000140014d87 f    CIL library: CIL module
 0001:00013d87       ?dtor$0@?0???$t_gen_param@URLibraryObjFilter@stdlib@media@modules@UModSys@@URGenerator@2345@@IGenerator@base@UModSys@@IEAA_NPEAURGenerator@stdlib@media@modules@2@AEAU?$TRefObject@UIRefObject@core@UModSys@@U?$TRefObjectFunc@UIRefObject@core@UModSys@@@tl@3@@tl@2@PEBUSUniquePointerInfo@core@2@AEBUSParameters@core@2@@Z@4HA 0000000140014d87 f    CIL library: CIL module
 0001:00013d87       ?dtor$0@?0???$t_gen_param@URLibraryBinTree@stdlib@media@modules@UModSys@@URGenerator@2345@@IGenerator@base@UModSys@@IEAA_NPEAURGenerator@stdlib@media@modules@2@AEAU?$TRefObject@UIRefObject@core@UModSys@@U?$TRefObjectFunc@UIRefObject@core@UModSys@@@tl@3@@tl@2@PEBUSUniquePointerInfo@core@2@AEBUSParameters@core@2@@Z@4HA 0000000140014d87 f    CIL library: CIL module
 0001:00013da7       ?dtor$1@?0???$t_gen_param@URLibraryObjCache@stdlib@media@modules@UModSys@@URGenerator@2345@@IGenerator@base@UModSys@@IEAA_NPEAURGenerator@stdlib@media@modules@2@AEAU?$TRefObject@UIRefObject@core@UModSys@@U?$TRefObjectFunc@UIRefObject@core@UModSys@@@tl@3@@tl@2@PEBUSUniquePointerInfo@core@2@AEBUSParameters@core@2@@Z@4HA 0000000140014da7 f    CIL library: CIL module
 0001:00013da7       ?dtor$1@?0???$t_gen_param@URLibraryObjFilter@stdlib@media@modules@UModSys@@URGenerator@2345@@IGenerator@base@UModSys@@IEAA_NPEAURGenerator@stdlib@media@modules@2@AEAU?$TRefObject@UIRefObject@core@UModSys@@U?$TRefObjectFunc@UIRefObject@core@UModSys@@@tl@3@@tl@2@PEBUSUniquePointerInfo@core@2@AEBUSParameters@core@2@@Z@4HA 0000000140014da7 f    CIL library: CIL module
 0001:00013da7       ?dtor$1@?0???$t_gen_param@URLibraryBinTree@stdlib@media@modules@UModSys@@URGenerator@2345@@IGenerator@base@UModSys@@IEAA_NPEAURGenerator@stdlib@media@modules@2@AEAU?$TRefObject@UIRefObject@core@UModSys@@U?$TRefObjectFunc@UIRefObject@core@UModSys@@@tl@3@@tl@2@PEBUSUniquePointerInfo@core@2@AEBUSParameters@core@2@@Z@4HA 0000000140014da7 f    CIL library: CIL module
 0001:00013dc7       ?dtor$3@?0???$t_gen_param@URLibraryObjFilter@stdlib@media@modules@UModSys@@URGenerator@2345@@IGenerator@base@UModSys@@IEAA_NPEAURGenerator@stdlib@media@modules@2@AEAU?$TRefObject@UIRefObject@core@UModSys@@U?$TRefObjectFunc@UIRefObject@core@UModSys@@@tl@3@@tl@2@PEBUSUniquePointerInfo@core@2@AEBUSParameters@core@2@@Z@4HA 0000000140014dc7 f    CIL library: CIL module
 0001:00013dc7       ?dtor$3@?0???$t_gen_param@URLibraryObjCache@stdlib@media@modules@UModSys@@URGenerator@2345@@IGenerator@base@UModSys@@IEAA_NPEAURGenerator@stdlib@media@modules@2@AEAU?$TRefObject@UIRefObject@core@UModSys@@U?$TRefObjectFunc@UIRefObject@core@UModSys@@@tl@3@@tl@2@PEBUSUniquePointerInfo@core@2@AEBUSParameters@core@2@@Z@4HA 0000000140014dc7 f    CIL library: CIL module
 0001:00013dc7       ?dtor$3@?0???$t_gen_param@URLibraryBinTree@stdlib@media@modules@UModSys@@URGenerator@2345@@IGenerator@base@UModSys@@IEAA_NPEAURGenerator@stdlib@media@modules@2@AEAU?$TRefObject@UIRefObject@core@UModSys@@U?$TRefObjectFunc@UIRefObject@core@UModSys@@@tl@3@@tl@2@PEBUSUniquePointerInfo@core@2@AEBUSParameters@core@2@@Z@4HA 0000000140014dc7 f    CIL library: CIL module
 0001:00013ddf       ?dtor$0@?0???_GRLibraryObjFilter@stdlib@media@modules@UModSys@@UEAAPEAXI@Z@4HA 0000000140014ddf f    CIL library: CIL module
 0001:00013dff       ?dtor$8@?0???_GRLibraryObjFilter@stdlib@media@modules@UModSys@@UEAAPEAXI@Z@4HA 0000000140014dff f    CIL library: CIL module
 0001:00013e17       ?dtor$0@?0???_GRLibraryBinTree@stdlib@media@modules@UModSys@@UEAAPEAXI@Z@4HA 0000000140014e17 f    CIL library: CIL module
 0001:00013e17       ?dtor$0@?0???_GRLibraryBinCache@stdlib@media@modules@UModSys@@UEAAPEAXI@Z@4HA 0000000140014e17 f    CIL library: CIL module
 0001:00013e17       ?dtor$0@?0???_GRLibraryObjCache@stdlib@media@modules@UModSys@@UEAAPEAXI@Z@4HA 0000000140014e17 f    CIL library: CIL module
 0001:00013e17       ?dtor$0@?0???_GRDataArchiver_OsDir@stdio@media@modules@UModSys@@UEAAPEAXI@Z@4HA 0000000140014e17 f    CIL library: CIL module
 0001:00013e17       ?dtor$0@?0???_GRLibraryLayered@stdlib@media@modules@UModSys@@UEAAPEAXI@Z@4HA 0000000140014e17 f    CIL library: CIL module
 0001:00013e37       ?dtor$5@?0???_GRLibraryBinCache@stdlib@media@modules@UModSys@@UEAAPEAXI@Z@4HA 0000000140014e37 f    CIL library: CIL module
 0001:00013e37       ?dtor$4@?0???_GRLibraryLayered@stdlib@media@modules@UModSys@@UEAAPEAXI@Z@4HA 0000000140014e37 f    CIL library: CIL module
 0001:00013e37       ?dtor$5@?0???_GRLibraryObjCache@stdlib@media@modules@UModSys@@UEAAPEAXI@Z@4HA 0000000140014e37 f    CIL library: CIL module
 0001:00013e37       ?dtor$4@?0???_GRDataArchiver_OsDir@stdio@media@modules@UModSys@@UEAAPEAXI@Z@4HA 0000000140014e37 f    CIL library: CIL module
 0001:00013e37       ?dtor$5@?0???_GRLibraryBinTree@stdlib@media@modules@UModSys@@UEAAPEAXI@Z@4HA 0000000140014e37 f    CIL library: CIL module
 0001:00013e4f       ?dtor$0@?0??obj_save@RLibraryLayered@stdlib@media@modules@UModSys@@UEAA_NAEBU?$TString@U?$TSCoreConst@D@su@tl@UModSys@@U?$TComparerBinaryHash@D@234@@tl@5@PEBUIRefObject@core@5@AEBUSObjOptions@ILibrary@libmedia@5@@Z@4HA 0000000140014e4f f    CIL library: CIL module
 0001:00013e67       ?dtor$0@?0??obj_load@RLibraryLayered@stdlib@media@modules@UModSys@@UEAA_NAEBU?$TString@U?$TSCoreConst@D@su@tl@UModSys@@U?$TComparerBinaryHash@D@234@@tl@5@PEAUIRefObject@core@5@AEBUSObjOptions@ILibrary@libmedia@5@@Z@4HA 0000000140014e67 f    CIL library: CIL module
 0001:00013e7f       ?dtor$0@?0??mount_add@RLibraryBinTree@stdlib@media@modules@UModSys@@UEAA_NAEBUSId@ILibraryBinTree@libmedia@5@AEBUSPoint@785@@Z@4HA 0000000140014e7f f    CIL library: CIL module
 0001:00013e7f       ?dtor$0@?0??bincache_add@RLibraryBinCache@stdlib@media@modules@UModSys@@QEAA_NAEBU?$TString@U?$TSCoreConst@D@su@tl@UModSys@@U?$TComparerBinaryHash@D@234@@tl@5@AEBUSCMemShared@core@5@_N@Z@4HA 0000000140014e7f f    CIL library: CIL module
 0001:00013e7f       ?dtor$0@?0??objcache_add@RLibraryObjCache@stdlib@media@modules@UModSys@@UEAA_NAEBU?$TString@U?$TSCoreConst@D@su@tl@UModSys@@U?$TComparerBinaryHash@D@234@@tl@5@PEAUIRefObject@core@5@@Z@4HA 0000000140014e7f f    CIL library: CIL module
 0001:00013e7f       ?dtor$0@?0??fill_info@RBinArchiveFrame@stdlib@media@modules@UModSys@@QEAA_NAEAUSFileInfo@libmedia@5@PEAUNameNode@IBinArchiveFrame@75@AEBU?$TString@U?$TSCoreConst@D@su@tl@UModSys@@U?$TComparerBinaryHash@D@234@@tl@5@_K@Z@4HA 0000000140014e7f f    CIL library: CIL module
 0001:00013e97       ?dtor$0@?0??data_list@RBinArchiveFrame@stdlib@media@modules@UModSys@@UEAA_NAEBU?$TString@U?$TSCoreConst@D@su@tl@UModSys@@U?$TComparerBinaryHash@D@234@@tl@5@_KAEAU?$TIStackSocket@USFileInfo@libmedia@UModSys@@@75@AEBUSFlags@libmedia@5@@Z@4HA 0000000140014e97 f    CIL library: CIL module
 0001:00013eb7       ?dtor$1@?0??data_list@RBinArchiveFrame@stdlib@media@modules@UModSys@@UEAA_NAEBU?$TString@U?$TSCoreConst@D@su@tl@UModSys@@U?$TComparerBinaryHash@D@234@@tl@5@_KAEAU?$TIStackSocket@USFileInfo@libmedia@UModSys@@@75@AEBUSFlags@libmedia@5@@Z@4HA 0000000140014eb7 f    CIL library: CIL module
 0001:00013ed7       ?dtor$2@?0??data_list@RBinArchiveFrame@stdlib@media@modules@UModSys@@UEAA_NAEBU?$TString@U?$TSCoreConst@D@su@tl@UModSys@@U?$TComparerBinaryHash@D@234@@tl@5@_KAEAU?$TIStackSocket@USFileInfo@libmedia@UModSys@@@75@AEBUSFlags@libmedia@5@@Z@4HA 0000000140014ed7 f    CIL library: CIL module
 0001:00013ef7       ?dtor$6@?0??data_list@RBinArchiveFrame@stdlib@media@modules@UModSys@@UEAA_NAEBU?$TString@U?$TSCoreConst@D@su@tl@UModSys@@U?$TComparerBinaryHash@D@234@@tl@5@_KAEAU?$TIStackSocket@USFileInfo@libmedia@UModSys@@@75@AEBUSFlags@libmedia@5@@Z@4HA 0000000140014ef7 f    CIL library: CIL module
 0001:00013f17       ?dtor$7@?0??data_list@RBinArchiveFrame@stdlib@media@modules@UModSys@@UEAA_NAEBU?$TString@U?$TSCoreConst@D@su@tl@UModSys@@U?$TComparerBinaryHash@D@234@@tl@5@_KAEAU?$TIStackSocket@USFileInfo@libmedia@UModSys@@@75@AEBUSFlags@libmedia@5@@Z@4HA 0000000140014f17 f    CIL library: CIL module
 0001:00013f37       ?dtor$11@?0??data_list@RBinArchiveFrame@stdlib@media@modules@UModSys@@UEAA_NAEBU?$TString@U?$TSCoreConst@D@su@tl@UModSys@@U?$TComparerBinaryHash@D@234@@tl@5@_KAEAU?$TIStackSocket@USFileInfo@libmedia@UModSys@@@75@AEBUSFlags@libmedia@5@@Z@4HA 0000000140014f37 f    CIL library: CIL module
 0001:00013f57       ?dtor$12@?0??data_list@RBinArchiveFrame@stdlib@media@modules@UModSys@@UEAA_NAEBU?$TString@U?$TSCoreConst@D@su@tl@UModSys@@U?$TComparerBinaryHash@D@234@@tl@5@_KAEAU?$TIStackSocket@USFileInfo@libmedia@UModSys@@@75@AEBUSFlags@libmedia@5@@Z@4HA 0000000140014f57 f    CIL library: CIL module
 0001:00013f73       ?dtor$0@?0??generate@RGenerator@stdio@media@modules@UModSys@@UEAA_NAEAU?$TRefObject@UIRefObject@core@UModSys@@U?$TRefObjectFunc@UIRefObject@core@UModSys@@@tl@3@@tl@5@PEBUSUniquePointerInfo@core@5@AEBUSParameters@95@@Z@4HA 0000000140014f73 f    CIL library: CIL module
 0001:00013f93       ?dtor$1@?0??generate@RGenerator@stdio@media@modules@UModSys@@UEAA_NAEAU?$TRefObject@UIRefObject@core@UModSys@@U?$TRefObjectFunc@UIRefObject@core@UModSys@@@tl@3@@tl@5@PEBUSUniquePointerInfo@core@5@AEBUSParameters@95@@Z@4HA 0000000140014f93 f    CIL library: CIL module
 0001:00013fb3       ?dtor$2@?0??generate@RGenerator@stdio@media@modules@UModSys@@UEAA_NAEAU?$TRefObject@UIRefObject@core@UModSys@@U?$TRefObjectFunc@UIRefObject@core@UModSys@@@tl@3@@tl@5@PEBUSUniquePointerInfo@core@5@AEBUSParameters@95@@Z@4HA 0000000140014fb3 f    CIL library: CIL module
 0001:00013fd3       ?dtor$3@?0??generate@RGenerator@stdio@media@modules@UModSys@@UEAA_NAEAU?$TRefObject@UIRefObject@core@UModSys@@U?$TRefObjectFunc@UIRefObject@core@UModSys@@@tl@3@@tl@5@PEBUSUniquePointerInfo@core@5@AEBUSParameters@95@@Z@4HA 0000000140014fd3 f    CIL library: CIL module
 0001:00013fee       ?dtor$0@?0??mem_free@?$TRMemAlloc_CC@U?$TMemAllocHeader@USMagic@mem_headers@rsystem@base@UModSys@@U?$TPool@X@2345@USDebug@2345@UVoid@core@5@U895@@rsystem@base@UModSys@@USMemAlloc_Malloc@core@4@@rsystem@base@UModSys@@UEAAXPEAXPEBUSSourceContext@core@4@@Z@4HA 0000000140014fee f    CIL library: CIL module
 0001:00014006       ?dtor$0@?0??mem_realloc@?$TRMemAlloc_CC@U?$TMemAllocHeader@USMagic@mem_headers@rsystem@base@UModSys@@U?$TPool@X@2345@USDebug@2345@UVoid@core@5@U895@@rsystem@base@UModSys@@USMemAlloc_Malloc@core@4@@rsystem@base@UModSys@@UEAAPEAXPEAX_KPEBUSSourceContext@core@4@@Z@4HA 0000000140015006 f    CIL library: CIL module
 0001:00014026       ?dtor$1@?0??mem_realloc@?$TRMemAlloc_CC@U?$TMemAllocHeader@USMagic@mem_headers@rsystem@base@UModSys@@U?$TPool@X@2345@USDebug@2345@UVoid@core@5@U895@@rsystem@base@UModSys@@USMemAlloc_Malloc@core@4@@rsystem@base@UModSys@@UEAAPEAXPEAX_KPEBUSSourceContext@core@4@@Z@4HA 0000000140015026 f    CIL library: CIL module
 0001:0001403e       ?dtor$0@?0???0?$TScatterArrayNode@USCacheElem@RLibraryObjCache@stdlib@media@modules@UModSys@@U?$TString@U?$TSCoreConst@D@su@tl@UModSys@@U?$TComparerBinaryHash@D@234@@tl@6@@tl@UModSys@@QEAA@AEBU?$TString@U?$TSCoreConst@D@su@tl@UModSys@@U?$TComparerBinaryHash@D@234@@12@@Z@4HA 000000014001503e f    CIL library: CIL module
 0001:0001405e       ?dtor$3@?0???0?$TScatterArrayNode@USCacheElem@RLibraryObjCache@stdlib@media@modules@UModSys@@U?$TString@U?$TSCoreConst@D@su@tl@UModSys@@U?$TComparerBinaryHash@D@234@@tl@6@@tl@UModSys@@QEAA@AEBU?$TString@U?$TSCoreConst@D@su@tl@UModSys@@U?$TComparerBinaryHash@D@234@@12@@Z@4HA 000000014001505e f    CIL library: CIL module
 0001:0001407e       ?dtor$1@?0???0?$TScatterArrayNode@USCacheElem@RLibraryObjCache@stdlib@media@modules@UModSys@@U?$TString@U?$TSCoreConst@D@su@tl@UModSys@@U?$TComparerBinaryHash@D@234@@tl@6@@tl@UModSys@@QEAA@AEBU?$TString@U?$TSCoreConst@D@su@tl@UModSys@@U?$TComparerBinaryHash@D@234@@12@@Z@4HA 000000014001507e f    CIL library: CIL module
 0001:0001409e       ?dtor$5@?0???0?$TScatterArrayNode@USCacheElem@RLibraryObjCache@stdlib@media@modules@UModSys@@U?$TString@U?$TSCoreConst@D@su@tl@UModSys@@U?$TComparerBinaryHash@D@234@@tl@6@@tl@UModSys@@QEAA@AEBU?$TString@U?$TSCoreConst@D@su@tl@UModSys@@U?$TComparerBinaryHash@D@234@@12@@Z@4HA 000000014001509e f    CIL library: CIL module
 0001:000140b6       ?dtor$0@?0???0?$TScatterArrayNode@USCacheElem@RLibraryBinCache@stdlib@media@modules@UModSys@@U?$TString@U?$TSCoreConst@D@su@tl@UModSys@@U?$TComparerBinaryHash@D@234@@tl@6@@tl@UModSys@@QEAA@AEBU?$TString@U?$TSCoreConst@D@su@tl@UModSys@@U?$TComparerBinaryHash@D@234@@12@@Z@4HA 00000001400150b6 f    CIL library: CIL module
 0001:000140d6       ?dtor$3@?0???0?$TScatterArrayNode@USCacheElem@RLibraryBinCache@stdlib@media@modules@UModSys@@U?$TString@U?$TSCoreConst@D@su@tl@UModSys@@U?$TComparerBinaryHash@D@234@@tl@6@@tl@UModSys@@QEAA@AEBU?$TString@U?$TSCoreConst@D@su@tl@UModSys@@U?$TComparerBinaryHash@D@234@@12@@Z@4HA 00000001400150d6 f    CIL library: CIL module
 0001:000140f6       ?dtor$1@?0???0?$TScatterArrayNode@USCacheElem@RLibraryBinCache@stdlib@media@modules@UModSys@@U?$TString@U?$TSCoreConst@D@su@tl@UModSys@@U?$TComparerBinaryHash@D@234@@tl@6@@tl@UModSys@@QEAA@AEBU?$TString@U?$TSCoreConst@D@su@tl@UModSys@@U?$TComparerBinaryHash@D@234@@12@@Z@4HA 00000001400150f6 f    CIL library: CIL module
 0001:00014116       ?dtor$5@?0???0?$TScatterArrayNode@USCacheElem@RLibraryBinCache@stdlib@media@modules@UModSys@@U?$TString@U?$TSCoreConst@D@su@tl@UModSys@@U?$TComparerBinaryHash@D@234@@tl@6@@tl@UModSys@@QEAA@AEBU?$TString@U?$TSCoreConst@D@su@tl@UModSys@@U?$TComparerBinaryHash@D@234@@12@@Z@4HA 0000000140015116 f    CIL library: CIL module
 0001:0001412e       ?dtor$0@?0???0?$TScatterArrayNode@USMountInfo@RLibraryBinTree@stdlib@media@modules@UModSys@@USId@ILibraryBinTree@libmedia@6@@tl@UModSys@@QEAA@AEBUSId@ILibraryBinTree@libmedia@2@@Z@4HA 000000014001512e f    CIL library: CIL module
 0001:0001414e       ?dtor$6@?0???0?$TScatterArrayNode@USMountInfo@RLibraryBinTree@stdlib@media@modules@UModSys@@USId@ILibraryBinTree@libmedia@6@@tl@UModSys@@QEAA@AEBUSId@ILibraryBinTree@libmedia@2@@Z@4HA 000000014001514e f    CIL library: CIL module
 0001:0001416e       ?dtor$1@?0???0?$TScatterArrayNode@USMountInfo@RLibraryBinTree@stdlib@media@modules@UModSys@@USId@ILibraryBinTree@libmedia@6@@tl@UModSys@@QEAA@AEBUSId@ILibraryBinTree@libmedia@2@@Z@4HA 000000014001516e f    CIL library: CIL module
 0001:0001418e       ?dtor$9@?0???0?$TScatterArrayNode@USMountInfo@RLibraryBinTree@stdlib@media@modules@UModSys@@USId@ILibraryBinTree@libmedia@6@@tl@UModSys@@QEAA@AEBUSId@ILibraryBinTree@libmedia@2@@Z@4HA 000000014001518e f    CIL library: CIL module
 0001:000141a6       ?dtor$0@?0???R?$TScatterArray@USCacheElem@RLibraryBinCache@stdlib@media@modules@UModSys@@U?$TString@U?$TSCoreConst@D@su@tl@UModSys@@U?$TComparerBinaryHash@D@234@@tl@6@U?$TObjectCompare@U?$TString@U?$TSCoreConst@D@su@tl@UModSys@@U?$TComparerBinaryHash@D@234@@tl@UModSys@@@core@6@U?$TNodeDeleter0@U?$TScatterArrayNode@USCacheElem@RLibraryBinCache@stdlib@media@modules@UModSys@@U?$TString@U?$TSCoreConst@D@su@tl@UModSys@@U?$TComparerBinaryHash@D@234@@tl@6@@tl@UModSys@@@86@@tl@UModSys@@QEAAPEAUSCacheElem@RLibraryBinCache@stdlib@media@modules@2@AEBU?$TString@U?$TSCoreConst@D@su@tl@UModSys@@U?$TComparerBinaryHash@D@234@@12@PEAUVoid@core@2@@Z@4HA 00000001400151a6 f    CIL library: CIL module
 0001:000141a6       ?dtor$0@?0???R?$TScatterArray@USMountInfo@RLibraryBinTree@stdlib@media@modules@UModSys@@USId@ILibraryBinTree@libmedia@6@U7896@U?$TNodeDeleter0@U?$TScatterArrayNode@USMountInfo@RLibraryBinTree@stdlib@media@modules@UModSys@@USId@ILibraryBinTree@libmedia@6@@tl@UModSys@@@tl@6@@tl@UModSys@@QEAAPEAUSMountInfo@RLibraryBinTree@stdlib@media@modules@2@AEBUSId@ILibraryBinTree@libmedia@2@PEAUVoid@core@2@@Z@4HA 00000001400151a6 f    CIL library: CIL module
 0001:000141a6       ?dtor$0@?0???R?$TScatterArray@USCacheElem@RLibraryObjCache@stdlib@media@modules@UModSys@@U?$TString@U?$TSCoreConst@D@su@tl@UModSys@@U?$TComparerBinaryHash@D@234@@tl@6@U?$TObjectCompare@U?$TString@U?$TSCoreConst@D@su@tl@UModSys@@U?$TComparerBinaryHash@D@234@@tl@UModSys@@@core@6@U?$TNodeDeleter0@U?$TScatterArrayNode@USCacheElem@RLibraryObjCache@stdlib@media@modules@UModSys@@U?$TString@U?$TSCoreConst@D@su@tl@UModSys@@U?$TComparerBinaryHash@D@234@@tl@6@@tl@UModSys@@@86@@tl@UModSys@@QEAAPEAUSCacheElem@RLibraryObjCache@stdlib@media@modules@2@AEBU?$TString@U?$TSCoreConst@D@su@tl@UModSys@@U?$TComparerBinaryHash@D@234@@12@PEAUVoid@core@2@@Z@4HA 00000001400151a6 f    CIL library: CIL module
 0001:000141c2       ?dtor$0@?0???0RLibraryLayered@stdlib@media@modules@UModSys@@QEAA@PEAUIModObject@base@4@AEBUSParameters@core@4@U?$TFlags4State@USMediaFlagUid@libmedia@UModSys@@I@tl@4@@Z@4HA 00000001400151c2 f    CIL library: CIL module
 0001:000141da       ?dtor$1@?0??s_add@RModuleLibrarySO@rsystem@base@UModSys@@SA_NPEAUISystem@34@AEAU?$TDynarrayDynamic@U?$TRefObject@URModuleLibrarySO@rsystem@base@UModSys@@U?$TRefObjectFunc@URModuleLibrarySO@rsystem@base@UModSys@@@tl@4@@tl@UModSys@@U?$TAllocator@USMemAlloc_Malloc@core@UModSys@@USCountCalcPower2@23@@23@@tl@4@PEBD@Z@4HA 00000001400151da f    CIL library: CIL module
 0001:000141f5       ?dtor$0@?0??generate@RGenerator@stdlib@media@modules@UModSys@@UEAA_NAEAU?$TRefObject@UIRefObject@core@UModSys@@U?$TRefObjectFunc@UIRefObject@core@UModSys@@@tl@3@@tl@5@PEBUSUniquePointerInfo@core@5@AEBUSParameters@95@@Z@4HA 00000001400151f5 f    CIL library: CIL module
 0001:00014215       ?dtor$1@?0??generate@RGenerator@stdlib@media@modules@UModSys@@UEAA_NAEAU?$TRefObject@UIRefObject@core@UModSys@@U?$TRefObjectFunc@UIRefObject@core@UModSys@@@tl@3@@tl@5@PEBUSUniquePointerInfo@core@5@AEBUSParameters@95@@Z@4HA 0000000140015215 f    CIL library: CIL module
 0001:00014235       ?dtor$3@?0??generate@RGenerator@stdlib@media@modules@UModSys@@UEAA_NAEAU?$TRefObject@UIRefObject@core@UModSys@@U?$TRefObjectFunc@UIRefObject@core@UModSys@@@tl@3@@tl@5@PEBUSUniquePointerInfo@core@5@AEBUSParameters@95@@Z@4HA 0000000140015235 f    CIL library: CIL module
 0001:00014255       ?dtor$4@?0??generate@RGenerator@stdlib@media@modules@UModSys@@UEAA_NAEAU?$TRefObject@UIRefObject@core@UModSys@@U?$TRefObjectFunc@UIRefObject@core@UModSys@@@tl@3@@tl@5@PEBUSUniquePointerInfo@core@5@AEBUSParameters@95@@Z@4HA 0000000140015255 f    CIL library: CIL module
 0001:00014275       ?dtor$5@?0??generate@RGenerator@stdlib@media@modules@UModSys@@UEAA_NAEAU?$TRefObject@UIRefObject@core@UModSys@@U?$TRefObjectFunc@UIRefObject@core@UModSys@@@tl@3@@tl@5@PEBUSUniquePointerInfo@core@5@AEBUSParameters@95@@Z@4HA 0000000140015275 f    CIL library: CIL module
 0001:00014290       ??__E?s_id@?$TObjectUniqueID@UIRoot@core@UModSys@@@tl@UModSys@@2USUniquePointer@core@3@A@@YAXXZ 0000000140015290 f    CIL library: CIL module
 0001:000142c4       ??__E?s_id@?$TObjectUniqueID@UIRefObject@core@UModSys@@@tl@UModSys@@2USUniquePointer@core@3@A@@YAXXZ 00000001400152c4 f    CIL library: CIL module
 0001:000142f8       ??__E?s_id@?$TObjectUniqueID@UIParameters@core@UModSys@@@tl@UModSys@@2USUniquePointer@core@3@A@@YAXXZ 00000001400152f8 f    CIL library: CIL module
 0001:0001432c       ??__E?s_id@?$TObjectUniqueID@UIConsole@base@UModSys@@@tl@UModSys@@2USUniquePointer@core@3@A@@YAXXZ 000000014001532c f    CIL library: CIL module
 0001:00014360       ??__E?s_id@?$TObjectUniqueID@UIModule@base@UModSys@@@tl@UModSys@@2USUniquePointer@core@3@A@@YAXXZ 0000000140015360 f    CIL library: CIL module
 0001:00014394       ??__E?s_id@?$TObjectUniqueID@UIModuleLibrary@base@UModSys@@@tl@UModSys@@2USUniquePointer@core@3@A@@YAXXZ 0000000140015394 f    CIL library: CIL module
 0001:000143c8       ??__E?s_id@?$TObjectUniqueID@UIModObject@base@UModSys@@@tl@UModSys@@2USUniquePointer@core@3@A@@YAXXZ 00000001400153c8 f    CIL library: CIL module
 0001:000143fc       ??__E?s_id@?$TObjectUniqueID@UIGenerator@base@UModSys@@@tl@UModSys@@2USUniquePointer@core@3@A@@YAXXZ 00000001400153fc f    CIL library: CIL module
 0001:00014430       ??__E?s_id@?$TObjectUniqueID@UIShell@base@UModSys@@@tl@UModSys@@2USUniquePointer@core@3@A@@YAXXZ 0000000140015430 f    CIL library: CIL module
 0001:00014464       ??__E?s_id@?$TObjectUniqueID@UISystem@base@UModSys@@@tl@UModSys@@2USUniquePointer@core@3@A@@YAXXZ 0000000140015464 f    CIL library: CIL module
 0001:00014498       ??__E?s_id@?$TObjectUniqueID@URModule@rsystem@base@UModSys@@@tl@UModSys@@2USUniquePointer@core@3@A@@YAXXZ 0000000140015498 f    CIL library: CIL module
 0001:000144cc       ??__E?s_id@?$TObjectUniqueID@UIModuleLibraryUni@rsystem@base@UModSys@@@tl@UModSys@@2USUniquePointer@core@3@A@@YAXXZ 00000001400154cc f    CIL library: CIL module
 0001:00014500       ??__E?s_id@?$TObjectUniqueID@URModuleLibrarySO@rsystem@base@UModSys@@@tl@UModSys@@2USUniquePointer@core@3@A@@YAXXZ 0000000140015500 f    CIL library: CIL module
 0001:00014534       ??__E?s_id@?$TObjectUniqueID@URModuleLibraryThis@rsystem@base@UModSys@@@tl@UModSys@@2USUniquePointer@core@3@A@@YAXXZ 0000000140015534 f    CIL library: CIL module
 0001:00014568       ??__E?s_id@?$TObjectUniqueID@URParameters@rsystem@base@UModSys@@@tl@UModSys@@2USUniquePointer@core@3@A@@YAXXZ 0000000140015568 f    CIL library: CIL module
 0001:0001459c       ??__E?s_id@?$TObjectUniqueID@URSystem@rsystem@base@UModSys@@@tl@UModSys@@2USUniquePointer@core@3@A@@YAXXZ 000000014001559c f    CIL library: CIL module
 0001:000145d0       ??__E?s_id@?$TObjectUniqueID@URConsole_std@rsystem@base@UModSys@@@tl@UModSys@@2USUniquePointer@core@3@A@@YAXXZ 00000001400155d0 f    CIL library: CIL module
 0001:00014604       ??__Es_dbg@stdio@media@modules@UModSys@@YAXXZ 0000000140015604 f    CIL library: CIL module
 0001:00014610       ??__E?s_modreg@RModuleReg@stdio@media@modules@UModSys@@2U12345@A@@YAXXZ 0000000140015610 f    CIL library: CIL module
 0001:00014678       ??__E?s_modreg_chain@RModuleReg@stdio@media@modules@UModSys@@2USModuleRegChain@base@5@A@@YAXXZ 0000000140015678 f    CIL library: CIL module
 0001:000146b8       ??__E?s_uid@RGenerator@stdio@media@modules@UModSys@@2USUniquePointer@core@5@A@@YAXXZ 00000001400156b8 f    CIL library: CIL module
 0001:000146ec       ??__E?s_id@?$TObjectUniqueID@UIStreamReader@libmedia@UModSys@@@tl@UModSys@@2USUniquePointer@core@3@A@@YAXXZ 00000001400156ec f    CIL library: CIL module
 0001:00014720       ??__E?s_id@?$TObjectUniqueID@UIStreamWriter@libmedia@UModSys@@@tl@UModSys@@2USUniquePointer@core@3@A@@YAXXZ 0000000140015720 f    CIL library: CIL module
 0001:00014754       ??__E?s_id@?$TObjectUniqueID@UIUtilities@libmedia@UModSys@@@tl@UModSys@@2USUniquePointer@core@3@A@@YAXXZ 0000000140015754 f    CIL library: CIL module
 0001:00014788       ??__E?s_id@?$TObjectUniqueID@UILibObject@libmedia@UModSys@@@tl@UModSys@@2USUniquePointer@core@3@A@@YAXXZ 0000000140015788 f    CIL library: CIL module
 0001:000147bc       ??__E?s_id@?$TObjectUniqueID@UIBinArchive@libmedia@UModSys@@@tl@UModSys@@2USUniquePointer@core@3@A@@YAXXZ 00000001400157bc f    CIL library: CIL module
 0001:000147f0       ??__E?s_id@?$TObjectUniqueID@UIBinObjFilter@libmedia@UModSys@@@tl@UModSys@@2USUniquePointer@core@3@A@@YAXXZ 00000001400157f0 f    CIL library: CIL module
 0001:00014824       ??__E?s_id@?$TObjectUniqueID@UILibrary@libmedia@UModSys@@@tl@UModSys@@2USUniquePointer@core@3@A@@YAXXZ 0000000140015824 f    CIL library: CIL module
 0001:00014858       ??__E?s_id@?$TObjectUniqueID@URStreamReader_FILE@stdio@media@modules@UModSys@@@tl@UModSys@@2USUniquePointer@core@3@A@@YAXXZ 0000000140015858 f    CIL library: CIL module
 0001:0001488c       ??__E?s_id@?$TObjectUniqueID@URStreamWriter_FILE@stdio@media@modules@UModSys@@@tl@UModSys@@2USUniquePointer@core@3@A@@YAXXZ 000000014001588c f    CIL library: CIL module
 0001:000148c0       ??__E?s_id@?$TObjectUniqueID@URDataArchiver_OsDir@stdio@media@modules@UModSys@@@tl@UModSys@@2USUniquePointer@core@3@A@@YAXXZ 00000001400158c0 f    CIL library: CIL module
 0001:000148f4       ??__E?s_id@?$TObjectUniqueID@URGenerator@stdio@media@modules@UModSys@@@tl@UModSys@@2USUniquePointer@core@3@A@@YAXXZ 00000001400158f4 f    CIL library: CIL module
 0001:00014928       ??__Es_dbg@stdlib@media@modules@UModSys@@YAXXZ 0000000140015928 f    CIL library: CIL module
 0001:00014934       ??__E?s_modreg@RModuleReg@stdlib@media@modules@UModSys@@2U12345@A@@YAXXZ 0000000140015934 f    CIL library: CIL module
 0001:0001499c       ??__E?s_modreg_chain@RModuleReg@stdlib@media@modules@UModSys@@2USModuleRegChain@base@5@A@@YAXXZ 000000014001599c f    CIL library: CIL module
 0001:000149dc       ??__E?s_uid@RGenerator@stdlib@media@modules@UModSys@@2USUniquePointer@core@5@A@@YAXXZ 00000001400159dc f    CIL library: CIL module
 0001:00014a10       ??__E?s_id@?$TObjectUniqueID@UILibraryBinTree@libmedia@UModSys@@@tl@UModSys@@2USUniquePointer@core@3@A@@YAXXZ 0000000140015a10 f    CIL library: CIL module
 0001:00014a44       ??__E?s_id@?$TObjectUniqueID@UILibraryBinCache@libmedia@UModSys@@@tl@UModSys@@2USUniquePointer@core@3@A@@YAXXZ 0000000140015a44 f    CIL library: CIL module
 0001:00014a78       ??__E?s_id@?$TObjectUniqueID@UILibraryObjFilter@libmedia@UModSys@@@tl@UModSys@@2USUniquePointer@core@3@A@@YAXXZ 0000000140015a78 f    CIL library: CIL module
 0001:00014aac       ??__E?s_id@?$TObjectUniqueID@UILibraryObjCache@libmedia@UModSys@@@tl@UModSys@@2USUniquePointer@core@3@A@@YAXXZ 0000000140015aac f    CIL library: CIL module
 0001:00014ae0       ??__E?s_id@?$TObjectUniqueID@UILibraryLayered@libmedia@UModSys@@@tl@UModSys@@2USUniquePointer@core@3@A@@YAXXZ 0000000140015ae0 f    CIL library: CIL module
 0001:00014b14       ??__E?s_id@?$TObjectUniqueID@UIBinArchiveFrame@libmedia@UModSys@@@tl@UModSys@@2USUniquePointer@core@3@A@@YAXXZ 0000000140015b14 f    CIL library: CIL module
 0001:00014b48       ??__E?s_id@?$TObjectUniqueID@UIClient@IBinArchiveFrame@libmedia@UModSys@@@tl@UModSys@@2USUniquePointer@core@3@A@@YAXXZ 0000000140015b48 f    CIL library: CIL module
 0001:00014b7c       ??__E?s_id@?$TObjectUniqueID@URUtilities@stdlib@media@modules@UModSys@@@tl@UModSys@@2USUniquePointer@core@3@A@@YAXXZ 0000000140015b7c f    CIL library: CIL module
 0001:00014bb0       ??__E?s_id@?$TObjectUniqueID@URBinArchiveFrame@stdlib@media@modules@UModSys@@@tl@UModSys@@2USUniquePointer@core@3@A@@YAXXZ 0000000140015bb0 f    CIL library: CIL module
 0001:00014be4       ??__E?s_id@?$TObjectUniqueID@URLibraryBinTree@stdlib@media@modules@UModSys@@@tl@UModSys@@2USUniquePointer@core@3@A@@YAXXZ 0000000140015be4 f    CIL library: CIL module
 0001:00014c18       ??__E?s_id@?$TObjectUniqueID@URLibraryBinCache@stdlib@media@modules@UModSys@@@tl@UModSys@@2USUniquePointer@core@3@A@@YAXXZ 0000000140015c18 f    CIL library: CIL module
 0001:00014c4c       ??__E?s_id@?$TObjectUniqueID@URLibraryLayered@stdlib@media@modules@UModSys@@@tl@UModSys@@2USUniquePointer@core@3@A@@YAXXZ 0000000140015c4c f    CIL library: CIL module
 0001:00014c80       ??__E?s_id@?$TObjectUniqueID@URLibraryObjCache@stdlib@media@modules@UModSys@@@tl@UModSys@@2USUniquePointer@core@3@A@@YAXXZ 0000000140015c80 f    CIL library: CIL module
 0001:00014cb4       ??__E?s_id@?$TObjectUniqueID@URLibraryObjFilter@stdlib@media@modules@UModSys@@@tl@UModSys@@2USUniquePointer@core@3@A@@YAXXZ 0000000140015cb4 f    CIL library: CIL module
 0001:00014ce8       ??__E?s_id@?$TObjectUniqueID@URGenerator@stdlib@media@modules@UModSys@@@tl@UModSys@@2USUniquePointer@core@3@A@@YAXXZ 0000000140015ce8 f    CIL library: CIL module
 0001:00014d1c       ??__E?s_console@RConsole_std@rsystem@base@UModSys@@2U1234@A@@YAXXZ 0000000140015d1c f    CIL library: CIL module
 0001:00014d28       ??__E?s_sys@RSystem@rsystem@base@UModSys@@2U1234@A@@YAXXZ 0000000140015d28 f    CIL library: CIL module
 0001:00014d34       ??__Ersys_dbg@rsystem@base@UModSys@@YAXXZ 0000000140015d34 f    CIL library: CIL module
 0001:00014d40       ??__EM@UModSys@@YAXXZ      0000000140015d40 f    CIL library: CIL module
 0001:00014d4c       ??__E?root@SModuleRegChain@base@UModSys@@2U123@A@@YAXXZ 0000000140015d4c f    CIL library: CIL module
 0001:00014d58       ??__E?s_library@RModuleLibraryReg_Chain@base@UModSys@@2U123@A@@YAXXZ 0000000140015d58 f    CIL library: CIL module
 0001:00014d64       ??__E?root@SUniquePointer@core@UModSys@@2U123@A@@YAXXZ 0000000140015d64 f    CIL library: CIL module
 0001:00014d70       ??__F?s_id@?$TObjectUniqueID@URConsole_std@rsystem@base@UModSys@@@tl@UModSys@@2USUniquePointer@core@3@A@@YAXXZ 0000000140015d70 f    CIL library: CIL module
 0001:00014d7c       ??__F?s_id@?$TObjectUniqueID@URSystem@rsystem@base@UModSys@@@tl@UModSys@@2USUniquePointer@core@3@A@@YAXXZ 0000000140015d7c f    CIL library: CIL module
 0001:00014d88       ??__F?s_id@?$TObjectUniqueID@URParameters@rsystem@base@UModSys@@@tl@UModSys@@2USUniquePointer@core@3@A@@YAXXZ 0000000140015d88 f    CIL library: CIL module
 0001:00014d94       ??__F?s_id@?$TObjectUniqueID@URModuleLibraryThis@rsystem@base@UModSys@@@tl@UModSys@@2USUniquePointer@core@3@A@@YAXXZ 0000000140015d94 f    CIL library: CIL module
 0001:00014da0       ??__F?s_id@?$TObjectUniqueID@URModuleLibrarySO@rsystem@base@UModSys@@@tl@UModSys@@2USUniquePointer@core@3@A@@YAXXZ 0000000140015da0 f    CIL library: CIL module
 0001:00014dac       ??__F?s_id@?$TObjectUniqueID@UIModuleLibraryUni@rsystem@base@UModSys@@@tl@UModSys@@2USUniquePointer@core@3@A@@YAXXZ 0000000140015dac f    CIL library: CIL module
 0001:00014db8       ??__F?s_id@?$TObjectUniqueID@URModule@rsystem@base@UModSys@@@tl@UModSys@@2USUniquePointer@core@3@A@@YAXXZ 0000000140015db8 f    CIL library: CIL module
 0001:00014dc4       ??__F?s_id@?$TObjectUniqueID@UISystem@base@UModSys@@@tl@UModSys@@2USUniquePointer@core@3@A@@YAXXZ 0000000140015dc4 f    CIL library: CIL module
 0001:00014dd0       ??__F?s_id@?$TObjectUniqueID@UIShell@base@UModSys@@@tl@UModSys@@2USUniquePointer@core@3@A@@YAXXZ 0000000140015dd0 f    CIL library: CIL module
 0001:00014ddc       ??__F?s_id@?$TObjectUniqueID@UIGenerator@base@UModSys@@@tl@UModSys@@2USUniquePointer@core@3@A@@YAXXZ 0000000140015ddc f    CIL library: CIL module
 0001:00014de8       ??__F?s_id@?$TObjectUniqueID@UIModObject@base@UModSys@@@tl@UModSys@@2USUniquePointer@core@3@A@@YAXXZ 0000000140015de8 f    CIL library: CIL module
 0001:00014df4       ??__F?s_id@?$TObjectUniqueID@UIModuleLibrary@base@UModSys@@@tl@UModSys@@2USUniquePointer@core@3@A@@YAXXZ 0000000140015df4 f    CIL library: CIL module
 0001:00014e00       ??__F?s_id@?$TObjectUniqueID@UIModule@base@UModSys@@@tl@UModSys@@2USUniquePointer@core@3@A@@YAXXZ 0000000140015e00 f    CIL library: CIL module
 0001:00014e0c       ??__F?s_id@?$TObjectUniqueID@UIConsole@base@UModSys@@@tl@UModSys@@2USUniquePointer@core@3@A@@YAXXZ 0000000140015e0c f    CIL library: CIL module
 0001:00014e18       ??__F?s_id@?$TObjectUniqueID@UIParameters@core@UModSys@@@tl@UModSys@@2USUniquePointer@core@3@A@@YAXXZ 0000000140015e18 f    CIL library: CIL module
 0001:00014e24       ??__F?s_id@?$TObjectUniqueID@UIRefObject@core@UModSys@@@tl@UModSys@@2USUniquePointer@core@3@A@@YAXXZ 0000000140015e24 f    CIL library: CIL module
 0001:00014e30       ??__F?s_id@?$TObjectUniqueID@UIRoot@core@UModSys@@@tl@UModSys@@2USUniquePointer@core@3@A@@YAXXZ 0000000140015e30 f    CIL library: CIL module
 0001:00014e3c       ??__Fs_dbg@stdio@media@modules@UModSys@@YAXXZ 0000000140015e3c f    CIL library: CIL module
 0001:00014e60       ??__F?s_modreg@RModuleReg@stdio@media@modules@UModSys@@2U12345@A@@YAXXZ 0000000140015e60 f    CIL library: CIL module
 0001:00014e70       ??__F?s_modreg_chain@RModuleReg@stdio@media@modules@UModSys@@2USModuleRegChain@base@5@A@@YAXXZ 0000000140015e70 f    CIL library: CIL module
 0001:00014eb0       ??__F?s_uid@RGenerator@stdio@media@modules@UModSys@@2USUniquePointer@core@5@A@@YAXXZ 0000000140015eb0 f    CIL library: CIL module
 0001:00014ebc       ??__Fh@?1??s_holder@RGenerator@stdio@media@modules@UModSys@@SAAEAU?$TTypeStaticHolder@URGenerator@stdio@media@modules@UModSys@@@tl@5@XZ@YAXXZ 0000000140015ebc f    CIL library: CIL module
 0001:00014ee4       ??__F?s_id@?$TObjectUniqueID@URGenerator@stdio@media@modules@UModSys@@@tl@UModSys@@2USUniquePointer@core@3@A@@YAXXZ 0000000140015ee4 f    CIL library: CIL module
 0001:00014ef0       ??__F?s_id@?$TObjectUniqueID@URDataArchiver_OsDir@stdio@media@modules@UModSys@@@tl@UModSys@@2USUniquePointer@core@3@A@@YAXXZ 0000000140015ef0 f    CIL library: CIL module
 0001:00014efc       ??__F?s_id@?$TObjectUniqueID@URStreamWriter_FILE@stdio@media@modules@UModSys@@@tl@UModSys@@2USUniquePointer@core@3@A@@YAXXZ 0000000140015efc f    CIL library: CIL module
 0001:00014f08       ??__F?s_id@?$TObjectUniqueID@URStreamReader_FILE@stdio@media@modules@UModSys@@@tl@UModSys@@2USUniquePointer@core@3@A@@YAXXZ 0000000140015f08 f    CIL library: CIL module
 0001:00014f14       ??__F?s_id@?$TObjectUniqueID@UILibrary@libmedia@UModSys@@@tl@UModSys@@2USUniquePointer@core@3@A@@YAXXZ 0000000140015f14 f    CIL library: CIL module
 0001:00014f20       ??__F?s_id@?$TObjectUniqueID@UIBinObjFilter@libmedia@UModSys@@@tl@UModSys@@2USUniquePointer@core@3@A@@YAXXZ 0000000140015f20 f    CIL library: CIL module
 0001:00014f2c       ??__F?s_id@?$TObjectUniqueID@UIBinArchive@libmedia@UModSys@@@tl@UModSys@@2USUniquePointer@core@3@A@@YAXXZ 0000000140015f2c f    CIL library: CIL module
 0001:00014f38       ??__F?s_id@?$TObjectUniqueID@UILibObject@libmedia@UModSys@@@tl@UModSys@@2USUniquePointer@core@3@A@@YAXXZ 0000000140015f38 f    CIL library: CIL module
 0001:00014f44       ??__F?s_id@?$TObjectUniqueID@UIUtilities@libmedia@UModSys@@@tl@UModSys@@2USUniquePointer@core@3@A@@YAXXZ 0000000140015f44 f    CIL library: CIL module
 0001:00014f50       ??__F?s_id@?$TObjectUniqueID@UIStreamWriter@libmedia@UModSys@@@tl@UModSys@@2USUniquePointer@core@3@A@@YAXXZ 0000000140015f50 f    CIL library: CIL module
 0001:00014f5c       ??__F?s_id@?$TObjectUniqueID@UIStreamReader@libmedia@UModSys@@@tl@UModSys@@2USUniquePointer@core@3@A@@YAXXZ 0000000140015f5c f    CIL library: CIL module
 0001:00014f68       ??__Fs_dbg@stdlib@media@modules@UModSys@@YAXXZ 0000000140015f68 f    CIL library: CIL module
 0001:00014f8c       ??__F?s_modreg@RModuleReg@stdlib@media@modules@UModSys@@2U12345@A@@YAXXZ 0000000140015f8c f    CIL library: CIL module
 0001:00014f9c       ??__F?s_modreg_chain@RModuleReg@stdlib@media@modules@UModSys@@2USModuleRegChain@base@5@A@@YAXXZ 0000000140015f9c f    CIL library: CIL module
 0001:00014fdc       ??__F?s_uid@RGenerator@stdlib@media@modules@UModSys@@2USUniquePointer@core@5@A@@YAXXZ 0000000140015fdc f    CIL library: CIL module
 0001:00014fe8       ??__Fh@?1??s_holder@RGenerator@stdlib@media@modules@UModSys@@SAAEAU?$TTypeStaticHolder@URGenerator@stdlib@media@modules@UModSys@@@tl@5@XZ@YAXXZ 0000000140015fe8 f    CIL library: CIL module
 0001:00015010       ??__F?s_id@?$TObjectUniqueID@URGenerator@stdlib@media@modules@UModSys@@@tl@UModSys@@2USUniquePointer@core@3@A@@YAXXZ 0000000140016010 f    CIL library: CIL module
 0001:0001501c       ??__F?s_id@?$TObjectUniqueID@URLibraryObjFilter@stdlib@media@modules@UModSys@@@tl@UModSys@@2USUniquePointer@core@3@A@@YAXXZ 000000014001601c f    CIL library: CIL module
 0001:00015028       ??__F?s_id@?$TObjectUniqueID@URLibraryObjCache@stdlib@media@modules@UModSys@@@tl@UModSys@@2USUniquePointer@core@3@A@@YAXXZ 0000000140016028 f    CIL library: CIL module
 0001:00015034       ??__F?s_id@?$TObjectUniqueID@URLibraryLayered@stdlib@media@modules@UModSys@@@tl@UModSys@@2USUniquePointer@core@3@A@@YAXXZ 0000000140016034 f    CIL library: CIL module
 0001:00015040       ??__F?s_id@?$TObjectUniqueID@URLibraryBinCache@stdlib@media@modules@UModSys@@@tl@UModSys@@2USUniquePointer@core@3@A@@YAXXZ 0000000140016040 f    CIL library: CIL module
 0001:0001504c       ??__F?s_id@?$TObjectUniqueID@URLibraryBinTree@stdlib@media@modules@UModSys@@@tl@UModSys@@2USUniquePointer@core@3@A@@YAXXZ 000000014001604c f    CIL library: CIL module
 0001:00015058       ??__F?s_id@?$TObjectUniqueID@URBinArchiveFrame@stdlib@media@modules@UModSys@@@tl@UModSys@@2USUniquePointer@core@3@A@@YAXXZ 0000000140016058 f    CIL library: CIL module
 0001:00015064       ??__F?s_id@?$TObjectUniqueID@URUtilities@stdlib@media@modules@UModSys@@@tl@UModSys@@2USUniquePointer@core@3@A@@YAXXZ 0000000140016064 f    CIL library: CIL module
 0001:00015070       ??__F?s_id@?$TObjectUniqueID@UIClient@IBinArchiveFrame@libmedia@UModSys@@@tl@UModSys@@2USUniquePointer@core@3@A@@YAXXZ 0000000140016070 f    CIL library: CIL module
 0001:0001507c       ??__F?s_id@?$TObjectUniqueID@UIBinArchiveFrame@libmedia@UModSys@@@tl@UModSys@@2USUniquePointer@core@3@A@@YAXXZ 000000014001607c f    CIL library: CIL module
 0001:00015088       ??__F?s_id@?$TObjectUniqueID@UILibraryLayered@libmedia@UModSys@@@tl@UModSys@@2USUniquePointer@core@3@A@@YAXXZ 0000000140016088 f    CIL library: CIL module
 0001:00015094       ??__F?s_id@?$TObjectUniqueID@UILibraryObjCache@libmedia@UModSys@@@tl@UModSys@@2USUniquePointer@core@3@A@@YAXXZ 0000000140016094 f    CIL library: CIL module
 0001:000150a0       ??__F?s_id@?$TObjectUniqueID@UILibraryObjFilter@libmedia@UModSys@@@tl@UModSys@@2USUniquePointer@core@3@A@@YAXXZ 00000001400160a0 f    CIL library: CIL module
 0001:000150ac       ??__F?s_id@?$TObjectUniqueID@UILibraryBinCache@libmedia@UModSys@@@tl@UModSys@@2USUniquePointer@core@3@A@@YAXXZ 00000001400160ac f    CIL library: CIL module
 0001:000150b8       ??__F?s_id@?$TObjectUniqueID@UILibraryBinTree@libmedia@UModSys@@@tl@UModSys@@2USUniquePointer@core@3@A@@YAXXZ 00000001400160b8 f    CIL library: CIL module
 0001:000150c4       ??__F?s_console@RConsole_std@rsystem@base@UModSys@@2U1234@A@@YAXXZ 00000001400160c4 f    CIL library: CIL module
 0001:00015104       ??__F?s_sys@RSystem@rsystem@base@UModSys@@2U1234@A@@YAXXZ 0000000140016104 f    CIL library: CIL module
 0001:00015110       ??__Frsys_dbg@rsystem@base@UModSys@@YAXXZ 0000000140016110 f    CIL library: CIL module
 0001:00015134       ??__FM@UModSys@@YAXXZ      0000000140016134 f    CIL library: CIL module
 0001:00015138       ??__F?root@SModuleRegChain@base@UModSys@@2U123@A@@YAXXZ 0000000140016138 f    CIL library: CIL module
 0001:00015178       ??__F?s_library@RModuleLibraryReg_Chain@base@UModSys@@2U123@A@@YAXXZ 0000000140016178 f    CIL library: CIL module
 0001:00015188       ??__F?root@SUniquePointer@core@UModSys@@2U123@A@@YAXXZ 0000000140016188 f    CIL library: CIL module

 Exports

  ordinal    name

        1    UModSys_Plugin_Entry2
