 umodsysc

 Timestamp is 5280aa85 (Mon Nov 11 12:59:33 2013)

 Preferred load address is 0000000140000000

 Start         Length     Name                   Class
 0001:00000000 0000ddccH .text                   CODE
 0001:0000ddd0 0000005eH .text$00                CODE
 0001:0000de30 00000a49H .text$x                 CODE
 0001:0000e87c 00000a30H .text$yc                CODE
 0001:0000f2ac 00000394H .text$yd                CODE
 0002:00000000 00000258H .idata$5                DATA
 0002:00000258 00000008H .CRT$XCA                DATA
 0002:00000260 00000008H .CRT$XCAA               DATA
 0002:00000268 000003d0H .CRT$XCU                DATA
 0002:00000638 00000008H .CRT$XCZ                DATA
 0002:00000640 00000008H .CRT$XIA                DATA
 0002:00000648 00000008H .CRT$XIAA               DATA
 0002:00000650 00000008H .CRT$XIY                DATA
 0002:00000658 00000008H .CRT$XIZ                DATA
 0002:00000660 00002a08H .rdata                  DATA
 0002:00003070 00001d04H .rdata$r                DATA
 0002:00004d78 00000008H .rtc$IAA                DATA
 0002:00004d80 00000008H .rtc$IZZ                DATA
 0002:00004d88 00000008H .rtc$TAA                DATA
 0002:00004d90 00000008H .rtc$TZZ                DATA
 0002:00004d98 00001810H .xdata                  DATA
 0002:000065a8 000000e4H .xdata$x                DATA
 0002:0000668c 00000028H .idata$2                DATA
 0002:000066b4 00000014H .idata$3                DATA
 0002:000066c8 00000258H .idata$4                DATA
 0002:00006920 00000478H .idata$6                DATA
 0002:00006da0 00000055H .edata                  DATA
 0003:00000000 00001184H .data                   DATA
 0003:00001190 000028e8H .bss                    DATA
 0004:00000000 000013b0H .pdata                  DATA

  Address         Publics by Value              Rva+Base               Lib:Object

 0000:00000000       ___safe_se_handler_count   0000000000000000     <absolute>
 0000:00000000       ___safe_se_handler_table   0000000000000000     <absolute>
 0000:00000000       __ImageBase                0000000140000000     <linker-defined>
 0001:00000000       main                       0000000140001000 f   umodsys.c_main.obj
 0001:0000032c       ??0?$TString@U?$TSCoreConst@D@su@tl@UModSys@@U?$TComparerBinaryHash@D@234@@tl@UModSys@@QEAA@PEBD@Z 000000014000132c f i umodsys.c_main.obj
 0001:00000398       ??1SCMemShared@core@UModSys@@QEAA@XZ 0000000140001398 f i umodsys_lib_libmedia:umodsys.mod.media.std.obj
 0001:00000398       ??1SMemShared@core@UModSys@@QEAA@XZ 0000000140001398 f i umodsys_lib_libmedia:umodsys.mod.media.std.obj
 0001:00000398       ??1SInfo@IBinObjFilter@libmedia@UModSys@@QEAA@XZ 0000000140001398 f i umodsys_lib_libmedia:umodsys.mod.media.std.obj
 0001:000003bc       ??6SUniquePtrList@core@UModSys@@QEAAAEAU012@PEBUSUniquePointerInfo@12@@Z 00000001400013bc f i umodsys_lib_libmedia:umodsys.mod.media.std.obj
 0001:00000474       ??3IRoot@core@UModSys@@SAXPEAXAEBUSIMemAlloc@12@@Z 0000000140001474 f i umodsys_lib_libmedia:umodsys.mod.media.std.obj
 0001:000004a0       ?get_flag@RResolverChain@SFlagsChain@libmedia@UModSys@@UEBA?AW4eStates@?$TFlags4State@USMediaFlagUid@libmedia@UModSys@@I@tl@4@H@Z 00000001400014a0 f i umodsys_lib_libmedia:umodsys.mod.media.std.obj
 0001:000004e0       ??1SLayer@ILibraryLayered@libmedia@UModSys@@QEAA@XZ 00000001400014e0 f i umodsys_lib_libmedia:umodsys.mod.media.std.obj
 0001:000004e0       ??1SPoint@ILibraryBinTree@libmedia@UModSys@@QEAA@XZ 00000001400014e0 f i umodsys_lib_libmedia:umodsys.mod.media.std.obj
 0001:00000504       ?root_get_interface_info@RLibraryBinCache@std@media@modules@UModSys@@UEBAAEBUSUniquePointerInfo@core@5@XZ 0000000140001504 f i umodsys_lib_libmedia:umodsys.mod.media.std.obj
 0001:0000050c       ?root_get_interface_type@RLibraryBinCache@std@media@modules@UModSys@@UEBAPEBUSUniquePointerInfo@core@5@XZ 000000014000150c f i umodsys_lib_libmedia:umodsys.mod.media.std.obj
 0001:00000514       ?root_get_other_interface@RLibraryBinCache@std@media@modules@UModSys@@UEBAPEBUIRoot@core@5@PEBUSUniquePointerInfo@75@@Z 0000000140001514 f i umodsys_lib_libmedia:umodsys.mod.media.std.obj
 0001:00000514       ?root_get_other_interface@RLibraryBinCache@std@media@modules@UModSys@@UEAAPEAUIRoot@core@5@PEBUSUniquePointerInfo@75@@Z 0000000140001514 f i umodsys_lib_libmedia:umodsys.mod.media.std.obj
 0001:0000054c       ?root_is_interface_supported@RLibraryBinCache@std@media@modules@UModSys@@UEBA_NPEBUSUniquePointerInfo@core@5@@Z 000000014000154c f i umodsys_lib_libmedia:umodsys.mod.media.std.obj
 0001:00000584       ?suicide@RLibraryBinTree@std@media@modules@UModSys@@UEAAXXZ 0000000140001584 f i umodsys_lib_libmedia:umodsys.mod.media.std.obj
 0001:00000584       ?suicide@RLibraryObjFilter@std@media@modules@UModSys@@UEAAXXZ 0000000140001584 f i umodsys_lib_libmedia:umodsys.mod.media.std.obj
 0001:00000584       ?suicide@RLibraryObjCache@std@media@modules@UModSys@@UEAAXXZ 0000000140001584 f i umodsys_lib_libmedia:umodsys.mod.media.std.obj
 0001:00000584       ?suicide@RLibraryLayered@std@media@modules@UModSys@@UEAAXXZ 0000000140001584 f i umodsys_lib_libmedia:umodsys.mod.media.std.obj
 0001:00000584       ?suicide@RDataArchiver_OsDir@stdio@media@modules@UModSys@@UEAAXXZ 0000000140001584 f i umodsys_lib_libmedia:umodsys.mod.media.stdio.obj
 0001:00000584       ?suicide@RLibraryBinCache@std@media@modules@UModSys@@UEAAXXZ 0000000140001584 f i umodsys_lib_libmedia:umodsys.mod.media.std.obj
 0001:000005d0       ?get_flags_auto@RLibraryBinCache@std@media@modules@UModSys@@UEBA?AU?$TFlags4State@USMediaFlagUid@libmedia@UModSys@@I@tl@5@XZ 00000001400015d0 f i umodsys_lib_libmedia:umodsys.mod.media.std.obj
 0001:000005dc       ?bin_load@RLibraryBinCache@std@media@modules@UModSys@@UEAA_NAEBU?$TString@U?$TSCoreConst@D@su@tl@UModSys@@U?$TComparerBinaryHash@D@234@@tl@5@AEAUSCMemShared@core@5@AEBUSFlags@libmedia@5@@Z 00000001400015dc f i umodsys_lib_libmedia:umodsys.mod.media.std.obj
 0001:00000700       ?bin_put@RLibraryBinCache@std@media@modules@UModSys@@UEAA_NAEBU?$TString@U?$TSCoreConst@D@su@tl@UModSys@@U?$TComparerBinaryHash@D@234@@tl@5@PEBUSCMemShared@core@5@@Z 0000000140001700 f i umodsys_lib_libmedia:umodsys.mod.media.std.obj
 0001:00000720       ?bincache_get@RLibraryBinCache@std@media@modules@UModSys@@UEBA_NAEBU?$TString@U?$TSCoreConst@D@su@tl@UModSys@@U?$TComparerBinaryHash@D@234@@tl@5@PEAUSCMemShared@core@5@PEA_N@Z 0000000140001720 f i umodsys_lib_libmedia:umodsys.mod.media.std.obj
 0001:000007d8       ?bincache_add@RLibraryBinCache@std@media@modules@UModSys@@UEAA_NAEBU?$TString@U?$TSCoreConst@D@su@tl@UModSys@@U?$TComparerBinaryHash@D@234@@tl@5@@Z 00000001400017d8 f i umodsys_lib_libmedia:umodsys.mod.media.std.obj
 0001:00000800       ?bincache_add@RLibraryBinCache@std@media@modules@UModSys@@UEAA_NAEBU?$TString@U?$TSCoreConst@D@su@tl@UModSys@@U?$TComparerBinaryHash@D@234@@tl@5@AEBUSCMemShared@core@5@@Z 0000000140001800 f i umodsys_lib_libmedia:umodsys.mod.media.std.obj
 0001:00000808       ?bincache_remove@RLibraryBinCache@std@media@modules@UModSys@@UEAA_NAEBU?$TString@U?$TSCoreConst@D@su@tl@UModSys@@U?$TComparerBinaryHash@D@234@@tl@5@@Z 0000000140001808 f i umodsys_lib_libmedia:umodsys.mod.media.std.obj
 0001:00000834       ?bincache_clear@RLibraryBinCache@std@media@modules@UModSys@@UEAA_NXZ 0000000140001834 f i umodsys_lib_libmedia:umodsys.mod.media.std.obj
 0001:000008a8       ?bincache_add@RLibraryBinCache@std@media@modules@UModSys@@QEAA_NAEBU?$TString@U?$TSCoreConst@D@su@tl@UModSys@@U?$TComparerBinaryHash@D@234@@tl@5@AEBUSCMemShared@core@5@_N@Z 00000001400018a8 f i umodsys_lib_libmedia:umodsys.mod.media.std.obj
 0001:00000a44       ??_ERLibraryBinCache@std@media@modules@UModSys@@UEAAPEAXI@Z 0000000140001a44 f i  CIL library: CIL module
 0001:00000a44       ??_GRLibraryBinCache@std@media@modules@UModSys@@UEAAPEAXI@Z 0000000140001a44 f i umodsys_lib_libmedia:umodsys.mod.media.std.obj
 0001:00000af4       ?root_get_interface_info@RLibraryBinTree@std@media@modules@UModSys@@UEBAAEBUSUniquePointerInfo@core@5@XZ 0000000140001af4 f i umodsys_lib_libmedia:umodsys.mod.media.std.obj
 0001:00000afc       ?root_get_interface_type@RLibraryBinTree@std@media@modules@UModSys@@UEBAPEBUSUniquePointerInfo@core@5@XZ 0000000140001afc f i umodsys_lib_libmedia:umodsys.mod.media.std.obj
 0001:00000b04       ?root_get_other_interface@RLibraryBinTree@std@media@modules@UModSys@@UEAAPEAUIRoot@core@5@PEBUSUniquePointerInfo@75@@Z 0000000140001b04 f i umodsys_lib_libmedia:umodsys.mod.media.std.obj
 0001:00000b04       ?root_get_other_interface@RLibraryBinTree@std@media@modules@UModSys@@UEBAPEBUIRoot@core@5@PEBUSUniquePointerInfo@75@@Z 0000000140001b04 f i umodsys_lib_libmedia:umodsys.mod.media.std.obj
 0001:00000b3c       ?root_is_interface_supported@RLibraryBinTree@std@media@modules@UModSys@@UEBA_NPEBUSUniquePointerInfo@core@5@@Z 0000000140001b3c f i umodsys_lib_libmedia:umodsys.mod.media.std.obj
 0001:00000b74       ?ref_weak@RLibraryObjFilter@std@media@modules@UModSys@@UEBA_NAEAUWeakPointer@IRefObject@core@5@@Z 0000000140001b74 f i umodsys_lib_libmedia:umodsys.mod.media.std.obj
 0001:00000b74       ?ref_weak@RLibraryBinCache@std@media@modules@UModSys@@UEBA_NAEAUWeakPointer@IRefObject@core@5@@Z 0000000140001b74 f i umodsys_lib_libmedia:umodsys.mod.media.std.obj
 0001:00000b74       ?ref_weak@RLibraryBinTree@std@media@modules@UModSys@@UEBA_NAEAUWeakPointer@IRefObject@core@5@@Z 0000000140001b74 f i umodsys_lib_libmedia:umodsys.mod.media.std.obj
 0001:00000b74       ?ref_weak@RLibraryLayered@std@media@modules@UModSys@@UEBA_NAEAUWeakPointer@IRefObject@core@5@@Z 0000000140001b74 f i umodsys_lib_libmedia:umodsys.mod.media.std.obj
 0001:00000b74       ?ref_weak@RDataArchiver_OsDir@stdio@media@modules@UModSys@@UEBA_NAEAUWeakPointer@IRefObject@core@5@@Z 0000000140001b74 f i umodsys_lib_libmedia:umodsys.mod.media.stdio.obj
 0001:00000b74       ?ref_weak@RLibraryObjCache@std@media@modules@UModSys@@UEBA_NAEAUWeakPointer@IRefObject@core@5@@Z 0000000140001b74 f i umodsys_lib_libmedia:umodsys.mod.media.std.obj
 0001:00000b94       ?get_flag@RLibraryObjCache@std@media@modules@UModSys@@UEBA?AW4eStates@?$TFlags4State@USMediaFlagUid@libmedia@UModSys@@I@tl@5@H@Z 0000000140001b94 f i umodsys_lib_libmedia:umodsys.mod.media.std.obj
 0001:00000b94       ?get_flag@RLibraryObjFilter@std@media@modules@UModSys@@UEBA?AW4eStates@?$TFlags4State@USMediaFlagUid@libmedia@UModSys@@I@tl@5@H@Z 0000000140001b94 f i umodsys_lib_libmedia:umodsys.mod.media.std.obj
 0001:00000b94       ?get_flag@RLibraryBinCache@std@media@modules@UModSys@@UEBA?AW4eStates@?$TFlags4State@USMediaFlagUid@libmedia@UModSys@@I@tl@5@H@Z 0000000140001b94 f i umodsys_lib_libmedia:umodsys.mod.media.std.obj
 0001:00000b94       ?get_flag@RLibraryBinTree@std@media@modules@UModSys@@UEBA?AW4eStates@?$TFlags4State@USMediaFlagUid@libmedia@UModSys@@I@tl@5@H@Z 0000000140001b94 f i umodsys_lib_libmedia:umodsys.mod.media.std.obj
 0001:00000ba0       ?get_flags_auto@RLibraryBinTree@std@media@modules@UModSys@@UEBA?AU?$TFlags4State@USMediaFlagUid@libmedia@UModSys@@I@tl@5@XZ 0000000140001ba0 f i umodsys_lib_libmedia:umodsys.mod.media.std.obj
 0001:00000bac       ?bin_reader@RLibraryBinTree@std@media@modules@UModSys@@UEAA?AU?$TRefObject@UIStreamReader@libmedia@UModSys@@U?$TRefObjectFunc@UIStreamReader@libmedia@UModSys@@@tl@3@@tl@5@AEBU?$TString@U?$TSCoreConst@D@su@tl@UModSys@@U?$TComparerBinaryHash@D@234@@75@AEBUSFlags@libmedia@5@@Z 0000000140001bac f i umodsys_lib_libmedia:umodsys.mod.media.std.obj
 0001:00000d0c       ?bin_writer@RLibraryBinTree@std@media@modules@UModSys@@UEAA?AU?$TRefObject@UIStreamWriter@libmedia@UModSys@@U?$TRefObjectFunc@UIStreamWriter@libmedia@UModSys@@@tl@3@@tl@5@AEBU?$TString@U?$TSCoreConst@D@su@tl@UModSys@@U?$TComparerBinaryHash@D@234@@75@AEBUSFlags@libmedia@5@@Z 0000000140001d0c f i umodsys_lib_libmedia:umodsys.mod.media.std.obj
 0001:00000e6c       ?bin_load@RLibraryBinTree@std@media@modules@UModSys@@UEAA_NAEBU?$TString@U?$TSCoreConst@D@su@tl@UModSys@@U?$TComparerBinaryHash@D@234@@tl@5@AEAUSCMemShared@core@5@AEBUSFlags@libmedia@5@@Z 0000000140001e6c f i umodsys_lib_libmedia:umodsys.mod.media.std.obj
 0001:00000f98       ?bin_save@RLibraryBinTree@std@media@modules@UModSys@@UEAA_NAEBU?$TString@U?$TSCoreConst@D@su@tl@UModSys@@U?$TComparerBinaryHash@D@234@@tl@5@AEBUSCMem@core@5@AEBUSFlags@libmedia@5@@Z 0000000140001f98 f i umodsys_lib_libmedia:umodsys.mod.media.std.obj
 0001:000010a0       ?obj_cget@RLibraryObjFilter@std@media@modules@UModSys@@UEAA_NAEBU?$TString@U?$TSCoreConst@D@su@tl@UModSys@@U?$TComparerBinaryHash@D@234@@tl@5@AEAU?$TRefObject@UIRefObject@core@UModSys@@U?$TRefObjectFunc@UIRefObject@core@UModSys@@@tl@3@@75@_N@Z 00000001400020a0 f i umodsys_lib_libmedia:umodsys.mod.media.std.obj
 0001:000010a0       ?bin_info@RLibraryBinCache@std@media@modules@UModSys@@UEAA_NAEBU?$TString@U?$TSCoreConst@D@su@tl@UModSys@@U?$TComparerBinaryHash@D@234@@tl@5@AEAU?$TIStackSocket@USFileInfo@libmedia@UModSys@@@75@AEBUSFlags@libmedia@5@@Z 00000001400020a0 f i umodsys_lib_libmedia:umodsys.mod.media.std.obj
 0001:000010a0       ?obj_cput@RLibraryBinTree@std@media@modules@UModSys@@UEAA_NAEBU?$TString@U?$TSCoreConst@D@su@tl@UModSys@@U?$TComparerBinaryHash@D@234@@tl@5@PEAUIRefObject@core@5@@Z 00000001400020a0 f i umodsys_lib_libmedia:umodsys.mod.media.std.obj
 0001:000010a0       ?moduledb_lib_drop@RModuleLoader@rsystem@base@UModSys@@UEAA_NPEAUIModuleLibrary@34@@Z 00000001400020a0 f i umodsys_lib_basesys:umodsys.basesys.rmoduleloader.obj
 0001:000010a0       ?ref_weak@RConsole_std@rsystem@base@UModSys@@UEBA_NAEAUWeakPointer@IRefObject@core@4@@Z 00000001400020a0 f i umodsys_lib_basesys:umodsys.basesys.rconsole_std.obj
 0001:000010a0       ?bin_load@RLibraryObjCache@std@media@modules@UModSys@@UEAA_NAEBU?$TString@U?$TSCoreConst@D@su@tl@UModSys@@U?$TComparerBinaryHash@D@234@@tl@5@AEAUSCMemShared@core@5@AEBUSFlags@libmedia@5@@Z 00000001400020a0 f i umodsys_lib_libmedia:umodsys.mod.media.std.obj
 0001:000010a0       ?obj_fload@RLibraryBinCache@std@media@modules@UModSys@@UEAA_NAEBUSInfo@IBinObjFilter@libmedia@5@PEAUIRefObject@core@5@@Z 00000001400020a0 f i umodsys_lib_libmedia:umodsys.mod.media.std.obj
 0001:000010a0       ?obj_fload@RLibraryObjCache@std@media@modules@UModSys@@UEAA_NAEBUSInfo@IBinObjFilter@libmedia@5@PEAUIRefObject@core@5@@Z 00000001400020a0 f i umodsys_lib_libmedia:umodsys.mod.media.std.obj
 0001:000010a0       ?obj_load@RLibraryObjCache@std@media@modules@UModSys@@UEAA_NAEBU?$TString@U?$TSCoreConst@D@su@tl@UModSys@@U?$TComparerBinaryHash@D@234@@tl@5@PEAUIRefObject@core@5@AEBUSObjOptions@ILibrary@libmedia@5@@Z 00000001400020a0 f i umodsys_lib_libmedia:umodsys.mod.media.std.obj
 0001:000010a0       ?obj_cput@RLibraryObjFilter@std@media@modules@UModSys@@UEAA_NAEBU?$TString@U?$TSCoreConst@D@su@tl@UModSys@@U?$TComparerBinaryHash@D@234@@tl@5@PEAUIRefObject@core@5@@Z 00000001400020a0 f i umodsys_lib_libmedia:umodsys.mod.media.std.obj
 0001:000010a0       ?obj_cput@RLibraryBinCache@std@media@modules@UModSys@@UEAA_NAEBU?$TString@U?$TSCoreConst@D@su@tl@UModSys@@U?$TComparerBinaryHash@D@234@@tl@5@PEAUIRefObject@core@5@@Z 00000001400020a0 f i umodsys_lib_libmedia:umodsys.mod.media.std.obj
 0001:000010a0       ?obj_get@RLibraryBinTree@std@media@modules@UModSys@@UEAA_NAEBU?$TString@U?$TSCoreConst@D@su@tl@UModSys@@U?$TComparerBinaryHash@D@234@@tl@5@AEAU?$TRefObject@UIRefObject@core@UModSys@@U?$TRefObjectFunc@UIRefObject@core@UModSys@@@tl@3@@75@AEBUSObjOptions@ILibrary@libmedia@5@@Z 00000001400020a0 f i umodsys_lib_libmedia:umodsys.mod.media.std.obj
 0001:000010a0       ?obj_fsave@RLibraryObjCache@std@media@modules@UModSys@@UEAA_NAEAUSInfo@IBinObjFilter@libmedia@5@PEBUIRefObject@core@5@@Z 00000001400020a0 f i umodsys_lib_libmedia:umodsys.mod.media.std.obj
 0001:000010a0       ?obj_load@RLibraryObjFilter@std@media@modules@UModSys@@UEAA_NAEBU?$TString@U?$TSCoreConst@D@su@tl@UModSys@@U?$TComparerBinaryHash@D@234@@tl@5@PEAUIRefObject@core@5@AEBUSObjOptions@ILibrary@libmedia@5@@Z 00000001400020a0 f i umodsys_lib_libmedia:umodsys.mod.media.std.obj
 0001:000010a0       ?bin_info@RLibraryObjFilter@std@media@modules@UModSys@@UEAA_NAEBU?$TString@U?$TSCoreConst@D@su@tl@UModSys@@U?$TComparerBinaryHash@D@234@@tl@5@AEAU?$TIStackSocket@USFileInfo@libmedia@UModSys@@@75@AEBUSFlags@libmedia@5@@Z 00000001400020a0 f i umodsys_lib_libmedia:umodsys.mod.media.std.obj
 0001:000010a0       ?bin_get@RLibraryObjCache@std@media@modules@UModSys@@UEAA_NAEBU?$TString@U?$TSCoreConst@D@su@tl@UModSys@@U?$TComparerBinaryHash@D@234@@tl@5@AEAUSCMemShared@core@5@_N@Z 00000001400020a0 f i umodsys_lib_libmedia:umodsys.mod.media.std.obj
 0001:000010a0       ?bin_info@RLibraryObjCache@std@media@modules@UModSys@@UEAA_NAEBU?$TString@U?$TSCoreConst@D@su@tl@UModSys@@U?$TComparerBinaryHash@D@234@@tl@5@AEAUSFileInfo@libmedia@5@AEBUSFlags@95@@Z 00000001400020a0 f i umodsys_lib_libmedia:umodsys.mod.media.std.obj
 0001:000010a0       ?bin_put@RLibraryObjCache@std@media@modules@UModSys@@UEAA_NAEBU?$TString@U?$TSCoreConst@D@su@tl@UModSys@@U?$TComparerBinaryHash@D@234@@tl@5@PEBUSCMemShared@core@5@@Z 00000001400020a0 f i umodsys_lib_libmedia:umodsys.mod.media.std.obj
 0001:000010a0       ?bin_info@RLibraryBinCache@std@media@modules@UModSys@@UEAA_NAEBU?$TString@U?$TSCoreConst@D@su@tl@UModSys@@U?$TComparerBinaryHash@D@234@@tl@5@AEAUSFileInfo@libmedia@5@AEBUSFlags@95@@Z 00000001400020a0 f i umodsys_lib_libmedia:umodsys.mod.media.std.obj
 0001:000010a0       ?obj_load@RLibraryBinCache@std@media@modules@UModSys@@UEAA_NAEBU?$TString@U?$TSCoreConst@D@su@tl@UModSys@@U?$TComparerBinaryHash@D@234@@tl@5@PEAUIRefObject@core@5@AEBUSObjOptions@ILibrary@libmedia@5@@Z 00000001400020a0 f i umodsys_lib_libmedia:umodsys.mod.media.std.obj
 0001:000010a0       ?get_s@RConsole_std@rsystem@base@UModSys@@UEAA_NPEAD_KPEBDZZ 00000001400020a0 f i umodsys_lib_basesys:umodsys.basesys.rconsole_std.obj
 0001:000010a0       ?obj_cget@RLibraryBinCache@std@media@modules@UModSys@@UEAA_NAEBU?$TString@U?$TSCoreConst@D@su@tl@UModSys@@U?$TComparerBinaryHash@D@234@@tl@5@AEAU?$TRefObject@UIRefObject@core@UModSys@@U?$TRefObjectFunc@UIRefObject@core@UModSys@@@tl@3@@75@_N@Z 00000001400020a0 f i umodsys_lib_libmedia:umodsys.mod.media.std.obj
 0001:000010a0       ?bin_load@RLibraryObjFilter@std@media@modules@UModSys@@UEAA_NAEBU?$TString@U?$TSCoreConst@D@su@tl@UModSys@@U?$TComparerBinaryHash@D@234@@tl@5@AEAUSCMemShared@core@5@AEBUSFlags@libmedia@5@@Z 00000001400020a0 f i umodsys_lib_libmedia:umodsys.mod.media.std.obj
 0001:000010a0       ?obj_save@RLibraryObjCache@std@media@modules@UModSys@@UEAA_NAEBU?$TString@U?$TSCoreConst@D@su@tl@UModSys@@U?$TComparerBinaryHash@D@234@@tl@5@PEBUIRefObject@core@5@AEBUSObjOptions@ILibrary@libmedia@5@@Z 00000001400020a0 f i umodsys_lib_libmedia:umodsys.mod.media.std.obj
 0001:000010a0       ?bin_save@RLibraryBinCache@std@media@modules@UModSys@@UEAA_NAEBU?$TString@U?$TSCoreConst@D@su@tl@UModSys@@U?$TComparerBinaryHash@D@234@@tl@5@AEBUSCMem@core@5@AEBUSFlags@libmedia@5@@Z 00000001400020a0 f i umodsys_lib_libmedia:umodsys.mod.media.std.obj
 0001:000010a0       ?obj_fget@RLibraryBinCache@std@media@modules@UModSys@@UEAA_NAEBUSInfo@IBinObjFilter@libmedia@5@AEAU?$TRefObject@UIRefObject@core@UModSys@@U?$TRefObjectFunc@UIRefObject@core@UModSys@@@tl@3@@tl@5@@Z 00000001400020a0 f i umodsys_lib_libmedia:umodsys.mod.media.std.obj
 0001:000010a0       ?bin_info@RLibraryBinTree@std@media@modules@UModSys@@UEAA_NAEBU?$TString@U?$TSCoreConst@D@su@tl@UModSys@@U?$TComparerBinaryHash@D@234@@tl@5@AEAU?$TIStackSocket@USFileInfo@libmedia@UModSys@@@75@AEBUSFlags@libmedia@5@@Z 00000001400020a0 f i umodsys_lib_libmedia:umodsys.mod.media.std.obj
 0001:000010a0       ?bin_put@RLibraryObjFilter@std@media@modules@UModSys@@UEAA_NAEBU?$TString@U?$TSCoreConst@D@su@tl@UModSys@@U?$TComparerBinaryHash@D@234@@tl@5@PEBUSCMemShared@core@5@@Z 00000001400020a0 f i umodsys_lib_libmedia:umodsys.mod.media.std.obj
 0001:000010a0       ?obj_get@RLibraryObjFilter@std@media@modules@UModSys@@UEAA_NAEBU?$TString@U?$TSCoreConst@D@su@tl@UModSys@@U?$TComparerBinaryHash@D@234@@tl@5@AEAU?$TRefObject@UIRefObject@core@UModSys@@U?$TRefObjectFunc@UIRefObject@core@UModSys@@@tl@3@@75@AEBUSObjOptions@ILibrary@libmedia@5@@Z 00000001400020a0 f i umodsys_lib_libmedia:umodsys.mod.media.std.obj
 0001:000010a0       ?obj_save@RLibraryBinTree@std@media@modules@UModSys@@UEAA_NAEBU?$TString@U?$TSCoreConst@D@su@tl@UModSys@@U?$TComparerBinaryHash@D@234@@tl@5@PEBUIRefObject@core@5@AEBUSObjOptions@ILibrary@libmedia@5@@Z 00000001400020a0 f i umodsys_lib_libmedia:umodsys.mod.media.std.obj
 0001:000010a0       ?obj_load@RLibraryBinTree@std@media@modules@UModSys@@UEAA_NAEBU?$TString@U?$TSCoreConst@D@su@tl@UModSys@@U?$TComparerBinaryHash@D@234@@tl@5@PEAUIRefObject@core@5@AEBUSObjOptions@ILibrary@libmedia@5@@Z 00000001400020a0 f i umodsys_lib_libmedia:umodsys.mod.media.std.obj
 0001:000010a0       ?moduledb_load@RModuleLoader@rsystem@base@UModSys@@UEAA_NAEBU?$TString@U?$TSCoreConst@D@su@tl@UModSys@@U?$TComparerBinaryHash@D@234@@tl@4@@Z 00000001400020a0 f i umodsys_lib_basesys:umodsys.basesys.rmoduleloader.obj
 0001:000010a0       ?obj_fload@RLibraryBinTree@std@media@modules@UModSys@@UEAA_NAEBUSInfo@IBinObjFilter@libmedia@5@PEAUIRefObject@core@5@@Z 00000001400020a0 f i umodsys_lib_libmedia:umodsys.mod.media.std.obj
 0001:000010a0       ?bin_get@RLibraryBinTree@std@media@modules@UModSys@@UEAA_NAEBU?$TString@U?$TSCoreConst@D@su@tl@UModSys@@U?$TComparerBinaryHash@D@234@@tl@5@AEAUSCMemShared@core@5@_N@Z 00000001400020a0 f i umodsys_lib_libmedia:umodsys.mod.media.std.obj
 0001:000010a0       ?bin_save@RLibraryObjCache@std@media@modules@UModSys@@UEAA_NAEBU?$TString@U?$TSCoreConst@D@su@tl@UModSys@@U?$TComparerBinaryHash@D@234@@tl@5@AEBUSCMem@core@5@AEBUSFlags@libmedia@5@@Z 00000001400020a0 f i umodsys_lib_libmedia:umodsys.mod.media.std.obj
 0001:000010a0       ?obj_cget@RLibraryBinTree@std@media@modules@UModSys@@UEAA_NAEBU?$TString@U?$TSCoreConst@D@su@tl@UModSys@@U?$TComparerBinaryHash@D@234@@tl@5@AEAU?$TRefObject@UIRefObject@core@UModSys@@U?$TRefObjectFunc@UIRefObject@core@UModSys@@@tl@3@@75@_N@Z 00000001400020a0 f i umodsys_lib_libmedia:umodsys.mod.media.std.obj
 0001:000010a0       ?vget_c@RConsole_std@rsystem@base@UModSys@@UEAA_NPEAHPEBDPEAD@Z 00000001400020a0 f i umodsys_lib_basesys:umodsys.basesys.rconsole_std.obj
 0001:000010a0       ?obj_save@RLibraryBinCache@std@media@modules@UModSys@@UEAA_NAEBU?$TString@U?$TSCoreConst@D@su@tl@UModSys@@U?$TComparerBinaryHash@D@234@@tl@5@PEBUIRefObject@core@5@AEBUSObjOptions@ILibrary@libmedia@5@@Z 00000001400020a0 f i umodsys_lib_libmedia:umodsys.mod.media.std.obj
 0001:000010a0       ?vget_s@RConsole_std@rsystem@base@UModSys@@UEAA_NPEAD_KPEBD0@Z 00000001400020a0 f i umodsys_lib_basesys:umodsys.basesys.rconsole_std.obj
 0001:000010a0       ?bin_info@RLibraryBinTree@std@media@modules@UModSys@@UEAA_NAEBU?$TString@U?$TSCoreConst@D@su@tl@UModSys@@U?$TComparerBinaryHash@D@234@@tl@5@AEAUSFileInfo@libmedia@5@AEBUSFlags@95@@Z 00000001400020a0 f i umodsys_lib_libmedia:umodsys.mod.media.std.obj
 0001:000010a0       ?obj_fsave@RLibraryBinCache@std@media@modules@UModSys@@UEAA_NAEAUSInfo@IBinObjFilter@libmedia@5@PEBUIRefObject@core@5@@Z 00000001400020a0 f i umodsys_lib_libmedia:umodsys.mod.media.std.obj
 0001:000010a0       ?obj_save@RLibraryObjFilter@std@media@modules@UModSys@@UEAA_NAEBU?$TString@U?$TSCoreConst@D@su@tl@UModSys@@U?$TComparerBinaryHash@D@234@@tl@5@PEBUIRefObject@core@5@AEBUSObjOptions@ILibrary@libmedia@5@@Z 00000001400020a0 f i umodsys_lib_libmedia:umodsys.mod.media.std.obj
 0001:000010a0       ?bin_put@RLibraryBinTree@std@media@modules@UModSys@@UEAA_NAEBU?$TString@U?$TSCoreConst@D@su@tl@UModSys@@U?$TComparerBinaryHash@D@234@@tl@5@PEBUSCMemShared@core@5@@Z 00000001400020a0 f i umodsys_lib_libmedia:umodsys.mod.media.std.obj
 0001:000010a0       ?bin_save@RLibraryObjFilter@std@media@modules@UModSys@@UEAA_NAEBU?$TString@U?$TSCoreConst@D@su@tl@UModSys@@U?$TComparerBinaryHash@D@234@@tl@5@AEBUSCMem@core@5@AEBUSFlags@libmedia@5@@Z 00000001400020a0 f i umodsys_lib_libmedia:umodsys.mod.media.std.obj
 0001:000010a0       ?bin_get@RLibraryObjFilter@std@media@modules@UModSys@@UEAA_NAEBU?$TString@U?$TSCoreConst@D@su@tl@UModSys@@U?$TComparerBinaryHash@D@234@@tl@5@AEAUSCMemShared@core@5@_N@Z 00000001400020a0 f i umodsys_lib_libmedia:umodsys.mod.media.std.obj
 0001:000010a0       ?obj_fget@RLibraryObjCache@std@media@modules@UModSys@@UEAA_NAEBUSInfo@IBinObjFilter@libmedia@5@AEAU?$TRefObject@UIRefObject@core@UModSys@@U?$TRefObjectFunc@UIRefObject@core@UModSys@@@tl@3@@tl@5@@Z 00000001400020a0 f i umodsys_lib_libmedia:umodsys.mod.media.std.obj
 0001:000010a0       ?bin_info@RLibraryObjCache@std@media@modules@UModSys@@UEAA_NAEBU?$TString@U?$TSCoreConst@D@su@tl@UModSys@@U?$TComparerBinaryHash@D@234@@tl@5@AEAU?$TIStackSocket@USFileInfo@libmedia@UModSys@@@75@AEBUSFlags@libmedia@5@@Z 00000001400020a0 f i umodsys_lib_libmedia:umodsys.mod.media.std.obj
 0001:000010a0       ?obj_fget@RLibraryBinTree@std@media@modules@UModSys@@UEAA_NAEBUSInfo@IBinObjFilter@libmedia@5@AEAU?$TRefObject@UIRefObject@core@UModSys@@U?$TRefObjectFunc@UIRefObject@core@UModSys@@@tl@3@@tl@5@@Z 00000001400020a0 f i umodsys_lib_libmedia:umodsys.mod.media.std.obj
 0001:000010a0       ?bin_info@RLibraryObjFilter@std@media@modules@UModSys@@UEAA_NAEBU?$TString@U?$TSCoreConst@D@su@tl@UModSys@@U?$TComparerBinaryHash@D@234@@tl@5@AEAUSFileInfo@libmedia@5@AEBUSFlags@95@@Z 00000001400020a0 f i umodsys_lib_libmedia:umodsys.mod.media.std.obj
 0001:000010a0       ?obj_get@RLibraryBinCache@std@media@modules@UModSys@@UEAA_NAEBU?$TString@U?$TSCoreConst@D@su@tl@UModSys@@U?$TComparerBinaryHash@D@234@@tl@5@AEAU?$TRefObject@UIRefObject@core@UModSys@@U?$TRefObjectFunc@UIRefObject@core@UModSys@@@tl@3@@75@AEBUSObjOptions@ILibrary@libmedia@5@@Z 00000001400020a0 f i umodsys_lib_libmedia:umodsys.mod.media.std.obj
 0001:000010a0       ?obj_fsave@RLibraryBinTree@std@media@modules@UModSys@@UEAA_NAEAUSInfo@IBinObjFilter@libmedia@5@PEBUIRefObject@core@5@@Z 00000001400020a0 f i umodsys_lib_libmedia:umodsys.mod.media.std.obj
 0001:000010a4       ?mount_get@RLibraryBinTree@std@media@modules@UModSys@@UEBA?AUSPoint@ILibraryBinTree@libmedia@5@AEBUSId@785@@Z 00000001400020a4 f i umodsys_lib_libmedia:umodsys.mod.media.std.obj
 0001:00001108       ?mount_add@RLibraryBinTree@std@media@modules@UModSys@@UEAA_NAEBUSId@ILibraryBinTree@libmedia@5@AEBUSPoint@785@@Z 0000000140002108 f i umodsys_lib_libmedia:umodsys.mod.media.std.obj
 0001:000012c0       ?mount_remove@RLibraryBinTree@std@media@modules@UModSys@@UEAA_NAEBUSId@ILibraryBinTree@libmedia@5@@Z 00000001400022c0 f i umodsys_lib_libmedia:umodsys.mod.media.std.obj
 0001:000012ec       ?mount_clear@RLibraryBinTree@std@media@modules@UModSys@@UEAA_NXZ 00000001400022ec f i umodsys_lib_libmedia:umodsys.mod.media.std.obj
 0001:0000135c       ??_GRLibraryBinTree@std@media@modules@UModSys@@UEAAPEAXI@Z 000000014000235c f i umodsys_lib_libmedia:umodsys.mod.media.std.obj
 0001:0000135c       ??_ERLibraryBinTree@std@media@modules@UModSys@@UEAAPEAXI@Z 000000014000235c f i  CIL library: CIL module
 0001:00001408       ?root_get_interface_info@RLibraryLayered@std@media@modules@UModSys@@UEBAAEBUSUniquePointerInfo@core@5@XZ 0000000140002408 f i umodsys_lib_libmedia:umodsys.mod.media.std.obj
 0001:00001410       ?root_get_interface_type@RLibraryLayered@std@media@modules@UModSys@@UEBAPEBUSUniquePointerInfo@core@5@XZ 0000000140002410 f i umodsys_lib_libmedia:umodsys.mod.media.std.obj
 0001:00001418       ?root_get_other_interface@RLibraryLayered@std@media@modules@UModSys@@UEAAPEAUIRoot@core@5@PEBUSUniquePointerInfo@75@@Z 0000000140002418 f i umodsys_lib_libmedia:umodsys.mod.media.std.obj
 0001:00001418       ?root_get_other_interface@RLibraryLayered@std@media@modules@UModSys@@UEBAPEBUIRoot@core@5@PEBUSUniquePointerInfo@75@@Z 0000000140002418 f i umodsys_lib_libmedia:umodsys.mod.media.std.obj
 0001:00001450       ?root_is_interface_supported@RLibraryLayered@std@media@modules@UModSys@@UEBA_NPEBUSUniquePointerInfo@core@5@@Z 0000000140002450 f i umodsys_lib_libmedia:umodsys.mod.media.std.obj
 0001:00001488       ?ref_links@RLibraryLayered@std@media@modules@UModSys@@UEBAHXZ 0000000140002488 f i umodsys_lib_libmedia:umodsys.mod.media.std.obj
 0001:00001488       ?ref_links@RLibraryObjFilter@std@media@modules@UModSys@@UEBAHXZ 0000000140002488 f i umodsys_lib_libmedia:umodsys.mod.media.std.obj
 0001:00001488       ?ref_links@RLibraryBinCache@std@media@modules@UModSys@@UEBAHXZ 0000000140002488 f i umodsys_lib_libmedia:umodsys.mod.media.std.obj
 0001:00001488       ?ref_links@RDataArchiver_OsDir@stdio@media@modules@UModSys@@UEBAHXZ 0000000140002488 f i umodsys_lib_libmedia:umodsys.mod.media.stdio.obj
 0001:00001488       ?ref_links@RLibraryObjCache@std@media@modules@UModSys@@UEBAHXZ 0000000140002488 f i umodsys_lib_libmedia:umodsys.mod.media.std.obj
 0001:00001488       ?ref_links@RLibraryBinTree@std@media@modules@UModSys@@UEBAHXZ 0000000140002488 f i umodsys_lib_libmedia:umodsys.mod.media.std.obj
 0001:0000148c       ??4SLayerX@RLibraryLayered@std@media@modules@UModSys@@QEAAXAEBUSLayer@ILibraryLayered@libmedia@5@@Z 000000014000248c f i umodsys_lib_libmedia:umodsys.mod.media.std.obj
 0001:0000157c       ?get_flag@RLibraryLayered@std@media@modules@UModSys@@UEBA?AW4eStates@?$TFlags4State@USMediaFlagUid@libmedia@UModSys@@I@tl@5@H@Z 000000014000257c f i umodsys_lib_libmedia:umodsys.mod.media.std.obj
 0001:00001588       ?get_flags_auto@RLibraryLayered@std@media@modules@UModSys@@UEBA?AU?$TFlags4State@USMediaFlagUid@libmedia@UModSys@@I@tl@5@XZ 0000000140002588 f i umodsys_lib_libmedia:umodsys.mod.media.std.obj
 0001:00001594       ?set_flag@RLibraryLayered@std@media@modules@UModSys@@UEAA?AW4eStates@?$TFlags4State@USMediaFlagUid@libmedia@UModSys@@I@tl@5@HW46785@@Z 0000000140002594 f i umodsys_lib_libmedia:umodsys.mod.media.std.obj
 0001:000015bc       ?bin_reader@RLibraryLayered@std@media@modules@UModSys@@UEAA?AU?$TRefObject@UIStreamReader@libmedia@UModSys@@U?$TRefObjectFunc@UIStreamReader@libmedia@UModSys@@@tl@3@@tl@5@AEBU?$TString@U?$TSCoreConst@D@su@tl@UModSys@@U?$TComparerBinaryHash@D@234@@75@AEBUSFlags@libmedia@5@@Z 00000001400025bc f i umodsys_lib_libmedia:umodsys.mod.media.std.obj
 0001:000016a4       ?bin_writer@RLibraryLayered@std@media@modules@UModSys@@UEAA?AU?$TRefObject@UIStreamWriter@libmedia@UModSys@@U?$TRefObjectFunc@UIStreamWriter@libmedia@UModSys@@@tl@3@@tl@5@AEBU?$TString@U?$TSCoreConst@D@su@tl@UModSys@@U?$TComparerBinaryHash@D@234@@75@AEBUSFlags@libmedia@5@@Z 00000001400026a4 f i umodsys_lib_libmedia:umodsys.mod.media.std.obj
 0001:0000178c       ?bin_load@RLibraryLayered@std@media@modules@UModSys@@UEAA_NAEBU?$TString@U?$TSCoreConst@D@su@tl@UModSys@@U?$TComparerBinaryHash@D@234@@tl@5@AEAUSCMemShared@core@5@AEBUSFlags@libmedia@5@@Z 000000014000278c f i umodsys_lib_libmedia:umodsys.mod.media.std.obj
 0001:00001a34       ?bin_save@RLibraryLayered@std@media@modules@UModSys@@UEAA_NAEBU?$TString@U?$TSCoreConst@D@su@tl@UModSys@@U?$TComparerBinaryHash@D@234@@tl@5@AEBUSCMem@core@5@AEBUSFlags@libmedia@5@@Z 0000000140002a34 f i umodsys_lib_libmedia:umodsys.mod.media.std.obj
 0001:00001c80       ?bin_info@RLibraryLayered@std@media@modules@UModSys@@UEAA_NAEBU?$TString@U?$TSCoreConst@D@su@tl@UModSys@@U?$TComparerBinaryHash@D@234@@tl@5@AEAUSFileInfo@libmedia@5@AEBUSFlags@95@@Z 0000000140002c80 f i umodsys_lib_libmedia:umodsys.mod.media.std.obj
 0001:00001d30       ?bin_info@RLibraryLayered@std@media@modules@UModSys@@UEAA_NAEBU?$TString@U?$TSCoreConst@D@su@tl@UModSys@@U?$TComparerBinaryHash@D@234@@tl@5@AEAU?$TIStackSocket@USFileInfo@libmedia@UModSys@@@75@AEBUSFlags@libmedia@5@@Z 0000000140002d30 f i umodsys_lib_libmedia:umodsys.mod.media.std.obj
 0001:00001df4       ?bin_get@RLibraryLayered@std@media@modules@UModSys@@UEAA_NAEBU?$TString@U?$TSCoreConst@D@su@tl@UModSys@@U?$TComparerBinaryHash@D@234@@tl@5@AEAUSCMemShared@core@5@_N@Z 0000000140002df4 f i umodsys_lib_libmedia:umodsys.mod.media.std.obj
 0001:00001e78       ?bin_put@RLibraryLayered@std@media@modules@UModSys@@UEAA_NAEBU?$TString@U?$TSCoreConst@D@su@tl@UModSys@@U?$TComparerBinaryHash@D@234@@tl@5@PEBUSCMemShared@core@5@@Z 0000000140002e78 f i umodsys_lib_libmedia:umodsys.mod.media.std.obj
 0001:00001ee8       ?obj_fget@RLibraryLayered@std@media@modules@UModSys@@UEAA_NAEBUSInfo@IBinObjFilter@libmedia@5@AEAU?$TRefObject@UIRefObject@core@UModSys@@U?$TRefObjectFunc@UIRefObject@core@UModSys@@@tl@3@@tl@5@@Z 0000000140002ee8 f i umodsys_lib_libmedia:umodsys.mod.media.std.obj
 0001:00001f58       ?obj_fload@RLibraryLayered@std@media@modules@UModSys@@UEAA_NAEBUSInfo@IBinObjFilter@libmedia@5@PEAUIRefObject@core@5@@Z 0000000140002f58 f i umodsys_lib_libmedia:umodsys.mod.media.std.obj
 0001:00001fc8       ?obj_fsave@RLibraryLayered@std@media@modules@UModSys@@UEAA_NAEAUSInfo@IBinObjFilter@libmedia@5@PEBUIRefObject@core@5@@Z 0000000140002fc8 f i umodsys_lib_libmedia:umodsys.mod.media.std.obj
 0001:00002038       ?obj_cget@RLibraryLayered@std@media@modules@UModSys@@UEAA_NAEBU?$TString@U?$TSCoreConst@D@su@tl@UModSys@@U?$TComparerBinaryHash@D@234@@tl@5@AEAU?$TRefObject@UIRefObject@core@UModSys@@U?$TRefObjectFunc@UIRefObject@core@UModSys@@@tl@3@@75@_N@Z 0000000140003038 f i umodsys_lib_libmedia:umodsys.mod.media.std.obj
 0001:000020bc       ?obj_cput@RLibraryLayered@std@media@modules@UModSys@@UEAA_NAEBU?$TString@U?$TSCoreConst@D@su@tl@UModSys@@U?$TComparerBinaryHash@D@234@@tl@5@PEAUIRefObject@core@5@@Z 00000001400030bc f i umodsys_lib_libmedia:umodsys.mod.media.std.obj
 0001:0000212c       ?obj_get@RLibraryLayered@std@media@modules@UModSys@@UEAA_NAEBU?$TString@U?$TSCoreConst@D@su@tl@UModSys@@U?$TComparerBinaryHash@D@234@@tl@5@AEAU?$TRefObject@UIRefObject@core@UModSys@@U?$TRefObjectFunc@UIRefObject@core@UModSys@@@tl@3@@75@AEBUSObjOptions@ILibrary@libmedia@5@@Z 000000014000312c f i umodsys_lib_libmedia:umodsys.mod.media.std.obj
 0001:0000257c       ?obj_load@RLibraryLayered@std@media@modules@UModSys@@UEAA_NAEBU?$TString@U?$TSCoreConst@D@su@tl@UModSys@@U?$TComparerBinaryHash@D@234@@tl@5@PEAUIRefObject@core@5@AEBUSObjOptions@ILibrary@libmedia@5@@Z 000000014000357c f i umodsys_lib_libmedia:umodsys.mod.media.std.obj
 0001:00002750       ?obj_save@RLibraryLayered@std@media@modules@UModSys@@UEAA_NAEBU?$TString@U?$TSCoreConst@D@su@tl@UModSys@@U?$TComparerBinaryHash@D@234@@tl@5@PEBUIRefObject@core@5@AEBUSObjOptions@ILibrary@libmedia@5@@Z 0000000140003750 f i umodsys_lib_libmedia:umodsys.mod.media.std.obj
 0001:00002998       ?layer_count@RLibraryLayered@std@media@modules@UModSys@@UEBA_KAEBUSLayer@ILibraryLayered@libmedia@5@@Z 0000000140003998 f i umodsys_lib_libmedia:umodsys.mod.media.std.obj
 0001:000029a0       ?layer_get@RLibraryLayered@std@media@modules@UModSys@@UEBA?AUSLayer@ILibraryLayered@libmedia@5@_K@Z 00000001400039a0 f i umodsys_lib_libmedia:umodsys.mod.media.std.obj
 0001:00002a08       ?layer_find@RLibraryLayered@std@media@modules@UModSys@@UEBA_KAEBU?$TString@U?$TSCoreConst@D@su@tl@UModSys@@U?$TComparerBinaryHash@D@234@@tl@5@_K@Z 0000000140003a08 f i umodsys_lib_libmedia:umodsys.mod.media.std.obj
 0001:00002aa4       ?layer_insert@RLibraryLayered@std@media@modules@UModSys@@UEAA_NAEBUSLayer@ILibraryLayered@libmedia@5@_K@Z 0000000140003aa4 f i umodsys_lib_libmedia:umodsys.mod.media.std.obj
 0001:00002c60       ?layer_remove@RLibraryLayered@std@media@modules@UModSys@@UEAA_N_K@Z 0000000140003c60 f i umodsys_lib_libmedia:umodsys.mod.media.std.obj
 0001:00002d6c       ?layer_clear@RLibraryLayered@std@media@modules@UModSys@@UEAA_NXZ 0000000140003d6c f i umodsys_lib_libmedia:umodsys.mod.media.std.obj
 0001:00002d78       ??_ERLibraryLayered@std@media@modules@UModSys@@UEAAPEAXI@Z 0000000140003d78 f i  CIL library: CIL module
 0001:00002d78       ??_GRLibraryLayered@std@media@modules@UModSys@@UEAAPEAXI@Z 0000000140003d78 f i umodsys_lib_libmedia:umodsys.mod.media.std.obj
 0001:00002e24       ?root_get_interface_info@RLibraryObjCache@std@media@modules@UModSys@@UEBAAEBUSUniquePointerInfo@core@5@XZ 0000000140003e24 f i umodsys_lib_libmedia:umodsys.mod.media.std.obj
 0001:00002e2c       ?root_get_interface_type@RLibraryObjCache@std@media@modules@UModSys@@UEBAPEBUSUniquePointerInfo@core@5@XZ 0000000140003e2c f i umodsys_lib_libmedia:umodsys.mod.media.std.obj
 0001:00002e34       ?root_get_other_interface@RLibraryObjCache@std@media@modules@UModSys@@UEAAPEAUIRoot@core@5@PEBUSUniquePointerInfo@75@@Z 0000000140003e34 f i umodsys_lib_libmedia:umodsys.mod.media.std.obj
 0001:00002e34       ?root_get_other_interface@RLibraryObjCache@std@media@modules@UModSys@@UEBAPEBUIRoot@core@5@PEBUSUniquePointerInfo@75@@Z 0000000140003e34 f i umodsys_lib_libmedia:umodsys.mod.media.std.obj
 0001:00002e6c       ?root_is_interface_supported@RLibraryObjCache@std@media@modules@UModSys@@UEBA_NPEBUSUniquePointerInfo@core@5@@Z 0000000140003e6c f i umodsys_lib_libmedia:umodsys.mod.media.std.obj
 0001:00002ea4       ?ref_remove@RLibraryObjFilter@std@media@modules@UModSys@@UEBAXXZ 0000000140003ea4 f i umodsys_lib_libmedia:umodsys.mod.media.std.obj
 0001:00002ea4       ?ref_remove@RLibraryBinTree@std@media@modules@UModSys@@UEBAXXZ 0000000140003ea4 f i umodsys_lib_libmedia:umodsys.mod.media.std.obj
 0001:00002ea4       ?ref_remove@RLibraryBinCache@std@media@modules@UModSys@@UEBAXXZ 0000000140003ea4 f i umodsys_lib_libmedia:umodsys.mod.media.std.obj
 0001:00002ea4       ?ref_remove@RDataArchiver_OsDir@stdio@media@modules@UModSys@@UEBAXXZ 0000000140003ea4 f i umodsys_lib_libmedia:umodsys.mod.media.stdio.obj
 0001:00002ea4       ?ref_remove@RLibraryLayered@std@media@modules@UModSys@@UEBAXXZ 0000000140003ea4 f i umodsys_lib_libmedia:umodsys.mod.media.std.obj
 0001:00002ea4       ?ref_remove@RLibraryObjCache@std@media@modules@UModSys@@UEBAXXZ 0000000140003ea4 f i umodsys_lib_libmedia:umodsys.mod.media.std.obj
 0001:00002ebc       ?get_flags_auto@RLibraryObjCache@std@media@modules@UModSys@@UEBA?AU?$TFlags4State@USMediaFlagUid@libmedia@UModSys@@I@tl@5@XZ 0000000140003ebc f i umodsys_lib_libmedia:umodsys.mod.media.std.obj
 0001:00002ec8       ?set_flag@RLibraryBinCache@std@media@modules@UModSys@@UEAA?AW4eStates@?$TFlags4State@USMediaFlagUid@libmedia@UModSys@@I@tl@5@HW46785@@Z 0000000140003ec8 f i umodsys_lib_libmedia:umodsys.mod.media.std.obj
 0001:00002ec8       ?set_flag@RLibraryObjFilter@std@media@modules@UModSys@@UEAA?AW4eStates@?$TFlags4State@USMediaFlagUid@libmedia@UModSys@@I@tl@5@HW46785@@Z 0000000140003ec8 f i umodsys_lib_libmedia:umodsys.mod.media.std.obj
 0001:00002ec8       ?set_flag@RLibraryBinTree@std@media@modules@UModSys@@UEAA?AW4eStates@?$TFlags4State@USMediaFlagUid@libmedia@UModSys@@I@tl@5@HW46785@@Z 0000000140003ec8 f i umodsys_lib_libmedia:umodsys.mod.media.std.obj
 0001:00002ec8       ?set_flag@RLibraryObjCache@std@media@modules@UModSys@@UEAA?AW4eStates@?$TFlags4State@USMediaFlagUid@libmedia@UModSys@@I@tl@5@HW46785@@Z 0000000140003ec8 f i umodsys_lib_libmedia:umodsys.mod.media.std.obj
 0001:00002ef0       ?bin_reader@RLibraryBinCache@std@media@modules@UModSys@@UEAA?AU?$TRefObject@UIStreamReader@libmedia@UModSys@@U?$TRefObjectFunc@UIStreamReader@libmedia@UModSys@@@tl@3@@tl@5@AEBU?$TString@U?$TSCoreConst@D@su@tl@UModSys@@U?$TComparerBinaryHash@D@234@@75@AEBUSFlags@libmedia@5@@Z 0000000140003ef0 f i umodsys_lib_libmedia:umodsys.mod.media.std.obj
 0001:00002ef0       ?bin_reader@RLibraryObjCache@std@media@modules@UModSys@@UEAA?AU?$TRefObject@UIStreamReader@libmedia@UModSys@@U?$TRefObjectFunc@UIStreamReader@libmedia@UModSys@@@tl@3@@tl@5@AEBU?$TString@U?$TSCoreConst@D@su@tl@UModSys@@U?$TComparerBinaryHash@D@234@@75@AEBUSFlags@libmedia@5@@Z 0000000140003ef0 f i umodsys_lib_libmedia:umodsys.mod.media.std.obj
 0001:00002ef0       ?bin_writer@RLibraryObjFilter@std@media@modules@UModSys@@UEAA?AU?$TRefObject@UIStreamWriter@libmedia@UModSys@@U?$TRefObjectFunc@UIStreamWriter@libmedia@UModSys@@@tl@3@@tl@5@AEBU?$TString@U?$TSCoreConst@D@su@tl@UModSys@@U?$TComparerBinaryHash@D@234@@75@AEBUSFlags@libmedia@5@@Z 0000000140003ef0 f i umodsys_lib_libmedia:umodsys.mod.media.std.obj
 0001:00002ef0       ?bin_reader@RLibraryObjFilter@std@media@modules@UModSys@@UEAA?AU?$TRefObject@UIStreamReader@libmedia@UModSys@@U?$TRefObjectFunc@UIStreamReader@libmedia@UModSys@@@tl@3@@tl@5@AEBU?$TString@U?$TSCoreConst@D@su@tl@UModSys@@U?$TComparerBinaryHash@D@234@@75@AEBUSFlags@libmedia@5@@Z 0000000140003ef0 f i umodsys_lib_libmedia:umodsys.mod.media.std.obj
 0001:00002ef0       ?bin_writer@RLibraryBinCache@std@media@modules@UModSys@@UEAA?AU?$TRefObject@UIStreamWriter@libmedia@UModSys@@U?$TRefObjectFunc@UIStreamWriter@libmedia@UModSys@@@tl@3@@tl@5@AEBU?$TString@U?$TSCoreConst@D@su@tl@UModSys@@U?$TComparerBinaryHash@D@234@@75@AEBUSFlags@libmedia@5@@Z 0000000140003ef0 f i umodsys_lib_libmedia:umodsys.mod.media.std.obj
 0001:00002ef0       ?bin_writer@RLibraryObjCache@std@media@modules@UModSys@@UEAA?AU?$TRefObject@UIStreamWriter@libmedia@UModSys@@U?$TRefObjectFunc@UIStreamWriter@libmedia@UModSys@@@tl@3@@tl@5@AEBU?$TString@U?$TSCoreConst@D@su@tl@UModSys@@U?$TComparerBinaryHash@D@234@@75@AEBUSFlags@libmedia@5@@Z 0000000140003ef0 f i umodsys_lib_libmedia:umodsys.mod.media.std.obj
 0001:00002f00       ?bin_get@RLibraryBinCache@std@media@modules@UModSys@@UEAA_NAEBU?$TString@U?$TSCoreConst@D@su@tl@UModSys@@U?$TComparerBinaryHash@D@234@@tl@5@AEAUSCMemShared@core@5@_N@Z 0000000140003f00 f i umodsys_lib_libmedia:umodsys.mod.media.std.obj
 0001:00002f00       ?obj_cget@RLibraryObjCache@std@media@modules@UModSys@@UEAA_NAEBU?$TString@U?$TSCoreConst@D@su@tl@UModSys@@U?$TComparerBinaryHash@D@234@@tl@5@AEAU?$TRefObject@UIRefObject@core@UModSys@@U?$TRefObjectFunc@UIRefObject@core@UModSys@@@tl@3@@75@_N@Z 0000000140003f00 f i umodsys_lib_libmedia:umodsys.mod.media.std.obj
 0001:00002f34       ?obj_cput@RLibraryObjCache@std@media@modules@UModSys@@UEAA_NAEBU?$TString@U?$TSCoreConst@D@su@tl@UModSys@@U?$TComparerBinaryHash@D@234@@tl@5@PEAUIRefObject@core@5@@Z 0000000140003f34 f i umodsys_lib_libmedia:umodsys.mod.media.std.obj
 0001:00002f40       ?obj_get@RLibraryObjCache@std@media@modules@UModSys@@UEAA_NAEBU?$TString@U?$TSCoreConst@D@su@tl@UModSys@@U?$TComparerBinaryHash@D@234@@tl@5@AEAU?$TRefObject@UIRefObject@core@UModSys@@U?$TRefObjectFunc@UIRefObject@core@UModSys@@@tl@3@@75@AEBUSObjOptions@ILibrary@libmedia@5@@Z 0000000140003f40 f i umodsys_lib_libmedia:umodsys.mod.media.std.obj
 0001:000030ac       ?objcache_get@RLibraryObjCache@std@media@modules@UModSys@@UEBA_NAEBU?$TString@U?$TSCoreConst@D@su@tl@UModSys@@U?$TComparerBinaryHash@D@234@@tl@5@PEAU?$TRefObject@UIRefObject@core@UModSys@@U?$TRefObjectFunc@UIRefObject@core@UModSys@@@tl@3@@75@PEA_N@Z 00000001400040ac f i umodsys_lib_libmedia:umodsys.mod.media.std.obj
 0001:0000314c       ?objcache_add@RLibraryObjCache@std@media@modules@UModSys@@UEAA_NAEBU?$TString@U?$TSCoreConst@D@su@tl@UModSys@@U?$TComparerBinaryHash@D@234@@tl@5@PEAUIRefObject@core@5@@Z 000000014000414c f i umodsys_lib_libmedia:umodsys.mod.media.std.obj
 0001:000032dc       ?objcache_remove@RLibraryObjCache@std@media@modules@UModSys@@UEAA_NAEBU?$TString@U?$TSCoreConst@D@su@tl@UModSys@@U?$TComparerBinaryHash@D@234@@tl@5@@Z 00000001400042dc f i umodsys_lib_libmedia:umodsys.mod.media.std.obj
 0001:00003308       ?objcache_clear@RLibraryObjCache@std@media@modules@UModSys@@UEAA_NXZ 0000000140004308 f i umodsys_lib_libmedia:umodsys.mod.media.std.obj
 0001:00003378       ??_ERLibraryObjCache@std@media@modules@UModSys@@UEAAPEAXI@Z 0000000140004378 f i  CIL library: CIL module
 0001:00003378       ??_GRLibraryObjCache@std@media@modules@UModSys@@UEAAPEAXI@Z 0000000140004378 f i umodsys_lib_libmedia:umodsys.mod.media.std.obj
 0001:00003424       ?root_get_interface_info@RLibraryObjFilter@std@media@modules@UModSys@@UEBAAEBUSUniquePointerInfo@core@5@XZ 0000000140004424 f i umodsys_lib_libmedia:umodsys.mod.media.std.obj
 0001:0000342c       ?root_get_interface_type@RLibraryObjFilter@std@media@modules@UModSys@@UEBAPEBUSUniquePointerInfo@core@5@XZ 000000014000442c f i umodsys_lib_libmedia:umodsys.mod.media.std.obj
 0001:00003434       ?root_get_other_interface@RLibraryObjFilter@std@media@modules@UModSys@@UEAAPEAUIRoot@core@5@PEBUSUniquePointerInfo@75@@Z 0000000140004434 f i umodsys_lib_libmedia:umodsys.mod.media.std.obj
 0001:00003434       ?root_get_other_interface@RLibraryObjFilter@std@media@modules@UModSys@@UEBAPEBUIRoot@core@5@PEBUSUniquePointerInfo@75@@Z 0000000140004434 f i umodsys_lib_libmedia:umodsys.mod.media.std.obj
 0001:0000346c       ?root_is_interface_supported@RLibraryObjFilter@std@media@modules@UModSys@@UEBA_NPEBUSUniquePointerInfo@core@5@@Z 000000014000446c f i umodsys_lib_libmedia:umodsys.mod.media.std.obj
 0001:000034a4       ?get_flags_auto@RLibraryObjFilter@std@media@modules@UModSys@@UEBA?AU?$TFlags4State@USMediaFlagUid@libmedia@UModSys@@I@tl@5@XZ 00000001400044a4 f i umodsys_lib_libmedia:umodsys.mod.media.std.obj
 0001:000034b0       ?obj_fget@RLibraryObjFilter@std@media@modules@UModSys@@UEAA_NAEBUSInfo@IBinObjFilter@libmedia@5@AEAU?$TRefObject@UIRefObject@core@UModSys@@U?$TRefObjectFunc@UIRefObject@core@UModSys@@@tl@3@@tl@5@@Z 00000001400044b0 f i umodsys_lib_libmedia:umodsys.mod.media.std.obj
 0001:000034bc       ?obj_fload@RLibraryObjFilter@std@media@modules@UModSys@@UEAA_NAEBUSInfo@IBinObjFilter@libmedia@5@PEAUIRefObject@core@5@@Z 00000001400044bc f i umodsys_lib_libmedia:umodsys.mod.media.std.obj
 0001:000034c8       ?obj_fsave@RLibraryObjFilter@std@media@modules@UModSys@@UEAA_NAEAUSInfo@IBinObjFilter@libmedia@5@PEBUIRefObject@core@5@@Z 00000001400044c8 f i umodsys_lib_libmedia:umodsys.mod.media.std.obj
 0001:000034d4       ?filters_add@RLibraryObjFilter@std@media@modules@UModSys@@UEAA_NU?$TRefObject@UIBinObjFilter@libmedia@UModSys@@U?$TRefObjectFunc@UIBinObjFilter@libmedia@UModSys@@@tl@3@@tl@5@PEBUSParameters@core@5@H@Z 00000001400044d4 f i umodsys_lib_libmedia:umodsys.mod.media.std.obj
 0001:000035d0       ?filters_remove@RLibraryObjFilter@std@media@modules@UModSys@@UEAA_NPEAUIBinObjFilter@libmedia@5@H@Z 00000001400045d0 f i umodsys_lib_libmedia:umodsys.mod.media.std.obj
 0001:00003644       ?filters_clear@RLibraryObjFilter@std@media@modules@UModSys@@UEAA_NXZ 0000000140004644 f i umodsys_lib_libmedia:umodsys.mod.media.std.obj
 0001:000036c4       ?filters_load@RLibraryObjFilter@std@media@modules@UModSys@@UEAA_NAEBUSInfo@IBinObjFilter@libmedia@5@AEAU?$TRefObject@UIRefObject@core@UModSys@@U?$TRefObjectFunc@UIRefObject@core@UModSys@@@tl@3@@tl@5@@Z 00000001400046c4 f i umodsys_lib_libmedia:umodsys.mod.media.std.obj
 0001:0000375c       ?filters_load@RLibraryObjFilter@std@media@modules@UModSys@@UEAA_NAEBUSInfo@IBinObjFilter@libmedia@5@PEAUIRefObject@core@5@@Z 000000014000475c f i umodsys_lib_libmedia:umodsys.mod.media.std.obj
 0001:000037f4       ?filters_save@RLibraryObjFilter@std@media@modules@UModSys@@UEAA_NAEAUSInfo@IBinObjFilter@libmedia@5@PEBUIRefObject@core@5@@Z 00000001400047f4 f i umodsys_lib_libmedia:umodsys.mod.media.std.obj
 0001:0000388c       ??_GRLibraryObjFilter@std@media@modules@UModSys@@UEAAPEAXI@Z 000000014000488c f i umodsys_lib_libmedia:umodsys.mod.media.std.obj
 0001:0000388c       ??_ERLibraryObjFilter@std@media@modules@UModSys@@UEAAPEAXI@Z 000000014000488c f i  CIL library: CIL module
 0001:00003948       ?get_generated_names@RGenerator@std@media@modules@UModSys@@UEBAHAEAUSUniquePtrList@core@5@@Z 0000000140004948 f i umodsys_lib_libmedia:umodsys.mod.media.std.obj
 0001:000039a8       ?get_generated_types@RGenerator@std@media@modules@UModSys@@UEBAHAEAUSUniquePtrList@core@5@PEBUSUniquePointerInfo@75@@Z 00000001400049a8 f i umodsys_lib_libmedia:umodsys.mod.media.std.obj
 0001:00003a84       ?generate@RGenerator@std@media@modules@UModSys@@UEAA_NAEAU?$TRefObject@UIRefObject@core@UModSys@@U?$TRefObjectFunc@UIRefObject@core@UModSys@@@tl@3@@tl@5@PEBUSUniquePointerInfo@core@5@AEBUSParameters@95@@Z 0000000140004a84 f i umodsys_lib_libmedia:umodsys.mod.media.std.obj
 0001:00003c2c       ?root_get_interface_info@RGenerator@std@media@modules@UModSys@@UEBAAEBUSUniquePointerInfo@core@5@XZ 0000000140004c2c f i umodsys_lib_libmedia:umodsys.mod.media.std.obj
 0001:00003c34       ?root_get_interface_type@RGenerator@std@media@modules@UModSys@@UEBAPEBUSUniquePointerInfo@core@5@XZ 0000000140004c34 f i umodsys_lib_libmedia:umodsys.mod.media.std.obj
 0001:00003c3c       ?root_get_other_interface@RGenerator@std@media@modules@UModSys@@UEBAPEBUIRoot@core@5@PEBUSUniquePointerInfo@75@@Z 0000000140004c3c f i umodsys_lib_libmedia:umodsys.mod.media.std.obj
 0001:00003c3c       ?root_get_other_interface@RGenerator@std@media@modules@UModSys@@UEAAPEAUIRoot@core@5@PEBUSUniquePointerInfo@75@@Z 0000000140004c3c f i umodsys_lib_libmedia:umodsys.mod.media.std.obj
 0001:00003c74       ?root_is_interface_supported@RGenerator@std@media@modules@UModSys@@UEBA_NPEBUSUniquePointerInfo@core@5@@Z 0000000140004c74 f i umodsys_lib_libmedia:umodsys.mod.media.std.obj
 0001:00003cac       ?ref_add@RStreamWriter_FILE@stdio@media@modules@UModSys@@UEBAXXZ 0000000140004cac f i umodsys_lib_libmedia:umodsys.mod.media.stdio.obj
 0001:00003cac       ?ref_add@RStreamReader_FILE@stdio@media@modules@UModSys@@UEBAXXZ 0000000140004cac f i umodsys_lib_libmedia:umodsys.mod.media.stdio.obj
 0001:00003cac       ?ref_add@RGenerator@std@media@modules@UModSys@@UEBAXXZ 0000000140004cac f i umodsys_lib_libmedia:umodsys.mod.media.std.obj
 0001:00003cac       ?ref_add@RGenerator@stdio@media@modules@UModSys@@UEBAXXZ 0000000140004cac f i umodsys_lib_libmedia:umodsys.mod.media.stdio.obj
 0001:00003cb0       ?suicide@RGenerator@std@media@modules@UModSys@@UEAAXXZ 0000000140004cb0 f i umodsys_lib_libmedia:umodsys.mod.media.std.obj
 0001:00003cb0       ?ref_add@RConsole_std@rsystem@base@UModSys@@UEBAXXZ 0000000140004cb0 f i umodsys_lib_basesys:umodsys.basesys.rconsole_std.obj
 0001:00003cb0       ?suicide@RGenerator@stdio@media@modules@UModSys@@UEAAXXZ 0000000140004cb0 f i umodsys_lib_libmedia:umodsys.mod.media.stdio.obj
 0001:00003cb0       ?ref_remove@RConsole_std@rsystem@base@UModSys@@UEBAXXZ 0000000140004cb0 f i umodsys_lib_basesys:umodsys.basesys.rconsole_std.obj
 0001:00003cb0       ??3@YAXPEAX0@Z             0000000140004cb0 f i umodsys_lib_libmedia:umodsys.mod.media.std.obj
 0001:00003cb4       ?get_uid@RGenerator@std@media@modules@UModSys@@UEBAPEBUSUniquePointerInfo@core@5@XZ 0000000140004cb4 f i umodsys_lib_libmedia:umodsys.mod.media.std.obj
 0001:00003cbc       ?do_open@RModuleReg@std@media@modules@UModSys@@UEAA_NXZ 0000000140004cbc f i umodsys_lib_libmedia:umodsys.mod.media.std.obj
 0001:00003d30       ?do_close@RModuleReg@std@media@modules@UModSys@@UEAA_NXZ 0000000140004d30 f i umodsys_lib_libmedia:umodsys.mod.media.std.obj
 0001:00003d80       ??_GIModuleReg@base@UModSys@@UEAAPEAXI@Z 0000000140004d80 f i umodsys_lib_base:umodsys.base.modulereg.obj
 0001:00003d80       ??_GRModuleReg@stdio@media@modules@UModSys@@UEAAPEAXI@Z 0000000140004d80 f i umodsys_lib_libmedia:umodsys.mod.media.stdio.obj
 0001:00003d80       ??_ERModuleReg@std@media@modules@UModSys@@UEAAPEAXI@Z 0000000140004d80 f i  CIL library: CIL module
 0001:00003d80       ??_GRModuleReg@std@media@modules@UModSys@@UEAAPEAXI@Z 0000000140004d80 f i umodsys_lib_libmedia:umodsys.mod.media.std.obj
 0001:00003d80       ??_ERModuleReg@stdio@media@modules@UModSys@@UEAAPEAXI@Z 0000000140004d80 f i  CIL library: CIL module
 0001:00003d80       ??_EIModuleReg@base@UModSys@@UEAAPEAXI@Z 0000000140004d80 f i  CIL library: CIL module
 0001:00003da8       ?get_module@RGenerator@std@media@modules@UModSys@@UEBAPEAUIModule@base@5@XZ 0000000140004da8 f   umodsys_lib_libmedia:umodsys.mod.media.std.obj
 0001:00003db0       ?mod_inc@RGenerator@std@media@modules@UModSys@@UEBA_NXZ 0000000140004db0 f   umodsys_lib_libmedia:umodsys.mod.media.std.obj
 0001:00003dc0       ?mod_dec@RGenerator@std@media@modules@UModSys@@UEBA_NXZ 0000000140004dc0 f   umodsys_lib_libmedia:umodsys.mod.media.std.obj
 0001:00003dd4       ?s_holder@RGenerator@std@media@modules@UModSys@@SAAEAU?$TTypeStaticHolder@URGenerator@std@media@modules@UModSys@@@tl@5@XZ 0000000140004dd4 f   umodsys_lib_libmedia:umodsys.mod.media.std.obj
 0001:00003e18       ??1?$TSCoreShared@USIMemAlloc@core@UModSys@@D@su@tl@UModSys@@QEAA@XZ 0000000140004e18 f i umodsys_lib_libmedia:umodsys.mod.media.std.obj
 0001:00003e18       ??1?$TString@U?$TSCoreShared@USIMemAlloc@core@UModSys@@D@su@tl@UModSys@@U?$TComparerBinaryHash@D@234@@tl@UModSys@@QEAA@XZ 0000000140004e18 f i umodsys_lib_libmedia:umodsys.mod.media.std.obj
 0001:00003e68       ??R?$TScatterArray@USCacheElem@RLibraryBinCache@std@media@modules@UModSys@@U?$TString@U?$TSCoreConst@D@su@tl@UModSys@@U?$TComparerBinaryHash@D@234@@tl@6@U?$TObjectCompare@U?$TString@U?$TSCoreConst@D@su@tl@UModSys@@U?$TComparerBinaryHash@D@234@@tl@UModSys@@@core@6@U?$TNodeDeleter0@U?$TScatterArrayNode@USCacheElem@RLibraryBinCache@std@media@modules@UModSys@@U?$TString@U?$TSCoreConst@D@su@tl@UModSys@@U?$TComparerBinaryHash@D@234@@tl@6@@tl@UModSys@@@86@@tl@UModSys@@QEAAPEAUSCacheElem@RLibraryBinCache@std@media@modules@2@AEBU?$TString@U?$TSCoreConst@D@su@tl@UModSys@@U?$TComparerBinaryHash@D@234@@12@PEAUVoid@core@2@@Z 0000000140004e68 f i umodsys_lib_libmedia:umodsys.mod.media.std.obj
 0001:00003fe0       ??R?$TScatterArray@USMountInfo@RLibraryBinTree@std@media@modules@UModSys@@USId@ILibraryBinTree@libmedia@6@U7896@U?$TNodeDeleter0@U?$TScatterArrayNode@USMountInfo@RLibraryBinTree@std@media@modules@UModSys@@USId@ILibraryBinTree@libmedia@6@@tl@UModSys@@@tl@6@@tl@UModSys@@QEAAPEAUSMountInfo@RLibraryBinTree@std@media@modules@2@AEBUSId@ILibraryBinTree@libmedia@2@PEAUVoid@core@2@@Z 0000000140004fe0 f i umodsys_lib_libmedia:umodsys.mod.media.std.obj
 0001:000040dc       ??R?$TScatterArray@USCacheElem@RLibraryObjCache@std@media@modules@UModSys@@U?$TString@U?$TSCoreConst@D@su@tl@UModSys@@U?$TComparerBinaryHash@D@234@@tl@6@U?$TObjectCompare@U?$TString@U?$TSCoreConst@D@su@tl@UModSys@@U?$TComparerBinaryHash@D@234@@tl@UModSys@@@core@6@U?$TNodeDeleter0@U?$TScatterArrayNode@USCacheElem@RLibraryObjCache@std@media@modules@UModSys@@U?$TString@U?$TSCoreConst@D@su@tl@UModSys@@U?$TComparerBinaryHash@D@234@@tl@6@@tl@UModSys@@@86@@tl@UModSys@@QEAAPEAUSCacheElem@RLibraryObjCache@std@media@modules@2@AEBU?$TString@U?$TSCoreConst@D@su@tl@UModSys@@U?$TComparerBinaryHash@D@234@@12@PEAUVoid@core@2@@Z 00000001400050dc f i umodsys_lib_libmedia:umodsys.mod.media.std.obj
 0001:000041d8       ??R?$TScatterArray@USFilter@RLibraryObjFilter@std@media@modules@UModSys@@USId@23456@U723456@U?$TNodeDeleter0@U?$TScatterArrayNode@USFilter@RLibraryObjFilter@std@media@modules@UModSys@@USId@23456@@tl@UModSys@@@tl@6@@tl@UModSys@@QEAAPEAUSFilter@RLibraryObjFilter@std@media@modules@2@AEBUSId@45672@PEAUVoid@core@2@@Z 00000001400051d8 f i umodsys_lib_libmedia:umodsys.mod.media.std.obj
 0001:000042c8       ?delete_node@?$TTreeHoldRBD@U?$TScatterArrayNode@USCacheElem@RLibraryBinCache@std@media@modules@UModSys@@U?$TString@U?$TSCoreConst@D@su@tl@UModSys@@U?$TComparerBinaryHash@D@234@@tl@6@@tl@UModSys@@U?$TNodeDeleter0@U?$TScatterArrayNode@USCacheElem@RLibraryBinCache@std@media@modules@UModSys@@U?$TString@U?$TSCoreConst@D@su@tl@UModSys@@U?$TComparerBinaryHash@D@234@@tl@6@@tl@UModSys@@@23@@tl@UModSys@@QEAAXPEAU?$TScatterArrayNode@USCacheElem@RLibraryBinCache@std@media@modules@UModSys@@U?$TString@U?$TSCoreConst@D@su@tl@UModSys@@U?$TComparerBinaryHash@D@234@@tl@6@@23@@Z 00000001400052c8 f i umodsys_lib_libmedia:umodsys.mod.media.std.obj
 0001:000043e8       ?delete_node@?$TTreeHoldRBD@U?$TScatterArrayNode@USMountInfo@RLibraryBinTree@std@media@modules@UModSys@@USId@ILibraryBinTree@libmedia@6@@tl@UModSys@@U?$TNodeDeleter0@U?$TScatterArrayNode@USMountInfo@RLibraryBinTree@std@media@modules@UModSys@@USId@ILibraryBinTree@libmedia@6@@tl@UModSys@@@23@@tl@UModSys@@QEAAXPEAU?$TScatterArrayNode@USMountInfo@RLibraryBinTree@std@media@modules@UModSys@@USId@ILibraryBinTree@libmedia@6@@23@@Z 00000001400053e8 f i umodsys_lib_libmedia:umodsys.mod.media.std.obj
 0001:0000450c       ?Resize@?$TDynarray@U?$TDynarrayHolderDynamic@USLayerX@RLibraryLayered@std@media@modules@UModSys@@U?$TAllocator@USIMemAlloc@core@UModSys@@USCountCalcPower2@23@@tl@6@@tl@UModSys@@@tl@UModSys@@QEAA_N_K@Z 000000014000550c f i umodsys_lib_libmedia:umodsys.mod.media.std.obj
 0001:00004630       ?delete_node@?$TTreeHoldRBD@U?$TScatterArrayNode@USCacheElem@RLibraryObjCache@std@media@modules@UModSys@@U?$TString@U?$TSCoreConst@D@su@tl@UModSys@@U?$TComparerBinaryHash@D@234@@tl@6@@tl@UModSys@@U?$TNodeDeleter0@U?$TScatterArrayNode@USCacheElem@RLibraryObjCache@std@media@modules@UModSys@@U?$TString@U?$TSCoreConst@D@su@tl@UModSys@@U?$TComparerBinaryHash@D@234@@tl@6@@tl@UModSys@@@23@@tl@UModSys@@QEAAXPEAU?$TScatterArrayNode@USCacheElem@RLibraryObjCache@std@media@modules@UModSys@@U?$TString@U?$TSCoreConst@D@su@tl@UModSys@@U?$TComparerBinaryHash@D@234@@tl@6@@23@@Z 0000000140005630 f i umodsys_lib_libmedia:umodsys.mod.media.std.obj
 0001:00004754       ?delete_node@?$TTreeHoldRBD@U?$TScatterArrayNode@USFilter@RLibraryObjFilter@std@media@modules@UModSys@@USId@23456@@tl@UModSys@@U?$TNodeDeleter0@U?$TScatterArrayNode@USFilter@RLibraryObjFilter@std@media@modules@UModSys@@USId@23456@@tl@UModSys@@@23@@tl@UModSys@@QEAAXPEAU?$TScatterArrayNode@USFilter@RLibraryObjFilter@std@media@modules@UModSys@@USId@23456@@23@@Z 0000000140005754 f i umodsys_lib_libmedia:umodsys.mod.media.std.obj
 0001:00004880       ??R?$TNodeDeleter0@U?$TScatterArrayNode@USMountInfo@RLibraryBinTree@std@media@modules@UModSys@@USId@ILibraryBinTree@libmedia@6@@tl@UModSys@@@tl@UModSys@@QEBAHPEAU?$TScatterArrayNode@USMountInfo@RLibraryBinTree@std@media@modules@UModSys@@USId@ILibraryBinTree@libmedia@6@@12@@Z 0000000140005880 f i umodsys_lib_libmedia:umodsys.mod.media.std.obj
 0001:00004914       ??R?$TNodeDeleter0@U?$TScatterArrayNode@USCacheElem@RLibraryObjCache@std@media@modules@UModSys@@U?$TString@U?$TSCoreConst@D@su@tl@UModSys@@U?$TComparerBinaryHash@D@234@@tl@6@@tl@UModSys@@@tl@UModSys@@QEBAHPEAU?$TScatterArrayNode@USCacheElem@RLibraryObjCache@std@media@modules@UModSys@@U?$TString@U?$TSCoreConst@D@su@tl@UModSys@@U?$TComparerBinaryHash@D@234@@tl@6@@12@@Z 0000000140005914 f i umodsys_lib_libmedia:umodsys.mod.media.std.obj
 0001:000049a4       ?set@?$TSCoreShared@USIMemAlloc@core@UModSys@@D@su@tl@UModSys@@QEAAXPEBD_K@Z 00000001400059a4 f i umodsys_lib_libmedia:umodsys.mod.media.std.obj
 0001:00004a64       ??1?$TPair@U?$TString@U?$TSCoreConst@D@su@tl@UModSys@@U?$TComparerBinaryHash@D@234@@tl@UModSys@@USCacheElem@RLibraryBinCache@std@media@modules@3@@tl@UModSys@@QEAA@XZ 0000000140005a64 f i umodsys_lib_libmedia:umodsys.mod.media.std.obj
 0001:00004a70       ??1?$TPair@USId@ILibraryBinTree@libmedia@UModSys@@USMountInfo@RLibraryBinTree@std@media@modules@4@@tl@UModSys@@QEAA@XZ 0000000140005a70 f i umodsys_lib_libmedia:umodsys.mod.media.std.obj
 0001:00004ae4       ??1?$TPair@U?$TString@U?$TSCoreConst@D@su@tl@UModSys@@U?$TComparerBinaryHash@D@234@@tl@UModSys@@USCacheElem@RLibraryObjCache@std@media@modules@3@@tl@UModSys@@QEAA@XZ 0000000140005ae4 f i umodsys_lib_libmedia:umodsys.mod.media.std.obj
 0001:00004b58       ??1?$TPair@USId@RLibraryObjFilter@std@media@modules@UModSys@@USFilter@23456@@tl@UModSys@@QEAA@XZ 0000000140005b58 f i umodsys_lib_libmedia:umodsys.mod.media.std.obj
 0001:00004b7c       ??1SCacheElem@RLibraryBinCache@std@media@modules@UModSys@@QEAA@XZ 0000000140005b7c f i umodsys_lib_libmedia:umodsys.mod.media.std.obj
 0001:00004bf4       ??1SMountInfo@RLibraryBinTree@std@media@modules@UModSys@@QEAA@XZ 0000000140005bf4 f i umodsys_lib_libmedia:umodsys.mod.media.std.obj
 0001:00004c64       ??1SCacheElem@RLibraryObjCache@std@media@modules@UModSys@@QEAA@XZ 0000000140005c64 f i umodsys_lib_libmedia:umodsys.mod.media.std.obj
 0001:00004cd4       ?remove_color@?$TTreeHoldRB@U?$TScatterArrayNode@USFilter@RLibraryObjFilter@std@media@modules@UModSys@@USId@23456@@tl@UModSys@@@tl@UModSys@@IEAAXPEAU?$TScatterArrayNode@USFilter@RLibraryObjFilter@std@media@modules@UModSys@@USId@23456@@23@0@Z 0000000140005cd4 f i umodsys_lib_libmedia:umodsys.mod.media.std.obj
 0001:00004cd4       ?remove_color@?$TTreeHoldRB@U?$TScatterArrayNode@USCacheElem@RLibraryBinCache@std@media@modules@UModSys@@U?$TString@U?$TSCoreConst@D@su@tl@UModSys@@U?$TComparerBinaryHash@D@234@@tl@6@@tl@UModSys@@@tl@UModSys@@IEAAXPEAU?$TScatterArrayNode@USCacheElem@RLibraryBinCache@std@media@modules@UModSys@@U?$TString@U?$TSCoreConst@D@su@tl@UModSys@@U?$TComparerBinaryHash@D@234@@tl@6@@23@0@Z 0000000140005cd4 f i umodsys_lib_libmedia:umodsys.mod.media.std.obj
 0001:00004cd4       ?remove_color@?$TTreeHoldRB@U?$TScatterArrayNode@USCacheElem@RLibraryObjCache@std@media@modules@UModSys@@U?$TString@U?$TSCoreConst@D@su@tl@UModSys@@U?$TComparerBinaryHash@D@234@@tl@6@@tl@UModSys@@@tl@UModSys@@IEAAXPEAU?$TScatterArrayNode@USCacheElem@RLibraryObjCache@std@media@modules@UModSys@@U?$TString@U?$TSCoreConst@D@su@tl@UModSys@@U?$TComparerBinaryHash@D@234@@tl@6@@23@0@Z 0000000140005cd4 f i umodsys_lib_libmedia:umodsys.mod.media.std.obj
 0001:00004cd4       ?remove_color@?$TTreeHoldRB@U?$TScatterArrayNode@USMountInfo@RLibraryBinTree@std@media@modules@UModSys@@USId@ILibraryBinTree@libmedia@6@@tl@UModSys@@@tl@UModSys@@IEAAXPEAU?$TScatterArrayNode@USMountInfo@RLibraryBinTree@std@media@modules@UModSys@@USId@ILibraryBinTree@libmedia@6@@23@0@Z 0000000140005cd4 f i umodsys_lib_libmedia:umodsys.mod.media.std.obj
 0001:00004f74       ??$t_gen_param@URLibraryBinTree@std@media@modules@UModSys@@URGenerator@2345@@IGenerator@base@UModSys@@IEAA_NPEAURGenerator@std@media@modules@2@AEAU?$TRefObject@UIRefObject@core@UModSys@@U?$TRefObjectFunc@UIRefObject@core@UModSys@@@tl@3@@tl@2@PEBUSUniquePointerInfo@core@2@AEBUSParameters@core@2@@Z 0000000140005f74 f i umodsys_lib_libmedia:umodsys.mod.media.std.obj
 0001:00005098       ??$t_gen_param@URLibraryLayered@std@media@modules@UModSys@@URGenerator@2345@@IGenerator@base@UModSys@@IEAA_NPEAURGenerator@std@media@modules@2@AEAU?$TRefObject@UIRefObject@core@UModSys@@U?$TRefObjectFunc@UIRefObject@core@UModSys@@@tl@3@@tl@2@PEBUSUniquePointerInfo@core@2@AEBUSParameters@core@2@@Z 0000000140006098 f i umodsys_lib_libmedia:umodsys.mod.media.std.obj
 0001:000051d4       ??$t_gen_param@URLibraryObjFilter@std@media@modules@UModSys@@URGenerator@2345@@IGenerator@base@UModSys@@IEAA_NPEAURGenerator@std@media@modules@2@AEAU?$TRefObject@UIRefObject@core@UModSys@@U?$TRefObjectFunc@UIRefObject@core@UModSys@@@tl@3@@tl@2@PEBUSUniquePointerInfo@core@2@AEBUSParameters@core@2@@Z 00000001400061d4 f i umodsys_lib_libmedia:umodsys.mod.media.std.obj
 0001:000052f8       ??$t_gen_param@URLibraryObjCache@std@media@modules@UModSys@@URGenerator@2345@@IGenerator@base@UModSys@@IEAA_NPEAURGenerator@std@media@modules@2@AEAU?$TRefObject@UIRefObject@core@UModSys@@U?$TRefObjectFunc@UIRefObject@core@UModSys@@@tl@3@@tl@2@PEBUSUniquePointerInfo@core@2@AEBUSParameters@core@2@@Z 00000001400062f8 f i umodsys_lib_libmedia:umodsys.mod.media.std.obj
 0001:0000541c       ??$find_node_u@UCmp@?$TScatterArray@USCacheElem@RLibraryObjCache@std@media@modules@UModSys@@U?$TString@U?$TSCoreConst@D@su@tl@UModSys@@U?$TComparerBinaryHash@D@234@@tl@6@U?$TObjectCompare@U?$TString@U?$TSCoreConst@D@su@tl@UModSys@@U?$TComparerBinaryHash@D@234@@tl@UModSys@@@core@6@U?$TNodeDeleter0@U?$TScatterArrayNode@USCacheElem@RLibraryObjCache@std@media@modules@UModSys@@U?$TString@U?$TSCoreConst@D@su@tl@UModSys@@U?$TComparerBinaryHash@D@234@@tl@6@@tl@UModSys@@@86@@tl@UModSys@@@?$TTreeHoldRB@U?$TScatterArrayNode@USCacheElem@RLibraryObjCache@std@media@modules@UModSys@@U?$TString@U?$TSCoreConst@D@su@tl@UModSys@@U?$TComparerBinaryHash@D@234@@tl@6@@tl@UModSys@@@tl@UModSys@@QEBAPEAU?$TScatterArrayNode@USCacheElem@RLibraryObjCache@std@media@modules@UModSys@@U?$TString@U?$TSCoreConst@D@su@tl@UModSys@@U?$TComparerBinaryHash@D@234@@tl@6@@12@UCmp@?$TScatterArray@USCacheElem@RLibraryObjCache@std@media@modules@UModSys@@U?$TString@U?$TSCoreConst@D@su@tl@UModSys@@U?$TComparerBinaryHash@D@234@@tl@6@U?$TObjectCompare@U?$TString@U?$TSCoreConst@D@su@tl@UModSys@@U?$TComparerBinaryHash@D@234@@tl@UModSys@@@core@6@U?$TNodeDeleter0@U?$TScatterArrayNode@USCacheElem@RLibraryObjCache@std@media@modules@UModSys@@U?$TString@U?$TSCoreConst@D@su@tl@UModSys@@U?$TComparerBinaryHash@D@234@@tl@6@@tl@UModSys@@@86@@12@@Z 000000014000641c f i umodsys_lib_libmedia:umodsys.mod.media.std.obj
 0001:0000541c       ??$find_node_u@UCmp@?$TScatterArray@USCacheElem@RLibraryBinCache@std@media@modules@UModSys@@U?$TString@U?$TSCoreConst@D@su@tl@UModSys@@U?$TComparerBinaryHash@D@234@@tl@6@U?$TObjectCompare@U?$TString@U?$TSCoreConst@D@su@tl@UModSys@@U?$TComparerBinaryHash@D@234@@tl@UModSys@@@core@6@U?$TNodeDeleter0@U?$TScatterArrayNode@USCacheElem@RLibraryBinCache@std@media@modules@UModSys@@U?$TString@U?$TSCoreConst@D@su@tl@UModSys@@U?$TComparerBinaryHash@D@234@@tl@6@@tl@UModSys@@@86@@tl@UModSys@@@?$TTreeHoldRB@U?$TScatterArrayNode@USCacheElem@RLibraryBinCache@std@media@modules@UModSys@@U?$TString@U?$TSCoreConst@D@su@tl@UModSys@@U?$TComparerBinaryHash@D@234@@tl@6@@tl@UModSys@@@tl@UModSys@@QEBAPEAU?$TScatterArrayNode@USCacheElem@RLibraryBinCache@std@media@modules@UModSys@@U?$TString@U?$TSCoreConst@D@su@tl@UModSys@@U?$TComparerBinaryHash@D@234@@tl@6@@12@UCmp@?$TScatterArray@USCacheElem@RLibraryBinCache@std@media@modules@UModSys@@U?$TString@U?$TSCoreConst@D@su@tl@UModSys@@U?$TComparerBinaryHash@D@234@@tl@6@U?$TObjectCompare@U?$TString@U?$TSCoreConst@D@su@tl@UModSys@@U?$TComparerBinaryHash@D@234@@tl@UModSys@@@core@6@U?$TNodeDeleter0@U?$TScatterArrayNode@USCacheElem@RLibraryBinCache@std@media@modules@UModSys@@U?$TString@U?$TSCoreConst@D@su@tl@UModSys@@U?$TComparerBinaryHash@D@234@@tl@6@@tl@UModSys@@@86@@12@@Z 000000014000641c f i umodsys_lib_libmedia:umodsys.mod.media.std.obj
 0001:000054bc       ??$find_node_u@UCmp@?$TScatterArray@USMountInfo@RLibraryBinTree@std@media@modules@UModSys@@USId@ILibraryBinTree@libmedia@6@U7896@U?$TNodeDeleter0@U?$TScatterArrayNode@USMountInfo@RLibraryBinTree@std@media@modules@UModSys@@USId@ILibraryBinTree@libmedia@6@@tl@UModSys@@@tl@6@@tl@UModSys@@@?$TTreeHoldRB@U?$TScatterArrayNode@USMountInfo@RLibraryBinTree@std@media@modules@UModSys@@USId@ILibraryBinTree@libmedia@6@@tl@UModSys@@@tl@UModSys@@QEBAPEAU?$TScatterArrayNode@USMountInfo@RLibraryBinTree@std@media@modules@UModSys@@USId@ILibraryBinTree@libmedia@6@@12@UCmp@?$TScatterArray@USMountInfo@RLibraryBinTree@std@media@modules@UModSys@@USId@ILibraryBinTree@libmedia@6@U7896@U?$TNodeDeleter0@U?$TScatterArrayNode@USMountInfo@RLibraryBinTree@std@media@modules@UModSys@@USId@ILibraryBinTree@libmedia@6@@tl@UModSys@@@tl@6@@12@@Z 00000001400064bc f i umodsys_lib_libmedia:umodsys.mod.media.std.obj
 0001:0000557c       ?sub_insert_node@?$TTreeHoldRB@U?$TScatterArrayNode@USCacheElem@RLibraryObjCache@std@media@modules@UModSys@@U?$TString@U?$TSCoreConst@D@su@tl@UModSys@@U?$TComparerBinaryHash@D@234@@tl@6@@tl@UModSys@@@tl@UModSys@@QEAAXPEAU?$TScatterArrayNode@USCacheElem@RLibraryObjCache@std@media@modules@UModSys@@U?$TString@U?$TSCoreConst@D@su@tl@UModSys@@U?$TComparerBinaryHash@D@234@@tl@6@@23@0H@Z 000000014000657c f i umodsys_lib_libmedia:umodsys.mod.media.std.obj
 0001:0000557c       ?sub_insert_node@?$TTreeHoldRB@U?$TScatterArrayNode@USCacheElem@RLibraryBinCache@std@media@modules@UModSys@@U?$TString@U?$TSCoreConst@D@su@tl@UModSys@@U?$TComparerBinaryHash@D@234@@tl@6@@tl@UModSys@@@tl@UModSys@@QEAAXPEAU?$TScatterArrayNode@USCacheElem@RLibraryBinCache@std@media@modules@UModSys@@U?$TString@U?$TSCoreConst@D@su@tl@UModSys@@U?$TComparerBinaryHash@D@234@@tl@6@@23@0H@Z 000000014000657c f i umodsys_lib_libmedia:umodsys.mod.media.std.obj
 0001:0000557c       ?sub_insert_node@?$TTreeHoldRB@U?$TScatterArrayNode@USFilter@RLibraryObjFilter@std@media@modules@UModSys@@USId@23456@@tl@UModSys@@@tl@UModSys@@QEAAXPEAU?$TScatterArrayNode@USFilter@RLibraryObjFilter@std@media@modules@UModSys@@USId@23456@@23@0H@Z 000000014000657c f i umodsys_lib_libmedia:umodsys.mod.media.std.obj
 0001:0000557c       ?sub_insert_node@?$TTreeHoldRB@U?$TScatterArrayNode@USMountInfo@RLibraryBinTree@std@media@modules@UModSys@@USId@ILibraryBinTree@libmedia@6@@tl@UModSys@@@tl@UModSys@@QEAAXPEAU?$TScatterArrayNode@USMountInfo@RLibraryBinTree@std@media@modules@UModSys@@USId@ILibraryBinTree@libmedia@6@@23@0H@Z 000000014000657c f i umodsys_lib_libmedia:umodsys.mod.media.std.obj
 0001:0000575c       ??RGen0@?$TScatterArray@USMountInfo@RLibraryBinTree@std@media@modules@UModSys@@USId@ILibraryBinTree@libmedia@6@U7896@U?$TNodeDeleter0@U?$TScatterArrayNode@USMountInfo@RLibraryBinTree@std@media@modules@UModSys@@USId@ILibraryBinTree@libmedia@6@@tl@UModSys@@@tl@6@@tl@UModSys@@QEBAPEAU?$TScatterArrayNode@USMountInfo@RLibraryBinTree@std@media@modules@UModSys@@USId@ILibraryBinTree@libmedia@6@@23@AEBUCmp@123@AEBU?$TTreeHoldRBD@U?$TScatterArrayNode@USMountInfo@RLibraryBinTree@std@media@modules@UModSys@@USId@ILibraryBinTree@libmedia@6@@tl@UModSys@@U?$TNodeDeleter0@U?$TScatterArrayNode@USMountInfo@RLibraryBinTree@std@media@modules@UModSys@@USId@ILibraryBinTree@libmedia@6@@tl@UModSys@@@23@@23@@Z 000000014000675c f i umodsys_lib_libmedia:umodsys.mod.media.std.obj
 0001:00005860       ??1?$TRefObject@UIModObject@base@UModSys@@U?$TModObjectFunc@UIModObject@base@UModSys@@@tl@3@@tl@UModSys@@QEAA@XZ 0000000140006860 f i umodsys_lib_libmedia:umodsys.mod.media.std.obj
 0001:0000588c       ??_GSLayerX@RLibraryLayered@std@media@modules@UModSys@@QEAAPEAXI@Z 000000014000688c f i umodsys_lib_libmedia:umodsys.mod.media.std.obj
 0001:00005900       ??0?$TString@U?$TSCoreShared@USIMemAlloc@core@UModSys@@D@su@tl@UModSys@@U?$TComparerBinaryHash@D@234@@tl@UModSys@@QEAA@AEBU012@@Z 0000000140006900 f i umodsys_lib_libmedia:umodsys.mod.media.std.obj
 0001:00005980       ??0?$TScatterArrayNode@USCacheElem@RLibraryObjCache@std@media@modules@UModSys@@U?$TString@U?$TSCoreConst@D@su@tl@UModSys@@U?$TComparerBinaryHash@D@234@@tl@6@@tl@UModSys@@QEAA@AEBU?$TString@U?$TSCoreConst@D@su@tl@UModSys@@U?$TComparerBinaryHash@D@234@@12@@Z 0000000140006980 f i umodsys_lib_libmedia:umodsys.mod.media.std.obj
 0001:00005a6c       ??$process_nodes_r@U?$TNodeDeleter0@U?$TScatterArrayNode@USCacheElem@RLibraryBinCache@std@media@modules@UModSys@@U?$TString@U?$TSCoreConst@D@su@tl@UModSys@@U?$TComparerBinaryHash@D@234@@tl@6@@tl@UModSys@@@tl@UModSys@@@?$TTreeHoldRB@U?$TScatterArrayNode@USCacheElem@RLibraryBinCache@std@media@modules@UModSys@@U?$TString@U?$TSCoreConst@D@su@tl@UModSys@@U?$TComparerBinaryHash@D@234@@tl@6@@tl@UModSys@@@tl@UModSys@@KAHPEAU?$TScatterArrayNode@USCacheElem@RLibraryBinCache@std@media@modules@UModSys@@U?$TString@U?$TSCoreConst@D@su@tl@UModSys@@U?$TComparerBinaryHash@D@234@@tl@6@@12@AEBU?$TNodeDeleter0@U?$TScatterArrayNode@USCacheElem@RLibraryBinCache@std@media@modules@UModSys@@U?$TString@U?$TSCoreConst@D@su@tl@UModSys@@U?$TComparerBinaryHash@D@234@@tl@6@@tl@UModSys@@@12@@Z 0000000140006a6c f i umodsys_lib_libmedia:umodsys.mod.media.std.obj
 0001:00005ad8       ??$process_nodes_r@U?$TNodeDeleter0@U?$TScatterArrayNode@USMountInfo@RLibraryBinTree@std@media@modules@UModSys@@USId@ILibraryBinTree@libmedia@6@@tl@UModSys@@@tl@UModSys@@@?$TTreeHoldRB@U?$TScatterArrayNode@USMountInfo@RLibraryBinTree@std@media@modules@UModSys@@USId@ILibraryBinTree@libmedia@6@@tl@UModSys@@@tl@UModSys@@KAHPEAU?$TScatterArrayNode@USMountInfo@RLibraryBinTree@std@media@modules@UModSys@@USId@ILibraryBinTree@libmedia@6@@12@AEBU?$TNodeDeleter0@U?$TScatterArrayNode@USMountInfo@RLibraryBinTree@std@media@modules@UModSys@@USId@ILibraryBinTree@libmedia@6@@tl@UModSys@@@12@@Z 0000000140006ad8 f i umodsys_lib_libmedia:umodsys.mod.media.std.obj
 0001:00005b40       ??$process_nodes_r@U?$TNodeDeleter0@U?$TScatterArrayNode@USCacheElem@RLibraryObjCache@std@media@modules@UModSys@@U?$TString@U?$TSCoreConst@D@su@tl@UModSys@@U?$TComparerBinaryHash@D@234@@tl@6@@tl@UModSys@@@tl@UModSys@@@?$TTreeHoldRB@U?$TScatterArrayNode@USCacheElem@RLibraryObjCache@std@media@modules@UModSys@@U?$TString@U?$TSCoreConst@D@su@tl@UModSys@@U?$TComparerBinaryHash@D@234@@tl@6@@tl@UModSys@@@tl@UModSys@@KAHPEAU?$TScatterArrayNode@USCacheElem@RLibraryObjCache@std@media@modules@UModSys@@U?$TString@U?$TSCoreConst@D@su@tl@UModSys@@U?$TComparerBinaryHash@D@234@@tl@6@@12@AEBU?$TNodeDeleter0@U?$TScatterArrayNode@USCacheElem@RLibraryObjCache@std@media@modules@UModSys@@U?$TString@U?$TSCoreConst@D@su@tl@UModSys@@U?$TComparerBinaryHash@D@234@@tl@6@@tl@UModSys@@@12@@Z 0000000140006b40 f i umodsys_lib_libmedia:umodsys.mod.media.std.obj
 0001:00005ba8       ??$process_nodes_r@U?$TNodeDeleter0@U?$TScatterArrayNode@USFilter@RLibraryObjFilter@std@media@modules@UModSys@@USId@23456@@tl@UModSys@@@tl@UModSys@@@?$TTreeHoldRB@U?$TScatterArrayNode@USFilter@RLibraryObjFilter@std@media@modules@UModSys@@USId@23456@@tl@UModSys@@@tl@UModSys@@KAHPEAU?$TScatterArrayNode@USFilter@RLibraryObjFilter@std@media@modules@UModSys@@USId@23456@@12@AEBU?$TNodeDeleter0@U?$TScatterArrayNode@USFilter@RLibraryObjFilter@std@media@modules@UModSys@@USId@23456@@tl@UModSys@@@12@@Z 0000000140006ba8 f i umodsys_lib_libmedia:umodsys.mod.media.std.obj
 0001:00005c20       ??1?$TRefObject@URModuleLibrarySO@rsystem@base@UModSys@@U?$TRefObjectFunc@URModuleLibrarySO@rsystem@base@UModSys@@@tl@4@@tl@UModSys@@QEAA@XZ 0000000140006c20 f i umodsys_lib_basesys:umodsys.basesys.rmoduleloader.obj
 0001:00005c20       ??1?$TRefObject@URStreamReader_FILE@stdio@media@modules@UModSys@@U?$TRefObjectFunc@URStreamReader_FILE@stdio@media@modules@UModSys@@@tl@5@@tl@UModSys@@QEAA@XZ 0000000140006c20 f i umodsys_lib_libmedia:umodsys.mod.media.stdio.obj
 0001:00005c20       ??1?$TRefObject@URStreamWriter_FILE@stdio@media@modules@UModSys@@U?$TRefObjectFunc@URStreamWriter_FILE@stdio@media@modules@UModSys@@@tl@5@@tl@UModSys@@QEAA@XZ 0000000140006c20 f i umodsys_lib_libmedia:umodsys.mod.media.stdio.obj
 0001:00005c20       ??1?$TRefObject@URLibraryLayered@std@media@modules@UModSys@@U?$TRefObjectFunc@URLibraryLayered@std@media@modules@UModSys@@@tl@5@@tl@UModSys@@QEAA@XZ 0000000140006c20 f i umodsys_lib_libmedia:umodsys.mod.media.std.obj
 0001:00005c20       ??1?$TRefObject@UIStreamReader@libmedia@UModSys@@U?$TRefObjectFunc@UIStreamReader@libmedia@UModSys@@@tl@3@@tl@UModSys@@QEAA@XZ 0000000140006c20 f i umodsys_lib_libmedia:umodsys.mod.media.std.obj
 0001:00005c20       ??1?$TRefObject@URLibraryBinCache@std@media@modules@UModSys@@U?$TRefObjectFunc@URLibraryBinCache@std@media@modules@UModSys@@@tl@5@@tl@UModSys@@QEAA@XZ 0000000140006c20 f i umodsys_lib_libmedia:umodsys.mod.media.std.obj
 0001:00005c20       ??1?$TRefObject@URLibraryObjCache@std@media@modules@UModSys@@U?$TRefObjectFunc@URLibraryObjCache@std@media@modules@UModSys@@@tl@5@@tl@UModSys@@QEAA@XZ 0000000140006c20 f i umodsys_lib_libmedia:umodsys.mod.media.std.obj
 0001:00005c20       ??1?$TRefObject@URDataArchiver_OsDir@stdio@media@modules@UModSys@@U?$TRefObjectFunc@URDataArchiver_OsDir@stdio@media@modules@UModSys@@@tl@5@@tl@UModSys@@QEAA@XZ 0000000140006c20 f i umodsys_lib_libmedia:umodsys.mod.media.stdio.obj
 0001:00005c20       ??1?$TRefObject@URParameters@rsystem@base@UModSys@@U?$TRefObjectFunc@URParameters@rsystem@base@UModSys@@@tl@4@@tl@UModSys@@QEAA@XZ 0000000140006c20 f i umodsys_lib_basesys:umodsys.basesys.rsystem_main.obj
 0001:00005c20       ??1SFilter@RLibraryObjFilter@std@media@modules@UModSys@@QEAA@XZ 0000000140006c20 f i umodsys_lib_libmedia:umodsys.mod.media.std.obj
 0001:00005c20       ??1?$TRefObject@UIRefObject@core@UModSys@@U?$TRefObjectFunc@UIRefObject@core@UModSys@@@tl@3@@tl@UModSys@@QEAA@XZ 0000000140006c20 f i umodsys_lib_libmedia:umodsys.mod.media.std.obj
 0001:00005c20       ??1?$TRefObject@UIShell@base@UModSys@@U?$TRefObjectFunc@UIShell@base@UModSys@@@tl@3@@tl@UModSys@@QEAA@XZ 0000000140006c20 f i umodsys_lib_basesys:umodsys.basesys.rsystem_tests.obj
 0001:00005c20       ??1?$TRefObject@URLibraryObjFilter@std@media@modules@UModSys@@U?$TRefObjectFunc@URLibraryObjFilter@std@media@modules@UModSys@@@tl@5@@tl@UModSys@@QEAA@XZ 0000000140006c20 f i umodsys_lib_libmedia:umodsys.mod.media.std.obj
 0001:00005c20       ??1?$TRefObject@UIStreamWriter@libmedia@UModSys@@U?$TRefObjectFunc@UIStreamWriter@libmedia@UModSys@@@tl@3@@tl@UModSys@@QEAA@XZ 0000000140006c20 f i umodsys_lib_libmedia:umodsys.mod.media.std.obj
 0001:00005c20       ??1?$TRefObject@UIModuleLibraryUni@rsystem@base@UModSys@@U?$TRefObjectFunc@UIModuleLibraryUni@rsystem@base@UModSys@@@tl@4@@tl@UModSys@@QEAA@XZ 0000000140006c20 f i umodsys_lib_basesys:umodsys.basesys.rmodule.obj
 0001:00005c20       ??1?$TRefObject@UIBinObjFilter@libmedia@UModSys@@U?$TRefObjectFunc@UIBinObjFilter@libmedia@UModSys@@@tl@3@@tl@UModSys@@QEAA@XZ 0000000140006c20 f i umodsys_lib_libmedia:umodsys.mod.media.std.obj
 0001:00005c20       ??1?$TRefObject@URLibraryBinTree@std@media@modules@UModSys@@U?$TRefObjectFunc@URLibraryBinTree@std@media@modules@UModSys@@@tl@5@@tl@UModSys@@QEAA@XZ 0000000140006c20 f i umodsys_lib_libmedia:umodsys.mod.media.std.obj
 0001:00005c44       ?archive_load_data@libmedia@UModSys@@YA_NAEAUIBinArchive@12@AEBU?$TString@U?$TSCoreConst@D@su@tl@UModSys@@U?$TComparerBinaryHash@D@234@@tl@2@AEAUSCMemShared@core@2@AEBUSFlags@12@@Z 0000000140006c44 f i umodsys_lib_libmedia:umodsys.mod.media.stdio.obj
 0001:00005e38       ?root_get_interface_info@RStreamReader_FILE@stdio@media@modules@UModSys@@UEBAAEBUSUniquePointerInfo@core@5@XZ 0000000140006e38 f i umodsys_lib_libmedia:umodsys.mod.media.stdio.obj
 0001:00005e40       ?root_get_interface_type@RStreamReader_FILE@stdio@media@modules@UModSys@@UEBAPEBUSUniquePointerInfo@core@5@XZ 0000000140006e40 f i umodsys_lib_libmedia:umodsys.mod.media.stdio.obj
 0001:00005e48       ?root_get_interface_types@RLibraryBinTree@std@media@modules@UModSys@@UEBA_KAEAUSUniquePtrList@core@5@@Z 0000000140006e48 f i umodsys_lib_libmedia:umodsys.mod.media.std.obj
 0001:00005e48       ?root_get_interface_types@RStreamReader_FILE@stdio@media@modules@UModSys@@UEBA_KAEAUSUniquePtrList@core@5@@Z 0000000140006e48 f i umodsys_lib_libmedia:umodsys.mod.media.stdio.obj
 0001:00005e48       ?root_get_interface_types@RLibraryBinCache@std@media@modules@UModSys@@UEBA_KAEAUSUniquePtrList@core@5@@Z 0000000140006e48 f i umodsys_lib_libmedia:umodsys.mod.media.std.obj
 0001:00005e48       ?root_get_interface_types@RGenerator@stdio@media@modules@UModSys@@UEBA_KAEAUSUniquePtrList@core@5@@Z 0000000140006e48 f i umodsys_lib_libmedia:umodsys.mod.media.stdio.obj
 0001:00005e48       ?root_get_interface_types@RStreamWriter_FILE@stdio@media@modules@UModSys@@UEBA_KAEAUSUniquePtrList@core@5@@Z 0000000140006e48 f i umodsys_lib_libmedia:umodsys.mod.media.stdio.obj
 0001:00005e48       ?root_get_interface_types@RConsole_std@rsystem@base@UModSys@@UEBA_KAEAUSUniquePtrList@core@4@@Z 0000000140006e48 f i umodsys_lib_basesys:umodsys.basesys.rconsole_std.obj
 0001:00005e48       ?root_get_interface_types@RDataArchiver_OsDir@stdio@media@modules@UModSys@@UEBA_KAEAUSUniquePtrList@core@5@@Z 0000000140006e48 f i umodsys_lib_libmedia:umodsys.mod.media.stdio.obj
 0001:00005e48       ?root_get_interface_types@RParameters@rsystem@base@UModSys@@UEBA_KAEAUSUniquePtrList@core@4@@Z 0000000140006e48 f i umodsys_lib_basesys:umodsys.basesys.rparameters.obj
 0001:00005e48       ?root_get_interface_types@RGenerator@std@media@modules@UModSys@@UEBA_KAEAUSUniquePtrList@core@5@@Z 0000000140006e48 f i umodsys_lib_libmedia:umodsys.mod.media.std.obj
 0001:00005e48       ?root_get_interface_types@RLibraryObjCache@std@media@modules@UModSys@@UEBA_KAEAUSUniquePtrList@core@5@@Z 0000000140006e48 f i umodsys_lib_libmedia:umodsys.mod.media.std.obj
 0001:00005e48       ?root_get_interface_types@RSystem@rsystem@base@UModSys@@UEBA_KAEAUSUniquePtrList@core@4@@Z 0000000140006e48 f i umodsys_lib_basesys:umodsys.basesys.rsystem_main.obj
 0001:00005e48       ?root_get_interface_types@RModuleLibrarySO@rsystem@base@UModSys@@UEBA_KAEAUSUniquePtrList@core@4@@Z 0000000140006e48 f i umodsys_lib_basesys:umodsys.basesys.rmodulelibso.obj
 0001:00005e48       ?root_get_interface_types@RLibraryObjFilter@std@media@modules@UModSys@@UEBA_KAEAUSUniquePtrList@core@5@@Z 0000000140006e48 f i umodsys_lib_libmedia:umodsys.mod.media.std.obj
 0001:00005e48       ?root_get_interface_types@RModuleLibraryThis@rsystem@base@UModSys@@UEBA_KAEAUSUniquePtrList@core@4@@Z 0000000140006e48 f i umodsys_lib_basesys:umodsys.basesys.rmodulelibthis.obj
 0001:00005e48       ?root_get_interface_types@RModule@rsystem@base@UModSys@@UEBA_KAEAUSUniquePtrList@core@4@@Z 0000000140006e48 f i umodsys_lib_basesys:umodsys.basesys.rmodule.obj
 0001:00005e48       ?root_get_interface_types@RLibraryLayered@std@media@modules@UModSys@@UEBA_KAEAUSUniquePtrList@core@5@@Z 0000000140006e48 f i umodsys_lib_libmedia:umodsys.mod.media.std.obj
 0001:00005e50       ?root_get_other_interface@RStreamReader_FILE@stdio@media@modules@UModSys@@UEBAPEBUIRoot@core@5@PEBUSUniquePointerInfo@75@@Z 0000000140006e50 f i umodsys_lib_libmedia:umodsys.mod.media.stdio.obj
 0001:00005e50       ?root_get_other_interface@RStreamReader_FILE@stdio@media@modules@UModSys@@UEAAPEAUIRoot@core@5@PEBUSUniquePointerInfo@75@@Z 0000000140006e50 f i umodsys_lib_libmedia:umodsys.mod.media.stdio.obj
 0001:00005e80       ?root_is_interface_supported@RStreamReader_FILE@stdio@media@modules@UModSys@@UEBA_NPEBUSUniquePointerInfo@core@5@@Z 0000000140006e80 f i umodsys_lib_libmedia:umodsys.mod.media.stdio.obj
 0001:00005eb0       ?ref_links@RGenerator@std@media@modules@UModSys@@UEBAHXZ 0000000140006eb0 f i umodsys_lib_libmedia:umodsys.mod.media.std.obj
 0001:00005eb0       ?ref_links@RStreamReader_FILE@stdio@media@modules@UModSys@@UEBAHXZ 0000000140006eb0 f i umodsys_lib_libmedia:umodsys.mod.media.stdio.obj
 0001:00005eb0       ?ref_links@RStreamWriter_FILE@stdio@media@modules@UModSys@@UEBAHXZ 0000000140006eb0 f i umodsys_lib_libmedia:umodsys.mod.media.stdio.obj
 0001:00005eb0       ?ref_links@RGenerator@stdio@media@modules@UModSys@@UEBAHXZ 0000000140006eb0 f i umodsys_lib_libmedia:umodsys.mod.media.stdio.obj
 0001:00005eb4       ?suicide@RStreamReader_FILE@stdio@media@modules@UModSys@@UEAAXXZ 0000000140006eb4 f i umodsys_lib_libmedia:umodsys.mod.media.stdio.obj
 0001:00005eb4       ?suicide@RStreamWriter_FILE@stdio@media@modules@UModSys@@UEAAXXZ 0000000140006eb4 f i umodsys_lib_libmedia:umodsys.mod.media.stdio.obj
 0001:00005f00       ??0RStreamReader_FILE@stdio@media@modules@UModSys@@QEAA@PEAUIModObject@base@4@AEBUSParameters@core@4@@Z 0000000140006f00 f i umodsys_lib_libmedia:umodsys.mod.media.stdio.obj
 0001:00005ffc       ?reader_seek@RStreamReader_FILE@stdio@media@modules@UModSys@@UEAA_N_J@Z 0000000140006ffc f i umodsys_lib_libmedia:umodsys.mod.media.stdio.obj
 0001:00006028       ?reader_seekend@RStreamReader_FILE@stdio@media@modules@UModSys@@UEAA_N_J@Z 0000000140007028 f i umodsys_lib_libmedia:umodsys.mod.media.stdio.obj
 0001:00006058       ?reader_seekdelta@RStreamReader_FILE@stdio@media@modules@UModSys@@UEAA_N_J@Z 0000000140007058 f i umodsys_lib_libmedia:umodsys.mod.media.stdio.obj
 0001:00006084       ?reader_pos@RStreamReader_FILE@stdio@media@modules@UModSys@@UEAA_JXZ 0000000140007084 f i umodsys_lib_libmedia:umodsys.mod.media.stdio.obj
 0001:000060a0       ?reader_size@RStreamReader_FILE@stdio@media@modules@UModSys@@UEAA_JXZ 00000001400070a0 f i umodsys_lib_libmedia:umodsys.mod.media.stdio.obj
 0001:000060a8       ?reader_read@RStreamReader_FILE@stdio@media@modules@UModSys@@UEAA_NPEAX_K@Z 00000001400070a8 f i umodsys_lib_libmedia:umodsys.mod.media.stdio.obj
 0001:00006128       ?reader_close@RStreamReader_FILE@stdio@media@modules@UModSys@@UEAAXXZ 0000000140007128 f i umodsys_lib_libmedia:umodsys.mod.media.stdio.obj
 0001:0000614c       ??_GRStreamReader_FILE@stdio@media@modules@UModSys@@UEAAPEAXI@Z 000000014000714c f i umodsys_lib_libmedia:umodsys.mod.media.stdio.obj
 0001:0000614c       ??_ERStreamReader_FILE@stdio@media@modules@UModSys@@UEAAPEAXI@Z 000000014000714c f i  CIL library: CIL module
 0001:000061a0       ??1IModule@base@UModSys@@UEAA@XZ 00000001400071a0 f i umodsys_lib_base:umodsys.base.module.obj
 0001:000061a0       ??1IBinArchive@libmedia@UModSys@@UEAA@XZ 00000001400071a0 f i umodsys_lib_libmedia:umodsys.mod.media.stdio.obj
 0001:000061a0       ??1ILibraryObjCache@libmedia@UModSys@@UEAA@XZ 00000001400071a0 f i umodsys_lib_libmedia:umodsys.mod.media.std.obj
 0001:000061a0       ??1ILibraryObjFilter@libmedia@UModSys@@UEAA@XZ 00000001400071a0 f i umodsys_lib_libmedia:umodsys.mod.media.std.obj
 0001:000061a0       ??1ILibraryLayered@libmedia@UModSys@@UEAA@XZ 00000001400071a0 f i umodsys_lib_libmedia:umodsys.mod.media.std.obj
 0001:000061a0       ??1IStreamReader@libmedia@UModSys@@UEAA@XZ 00000001400071a0 f i umodsys_lib_libmedia:umodsys.mod.media.stdio.obj
 0001:000061a0       ??1ILibraryBinTree@libmedia@UModSys@@UEAA@XZ 00000001400071a0 f i umodsys_lib_libmedia:umodsys.mod.media.std.obj
 0001:000061a0       ??1ISystem@base@UModSys@@UEAA@XZ 00000001400071a0 f i umodsys_lib_base:umodsys.base.system.obj
 0001:000061a0       ??1IStreamWriter@libmedia@UModSys@@UEAA@XZ 00000001400071a0 f i umodsys_lib_libmedia:umodsys.mod.media.stdio.obj
 0001:000061a0       ??1ILibraryBinCache@libmedia@UModSys@@UEAA@XZ 00000001400071a0 f i umodsys_lib_libmedia:umodsys.mod.media.std.obj
 0001:000061ac       ?root_get_interface_info@RStreamWriter_FILE@stdio@media@modules@UModSys@@UEBAAEBUSUniquePointerInfo@core@5@XZ 00000001400071ac f i umodsys_lib_libmedia:umodsys.mod.media.stdio.obj
 0001:000061b4       ?root_get_interface_type@RStreamWriter_FILE@stdio@media@modules@UModSys@@UEBAPEBUSUniquePointerInfo@core@5@XZ 00000001400071b4 f i umodsys_lib_libmedia:umodsys.mod.media.stdio.obj
 0001:000061bc       ?root_get_other_interface@RStreamWriter_FILE@stdio@media@modules@UModSys@@UEBAPEBUIRoot@core@5@PEBUSUniquePointerInfo@75@@Z 00000001400071bc f i umodsys_lib_libmedia:umodsys.mod.media.stdio.obj
 0001:000061bc       ?root_get_other_interface@RStreamWriter_FILE@stdio@media@modules@UModSys@@UEAAPEAUIRoot@core@5@PEBUSUniquePointerInfo@75@@Z 00000001400071bc f i umodsys_lib_libmedia:umodsys.mod.media.stdio.obj
 0001:000061ec       ?root_is_interface_supported@RStreamWriter_FILE@stdio@media@modules@UModSys@@UEBA_NPEBUSUniquePointerInfo@core@5@@Z 00000001400071ec f i umodsys_lib_libmedia:umodsys.mod.media.stdio.obj
 0001:0000621c       ?ref_remove@RGenerator@stdio@media@modules@UModSys@@UEBAXXZ 000000014000721c f i umodsys_lib_libmedia:umodsys.mod.media.stdio.obj
 0001:0000621c       ?ref_remove@RGenerator@std@media@modules@UModSys@@UEBAXXZ 000000014000721c f i umodsys_lib_libmedia:umodsys.mod.media.std.obj
 0001:0000621c       ?ref_remove@RStreamReader_FILE@stdio@media@modules@UModSys@@UEBAXXZ 000000014000721c f i umodsys_lib_libmedia:umodsys.mod.media.stdio.obj
 0001:0000621c       ?ref_remove@RStreamWriter_FILE@stdio@media@modules@UModSys@@UEBAXXZ 000000014000721c f i umodsys_lib_libmedia:umodsys.mod.media.stdio.obj
 0001:00006234       ?ref_weak@RGenerator@stdio@media@modules@UModSys@@UEBA_NAEAUWeakPointer@IRefObject@core@5@@Z 0000000140007234 f i umodsys_lib_libmedia:umodsys.mod.media.stdio.obj
 0001:00006234       ?ref_weak@RStreamWriter_FILE@stdio@media@modules@UModSys@@UEBA_NAEAUWeakPointer@IRefObject@core@5@@Z 0000000140007234 f i umodsys_lib_libmedia:umodsys.mod.media.stdio.obj
 0001:00006234       ?ref_weak@RStreamReader_FILE@stdio@media@modules@UModSys@@UEBA_NAEAUWeakPointer@IRefObject@core@5@@Z 0000000140007234 f i umodsys_lib_libmedia:umodsys.mod.media.stdio.obj
 0001:00006234       ?ref_weak@RGenerator@std@media@modules@UModSys@@UEBA_NAEAUWeakPointer@IRefObject@core@5@@Z 0000000140007234 f i umodsys_lib_libmedia:umodsys.mod.media.std.obj
 0001:00006254       ??0RStreamWriter_FILE@stdio@media@modules@UModSys@@QEAA@PEAUIModObject@base@4@AEBUSParameters@core@4@@Z 0000000140007254 f i umodsys_lib_libmedia:umodsys.mod.media.stdio.obj
 0001:00006344       ?open@RStreamWriter_FILE@stdio@media@modules@UModSys@@QEAAXPEBD_N@Z 0000000140007344 f i umodsys_lib_libmedia:umodsys.mod.media.stdio.obj
 0001:000063e8       ?writer_seek@RStreamWriter_FILE@stdio@media@modules@UModSys@@UEAA_N_J@Z 00000001400073e8 f i umodsys_lib_libmedia:umodsys.mod.media.stdio.obj
 0001:00006414       ?writer_seekend@RStreamWriter_FILE@stdio@media@modules@UModSys@@UEAA_N_J@Z 0000000140007414 f i umodsys_lib_libmedia:umodsys.mod.media.stdio.obj
 0001:00006444       ?writer_seekdelta@RStreamWriter_FILE@stdio@media@modules@UModSys@@UEAA_N_J@Z 0000000140007444 f i umodsys_lib_libmedia:umodsys.mod.media.stdio.obj
 0001:00006470       ?writer_setsize@RStreamWriter_FILE@stdio@media@modules@UModSys@@UEAA_N_J@Z 0000000140007470 f i umodsys_lib_libmedia:umodsys.mod.media.stdio.obj
 0001:000064d0       ?writer_pos@RStreamWriter_FILE@stdio@media@modules@UModSys@@UEAA_JXZ 00000001400074d0 f i umodsys_lib_libmedia:umodsys.mod.media.stdio.obj
 0001:000064ec       ?writer_size@RStreamWriter_FILE@stdio@media@modules@UModSys@@UEAA_JXZ 00000001400074ec f i umodsys_lib_libmedia:umodsys.mod.media.stdio.obj
 0001:0000656c       ?writer_write@RStreamWriter_FILE@stdio@media@modules@UModSys@@UEAA_NPEBX_K@Z 000000014000756c f i umodsys_lib_libmedia:umodsys.mod.media.stdio.obj
 0001:000065ec       ?writer_copy@RStreamWriter_FILE@stdio@media@modules@UModSys@@UEAA_NPEAUIStreamReader@libmedia@5@_J@Z 00000001400075ec f i umodsys_lib_libmedia:umodsys.mod.media.stdio.obj
 0001:0000668c       ?writer_copy@RStreamWriter_FILE@stdio@media@modules@UModSys@@UEAA_NPEAUIStreamReader@libmedia@5@_J1@Z 000000014000768c f i umodsys_lib_libmedia:umodsys.mod.media.stdio.obj
 0001:000066e0       ?writer_close@RStreamWriter_FILE@stdio@media@modules@UModSys@@UEAAXXZ 00000001400076e0 f i umodsys_lib_libmedia:umodsys.mod.media.stdio.obj
 0001:0000671c       ?writer_abort@RStreamWriter_FILE@stdio@media@modules@UModSys@@UEAAXXZ 000000014000771c f i umodsys_lib_libmedia:umodsys.mod.media.stdio.obj
 0001:00006758       ??_ERStreamWriter_FILE@stdio@media@modules@UModSys@@UEAAPEAXI@Z 0000000140007758 f i  CIL library: CIL module
 0001:00006758       ??_GRStreamWriter_FILE@stdio@media@modules@UModSys@@UEAAPEAXI@Z 0000000140007758 f i umodsys_lib_libmedia:umodsys.mod.media.stdio.obj
 0001:000067d0       ?root_get_interface_info@RDataArchiver_OsDir@stdio@media@modules@UModSys@@UEBAAEBUSUniquePointerInfo@core@5@XZ 00000001400077d0 f i umodsys_lib_libmedia:umodsys.mod.media.stdio.obj
 0001:000067d8       ?root_get_interface_type@RDataArchiver_OsDir@stdio@media@modules@UModSys@@UEBAPEBUSUniquePointerInfo@core@5@XZ 00000001400077d8 f i umodsys_lib_libmedia:umodsys.mod.media.stdio.obj
 0001:000067e0       ?root_get_other_interface@RDataArchiver_OsDir@stdio@media@modules@UModSys@@UEAAPEAUIRoot@core@5@PEBUSUniquePointerInfo@75@@Z 00000001400077e0 f i umodsys_lib_libmedia:umodsys.mod.media.stdio.obj
 0001:000067e0       ?root_get_other_interface@RDataArchiver_OsDir@stdio@media@modules@UModSys@@UEBAPEBUIRoot@core@5@PEBUSUniquePointerInfo@75@@Z 00000001400077e0 f i umodsys_lib_libmedia:umodsys.mod.media.stdio.obj
 0001:00006810       ?root_is_interface_supported@RDataArchiver_OsDir@stdio@media@modules@UModSys@@UEBA_NPEBUSUniquePointerInfo@core@5@@Z 0000000140007810 f i umodsys_lib_libmedia:umodsys.mod.media.stdio.obj
 0001:00006840       ?ref_add@RLibraryObjCache@std@media@modules@UModSys@@UEBAXXZ 0000000140007840 f i umodsys_lib_libmedia:umodsys.mod.media.std.obj
 0001:00006840       ?ref_add@RLibraryLayered@std@media@modules@UModSys@@UEBAXXZ 0000000140007840 f i umodsys_lib_libmedia:umodsys.mod.media.std.obj
 0001:00006840       ?ref_add@RDataArchiver_OsDir@stdio@media@modules@UModSys@@UEBAXXZ 0000000140007840 f i umodsys_lib_libmedia:umodsys.mod.media.stdio.obj
 0001:00006840       ?ref_add@RLibraryBinCache@std@media@modules@UModSys@@UEBAXXZ 0000000140007840 f i umodsys_lib_libmedia:umodsys.mod.media.std.obj
 0001:00006840       ?ref_add@RLibraryBinTree@std@media@modules@UModSys@@UEBAXXZ 0000000140007840 f i umodsys_lib_libmedia:umodsys.mod.media.std.obj
 0001:00006840       ?ref_add@RLibraryObjFilter@std@media@modules@UModSys@@UEBAXXZ 0000000140007840 f i umodsys_lib_libmedia:umodsys.mod.media.std.obj
 0001:00006844       ??0RDataArchiver_OsDir@stdio@media@modules@UModSys@@QEAA@PEAUIModObject@base@4@AEBUSParameters@core@4@U?$TFlags4State@USMediaFlagUid@libmedia@UModSys@@I@tl@4@@Z 0000000140007844 f i umodsys_lib_libmedia:umodsys.mod.media.stdio.obj
 0001:00006a54       ?get_flag@RDataArchiver_OsDir@stdio@media@modules@UModSys@@UEBA?AW4eStates@?$TFlags4State@USMediaFlagUid@libmedia@UModSys@@I@tl@5@H@Z 0000000140007a54 f i umodsys_lib_libmedia:umodsys.mod.media.stdio.obj
 0001:00006a60       ?get_flags_auto@RDataArchiver_OsDir@stdio@media@modules@UModSys@@UEBA?AU?$TFlags4State@USMediaFlagUid@libmedia@UModSys@@I@tl@5@XZ 0000000140007a60 f i umodsys_lib_libmedia:umodsys.mod.media.stdio.obj
 0001:00006a6c       ?set_flag@RDataArchiver_OsDir@stdio@media@modules@UModSys@@UEAA?AW4eStates@?$TFlags4State@USMediaFlagUid@libmedia@UModSys@@I@tl@5@HW46785@@Z 0000000140007a6c f i umodsys_lib_libmedia:umodsys.mod.media.stdio.obj
 0001:00006a94       ?data_load@RDataArchiver_OsDir@stdio@media@modules@UModSys@@UEAA_NAEBU?$TString@U?$TSCoreConst@D@su@tl@UModSys@@U?$TComparerBinaryHash@D@234@@tl@5@AEAUSCMemShared@core@5@AEBUSFlags@libmedia@5@@Z 0000000140007a94 f i umodsys_lib_libmedia:umodsys.mod.media.stdio.obj
 0001:00006af4       ?data_save@RDataArchiver_OsDir@stdio@media@modules@UModSys@@UEAA_NAEBU?$TString@U?$TSCoreConst@D@su@tl@UModSys@@U?$TComparerBinaryHash@D@234@@tl@5@AEBUSCMem@core@5@AEBUSFlags@libmedia@5@@Z 0000000140007af4 f i umodsys_lib_libmedia:umodsys.mod.media.stdio.obj
 0001:00006b8c       ?data_reader@RDataArchiver_OsDir@stdio@media@modules@UModSys@@UEAA?AU?$TRefObject@UIStreamReader@libmedia@UModSys@@U?$TRefObjectFunc@UIStreamReader@libmedia@UModSys@@@tl@3@@tl@5@AEBU?$TString@U?$TSCoreConst@D@su@tl@UModSys@@U?$TComparerBinaryHash@D@234@@75@AEBUSFlags@libmedia@5@@Z 0000000140007b8c f i umodsys_lib_libmedia:umodsys.mod.media.stdio.obj
 0001:00006da0       ?data_writer@RDataArchiver_OsDir@stdio@media@modules@UModSys@@UEAA?AU?$TRefObject@UIStreamWriter@libmedia@UModSys@@U?$TRefObjectFunc@UIStreamWriter@libmedia@UModSys@@@tl@3@@tl@5@AEBU?$TString@U?$TSCoreConst@D@su@tl@UModSys@@U?$TComparerBinaryHash@D@234@@75@AEBUSFlags@libmedia@5@@Z 0000000140007da0 f i umodsys_lib_libmedia:umodsys.mod.media.stdio.obj
 0001:00006fec       ?data_list@RDataArchiver_OsDir@stdio@media@modules@UModSys@@UEAA_NAEBU?$TString@U?$TSCoreConst@D@su@tl@UModSys@@U?$TComparerBinaryHash@D@234@@tl@5@AEAU?$TIStackSocket@USFileInfo@libmedia@UModSys@@@75@AEBUSFlags@libmedia@5@@Z 0000000140007fec f i umodsys_lib_libmedia:umodsys.mod.media.stdio.obj
 0001:00007040       ?get_permissions@RDataArchiver_OsDir@stdio@media@modules@UModSys@@UEAAHXZ 0000000140008040 f i umodsys_lib_libmedia:umodsys.mod.media.stdio.obj
 0001:00007044       ??_GRDataArchiver_OsDir@stdio@media@modules@UModSys@@UEAAPEAXI@Z 0000000140008044 f i umodsys_lib_libmedia:umodsys.mod.media.stdio.obj
 0001:00007044       ??_ERDataArchiver_OsDir@stdio@media@modules@UModSys@@UEAAPEAXI@Z 0000000140008044 f i  CIL library: CIL module
 0001:000070dc       ?get_generated_names@RGenerator@stdio@media@modules@UModSys@@UEBAHAEAUSUniquePtrList@core@5@@Z 00000001400080dc f i umodsys_lib_libmedia:umodsys.mod.media.stdio.obj
 0001:00007120       ?get_generated_types@RGenerator@stdio@media@modules@UModSys@@UEBAHAEAUSUniquePtrList@core@5@PEBUSUniquePointerInfo@75@@Z 0000000140008120 f i umodsys_lib_libmedia:umodsys.mod.media.stdio.obj
 0001:000071b4       ?generate@RGenerator@stdio@media@modules@UModSys@@UEAA_NAEAU?$TRefObject@UIRefObject@core@UModSys@@U?$TRefObjectFunc@UIRefObject@core@UModSys@@@tl@3@@tl@5@PEBUSUniquePointerInfo@core@5@AEBUSParameters@95@@Z 00000001400081b4 f i umodsys_lib_libmedia:umodsys.mod.media.stdio.obj
 0001:00007394       ?root_get_interface_info@RGenerator@stdio@media@modules@UModSys@@UEBAAEBUSUniquePointerInfo@core@5@XZ 0000000140008394 f i umodsys_lib_libmedia:umodsys.mod.media.stdio.obj
 0001:0000739c       ?root_get_interface_type@RGenerator@stdio@media@modules@UModSys@@UEBAPEBUSUniquePointerInfo@core@5@XZ 000000014000839c f i umodsys_lib_libmedia:umodsys.mod.media.stdio.obj
 0001:000073a4       ?root_get_other_interface@RGenerator@stdio@media@modules@UModSys@@UEBAPEBUIRoot@core@5@PEBUSUniquePointerInfo@75@@Z 00000001400083a4 f i umodsys_lib_libmedia:umodsys.mod.media.stdio.obj
 0001:000073a4       ?root_get_other_interface@RGenerator@stdio@media@modules@UModSys@@UEAAPEAUIRoot@core@5@PEBUSUniquePointerInfo@75@@Z 00000001400083a4 f i umodsys_lib_libmedia:umodsys.mod.media.stdio.obj
 0001:000073dc       ?root_is_interface_supported@RGenerator@stdio@media@modules@UModSys@@UEBA_NPEBUSUniquePointerInfo@core@5@@Z 00000001400083dc f i umodsys_lib_libmedia:umodsys.mod.media.stdio.obj
 0001:00007414       ?get_uid@RGenerator@stdio@media@modules@UModSys@@UEBAPEBUSUniquePointerInfo@core@5@XZ 0000000140008414 f i umodsys_lib_libmedia:umodsys.mod.media.stdio.obj
 0001:0000741c       ?do_open@RModuleReg@stdio@media@modules@UModSys@@UEAA_NXZ 000000014000841c f i umodsys_lib_libmedia:umodsys.mod.media.stdio.obj
 0001:00007490       ?do_close@RModuleReg@stdio@media@modules@UModSys@@UEAA_NXZ 0000000140008490 f i umodsys_lib_libmedia:umodsys.mod.media.stdio.obj
 0001:000074e0       ?get_module@RGenerator@stdio@media@modules@UModSys@@UEBAPEAUIModule@base@5@XZ 00000001400084e0 f   umodsys_lib_libmedia:umodsys.mod.media.stdio.obj
 0001:000074e8       ?mod_inc@RGenerator@stdio@media@modules@UModSys@@UEBA_NXZ 00000001400084e8 f   umodsys_lib_libmedia:umodsys.mod.media.stdio.obj
 0001:000074f8       ?mod_dec@RGenerator@stdio@media@modules@UModSys@@UEBA_NXZ 00000001400084f8 f   umodsys_lib_libmedia:umodsys.mod.media.stdio.obj
 0001:0000750c       ?s_holder@RGenerator@stdio@media@modules@UModSys@@SAAEAU?$TTypeStaticHolder@URGenerator@stdio@media@modules@UModSys@@@tl@5@XZ 000000014000850c f   umodsys_lib_libmedia:umodsys.mod.media.stdio.obj
 0001:00007550       ??$t_gen_param@URStreamWriter_FILE@stdio@media@modules@UModSys@@URGenerator@2345@@IGenerator@base@UModSys@@IEAA_NPEAURGenerator@stdio@media@modules@2@AEAU?$TRefObject@UIRefObject@core@UModSys@@U?$TRefObjectFunc@UIRefObject@core@UModSys@@@tl@3@@tl@2@PEBUSUniquePointerInfo@core@2@AEBUSParameters@core@2@@Z 0000000140008550 f i umodsys_lib_libmedia:umodsys.mod.media.stdio.obj
 0001:00007644       ??0SVFileName@libmedia@UModSys@@QEAA@AEBU?$TString@U?$TSCoreConst@D@su@tl@UModSys@@U?$TComparerBinaryHash@D@234@@tl@2@0_N@Z 0000000140008644 f   umodsys_lib_libmedia:umodsys.lib.media.common.obj
 0001:000076f4       ?init@SVFileName@libmedia@UModSys@@QEAAXPEBDH_N@Z 00000001400086f4 f   umodsys_lib_libmedia:umodsys.lib.media.common.obj
 0001:00007874       ??$safe_snprintf@D@syshlp@core@UModSys@@YA_KPEAD_KPEBDZZ 0000000140008874 f i umodsys_lib_libmedia:umodsys.lib.media.common.obj
 0001:000078a8       ?root_get_interface_info@RConsole_std@rsystem@base@UModSys@@UEBAAEBUSUniquePointerInfo@core@4@XZ 00000001400088a8 f i umodsys_lib_basesys:umodsys.basesys.rconsole_std.obj
 0001:000078b0       ?root_get_interface_type@RConsole_std@rsystem@base@UModSys@@UEBAPEBUSUniquePointerInfo@core@4@XZ 00000001400088b0 f i umodsys_lib_basesys:umodsys.basesys.rconsole_std.obj
 0001:000078b8       ?root_get_other_interface@RConsole_std@rsystem@base@UModSys@@UEAAPEAUIRoot@core@4@PEBUSUniquePointerInfo@64@@Z 00000001400088b8 f i umodsys_lib_basesys:umodsys.basesys.rconsole_std.obj
 0001:000078b8       ?root_get_other_interface@RConsole_std@rsystem@base@UModSys@@UEBAPEBUIRoot@core@4@PEBUSUniquePointerInfo@64@@Z 00000001400088b8 f i umodsys_lib_basesys:umodsys.basesys.rconsole_std.obj
 0001:000078e8       ?root_is_interface_supported@RConsole_std@rsystem@base@UModSys@@UEBA_NPEBUSUniquePointerInfo@core@4@@Z 00000001400088e8 f i umodsys_lib_basesys:umodsys.basesys.rconsole_std.obj
 0001:00007918       ?vput@RConsole_std@rsystem@base@UModSys@@UEAA_NHPEBDPEAD@Z 0000000140008918 f   umodsys_lib_basesys:umodsys.basesys.rconsole_std.obj
 0001:0000797c       ?put@RConsole_std@rsystem@base@UModSys@@UEAA_NHPEBDZZ 000000014000897c f   umodsys_lib_basesys:umodsys.basesys.rconsole_std.obj
 0001:000079d8       ?get_c@RConsole_std@rsystem@base@UModSys@@UEAA_NPEAHPEBDZZ 00000001400089d8 f   umodsys_lib_basesys:umodsys.basesys.rconsole_std.obj
 0001:000079e0       ?reflect@RConsole_std@rsystem@base@UModSys@@QEAA_NPEBD@Z 00000001400089e0 f   umodsys_lib_basesys:umodsys.basesys.rconsole_std.obj
 0001:00007a44       ??_ERConsole_std@rsystem@base@UModSys@@UEAAPEAXI@Z 0000000140008a44 f i  CIL library: CIL module
 0001:00007a44       ??_GRConsole_std@rsystem@base@UModSys@@UEAAPEAXI@Z 0000000140008a44 f i umodsys_lib_basesys:umodsys.basesys.rconsole_std.obj
 0001:00007a98       ?decode_error@EExceptionBase@core@UModSys@@UEBAHPEAD_K@Z 0000000140008a98 f i umodsys_lib_basesys:umodsys.basesys.rsystem_main.obj
 0001:00007ad4       ?decode_error@EFatal@core@UModSys@@UEBAHPEAD_K@Z 0000000140008ad4 f i umodsys_lib_basesys:umodsys.basesys.rsystem_main.obj
 0001:00007b10       ??_EEFatal@core@UModSys@@UEAAPEAXI@Z 0000000140008b10 f i  CIL library: CIL module
 0001:00007b10       ??_EEWarning@core@UModSys@@UEAAPEAXI@Z 0000000140008b10 f i  CIL library: CIL module
 0001:00007b10       ??_EEExceptionBase@core@UModSys@@UEAAPEAXI@Z 0000000140008b10 f i  CIL library: CIL module
 0001:00007b10       ??_GEWarning@core@UModSys@@UEAAPEAXI@Z 0000000140008b10 f i umodsys_lib_basesys:umodsys.basesys.rsystem_main.obj
 0001:00007b10       ??_GEFatal@core@UModSys@@UEAAPEAXI@Z 0000000140008b10 f i umodsys_lib_basesys:umodsys.basesys.rsystem_main.obj
 0001:00007b10       ??_GEExceptionBase@core@UModSys@@UEAAPEAXI@Z 0000000140008b10 f i umodsys_lib_basesys:umodsys.basesys.rsystem_main.obj
 0001:00007b38       ??1EFatal@core@UModSys@@UEAA@XZ 0000000140008b38 f i umodsys_lib_basesys:umodsys.basesys.rsystem_main.obj
 0001:00007b38       ??1EWarning@core@UModSys@@UEAA@XZ 0000000140008b38 f i umodsys_lib_basesys:umodsys.basesys.rsystem_main.obj
 0001:00007b44       ?decode_error@EWarning@core@UModSys@@UEBAHPEAD_K@Z 0000000140008b44 f i umodsys_lib_basesys:umodsys.basesys.rsystem_main.obj
 0001:00007b80       ?root_get_interface_info@RSystem@rsystem@base@UModSys@@UEBAAEBUSUniquePointerInfo@core@4@XZ 0000000140008b80 f i umodsys_lib_basesys:umodsys.basesys.rsystem_main.obj
 0001:00007b88       ?root_get_interface_type@RSystem@rsystem@base@UModSys@@UEBAPEBUSUniquePointerInfo@core@4@XZ 0000000140008b88 f i umodsys_lib_basesys:umodsys.basesys.rsystem_main.obj
 0001:00007b90       ?root_get_other_interface@RSystem@rsystem@base@UModSys@@UEAAPEAUIRoot@core@4@PEBUSUniquePointerInfo@64@@Z 0000000140008b90 f i umodsys_lib_basesys:umodsys.basesys.rsystem_main.obj
 0001:00007b90       ?root_get_other_interface@RSystem@rsystem@base@UModSys@@UEBAPEBUIRoot@core@4@PEBUSUniquePointerInfo@64@@Z 0000000140008b90 f i umodsys_lib_basesys:umodsys.basesys.rsystem_main.obj
 0001:00007bb0       ?root_is_interface_supported@RSystem@rsystem@base@UModSys@@UEBA_NPEBUSUniquePointerInfo@core@4@@Z 0000000140008bb0 f i umodsys_lib_basesys:umodsys.basesys.rsystem_main.obj
 0001:00007bd4       ?init@RSystem@rsystem@base@UModSys@@QEAA_NXZ 0000000140008bd4 f   umodsys_lib_basesys:umodsys.basesys.rsystem_main.obj
 0001:00007db8       ??_GRSystem@rsystem@base@UModSys@@UEAAPEAXI@Z 0000000140008db8 f i umodsys_lib_basesys:umodsys.basesys.rsystem_main.obj
 0001:00007db8       ??_ERSystem@rsystem@base@UModSys@@UEAAPEAXI@Z 0000000140008db8 f i  CIL library: CIL module
 0001:00007de8       ??1RSystem@rsystem@base@UModSys@@UEAA@XZ 0000000140008de8 f   umodsys_lib_basesys:umodsys.basesys.rsystem_main.obj
 0001:00007f30       ?dbg_put@rsystem@base@UModSys@@YAXW4eRSystemDebugLevels@123@PEBDZZ 0000000140008f30 f   umodsys_lib_basesys:umodsys.basesys.rsystem_main.obj
 0001:00007f74       ?err_put@rsystem@base@UModSys@@YAXW4eRSystemDebugLevels@123@PEBDZZ 0000000140008f74 f   umodsys_lib_basesys:umodsys.basesys.rsystem_main.obj
 0001:00007fb8       ??1?$TStaticStringPool@DU?$TComparerBinaryHash@D@su@tl@UModSys@@USMemAlloc_Malloc@core@4@@tl@UModSys@@QEAA@XZ 0000000140008fb8 f i umodsys_lib_basesys:umodsys.basesys.rsystem_main.obj
 0001:00007fc0       ??1?$TQuantArrayUnique@USUniquePointerInfo@core@UModSys@@$0BAA@USMemAlloc_Malloc@23@@tl@UModSys@@QEAA@XZ 0000000140008fc0 f i umodsys_lib_basesys:umodsys.basesys.rsystem_main.obj
 0001:00008038       ??1?$TTreeHoldRBD@U?$TQuantArrayNode@USSourceContext@core@UModSys@@$0BAA@@tl@UModSys@@U?$TNodeDeleter@U?$TQuantArrayNode@USSourceContext@core@UModSys@@$0BAA@@tl@UModSys@@USMemAlloc_Malloc@core@3@@23@@tl@UModSys@@QEAA@XZ 0000000140009038 f i umodsys_lib_basesys:umodsys.basesys.rsystem_main.obj
 0001:00008038       ??1?$TTreeHoldRBD@U?$TQuantArrayNode@USUniquePointerInfo@core@UModSys@@$0BAA@@tl@UModSys@@U?$TNodeDeleter@U?$TQuantArrayNode@USUniquePointerInfo@core@UModSys@@$0BAA@@tl@UModSys@@USMemAlloc_Malloc@core@3@@23@@tl@UModSys@@QEAA@XZ 0000000140009038 f i umodsys_lib_basesys:umodsys.basesys.rsystem_main.obj
 0001:000080a0       ?mem_alloc@?$TRMemAlloc_CC@U?$TMemAllocHeader@USMagic@mem_headers@rsystem@base@UModSys@@U?$TPool@X@2345@USDebug@2345@UVoid@core@5@U895@@rsystem@base@UModSys@@USMemAlloc_Malloc@core@4@@rsystem@base@UModSys@@UEAAPEAX_KPEBUSSourceContext@core@4@@Z 00000001400090a0 f i umodsys_lib_basesys:umodsys.basesys.rsystem_main.obj
 0001:00008124       ?mem_realloc@?$TRMemAlloc_CC@U?$TMemAllocHeader@USMagic@mem_headers@rsystem@base@UModSys@@U?$TPool@X@2345@USDebug@2345@UVoid@core@5@U895@@rsystem@base@UModSys@@USMemAlloc_Malloc@core@4@@rsystem@base@UModSys@@UEAAPEAXPEAX_KPEBUSSourceContext@core@4@@Z 0000000140009124 f i umodsys_lib_basesys:umodsys.basesys.rsystem_main.obj
 0001:00008418       ?mem_free@?$TRMemAlloc_CC@U?$TMemAllocHeader@USMagic@mem_headers@rsystem@base@UModSys@@U?$TPool@X@2345@USDebug@2345@UVoid@core@5@U895@@rsystem@base@UModSys@@USMemAlloc_Malloc@core@4@@rsystem@base@UModSys@@UEAAXPEAXPEBUSSourceContext@core@4@@Z 0000000140009418 f i umodsys_lib_basesys:umodsys.basesys.rsystem_main.obj
 0001:00008584       ?free@?$TStaticStringPool@DU?$TComparerBinaryHash@D@su@tl@UModSys@@USMemAlloc_Malloc@core@4@@tl@UModSys@@QEAAXXZ 0000000140009584 f i umodsys_lib_basesys:umodsys.basesys.rsystem_main.obj
 0001:000085d8       ??$process_nodes_r@U?$TNodeDeleter@U?$TQuantArrayNode@USUniquePointerInfo@core@UModSys@@$0BAA@@tl@UModSys@@USMemAlloc_Malloc@core@3@@tl@UModSys@@@?$TTreeHoldRB@U?$TQuantArrayNode@USUniquePointerInfo@core@UModSys@@$0BAA@@tl@UModSys@@@tl@UModSys@@KAHPEAU?$TQuantArrayNode@USUniquePointerInfo@core@UModSys@@$0BAA@@12@AEBU?$TNodeDeleter@U?$TQuantArrayNode@USUniquePointerInfo@core@UModSys@@$0BAA@@tl@UModSys@@USMemAlloc_Malloc@core@3@@12@@Z 00000001400095d8 f i umodsys_lib_basesys:umodsys.basesys.rsystem_main.obj
 0001:000085d8       ??$process_nodes_r@U?$TNodeDeleter@U?$TQuantArrayNode@USSourceContext@core@UModSys@@$0BAA@@tl@UModSys@@USMemAlloc_Malloc@core@3@@tl@UModSys@@@?$TTreeHoldRB@U?$TQuantArrayNode@USSourceContext@core@UModSys@@$0BAA@@tl@UModSys@@@tl@UModSys@@KAHPEAU?$TQuantArrayNode@USSourceContext@core@UModSys@@$0BAA@@12@AEBU?$TNodeDeleter@U?$TQuantArrayNode@USSourceContext@core@UModSys@@$0BAA@@tl@UModSys@@USMemAlloc_Malloc@core@3@@12@@Z 00000001400095d8 f i umodsys_lib_basesys:umodsys.basesys.rsystem_main.obj
 0001:0000863c       ??0EFatal@core@UModSys@@QEAA@AEBU012@@Z 000000014000963c f i umodsys_lib_basesys:umodsys.basesys.rsystem_main.obj
 0001:0000867c       ??0EExceptionBase@core@UModSys@@QEAA@AEBU012@@Z 000000014000967c f i umodsys_lib_basesys:umodsys.basesys.rsystem_main.obj
 0001:000086b0       ??0EWarning@core@UModSys@@QEAA@AEBU012@@Z 00000001400096b0 f i umodsys_lib_basesys:umodsys.basesys.rsystem_main.obj
 0001:000086f0       ?exec_test_shells@RSystem@rsystem@base@UModSys@@QEAA_NXZ 00000001400096f0 f   umodsys_lib_basesys:umodsys.basesys.rsystem_tests.obj
 0001:000088e4       ??1?$TParametersA@$0EAA@@core@UModSys@@QEAA@XZ 00000001400098e4 f i umodsys_lib_basesys:umodsys.basesys.rsystem_tests.obj
 0001:00008900       ?moduledb_findobjname@RModuleLoader@rsystem@base@UModSys@@UEAA_KPEBUSUniquePointerInfo@core@4@QEAPEBU564@_KPEBD@Z 0000000140009900 f   umodsys_lib_basesys:umodsys.basesys.rmoduleloader.obj
 0001:000089b0       ?moduledb_generate@RModuleLoader@rsystem@base@UModSys@@UEAA_NAEAU?$TRefObject@UIRefObject@core@UModSys@@U?$TRefObjectFunc@UIRefObject@core@UModSys@@@tl@3@@tl@4@PEBUSUniquePointerInfo@core@4@AEBUSParameters@84@@Z 00000001400099b0 f   umodsys_lib_basesys:umodsys.basesys.rmoduleloader.obj
 0001:00008a3c       ?moduledb_lib_count@RModuleLoader@rsystem@base@UModSys@@UEAA_KXZ 0000000140009a3c f   umodsys_lib_basesys:umodsys.basesys.rmoduleloader.obj
 0001:00008a44       ?moduledb_lib_get@RModuleLoader@rsystem@base@UModSys@@UEBAPEAUIModuleLibrary@34@_K@Z 0000000140009a44 f   umodsys_lib_basesys:umodsys.basesys.rmoduleloader.obj
 0001:00008a64       ?moduledb_module_count@RModuleLoader@rsystem@base@UModSys@@UEAA_KXZ 0000000140009a64 f   umodsys_lib_basesys:umodsys.basesys.rmoduleloader.obj
 0001:00008a94       ?moduledb_module_get@RModuleLoader@rsystem@base@UModSys@@UEBAPEAUIModule@34@_K@Z 0000000140009a94 f   umodsys_lib_basesys:umodsys.basesys.rmoduleloader.obj
 0001:00008ae0       ?moduledb_find@RModuleLoader@rsystem@base@UModSys@@UEBAPEAUIModule@34@AEBU?$TString@U?$TSCoreConst@D@su@tl@UModSys@@U?$TComparerBinaryHash@D@234@@tl@4@AEBUSVersion@core@4@@Z 0000000140009ae0 f   umodsys_lib_basesys:umodsys.basesys.rmoduleloader.obj
 0001:00008c18       ?moduledb_clear@RModuleLoader@rsystem@base@UModSys@@UEAAXXZ 0000000140009c18 f   umodsys_lib_basesys:umodsys.basesys.rmoduleloader.obj
 0001:00008cc0       ?moduledb_cleanup@RModuleLoader@rsystem@base@UModSys@@UEAA_KXZ 0000000140009cc0 f   umodsys_lib_basesys:umodsys.basesys.rmoduleloader.obj
 0001:00008e2c       ?moduledb_save@RModuleLoader@rsystem@base@UModSys@@UEAA_NAEBU?$TString@U?$TSCoreConst@D@su@tl@UModSys@@U?$TComparerBinaryHash@D@234@@tl@4@@Z 0000000140009e2c f   umodsys_lib_basesys:umodsys.basesys.rmoduleloader.obj
 0001:00008edc       ?moduledb_scan@RModuleLoader@rsystem@base@UModSys@@UEAA_KAEBU?$TString@U?$TSCoreConst@D@su@tl@UModSys@@U?$TComparerBinaryHash@D@234@@tl@4@_N@Z 0000000140009edc f   umodsys_lib_basesys:umodsys.basesys.rmoduleloader.obj
 0001:00009050       ?moduledb_get_string@RModuleLoader@rsystem@base@UModSys@@UEAAAEBU?$TString@U?$TSCoreConst@D@su@tl@UModSys@@U?$TComparerBinaryHash@D@234@@tl@4@AEBU564@@Z 000000014000a050 f   umodsys_lib_basesys:umodsys.basesys.rmoduleloader.obj
 0001:0000908c       ??_ERModuleLoader@rsystem@base@UModSys@@UEAAPEAXI@Z 000000014000a08c f i  CIL library: CIL module
 0001:0000908c       ??_GRModuleLoader@rsystem@base@UModSys@@UEAAPEAXI@Z 000000014000a08c f i umodsys_lib_basesys:umodsys.basesys.rmoduleloader.obj
 0001:000090bc       ??_GIModuleLoader@base@UModSys@@UEAAPEAXI@Z 000000014000a0bc f i umodsys_lib_basesys:umodsys.basesys.rmoduleloader.obj
 0001:000090bc       ??_EIModuleLoader@base@UModSys@@UEAAPEAXI@Z 000000014000a0bc f i  CIL library: CIL module
 0001:000090e4       ??1RModuleLoader@rsystem@base@UModSys@@UEAA@XZ 000000014000a0e4 f   umodsys_lib_basesys:umodsys.basesys.rmoduleloader.obj
 0001:0000917c       ??1?$TDynarrayDynamic@U?$TRefObject@URModuleLibrarySO@rsystem@base@UModSys@@U?$TRefObjectFunc@URModuleLibrarySO@rsystem@base@UModSys@@@tl@4@@tl@UModSys@@U?$TAllocator@USMemAlloc_Malloc@core@UModSys@@USCountCalcPower2@23@@23@@tl@UModSys@@QEAA@XZ 000000014000a17c f i umodsys_lib_basesys:umodsys.basesys.rmoduleloader.obj
 0001:000091c4       ?Resize@?$TDynarray@U?$TDynarrayHolderDynamic@U?$TRefObject@URModule@rsystem@base@UModSys@@U?$TRefObjectFunc@URModule@rsystem@base@UModSys@@@tl@4@@tl@UModSys@@U?$TAllocator@USMemAlloc_Malloc@core@UModSys@@USCountCalcPower2@23@@23@@tl@UModSys@@@tl@UModSys@@QEAA_N_K@Z 000000014000a1c4 f i umodsys_lib_basesys:umodsys.basesys.rmodulelib.obj
 0001:000091c4       ?Resize@?$TDynarray@U?$TDynarrayHolderDynamic@U?$TRefObject@URModuleLibrarySO@rsystem@base@UModSys@@U?$TRefObjectFunc@URModuleLibrarySO@rsystem@base@UModSys@@@tl@4@@tl@UModSys@@U?$TAllocator@USMemAlloc_Malloc@core@UModSys@@USCountCalcPower2@23@@23@@tl@UModSys@@@tl@UModSys@@QEAA_N_K@Z 000000014000a1c4 f i umodsys_lib_basesys:umodsys.basesys.rmoduleloader.obj
 0001:000092b4       ?append@?$TStaticStringPool@DU?$TComparerBinaryHash@D@su@tl@UModSys@@USMemAlloc_Malloc@core@4@@tl@UModSys@@QEAAPEBU?$TString@U?$TSCoreConst@D@su@tl@UModSys@@U?$TComparerBinaryHash@D@234@@23@PEBD_K@Z 000000014000a2b4 f i umodsys_lib_basesys:umodsys.basesys.rmoduleloader.obj
 0001:000094f4       ?root_get_interface_info@RModuleLibraryThis@rsystem@base@UModSys@@UEBAAEBUSUniquePointerInfo@core@4@XZ 000000014000a4f4 f i umodsys_lib_basesys:umodsys.basesys.rmodulelibthis.obj
 0001:000094fc       ?root_get_interface_type@RModuleLibraryThis@rsystem@base@UModSys@@UEBAPEBUSUniquePointerInfo@core@4@XZ 000000014000a4fc f i umodsys_lib_basesys:umodsys.basesys.rmodulelibthis.obj
 0001:00009504       ?root_get_other_interface@RModuleLibraryThis@rsystem@base@UModSys@@UEBAPEBUIRoot@core@4@PEBUSUniquePointerInfo@64@@Z 000000014000a504 f i umodsys_lib_basesys:umodsys.basesys.rmodulelibthis.obj
 0001:00009504       ?root_get_other_interface@RModuleLibraryThis@rsystem@base@UModSys@@UEAAPEAUIRoot@core@4@PEBUSUniquePointerInfo@64@@Z 000000014000a504 f i umodsys_lib_basesys:umodsys.basesys.rmodulelibthis.obj
 0001:0000953c       ?root_is_interface_supported@RModuleLibraryThis@rsystem@base@UModSys@@UEBA_NPEBUSUniquePointerInfo@core@4@@Z 000000014000a53c f i umodsys_lib_basesys:umodsys.basesys.rmodulelibthis.obj
 0001:00009574       ?ref_add@RModuleLibraryThis@rsystem@base@UModSys@@UEBAXXZ 000000014000a574 f i umodsys_lib_basesys:umodsys.basesys.rmodulelibthis.obj
 0001:0000957c       ?ref_remove@RModuleLibraryThis@rsystem@base@UModSys@@UEBAXXZ 000000014000a57c f i umodsys_lib_basesys:umodsys.basesys.rmodulelibthis.obj
 0001:00009594       ?ref_links@RModuleLibraryThis@rsystem@base@UModSys@@UEBAHXZ 000000014000a594 f i umodsys_lib_basesys:umodsys.basesys.rmodulelibthis.obj
 0001:0000959c       ?ref_weak@RModuleLibraryThis@rsystem@base@UModSys@@UEBA_NAEAUWeakPointer@IRefObject@core@4@@Z 000000014000a59c f i umodsys_lib_basesys:umodsys.basesys.rmodulelibthis.obj
 0001:000095c0       ?uni_load@RModuleLibraryThis@rsystem@base@UModSys@@UEAA_NXZ 000000014000a5c0 f   umodsys_lib_basesys:umodsys.basesys.rmodulelibthis.obj
 0001:000095d0       ?uni_close@RModuleLibraryThis@rsystem@base@UModSys@@UEAA_NXZ 000000014000a5d0 f   umodsys_lib_basesys:umodsys.basesys.rmodulelibthis.obj
 0001:000095d0       ?uni_open@RModuleLibraryThis@rsystem@base@UModSys@@UEAA_NXZ 000000014000a5d0 f   umodsys_lib_basesys:umodsys.basesys.rmodulelibthis.obj
 0001:000095d0       ?uni_unload@RModuleLibraryThis@rsystem@base@UModSys@@UEAA_NXZ 000000014000a5d0 f   umodsys_lib_basesys:umodsys.basesys.rmodulelibthis.obj
 0001:000095d4       ??_GRModuleLibraryThis@rsystem@base@UModSys@@UEAAPEAXI@Z 000000014000a5d4 f i umodsys_lib_basesys:umodsys.basesys.rmodulelibthis.obj
 0001:000095d4       ??_ERModuleLibraryThis@rsystem@base@UModSys@@UEAAPEAXI@Z 000000014000a5d4 f i  CIL library: CIL module
 0001:00009624       ?get_sys_libname@IModuleLibraryUni@rsystem@base@UModSys@@UEBA?AU?$TString@U?$TSCoreConst@D@su@tl@UModSys@@U?$TComparerBinaryHash@D@234@@tl@4@XZ 000000014000a624 f   umodsys_lib_basesys:umodsys.basesys.rmodulelib.obj
 0001:00009634       ?get_privmem@IModuleLibraryUni@rsystem@base@UModSys@@UEBAPEAUIMemAlloc@core@4@XZ 000000014000a634 f   umodsys_lib_basesys:umodsys.basesys.rmodulelib.obj
 0001:0000963c       ?get_system@IModuleLibraryUni@rsystem@base@UModSys@@UEBAPEAUISystem@34@XZ 000000014000a63c f   umodsys_lib_basesys:umodsys.basesys.rmodulelib.obj
 0001:00009644       ?get_module_count@IModuleLibraryUni@rsystem@base@UModSys@@UEBA_KXZ 000000014000a644 f   umodsys_lib_basesys:umodsys.basesys.rmodulelib.obj
 0001:0000964c       ?get_module@IModuleLibraryUni@rsystem@base@UModSys@@UEBAPEAUIModule@34@_K@Z 000000014000a64c f   umodsys_lib_basesys:umodsys.basesys.rmodulelib.obj
 0001:00009660       ?lib_loaded@IModuleLibraryUni@rsystem@base@UModSys@@UEBA_NXZ 000000014000a660 f   umodsys_lib_basesys:umodsys.basesys.rmodulelib.obj
 0001:0000966c       ?lib_load@IModuleLibraryUni@rsystem@base@UModSys@@UEAA_NXZ 000000014000a66c f   umodsys_lib_basesys:umodsys.basesys.rmodulelib.obj
 0001:00009698       ?lib_unload@IModuleLibraryUni@rsystem@base@UModSys@@UEAA_NXZ 000000014000a698 f   umodsys_lib_basesys:umodsys.basesys.rmodulelib.obj
 0001:000096ac       ?lib_free@IModuleLibraryUni@rsystem@base@UModSys@@UEAA_NXZ 000000014000a6ac f   umodsys_lib_basesys:umodsys.basesys.rmodulelib.obj
 0001:000096cc       ?lib_findobjname@IModuleLibraryUni@rsystem@base@UModSys@@UEAA_KPEBUSUniquePointerInfo@core@4@QEAPEBU564@_KPEBD@Z 000000014000a6cc f   umodsys_lib_basesys:umodsys.basesys.rmodulelib.obj
 0001:00009770       ?lib_generate@IModuleLibraryUni@rsystem@base@UModSys@@UEAA_NAEAU?$TRefObject@UIRefObject@core@UModSys@@U?$TRefObjectFunc@UIRefObject@core@UModSys@@@tl@3@@tl@4@PEBUSUniquePointerInfo@core@4@AEBUSParameters@84@@Z 000000014000a770 f   umodsys_lib_basesys:umodsys.basesys.rmodulelib.obj
 0001:000097ec       ?cleanup@IModuleLibraryUni@rsystem@base@UModSys@@QEAA_KXZ 000000014000a7ec f   umodsys_lib_basesys:umodsys.basesys.rmodulelib.obj
 0001:00009838       ?load0@IModuleLibraryUni@rsystem@base@UModSys@@QEAA_NXZ 000000014000a838 f   umodsys_lib_basesys:umodsys.basesys.rmodulelib.obj
 0001:0000989c       ?link@IModuleLibraryUni@rsystem@base@UModSys@@QEAA_NXZ 000000014000a89c f   umodsys_lib_basesys:umodsys.basesys.rmodulelib.obj
 0001:00009bb0       ?unlink@IModuleLibraryUni@rsystem@base@UModSys@@QEAA_NXZ 000000014000abb0 f   umodsys_lib_basesys:umodsys.basesys.rmodulelib.obj
 0001:00009c00       ?scan@IModuleLibraryUni@rsystem@base@UModSys@@QEAA_NXZ 000000014000ac00 f   umodsys_lib_basesys:umodsys.basesys.rmodulelib.obj
 0001:00009c78       ?save_db@IModuleLibraryUni@rsystem@base@UModSys@@QEAA_NPEAU_iobuf@@@Z 000000014000ac78 f   umodsys_lib_basesys:umodsys.basesys.rmodulelib.obj
 0001:00009d00       ??_GIModuleLibraryUni@rsystem@base@UModSys@@UEAAPEAXI@Z 000000014000ad00 f i umodsys_lib_basesys:umodsys.basesys.rmodulelib.obj
 0001:00009d00       ??_EIModuleLibraryUni@rsystem@base@UModSys@@UEAAPEAXI@Z 000000014000ad00 f i  CIL library: CIL module
 0001:00009d30       ??1IModuleLibraryUni@rsystem@base@UModSys@@UEAA@XZ 000000014000ad30 f   umodsys_lib_basesys:umodsys.basesys.rmodulelib.obj
 0001:00009dd8       ?check_leaks@?$TRMemAlloc_CC@U?$TMemAllocHeader@USMagic@mem_headers@rsystem@base@UModSys@@U?$TPool@X@2345@USDebug@2345@UVoid@core@5@U895@@rsystem@base@UModSys@@USMemAlloc_Malloc@core@4@@rsystem@base@UModSys@@QEAA_K_NPEAUIExceptionHandler@core@4@@Z 000000014000add8 f i umodsys_lib_basesys:umodsys.basesys.rmodulelib.obj
 0001:00009e84       ?upi_add@RSystem@rsystem@base@UModSys@@UEAAPEBUSUniquePointerInfo@core@4@PEBU564@@Z 000000014000ae84 f   umodsys_lib_basesys:umodsys.basesys.rsystem.obj
 0001:00009f98       ?upi_remove@RSystem@rsystem@base@UModSys@@UEAAHPEBUSUniquePointerInfo@core@4@@Z 000000014000af98 f   umodsys_lib_basesys:umodsys.basesys.rsystem.obj
 0001:00009f9c       ?persist_ctx@RSystem@rsystem@base@UModSys@@UEAAPEBUSSourceContext@core@4@PEBU564@@Z 000000014000af9c f   umodsys_lib_basesys:umodsys.basesys.rsystem.obj
 0001:0000a0b0       ?get_params@RSystem@rsystem@base@UModSys@@UEAAPEAUIParameters@core@4@XZ 000000014000b0b0 f   umodsys_lib_basesys:umodsys.basesys.rsystem.obj
 0001:0000a0b8       ?get_console@RSystem@rsystem@base@UModSys@@UEAAPEAUIConsole@34@XZ 000000014000b0b8 f   umodsys_lib_basesys:umodsys.basesys.rsystem.obj
 0001:0000a0c0       ?get_sysmem@RSystem@rsystem@base@UModSys@@UEAAPEAUIMemAlloc@core@4@XZ 000000014000b0c0 f   umodsys_lib_basesys:umodsys.basesys.rsystem.obj
 0001:0000a0c8       ?get_sharemem@RSystem@rsystem@base@UModSys@@UEAAPEAUIMemAlloc@core@4@XZ 000000014000b0c8 f   umodsys_lib_basesys:umodsys.basesys.rsystem.obj
 0001:0000a0d0       ?get_modloader@RSystem@rsystem@base@UModSys@@UEAAPEAUIModuleLoader@34@XZ 000000014000b0d0 f   umodsys_lib_basesys:umodsys.basesys.rsystem.obj
 0001:0000a0d8       ?get_upr@RSystem@rsystem@base@UModSys@@UEAAPEAUIUniquePointerResolver@core@4@XZ 000000014000b0d8 f   umodsys_lib_basesys:umodsys.basesys.rsystem.obj
 0001:0000a0e4       ?get_sca@RSystem@rsystem@base@UModSys@@UEAAPEAUISourceContextAdapter@core@4@XZ 000000014000b0e4 f   umodsys_lib_basesys:umodsys.basesys.rsystem.obj
 0001:0000a0f0       ?find@?$TQuantArrayUnique@USUniquePointerInfo@core@UModSys@@$0BAA@USMemAlloc_Malloc@23@@tl@UModSys@@QEAAPEBUSUniquePointerInfo@core@3@AEBU453@@Z 000000014000b0f0 f i umodsys_lib_basesys:umodsys.basesys.rsystem.obj
 0001:0000a0f0       ?find@?$TQuantArrayUnique@USSourceContext@core@UModSys@@$0BAA@USMemAlloc_Malloc@23@@tl@UModSys@@QEAAPEBUSSourceContext@core@3@AEBU453@@Z 000000014000b0f0 f i umodsys_lib_basesys:umodsys.basesys.rsystem.obj
 0001:0000a1cc       ?add@?$TQuantArrayUnique@USSourceContext@core@UModSys@@$0BAA@USMemAlloc_Malloc@23@@tl@UModSys@@QEAAPEAUSSourceContext@core@3@AEBU453@@Z 000000014000b1cc f i umodsys_lib_basesys:umodsys.basesys.rsystem.obj
 0001:0000a1cc       ?add@?$TQuantArrayUnique@USUniquePointerInfo@core@UModSys@@$0BAA@USMemAlloc_Malloc@23@@tl@UModSys@@QEAAPEAUSUniquePointerInfo@core@3@AEBU453@@Z 000000014000b1cc f i umodsys_lib_basesys:umodsys.basesys.rsystem.obj
 0001:0000a30c       ?s_last@?$TQuantArrayUnique@USSourceContext@core@UModSys@@$0BAA@USMemAlloc_Malloc@23@@tl@UModSys@@KAHPEBU?$TQuantArrayNode@USSourceContext@core@UModSys@@$0BAA@@23@0@Z 000000014000b30c f i umodsys_lib_basesys:umodsys.basesys.rsystem.obj
 0001:0000a30c       ?s_last@?$TQuantArrayUnique@USUniquePointerInfo@core@UModSys@@$0BAA@USMemAlloc_Malloc@23@@tl@UModSys@@KAHPEBU?$TQuantArrayNode@USUniquePointerInfo@core@UModSys@@$0BAA@@23@0@Z 000000014000b30c f i umodsys_lib_basesys:umodsys.basesys.rsystem.obj
 0001:0000a314       ??$insert_node_m@P6AHPEBU?$TQuantArrayNode@USSourceContext@core@UModSys@@$0BAA@@tl@UModSys@@0@Z@?$TTreeHoldRB@U?$TQuantArrayNode@USSourceContext@core@UModSys@@$0BAA@@tl@UModSys@@@tl@UModSys@@QEAAPEAU?$TQuantArrayNode@USSourceContext@core@UModSys@@$0BAA@@12@PEAU312@P6AHPEBU312@1@Z@Z 000000014000b314 f i umodsys_lib_basesys:umodsys.basesys.rsystem.obj
 0001:0000a314       ??$insert_node_m@P6AHPEBU?$TQuantArrayNode@USUniquePointerInfo@core@UModSys@@$0BAA@@tl@UModSys@@0@Z@?$TTreeHoldRB@U?$TQuantArrayNode@USUniquePointerInfo@core@UModSys@@$0BAA@@tl@UModSys@@@tl@UModSys@@QEAAPEAU?$TQuantArrayNode@USUniquePointerInfo@core@UModSys@@$0BAA@@12@PEAU312@P6AHPEBU312@1@Z@Z 000000014000b314 f i umodsys_lib_basesys:umodsys.basesys.rsystem.obj
 0001:0000a518       ?root_get_interface_info@RParameters@rsystem@base@UModSys@@UEBAAEBUSUniquePointerInfo@core@4@XZ 000000014000b518 f i umodsys_lib_basesys:umodsys.basesys.rparameters.obj
 0001:0000a520       ?root_get_interface_type@RParameters@rsystem@base@UModSys@@UEBAPEBUSUniquePointerInfo@core@4@XZ 000000014000b520 f i umodsys_lib_basesys:umodsys.basesys.rparameters.obj
 0001:0000a528       ?root_get_other_interface@RParameters@rsystem@base@UModSys@@UEAAPEAUIRoot@core@4@PEBUSUniquePointerInfo@64@@Z 000000014000b528 f i umodsys_lib_basesys:umodsys.basesys.rparameters.obj
 0001:0000a528       ?root_get_other_interface@RParameters@rsystem@base@UModSys@@UEBAPEBUIRoot@core@4@PEBUSUniquePointerInfo@64@@Z 000000014000b528 f i umodsys_lib_basesys:umodsys.basesys.rparameters.obj
 0001:0000a558       ?root_is_interface_supported@RParameters@rsystem@base@UModSys@@UEBA_NPEBUSUniquePointerInfo@core@4@@Z 000000014000b558 f i umodsys_lib_basesys:umodsys.basesys.rparameters.obj
 0001:0000a588       ?ref_add@RParameters@rsystem@base@UModSys@@UEBAXXZ 000000014000b588 f i umodsys_lib_basesys:umodsys.basesys.rparameters.obj
 0001:0000a58c       ?ref_remove@RParameters@rsystem@base@UModSys@@UEBAXXZ 000000014000b58c f i umodsys_lib_basesys:umodsys.basesys.rparameters.obj
 0001:0000a5a4       ?ref_links@RParameters@rsystem@base@UModSys@@UEBAHXZ 000000014000b5a4 f i umodsys_lib_basesys:umodsys.basesys.rparameters.obj
 0001:0000a5a8       ?ref_weak@RParameters@rsystem@base@UModSys@@UEBA_NAEAUWeakPointer@IRefObject@core@4@@Z 000000014000b5a8 f i umodsys_lib_basesys:umodsys.basesys.rparameters.obj
 0001:0000a5c8       ?find_elem@RParameters@rsystem@base@UModSys@@IEAAPEBUElem@1234@PEBXHHHPEBD@Z 000000014000b5c8 f   umodsys_lib_basesys:umodsys.basesys.rparameters.obj
 0001:0000a660       ?free_elems@RParameters@rsystem@base@UModSys@@IEAAXPEAXH@Z 000000014000b660 f   umodsys_lib_basesys:umodsys.basesys.rparameters.obj
 0001:0000a6f8       ?alloc_elems@RParameters@rsystem@base@UModSys@@IEAAXPEAXH@Z 000000014000b6f8 f   umodsys_lib_basesys:umodsys.basesys.rparameters.obj
 0001:0000a77c       ?add_last@RParameters@rsystem@base@UModSys@@IEAA_NPEAUSParametersData@core@4@PEBDPEBXH@Z 000000014000b77c f   umodsys_lib_basesys:umodsys.basesys.rparameters.obj
 0001:0000aa24       ?p_deinit@RParameters@rsystem@base@UModSys@@UEAAXPEAUSParametersData@core@4@@Z 000000014000ba24 f   umodsys_lib_basesys:umodsys.basesys.rparameters.obj
 0001:0000aa94       ?p_init@RParameters@rsystem@base@UModSys@@UEAAXPEAUSParametersData@core@4@H@Z 000000014000ba94 f   umodsys_lib_basesys:umodsys.basesys.rparameters.obj
 0001:0000ab3c       ?p_init@RParameters@rsystem@base@UModSys@@UEAAXPEAUSParametersData@core@4@AEBU564@@Z 000000014000bb3c f   umodsys_lib_basesys:umodsys.basesys.rparameters.obj
 0001:0000ac30       ?p_copy@RParameters@rsystem@base@UModSys@@UEAAXPEAUSParametersData@core@4@AEBU564@@Z 000000014000bc30 f   umodsys_lib_basesys:umodsys.basesys.rparameters.obj
 0001:0000ad7c       ?p_init_s@RParameters@rsystem@base@UModSys@@UEAAXPEAUSParametersData@core@4@PEAXH@Z 000000014000bd7c f   umodsys_lib_basesys:umodsys.basesys.rparameters.obj
 0001:0000adb4       ?p_init_s@RParameters@rsystem@base@UModSys@@UEAAXPEAUSParametersData@core@4@AEBU564@PEAXH@Z 000000014000bdb4 f   umodsys_lib_basesys:umodsys.basesys.rparameters.obj
 0001:0000ae34       ?next@RParameters@rsystem@base@UModSys@@UEAA_NPEBUSParametersData@core@4@AEAPEBD@Z 000000014000be34 f   umodsys_lib_basesys:umodsys.basesys.rparameters.obj
 0001:0000af0c       ?next@RParameters@rsystem@base@UModSys@@UEAA_NPEBUSParametersData@core@4@AEAU?$TString@U?$TSCoreConst@D@su@tl@UModSys@@U?$TComparerBinaryHash@D@234@@tl@4@@Z 000000014000bf0c f   umodsys_lib_basesys:umodsys.basesys.rparameters.obj
 0001:0000b058       ?add@RParameters@rsystem@base@UModSys@@UEAA_NPEAUSParametersData@core@4@PEBD1@Z 000000014000c058 f   umodsys_lib_basesys:umodsys.basesys.rparameters.obj
 0001:0000b070       ?add@RParameters@rsystem@base@UModSys@@UEAA_NPEAUSParametersData@core@4@PEBDH@Z 000000014000c070 f   umodsys_lib_basesys:umodsys.basesys.rparameters.obj
 0001:0000b090       ?add@RParameters@rsystem@base@UModSys@@UEAA_NPEAUSParametersData@core@4@PEBDAEBN@Z 000000014000c090 f   umodsys_lib_basesys:umodsys.basesys.rparameters.obj
 0001:0000b0a8       ?add@RParameters@rsystem@base@UModSys@@UEAA_NPEAUSParametersData@core@4@PEBDPEAUIRefObject@64@@Z 000000014000c0a8 f   umodsys_lib_basesys:umodsys.basesys.rparameters.obj
 0001:0000b0c8       ?get@RParameters@rsystem@base@UModSys@@UEAA_NPEBUSParametersData@core@4@PEBDAEAPEBD@Z 000000014000c0c8 f   umodsys_lib_basesys:umodsys.basesys.rparameters.obj
 0001:0000b140       ?get@RParameters@rsystem@base@UModSys@@UEAA_NPEBUSParametersData@core@4@PEBDAEAH@Z 000000014000c140 f   umodsys_lib_basesys:umodsys.basesys.rparameters.obj
 0001:0000b1b4       ?get@RParameters@rsystem@base@UModSys@@UEAA_NPEBUSParametersData@core@4@PEBDAEAN@Z 000000014000c1b4 f   umodsys_lib_basesys:umodsys.basesys.rparameters.obj
 0001:0000b22c       ?get@RParameters@rsystem@base@UModSys@@UEAA_NPEBUSParametersData@core@4@PEBDAEAPEAUIRefObject@64@@Z 000000014000c22c f   umodsys_lib_basesys:umodsys.basesys.rparameters.obj
 0001:0000b2a4       ??_GRParameters@rsystem@base@UModSys@@UEAAPEAXI@Z 000000014000c2a4 f i umodsys_lib_basesys:umodsys.basesys.rparameters.obj
 0001:0000b2a4       ??_GIRoot@core@UModSys@@UEAAPEAXI@Z 000000014000c2a4 f i umodsys_lib_libmedia:umodsys.mod.media.std.obj
 0001:0000b2a4       ??_GRGenerator@std@media@modules@UModSys@@UEAAPEAXI@Z 000000014000c2a4 f i umodsys_lib_libmedia:umodsys.mod.media.std.obj
 0001:0000b2a4       ??_ERGenerator@stdio@media@modules@UModSys@@UEAAPEAXI@Z 000000014000c2a4 f i  CIL library: CIL module
 0001:0000b2a4       ??_EIRoot@core@UModSys@@UEAAPEAXI@Z 000000014000c2a4 f i  CIL library: CIL module
 0001:0000b2a4       ??_ERGenerator@std@media@modules@UModSys@@UEAAPEAXI@Z 000000014000c2a4 f i  CIL library: CIL module
 0001:0000b2a4       ??_ERParameters@rsystem@base@UModSys@@UEAAPEAXI@Z 000000014000c2a4 f i  CIL library: CIL module
 0001:0000b2a4       ??_GRGenerator@stdio@media@modules@UModSys@@UEAAPEAXI@Z 000000014000c2a4 f i umodsys_lib_libmedia:umodsys.mod.media.stdio.obj
 0001:0000b36c       ?pfd_load@RModuleLibrarySO@rsystem@base@UModSys@@SAPEAUIModuleLibraryReg@34@PEAUPFD_Data@1234@AEBU?$TString@U?$TSCoreConst@D@su@tl@UModSys@@U?$TComparerBinaryHash@D@234@@tl@4@@Z 000000014000c36c f   umodsys_lib_basesys:umodsys.basesys.rmodule.win32.obj
 0001:0000b4ac       ?pfd_unload@RModuleLibrarySO@rsystem@base@UModSys@@SA_NPEAUPFD_Data@1234@@Z 000000014000c4ac f   umodsys_lib_basesys:umodsys.basesys.rmodule.win32.obj
 0001:0000b80c       ??0?$WinPath@$0BAAA@@syshlp@core@UModSys@@QEAA@PEB_W0@Z 000000014000c80c f i umodsys_lib_basesys:umodsys.basesys.rmodule.win32.obj
 0001:0000b8f8       ??0?$U16String@$0BAAA@@syshlp@core@UModSys@@QEAA@PEBD@Z 000000014000c8f8 f i umodsys_lib_basesys:umodsys.basesys.rmodule.win32.obj
 0001:0000b970       ?root_get_interface_info@RModule@rsystem@base@UModSys@@UEBAAEBUSUniquePointerInfo@core@4@XZ 000000014000c970 f i umodsys_lib_basesys:umodsys.basesys.rmodule.obj
 0001:0000b978       ?root_get_interface_type@RModule@rsystem@base@UModSys@@UEBAPEBUSUniquePointerInfo@core@4@XZ 000000014000c978 f i umodsys_lib_basesys:umodsys.basesys.rmodule.obj
 0001:0000b980       ?root_get_other_interface@RModule@rsystem@base@UModSys@@UEAAPEAUIRoot@core@4@PEBUSUniquePointerInfo@64@@Z 000000014000c980 f i umodsys_lib_basesys:umodsys.basesys.rmodule.obj
 0001:0000b980       ?root_get_other_interface@RModule@rsystem@base@UModSys@@UEBAPEBUIRoot@core@4@PEBUSUniquePointerInfo@64@@Z 000000014000c980 f i umodsys_lib_basesys:umodsys.basesys.rmodule.obj
 0001:0000b9b0       ?root_is_interface_supported@RModule@rsystem@base@UModSys@@UEBA_NPEBUSUniquePointerInfo@core@4@@Z 000000014000c9b0 f i umodsys_lib_basesys:umodsys.basesys.rmodule.obj
 0001:0000b9e0       ?ref_add@RModule@rsystem@base@UModSys@@UEBAXXZ 000000014000c9e0 f i umodsys_lib_basesys:umodsys.basesys.rmodule.obj
 0001:0000b9e8       ?ref_remove@RModule@rsystem@base@UModSys@@UEBAXXZ 000000014000c9e8 f i umodsys_lib_basesys:umodsys.basesys.rmodule.obj
 0001:0000ba00       ?ref_links@RModule@rsystem@base@UModSys@@UEBAHXZ 000000014000ca00 f i umodsys_lib_basesys:umodsys.basesys.rmodule.obj
 0001:0000ba08       ?ref_weak@RModule@rsystem@base@UModSys@@UEBA_NAEAUWeakPointer@IRefObject@core@4@@Z 000000014000ca08 f i umodsys_lib_basesys:umodsys.basesys.rmodule.obj
 0001:0000ba2c       ?suicide@RModule@rsystem@base@UModSys@@UEAAXXZ 000000014000ca2c f i umodsys_lib_basesys:umodsys.basesys.rmodule.obj
 0001:0000ba74       ?get_library@RModule@rsystem@base@UModSys@@UEBAPEAUIModuleLibrary@34@XZ 000000014000ca74 f   umodsys_lib_basesys:umodsys.basesys.rmodule.obj
 0001:0000ba7c       ?get_info@RModule@rsystem@base@UModSys@@UEBAAEBUSModuleInfo@34@XZ 000000014000ca7c f   umodsys_lib_basesys:umodsys.basesys.rmodule.obj
 0001:0000ba84       ?is_open@RModule@rsystem@base@UModSys@@UEBA_NXZ 000000014000ca84 f   umodsys_lib_basesys:umodsys.basesys.rmodule.obj
 0001:0000bab0       ?open@RModule@rsystem@base@UModSys@@UEAA_NXZ 000000014000cab0 f   umodsys_lib_basesys:umodsys.basesys.rmodule.obj
 0001:0000bb28       ?close@RModule@rsystem@base@UModSys@@UEAA_NXZ 000000014000cb28 f   umodsys_lib_basesys:umodsys.basesys.rmodule.obj
 0001:0000bb80       ?reg@RModule@rsystem@base@UModSys@@UEAA_NPEAUIModObject@34@_N@Z 000000014000cb80 f   umodsys_lib_basesys:umodsys.basesys.rmodule.obj
 0001:0000bba0       ?reg@RModule@rsystem@base@UModSys@@UEAA_NPEAUIGenerator@34@_N@Z 000000014000cba0 f   umodsys_lib_basesys:umodsys.basesys.rmodule.obj
 0001:0000bbec       ?mod_findobjname@RModule@rsystem@base@UModSys@@UEAA_KPEBUSUniquePointerInfo@core@4@QEAPEBU564@_KPEBD@Z 000000014000cbec f   umodsys_lib_basesys:umodsys.basesys.rmodule.obj
 0001:0000bd3c       ?mod_generate@RModule@rsystem@base@UModSys@@UEAA_NAEAU?$TRefObject@UIRefObject@core@UModSys@@U?$TRefObjectFunc@UIRefObject@core@UModSys@@@tl@3@@tl@4@PEBUSUniquePointerInfo@core@4@AEBUSParameters@84@@Z 000000014000cd3c f   umodsys_lib_basesys:umodsys.basesys.rmodule.obj
 0001:0000be9c       ?reg_generator@RModule@rsystem@base@UModSys@@QEAA_NPEAUModuleObjInfo@1234@PEAUIGenerator@34@@Z 000000014000ce9c f   umodsys_lib_basesys:umodsys.basesys.rmodule.obj
 0001:0000c094       ?reg_obj@RModule@rsystem@base@UModSys@@QEAAPEAUModuleObjInfo@1234@PEAUIModObject@34@@Z 000000014000d094 f   umodsys_lib_basesys:umodsys.basesys.rmodule.obj
 0001:0000c220       ?unreg_obj@RModule@rsystem@base@UModSys@@QEAA_NPEAUIModObject@34@@Z 000000014000d220 f   umodsys_lib_basesys:umodsys.basesys.rmodule.obj
 0001:0000c328       ?alloc_minfo@RModule@rsystem@base@UModSys@@QEAA_NAEBUSModuleInfo@34@@Z 000000014000d328 f   umodsys_lib_basesys:umodsys.basesys.rmodule.obj
 0001:0000c3e8       ?save_db@RModule@rsystem@base@UModSys@@QEAA_NPEAU_iobuf@@@Z 000000014000d3e8 f   umodsys_lib_basesys:umodsys.basesys.rmodule.obj
 0001:0000c5dc       ??_GRModule@rsystem@base@UModSys@@UEAAPEAXI@Z 000000014000d5dc f i umodsys_lib_basesys:umodsys.basesys.rmodule.obj
 0001:0000c5dc       ??_ERModule@rsystem@base@UModSys@@UEAAPEAXI@Z 000000014000d5dc f i  CIL library: CIL module
 0001:0000c728       ??1?$TDynarrayDynamic@UModuleObjInfo@RModule@rsystem@base@UModSys@@U?$TAllocator@USMemAlloc_Malloc@core@UModSys@@USCountCalcPower2@23@@tl@5@@tl@UModSys@@QEAA@XZ 000000014000d728 f i umodsys_lib_basesys:umodsys.basesys.rmodule.obj
 0001:0000c778       ??1?$TDynarrayDynamic@UGeneratedObjInfo@RModule@rsystem@base@UModSys@@U?$TAllocator@USMemAlloc_Malloc@core@UModSys@@USCountCalcPower2@23@@tl@5@@tl@UModSys@@QEAA@XZ 000000014000d778 f i umodsys_lib_basesys:umodsys.basesys.rmodule.obj
 0001:0000c7c4       ??1?$TDynarrayDynamic@PEBUSUniquePointerInfo@core@UModSys@@U?$TAllocator@USMemAlloc_Malloc@core@UModSys@@USCountCalcPower2@23@@tl@3@@tl@UModSys@@QEAA@XZ 000000014000d7c4 f i umodsys_lib_basesys:umodsys.basesys.rmodule.obj
 0001:0000c810       ?ResizeRel@?$TDynarray@U?$TDynarrayHolderDynamic@UModuleObjInfo@RModule@rsystem@base@UModSys@@U?$TAllocator@USMemAlloc_Malloc@core@UModSys@@USCountCalcPower2@23@@tl@5@@tl@UModSys@@@tl@UModSys@@QEAA_N_J@Z 000000014000d810 f i umodsys_lib_basesys:umodsys.basesys.rmodule.obj
 0001:0000c8f4       ?ResizeRel@?$TDynarray@U?$TDynarrayHolderDynamic@UGeneratedObjInfo@RModule@rsystem@base@UModSys@@U?$TAllocator@USMemAlloc_Malloc@core@UModSys@@USCountCalcPower2@23@@tl@5@@tl@UModSys@@@tl@UModSys@@QEAA_N_J@Z 000000014000d8f4 f i umodsys_lib_basesys:umodsys.basesys.rmodule.obj
 0001:0000c9d0       ?ResizeRel@?$TDynarray@U?$TDynarrayHolderDynamic@PEBUSUniquePointerInfo@core@UModSys@@U?$TAllocator@USMemAlloc_Malloc@core@UModSys@@USCountCalcPower2@23@@tl@3@@tl@UModSys@@@tl@UModSys@@QEAA_N_J@Z 000000014000d9d0 f i umodsys_lib_basesys:umodsys.basesys.rmodule.obj
 0001:0000ca68       ??$wildcmp@D@su@tl@UModSys@@YA_NPEBD0@Z 000000014000da68 f i umodsys_lib_basesys:umodsys.basesys.rmodule.obj
 0001:0000caf0       ?root_get_interface_info@RModuleLibrarySO@rsystem@base@UModSys@@UEBAAEBUSUniquePointerInfo@core@4@XZ 000000014000daf0 f i umodsys_lib_basesys:umodsys.basesys.rmodulelibso.obj
 0001:0000caf8       ?root_get_interface_type@RModuleLibrarySO@rsystem@base@UModSys@@UEBAPEBUSUniquePointerInfo@core@4@XZ 000000014000daf8 f i umodsys_lib_basesys:umodsys.basesys.rmodulelibso.obj
 0001:0000cb00       ?root_get_other_interface@RModuleLibrarySO@rsystem@base@UModSys@@UEAAPEAUIRoot@core@4@PEBUSUniquePointerInfo@64@@Z 000000014000db00 f i umodsys_lib_basesys:umodsys.basesys.rmodulelibso.obj
 0001:0000cb00       ?root_get_other_interface@RModuleLibrarySO@rsystem@base@UModSys@@UEBAPEBUIRoot@core@4@PEBUSUniquePointerInfo@64@@Z 000000014000db00 f i umodsys_lib_basesys:umodsys.basesys.rmodulelibso.obj
 0001:0000cb38       ?root_is_interface_supported@RModuleLibrarySO@rsystem@base@UModSys@@UEBA_NPEBUSUniquePointerInfo@core@4@@Z 000000014000db38 f i umodsys_lib_basesys:umodsys.basesys.rmodulelibso.obj
 0001:0000cb70       ?ref_add@RModuleLibrarySO@rsystem@base@UModSys@@UEBAXXZ 000000014000db70 f i umodsys_lib_basesys:umodsys.basesys.rmodulelibso.obj
 0001:0000cb78       ?ref_remove@RModuleLibrarySO@rsystem@base@UModSys@@UEBAXXZ 000000014000db78 f i umodsys_lib_basesys:umodsys.basesys.rmodulelibso.obj
 0001:0000cb90       ?ref_links@RModuleLibrarySO@rsystem@base@UModSys@@UEBAHXZ 000000014000db90 f i umodsys_lib_basesys:umodsys.basesys.rmodulelibso.obj
 0001:0000cb98       ?ref_weak@RModuleLibrarySO@rsystem@base@UModSys@@UEBA_NAEAUWeakPointer@IRefObject@core@4@@Z 000000014000db98 f i umodsys_lib_basesys:umodsys.basesys.rmodulelibso.obj
 0001:0000cbbc       ?suicide@RModuleLibraryThis@rsystem@base@UModSys@@UEAAXXZ 000000014000dbbc f i umodsys_lib_basesys:umodsys.basesys.rmodulelibthis.obj
 0001:0000cbbc       ?suicide@RModuleLibrarySO@rsystem@base@UModSys@@UEAAXXZ 000000014000dbbc f i umodsys_lib_basesys:umodsys.basesys.rmodulelibso.obj
 0001:0000cbbc       ?suicide@IRoot@core@UModSys@@UEAAXXZ 000000014000dbbc f i umodsys_lib_core:umodsys.core.objects.obj
 0001:0000cbbc       ?suicide@RParameters@rsystem@base@UModSys@@UEAAXXZ 000000014000dbbc f i umodsys_lib_basesys:umodsys.basesys.rparameters.obj
 0001:0000cbd4       ?uni_load@RModuleLibrarySO@rsystem@base@UModSys@@UEAA_NXZ 000000014000dbd4 f   umodsys_lib_basesys:umodsys.basesys.rmodulelibso.obj
 0001:0000cc1c       ?uni_unload@RModuleLibrarySO@rsystem@base@UModSys@@UEAA_NXZ 000000014000dc1c f   umodsys_lib_basesys:umodsys.basesys.rmodulelibso.obj
 0001:0000cc28       ?uni_open@RModuleLibrarySO@rsystem@base@UModSys@@UEAA_NXZ 000000014000dc28 f   umodsys_lib_basesys:umodsys.basesys.rmodulelibso.obj
 0001:0000cc64       ?uni_close@RModuleLibrarySO@rsystem@base@UModSys@@UEAA_NXZ 000000014000dc64 f   umodsys_lib_basesys:umodsys.basesys.rmodulelibso.obj
 0001:0000cc80       ?s_add@RModuleLibrarySO@rsystem@base@UModSys@@SA_NPEAUISystem@34@AEAU?$TDynarrayDynamic@U?$TRefObject@URModuleLibrarySO@rsystem@base@UModSys@@U?$TRefObjectFunc@URModuleLibrarySO@rsystem@base@UModSys@@@tl@4@@tl@UModSys@@U?$TAllocator@USMemAlloc_Malloc@core@UModSys@@USCountCalcPower2@23@@23@@tl@4@PEBD@Z 000000014000dc80 f   umodsys_lib_basesys:umodsys.basesys.rmodulelibso.obj
 0001:0000cf00       ??_GRModuleLibrarySO@rsystem@base@UModSys@@UEAAPEAXI@Z 000000014000df00 f i umodsys_lib_basesys:umodsys.basesys.rmodulelibso.obj
 0001:0000cf00       ??_ERModuleLibrarySO@rsystem@base@UModSys@@UEAAPEAXI@Z 000000014000df00 f i  CIL library: CIL module
 0001:0000cf5c       ??4?$TString@U?$TSCoreShared@USMemAlloc_Malloc@core@UModSys@@D@su@tl@UModSys@@U?$TComparerBinaryHash@D@234@@tl@UModSys@@QEAAAEBU012@PEBD@Z 000000014000df5c f i umodsys_lib_basesys:umodsys.basesys.rmodulelibso.obj
 0001:0000d058       ?Link@SModuleContext@base@UModSys@@QEAAXPEAUISystem@23@PEAUIMemAlloc@core@3@@Z 000000014000e058 f   umodsys_lib_base:umodsys.base.modulecontext.obj
 0001:0000d0cc       ?mlr_count@RModuleLibraryReg_Chain@base@UModSys@@UEBA_KXZ 000000014000e0cc f   umodsys_lib_base:umodsys.base.moduleregchain.obj
 0001:0000d104       ?mlr_get@RModuleLibraryReg_Chain@base@UModSys@@UEBAPEAUIModuleReg@23@_K@Z 000000014000e104 f   umodsys_lib_base:umodsys.base.moduleregchain.obj
 0001:0000d130       ?mlr_open@RModuleLibraryReg_Chain@base@UModSys@@UEAA_NPEAUISystem@23@PEAUIMemAlloc@core@3@@Z 000000014000e130 f   umodsys_lib_base:umodsys.base.moduleregchain.obj
 0001:0000d15c       ?mlr_close@RModuleLibraryReg_Chain@base@UModSys@@UEAA_NXZ 000000014000e15c f   umodsys_lib_base:umodsys.base.moduleregchain.obj
 0001:0000d1a4       ?mlr_isopen@RModuleLibraryReg_Chain@base@UModSys@@UEBA_NXZ 000000014000e1a4 f   umodsys_lib_base:umodsys.base.moduleregchain.obj
 0001:0000d1b4       UModSys_Plugin_Entry2      000000014000e1b4 f   umodsys_lib_base:umodsys.so_main.win32.obj
 0001:0000d1bc       ?mr_isopen@IModuleReg@base@UModSys@@UEBA_NXZ 000000014000e1bc f   umodsys_lib_base:umodsys.base.modulereg.obj
 0001:0000d1c8       ?mr_open@IModuleReg@base@UModSys@@UEAA_NXZ 000000014000e1c8 f   umodsys_lib_base:umodsys.base.modulereg.obj
 0001:0000d1ec       ?mr_close@IModuleReg@base@UModSys@@UEAA_NXZ 000000014000e1ec f   umodsys_lib_base:umodsys.base.modulereg.obj
 0001:0000d208       ??_GIModuleLibraryReg@base@UModSys@@UEAAPEAXI@Z 000000014000e208 f i umodsys_lib_base:umodsys.base.modulereg.obj
 0001:0000d208       ??_EIModuleLibraryReg@base@UModSys@@UEAAPEAXI@Z 000000014000e208 f i  CIL library: CIL module
 0001:0000d208       ??_ERModuleLibraryReg_Chain@base@UModSys@@UEAAPEAXI@Z 000000014000e208 f i  CIL library: CIL module
 0001:0000d208       ??_GRModuleLibraryReg_Chain@base@UModSys@@UEAAPEAXI@Z 000000014000e208 f i umodsys_lib_base:umodsys.base.moduleregchain.obj
 0001:0000d230       ??1IModuleLoader@base@UModSys@@UEAA@XZ 000000014000e230 f   umodsys_lib_base:umodsys.base.moduleloader.obj
 0001:0000d23c       ??0SUniquePointer@core@UModSys@@QEAA@PEBD0H@Z 000000014000e23c f   umodsys_lib_core:umodsys.core.uniqueptr.obj
 0001:0000d28c       ??1SUniquePointer@core@UModSys@@QEAA@XZ 000000014000e28c f   umodsys_lib_core:umodsys.core.uniqueptr.obj
 0001:0000d2b4       ?s_resolve@SUniquePointer@core@UModSys@@SAXPEAUIUniquePointerResolver@23@@Z 000000014000e2b4 f   umodsys_lib_core:umodsys.core.uniqueptr.obj
 0001:0000d31c       ?s_unresolve@SUniquePointer@core@UModSys@@SAXPEAUIUniquePointerResolver@23@@Z 000000014000e31c f   umodsys_lib_core:umodsys.core.uniqueptr.obj
 0001:0000d370       ?u_fopen@syshlp@core@UModSys@@YAPEAU_iobuf@@PEBD0@Z 000000014000e370 f   umodsys_lib_core:umodsys.core.syshlp_files.win32.obj
 0001:0000d444       ?u_fopentemp@syshlp@core@UModSys@@YAPEAU_iobuf@@AEAPEADPEBD@Z 000000014000e444 f   umodsys_lib_core:umodsys.core.syshlp_files.win32.obj
 0001:0000d50c       ?u_fendtemp@syshlp@core@UModSys@@YA_NAEAPEAU_iobuf@@AEAPEAD_N@Z 000000014000e50c f   umodsys_lib_core:umodsys.core.syshlp_files.win32.obj
 0001:0000d5e0       ??3IRoot@core@UModSys@@SAXPEAX@Z 000000014000e5e0 f   umodsys_lib_core:umodsys.core.objects.obj
 0001:0000d608       ?gracial_convert@syshlp@core@UModSys@@YA_NPEADHPEB_WH@Z 000000014000e608 f   umodsys_lib_core:umodsys.core.syshlp_charcode.win32.obj
 0001:0000d650       _onexit                    000000014000e650 f   MSVCRT:atonexit.obj
 0001:0000d700       atexit                     000000014000e700 f   MSVCRT:atonexit.obj
 0001:0000d9e8       mainCRTStartup             000000014000e9e8 f   MSVCRT:crtexe.obj
 0001:0000d9fa       _purecall                  000000014000e9fa f   MSVCRT:MSVCR90.dll
 0001:0000da00       ??3@YAXPEAX@Z              000000014000ea00 f   MSVCRT:MSVCR90.dll
 0001:0000da08       ??_Etype_info@@UEAAPEAXI@Z 000000014000ea08 f i MSVCRT:ti_inst.obj
 0001:0000da72       ??2@YAPEAX_K@Z             000000014000ea72 f   MSVCRT:MSVCR90.dll
 0001:0000da78       __C_specific_handler       000000014000ea78 f   MSVCRT:MSVCR90.dll
 0001:0000da7e       _unlock                    000000014000ea7e f   MSVCRT:MSVCR90.dll
 0001:0000da84       __dllonexit                000000014000ea84 f   MSVCRT:MSVCR90.dll
 0001:0000da8a       _lock                      000000014000ea8a f   MSVCRT:MSVCR90.dll
 0001:0000da90       ?__CxxUnhandledExceptionFilter@@YAJPEAU_EXCEPTION_POINTERS@@@Z 000000014000ea90 f   MSVCRT:unhandld.obj
 0001:0000dad4       __CxxSetUnhandledExceptionFilter 000000014000ead4 f   MSVCRT:unhandld.obj
 0001:0000daec       _amsg_exit                 000000014000eaec f   MSVCRT:MSVCR90.dll
 0001:0000daf4       _RTC_Initialize            000000014000eaf4 f   MSVCRT:_initsect_.obj
 0001:0000db2c       _RTC_Terminate             000000014000eb2c f   MSVCRT:_initsect_.obj
 0001:0000db64       _XcptFilter                000000014000eb64 f   MSVCRT:MSVCR90.dll
 0001:0000db70       _ValidateImageBase         000000014000eb70 f   MSVCRT:pesect.obj
 0001:0000dba0       _FindPESection             000000014000eba0 f   MSVCRT:pesect.obj
 0001:0000dbf0       _IsNonwritableInCurrentImage 000000014000ebf0 f   MSVCRT:pesect.obj
 0001:0000dc32       _initterm                  000000014000ec32 f   MSVCRT:MSVCR90.dll
 0001:0000dc38       _initterm_e                000000014000ec38 f   MSVCRT:MSVCR90.dll
 0001:0000dc40       ?ref_links@RConsole_std@rsystem@base@UModSys@@UEBAHXZ 000000014000ec40 f   umodsys_lib_basesys:umodsys.basesys.rconsole_std.obj
 0001:0000dc40       ?get_syslib@RSystem@rsystem@base@UModSys@@UEAAPEAUIModuleLibrary@34@XZ 000000014000ec40 f   umodsys_lib_basesys:umodsys.basesys.rsystem.obj
 0001:0000dc40       _matherr                   000000014000ec40 f   MSVCRT:merr.obj
 0001:0000dc40       _setargv                   000000014000ec40 f   MSVCRT:dllargv.obj
 0001:0000dc44       __security_init_cookie     000000014000ec44 f   MSVCRT:gs_support.obj
 0001:0000dcf8       ?__ArrayUnwind@@YAXPEAX_KHP6AX0@Z@Z 000000014000ecf8 f   MSVCRT:ehvecdtr.obj
 0001:0000dd44       ??_M@YAXPEAX_KHP6AX0@Z@Z   000000014000ed44 f   MSVCRT:ehvecdtr.obj
 0001:0000dda2       ?terminate@@YAXXZ          000000014000eda2 f   MSVCRT:MSVCR90.dll
 0001:0000dda8       ??1type_info@@UEAA@XZ      000000014000eda8 f   MSVCRT:MSVCR90.dll
 0001:0000dda8       ?_type_info_dtor_internal_method@type_info@@QEAAXXZ 000000014000eda8 f   MSVCRT:MSVCR90.dll
 0001:0000ddae       memcpy                     000000014000edae f   MSVCRT:MSVCR90.dll
 0001:0000ddc0       __CxxFrameHandler3         000000014000edc0 f   MSVCRT:MSVCR90.dll
 0001:0000ddc6       _CxxThrowException         000000014000edc6 f   MSVCRT:MSVCR90.dll
 0001:0000dde0       _alloca_probe              000000014000ede0     MSVCRT:chkstk.obj
 0001:0000dde0       __chkstk                   000000014000ede0 f   MSVCRT:chkstk.obj
 0002:00000000       __imp_GetCurrentProcessId  0000000140011000     kernel32:KERNEL32.dll
 0002:00000008       __imp_GetCurrentThreadId   0000000140011008     kernel32:KERNEL32.dll
 0002:00000010       __imp_GetTickCount         0000000140011010     kernel32:KERNEL32.dll
 0002:00000018       __imp_QueryPerformanceCounter 0000000140011018     kernel32:KERNEL32.dll
 0002:00000020       __imp_SetUnhandledExceptionFilter 0000000140011020     kernel32:KERNEL32.dll
 0002:00000028       __imp_Sleep                0000000140011028     kernel32:KERNEL32.dll
 0002:00000030       __imp_MultiByteToWideChar  0000000140011030     kernel32:KERNEL32.dll
 0002:00000038       __imp_WideCharToMultiByte  0000000140011038     kernel32:KERNEL32.dll
 0002:00000040       __imp_SetConsoleOutputCP   0000000140011040     kernel32:KERNEL32.dll
 0002:00000048       __imp_GetLastError         0000000140011048     kernel32:KERNEL32.dll
 0002:00000050       __imp_GetConsoleOutputCP   0000000140011050     kernel32:KERNEL32.dll
 0002:00000058       __imp_FindNextFileW        0000000140011058     kernel32:KERNEL32.dll
 0002:00000060       __imp_FindClose            0000000140011060     kernel32:KERNEL32.dll
 0002:00000068       __imp_GetProcAddress       0000000140011068     kernel32:KERNEL32.dll
 0002:00000070       __imp_GetModuleFileNameW   0000000140011070     kernel32:KERNEL32.dll
 0002:00000078       __imp_GetModuleHandleW     0000000140011078     kernel32:KERNEL32.dll
 0002:00000080       __imp_LoadLibraryExW       0000000140011080     kernel32:KERNEL32.dll
 0002:00000088       __imp_FreeLibrary          0000000140011088     kernel32:KERNEL32.dll
 0002:00000090       __imp_SetErrorMode         0000000140011090     kernel32:KERNEL32.dll
 0002:00000098       __imp_FindFirstFileW       0000000140011098     kernel32:KERNEL32.dll
 0002:000000a0       __imp_GetFullPathNameW     00000001400110a0     kernel32:KERNEL32.dll
 0002:000000a8       __imp_GetSystemTimeAsFileTime 00000001400110a8     kernel32:KERNEL32.dll
 0002:000000b0       \177KERNEL32_NULL_THUNK_DATA 00000001400110b0     kernel32:KERNEL32.dll
 0002:000000b8       __imp__vsnprintf           00000001400110b8     MSVCRT:MSVCR90.dll
 0002:000000c0       __imp___C_specific_handler 00000001400110c0     MSVCRT:MSVCR90.dll
 0002:000000c8       __imp__unlock              00000001400110c8     MSVCRT:MSVCR90.dll
 0002:000000d0       __imp___dllonexit          00000001400110d0     MSVCRT:MSVCR90.dll
 0002:000000d8       __imp__encode_pointer      00000001400110d8     MSVCRT:MSVCR90.dll
 0002:000000e0       __imp__lock                00000001400110e0     MSVCRT:MSVCR90.dll
 0002:000000e8       __imp__onexit              00000001400110e8     MSVCRT:MSVCR90.dll
 0002:000000f0       __imp__decode_pointer      00000001400110f0     MSVCRT:MSVCR90.dll
 0002:000000f8       __imp__amsg_exit           00000001400110f8     MSVCRT:MSVCR90.dll
 0002:00000100       __imp___getmainargs        0000000140011100     MSVCRT:MSVCR90.dll
 0002:00000108       __imp__XcptFilter          0000000140011108     MSVCRT:MSVCR90.dll
 0002:00000110       __imp_remove               0000000140011110     MSVCRT:MSVCR90.dll
 0002:00000118       __imp__cexit               0000000140011118     MSVCRT:MSVCR90.dll
 0002:00000120       __imp_exit                 0000000140011120     MSVCRT:MSVCR90.dll
 0002:00000128       __imp___initenv            0000000140011128     MSVCRT:MSVCR90.dll
 0002:00000130       __imp__initterm            0000000140011130     MSVCRT:MSVCR90.dll
 0002:00000138       __imp__initterm_e          0000000140011138     MSVCRT:MSVCR90.dll
 0002:00000140       __imp__configthreadlocale  0000000140011140     MSVCRT:MSVCR90.dll
 0002:00000148       __imp___setusermatherr     0000000140011148     MSVCRT:MSVCR90.dll
 0002:00000150       __imp__commode             0000000140011150     MSVCRT:MSVCR90.dll
 0002:00000158       __imp__fmode               0000000140011158     MSVCRT:MSVCR90.dll
 0002:00000160       __imp___set_app_type       0000000140011160     MSVCRT:MSVCR90.dll
 0002:00000168       __imp_?terminate@@YAXXZ    0000000140011168     MSVCRT:MSVCR90.dll
 0002:00000170       __imp_?_type_info_dtor_internal_method@type_info@@QEAAXXZ 0000000140011170     MSVCRT:MSVCR90.dll
 0002:00000178       __imp__wfopen              0000000140011178     MSVCRT:MSVCR90.dll
 0002:00000180       __imp_rename               0000000140011180     MSVCRT:MSVCR90.dll
 0002:00000188       __imp_realloc              0000000140011188     MSVCRT:MSVCR90.dll
 0002:00000190       __imp_fprintf              0000000140011190     MSVCRT:MSVCR90.dll
 0002:00000198       __imp_strncpy              0000000140011198     MSVCRT:MSVCR90.dll
 0002:000001a0       __imp__snprintf            00000001400111a0     MSVCRT:MSVCR90.dll
 0002:000001a8       __imp_malloc               00000001400111a8     MSVCRT:MSVCR90.dll
 0002:000001b0       __imp_free                 00000001400111b0     MSVCRT:MSVCR90.dll
 0002:000001b8       __imp_vfprintf             00000001400111b8     MSVCRT:MSVCR90.dll
 0002:000001c0       __imp___iob_func           00000001400111c0     MSVCRT:MSVCR90.dll
 0002:000001c8       __imp_strstr               00000001400111c8     MSVCRT:MSVCR90.dll
 0002:000001d0       __imp_fclose               00000001400111d0     MSVCRT:MSVCR90.dll
 0002:000001d8       __imp_fseek                00000001400111d8     MSVCRT:MSVCR90.dll
 0002:000001e0       __imp_ftell                00000001400111e0     MSVCRT:MSVCR90.dll
 0002:000001e8       __imp_fwrite               00000001400111e8     MSVCRT:MSVCR90.dll
 0002:000001f0       __imp__fileno              00000001400111f0     MSVCRT:MSVCR90.dll
 0002:000001f8       __imp_fread                00000001400111f8     MSVCRT:MSVCR90.dll
 0002:00000200       __imp__chsize              0000000140011200     MSVCRT:MSVCR90.dll
 0002:00000208       __imp_fflush               0000000140011208     MSVCRT:MSVCR90.dll
 0002:00000210       __imp_??2@YAPEAX_K@Z       0000000140011210     MSVCRT:MSVCR90.dll
 0002:00000218       __imp_??3@YAXPEAX@Z        0000000140011218     MSVCRT:MSVCR90.dll
 0002:00000220       __imp__purecall            0000000140011220     MSVCRT:MSVCR90.dll
 0002:00000228       __imp__exit                0000000140011228     MSVCRT:MSVCR90.dll
 0002:00000230       __imp_strncmp              0000000140011230     MSVCRT:MSVCR90.dll
 0002:00000238       __imp_memcpy               0000000140011238     MSVCRT:MSVCR90.dll
 0002:00000240       __imp___CxxFrameHandler3   0000000140011240     MSVCRT:MSVCR90.dll
 0002:00000248       __imp__CxxThrowException   0000000140011248     MSVCRT:MSVCR90.dll
 0002:00000250       \177MSVCR90_NULL_THUNK_DATA 0000000140011250     MSVCRT:MSVCR90.dll
 0002:00000258       __xc_a                     0000000140011258     MSVCRT:cinitexe.obj
 0002:00000638       __xc_z                     0000000140011638     MSVCRT:cinitexe.obj
 0002:00000640       __xi_a                     0000000140011640     MSVCRT:cinitexe.obj
 0002:00000658       __xi_z                     0000000140011658     MSVCRT:cinitexe.obj
 0002:00000668       ??_7type_info@@6B@         0000000140011668     MSVCRT:ti_inst.obj
 0002:00000670       ??_C@_0P@GHFPNOJB@bad?5allocation?$AA@ 0000000140011670     umodsys.c_main.obj
 0002:00000680       ??_C@_0BF@OCNNAADO@UModSys?3?3core?3?3IRoot?$AA@ 0000000140011680     umodsys.c_main.obj
 0002:00000698       ??_C@_0BK@EMIJFOPA@UModSys?3?3core?3?3IRefObject?$AA@ 0000000140011698     umodsys.c_main.obj
 0002:000006b8       ??_C@_0BL@IOMMHELF@UModSys?3?3core?3?3IParameters?$AA@ 00000001400116b8     umodsys.c_main.obj
 0002:000006d8       ??_C@_0BH@LKDEEPPM@UModSys?3?3base?3?3IModule?$AA@ 00000001400116d8     umodsys.c_main.obj
 0002:000006f0       ??_C@_0BO@PHJOHFCB@UModSys?3?3base?3?3IModuleLibrary?$AA@ 00000001400116f0     umodsys.c_main.obj
 0002:00000710       ??_C@_0BK@FDPIOPHG@UModSys?3?3base?3?3IModObject?$AA@ 0000000140011710     umodsys.c_main.obj
 0002:00000730       ??_C@_0BK@OIBKNCKJ@UModSys?3?3base?3?3IGenerator?$AA@ 0000000140011730     umodsys.c_main.obj
 0002:00000750       ??_C@_0BG@PJBGCMEC@UModSys?3?3base?3?3IShell?$AA@ 0000000140011750     umodsys.c_main.obj
 0002:00000768       ??_C@_0BI@IKAOEFAP@UModSys?3?3base?3?3IConsole?$AA@ 0000000140011768     umodsys.c_main.obj
 0002:00000780       ??_C@_0BH@PFCONEJJ@UModSys?3?3base?3?3ISystem?$AA@ 0000000140011780     umodsys.c_main.obj
 0002:00000798       ??_C@_0CA@MDFMKLLN@UModSys?3?3base?3?3rsystem?3?3RModule?$AA@ 0000000140011798     umodsys.c_main.obj
 0002:000007b8       ??_C@_0CK@MJPNGLHN@UModSys?3?3base?3?3rsystem?3?3IModuleL@ 00000001400117b8     umodsys.c_main.obj
 0002:000007e8       ??_C@_0CJ@OPOMMGLJ@UModSys?3?3base?3?3rsystem?3?3RModuleL@ 00000001400117e8     umodsys.c_main.obj
 0002:00000818       ??_C@_0CL@ILNBAMJF@UModSys?3?3base?3?3rsystem?3?3RModuleL@ 0000000140011818     umodsys.c_main.obj
 0002:00000848       ??_C@_0CE@IHGMMEEA@UModSys?3?3base?3?3rsystem?3?3RParamet@ 0000000140011848     umodsys.c_main.obj
 0002:00000870       ??_C@_0CA@IMEGDANI@UModSys?3?3base?3?3rsystem?3?3RSystem?$AA@ 0000000140011870     umodsys.c_main.obj
 0002:00000890       ??_C@_0CF@KIMLNODL@UModSys?3?3base?3?3rsystem?3?3RConsole@ 0000000140011890     umodsys.c_main.obj
 0002:000008b8       ??_C@_0M@DCEPEPFJ@umodsys?4log?$AA@ 00000001400118b8     umodsys.c_main.obj
 0002:000008c4       ??_C@_00CNPNBAHC@?$AA@     00000001400118c4     umodsys.c_main.obj
 0002:000008c8       ??_C@_01NBENCBCI@?$CK?$AA@ 00000001400118c8     umodsys.c_main.obj
 0002:000008d0       ??_C@_0BC@JABDEAFI@moduledb?4conf?9hdb?$AA@ 00000001400118d0     umodsys.c_main.obj
 0002:000008e8       ??_C@_08FCBDOIAH@typeinfo?$AA@ 00000001400118e8     umodsys.c_main.obj
 0002:000008f8       ??_C@_0CB@CLGNFEGF@UModSys?3?3libmedia?3?3IStreamReader@ 00000001400118f8     umodsys_lib_libmedia:umodsys.mod.media.std.obj
 0002:00000920       ??_C@_0CB@HOPFFLP@UModSys?3?3libmedia?3?3IStreamWriter@ 0000000140011920     umodsys_lib_libmedia:umodsys.mod.media.std.obj
 0002:00000948       ??_C@_0BP@KCJMEDNO@UModSys?3?3libmedia?3?3IBinArchive?$AA@ 0000000140011948     umodsys_lib_libmedia:umodsys.mod.media.std.obj
 0002:00000968       ??_C@_0CB@FDEKNMGJ@UModSys?3?3libmedia?3?3IBinObjFilter@ 0000000140011968     umodsys_lib_libmedia:umodsys.mod.media.std.obj
 0002:00000990       ??_C@_0BM@DPCMOAPM@UModSys?3?3libmedia?3?3ILibrary?$AA@ 0000000140011990     umodsys_lib_libmedia:umodsys.mod.media.std.obj
 0002:000009b0       ??_C@_0CD@ELIFEGE@UModSys?3?3libmedia?3?3ILibraryBinTr@ 00000001400119b0     umodsys_lib_libmedia:umodsys.mod.media.std.obj
 0002:000009d8       ??_C@_0CE@EGHBJBAJ@UModSys?3?3libmedia?3?3ILibraryBinCa@ 00000001400119d8     umodsys_lib_libmedia:umodsys.mod.media.std.obj
 0002:00000a00       ??_C@_0CF@LBIGBLOK@UModSys?3?3libmedia?3?3ILibraryObjFi@ 0000000140011a00     umodsys_lib_libmedia:umodsys.mod.media.std.obj
 0002:00000a28       ??_C@_0CE@BOBLEOBL@UModSys?3?3libmedia?3?3ILibraryObjCa@ 0000000140011a28     umodsys_lib_libmedia:umodsys.mod.media.std.obj
 0002:00000a50       ??_C@_0CD@LJFEJKGF@UModSys?3?3libmedia?3?3ILibraryLayer@ 0000000140011a50     umodsys_lib_libmedia:umodsys.mod.media.std.obj
 0002:00000a78       ??_C@_0CP@GECHMLGM@UModSys?3?3modules?3?3media?3?3std?3?3RL@ 0000000140011a78     umodsys_lib_libmedia:umodsys.mod.media.std.obj
 0002:00000aa8       ??_C@_0CO@FAPEIINC@UModSys?3?3modules?3?3media?3?3std?3?3RL@ 0000000140011aa8     umodsys_lib_libmedia:umodsys.mod.media.std.obj
 0002:00000ad8       ??_C@_0CO@ONBIEGND@UModSys?3?3modules?3?3media?3?3std?3?3RL@ 0000000140011ad8     umodsys_lib_libmedia:umodsys.mod.media.std.obj
 0002:00000b08       ??_C@_0CP@DMENBEHO@UModSys?3?3modules?3?3media?3?3std?3?3RL@ 0000000140011b08     umodsys_lib_libmedia:umodsys.mod.media.std.obj
 0002:00000b38       ??_C@_0DA@IMHMNIGH@UModSys?3?3modules?3?3media?3?3std?3?3RL@ 0000000140011b38     umodsys_lib_libmedia:umodsys.mod.media.std.obj
 0002:00000b68       ??_C@_0CJ@IPNOMNDB@UModSys?3?3modules?3?3media?3?3std?3?3RG@ 0000000140011b68     umodsys_lib_libmedia:umodsys.mod.media.std.obj
 0002:00000b98       ??_C@_0DC@HNPCLNGC@UMODSYS_MODULE_NAME?$CImedia?0std?$CJ?3?3@ 0000000140011b98     umodsys_lib_libmedia:umodsys.mod.media.std.obj
 0002:00000bd0       ??_C@_0L@LOIPJDMA@media?3?3std?$AA@ 0000000140011bd0     umodsys_lib_libmedia:umodsys.mod.media.std.obj
 0002:00000be0       ??_C@_09JGNMLHG@modobject?$AA@ 0000000140011be0     umodsys_lib_libmedia:umodsys.mod.media.std.obj
 0002:00000bf8       ??_7IRoot@core@UModSys@@6B@ 0000000140011bf8     umodsys_lib_libmedia:umodsys.mod.media.std.obj
 0002:00000c40       ??_7RResolverChain@SFlagsChain@libmedia@UModSys@@6B@ 0000000140011c40     umodsys_lib_libmedia:umodsys.mod.media.std.obj
 0002:00000c58       ??_7RGenerator@std@media@modules@UModSys@@6B@ 0000000140011c58     umodsys_lib_libmedia:umodsys.mod.media.std.obj
 0002:00000cf8       ??_7RLibraryBinCache@std@media@modules@UModSys@@6BIRefObject@core@4@@ 0000000140011cf8     umodsys_lib_libmedia:umodsys.mod.media.std.obj
 0002:00000e08       ??_7RLibraryBinCache@std@media@modules@UModSys@@6BISetter@SFlags@libmedia@4@@ 0000000140011e08     umodsys_lib_libmedia:umodsys.mod.media.std.obj
 0002:00000e28       ??_7RLibraryBinTree@std@media@modules@UModSys@@6BIRefObject@core@4@@ 0000000140011e28     umodsys_lib_libmedia:umodsys.mod.media.std.obj
 0002:00000f30       ??_7RLibraryBinTree@std@media@modules@UModSys@@6BISetter@SFlags@libmedia@4@@ 0000000140011f30     umodsys_lib_libmedia:umodsys.mod.media.std.obj
 0002:00000f58       ??_7RLibraryLayered@std@media@modules@UModSys@@6BIRefObject@core@4@@ 0000000140011f58     umodsys_lib_libmedia:umodsys.mod.media.std.obj
 0002:00001070       ??_7RLibraryLayered@std@media@modules@UModSys@@6BISetter@SFlags@libmedia@4@@ 0000000140012070     umodsys_lib_libmedia:umodsys.mod.media.std.obj
 0002:00001098       ??_7RLibraryObjCache@std@media@modules@UModSys@@6BIRefObject@core@4@@ 0000000140012098     umodsys_lib_libmedia:umodsys.mod.media.std.obj
 0002:000011a0       ??_7RLibraryObjCache@std@media@modules@UModSys@@6BISetter@SFlags@libmedia@4@@ 00000001400121a0     umodsys_lib_libmedia:umodsys.mod.media.std.obj
 0002:000011c8       ??_7RLibraryObjFilter@std@media@modules@UModSys@@6BIRefObject@core@4@@ 00000001400121c8     umodsys_lib_libmedia:umodsys.mod.media.std.obj
 0002:000012e0       ??_7RLibraryObjFilter@std@media@modules@UModSys@@6BISetter@SFlags@libmedia@4@@ 00000001400122e0     umodsys_lib_libmedia:umodsys.mod.media.std.obj
 0002:00001300       ??_7RModuleReg@std@media@modules@UModSys@@6B@ 0000000140012300     umodsys_lib_libmedia:umodsys.mod.media.std.obj
 0002:00001330       ??_C@_0DD@HMDIDEEB@UModSys?3?3modules?3?3media?3?3stdio?3?3@ 0000000140012330     umodsys_lib_libmedia:umodsys.mod.media.stdio.obj
 0002:00001368       ??_C@_08BABJIOEM@filename?$AA@ 0000000140012368     umodsys_lib_libmedia:umodsys.mod.media.stdio.obj
 0002:00001374       ??_C@_02JDPG@rb?$AA@       0000000140012374     umodsys_lib_libmedia:umodsys.mod.media.stdio.obj
 0002:00001378       ??_C@_0DD@NMEBJAJM@UModSys?3?3modules?3?3media?3?3stdio?3?3@ 0000000140012378     umodsys_lib_libmedia:umodsys.mod.media.stdio.obj
 0002:000013ac       ??_C@_04FAOFCKOL@safe?$AA@ 00000001400123ac     umodsys_lib_libmedia:umodsys.mod.media.stdio.obj
 0002:000013b4       ??_C@_02GMLFBBN@wb?$AA@    00000001400123b4     umodsys_lib_libmedia:umodsys.mod.media.stdio.obj
 0002:000013b8       ??_C@_0DE@KBMIHBCD@UModSys?3?3modules?3?3media?3?3stdio?3?3@ 00000001400123b8     umodsys_lib_libmedia:umodsys.mod.media.stdio.obj
 0002:000013ec       ??_C@_01LFCBOECM@?4?$AA@   00000001400123ec     umodsys_lib_libmedia:umodsys.mod.media.stdio.obj
 0002:000013f0       ??_C@_04LNEJFJGI@path?$AA@ 00000001400123f0     umodsys_lib_libmedia:umodsys.mod.media.stdio.obj
 0002:000013f8       ??_C@_08PEIJGPHF@pathname?$AA@ 00000001400123f8     umodsys_lib_libmedia:umodsys.mod.media.stdio.obj
 0002:00001408       ??_C@_0M@PANNIBHH@permissions?$AA@ 0000000140012408     umodsys_lib_libmedia:umodsys.mod.media.stdio.obj
 0002:00001418       ??_C@_0P@DDBOOPIK@?$HL?$HLos?5load?5?$CFs?$HN?$HN?$AA@ 0000000140012418     umodsys_lib_libmedia:umodsys.mod.media.stdio.obj
 0002:00001428       ??_C@_0CL@IOBDHHMI@UModSys?3?3modules?3?3media?3?3stdio?3?3@ 0000000140012428     umodsys_lib_libmedia:umodsys.mod.media.stdio.obj
 0002:00001458       ??_C@_0DE@OOLAIIHN@UMODSYS_MODULE_NAME?$CImedia?0stdio?$CJ@ 0000000140012458     umodsys_lib_libmedia:umodsys.mod.media.stdio.obj
 0002:00001490       ??_C@_0N@HJPCMPI@media?3?3stdio?$AA@ 0000000140012490     umodsys_lib_libmedia:umodsys.mod.media.stdio.obj
 0002:000014a8       ??_7RGenerator@stdio@media@modules@UModSys@@6B@ 00000001400124a8     umodsys_lib_libmedia:umodsys.mod.media.stdio.obj
 0002:00001548       ??_7RStreamReader_FILE@stdio@media@modules@UModSys@@6B@ 0000000140012548     umodsys_lib_libmedia:umodsys.mod.media.stdio.obj
 0002:000015e8       ??_7RStreamWriter_FILE@stdio@media@modules@UModSys@@6B@ 00000001400125e8     umodsys_lib_libmedia:umodsys.mod.media.stdio.obj
 0002:000016a8       ??_7RDataArchiver_OsDir@stdio@media@modules@UModSys@@6BIRefObject@core@4@@ 00000001400126a8     umodsys_lib_libmedia:umodsys.mod.media.stdio.obj
 0002:00001740       ??_7RDataArchiver_OsDir@stdio@media@modules@UModSys@@6BISetter@SFlags@libmedia@4@@ 0000000140012740     umodsys_lib_libmedia:umodsys.mod.media.stdio.obj
 0002:00001760       ??_7RModuleReg@stdio@media@modules@UModSys@@6B@ 0000000140012760     umodsys_lib_libmedia:umodsys.mod.media.stdio.obj
 0002:00001790       ??_C@_04HDOCAJNK@?$CFs?$CFs?$AA@ 0000000140012790     umodsys_lib_libmedia:umodsys.lib.media.common.obj
 0002:00001798       ??_C@_02CBLDBPFN@?1?1?$AA@ 0000000140012798     umodsys_lib_libmedia:umodsys.lib.media.common.obj
 0002:0000179c       ??_C@_02BKFDOEMK@wt?$AA@   000000014001279c     umodsys_lib_basesys:umodsys.basesys.rconsole_std.obj
 0002:000017a8       ??_7RConsole_std@rsystem@base@UModSys@@6B@ 00000001400127a8     umodsys_lib_basesys:umodsys.basesys.rconsole_std.obj
 0002:00001838       ??_C@_04HIBGFPH@NULL?$AA@  0000000140012838     umodsys_lib_basesys:umodsys.basesys.rsystem_main.obj
 0002:00001840       ??_C@_0L@FPKIMPHA@?$CD?$CF08x?5?$CC?$CFs?$CC?$AA@ 0000000140012840     umodsys_lib_basesys:umodsys.basesys.rsystem_main.obj
 0002:00001850       ??_C@_0BC@HBJCAHHB@EFatal?5?$CD?$CF08x?5?$CC?$CFs?$CC?$AA@ 0000000140012850     umodsys_lib_basesys:umodsys.basesys.rsystem_main.obj
 0002:00001868       ??_C@_0BE@IIJFBNID@EWarning?5?$CD?$CF08x?5?$CC?$CFs?$CC?$AA@ 0000000140012868     umodsys_lib_basesys:umodsys.basesys.rsystem_main.obj
 0002:00001880       ??_C@_0BB@KFMJENMO@RSystem?3?3init?$CI?$CJ?6?$AA@ 0000000140012880     umodsys_lib_basesys:umodsys.basesys.rsystem_main.obj
 0002:00001898       ??_C@_0BI@FKDCNCM@RSystem?3?3exec_args?$CI?$CFd?$CJ?6?$AA@ 0000000140012898     umodsys_lib_basesys:umodsys.basesys.rsystem_main.obj
 0002:000018b0       ??_C@_0BG@NFAKDFBG@RSystem?3?3exec_main?$CI?$CJ?6?$AA@ 00000001400128b0     umodsys_lib_basesys:umodsys.basesys.rsystem_main.obj
 0002:000018c8       ??_C@_0BD@CKNOJECK@RSystem?3?3deinit?$CI?$CJ?6?$AA@ 00000001400128c8     umodsys_lib_basesys:umodsys.basesys.rsystem_main.obj
 0002:000018e8       ??_7EExceptionBase@core@UModSys@@6B@ 00000001400128e8     umodsys_lib_basesys:umodsys.basesys.rsystem_main.obj
 0002:00001900       ??_7EFatal@core@UModSys@@6B@ 0000000140012900     umodsys_lib_basesys:umodsys.basesys.rsystem_main.obj
 0002:00001918       ??_7EWarning@core@UModSys@@6B@ 0000000140012918     umodsys_lib_basesys:umodsys.basesys.rsystem_main.obj
 0002:00001930       ??_7?$TRMemAlloc_CC@U?$TMemAllocHeader@USMagic@mem_headers@rsystem@base@UModSys@@U?$TPool@X@2345@USDebug@2345@UVoid@core@5@U895@@rsystem@base@UModSys@@USMemAlloc_Malloc@core@4@@rsystem@base@UModSys@@6B@ 0000000140012930     umodsys_lib_basesys:umodsys.basesys.rsystem_main.obj
 0002:00001958       ??_7RSystem@rsystem@base@UModSys@@6BISystem@23@@ 0000000140012958     umodsys_lib_basesys:umodsys.basesys.rsystem_main.obj
 0002:000019e0       ??_7RSystem@rsystem@base@UModSys@@6BIUniquePointerResolver@core@3@@ 00000001400129e0     umodsys_lib_basesys:umodsys.basesys.rsystem_main.obj
 0002:000019f8       ??_7RSystem@rsystem@base@UModSys@@6BISourceContextAdapter@core@3@@ 00000001400129f8     umodsys_lib_basesys:umodsys.basesys.rsystem_main.obj
 0002:00001a00       ??_C@_0BC@NNHIIPO@shells?5found?3?5?$CFd?6?$AA@ 0000000140012a00     umodsys_lib_basesys:umodsys.basesys.rsystem_tests.obj
 0002:00001a18       ??_C@_0BA@EBBPOIJG@?5?5shell?3?5?$CFp?5?$CFs?6?$AA@ 0000000140012a18     umodsys_lib_basesys:umodsys.basesys.rsystem_tests.obj
 0002:00001a28       ??_C@_0BF@JPMHOAKE@?5?5?5?5shell?5gen?5error?6?$AA@ 0000000140012a28     umodsys_lib_basesys:umodsys.basesys.rsystem_tests.obj
 0002:00001a40       ??_C@_0BL@NANLGMEE@?5?5?5?5shell?5generated?5as?5?$CFp?6?$AA@ 0000000140012a40     umodsys_lib_basesys:umodsys.basesys.rsystem_tests.obj
 0002:00001a60       ??_C@_0BD@NFNPGOAG@?1shells?5found?3?5?$CFd?6?$AA@ 0000000140012a60     umodsys_lib_basesys:umodsys.basesys.rsystem_tests.obj
 0002:00001a78       ??_C@_0CJ@BMAKALAG@?$CK?$CK?$CK?$CK?$CK?$CK?$CK?$CK?$CK?$CK?$CK?$CK?$CK?$CK?$CK?$CK?$CK?$CK?$CK?$CK?$CK?$CK?$CK?$CK?$CK?$CK?$CK?$CK?$CK?$CK?$CK?5@ 0000000140012a78     umodsys_lib_basesys:umodsys.basesys.rsystem_tests.obj
 0002:00001ab0       ??_C@_0IM@GKLDAEGO@sizeof?$CIDRMemAlloc?$CJ?$DN?$CFu?5sizeof?$CIDRM@ 0000000140012ab0     umodsys_lib_basesys:umodsys.basesys.rsystem_tests.obj
 0002:00001b40       ??_C@_0CJ@HFHNFOAC@?$CK?$CK?$CK?$CK?$CK?$CK?$CK?$CK?$CK?$CK?$CK?$CK?$CK?$CK?$CK?$CK?$CK?$CK?$CK?$CK?$CK?$CK?$CK?$CK?$CK?$CK?$CK?$CK?$CK?$CK?$CK?5@ 0000000140012b40     umodsys_lib_basesys:umodsys.basesys.rsystem_tests.obj
 0002:00001b70       ??_C@_0DG@DMGFJEPO@RModuleLoader?3?3moduledb_cleanup?$CI@ 0000000140012b70     umodsys_lib_basesys:umodsys.basesys.rmoduleloader.obj
 0002:00001ba8       ??_C@_0BN@BDEAMLC@?$CD?5LIST?5OF?5LIBRARY?5MODULES?3?6?6?$AA@ 0000000140012ba8     umodsys_lib_basesys:umodsys.basesys.rmoduleloader.obj
 0002:00001bc8       ??_C@_0BF@PLOHEFDA@?5?$HL?5mod_list?$DN?$CFd?3?$FL?$FN?5?$HN?6?$AA@ 0000000140012bc8     umodsys_lib_basesys:umodsys.basesys.rmoduleloader.obj
 0002:00001be8       ??_7IModuleLoader@base@UModSys@@6B@ 0000000140012be8     umodsys_lib_basesys:umodsys.basesys.rmoduleloader.obj
 0002:00001c68       ??_7RModuleLoader@rsystem@base@UModSys@@6B@ 0000000140012c68     umodsys_lib_basesys:umodsys.basesys.rmoduleloader.obj
 0002:00001ce8       ??_7RModuleLibraryThis@rsystem@base@UModSys@@6B@ 0000000140012ce8     umodsys_lib_basesys:umodsys.basesys.rmodulelibthis.obj
 0002:00001dc0       ??_C@_0CN@ONDMHEFN@IModuleLibraryUni?$CI?$CFp?$CJ?3?3link?$CI?$CJ?5?9?9@ 0000000140012dc0     umodsys_lib_basesys:umodsys.basesys.rmodulelib.obj
 0002:00001df0       ??_C@_0BA@LBGMEMKJ@LIBRARY?5?$CC?$CFs?$CC?5?$HL?6?$AA@ 0000000140012df0     umodsys_lib_basesys:umodsys.basesys.rmodulelib.obj
 0002:00001e00       ??_C@_0BH@CLNAAMEM@?$HN?5?$CD?5END?5LIBRARY?5?$CC?$CFs?$CC?6?6?$AA@ 0000000140012e00     umodsys_lib_basesys:umodsys.basesys.rmodulelib.obj
 0002:00001e18       ??_C@_0BI@OEALOBHC@NULL?5detected?5after?5?$CFp?6?$AA@ 0000000140012e18     umodsys_lib_basesys:umodsys.basesys.rmodulelib.obj
 0002:00001e30       ??_C@_0CH@LDLHHCGC@leak?5detected?5?$CFp?5size?5?$CFu?5at?5?$CFs?$CI?$CF@ 0000000140012e30     umodsys_lib_basesys:umodsys.basesys.rmodulelib.obj
 0002:00001e58       ??_C@_0BK@NDLOCOMD@leak?5detected?5?$CFp?5size?5?$CFu?6?$AA@ 0000000140012e58     umodsys_lib_basesys:umodsys.basesys.rmodulelib.obj
 0002:00001e88       ??_7IModuleLibraryUni@rsystem@base@UModSys@@6B@ 0000000140012e88     umodsys_lib_basesys:umodsys.basesys.rmodulelib.obj
 0002:00001f68       ??_7RParameters@rsystem@base@UModSys@@6B@ 0000000140012f68     umodsys_lib_basesys:umodsys.basesys.rparameters.obj
 0002:00002048       ??_C@_0BG@LJFEMLCK@UModSys_Plugin_Entry2?$AA@ 0000000140013048     umodsys_lib_basesys:umodsys.basesys.rmodule.win32.obj
 0002:00002060       ??_C@_0CI@IABKIJLA@?5?5?5?5?5?5?5?5?5?5load?5so?$CI?$CC?$CFs?$CC?$CJ?5?$HL?$CFp?0?5?$CFp?$HN@ 0000000140013060     umodsys_lib_basesys:umodsys.basesys.rmodule.win32.obj
 0002:00002088       ??_C@_0BP@EBMDLOGD@?5?5?5?5?5?5?5?5?5?5unload?5so?$CI?$HL?$CFp?0?5?$CFp?$HN?$CJ?6?$AA@ 0000000140013088     umodsys_lib_basesys:umodsys.basesys.rmodule.win32.obj
 0002:000020a8       ??_C@_0BD@FBMHCLKB@scan?5so?3?5?$CC?$CFs?$CFs?$CFs?$CC?6?$AA@ 00000001400130a8     umodsys_lib_basesys:umodsys.basesys.rmodule.win32.obj
 0002:000020c0       ??_C@_0BC@GMLCPHOK@?1scan?5so?3?5?$CC?$CFs?$CFs?$CC?6?$AA@ 00000001400130c0     umodsys_lib_basesys:umodsys.basesys.rmodule.win32.obj
 0002:000020d4       ??_C@_02CAHBHFGK@?4?1?$AA@ 00000001400130d4     umodsys_lib_basesys:umodsys.basesys.rmodule.win32.obj
 0002:000020d8       ??_C@_04HLONOPDM@?4dll?$AA@ 00000001400130d8     umodsys_lib_basesys:umodsys.basesys.rmodule.win32.obj
 0002:000020e0       ??_C@_0BF@KDHHIHAN@RModule?$CI?$CFp?$CJ?3?3open?$CI?$CJ?6?$AA@ 00000001400130e0     umodsys_lib_basesys:umodsys.basesys.rmodule.obj
 0002:000020f8       ??_C@_0BG@HADBHJOP@RModule?$CI?$CFp?$CJ?3?3close?$CI?$CJ?6?$AA@ 00000001400130f8     umodsys_lib_basesys:umodsys.basesys.rmodule.obj
 0002:00002110       ??_C@_0BK@FNONNOFM@RModule?$CI?$CFp?$CJ?3?3?5pre?9loaded?6?$AA@ 0000000140013110     umodsys_lib_basesys:umodsys.basesys.rmodule.obj
 0002:00002130       ??_C@_0CE@HBBEEAED@RModule?$CI?$CFp?$CJ?3?3generate?$CI?$CJ?5?$HL?5gen?$DN?$CFp@ 0000000140013130     umodsys_lib_basesys:umodsys.basesys.rmodule.obj
 0002:00002158       ??_C@_0DL@FHDKGKAD@RModule?$CI?$CFp?$CJ?3?3reg_generator?$CI?$CFs?5?$CFp@ 0000000140013158     umodsys_lib_basesys:umodsys.basesys.rmodule.obj
 0002:00002198       ??_C@_0DL@ECFHLNEB@RModule?$CI?$CFp?$CJ?3?3reg_generator?$CI?$CFs?5?$CFp@ 0000000140013198     umodsys_lib_basesys:umodsys.basesys.rmodule.obj
 0002:000021d8       ??_C@_0DI@EBNLDEPD@RModule?$CI?$CFp?$CJ?3?3reg_obj?$CI?$CFs?5?$CFp?$CJ?5?9?9?5?$HL@ 00000001400131d8     umodsys_lib_basesys:umodsys.basesys.rmodule.obj
 0002:00002210       ??_C@_0GC@IAELDHPB@RModule?$CI?$CFp?$CJ?3?3reg_obj?$CI?$CFs?5?$CFp?$CJ?5?9?9?5i@ 0000000140013210     umodsys_lib_basesys:umodsys.basesys.rmodule.obj
 0002:00002278       ??_C@_0CM@JCLMIGEB@RModule?$CI?$CFp?$CJ?3?3reg_obj?$CI?$CFs?5?$CFp?$CJ?5?9?9?5a@ 0000000140013278     umodsys_lib_basesys:umodsys.basesys.rmodule.obj
 0002:000022a8       ??_C@_0DK@NJCECDIC@RModule?$CI?$CFp?$CJ?3?3unreg_obj?$CI?$CFs?5?$CFp?$CJ?5?9?9@ 00000001400132a8     umodsys_lib_basesys:umodsys.basesys.rmodule.obj
 0002:000022f0       ??_C@_0GE@MGLAJHFG@RModule?$CI?$CFp?$CJ?3?3unreg_obj?$CI?$CFs?5?$CFp?$CJ?5?9?9@ 00000001400132f0     umodsys_lib_basesys:umodsys.basesys.rmodule.obj
 0002:00002358       ??_C@_0CO@DAMPCAGA@RModule?3?3alloc_minfo?$CI?$HL?$CC?$CFs?$CC?0?5?$CC?$CFs?$CC@ 0000000140013358     umodsys_lib_basesys:umodsys.basesys.rmodule.obj
 0002:00002388       ??_C@_0BG@HANHHGHE@?5?5MODULE?5?$CFs?$CI?$CFd?0?$CFd?$CJ?5?$HL?6?$AA@ 0000000140013388     umodsys_lib_basesys:umodsys.basesys.rmodule.obj
 0002:000023a0       ??_C@_0CI@FMDENPAM@RModule?$CI?$CFp?$CJ?3?3save_db?$CI?4?4?4?$CJ?5?9?9?5?$HL?5?$CF@ 00000001400133a0     umodsys_lib_basesys:umodsys.basesys.rmodule.obj
 0002:000023c8       ??_C@_0BN@CFNKPKCH@?5?5?5?5MODOBJECT?5?$CFs?$CI?$CFd?$CJ?5?$CFs?$CI?$CFd?$CJ?6?$AA@ 00000001400133c8     umodsys_lib_basesys:umodsys.basesys.rmodule.obj
 0002:000023e8       ??_C@_0BP@BJFGMFNK@?5?5?5?5GENERATOR?5?$CFs?$CI?$CFd?$CJ?5?$CFs?$CI?$CFd?$CJ?5?$HL?6?$AA@ 00000001400133e8     umodsys_lib_basesys:umodsys.basesys.rmodule.obj
 0002:00002408       ??_C@_0BK@DNNMLLHP@?5?5?5?5?5?5REFOBJECT?5?$CFs?$CI?$CFd?$CJ?5?$HL?6?$AA@ 0000000140013408     umodsys_lib_basesys:umodsys.basesys.rmodule.obj
 0002:00002428       ??_C@_0BF@CJPCFEEB@?5?5?5?5?5?5?5?5TYPE?5?$CFs?$CI?$CFd?$CJ?6?$AA@ 0000000140013428     umodsys_lib_basesys:umodsys.basesys.rmodule.obj
 0002:00002440       ??_C@_0BM@PFPEFHDC@?5?5?5?5?5?5?$HN?5?$CD?5REFOBJECT?5?$CFs?$CI?$CFd?$CJ?6?$AA@ 0000000140013440     umodsys_lib_basesys:umodsys.basesys.rmodule.obj
 0002:00002460       ??_C@_0CB@PCDHJLII@?5?5?5?5?$HN?5?$CD?5GENERATOR?5?$CFs?$CI?$CFd?$CJ?5?$CFs?$CI?$CFd?$CJ?6@ 0000000140013460     umodsys_lib_basesys:umodsys.basesys.rmodule.obj
 0002:00002488       ??_C@_0BI@OGBPJMLO@?5?5?$HN?5?$CD?5MODULE?5?$CFs?$CI?$CFd?0?$CFd?$CJ?6?$AA@ 0000000140013488     umodsys_lib_basesys:umodsys.basesys.rmodule.obj
 0002:000024a8       ??_7RModule@rsystem@base@UModSys@@6B@ 00000001400134a8     umodsys_lib_basesys:umodsys.basesys.rmodule.obj
 0002:00002550       ??_C@_0M@KEHKBKEH@?5?5so?3?5?$CC?$CFs?$CC?6?$AA@ 0000000140013550     umodsys_lib_basesys:umodsys.basesys.rmodulelibso.obj
 0002:00002560       ??_C@_0BF@IKAEAMGP@?5?5?5?5so?5loaded?3?5?$CC?$CFs?$CC?6?$AA@ 0000000140013560     umodsys_lib_basesys:umodsys.basesys.rmodulelibso.obj
 0002:00002578       ??_C@_0O@MCPOKEFF@?5?5?5?5so?5added?6?$AA@ 0000000140013578     umodsys_lib_basesys:umodsys.basesys.rmodulelibso.obj
 0002:00002588       ??_C@_0BE@BFONLBBI@?5?5?5?5so?5dup?5with?5?$CFd?6?$AA@ 0000000140013588     umodsys_lib_basesys:umodsys.basesys.rmodulelibso.obj
 0002:000025a8       ??_7RModuleLibrarySO@rsystem@base@UModSys@@6B@ 00000001400135a8     umodsys_lib_basesys:umodsys.basesys.rmodulelibso.obj
 0002:00002688       ??_7RModuleLibraryReg_Chain@base@UModSys@@6B@ 0000000140013688     umodsys_lib_base:umodsys.base.moduleregchain.obj
 0002:000026c0       ??_7IModuleReg@base@UModSys@@6B@ 00000001400136c0     umodsys_lib_base:umodsys.base.modulereg.obj
 0002:000026f8       ??_7IModuleLibraryReg@base@UModSys@@6B@ 00000001400136f8     umodsys_lib_base:umodsys.base.modulereg.obj
 0002:00002728       ??_C@_04MMEBIPMJ@?4tmp?$AA@ 0000000140013728     umodsys_lib_core:umodsys.core.syshlp_files.win32.obj
 0002:00003070       ??_R4type_info@@6B@        0000000140014070     MSVCRT:ti_inst.obj
 0002:00003098       ??_R3type_info@@8          0000000140014098     MSVCRT:ti_inst.obj
 0002:000030b0       ??_R2type_info@@8          00000001400140b0     MSVCRT:ti_inst.obj
 0002:000030c0       ??_R1A@?0A@EA@type_info@@8 00000001400140c0     MSVCRT:ti_inst.obj
 0002:000030e8       ??_R4RModuleReg@std@media@modules@UModSys@@6B@ 00000001400140e8     umodsys_lib_libmedia:umodsys.mod.media.std.obj
 0002:00003110       ??_R3RModuleReg@std@media@modules@UModSys@@8 0000000140014110     umodsys_lib_libmedia:umodsys.mod.media.std.obj
 0002:00003128       ??_R2RModuleReg@std@media@modules@UModSys@@8 0000000140014128     umodsys_lib_libmedia:umodsys.mod.media.std.obj
 0002:00003140       ??_R1A@?0A@EA@IModuleReg@base@UModSys@@8 0000000140014140     umodsys_lib_libmedia:umodsys.mod.media.std.obj
 0002:00003168       ??_R3IModuleReg@base@UModSys@@8 0000000140014168     umodsys_lib_libmedia:umodsys.mod.media.std.obj
 0002:00003180       ??_R2IModuleReg@base@UModSys@@8 0000000140014180     umodsys_lib_libmedia:umodsys.mod.media.std.obj
 0002:00003190       ??_R1A@?0A@EA@RModuleReg@std@media@modules@UModSys@@8 0000000140014190     umodsys_lib_libmedia:umodsys.mod.media.std.obj
 0002:000031b8       ??_R4RLibraryObjFilter@std@media@modules@UModSys@@6BISetter@SFlags@libmedia@4@@ 00000001400141b8     umodsys_lib_libmedia:umodsys.mod.media.std.obj
 0002:000031e0       ??_R4RLibraryObjFilter@std@media@modules@UModSys@@6BIRefObject@core@4@@ 00000001400141e0     umodsys_lib_libmedia:umodsys.mod.media.std.obj
 0002:00003208       ??_R3RLibraryObjFilter@std@media@modules@UModSys@@8 0000000140014208     umodsys_lib_libmedia:umodsys.mod.media.std.obj
 0002:00003220       ??_R2RLibraryObjFilter@std@media@modules@UModSys@@8 0000000140014220     umodsys_lib_libmedia:umodsys.mod.media.std.obj
 0002:00003268       ??_R1A@?0A@EA@RLibraryObjFilter@std@media@modules@UModSys@@8 0000000140014268     umodsys_lib_libmedia:umodsys.mod.media.std.obj
 0002:00003290       ??_R4RLibraryObjCache@std@media@modules@UModSys@@6BISetter@SFlags@libmedia@4@@ 0000000140014290     umodsys_lib_libmedia:umodsys.mod.media.std.obj
 0002:000032b8       ??_R4RLibraryObjCache@std@media@modules@UModSys@@6BIRefObject@core@4@@ 00000001400142b8     umodsys_lib_libmedia:umodsys.mod.media.std.obj
 0002:000032e0       ??_R3RLibraryObjCache@std@media@modules@UModSys@@8 00000001400142e0     umodsys_lib_libmedia:umodsys.mod.media.std.obj
 0002:00003300       ??_R2RLibraryObjCache@std@media@modules@UModSys@@8 0000000140014300     umodsys_lib_libmedia:umodsys.mod.media.std.obj
 0002:00003348       ??_R1A@?0A@EA@RLibraryObjCache@std@media@modules@UModSys@@8 0000000140014348     umodsys_lib_libmedia:umodsys.mod.media.std.obj
 0002:00003370       ??_R4RLibraryLayered@std@media@modules@UModSys@@6BISetter@SFlags@libmedia@4@@ 0000000140014370     umodsys_lib_libmedia:umodsys.mod.media.std.obj
 0002:00003398       ??_R4RLibraryLayered@std@media@modules@UModSys@@6BIRefObject@core@4@@ 0000000140014398     umodsys_lib_libmedia:umodsys.mod.media.std.obj
 0002:000033c0       ??_R3RLibraryLayered@std@media@modules@UModSys@@8 00000001400143c0     umodsys_lib_libmedia:umodsys.mod.media.std.obj
 0002:000033e0       ??_R2RLibraryLayered@std@media@modules@UModSys@@8 00000001400143e0     umodsys_lib_libmedia:umodsys.mod.media.std.obj
 0002:00003428       ??_R1A@?0A@EA@RLibraryLayered@std@media@modules@UModSys@@8 0000000140014428     umodsys_lib_libmedia:umodsys.mod.media.std.obj
 0002:00003450       ??_R4RLibraryBinTree@std@media@modules@UModSys@@6BISetter@SFlags@libmedia@4@@ 0000000140014450     umodsys_lib_libmedia:umodsys.mod.media.std.obj
 0002:00003478       ??_R4RLibraryBinTree@std@media@modules@UModSys@@6BIRefObject@core@4@@ 0000000140014478     umodsys_lib_libmedia:umodsys.mod.media.std.obj
 0002:000034a0       ??_R3RLibraryBinTree@std@media@modules@UModSys@@8 00000001400144a0     umodsys_lib_libmedia:umodsys.mod.media.std.obj
 0002:000034c0       ??_R2RLibraryBinTree@std@media@modules@UModSys@@8 00000001400144c0     umodsys_lib_libmedia:umodsys.mod.media.std.obj
 0002:00003508       ??_R1A@?0A@EA@RLibraryBinTree@std@media@modules@UModSys@@8 0000000140014508     umodsys_lib_libmedia:umodsys.mod.media.std.obj
 0002:00003530       ??_R4RLibraryBinCache@std@media@modules@UModSys@@6BISetter@SFlags@libmedia@4@@ 0000000140014530     umodsys_lib_libmedia:umodsys.mod.media.std.obj
 0002:00003558       ??_R4RLibraryBinCache@std@media@modules@UModSys@@6BIRefObject@core@4@@ 0000000140014558     umodsys_lib_libmedia:umodsys.mod.media.std.obj
 0002:00003580       ??_R3RLibraryBinCache@std@media@modules@UModSys@@8 0000000140014580     umodsys_lib_libmedia:umodsys.mod.media.std.obj
 0002:000035a0       ??_R2RLibraryBinCache@std@media@modules@UModSys@@8 00000001400145a0     umodsys_lib_libmedia:umodsys.mod.media.std.obj
 0002:000035e8       ??_R1A@?0A@EA@RLibraryBinCache@std@media@modules@UModSys@@8 00000001400145e8     umodsys_lib_libmedia:umodsys.mod.media.std.obj
 0002:00003610       ??_R4RGenerator@std@media@modules@UModSys@@6B@ 0000000140014610     umodsys_lib_libmedia:umodsys.mod.media.std.obj
 0002:00003638       ??_R3RGenerator@std@media@modules@UModSys@@8 0000000140014638     umodsys_lib_libmedia:umodsys.mod.media.std.obj
 0002:00003650       ??_R2RGenerator@std@media@modules@UModSys@@8 0000000140014650     umodsys_lib_libmedia:umodsys.mod.media.std.obj
 0002:00003680       ??_R1A@?0A@EA@RGenerator@std@media@modules@UModSys@@8 0000000140014680     umodsys_lib_libmedia:umodsys.mod.media.std.obj
 0002:000036a8       ??_R4RResolverChain@SFlagsChain@libmedia@UModSys@@6B@ 00000001400146a8     umodsys_lib_libmedia:umodsys.mod.media.std.obj
 0002:000036d0       ??_R3RResolverChain@SFlagsChain@libmedia@UModSys@@8 00000001400146d0     umodsys_lib_libmedia:umodsys.mod.media.std.obj
 0002:000036e8       ??_R2RResolverChain@SFlagsChain@libmedia@UModSys@@8 00000001400146e8     umodsys_lib_libmedia:umodsys.mod.media.std.obj
 0002:00003700       ??_R1A@?0A@EA@RResolverChain@SFlagsChain@libmedia@UModSys@@8 0000000140014700     umodsys_lib_libmedia:umodsys.mod.media.std.obj
 0002:00003728       ??_R3ILibraryLayered@libmedia@UModSys@@8 0000000140014728     umodsys_lib_libmedia:umodsys.mod.media.std.obj
 0002:00003740       ??_R2ILibraryLayered@libmedia@UModSys@@8 0000000140014740     umodsys_lib_libmedia:umodsys.mod.media.std.obj
 0002:00003780       ??_R1A@?0A@EA@ILibraryLayered@libmedia@UModSys@@8 0000000140014780     umodsys_lib_libmedia:umodsys.mod.media.std.obj
 0002:000037a8       ??_R3ILibraryObjCache@libmedia@UModSys@@8 00000001400147a8     umodsys_lib_libmedia:umodsys.mod.media.std.obj
 0002:000037c0       ??_R2ILibraryObjCache@libmedia@UModSys@@8 00000001400147c0     umodsys_lib_libmedia:umodsys.mod.media.std.obj
 0002:00003800       ??_R1A@?0A@EA@ILibraryObjCache@libmedia@UModSys@@8 0000000140014800     umodsys_lib_libmedia:umodsys.mod.media.std.obj
 0002:00003828       ??_R3ILibraryObjFilter@libmedia@UModSys@@8 0000000140014828     umodsys_lib_libmedia:umodsys.mod.media.std.obj
 0002:00003840       ??_R2ILibraryObjFilter@libmedia@UModSys@@8 0000000140014840     umodsys_lib_libmedia:umodsys.mod.media.std.obj
 0002:00003880       ??_R1A@?0A@EA@ILibraryObjFilter@libmedia@UModSys@@8 0000000140014880     umodsys_lib_libmedia:umodsys.mod.media.std.obj
 0002:000038a8       ??_R3ILibraryBinCache@libmedia@UModSys@@8 00000001400148a8     umodsys_lib_libmedia:umodsys.mod.media.std.obj
 0002:000038c0       ??_R2ILibraryBinCache@libmedia@UModSys@@8 00000001400148c0     umodsys_lib_libmedia:umodsys.mod.media.std.obj
 0002:00003900       ??_R1A@?0A@EA@ILibraryBinCache@libmedia@UModSys@@8 0000000140014900     umodsys_lib_libmedia:umodsys.mod.media.std.obj
 0002:00003928       ??_R3ILibraryBinTree@libmedia@UModSys@@8 0000000140014928     umodsys_lib_libmedia:umodsys.mod.media.std.obj
 0002:00003940       ??_R2ILibraryBinTree@libmedia@UModSys@@8 0000000140014940     umodsys_lib_libmedia:umodsys.mod.media.std.obj
 0002:00003980       ??_R1A@?0A@EA@ILibraryBinTree@libmedia@UModSys@@8 0000000140014980     umodsys_lib_libmedia:umodsys.mod.media.std.obj
 0002:000039a8       ??_R3ILibrary@libmedia@UModSys@@8 00000001400149a8     umodsys_lib_libmedia:umodsys.mod.media.std.obj
 0002:000039c0       ??_R2ILibrary@libmedia@UModSys@@8 00000001400149c0     umodsys_lib_libmedia:umodsys.mod.media.std.obj
 0002:000039f8       ??_R17?0A@EA@IResolver@SFlags@libmedia@UModSys@@8 00000001400149f8     umodsys_lib_libmedia:umodsys.mod.media.std.obj
 0002:00003a20       ??_R17?0A@EA@IResolverAuto@SFlags@libmedia@UModSys@@8 0000000140014a20     umodsys_lib_libmedia:umodsys.mod.media.std.obj
 0002:00003a48       ??_R17?0A@EA@ISetter@SFlags@libmedia@UModSys@@8 0000000140014a48     umodsys_lib_libmedia:umodsys.mod.media.std.obj
 0002:00003a70       ??_R3ISetter@SFlags@libmedia@UModSys@@8 0000000140014a70     umodsys_lib_libmedia:umodsys.mod.media.std.obj
 0002:00003a88       ??_R2ISetter@SFlags@libmedia@UModSys@@8 0000000140014a88     umodsys_lib_libmedia:umodsys.mod.media.std.obj
 0002:00003aa8       ??_R1A@?0A@EA@IResolverAuto@SFlags@libmedia@UModSys@@8 0000000140014aa8     umodsys_lib_libmedia:umodsys.mod.media.std.obj
 0002:00003ad0       ??_R3IResolverAuto@SFlags@libmedia@UModSys@@8 0000000140014ad0     umodsys_lib_libmedia:umodsys.mod.media.std.obj
 0002:00003ae8       ??_R2IResolverAuto@SFlags@libmedia@UModSys@@8 0000000140014ae8     umodsys_lib_libmedia:umodsys.mod.media.std.obj
 0002:00003b00       ??_R1A@?0A@EA@IResolver@SFlags@libmedia@UModSys@@8 0000000140014b00     umodsys_lib_libmedia:umodsys.mod.media.std.obj
 0002:00003b28       ??_R3IResolver@SFlags@libmedia@UModSys@@8 0000000140014b28     umodsys_lib_libmedia:umodsys.mod.media.std.obj
 0002:00003b40       ??_R2IResolver@SFlags@libmedia@UModSys@@8 0000000140014b40     umodsys_lib_libmedia:umodsys.mod.media.std.obj
 0002:00003b50       ??_R1A@?0A@EA@ISetter@SFlags@libmedia@UModSys@@8 0000000140014b50     umodsys_lib_libmedia:umodsys.mod.media.std.obj
 0002:00003b78       ??_R1A@?0A@EA@ILibrary@libmedia@UModSys@@8 0000000140014b78     umodsys_lib_libmedia:umodsys.mod.media.std.obj
 0002:00003ba0       ??_R3IGenerator@base@UModSys@@8 0000000140014ba0     umodsys_lib_libmedia:umodsys.mod.media.std.obj
 0002:00003bb8       ??_R2IGenerator@base@UModSys@@8 0000000140014bb8     umodsys_lib_libmedia:umodsys.mod.media.std.obj
 0002:00003be0       ??_R1A@?0A@EA@IGenerator@base@UModSys@@8 0000000140014be0     umodsys_lib_libmedia:umodsys.mod.media.std.obj
 0002:00003c08       ??_R3IModObject@base@UModSys@@8 0000000140014c08     umodsys_lib_libmedia:umodsys.mod.media.std.obj
 0002:00003c20       ??_R2IModObject@base@UModSys@@8 0000000140014c20     umodsys_lib_libmedia:umodsys.mod.media.std.obj
 0002:00003c40       ??_R1A@?0A@EA@IModObject@base@UModSys@@8 0000000140014c40     umodsys_lib_libmedia:umodsys.mod.media.std.obj
 0002:00003c68       ??_R3IRefObject@core@UModSys@@8 0000000140014c68     umodsys_lib_libmedia:umodsys.mod.media.std.obj
 0002:00003c80       ??_R2IRefObject@core@UModSys@@8 0000000140014c80     umodsys_lib_libmedia:umodsys.mod.media.std.obj
 0002:00003c98       ??_R1A@?0A@EA@IRefObject@core@UModSys@@8 0000000140014c98     umodsys_lib_libmedia:umodsys.mod.media.std.obj
 0002:00003cc0       ??_R4IRoot@core@UModSys@@6B@ 0000000140014cc0     umodsys_lib_libmedia:umodsys.mod.media.std.obj
 0002:00003ce8       ??_R3IRoot@core@UModSys@@8 0000000140014ce8     umodsys_lib_libmedia:umodsys.mod.media.std.obj
 0002:00003d00       ??_R2IRoot@core@UModSys@@8 0000000140014d00     umodsys_lib_libmedia:umodsys.mod.media.std.obj
 0002:00003d10       ??_R1A@?0A@EA@IRoot@core@UModSys@@8 0000000140014d10     umodsys_lib_libmedia:umodsys.mod.media.std.obj
 0002:00003d38       ??_R4RModuleReg@stdio@media@modules@UModSys@@6B@ 0000000140014d38     umodsys_lib_libmedia:umodsys.mod.media.stdio.obj
 0002:00003d60       ??_R3RModuleReg@stdio@media@modules@UModSys@@8 0000000140014d60     umodsys_lib_libmedia:umodsys.mod.media.stdio.obj
 0002:00003d78       ??_R2RModuleReg@stdio@media@modules@UModSys@@8 0000000140014d78     umodsys_lib_libmedia:umodsys.mod.media.stdio.obj
 0002:00003d90       ??_R1A@?0A@EA@RModuleReg@stdio@media@modules@UModSys@@8 0000000140014d90     umodsys_lib_libmedia:umodsys.mod.media.stdio.obj
 0002:00003db8       ??_R4RDataArchiver_OsDir@stdio@media@modules@UModSys@@6BISetter@SFlags@libmedia@4@@ 0000000140014db8     umodsys_lib_libmedia:umodsys.mod.media.stdio.obj
 0002:00003de0       ??_R4RDataArchiver_OsDir@stdio@media@modules@UModSys@@6BIRefObject@core@4@@ 0000000140014de0     umodsys_lib_libmedia:umodsys.mod.media.stdio.obj
 0002:00003e08       ??_R3RDataArchiver_OsDir@stdio@media@modules@UModSys@@8 0000000140014e08     umodsys_lib_libmedia:umodsys.mod.media.stdio.obj
 0002:00003e20       ??_R2RDataArchiver_OsDir@stdio@media@modules@UModSys@@8 0000000140014e20     umodsys_lib_libmedia:umodsys.mod.media.stdio.obj
 0002:00003e60       ??_R1A@?0A@EA@RDataArchiver_OsDir@stdio@media@modules@UModSys@@8 0000000140014e60     umodsys_lib_libmedia:umodsys.mod.media.stdio.obj
 0002:00003e88       ??_R4RStreamWriter_FILE@stdio@media@modules@UModSys@@6B@ 0000000140014e88     umodsys_lib_libmedia:umodsys.mod.media.stdio.obj
 0002:00003eb0       ??_R3RStreamWriter_FILE@stdio@media@modules@UModSys@@8 0000000140014eb0     umodsys_lib_libmedia:umodsys.mod.media.stdio.obj
 0002:00003ec8       ??_R2RStreamWriter_FILE@stdio@media@modules@UModSys@@8 0000000140014ec8     umodsys_lib_libmedia:umodsys.mod.media.stdio.obj
 0002:00003ef0       ??_R1A@?0A@EA@RStreamWriter_FILE@stdio@media@modules@UModSys@@8 0000000140014ef0     umodsys_lib_libmedia:umodsys.mod.media.stdio.obj
 0002:00003f18       ??_R4RStreamReader_FILE@stdio@media@modules@UModSys@@6B@ 0000000140014f18     umodsys_lib_libmedia:umodsys.mod.media.stdio.obj
 0002:00003f40       ??_R3RStreamReader_FILE@stdio@media@modules@UModSys@@8 0000000140014f40     umodsys_lib_libmedia:umodsys.mod.media.stdio.obj
 0002:00003f58       ??_R2RStreamReader_FILE@stdio@media@modules@UModSys@@8 0000000140014f58     umodsys_lib_libmedia:umodsys.mod.media.stdio.obj
 0002:00003f80       ??_R1A@?0A@EA@RStreamReader_FILE@stdio@media@modules@UModSys@@8 0000000140014f80     umodsys_lib_libmedia:umodsys.mod.media.stdio.obj
 0002:00003fa8       ??_R4RGenerator@stdio@media@modules@UModSys@@6B@ 0000000140014fa8     umodsys_lib_libmedia:umodsys.mod.media.stdio.obj
 0002:00003fd0       ??_R3RGenerator@stdio@media@modules@UModSys@@8 0000000140014fd0     umodsys_lib_libmedia:umodsys.mod.media.stdio.obj
 0002:00003fe8       ??_R2RGenerator@stdio@media@modules@UModSys@@8 0000000140014fe8     umodsys_lib_libmedia:umodsys.mod.media.stdio.obj
 0002:00004018       ??_R1A@?0A@EA@RGenerator@stdio@media@modules@UModSys@@8 0000000140015018     umodsys_lib_libmedia:umodsys.mod.media.stdio.obj
 0002:00004040       ??_R3IBinArchive@libmedia@UModSys@@8 0000000140015040     umodsys_lib_libmedia:umodsys.mod.media.stdio.obj
 0002:00004058       ??_R2IBinArchive@libmedia@UModSys@@8 0000000140015058     umodsys_lib_libmedia:umodsys.mod.media.stdio.obj
 0002:00004090       ??_R1A@?0A@EA@IBinArchive@libmedia@UModSys@@8 0000000140015090     umodsys_lib_libmedia:umodsys.mod.media.stdio.obj
 0002:000040b8       ??_R3IStreamWriter@libmedia@UModSys@@8 00000001400150b8     umodsys_lib_libmedia:umodsys.mod.media.stdio.obj
 0002:000040d0       ??_R2IStreamWriter@libmedia@UModSys@@8 00000001400150d0     umodsys_lib_libmedia:umodsys.mod.media.stdio.obj
 0002:000040f0       ??_R1A@?0A@EA@IStreamWriter@libmedia@UModSys@@8 00000001400150f0     umodsys_lib_libmedia:umodsys.mod.media.stdio.obj
 0002:00004118       ??_R3IStreamReader@libmedia@UModSys@@8 0000000140015118     umodsys_lib_libmedia:umodsys.mod.media.stdio.obj
 0002:00004130       ??_R2IStreamReader@libmedia@UModSys@@8 0000000140015130     umodsys_lib_libmedia:umodsys.mod.media.stdio.obj
 0002:00004150       ??_R1A@?0A@EA@IStreamReader@libmedia@UModSys@@8 0000000140015150     umodsys_lib_libmedia:umodsys.mod.media.stdio.obj
 0002:00004178       ??_R4RConsole_std@rsystem@base@UModSys@@6B@ 0000000140015178     umodsys_lib_basesys:umodsys.basesys.rconsole_std.obj
 0002:000041a0       ??_R3RConsole_std@rsystem@base@UModSys@@8 00000001400151a0     umodsys_lib_basesys:umodsys.basesys.rconsole_std.obj
 0002:000041b8       ??_R2RConsole_std@rsystem@base@UModSys@@8 00000001400151b8     umodsys_lib_basesys:umodsys.basesys.rconsole_std.obj
 0002:000041e0       ??_R1A@?0A@EA@RConsole_std@rsystem@base@UModSys@@8 00000001400151e0     umodsys_lib_basesys:umodsys.basesys.rconsole_std.obj
 0002:00004208       ??_R3IConsole@base@UModSys@@8 0000000140015208     umodsys_lib_basesys:umodsys.basesys.rconsole_std.obj
 0002:00004220       ??_R2IConsole@base@UModSys@@8 0000000140015220     umodsys_lib_basesys:umodsys.basesys.rconsole_std.obj
 0002:00004240       ??_R1A@?0A@EA@IConsole@base@UModSys@@8 0000000140015240     umodsys_lib_basesys:umodsys.basesys.rconsole_std.obj
 0002:00004268       ??_R4RSystem@rsystem@base@UModSys@@6BISourceContextAdapter@core@3@@ 0000000140015268     umodsys_lib_basesys:umodsys.basesys.rsystem_main.obj
 0002:00004290       ??_R4RSystem@rsystem@base@UModSys@@6BIUniquePointerResolver@core@3@@ 0000000140015290     umodsys_lib_basesys:umodsys.basesys.rsystem_main.obj
 0002:000042b8       ??_R4RSystem@rsystem@base@UModSys@@6BISystem@23@@ 00000001400152b8     umodsys_lib_basesys:umodsys.basesys.rsystem_main.obj
 0002:000042e0       ??_R3RSystem@rsystem@base@UModSys@@8 00000001400152e0     umodsys_lib_basesys:umodsys.basesys.rsystem_main.obj
 0002:000042f8       ??_R2RSystem@rsystem@base@UModSys@@8 00000001400152f8     umodsys_lib_basesys:umodsys.basesys.rsystem_main.obj
 0002:00004328       ??_R1BA@?0A@EA@ISourceContextAdapter@core@UModSys@@8 0000000140015328     umodsys_lib_basesys:umodsys.basesys.rsystem_main.obj
 0002:00004350       ??_R17?0A@EA@IUniquePointerResolver@core@UModSys@@8 0000000140015350     umodsys_lib_basesys:umodsys.basesys.rsystem_main.obj
 0002:00004378       ??_R1A@?0A@EA@RSystem@rsystem@base@UModSys@@8 0000000140015378     umodsys_lib_basesys:umodsys.basesys.rsystem_main.obj
 0002:000043a0       ??_R4?$TRMemAlloc_CC@U?$TMemAllocHeader@USMagic@mem_headers@rsystem@base@UModSys@@U?$TPool@X@2345@USDebug@2345@UVoid@core@5@U895@@rsystem@base@UModSys@@USMemAlloc_Malloc@core@4@@rsystem@base@UModSys@@6B@ 00000001400153a0     umodsys_lib_basesys:umodsys.basesys.rsystem_main.obj
 0002:000043c8       ??_R3?$TRMemAlloc_CC@U?$TMemAllocHeader@USMagic@mem_headers@rsystem@base@UModSys@@U?$TPool@X@2345@USDebug@2345@UVoid@core@5@U895@@rsystem@base@UModSys@@USMemAlloc_Malloc@core@4@@rsystem@base@UModSys@@8 00000001400153c8     umodsys_lib_basesys:umodsys.basesys.rsystem_main.obj
 0002:000043e0       ??_R2?$TRMemAlloc_CC@U?$TMemAllocHeader@USMagic@mem_headers@rsystem@base@UModSys@@U?$TPool@X@2345@USDebug@2345@UVoid@core@5@U895@@rsystem@base@UModSys@@USMemAlloc_Malloc@core@4@@rsystem@base@UModSys@@8 00000001400153e0     umodsys_lib_basesys:umodsys.basesys.rsystem_main.obj
 0002:00004400       ??_R17?0A@EA@SMemAlloc_Malloc@core@UModSys@@8 0000000140015400     umodsys_lib_basesys:umodsys.basesys.rsystem_main.obj
 0002:00004428       ??_R3SMemAlloc_Malloc@core@UModSys@@8 0000000140015428     umodsys_lib_basesys:umodsys.basesys.rsystem_main.obj
 0002:00004440       ??_R2SMemAlloc_Malloc@core@UModSys@@8 0000000140015440     umodsys_lib_basesys:umodsys.basesys.rsystem_main.obj
 0002:00004450       ??_R1A@?0A@EA@SMemAlloc_Malloc@core@UModSys@@8 0000000140015450     umodsys_lib_basesys:umodsys.basesys.rsystem_main.obj
 0002:00004478       ??_R1A@?0A@EA@?$TRMemAlloc_CC@U?$TMemAllocHeader@USMagic@mem_headers@rsystem@base@UModSys@@U?$TPool@X@2345@USDebug@2345@UVoid@core@5@U895@@rsystem@base@UModSys@@USMemAlloc_Malloc@core@4@@rsystem@base@UModSys@@8 0000000140015478     umodsys_lib_basesys:umodsys.basesys.rsystem_main.obj
 0002:000044a0       ??_R3IUniquePointerResolver@core@UModSys@@8 00000001400154a0     umodsys_lib_basesys:umodsys.basesys.rsystem_main.obj
 0002:000044b8       ??_R2IUniquePointerResolver@core@UModSys@@8 00000001400154b8     umodsys_lib_basesys:umodsys.basesys.rsystem_main.obj
 0002:000044c8       ??_R1A@?0A@EA@IUniquePointerResolver@core@UModSys@@8 00000001400154c8     umodsys_lib_basesys:umodsys.basesys.rsystem_main.obj
 0002:000044f0       ??_R3ISourceContextAdapter@core@UModSys@@8 00000001400154f0     umodsys_lib_basesys:umodsys.basesys.rsystem_main.obj
 0002:00004508       ??_R2ISourceContextAdapter@core@UModSys@@8 0000000140015508     umodsys_lib_basesys:umodsys.basesys.rsystem_main.obj
 0002:00004518       ??_R1A@?0A@EA@ISourceContextAdapter@core@UModSys@@8 0000000140015518     umodsys_lib_basesys:umodsys.basesys.rsystem_main.obj
 0002:00004540       ??_R3ISystem@base@UModSys@@8 0000000140015540     umodsys_lib_basesys:umodsys.basesys.rsystem_main.obj
 0002:00004558       ??_R2ISystem@base@UModSys@@8 0000000140015558     umodsys_lib_basesys:umodsys.basesys.rsystem_main.obj
 0002:00004570       ??_R1A@?0A@EA@ISystem@base@UModSys@@8 0000000140015570     umodsys_lib_basesys:umodsys.basesys.rsystem_main.obj
 0002:00004598       ??_R3IMemAlloc@core@UModSys@@8 0000000140015598     umodsys_lib_basesys:umodsys.basesys.rsystem_main.obj
 0002:000045b0       ??_R2IMemAlloc@core@UModSys@@8 00000001400155b0     umodsys_lib_basesys:umodsys.basesys.rsystem_main.obj
 0002:000045c0       ??_R1A@?0A@EA@IMemAlloc@core@UModSys@@8 00000001400155c0     umodsys_lib_basesys:umodsys.basesys.rsystem_main.obj
 0002:000045e8       ??_R4EWarning@core@UModSys@@6B@ 00000001400155e8     umodsys_lib_basesys:umodsys.basesys.rsystem_main.obj
 0002:00004610       ??_R3EWarning@core@UModSys@@8 0000000140015610     umodsys_lib_basesys:umodsys.basesys.rsystem_main.obj
 0002:00004628       ??_R2EWarning@core@UModSys@@8 0000000140015628     umodsys_lib_basesys:umodsys.basesys.rsystem_main.obj
 0002:00004640       ??_R1A@?0A@EA@EWarning@core@UModSys@@8 0000000140015640     umodsys_lib_basesys:umodsys.basesys.rsystem_main.obj
 0002:00004668       ??_R4EFatal@core@UModSys@@6B@ 0000000140015668     umodsys_lib_basesys:umodsys.basesys.rsystem_main.obj
 0002:00004690       ??_R3EFatal@core@UModSys@@8 0000000140015690     umodsys_lib_basesys:umodsys.basesys.rsystem_main.obj
 0002:000046a8       ??_R2EFatal@core@UModSys@@8 00000001400156a8     umodsys_lib_basesys:umodsys.basesys.rsystem_main.obj
 0002:000046c0       ??_R1A@?0A@EA@EFatal@core@UModSys@@8 00000001400156c0     umodsys_lib_basesys:umodsys.basesys.rsystem_main.obj
 0002:000046e8       ??_R4EExceptionBase@core@UModSys@@6B@ 00000001400156e8     umodsys_lib_basesys:umodsys.basesys.rsystem_main.obj
 0002:00004710       ??_R3EExceptionBase@core@UModSys@@8 0000000140015710     umodsys_lib_basesys:umodsys.basesys.rsystem_main.obj
 0002:00004728       ??_R2EExceptionBase@core@UModSys@@8 0000000140015728     umodsys_lib_basesys:umodsys.basesys.rsystem_main.obj
 0002:00004738       ??_R1A@?0A@EA@EExceptionBase@core@UModSys@@8 0000000140015738     umodsys_lib_basesys:umodsys.basesys.rsystem_main.obj
 0002:00004760       ??_R4RModuleLoader@rsystem@base@UModSys@@6B@ 0000000140015760     umodsys_lib_basesys:umodsys.basesys.rmoduleloader.obj
 0002:00004788       ??_R3RModuleLoader@rsystem@base@UModSys@@8 0000000140015788     umodsys_lib_basesys:umodsys.basesys.rmoduleloader.obj
 0002:000047a0       ??_R2RModuleLoader@rsystem@base@UModSys@@8 00000001400157a0     umodsys_lib_basesys:umodsys.basesys.rmoduleloader.obj
 0002:000047b8       ??_R1A@?0A@EA@RModuleLoader@rsystem@base@UModSys@@8 00000001400157b8     umodsys_lib_basesys:umodsys.basesys.rmoduleloader.obj
 0002:000047e0       ??_R4IModuleLoader@base@UModSys@@6B@ 00000001400157e0     umodsys_lib_basesys:umodsys.basesys.rmoduleloader.obj
 0002:00004808       ??_R3IModuleLoader@base@UModSys@@8 0000000140015808     umodsys_lib_basesys:umodsys.basesys.rmoduleloader.obj
 0002:00004820       ??_R2IModuleLoader@base@UModSys@@8 0000000140015820     umodsys_lib_basesys:umodsys.basesys.rmoduleloader.obj
 0002:00004830       ??_R1A@?0A@EA@IModuleLoader@base@UModSys@@8 0000000140015830     umodsys_lib_basesys:umodsys.basesys.rmoduleloader.obj
 0002:00004858       ??_R4RModuleLibraryThis@rsystem@base@UModSys@@6B@ 0000000140015858     umodsys_lib_basesys:umodsys.basesys.rmodulelibthis.obj
 0002:00004880       ??_R3RModuleLibraryThis@rsystem@base@UModSys@@8 0000000140015880     umodsys_lib_basesys:umodsys.basesys.rmodulelibthis.obj
 0002:00004898       ??_R2RModuleLibraryThis@rsystem@base@UModSys@@8 0000000140015898     umodsys_lib_basesys:umodsys.basesys.rmodulelibthis.obj
 0002:000048c8       ??_R1A@?0A@EA@IModuleLibraryUni@rsystem@base@UModSys@@8 00000001400158c8     umodsys_lib_basesys:umodsys.basesys.rmodulelibthis.obj
 0002:000048f0       ??_R3IModuleLibraryUni@rsystem@base@UModSys@@8 00000001400158f0     umodsys_lib_basesys:umodsys.basesys.rmodulelibthis.obj
 0002:00004908       ??_R2IModuleLibraryUni@rsystem@base@UModSys@@8 0000000140015908     umodsys_lib_basesys:umodsys.basesys.rmodulelibthis.obj
 0002:00004930       ??_R1A@?0A@EA@IModuleLibrary@base@UModSys@@8 0000000140015930     umodsys_lib_basesys:umodsys.basesys.rmodulelibthis.obj
 0002:00004958       ??_R3IModuleLibrary@base@UModSys@@8 0000000140015958     umodsys_lib_basesys:umodsys.basesys.rmodulelibthis.obj
 0002:00004970       ??_R2IModuleLibrary@base@UModSys@@8 0000000140015970     umodsys_lib_basesys:umodsys.basesys.rmodulelibthis.obj
 0002:00004990       ??_R1A@?0A@EA@RModuleLibraryThis@rsystem@base@UModSys@@8 0000000140015990     umodsys_lib_basesys:umodsys.basesys.rmodulelibthis.obj
 0002:000049b8       ??_R4IModuleLibraryUni@rsystem@base@UModSys@@6B@ 00000001400159b8     umodsys_lib_basesys:umodsys.basesys.rmodulelib.obj
 0002:000049e0       ??_R4RParameters@rsystem@base@UModSys@@6B@ 00000001400159e0     umodsys_lib_basesys:umodsys.basesys.rparameters.obj
 0002:00004a08       ??_R3RParameters@rsystem@base@UModSys@@8 0000000140015a08     umodsys_lib_basesys:umodsys.basesys.rparameters.obj
 0002:00004a20       ??_R2RParameters@rsystem@base@UModSys@@8 0000000140015a20     umodsys_lib_basesys:umodsys.basesys.rparameters.obj
 0002:00004a48       ??_R1A@?0A@EA@RParameters@rsystem@base@UModSys@@8 0000000140015a48     umodsys_lib_basesys:umodsys.basesys.rparameters.obj
 0002:00004a70       ??_R3IParameters@core@UModSys@@8 0000000140015a70     umodsys_lib_basesys:umodsys.basesys.rparameters.obj
 0002:00004a88       ??_R2IParameters@core@UModSys@@8 0000000140015a88     umodsys_lib_basesys:umodsys.basesys.rparameters.obj
 0002:00004aa8       ??_R1A@?0A@EA@IParameters@core@UModSys@@8 0000000140015aa8     umodsys_lib_basesys:umodsys.basesys.rparameters.obj
 0002:00004ad0       ??_R4RModule@rsystem@base@UModSys@@6B@ 0000000140015ad0     umodsys_lib_basesys:umodsys.basesys.rmodule.obj
 0002:00004af8       ??_R3RModule@rsystem@base@UModSys@@8 0000000140015af8     umodsys_lib_basesys:umodsys.basesys.rmodule.obj
 0002:00004b10       ??_R2RModule@rsystem@base@UModSys@@8 0000000140015b10     umodsys_lib_basesys:umodsys.basesys.rmodule.obj
 0002:00004b38       ??_R1A@?0A@EA@RModule@rsystem@base@UModSys@@8 0000000140015b38     umodsys_lib_basesys:umodsys.basesys.rmodule.obj
 0002:00004b60       ??_R3IModule@base@UModSys@@8 0000000140015b60     umodsys_lib_basesys:umodsys.basesys.rmodule.obj
 0002:00004b78       ??_R2IModule@base@UModSys@@8 0000000140015b78     umodsys_lib_basesys:umodsys.basesys.rmodule.obj
 0002:00004b98       ??_R1A@?0A@EA@IModule@base@UModSys@@8 0000000140015b98     umodsys_lib_basesys:umodsys.basesys.rmodule.obj
 0002:00004bc0       ??_R4RModuleLibrarySO@rsystem@base@UModSys@@6B@ 0000000140015bc0     umodsys_lib_basesys:umodsys.basesys.rmodulelibso.obj
 0002:00004be8       ??_R3RModuleLibrarySO@rsystem@base@UModSys@@8 0000000140015be8     umodsys_lib_basesys:umodsys.basesys.rmodulelibso.obj
 0002:00004c00       ??_R2RModuleLibrarySO@rsystem@base@UModSys@@8 0000000140015c00     umodsys_lib_basesys:umodsys.basesys.rmodulelibso.obj
 0002:00004c30       ??_R1A@?0A@EA@RModuleLibrarySO@rsystem@base@UModSys@@8 0000000140015c30     umodsys_lib_basesys:umodsys.basesys.rmodulelibso.obj
 0002:00004c58       ??_R4RModuleLibraryReg_Chain@base@UModSys@@6B@ 0000000140015c58     umodsys_lib_base:umodsys.base.moduleregchain.obj
 0002:00004c80       ??_R3RModuleLibraryReg_Chain@base@UModSys@@8 0000000140015c80     umodsys_lib_base:umodsys.base.moduleregchain.obj
 0002:00004c98       ??_R2RModuleLibraryReg_Chain@base@UModSys@@8 0000000140015c98     umodsys_lib_base:umodsys.base.moduleregchain.obj
 0002:00004cb0       ??_R1A@?0A@EA@IModuleLibraryReg@base@UModSys@@8 0000000140015cb0     umodsys_lib_base:umodsys.base.moduleregchain.obj
 0002:00004cd8       ??_R3IModuleLibraryReg@base@UModSys@@8 0000000140015cd8     umodsys_lib_base:umodsys.base.moduleregchain.obj
 0002:00004cf0       ??_R2IModuleLibraryReg@base@UModSys@@8 0000000140015cf0     umodsys_lib_base:umodsys.base.moduleregchain.obj
 0002:00004d00       ??_R1A@?0A@EA@RModuleLibraryReg_Chain@base@UModSys@@8 0000000140015d00     umodsys_lib_base:umodsys.base.moduleregchain.obj
 0002:00004d28       ??_R4IModuleLibraryReg@base@UModSys@@6B@ 0000000140015d28     umodsys_lib_base:umodsys.base.modulereg.obj
 0002:00004d50       ??_R4IModuleReg@base@UModSys@@6B@ 0000000140015d50     umodsys_lib_base:umodsys.base.modulereg.obj
 0002:00004d78       __rtc_iaa                  0000000140015d78     MSVCRT:_initsect_.obj
 0002:00004d80       __rtc_izz                  0000000140015d80     MSVCRT:_initsect_.obj
 0002:00004d88       __rtc_taa                  0000000140015d88     MSVCRT:_initsect_.obj
 0002:00004d90       __rtc_tzz                  0000000140015d90     MSVCRT:_initsect_.obj
 0002:000065a8       _CT??_R0?AUEFatal@core@UModSys@@@8??0EFatal@core@UModSys@@QEAA@AEBU012@@Z48 00000001400175a8     umodsys_lib_basesys:umodsys.basesys.rsystem_main.obj
 0002:000065d0       _CT??_R0?AUEExceptionBase@core@UModSys@@@8??0EExceptionBase@core@UModSys@@QEAA@AEBU012@@Z48 00000001400175d0     umodsys_lib_basesys:umodsys.basesys.rsystem_main.obj
 0002:000065f8       _CTA2?AUEFatal@core@UModSys@@ 00000001400175f8     umodsys_lib_basesys:umodsys.basesys.rsystem_main.obj
 0002:00006610       _TI2?AUEFatal@core@UModSys@@ 0000000140017610     umodsys_lib_basesys:umodsys.basesys.rsystem_main.obj
 0002:00006630       _CT??_R0?AUEWarning@core@UModSys@@@8??0EWarning@core@UModSys@@QEAA@AEBU012@@Z48 0000000140017630     umodsys_lib_basesys:umodsys.basesys.rsystem_main.obj
 0002:00006658       _CTA2?AUEWarning@core@UModSys@@ 0000000140017658     umodsys_lib_basesys:umodsys.basesys.rsystem_main.obj
 0002:00006670       _TI2?AUEWarning@core@UModSys@@ 0000000140017670     umodsys_lib_basesys:umodsys.basesys.rsystem_main.obj
 0002:0000668c       __IMPORT_DESCRIPTOR_MSVCR90 000000014001768c     MSVCRT:MSVCR90.dll
 0002:000066a0       __IMPORT_DESCRIPTOR_KERNEL32 00000001400176a0     kernel32:KERNEL32.dll
 0002:000066b4       __NULL_IMPORT_DESCRIPTOR   00000001400176b4     MSVCRT:MSVCR90.dll
 0003:00000000       ??_R0?AVtype_info@@@8      0000000140018000     MSVCRT:ti_inst.obj
 0003:00000020       __native_dllmain_reason    0000000140018020     MSVCRT:natstart.obj
 0003:00000024       __native_vcclrit_reason    0000000140018024     MSVCRT:natstart.obj
 0003:00000028       __globallocalestatus       0000000140018028     MSVCRT:xthdloc.obj
 0003:0000002c       __defaultmatherr           000000014001802c     MSVCRT:merr.obj
 0003:00000030       __security_cookie          0000000140018030     MSVCRT:gs_cookie.obj
 0003:00000038       __security_cookie_complement 0000000140018038     MSVCRT:gs_cookie.obj
 0003:000000b8       ?so_entry_enabled_flag@base@UModSys@@3HA 00000001400180b8     umodsys_lib_base:umodsys.so_main.win32.obj
 0003:00000148       ?auto_flags@RLibraryLayered@std@media@modules@UModSys@@2U?$TFlags4State@USMediaFlagUid@libmedia@UModSys@@I@tl@5@A 0000000140018148     umodsys_lib_libmedia:umodsys.mod.media.std.obj
 0003:00000150       ?s_modreg@RModuleReg@std@media@modules@UModSys@@2U12345@A 0000000140018150     umodsys_lib_libmedia:umodsys.mod.media.std.obj
 0003:000001a0       ?s_modreg_chain@RModuleReg@std@media@modules@UModSys@@2USModuleRegChain@base@5@A 00000001400181a0     umodsys_lib_libmedia:umodsys.mod.media.std.obj
 0003:000001b8       ?auto_flags@RDataArchiver_OsDir@stdio@media@modules@UModSys@@2U?$TFlags4State@USMediaFlagUid@libmedia@UModSys@@I@tl@5@A 00000001400181b8     umodsys_lib_libmedia:umodsys.mod.media.stdio.obj
 0003:000001c0       ?s_modreg@RModuleReg@stdio@media@modules@UModSys@@2U12345@A 00000001400181c0     umodsys_lib_libmedia:umodsys.mod.media.stdio.obj
 0003:00000210       ?s_modreg_chain@RModuleReg@stdio@media@modules@UModSys@@2USModuleRegChain@base@5@A 0000000140018210     umodsys_lib_libmedia:umodsys.mod.media.stdio.obj
 0003:00000228       ?s_console@RConsole_std@rsystem@base@UModSys@@2U1234@A 0000000140018228     umodsys_lib_basesys:umodsys.basesys.rconsole_std.obj
 0003:00000240       ?s_sys@RSystem@rsystem@base@UModSys@@2U1234@A 0000000140018240     umodsys_lib_basesys:umodsys.basesys.rsystem_main.obj
 0003:000003f0       ?rsys_dbg@rsystem@base@UModSys@@3USDebug@23@A 00000001400183f0     umodsys_lib_basesys:umodsys.basesys.rsystem_main.obj
 0003:00000400       ?s_library@RModuleLibraryReg_Chain@base@UModSys@@2U123@A 0000000140018400     umodsys_lib_base:umodsys.base.moduleregchain.obj
 0003:00000408       ??_R0?AUIModuleReg@base@UModSys@@@8 0000000140018408     umodsys_lib_libmedia:umodsys.mod.media.std.obj
 0003:00000438       ??_R0?AURModuleReg@std@media@modules@UModSys@@@8 0000000140018438     umodsys_lib_libmedia:umodsys.mod.media.std.obj
 0003:00000480       ??_R0?AURLibraryObjFilter@std@media@modules@UModSys@@@8 0000000140018480     umodsys_lib_libmedia:umodsys.mod.media.std.obj
 0003:000004d0       ??_R0?AURLibraryObjCache@std@media@modules@UModSys@@@8 00000001400184d0     umodsys_lib_libmedia:umodsys.mod.media.std.obj
 0003:00000520       ??_R0?AURLibraryLayered@std@media@modules@UModSys@@@8 0000000140018520     umodsys_lib_libmedia:umodsys.mod.media.std.obj
 0003:00000560       ??_R0?AURLibraryBinTree@std@media@modules@UModSys@@@8 0000000140018560     umodsys_lib_libmedia:umodsys.mod.media.std.obj
 0003:000005a0       ??_R0?AURLibraryBinCache@std@media@modules@UModSys@@@8 00000001400185a0     umodsys_lib_libmedia:umodsys.mod.media.std.obj
 0003:000005e8       ??_R0?AURGenerator@std@media@modules@UModSys@@@8 00000001400185e8     umodsys_lib_libmedia:umodsys.mod.media.std.obj
 0003:00000630       ??_R0?AURResolverChain@SFlagsChain@libmedia@UModSys@@@8 0000000140018630     umodsys_lib_libmedia:umodsys.mod.media.std.obj
 0003:00000678       ??_R0?AUILibraryLayered@libmedia@UModSys@@@8 0000000140018678     umodsys_lib_libmedia:umodsys.mod.media.std.obj
 0003:000006b0       ??_R0?AUILibraryObjCache@libmedia@UModSys@@@8 00000001400186b0     umodsys_lib_libmedia:umodsys.mod.media.std.obj
 0003:000006e8       ??_R0?AUILibraryObjFilter@libmedia@UModSys@@@8 00000001400186e8     umodsys_lib_libmedia:umodsys.mod.media.std.obj
 0003:00000728       ??_R0?AUILibraryBinCache@libmedia@UModSys@@@8 0000000140018728     umodsys_lib_libmedia:umodsys.mod.media.std.obj
 0003:00000760       ??_R0?AUILibraryBinTree@libmedia@UModSys@@@8 0000000140018760     umodsys_lib_libmedia:umodsys.mod.media.std.obj
 0003:00000798       ??_R0?AUIResolver@SFlags@libmedia@UModSys@@@8 0000000140018798     umodsys_lib_libmedia:umodsys.mod.media.std.obj
 0003:000007d0       ??_R0?AUIResolverAuto@SFlags@libmedia@UModSys@@@8 00000001400187d0     umodsys_lib_libmedia:umodsys.mod.media.std.obj
 0003:00000810       ??_R0?AUISetter@SFlags@libmedia@UModSys@@@8 0000000140018810     umodsys_lib_libmedia:umodsys.mod.media.std.obj
 0003:00000848       ??_R0?AUILibrary@libmedia@UModSys@@@8 0000000140018848     umodsys_lib_libmedia:umodsys.mod.media.std.obj
 0003:00000878       ??_R0?AUIGenerator@base@UModSys@@@8 0000000140018878     umodsys_lib_libmedia:umodsys.mod.media.std.obj
 0003:000008a8       ??_R0?AUIModObject@base@UModSys@@@8 00000001400188a8     umodsys_lib_libmedia:umodsys.mod.media.std.obj
 0003:000008d8       ??_R0?AUIRefObject@core@UModSys@@@8 00000001400188d8     umodsys_lib_libmedia:umodsys.mod.media.std.obj
 0003:00000908       ??_R0?AUIRoot@core@UModSys@@@8 0000000140018908     umodsys_lib_libmedia:umodsys.mod.media.std.obj
 0003:00000938       ?s_null@?1??get_null@?$TSCoreShared@USIMemAlloc@core@UModSys@@D@su@tl@UModSys@@SAPEAU?$TSharedStringInfo@D@345@XZ@4U6345@A 0000000140018938     umodsys_lib_libmedia:umodsys.mod.media.std.obj
 0003:00000958       ??_R0?AURModuleReg@stdio@media@modules@UModSys@@@8 0000000140018958     umodsys_lib_libmedia:umodsys.mod.media.stdio.obj
 0003:000009a0       ??_R0?AURDataArchiver_OsDir@stdio@media@modules@UModSys@@@8 00000001400189a0     umodsys_lib_libmedia:umodsys.mod.media.stdio.obj
 0003:000009f0       ??_R0?AURStreamWriter_FILE@stdio@media@modules@UModSys@@@8 00000001400189f0     umodsys_lib_libmedia:umodsys.mod.media.stdio.obj
 0003:00000a40       ??_R0?AURStreamReader_FILE@stdio@media@modules@UModSys@@@8 0000000140018a40     umodsys_lib_libmedia:umodsys.mod.media.stdio.obj
 0003:00000a88       ??_R0?AURGenerator@stdio@media@modules@UModSys@@@8 0000000140018a88     umodsys_lib_libmedia:umodsys.mod.media.stdio.obj
 0003:00000ac8       ??_R0?AUIBinArchive@libmedia@UModSys@@@8 0000000140018ac8     umodsys_lib_libmedia:umodsys.mod.media.stdio.obj
 0003:00000b00       ??_R0?AUIStreamWriter@libmedia@UModSys@@@8 0000000140018b00     umodsys_lib_libmedia:umodsys.mod.media.stdio.obj
 0003:00000b38       ??_R0?AUIStreamReader@libmedia@UModSys@@@8 0000000140018b38     umodsys_lib_libmedia:umodsys.mod.media.stdio.obj
 0003:00000b70       ??_R0?AURConsole_std@rsystem@base@UModSys@@@8 0000000140018b70     umodsys_lib_basesys:umodsys.basesys.rconsole_std.obj
 0003:00000ba8       ??_R0?AUIConsole@base@UModSys@@@8 0000000140018ba8     umodsys_lib_basesys:umodsys.basesys.rconsole_std.obj
 0003:00000bd8       ??_R0?AURSystem@rsystem@base@UModSys@@@8 0000000140018bd8     umodsys_lib_basesys:umodsys.basesys.rsystem_main.obj
 0003:00000c10       ??_R0?AUSMemAlloc_Malloc@core@UModSys@@@8 0000000140018c10     umodsys_lib_basesys:umodsys.basesys.rsystem_main.obj
 0003:00000c50       ??_R0?AU?$TRMemAlloc_CC@U?$TMemAllocHeader@USMagic@mem_headers@rsystem@base@UModSys@@U?$TPool@X@2345@USDebug@2345@UVoid@core@5@U895@@rsystem@base@UModSys@@USMemAlloc_Malloc@core@4@@rsystem@base@UModSys@@@8 0000000140018c50     umodsys_lib_basesys:umodsys.basesys.rsystem_main.obj
 0003:00000d28       ??_R0?AUIUniquePointerResolver@core@UModSys@@@8 0000000140018d28     umodsys_lib_basesys:umodsys.basesys.rsystem_main.obj
 0003:00000d68       ??_R0?AUISourceContextAdapter@core@UModSys@@@8 0000000140018d68     umodsys_lib_basesys:umodsys.basesys.rsystem_main.obj
 0003:00000da8       ??_R0?AUISystem@base@UModSys@@@8 0000000140018da8     umodsys_lib_basesys:umodsys.basesys.rsystem_main.obj
 0003:00000dd8       ??_R0?AUIMemAlloc@core@UModSys@@@8 0000000140018dd8     umodsys_lib_basesys:umodsys.basesys.rsystem_main.obj
 0003:00000e08       ??_R0?AUEFatal@core@UModSys@@@8 0000000140018e08     umodsys_lib_basesys:umodsys.basesys.rsystem_main.obj
 0003:00000e38       ??_R0?AUEExceptionBase@core@UModSys@@@8 0000000140018e38     umodsys_lib_basesys:umodsys.basesys.rsystem_main.obj
 0003:00000e70       ??_R0?AUEWarning@core@UModSys@@@8 0000000140018e70     umodsys_lib_basesys:umodsys.basesys.rsystem_main.obj
 0003:00000ea0       ??_R0?AURModuleLoader@rsystem@base@UModSys@@@8 0000000140018ea0     umodsys_lib_basesys:umodsys.basesys.rmoduleloader.obj
 0003:00000ee0       ??_R0?AUIModuleLoader@base@UModSys@@@8 0000000140018ee0     umodsys_lib_basesys:umodsys.basesys.rmoduleloader.obj
 0003:00000f18       ??_R0?AUIModuleLibrary@base@UModSys@@@8 0000000140018f18     umodsys_lib_basesys:umodsys.basesys.rmodulelibthis.obj
 0003:00000f50       ??_R0?AUIModuleLibraryUni@rsystem@base@UModSys@@@8 0000000140018f50     umodsys_lib_basesys:umodsys.basesys.rmodulelibthis.obj
 0003:00000f90       ??_R0?AURModuleLibraryThis@rsystem@base@UModSys@@@8 0000000140018f90     umodsys_lib_basesys:umodsys.basesys.rmodulelibthis.obj
 0003:00000fd0       ?s_null@?1??get_null@?$TSCoreShared@USMemAlloc_Malloc@core@UModSys@@D@su@tl@UModSys@@SAPEAU?$TSharedStringInfo@D@345@XZ@4U6345@A 0000000140018fd0     umodsys_lib_basesys:umodsys.basesys.rmodulelib.obj
 0003:00000ff0       ??_R0?AURParameters@rsystem@base@UModSys@@@8 0000000140018ff0     umodsys_lib_basesys:umodsys.basesys.rparameters.obj
 0003:00001028       ??_R0?AUIParameters@core@UModSys@@@8 0000000140019028     umodsys_lib_basesys:umodsys.basesys.rparameters.obj
 0003:00001058       ??_R0?AURModule@rsystem@base@UModSys@@@8 0000000140019058     umodsys_lib_basesys:umodsys.basesys.rmodule.obj
 0003:00001090       ??_R0?AUIModule@base@UModSys@@@8 0000000140019090     umodsys_lib_basesys:umodsys.basesys.rmodule.obj
 0003:000010c0       ??_R0?AURModuleLibrarySO@rsystem@base@UModSys@@@8 00000001400190c0     umodsys_lib_basesys:umodsys.basesys.rmodulelibso.obj
 0003:00001100       ??_R0?AUIModuleLibraryReg@base@UModSys@@@8 0000000140019100     umodsys_lib_base:umodsys.base.moduleregchain.obj
 0003:00001138       ??_R0?AURModuleLibraryReg_Chain@base@UModSys@@@8 0000000140019138     umodsys_lib_base:umodsys.base.moduleregchain.obj
 0003:00001180       _fltused                   0000000140019180     MSVCRT:dllsupp.obj
 0003:000011b8       _forceCRTManifestRTM       00000001400191b8     MSVCRT:crtmanifestrtm.obj
 0003:000011bc       _dowildcard                00000001400191bc     MSVCRT:wildcard.obj
 0003:000011c0       _newmode                   00000001400191c0     MSVCRT:_newmode.obj
 0003:000011c4       _commode                   00000001400191c4     MSVCRT:xncommod.obj
 0003:000011c8       _fmode                     00000001400191c8     MSVCRT:xtxtmode.obj
 0003:000011d0       ?fmodule@std@media@modules@UModSys@@3DA 00000001400191d0     umodsys_lib_libmedia:umodsys.mod.media.std.obj
 0003:000011d1       ?fmodule@stdio@media@modules@UModSys@@3DA 00000001400191d1     umodsys_lib_libmedia:umodsys.mod.media.stdio.obj
 0003:000011d8       ?s_uid@RGenerator@std@media@modules@UModSys@@2USUniquePointer@core@5@A 00000001400191d8     umodsys_lib_libmedia:umodsys.mod.media.std.obj
 0003:00001208       ?auto_flags@RLibraryBinTree@std@media@modules@UModSys@@2U?$TFlags4State@USMediaFlagUid@libmedia@UModSys@@I@tl@5@A 0000000140019208     umodsys_lib_libmedia:umodsys.mod.media.std.obj
 0003:0000120c       ?auto_flags@RLibraryBinCache@std@media@modules@UModSys@@2U?$TFlags4State@USMediaFlagUid@libmedia@UModSys@@I@tl@5@A 000000014001920c     umodsys_lib_libmedia:umodsys.mod.media.std.obj
 0003:00001210       ?auto_flags@RLibraryObjFilter@std@media@modules@UModSys@@2U?$TFlags4State@USMediaFlagUid@libmedia@UModSys@@I@tl@5@A 0000000140019210     umodsys_lib_libmedia:umodsys.mod.media.std.obj
 0003:00001214       ?auto_flags@RLibraryObjCache@std@media@modules@UModSys@@2U?$TFlags4State@USMediaFlagUid@libmedia@UModSys@@I@tl@5@A 0000000140019214     umodsys_lib_libmedia:umodsys.mod.media.std.obj
 0003:00001218       ?s_uid@RGenerator@stdio@media@modules@UModSys@@2USUniquePointer@core@5@A 0000000140019218     umodsys_lib_libmedia:umodsys.mod.media.stdio.obj
 0003:00003258       ?M@UModSys@@3USModuleContext@base@1@A 000000014001b258     umodsys_lib_base:umodsys.base.modulecontext.obj
 0003:00003280       ?root@SModuleRegChain@base@UModSys@@2U123@A 000000014001b280     umodsys_lib_base:umodsys.base.moduleregchain.obj
 0003:00003298       ?root@SUniquePointer@core@UModSys@@2U123@A 000000014001b298     umodsys_lib_core:umodsys.core.uniqueptr.obj
 0003:000032c8       ?rv@?1??get_default@SMemAlloc_Malloc@core@UModSys@@SAAEBU234@XZ@4U234@A 000000014001b2c8     umodsys_lib_basesys:umodsys.basesys.rsystem_main.obj
 0003:00003348       ?s_id@?$TObjectUniqueID@UIModObject@base@UModSys@@@tl@UModSys@@2USUniquePointer@core@3@A 000000014001b348     umodsys.c_main.obj
 0003:00003378       ?s_null@?$TStaticStringPool@DU?$TComparerBinaryHash@D@su@tl@UModSys@@USMemAlloc_Malloc@core@4@@tl@UModSys@@2U?$TString@U?$TSCoreConst@D@su@tl@UModSys@@U?$TComparerBinaryHash@D@234@@23@A 000000014001b378     umodsys.c_main.obj
 0003:00003390       ?s_id@?$TObjectUniqueID@UIGenerator@base@UModSys@@@tl@UModSys@@2USUniquePointer@core@3@A 000000014001b390     umodsys.c_main.obj
 0003:000033c0       ?s_id@?$TObjectUniqueID@UIModule@base@UModSys@@@tl@UModSys@@2USUniquePointer@core@3@A 000000014001b3c0     umodsys.c_main.obj
 0003:000033f0       ?s_id@?$TObjectUniqueID@UIRoot@core@UModSys@@@tl@UModSys@@2USUniquePointer@core@3@A 000000014001b3f0     umodsys.c_main.obj
 0003:00003420       ?s_id@?$TObjectUniqueID@URConsole_std@rsystem@base@UModSys@@@tl@UModSys@@2USUniquePointer@core@3@A 000000014001b420     umodsys.c_main.obj
 0003:00003450       ?s_id@?$TObjectUniqueID@UIModuleLibraryUni@rsystem@base@UModSys@@@tl@UModSys@@2USUniquePointer@core@3@A 000000014001b450     umodsys.c_main.obj
 0003:00003480       ?s_id@?$TObjectUniqueID@UISystem@base@UModSys@@@tl@UModSys@@2USUniquePointer@core@3@A 000000014001b480     umodsys.c_main.obj
 0003:000034b0       ?s_id@?$TObjectUniqueID@UIRefObject@core@UModSys@@@tl@UModSys@@2USUniquePointer@core@3@A 000000014001b4b0     umodsys.c_main.obj
 0003:000034e0       ?s_id@?$TObjectUniqueID@URModule@rsystem@base@UModSys@@@tl@UModSys@@2USUniquePointer@core@3@A 000000014001b4e0     umodsys.c_main.obj
 0003:00003510       ?s_id@?$TObjectUniqueID@UIShell@base@UModSys@@@tl@UModSys@@2USUniquePointer@core@3@A 000000014001b510     umodsys.c_main.obj
 0003:00003540       ?s_id@?$TObjectUniqueID@UIConsole@base@UModSys@@@tl@UModSys@@2USUniquePointer@core@3@A 000000014001b540     umodsys.c_main.obj
 0003:00003570       ?s_id@?$TObjectUniqueID@UIModuleLibrary@base@UModSys@@@tl@UModSys@@2USUniquePointer@core@3@A 000000014001b570     umodsys.c_main.obj
 0003:000035a0       ?s_id@?$TObjectUniqueID@URModuleLibraryThis@rsystem@base@UModSys@@@tl@UModSys@@2USUniquePointer@core@3@A 000000014001b5a0     umodsys.c_main.obj
 0003:000035d0       ?s_id@?$TObjectUniqueID@URModuleLibrarySO@rsystem@base@UModSys@@@tl@UModSys@@2USUniquePointer@core@3@A 000000014001b5d0     umodsys.c_main.obj
 0003:00003600       ?s_id@?$TObjectUniqueID@UIParameters@core@UModSys@@@tl@UModSys@@2USUniquePointer@core@3@A 000000014001b600     umodsys.c_main.obj
 0003:00003630       ?s_id@?$TObjectUniqueID@URSystem@rsystem@base@UModSys@@@tl@UModSys@@2USUniquePointer@core@3@A 000000014001b630     umodsys.c_main.obj
 0003:00003660       ?s_id@?$TObjectUniqueID@URParameters@rsystem@base@UModSys@@@tl@UModSys@@2USUniquePointer@core@3@A 000000014001b660     umodsys.c_main.obj
 0003:00003690       ?s_id@?$TObjectUniqueID@UIBinObjFilter@libmedia@UModSys@@@tl@UModSys@@2USUniquePointer@core@3@A 000000014001b690     umodsys_lib_libmedia:umodsys.mod.media.std.obj
 0003:000036c0       ?s_id@?$TObjectUniqueID@UILibraryBinTree@libmedia@UModSys@@@tl@UModSys@@2USUniquePointer@core@3@A 000000014001b6c0     umodsys_lib_libmedia:umodsys.mod.media.std.obj
 0003:000036f0       ?s_id@?$TObjectUniqueID@UIBinArchive@libmedia@UModSys@@@tl@UModSys@@2USUniquePointer@core@3@A 000000014001b6f0     umodsys_lib_libmedia:umodsys.mod.media.std.obj
 0003:00003720       ?s_id@?$TObjectUniqueID@UILibraryObjCache@libmedia@UModSys@@@tl@UModSys@@2USUniquePointer@core@3@A 000000014001b720     umodsys_lib_libmedia:umodsys.mod.media.std.obj
 0003:00003750       ?s_id@?$TObjectUniqueID@UIStreamWriter@libmedia@UModSys@@@tl@UModSys@@2USUniquePointer@core@3@A 000000014001b750     umodsys_lib_libmedia:umodsys.mod.media.std.obj
 0003:00003780       ?s_id@?$TObjectUniqueID@URLibraryBinTree@std@media@modules@UModSys@@@tl@UModSys@@2USUniquePointer@core@3@A 000000014001b780     umodsys_lib_libmedia:umodsys.mod.media.std.obj
 0003:000037b0       ?s_id@?$TObjectUniqueID@UILibraryLayered@libmedia@UModSys@@@tl@UModSys@@2USUniquePointer@core@3@A 000000014001b7b0     umodsys_lib_libmedia:umodsys.mod.media.std.obj
 0003:000037e0       ?s_id@?$TObjectUniqueID@URLibraryObjFilter@std@media@modules@UModSys@@@tl@UModSys@@2USUniquePointer@core@3@A 000000014001b7e0     umodsys_lib_libmedia:umodsys.mod.media.std.obj
 0003:00003810       ?s_id@?$TObjectUniqueID@UILibraryBinCache@libmedia@UModSys@@@tl@UModSys@@2USUniquePointer@core@3@A 000000014001b810     umodsys_lib_libmedia:umodsys.mod.media.std.obj
 0003:00003840       ?s_id@?$TObjectUniqueID@URLibraryBinCache@std@media@modules@UModSys@@@tl@UModSys@@2USUniquePointer@core@3@A 000000014001b840     umodsys_lib_libmedia:umodsys.mod.media.std.obj
 0003:00003870       ?s_id@?$TObjectUniqueID@UILibraryObjFilter@libmedia@UModSys@@@tl@UModSys@@2USUniquePointer@core@3@A 000000014001b870     umodsys_lib_libmedia:umodsys.mod.media.std.obj
 0003:000038a0       ?s_id@?$TObjectUniqueID@UILibrary@libmedia@UModSys@@@tl@UModSys@@2USUniquePointer@core@3@A 000000014001b8a0     umodsys_lib_libmedia:umodsys.mod.media.std.obj
 0003:000038d0       ?s_id@?$TObjectUniqueID@URLibraryObjCache@std@media@modules@UModSys@@@tl@UModSys@@2USUniquePointer@core@3@A 000000014001b8d0     umodsys_lib_libmedia:umodsys.mod.media.std.obj
 0003:00003900       ?s_id@?$TObjectUniqueID@UIStreamReader@libmedia@UModSys@@@tl@UModSys@@2USUniquePointer@core@3@A 000000014001b900     umodsys_lib_libmedia:umodsys.mod.media.std.obj
 0003:00003930       ?s_id@?$TObjectUniqueID@URGenerator@std@media@modules@UModSys@@@tl@UModSys@@2USUniquePointer@core@3@A 000000014001b930     umodsys_lib_libmedia:umodsys.mod.media.std.obj
 0003:00003960       ?s_id@?$TObjectUniqueID@URLibraryLayered@std@media@modules@UModSys@@@tl@UModSys@@2USUniquePointer@core@3@A 000000014001b960     umodsys_lib_libmedia:umodsys.mod.media.std.obj
 0003:00003990       ?s_id@?$TObjectUniqueID@URStreamReader_FILE@stdio@media@modules@UModSys@@@tl@UModSys@@2USUniquePointer@core@3@A 000000014001b990     umodsys_lib_libmedia:umodsys.mod.media.stdio.obj
 0003:000039c0       ?s_id@?$TObjectUniqueID@URStreamWriter_FILE@stdio@media@modules@UModSys@@@tl@UModSys@@2USUniquePointer@core@3@A 000000014001b9c0     umodsys_lib_libmedia:umodsys.mod.media.stdio.obj
 0003:000039f0       ?s_id@?$TObjectUniqueID@URDataArchiver_OsDir@stdio@media@modules@UModSys@@@tl@UModSys@@2USUniquePointer@core@3@A 000000014001b9f0     umodsys_lib_libmedia:umodsys.mod.media.stdio.obj
 0003:00003a20       ?s_id@?$TObjectUniqueID@URGenerator@stdio@media@modules@UModSys@@@tl@UModSys@@2USUniquePointer@core@3@A 000000014001ba20     umodsys_lib_libmedia:umodsys.mod.media.stdio.obj
 0003:00003a50       __native_startup_state     000000014001ba50     <common>
 0003:00003a58       __native_startup_lock      000000014001ba58     <common>
 0003:00003a60       __dyn_tls_init_callback    000000014001ba60     <common>
 0003:00003a68       __onexitend                000000014001ba68     <common>
 0003:00003a70       __onexitbegin              000000014001ba70     <common>

 entry point at        0001:0000d9e8

 Static symbols

 0001:0000b2cc       ?s_pwd_init@@YAXXZ         000000014000c2cc f    CIL library: CIL module
 0001:0000b4ec       ?s_pfd_scan@@YA_KPEAUISystem@base@UModSys@@AEAU?$TDynarrayDynamic@U?$TRefObject@URModuleLibrarySO@rsystem@base@UModSys@@U?$TRefObjectFunc@URModuleLibrarySO@rsystem@base@UModSys@@@tl@4@@tl@UModSys@@U?$TAllocator@USMemAlloc_Malloc@core@UModSys@@USCountCalcPower2@23@@23@@tl@3@PEBD22@Z 000000014000c4ec f    CIL library: CIL module
 0001:0000d718       pre_cpp_init               000000014000e718 f   MSVCRT:crtexe.obj
 0001:0000d780       __tmainCRTStartup          000000014000e780 f   MSVCRT:crtexe.obj
 0001:0000d900       pre_c_init                 000000014000e900 f   MSVCRT:crtexe.obj
 0001:0000de30       _onexit$fin$0              000000014000ee30 f   MSVCRT:atonexit.obj
 0001:0000de49       __tmainCRTStartup$filt$0   000000014000ee49 f   MSVCRT:crtexe.obj
 0001:0000de70       _IsNonwritableInCurrentImage$filt$0 000000014000ee70 f   MSVCRT:pesect.obj
 0001:0000de91       ?filt$0@?0??__ArrayUnwind@@YAXPEAX_KHP6AX0@Z@Z@4HA 000000014000ee91 f   MSVCRT:ehvecdtr.obj
 0001:0000ded0       ?fin$0@?0???_M@YAXPEAX_KHP6AX0@Z@Z@4HA 000000014000eed0 f   MSVCRT:ehvecdtr.obj
 0001:0000defa       ?dtor$0@?0???1?$TQuantArrayUnique@USUniquePointerInfo@core@UModSys@@$0BAA@USMemAlloc_Malloc@23@@tl@UModSys@@QEAA@XZ@4HA 000000014000eefa f    CIL library: CIL module
 0001:0000df12       ?dtor$0@?0??suicide@RLibraryBinTree@std@media@modules@UModSys@@UEAAXXZ@4HA 000000014000ef12 f    CIL library: CIL module
 0001:0000df12       ?dtor$0@?0??suicide@RLibraryLayered@std@media@modules@UModSys@@UEAAXXZ@4HA 000000014000ef12 f    CIL library: CIL module
 0001:0000df12       ?dtor$0@?0??suicide@RStreamWriter_FILE@stdio@media@modules@UModSys@@UEAAXXZ@4HA 000000014000ef12 f    CIL library: CIL module
 0001:0000df12       ?dtor$0@?0??suicide@RDataArchiver_OsDir@stdio@media@modules@UModSys@@UEAAXXZ@4HA 000000014000ef12 f    CIL library: CIL module
 0001:0000df12       ?dtor$0@?0??suicide@RLibraryObjFilter@std@media@modules@UModSys@@UEAAXXZ@4HA 000000014000ef12 f    CIL library: CIL module
 0001:0000df12       ?dtor$0@?0??suicide@RLibraryBinCache@std@media@modules@UModSys@@UEAAXXZ@4HA 000000014000ef12 f    CIL library: CIL module
 0001:0000df12       ?dtor$0@?0??suicide@RStreamReader_FILE@stdio@media@modules@UModSys@@UEAAXXZ@4HA 000000014000ef12 f    CIL library: CIL module
 0001:0000df12       ?dtor$0@?0??suicide@RLibraryObjCache@std@media@modules@UModSys@@UEAAXXZ@4HA 000000014000ef12 f    CIL library: CIL module
 0001:0000df2a       ?dtor$0@?0???1RModuleLoader@rsystem@base@UModSys@@UEAA@XZ@4HA 000000014000ef2a f    CIL library: CIL module
 0001:0000df4a       ?dtor$1@?0???1RModuleLoader@rsystem@base@UModSys@@UEAA@XZ@4HA 000000014000ef4a f    CIL library: CIL module
 0001:0000df6a       ?dtor$2@?0???1RModuleLoader@rsystem@base@UModSys@@UEAA@XZ@4HA 000000014000ef6a f    CIL library: CIL module
 0001:0000df86       ?dtor$0@?0???1RSystem@rsystem@base@UModSys@@UEAA@XZ@4HA 000000014000ef86 f    CIL library: CIL module
 0001:0000dfa6       ?dtor$1@?0???1RSystem@rsystem@base@UModSys@@UEAA@XZ@4HA 000000014000efa6 f    CIL library: CIL module
 0001:0000dfc6       ?dtor$2@?0???1RSystem@rsystem@base@UModSys@@UEAA@XZ@4HA 000000014000efc6 f    CIL library: CIL module
 0001:0000dfe6       ?dtor$3@?0???1RSystem@rsystem@base@UModSys@@UEAA@XZ@4HA 000000014000efe6 f    CIL library: CIL module
 0001:0000e006       ?dtor$4@?0???1RSystem@rsystem@base@UModSys@@UEAA@XZ@4HA 000000014000f006 f    CIL library: CIL module
 0001:0000e026       ?dtor$5@?0???1RSystem@rsystem@base@UModSys@@UEAA@XZ@4HA 000000014000f026 f    CIL library: CIL module
 0001:0000e046       ?dtor$9@?0???1RSystem@rsystem@base@UModSys@@UEAA@XZ@4HA 000000014000f046 f    CIL library: CIL module
 0001:0000e066       ?dtor$10@?0???1RSystem@rsystem@base@UModSys@@UEAA@XZ@4HA 000000014000f066 f    CIL library: CIL module
 0001:0000e07e       ?dtor$0@?0??data_save@RDataArchiver_OsDir@stdio@media@modules@UModSys@@UEAA_NAEBU?$TString@U?$TSCoreConst@D@su@tl@UModSys@@U?$TComparerBinaryHash@D@234@@tl@5@AEBUSCMem@core@5@AEBUSFlags@libmedia@5@@Z@4HA 000000014000f07e f    CIL library: CIL module
 0001:0000e07e       ?dtor$0@?0??suicide@RModule@rsystem@base@UModSys@@UEAAXXZ@4HA 000000014000f07e f    CIL library: CIL module
 0001:0000e096       ?dtor$0@?0??archive_load_data@libmedia@UModSys@@YA_NAEAUIBinArchive@12@AEBU?$TString@U?$TSCoreConst@D@su@tl@UModSys@@U?$TComparerBinaryHash@D@234@@tl@2@AEAUSCMemShared@core@2@AEBUSFlags@12@@Z@4HA 000000014000f096 f    CIL library: CIL module
 0001:0000e0b6       ?dtor$1@?0??archive_load_data@libmedia@UModSys@@YA_NAEAUIBinArchive@12@AEBU?$TString@U?$TSCoreConst@D@su@tl@UModSys@@U?$TComparerBinaryHash@D@234@@tl@2@AEAUSCMemShared@core@2@AEBUSFlags@12@@Z@4HA 000000014000f0b6 f    CIL library: CIL module
 0001:0000e0ce       ?dtor$0@?0???1SCacheElem@RLibraryObjCache@std@media@modules@UModSys@@QEAA@XZ@4HA 000000014000f0ce f    CIL library: CIL module
 0001:0000e0ce       ?dtor$1@?0???1?$TPair@U?$TString@U?$TSCoreConst@D@su@tl@UModSys@@U?$TComparerBinaryHash@D@234@@tl@UModSys@@USCacheElem@RLibraryObjCache@std@media@modules@3@@tl@UModSys@@QEAA@XZ@4HA 000000014000f0ce f    CIL library: CIL module
 0001:0000e0ce       ?dtor$0@?0???1SCacheElem@RLibraryBinCache@std@media@modules@UModSys@@QEAA@XZ@4HA 000000014000f0ce f    CIL library: CIL module
 0001:0000e0e6       ?dtor$1@?0???1?$TPair@USId@ILibraryBinTree@libmedia@UModSys@@USMountInfo@RLibraryBinTree@std@media@modules@4@@tl@UModSys@@QEAA@XZ@4HA 000000014000f0e6 f    CIL library: CIL module
 0001:0000e0e6       ?dtor$0@?0???_GSLayerX@RLibraryLayered@std@media@modules@UModSys@@QEAAPEAXI@Z@4HA 000000014000f0e6 f    CIL library: CIL module
 0001:0000e0e6       ?dtor$0@?0???1SMountInfo@RLibraryBinTree@std@media@modules@UModSys@@QEAA@XZ@4HA 000000014000f0e6 f    CIL library: CIL module
 0001:0000e0fe       ?dtor$2@?0???R?$TNodeDeleter0@U?$TScatterArrayNode@USCacheElem@RLibraryObjCache@std@media@modules@UModSys@@U?$TString@U?$TSCoreConst@D@su@tl@UModSys@@U?$TComparerBinaryHash@D@234@@tl@6@@tl@UModSys@@@tl@UModSys@@QEBAHPEAU?$TScatterArrayNode@USCacheElem@RLibraryObjCache@std@media@modules@UModSys@@U?$TString@U?$TSCoreConst@D@su@tl@UModSys@@U?$TComparerBinaryHash@D@234@@tl@6@@12@@Z@4HA 000000014000f0fe f    CIL library: CIL module
 0001:0000e116       ?dtor$2@?0???R?$TNodeDeleter0@U?$TScatterArrayNode@USMountInfo@RLibraryBinTree@std@media@modules@UModSys@@USId@ILibraryBinTree@libmedia@6@@tl@UModSys@@@tl@UModSys@@QEBAHPEAU?$TScatterArrayNode@USMountInfo@RLibraryBinTree@std@media@modules@UModSys@@USId@ILibraryBinTree@libmedia@6@@12@@Z@4HA 000000014000f116 f    CIL library: CIL module
 0001:0000e12e       ?dtor$0@?0???R?$TScatterArray@USFilter@RLibraryObjFilter@std@media@modules@UModSys@@USId@23456@U723456@U?$TNodeDeleter0@U?$TScatterArrayNode@USFilter@RLibraryObjFilter@std@media@modules@UModSys@@USId@23456@@tl@UModSys@@@tl@6@@tl@UModSys@@QEAAPEAUSFilter@RLibraryObjFilter@std@media@modules@2@AEBUSId@45672@PEAUVoid@core@2@@Z@4HA 000000014000f12e f    CIL library: CIL module
 0001:0000e14e       ?dtor$1@?0???R?$TScatterArray@USFilter@RLibraryObjFilter@std@media@modules@UModSys@@USId@23456@U723456@U?$TNodeDeleter0@U?$TScatterArrayNode@USFilter@RLibraryObjFilter@std@media@modules@UModSys@@USId@23456@@tl@UModSys@@@tl@6@@tl@UModSys@@QEAAPEAUSFilter@RLibraryObjFilter@std@media@modules@2@AEBUSId@45672@PEAUVoid@core@2@@Z@4HA 000000014000f14e f    CIL library: CIL module
 0001:0000e16e       ?dtor$2@?0???R?$TScatterArray@USFilter@RLibraryObjFilter@std@media@modules@UModSys@@USId@23456@U723456@U?$TNodeDeleter0@U?$TScatterArrayNode@USFilter@RLibraryObjFilter@std@media@modules@UModSys@@USId@23456@@tl@UModSys@@@tl@6@@tl@UModSys@@QEAAPEAUSFilter@RLibraryObjFilter@std@media@modules@2@AEBUSId@45672@PEAUVoid@core@2@@Z@4HA 000000014000f16e f    CIL library: CIL module
 0001:0000e18a       ?dtor$0@?0??filters_add@RLibraryObjFilter@std@media@modules@UModSys@@UEAA_NU?$TRefObject@UIBinObjFilter@libmedia@UModSys@@U?$TRefObjectFunc@UIBinObjFilter@libmedia@UModSys@@@tl@3@@tl@5@PEBUSParameters@core@5@H@Z@4HA 000000014000f18a f    CIL library: CIL module
 0001:0000e1a2       ?dtor$0@?0??bin_writer@RLibraryLayered@std@media@modules@UModSys@@UEAA?AU?$TRefObject@UIStreamWriter@libmedia@UModSys@@U?$TRefObjectFunc@UIStreamWriter@libmedia@UModSys@@@tl@3@@tl@5@AEBU?$TString@U?$TSCoreConst@D@su@tl@UModSys@@U?$TComparerBinaryHash@D@234@@75@AEBUSFlags@libmedia@5@@Z@4HA 000000014000f1a2 f    CIL library: CIL module
 0001:0000e1a2       ?dtor$0@?0??bin_reader@RLibraryLayered@std@media@modules@UModSys@@UEAA?AU?$TRefObject@UIStreamReader@libmedia@UModSys@@U?$TRefObjectFunc@UIStreamReader@libmedia@UModSys@@@tl@3@@tl@5@AEBU?$TString@U?$TSCoreConst@D@su@tl@UModSys@@U?$TComparerBinaryHash@D@234@@75@AEBUSFlags@libmedia@5@@Z@4HA 000000014000f1a2 f    CIL library: CIL module
 0001:0000e1ba       ?dtor$0@?0??bin_reader@RLibraryBinTree@std@media@modules@UModSys@@UEAA?AU?$TRefObject@UIStreamReader@libmedia@UModSys@@U?$TRefObjectFunc@UIStreamReader@libmedia@UModSys@@@tl@3@@tl@5@AEBU?$TString@U?$TSCoreConst@D@su@tl@UModSys@@U?$TComparerBinaryHash@D@234@@75@AEBUSFlags@libmedia@5@@Z@4HA 000000014000f1ba f    CIL library: CIL module
 0001:0000e1ba       ?dtor$0@?0??bin_writer@RLibraryBinTree@std@media@modules@UModSys@@UEAA?AU?$TRefObject@UIStreamWriter@libmedia@UModSys@@U?$TRefObjectFunc@UIStreamWriter@libmedia@UModSys@@@tl@3@@tl@5@AEBU?$TString@U?$TSCoreConst@D@su@tl@UModSys@@U?$TComparerBinaryHash@D@234@@75@AEBUSFlags@libmedia@5@@Z@4HA 000000014000f1ba f    CIL library: CIL module
 0001:0000e1d2       ?dtor$0@?0???$t_gen_param@URStreamWriter_FILE@stdio@media@modules@UModSys@@URGenerator@2345@@IGenerator@base@UModSys@@IEAA_NPEAURGenerator@stdio@media@modules@2@AEAU?$TRefObject@UIRefObject@core@UModSys@@U?$TRefObjectFunc@UIRefObject@core@UModSys@@@tl@3@@tl@2@PEBUSUniquePointerInfo@core@2@AEBUSParameters@core@2@@Z@4HA 000000014000f1d2 f    CIL library: CIL module
 0001:0000e1f2       ?dtor$1@?0???$t_gen_param@URStreamWriter_FILE@stdio@media@modules@UModSys@@URGenerator@2345@@IGenerator@base@UModSys@@IEAA_NPEAURGenerator@stdio@media@modules@2@AEAU?$TRefObject@UIRefObject@core@UModSys@@U?$TRefObjectFunc@UIRefObject@core@UModSys@@@tl@3@@tl@2@PEBUSUniquePointerInfo@core@2@AEBUSParameters@core@2@@Z@4HA 000000014000f1f2 f    CIL library: CIL module
 0001:0000e20a       ?dtor$0@?0??data_writer@RDataArchiver_OsDir@stdio@media@modules@UModSys@@UEAA?AU?$TRefObject@UIStreamWriter@libmedia@UModSys@@U?$TRefObjectFunc@UIStreamWriter@libmedia@UModSys@@@tl@3@@tl@5@AEBU?$TString@U?$TSCoreConst@D@su@tl@UModSys@@U?$TComparerBinaryHash@D@234@@75@AEBUSFlags@libmedia@5@@Z@4HA 000000014000f20a f    CIL library: CIL module
 0001:0000e23a       ?dtor$1@?0??data_writer@RDataArchiver_OsDir@stdio@media@modules@UModSys@@UEAA?AU?$TRefObject@UIStreamWriter@libmedia@UModSys@@U?$TRefObjectFunc@UIStreamWriter@libmedia@UModSys@@@tl@3@@tl@5@AEBU?$TString@U?$TSCoreConst@D@su@tl@UModSys@@U?$TComparerBinaryHash@D@234@@75@AEBUSFlags@libmedia@5@@Z@4HA 000000014000f23a f    CIL library: CIL module
 0001:0000e25a       ?dtor$2@?0??data_writer@RDataArchiver_OsDir@stdio@media@modules@UModSys@@UEAA?AU?$TRefObject@UIStreamWriter@libmedia@UModSys@@U?$TRefObjectFunc@UIStreamWriter@libmedia@UModSys@@@tl@3@@tl@5@AEBU?$TString@U?$TSCoreConst@D@su@tl@UModSys@@U?$TComparerBinaryHash@D@234@@75@AEBUSFlags@libmedia@5@@Z@4HA 000000014000f25a f    CIL library: CIL module
 0001:0000e27a       ?dtor$3@?0??data_writer@RDataArchiver_OsDir@stdio@media@modules@UModSys@@UEAA?AU?$TRefObject@UIStreamWriter@libmedia@UModSys@@U?$TRefObjectFunc@UIStreamWriter@libmedia@UModSys@@@tl@3@@tl@5@AEBU?$TString@U?$TSCoreConst@D@su@tl@UModSys@@U?$TComparerBinaryHash@D@234@@75@AEBUSFlags@libmedia@5@@Z@4HA 000000014000f27a f    CIL library: CIL module
 0001:0000e29a       ?dtor$4@?0??data_writer@RDataArchiver_OsDir@stdio@media@modules@UModSys@@UEAA?AU?$TRefObject@UIStreamWriter@libmedia@UModSys@@U?$TRefObjectFunc@UIStreamWriter@libmedia@UModSys@@@tl@3@@tl@5@AEBU?$TString@U?$TSCoreConst@D@su@tl@UModSys@@U?$TComparerBinaryHash@D@234@@75@AEBUSFlags@libmedia@5@@Z@4HA 000000014000f29a f    CIL library: CIL module
 0001:0000e2b2       ?dtor$0@?0??data_reader@RDataArchiver_OsDir@stdio@media@modules@UModSys@@UEAA?AU?$TRefObject@UIStreamReader@libmedia@UModSys@@U?$TRefObjectFunc@UIStreamReader@libmedia@UModSys@@@tl@3@@tl@5@AEBU?$TString@U?$TSCoreConst@D@su@tl@UModSys@@U?$TComparerBinaryHash@D@234@@75@AEBUSFlags@libmedia@5@@Z@4HA 000000014000f2b2 f    CIL library: CIL module
 0001:0000e2e2       ?dtor$1@?0??data_reader@RDataArchiver_OsDir@stdio@media@modules@UModSys@@UEAA?AU?$TRefObject@UIStreamReader@libmedia@UModSys@@U?$TRefObjectFunc@UIStreamReader@libmedia@UModSys@@@tl@3@@tl@5@AEBU?$TString@U?$TSCoreConst@D@su@tl@UModSys@@U?$TComparerBinaryHash@D@234@@75@AEBUSFlags@libmedia@5@@Z@4HA 000000014000f2e2 f    CIL library: CIL module
 0001:0000e302       ?dtor$2@?0??data_reader@RDataArchiver_OsDir@stdio@media@modules@UModSys@@UEAA?AU?$TRefObject@UIStreamReader@libmedia@UModSys@@U?$TRefObjectFunc@UIStreamReader@libmedia@UModSys@@@tl@3@@tl@5@AEBU?$TString@U?$TSCoreConst@D@su@tl@UModSys@@U?$TComparerBinaryHash@D@234@@75@AEBUSFlags@libmedia@5@@Z@4HA 000000014000f302 f    CIL library: CIL module
 0001:0000e322       ?dtor$3@?0??data_reader@RDataArchiver_OsDir@stdio@media@modules@UModSys@@UEAA?AU?$TRefObject@UIStreamReader@libmedia@UModSys@@U?$TRefObjectFunc@UIStreamReader@libmedia@UModSys@@@tl@3@@tl@5@AEBU?$TString@U?$TSCoreConst@D@su@tl@UModSys@@U?$TComparerBinaryHash@D@234@@75@AEBUSFlags@libmedia@5@@Z@4HA 000000014000f322 f    CIL library: CIL module
 0001:0000e342       ?dtor$4@?0??data_reader@RDataArchiver_OsDir@stdio@media@modules@UModSys@@UEAA?AU?$TRefObject@UIStreamReader@libmedia@UModSys@@U?$TRefObjectFunc@UIStreamReader@libmedia@UModSys@@@tl@3@@tl@5@AEBU?$TString@U?$TSCoreConst@D@su@tl@UModSys@@U?$TComparerBinaryHash@D@234@@75@AEBUSFlags@libmedia@5@@Z@4HA 000000014000f342 f    CIL library: CIL module
 0001:0000e35a       ?dtor$0@?0???0RDataArchiver_OsDir@stdio@media@modules@UModSys@@QEAA@PEAUIModObject@base@4@AEBUSParameters@core@4@U?$TFlags4State@USMediaFlagUid@libmedia@UModSys@@I@tl@4@@Z@4HA 000000014000f35a f    CIL library: CIL module
 0001:0000e37a       ?dtor$1@?0???0RDataArchiver_OsDir@stdio@media@modules@UModSys@@QEAA@PEAUIModObject@base@4@AEBUSParameters@core@4@U?$TFlags4State@USMediaFlagUid@libmedia@UModSys@@I@tl@4@@Z@4HA 000000014000f37a f    CIL library: CIL module
 0001:0000e399       ?dtor$0@?0???_GRDataArchiver_OsDir@stdio@media@modules@UModSys@@UEAAPEAXI@Z@4HA 000000014000f399 f    CIL library: CIL module
 0001:0000e399       ?dtor$0@?0???_GRStreamWriter_FILE@stdio@media@modules@UModSys@@UEAAPEAXI@Z@4HA 000000014000f399 f    CIL library: CIL module
 0001:0000e3b1       ?dtor$0@?0???0RStreamWriter_FILE@stdio@media@modules@UModSys@@QEAA@PEAUIModObject@base@4@AEBUSParameters@core@4@@Z@4HA 000000014000f3b1 f    CIL library: CIL module
 0001:0000e3b1       ?dtor$0@?0???_GRLibraryObjFilter@std@media@modules@UModSys@@UEAAPEAXI@Z@4HA 000000014000f3b1 f    CIL library: CIL module
 0001:0000e3b1       ?dtor$0@?0???0RStreamReader_FILE@stdio@media@modules@UModSys@@QEAA@PEAUIModObject@base@4@AEBUSParameters@core@4@@Z@4HA 000000014000f3b1 f    CIL library: CIL module
 0001:0000e3b1       ?dtor$0@?0???_GRLibraryObjCache@std@media@modules@UModSys@@UEAAPEAXI@Z@4HA 000000014000f3b1 f    CIL library: CIL module
 0001:0000e3b1       ?dtor$0@?0???_GRLibraryBinTree@std@media@modules@UModSys@@UEAAPEAXI@Z@4HA 000000014000f3b1 f    CIL library: CIL module
 0001:0000e3b1       ?dtor$0@?0???_GRLibraryBinCache@std@media@modules@UModSys@@UEAAPEAXI@Z@4HA 000000014000f3b1 f    CIL library: CIL module
 0001:0000e3c9       ?dtor$1@?0??bin_save@RLibraryLayered@std@media@modules@UModSys@@UEAA_NAEBU?$TString@U?$TSCoreConst@D@su@tl@UModSys@@U?$TComparerBinaryHash@D@234@@tl@5@AEBUSCMem@core@5@AEBUSFlags@libmedia@5@@Z@4HA 000000014000f3c9 f    CIL library: CIL module
 0001:0000e3c9       ?dtor$0@?0??obj_save@RLibraryLayered@std@media@modules@UModSys@@UEAA_NAEBU?$TString@U?$TSCoreConst@D@su@tl@UModSys@@U?$TComparerBinaryHash@D@234@@tl@5@PEBUIRefObject@core@5@AEBUSObjOptions@ILibrary@libmedia@5@@Z@4HA 000000014000f3c9 f    CIL library: CIL module
 0001:0000e3e1       ?dtor$0@?0??obj_load@RLibraryLayered@std@media@modules@UModSys@@UEAA_NAEBU?$TString@U?$TSCoreConst@D@su@tl@UModSys@@U?$TComparerBinaryHash@D@234@@tl@5@PEAUIRefObject@core@5@AEBUSObjOptions@ILibrary@libmedia@5@@Z@4HA 000000014000f3e1 f    CIL library: CIL module
 0001:0000e3f9       ?dtor$0@?0???_GRModuleLibrarySO@rsystem@base@UModSys@@UEAAPEAXI@Z@4HA 000000014000f3f9 f    CIL library: CIL module
 0001:0000e3f9       ?dtor$0@?0???_GRModuleLibraryThis@rsystem@base@UModSys@@UEAAPEAXI@Z@4HA 000000014000f3f9 f    CIL library: CIL module
 0001:0000e411       ?dtor$0@?0??link@IModuleLibraryUni@rsystem@base@UModSys@@QEAA_NXZ@4HA 000000014000f411 f    CIL library: CIL module
 0001:0000e431       ?dtor$2@?0??link@IModuleLibraryUni@rsystem@base@UModSys@@QEAA_NXZ@4HA 000000014000f431 f    CIL library: CIL module
 0001:0000e451       ?dtor$3@?0??link@IModuleLibraryUni@rsystem@base@UModSys@@QEAA_NXZ@4HA 000000014000f451 f    CIL library: CIL module
 0001:0000e471       ?dtor$4@?0??link@IModuleLibraryUni@rsystem@base@UModSys@@QEAA_NXZ@4HA 000000014000f471 f    CIL library: CIL module
 0001:0000e491       ?dtor$5@?0??link@IModuleLibraryUni@rsystem@base@UModSys@@QEAA_NXZ@4HA 000000014000f491 f    CIL library: CIL module
 0001:0000e4b0       ?dtor$0@?0??exec_test_shells@RSystem@rsystem@base@UModSys@@QEAA_NXZ@4HA 000000014000f4b0 f    CIL library: CIL module
 0001:0000e4d0       ?dtor$1@?0??exec_test_shells@RSystem@rsystem@base@UModSys@@QEAA_NXZ@4HA 000000014000f4d0 f    CIL library: CIL module
 0001:0000e4f0       ?dtor$3@?0??exec_test_shells@RSystem@rsystem@base@UModSys@@QEAA_NXZ@4HA 000000014000f4f0 f    CIL library: CIL module
 0001:0000e50b       ?dtor$0@?0??generate@RGenerator@stdio@media@modules@UModSys@@UEAA_NAEAU?$TRefObject@UIRefObject@core@UModSys@@U?$TRefObjectFunc@UIRefObject@core@UModSys@@@tl@3@@tl@5@PEBUSUniquePointerInfo@core@5@AEBUSParameters@95@@Z@4HA 000000014000f50b f    CIL library: CIL module
 0001:0000e52b       ?dtor$1@?0??generate@RGenerator@stdio@media@modules@UModSys@@UEAA_NAEAU?$TRefObject@UIRefObject@core@UModSys@@U?$TRefObjectFunc@UIRefObject@core@UModSys@@@tl@3@@tl@5@PEBUSUniquePointerInfo@core@5@AEBUSParameters@95@@Z@4HA 000000014000f52b f    CIL library: CIL module
 0001:0000e54b       ?dtor$2@?0??generate@RGenerator@stdio@media@modules@UModSys@@UEAA_NAEAU?$TRefObject@UIRefObject@core@UModSys@@U?$TRefObjectFunc@UIRefObject@core@UModSys@@@tl@3@@tl@5@PEBUSUniquePointerInfo@core@5@AEBUSParameters@95@@Z@4HA 000000014000f54b f    CIL library: CIL module
 0001:0000e56b       ?dtor$3@?0??generate@RGenerator@stdio@media@modules@UModSys@@UEAA_NAEAU?$TRefObject@UIRefObject@core@UModSys@@U?$TRefObjectFunc@UIRefObject@core@UModSys@@@tl@3@@tl@5@PEBUSUniquePointerInfo@core@5@AEBUSParameters@95@@Z@4HA 000000014000f56b f    CIL library: CIL module
 0001:0000e586       ?dtor$0@?0???0?$TScatterArrayNode@USCacheElem@RLibraryObjCache@std@media@modules@UModSys@@U?$TString@U?$TSCoreConst@D@su@tl@UModSys@@U?$TComparerBinaryHash@D@234@@tl@6@@tl@UModSys@@QEAA@AEBU?$TString@U?$TSCoreConst@D@su@tl@UModSys@@U?$TComparerBinaryHash@D@234@@12@@Z@4HA 000000014000f586 f    CIL library: CIL module
 0001:0000e5a6       ?dtor$3@?0???0?$TScatterArrayNode@USCacheElem@RLibraryObjCache@std@media@modules@UModSys@@U?$TString@U?$TSCoreConst@D@su@tl@UModSys@@U?$TComparerBinaryHash@D@234@@tl@6@@tl@UModSys@@QEAA@AEBU?$TString@U?$TSCoreConst@D@su@tl@UModSys@@U?$TComparerBinaryHash@D@234@@12@@Z@4HA 000000014000f5a6 f    CIL library: CIL module
 0001:0000e5c6       ?dtor$1@?0???0?$TScatterArrayNode@USCacheElem@RLibraryObjCache@std@media@modules@UModSys@@U?$TString@U?$TSCoreConst@D@su@tl@UModSys@@U?$TComparerBinaryHash@D@234@@tl@6@@tl@UModSys@@QEAA@AEBU?$TString@U?$TSCoreConst@D@su@tl@UModSys@@U?$TComparerBinaryHash@D@234@@12@@Z@4HA 000000014000f5c6 f    CIL library: CIL module
 0001:0000e5e6       ?dtor$5@?0???0?$TScatterArrayNode@USCacheElem@RLibraryObjCache@std@media@modules@UModSys@@U?$TString@U?$TSCoreConst@D@su@tl@UModSys@@U?$TComparerBinaryHash@D@234@@tl@6@@tl@UModSys@@QEAA@AEBU?$TString@U?$TSCoreConst@D@su@tl@UModSys@@U?$TComparerBinaryHash@D@234@@12@@Z@4HA 000000014000f5e6 f    CIL library: CIL module
 0001:0000e5fe       ?dtor$0@?0???RGen0@?$TScatterArray@USMountInfo@RLibraryBinTree@std@media@modules@UModSys@@USId@ILibraryBinTree@libmedia@6@U7896@U?$TNodeDeleter0@U?$TScatterArrayNode@USMountInfo@RLibraryBinTree@std@media@modules@UModSys@@USId@ILibraryBinTree@libmedia@6@@tl@UModSys@@@tl@6@@tl@UModSys@@QEBAPEAU?$TScatterArrayNode@USMountInfo@RLibraryBinTree@std@media@modules@UModSys@@USId@ILibraryBinTree@libmedia@6@@23@AEBUCmp@123@AEBU?$TTreeHoldRBD@U?$TScatterArrayNode@USMountInfo@RLibraryBinTree@std@media@modules@UModSys@@USId@ILibraryBinTree@libmedia@6@@tl@UModSys@@U?$TNodeDeleter0@U?$TScatterArrayNode@USMountInfo@RLibraryBinTree@std@media@modules@UModSys@@USId@ILibraryBinTree@libmedia@6@@tl@UModSys@@@23@@23@@Z@4HA 000000014000f5fe f    CIL library: CIL module
 0001:0000e61e       ?dtor$1@?0???RGen0@?$TScatterArray@USMountInfo@RLibraryBinTree@std@media@modules@UModSys@@USId@ILibraryBinTree@libmedia@6@U7896@U?$TNodeDeleter0@U?$TScatterArrayNode@USMountInfo@RLibraryBinTree@std@media@modules@UModSys@@USId@ILibraryBinTree@libmedia@6@@tl@UModSys@@@tl@6@@tl@UModSys@@QEBAPEAU?$TScatterArrayNode@USMountInfo@RLibraryBinTree@std@media@modules@UModSys@@USId@ILibraryBinTree@libmedia@6@@23@AEBUCmp@123@AEBU?$TTreeHoldRBD@U?$TScatterArrayNode@USMountInfo@RLibraryBinTree@std@media@modules@UModSys@@USId@ILibraryBinTree@libmedia@6@@tl@UModSys@@U?$TNodeDeleter0@U?$TScatterArrayNode@USMountInfo@RLibraryBinTree@std@media@modules@UModSys@@USId@ILibraryBinTree@libmedia@6@@tl@UModSys@@@23@@23@@Z@4HA 000000014000f61e f    CIL library: CIL module
 0001:0000e63e       ?dtor$7@?0???RGen0@?$TScatterArray@USMountInfo@RLibraryBinTree@std@media@modules@UModSys@@USId@ILibraryBinTree@libmedia@6@U7896@U?$TNodeDeleter0@U?$TScatterArrayNode@USMountInfo@RLibraryBinTree@std@media@modules@UModSys@@USId@ILibraryBinTree@libmedia@6@@tl@UModSys@@@tl@6@@tl@UModSys@@QEBAPEAU?$TScatterArrayNode@USMountInfo@RLibraryBinTree@std@media@modules@UModSys@@USId@ILibraryBinTree@libmedia@6@@23@AEBUCmp@123@AEBU?$TTreeHoldRBD@U?$TScatterArrayNode@USMountInfo@RLibraryBinTree@std@media@modules@UModSys@@USId@ILibraryBinTree@libmedia@6@@tl@UModSys@@U?$TNodeDeleter0@U?$TScatterArrayNode@USMountInfo@RLibraryBinTree@std@media@modules@UModSys@@USId@ILibraryBinTree@libmedia@6@@tl@UModSys@@@23@@23@@Z@4HA 000000014000f63e f    CIL library: CIL module
 0001:0000e65e       ?dtor$2@?0???RGen0@?$TScatterArray@USMountInfo@RLibraryBinTree@std@media@modules@UModSys@@USId@ILibraryBinTree@libmedia@6@U7896@U?$TNodeDeleter0@U?$TScatterArrayNode@USMountInfo@RLibraryBinTree@std@media@modules@UModSys@@USId@ILibraryBinTree@libmedia@6@@tl@UModSys@@@tl@6@@tl@UModSys@@QEBAPEAU?$TScatterArrayNode@USMountInfo@RLibraryBinTree@std@media@modules@UModSys@@USId@ILibraryBinTree@libmedia@6@@23@AEBUCmp@123@AEBU?$TTreeHoldRBD@U?$TScatterArrayNode@USMountInfo@RLibraryBinTree@std@media@modules@UModSys@@USId@ILibraryBinTree@libmedia@6@@tl@UModSys@@U?$TNodeDeleter0@U?$TScatterArrayNode@USMountInfo@RLibraryBinTree@std@media@modules@UModSys@@USId@ILibraryBinTree@libmedia@6@@tl@UModSys@@@23@@23@@Z@4HA 000000014000f65e f    CIL library: CIL module
 0001:0000e67e       ?dtor$10@?0???RGen0@?$TScatterArray@USMountInfo@RLibraryBinTree@std@media@modules@UModSys@@USId@ILibraryBinTree@libmedia@6@U7896@U?$TNodeDeleter0@U?$TScatterArrayNode@USMountInfo@RLibraryBinTree@std@media@modules@UModSys@@USId@ILibraryBinTree@libmedia@6@@tl@UModSys@@@tl@6@@tl@UModSys@@QEBAPEAU?$TScatterArrayNode@USMountInfo@RLibraryBinTree@std@media@modules@UModSys@@USId@ILibraryBinTree@libmedia@6@@23@AEBUCmp@123@AEBU?$TTreeHoldRBD@U?$TScatterArrayNode@USMountInfo@RLibraryBinTree@std@media@modules@UModSys@@USId@ILibraryBinTree@libmedia@6@@tl@UModSys@@U?$TNodeDeleter0@U?$TScatterArrayNode@USMountInfo@RLibraryBinTree@std@media@modules@UModSys@@USId@ILibraryBinTree@libmedia@6@@tl@UModSys@@@23@@23@@Z@4HA 000000014000f67e f    CIL library: CIL module
 0001:0000e696       ?dtor$0@?0???$t_gen_param@URLibraryLayered@std@media@modules@UModSys@@URGenerator@2345@@IGenerator@base@UModSys@@IEAA_NPEAURGenerator@std@media@modules@2@AEAU?$TRefObject@UIRefObject@core@UModSys@@U?$TRefObjectFunc@UIRefObject@core@UModSys@@@tl@3@@tl@2@PEBUSUniquePointerInfo@core@2@AEBUSParameters@core@2@@Z@4HA 000000014000f696 f    CIL library: CIL module
 0001:0000e696       ?dtor$0@?0???$t_gen_param@URLibraryObjFilter@std@media@modules@UModSys@@URGenerator@2345@@IGenerator@base@UModSys@@IEAA_NPEAURGenerator@std@media@modules@2@AEAU?$TRefObject@UIRefObject@core@UModSys@@U?$TRefObjectFunc@UIRefObject@core@UModSys@@@tl@3@@tl@2@PEBUSUniquePointerInfo@core@2@AEBUSParameters@core@2@@Z@4HA 000000014000f696 f    CIL library: CIL module
 0001:0000e696       ?dtor$0@?0???$t_gen_param@URLibraryBinTree@std@media@modules@UModSys@@URGenerator@2345@@IGenerator@base@UModSys@@IEAA_NPEAURGenerator@std@media@modules@2@AEAU?$TRefObject@UIRefObject@core@UModSys@@U?$TRefObjectFunc@UIRefObject@core@UModSys@@@tl@3@@tl@2@PEBUSUniquePointerInfo@core@2@AEBUSParameters@core@2@@Z@4HA 000000014000f696 f    CIL library: CIL module
 0001:0000e696       ?dtor$0@?0???$t_gen_param@URLibraryObjCache@std@media@modules@UModSys@@URGenerator@2345@@IGenerator@base@UModSys@@IEAA_NPEAURGenerator@std@media@modules@2@AEAU?$TRefObject@UIRefObject@core@UModSys@@U?$TRefObjectFunc@UIRefObject@core@UModSys@@@tl@3@@tl@2@PEBUSUniquePointerInfo@core@2@AEBUSParameters@core@2@@Z@4HA 000000014000f696 f    CIL library: CIL module
 0001:0000e6b6       ?dtor$1@?0???$t_gen_param@URLibraryLayered@std@media@modules@UModSys@@URGenerator@2345@@IGenerator@base@UModSys@@IEAA_NPEAURGenerator@std@media@modules@2@AEAU?$TRefObject@UIRefObject@core@UModSys@@U?$TRefObjectFunc@UIRefObject@core@UModSys@@@tl@3@@tl@2@PEBUSUniquePointerInfo@core@2@AEBUSParameters@core@2@@Z@4HA 000000014000f6b6 f    CIL library: CIL module
 0001:0000e6b6       ?dtor$1@?0???$t_gen_param@URLibraryObjCache@std@media@modules@UModSys@@URGenerator@2345@@IGenerator@base@UModSys@@IEAA_NPEAURGenerator@std@media@modules@2@AEAU?$TRefObject@UIRefObject@core@UModSys@@U?$TRefObjectFunc@UIRefObject@core@UModSys@@@tl@3@@tl@2@PEBUSUniquePointerInfo@core@2@AEBUSParameters@core@2@@Z@4HA 000000014000f6b6 f    CIL library: CIL module
 0001:0000e6b6       ?dtor$1@?0???$t_gen_param@URLibraryObjFilter@std@media@modules@UModSys@@URGenerator@2345@@IGenerator@base@UModSys@@IEAA_NPEAURGenerator@std@media@modules@2@AEAU?$TRefObject@UIRefObject@core@UModSys@@U?$TRefObjectFunc@UIRefObject@core@UModSys@@@tl@3@@tl@2@PEBUSUniquePointerInfo@core@2@AEBUSParameters@core@2@@Z@4HA 000000014000f6b6 f    CIL library: CIL module
 0001:0000e6b6       ?dtor$1@?0???$t_gen_param@URLibraryBinTree@std@media@modules@UModSys@@URGenerator@2345@@IGenerator@base@UModSys@@IEAA_NPEAURGenerator@std@media@modules@2@AEAU?$TRefObject@UIRefObject@core@UModSys@@U?$TRefObjectFunc@UIRefObject@core@UModSys@@@tl@3@@tl@2@PEBUSUniquePointerInfo@core@2@AEBUSParameters@core@2@@Z@4HA 000000014000f6b6 f    CIL library: CIL module
 0001:0000e6d6       ?dtor$3@?0???$t_gen_param@URLibraryObjFilter@std@media@modules@UModSys@@URGenerator@2345@@IGenerator@base@UModSys@@IEAA_NPEAURGenerator@std@media@modules@2@AEAU?$TRefObject@UIRefObject@core@UModSys@@U?$TRefObjectFunc@UIRefObject@core@UModSys@@@tl@3@@tl@2@PEBUSUniquePointerInfo@core@2@AEBUSParameters@core@2@@Z@4HA 000000014000f6d6 f    CIL library: CIL module
 0001:0000e6d6       ?dtor$3@?0???$t_gen_param@URLibraryObjCache@std@media@modules@UModSys@@URGenerator@2345@@IGenerator@base@UModSys@@IEAA_NPEAURGenerator@std@media@modules@2@AEAU?$TRefObject@UIRefObject@core@UModSys@@U?$TRefObjectFunc@UIRefObject@core@UModSys@@@tl@3@@tl@2@PEBUSUniquePointerInfo@core@2@AEBUSParameters@core@2@@Z@4HA 000000014000f6d6 f    CIL library: CIL module
 0001:0000e6d6       ?dtor$3@?0???$t_gen_param@URLibraryLayered@std@media@modules@UModSys@@URGenerator@2345@@IGenerator@base@UModSys@@IEAA_NPEAURGenerator@std@media@modules@2@AEAU?$TRefObject@UIRefObject@core@UModSys@@U?$TRefObjectFunc@UIRefObject@core@UModSys@@@tl@3@@tl@2@PEBUSUniquePointerInfo@core@2@AEBUSParameters@core@2@@Z@4HA 000000014000f6d6 f    CIL library: CIL module
 0001:0000e6d6       ?dtor$3@?0???$t_gen_param@URLibraryBinTree@std@media@modules@UModSys@@URGenerator@2345@@IGenerator@base@UModSys@@IEAA_NPEAURGenerator@std@media@modules@2@AEAU?$TRefObject@UIRefObject@core@UModSys@@U?$TRefObjectFunc@UIRefObject@core@UModSys@@@tl@3@@tl@2@PEBUSUniquePointerInfo@core@2@AEBUSParameters@core@2@@Z@4HA 000000014000f6d6 f    CIL library: CIL module
 0001:0000e6ee       ?dtor$0@?0???R?$TScatterArray@USCacheElem@RLibraryObjCache@std@media@modules@UModSys@@U?$TString@U?$TSCoreConst@D@su@tl@UModSys@@U?$TComparerBinaryHash@D@234@@tl@6@U?$TObjectCompare@U?$TString@U?$TSCoreConst@D@su@tl@UModSys@@U?$TComparerBinaryHash@D@234@@tl@UModSys@@@core@6@U?$TNodeDeleter0@U?$TScatterArrayNode@USCacheElem@RLibraryObjCache@std@media@modules@UModSys@@U?$TString@U?$TSCoreConst@D@su@tl@UModSys@@U?$TComparerBinaryHash@D@234@@tl@6@@tl@UModSys@@@86@@tl@UModSys@@QEAAPEAUSCacheElem@RLibraryObjCache@std@media@modules@2@AEBU?$TString@U?$TSCoreConst@D@su@tl@UModSys@@U?$TComparerBinaryHash@D@234@@12@PEAUVoid@core@2@@Z@4HA 000000014000f6ee f    CIL library: CIL module
 0001:0000e70a       ?dtor$0@?0???R?$TScatterArray@USCacheElem@RLibraryBinCache@std@media@modules@UModSys@@U?$TString@U?$TSCoreConst@D@su@tl@UModSys@@U?$TComparerBinaryHash@D@234@@tl@6@U?$TObjectCompare@U?$TString@U?$TSCoreConst@D@su@tl@UModSys@@U?$TComparerBinaryHash@D@234@@tl@UModSys@@@core@6@U?$TNodeDeleter0@U?$TScatterArrayNode@USCacheElem@RLibraryBinCache@std@media@modules@UModSys@@U?$TString@U?$TSCoreConst@D@su@tl@UModSys@@U?$TComparerBinaryHash@D@234@@tl@6@@tl@UModSys@@@86@@tl@UModSys@@QEAAPEAUSCacheElem@RLibraryBinCache@std@media@modules@2@AEBU?$TString@U?$TSCoreConst@D@su@tl@UModSys@@U?$TComparerBinaryHash@D@234@@12@PEAUVoid@core@2@@Z@4HA 000000014000f70a f    CIL library: CIL module
 0001:0000e72a       ?dtor$1@?0???R?$TScatterArray@USCacheElem@RLibraryBinCache@std@media@modules@UModSys@@U?$TString@U?$TSCoreConst@D@su@tl@UModSys@@U?$TComparerBinaryHash@D@234@@tl@6@U?$TObjectCompare@U?$TString@U?$TSCoreConst@D@su@tl@UModSys@@U?$TComparerBinaryHash@D@234@@tl@UModSys@@@core@6@U?$TNodeDeleter0@U?$TScatterArrayNode@USCacheElem@RLibraryBinCache@std@media@modules@UModSys@@U?$TString@U?$TSCoreConst@D@su@tl@UModSys@@U?$TComparerBinaryHash@D@234@@tl@6@@tl@UModSys@@@86@@tl@UModSys@@QEAAPEAUSCacheElem@RLibraryBinCache@std@media@modules@2@AEBU?$TString@U?$TSCoreConst@D@su@tl@UModSys@@U?$TComparerBinaryHash@D@234@@12@PEAUVoid@core@2@@Z@4HA 000000014000f72a f    CIL library: CIL module
 0001:0000e74a       ?dtor$2@?0???R?$TScatterArray@USCacheElem@RLibraryBinCache@std@media@modules@UModSys@@U?$TString@U?$TSCoreConst@D@su@tl@UModSys@@U?$TComparerBinaryHash@D@234@@tl@6@U?$TObjectCompare@U?$TString@U?$TSCoreConst@D@su@tl@UModSys@@U?$TComparerBinaryHash@D@234@@tl@UModSys@@@core@6@U?$TNodeDeleter0@U?$TScatterArrayNode@USCacheElem@RLibraryBinCache@std@media@modules@UModSys@@U?$TString@U?$TSCoreConst@D@su@tl@UModSys@@U?$TComparerBinaryHash@D@234@@tl@6@@tl@UModSys@@@86@@tl@UModSys@@QEAAPEAUSCacheElem@RLibraryBinCache@std@media@modules@2@AEBU?$TString@U?$TSCoreConst@D@su@tl@UModSys@@U?$TComparerBinaryHash@D@234@@12@PEAUVoid@core@2@@Z@4HA 000000014000f74a f    CIL library: CIL module
 0001:0000e766       ?dtor$1@?0??bincache_add@RLibraryBinCache@std@media@modules@UModSys@@QEAA_NAEBU?$TString@U?$TSCoreConst@D@su@tl@UModSys@@U?$TComparerBinaryHash@D@234@@tl@5@AEBUSCMemShared@core@5@_N@Z@4HA 000000014000f766 f    CIL library: CIL module
 0001:0000e766       ?dtor$1@?0??objcache_add@RLibraryObjCache@std@media@modules@UModSys@@UEAA_NAEBU?$TString@U?$TSCoreConst@D@su@tl@UModSys@@U?$TComparerBinaryHash@D@234@@tl@5@PEAUIRefObject@core@5@@Z@4HA 000000014000f766 f    CIL library: CIL module
 0001:0000e766       ?dtor$1@?0??mount_add@RLibraryBinTree@std@media@modules@UModSys@@UEAA_NAEBUSId@ILibraryBinTree@libmedia@5@AEBUSPoint@785@@Z@4HA 000000014000f766 f    CIL library: CIL module
 0001:0000e786       ?dtor$0@?0??bincache_add@RLibraryBinCache@std@media@modules@UModSys@@QEAA_NAEBU?$TString@U?$TSCoreConst@D@su@tl@UModSys@@U?$TComparerBinaryHash@D@234@@tl@5@AEBUSCMemShared@core@5@_N@Z@4HA 000000014000f786 f    CIL library: CIL module
 0001:0000e786       ?dtor$0@?0??mount_add@RLibraryBinTree@std@media@modules@UModSys@@UEAA_NAEBUSId@ILibraryBinTree@libmedia@5@AEBUSPoint@785@@Z@4HA 000000014000f786 f    CIL library: CIL module
 0001:0000e786       ?dtor$0@?0??objcache_add@RLibraryObjCache@std@media@modules@UModSys@@UEAA_NAEBU?$TString@U?$TSCoreConst@D@su@tl@UModSys@@U?$TComparerBinaryHash@D@234@@tl@5@PEAUIRefObject@core@5@@Z@4HA 000000014000f786 f    CIL library: CIL module
 0001:0000e79e       ?dtor$0@?0??obj_get@RLibraryLayered@std@media@modules@UModSys@@UEAA_NAEBU?$TString@U?$TSCoreConst@D@su@tl@UModSys@@U?$TComparerBinaryHash@D@234@@tl@5@AEAU?$TRefObject@UIRefObject@core@UModSys@@U?$TRefObjectFunc@UIRefObject@core@UModSys@@@tl@3@@75@AEBUSObjOptions@ILibrary@libmedia@5@@Z@4HA 000000014000f79e f    CIL library: CIL module
 0001:0000e79e       ?dtor$0@?0??bincache_add@RLibraryBinCache@std@media@modules@UModSys@@UEAA_NAEBU?$TString@U?$TSCoreConst@D@su@tl@UModSys@@U?$TComparerBinaryHash@D@234@@tl@5@@Z@4HA 000000014000f79e f    CIL library: CIL module
 0001:0000e7b6       ?dtor$0@?0??mem_free@?$TRMemAlloc_CC@U?$TMemAllocHeader@USMagic@mem_headers@rsystem@base@UModSys@@U?$TPool@X@2345@USDebug@2345@UVoid@core@5@U895@@rsystem@base@UModSys@@USMemAlloc_Malloc@core@4@@rsystem@base@UModSys@@UEAAXPEAXPEBUSSourceContext@core@4@@Z@4HA 000000014000f7b6 f    CIL library: CIL module
 0001:0000e7ce       ?dtor$0@?0??mem_realloc@?$TRMemAlloc_CC@U?$TMemAllocHeader@USMagic@mem_headers@rsystem@base@UModSys@@U?$TPool@X@2345@USDebug@2345@UVoid@core@5@U895@@rsystem@base@UModSys@@USMemAlloc_Malloc@core@4@@rsystem@base@UModSys@@UEAAPEAXPEAX_KPEBUSSourceContext@core@4@@Z@4HA 000000014000f7ce f    CIL library: CIL module
 0001:0000e7ee       ?dtor$1@?0??mem_realloc@?$TRMemAlloc_CC@U?$TMemAllocHeader@USMagic@mem_headers@rsystem@base@UModSys@@U?$TPool@X@2345@USDebug@2345@UVoid@core@5@U895@@rsystem@base@UModSys@@USMemAlloc_Malloc@core@4@@rsystem@base@UModSys@@UEAAPEAXPEAX_KPEBUSSourceContext@core@4@@Z@4HA 000000014000f7ee f    CIL library: CIL module
 0001:0000e806       ?dtor$0@?0??generate@RGenerator@std@media@modules@UModSys@@UEAA_NAEAU?$TRefObject@UIRefObject@core@UModSys@@U?$TRefObjectFunc@UIRefObject@core@UModSys@@@tl@3@@tl@5@PEBUSUniquePointerInfo@core@5@AEBUSParameters@95@@Z@4HA 000000014000f806 f    CIL library: CIL module
 0001:0000e826       ?dtor$1@?0??generate@RGenerator@std@media@modules@UModSys@@UEAA_NAEAU?$TRefObject@UIRefObject@core@UModSys@@U?$TRefObjectFunc@UIRefObject@core@UModSys@@@tl@3@@tl@5@PEBUSUniquePointerInfo@core@5@AEBUSParameters@95@@Z@4HA 000000014000f826 f    CIL library: CIL module
 0001:0000e846       ?dtor$3@?0??generate@RGenerator@std@media@modules@UModSys@@UEAA_NAEAU?$TRefObject@UIRefObject@core@UModSys@@U?$TRefObjectFunc@UIRefObject@core@UModSys@@@tl@3@@tl@5@PEBUSUniquePointerInfo@core@5@AEBUSParameters@95@@Z@4HA 000000014000f846 f    CIL library: CIL module
 0001:0000e85e       ?dtor$1@?0??s_add@RModuleLibrarySO@rsystem@base@UModSys@@SA_NPEAUISystem@34@AEAU?$TDynarrayDynamic@U?$TRefObject@URModuleLibrarySO@rsystem@base@UModSys@@U?$TRefObjectFunc@URModuleLibrarySO@rsystem@base@UModSys@@@tl@4@@tl@UModSys@@U?$TAllocator@USMemAlloc_Malloc@core@UModSys@@USCountCalcPower2@23@@23@@tl@4@PEBD@Z@4HA 000000014000f85e f    CIL library: CIL module
 0001:0000e87c       ??__E?s_id@?$TObjectUniqueID@UIRoot@core@UModSys@@@tl@UModSys@@2USUniquePointer@core@3@A@@YAXXZ 000000014000f87c f    CIL library: CIL module
 0001:0000e8b0       ??__E?s_id@?$TObjectUniqueID@UIRefObject@core@UModSys@@@tl@UModSys@@2USUniquePointer@core@3@A@@YAXXZ 000000014000f8b0 f    CIL library: CIL module
 0001:0000e8e4       ??__E?s_id@?$TObjectUniqueID@UIParameters@core@UModSys@@@tl@UModSys@@2USUniquePointer@core@3@A@@YAXXZ 000000014000f8e4 f    CIL library: CIL module
 0001:0000e918       ??__E?s_id@?$TObjectUniqueID@UIModule@base@UModSys@@@tl@UModSys@@2USUniquePointer@core@3@A@@YAXXZ 000000014000f918 f    CIL library: CIL module
 0001:0000e94c       ??__E?s_id@?$TObjectUniqueID@UIModuleLibrary@base@UModSys@@@tl@UModSys@@2USUniquePointer@core@3@A@@YAXXZ 000000014000f94c f    CIL library: CIL module
 0001:0000e980       ??__E?s_id@?$TObjectUniqueID@UIModObject@base@UModSys@@@tl@UModSys@@2USUniquePointer@core@3@A@@YAXXZ 000000014000f980 f    CIL library: CIL module
 0001:0000e9b4       ??__E?s_id@?$TObjectUniqueID@UIGenerator@base@UModSys@@@tl@UModSys@@2USUniquePointer@core@3@A@@YAXXZ 000000014000f9b4 f    CIL library: CIL module
 0001:0000e9e8       ??__E?s_id@?$TObjectUniqueID@UIShell@base@UModSys@@@tl@UModSys@@2USUniquePointer@core@3@A@@YAXXZ 000000014000f9e8 f    CIL library: CIL module
 0001:0000ea1c       ??__E?s_id@?$TObjectUniqueID@UIConsole@base@UModSys@@@tl@UModSys@@2USUniquePointer@core@3@A@@YAXXZ 000000014000fa1c f    CIL library: CIL module
 0001:0000ea50       ??__E?s_id@?$TObjectUniqueID@UISystem@base@UModSys@@@tl@UModSys@@2USUniquePointer@core@3@A@@YAXXZ 000000014000fa50 f    CIL library: CIL module
 0001:0000ea84       ??__E?s_id@?$TObjectUniqueID@URModule@rsystem@base@UModSys@@@tl@UModSys@@2USUniquePointer@core@3@A@@YAXXZ 000000014000fa84 f    CIL library: CIL module
 0001:0000eab8       ??__E?s_id@?$TObjectUniqueID@UIModuleLibraryUni@rsystem@base@UModSys@@@tl@UModSys@@2USUniquePointer@core@3@A@@YAXXZ 000000014000fab8 f    CIL library: CIL module
 0001:0000eaec       ??__E?s_id@?$TObjectUniqueID@URModuleLibrarySO@rsystem@base@UModSys@@@tl@UModSys@@2USUniquePointer@core@3@A@@YAXXZ 000000014000faec f    CIL library: CIL module
 0001:0000eb20       ??__E?s_id@?$TObjectUniqueID@URModuleLibraryThis@rsystem@base@UModSys@@@tl@UModSys@@2USUniquePointer@core@3@A@@YAXXZ 000000014000fb20 f    CIL library: CIL module
 0001:0000eb54       ??__E?s_id@?$TObjectUniqueID@URParameters@rsystem@base@UModSys@@@tl@UModSys@@2USUniquePointer@core@3@A@@YAXXZ 000000014000fb54 f    CIL library: CIL module
 0001:0000eb88       ??__E?s_id@?$TObjectUniqueID@URSystem@rsystem@base@UModSys@@@tl@UModSys@@2USUniquePointer@core@3@A@@YAXXZ 000000014000fb88 f    CIL library: CIL module
 0001:0000ebbc       ??__E?s_id@?$TObjectUniqueID@URConsole_std@rsystem@base@UModSys@@@tl@UModSys@@2USUniquePointer@core@3@A@@YAXXZ 000000014000fbbc f    CIL library: CIL module
 0001:0000ebf0       ??__E?s_modreg@RModuleReg@std@media@modules@UModSys@@2U12345@A@@YAXXZ 000000014000fbf0 f    CIL library: CIL module
 0001:0000eca8       ??__E?s_modreg_chain@RModuleReg@std@media@modules@UModSys@@2USModuleRegChain@base@5@A@@YAXXZ 000000014000fca8 f    CIL library: CIL module
 0001:0000ece8       ??__E?s_uid@RGenerator@std@media@modules@UModSys@@2USUniquePointer@core@5@A@@YAXXZ 000000014000fce8 f    CIL library: CIL module
 0001:0000ed1c       ??__E?s_id@?$TObjectUniqueID@UIStreamReader@libmedia@UModSys@@@tl@UModSys@@2USUniquePointer@core@3@A@@YAXXZ 000000014000fd1c f    CIL library: CIL module
 0001:0000ed50       ??__E?s_id@?$TObjectUniqueID@UIStreamWriter@libmedia@UModSys@@@tl@UModSys@@2USUniquePointer@core@3@A@@YAXXZ 000000014000fd50 f    CIL library: CIL module
 0001:0000ed84       ??__E?s_id@?$TObjectUniqueID@UIBinArchive@libmedia@UModSys@@@tl@UModSys@@2USUniquePointer@core@3@A@@YAXXZ 000000014000fd84 f    CIL library: CIL module
 0001:0000edb8       ??__E?s_id@?$TObjectUniqueID@UIBinObjFilter@libmedia@UModSys@@@tl@UModSys@@2USUniquePointer@core@3@A@@YAXXZ 000000014000fdb8 f    CIL library: CIL module
 0001:0000edec       ??__E?s_id@?$TObjectUniqueID@UILibrary@libmedia@UModSys@@@tl@UModSys@@2USUniquePointer@core@3@A@@YAXXZ 000000014000fdec f    CIL library: CIL module
 0001:0000ee20       ??__E?s_id@?$TObjectUniqueID@UILibraryBinTree@libmedia@UModSys@@@tl@UModSys@@2USUniquePointer@core@3@A@@YAXXZ 000000014000fe20 f    CIL library: CIL module
 0001:0000ee54       ??__E?s_id@?$TObjectUniqueID@UILibraryBinCache@libmedia@UModSys@@@tl@UModSys@@2USUniquePointer@core@3@A@@YAXXZ 000000014000fe54 f    CIL library: CIL module
 0001:0000ee88       ??__E?s_id@?$TObjectUniqueID@UILibraryObjFilter@libmedia@UModSys@@@tl@UModSys@@2USUniquePointer@core@3@A@@YAXXZ 000000014000fe88 f    CIL library: CIL module
 0001:0000eebc       ??__E?s_id@?$TObjectUniqueID@UILibraryObjCache@libmedia@UModSys@@@tl@UModSys@@2USUniquePointer@core@3@A@@YAXXZ 000000014000febc f    CIL library: CIL module
 0001:0000eef0       ??__E?s_id@?$TObjectUniqueID@UILibraryLayered@libmedia@UModSys@@@tl@UModSys@@2USUniquePointer@core@3@A@@YAXXZ 000000014000fef0 f    CIL library: CIL module
 0001:0000ef24       ??__E?s_id@?$TObjectUniqueID@URLibraryBinCache@std@media@modules@UModSys@@@tl@UModSys@@2USUniquePointer@core@3@A@@YAXXZ 000000014000ff24 f    CIL library: CIL module
 0001:0000ef58       ??__E?s_id@?$TObjectUniqueID@URLibraryBinTree@std@media@modules@UModSys@@@tl@UModSys@@2USUniquePointer@core@3@A@@YAXXZ 000000014000ff58 f    CIL library: CIL module
 0001:0000ef8c       ??__E?s_id@?$TObjectUniqueID@URLibraryLayered@std@media@modules@UModSys@@@tl@UModSys@@2USUniquePointer@core@3@A@@YAXXZ 000000014000ff8c f    CIL library: CIL module
 0001:0000efc0       ??__E?s_id@?$TObjectUniqueID@URLibraryObjCache@std@media@modules@UModSys@@@tl@UModSys@@2USUniquePointer@core@3@A@@YAXXZ 000000014000ffc0 f    CIL library: CIL module
 0001:0000eff4       ??__E?s_id@?$TObjectUniqueID@URLibraryObjFilter@std@media@modules@UModSys@@@tl@UModSys@@2USUniquePointer@core@3@A@@YAXXZ 000000014000fff4 f    CIL library: CIL module
 0001:0000f028       ??__E?s_id@?$TObjectUniqueID@URGenerator@std@media@modules@UModSys@@@tl@UModSys@@2USUniquePointer@core@3@A@@YAXXZ 0000000140010028 f    CIL library: CIL module
 0001:0000f05c       ??__E?s_modreg@RModuleReg@stdio@media@modules@UModSys@@2U12345@A@@YAXXZ 000000014001005c f    CIL library: CIL module
 0001:0000f114       ??__E?s_modreg_chain@RModuleReg@stdio@media@modules@UModSys@@2USModuleRegChain@base@5@A@@YAXXZ 0000000140010114 f    CIL library: CIL module
 0001:0000f154       ??__E?s_uid@RGenerator@stdio@media@modules@UModSys@@2USUniquePointer@core@5@A@@YAXXZ 0000000140010154 f    CIL library: CIL module
 0001:0000f188       ??__E?s_id@?$TObjectUniqueID@URStreamReader_FILE@stdio@media@modules@UModSys@@@tl@UModSys@@2USUniquePointer@core@3@A@@YAXXZ 0000000140010188 f    CIL library: CIL module
 0001:0000f1bc       ??__E?s_id@?$TObjectUniqueID@URStreamWriter_FILE@stdio@media@modules@UModSys@@@tl@UModSys@@2USUniquePointer@core@3@A@@YAXXZ 00000001400101bc f    CIL library: CIL module
 0001:0000f1f0       ??__E?s_id@?$TObjectUniqueID@URDataArchiver_OsDir@stdio@media@modules@UModSys@@@tl@UModSys@@2USUniquePointer@core@3@A@@YAXXZ 00000001400101f0 f    CIL library: CIL module
 0001:0000f224       ??__E?s_id@?$TObjectUniqueID@URGenerator@stdio@media@modules@UModSys@@@tl@UModSys@@2USUniquePointer@core@3@A@@YAXXZ 0000000140010224 f    CIL library: CIL module
 0001:0000f258       ??__E?s_console@RConsole_std@rsystem@base@UModSys@@2U1234@A@@YAXXZ 0000000140010258 f    CIL library: CIL module
 0001:0000f264       ??__E?s_sys@RSystem@rsystem@base@UModSys@@2U1234@A@@YAXXZ 0000000140010264 f    CIL library: CIL module
 0001:0000f270       ??__Ersys_dbg@rsystem@base@UModSys@@YAXXZ 0000000140010270 f    CIL library: CIL module
 0001:0000f27c       ??__EM@UModSys@@YAXXZ      000000014001027c f    CIL library: CIL module
 0001:0000f288       ??__E?root@SModuleRegChain@base@UModSys@@2U123@A@@YAXXZ 0000000140010288 f    CIL library: CIL module
 0001:0000f294       ??__E?s_library@RModuleLibraryReg_Chain@base@UModSys@@2U123@A@@YAXXZ 0000000140010294 f    CIL library: CIL module
 0001:0000f2a0       ??__E?root@SUniquePointer@core@UModSys@@2U123@A@@YAXXZ 00000001400102a0 f    CIL library: CIL module
 0001:0000f2ac       ??__F?s_id@?$TObjectUniqueID@URConsole_std@rsystem@base@UModSys@@@tl@UModSys@@2USUniquePointer@core@3@A@@YAXXZ 00000001400102ac f    CIL library: CIL module
 0001:0000f2b8       ??__F?s_id@?$TObjectUniqueID@URSystem@rsystem@base@UModSys@@@tl@UModSys@@2USUniquePointer@core@3@A@@YAXXZ 00000001400102b8 f    CIL library: CIL module
 0001:0000f2c4       ??__F?s_id@?$TObjectUniqueID@URParameters@rsystem@base@UModSys@@@tl@UModSys@@2USUniquePointer@core@3@A@@YAXXZ 00000001400102c4 f    CIL library: CIL module
 0001:0000f2d0       ??__F?s_id@?$TObjectUniqueID@URModuleLibraryThis@rsystem@base@UModSys@@@tl@UModSys@@2USUniquePointer@core@3@A@@YAXXZ 00000001400102d0 f    CIL library: CIL module
 0001:0000f2dc       ??__F?s_id@?$TObjectUniqueID@URModuleLibrarySO@rsystem@base@UModSys@@@tl@UModSys@@2USUniquePointer@core@3@A@@YAXXZ 00000001400102dc f    CIL library: CIL module
 0001:0000f2e8       ??__F?s_id@?$TObjectUniqueID@UIModuleLibraryUni@rsystem@base@UModSys@@@tl@UModSys@@2USUniquePointer@core@3@A@@YAXXZ 00000001400102e8 f    CIL library: CIL module
 0001:0000f2f4       ??__F?s_id@?$TObjectUniqueID@URModule@rsystem@base@UModSys@@@tl@UModSys@@2USUniquePointer@core@3@A@@YAXXZ 00000001400102f4 f    CIL library: CIL module
 0001:0000f300       ??__F?s_id@?$TObjectUniqueID@UISystem@base@UModSys@@@tl@UModSys@@2USUniquePointer@core@3@A@@YAXXZ 0000000140010300 f    CIL library: CIL module
 0001:0000f30c       ??__F?s_id@?$TObjectUniqueID@UIConsole@base@UModSys@@@tl@UModSys@@2USUniquePointer@core@3@A@@YAXXZ 000000014001030c f    CIL library: CIL module
 0001:0000f318       ??__F?s_id@?$TObjectUniqueID@UIShell@base@UModSys@@@tl@UModSys@@2USUniquePointer@core@3@A@@YAXXZ 0000000140010318 f    CIL library: CIL module
 0001:0000f324       ??__F?s_id@?$TObjectUniqueID@UIGenerator@base@UModSys@@@tl@UModSys@@2USUniquePointer@core@3@A@@YAXXZ 0000000140010324 f    CIL library: CIL module
 0001:0000f330       ??__F?s_id@?$TObjectUniqueID@UIModObject@base@UModSys@@@tl@UModSys@@2USUniquePointer@core@3@A@@YAXXZ 0000000140010330 f    CIL library: CIL module
 0001:0000f33c       ??__F?s_id@?$TObjectUniqueID@UIModuleLibrary@base@UModSys@@@tl@UModSys@@2USUniquePointer@core@3@A@@YAXXZ 000000014001033c f    CIL library: CIL module
 0001:0000f348       ??__F?s_id@?$TObjectUniqueID@UIModule@base@UModSys@@@tl@UModSys@@2USUniquePointer@core@3@A@@YAXXZ 0000000140010348 f    CIL library: CIL module
 0001:0000f354       ??__F?s_id@?$TObjectUniqueID@UIParameters@core@UModSys@@@tl@UModSys@@2USUniquePointer@core@3@A@@YAXXZ 0000000140010354 f    CIL library: CIL module
 0001:0000f360       ??__F?s_id@?$TObjectUniqueID@UIRefObject@core@UModSys@@@tl@UModSys@@2USUniquePointer@core@3@A@@YAXXZ 0000000140010360 f    CIL library: CIL module
 0001:0000f36c       ??__F?s_id@?$TObjectUniqueID@UIRoot@core@UModSys@@@tl@UModSys@@2USUniquePointer@core@3@A@@YAXXZ 000000014001036c f    CIL library: CIL module
 0001:0000f378       ??__F?s_modreg@RModuleReg@std@media@modules@UModSys@@2U12345@A@@YAXXZ 0000000140010378 f    CIL library: CIL module
 0001:0000f388       ??__F?s_modreg_chain@RModuleReg@std@media@modules@UModSys@@2USModuleRegChain@base@5@A@@YAXXZ 0000000140010388 f    CIL library: CIL module
 0001:0000f3c8       ??__F?s_uid@RGenerator@std@media@modules@UModSys@@2USUniquePointer@core@5@A@@YAXXZ 00000001400103c8 f    CIL library: CIL module
 0001:0000f3d4       ??__Fh@?1??s_holder@RGenerator@std@media@modules@UModSys@@SAAEAU?$TTypeStaticHolder@URGenerator@std@media@modules@UModSys@@@tl@5@XZ@YAXXZ 00000001400103d4 f    CIL library: CIL module
 0001:0000f3fc       ??__F?s_id@?$TObjectUniqueID@URGenerator@std@media@modules@UModSys@@@tl@UModSys@@2USUniquePointer@core@3@A@@YAXXZ 00000001400103fc f    CIL library: CIL module
 0001:0000f408       ??__F?s_id@?$TObjectUniqueID@URLibraryObjFilter@std@media@modules@UModSys@@@tl@UModSys@@2USUniquePointer@core@3@A@@YAXXZ 0000000140010408 f    CIL library: CIL module
 0001:0000f414       ??__F?s_id@?$TObjectUniqueID@URLibraryObjCache@std@media@modules@UModSys@@@tl@UModSys@@2USUniquePointer@core@3@A@@YAXXZ 0000000140010414 f    CIL library: CIL module
 0001:0000f420       ??__F?s_id@?$TObjectUniqueID@URLibraryLayered@std@media@modules@UModSys@@@tl@UModSys@@2USUniquePointer@core@3@A@@YAXXZ 0000000140010420 f    CIL library: CIL module
 0001:0000f42c       ??__F?s_id@?$TObjectUniqueID@URLibraryBinTree@std@media@modules@UModSys@@@tl@UModSys@@2USUniquePointer@core@3@A@@YAXXZ 000000014001042c f    CIL library: CIL module
 0001:0000f438       ??__F?s_id@?$TObjectUniqueID@URLibraryBinCache@std@media@modules@UModSys@@@tl@UModSys@@2USUniquePointer@core@3@A@@YAXXZ 0000000140010438 f    CIL library: CIL module
 0001:0000f444       ??__F?s_id@?$TObjectUniqueID@UILibraryLayered@libmedia@UModSys@@@tl@UModSys@@2USUniquePointer@core@3@A@@YAXXZ 0000000140010444 f    CIL library: CIL module
 0001:0000f450       ??__F?s_id@?$TObjectUniqueID@UILibraryObjCache@libmedia@UModSys@@@tl@UModSys@@2USUniquePointer@core@3@A@@YAXXZ 0000000140010450 f    CIL library: CIL module
 0001:0000f45c       ??__F?s_id@?$TObjectUniqueID@UILibraryObjFilter@libmedia@UModSys@@@tl@UModSys@@2USUniquePointer@core@3@A@@YAXXZ 000000014001045c f    CIL library: CIL module
 0001:0000f468       ??__F?s_id@?$TObjectUniqueID@UILibraryBinCache@libmedia@UModSys@@@tl@UModSys@@2USUniquePointer@core@3@A@@YAXXZ 0000000140010468 f    CIL library: CIL module
 0001:0000f474       ??__F?s_id@?$TObjectUniqueID@UILibraryBinTree@libmedia@UModSys@@@tl@UModSys@@2USUniquePointer@core@3@A@@YAXXZ 0000000140010474 f    CIL library: CIL module
 0001:0000f480       ??__F?s_id@?$TObjectUniqueID@UILibrary@libmedia@UModSys@@@tl@UModSys@@2USUniquePointer@core@3@A@@YAXXZ 0000000140010480 f    CIL library: CIL module
 0001:0000f48c       ??__F?s_id@?$TObjectUniqueID@UIBinObjFilter@libmedia@UModSys@@@tl@UModSys@@2USUniquePointer@core@3@A@@YAXXZ 000000014001048c f    CIL library: CIL module
 0001:0000f498       ??__F?s_id@?$TObjectUniqueID@UIBinArchive@libmedia@UModSys@@@tl@UModSys@@2USUniquePointer@core@3@A@@YAXXZ 0000000140010498 f    CIL library: CIL module
 0001:0000f4a4       ??__F?s_id@?$TObjectUniqueID@UIStreamWriter@libmedia@UModSys@@@tl@UModSys@@2USUniquePointer@core@3@A@@YAXXZ 00000001400104a4 f    CIL library: CIL module
 0001:0000f4b0       ??__F?s_id@?$TObjectUniqueID@UIStreamReader@libmedia@UModSys@@@tl@UModSys@@2USUniquePointer@core@3@A@@YAXXZ 00000001400104b0 f    CIL library: CIL module
 0001:0000f4bc       ??__F?s_modreg@RModuleReg@stdio@media@modules@UModSys@@2U12345@A@@YAXXZ 00000001400104bc f    CIL library: CIL module
 0001:0000f4cc       ??__F?s_modreg_chain@RModuleReg@stdio@media@modules@UModSys@@2USModuleRegChain@base@5@A@@YAXXZ 00000001400104cc f    CIL library: CIL module
 0001:0000f50c       ??__F?s_uid@RGenerator@stdio@media@modules@UModSys@@2USUniquePointer@core@5@A@@YAXXZ 000000014001050c f    CIL library: CIL module
 0001:0000f518       ??__Fh@?1??s_holder@RGenerator@stdio@media@modules@UModSys@@SAAEAU?$TTypeStaticHolder@URGenerator@stdio@media@modules@UModSys@@@tl@5@XZ@YAXXZ 0000000140010518 f    CIL library: CIL module
 0001:0000f540       ??__F?s_id@?$TObjectUniqueID@URGenerator@stdio@media@modules@UModSys@@@tl@UModSys@@2USUniquePointer@core@3@A@@YAXXZ 0000000140010540 f    CIL library: CIL module
 0001:0000f54c       ??__F?s_id@?$TObjectUniqueID@URDataArchiver_OsDir@stdio@media@modules@UModSys@@@tl@UModSys@@2USUniquePointer@core@3@A@@YAXXZ 000000014001054c f    CIL library: CIL module
 0001:0000f558       ??__F?s_id@?$TObjectUniqueID@URStreamWriter_FILE@stdio@media@modules@UModSys@@@tl@UModSys@@2USUniquePointer@core@3@A@@YAXXZ 0000000140010558 f    CIL library: CIL module
 0001:0000f564       ??__F?s_id@?$TObjectUniqueID@URStreamReader_FILE@stdio@media@modules@UModSys@@@tl@UModSys@@2USUniquePointer@core@3@A@@YAXXZ 0000000140010564 f    CIL library: CIL module
 0001:0000f570       ??__F?s_console@RConsole_std@rsystem@base@UModSys@@2U1234@A@@YAXXZ 0000000140010570 f    CIL library: CIL module
 0001:0000f5b0       ??__F?s_sys@RSystem@rsystem@base@UModSys@@2U1234@A@@YAXXZ 00000001400105b0 f    CIL library: CIL module
 0001:0000f5bc       ??__Frsys_dbg@rsystem@base@UModSys@@YAXXZ 00000001400105bc f    CIL library: CIL module
 0001:0000f5e0       ??__FM@UModSys@@YAXXZ      00000001400105e0 f    CIL library: CIL module
 0001:0000f5e4       ??__F?root@SModuleRegChain@base@UModSys@@2U123@A@@YAXXZ 00000001400105e4 f    CIL library: CIL module
 0001:0000f624       ??__F?s_library@RModuleLibraryReg_Chain@base@UModSys@@2U123@A@@YAXXZ 0000000140010624 f    CIL library: CIL module
 0001:0000f634       ??__F?root@SUniquePointer@core@UModSys@@2U123@A@@YAXXZ 0000000140010634 f    CIL library: CIL module

 Exports

  ordinal    name

        1    UModSys_Plugin_Entry2
