 umodsysc

 Timestamp is 5266a020 (Tue Oct 22 18:56:16 2013)

 Preferred load address is 0000000140000000

 Start         Length     Name                   Class
 0001:00000000 0000a94cH .text                   CODE
 0001:0000a950 0000005eH .text$00                CODE
 0001:0000a9b0 000007a1H .text$x                 CODE
 0001:0000b154 00000880H .text$yc                CODE
 0001:0000b9d4 00000364H .text$yd                CODE
 0002:00000000 00000258H .idata$5                DATA
 0002:00000258 00000008H .CRT$XCA                DATA
 0002:00000260 00000008H .CRT$XCAA               DATA
 0002:00000268 00000350H .CRT$XCU                DATA
 0002:000005b8 00000008H .CRT$XCZ                DATA
 0002:000005c0 00000008H .CRT$XIA                DATA
 0002:000005c8 00000008H .CRT$XIAA               DATA
 0002:000005d0 00000008H .CRT$XIY                DATA
 0002:000005d8 00000008H .CRT$XIZ                DATA
 0002:000005e0 00002110H .rdata                  DATA
 0002:000026f0 000016acH .rdata$r                DATA
 0002:00003da0 00000008H .rtc$IAA                DATA
 0002:00003da8 00000008H .rtc$IZZ                DATA
 0002:00003db0 00000008H .rtc$TAA                DATA
 0002:00003db8 00000008H .rtc$TZZ                DATA
 0002:00003dc0 000010c0H .xdata                  DATA
 0002:00004e80 000000e4H .xdata$x                DATA
 0002:00004f64 00000028H .idata$2                DATA
 0002:00004f8c 00000014H .idata$3                DATA
 0002:00004fa0 00000258H .idata$4                DATA
 0002:000051f8 00000478H .idata$6                DATA
 0002:00005670 00000055H .edata                  DATA
 0003:00000000 00000e74H .data                   DATA
 0003:00000e80 000028b8H .bss                    DATA
 0004:00000000 00000f90H .pdata                  DATA

  Address         Publics by Value              Rva+Base               Lib:Object

 0000:00000000       ___safe_se_handler_count   0000000000000000     <absolute>
 0000:00000000       ___safe_se_handler_table   0000000000000000     <absolute>
 0000:00000000       __ImageBase                0000000140000000     <linker-defined>
 0001:00000000       main                       0000000140001000 f   umodsys.c_main.obj
 0001:00000390       ??6SUniquePtrList@core@UModSys@@QEAAAEAU012@PEBUSUniquePointerInfo@12@@Z 0000000140001390 f i umodsys_lib_libmedia:umodsys.mod.media.std.obj
 0001:00000448       ??3IRoot@core@UModSys@@SAXPEAXAEBUSIMemAlloc@12@@Z 0000000140001448 f i umodsys_lib_libmedia:umodsys.mod.media.std.obj
 0001:00000474       ??1?$TSCoreShared@USIMemAlloc@core@UModSys@@D@su@tl@UModSys@@QEAA@XZ 0000000140001474 f i umodsys_lib_libmedia:umodsys.mod.media.std.obj
 0001:00000474       ??1?$TString@U?$TSCoreShared@USIMemAlloc@core@UModSys@@D@su@tl@UModSys@@U?$TComparerBinaryHash@D@234@@tl@UModSys@@QEAA@XZ 0000000140001474 f i umodsys_lib_libmedia:umodsys.mod.media.std.obj
 0001:000004c4       ?get_interface_info@RLibraryBinCache@std@media@modules@UModSys@@UEBAAEBUSUniquePointerInfo@core@5@XZ 00000001400014c4 f i umodsys_lib_libmedia:umodsys.mod.media.std.obj
 0001:000004cc       ?get_interface_type@RLibraryBinCache@std@media@modules@UModSys@@UEBAPEBUSUniquePointerInfo@core@5@XZ 00000001400014cc f i umodsys_lib_libmedia:umodsys.mod.media.std.obj
 0001:000004d4       ?get_other_interface@RLibraryBinCache@std@media@modules@UModSys@@UEAAPEAUIRoot@core@5@PEBUSUniquePointerInfo@75@@Z 00000001400014d4 f i umodsys_lib_libmedia:umodsys.mod.media.std.obj
 0001:000004d4       ?get_other_interface@RLibraryBinCache@std@media@modules@UModSys@@UEBAPEBUIRoot@core@5@PEBUSUniquePointerInfo@75@@Z 00000001400014d4 f i umodsys_lib_libmedia:umodsys.mod.media.std.obj
 0001:0000050c       ?ref_add@RLibraryBinTree@std@media@modules@UModSys@@UEBAXXZ 000000014000150c f i umodsys_lib_libmedia:umodsys.mod.media.std.obj
 0001:0000050c       ?ref_add@RLibraryBinCache@std@media@modules@UModSys@@UEBAXXZ 000000014000150c f i umodsys_lib_libmedia:umodsys.mod.media.std.obj
 0001:00000510       ?ref_remove@RLibraryBinCache@std@media@modules@UModSys@@UEBAXXZ 0000000140001510 f i umodsys_lib_libmedia:umodsys.mod.media.std.obj
 0001:00000510       ?ref_remove@RLibraryBinTree@std@media@modules@UModSys@@UEBAXXZ 0000000140001510 f i umodsys_lib_libmedia:umodsys.mod.media.std.obj
 0001:00000528       ?ref_links@RLibraryBinTree@std@media@modules@UModSys@@UEBAHXZ 0000000140001528 f i umodsys_lib_libmedia:umodsys.mod.media.std.obj
 0001:00000528       ?ref_links@RLibraryBinCache@std@media@modules@UModSys@@UEBAHXZ 0000000140001528 f i umodsys_lib_libmedia:umodsys.mod.media.std.obj
 0001:0000052c       ?ref_weak@RLibraryBinTree@std@media@modules@UModSys@@UEBA_NAEAUWeakPointer@IRefObject@core@5@@Z 000000014000152c f i umodsys_lib_libmedia:umodsys.mod.media.std.obj
 0001:0000052c       ?ref_weak@RLibraryBinCache@std@media@modules@UModSys@@UEBA_NAEAUWeakPointer@IRefObject@core@5@@Z 000000014000152c f i umodsys_lib_libmedia:umodsys.mod.media.std.obj
 0001:0000054c       ?bin_writer@RLibraryBinCache@std@media@modules@UModSys@@UEAA?AU?$TRefObject@UIStreamWriter@libmedia@UModSys@@U?$TRefObjectFunc@UIStreamWriter@libmedia@UModSys@@@tl@3@@tl@5@AEBU?$TString@U?$TSCoreConst@D@su@tl@UModSys@@U?$TComparerBinaryHash@D@234@@75@AEBUSFlags@libmedia@5@@Z 000000014000154c f i umodsys_lib_libmedia:umodsys.mod.media.std.obj
 0001:0000054c       ?bin_reader@RLibraryBinCache@std@media@modules@UModSys@@UEAA?AU?$TRefObject@UIStreamReader@libmedia@UModSys@@U?$TRefObjectFunc@UIStreamReader@libmedia@UModSys@@@tl@3@@tl@5@AEBU?$TString@U?$TSCoreConst@D@su@tl@UModSys@@U?$TComparerBinaryHash@D@234@@75@AEBUSFlags@libmedia@5@@Z 000000014000154c f i umodsys_lib_libmedia:umodsys.mod.media.std.obj
 0001:0000055c       ?bin_load@RLibraryBinCache@std@media@modules@UModSys@@UEAA_NAEAUSCMemShared@core@5@AEBU?$TString@U?$TSCoreConst@D@su@tl@UModSys@@U?$TComparerBinaryHash@D@234@@tl@5@AEBUSFlags@libmedia@5@@Z 000000014000155c f i umodsys_lib_libmedia:umodsys.mod.media.std.obj
 0001:000005cc       ?bin_get@RLibraryBinCache@std@media@modules@UModSys@@UEAA_NAEAUSCMemShared@core@5@AEBU?$TString@U?$TSCoreConst@D@su@tl@UModSys@@U?$TComparerBinaryHash@D@234@@tl@5@@Z 00000001400015cc f i umodsys_lib_libmedia:umodsys.mod.media.std.obj
 0001:000005d8       ?bin_put@RLibraryBinCache@std@media@modules@UModSys@@UEAA_NAEBUSCMemShared@core@5@AEBU?$TString@U?$TSCoreConst@D@su@tl@UModSys@@U?$TComparerBinaryHash@D@234@@tl@5@@Z 00000001400015d8 f i umodsys_lib_libmedia:umodsys.mod.media.std.obj
 0001:000005e4       ?bincache_get@RLibraryBinCache@std@media@modules@UModSys@@UEBA_NAEAUSCMemShared@core@5@AEBU?$TString@U?$TSCoreConst@D@su@tl@UModSys@@U?$TComparerBinaryHash@D@234@@tl@5@@Z 00000001400015e4 f i umodsys_lib_libmedia:umodsys.mod.media.std.obj
 0001:00000698       ?bincache_add@RLibraryBinCache@std@media@modules@UModSys@@UEAA_NAEBUSCMemShared@core@5@AEBU?$TString@U?$TSCoreConst@D@su@tl@UModSys@@U?$TComparerBinaryHash@D@234@@tl@5@@Z 0000000140001698 f i umodsys_lib_libmedia:umodsys.mod.media.std.obj
 0001:00000960       ?bincache_remove@RLibraryBinCache@std@media@modules@UModSys@@UEAA_NAEBU?$TString@U?$TSCoreConst@D@su@tl@UModSys@@U?$TComparerBinaryHash@D@234@@tl@5@@Z 0000000140001960 f i umodsys_lib_libmedia:umodsys.mod.media.std.obj
 0001:000009cc       ?bincache_clear@RLibraryBinCache@std@media@modules@UModSys@@UEAA_NXZ 00000001400019cc f i umodsys_lib_libmedia:umodsys.mod.media.std.obj
 0001:00000a40       ??_GRLibraryBinCache@std@media@modules@UModSys@@UEAAPEAXI@Z 0000000140001a40 f i umodsys_lib_libmedia:umodsys.mod.media.std.obj
 0001:00000a40       ??_ERLibraryBinCache@std@media@modules@UModSys@@UEAAPEAXI@Z 0000000140001a40 f i  CIL library: CIL module
 0001:00000af0       ?get_interface_info@RLibraryBinTree@std@media@modules@UModSys@@UEBAAEBUSUniquePointerInfo@core@5@XZ 0000000140001af0 f i umodsys_lib_libmedia:umodsys.mod.media.std.obj
 0001:00000af8       ?get_interface_type@RLibraryBinTree@std@media@modules@UModSys@@UEBAPEBUSUniquePointerInfo@core@5@XZ 0000000140001af8 f i umodsys_lib_libmedia:umodsys.mod.media.std.obj
 0001:00000b00       ?get_other_interface@RLibraryBinTree@std@media@modules@UModSys@@UEBAPEBUIRoot@core@5@PEBUSUniquePointerInfo@75@@Z 0000000140001b00 f i umodsys_lib_libmedia:umodsys.mod.media.std.obj
 0001:00000b00       ?get_other_interface@RLibraryBinTree@std@media@modules@UModSys@@UEAAPEAUIRoot@core@5@PEBUSUniquePointerInfo@75@@Z 0000000140001b00 f i umodsys_lib_libmedia:umodsys.mod.media.std.obj
 0001:00000b38       ?suicide@RLibraryBinCache@std@media@modules@UModSys@@UEAAXXZ 0000000140001b38 f i umodsys_lib_libmedia:umodsys.mod.media.std.obj
 0001:00000b38       ?suicide@RLibraryBinTree@std@media@modules@UModSys@@UEAAXXZ 0000000140001b38 f i umodsys_lib_libmedia:umodsys.mod.media.std.obj
 0001:00000b84       ?get_parent_flag@RLibraryBinTree@std@media@modules@UModSys@@UEBA?AW4eStates@?$TFlags4State@USMediaFlagUid@libmedia@UModSys@@I@tl@5@H@Z 0000000140001b84 f i umodsys_lib_libmedia:umodsys.mod.media.std.obj
 0001:00000b84       ?get_parent_flag@RLibraryBinCache@std@media@modules@UModSys@@UEBA?AW4eStates@?$TFlags4State@USMediaFlagUid@libmedia@UModSys@@I@tl@5@H@Z 0000000140001b84 f i umodsys_lib_libmedia:umodsys.mod.media.std.obj
 0001:00000b90       ?bin_reader@RLibraryBinTree@std@media@modules@UModSys@@UEAA?AU?$TRefObject@UIStreamReader@libmedia@UModSys@@U?$TRefObjectFunc@UIStreamReader@libmedia@UModSys@@@tl@3@@tl@5@AEBU?$TString@U?$TSCoreConst@D@su@tl@UModSys@@U?$TComparerBinaryHash@D@234@@75@AEBUSFlags@libmedia@5@@Z 0000000140001b90 f i umodsys_lib_libmedia:umodsys.mod.media.std.obj
 0001:00000d58       ?bin_writer@RLibraryBinTree@std@media@modules@UModSys@@UEAA?AU?$TRefObject@UIStreamWriter@libmedia@UModSys@@U?$TRefObjectFunc@UIStreamWriter@libmedia@UModSys@@@tl@3@@tl@5@AEBU?$TString@U?$TSCoreConst@D@su@tl@UModSys@@U?$TComparerBinaryHash@D@234@@75@AEBUSFlags@libmedia@5@@Z 0000000140001d58 f i umodsys_lib_libmedia:umodsys.mod.media.std.obj
 0001:00000f20       ?bin_load@RLibraryBinTree@std@media@modules@UModSys@@UEAA_NAEAUSCMemShared@core@5@AEBU?$TString@U?$TSCoreConst@D@su@tl@UModSys@@U?$TComparerBinaryHash@D@234@@tl@5@AEBUSFlags@libmedia@5@@Z 0000000140001f20 f i umodsys_lib_libmedia:umodsys.mod.media.std.obj
 0001:000010c0       ?bin_save@RLibraryBinTree@std@media@modules@UModSys@@UEAA_NAEBUSCMem@core@5@AEBU?$TString@U?$TSCoreConst@D@su@tl@UModSys@@U?$TComparerBinaryHash@D@234@@tl@5@AEBUSFlags@libmedia@5@@Z 00000001400020c0 f i umodsys_lib_libmedia:umodsys.mod.media.std.obj
 0001:0000123c       ?mount_get@RLibraryBinTree@std@media@modules@UModSys@@UEBA?AUSMountPoint@ILibraryBinTree@libmedia@5@AEBU?$TString@U?$TSCoreConst@D@su@tl@UModSys@@U?$TComparerBinaryHash@D@234@@tl@5@H@Z 000000014000223c f i umodsys_lib_libmedia:umodsys.mod.media.std.obj
 0001:000012bc       ?mount_add@RLibraryBinTree@std@media@modules@UModSys@@UEAA_NAEBUSMountPoint@ILibraryBinTree@libmedia@5@AEBU?$TString@U?$TSCoreConst@D@su@tl@UModSys@@U?$TComparerBinaryHash@D@234@@tl@5@H@Z 00000001400022bc f i umodsys_lib_libmedia:umodsys.mod.media.std.obj
 0001:0000149c       ?mount_remove@RLibraryBinTree@std@media@modules@UModSys@@UEAA_NAEBU?$TString@U?$TSCoreConst@D@su@tl@UModSys@@U?$TComparerBinaryHash@D@234@@tl@5@H@Z 000000014000249c f i umodsys_lib_libmedia:umodsys.mod.media.std.obj
 0001:000014e8       ?mount_clear@RLibraryBinTree@std@media@modules@UModSys@@UEAA_NXZ 00000001400024e8 f i umodsys_lib_libmedia:umodsys.mod.media.std.obj
 0001:00001558       ??_GRLibraryBinTree@std@media@modules@UModSys@@UEAAPEAXI@Z 0000000140002558 f i umodsys_lib_libmedia:umodsys.mod.media.std.obj
 0001:00001558       ??_ERLibraryBinTree@std@media@modules@UModSys@@UEAAPEAXI@Z 0000000140002558 f i  CIL library: CIL module
 0001:00001604       ??1SMountPoint@ILibraryBinTree@libmedia@UModSys@@QEAA@XZ 0000000140002604 f i umodsys_lib_libmedia:umodsys.mod.media.std.obj
 0001:00001628       ?get_generated_names@RGenerator@std@media@modules@UModSys@@UEBAHAEAUSUniquePtrList@core@5@@Z 0000000140002628 f i umodsys_lib_libmedia:umodsys.mod.media.std.obj
 0001:0000165c       ?get_generated_types@RGenerator@std@media@modules@UModSys@@UEBAHAEAUSUniquePtrList@core@5@PEBUSUniquePointerInfo@75@@Z 000000014000265c f i umodsys_lib_libmedia:umodsys.mod.media.std.obj
 0001:000016e0       ?generate@RGenerator@std@media@modules@UModSys@@UEAA_NAEAU?$TRefObject@UIRefObject@core@UModSys@@U?$TRefObjectFunc@UIRefObject@core@UModSys@@@tl@3@@tl@5@PEBUSUniquePointerInfo@core@5@AEBUSParameters@95@@Z 00000001400026e0 f i umodsys_lib_libmedia:umodsys.mod.media.std.obj
 0001:00001834       ?get_interface_info@RGenerator@std@media@modules@UModSys@@UEBAAEBUSUniquePointerInfo@core@5@XZ 0000000140002834 f i umodsys_lib_libmedia:umodsys.mod.media.std.obj
 0001:0000183c       ?get_interface_type@RGenerator@std@media@modules@UModSys@@UEBAPEBUSUniquePointerInfo@core@5@XZ 000000014000283c f i umodsys_lib_libmedia:umodsys.mod.media.std.obj
 0001:00001844       ?get_other_interface@RGenerator@std@media@modules@UModSys@@UEBAPEBUIRoot@core@5@PEBUSUniquePointerInfo@75@@Z 0000000140002844 f i umodsys_lib_libmedia:umodsys.mod.media.std.obj
 0001:00001844       ?get_other_interface@RGenerator@std@media@modules@UModSys@@UEAAPEAUIRoot@core@5@PEBUSUniquePointerInfo@75@@Z 0000000140002844 f i umodsys_lib_libmedia:umodsys.mod.media.std.obj
 0001:0000187c       ?get_uid@RGenerator@std@media@modules@UModSys@@UEBAPEBUSUniquePointerInfo@core@5@XZ 000000014000287c f i umodsys_lib_libmedia:umodsys.mod.media.std.obj
 0001:00001884       ?do_open@RModuleReg@std@media@modules@UModSys@@UEAA_NXZ 0000000140002884 f i umodsys_lib_libmedia:umodsys.mod.media.std.obj
 0001:000018f0       ?do_close@RModuleReg@std@media@modules@UModSys@@UEAA_NXZ 00000001400028f0 f i umodsys_lib_libmedia:umodsys.mod.media.std.obj
 0001:00001940       ??_GRModuleReg@stdio@media@modules@UModSys@@UEAAPEAXI@Z 0000000140002940 f i umodsys_lib_libmedia:umodsys.mod.media.stdio.obj
 0001:00001940       ??_GRModuleReg@std@media@modules@UModSys@@UEAAPEAXI@Z 0000000140002940 f i umodsys_lib_libmedia:umodsys.mod.media.std.obj
 0001:00001940       ??_GIModuleReg@base@UModSys@@UEAAPEAXI@Z 0000000140002940 f i umodsys_lib_base:umodsys.base.modulereg.obj
 0001:00001940       ??_ERModuleReg@stdio@media@modules@UModSys@@UEAAPEAXI@Z 0000000140002940 f i  CIL library: CIL module
 0001:00001940       ??_EIModuleReg@base@UModSys@@UEAAPEAXI@Z 0000000140002940 f i  CIL library: CIL module
 0001:00001940       ??_ERModuleReg@std@media@modules@UModSys@@UEAAPEAXI@Z 0000000140002940 f i  CIL library: CIL module
 0001:00001968       ?get_module@RGenerator@std@media@modules@UModSys@@UEBAPEAUIModule@base@5@XZ 0000000140002968 f   umodsys_lib_libmedia:umodsys.mod.media.std.obj
 0001:00001970       ?mod_inc@RGenerator@std@media@modules@UModSys@@UEBA_NXZ 0000000140002970 f   umodsys_lib_libmedia:umodsys.mod.media.std.obj
 0001:00001980       ?mod_dec@RGenerator@std@media@modules@UModSys@@UEBA_NXZ 0000000140002980 f   umodsys_lib_libmedia:umodsys.mod.media.std.obj
 0001:00001990       ?s_holder@RGenerator@std@media@modules@UModSys@@SAAEAU?$TTypeStaticHolder@URGenerator@std@media@modules@UModSys@@@tl@5@XZ 0000000140002990 f   umodsys_lib_libmedia:umodsys.mod.media.std.obj
 0001:000019d4       ??R?$TScatterArray@USMountInfo@RLibraryBinTree@std@media@modules@UModSys@@USMountIndex@23456@U723456@U?$TNodeDeleter0@U?$TScatterArrayNode@USMountInfo@RLibraryBinTree@std@media@modules@UModSys@@USMountIndex@23456@@tl@UModSys@@@tl@6@@tl@UModSys@@QEAAPEAUSMountInfo@RLibraryBinTree@std@media@modules@2@AEBUSMountIndex@45672@PEAUVoid@core@2@@Z 00000001400029d4 f i umodsys_lib_libmedia:umodsys.mod.media.std.obj
 0001:00001b2c       ?delete_node@?$TTreeHoldRBD@U?$TScatterArrayNode@USCacheElem@RLibraryBinCache@std@media@modules@UModSys@@U?$TString@U?$TSCoreConst@D@su@tl@UModSys@@U?$TComparerBinaryHash@D@234@@tl@6@@tl@UModSys@@U?$TNodeDeleter0@U?$TScatterArrayNode@USCacheElem@RLibraryBinCache@std@media@modules@UModSys@@U?$TString@U?$TSCoreConst@D@su@tl@UModSys@@U?$TComparerBinaryHash@D@234@@tl@6@@tl@UModSys@@@23@@tl@UModSys@@QEAAXPEAU?$TScatterArrayNode@USCacheElem@RLibraryBinCache@std@media@modules@UModSys@@U?$TString@U?$TSCoreConst@D@su@tl@UModSys@@U?$TComparerBinaryHash@D@234@@tl@6@@23@@Z 0000000140002b2c f i umodsys_lib_libmedia:umodsys.mod.media.std.obj
 0001:00001c4c       ?delete_node@?$TTreeHoldRBD@U?$TScatterArrayNode@USMountInfo@RLibraryBinTree@std@media@modules@UModSys@@USMountIndex@23456@@tl@UModSys@@U?$TNodeDeleter0@U?$TScatterArrayNode@USMountInfo@RLibraryBinTree@std@media@modules@UModSys@@USMountIndex@23456@@tl@UModSys@@@23@@tl@UModSys@@QEAAXPEAU?$TScatterArrayNode@USMountInfo@RLibraryBinTree@std@media@modules@UModSys@@USMountIndex@23456@@23@@Z 0000000140002c4c f i umodsys_lib_libmedia:umodsys.mod.media.std.obj
 0001:00001d70       ??_GRGenerator@std@media@modules@UModSys@@UEAAPEAXI@Z 0000000140002d70 f i umodsys_lib_libmedia:umodsys.mod.media.std.obj
 0001:00001d70       ??_GRParameters@rsystem@base@UModSys@@UEAAPEAXI@Z 0000000140002d70 f i umodsys_lib_basesys:umodsys.basesys.rparameters.obj
 0001:00001d70       ??_GRGenerator@stdio@media@modules@UModSys@@UEAAPEAXI@Z 0000000140002d70 f i umodsys_lib_libmedia:umodsys.mod.media.stdio.obj
 0001:00001d70       ??_EIRoot@core@UModSys@@UEAAPEAXI@Z 0000000140002d70 f i  CIL library: CIL module
 0001:00001d70       ??_ERGenerator@stdio@media@modules@UModSys@@UEAAPEAXI@Z 0000000140002d70 f i  CIL library: CIL module
 0001:00001d70       ??_ERParameters@rsystem@base@UModSys@@UEAAPEAXI@Z 0000000140002d70 f i  CIL library: CIL module
 0001:00001d70       ??_GIRoot@core@UModSys@@UEAAPEAXI@Z 0000000140002d70 f i umodsys_lib_libmedia:umodsys.mod.media.std.obj
 0001:00001d70       ??_ERGenerator@std@media@modules@UModSys@@UEAAPEAXI@Z 0000000140002d70 f i  CIL library: CIL module
 0001:00001d98       ?set@?$TSCoreShared@USIMemAlloc@core@UModSys@@D@su@tl@UModSys@@QEAAXPEBD@Z 0000000140002d98 f i umodsys_lib_libmedia:umodsys.mod.media.std.obj
 0001:00001e70       ??R?$TNodeDeleter0@U?$TScatterArrayNode@USMountInfo@RLibraryBinTree@std@media@modules@UModSys@@USMountIndex@23456@@tl@UModSys@@@tl@UModSys@@QEBAHPEAU?$TScatterArrayNode@USMountInfo@RLibraryBinTree@std@media@modules@UModSys@@USMountIndex@23456@@12@@Z 0000000140002e70 f i umodsys_lib_libmedia:umodsys.mod.media.std.obj
 0001:00001f04       ??1?$TScatterArrayNode@USCacheElem@RLibraryBinCache@std@media@modules@UModSys@@U?$TString@U?$TSCoreConst@D@su@tl@UModSys@@U?$TComparerBinaryHash@D@234@@tl@6@@tl@UModSys@@QEAA@XZ 0000000140002f04 f i umodsys_lib_libmedia:umodsys.mod.media.std.obj
 0001:00001f80       ?remove_color@?$TTreeHoldRB@U?$TScatterArrayNode@USMountInfo@RLibraryBinTree@std@media@modules@UModSys@@USMountIndex@23456@@tl@UModSys@@@tl@UModSys@@IEAAXPEAU?$TScatterArrayNode@USMountInfo@RLibraryBinTree@std@media@modules@UModSys@@USMountIndex@23456@@23@0@Z 0000000140002f80 f i umodsys_lib_libmedia:umodsys.mod.media.std.obj
 0001:00001f80       ?remove_color@?$TTreeHoldRB@U?$TScatterArrayNode@USCacheElem@RLibraryBinCache@std@media@modules@UModSys@@U?$TString@U?$TSCoreConst@D@su@tl@UModSys@@U?$TComparerBinaryHash@D@234@@tl@6@@tl@UModSys@@@tl@UModSys@@IEAAXPEAU?$TScatterArrayNode@USCacheElem@RLibraryBinCache@std@media@modules@UModSys@@U?$TString@U?$TSCoreConst@D@su@tl@UModSys@@U?$TComparerBinaryHash@D@234@@tl@6@@23@0@Z 0000000140002f80 f i umodsys_lib_libmedia:umodsys.mod.media.std.obj
 0001:00002220       ??$scalar_compare@U?$TString@U?$TSCoreConst@D@su@tl@UModSys@@U?$TComparerBinaryHash@D@234@@tl@UModSys@@@core@UModSys@@YAHU?$TString@U?$TSCoreConst@D@su@tl@UModSys@@U?$TComparerBinaryHash@D@234@@tl@1@0@Z 0000000140003220 f i umodsys_lib_libmedia:umodsys.mod.media.std.obj
 0001:000022bc       ??$t_gen_param@URLibraryBinTree@std@media@modules@UModSys@@URGenerator@2345@@IGenerator@base@UModSys@@IEAA_NPEAURGenerator@std@media@modules@2@AEAU?$TRefObject@UIRefObject@core@UModSys@@U?$TRefObjectFunc@UIRefObject@core@UModSys@@@tl@3@@tl@2@PEBUSUniquePointerInfo@core@2@AEBUSParameters@core@2@@Z 00000001400032bc f i umodsys_lib_libmedia:umodsys.mod.media.std.obj
 0001:000023dc       ??$find_node_u@UCmp@?$TScatterArray@USMountInfo@RLibraryBinTree@std@media@modules@UModSys@@USMountIndex@23456@U723456@U?$TNodeDeleter0@U?$TScatterArrayNode@USMountInfo@RLibraryBinTree@std@media@modules@UModSys@@USMountIndex@23456@@tl@UModSys@@@tl@6@@tl@UModSys@@@?$TTreeHoldRB@U?$TScatterArrayNode@USMountInfo@RLibraryBinTree@std@media@modules@UModSys@@USMountIndex@23456@@tl@UModSys@@@tl@UModSys@@QEBAPEAU?$TScatterArrayNode@USMountInfo@RLibraryBinTree@std@media@modules@UModSys@@USMountIndex@23456@@12@UCmp@?$TScatterArray@USMountInfo@RLibraryBinTree@std@media@modules@UModSys@@USMountIndex@23456@U723456@U?$TNodeDeleter0@U?$TScatterArrayNode@USMountInfo@RLibraryBinTree@std@media@modules@UModSys@@USMountIndex@23456@@tl@UModSys@@@tl@6@@12@@Z 00000001400033dc f i umodsys_lib_libmedia:umodsys.mod.media.std.obj
 0001:00002470       ?sub_insert_node@?$TTreeHoldRB@U?$TScatterArrayNode@USMountInfo@RLibraryBinTree@std@media@modules@UModSys@@USMountIndex@23456@@tl@UModSys@@@tl@UModSys@@QEAAXPEAU?$TScatterArrayNode@USMountInfo@RLibraryBinTree@std@media@modules@UModSys@@USMountIndex@23456@@23@0H@Z 0000000140003470 f i umodsys_lib_libmedia:umodsys.mod.media.std.obj
 0001:00002470       ?sub_insert_node@?$TTreeHoldRB@U?$TScatterArrayNode@USCacheElem@RLibraryBinCache@std@media@modules@UModSys@@U?$TString@U?$TSCoreConst@D@su@tl@UModSys@@U?$TComparerBinaryHash@D@234@@tl@6@@tl@UModSys@@@tl@UModSys@@QEAAXPEAU?$TScatterArrayNode@USCacheElem@RLibraryBinCache@std@media@modules@UModSys@@U?$TString@U?$TSCoreConst@D@su@tl@UModSys@@U?$TComparerBinaryHash@D@234@@tl@6@@23@0H@Z 0000000140003470 f i umodsys_lib_libmedia:umodsys.mod.media.std.obj
 0001:00002650       ??RCmp@?$TScatterArray@USCacheElem@RLibraryBinCache@std@media@modules@UModSys@@U?$TString@U?$TSCoreConst@D@su@tl@UModSys@@U?$TComparerBinaryHash@D@234@@tl@6@U?$TObjectCompare@U?$TScatterArrayNode@USCacheElem@RLibraryBinCache@std@media@modules@UModSys@@U?$TString@U?$TSCoreConst@D@su@tl@UModSys@@U?$TComparerBinaryHash@D@234@@tl@6@@tl@UModSys@@@core@6@U?$TNodeDeleter0@U?$TScatterArrayNode@USCacheElem@RLibraryBinCache@std@media@modules@UModSys@@U?$TString@U?$TSCoreConst@D@su@tl@UModSys@@U?$TComparerBinaryHash@D@234@@tl@6@@tl@UModSys@@@86@@tl@UModSys@@QEBAHPEBU?$TScatterArrayNode@USCacheElem@RLibraryBinCache@std@media@modules@UModSys@@U?$TString@U?$TSCoreConst@D@su@tl@UModSys@@U?$TComparerBinaryHash@D@234@@tl@6@@23@@Z 0000000140003650 f i umodsys_lib_libmedia:umodsys.mod.media.std.obj
 0001:00002788       ??1?$TRefObject@UIModObject@base@UModSys@@U?$TModObjectFunc@UIModObject@base@UModSys@@@tl@3@@tl@UModSys@@QEAA@XZ 0000000140003788 f i umodsys_lib_libmedia:umodsys.mod.media.std.obj
 0001:000027b4       ??$process_nodes_r@U?$TNodeDeleter0@U?$TScatterArrayNode@USCacheElem@RLibraryBinCache@std@media@modules@UModSys@@U?$TString@U?$TSCoreConst@D@su@tl@UModSys@@U?$TComparerBinaryHash@D@234@@tl@6@@tl@UModSys@@@tl@UModSys@@@?$TTreeHoldRB@U?$TScatterArrayNode@USCacheElem@RLibraryBinCache@std@media@modules@UModSys@@U?$TString@U?$TSCoreConst@D@su@tl@UModSys@@U?$TComparerBinaryHash@D@234@@tl@6@@tl@UModSys@@@tl@UModSys@@KAHPEAU?$TScatterArrayNode@USCacheElem@RLibraryBinCache@std@media@modules@UModSys@@U?$TString@U?$TSCoreConst@D@su@tl@UModSys@@U?$TComparerBinaryHash@D@234@@tl@6@@12@AEBU?$TNodeDeleter0@U?$TScatterArrayNode@USCacheElem@RLibraryBinCache@std@media@modules@UModSys@@U?$TString@U?$TSCoreConst@D@su@tl@UModSys@@U?$TComparerBinaryHash@D@234@@tl@6@@tl@UModSys@@@12@@Z 00000001400037b4 f i umodsys_lib_libmedia:umodsys.mod.media.std.obj
 0001:00002820       ??$process_nodes_r@U?$TNodeDeleter0@U?$TScatterArrayNode@USMountInfo@RLibraryBinTree@std@media@modules@UModSys@@USMountIndex@23456@@tl@UModSys@@@tl@UModSys@@@?$TTreeHoldRB@U?$TScatterArrayNode@USMountInfo@RLibraryBinTree@std@media@modules@UModSys@@USMountIndex@23456@@tl@UModSys@@@tl@UModSys@@KAHPEAU?$TScatterArrayNode@USMountInfo@RLibraryBinTree@std@media@modules@UModSys@@USMountIndex@23456@@12@AEBU?$TNodeDeleter0@U?$TScatterArrayNode@USMountInfo@RLibraryBinTree@std@media@modules@UModSys@@USMountIndex@23456@@tl@UModSys@@@12@@Z 0000000140003820 f i umodsys_lib_libmedia:umodsys.mod.media.std.obj
 0001:00002888       ??1SMemShared@core@UModSys@@QEAA@XZ 0000000140003888 f i umodsys_lib_libmedia:umodsys.mod.media.stdio.obj
 0001:000028ac       ?get_interface_info@RStreamReader_FILE@stdio@media@modules@UModSys@@UEBAAEBUSUniquePointerInfo@core@5@XZ 00000001400038ac f i umodsys_lib_libmedia:umodsys.mod.media.stdio.obj
 0001:000028b4       ?get_interface_type@RStreamReader_FILE@stdio@media@modules@UModSys@@UEBAPEBUSUniquePointerInfo@core@5@XZ 00000001400038b4 f i umodsys_lib_libmedia:umodsys.mod.media.stdio.obj
 0001:000028bc       ?get_other_interface@RStreamReader_FILE@stdio@media@modules@UModSys@@UEBAPEBUIRoot@core@5@PEBUSUniquePointerInfo@75@@Z 00000001400038bc f i umodsys_lib_libmedia:umodsys.mod.media.stdio.obj
 0001:000028bc       ?get_other_interface@RStreamReader_FILE@stdio@media@modules@UModSys@@UEAAPEAUIRoot@core@5@PEBUSUniquePointerInfo@75@@Z 00000001400038bc f i umodsys_lib_libmedia:umodsys.mod.media.stdio.obj
 0001:000028ec       ?suicide@RStreamReader_FILE@stdio@media@modules@UModSys@@UEAAXXZ 00000001400038ec f i umodsys_lib_libmedia:umodsys.mod.media.stdio.obj
 0001:000028ec       ?suicide@RStreamWriter_FILE@stdio@media@modules@UModSys@@UEAAXXZ 00000001400038ec f i umodsys_lib_libmedia:umodsys.mod.media.stdio.obj
 0001:000028ec       ?suicide@RDataArchiver_OsDir@stdio@media@modules@UModSys@@UEAAXXZ 00000001400038ec f i umodsys_lib_libmedia:umodsys.mod.media.stdio.obj
 0001:00002938       ??0RStreamReader_FILE@stdio@media@modules@UModSys@@QEAA@PEAUIModObject@base@4@AEBUSParameters@core@4@@Z 0000000140003938 f i umodsys_lib_libmedia:umodsys.mod.media.stdio.obj
 0001:00002a30       ?reader_seek@RStreamReader_FILE@stdio@media@modules@UModSys@@UEAA_N_J@Z 0000000140003a30 f i umodsys_lib_libmedia:umodsys.mod.media.stdio.obj
 0001:00002a5c       ?reader_seekend@RStreamReader_FILE@stdio@media@modules@UModSys@@UEAA_N_J@Z 0000000140003a5c f i umodsys_lib_libmedia:umodsys.mod.media.stdio.obj
 0001:00002a8c       ?reader_seekdelta@RStreamReader_FILE@stdio@media@modules@UModSys@@UEAA_N_J@Z 0000000140003a8c f i umodsys_lib_libmedia:umodsys.mod.media.stdio.obj
 0001:00002ab8       ?reader_pos@RStreamReader_FILE@stdio@media@modules@UModSys@@UEAA_JXZ 0000000140003ab8 f i umodsys_lib_libmedia:umodsys.mod.media.stdio.obj
 0001:00002ad4       ?reader_size@RStreamReader_FILE@stdio@media@modules@UModSys@@UEAA_JXZ 0000000140003ad4 f i umodsys_lib_libmedia:umodsys.mod.media.stdio.obj
 0001:00002adc       ?reader_read@RStreamReader_FILE@stdio@media@modules@UModSys@@UEAA_NPEAX_K@Z 0000000140003adc f i umodsys_lib_libmedia:umodsys.mod.media.stdio.obj
 0001:00002b5c       ?reader_close@RStreamReader_FILE@stdio@media@modules@UModSys@@UEAAXXZ 0000000140003b5c f i umodsys_lib_libmedia:umodsys.mod.media.stdio.obj
 0001:00002b80       ??_GRStreamReader_FILE@stdio@media@modules@UModSys@@UEAAPEAXI@Z 0000000140003b80 f i umodsys_lib_libmedia:umodsys.mod.media.stdio.obj
 0001:00002b80       ??_ERStreamReader_FILE@stdio@media@modules@UModSys@@UEAAPEAXI@Z 0000000140003b80 f i  CIL library: CIL module
 0001:00002bd4       ?get_interface_info@RStreamWriter_FILE@stdio@media@modules@UModSys@@UEBAAEBUSUniquePointerInfo@core@5@XZ 0000000140003bd4 f i umodsys_lib_libmedia:umodsys.mod.media.stdio.obj
 0001:00002bdc       ?get_interface_type@RStreamWriter_FILE@stdio@media@modules@UModSys@@UEBAPEBUSUniquePointerInfo@core@5@XZ 0000000140003bdc f i umodsys_lib_libmedia:umodsys.mod.media.stdio.obj
 0001:00002be4       ?get_other_interface@RStreamWriter_FILE@stdio@media@modules@UModSys@@UEBAPEBUIRoot@core@5@PEBUSUniquePointerInfo@75@@Z 0000000140003be4 f i umodsys_lib_libmedia:umodsys.mod.media.stdio.obj
 0001:00002be4       ?get_other_interface@RStreamWriter_FILE@stdio@media@modules@UModSys@@UEAAPEAUIRoot@core@5@PEBUSUniquePointerInfo@75@@Z 0000000140003be4 f i umodsys_lib_libmedia:umodsys.mod.media.stdio.obj
 0001:00002c14       ?ref_remove@RStreamReader_FILE@stdio@media@modules@UModSys@@UEBAXXZ 0000000140003c14 f i umodsys_lib_libmedia:umodsys.mod.media.stdio.obj
 0001:00002c14       ?ref_remove@RStreamWriter_FILE@stdio@media@modules@UModSys@@UEBAXXZ 0000000140003c14 f i umodsys_lib_libmedia:umodsys.mod.media.stdio.obj
 0001:00002c14       ?ref_remove@RDataArchiver_OsDir@stdio@media@modules@UModSys@@UEBAXXZ 0000000140003c14 f i umodsys_lib_libmedia:umodsys.mod.media.stdio.obj
 0001:00002c14       ?ref_remove@RGenerator@std@media@modules@UModSys@@UEBAXXZ 0000000140003c14 f i umodsys_lib_libmedia:umodsys.mod.media.std.obj
 0001:00002c14       ?ref_remove@RGenerator@stdio@media@modules@UModSys@@UEBAXXZ 0000000140003c14 f i umodsys_lib_libmedia:umodsys.mod.media.stdio.obj
 0001:00002c2c       ?ref_links@RGenerator@stdio@media@modules@UModSys@@UEBAHXZ 0000000140003c2c f i umodsys_lib_libmedia:umodsys.mod.media.stdio.obj
 0001:00002c2c       ?ref_links@RDataArchiver_OsDir@stdio@media@modules@UModSys@@UEBAHXZ 0000000140003c2c f i umodsys_lib_libmedia:umodsys.mod.media.stdio.obj
 0001:00002c2c       ?ref_links@RStreamWriter_FILE@stdio@media@modules@UModSys@@UEBAHXZ 0000000140003c2c f i umodsys_lib_libmedia:umodsys.mod.media.stdio.obj
 0001:00002c2c       ?ref_links@RStreamReader_FILE@stdio@media@modules@UModSys@@UEBAHXZ 0000000140003c2c f i umodsys_lib_libmedia:umodsys.mod.media.stdio.obj
 0001:00002c2c       ?ref_links@RGenerator@std@media@modules@UModSys@@UEBAHXZ 0000000140003c2c f i umodsys_lib_libmedia:umodsys.mod.media.std.obj
 0001:00002c30       ?open@RStreamWriter_FILE@stdio@media@modules@UModSys@@QEAAXPEBD_N@Z 0000000140003c30 f i umodsys_lib_libmedia:umodsys.mod.media.stdio.obj
 0001:00002cd4       ?writer_seek@RStreamWriter_FILE@stdio@media@modules@UModSys@@UEAA_N_J@Z 0000000140003cd4 f i umodsys_lib_libmedia:umodsys.mod.media.stdio.obj
 0001:00002d00       ?writer_seekend@RStreamWriter_FILE@stdio@media@modules@UModSys@@UEAA_N_J@Z 0000000140003d00 f i umodsys_lib_libmedia:umodsys.mod.media.stdio.obj
 0001:00002d30       ?writer_seekdelta@RStreamWriter_FILE@stdio@media@modules@UModSys@@UEAA_N_J@Z 0000000140003d30 f i umodsys_lib_libmedia:umodsys.mod.media.stdio.obj
 0001:00002d5c       ?writer_setsize@RStreamWriter_FILE@stdio@media@modules@UModSys@@UEAA_N_J@Z 0000000140003d5c f i umodsys_lib_libmedia:umodsys.mod.media.stdio.obj
 0001:00002dbc       ?writer_pos@RStreamWriter_FILE@stdio@media@modules@UModSys@@UEAA_JXZ 0000000140003dbc f i umodsys_lib_libmedia:umodsys.mod.media.stdio.obj
 0001:00002dd8       ?writer_size@RStreamWriter_FILE@stdio@media@modules@UModSys@@UEAA_JXZ 0000000140003dd8 f i umodsys_lib_libmedia:umodsys.mod.media.stdio.obj
 0001:00002e58       ?writer_write@RStreamWriter_FILE@stdio@media@modules@UModSys@@UEAA_NPEBX_K@Z 0000000140003e58 f i umodsys_lib_libmedia:umodsys.mod.media.stdio.obj
 0001:00002ed8       ?writer_copy@RStreamWriter_FILE@stdio@media@modules@UModSys@@UEAA_NPEAUIStreamReader@libmedia@5@_J@Z 0000000140003ed8 f i umodsys_lib_libmedia:umodsys.mod.media.stdio.obj
 0001:00002f78       ?writer_copy@RStreamWriter_FILE@stdio@media@modules@UModSys@@UEAA_NPEAUIStreamReader@libmedia@5@_J1@Z 0000000140003f78 f i umodsys_lib_libmedia:umodsys.mod.media.stdio.obj
 0001:00002fcc       ?writer_close@RStreamWriter_FILE@stdio@media@modules@UModSys@@UEAAXXZ 0000000140003fcc f i umodsys_lib_libmedia:umodsys.mod.media.stdio.obj
 0001:00003008       ?writer_abort@RStreamWriter_FILE@stdio@media@modules@UModSys@@UEAAXXZ 0000000140004008 f i umodsys_lib_libmedia:umodsys.mod.media.stdio.obj
 0001:00003044       ??_ERStreamWriter_FILE@stdio@media@modules@UModSys@@UEAAPEAXI@Z 0000000140004044 f i  CIL library: CIL module
 0001:00003044       ??_GRStreamWriter_FILE@stdio@media@modules@UModSys@@UEAAPEAXI@Z 0000000140004044 f i umodsys_lib_libmedia:umodsys.mod.media.stdio.obj
 0001:000030bc       ?get_interface_info@RDataArchiver_OsDir@stdio@media@modules@UModSys@@UEBAAEBUSUniquePointerInfo@core@5@XZ 00000001400040bc f i umodsys_lib_libmedia:umodsys.mod.media.stdio.obj
 0001:000030c4       ?get_interface_type@RDataArchiver_OsDir@stdio@media@modules@UModSys@@UEBAPEBUSUniquePointerInfo@core@5@XZ 00000001400040c4 f i umodsys_lib_libmedia:umodsys.mod.media.stdio.obj
 0001:000030cc       ?get_other_interface@RDataArchiver_OsDir@stdio@media@modules@UModSys@@UEBAPEBUIRoot@core@5@PEBUSUniquePointerInfo@75@@Z 00000001400040cc f i umodsys_lib_libmedia:umodsys.mod.media.stdio.obj
 0001:000030cc       ?get_other_interface@RDataArchiver_OsDir@stdio@media@modules@UModSys@@UEAAPEAUIRoot@core@5@PEBUSUniquePointerInfo@75@@Z 00000001400040cc f i umodsys_lib_libmedia:umodsys.mod.media.stdio.obj
 0001:000030fc       ?ref_add@RGenerator@std@media@modules@UModSys@@UEBAXXZ 00000001400040fc f i umodsys_lib_libmedia:umodsys.mod.media.std.obj
 0001:000030fc       ?ref_add@RDataArchiver_OsDir@stdio@media@modules@UModSys@@UEBAXXZ 00000001400040fc f i umodsys_lib_libmedia:umodsys.mod.media.stdio.obj
 0001:000030fc       ?ref_add@RStreamWriter_FILE@stdio@media@modules@UModSys@@UEBAXXZ 00000001400040fc f i umodsys_lib_libmedia:umodsys.mod.media.stdio.obj
 0001:000030fc       ?ref_add@RStreamReader_FILE@stdio@media@modules@UModSys@@UEBAXXZ 00000001400040fc f i umodsys_lib_libmedia:umodsys.mod.media.stdio.obj
 0001:000030fc       ?ref_add@RGenerator@stdio@media@modules@UModSys@@UEBAXXZ 00000001400040fc f i umodsys_lib_libmedia:umodsys.mod.media.stdio.obj
 0001:00003100       ?ref_weak@RStreamReader_FILE@stdio@media@modules@UModSys@@UEBA_NAEAUWeakPointer@IRefObject@core@5@@Z 0000000140004100 f i umodsys_lib_libmedia:umodsys.mod.media.stdio.obj
 0001:00003100       ?ref_weak@RDataArchiver_OsDir@stdio@media@modules@UModSys@@UEBA_NAEAUWeakPointer@IRefObject@core@5@@Z 0000000140004100 f i umodsys_lib_libmedia:umodsys.mod.media.stdio.obj
 0001:00003100       ?ref_weak@RStreamWriter_FILE@stdio@media@modules@UModSys@@UEBA_NAEAUWeakPointer@IRefObject@core@5@@Z 0000000140004100 f i umodsys_lib_libmedia:umodsys.mod.media.stdio.obj
 0001:00003100       ?ref_weak@RGenerator@std@media@modules@UModSys@@UEBA_NAEAUWeakPointer@IRefObject@core@5@@Z 0000000140004100 f i umodsys_lib_libmedia:umodsys.mod.media.std.obj
 0001:00003100       ?ref_weak@RGenerator@stdio@media@modules@UModSys@@UEBA_NAEAUWeakPointer@IRefObject@core@5@@Z 0000000140004100 f i umodsys_lib_libmedia:umodsys.mod.media.stdio.obj
 0001:00003120       ??0RDataArchiver_OsDir@stdio@media@modules@UModSys@@QEAA@PEAUIModObject@base@4@AEBUSParameters@core@4@U?$TFlags4State@USMediaFlagUid@libmedia@UModSys@@I@tl@4@@Z 0000000140004120 f i umodsys_lib_libmedia:umodsys.mod.media.stdio.obj
 0001:00003304       ?data_load@RDataArchiver_OsDir@stdio@media@modules@UModSys@@UEAA_NAEBU?$TString@U?$TSCoreConst@D@su@tl@UModSys@@U?$TComparerBinaryHash@D@234@@tl@5@AEAUSCMemShared@core@5@AEBUSFlags@libmedia@5@@Z 0000000140004304 f i umodsys_lib_libmedia:umodsys.mod.media.stdio.obj
 0001:0000350c       ?data_save@RDataArchiver_OsDir@stdio@media@modules@UModSys@@UEAA_NAEBU?$TString@U?$TSCoreConst@D@su@tl@UModSys@@U?$TComparerBinaryHash@D@234@@tl@5@AEBUSCMem@core@5@AEBUSFlags@libmedia@5@@Z 000000014000450c f i umodsys_lib_libmedia:umodsys.mod.media.stdio.obj
 0001:000035a4       ?data_reader@RDataArchiver_OsDir@stdio@media@modules@UModSys@@UEAA?AU?$TRefObject@UIStreamReader@libmedia@UModSys@@U?$TRefObjectFunc@UIStreamReader@libmedia@UModSys@@@tl@3@@tl@5@AEBU?$TString@U?$TSCoreConst@D@su@tl@UModSys@@U?$TComparerBinaryHash@D@234@@75@AEBUSFlags@libmedia@5@@Z 00000001400045a4 f i umodsys_lib_libmedia:umodsys.mod.media.stdio.obj
 0001:000037ec       ?data_writer@RDataArchiver_OsDir@stdio@media@modules@UModSys@@UEAA?AU?$TRefObject@UIStreamWriter@libmedia@UModSys@@U?$TRefObjectFunc@UIStreamWriter@libmedia@UModSys@@@tl@3@@tl@5@AEBU?$TString@U?$TSCoreConst@D@su@tl@UModSys@@U?$TComparerBinaryHash@D@234@@75@AEBUSFlags@libmedia@5@@Z 00000001400047ec f i umodsys_lib_libmedia:umodsys.mod.media.stdio.obj
 0001:00003a48       ?data_list@RDataArchiver_OsDir@stdio@media@modules@UModSys@@UEAA_NAEBU?$TString@U?$TSCoreConst@D@su@tl@UModSys@@U?$TComparerBinaryHash@D@234@@tl@5@AEAU?$TIStackSocket@USFileInfo@libmedia@UModSys@@@75@@Z 0000000140004a48 f i umodsys_lib_libmedia:umodsys.mod.media.stdio.obj
 0001:00003ad8       ?get_permissions@RDataArchiver_OsDir@stdio@media@modules@UModSys@@UEAAHXZ 0000000140004ad8 f i umodsys_lib_libmedia:umodsys.mod.media.stdio.obj
 0001:00003adc       ??_ERDataArchiver_OsDir@stdio@media@modules@UModSys@@UEAAPEAXI@Z 0000000140004adc f i  CIL library: CIL module
 0001:00003adc       ??_GRDataArchiver_OsDir@stdio@media@modules@UModSys@@UEAAPEAXI@Z 0000000140004adc f i umodsys_lib_libmedia:umodsys.mod.media.stdio.obj
 0001:00003b6c       ?get_generated_names@RGenerator@stdio@media@modules@UModSys@@UEBAHAEAUSUniquePtrList@core@5@@Z 0000000140004b6c f i umodsys_lib_libmedia:umodsys.mod.media.stdio.obj
 0001:00003bb0       ?get_generated_types@RGenerator@stdio@media@modules@UModSys@@UEBAHAEAUSUniquePtrList@core@5@PEBUSUniquePointerInfo@75@@Z 0000000140004bb0 f i umodsys_lib_libmedia:umodsys.mod.media.stdio.obj
 0001:00003c44       ?generate@RGenerator@stdio@media@modules@UModSys@@UEAA_NAEAU?$TRefObject@UIRefObject@core@UModSys@@U?$TRefObjectFunc@UIRefObject@core@UModSys@@@tl@3@@tl@5@PEBUSUniquePointerInfo@core@5@AEBUSParameters@95@@Z 0000000140004c44 f i umodsys_lib_libmedia:umodsys.mod.media.stdio.obj
 0001:00003e24       ?get_interface_info@RGenerator@stdio@media@modules@UModSys@@UEBAAEBUSUniquePointerInfo@core@5@XZ 0000000140004e24 f i umodsys_lib_libmedia:umodsys.mod.media.stdio.obj
 0001:00003e2c       ?get_interface_type@RGenerator@stdio@media@modules@UModSys@@UEBAPEBUSUniquePointerInfo@core@5@XZ 0000000140004e2c f i umodsys_lib_libmedia:umodsys.mod.media.stdio.obj
 0001:00003e34       ?get_other_interface@RGenerator@stdio@media@modules@UModSys@@UEAAPEAUIRoot@core@5@PEBUSUniquePointerInfo@75@@Z 0000000140004e34 f i umodsys_lib_libmedia:umodsys.mod.media.stdio.obj
 0001:00003e34       ?get_other_interface@RGenerator@stdio@media@modules@UModSys@@UEBAPEBUIRoot@core@5@PEBUSUniquePointerInfo@75@@Z 0000000140004e34 f i umodsys_lib_libmedia:umodsys.mod.media.stdio.obj
 0001:00003e6c       ?suicide@RGenerator@std@media@modules@UModSys@@UEAAXXZ 0000000140004e6c f i umodsys_lib_libmedia:umodsys.mod.media.std.obj
 0001:00003e6c       ?ref_remove@RConsole_std@rsystem@base@UModSys@@UEBAXXZ 0000000140004e6c f i umodsys_lib_basesys:umodsys.basesys.rconsole_std.obj
 0001:00003e6c       ?ref_add@RConsole_std@rsystem@base@UModSys@@UEBAXXZ 0000000140004e6c f i umodsys_lib_basesys:umodsys.basesys.rconsole_std.obj
 0001:00003e6c       ?suicide@RGenerator@stdio@media@modules@UModSys@@UEAAXXZ 0000000140004e6c f i umodsys_lib_libmedia:umodsys.mod.media.stdio.obj
 0001:00003e6c       ??3@YAXPEAX0@Z             0000000140004e6c f i umodsys_lib_libmedia:umodsys.mod.media.std.obj
 0001:00003e70       ?get_uid@RGenerator@stdio@media@modules@UModSys@@UEBAPEBUSUniquePointerInfo@core@5@XZ 0000000140004e70 f i umodsys_lib_libmedia:umodsys.mod.media.stdio.obj
 0001:00003e78       ?do_open@RModuleReg@stdio@media@modules@UModSys@@UEAA_NXZ 0000000140004e78 f i umodsys_lib_libmedia:umodsys.mod.media.stdio.obj
 0001:00003ee4       ?do_close@RModuleReg@stdio@media@modules@UModSys@@UEAA_NXZ 0000000140004ee4 f i umodsys_lib_libmedia:umodsys.mod.media.stdio.obj
 0001:00003f34       ?get_module@RGenerator@stdio@media@modules@UModSys@@UEBAPEAUIModule@base@5@XZ 0000000140004f34 f   umodsys_lib_libmedia:umodsys.mod.media.stdio.obj
 0001:00003f3c       ?mod_inc@RGenerator@stdio@media@modules@UModSys@@UEBA_NXZ 0000000140004f3c f   umodsys_lib_libmedia:umodsys.mod.media.stdio.obj
 0001:00003f4c       ?mod_dec@RGenerator@stdio@media@modules@UModSys@@UEBA_NXZ 0000000140004f4c f   umodsys_lib_libmedia:umodsys.mod.media.stdio.obj
 0001:00003f5c       ?s_holder@RGenerator@stdio@media@modules@UModSys@@SAAEAU?$TTypeStaticHolder@URGenerator@stdio@media@modules@UModSys@@@tl@5@XZ 0000000140004f5c f   umodsys_lib_libmedia:umodsys.mod.media.stdio.obj
 0001:00003fa0       ??$t_gen_param@URStreamWriter_FILE@stdio@media@modules@UModSys@@URGenerator@2345@@IGenerator@base@UModSys@@IEAA_NPEAURGenerator@stdio@media@modules@2@AEAU?$TRefObject@UIRefObject@core@UModSys@@U?$TRefObjectFunc@UIRefObject@core@UModSys@@@tl@3@@tl@2@PEBUSUniquePointerInfo@core@2@AEBUSParameters@core@2@@Z 0000000140004fa0 f i umodsys_lib_libmedia:umodsys.mod.media.stdio.obj
 0001:00004144       ??0SVFileName@libmedia@UModSys@@QEAA@AEBU?$TString@U?$TSCoreConst@D@su@tl@UModSys@@U?$TComparerBinaryHash@D@234@@tl@2@0_N@Z 0000000140005144 f   umodsys_lib_libmedia:umodsys.lib.media.common.obj
 0001:000041f4       ?init@SVFileName@libmedia@UModSys@@QEAAXPEBDH_N@Z 00000001400051f4 f   umodsys_lib_libmedia:umodsys.lib.media.common.obj
 0001:0000436c       ??$safe_snprintf@D@syshlp@core@UModSys@@YA_KPEAD_KPEBDZZ 000000014000536c f i umodsys_lib_libmedia:umodsys.lib.media.common.obj
 0001:000043a0       ?get_interface_info@RConsole_std@rsystem@base@UModSys@@UEBAAEBUSUniquePointerInfo@core@4@XZ 00000001400053a0 f i umodsys_lib_basesys:umodsys.basesys.rconsole_std.obj
 0001:000043a8       ?get_interface_type@RConsole_std@rsystem@base@UModSys@@UEBAPEBUSUniquePointerInfo@core@4@XZ 00000001400053a8 f i umodsys_lib_basesys:umodsys.basesys.rconsole_std.obj
 0001:000043b0       ?get_interface_types@RModuleLibraryThis@rsystem@base@UModSys@@UEBA_KAEAUSUniquePtrList@core@4@@Z 00000001400053b0 f i umodsys_lib_basesys:umodsys.basesys.rmodulelibthis.obj
 0001:000043b0       ?get_interface_types@RConsole_std@rsystem@base@UModSys@@UEBA_KAEAUSUniquePtrList@core@4@@Z 00000001400053b0 f i umodsys_lib_basesys:umodsys.basesys.rconsole_std.obj
 0001:000043b0       ?get_interface_types@RParameters@rsystem@base@UModSys@@UEBA_KAEAUSUniquePtrList@core@4@@Z 00000001400053b0 f i umodsys_lib_basesys:umodsys.basesys.rparameters.obj
 0001:000043b0       ?get_interface_types@RModuleLibrarySO@rsystem@base@UModSys@@UEBA_KAEAUSUniquePtrList@core@4@@Z 00000001400053b0 f i umodsys_lib_basesys:umodsys.basesys.rmodulelibso.obj
 0001:000043b0       ?get_interface_types@RStreamWriter_FILE@stdio@media@modules@UModSys@@UEBA_KAEAUSUniquePtrList@core@5@@Z 00000001400053b0 f i umodsys_lib_libmedia:umodsys.mod.media.stdio.obj
 0001:000043b0       ?get_interface_types@RModule@rsystem@base@UModSys@@UEBA_KAEAUSUniquePtrList@core@4@@Z 00000001400053b0 f i umodsys_lib_basesys:umodsys.basesys.rmodule.obj
 0001:000043b0       ?get_interface_types@RLibraryBinTree@std@media@modules@UModSys@@UEBA_KAEAUSUniquePtrList@core@5@@Z 00000001400053b0 f i umodsys_lib_libmedia:umodsys.mod.media.std.obj
 0001:000043b0       ?get_interface_types@RStreamReader_FILE@stdio@media@modules@UModSys@@UEBA_KAEAUSUniquePtrList@core@5@@Z 00000001400053b0 f i umodsys_lib_libmedia:umodsys.mod.media.stdio.obj
 0001:000043b0       ?get_interface_types@RGenerator@stdio@media@modules@UModSys@@UEBA_KAEAUSUniquePtrList@core@5@@Z 00000001400053b0 f i umodsys_lib_libmedia:umodsys.mod.media.stdio.obj
 0001:000043b0       ?get_interface_types@RSystem@rsystem@base@UModSys@@UEBA_KAEAUSUniquePtrList@core@4@@Z 00000001400053b0 f i umodsys_lib_basesys:umodsys.basesys.rsystem_main.obj
 0001:000043b0       ?get_interface_types@RDataArchiver_OsDir@stdio@media@modules@UModSys@@UEBA_KAEAUSUniquePtrList@core@5@@Z 00000001400053b0 f i umodsys_lib_libmedia:umodsys.mod.media.stdio.obj
 0001:000043b0       ?get_interface_types@RGenerator@std@media@modules@UModSys@@UEBA_KAEAUSUniquePtrList@core@5@@Z 00000001400053b0 f i umodsys_lib_libmedia:umodsys.mod.media.std.obj
 0001:000043b0       ?get_interface_types@RLibraryBinCache@std@media@modules@UModSys@@UEBA_KAEAUSUniquePtrList@core@5@@Z 00000001400053b0 f i umodsys_lib_libmedia:umodsys.mod.media.std.obj
 0001:000043b8       ?get_other_interface@RConsole_std@rsystem@base@UModSys@@UEAAPEAUIRoot@core@4@PEBUSUniquePointerInfo@64@@Z 00000001400053b8 f i umodsys_lib_basesys:umodsys.basesys.rconsole_std.obj
 0001:000043b8       ?get_other_interface@RConsole_std@rsystem@base@UModSys@@UEBAPEBUIRoot@core@4@PEBUSUniquePointerInfo@64@@Z 00000001400053b8 f i umodsys_lib_basesys:umodsys.basesys.rconsole_std.obj
 0001:000043e8       _setargv                   00000001400053e8 f   MSVCRT:dllargv.obj
 0001:000043e8       ?get_syslib@RSystem@rsystem@base@UModSys@@UEAAPEAUIModuleLibrary@34@XZ 00000001400053e8 f   umodsys_lib_basesys:umodsys.basesys.rsystem.obj
 0001:000043e8       ?ref_links@RConsole_std@rsystem@base@UModSys@@UEBAHXZ 00000001400053e8 f   umodsys_lib_basesys:umodsys.basesys.rconsole_std.obj
 0001:000043e8       _matherr                   00000001400053e8 f   MSVCRT:merr.obj
 0001:000043ec       ?vput@RConsole_std@rsystem@base@UModSys@@UEAA_NHPEBDPEAD@Z 00000001400053ec f   umodsys_lib_basesys:umodsys.basesys.rconsole_std.obj
 0001:00004450       ?put@RConsole_std@rsystem@base@UModSys@@UEAA_NHPEBDZZ 0000000140005450 f   umodsys_lib_basesys:umodsys.basesys.rconsole_std.obj
 0001:000044ac       ?get_c@RConsole_std@rsystem@base@UModSys@@UEAA_NPEAHPEBDZZ 00000001400054ac f   umodsys_lib_basesys:umodsys.basesys.rconsole_std.obj
 0001:000044b4       ?reflect@RConsole_std@rsystem@base@UModSys@@QEAA_NPEBD@Z 00000001400054b4 f   umodsys_lib_basesys:umodsys.basesys.rconsole_std.obj
 0001:00004518       ??_GRConsole_std@rsystem@base@UModSys@@UEAAPEAXI@Z 0000000140005518 f i umodsys_lib_basesys:umodsys.basesys.rconsole_std.obj
 0001:00004518       ??_ERConsole_std@rsystem@base@UModSys@@UEAAPEAXI@Z 0000000140005518 f i  CIL library: CIL module
 0001:0000456c       ?decode_error@EExceptionBase@core@UModSys@@UEBAHPEAD_K@Z 000000014000556c f i umodsys_lib_basesys:umodsys.basesys.rsystem_main.obj
 0001:000045a8       ?decode_error@EFatal@core@UModSys@@UEBAHPEAD_K@Z 00000001400055a8 f i umodsys_lib_basesys:umodsys.basesys.rsystem_main.obj
 0001:000045e4       ??_EEExceptionBase@core@UModSys@@UEAAPEAXI@Z 00000001400055e4 f i  CIL library: CIL module
 0001:000045e4       ??_EEFatal@core@UModSys@@UEAAPEAXI@Z 00000001400055e4 f i  CIL library: CIL module
 0001:000045e4       ??_EEWarning@core@UModSys@@UEAAPEAXI@Z 00000001400055e4 f i  CIL library: CIL module
 0001:000045e4       ??_GEWarning@core@UModSys@@UEAAPEAXI@Z 00000001400055e4 f i umodsys_lib_basesys:umodsys.basesys.rsystem_main.obj
 0001:000045e4       ??_GEFatal@core@UModSys@@UEAAPEAXI@Z 00000001400055e4 f i umodsys_lib_basesys:umodsys.basesys.rsystem_main.obj
 0001:000045e4       ??_GEExceptionBase@core@UModSys@@UEAAPEAXI@Z 00000001400055e4 f i umodsys_lib_basesys:umodsys.basesys.rsystem_main.obj
 0001:0000460c       ?decode_error@EWarning@core@UModSys@@UEBAHPEAD_K@Z 000000014000560c f i umodsys_lib_basesys:umodsys.basesys.rsystem_main.obj
 0001:00004648       ??1EWarning@core@UModSys@@UEAA@XZ 0000000140005648 f i umodsys_lib_basesys:umodsys.basesys.rsystem_main.obj
 0001:00004648       ??1EFatal@core@UModSys@@UEAA@XZ 0000000140005648 f i umodsys_lib_basesys:umodsys.basesys.rsystem_main.obj
 0001:00004654       ?get_interface_info@RSystem@rsystem@base@UModSys@@UEBAAEBUSUniquePointerInfo@core@4@XZ 0000000140005654 f i umodsys_lib_basesys:umodsys.basesys.rsystem_main.obj
 0001:0000465c       ?get_interface_type@RSystem@rsystem@base@UModSys@@UEBAPEBUSUniquePointerInfo@core@4@XZ 000000014000565c f i umodsys_lib_basesys:umodsys.basesys.rsystem_main.obj
 0001:00004664       ?get_other_interface@RSystem@rsystem@base@UModSys@@UEAAPEAUIRoot@core@4@PEBUSUniquePointerInfo@64@@Z 0000000140005664 f i umodsys_lib_basesys:umodsys.basesys.rsystem_main.obj
 0001:00004664       ?get_other_interface@RSystem@rsystem@base@UModSys@@UEBAPEBUIRoot@core@4@PEBUSUniquePointerInfo@64@@Z 0000000140005664 f i umodsys_lib_basesys:umodsys.basesys.rsystem_main.obj
 0001:00004684       ?init@RSystem@rsystem@base@UModSys@@QEAA_NXZ 0000000140005684 f   umodsys_lib_basesys:umodsys.basesys.rsystem_main.obj
 0001:00004868       ??_ERSystem@rsystem@base@UModSys@@UEAAPEAXI@Z 0000000140005868 f i  CIL library: CIL module
 0001:00004868       ??_GRSystem@rsystem@base@UModSys@@UEAAPEAXI@Z 0000000140005868 f i umodsys_lib_basesys:umodsys.basesys.rsystem_main.obj
 0001:00004898       ??1RSystem@rsystem@base@UModSys@@UEAA@XZ 0000000140005898 f   umodsys_lib_basesys:umodsys.basesys.rsystem_main.obj
 0001:000049e0       ?dbg_put@rsystem@base@UModSys@@YAXW4eRSystemDebugLevels@123@PEBDZZ 00000001400059e0 f   umodsys_lib_basesys:umodsys.basesys.rsystem_main.obj
 0001:00004a24       ?err_put@rsystem@base@UModSys@@YAXW4eRSystemDebugLevels@123@PEBDZZ 0000000140005a24 f   umodsys_lib_basesys:umodsys.basesys.rsystem_main.obj
 0001:00004a68       ??1?$TStaticStringPool@DU?$TComparerBinaryHash@D@su@tl@UModSys@@USMemAlloc_Malloc@core@4@@tl@UModSys@@QEAA@XZ 0000000140005a68 f i umodsys_lib_basesys:umodsys.basesys.rsystem_main.obj
 0001:00004a70       ??1?$TQuantArrayUnique@USUniquePointerInfo@core@UModSys@@$0BAA@USMemAlloc_Malloc@23@@tl@UModSys@@QEAA@XZ 0000000140005a70 f i umodsys_lib_basesys:umodsys.basesys.rsystem_main.obj
 0001:00004ae8       ??1?$TTreeHoldRBD@U?$TQuantArrayNode@USSourceContext@core@UModSys@@$0BAA@@tl@UModSys@@U?$TNodeDeleter@U?$TQuantArrayNode@USSourceContext@core@UModSys@@$0BAA@@tl@UModSys@@USMemAlloc_Malloc@core@3@@23@@tl@UModSys@@QEAA@XZ 0000000140005ae8 f i umodsys_lib_basesys:umodsys.basesys.rsystem_main.obj
 0001:00004ae8       ??1?$TTreeHoldRBD@U?$TQuantArrayNode@USUniquePointerInfo@core@UModSys@@$0BAA@@tl@UModSys@@U?$TNodeDeleter@U?$TQuantArrayNode@USUniquePointerInfo@core@UModSys@@$0BAA@@tl@UModSys@@USMemAlloc_Malloc@core@3@@23@@tl@UModSys@@QEAA@XZ 0000000140005ae8 f i umodsys_lib_basesys:umodsys.basesys.rsystem_main.obj
 0001:00004b50       ?mem_alloc@?$TRMemAlloc_CC@U?$TMemAllocHeader@USMagic@mem_headers@rsystem@base@UModSys@@U?$TPool@X@2345@USDebug@2345@UVoid@core@5@U895@@rsystem@base@UModSys@@USMemAlloc_Malloc@core@4@@rsystem@base@UModSys@@UEAAPEAX_KPEBUSSourceContext@core@4@@Z 0000000140005b50 f i umodsys_lib_basesys:umodsys.basesys.rsystem_main.obj
 0001:00004bd4       ?mem_realloc@?$TRMemAlloc_CC@U?$TMemAllocHeader@USMagic@mem_headers@rsystem@base@UModSys@@U?$TPool@X@2345@USDebug@2345@UVoid@core@5@U895@@rsystem@base@UModSys@@USMemAlloc_Malloc@core@4@@rsystem@base@UModSys@@UEAAPEAXPEAX_KPEBUSSourceContext@core@4@@Z 0000000140005bd4 f i umodsys_lib_basesys:umodsys.basesys.rsystem_main.obj
 0001:00004ec8       ?mem_free@?$TRMemAlloc_CC@U?$TMemAllocHeader@USMagic@mem_headers@rsystem@base@UModSys@@U?$TPool@X@2345@USDebug@2345@UVoid@core@5@U895@@rsystem@base@UModSys@@USMemAlloc_Malloc@core@4@@rsystem@base@UModSys@@UEAAXPEAXPEBUSSourceContext@core@4@@Z 0000000140005ec8 f i umodsys_lib_basesys:umodsys.basesys.rsystem_main.obj
 0001:00005034       ?free@?$TStaticStringPool@DU?$TComparerBinaryHash@D@su@tl@UModSys@@USMemAlloc_Malloc@core@4@@tl@UModSys@@QEAAXXZ 0000000140006034 f i umodsys_lib_basesys:umodsys.basesys.rsystem_main.obj
 0001:00005088       ??$process_nodes_r@U?$TNodeDeleter@U?$TQuantArrayNode@USSourceContext@core@UModSys@@$0BAA@@tl@UModSys@@USMemAlloc_Malloc@core@3@@tl@UModSys@@@?$TTreeHoldRB@U?$TQuantArrayNode@USSourceContext@core@UModSys@@$0BAA@@tl@UModSys@@@tl@UModSys@@KAHPEAU?$TQuantArrayNode@USSourceContext@core@UModSys@@$0BAA@@12@AEBU?$TNodeDeleter@U?$TQuantArrayNode@USSourceContext@core@UModSys@@$0BAA@@tl@UModSys@@USMemAlloc_Malloc@core@3@@12@@Z 0000000140006088 f i umodsys_lib_basesys:umodsys.basesys.rsystem_main.obj
 0001:00005088       ??$process_nodes_r@U?$TNodeDeleter@U?$TQuantArrayNode@USUniquePointerInfo@core@UModSys@@$0BAA@@tl@UModSys@@USMemAlloc_Malloc@core@3@@tl@UModSys@@@?$TTreeHoldRB@U?$TQuantArrayNode@USUniquePointerInfo@core@UModSys@@$0BAA@@tl@UModSys@@@tl@UModSys@@KAHPEAU?$TQuantArrayNode@USUniquePointerInfo@core@UModSys@@$0BAA@@12@AEBU?$TNodeDeleter@U?$TQuantArrayNode@USUniquePointerInfo@core@UModSys@@$0BAA@@tl@UModSys@@USMemAlloc_Malloc@core@3@@12@@Z 0000000140006088 f i umodsys_lib_basesys:umodsys.basesys.rsystem_main.obj
 0001:000050ec       ??0EFatal@core@UModSys@@QEAA@AEBU012@@Z 00000001400060ec f i umodsys_lib_basesys:umodsys.basesys.rsystem_main.obj
 0001:0000512c       ??0EExceptionBase@core@UModSys@@QEAA@AEBU012@@Z 000000014000612c f i umodsys_lib_basesys:umodsys.basesys.rsystem_main.obj
 0001:00005160       ??0EWarning@core@UModSys@@QEAA@AEBU012@@Z 0000000140006160 f i umodsys_lib_basesys:umodsys.basesys.rsystem_main.obj
 0001:000051a0       ?exec_test_shells@RSystem@rsystem@base@UModSys@@QEAA_NXZ 00000001400061a0 f   umodsys_lib_basesys:umodsys.basesys.rsystem_tests.obj
 0001:00005390       ??1?$TParametersA@$0EAA@@core@UModSys@@QEAA@XZ 0000000140006390 f i umodsys_lib_basesys:umodsys.basesys.rsystem_tests.obj
 0001:000053ac       ??1?$TRefObject@UIStreamWriter@libmedia@UModSys@@U?$TRefObjectFunc@UIStreamWriter@libmedia@UModSys@@@tl@3@@tl@UModSys@@QEAA@XZ 00000001400063ac f i umodsys_lib_libmedia:umodsys.mod.media.std.obj
 0001:000053ac       ??1?$TRefObject@UIRefObject@core@UModSys@@U?$TRefObjectFunc@UIRefObject@core@UModSys@@@tl@3@@tl@UModSys@@QEAA@XZ 00000001400063ac f i umodsys_lib_basesys:umodsys.basesys.rsystem_tests.obj
 0001:000053ac       ??1?$TRefObject@UIModuleLibraryUni@rsystem@base@UModSys@@U?$TRefObjectFunc@UIModuleLibraryUni@rsystem@base@UModSys@@@tl@4@@tl@UModSys@@QEAA@XZ 00000001400063ac f i umodsys_lib_basesys:umodsys.basesys.rmodule.obj
 0001:000053ac       ??1?$TRefObject@URStreamReader_FILE@stdio@media@modules@UModSys@@U?$TRefObjectFunc@URStreamReader_FILE@stdio@media@modules@UModSys@@@tl@5@@tl@UModSys@@QEAA@XZ 00000001400063ac f i umodsys_lib_libmedia:umodsys.mod.media.stdio.obj
 0001:000053ac       ??1?$TRefObject@UIStreamReader@libmedia@UModSys@@U?$TRefObjectFunc@UIStreamReader@libmedia@UModSys@@@tl@3@@tl@UModSys@@QEAA@XZ 00000001400063ac f i umodsys_lib_libmedia:umodsys.mod.media.std.obj
 0001:000053ac       ??1?$TRefObject@URStreamWriter_FILE@stdio@media@modules@UModSys@@U?$TRefObjectFunc@URStreamWriter_FILE@stdio@media@modules@UModSys@@@tl@5@@tl@UModSys@@QEAA@XZ 00000001400063ac f i umodsys_lib_libmedia:umodsys.mod.media.stdio.obj
 0001:000053ac       ??1?$TRefObject@URDataArchiver_OsDir@stdio@media@modules@UModSys@@U?$TRefObjectFunc@URDataArchiver_OsDir@stdio@media@modules@UModSys@@@tl@5@@tl@UModSys@@QEAA@XZ 00000001400063ac f i umodsys_lib_libmedia:umodsys.mod.media.stdio.obj
 0001:000053ac       ??1?$TRefObject@URLibraryBinCache@std@media@modules@UModSys@@U?$TRefObjectFunc@URLibraryBinCache@std@media@modules@UModSys@@@tl@5@@tl@UModSys@@QEAA@XZ 00000001400063ac f i umodsys_lib_libmedia:umodsys.mod.media.std.obj
 0001:000053ac       ??1?$TRefObject@URModuleLibrarySO@rsystem@base@UModSys@@U?$TRefObjectFunc@URModuleLibrarySO@rsystem@base@UModSys@@@tl@4@@tl@UModSys@@QEAA@XZ 00000001400063ac f i umodsys_lib_basesys:umodsys.basesys.rmoduleloader.obj
 0001:000053ac       ??1?$TRefObject@UIShell@base@UModSys@@U?$TRefObjectFunc@UIShell@base@UModSys@@@tl@3@@tl@UModSys@@QEAA@XZ 00000001400063ac f i umodsys_lib_basesys:umodsys.basesys.rsystem_tests.obj
 0001:000053ac       ??1?$TRefObject@URParameters@rsystem@base@UModSys@@U?$TRefObjectFunc@URParameters@rsystem@base@UModSys@@@tl@4@@tl@UModSys@@QEAA@XZ 00000001400063ac f i umodsys_lib_basesys:umodsys.basesys.rsystem_main.obj
 0001:000053ac       ??1?$TRefObject@URLibraryBinTree@std@media@modules@UModSys@@U?$TRefObjectFunc@URLibraryBinTree@std@media@modules@UModSys@@@tl@5@@tl@UModSys@@QEAA@XZ 00000001400063ac f i umodsys_lib_libmedia:umodsys.mod.media.std.obj
 0001:000053d0       ?moduledb_findobjname@RModuleLoader@rsystem@base@UModSys@@UEAA_KPEBUSUniquePointerInfo@core@4@QEAPEBU564@_KPEBD@Z 00000001400063d0 f   umodsys_lib_basesys:umodsys.basesys.rmoduleloader.obj
 0001:00005480       ?moduledb_generate@RModuleLoader@rsystem@base@UModSys@@UEAA_NAEAU?$TRefObject@UIRefObject@core@UModSys@@U?$TRefObjectFunc@UIRefObject@core@UModSys@@@tl@3@@tl@4@PEBUSUniquePointerInfo@core@4@AEBUSParameters@84@@Z 0000000140006480 f   umodsys_lib_basesys:umodsys.basesys.rmoduleloader.obj
 0001:0000550c       ?moduledb_lib_count@RModuleLoader@rsystem@base@UModSys@@UEAA_KXZ 000000014000650c f   umodsys_lib_basesys:umodsys.basesys.rmoduleloader.obj
 0001:00005514       ?moduledb_lib_get@RModuleLoader@rsystem@base@UModSys@@UEBAPEAUIModuleLibrary@34@_K@Z 0000000140006514 f   umodsys_lib_basesys:umodsys.basesys.rmoduleloader.obj
 0001:00005534       ?moduledb_module_count@RModuleLoader@rsystem@base@UModSys@@UEAA_KXZ 0000000140006534 f   umodsys_lib_basesys:umodsys.basesys.rmoduleloader.obj
 0001:00005564       ?moduledb_module_get@RModuleLoader@rsystem@base@UModSys@@UEBAPEAUIModule@34@_K@Z 0000000140006564 f   umodsys_lib_basesys:umodsys.basesys.rmoduleloader.obj
 0001:000055b0       ?moduledb_find@RModuleLoader@rsystem@base@UModSys@@UEBAPEAUIModule@34@AEBU?$TString@U?$TSCoreConst@D@su@tl@UModSys@@U?$TComparerBinaryHash@D@234@@tl@4@AEBUSVersion@core@4@@Z 00000001400065b0 f   umodsys_lib_basesys:umodsys.basesys.rmoduleloader.obj
 0001:000056e8       ?moduledb_clear@RModuleLoader@rsystem@base@UModSys@@UEAAXXZ 00000001400066e8 f   umodsys_lib_basesys:umodsys.basesys.rmoduleloader.obj
 0001:00005790       ?moduledb_cleanup@RModuleLoader@rsystem@base@UModSys@@UEAA_KXZ 0000000140006790 f   umodsys_lib_basesys:umodsys.basesys.rmoduleloader.obj
 0001:00005900       ?obj_load@RLibraryBinTree@std@media@modules@UModSys@@UEAA_NPEAUIRefObject@core@5@AEBU?$TString@U?$TSCoreConst@D@su@tl@UModSys@@U?$TComparerBinaryHash@D@234@@tl@5@AEBUSObjOptions@ILibrary@libmedia@5@@Z 0000000140006900 f   umodsys_lib_libmedia:umodsys.mod.media.std.obj
 0001:00005900       ?obj_fload@RLibraryBinCache@std@media@modules@UModSys@@UEAA_NPEAUIRefObject@core@5@AEBUSInfo@IBinObjFilter@libmedia@5@@Z 0000000140006900 f   umodsys_lib_libmedia:umodsys.mod.media.std.obj
 0001:00005900       ?obj_get@RLibraryBinCache@std@media@modules@UModSys@@UEAA_NAEAU?$TRefObject@UIRefObject@core@UModSys@@U?$TRefObjectFunc@UIRefObject@core@UModSys@@@tl@3@@tl@5@AEBU?$TString@U?$TSCoreConst@D@su@tl@UModSys@@U?$TComparerBinaryHash@D@234@@75@AEBUSObjOptions@ILibrary@libmedia@5@@Z 0000000140006900 f   umodsys_lib_libmedia:umodsys.mod.media.std.obj
 0001:00005900       ?bin_put@RLibraryBinTree@std@media@modules@UModSys@@UEAA_NAEBUSCMemShared@core@5@AEBU?$TString@U?$TSCoreConst@D@su@tl@UModSys@@U?$TComparerBinaryHash@D@234@@tl@5@@Z 0000000140006900 f   umodsys_lib_libmedia:umodsys.mod.media.std.obj
 0001:00005900       ?obj_cput@RLibraryBinTree@std@media@modules@UModSys@@UEAA_NPEAUIRefObject@core@5@AEBU?$TString@U?$TSCoreConst@D@su@tl@UModSys@@U?$TComparerBinaryHash@D@234@@tl@5@@Z 0000000140006900 f   umodsys_lib_libmedia:umodsys.mod.media.std.obj
 0001:00005900       ?obj_fload@RLibraryBinTree@std@media@modules@UModSys@@UEAA_NPEAUIRefObject@core@5@AEBUSInfo@IBinObjFilter@libmedia@5@@Z 0000000140006900 f   umodsys_lib_libmedia:umodsys.mod.media.std.obj
 0001:00005900       ?obj_save@RLibraryBinTree@std@media@modules@UModSys@@UEAA_NPEAUIRefObject@core@5@AEBU?$TString@U?$TSCoreConst@D@su@tl@UModSys@@U?$TComparerBinaryHash@D@234@@tl@5@AEBUSObjOptions@ILibrary@libmedia@5@@Z 0000000140006900 f   umodsys_lib_libmedia:umodsys.mod.media.std.obj
 0001:00005900       ?obj_get@RLibraryBinTree@std@media@modules@UModSys@@UEAA_NAEAU?$TRefObject@UIRefObject@core@UModSys@@U?$TRefObjectFunc@UIRefObject@core@UModSys@@@tl@3@@tl@5@AEBU?$TString@U?$TSCoreConst@D@su@tl@UModSys@@U?$TComparerBinaryHash@D@234@@75@AEBUSObjOptions@ILibrary@libmedia@5@@Z 0000000140006900 f   umodsys_lib_libmedia:umodsys.mod.media.std.obj
 0001:00005900       ?moduledb_load@RModuleLoader@rsystem@base@UModSys@@UEAA_NAEBU?$TString@U?$TSCoreConst@D@su@tl@UModSys@@U?$TComparerBinaryHash@D@234@@tl@4@@Z 0000000140006900 f   umodsys_lib_basesys:umodsys.basesys.rmoduleloader.obj
 0001:00005900       ?obj_cget@RLibraryBinTree@std@media@modules@UModSys@@UEAA_NAEAU?$TRefObject@UIRefObject@core@UModSys@@U?$TRefObjectFunc@UIRefObject@core@UModSys@@@tl@3@@tl@5@AEBU?$TString@U?$TSCoreConst@D@su@tl@UModSys@@U?$TComparerBinaryHash@D@234@@75@@Z 0000000140006900 f   umodsys_lib_libmedia:umodsys.mod.media.std.obj
 0001:00005900       ?obj_load@RLibraryBinCache@std@media@modules@UModSys@@UEAA_NPEAUIRefObject@core@5@AEBU?$TString@U?$TSCoreConst@D@su@tl@UModSys@@U?$TComparerBinaryHash@D@234@@tl@5@AEBUSObjOptions@ILibrary@libmedia@5@@Z 0000000140006900 f   umodsys_lib_libmedia:umodsys.mod.media.std.obj
 0001:00005900       ?obj_cput@RLibraryBinCache@std@media@modules@UModSys@@UEAA_NPEAUIRefObject@core@5@AEBU?$TString@U?$TSCoreConst@D@su@tl@UModSys@@U?$TComparerBinaryHash@D@234@@tl@5@@Z 0000000140006900 f   umodsys_lib_libmedia:umodsys.mod.media.std.obj
 0001:00005900       ?get_s@RConsole_std@rsystem@base@UModSys@@UEAA_NPEAD_KPEBDZZ 0000000140006900 f   umodsys_lib_basesys:umodsys.basesys.rconsole_std.obj
 0001:00005900       ?ref_weak@RConsole_std@rsystem@base@UModSys@@UEBA_NAEAUWeakPointer@IRefObject@core@4@@Z 0000000140006900 f   umodsys_lib_basesys:umodsys.basesys.rconsole_std.obj
 0001:00005900       ?obj_fget@RLibraryBinTree@std@media@modules@UModSys@@UEAA_NAEAU?$TRefObject@UIRefObject@core@UModSys@@U?$TRefObjectFunc@UIRefObject@core@UModSys@@@tl@3@@tl@5@AEBUSInfo@IBinObjFilter@libmedia@5@@Z 0000000140006900 f   umodsys_lib_libmedia:umodsys.mod.media.std.obj
 0001:00005900       ?vget_s@RConsole_std@rsystem@base@UModSys@@UEAA_NPEAD_KPEBD0@Z 0000000140006900 f   umodsys_lib_basesys:umodsys.basesys.rconsole_std.obj
 0001:00005900       ?moduledb_lib_drop@RModuleLoader@rsystem@base@UModSys@@UEAA_NPEAUIModuleLibrary@34@@Z 0000000140006900 f   umodsys_lib_basesys:umodsys.basesys.rmoduleloader.obj
 0001:00005900       ?bin_save@RLibraryBinCache@std@media@modules@UModSys@@UEAA_NAEBUSCMem@core@5@AEBU?$TString@U?$TSCoreConst@D@su@tl@UModSys@@U?$TComparerBinaryHash@D@234@@tl@5@AEBUSFlags@libmedia@5@@Z 0000000140006900 f   umodsys_lib_libmedia:umodsys.mod.media.std.obj
 0001:00005900       ?obj_fget@RLibraryBinCache@std@media@modules@UModSys@@UEAA_NAEAU?$TRefObject@UIRefObject@core@UModSys@@U?$TRefObjectFunc@UIRefObject@core@UModSys@@@tl@3@@tl@5@AEBUSInfo@IBinObjFilter@libmedia@5@@Z 0000000140006900 f   umodsys_lib_libmedia:umodsys.mod.media.std.obj
 0001:00005900       ?obj_fsave@RLibraryBinTree@std@media@modules@UModSys@@UEAA_NPEAUIRefObject@core@5@AEAUSInfo@IBinObjFilter@libmedia@5@@Z 0000000140006900 f   umodsys_lib_libmedia:umodsys.mod.media.std.obj
 0001:00005900       ?vget_c@RConsole_std@rsystem@base@UModSys@@UEAA_NPEAHPEBDPEAD@Z 0000000140006900 f   umodsys_lib_basesys:umodsys.basesys.rconsole_std.obj
 0001:00005900       ?obj_save@RLibraryBinCache@std@media@modules@UModSys@@UEAA_NPEAUIRefObject@core@5@AEBU?$TString@U?$TSCoreConst@D@su@tl@UModSys@@U?$TComparerBinaryHash@D@234@@tl@5@AEBUSObjOptions@ILibrary@libmedia@5@@Z 0000000140006900 f   umodsys_lib_libmedia:umodsys.mod.media.std.obj
 0001:00005900       ?bin_get@RLibraryBinTree@std@media@modules@UModSys@@UEAA_NAEAUSCMemShared@core@5@AEBU?$TString@U?$TSCoreConst@D@su@tl@UModSys@@U?$TComparerBinaryHash@D@234@@tl@5@@Z 0000000140006900 f   umodsys_lib_libmedia:umodsys.mod.media.std.obj
 0001:00005900       ?obj_fsave@RLibraryBinCache@std@media@modules@UModSys@@UEAA_NPEAUIRefObject@core@5@AEAUSInfo@IBinObjFilter@libmedia@5@@Z 0000000140006900 f   umodsys_lib_libmedia:umodsys.mod.media.std.obj
 0001:00005900       ?obj_cget@RLibraryBinCache@std@media@modules@UModSys@@UEAA_NAEAU?$TRefObject@UIRefObject@core@UModSys@@U?$TRefObjectFunc@UIRefObject@core@UModSys@@@tl@3@@tl@5@AEBU?$TString@U?$TSCoreConst@D@su@tl@UModSys@@U?$TComparerBinaryHash@D@234@@75@@Z 0000000140006900 f   umodsys_lib_libmedia:umodsys.mod.media.std.obj
 0001:00005904       ?moduledb_save@RModuleLoader@rsystem@base@UModSys@@UEAA_NAEBU?$TString@U?$TSCoreConst@D@su@tl@UModSys@@U?$TComparerBinaryHash@D@234@@tl@4@@Z 0000000140006904 f   umodsys_lib_basesys:umodsys.basesys.rmoduleloader.obj
 0001:000059b4       ?moduledb_scan@RModuleLoader@rsystem@base@UModSys@@UEAA_KAEBU?$TString@U?$TSCoreConst@D@su@tl@UModSys@@U?$TComparerBinaryHash@D@234@@tl@4@_N@Z 00000001400069b4 f   umodsys_lib_basesys:umodsys.basesys.rmoduleloader.obj
 0001:00005b28       ?moduledb_get_string@RModuleLoader@rsystem@base@UModSys@@UEAAAEBU?$TString@U?$TSCoreConst@D@su@tl@UModSys@@U?$TComparerBinaryHash@D@234@@tl@4@AEBU564@@Z 0000000140006b28 f   umodsys_lib_basesys:umodsys.basesys.rmoduleloader.obj
 0001:00005b64       ??_ERModuleLoader@rsystem@base@UModSys@@UEAAPEAXI@Z 0000000140006b64 f i  CIL library: CIL module
 0001:00005b64       ??_GRModuleLoader@rsystem@base@UModSys@@UEAAPEAXI@Z 0000000140006b64 f i umodsys_lib_basesys:umodsys.basesys.rmoduleloader.obj
 0001:00005b94       ??_GIModuleLoader@base@UModSys@@UEAAPEAXI@Z 0000000140006b94 f i umodsys_lib_basesys:umodsys.basesys.rmoduleloader.obj
 0001:00005b94       ??_EIModuleLoader@base@UModSys@@UEAAPEAXI@Z 0000000140006b94 f i  CIL library: CIL module
 0001:00005bbc       ??1RModuleLoader@rsystem@base@UModSys@@UEAA@XZ 0000000140006bbc f   umodsys_lib_basesys:umodsys.basesys.rmoduleloader.obj
 0001:00005c54       ??1?$TDynarrayDynamic@U?$TRefObject@URModuleLibrarySO@rsystem@base@UModSys@@U?$TRefObjectFunc@URModuleLibrarySO@rsystem@base@UModSys@@@tl@4@@tl@UModSys@@U?$TAllocator@USMemAlloc_Malloc@core@UModSys@@USCountCalcPower2@23@@23@@tl@UModSys@@QEAA@XZ 0000000140006c54 f i umodsys_lib_basesys:umodsys.basesys.rmoduleloader.obj
 0001:00005c9c       ?Resize@?$TDynarray@U?$TDynarrayHolderDynamic@U?$TRefObject@URModuleLibrarySO@rsystem@base@UModSys@@U?$TRefObjectFunc@URModuleLibrarySO@rsystem@base@UModSys@@@tl@4@@tl@UModSys@@U?$TAllocator@USMemAlloc_Malloc@core@UModSys@@USCountCalcPower2@23@@23@@tl@UModSys@@@tl@UModSys@@QEAA_N_K@Z 0000000140006c9c f i umodsys_lib_basesys:umodsys.basesys.rmoduleloader.obj
 0001:00005c9c       ?Resize@?$TDynarray@U?$TDynarrayHolderDynamic@U?$TRefObject@URModule@rsystem@base@UModSys@@U?$TRefObjectFunc@URModule@rsystem@base@UModSys@@@tl@4@@tl@UModSys@@U?$TAllocator@USMemAlloc_Malloc@core@UModSys@@USCountCalcPower2@23@@23@@tl@UModSys@@@tl@UModSys@@QEAA_N_K@Z 0000000140006c9c f i umodsys_lib_basesys:umodsys.basesys.rmodulelib.obj
 0001:00005d8c       ?append@?$TStaticStringPool@DU?$TComparerBinaryHash@D@su@tl@UModSys@@USMemAlloc_Malloc@core@4@@tl@UModSys@@QEAAPEBU?$TString@U?$TSCoreConst@D@su@tl@UModSys@@U?$TComparerBinaryHash@D@234@@23@PEBD_K@Z 0000000140006d8c f i umodsys_lib_basesys:umodsys.basesys.rmoduleloader.obj
 0001:00006068       ?get_interface_info@RModuleLibraryThis@rsystem@base@UModSys@@UEBAAEBUSUniquePointerInfo@core@4@XZ 0000000140007068 f i umodsys_lib_basesys:umodsys.basesys.rmodulelibthis.obj
 0001:00006070       ?get_interface_type@RModuleLibraryThis@rsystem@base@UModSys@@UEBAPEBUSUniquePointerInfo@core@4@XZ 0000000140007070 f i umodsys_lib_basesys:umodsys.basesys.rmodulelibthis.obj
 0001:00006078       ?get_other_interface@RModuleLibraryThis@rsystem@base@UModSys@@UEAAPEAUIRoot@core@4@PEBUSUniquePointerInfo@64@@Z 0000000140007078 f i umodsys_lib_basesys:umodsys.basesys.rmodulelibthis.obj
 0001:00006078       ?get_other_interface@RModuleLibraryThis@rsystem@base@UModSys@@UEBAPEBUIRoot@core@4@PEBUSUniquePointerInfo@64@@Z 0000000140007078 f i umodsys_lib_basesys:umodsys.basesys.rmodulelibthis.obj
 0001:000060b0       ?ref_add@RModuleLibraryThis@rsystem@base@UModSys@@UEBAXXZ 00000001400070b0 f i umodsys_lib_basesys:umodsys.basesys.rmodulelibthis.obj
 0001:000060b8       ?ref_remove@RModuleLibraryThis@rsystem@base@UModSys@@UEBAXXZ 00000001400070b8 f i umodsys_lib_basesys:umodsys.basesys.rmodulelibthis.obj
 0001:000060d0       ?ref_links@RModuleLibraryThis@rsystem@base@UModSys@@UEBAHXZ 00000001400070d0 f i umodsys_lib_basesys:umodsys.basesys.rmodulelibthis.obj
 0001:000060d8       ?ref_weak@RModuleLibraryThis@rsystem@base@UModSys@@UEBA_NAEAUWeakPointer@IRefObject@core@4@@Z 00000001400070d8 f i umodsys_lib_basesys:umodsys.basesys.rmodulelibthis.obj
 0001:000060fc       ?uni_load@RModuleLibraryThis@rsystem@base@UModSys@@UEAA_NXZ 00000001400070fc f   umodsys_lib_basesys:umodsys.basesys.rmodulelibthis.obj
 0001:0000610c       ?uni_unload@RModuleLibraryThis@rsystem@base@UModSys@@UEAA_NXZ 000000014000710c f   umodsys_lib_basesys:umodsys.basesys.rmodulelibthis.obj
 0001:0000610c       ?uni_close@RModuleLibraryThis@rsystem@base@UModSys@@UEAA_NXZ 000000014000710c f   umodsys_lib_basesys:umodsys.basesys.rmodulelibthis.obj
 0001:0000610c       ?uni_open@RModuleLibraryThis@rsystem@base@UModSys@@UEAA_NXZ 000000014000710c f   umodsys_lib_basesys:umodsys.basesys.rmodulelibthis.obj
 0001:00006110       ??_ERModuleLibraryThis@rsystem@base@UModSys@@UEAAPEAXI@Z 0000000140007110 f i  CIL library: CIL module
 0001:00006110       ??_GRModuleLibraryThis@rsystem@base@UModSys@@UEAAPEAXI@Z 0000000140007110 f i umodsys_lib_basesys:umodsys.basesys.rmodulelibthis.obj
 0001:00006160       ?get_sys_libname@IModuleLibraryUni@rsystem@base@UModSys@@UEBA?AU?$TString@U?$TSCoreConst@D@su@tl@UModSys@@U?$TComparerBinaryHash@D@234@@tl@4@XZ 0000000140007160 f   umodsys_lib_basesys:umodsys.basesys.rmodulelib.obj
 0001:00006170       ?get_privmem@IModuleLibraryUni@rsystem@base@UModSys@@UEBAPEAUIMemAlloc@core@4@XZ 0000000140007170 f   umodsys_lib_basesys:umodsys.basesys.rmodulelib.obj
 0001:00006178       ?get_system@IModuleLibraryUni@rsystem@base@UModSys@@UEBAPEAUISystem@34@XZ 0000000140007178 f   umodsys_lib_basesys:umodsys.basesys.rmodulelib.obj
 0001:00006180       ?get_module_count@IModuleLibraryUni@rsystem@base@UModSys@@UEBA_KXZ 0000000140007180 f   umodsys_lib_basesys:umodsys.basesys.rmodulelib.obj
 0001:00006188       ?get_module@IModuleLibraryUni@rsystem@base@UModSys@@UEBAPEAUIModule@34@_K@Z 0000000140007188 f   umodsys_lib_basesys:umodsys.basesys.rmodulelib.obj
 0001:0000619c       ?lib_loaded@IModuleLibraryUni@rsystem@base@UModSys@@UEBA_NXZ 000000014000719c f   umodsys_lib_basesys:umodsys.basesys.rmodulelib.obj
 0001:000061a8       ?lib_load@IModuleLibraryUni@rsystem@base@UModSys@@UEAA_NXZ 00000001400071a8 f   umodsys_lib_basesys:umodsys.basesys.rmodulelib.obj
 0001:000061d4       ?lib_unload@IModuleLibraryUni@rsystem@base@UModSys@@UEAA_NXZ 00000001400071d4 f   umodsys_lib_basesys:umodsys.basesys.rmodulelib.obj
 0001:000061e8       ?lib_free@IModuleLibraryUni@rsystem@base@UModSys@@UEAA_NXZ 00000001400071e8 f   umodsys_lib_basesys:umodsys.basesys.rmodulelib.obj
 0001:00006208       ?lib_findobjname@IModuleLibraryUni@rsystem@base@UModSys@@UEAA_KPEBUSUniquePointerInfo@core@4@QEAPEBU564@_KPEBD@Z 0000000140007208 f   umodsys_lib_basesys:umodsys.basesys.rmodulelib.obj
 0001:000062ac       ?lib_generate@IModuleLibraryUni@rsystem@base@UModSys@@UEAA_NAEAU?$TRefObject@UIRefObject@core@UModSys@@U?$TRefObjectFunc@UIRefObject@core@UModSys@@@tl@3@@tl@4@PEBUSUniquePointerInfo@core@4@AEBUSParameters@84@@Z 00000001400072ac f   umodsys_lib_basesys:umodsys.basesys.rmodulelib.obj
 0001:00006328       ?cleanup@IModuleLibraryUni@rsystem@base@UModSys@@QEAA_KXZ 0000000140007328 f   umodsys_lib_basesys:umodsys.basesys.rmodulelib.obj
 0001:00006374       ?load0@IModuleLibraryUni@rsystem@base@UModSys@@QEAA_NXZ 0000000140007374 f   umodsys_lib_basesys:umodsys.basesys.rmodulelib.obj
 0001:000063d8       ?link@IModuleLibraryUni@rsystem@base@UModSys@@QEAA_NXZ 00000001400073d8 f   umodsys_lib_basesys:umodsys.basesys.rmodulelib.obj
 0001:000066f0       ?unlink@IModuleLibraryUni@rsystem@base@UModSys@@QEAA_NXZ 00000001400076f0 f   umodsys_lib_basesys:umodsys.basesys.rmodulelib.obj
 0001:00006740       ?scan@IModuleLibraryUni@rsystem@base@UModSys@@QEAA_NXZ 0000000140007740 f   umodsys_lib_basesys:umodsys.basesys.rmodulelib.obj
 0001:000067b4       ?save_db@IModuleLibraryUni@rsystem@base@UModSys@@QEAA_NPEAU_iobuf@@@Z 00000001400077b4 f   umodsys_lib_basesys:umodsys.basesys.rmodulelib.obj
 0001:0000683c       ??_EIModuleLibraryUni@rsystem@base@UModSys@@UEAAPEAXI@Z 000000014000783c f i  CIL library: CIL module
 0001:0000683c       ??_GIModuleLibraryUni@rsystem@base@UModSys@@UEAAPEAXI@Z 000000014000783c f i umodsys_lib_basesys:umodsys.basesys.rmodulelib.obj
 0001:0000686c       ??1IModuleLibraryUni@rsystem@base@UModSys@@UEAA@XZ 000000014000786c f   umodsys_lib_basesys:umodsys.basesys.rmodulelib.obj
 0001:00006914       ?check_leaks@?$TRMemAlloc_CC@U?$TMemAllocHeader@USMagic@mem_headers@rsystem@base@UModSys@@U?$TPool@X@2345@USDebug@2345@UVoid@core@5@U895@@rsystem@base@UModSys@@USMemAlloc_Malloc@core@4@@rsystem@base@UModSys@@QEAA_K_NPEAUIExceptionHandler@core@4@@Z 0000000140007914 f i umodsys_lib_basesys:umodsys.basesys.rmodulelib.obj
 0001:000069c0       ?upi_add@RSystem@rsystem@base@UModSys@@UEAAPEBUSUniquePointerInfo@core@4@PEBU564@@Z 00000001400079c0 f   umodsys_lib_basesys:umodsys.basesys.rsystem.obj
 0001:00006af0       ?upi_remove@RSystem@rsystem@base@UModSys@@UEAAHPEBUSUniquePointerInfo@core@4@@Z 0000000140007af0 f   umodsys_lib_basesys:umodsys.basesys.rsystem.obj
 0001:00006af4       ?persist_ctx@RSystem@rsystem@base@UModSys@@UEAAPEBUSSourceContext@core@4@PEBU564@@Z 0000000140007af4 f   umodsys_lib_basesys:umodsys.basesys.rsystem.obj
 0001:00006c24       ?get_params@RSystem@rsystem@base@UModSys@@UEAAPEAUIParameters@core@4@XZ 0000000140007c24 f   umodsys_lib_basesys:umodsys.basesys.rsystem.obj
 0001:00006c2c       ?get_console@RSystem@rsystem@base@UModSys@@UEAAPEAUIConsole@34@XZ 0000000140007c2c f   umodsys_lib_basesys:umodsys.basesys.rsystem.obj
 0001:00006c34       ?get_sysmem@RSystem@rsystem@base@UModSys@@UEAAPEAUIMemAlloc@core@4@XZ 0000000140007c34 f   umodsys_lib_basesys:umodsys.basesys.rsystem.obj
 0001:00006c3c       ?get_sharemem@RSystem@rsystem@base@UModSys@@UEAAPEAUIMemAlloc@core@4@XZ 0000000140007c3c f   umodsys_lib_basesys:umodsys.basesys.rsystem.obj
 0001:00006c44       ?get_modloader@RSystem@rsystem@base@UModSys@@UEAAPEAUIModuleLoader@34@XZ 0000000140007c44 f   umodsys_lib_basesys:umodsys.basesys.rsystem.obj
 0001:00006c4c       ?get_upr@RSystem@rsystem@base@UModSys@@UEAAPEAUIUniquePointerResolver@core@4@XZ 0000000140007c4c f   umodsys_lib_basesys:umodsys.basesys.rsystem.obj
 0001:00006c58       ?get_sca@RSystem@rsystem@base@UModSys@@UEAAPEAUISourceContextAdapter@core@4@XZ 0000000140007c58 f   umodsys_lib_basesys:umodsys.basesys.rsystem.obj
 0001:00006c64       ?find@?$TQuantArrayUnique@USSourceContext@core@UModSys@@$0BAA@USMemAlloc_Malloc@23@@tl@UModSys@@QEAAPEBUSSourceContext@core@3@AEBU453@@Z 0000000140007c64 f i umodsys_lib_basesys:umodsys.basesys.rsystem.obj
 0001:00006c64       ?find@?$TQuantArrayUnique@USUniquePointerInfo@core@UModSys@@$0BAA@USMemAlloc_Malloc@23@@tl@UModSys@@QEAAPEBUSUniquePointerInfo@core@3@AEBU453@@Z 0000000140007c64 f i umodsys_lib_basesys:umodsys.basesys.rsystem.obj
 0001:00006d40       ?add@?$TQuantArrayUnique@USUniquePointerInfo@core@UModSys@@$0BAA@USMemAlloc_Malloc@23@@tl@UModSys@@QEAAPEAUSUniquePointerInfo@core@3@AEBU453@@Z 0000000140007d40 f i umodsys_lib_basesys:umodsys.basesys.rsystem.obj
 0001:00006d40       ?add@?$TQuantArrayUnique@USSourceContext@core@UModSys@@$0BAA@USMemAlloc_Malloc@23@@tl@UModSys@@QEAAPEAUSSourceContext@core@3@AEBU453@@Z 0000000140007d40 f i umodsys_lib_basesys:umodsys.basesys.rsystem.obj
 0001:00006e80       ?s_last@?$TQuantArrayUnique@USUniquePointerInfo@core@UModSys@@$0BAA@USMemAlloc_Malloc@23@@tl@UModSys@@KAHPEBU?$TQuantArrayNode@USUniquePointerInfo@core@UModSys@@$0BAA@@23@0@Z 0000000140007e80 f i umodsys_lib_basesys:umodsys.basesys.rsystem.obj
 0001:00006e80       ?s_last@?$TQuantArrayUnique@USSourceContext@core@UModSys@@$0BAA@USMemAlloc_Malloc@23@@tl@UModSys@@KAHPEBU?$TQuantArrayNode@USSourceContext@core@UModSys@@$0BAA@@23@0@Z 0000000140007e80 f i umodsys_lib_basesys:umodsys.basesys.rsystem.obj
 0001:00006e88       ??$insert_node_m@P6AHPEBU?$TQuantArrayNode@USUniquePointerInfo@core@UModSys@@$0BAA@@tl@UModSys@@0@Z@?$TTreeHoldRB@U?$TQuantArrayNode@USUniquePointerInfo@core@UModSys@@$0BAA@@tl@UModSys@@@tl@UModSys@@QEAAPEAU?$TQuantArrayNode@USUniquePointerInfo@core@UModSys@@$0BAA@@12@PEAU312@P6AHPEBU312@1@Z@Z 0000000140007e88 f i umodsys_lib_basesys:umodsys.basesys.rsystem.obj
 0001:00006e88       ??$insert_node_m@P6AHPEBU?$TQuantArrayNode@USSourceContext@core@UModSys@@$0BAA@@tl@UModSys@@0@Z@?$TTreeHoldRB@U?$TQuantArrayNode@USSourceContext@core@UModSys@@$0BAA@@tl@UModSys@@@tl@UModSys@@QEAAPEAU?$TQuantArrayNode@USSourceContext@core@UModSys@@$0BAA@@12@PEAU312@P6AHPEBU312@1@Z@Z 0000000140007e88 f i umodsys_lib_basesys:umodsys.basesys.rsystem.obj
 0001:0000708c       ?get_interface_info@RParameters@rsystem@base@UModSys@@UEBAAEBUSUniquePointerInfo@core@4@XZ 000000014000808c f i umodsys_lib_basesys:umodsys.basesys.rparameters.obj
 0001:00007094       ?get_interface_type@RParameters@rsystem@base@UModSys@@UEBAPEBUSUniquePointerInfo@core@4@XZ 0000000140008094 f i umodsys_lib_basesys:umodsys.basesys.rparameters.obj
 0001:0000709c       ?get_other_interface@RParameters@rsystem@base@UModSys@@UEBAPEBUIRoot@core@4@PEBUSUniquePointerInfo@64@@Z 000000014000809c f i umodsys_lib_basesys:umodsys.basesys.rparameters.obj
 0001:0000709c       ?get_other_interface@RParameters@rsystem@base@UModSys@@UEAAPEAUIRoot@core@4@PEBUSUniquePointerInfo@64@@Z 000000014000809c f i umodsys_lib_basesys:umodsys.basesys.rparameters.obj
 0001:000070cc       ?ref_add@RParameters@rsystem@base@UModSys@@UEBAXXZ 00000001400080cc f i umodsys_lib_basesys:umodsys.basesys.rparameters.obj
 0001:000070d0       ?ref_remove@RParameters@rsystem@base@UModSys@@UEBAXXZ 00000001400080d0 f i umodsys_lib_basesys:umodsys.basesys.rparameters.obj
 0001:000070e8       ?ref_links@RParameters@rsystem@base@UModSys@@UEBAHXZ 00000001400080e8 f i umodsys_lib_basesys:umodsys.basesys.rparameters.obj
 0001:000070ec       ?ref_weak@RParameters@rsystem@base@UModSys@@UEBA_NAEAUWeakPointer@IRefObject@core@4@@Z 00000001400080ec f i umodsys_lib_basesys:umodsys.basesys.rparameters.obj
 0001:0000710c       ?find_elem@RParameters@rsystem@base@UModSys@@IEAAPEBUElem@1234@PEBXHHHPEBD@Z 000000014000810c f   umodsys_lib_basesys:umodsys.basesys.rparameters.obj
 0001:000071a4       ?free_elems@RParameters@rsystem@base@UModSys@@IEAAXPEAXH@Z 00000001400081a4 f   umodsys_lib_basesys:umodsys.basesys.rparameters.obj
 0001:0000723c       ?alloc_elems@RParameters@rsystem@base@UModSys@@IEAAXPEAXH@Z 000000014000823c f   umodsys_lib_basesys:umodsys.basesys.rparameters.obj
 0001:000072c0       ?add_last@RParameters@rsystem@base@UModSys@@IEAA_NPEAUSParametersData@core@4@PEBDPEBXH@Z 00000001400082c0 f   umodsys_lib_basesys:umodsys.basesys.rparameters.obj
 0001:00007568       ?p_deinit@RParameters@rsystem@base@UModSys@@UEAAXPEAUSParametersData@core@4@@Z 0000000140008568 f   umodsys_lib_basesys:umodsys.basesys.rparameters.obj
 0001:000075d8       ?p_init@RParameters@rsystem@base@UModSys@@UEAAXPEAUSParametersData@core@4@H@Z 00000001400085d8 f   umodsys_lib_basesys:umodsys.basesys.rparameters.obj
 0001:00007680       ?p_init@RParameters@rsystem@base@UModSys@@UEAAXPEAUSParametersData@core@4@AEBU564@@Z 0000000140008680 f   umodsys_lib_basesys:umodsys.basesys.rparameters.obj
 0001:00007774       ?p_copy@RParameters@rsystem@base@UModSys@@UEAAXPEAUSParametersData@core@4@AEBU564@@Z 0000000140008774 f   umodsys_lib_basesys:umodsys.basesys.rparameters.obj
 0001:000078c0       ?p_init_s@RParameters@rsystem@base@UModSys@@UEAAXPEAUSParametersData@core@4@PEAXH@Z 00000001400088c0 f   umodsys_lib_basesys:umodsys.basesys.rparameters.obj
 0001:000078f8       ?p_init_s@RParameters@rsystem@base@UModSys@@UEAAXPEAUSParametersData@core@4@AEBU564@PEAXH@Z 00000001400088f8 f   umodsys_lib_basesys:umodsys.basesys.rparameters.obj
 0001:00007978       ?next@RParameters@rsystem@base@UModSys@@UEAA_NPEBUSParametersData@core@4@AEAPEBD@Z 0000000140008978 f   umodsys_lib_basesys:umodsys.basesys.rparameters.obj
 0001:00007a50       ?next@RParameters@rsystem@base@UModSys@@UEAA_NPEBUSParametersData@core@4@AEAU?$TString@U?$TSCoreConst@D@su@tl@UModSys@@U?$TComparerBinaryHash@D@234@@tl@4@@Z 0000000140008a50 f   umodsys_lib_basesys:umodsys.basesys.rparameters.obj
 0001:00007b80       ?add@RParameters@rsystem@base@UModSys@@UEAA_NPEAUSParametersData@core@4@PEBD1@Z 0000000140008b80 f   umodsys_lib_basesys:umodsys.basesys.rparameters.obj
 0001:00007b98       ?add@RParameters@rsystem@base@UModSys@@UEAA_NPEAUSParametersData@core@4@PEBDH@Z 0000000140008b98 f   umodsys_lib_basesys:umodsys.basesys.rparameters.obj
 0001:00007bb8       ?add@RParameters@rsystem@base@UModSys@@UEAA_NPEAUSParametersData@core@4@PEBDAEBN@Z 0000000140008bb8 f   umodsys_lib_basesys:umodsys.basesys.rparameters.obj
 0001:00007bd0       ?add@RParameters@rsystem@base@UModSys@@UEAA_NPEAUSParametersData@core@4@PEBDPEAUIRefObject@64@@Z 0000000140008bd0 f   umodsys_lib_basesys:umodsys.basesys.rparameters.obj
 0001:00007bf0       ?get@RParameters@rsystem@base@UModSys@@UEAA_NPEBUSParametersData@core@4@PEBDAEAPEBD@Z 0000000140008bf0 f   umodsys_lib_basesys:umodsys.basesys.rparameters.obj
 0001:00007c68       ?get@RParameters@rsystem@base@UModSys@@UEAA_NPEBUSParametersData@core@4@PEBDAEAH@Z 0000000140008c68 f   umodsys_lib_basesys:umodsys.basesys.rparameters.obj
 0001:00007cdc       ?get@RParameters@rsystem@base@UModSys@@UEAA_NPEBUSParametersData@core@4@PEBDAEAN@Z 0000000140008cdc f   umodsys_lib_basesys:umodsys.basesys.rparameters.obj
 0001:00007d54       ?get@RParameters@rsystem@base@UModSys@@UEAA_NPEBUSParametersData@core@4@PEBDAEAPEAUIRefObject@64@@Z 0000000140008d54 f   umodsys_lib_basesys:umodsys.basesys.rparameters.obj
 0001:00007e6c       ?pfd_load@RModuleLibrarySO@rsystem@base@UModSys@@SAPEAUIModuleLibraryReg@34@PEAUPFD_Data@1234@AEBU?$TString@U?$TSCoreConst@D@su@tl@UModSys@@U?$TComparerBinaryHash@D@234@@tl@4@@Z 0000000140008e6c f   umodsys_lib_basesys:umodsys.basesys.rmodule.win32.obj
 0001:00007fac       ?pfd_unload@RModuleLibrarySO@rsystem@base@UModSys@@SA_NPEAUPFD_Data@1234@@Z 0000000140008fac f   umodsys_lib_basesys:umodsys.basesys.rmodule.win32.obj
 0001:0000830c       ??0?$WinPath@$0BAAA@@syshlp@core@UModSys@@QEAA@PEB_W0@Z 000000014000930c f i umodsys_lib_basesys:umodsys.basesys.rmodule.win32.obj
 0001:000083f8       ??0?$U16String@$0BAAA@@syshlp@core@UModSys@@QEAA@PEBD@Z 00000001400093f8 f i umodsys_lib_basesys:umodsys.basesys.rmodule.win32.obj
 0001:00008470       ?get_interface_info@RModule@rsystem@base@UModSys@@UEBAAEBUSUniquePointerInfo@core@4@XZ 0000000140009470 f i umodsys_lib_basesys:umodsys.basesys.rmodule.obj
 0001:00008478       ?get_interface_type@RModule@rsystem@base@UModSys@@UEBAPEBUSUniquePointerInfo@core@4@XZ 0000000140009478 f i umodsys_lib_basesys:umodsys.basesys.rmodule.obj
 0001:00008480       ?get_other_interface@RModule@rsystem@base@UModSys@@UEAAPEAUIRoot@core@4@PEBUSUniquePointerInfo@64@@Z 0000000140009480 f i umodsys_lib_basesys:umodsys.basesys.rmodule.obj
 0001:00008480       ?get_other_interface@RModule@rsystem@base@UModSys@@UEBAPEBUIRoot@core@4@PEBUSUniquePointerInfo@64@@Z 0000000140009480 f i umodsys_lib_basesys:umodsys.basesys.rmodule.obj
 0001:000084b0       ?ref_add@RModule@rsystem@base@UModSys@@UEBAXXZ 00000001400094b0 f i umodsys_lib_basesys:umodsys.basesys.rmodule.obj
 0001:000084b8       ?ref_remove@RModule@rsystem@base@UModSys@@UEBAXXZ 00000001400094b8 f i umodsys_lib_basesys:umodsys.basesys.rmodule.obj
 0001:000084d0       ?ref_links@RModule@rsystem@base@UModSys@@UEBAHXZ 00000001400094d0 f i umodsys_lib_basesys:umodsys.basesys.rmodule.obj
 0001:000084d8       ?ref_weak@RModule@rsystem@base@UModSys@@UEBA_NAEAUWeakPointer@IRefObject@core@4@@Z 00000001400094d8 f i umodsys_lib_basesys:umodsys.basesys.rmodule.obj
 0001:000084fc       ?suicide@RModule@rsystem@base@UModSys@@UEAAXXZ 00000001400094fc f i umodsys_lib_basesys:umodsys.basesys.rmodule.obj
 0001:00008544       ?get_library@RModule@rsystem@base@UModSys@@UEBAPEAUIModuleLibrary@34@XZ 0000000140009544 f   umodsys_lib_basesys:umodsys.basesys.rmodule.obj
 0001:0000854c       ?get_info@RModule@rsystem@base@UModSys@@UEBAAEBUSModuleInfo@34@XZ 000000014000954c f   umodsys_lib_basesys:umodsys.basesys.rmodule.obj
 0001:00008554       ?is_open@RModule@rsystem@base@UModSys@@UEBA_NXZ 0000000140009554 f   umodsys_lib_basesys:umodsys.basesys.rmodule.obj
 0001:00008580       ?open@RModule@rsystem@base@UModSys@@UEAA_NXZ 0000000140009580 f   umodsys_lib_basesys:umodsys.basesys.rmodule.obj
 0001:000085f8       ?close@RModule@rsystem@base@UModSys@@UEAA_NXZ 00000001400095f8 f   umodsys_lib_basesys:umodsys.basesys.rmodule.obj
 0001:00008650       ?reg@RModule@rsystem@base@UModSys@@UEAA_NPEAUIModObject@34@_N@Z 0000000140009650 f   umodsys_lib_basesys:umodsys.basesys.rmodule.obj
 0001:00008670       ?reg@RModule@rsystem@base@UModSys@@UEAA_NPEAUIGenerator@34@_N@Z 0000000140009670 f   umodsys_lib_basesys:umodsys.basesys.rmodule.obj
 0001:000086bc       ?mod_findobjname@RModule@rsystem@base@UModSys@@UEAA_KPEBUSUniquePointerInfo@core@4@QEAPEBU564@_KPEBD@Z 00000001400096bc f   umodsys_lib_basesys:umodsys.basesys.rmodule.obj
 0001:0000880c       ?mod_generate@RModule@rsystem@base@UModSys@@UEAA_NAEAU?$TRefObject@UIRefObject@core@UModSys@@U?$TRefObjectFunc@UIRefObject@core@UModSys@@@tl@3@@tl@4@PEBUSUniquePointerInfo@core@4@AEBUSParameters@84@@Z 000000014000980c f   umodsys_lib_basesys:umodsys.basesys.rmodule.obj
 0001:00008960       ?reg_generator@RModule@rsystem@base@UModSys@@QEAA_NPEAUModuleObjInfo@1234@PEAUIGenerator@34@@Z 0000000140009960 f   umodsys_lib_basesys:umodsys.basesys.rmodule.obj
 0001:00008b58       ?reg_obj@RModule@rsystem@base@UModSys@@QEAAPEAUModuleObjInfo@1234@PEAUIModObject@34@@Z 0000000140009b58 f   umodsys_lib_basesys:umodsys.basesys.rmodule.obj
 0001:00008ce4       ?unreg_obj@RModule@rsystem@base@UModSys@@QEAA_NPEAUIModObject@34@@Z 0000000140009ce4 f   umodsys_lib_basesys:umodsys.basesys.rmodule.obj
 0001:00008dec       ?alloc_minfo@RModule@rsystem@base@UModSys@@QEAA_NAEBUSModuleInfo@34@@Z 0000000140009dec f   umodsys_lib_basesys:umodsys.basesys.rmodule.obj
 0001:00008eac       ?save_db@RModule@rsystem@base@UModSys@@QEAA_NPEAU_iobuf@@@Z 0000000140009eac f   umodsys_lib_basesys:umodsys.basesys.rmodule.obj
 0001:000090a0       ??_ERModule@rsystem@base@UModSys@@UEAAPEAXI@Z 000000014000a0a0 f i  CIL library: CIL module
 0001:000090a0       ??_GRModule@rsystem@base@UModSys@@UEAAPEAXI@Z 000000014000a0a0 f i umodsys_lib_basesys:umodsys.basesys.rmodule.obj
 0001:000091ec       ??1?$TDynarrayDynamic@UModuleObjInfo@RModule@rsystem@base@UModSys@@U?$TAllocator@USMemAlloc_Malloc@core@UModSys@@USCountCalcPower2@23@@tl@5@@tl@UModSys@@QEAA@XZ 000000014000a1ec f i umodsys_lib_basesys:umodsys.basesys.rmodule.obj
 0001:0000923c       ??1?$TDynarrayDynamic@UGeneratedObjInfo@RModule@rsystem@base@UModSys@@U?$TAllocator@USMemAlloc_Malloc@core@UModSys@@USCountCalcPower2@23@@tl@5@@tl@UModSys@@QEAA@XZ 000000014000a23c f i umodsys_lib_basesys:umodsys.basesys.rmodule.obj
 0001:00009288       ??1?$TDynarrayDynamic@PEBUSUniquePointerInfo@core@UModSys@@U?$TAllocator@USMemAlloc_Malloc@core@UModSys@@USCountCalcPower2@23@@tl@3@@tl@UModSys@@QEAA@XZ 000000014000a288 f i umodsys_lib_basesys:umodsys.basesys.rmodule.obj
 0001:000092d4       ?ResizeRel@?$TDynarray@U?$TDynarrayHolderDynamic@UModuleObjInfo@RModule@rsystem@base@UModSys@@U?$TAllocator@USMemAlloc_Malloc@core@UModSys@@USCountCalcPower2@23@@tl@5@@tl@UModSys@@@tl@UModSys@@QEAA_N_J@Z 000000014000a2d4 f i umodsys_lib_basesys:umodsys.basesys.rmodule.obj
 0001:000093b8       ?ResizeRel@?$TDynarray@U?$TDynarrayHolderDynamic@UGeneratedObjInfo@RModule@rsystem@base@UModSys@@U?$TAllocator@USMemAlloc_Malloc@core@UModSys@@USCountCalcPower2@23@@tl@5@@tl@UModSys@@@tl@UModSys@@QEAA_N_J@Z 000000014000a3b8 f i umodsys_lib_basesys:umodsys.basesys.rmodule.obj
 0001:00009494       ?ResizeRel@?$TDynarray@U?$TDynarrayHolderDynamic@PEBUSUniquePointerInfo@core@UModSys@@U?$TAllocator@USMemAlloc_Malloc@core@UModSys@@USCountCalcPower2@23@@tl@3@@tl@UModSys@@@tl@UModSys@@QEAA_N_J@Z 000000014000a494 f i umodsys_lib_basesys:umodsys.basesys.rmodule.obj
 0001:0000952c       ??$wildcmp@D@su@tl@UModSys@@YA_NPEBD0@Z 000000014000a52c f i umodsys_lib_basesys:umodsys.basesys.rmodule.obj
 0001:000095b4       ?get_interface_info@RModuleLibrarySO@rsystem@base@UModSys@@UEBAAEBUSUniquePointerInfo@core@4@XZ 000000014000a5b4 f i umodsys_lib_basesys:umodsys.basesys.rmodulelibso.obj
 0001:000095bc       ?get_interface_type@RModuleLibrarySO@rsystem@base@UModSys@@UEBAPEBUSUniquePointerInfo@core@4@XZ 000000014000a5bc f i umodsys_lib_basesys:umodsys.basesys.rmodulelibso.obj
 0001:000095c4       ?get_other_interface@RModuleLibrarySO@rsystem@base@UModSys@@UEBAPEBUIRoot@core@4@PEBUSUniquePointerInfo@64@@Z 000000014000a5c4 f i umodsys_lib_basesys:umodsys.basesys.rmodulelibso.obj
 0001:000095c4       ?get_other_interface@RModuleLibrarySO@rsystem@base@UModSys@@UEAAPEAUIRoot@core@4@PEBUSUniquePointerInfo@64@@Z 000000014000a5c4 f i umodsys_lib_basesys:umodsys.basesys.rmodulelibso.obj
 0001:000095fc       ?ref_add@RModuleLibrarySO@rsystem@base@UModSys@@UEBAXXZ 000000014000a5fc f i umodsys_lib_basesys:umodsys.basesys.rmodulelibso.obj
 0001:00009604       ?ref_remove@RModuleLibrarySO@rsystem@base@UModSys@@UEBAXXZ 000000014000a604 f i umodsys_lib_basesys:umodsys.basesys.rmodulelibso.obj
 0001:0000961c       ?ref_links@RModuleLibrarySO@rsystem@base@UModSys@@UEBAHXZ 000000014000a61c f i umodsys_lib_basesys:umodsys.basesys.rmodulelibso.obj
 0001:00009624       ?ref_weak@RModuleLibrarySO@rsystem@base@UModSys@@UEBA_NAEAUWeakPointer@IRefObject@core@4@@Z 000000014000a624 f i umodsys_lib_basesys:umodsys.basesys.rmodulelibso.obj
 0001:00009648       ?suicide@RModuleLibraryThis@rsystem@base@UModSys@@UEAAXXZ 000000014000a648 f i umodsys_lib_basesys:umodsys.basesys.rmodulelibthis.obj
 0001:00009648       ?suicide@RParameters@rsystem@base@UModSys@@UEAAXXZ 000000014000a648 f i umodsys_lib_basesys:umodsys.basesys.rparameters.obj
 0001:00009648       ?suicide@IRoot@core@UModSys@@UEAAXXZ 000000014000a648 f i umodsys_lib_core:umodsys.core.objects.obj
 0001:00009648       ?suicide@RModuleLibrarySO@rsystem@base@UModSys@@UEAAXXZ 000000014000a648 f i umodsys_lib_basesys:umodsys.basesys.rmodulelibso.obj
 0001:00009660       ?uni_load@RModuleLibrarySO@rsystem@base@UModSys@@UEAA_NXZ 000000014000a660 f   umodsys_lib_basesys:umodsys.basesys.rmodulelibso.obj
 0001:000096a8       ?uni_unload@RModuleLibrarySO@rsystem@base@UModSys@@UEAA_NXZ 000000014000a6a8 f   umodsys_lib_basesys:umodsys.basesys.rmodulelibso.obj
 0001:000096b4       ?uni_open@RModuleLibrarySO@rsystem@base@UModSys@@UEAA_NXZ 000000014000a6b4 f   umodsys_lib_basesys:umodsys.basesys.rmodulelibso.obj
 0001:000096f0       ?uni_close@RModuleLibrarySO@rsystem@base@UModSys@@UEAA_NXZ 000000014000a6f0 f   umodsys_lib_basesys:umodsys.basesys.rmodulelibso.obj
 0001:0000970c       ?s_add@RModuleLibrarySO@rsystem@base@UModSys@@SA_NPEAUISystem@34@AEAU?$TDynarrayDynamic@U?$TRefObject@URModuleLibrarySO@rsystem@base@UModSys@@U?$TRefObjectFunc@URModuleLibrarySO@rsystem@base@UModSys@@@tl@4@@tl@UModSys@@U?$TAllocator@USMemAlloc_Malloc@core@UModSys@@USCountCalcPower2@23@@23@@tl@4@PEBD@Z 000000014000a70c f   umodsys_lib_basesys:umodsys.basesys.rmodulelibso.obj
 0001:000099d0       ??_GRModuleLibrarySO@rsystem@base@UModSys@@UEAAPEAXI@Z 000000014000a9d0 f i umodsys_lib_basesys:umodsys.basesys.rmodulelibso.obj
 0001:000099d0       ??_ERModuleLibrarySO@rsystem@base@UModSys@@UEAAPEAXI@Z 000000014000a9d0 f i  CIL library: CIL module
 0001:00009a2c       ??4?$TString@U?$TSCoreShared@USMemAlloc_Malloc@core@UModSys@@D@su@tl@UModSys@@U?$TComparerBinaryHash@D@234@@tl@UModSys@@QEAAAEBU012@PEBD@Z 000000014000aa2c f i umodsys_lib_basesys:umodsys.basesys.rmodulelibso.obj
 0001:00009b28       ?Link@SModuleContext@base@UModSys@@QEAAXPEAUISystem@23@PEAUIMemAlloc@core@3@@Z 000000014000ab28 f   umodsys_lib_base:umodsys.base.modulecontext.obj
 0001:00009b9c       ?mlr_count@RModuleLibraryReg_Chain@base@UModSys@@UEBA_KXZ 000000014000ab9c f   umodsys_lib_base:umodsys.base.moduleregchain.obj
 0001:00009bd4       ?mlr_get@RModuleLibraryReg_Chain@base@UModSys@@UEBAPEAUIModuleReg@23@_K@Z 000000014000abd4 f   umodsys_lib_base:umodsys.base.moduleregchain.obj
 0001:00009c00       ?mlr_open@RModuleLibraryReg_Chain@base@UModSys@@UEAA_NPEAUISystem@23@PEAUIMemAlloc@core@3@@Z 000000014000ac00 f   umodsys_lib_base:umodsys.base.moduleregchain.obj
 0001:00009c2c       ?mlr_close@RModuleLibraryReg_Chain@base@UModSys@@UEAA_NXZ 000000014000ac2c f   umodsys_lib_base:umodsys.base.moduleregchain.obj
 0001:00009c74       ?mlr_isopen@RModuleLibraryReg_Chain@base@UModSys@@UEBA_NXZ 000000014000ac74 f   umodsys_lib_base:umodsys.base.moduleregchain.obj
 0001:00009c84       ??_GRModuleLibraryReg_Chain@base@UModSys@@UEAAPEAXI@Z 000000014000ac84 f i umodsys_lib_base:umodsys.base.moduleregchain.obj
 0001:00009c84       ??_ERModuleLibraryReg_Chain@base@UModSys@@UEAAPEAXI@Z 000000014000ac84 f i  CIL library: CIL module
 0001:00009c84       ??_GIModuleLibraryReg@base@UModSys@@UEAAPEAXI@Z 000000014000ac84 f i umodsys_lib_base:umodsys.base.modulereg.obj
 0001:00009c84       ??_EIModuleLibraryReg@base@UModSys@@UEAAPEAXI@Z 000000014000ac84 f i  CIL library: CIL module
 0001:00009cac       UModSys_Plugin_Entry2      000000014000acac f   umodsys_lib_base:umodsys.so_main.win32.obj
 0001:00009cb4       ??0IModuleReg@base@UModSys@@QEAA@PEBDHH0@Z 000000014000acb4 f   umodsys_lib_base:umodsys.base.modulereg.obj
 0001:00009d64       ?mr_isopen@IModuleReg@base@UModSys@@UEBA_NXZ 000000014000ad64 f   umodsys_lib_base:umodsys.base.modulereg.obj
 0001:00009d70       ?mr_open@IModuleReg@base@UModSys@@UEAA_NXZ 000000014000ad70 f   umodsys_lib_base:umodsys.base.modulereg.obj
 0001:00009d94       ?mr_close@IModuleReg@base@UModSys@@UEAA_NXZ 000000014000ad94 f   umodsys_lib_base:umodsys.base.modulereg.obj
 0001:00009db0       ??1ILibraryBinTree@libmedia@UModSys@@UEAA@XZ 000000014000adb0 f   umodsys_lib_libmedia:umodsys.mod.media.std.obj
 0001:00009db0       ??1ILibraryBinCache@libmedia@UModSys@@UEAA@XZ 000000014000adb0 f   umodsys_lib_libmedia:umodsys.mod.media.std.obj
 0001:00009db0       ??1ISystem@base@UModSys@@UEAA@XZ 000000014000adb0 f   umodsys_lib_base:umodsys.base.system.obj
 0001:00009db0       ??1IStreamWriter@libmedia@UModSys@@UEAA@XZ 000000014000adb0 f   umodsys_lib_libmedia:umodsys.mod.media.stdio.obj
 0001:00009db0       ??1IStreamReader@libmedia@UModSys@@UEAA@XZ 000000014000adb0 f   umodsys_lib_libmedia:umodsys.mod.media.stdio.obj
 0001:00009db0       ??1IBinArchive@libmedia@UModSys@@UEAA@XZ 000000014000adb0 f   umodsys_lib_libmedia:umodsys.mod.media.stdio.obj
 0001:00009db0       ??1IModule@base@UModSys@@UEAA@XZ 000000014000adb0 f   umodsys_lib_base:umodsys.base.module.obj
 0001:00009dbc       ??1IModuleLoader@base@UModSys@@UEAA@XZ 000000014000adbc f   umodsys_lib_base:umodsys.base.moduleloader.obj
 0001:00009dc8       ??0SUniquePointer@core@UModSys@@QEAA@PEBD0H@Z 000000014000adc8 f   umodsys_lib_core:umodsys.core.uniqueptr.obj
 0001:00009e18       ??1SUniquePointer@core@UModSys@@QEAA@XZ 000000014000ae18 f   umodsys_lib_core:umodsys.core.uniqueptr.obj
 0001:00009e40       ?s_resolve@SUniquePointer@core@UModSys@@SAXPEAUIUniquePointerResolver@23@@Z 000000014000ae40 f   umodsys_lib_core:umodsys.core.uniqueptr.obj
 0001:00009ea8       ?s_unresolve@SUniquePointer@core@UModSys@@SAXPEAUIUniquePointerResolver@23@@Z 000000014000aea8 f   umodsys_lib_core:umodsys.core.uniqueptr.obj
 0001:00009efc       ?u_fopen@syshlp@core@UModSys@@YAPEAU_iobuf@@PEBD0@Z 000000014000aefc f   umodsys_lib_core:umodsys.core.syshlp_files.win32.obj
 0001:00009fd0       ?u_fopentemp@syshlp@core@UModSys@@YAPEAU_iobuf@@AEAPEADPEBD@Z 000000014000afd0 f   umodsys_lib_core:umodsys.core.syshlp_files.win32.obj
 0001:0000a098       ?u_fendtemp@syshlp@core@UModSys@@YA_NAEAPEAU_iobuf@@AEAPEAD_N@Z 000000014000b098 f   umodsys_lib_core:umodsys.core.syshlp_files.win32.obj
 0001:0000a16c       ??3IRoot@core@UModSys@@SAXPEAX@Z 000000014000b16c f   umodsys_lib_core:umodsys.core.objects.obj
 0001:0000a194       ?gracial_convert@syshlp@core@UModSys@@YA_NPEADHPEB_WH@Z 000000014000b194 f   umodsys_lib_core:umodsys.core.syshlp_charcode.win32.obj
 0001:0000a1dc       _onexit                    000000014000b1dc f   MSVCRT:atonexit.obj
 0001:0000a28c       atexit                     000000014000b28c f   MSVCRT:atonexit.obj
 0001:0000a574       mainCRTStartup             000000014000b574 f   MSVCRT:crtexe.obj
 0001:0000a586       _purecall                  000000014000b586 f   MSVCRT:MSVCR90.dll
 0001:0000a58c       ??3@YAXPEAX@Z              000000014000b58c f   MSVCRT:MSVCR90.dll
 0001:0000a594       ??_Etype_info@@UEAAPEAXI@Z 000000014000b594 f i MSVCRT:ti_inst.obj
 0001:0000a5fe       ??2@YAPEAX_K@Z             000000014000b5fe f   MSVCRT:MSVCR90.dll
 0001:0000a604       __C_specific_handler       000000014000b604 f   MSVCRT:MSVCR90.dll
 0001:0000a60a       _unlock                    000000014000b60a f   MSVCRT:MSVCR90.dll
 0001:0000a610       __dllonexit                000000014000b610 f   MSVCRT:MSVCR90.dll
 0001:0000a616       _lock                      000000014000b616 f   MSVCRT:MSVCR90.dll
 0001:0000a61c       ?__CxxUnhandledExceptionFilter@@YAJPEAU_EXCEPTION_POINTERS@@@Z 000000014000b61c f   MSVCRT:unhandld.obj
 0001:0000a660       __CxxSetUnhandledExceptionFilter 000000014000b660 f   MSVCRT:unhandld.obj
 0001:0000a678       _amsg_exit                 000000014000b678 f   MSVCRT:MSVCR90.dll
 0001:0000a680       _RTC_Initialize            000000014000b680 f   MSVCRT:_initsect_.obj
 0001:0000a6b8       _RTC_Terminate             000000014000b6b8 f   MSVCRT:_initsect_.obj
 0001:0000a6f0       _XcptFilter                000000014000b6f0 f   MSVCRT:MSVCR90.dll
 0001:0000a700       _ValidateImageBase         000000014000b700 f   MSVCRT:pesect.obj
 0001:0000a730       _FindPESection             000000014000b730 f   MSVCRT:pesect.obj
 0001:0000a780       _IsNonwritableInCurrentImage 000000014000b780 f   MSVCRT:pesect.obj
 0001:0000a7c2       _initterm                  000000014000b7c2 f   MSVCRT:MSVCR90.dll
 0001:0000a7c8       _initterm_e                000000014000b7c8 f   MSVCRT:MSVCR90.dll
 0001:0000a7d0       __security_init_cookie     000000014000b7d0 f   MSVCRT:gs_support.obj
 0001:0000a884       ?__ArrayUnwind@@YAXPEAX_KHP6AX0@Z@Z 000000014000b884 f   MSVCRT:ehvecdtr.obj
 0001:0000a8d0       ??_M@YAXPEAX_KHP6AX0@Z@Z   000000014000b8d0 f   MSVCRT:ehvecdtr.obj
 0001:0000a92e       ?terminate@@YAXXZ          000000014000b92e f   MSVCRT:MSVCR90.dll
 0001:0000a934       ??1type_info@@UEAA@XZ      000000014000b934 f   MSVCRT:MSVCR90.dll
 0001:0000a934       ?_type_info_dtor_internal_method@type_info@@QEAAXXZ 000000014000b934 f   MSVCRT:MSVCR90.dll
 0001:0000a93a       memcpy                     000000014000b93a f   MSVCRT:MSVCR90.dll
 0001:0000a940       __CxxFrameHandler3         000000014000b940 f   MSVCRT:MSVCR90.dll
 0001:0000a946       _CxxThrowException         000000014000b946 f   MSVCRT:MSVCR90.dll
 0001:0000a960       _alloca_probe              000000014000b960     MSVCRT:chkstk.obj
 0001:0000a960       __chkstk                   000000014000b960 f   MSVCRT:chkstk.obj
 0002:00000000       __imp_GetCurrentProcessId  000000014000d000     kernel32:KERNEL32.dll
 0002:00000008       __imp_GetCurrentThreadId   000000014000d008     kernel32:KERNEL32.dll
 0002:00000010       __imp_GetTickCount         000000014000d010     kernel32:KERNEL32.dll
 0002:00000018       __imp_QueryPerformanceCounter 000000014000d018     kernel32:KERNEL32.dll
 0002:00000020       __imp_SetUnhandledExceptionFilter 000000014000d020     kernel32:KERNEL32.dll
 0002:00000028       __imp_Sleep                000000014000d028     kernel32:KERNEL32.dll
 0002:00000030       __imp_MultiByteToWideChar  000000014000d030     kernel32:KERNEL32.dll
 0002:00000038       __imp_WideCharToMultiByte  000000014000d038     kernel32:KERNEL32.dll
 0002:00000040       __imp_SetConsoleOutputCP   000000014000d040     kernel32:KERNEL32.dll
 0002:00000048       __imp_GetLastError         000000014000d048     kernel32:KERNEL32.dll
 0002:00000050       __imp_GetConsoleOutputCP   000000014000d050     kernel32:KERNEL32.dll
 0002:00000058       __imp_FindNextFileW        000000014000d058     kernel32:KERNEL32.dll
 0002:00000060       __imp_FindClose            000000014000d060     kernel32:KERNEL32.dll
 0002:00000068       __imp_GetProcAddress       000000014000d068     kernel32:KERNEL32.dll
 0002:00000070       __imp_GetModuleFileNameW   000000014000d070     kernel32:KERNEL32.dll
 0002:00000078       __imp_GetModuleHandleW     000000014000d078     kernel32:KERNEL32.dll
 0002:00000080       __imp_LoadLibraryExW       000000014000d080     kernel32:KERNEL32.dll
 0002:00000088       __imp_FreeLibrary          000000014000d088     kernel32:KERNEL32.dll
 0002:00000090       __imp_SetErrorMode         000000014000d090     kernel32:KERNEL32.dll
 0002:00000098       __imp_FindFirstFileW       000000014000d098     kernel32:KERNEL32.dll
 0002:000000a0       __imp_GetFullPathNameW     000000014000d0a0     kernel32:KERNEL32.dll
 0002:000000a8       __imp_GetSystemTimeAsFileTime 000000014000d0a8     kernel32:KERNEL32.dll
 0002:000000b0       \177KERNEL32_NULL_THUNK_DATA 000000014000d0b0     kernel32:KERNEL32.dll
 0002:000000b8       __imp__vsnprintf           000000014000d0b8     MSVCRT:MSVCR90.dll
 0002:000000c0       __imp___C_specific_handler 000000014000d0c0     MSVCRT:MSVCR90.dll
 0002:000000c8       __imp__unlock              000000014000d0c8     MSVCRT:MSVCR90.dll
 0002:000000d0       __imp___dllonexit          000000014000d0d0     MSVCRT:MSVCR90.dll
 0002:000000d8       __imp__encode_pointer      000000014000d0d8     MSVCRT:MSVCR90.dll
 0002:000000e0       __imp__lock                000000014000d0e0     MSVCRT:MSVCR90.dll
 0002:000000e8       __imp__onexit              000000014000d0e8     MSVCRT:MSVCR90.dll
 0002:000000f0       __imp__decode_pointer      000000014000d0f0     MSVCRT:MSVCR90.dll
 0002:000000f8       __imp__amsg_exit           000000014000d0f8     MSVCRT:MSVCR90.dll
 0002:00000100       __imp___getmainargs        000000014000d100     MSVCRT:MSVCR90.dll
 0002:00000108       __imp__XcptFilter          000000014000d108     MSVCRT:MSVCR90.dll
 0002:00000110       __imp_remove               000000014000d110     MSVCRT:MSVCR90.dll
 0002:00000118       __imp__cexit               000000014000d118     MSVCRT:MSVCR90.dll
 0002:00000120       __imp_exit                 000000014000d120     MSVCRT:MSVCR90.dll
 0002:00000128       __imp___initenv            000000014000d128     MSVCRT:MSVCR90.dll
 0002:00000130       __imp__initterm            000000014000d130     MSVCRT:MSVCR90.dll
 0002:00000138       __imp__initterm_e          000000014000d138     MSVCRT:MSVCR90.dll
 0002:00000140       __imp__configthreadlocale  000000014000d140     MSVCRT:MSVCR90.dll
 0002:00000148       __imp___setusermatherr     000000014000d148     MSVCRT:MSVCR90.dll
 0002:00000150       __imp__commode             000000014000d150     MSVCRT:MSVCR90.dll
 0002:00000158       __imp__fmode               000000014000d158     MSVCRT:MSVCR90.dll
 0002:00000160       __imp___set_app_type       000000014000d160     MSVCRT:MSVCR90.dll
 0002:00000168       __imp_?terminate@@YAXXZ    000000014000d168     MSVCRT:MSVCR90.dll
 0002:00000170       __imp_?_type_info_dtor_internal_method@type_info@@QEAAXXZ 000000014000d170     MSVCRT:MSVCR90.dll
 0002:00000178       __imp__wfopen              000000014000d178     MSVCRT:MSVCR90.dll
 0002:00000180       __imp_rename               000000014000d180     MSVCRT:MSVCR90.dll
 0002:00000188       __imp_realloc              000000014000d188     MSVCRT:MSVCR90.dll
 0002:00000190       __imp_fprintf              000000014000d190     MSVCRT:MSVCR90.dll
 0002:00000198       __imp_strncpy              000000014000d198     MSVCRT:MSVCR90.dll
 0002:000001a0       __imp__snprintf            000000014000d1a0     MSVCRT:MSVCR90.dll
 0002:000001a8       __imp_malloc               000000014000d1a8     MSVCRT:MSVCR90.dll
 0002:000001b0       __imp_free                 000000014000d1b0     MSVCRT:MSVCR90.dll
 0002:000001b8       __imp_vfprintf             000000014000d1b8     MSVCRT:MSVCR90.dll
 0002:000001c0       __imp___iob_func           000000014000d1c0     MSVCRT:MSVCR90.dll
 0002:000001c8       __imp_strstr               000000014000d1c8     MSVCRT:MSVCR90.dll
 0002:000001d0       __imp_fclose               000000014000d1d0     MSVCRT:MSVCR90.dll
 0002:000001d8       __imp_fseek                000000014000d1d8     MSVCRT:MSVCR90.dll
 0002:000001e0       __imp_ftell                000000014000d1e0     MSVCRT:MSVCR90.dll
 0002:000001e8       __imp_fwrite               000000014000d1e8     MSVCRT:MSVCR90.dll
 0002:000001f0       __imp__fileno              000000014000d1f0     MSVCRT:MSVCR90.dll
 0002:000001f8       __imp_fread                000000014000d1f8     MSVCRT:MSVCR90.dll
 0002:00000200       __imp__chsize              000000014000d200     MSVCRT:MSVCR90.dll
 0002:00000208       __imp_fflush               000000014000d208     MSVCRT:MSVCR90.dll
 0002:00000210       __imp_??2@YAPEAX_K@Z       000000014000d210     MSVCRT:MSVCR90.dll
 0002:00000218       __imp_??3@YAXPEAX@Z        000000014000d218     MSVCRT:MSVCR90.dll
 0002:00000220       __imp__purecall            000000014000d220     MSVCRT:MSVCR90.dll
 0002:00000228       __imp__exit                000000014000d228     MSVCRT:MSVCR90.dll
 0002:00000230       __imp_strncmp              000000014000d230     MSVCRT:MSVCR90.dll
 0002:00000238       __imp_memcpy               000000014000d238     MSVCRT:MSVCR90.dll
 0002:00000240       __imp___CxxFrameHandler3   000000014000d240     MSVCRT:MSVCR90.dll
 0002:00000248       __imp__CxxThrowException   000000014000d248     MSVCRT:MSVCR90.dll
 0002:00000250       \177MSVCR90_NULL_THUNK_DATA 000000014000d250     MSVCRT:MSVCR90.dll
 0002:00000258       __xc_a                     000000014000d258     MSVCRT:cinitexe.obj
 0002:000005b8       __xc_z                     000000014000d5b8     MSVCRT:cinitexe.obj
 0002:000005c0       __xi_a                     000000014000d5c0     MSVCRT:cinitexe.obj
 0002:000005d8       __xi_z                     000000014000d5d8     MSVCRT:cinitexe.obj
 0002:000005e8       ??_7type_info@@6B@         000000014000d5e8     MSVCRT:ti_inst.obj
 0002:000005f0       ??_C@_0P@GHFPNOJB@bad?5allocation?$AA@ 000000014000d5f0     umodsys.c_main.obj
 0002:00000600       ??_C@_0BF@OCNNAADO@UModSys?3?3core?3?3IRoot?$AA@ 000000014000d600     umodsys.c_main.obj
 0002:00000618       ??_C@_0BK@EMIJFOPA@UModSys?3?3core?3?3IRefObject?$AA@ 000000014000d618     umodsys.c_main.obj
 0002:00000638       ??_C@_0BL@IOMMHELF@UModSys?3?3core?3?3IParameters?$AA@ 000000014000d638     umodsys.c_main.obj
 0002:00000658       ??_C@_0BH@LKDEEPPM@UModSys?3?3base?3?3IModule?$AA@ 000000014000d658     umodsys.c_main.obj
 0002:00000670       ??_C@_0BO@PHJOHFCB@UModSys?3?3base?3?3IModuleLibrary?$AA@ 000000014000d670     umodsys.c_main.obj
 0002:00000690       ??_C@_0BK@FDPIOPHG@UModSys?3?3base?3?3IModObject?$AA@ 000000014000d690     umodsys.c_main.obj
 0002:000006b0       ??_C@_0BK@OIBKNCKJ@UModSys?3?3base?3?3IGenerator?$AA@ 000000014000d6b0     umodsys.c_main.obj
 0002:000006d0       ??_C@_0BG@PJBGCMEC@UModSys?3?3base?3?3IShell?$AA@ 000000014000d6d0     umodsys.c_main.obj
 0002:000006e8       ??_C@_0BI@IKAOEFAP@UModSys?3?3base?3?3IConsole?$AA@ 000000014000d6e8     umodsys.c_main.obj
 0002:00000700       ??_C@_0BH@PFCONEJJ@UModSys?3?3base?3?3ISystem?$AA@ 000000014000d700     umodsys.c_main.obj
 0002:00000718       ??_C@_0CA@MDFMKLLN@UModSys?3?3base?3?3rsystem?3?3RModule?$AA@ 000000014000d718     umodsys.c_main.obj
 0002:00000738       ??_C@_0CK@MJPNGLHN@UModSys?3?3base?3?3rsystem?3?3IModuleL@ 000000014000d738     umodsys.c_main.obj
 0002:00000768       ??_C@_0CJ@OPOMMGLJ@UModSys?3?3base?3?3rsystem?3?3RModuleL@ 000000014000d768     umodsys.c_main.obj
 0002:00000798       ??_C@_0CL@ILNBAMJF@UModSys?3?3base?3?3rsystem?3?3RModuleL@ 000000014000d798     umodsys.c_main.obj
 0002:000007c8       ??_C@_0CE@IHGMMEEA@UModSys?3?3base?3?3rsystem?3?3RParamet@ 000000014000d7c8     umodsys.c_main.obj
 0002:000007f0       ??_C@_0CA@IMEGDANI@UModSys?3?3base?3?3rsystem?3?3RSystem?$AA@ 000000014000d7f0     umodsys.c_main.obj
 0002:00000810       ??_C@_0CF@KIMLNODL@UModSys?3?3base?3?3rsystem?3?3RConsole@ 000000014000d810     umodsys.c_main.obj
 0002:00000838       ??_C@_0M@DCEPEPFJ@umodsys?4log?$AA@ 000000014000d838     umodsys.c_main.obj
 0002:00000844       ??_C@_00CNPNBAHC@?$AA@     000000014000d844     umodsys.c_main.obj
 0002:00000848       ??_C@_01NBENCBCI@?$CK?$AA@ 000000014000d848     umodsys.c_main.obj
 0002:00000850       ??_C@_0BC@JABDEAFI@moduledb?4conf?9hdb?$AA@ 000000014000d850     umodsys.c_main.obj
 0002:00000868       ??_C@_08FCBDOIAH@typeinfo?$AA@ 000000014000d868     umodsys.c_main.obj
 0002:00000878       ??_C@_0CB@CLGNFEGF@UModSys?3?3libmedia?3?3IStreamReader@ 000000014000d878     umodsys_lib_libmedia:umodsys.mod.media.std.obj
 0002:000008a0       ??_C@_0CB@HOPFFLP@UModSys?3?3libmedia?3?3IStreamWriter@ 000000014000d8a0     umodsys_lib_libmedia:umodsys.mod.media.std.obj
 0002:000008c8       ??_C@_0BP@KCJMEDNO@UModSys?3?3libmedia?3?3IBinArchive?$AA@ 000000014000d8c8     umodsys_lib_libmedia:umodsys.mod.media.std.obj
 0002:000008e8       ??_C@_0CB@FDEKNMGJ@UModSys?3?3libmedia?3?3IBinObjFilter@ 000000014000d8e8     umodsys_lib_libmedia:umodsys.mod.media.std.obj
 0002:00000910       ??_C@_0BM@DPCMOAPM@UModSys?3?3libmedia?3?3ILibrary?$AA@ 000000014000d910     umodsys_lib_libmedia:umodsys.mod.media.std.obj
 0002:00000930       ??_C@_0CD@ELIFEGE@UModSys?3?3libmedia?3?3ILibraryBinTr@ 000000014000d930     umodsys_lib_libmedia:umodsys.mod.media.std.obj
 0002:00000958       ??_C@_0CE@EGHBJBAJ@UModSys?3?3libmedia?3?3ILibraryBinCa@ 000000014000d958     umodsys_lib_libmedia:umodsys.mod.media.std.obj
 0002:00000980       ??_C@_0CF@LBIGBLOK@UModSys?3?3libmedia?3?3ILibraryObjFi@ 000000014000d980     umodsys_lib_libmedia:umodsys.mod.media.std.obj
 0002:000009a8       ??_C@_0CD@LJFEJKGF@UModSys?3?3libmedia?3?3ILibraryLayer@ 000000014000d9a8     umodsys_lib_libmedia:umodsys.mod.media.std.obj
 0002:000009d0       ??_C@_0CP@GECHMLGM@UModSys?3?3modules?3?3media?3?3std?3?3RL@ 000000014000d9d0     umodsys_lib_libmedia:umodsys.mod.media.std.obj
 0002:00000a00       ??_C@_0CO@FAPEIINC@UModSys?3?3modules?3?3media?3?3std?3?3RL@ 000000014000da00     umodsys_lib_libmedia:umodsys.mod.media.std.obj
 0002:00000a30       ??_C@_0CJ@IPNOMNDB@UModSys?3?3modules?3?3media?3?3std?3?3RG@ 000000014000da30     umodsys_lib_libmedia:umodsys.mod.media.std.obj
 0002:00000a60       ??_C@_0DC@HNPCLNGC@UMODSYS_MODULE_NAME?$CImedia?0std?$CJ?3?3@ 000000014000da60     umodsys_lib_libmedia:umodsys.mod.media.std.obj
 0002:00000a98       ??_C@_0L@LOIPJDMA@media?3?3std?$AA@ 000000014000da98     umodsys_lib_libmedia:umodsys.mod.media.std.obj
 0002:00000aa8       ??_C@_09JGNMLHG@modobject?$AA@ 000000014000daa8     umodsys_lib_libmedia:umodsys.mod.media.std.obj
 0002:00000ac8       ??_7IRoot@core@UModSys@@6B@ 000000014000dac8     umodsys_lib_libmedia:umodsys.mod.media.std.obj
 0002:00000b08       ??_7RGenerator@std@media@modules@UModSys@@6B@ 000000014000db08     umodsys_lib_libmedia:umodsys.mod.media.std.obj
 0002:00000ba8       ??_7RLibraryBinCache@std@media@modules@UModSys@@6BIRefObject@core@4@@ 000000014000dba8     umodsys_lib_libmedia:umodsys.mod.media.std.obj
 0002:00000c98       ??_7RLibraryBinCache@std@media@modules@UModSys@@6BIResolver@SFlags@libmedia@4@@ 000000014000dc98     umodsys_lib_libmedia:umodsys.mod.media.std.obj
 0002:00000ca8       ??_7RLibraryBinTree@std@media@modules@UModSys@@6BIRefObject@core@4@@ 000000014000dca8     umodsys_lib_libmedia:umodsys.mod.media.std.obj
 0002:00000d98       ??_7RLibraryBinTree@std@media@modules@UModSys@@6BIResolver@SFlags@libmedia@4@@ 000000014000dd98     umodsys_lib_libmedia:umodsys.mod.media.std.obj
 0002:00000da8       ??_7RModuleReg@std@media@modules@UModSys@@6B@ 000000014000dda8     umodsys_lib_libmedia:umodsys.mod.media.std.obj
 0002:00000dd8       ??_C@_0DD@HMDIDEEB@UModSys?3?3modules?3?3media?3?3stdio?3?3@ 000000014000ddd8     umodsys_lib_libmedia:umodsys.mod.media.stdio.obj
 0002:00000e10       ??_C@_08BABJIOEM@filename?$AA@ 000000014000de10     umodsys_lib_libmedia:umodsys.mod.media.stdio.obj
 0002:00000e1c       ??_C@_02JDPG@rb?$AA@       000000014000de1c     umodsys_lib_libmedia:umodsys.mod.media.stdio.obj
 0002:00000e20       ??_C@_0DD@NMEBJAJM@UModSys?3?3modules?3?3media?3?3stdio?3?3@ 000000014000de20     umodsys_lib_libmedia:umodsys.mod.media.stdio.obj
 0002:00000e54       ??_C@_04FAOFCKOL@safe?$AA@ 000000014000de54     umodsys_lib_libmedia:umodsys.mod.media.stdio.obj
 0002:00000e5c       ??_C@_02GMLFBBN@wb?$AA@    000000014000de5c     umodsys_lib_libmedia:umodsys.mod.media.stdio.obj
 0002:00000e60       ??_C@_0DE@KBMIHBCD@UModSys?3?3modules?3?3media?3?3stdio?3?3@ 000000014000de60     umodsys_lib_libmedia:umodsys.mod.media.stdio.obj
 0002:00000e94       ??_C@_01LFCBOECM@?4?$AA@   000000014000de94     umodsys_lib_libmedia:umodsys.mod.media.stdio.obj
 0002:00000e98       ??_C@_04LNEJFJGI@path?$AA@ 000000014000de98     umodsys_lib_libmedia:umodsys.mod.media.stdio.obj
 0002:00000ea0       ??_C@_08PEIJGPHF@pathname?$AA@ 000000014000dea0     umodsys_lib_libmedia:umodsys.mod.media.stdio.obj
 0002:00000eb0       ??_C@_0M@PANNIBHH@permissions?$AA@ 000000014000deb0     umodsys_lib_libmedia:umodsys.mod.media.stdio.obj
 0002:00000ec0       ??_C@_0CL@IOBDHHMI@UModSys?3?3modules?3?3media?3?3stdio?3?3@ 000000014000dec0     umodsys_lib_libmedia:umodsys.mod.media.stdio.obj
 0002:00000ef0       ??_C@_0DE@OOLAIIHN@UMODSYS_MODULE_NAME?$CImedia?0stdio?$CJ@ 000000014000def0     umodsys_lib_libmedia:umodsys.mod.media.stdio.obj
 0002:00000f28       ??_C@_0N@HJPCMPI@media?3?3stdio?$AA@ 000000014000df28     umodsys_lib_libmedia:umodsys.mod.media.stdio.obj
 0002:00000f48       ??_7RGenerator@stdio@media@modules@UModSys@@6B@ 000000014000df48     umodsys_lib_libmedia:umodsys.mod.media.stdio.obj
 0002:00000fe8       ??_7RStreamReader_FILE@stdio@media@modules@UModSys@@6B@ 000000014000dfe8     umodsys_lib_libmedia:umodsys.mod.media.stdio.obj
 0002:00001088       ??_7RStreamWriter_FILE@stdio@media@modules@UModSys@@6B@ 000000014000e088     umodsys_lib_libmedia:umodsys.mod.media.stdio.obj
 0002:00001148       ??_7RDataArchiver_OsDir@stdio@media@modules@UModSys@@6B@ 000000014000e148     umodsys_lib_libmedia:umodsys.mod.media.stdio.obj
 0002:000011d8       ??_7RModuleReg@stdio@media@modules@UModSys@@6B@ 000000014000e1d8     umodsys_lib_libmedia:umodsys.mod.media.stdio.obj
 0002:00001208       ??_C@_04HDOCAJNK@?$CFs?$CFs?$AA@ 000000014000e208     umodsys_lib_libmedia:umodsys.lib.media.common.obj
 0002:00001210       ??_C@_02CBLDBPFN@?1?1?$AA@ 000000014000e210     umodsys_lib_libmedia:umodsys.lib.media.common.obj
 0002:00001214       ??_C@_02BKFDOEMK@wt?$AA@   000000014000e214     umodsys_lib_basesys:umodsys.basesys.rconsole_std.obj
 0002:00001228       ??_7RConsole_std@rsystem@base@UModSys@@6B@ 000000014000e228     umodsys_lib_basesys:umodsys.basesys.rconsole_std.obj
 0002:000012b0       ??_C@_04HIBGFPH@NULL?$AA@  000000014000e2b0     umodsys_lib_basesys:umodsys.basesys.rsystem_main.obj
 0002:000012b8       ??_C@_0L@FPKIMPHA@?$CD?$CF08x?5?$CC?$CFs?$CC?$AA@ 000000014000e2b8     umodsys_lib_basesys:umodsys.basesys.rsystem_main.obj
 0002:000012c8       ??_C@_0BC@HBJCAHHB@EFatal?5?$CD?$CF08x?5?$CC?$CFs?$CC?$AA@ 000000014000e2c8     umodsys_lib_basesys:umodsys.basesys.rsystem_main.obj
 0002:000012e0       ??_C@_0BE@IIJFBNID@EWarning?5?$CD?$CF08x?5?$CC?$CFs?$CC?$AA@ 000000014000e2e0     umodsys_lib_basesys:umodsys.basesys.rsystem_main.obj
 0002:000012f8       ??_C@_0BB@KFMJENMO@RSystem?3?3init?$CI?$CJ?6?$AA@ 000000014000e2f8     umodsys_lib_basesys:umodsys.basesys.rsystem_main.obj
 0002:00001310       ??_C@_0BI@FKDCNCM@RSystem?3?3exec_args?$CI?$CFd?$CJ?6?$AA@ 000000014000e310     umodsys_lib_basesys:umodsys.basesys.rsystem_main.obj
 0002:00001328       ??_C@_0BG@NFAKDFBG@RSystem?3?3exec_main?$CI?$CJ?6?$AA@ 000000014000e328     umodsys_lib_basesys:umodsys.basesys.rsystem_main.obj
 0002:00001340       ??_C@_0BD@CKNOJECK@RSystem?3?3deinit?$CI?$CJ?6?$AA@ 000000014000e340     umodsys_lib_basesys:umodsys.basesys.rsystem_main.obj
 0002:00001360       ??_7EExceptionBase@core@UModSys@@6B@ 000000014000e360     umodsys_lib_basesys:umodsys.basesys.rsystem_main.obj
 0002:00001378       ??_7EFatal@core@UModSys@@6B@ 000000014000e378     umodsys_lib_basesys:umodsys.basesys.rsystem_main.obj
 0002:00001390       ??_7EWarning@core@UModSys@@6B@ 000000014000e390     umodsys_lib_basesys:umodsys.basesys.rsystem_main.obj
 0002:000013a8       ??_7?$TRMemAlloc_CC@U?$TMemAllocHeader@USMagic@mem_headers@rsystem@base@UModSys@@U?$TPool@X@2345@USDebug@2345@UVoid@core@5@U895@@rsystem@base@UModSys@@USMemAlloc_Malloc@core@4@@rsystem@base@UModSys@@6B@ 000000014000e3a8     umodsys_lib_basesys:umodsys.basesys.rsystem_main.obj
 0002:000013c8       ??_7RSystem@rsystem@base@UModSys@@6BISystem@23@@ 000000014000e3c8     umodsys_lib_basesys:umodsys.basesys.rsystem_main.obj
 0002:00001448       ??_7RSystem@rsystem@base@UModSys@@6BIUniquePointerResolver@core@3@@ 000000014000e448     umodsys_lib_basesys:umodsys.basesys.rsystem_main.obj
 0002:00001460       ??_7RSystem@rsystem@base@UModSys@@6BISourceContextAdapter@core@3@@ 000000014000e460     umodsys_lib_basesys:umodsys.basesys.rsystem_main.obj
 0002:00001468       ??_C@_0BC@NNHIIPO@shells?5found?3?5?$CFd?6?$AA@ 000000014000e468     umodsys_lib_basesys:umodsys.basesys.rsystem_tests.obj
 0002:00001480       ??_C@_0BA@EBBPOIJG@?5?5shell?3?5?$CFp?5?$CFs?6?$AA@ 000000014000e480     umodsys_lib_basesys:umodsys.basesys.rsystem_tests.obj
 0002:00001490       ??_C@_0BF@JPMHOAKE@?5?5?5?5shell?5gen?5error?6?$AA@ 000000014000e490     umodsys_lib_basesys:umodsys.basesys.rsystem_tests.obj
 0002:000014a8       ??_C@_0BL@NANLGMEE@?5?5?5?5shell?5generated?5as?5?$CFp?6?$AA@ 000000014000e4a8     umodsys_lib_basesys:umodsys.basesys.rsystem_tests.obj
 0002:000014c8       ??_C@_0BD@NFNPGOAG@?1shells?5found?3?5?$CFd?6?$AA@ 000000014000e4c8     umodsys_lib_basesys:umodsys.basesys.rsystem_tests.obj
 0002:000014e0       ??_C@_0CJ@BMAKALAG@?$CK?$CK?$CK?$CK?$CK?$CK?$CK?$CK?$CK?$CK?$CK?$CK?$CK?$CK?$CK?$CK?$CK?$CK?$CK?$CK?$CK?$CK?$CK?$CK?$CK?$CK?$CK?$CK?$CK?$CK?$CK?5@ 000000014000e4e0     umodsys_lib_basesys:umodsys.basesys.rsystem_tests.obj
 0002:00001510       ??_C@_0IM@GKLDAEGO@sizeof?$CIDRMemAlloc?$CJ?$DN?$CFu?5sizeof?$CIDRM@ 000000014000e510     umodsys_lib_basesys:umodsys.basesys.rsystem_tests.obj
 0002:000015a0       ??_C@_0CJ@HFHNFOAC@?$CK?$CK?$CK?$CK?$CK?$CK?$CK?$CK?$CK?$CK?$CK?$CK?$CK?$CK?$CK?$CK?$CK?$CK?$CK?$CK?$CK?$CK?$CK?$CK?$CK?$CK?$CK?$CK?$CK?$CK?$CK?5@ 000000014000e5a0     umodsys_lib_basesys:umodsys.basesys.rsystem_tests.obj
 0002:000015d0       ??_C@_0DG@DMGFJEPO@RModuleLoader?3?3moduledb_cleanup?$CI@ 000000014000e5d0     umodsys_lib_basesys:umodsys.basesys.rmoduleloader.obj
 0002:00001608       ??_C@_0BN@BDEAMLC@?$CD?5LIST?5OF?5LIBRARY?5MODULES?3?6?6?$AA@ 000000014000e608     umodsys_lib_basesys:umodsys.basesys.rmoduleloader.obj
 0002:00001628       ??_C@_0BF@PLOHEFDA@?5?$HL?5mod_list?$DN?$CFd?3?$FL?$FN?5?$HN?6?$AA@ 000000014000e628     umodsys_lib_basesys:umodsys.basesys.rmoduleloader.obj
 0002:00001648       ??_7IModuleLoader@base@UModSys@@6B@ 000000014000e648     umodsys_lib_basesys:umodsys.basesys.rmoduleloader.obj
 0002:000016c8       ??_7RModuleLoader@rsystem@base@UModSys@@6B@ 000000014000e6c8     umodsys_lib_basesys:umodsys.basesys.rmoduleloader.obj
 0002:00001748       ??_7RModuleLibraryThis@rsystem@base@UModSys@@6B@ 000000014000e748     umodsys_lib_basesys:umodsys.basesys.rmodulelibthis.obj
 0002:00001818       ??_C@_0CN@ONDMHEFN@IModuleLibraryUni?$CI?$CFp?$CJ?3?3link?$CI?$CJ?5?9?9@ 000000014000e818     umodsys_lib_basesys:umodsys.basesys.rmodulelib.obj
 0002:00001848       ??_C@_0BA@LBGMEMKJ@LIBRARY?5?$CC?$CFs?$CC?5?$HL?6?$AA@ 000000014000e848     umodsys_lib_basesys:umodsys.basesys.rmodulelib.obj
 0002:00001858       ??_C@_0BH@CLNAAMEM@?$HN?5?$CD?5END?5LIBRARY?5?$CC?$CFs?$CC?6?6?$AA@ 000000014000e858     umodsys_lib_basesys:umodsys.basesys.rmodulelib.obj
 0002:00001870       ??_C@_0BI@OEALOBHC@NULL?5detected?5after?5?$CFp?6?$AA@ 000000014000e870     umodsys_lib_basesys:umodsys.basesys.rmodulelib.obj
 0002:00001888       ??_C@_0CH@LDLHHCGC@leak?5detected?5?$CFp?5size?5?$CFu?5at?5?$CFs?$CI?$CF@ 000000014000e888     umodsys_lib_basesys:umodsys.basesys.rmodulelib.obj
 0002:000018b0       ??_C@_0BK@NDLOCOMD@leak?5detected?5?$CFp?5size?5?$CFu?6?$AA@ 000000014000e8b0     umodsys_lib_basesys:umodsys.basesys.rmodulelib.obj
 0002:000018d8       ??_7IModuleLibraryUni@rsystem@base@UModSys@@6B@ 000000014000e8d8     umodsys_lib_basesys:umodsys.basesys.rmodulelib.obj
 0002:000019b8       ??_7RParameters@rsystem@base@UModSys@@6B@ 000000014000e9b8     umodsys_lib_basesys:umodsys.basesys.rparameters.obj
 0002:00001a90       ??_C@_0BG@LJFEMLCK@UModSys_Plugin_Entry2?$AA@ 000000014000ea90     umodsys_lib_basesys:umodsys.basesys.rmodule.win32.obj
 0002:00001aa8       ??_C@_0CI@IABKIJLA@?5?5?5?5?5?5?5?5?5?5load?5so?$CI?$CC?$CFs?$CC?$CJ?5?$HL?$CFp?0?5?$CFp?$HN@ 000000014000eaa8     umodsys_lib_basesys:umodsys.basesys.rmodule.win32.obj
 0002:00001ad0       ??_C@_0BP@EBMDLOGD@?5?5?5?5?5?5?5?5?5?5unload?5so?$CI?$HL?$CFp?0?5?$CFp?$HN?$CJ?6?$AA@ 000000014000ead0     umodsys_lib_basesys:umodsys.basesys.rmodule.win32.obj
 0002:00001af0       ??_C@_0BD@FBMHCLKB@scan?5so?3?5?$CC?$CFs?$CFs?$CFs?$CC?6?$AA@ 000000014000eaf0     umodsys_lib_basesys:umodsys.basesys.rmodule.win32.obj
 0002:00001b08       ??_C@_0BC@GMLCPHOK@?1scan?5so?3?5?$CC?$CFs?$CFs?$CC?6?$AA@ 000000014000eb08     umodsys_lib_basesys:umodsys.basesys.rmodule.win32.obj
 0002:00001b1c       ??_C@_02CAHBHFGK@?4?1?$AA@ 000000014000eb1c     umodsys_lib_basesys:umodsys.basesys.rmodule.win32.obj
 0002:00001b20       ??_C@_04HLONOPDM@?4dll?$AA@ 000000014000eb20     umodsys_lib_basesys:umodsys.basesys.rmodule.win32.obj
 0002:00001b28       ??_C@_0BF@KDHHIHAN@RModule?$CI?$CFp?$CJ?3?3open?$CI?$CJ?6?$AA@ 000000014000eb28     umodsys_lib_basesys:umodsys.basesys.rmodule.obj
 0002:00001b40       ??_C@_0BG@HADBHJOP@RModule?$CI?$CFp?$CJ?3?3close?$CI?$CJ?6?$AA@ 000000014000eb40     umodsys_lib_basesys:umodsys.basesys.rmodule.obj
 0002:00001b58       ??_C@_0BK@FNONNOFM@RModule?$CI?$CFp?$CJ?3?3?5pre?9loaded?6?$AA@ 000000014000eb58     umodsys_lib_basesys:umodsys.basesys.rmodule.obj
 0002:00001b78       ??_C@_0CE@HBBEEAED@RModule?$CI?$CFp?$CJ?3?3generate?$CI?$CJ?5?$HL?5gen?$DN?$CFp@ 000000014000eb78     umodsys_lib_basesys:umodsys.basesys.rmodule.obj
 0002:00001ba0       ??_C@_0DL@FHDKGKAD@RModule?$CI?$CFp?$CJ?3?3reg_generator?$CI?$CFs?5?$CFp@ 000000014000eba0     umodsys_lib_basesys:umodsys.basesys.rmodule.obj
 0002:00001be0       ??_C@_0DL@ECFHLNEB@RModule?$CI?$CFp?$CJ?3?3reg_generator?$CI?$CFs?5?$CFp@ 000000014000ebe0     umodsys_lib_basesys:umodsys.basesys.rmodule.obj
 0002:00001c20       ??_C@_0DI@EBNLDEPD@RModule?$CI?$CFp?$CJ?3?3reg_obj?$CI?$CFs?5?$CFp?$CJ?5?9?9?5?$HL@ 000000014000ec20     umodsys_lib_basesys:umodsys.basesys.rmodule.obj
 0002:00001c60       ??_C@_0GC@IAELDHPB@RModule?$CI?$CFp?$CJ?3?3reg_obj?$CI?$CFs?5?$CFp?$CJ?5?9?9?5i@ 000000014000ec60     umodsys_lib_basesys:umodsys.basesys.rmodule.obj
 0002:00001cc8       ??_C@_0CM@JCLMIGEB@RModule?$CI?$CFp?$CJ?3?3reg_obj?$CI?$CFs?5?$CFp?$CJ?5?9?9?5a@ 000000014000ecc8     umodsys_lib_basesys:umodsys.basesys.rmodule.obj
 0002:00001cf8       ??_C@_0DK@NJCECDIC@RModule?$CI?$CFp?$CJ?3?3unreg_obj?$CI?$CFs?5?$CFp?$CJ?5?9?9@ 000000014000ecf8     umodsys_lib_basesys:umodsys.basesys.rmodule.obj
 0002:00001d40       ??_C@_0GE@MGLAJHFG@RModule?$CI?$CFp?$CJ?3?3unreg_obj?$CI?$CFs?5?$CFp?$CJ?5?9?9@ 000000014000ed40     umodsys_lib_basesys:umodsys.basesys.rmodule.obj
 0002:00001da8       ??_C@_0CO@DAMPCAGA@RModule?3?3alloc_minfo?$CI?$HL?$CC?$CFs?$CC?0?5?$CC?$CFs?$CC@ 000000014000eda8     umodsys_lib_basesys:umodsys.basesys.rmodule.obj
 0002:00001dd8       ??_C@_0BG@HANHHGHE@?5?5MODULE?5?$CFs?$CI?$CFd?0?$CFd?$CJ?5?$HL?6?$AA@ 000000014000edd8     umodsys_lib_basesys:umodsys.basesys.rmodule.obj
 0002:00001df0       ??_C@_0CI@FMDENPAM@RModule?$CI?$CFp?$CJ?3?3save_db?$CI?4?4?4?$CJ?5?9?9?5?$HL?5?$CF@ 000000014000edf0     umodsys_lib_basesys:umodsys.basesys.rmodule.obj
 0002:00001e18       ??_C@_0BN@CFNKPKCH@?5?5?5?5MODOBJECT?5?$CFs?$CI?$CFd?$CJ?5?$CFs?$CI?$CFd?$CJ?6?$AA@ 000000014000ee18     umodsys_lib_basesys:umodsys.basesys.rmodule.obj
 0002:00001e38       ??_C@_0BP@BJFGMFNK@?5?5?5?5GENERATOR?5?$CFs?$CI?$CFd?$CJ?5?$CFs?$CI?$CFd?$CJ?5?$HL?6?$AA@ 000000014000ee38     umodsys_lib_basesys:umodsys.basesys.rmodule.obj
 0002:00001e58       ??_C@_0BK@DNNMLLHP@?5?5?5?5?5?5REFOBJECT?5?$CFs?$CI?$CFd?$CJ?5?$HL?6?$AA@ 000000014000ee58     umodsys_lib_basesys:umodsys.basesys.rmodule.obj
 0002:00001e78       ??_C@_0BF@CJPCFEEB@?5?5?5?5?5?5?5?5TYPE?5?$CFs?$CI?$CFd?$CJ?6?$AA@ 000000014000ee78     umodsys_lib_basesys:umodsys.basesys.rmodule.obj
 0002:00001e90       ??_C@_0BM@PFPEFHDC@?5?5?5?5?5?5?$HN?5?$CD?5REFOBJECT?5?$CFs?$CI?$CFd?$CJ?6?$AA@ 000000014000ee90     umodsys_lib_basesys:umodsys.basesys.rmodule.obj
 0002:00001eb0       ??_C@_0CB@PCDHJLII@?5?5?5?5?$HN?5?$CD?5GENERATOR?5?$CFs?$CI?$CFd?$CJ?5?$CFs?$CI?$CFd?$CJ?6@ 000000014000eeb0     umodsys_lib_basesys:umodsys.basesys.rmodule.obj
 0002:00001ed8       ??_C@_0BI@OGBPJMLO@?5?5?$HN?5?$CD?5MODULE?5?$CFs?$CI?$CFd?0?$CFd?$CJ?6?$AA@ 000000014000eed8     umodsys_lib_basesys:umodsys.basesys.rmodule.obj
 0002:00001ef8       ??_7RModule@rsystem@base@UModSys@@6B@ 000000014000eef8     umodsys_lib_basesys:umodsys.basesys.rmodule.obj
 0002:00001f98       ??_C@_0M@KEHKBKEH@?5?5so?3?5?$CC?$CFs?$CC?6?$AA@ 000000014000ef98     umodsys_lib_basesys:umodsys.basesys.rmodulelibso.obj
 0002:00001fa8       ??_C@_0BF@IKAEAMGP@?5?5?5?5so?5loaded?3?5?$CC?$CFs?$CC?6?$AA@ 000000014000efa8     umodsys_lib_basesys:umodsys.basesys.rmodulelibso.obj
 0002:00001fc0       ??_C@_0O@MCPOKEFF@?5?5?5?5so?5added?6?$AA@ 000000014000efc0     umodsys_lib_basesys:umodsys.basesys.rmodulelibso.obj
 0002:00001fd0       ??_C@_0BE@BFONLBBI@?5?5?5?5so?5dup?5with?5?$CFd?6?$AA@ 000000014000efd0     umodsys_lib_basesys:umodsys.basesys.rmodulelibso.obj
 0002:00001ff8       ??_7RModuleLibrarySO@rsystem@base@UModSys@@6B@ 000000014000eff8     umodsys_lib_basesys:umodsys.basesys.rmodulelibso.obj
 0002:000020d0       ??_7RModuleLibraryReg_Chain@base@UModSys@@6B@ 000000014000f0d0     umodsys_lib_base:umodsys.base.moduleregchain.obj
 0002:00002108       ??_7IModuleReg@base@UModSys@@6B@ 000000014000f108     umodsys_lib_base:umodsys.base.modulereg.obj
 0002:00002140       ??_7IModuleLibraryReg@base@UModSys@@6B@ 000000014000f140     umodsys_lib_base:umodsys.base.modulereg.obj
 0002:00002170       ??_C@_04MMEBIPMJ@?4tmp?$AA@ 000000014000f170     umodsys_lib_core:umodsys.core.syshlp_files.win32.obj
 0002:000026f0       ??_R4type_info@@6B@        000000014000f6f0     MSVCRT:ti_inst.obj
 0002:00002718       ??_R3type_info@@8          000000014000f718     MSVCRT:ti_inst.obj
 0002:00002730       ??_R2type_info@@8          000000014000f730     MSVCRT:ti_inst.obj
 0002:00002740       ??_R1A@?0A@EA@type_info@@8 000000014000f740     MSVCRT:ti_inst.obj
 0002:00002768       ??_R4RModuleReg@std@media@modules@UModSys@@6B@ 000000014000f768     umodsys_lib_libmedia:umodsys.mod.media.std.obj
 0002:00002790       ??_R3RModuleReg@std@media@modules@UModSys@@8 000000014000f790     umodsys_lib_libmedia:umodsys.mod.media.std.obj
 0002:000027a8       ??_R2RModuleReg@std@media@modules@UModSys@@8 000000014000f7a8     umodsys_lib_libmedia:umodsys.mod.media.std.obj
 0002:000027c0       ??_R1A@?0A@EA@IModuleReg@base@UModSys@@8 000000014000f7c0     umodsys_lib_libmedia:umodsys.mod.media.std.obj
 0002:000027e8       ??_R3IModuleReg@base@UModSys@@8 000000014000f7e8     umodsys_lib_libmedia:umodsys.mod.media.std.obj
 0002:00002800       ??_R2IModuleReg@base@UModSys@@8 000000014000f800     umodsys_lib_libmedia:umodsys.mod.media.std.obj
 0002:00002810       ??_R1A@?0A@EA@RModuleReg@std@media@modules@UModSys@@8 000000014000f810     umodsys_lib_libmedia:umodsys.mod.media.std.obj
 0002:00002838       ??_R4RLibraryBinTree@std@media@modules@UModSys@@6BIResolver@SFlags@libmedia@4@@ 000000014000f838     umodsys_lib_libmedia:umodsys.mod.media.std.obj
 0002:00002860       ??_R4RLibraryBinTree@std@media@modules@UModSys@@6BIRefObject@core@4@@ 000000014000f860     umodsys_lib_libmedia:umodsys.mod.media.std.obj
 0002:00002888       ??_R3RLibraryBinTree@std@media@modules@UModSys@@8 000000014000f888     umodsys_lib_libmedia:umodsys.mod.media.std.obj
 0002:000028a0       ??_R2RLibraryBinTree@std@media@modules@UModSys@@8 000000014000f8a0     umodsys_lib_libmedia:umodsys.mod.media.std.obj
 0002:000028d8       ??_R1A@?0A@EA@RLibraryBinTree@std@media@modules@UModSys@@8 000000014000f8d8     umodsys_lib_libmedia:umodsys.mod.media.std.obj
 0002:00002900       ??_R4RLibraryBinCache@std@media@modules@UModSys@@6BIResolver@SFlags@libmedia@4@@ 000000014000f900     umodsys_lib_libmedia:umodsys.mod.media.std.obj
 0002:00002928       ??_R4RLibraryBinCache@std@media@modules@UModSys@@6BIRefObject@core@4@@ 000000014000f928     umodsys_lib_libmedia:umodsys.mod.media.std.obj
 0002:00002950       ??_R3RLibraryBinCache@std@media@modules@UModSys@@8 000000014000f950     umodsys_lib_libmedia:umodsys.mod.media.std.obj
 0002:00002968       ??_R2RLibraryBinCache@std@media@modules@UModSys@@8 000000014000f968     umodsys_lib_libmedia:umodsys.mod.media.std.obj
 0002:000029a0       ??_R1A@?0A@EA@RLibraryBinCache@std@media@modules@UModSys@@8 000000014000f9a0     umodsys_lib_libmedia:umodsys.mod.media.std.obj
 0002:000029c8       ??_R4RGenerator@std@media@modules@UModSys@@6B@ 000000014000f9c8     umodsys_lib_libmedia:umodsys.mod.media.std.obj
 0002:000029f0       ??_R3RGenerator@std@media@modules@UModSys@@8 000000014000f9f0     umodsys_lib_libmedia:umodsys.mod.media.std.obj
 0002:00002a08       ??_R2RGenerator@std@media@modules@UModSys@@8 000000014000fa08     umodsys_lib_libmedia:umodsys.mod.media.std.obj
 0002:00002a38       ??_R1A@?0A@EA@RGenerator@std@media@modules@UModSys@@8 000000014000fa38     umodsys_lib_libmedia:umodsys.mod.media.std.obj
 0002:00002a60       ??_R3ILibraryBinCache@libmedia@UModSys@@8 000000014000fa60     umodsys_lib_libmedia:umodsys.mod.media.std.obj
 0002:00002a78       ??_R2ILibraryBinCache@libmedia@UModSys@@8 000000014000fa78     umodsys_lib_libmedia:umodsys.mod.media.std.obj
 0002:00002aa8       ??_R1A@?0A@EA@ILibraryBinCache@libmedia@UModSys@@8 000000014000faa8     umodsys_lib_libmedia:umodsys.mod.media.std.obj
 0002:00002ad0       ??_R3ILibraryBinTree@libmedia@UModSys@@8 000000014000fad0     umodsys_lib_libmedia:umodsys.mod.media.std.obj
 0002:00002ae8       ??_R2ILibraryBinTree@libmedia@UModSys@@8 000000014000fae8     umodsys_lib_libmedia:umodsys.mod.media.std.obj
 0002:00002b18       ??_R1A@?0A@EA@ILibraryBinTree@libmedia@UModSys@@8 000000014000fb18     umodsys_lib_libmedia:umodsys.mod.media.std.obj
 0002:00002b40       ??_R3ILibrary@libmedia@UModSys@@8 000000014000fb40     umodsys_lib_libmedia:umodsys.mod.media.std.obj
 0002:00002b58       ??_R2ILibrary@libmedia@UModSys@@8 000000014000fb58     umodsys_lib_libmedia:umodsys.mod.media.std.obj
 0002:00002b80       ??_R17?0A@EA@IResolver@SFlags@libmedia@UModSys@@8 000000014000fb80     umodsys_lib_libmedia:umodsys.mod.media.std.obj
 0002:00002ba8       ??_R3IResolver@SFlags@libmedia@UModSys@@8 000000014000fba8     umodsys_lib_libmedia:umodsys.mod.media.std.obj
 0002:00002bc0       ??_R2IResolver@SFlags@libmedia@UModSys@@8 000000014000fbc0     umodsys_lib_libmedia:umodsys.mod.media.std.obj
 0002:00002bd0       ??_R1A@?0A@EA@IResolver@SFlags@libmedia@UModSys@@8 000000014000fbd0     umodsys_lib_libmedia:umodsys.mod.media.std.obj
 0002:00002bf8       ??_R1A@?0A@EA@ILibrary@libmedia@UModSys@@8 000000014000fbf8     umodsys_lib_libmedia:umodsys.mod.media.std.obj
 0002:00002c20       ??_R3IGenerator@base@UModSys@@8 000000014000fc20     umodsys_lib_libmedia:umodsys.mod.media.std.obj
 0002:00002c38       ??_R2IGenerator@base@UModSys@@8 000000014000fc38     umodsys_lib_libmedia:umodsys.mod.media.std.obj
 0002:00002c60       ??_R1A@?0A@EA@IGenerator@base@UModSys@@8 000000014000fc60     umodsys_lib_libmedia:umodsys.mod.media.std.obj
 0002:00002c88       ??_R3IModObject@base@UModSys@@8 000000014000fc88     umodsys_lib_libmedia:umodsys.mod.media.std.obj
 0002:00002ca0       ??_R2IModObject@base@UModSys@@8 000000014000fca0     umodsys_lib_libmedia:umodsys.mod.media.std.obj
 0002:00002cc0       ??_R1A@?0A@EA@IModObject@base@UModSys@@8 000000014000fcc0     umodsys_lib_libmedia:umodsys.mod.media.std.obj
 0002:00002ce8       ??_R3IRefObject@core@UModSys@@8 000000014000fce8     umodsys_lib_libmedia:umodsys.mod.media.std.obj
 0002:00002d00       ??_R2IRefObject@core@UModSys@@8 000000014000fd00     umodsys_lib_libmedia:umodsys.mod.media.std.obj
 0002:00002d18       ??_R1A@?0A@EA@IRefObject@core@UModSys@@8 000000014000fd18     umodsys_lib_libmedia:umodsys.mod.media.std.obj
 0002:00002d40       ??_R4IRoot@core@UModSys@@6B@ 000000014000fd40     umodsys_lib_libmedia:umodsys.mod.media.std.obj
 0002:00002d68       ??_R3IRoot@core@UModSys@@8 000000014000fd68     umodsys_lib_libmedia:umodsys.mod.media.std.obj
 0002:00002d80       ??_R2IRoot@core@UModSys@@8 000000014000fd80     umodsys_lib_libmedia:umodsys.mod.media.std.obj
 0002:00002d90       ??_R1A@?0A@EA@IRoot@core@UModSys@@8 000000014000fd90     umodsys_lib_libmedia:umodsys.mod.media.std.obj
 0002:00002db8       ??_R4RModuleReg@stdio@media@modules@UModSys@@6B@ 000000014000fdb8     umodsys_lib_libmedia:umodsys.mod.media.stdio.obj
 0002:00002de0       ??_R3RModuleReg@stdio@media@modules@UModSys@@8 000000014000fde0     umodsys_lib_libmedia:umodsys.mod.media.stdio.obj
 0002:00002df8       ??_R2RModuleReg@stdio@media@modules@UModSys@@8 000000014000fdf8     umodsys_lib_libmedia:umodsys.mod.media.stdio.obj
 0002:00002e10       ??_R1A@?0A@EA@RModuleReg@stdio@media@modules@UModSys@@8 000000014000fe10     umodsys_lib_libmedia:umodsys.mod.media.stdio.obj
 0002:00002e38       ??_R4RDataArchiver_OsDir@stdio@media@modules@UModSys@@6B@ 000000014000fe38     umodsys_lib_libmedia:umodsys.mod.media.stdio.obj
 0002:00002e60       ??_R3RDataArchiver_OsDir@stdio@media@modules@UModSys@@8 000000014000fe60     umodsys_lib_libmedia:umodsys.mod.media.stdio.obj
 0002:00002e78       ??_R2RDataArchiver_OsDir@stdio@media@modules@UModSys@@8 000000014000fe78     umodsys_lib_libmedia:umodsys.mod.media.stdio.obj
 0002:00002ea0       ??_R1A@?0A@EA@RDataArchiver_OsDir@stdio@media@modules@UModSys@@8 000000014000fea0     umodsys_lib_libmedia:umodsys.mod.media.stdio.obj
 0002:00002ec8       ??_R4RStreamWriter_FILE@stdio@media@modules@UModSys@@6B@ 000000014000fec8     umodsys_lib_libmedia:umodsys.mod.media.stdio.obj
 0002:00002ef0       ??_R3RStreamWriter_FILE@stdio@media@modules@UModSys@@8 000000014000fef0     umodsys_lib_libmedia:umodsys.mod.media.stdio.obj
 0002:00002f08       ??_R2RStreamWriter_FILE@stdio@media@modules@UModSys@@8 000000014000ff08     umodsys_lib_libmedia:umodsys.mod.media.stdio.obj
 0002:00002f30       ??_R1A@?0A@EA@RStreamWriter_FILE@stdio@media@modules@UModSys@@8 000000014000ff30     umodsys_lib_libmedia:umodsys.mod.media.stdio.obj
 0002:00002f58       ??_R4RStreamReader_FILE@stdio@media@modules@UModSys@@6B@ 000000014000ff58     umodsys_lib_libmedia:umodsys.mod.media.stdio.obj
 0002:00002f80       ??_R3RStreamReader_FILE@stdio@media@modules@UModSys@@8 000000014000ff80     umodsys_lib_libmedia:umodsys.mod.media.stdio.obj
 0002:00002f98       ??_R2RStreamReader_FILE@stdio@media@modules@UModSys@@8 000000014000ff98     umodsys_lib_libmedia:umodsys.mod.media.stdio.obj
 0002:00002fc0       ??_R1A@?0A@EA@RStreamReader_FILE@stdio@media@modules@UModSys@@8 000000014000ffc0     umodsys_lib_libmedia:umodsys.mod.media.stdio.obj
 0002:00002fe8       ??_R4RGenerator@stdio@media@modules@UModSys@@6B@ 000000014000ffe8     umodsys_lib_libmedia:umodsys.mod.media.stdio.obj
 0002:00003010       ??_R3RGenerator@stdio@media@modules@UModSys@@8 0000000140010010     umodsys_lib_libmedia:umodsys.mod.media.stdio.obj
 0002:00003028       ??_R2RGenerator@stdio@media@modules@UModSys@@8 0000000140010028     umodsys_lib_libmedia:umodsys.mod.media.stdio.obj
 0002:00003058       ??_R1A@?0A@EA@RGenerator@stdio@media@modules@UModSys@@8 0000000140010058     umodsys_lib_libmedia:umodsys.mod.media.stdio.obj
 0002:00003080       ??_R3IBinArchive@libmedia@UModSys@@8 0000000140010080     umodsys_lib_libmedia:umodsys.mod.media.stdio.obj
 0002:00003098       ??_R2IBinArchive@libmedia@UModSys@@8 0000000140010098     umodsys_lib_libmedia:umodsys.mod.media.stdio.obj
 0002:000030b8       ??_R1A@?0A@EA@IBinArchive@libmedia@UModSys@@8 00000001400100b8     umodsys_lib_libmedia:umodsys.mod.media.stdio.obj
 0002:000030e0       ??_R3IStreamWriter@libmedia@UModSys@@8 00000001400100e0     umodsys_lib_libmedia:umodsys.mod.media.stdio.obj
 0002:000030f8       ??_R2IStreamWriter@libmedia@UModSys@@8 00000001400100f8     umodsys_lib_libmedia:umodsys.mod.media.stdio.obj
 0002:00003118       ??_R1A@?0A@EA@IStreamWriter@libmedia@UModSys@@8 0000000140010118     umodsys_lib_libmedia:umodsys.mod.media.stdio.obj
 0002:00003140       ??_R3IStreamReader@libmedia@UModSys@@8 0000000140010140     umodsys_lib_libmedia:umodsys.mod.media.stdio.obj
 0002:00003158       ??_R2IStreamReader@libmedia@UModSys@@8 0000000140010158     umodsys_lib_libmedia:umodsys.mod.media.stdio.obj
 0002:00003178       ??_R1A@?0A@EA@IStreamReader@libmedia@UModSys@@8 0000000140010178     umodsys_lib_libmedia:umodsys.mod.media.stdio.obj
 0002:000031a0       ??_R4RConsole_std@rsystem@base@UModSys@@6B@ 00000001400101a0     umodsys_lib_basesys:umodsys.basesys.rconsole_std.obj
 0002:000031c8       ??_R3RConsole_std@rsystem@base@UModSys@@8 00000001400101c8     umodsys_lib_basesys:umodsys.basesys.rconsole_std.obj
 0002:000031e0       ??_R2RConsole_std@rsystem@base@UModSys@@8 00000001400101e0     umodsys_lib_basesys:umodsys.basesys.rconsole_std.obj
 0002:00003208       ??_R1A@?0A@EA@RConsole_std@rsystem@base@UModSys@@8 0000000140010208     umodsys_lib_basesys:umodsys.basesys.rconsole_std.obj
 0002:00003230       ??_R3IConsole@base@UModSys@@8 0000000140010230     umodsys_lib_basesys:umodsys.basesys.rconsole_std.obj
 0002:00003248       ??_R2IConsole@base@UModSys@@8 0000000140010248     umodsys_lib_basesys:umodsys.basesys.rconsole_std.obj
 0002:00003268       ??_R1A@?0A@EA@IConsole@base@UModSys@@8 0000000140010268     umodsys_lib_basesys:umodsys.basesys.rconsole_std.obj
 0002:00003290       ??_R4RSystem@rsystem@base@UModSys@@6BISourceContextAdapter@core@3@@ 0000000140010290     umodsys_lib_basesys:umodsys.basesys.rsystem_main.obj
 0002:000032b8       ??_R4RSystem@rsystem@base@UModSys@@6BIUniquePointerResolver@core@3@@ 00000001400102b8     umodsys_lib_basesys:umodsys.basesys.rsystem_main.obj
 0002:000032e0       ??_R4RSystem@rsystem@base@UModSys@@6BISystem@23@@ 00000001400102e0     umodsys_lib_basesys:umodsys.basesys.rsystem_main.obj
 0002:00003308       ??_R3RSystem@rsystem@base@UModSys@@8 0000000140010308     umodsys_lib_basesys:umodsys.basesys.rsystem_main.obj
 0002:00003320       ??_R2RSystem@rsystem@base@UModSys@@8 0000000140010320     umodsys_lib_basesys:umodsys.basesys.rsystem_main.obj
 0002:00003350       ??_R1BA@?0A@EA@ISourceContextAdapter@core@UModSys@@8 0000000140010350     umodsys_lib_basesys:umodsys.basesys.rsystem_main.obj
 0002:00003378       ??_R17?0A@EA@IUniquePointerResolver@core@UModSys@@8 0000000140010378     umodsys_lib_basesys:umodsys.basesys.rsystem_main.obj
 0002:000033a0       ??_R1A@?0A@EA@RSystem@rsystem@base@UModSys@@8 00000001400103a0     umodsys_lib_basesys:umodsys.basesys.rsystem_main.obj
 0002:000033c8       ??_R4?$TRMemAlloc_CC@U?$TMemAllocHeader@USMagic@mem_headers@rsystem@base@UModSys@@U?$TPool@X@2345@USDebug@2345@UVoid@core@5@U895@@rsystem@base@UModSys@@USMemAlloc_Malloc@core@4@@rsystem@base@UModSys@@6B@ 00000001400103c8     umodsys_lib_basesys:umodsys.basesys.rsystem_main.obj
 0002:000033f0       ??_R3?$TRMemAlloc_CC@U?$TMemAllocHeader@USMagic@mem_headers@rsystem@base@UModSys@@U?$TPool@X@2345@USDebug@2345@UVoid@core@5@U895@@rsystem@base@UModSys@@USMemAlloc_Malloc@core@4@@rsystem@base@UModSys@@8 00000001400103f0     umodsys_lib_basesys:umodsys.basesys.rsystem_main.obj
 0002:00003408       ??_R2?$TRMemAlloc_CC@U?$TMemAllocHeader@USMagic@mem_headers@rsystem@base@UModSys@@U?$TPool@X@2345@USDebug@2345@UVoid@core@5@U895@@rsystem@base@UModSys@@USMemAlloc_Malloc@core@4@@rsystem@base@UModSys@@8 0000000140010408     umodsys_lib_basesys:umodsys.basesys.rsystem_main.obj
 0002:00003428       ??_R17?0A@EA@SMemAlloc_Malloc@core@UModSys@@8 0000000140010428     umodsys_lib_basesys:umodsys.basesys.rsystem_main.obj
 0002:00003450       ??_R3SMemAlloc_Malloc@core@UModSys@@8 0000000140010450     umodsys_lib_basesys:umodsys.basesys.rsystem_main.obj
 0002:00003468       ??_R2SMemAlloc_Malloc@core@UModSys@@8 0000000140010468     umodsys_lib_basesys:umodsys.basesys.rsystem_main.obj
 0002:00003478       ??_R1A@?0A@EA@SMemAlloc_Malloc@core@UModSys@@8 0000000140010478     umodsys_lib_basesys:umodsys.basesys.rsystem_main.obj
 0002:000034a0       ??_R1A@?0A@EA@?$TRMemAlloc_CC@U?$TMemAllocHeader@USMagic@mem_headers@rsystem@base@UModSys@@U?$TPool@X@2345@USDebug@2345@UVoid@core@5@U895@@rsystem@base@UModSys@@USMemAlloc_Malloc@core@4@@rsystem@base@UModSys@@8 00000001400104a0     umodsys_lib_basesys:umodsys.basesys.rsystem_main.obj
 0002:000034c8       ??_R3IUniquePointerResolver@core@UModSys@@8 00000001400104c8     umodsys_lib_basesys:umodsys.basesys.rsystem_main.obj
 0002:000034e0       ??_R2IUniquePointerResolver@core@UModSys@@8 00000001400104e0     umodsys_lib_basesys:umodsys.basesys.rsystem_main.obj
 0002:000034f0       ??_R1A@?0A@EA@IUniquePointerResolver@core@UModSys@@8 00000001400104f0     umodsys_lib_basesys:umodsys.basesys.rsystem_main.obj
 0002:00003518       ??_R3ISourceContextAdapter@core@UModSys@@8 0000000140010518     umodsys_lib_basesys:umodsys.basesys.rsystem_main.obj
 0002:00003530       ??_R2ISourceContextAdapter@core@UModSys@@8 0000000140010530     umodsys_lib_basesys:umodsys.basesys.rsystem_main.obj
 0002:00003540       ??_R1A@?0A@EA@ISourceContextAdapter@core@UModSys@@8 0000000140010540     umodsys_lib_basesys:umodsys.basesys.rsystem_main.obj
 0002:00003568       ??_R3ISystem@base@UModSys@@8 0000000140010568     umodsys_lib_basesys:umodsys.basesys.rsystem_main.obj
 0002:00003580       ??_R2ISystem@base@UModSys@@8 0000000140010580     umodsys_lib_basesys:umodsys.basesys.rsystem_main.obj
 0002:00003598       ??_R1A@?0A@EA@ISystem@base@UModSys@@8 0000000140010598     umodsys_lib_basesys:umodsys.basesys.rsystem_main.obj
 0002:000035c0       ??_R3IMemAlloc@core@UModSys@@8 00000001400105c0     umodsys_lib_basesys:umodsys.basesys.rsystem_main.obj
 0002:000035d8       ??_R2IMemAlloc@core@UModSys@@8 00000001400105d8     umodsys_lib_basesys:umodsys.basesys.rsystem_main.obj
 0002:000035e8       ??_R1A@?0A@EA@IMemAlloc@core@UModSys@@8 00000001400105e8     umodsys_lib_basesys:umodsys.basesys.rsystem_main.obj
 0002:00003610       ??_R4EWarning@core@UModSys@@6B@ 0000000140010610     umodsys_lib_basesys:umodsys.basesys.rsystem_main.obj
 0002:00003638       ??_R3EWarning@core@UModSys@@8 0000000140010638     umodsys_lib_basesys:umodsys.basesys.rsystem_main.obj
 0002:00003650       ??_R2EWarning@core@UModSys@@8 0000000140010650     umodsys_lib_basesys:umodsys.basesys.rsystem_main.obj
 0002:00003668       ??_R1A@?0A@EA@EWarning@core@UModSys@@8 0000000140010668     umodsys_lib_basesys:umodsys.basesys.rsystem_main.obj
 0002:00003690       ??_R4EFatal@core@UModSys@@6B@ 0000000140010690     umodsys_lib_basesys:umodsys.basesys.rsystem_main.obj
 0002:000036b8       ??_R3EFatal@core@UModSys@@8 00000001400106b8     umodsys_lib_basesys:umodsys.basesys.rsystem_main.obj
 0002:000036d0       ??_R2EFatal@core@UModSys@@8 00000001400106d0     umodsys_lib_basesys:umodsys.basesys.rsystem_main.obj
 0002:000036e8       ??_R1A@?0A@EA@EFatal@core@UModSys@@8 00000001400106e8     umodsys_lib_basesys:umodsys.basesys.rsystem_main.obj
 0002:00003710       ??_R4EExceptionBase@core@UModSys@@6B@ 0000000140010710     umodsys_lib_basesys:umodsys.basesys.rsystem_main.obj
 0002:00003738       ??_R3EExceptionBase@core@UModSys@@8 0000000140010738     umodsys_lib_basesys:umodsys.basesys.rsystem_main.obj
 0002:00003750       ??_R2EExceptionBase@core@UModSys@@8 0000000140010750     umodsys_lib_basesys:umodsys.basesys.rsystem_main.obj
 0002:00003760       ??_R1A@?0A@EA@EExceptionBase@core@UModSys@@8 0000000140010760     umodsys_lib_basesys:umodsys.basesys.rsystem_main.obj
 0002:00003788       ??_R4RModuleLoader@rsystem@base@UModSys@@6B@ 0000000140010788     umodsys_lib_basesys:umodsys.basesys.rmoduleloader.obj
 0002:000037b0       ??_R3RModuleLoader@rsystem@base@UModSys@@8 00000001400107b0     umodsys_lib_basesys:umodsys.basesys.rmoduleloader.obj
 0002:000037c8       ??_R2RModuleLoader@rsystem@base@UModSys@@8 00000001400107c8     umodsys_lib_basesys:umodsys.basesys.rmoduleloader.obj
 0002:000037e0       ??_R1A@?0A@EA@RModuleLoader@rsystem@base@UModSys@@8 00000001400107e0     umodsys_lib_basesys:umodsys.basesys.rmoduleloader.obj
 0002:00003808       ??_R4IModuleLoader@base@UModSys@@6B@ 0000000140010808     umodsys_lib_basesys:umodsys.basesys.rmoduleloader.obj
 0002:00003830       ??_R3IModuleLoader@base@UModSys@@8 0000000140010830     umodsys_lib_basesys:umodsys.basesys.rmoduleloader.obj
 0002:00003848       ??_R2IModuleLoader@base@UModSys@@8 0000000140010848     umodsys_lib_basesys:umodsys.basesys.rmoduleloader.obj
 0002:00003858       ??_R1A@?0A@EA@IModuleLoader@base@UModSys@@8 0000000140010858     umodsys_lib_basesys:umodsys.basesys.rmoduleloader.obj
 0002:00003880       ??_R4RModuleLibraryThis@rsystem@base@UModSys@@6B@ 0000000140010880     umodsys_lib_basesys:umodsys.basesys.rmodulelibthis.obj
 0002:000038a8       ??_R3RModuleLibraryThis@rsystem@base@UModSys@@8 00000001400108a8     umodsys_lib_basesys:umodsys.basesys.rmodulelibthis.obj
 0002:000038c0       ??_R2RModuleLibraryThis@rsystem@base@UModSys@@8 00000001400108c0     umodsys_lib_basesys:umodsys.basesys.rmodulelibthis.obj
 0002:000038f0       ??_R1A@?0A@EA@IModuleLibraryUni@rsystem@base@UModSys@@8 00000001400108f0     umodsys_lib_basesys:umodsys.basesys.rmodulelibthis.obj
 0002:00003918       ??_R3IModuleLibraryUni@rsystem@base@UModSys@@8 0000000140010918     umodsys_lib_basesys:umodsys.basesys.rmodulelibthis.obj
 0002:00003930       ??_R2IModuleLibraryUni@rsystem@base@UModSys@@8 0000000140010930     umodsys_lib_basesys:umodsys.basesys.rmodulelibthis.obj
 0002:00003958       ??_R1A@?0A@EA@IModuleLibrary@base@UModSys@@8 0000000140010958     umodsys_lib_basesys:umodsys.basesys.rmodulelibthis.obj
 0002:00003980       ??_R3IModuleLibrary@base@UModSys@@8 0000000140010980     umodsys_lib_basesys:umodsys.basesys.rmodulelibthis.obj
 0002:00003998       ??_R2IModuleLibrary@base@UModSys@@8 0000000140010998     umodsys_lib_basesys:umodsys.basesys.rmodulelibthis.obj
 0002:000039b8       ??_R1A@?0A@EA@RModuleLibraryThis@rsystem@base@UModSys@@8 00000001400109b8     umodsys_lib_basesys:umodsys.basesys.rmodulelibthis.obj
 0002:000039e0       ??_R4IModuleLibraryUni@rsystem@base@UModSys@@6B@ 00000001400109e0     umodsys_lib_basesys:umodsys.basesys.rmodulelib.obj
 0002:00003a08       ??_R4RParameters@rsystem@base@UModSys@@6B@ 0000000140010a08     umodsys_lib_basesys:umodsys.basesys.rparameters.obj
 0002:00003a30       ??_R3RParameters@rsystem@base@UModSys@@8 0000000140010a30     umodsys_lib_basesys:umodsys.basesys.rparameters.obj
 0002:00003a48       ??_R2RParameters@rsystem@base@UModSys@@8 0000000140010a48     umodsys_lib_basesys:umodsys.basesys.rparameters.obj
 0002:00003a70       ??_R1A@?0A@EA@RParameters@rsystem@base@UModSys@@8 0000000140010a70     umodsys_lib_basesys:umodsys.basesys.rparameters.obj
 0002:00003a98       ??_R3IParameters@core@UModSys@@8 0000000140010a98     umodsys_lib_basesys:umodsys.basesys.rparameters.obj
 0002:00003ab0       ??_R2IParameters@core@UModSys@@8 0000000140010ab0     umodsys_lib_basesys:umodsys.basesys.rparameters.obj
 0002:00003ad0       ??_R1A@?0A@EA@IParameters@core@UModSys@@8 0000000140010ad0     umodsys_lib_basesys:umodsys.basesys.rparameters.obj
 0002:00003af8       ??_R4RModule@rsystem@base@UModSys@@6B@ 0000000140010af8     umodsys_lib_basesys:umodsys.basesys.rmodule.obj
 0002:00003b20       ??_R3RModule@rsystem@base@UModSys@@8 0000000140010b20     umodsys_lib_basesys:umodsys.basesys.rmodule.obj
 0002:00003b38       ??_R2RModule@rsystem@base@UModSys@@8 0000000140010b38     umodsys_lib_basesys:umodsys.basesys.rmodule.obj
 0002:00003b60       ??_R1A@?0A@EA@RModule@rsystem@base@UModSys@@8 0000000140010b60     umodsys_lib_basesys:umodsys.basesys.rmodule.obj
 0002:00003b88       ??_R3IModule@base@UModSys@@8 0000000140010b88     umodsys_lib_basesys:umodsys.basesys.rmodule.obj
 0002:00003ba0       ??_R2IModule@base@UModSys@@8 0000000140010ba0     umodsys_lib_basesys:umodsys.basesys.rmodule.obj
 0002:00003bc0       ??_R1A@?0A@EA@IModule@base@UModSys@@8 0000000140010bc0     umodsys_lib_basesys:umodsys.basesys.rmodule.obj
 0002:00003be8       ??_R4RModuleLibrarySO@rsystem@base@UModSys@@6B@ 0000000140010be8     umodsys_lib_basesys:umodsys.basesys.rmodulelibso.obj
 0002:00003c10       ??_R3RModuleLibrarySO@rsystem@base@UModSys@@8 0000000140010c10     umodsys_lib_basesys:umodsys.basesys.rmodulelibso.obj
 0002:00003c28       ??_R2RModuleLibrarySO@rsystem@base@UModSys@@8 0000000140010c28     umodsys_lib_basesys:umodsys.basesys.rmodulelibso.obj
 0002:00003c58       ??_R1A@?0A@EA@RModuleLibrarySO@rsystem@base@UModSys@@8 0000000140010c58     umodsys_lib_basesys:umodsys.basesys.rmodulelibso.obj
 0002:00003c80       ??_R4RModuleLibraryReg_Chain@base@UModSys@@6B@ 0000000140010c80     umodsys_lib_base:umodsys.base.moduleregchain.obj
 0002:00003ca8       ??_R3RModuleLibraryReg_Chain@base@UModSys@@8 0000000140010ca8     umodsys_lib_base:umodsys.base.moduleregchain.obj
 0002:00003cc0       ??_R2RModuleLibraryReg_Chain@base@UModSys@@8 0000000140010cc0     umodsys_lib_base:umodsys.base.moduleregchain.obj
 0002:00003cd8       ??_R1A@?0A@EA@IModuleLibraryReg@base@UModSys@@8 0000000140010cd8     umodsys_lib_base:umodsys.base.moduleregchain.obj
 0002:00003d00       ??_R3IModuleLibraryReg@base@UModSys@@8 0000000140010d00     umodsys_lib_base:umodsys.base.moduleregchain.obj
 0002:00003d18       ??_R2IModuleLibraryReg@base@UModSys@@8 0000000140010d18     umodsys_lib_base:umodsys.base.moduleregchain.obj
 0002:00003d28       ??_R1A@?0A@EA@RModuleLibraryReg_Chain@base@UModSys@@8 0000000140010d28     umodsys_lib_base:umodsys.base.moduleregchain.obj
 0002:00003d50       ??_R4IModuleLibraryReg@base@UModSys@@6B@ 0000000140010d50     umodsys_lib_base:umodsys.base.modulereg.obj
 0002:00003d78       ??_R4IModuleReg@base@UModSys@@6B@ 0000000140010d78     umodsys_lib_base:umodsys.base.modulereg.obj
 0002:00003da0       __rtc_iaa                  0000000140010da0     MSVCRT:_initsect_.obj
 0002:00003da8       __rtc_izz                  0000000140010da8     MSVCRT:_initsect_.obj
 0002:00003db0       __rtc_taa                  0000000140010db0     MSVCRT:_initsect_.obj
 0002:00003db8       __rtc_tzz                  0000000140010db8     MSVCRT:_initsect_.obj
 0002:00004e80       _CT??_R0?AUEFatal@core@UModSys@@@8??0EFatal@core@UModSys@@QEAA@AEBU012@@Z48 0000000140011e80     umodsys_lib_basesys:umodsys.basesys.rsystem_main.obj
 0002:00004ea8       _CT??_R0?AUEExceptionBase@core@UModSys@@@8??0EExceptionBase@core@UModSys@@QEAA@AEBU012@@Z48 0000000140011ea8     umodsys_lib_basesys:umodsys.basesys.rsystem_main.obj
 0002:00004ed0       _CTA2?AUEFatal@core@UModSys@@ 0000000140011ed0     umodsys_lib_basesys:umodsys.basesys.rsystem_main.obj
 0002:00004ee8       _TI2?AUEFatal@core@UModSys@@ 0000000140011ee8     umodsys_lib_basesys:umodsys.basesys.rsystem_main.obj
 0002:00004f08       _CT??_R0?AUEWarning@core@UModSys@@@8??0EWarning@core@UModSys@@QEAA@AEBU012@@Z48 0000000140011f08     umodsys_lib_basesys:umodsys.basesys.rsystem_main.obj
 0002:00004f30       _CTA2?AUEWarning@core@UModSys@@ 0000000140011f30     umodsys_lib_basesys:umodsys.basesys.rsystem_main.obj
 0002:00004f48       _TI2?AUEWarning@core@UModSys@@ 0000000140011f48     umodsys_lib_basesys:umodsys.basesys.rsystem_main.obj
 0002:00004f64       __IMPORT_DESCRIPTOR_MSVCR90 0000000140011f64     MSVCRT:MSVCR90.dll
 0002:00004f78       __IMPORT_DESCRIPTOR_KERNEL32 0000000140011f78     kernel32:KERNEL32.dll
 0002:00004f8c       __NULL_IMPORT_DESCRIPTOR   0000000140011f8c     MSVCRT:MSVCR90.dll
 0003:00000000       ??_R0?AVtype_info@@@8      0000000140013000     MSVCRT:ti_inst.obj
 0003:00000020       __native_dllmain_reason    0000000140013020     MSVCRT:natstart.obj
 0003:00000024       __native_vcclrit_reason    0000000140013024     MSVCRT:natstart.obj
 0003:00000028       __globallocalestatus       0000000140013028     MSVCRT:xthdloc.obj
 0003:0000002c       __defaultmatherr           000000014001302c     MSVCRT:merr.obj
 0003:00000030       __security_cookie          0000000140013030     MSVCRT:gs_cookie.obj
 0003:00000038       __security_cookie_complement 0000000140013038     MSVCRT:gs_cookie.obj
 0003:000000b8       ?so_entry_enabled_flag@base@UModSys@@3HA 00000001400130b8     umodsys_lib_base:umodsys.so_main.win32.obj
 0003:00000148       ?s_modreg_chain@RModuleReg@std@media@modules@UModSys@@2USModuleRegChain@base@5@A 0000000140013148     umodsys_lib_libmedia:umodsys.mod.media.std.obj
 0003:00000160       ?s_modreg_chain@RModuleReg@stdio@media@modules@UModSys@@2USModuleRegChain@base@5@A 0000000140013160     umodsys_lib_libmedia:umodsys.mod.media.stdio.obj
 0003:00000178       ?s_console@RConsole_std@rsystem@base@UModSys@@2U1234@A 0000000140013178     umodsys_lib_basesys:umodsys.basesys.rconsole_std.obj
 0003:00000190       ?s_sys@RSystem@rsystem@base@UModSys@@2U1234@A 0000000140013190     umodsys_lib_basesys:umodsys.basesys.rsystem_main.obj
 0003:00000340       ?rsys_dbg@rsystem@base@UModSys@@3USDebug@23@A 0000000140013340     umodsys_lib_basesys:umodsys.basesys.rsystem_main.obj
 0003:00000350       ?s_library@RModuleLibraryReg_Chain@base@UModSys@@2U123@A 0000000140013350     umodsys_lib_base:umodsys.base.moduleregchain.obj
 0003:00000358       ??_R0?AUIModuleReg@base@UModSys@@@8 0000000140013358     umodsys_lib_libmedia:umodsys.mod.media.std.obj
 0003:00000388       ??_R0?AURModuleReg@std@media@modules@UModSys@@@8 0000000140013388     umodsys_lib_libmedia:umodsys.mod.media.std.obj
 0003:000003d0       ??_R0?AURLibraryBinTree@std@media@modules@UModSys@@@8 00000001400133d0     umodsys_lib_libmedia:umodsys.mod.media.std.obj
 0003:00000410       ??_R0?AURLibraryBinCache@std@media@modules@UModSys@@@8 0000000140013410     umodsys_lib_libmedia:umodsys.mod.media.std.obj
 0003:00000458       ??_R0?AURGenerator@std@media@modules@UModSys@@@8 0000000140013458     umodsys_lib_libmedia:umodsys.mod.media.std.obj
 0003:00000498       ??_R0?AUILibraryBinCache@libmedia@UModSys@@@8 0000000140013498     umodsys_lib_libmedia:umodsys.mod.media.std.obj
 0003:000004d0       ??_R0?AUILibraryBinTree@libmedia@UModSys@@@8 00000001400134d0     umodsys_lib_libmedia:umodsys.mod.media.std.obj
 0003:00000508       ??_R0?AUIResolver@SFlags@libmedia@UModSys@@@8 0000000140013508     umodsys_lib_libmedia:umodsys.mod.media.std.obj
 0003:00000540       ??_R0?AUILibrary@libmedia@UModSys@@@8 0000000140013540     umodsys_lib_libmedia:umodsys.mod.media.std.obj
 0003:00000570       ??_R0?AUIGenerator@base@UModSys@@@8 0000000140013570     umodsys_lib_libmedia:umodsys.mod.media.std.obj
 0003:000005a0       ??_R0?AUIModObject@base@UModSys@@@8 00000001400135a0     umodsys_lib_libmedia:umodsys.mod.media.std.obj
 0003:000005d0       ??_R0?AUIRefObject@core@UModSys@@@8 00000001400135d0     umodsys_lib_libmedia:umodsys.mod.media.std.obj
 0003:00000600       ??_R0?AUIRoot@core@UModSys@@@8 0000000140013600     umodsys_lib_libmedia:umodsys.mod.media.std.obj
 0003:00000630       ?s_null@?1??get_null@?$TSCoreShared@USIMemAlloc@core@UModSys@@D@su@tl@UModSys@@SAPEAU?$TSharedStringInfo@D@345@XZ@4U6345@A 0000000140013630     umodsys_lib_libmedia:umodsys.mod.media.std.obj
 0003:00000650       ??_R0?AURModuleReg@stdio@media@modules@UModSys@@@8 0000000140013650     umodsys_lib_libmedia:umodsys.mod.media.stdio.obj
 0003:00000690       ??_R0?AURDataArchiver_OsDir@stdio@media@modules@UModSys@@@8 0000000140013690     umodsys_lib_libmedia:umodsys.mod.media.stdio.obj
 0003:000006e0       ??_R0?AURStreamWriter_FILE@stdio@media@modules@UModSys@@@8 00000001400136e0     umodsys_lib_libmedia:umodsys.mod.media.stdio.obj
 0003:00000730       ??_R0?AURStreamReader_FILE@stdio@media@modules@UModSys@@@8 0000000140013730     umodsys_lib_libmedia:umodsys.mod.media.stdio.obj
 0003:00000778       ??_R0?AURGenerator@stdio@media@modules@UModSys@@@8 0000000140013778     umodsys_lib_libmedia:umodsys.mod.media.stdio.obj
 0003:000007b8       ??_R0?AUIBinArchive@libmedia@UModSys@@@8 00000001400137b8     umodsys_lib_libmedia:umodsys.mod.media.stdio.obj
 0003:000007f0       ??_R0?AUIStreamWriter@libmedia@UModSys@@@8 00000001400137f0     umodsys_lib_libmedia:umodsys.mod.media.stdio.obj
 0003:00000828       ??_R0?AUIStreamReader@libmedia@UModSys@@@8 0000000140013828     umodsys_lib_libmedia:umodsys.mod.media.stdio.obj
 0003:00000860       ??_R0?AURConsole_std@rsystem@base@UModSys@@@8 0000000140013860     umodsys_lib_basesys:umodsys.basesys.rconsole_std.obj
 0003:00000898       ??_R0?AUIConsole@base@UModSys@@@8 0000000140013898     umodsys_lib_basesys:umodsys.basesys.rconsole_std.obj
 0003:000008c8       ??_R0?AURSystem@rsystem@base@UModSys@@@8 00000001400138c8     umodsys_lib_basesys:umodsys.basesys.rsystem_main.obj
 0003:00000900       ??_R0?AUSMemAlloc_Malloc@core@UModSys@@@8 0000000140013900     umodsys_lib_basesys:umodsys.basesys.rsystem_main.obj
 0003:00000940       ??_R0?AU?$TRMemAlloc_CC@U?$TMemAllocHeader@USMagic@mem_headers@rsystem@base@UModSys@@U?$TPool@X@2345@USDebug@2345@UVoid@core@5@U895@@rsystem@base@UModSys@@USMemAlloc_Malloc@core@4@@rsystem@base@UModSys@@@8 0000000140013940     umodsys_lib_basesys:umodsys.basesys.rsystem_main.obj
 0003:00000a18       ??_R0?AUIUniquePointerResolver@core@UModSys@@@8 0000000140013a18     umodsys_lib_basesys:umodsys.basesys.rsystem_main.obj
 0003:00000a58       ??_R0?AUISourceContextAdapter@core@UModSys@@@8 0000000140013a58     umodsys_lib_basesys:umodsys.basesys.rsystem_main.obj
 0003:00000a98       ??_R0?AUISystem@base@UModSys@@@8 0000000140013a98     umodsys_lib_basesys:umodsys.basesys.rsystem_main.obj
 0003:00000ac8       ??_R0?AUIMemAlloc@core@UModSys@@@8 0000000140013ac8     umodsys_lib_basesys:umodsys.basesys.rsystem_main.obj
 0003:00000af8       ??_R0?AUEFatal@core@UModSys@@@8 0000000140013af8     umodsys_lib_basesys:umodsys.basesys.rsystem_main.obj
 0003:00000b28       ??_R0?AUEExceptionBase@core@UModSys@@@8 0000000140013b28     umodsys_lib_basesys:umodsys.basesys.rsystem_main.obj
 0003:00000b60       ??_R0?AUEWarning@core@UModSys@@@8 0000000140013b60     umodsys_lib_basesys:umodsys.basesys.rsystem_main.obj
 0003:00000b90       ??_R0?AURModuleLoader@rsystem@base@UModSys@@@8 0000000140013b90     umodsys_lib_basesys:umodsys.basesys.rmoduleloader.obj
 0003:00000bd0       ??_R0?AUIModuleLoader@base@UModSys@@@8 0000000140013bd0     umodsys_lib_basesys:umodsys.basesys.rmoduleloader.obj
 0003:00000c08       ??_R0?AUIModuleLibrary@base@UModSys@@@8 0000000140013c08     umodsys_lib_basesys:umodsys.basesys.rmodulelibthis.obj
 0003:00000c40       ??_R0?AUIModuleLibraryUni@rsystem@base@UModSys@@@8 0000000140013c40     umodsys_lib_basesys:umodsys.basesys.rmodulelibthis.obj
 0003:00000c80       ??_R0?AURModuleLibraryThis@rsystem@base@UModSys@@@8 0000000140013c80     umodsys_lib_basesys:umodsys.basesys.rmodulelibthis.obj
 0003:00000cc0       ?s_null@?1??get_null@?$TSCoreShared@USMemAlloc_Malloc@core@UModSys@@D@su@tl@UModSys@@SAPEAU?$TSharedStringInfo@D@345@XZ@4U6345@A 0000000140013cc0     umodsys_lib_basesys:umodsys.basesys.rmodulelib.obj
 0003:00000ce0       ??_R0?AURParameters@rsystem@base@UModSys@@@8 0000000140013ce0     umodsys_lib_basesys:umodsys.basesys.rparameters.obj
 0003:00000d18       ??_R0?AUIParameters@core@UModSys@@@8 0000000140013d18     umodsys_lib_basesys:umodsys.basesys.rparameters.obj
 0003:00000d48       ??_R0?AURModule@rsystem@base@UModSys@@@8 0000000140013d48     umodsys_lib_basesys:umodsys.basesys.rmodule.obj
 0003:00000d80       ??_R0?AUIModule@base@UModSys@@@8 0000000140013d80     umodsys_lib_basesys:umodsys.basesys.rmodule.obj
 0003:00000db0       ??_R0?AURModuleLibrarySO@rsystem@base@UModSys@@@8 0000000140013db0     umodsys_lib_basesys:umodsys.basesys.rmodulelibso.obj
 0003:00000df0       ??_R0?AUIModuleLibraryReg@base@UModSys@@@8 0000000140013df0     umodsys_lib_base:umodsys.base.moduleregchain.obj
 0003:00000e28       ??_R0?AURModuleLibraryReg_Chain@base@UModSys@@@8 0000000140013e28     umodsys_lib_base:umodsys.base.moduleregchain.obj
 0003:00000e70       _fltused                   0000000140013e70     MSVCRT:dllsupp.obj
 0003:00000ea8       _forceCRTManifestRTM       0000000140013ea8     MSVCRT:crtmanifestrtm.obj
 0003:00000eac       _dowildcard                0000000140013eac     MSVCRT:wildcard.obj
 0003:00000eb0       _newmode                   0000000140013eb0     MSVCRT:_newmode.obj
 0003:00000eb4       _commode                   0000000140013eb4     MSVCRT:xncommod.obj
 0003:00000eb8       _fmode                     0000000140013eb8     MSVCRT:xtxtmode.obj
 0003:00000ec0       ?fmodule@std@media@modules@UModSys@@3DA 0000000140013ec0     umodsys_lib_libmedia:umodsys.mod.media.std.obj
 0003:00000ec1       ?fmodule@stdio@media@modules@UModSys@@3DA 0000000140013ec1     umodsys_lib_libmedia:umodsys.mod.media.stdio.obj
 0003:00000ec8       ?s_uid@RGenerator@std@media@modules@UModSys@@2USUniquePointer@core@5@A 0000000140013ec8     umodsys_lib_libmedia:umodsys.mod.media.std.obj
 0003:00000f00       ?s_modreg@RModuleReg@std@media@modules@UModSys@@2U12345@A 0000000140013f00     umodsys_lib_libmedia:umodsys.mod.media.std.obj
 0003:00000f50       ?s_modreg@RModuleReg@stdio@media@modules@UModSys@@2U12345@A 0000000140013f50     umodsys_lib_libmedia:umodsys.mod.media.stdio.obj
 0003:00000fa0       ?s_uid@RGenerator@stdio@media@modules@UModSys@@2USUniquePointer@core@5@A 0000000140013fa0     umodsys_lib_libmedia:umodsys.mod.media.stdio.obj
 0003:00002fd8       ?M@UModSys@@3USModuleContext@base@1@A 0000000140015fd8     umodsys_lib_base:umodsys.base.modulecontext.obj
 0003:00003000       ?root@SModuleRegChain@base@UModSys@@2U123@A 0000000140016000     umodsys_lib_base:umodsys.base.moduleregchain.obj
 0003:00003018       ?root@SUniquePointer@core@UModSys@@2U123@A 0000000140016018     umodsys_lib_core:umodsys.core.uniqueptr.obj
 0003:00003048       ?rv@?1??get_default@SMemAlloc_Malloc@core@UModSys@@SAAEBU234@XZ@4U234@A 0000000140016048     umodsys_lib_basesys:umodsys.basesys.rsystem_main.obj
 0003:000030c8       ?s_id@?$TObjectUniqueID@UIModObject@base@UModSys@@@tl@UModSys@@2USUniquePointer@core@3@A 00000001400160c8     umodsys.c_main.obj
 0003:000030f8       ?s_null@?$TStaticStringPool@DU?$TComparerBinaryHash@D@su@tl@UModSys@@USMemAlloc_Malloc@core@4@@tl@UModSys@@2U?$TString@U?$TSCoreConst@D@su@tl@UModSys@@U?$TComparerBinaryHash@D@234@@23@A 00000001400160f8     umodsys.c_main.obj
 0003:00003110       ?s_id@?$TObjectUniqueID@UIGenerator@base@UModSys@@@tl@UModSys@@2USUniquePointer@core@3@A 0000000140016110     umodsys.c_main.obj
 0003:00003140       ?s_id@?$TObjectUniqueID@UIModule@base@UModSys@@@tl@UModSys@@2USUniquePointer@core@3@A 0000000140016140     umodsys.c_main.obj
 0003:00003170       ?s_id@?$TObjectUniqueID@UIRoot@core@UModSys@@@tl@UModSys@@2USUniquePointer@core@3@A 0000000140016170     umodsys.c_main.obj
 0003:000031a0       ?s_id@?$TObjectUniqueID@URConsole_std@rsystem@base@UModSys@@@tl@UModSys@@2USUniquePointer@core@3@A 00000001400161a0     umodsys.c_main.obj
 0003:000031d0       ?s_id@?$TObjectUniqueID@UIModuleLibraryUni@rsystem@base@UModSys@@@tl@UModSys@@2USUniquePointer@core@3@A 00000001400161d0     umodsys.c_main.obj
 0003:00003200       ?s_id@?$TObjectUniqueID@UISystem@base@UModSys@@@tl@UModSys@@2USUniquePointer@core@3@A 0000000140016200     umodsys.c_main.obj
 0003:00003230       ?s_id@?$TObjectUniqueID@UIRefObject@core@UModSys@@@tl@UModSys@@2USUniquePointer@core@3@A 0000000140016230     umodsys.c_main.obj
 0003:00003260       ?s_id@?$TObjectUniqueID@URModule@rsystem@base@UModSys@@@tl@UModSys@@2USUniquePointer@core@3@A 0000000140016260     umodsys.c_main.obj
 0003:00003290       ?s_id@?$TObjectUniqueID@UIShell@base@UModSys@@@tl@UModSys@@2USUniquePointer@core@3@A 0000000140016290     umodsys.c_main.obj
 0003:000032c0       ?s_id@?$TObjectUniqueID@UIConsole@base@UModSys@@@tl@UModSys@@2USUniquePointer@core@3@A 00000001400162c0     umodsys.c_main.obj
 0003:000032f0       ?s_id@?$TObjectUniqueID@UIModuleLibrary@base@UModSys@@@tl@UModSys@@2USUniquePointer@core@3@A 00000001400162f0     umodsys.c_main.obj
 0003:00003320       ?s_id@?$TObjectUniqueID@URModuleLibraryThis@rsystem@base@UModSys@@@tl@UModSys@@2USUniquePointer@core@3@A 0000000140016320     umodsys.c_main.obj
 0003:00003350       ?s_id@?$TObjectUniqueID@URModuleLibrarySO@rsystem@base@UModSys@@@tl@UModSys@@2USUniquePointer@core@3@A 0000000140016350     umodsys.c_main.obj
 0003:00003380       ?s_id@?$TObjectUniqueID@UIParameters@core@UModSys@@@tl@UModSys@@2USUniquePointer@core@3@A 0000000140016380     umodsys.c_main.obj
 0003:000033b0       ?s_id@?$TObjectUniqueID@URSystem@rsystem@base@UModSys@@@tl@UModSys@@2USUniquePointer@core@3@A 00000001400163b0     umodsys.c_main.obj
 0003:000033e0       ?s_id@?$TObjectUniqueID@URParameters@rsystem@base@UModSys@@@tl@UModSys@@2USUniquePointer@core@3@A 00000001400163e0     umodsys.c_main.obj
 0003:00003410       ?s_id@?$TObjectUniqueID@UIBinObjFilter@libmedia@UModSys@@@tl@UModSys@@2USUniquePointer@core@3@A 0000000140016410     umodsys_lib_libmedia:umodsys.mod.media.std.obj
 0003:00003440       ?s_id@?$TObjectUniqueID@UILibraryBinTree@libmedia@UModSys@@@tl@UModSys@@2USUniquePointer@core@3@A 0000000140016440     umodsys_lib_libmedia:umodsys.mod.media.std.obj
 0003:00003470       ?s_id@?$TObjectUniqueID@UIBinArchive@libmedia@UModSys@@@tl@UModSys@@2USUniquePointer@core@3@A 0000000140016470     umodsys_lib_libmedia:umodsys.mod.media.std.obj
 0003:000034a0       ?s_id@?$TObjectUniqueID@UIStreamWriter@libmedia@UModSys@@@tl@UModSys@@2USUniquePointer@core@3@A 00000001400164a0     umodsys_lib_libmedia:umodsys.mod.media.std.obj
 0003:000034d0       ?s_id@?$TObjectUniqueID@URLibraryBinTree@std@media@modules@UModSys@@@tl@UModSys@@2USUniquePointer@core@3@A 00000001400164d0     umodsys_lib_libmedia:umodsys.mod.media.std.obj
 0003:00003500       ?s_id@?$TObjectUniqueID@UILibraryLayered@libmedia@UModSys@@@tl@UModSys@@2USUniquePointer@core@3@A 0000000140016500     umodsys_lib_libmedia:umodsys.mod.media.std.obj
 0003:00003530       ?s_id@?$TObjectUniqueID@UILibraryBinCache@libmedia@UModSys@@@tl@UModSys@@2USUniquePointer@core@3@A 0000000140016530     umodsys_lib_libmedia:umodsys.mod.media.std.obj
 0003:00003560       ?s_id@?$TObjectUniqueID@URLibraryBinCache@std@media@modules@UModSys@@@tl@UModSys@@2USUniquePointer@core@3@A 0000000140016560     umodsys_lib_libmedia:umodsys.mod.media.std.obj
 0003:00003590       ?s_id@?$TObjectUniqueID@UILibraryObjFilter@libmedia@UModSys@@@tl@UModSys@@2USUniquePointer@core@3@A 0000000140016590     umodsys_lib_libmedia:umodsys.mod.media.std.obj
 0003:000035c0       ?s_id@?$TObjectUniqueID@UILibrary@libmedia@UModSys@@@tl@UModSys@@2USUniquePointer@core@3@A 00000001400165c0     umodsys_lib_libmedia:umodsys.mod.media.std.obj
 0003:000035f0       ?s_id@?$TObjectUniqueID@UIStreamReader@libmedia@UModSys@@@tl@UModSys@@2USUniquePointer@core@3@A 00000001400165f0     umodsys_lib_libmedia:umodsys.mod.media.std.obj
 0003:00003620       ?s_id@?$TObjectUniqueID@URGenerator@std@media@modules@UModSys@@@tl@UModSys@@2USUniquePointer@core@3@A 0000000140016620     umodsys_lib_libmedia:umodsys.mod.media.std.obj
 0003:00003650       ?s_id@?$TObjectUniqueID@URStreamReader_FILE@stdio@media@modules@UModSys@@@tl@UModSys@@2USUniquePointer@core@3@A 0000000140016650     umodsys_lib_libmedia:umodsys.mod.media.stdio.obj
 0003:00003680       ?s_id@?$TObjectUniqueID@URStreamWriter_FILE@stdio@media@modules@UModSys@@@tl@UModSys@@2USUniquePointer@core@3@A 0000000140016680     umodsys_lib_libmedia:umodsys.mod.media.stdio.obj
 0003:000036b0       ?s_id@?$TObjectUniqueID@URDataArchiver_OsDir@stdio@media@modules@UModSys@@@tl@UModSys@@2USUniquePointer@core@3@A 00000001400166b0     umodsys_lib_libmedia:umodsys.mod.media.stdio.obj
 0003:000036e0       ?s_id@?$TObjectUniqueID@URGenerator@stdio@media@modules@UModSys@@@tl@UModSys@@2USUniquePointer@core@3@A 00000001400166e0     umodsys_lib_libmedia:umodsys.mod.media.stdio.obj
 0003:00003710       __native_startup_state     0000000140016710     <common>
 0003:00003718       __native_startup_lock      0000000140016718     <common>
 0003:00003720       __dyn_tls_init_callback    0000000140016720     <common>
 0003:00003728       __onexitend                0000000140016728     <common>
 0003:00003730       __onexitbegin              0000000140016730     <common>

 entry point at        0001:0000a574

 Static symbols

 0001:00007dcc       ?s_pwd_init@@YAXXZ         0000000140008dcc f    CIL library: CIL module
 0001:00007fec       ?s_pfd_scan@@YA_KPEAUISystem@base@UModSys@@AEAU?$TDynarrayDynamic@U?$TRefObject@URModuleLibrarySO@rsystem@base@UModSys@@U?$TRefObjectFunc@URModuleLibrarySO@rsystem@base@UModSys@@@tl@4@@tl@UModSys@@U?$TAllocator@USMemAlloc_Malloc@core@UModSys@@USCountCalcPower2@23@@23@@tl@3@PEBD22@Z 0000000140008fec f    CIL library: CIL module
 0001:0000a2a4       pre_cpp_init               000000014000b2a4 f   MSVCRT:crtexe.obj
 0001:0000a30c       __tmainCRTStartup          000000014000b30c f   MSVCRT:crtexe.obj
 0001:0000a48c       pre_c_init                 000000014000b48c f   MSVCRT:crtexe.obj
 0001:0000a9b0       _onexit$fin$0              000000014000b9b0 f   MSVCRT:atonexit.obj
 0001:0000a9c9       __tmainCRTStartup$filt$0   000000014000b9c9 f   MSVCRT:crtexe.obj
 0001:0000a9f0       _IsNonwritableInCurrentImage$filt$0 000000014000b9f0 f   MSVCRT:pesect.obj
 0001:0000aa11       ?filt$0@?0??__ArrayUnwind@@YAXPEAX_KHP6AX0@Z@Z@4HA 000000014000ba11 f   MSVCRT:ehvecdtr.obj
 0001:0000aa50       ?fin$0@?0???_M@YAXPEAX_KHP6AX0@Z@Z@4HA 000000014000ba50 f   MSVCRT:ehvecdtr.obj
 0001:0000aa7a       ?dtor$0@?0???1?$TQuantArrayUnique@USUniquePointerInfo@core@UModSys@@$0BAA@USMemAlloc_Malloc@23@@tl@UModSys@@QEAA@XZ@4HA 000000014000ba7a f    CIL library: CIL module
 0001:0000aa92       ?dtor$0@?0??suicide@RDataArchiver_OsDir@stdio@media@modules@UModSys@@UEAAXXZ@4HA 000000014000ba92 f    CIL library: CIL module
 0001:0000aa92       ?dtor$0@?0??suicide@RStreamWriter_FILE@stdio@media@modules@UModSys@@UEAAXXZ@4HA 000000014000ba92 f    CIL library: CIL module
 0001:0000aa92       ?dtor$0@?0??suicide@RStreamReader_FILE@stdio@media@modules@UModSys@@UEAAXXZ@4HA 000000014000ba92 f    CIL library: CIL module
 0001:0000aa92       ?dtor$0@?0??suicide@RLibraryBinTree@std@media@modules@UModSys@@UEAAXXZ@4HA 000000014000ba92 f    CIL library: CIL module
 0001:0000aa92       ?dtor$0@?0??suicide@RLibraryBinCache@std@media@modules@UModSys@@UEAAXXZ@4HA 000000014000ba92 f    CIL library: CIL module
 0001:0000aaaa       ?dtor$0@?0???_GRModuleLibraryThis@rsystem@base@UModSys@@UEAAPEAXI@Z@4HA 000000014000baaa f    CIL library: CIL module
 0001:0000aaaa       ?dtor$0@?0???_GRModuleLibrarySO@rsystem@base@UModSys@@UEAAPEAXI@Z@4HA 000000014000baaa f    CIL library: CIL module
 0001:0000aac2       ?dtor$0@?0???1RModuleLoader@rsystem@base@UModSys@@UEAA@XZ@4HA 000000014000bac2 f    CIL library: CIL module
 0001:0000aae2       ?dtor$1@?0???1RModuleLoader@rsystem@base@UModSys@@UEAA@XZ@4HA 000000014000bae2 f    CIL library: CIL module
 0001:0000ab02       ?dtor$2@?0???1RModuleLoader@rsystem@base@UModSys@@UEAA@XZ@4HA 000000014000bb02 f    CIL library: CIL module
 0001:0000ab1e       ?dtor$0@?0???1RSystem@rsystem@base@UModSys@@UEAA@XZ@4HA 000000014000bb1e f    CIL library: CIL module
 0001:0000ab3e       ?dtor$1@?0???1RSystem@rsystem@base@UModSys@@UEAA@XZ@4HA 000000014000bb3e f    CIL library: CIL module
 0001:0000ab5e       ?dtor$2@?0???1RSystem@rsystem@base@UModSys@@UEAA@XZ@4HA 000000014000bb5e f    CIL library: CIL module
 0001:0000ab7e       ?dtor$3@?0???1RSystem@rsystem@base@UModSys@@UEAA@XZ@4HA 000000014000bb7e f    CIL library: CIL module
 0001:0000ab9e       ?dtor$4@?0???1RSystem@rsystem@base@UModSys@@UEAA@XZ@4HA 000000014000bb9e f    CIL library: CIL module
 0001:0000abbe       ?dtor$5@?0???1RSystem@rsystem@base@UModSys@@UEAA@XZ@4HA 000000014000bbbe f    CIL library: CIL module
 0001:0000abde       ?dtor$9@?0???1RSystem@rsystem@base@UModSys@@UEAA@XZ@4HA 000000014000bbde f    CIL library: CIL module
 0001:0000abfe       ?dtor$10@?0???1RSystem@rsystem@base@UModSys@@UEAA@XZ@4HA 000000014000bbfe f    CIL library: CIL module
 0001:0000ac16       ?dtor$0@?0??data_save@RDataArchiver_OsDir@stdio@media@modules@UModSys@@UEAA_NAEBU?$TString@U?$TSCoreConst@D@su@tl@UModSys@@U?$TComparerBinaryHash@D@234@@tl@5@AEBUSCMem@core@5@AEBUSFlags@libmedia@5@@Z@4HA 000000014000bc16 f    CIL library: CIL module
 0001:0000ac16       ?dtor$0@?0??suicide@RModule@rsystem@base@UModSys@@UEAAXXZ@4HA 000000014000bc16 f    CIL library: CIL module
 0001:0000ac2e       ?dtor$1@?0???1?$TScatterArrayNode@USCacheElem@RLibraryBinCache@std@media@modules@UModSys@@U?$TString@U?$TSCoreConst@D@su@tl@UModSys@@U?$TComparerBinaryHash@D@234@@tl@6@@tl@UModSys@@QEAA@XZ@4HA 000000014000bc2e f    CIL library: CIL module
 0001:0000ac46       ?dtor$1@?0???R?$TNodeDeleter0@U?$TScatterArrayNode@USMountInfo@RLibraryBinTree@std@media@modules@UModSys@@USMountIndex@23456@@tl@UModSys@@@tl@UModSys@@QEBAHPEAU?$TScatterArrayNode@USMountInfo@RLibraryBinTree@std@media@modules@UModSys@@USMountIndex@23456@@12@@Z@4HA 000000014000bc46 f    CIL library: CIL module
 0001:0000ac5e       ?dtor$0@?0??bin_writer@RLibraryBinTree@std@media@modules@UModSys@@UEAA?AU?$TRefObject@UIStreamWriter@libmedia@UModSys@@U?$TRefObjectFunc@UIStreamWriter@libmedia@UModSys@@@tl@3@@tl@5@AEBU?$TString@U?$TSCoreConst@D@su@tl@UModSys@@U?$TComparerBinaryHash@D@234@@75@AEBUSFlags@libmedia@5@@Z@4HA 000000014000bc5e f    CIL library: CIL module
 0001:0000ac5e       ?dtor$0@?0??bin_reader@RLibraryBinTree@std@media@modules@UModSys@@UEAA?AU?$TRefObject@UIStreamReader@libmedia@UModSys@@U?$TRefObjectFunc@UIStreamReader@libmedia@UModSys@@@tl@3@@tl@5@AEBU?$TString@U?$TSCoreConst@D@su@tl@UModSys@@U?$TComparerBinaryHash@D@234@@75@AEBUSFlags@libmedia@5@@Z@4HA 000000014000bc5e f    CIL library: CIL module
 0001:0000ac76       ?dtor$0@?0???$t_gen_param@URStreamWriter_FILE@stdio@media@modules@UModSys@@URGenerator@2345@@IGenerator@base@UModSys@@IEAA_NPEAURGenerator@stdio@media@modules@2@AEAU?$TRefObject@UIRefObject@core@UModSys@@U?$TRefObjectFunc@UIRefObject@core@UModSys@@@tl@3@@tl@2@PEBUSUniquePointerInfo@core@2@AEBUSParameters@core@2@@Z@4HA 000000014000bc76 f    CIL library: CIL module
 0001:0000ac96       ?dtor$1@?0???$t_gen_param@URStreamWriter_FILE@stdio@media@modules@UModSys@@URGenerator@2345@@IGenerator@base@UModSys@@IEAA_NPEAURGenerator@stdio@media@modules@2@AEAU?$TRefObject@UIRefObject@core@UModSys@@U?$TRefObjectFunc@UIRefObject@core@UModSys@@@tl@3@@tl@2@PEBUSUniquePointerInfo@core@2@AEBUSParameters@core@2@@Z@4HA 000000014000bc96 f    CIL library: CIL module
 0001:0000acb6       ?dtor$2@?0???$t_gen_param@URStreamWriter_FILE@stdio@media@modules@UModSys@@URGenerator@2345@@IGenerator@base@UModSys@@IEAA_NPEAURGenerator@stdio@media@modules@2@AEAU?$TRefObject@UIRefObject@core@UModSys@@U?$TRefObjectFunc@UIRefObject@core@UModSys@@@tl@3@@tl@2@PEBUSUniquePointerInfo@core@2@AEBUSParameters@core@2@@Z@4HA 000000014000bcb6 f    CIL library: CIL module
 0001:0000acce       ?dtor$0@?0??data_writer@RDataArchiver_OsDir@stdio@media@modules@UModSys@@UEAA?AU?$TRefObject@UIStreamWriter@libmedia@UModSys@@U?$TRefObjectFunc@UIStreamWriter@libmedia@UModSys@@@tl@3@@tl@5@AEBU?$TString@U?$TSCoreConst@D@su@tl@UModSys@@U?$TComparerBinaryHash@D@234@@75@AEBUSFlags@libmedia@5@@Z@4HA 000000014000bcce f    CIL library: CIL module
 0001:0000acce       ?dtor$0@?0??data_reader@RDataArchiver_OsDir@stdio@media@modules@UModSys@@UEAA?AU?$TRefObject@UIStreamReader@libmedia@UModSys@@U?$TRefObjectFunc@UIStreamReader@libmedia@UModSys@@@tl@3@@tl@5@AEBU?$TString@U?$TSCoreConst@D@su@tl@UModSys@@U?$TComparerBinaryHash@D@234@@75@AEBUSFlags@libmedia@5@@Z@4HA 000000014000bcce f    CIL library: CIL module
 0001:0000acfe       ?dtor$1@?0??data_writer@RDataArchiver_OsDir@stdio@media@modules@UModSys@@UEAA?AU?$TRefObject@UIStreamWriter@libmedia@UModSys@@U?$TRefObjectFunc@UIStreamWriter@libmedia@UModSys@@@tl@3@@tl@5@AEBU?$TString@U?$TSCoreConst@D@su@tl@UModSys@@U?$TComparerBinaryHash@D@234@@75@AEBUSFlags@libmedia@5@@Z@4HA 000000014000bcfe f    CIL library: CIL module
 0001:0000acfe       ?dtor$1@?0??data_reader@RDataArchiver_OsDir@stdio@media@modules@UModSys@@UEAA?AU?$TRefObject@UIStreamReader@libmedia@UModSys@@U?$TRefObjectFunc@UIStreamReader@libmedia@UModSys@@@tl@3@@tl@5@AEBU?$TString@U?$TSCoreConst@D@su@tl@UModSys@@U?$TComparerBinaryHash@D@234@@75@AEBUSFlags@libmedia@5@@Z@4HA 000000014000bcfe f    CIL library: CIL module
 0001:0000ad1e       ?dtor$2@?0??data_reader@RDataArchiver_OsDir@stdio@media@modules@UModSys@@UEAA?AU?$TRefObject@UIStreamReader@libmedia@UModSys@@U?$TRefObjectFunc@UIStreamReader@libmedia@UModSys@@@tl@3@@tl@5@AEBU?$TString@U?$TSCoreConst@D@su@tl@UModSys@@U?$TComparerBinaryHash@D@234@@75@AEBUSFlags@libmedia@5@@Z@4HA 000000014000bd1e f    CIL library: CIL module
 0001:0000ad1e       ?dtor$2@?0??data_writer@RDataArchiver_OsDir@stdio@media@modules@UModSys@@UEAA?AU?$TRefObject@UIStreamWriter@libmedia@UModSys@@U?$TRefObjectFunc@UIStreamWriter@libmedia@UModSys@@@tl@3@@tl@5@AEBU?$TString@U?$TSCoreConst@D@su@tl@UModSys@@U?$TComparerBinaryHash@D@234@@75@AEBUSFlags@libmedia@5@@Z@4HA 000000014000bd1e f    CIL library: CIL module
 0001:0000ad3e       ?dtor$3@?0??data_reader@RDataArchiver_OsDir@stdio@media@modules@UModSys@@UEAA?AU?$TRefObject@UIStreamReader@libmedia@UModSys@@U?$TRefObjectFunc@UIStreamReader@libmedia@UModSys@@@tl@3@@tl@5@AEBU?$TString@U?$TSCoreConst@D@su@tl@UModSys@@U?$TComparerBinaryHash@D@234@@75@AEBUSFlags@libmedia@5@@Z@4HA 000000014000bd3e f    CIL library: CIL module
 0001:0000ad3e       ?dtor$3@?0??data_writer@RDataArchiver_OsDir@stdio@media@modules@UModSys@@UEAA?AU?$TRefObject@UIStreamWriter@libmedia@UModSys@@U?$TRefObjectFunc@UIStreamWriter@libmedia@UModSys@@@tl@3@@tl@5@AEBU?$TString@U?$TSCoreConst@D@su@tl@UModSys@@U?$TComparerBinaryHash@D@234@@75@AEBUSFlags@libmedia@5@@Z@4HA 000000014000bd3e f    CIL library: CIL module
 0001:0000ad5e       ?dtor$4@?0??data_writer@RDataArchiver_OsDir@stdio@media@modules@UModSys@@UEAA?AU?$TRefObject@UIStreamWriter@libmedia@UModSys@@U?$TRefObjectFunc@UIStreamWriter@libmedia@UModSys@@@tl@3@@tl@5@AEBU?$TString@U?$TSCoreConst@D@su@tl@UModSys@@U?$TComparerBinaryHash@D@234@@75@AEBUSFlags@libmedia@5@@Z@4HA 000000014000bd5e f    CIL library: CIL module
 0001:0000ad5e       ?dtor$4@?0??data_reader@RDataArchiver_OsDir@stdio@media@modules@UModSys@@UEAA?AU?$TRefObject@UIStreamReader@libmedia@UModSys@@U?$TRefObjectFunc@UIStreamReader@libmedia@UModSys@@@tl@3@@tl@5@AEBU?$TString@U?$TSCoreConst@D@su@tl@UModSys@@U?$TComparerBinaryHash@D@234@@75@AEBUSFlags@libmedia@5@@Z@4HA 000000014000bd5e f    CIL library: CIL module
 0001:0000ad76       ?dtor$0@?0??data_load@RDataArchiver_OsDir@stdio@media@modules@UModSys@@UEAA_NAEBU?$TString@U?$TSCoreConst@D@su@tl@UModSys@@U?$TComparerBinaryHash@D@234@@tl@5@AEAUSCMemShared@core@5@AEBUSFlags@libmedia@5@@Z@4HA 000000014000bd76 f    CIL library: CIL module
 0001:0000ad96       ?dtor$1@?0??data_load@RDataArchiver_OsDir@stdio@media@modules@UModSys@@UEAA_NAEBU?$TString@U?$TSCoreConst@D@su@tl@UModSys@@U?$TComparerBinaryHash@D@234@@tl@5@AEAUSCMemShared@core@5@AEBUSFlags@libmedia@5@@Z@4HA 000000014000bd96 f    CIL library: CIL module
 0001:0000adae       ?dtor$0@?0???0RDataArchiver_OsDir@stdio@media@modules@UModSys@@QEAA@PEAUIModObject@base@4@AEBUSParameters@core@4@U?$TFlags4State@USMediaFlagUid@libmedia@UModSys@@I@tl@4@@Z@4HA 000000014000bdae f    CIL library: CIL module
 0001:0000adce       ?dtor$1@?0???0RDataArchiver_OsDir@stdio@media@modules@UModSys@@QEAA@PEAUIModObject@base@4@AEBUSParameters@core@4@U?$TFlags4State@USMediaFlagUid@libmedia@UModSys@@I@tl@4@@Z@4HA 000000014000bdce f    CIL library: CIL module
 0001:0000aded       ?dtor$0@?0???_GRDataArchiver_OsDir@stdio@media@modules@UModSys@@UEAAPEAXI@Z@4HA 000000014000bded f    CIL library: CIL module
 0001:0000aded       ?dtor$0@?0???_GRStreamWriter_FILE@stdio@media@modules@UModSys@@UEAAPEAXI@Z@4HA 000000014000bded f    CIL library: CIL module
 0001:0000ae05       ?dtor$0@?0???RCmp@?$TScatterArray@USCacheElem@RLibraryBinCache@std@media@modules@UModSys@@U?$TString@U?$TSCoreConst@D@su@tl@UModSys@@U?$TComparerBinaryHash@D@234@@tl@6@U?$TObjectCompare@U?$TScatterArrayNode@USCacheElem@RLibraryBinCache@std@media@modules@UModSys@@U?$TString@U?$TSCoreConst@D@su@tl@UModSys@@U?$TComparerBinaryHash@D@234@@tl@6@@tl@UModSys@@@core@6@U?$TNodeDeleter0@U?$TScatterArrayNode@USCacheElem@RLibraryBinCache@std@media@modules@UModSys@@U?$TString@U?$TSCoreConst@D@su@tl@UModSys@@U?$TComparerBinaryHash@D@234@@tl@6@@tl@UModSys@@@86@@tl@UModSys@@QEBAHPEBU?$TScatterArrayNode@USCacheElem@RLibraryBinCache@std@media@modules@UModSys@@U?$TString@U?$TSCoreConst@D@su@tl@UModSys@@U?$TComparerBinaryHash@D@234@@tl@6@@23@@Z@4HA 000000014000be05 f    CIL library: CIL module
 0001:0000ae1d       ?dtor$0@?0???R?$TScatterArray@USMountInfo@RLibraryBinTree@std@media@modules@UModSys@@USMountIndex@23456@U723456@U?$TNodeDeleter0@U?$TScatterArrayNode@USMountInfo@RLibraryBinTree@std@media@modules@UModSys@@USMountIndex@23456@@tl@UModSys@@@tl@6@@tl@UModSys@@QEAAPEAUSMountInfo@RLibraryBinTree@std@media@modules@2@AEBUSMountIndex@45672@PEAUVoid@core@2@@Z@4HA 000000014000be1d f    CIL library: CIL module
 0001:0000ae39       ?dtor$1@?0??mount_add@RLibraryBinTree@std@media@modules@UModSys@@UEAA_NAEBUSMountPoint@ILibraryBinTree@libmedia@5@AEBU?$TString@U?$TSCoreConst@D@su@tl@UModSys@@U?$TComparerBinaryHash@D@234@@tl@5@H@Z@4HA 000000014000be39 f    CIL library: CIL module
 0001:0000ae59       ?dtor$0@?0??mount_add@RLibraryBinTree@std@media@modules@UModSys@@UEAA_NAEBUSMountPoint@ILibraryBinTree@libmedia@5@AEBU?$TString@U?$TSCoreConst@D@su@tl@UModSys@@U?$TComparerBinaryHash@D@234@@tl@5@H@Z@4HA 000000014000be59 f    CIL library: CIL module
 0001:0000ae71       ?dtor$1@?0??bincache_add@RLibraryBinCache@std@media@modules@UModSys@@UEAA_NAEBUSCMemShared@core@5@AEBU?$TString@U?$TSCoreConst@D@su@tl@UModSys@@U?$TComparerBinaryHash@D@234@@tl@5@@Z@4HA 000000014000be71 f    CIL library: CIL module
 0001:0000ae91       ?dtor$0@?0??bincache_add@RLibraryBinCache@std@media@modules@UModSys@@UEAA_NAEBUSCMemShared@core@5@AEBU?$TString@U?$TSCoreConst@D@su@tl@UModSys@@U?$TComparerBinaryHash@D@234@@tl@5@@Z@4HA 000000014000be91 f    CIL library: CIL module
 0001:0000aea9       ?dtor$0@?0??link@IModuleLibraryUni@rsystem@base@UModSys@@QEAA_NXZ@4HA 000000014000bea9 f    CIL library: CIL module
 0001:0000aec9       ?dtor$2@?0??link@IModuleLibraryUni@rsystem@base@UModSys@@QEAA_NXZ@4HA 000000014000bec9 f    CIL library: CIL module
 0001:0000aee9       ?dtor$3@?0??link@IModuleLibraryUni@rsystem@base@UModSys@@QEAA_NXZ@4HA 000000014000bee9 f    CIL library: CIL module
 0001:0000af09       ?dtor$4@?0??link@IModuleLibraryUni@rsystem@base@UModSys@@QEAA_NXZ@4HA 000000014000bf09 f    CIL library: CIL module
 0001:0000af29       ?dtor$5@?0??link@IModuleLibraryUni@rsystem@base@UModSys@@QEAA_NXZ@4HA 000000014000bf29 f    CIL library: CIL module
 0001:0000af48       ?dtor$0@?0??exec_test_shells@RSystem@rsystem@base@UModSys@@QEAA_NXZ@4HA 000000014000bf48 f    CIL library: CIL module
 0001:0000af68       ?dtor$1@?0??exec_test_shells@RSystem@rsystem@base@UModSys@@QEAA_NXZ@4HA 000000014000bf68 f    CIL library: CIL module
 0001:0000af88       ?dtor$3@?0??exec_test_shells@RSystem@rsystem@base@UModSys@@QEAA_NXZ@4HA 000000014000bf88 f    CIL library: CIL module
 0001:0000afa3       ?dtor$0@?0??generate@RGenerator@stdio@media@modules@UModSys@@UEAA_NAEAU?$TRefObject@UIRefObject@core@UModSys@@U?$TRefObjectFunc@UIRefObject@core@UModSys@@@tl@3@@tl@5@PEBUSUniquePointerInfo@core@5@AEBUSParameters@95@@Z@4HA 000000014000bfa3 f    CIL library: CIL module
 0001:0000afc3       ?dtor$1@?0??generate@RGenerator@stdio@media@modules@UModSys@@UEAA_NAEAU?$TRefObject@UIRefObject@core@UModSys@@U?$TRefObjectFunc@UIRefObject@core@UModSys@@@tl@3@@tl@5@PEBUSUniquePointerInfo@core@5@AEBUSParameters@95@@Z@4HA 000000014000bfc3 f    CIL library: CIL module
 0001:0000afe3       ?dtor$2@?0??generate@RGenerator@stdio@media@modules@UModSys@@UEAA_NAEAU?$TRefObject@UIRefObject@core@UModSys@@U?$TRefObjectFunc@UIRefObject@core@UModSys@@@tl@3@@tl@5@PEBUSUniquePointerInfo@core@5@AEBUSParameters@95@@Z@4HA 000000014000bfe3 f    CIL library: CIL module
 0001:0000b003       ?dtor$3@?0??generate@RGenerator@stdio@media@modules@UModSys@@UEAA_NAEAU?$TRefObject@UIRefObject@core@UModSys@@U?$TRefObjectFunc@UIRefObject@core@UModSys@@@tl@3@@tl@5@PEBUSUniquePointerInfo@core@5@AEBUSParameters@95@@Z@4HA 000000014000c003 f    CIL library: CIL module
 0001:0000b01e       ?dtor$0@?0???$t_gen_param@URLibraryBinTree@std@media@modules@UModSys@@URGenerator@2345@@IGenerator@base@UModSys@@IEAA_NPEAURGenerator@std@media@modules@2@AEAU?$TRefObject@UIRefObject@core@UModSys@@U?$TRefObjectFunc@UIRefObject@core@UModSys@@@tl@3@@tl@2@PEBUSUniquePointerInfo@core@2@AEBUSParameters@core@2@@Z@4HA 000000014000c01e f    CIL library: CIL module
 0001:0000b03e       ?dtor$1@?0???$t_gen_param@URLibraryBinTree@std@media@modules@UModSys@@URGenerator@2345@@IGenerator@base@UModSys@@IEAA_NPEAURGenerator@std@media@modules@2@AEAU?$TRefObject@UIRefObject@core@UModSys@@U?$TRefObjectFunc@UIRefObject@core@UModSys@@@tl@3@@tl@2@PEBUSUniquePointerInfo@core@2@AEBUSParameters@core@2@@Z@4HA 000000014000c03e f    CIL library: CIL module
 0001:0000b05e       ?dtor$3@?0???$t_gen_param@URLibraryBinTree@std@media@modules@UModSys@@URGenerator@2345@@IGenerator@base@UModSys@@IEAA_NPEAURGenerator@std@media@modules@2@AEAU?$TRefObject@UIRefObject@core@UModSys@@U?$TRefObjectFunc@UIRefObject@core@UModSys@@@tl@3@@tl@2@PEBUSUniquePointerInfo@core@2@AEBUSParameters@core@2@@Z@4HA 000000014000c05e f    CIL library: CIL module
 0001:0000b076       ?dtor$0@?0??generate@RGenerator@std@media@modules@UModSys@@UEAA_NAEAU?$TRefObject@UIRefObject@core@UModSys@@U?$TRefObjectFunc@UIRefObject@core@UModSys@@@tl@3@@tl@5@PEBUSUniquePointerInfo@core@5@AEBUSParameters@95@@Z@4HA 000000014000c076 f    CIL library: CIL module
 0001:0000b096       ?dtor$1@?0??generate@RGenerator@std@media@modules@UModSys@@UEAA_NAEAU?$TRefObject@UIRefObject@core@UModSys@@U?$TRefObjectFunc@UIRefObject@core@UModSys@@@tl@3@@tl@5@PEBUSUniquePointerInfo@core@5@AEBUSParameters@95@@Z@4HA 000000014000c096 f    CIL library: CIL module
 0001:0000b0b6       ?dtor$3@?0??generate@RGenerator@std@media@modules@UModSys@@UEAA_NAEAU?$TRefObject@UIRefObject@core@UModSys@@U?$TRefObjectFunc@UIRefObject@core@UModSys@@@tl@3@@tl@5@PEBUSUniquePointerInfo@core@5@AEBUSParameters@95@@Z@4HA 000000014000c0b6 f    CIL library: CIL module
 0001:0000b0ce       ?dtor$0@?0???_GRLibraryBinTree@std@media@modules@UModSys@@UEAAPEAXI@Z@4HA 000000014000c0ce f    CIL library: CIL module
 0001:0000b0ce       ?dtor$0@?0???0RStreamReader_FILE@stdio@media@modules@UModSys@@QEAA@PEAUIModObject@base@4@AEBUSParameters@core@4@@Z@4HA 000000014000c0ce f    CIL library: CIL module
 0001:0000b0ce       ?dtor$0@?0???_GRLibraryBinCache@std@media@modules@UModSys@@UEAAPEAXI@Z@4HA 000000014000c0ce f    CIL library: CIL module
 0001:0000b0e6       ?dtor$0@?0??mem_free@?$TRMemAlloc_CC@U?$TMemAllocHeader@USMagic@mem_headers@rsystem@base@UModSys@@U?$TPool@X@2345@USDebug@2345@UVoid@core@5@U895@@rsystem@base@UModSys@@USMemAlloc_Malloc@core@4@@rsystem@base@UModSys@@UEAAXPEAXPEBUSSourceContext@core@4@@Z@4HA 000000014000c0e6 f    CIL library: CIL module
 0001:0000b0fe       ?dtor$0@?0??mem_realloc@?$TRMemAlloc_CC@U?$TMemAllocHeader@USMagic@mem_headers@rsystem@base@UModSys@@U?$TPool@X@2345@USDebug@2345@UVoid@core@5@U895@@rsystem@base@UModSys@@USMemAlloc_Malloc@core@4@@rsystem@base@UModSys@@UEAAPEAXPEAX_KPEBUSSourceContext@core@4@@Z@4HA 000000014000c0fe f    CIL library: CIL module
 0001:0000b11e       ?dtor$1@?0??mem_realloc@?$TRMemAlloc_CC@U?$TMemAllocHeader@USMagic@mem_headers@rsystem@base@UModSys@@U?$TPool@X@2345@USDebug@2345@UVoid@core@5@U895@@rsystem@base@UModSys@@USMemAlloc_Malloc@core@4@@rsystem@base@UModSys@@UEAAPEAXPEAX_KPEBUSSourceContext@core@4@@Z@4HA 000000014000c11e f    CIL library: CIL module
 0001:0000b136       ?dtor$1@?0??s_add@RModuleLibrarySO@rsystem@base@UModSys@@SA_NPEAUISystem@34@AEAU?$TDynarrayDynamic@U?$TRefObject@URModuleLibrarySO@rsystem@base@UModSys@@U?$TRefObjectFunc@URModuleLibrarySO@rsystem@base@UModSys@@@tl@4@@tl@UModSys@@U?$TAllocator@USMemAlloc_Malloc@core@UModSys@@USCountCalcPower2@23@@23@@tl@4@PEBD@Z@4HA 000000014000c136 f    CIL library: CIL module
 0001:0000b154       ??__E?s_id@?$TObjectUniqueID@UIRoot@core@UModSys@@@tl@UModSys@@2USUniquePointer@core@3@A@@YAXXZ 000000014000c154 f    CIL library: CIL module
 0001:0000b188       ??__E?s_id@?$TObjectUniqueID@UIRefObject@core@UModSys@@@tl@UModSys@@2USUniquePointer@core@3@A@@YAXXZ 000000014000c188 f    CIL library: CIL module
 0001:0000b1bc       ??__E?s_id@?$TObjectUniqueID@UIParameters@core@UModSys@@@tl@UModSys@@2USUniquePointer@core@3@A@@YAXXZ 000000014000c1bc f    CIL library: CIL module
 0001:0000b1f0       ??__E?s_id@?$TObjectUniqueID@UIModule@base@UModSys@@@tl@UModSys@@2USUniquePointer@core@3@A@@YAXXZ 000000014000c1f0 f    CIL library: CIL module
 0001:0000b224       ??__E?s_id@?$TObjectUniqueID@UIModuleLibrary@base@UModSys@@@tl@UModSys@@2USUniquePointer@core@3@A@@YAXXZ 000000014000c224 f    CIL library: CIL module
 0001:0000b258       ??__E?s_id@?$TObjectUniqueID@UIModObject@base@UModSys@@@tl@UModSys@@2USUniquePointer@core@3@A@@YAXXZ 000000014000c258 f    CIL library: CIL module
 0001:0000b28c       ??__E?s_id@?$TObjectUniqueID@UIGenerator@base@UModSys@@@tl@UModSys@@2USUniquePointer@core@3@A@@YAXXZ 000000014000c28c f    CIL library: CIL module
 0001:0000b2c0       ??__E?s_id@?$TObjectUniqueID@UIShell@base@UModSys@@@tl@UModSys@@2USUniquePointer@core@3@A@@YAXXZ 000000014000c2c0 f    CIL library: CIL module
 0001:0000b2f4       ??__E?s_id@?$TObjectUniqueID@UIConsole@base@UModSys@@@tl@UModSys@@2USUniquePointer@core@3@A@@YAXXZ 000000014000c2f4 f    CIL library: CIL module
 0001:0000b328       ??__E?s_id@?$TObjectUniqueID@UISystem@base@UModSys@@@tl@UModSys@@2USUniquePointer@core@3@A@@YAXXZ 000000014000c328 f    CIL library: CIL module
 0001:0000b35c       ??__E?s_id@?$TObjectUniqueID@URModule@rsystem@base@UModSys@@@tl@UModSys@@2USUniquePointer@core@3@A@@YAXXZ 000000014000c35c f    CIL library: CIL module
 0001:0000b390       ??__E?s_id@?$TObjectUniqueID@UIModuleLibraryUni@rsystem@base@UModSys@@@tl@UModSys@@2USUniquePointer@core@3@A@@YAXXZ 000000014000c390 f    CIL library: CIL module
 0001:0000b3c4       ??__E?s_id@?$TObjectUniqueID@URModuleLibrarySO@rsystem@base@UModSys@@@tl@UModSys@@2USUniquePointer@core@3@A@@YAXXZ 000000014000c3c4 f    CIL library: CIL module
 0001:0000b3f8       ??__E?s_id@?$TObjectUniqueID@URModuleLibraryThis@rsystem@base@UModSys@@@tl@UModSys@@2USUniquePointer@core@3@A@@YAXXZ 000000014000c3f8 f    CIL library: CIL module
 0001:0000b42c       ??__E?s_id@?$TObjectUniqueID@URParameters@rsystem@base@UModSys@@@tl@UModSys@@2USUniquePointer@core@3@A@@YAXXZ 000000014000c42c f    CIL library: CIL module
 0001:0000b460       ??__E?s_id@?$TObjectUniqueID@URSystem@rsystem@base@UModSys@@@tl@UModSys@@2USUniquePointer@core@3@A@@YAXXZ 000000014000c460 f    CIL library: CIL module
 0001:0000b494       ??__E?s_id@?$TObjectUniqueID@URConsole_std@rsystem@base@UModSys@@@tl@UModSys@@2USUniquePointer@core@3@A@@YAXXZ 000000014000c494 f    CIL library: CIL module
 0001:0000b4c8       ??__E?s_modreg@RModuleReg@std@media@modules@UModSys@@2U12345@A@@YAXXZ 000000014000c4c8 f    CIL library: CIL module
 0001:0000b510       ??__E?s_modreg_chain@RModuleReg@std@media@modules@UModSys@@2USModuleRegChain@base@5@A@@YAXXZ 000000014000c510 f    CIL library: CIL module
 0001:0000b550       ??__E?s_uid@RGenerator@std@media@modules@UModSys@@2USUniquePointer@core@5@A@@YAXXZ 000000014000c550 f    CIL library: CIL module
 0001:0000b584       ??__E?s_id@?$TObjectUniqueID@UIStreamReader@libmedia@UModSys@@@tl@UModSys@@2USUniquePointer@core@3@A@@YAXXZ 000000014000c584 f    CIL library: CIL module
 0001:0000b5b8       ??__E?s_id@?$TObjectUniqueID@UIStreamWriter@libmedia@UModSys@@@tl@UModSys@@2USUniquePointer@core@3@A@@YAXXZ 000000014000c5b8 f    CIL library: CIL module
 0001:0000b5ec       ??__E?s_id@?$TObjectUniqueID@UIBinArchive@libmedia@UModSys@@@tl@UModSys@@2USUniquePointer@core@3@A@@YAXXZ 000000014000c5ec f    CIL library: CIL module
 0001:0000b620       ??__E?s_id@?$TObjectUniqueID@UIBinObjFilter@libmedia@UModSys@@@tl@UModSys@@2USUniquePointer@core@3@A@@YAXXZ 000000014000c620 f    CIL library: CIL module
 0001:0000b654       ??__E?s_id@?$TObjectUniqueID@UILibrary@libmedia@UModSys@@@tl@UModSys@@2USUniquePointer@core@3@A@@YAXXZ 000000014000c654 f    CIL library: CIL module
 0001:0000b688       ??__E?s_id@?$TObjectUniqueID@UILibraryBinTree@libmedia@UModSys@@@tl@UModSys@@2USUniquePointer@core@3@A@@YAXXZ 000000014000c688 f    CIL library: CIL module
 0001:0000b6bc       ??__E?s_id@?$TObjectUniqueID@UILibraryBinCache@libmedia@UModSys@@@tl@UModSys@@2USUniquePointer@core@3@A@@YAXXZ 000000014000c6bc f    CIL library: CIL module
 0001:0000b6f0       ??__E?s_id@?$TObjectUniqueID@UILibraryObjFilter@libmedia@UModSys@@@tl@UModSys@@2USUniquePointer@core@3@A@@YAXXZ 000000014000c6f0 f    CIL library: CIL module
 0001:0000b724       ??__E?s_id@?$TObjectUniqueID@UILibraryLayered@libmedia@UModSys@@@tl@UModSys@@2USUniquePointer@core@3@A@@YAXXZ 000000014000c724 f    CIL library: CIL module
 0001:0000b758       ??__E?s_id@?$TObjectUniqueID@URLibraryBinCache@std@media@modules@UModSys@@@tl@UModSys@@2USUniquePointer@core@3@A@@YAXXZ 000000014000c758 f    CIL library: CIL module
 0001:0000b78c       ??__E?s_id@?$TObjectUniqueID@URLibraryBinTree@std@media@modules@UModSys@@@tl@UModSys@@2USUniquePointer@core@3@A@@YAXXZ 000000014000c78c f    CIL library: CIL module
 0001:0000b7c0       ??__E?s_id@?$TObjectUniqueID@URGenerator@std@media@modules@UModSys@@@tl@UModSys@@2USUniquePointer@core@3@A@@YAXXZ 000000014000c7c0 f    CIL library: CIL module
 0001:0000b7f4       ??__E?s_modreg@RModuleReg@stdio@media@modules@UModSys@@2U12345@A@@YAXXZ 000000014000c7f4 f    CIL library: CIL module
 0001:0000b83c       ??__E?s_modreg_chain@RModuleReg@stdio@media@modules@UModSys@@2USModuleRegChain@base@5@A@@YAXXZ 000000014000c83c f    CIL library: CIL module
 0001:0000b87c       ??__E?s_uid@RGenerator@stdio@media@modules@UModSys@@2USUniquePointer@core@5@A@@YAXXZ 000000014000c87c f    CIL library: CIL module
 0001:0000b8b0       ??__E?s_id@?$TObjectUniqueID@URStreamReader_FILE@stdio@media@modules@UModSys@@@tl@UModSys@@2USUniquePointer@core@3@A@@YAXXZ 000000014000c8b0 f    CIL library: CIL module
 0001:0000b8e4       ??__E?s_id@?$TObjectUniqueID@URStreamWriter_FILE@stdio@media@modules@UModSys@@@tl@UModSys@@2USUniquePointer@core@3@A@@YAXXZ 000000014000c8e4 f    CIL library: CIL module
 0001:0000b918       ??__E?s_id@?$TObjectUniqueID@URDataArchiver_OsDir@stdio@media@modules@UModSys@@@tl@UModSys@@2USUniquePointer@core@3@A@@YAXXZ 000000014000c918 f    CIL library: CIL module
 0001:0000b94c       ??__E?s_id@?$TObjectUniqueID@URGenerator@stdio@media@modules@UModSys@@@tl@UModSys@@2USUniquePointer@core@3@A@@YAXXZ 000000014000c94c f    CIL library: CIL module
 0001:0000b980       ??__E?s_console@RConsole_std@rsystem@base@UModSys@@2U1234@A@@YAXXZ 000000014000c980 f    CIL library: CIL module
 0001:0000b98c       ??__E?s_sys@RSystem@rsystem@base@UModSys@@2U1234@A@@YAXXZ 000000014000c98c f    CIL library: CIL module
 0001:0000b998       ??__Ersys_dbg@rsystem@base@UModSys@@YAXXZ 000000014000c998 f    CIL library: CIL module
 0001:0000b9a4       ??__EM@UModSys@@YAXXZ      000000014000c9a4 f    CIL library: CIL module
 0001:0000b9b0       ??__E?root@SModuleRegChain@base@UModSys@@2U123@A@@YAXXZ 000000014000c9b0 f    CIL library: CIL module
 0001:0000b9bc       ??__E?s_library@RModuleLibraryReg_Chain@base@UModSys@@2U123@A@@YAXXZ 000000014000c9bc f    CIL library: CIL module
 0001:0000b9c8       ??__E?root@SUniquePointer@core@UModSys@@2U123@A@@YAXXZ 000000014000c9c8 f    CIL library: CIL module
 0001:0000b9d4       ??__F?s_id@?$TObjectUniqueID@URConsole_std@rsystem@base@UModSys@@@tl@UModSys@@2USUniquePointer@core@3@A@@YAXXZ 000000014000c9d4 f    CIL library: CIL module
 0001:0000b9e0       ??__F?s_id@?$TObjectUniqueID@URSystem@rsystem@base@UModSys@@@tl@UModSys@@2USUniquePointer@core@3@A@@YAXXZ 000000014000c9e0 f    CIL library: CIL module
 0001:0000b9ec       ??__F?s_id@?$TObjectUniqueID@URParameters@rsystem@base@UModSys@@@tl@UModSys@@2USUniquePointer@core@3@A@@YAXXZ 000000014000c9ec f    CIL library: CIL module
 0001:0000b9f8       ??__F?s_id@?$TObjectUniqueID@URModuleLibraryThis@rsystem@base@UModSys@@@tl@UModSys@@2USUniquePointer@core@3@A@@YAXXZ 000000014000c9f8 f    CIL library: CIL module
 0001:0000ba04       ??__F?s_id@?$TObjectUniqueID@URModuleLibrarySO@rsystem@base@UModSys@@@tl@UModSys@@2USUniquePointer@core@3@A@@YAXXZ 000000014000ca04 f    CIL library: CIL module
 0001:0000ba10       ??__F?s_id@?$TObjectUniqueID@UIModuleLibraryUni@rsystem@base@UModSys@@@tl@UModSys@@2USUniquePointer@core@3@A@@YAXXZ 000000014000ca10 f    CIL library: CIL module
 0001:0000ba1c       ??__F?s_id@?$TObjectUniqueID@URModule@rsystem@base@UModSys@@@tl@UModSys@@2USUniquePointer@core@3@A@@YAXXZ 000000014000ca1c f    CIL library: CIL module
 0001:0000ba28       ??__F?s_id@?$TObjectUniqueID@UISystem@base@UModSys@@@tl@UModSys@@2USUniquePointer@core@3@A@@YAXXZ 000000014000ca28 f    CIL library: CIL module
 0001:0000ba34       ??__F?s_id@?$TObjectUniqueID@UIConsole@base@UModSys@@@tl@UModSys@@2USUniquePointer@core@3@A@@YAXXZ 000000014000ca34 f    CIL library: CIL module
 0001:0000ba40       ??__F?s_id@?$TObjectUniqueID@UIShell@base@UModSys@@@tl@UModSys@@2USUniquePointer@core@3@A@@YAXXZ 000000014000ca40 f    CIL library: CIL module
 0001:0000ba4c       ??__F?s_id@?$TObjectUniqueID@UIGenerator@base@UModSys@@@tl@UModSys@@2USUniquePointer@core@3@A@@YAXXZ 000000014000ca4c f    CIL library: CIL module
 0001:0000ba58       ??__F?s_id@?$TObjectUniqueID@UIModObject@base@UModSys@@@tl@UModSys@@2USUniquePointer@core@3@A@@YAXXZ 000000014000ca58 f    CIL library: CIL module
 0001:0000ba64       ??__F?s_id@?$TObjectUniqueID@UIModuleLibrary@base@UModSys@@@tl@UModSys@@2USUniquePointer@core@3@A@@YAXXZ 000000014000ca64 f    CIL library: CIL module
 0001:0000ba70       ??__F?s_id@?$TObjectUniqueID@UIModule@base@UModSys@@@tl@UModSys@@2USUniquePointer@core@3@A@@YAXXZ 000000014000ca70 f    CIL library: CIL module
 0001:0000ba7c       ??__F?s_id@?$TObjectUniqueID@UIParameters@core@UModSys@@@tl@UModSys@@2USUniquePointer@core@3@A@@YAXXZ 000000014000ca7c f    CIL library: CIL module
 0001:0000ba88       ??__F?s_id@?$TObjectUniqueID@UIRefObject@core@UModSys@@@tl@UModSys@@2USUniquePointer@core@3@A@@YAXXZ 000000014000ca88 f    CIL library: CIL module
 0001:0000ba94       ??__F?s_id@?$TObjectUniqueID@UIRoot@core@UModSys@@@tl@UModSys@@2USUniquePointer@core@3@A@@YAXXZ 000000014000ca94 f    CIL library: CIL module
 0001:0000baa0       ??__F?s_modreg@RModuleReg@std@media@modules@UModSys@@2U12345@A@@YAXXZ 000000014000caa0 f    CIL library: CIL module
 0001:0000bab0       ??__F?s_modreg_chain@RModuleReg@std@media@modules@UModSys@@2USModuleRegChain@base@5@A@@YAXXZ 000000014000cab0 f    CIL library: CIL module
 0001:0000baf0       ??__F?s_uid@RGenerator@std@media@modules@UModSys@@2USUniquePointer@core@5@A@@YAXXZ 000000014000caf0 f    CIL library: CIL module
 0001:0000bafc       ??__Fh@?1??s_holder@RGenerator@std@media@modules@UModSys@@SAAEAU?$TTypeStaticHolder@URGenerator@std@media@modules@UModSys@@@tl@5@XZ@YAXXZ 000000014000cafc f    CIL library: CIL module
 0001:0000bb24       ??__F?s_id@?$TObjectUniqueID@URGenerator@std@media@modules@UModSys@@@tl@UModSys@@2USUniquePointer@core@3@A@@YAXXZ 000000014000cb24 f    CIL library: CIL module
 0001:0000bb30       ??__F?s_id@?$TObjectUniqueID@URLibraryBinTree@std@media@modules@UModSys@@@tl@UModSys@@2USUniquePointer@core@3@A@@YAXXZ 000000014000cb30 f    CIL library: CIL module
 0001:0000bb3c       ??__F?s_id@?$TObjectUniqueID@URLibraryBinCache@std@media@modules@UModSys@@@tl@UModSys@@2USUniquePointer@core@3@A@@YAXXZ 000000014000cb3c f    CIL library: CIL module
 0001:0000bb48       ??__F?s_id@?$TObjectUniqueID@UILibraryLayered@libmedia@UModSys@@@tl@UModSys@@2USUniquePointer@core@3@A@@YAXXZ 000000014000cb48 f    CIL library: CIL module
 0001:0000bb54       ??__F?s_id@?$TObjectUniqueID@UILibraryObjFilter@libmedia@UModSys@@@tl@UModSys@@2USUniquePointer@core@3@A@@YAXXZ 000000014000cb54 f    CIL library: CIL module
 0001:0000bb60       ??__F?s_id@?$TObjectUniqueID@UILibraryBinCache@libmedia@UModSys@@@tl@UModSys@@2USUniquePointer@core@3@A@@YAXXZ 000000014000cb60 f    CIL library: CIL module
 0001:0000bb6c       ??__F?s_id@?$TObjectUniqueID@UILibraryBinTree@libmedia@UModSys@@@tl@UModSys@@2USUniquePointer@core@3@A@@YAXXZ 000000014000cb6c f    CIL library: CIL module
 0001:0000bb78       ??__F?s_id@?$TObjectUniqueID@UILibrary@libmedia@UModSys@@@tl@UModSys@@2USUniquePointer@core@3@A@@YAXXZ 000000014000cb78 f    CIL library: CIL module
 0001:0000bb84       ??__F?s_id@?$TObjectUniqueID@UIBinObjFilter@libmedia@UModSys@@@tl@UModSys@@2USUniquePointer@core@3@A@@YAXXZ 000000014000cb84 f    CIL library: CIL module
 0001:0000bb90       ??__F?s_id@?$TObjectUniqueID@UIBinArchive@libmedia@UModSys@@@tl@UModSys@@2USUniquePointer@core@3@A@@YAXXZ 000000014000cb90 f    CIL library: CIL module
 0001:0000bb9c       ??__F?s_id@?$TObjectUniqueID@UIStreamWriter@libmedia@UModSys@@@tl@UModSys@@2USUniquePointer@core@3@A@@YAXXZ 000000014000cb9c f    CIL library: CIL module
 0001:0000bba8       ??__F?s_id@?$TObjectUniqueID@UIStreamReader@libmedia@UModSys@@@tl@UModSys@@2USUniquePointer@core@3@A@@YAXXZ 000000014000cba8 f    CIL library: CIL module
 0001:0000bbb4       ??__F?s_modreg@RModuleReg@stdio@media@modules@UModSys@@2U12345@A@@YAXXZ 000000014000cbb4 f    CIL library: CIL module
 0001:0000bbc4       ??__F?s_modreg_chain@RModuleReg@stdio@media@modules@UModSys@@2USModuleRegChain@base@5@A@@YAXXZ 000000014000cbc4 f    CIL library: CIL module
 0001:0000bc04       ??__F?s_uid@RGenerator@stdio@media@modules@UModSys@@2USUniquePointer@core@5@A@@YAXXZ 000000014000cc04 f    CIL library: CIL module
 0001:0000bc10       ??__Fh@?1??s_holder@RGenerator@stdio@media@modules@UModSys@@SAAEAU?$TTypeStaticHolder@URGenerator@stdio@media@modules@UModSys@@@tl@5@XZ@YAXXZ 000000014000cc10 f    CIL library: CIL module
 0001:0000bc38       ??__F?s_id@?$TObjectUniqueID@URGenerator@stdio@media@modules@UModSys@@@tl@UModSys@@2USUniquePointer@core@3@A@@YAXXZ 000000014000cc38 f    CIL library: CIL module
 0001:0000bc44       ??__F?s_id@?$TObjectUniqueID@URDataArchiver_OsDir@stdio@media@modules@UModSys@@@tl@UModSys@@2USUniquePointer@core@3@A@@YAXXZ 000000014000cc44 f    CIL library: CIL module
 0001:0000bc50       ??__F?s_id@?$TObjectUniqueID@URStreamWriter_FILE@stdio@media@modules@UModSys@@@tl@UModSys@@2USUniquePointer@core@3@A@@YAXXZ 000000014000cc50 f    CIL library: CIL module
 0001:0000bc5c       ??__F?s_id@?$TObjectUniqueID@URStreamReader_FILE@stdio@media@modules@UModSys@@@tl@UModSys@@2USUniquePointer@core@3@A@@YAXXZ 000000014000cc5c f    CIL library: CIL module
 0001:0000bc68       ??__F?s_console@RConsole_std@rsystem@base@UModSys@@2U1234@A@@YAXXZ 000000014000cc68 f    CIL library: CIL module
 0001:0000bca8       ??__F?s_sys@RSystem@rsystem@base@UModSys@@2U1234@A@@YAXXZ 000000014000cca8 f    CIL library: CIL module
 0001:0000bcb4       ??__Frsys_dbg@rsystem@base@UModSys@@YAXXZ 000000014000ccb4 f    CIL library: CIL module
 0001:0000bcd8       ??__FM@UModSys@@YAXXZ      000000014000ccd8 f    CIL library: CIL module
 0001:0000bcdc       ??__F?root@SModuleRegChain@base@UModSys@@2U123@A@@YAXXZ 000000014000ccdc f    CIL library: CIL module
 0001:0000bd1c       ??__F?s_library@RModuleLibraryReg_Chain@base@UModSys@@2U123@A@@YAXXZ 000000014000cd1c f    CIL library: CIL module
 0001:0000bd2c       ??__F?root@SUniquePointer@core@UModSys@@2U123@A@@YAXXZ 000000014000cd2c f    CIL library: CIL module

 Exports

  ordinal    name

        1    UModSys_Plugin_Entry2
